ARM GAS  /tmp/ccD6LWGo.s 			page 1


   1              		.cpu cortex-m7
   2              		.eabi_attribute 28, 1
   3              		.eabi_attribute 20, 1
   4              		.eabi_attribute 21, 1
   5              		.eabi_attribute 23, 3
   6              		.eabi_attribute 24, 1
   7              		.eabi_attribute 25, 1
   8              		.eabi_attribute 26, 1
   9              		.eabi_attribute 30, 1
  10              		.eabi_attribute 34, 1
  11              		.eabi_attribute 18, 4
  12              		.file	"lv_arc.c"
  13              		.text
  14              	.Ltext0:
  15              		.cfi_sections	.debug_frame
  16              		.section	.text.get_angle,"ax",%progbits
  17              		.align	1
  18              		.syntax unified
  19              		.thumb
  20              		.thumb_func
  21              		.fpu fpv5-d16
  23              	get_angle:
  24              	.LFB187:
  25              		.file 1 "Drivers/lvgl/lvgl/src/widgets/lv_arc.c"
   1:Drivers/lvgl/lvgl/src/widgets/lv_arc.c **** /**
   2:Drivers/lvgl/lvgl/src/widgets/lv_arc.c ****  * @file lv_arc.c
   3:Drivers/lvgl/lvgl/src/widgets/lv_arc.c ****  *
   4:Drivers/lvgl/lvgl/src/widgets/lv_arc.c ****  */
   5:Drivers/lvgl/lvgl/src/widgets/lv_arc.c **** 
   6:Drivers/lvgl/lvgl/src/widgets/lv_arc.c **** /*********************
   7:Drivers/lvgl/lvgl/src/widgets/lv_arc.c ****  *      INCLUDES
   8:Drivers/lvgl/lvgl/src/widgets/lv_arc.c ****  *********************/
   9:Drivers/lvgl/lvgl/src/widgets/lv_arc.c **** #include "lv_arc.h"
  10:Drivers/lvgl/lvgl/src/widgets/lv_arc.c **** #if LV_USE_ARC != 0
  11:Drivers/lvgl/lvgl/src/widgets/lv_arc.c **** 
  12:Drivers/lvgl/lvgl/src/widgets/lv_arc.c **** #include "../core/lv_group.h"
  13:Drivers/lvgl/lvgl/src/widgets/lv_arc.c **** #include "../core/lv_indev.h"
  14:Drivers/lvgl/lvgl/src/widgets/lv_arc.c **** #include "../misc/lv_assert.h"
  15:Drivers/lvgl/lvgl/src/widgets/lv_arc.c **** #include "../misc/lv_math.h"
  16:Drivers/lvgl/lvgl/src/widgets/lv_arc.c **** #include "../draw/lv_draw_arc.h"
  17:Drivers/lvgl/lvgl/src/widgets/lv_arc.c **** 
  18:Drivers/lvgl/lvgl/src/widgets/lv_arc.c **** /*********************
  19:Drivers/lvgl/lvgl/src/widgets/lv_arc.c ****  *      DEFINES
  20:Drivers/lvgl/lvgl/src/widgets/lv_arc.c ****  *********************/
  21:Drivers/lvgl/lvgl/src/widgets/lv_arc.c **** #define MY_CLASS &lv_arc_class
  22:Drivers/lvgl/lvgl/src/widgets/lv_arc.c **** 
  23:Drivers/lvgl/lvgl/src/widgets/lv_arc.c **** #define VALUE_UNSET INT16_MIN
  24:Drivers/lvgl/lvgl/src/widgets/lv_arc.c **** 
  25:Drivers/lvgl/lvgl/src/widgets/lv_arc.c **** /**********************
  26:Drivers/lvgl/lvgl/src/widgets/lv_arc.c ****  *      TYPEDEFS
  27:Drivers/lvgl/lvgl/src/widgets/lv_arc.c ****  **********************/
  28:Drivers/lvgl/lvgl/src/widgets/lv_arc.c **** 
  29:Drivers/lvgl/lvgl/src/widgets/lv_arc.c **** /**********************
  30:Drivers/lvgl/lvgl/src/widgets/lv_arc.c ****  *  STATIC PROTOTYPES
  31:Drivers/lvgl/lvgl/src/widgets/lv_arc.c ****  **********************/
  32:Drivers/lvgl/lvgl/src/widgets/lv_arc.c **** 
  33:Drivers/lvgl/lvgl/src/widgets/lv_arc.c **** static void lv_arc_constructor(const lv_obj_class_t * class_p, lv_obj_t * obj);
ARM GAS  /tmp/ccD6LWGo.s 			page 2


  34:Drivers/lvgl/lvgl/src/widgets/lv_arc.c **** static void lv_arc_draw(lv_event_t * e);
  35:Drivers/lvgl/lvgl/src/widgets/lv_arc.c **** static void lv_arc_event(const lv_obj_class_t * class_p, lv_event_t * e);
  36:Drivers/lvgl/lvgl/src/widgets/lv_arc.c **** static void inv_arc_area(lv_obj_t * arc, uint16_t start_angle, uint16_t end_angle, lv_part_t part);
  37:Drivers/lvgl/lvgl/src/widgets/lv_arc.c **** static void inv_knob_area(lv_obj_t * obj);
  38:Drivers/lvgl/lvgl/src/widgets/lv_arc.c **** static void get_center(const lv_obj_t * obj, lv_point_t * center, lv_coord_t * arc_r);
  39:Drivers/lvgl/lvgl/src/widgets/lv_arc.c **** static lv_coord_t get_angle(const lv_obj_t * obj);
  40:Drivers/lvgl/lvgl/src/widgets/lv_arc.c **** static void get_knob_area(lv_obj_t * arc, const lv_point_t * center, lv_coord_t r, lv_area_t * knob
  41:Drivers/lvgl/lvgl/src/widgets/lv_arc.c **** static void value_update(lv_obj_t * arc);
  42:Drivers/lvgl/lvgl/src/widgets/lv_arc.c **** static lv_coord_t knob_get_extra_size(lv_obj_t * obj);
  43:Drivers/lvgl/lvgl/src/widgets/lv_arc.c **** 
  44:Drivers/lvgl/lvgl/src/widgets/lv_arc.c **** /**********************
  45:Drivers/lvgl/lvgl/src/widgets/lv_arc.c ****  *  STATIC VARIABLES
  46:Drivers/lvgl/lvgl/src/widgets/lv_arc.c ****  **********************/
  47:Drivers/lvgl/lvgl/src/widgets/lv_arc.c **** const lv_obj_class_t lv_arc_class  = {
  48:Drivers/lvgl/lvgl/src/widgets/lv_arc.c ****     .constructor_cb = lv_arc_constructor,
  49:Drivers/lvgl/lvgl/src/widgets/lv_arc.c ****     .event_cb = lv_arc_event,
  50:Drivers/lvgl/lvgl/src/widgets/lv_arc.c ****     .instance_size = sizeof(lv_arc_t),
  51:Drivers/lvgl/lvgl/src/widgets/lv_arc.c ****     .editable = LV_OBJ_CLASS_EDITABLE_TRUE,
  52:Drivers/lvgl/lvgl/src/widgets/lv_arc.c ****     .base_class = &lv_obj_class
  53:Drivers/lvgl/lvgl/src/widgets/lv_arc.c **** };
  54:Drivers/lvgl/lvgl/src/widgets/lv_arc.c **** 
  55:Drivers/lvgl/lvgl/src/widgets/lv_arc.c **** /**********************
  56:Drivers/lvgl/lvgl/src/widgets/lv_arc.c ****  *      MACROS
  57:Drivers/lvgl/lvgl/src/widgets/lv_arc.c ****  **********************/
  58:Drivers/lvgl/lvgl/src/widgets/lv_arc.c **** 
  59:Drivers/lvgl/lvgl/src/widgets/lv_arc.c **** /**********************
  60:Drivers/lvgl/lvgl/src/widgets/lv_arc.c ****  *   GLOBAL FUNCTIONS
  61:Drivers/lvgl/lvgl/src/widgets/lv_arc.c ****  **********************/
  62:Drivers/lvgl/lvgl/src/widgets/lv_arc.c **** 
  63:Drivers/lvgl/lvgl/src/widgets/lv_arc.c **** lv_obj_t * lv_arc_create(lv_obj_t * parent)
  64:Drivers/lvgl/lvgl/src/widgets/lv_arc.c **** {
  65:Drivers/lvgl/lvgl/src/widgets/lv_arc.c ****     LV_LOG_INFO("begin");
  66:Drivers/lvgl/lvgl/src/widgets/lv_arc.c ****     lv_obj_t * obj = lv_obj_class_create_obj(MY_CLASS, parent);
  67:Drivers/lvgl/lvgl/src/widgets/lv_arc.c ****     lv_obj_class_init_obj(obj);
  68:Drivers/lvgl/lvgl/src/widgets/lv_arc.c ****     return obj;
  69:Drivers/lvgl/lvgl/src/widgets/lv_arc.c **** }
  70:Drivers/lvgl/lvgl/src/widgets/lv_arc.c **** 
  71:Drivers/lvgl/lvgl/src/widgets/lv_arc.c **** /*======================
  72:Drivers/lvgl/lvgl/src/widgets/lv_arc.c ****  * Add/remove functions
  73:Drivers/lvgl/lvgl/src/widgets/lv_arc.c ****  *=====================*/
  74:Drivers/lvgl/lvgl/src/widgets/lv_arc.c **** 
  75:Drivers/lvgl/lvgl/src/widgets/lv_arc.c **** /*
  76:Drivers/lvgl/lvgl/src/widgets/lv_arc.c ****  * New object specific "add" or "remove" functions come here
  77:Drivers/lvgl/lvgl/src/widgets/lv_arc.c ****  */
  78:Drivers/lvgl/lvgl/src/widgets/lv_arc.c **** 
  79:Drivers/lvgl/lvgl/src/widgets/lv_arc.c **** /*=====================
  80:Drivers/lvgl/lvgl/src/widgets/lv_arc.c ****  * Setter functions
  81:Drivers/lvgl/lvgl/src/widgets/lv_arc.c ****  *====================*/
  82:Drivers/lvgl/lvgl/src/widgets/lv_arc.c **** 
  83:Drivers/lvgl/lvgl/src/widgets/lv_arc.c **** void lv_arc_set_start_angle(lv_obj_t * obj, uint16_t start)
  84:Drivers/lvgl/lvgl/src/widgets/lv_arc.c **** {
  85:Drivers/lvgl/lvgl/src/widgets/lv_arc.c ****     LV_ASSERT_OBJ(obj, MY_CLASS);
  86:Drivers/lvgl/lvgl/src/widgets/lv_arc.c ****     lv_arc_t * arc = (lv_arc_t *)obj;
  87:Drivers/lvgl/lvgl/src/widgets/lv_arc.c **** 
  88:Drivers/lvgl/lvgl/src/widgets/lv_arc.c ****     if(start > 360) start -= 360;
  89:Drivers/lvgl/lvgl/src/widgets/lv_arc.c **** 
  90:Drivers/lvgl/lvgl/src/widgets/lv_arc.c ****     int16_t old_delta = arc->indic_angle_end - arc->indic_angle_start;
ARM GAS  /tmp/ccD6LWGo.s 			page 3


  91:Drivers/lvgl/lvgl/src/widgets/lv_arc.c ****     int16_t new_delta = arc->indic_angle_end - start;
  92:Drivers/lvgl/lvgl/src/widgets/lv_arc.c **** 
  93:Drivers/lvgl/lvgl/src/widgets/lv_arc.c ****     if(old_delta < 0) old_delta = 360 + old_delta;
  94:Drivers/lvgl/lvgl/src/widgets/lv_arc.c ****     if(new_delta < 0) new_delta = 360 + new_delta;
  95:Drivers/lvgl/lvgl/src/widgets/lv_arc.c **** 
  96:Drivers/lvgl/lvgl/src/widgets/lv_arc.c ****     if(LV_ABS(new_delta - old_delta) > 180)  lv_obj_invalidate(obj);
  97:Drivers/lvgl/lvgl/src/widgets/lv_arc.c ****     else if(new_delta < old_delta) inv_arc_area(obj, arc->indic_angle_start, start, LV_PART_INDICAT
  98:Drivers/lvgl/lvgl/src/widgets/lv_arc.c ****     else if(old_delta < new_delta) inv_arc_area(obj, start, arc->indic_angle_start, LV_PART_INDICAT
  99:Drivers/lvgl/lvgl/src/widgets/lv_arc.c **** 
 100:Drivers/lvgl/lvgl/src/widgets/lv_arc.c ****     inv_knob_area(obj);
 101:Drivers/lvgl/lvgl/src/widgets/lv_arc.c **** 
 102:Drivers/lvgl/lvgl/src/widgets/lv_arc.c ****     arc->indic_angle_start = start;
 103:Drivers/lvgl/lvgl/src/widgets/lv_arc.c **** 
 104:Drivers/lvgl/lvgl/src/widgets/lv_arc.c ****     inv_knob_area(obj);
 105:Drivers/lvgl/lvgl/src/widgets/lv_arc.c **** }
 106:Drivers/lvgl/lvgl/src/widgets/lv_arc.c **** 
 107:Drivers/lvgl/lvgl/src/widgets/lv_arc.c **** void lv_arc_set_end_angle(lv_obj_t * obj, uint16_t end)
 108:Drivers/lvgl/lvgl/src/widgets/lv_arc.c **** {
 109:Drivers/lvgl/lvgl/src/widgets/lv_arc.c ****     LV_ASSERT_OBJ(obj, MY_CLASS);
 110:Drivers/lvgl/lvgl/src/widgets/lv_arc.c ****     lv_arc_t * arc = (lv_arc_t *)obj;
 111:Drivers/lvgl/lvgl/src/widgets/lv_arc.c ****     if(end > 360) end -= 360;
 112:Drivers/lvgl/lvgl/src/widgets/lv_arc.c **** 
 113:Drivers/lvgl/lvgl/src/widgets/lv_arc.c ****     int16_t old_delta = arc->indic_angle_end - arc->indic_angle_start;
 114:Drivers/lvgl/lvgl/src/widgets/lv_arc.c ****     int16_t new_delta = end - arc->indic_angle_start;
 115:Drivers/lvgl/lvgl/src/widgets/lv_arc.c **** 
 116:Drivers/lvgl/lvgl/src/widgets/lv_arc.c ****     if(old_delta < 0) old_delta = 360 + old_delta;
 117:Drivers/lvgl/lvgl/src/widgets/lv_arc.c ****     if(new_delta < 0) new_delta = 360 + new_delta;
 118:Drivers/lvgl/lvgl/src/widgets/lv_arc.c **** 
 119:Drivers/lvgl/lvgl/src/widgets/lv_arc.c ****     if(LV_ABS(new_delta - old_delta) > 180)  lv_obj_invalidate(obj);
 120:Drivers/lvgl/lvgl/src/widgets/lv_arc.c ****     else if(new_delta < old_delta) inv_arc_area(obj, end, arc->indic_angle_end, LV_PART_INDICATOR);
 121:Drivers/lvgl/lvgl/src/widgets/lv_arc.c ****     else if(old_delta < new_delta) inv_arc_area(obj, arc->indic_angle_end, end, LV_PART_INDICATOR);
 122:Drivers/lvgl/lvgl/src/widgets/lv_arc.c **** 
 123:Drivers/lvgl/lvgl/src/widgets/lv_arc.c ****     inv_knob_area(obj);
 124:Drivers/lvgl/lvgl/src/widgets/lv_arc.c **** 
 125:Drivers/lvgl/lvgl/src/widgets/lv_arc.c ****     arc->indic_angle_end = end;
 126:Drivers/lvgl/lvgl/src/widgets/lv_arc.c **** 
 127:Drivers/lvgl/lvgl/src/widgets/lv_arc.c ****     inv_knob_area(obj);
 128:Drivers/lvgl/lvgl/src/widgets/lv_arc.c **** }
 129:Drivers/lvgl/lvgl/src/widgets/lv_arc.c **** 
 130:Drivers/lvgl/lvgl/src/widgets/lv_arc.c **** void lv_arc_set_angles(lv_obj_t * obj, uint16_t start, uint16_t end)
 131:Drivers/lvgl/lvgl/src/widgets/lv_arc.c **** {
 132:Drivers/lvgl/lvgl/src/widgets/lv_arc.c ****     lv_arc_set_end_angle(obj, end);
 133:Drivers/lvgl/lvgl/src/widgets/lv_arc.c ****     lv_arc_set_start_angle(obj, start);
 134:Drivers/lvgl/lvgl/src/widgets/lv_arc.c **** }
 135:Drivers/lvgl/lvgl/src/widgets/lv_arc.c **** 
 136:Drivers/lvgl/lvgl/src/widgets/lv_arc.c **** void lv_arc_set_bg_start_angle(lv_obj_t * obj, uint16_t start)
 137:Drivers/lvgl/lvgl/src/widgets/lv_arc.c **** {
 138:Drivers/lvgl/lvgl/src/widgets/lv_arc.c ****     LV_ASSERT_OBJ(obj, MY_CLASS);
 139:Drivers/lvgl/lvgl/src/widgets/lv_arc.c ****     lv_arc_t * arc = (lv_arc_t *)obj;
 140:Drivers/lvgl/lvgl/src/widgets/lv_arc.c **** 
 141:Drivers/lvgl/lvgl/src/widgets/lv_arc.c ****     if(start > 360) start -= 360;
 142:Drivers/lvgl/lvgl/src/widgets/lv_arc.c **** 
 143:Drivers/lvgl/lvgl/src/widgets/lv_arc.c ****     int16_t old_delta = arc->bg_angle_end - arc->bg_angle_start;
 144:Drivers/lvgl/lvgl/src/widgets/lv_arc.c ****     int16_t new_delta = arc->bg_angle_end - start;
 145:Drivers/lvgl/lvgl/src/widgets/lv_arc.c **** 
 146:Drivers/lvgl/lvgl/src/widgets/lv_arc.c ****     if(old_delta < 0) old_delta = 360 + old_delta;
 147:Drivers/lvgl/lvgl/src/widgets/lv_arc.c ****     if(new_delta < 0) new_delta = 360 + new_delta;
ARM GAS  /tmp/ccD6LWGo.s 			page 4


 148:Drivers/lvgl/lvgl/src/widgets/lv_arc.c **** 
 149:Drivers/lvgl/lvgl/src/widgets/lv_arc.c ****     if(LV_ABS(new_delta - old_delta) > 180)  lv_obj_invalidate(obj);
 150:Drivers/lvgl/lvgl/src/widgets/lv_arc.c ****     else if(new_delta < old_delta) inv_arc_area(obj, arc->bg_angle_start, start, LV_PART_MAIN);
 151:Drivers/lvgl/lvgl/src/widgets/lv_arc.c ****     else if(old_delta < new_delta) inv_arc_area(obj, start, arc->bg_angle_start, LV_PART_MAIN);
 152:Drivers/lvgl/lvgl/src/widgets/lv_arc.c **** 
 153:Drivers/lvgl/lvgl/src/widgets/lv_arc.c ****     arc->bg_angle_start = start;
 154:Drivers/lvgl/lvgl/src/widgets/lv_arc.c **** 
 155:Drivers/lvgl/lvgl/src/widgets/lv_arc.c ****     value_update(obj);
 156:Drivers/lvgl/lvgl/src/widgets/lv_arc.c **** }
 157:Drivers/lvgl/lvgl/src/widgets/lv_arc.c **** 
 158:Drivers/lvgl/lvgl/src/widgets/lv_arc.c **** void lv_arc_set_bg_end_angle(lv_obj_t * obj, uint16_t end)
 159:Drivers/lvgl/lvgl/src/widgets/lv_arc.c **** {
 160:Drivers/lvgl/lvgl/src/widgets/lv_arc.c ****     LV_ASSERT_OBJ(obj, MY_CLASS);
 161:Drivers/lvgl/lvgl/src/widgets/lv_arc.c ****     lv_arc_t * arc = (lv_arc_t *)obj;
 162:Drivers/lvgl/lvgl/src/widgets/lv_arc.c **** 
 163:Drivers/lvgl/lvgl/src/widgets/lv_arc.c ****     if(end > 360) end -= 360;
 164:Drivers/lvgl/lvgl/src/widgets/lv_arc.c **** 
 165:Drivers/lvgl/lvgl/src/widgets/lv_arc.c ****     int16_t old_delta = arc->bg_angle_end - arc->bg_angle_start;
 166:Drivers/lvgl/lvgl/src/widgets/lv_arc.c ****     int16_t new_delta = end - arc->bg_angle_start;
 167:Drivers/lvgl/lvgl/src/widgets/lv_arc.c **** 
 168:Drivers/lvgl/lvgl/src/widgets/lv_arc.c ****     if(old_delta < 0) old_delta = 360 + old_delta;
 169:Drivers/lvgl/lvgl/src/widgets/lv_arc.c ****     if(new_delta < 0) new_delta = 360 + new_delta;
 170:Drivers/lvgl/lvgl/src/widgets/lv_arc.c **** 
 171:Drivers/lvgl/lvgl/src/widgets/lv_arc.c ****     if(LV_ABS(new_delta - old_delta) > 180)  lv_obj_invalidate(obj);
 172:Drivers/lvgl/lvgl/src/widgets/lv_arc.c ****     else if(new_delta < old_delta) inv_arc_area(obj, end, arc->bg_angle_end, LV_PART_MAIN);
 173:Drivers/lvgl/lvgl/src/widgets/lv_arc.c ****     else if(old_delta < new_delta) inv_arc_area(obj, arc->bg_angle_end, end, LV_PART_MAIN);
 174:Drivers/lvgl/lvgl/src/widgets/lv_arc.c **** 
 175:Drivers/lvgl/lvgl/src/widgets/lv_arc.c ****     arc->bg_angle_end = end;
 176:Drivers/lvgl/lvgl/src/widgets/lv_arc.c **** 
 177:Drivers/lvgl/lvgl/src/widgets/lv_arc.c ****     value_update(obj);
 178:Drivers/lvgl/lvgl/src/widgets/lv_arc.c **** }
 179:Drivers/lvgl/lvgl/src/widgets/lv_arc.c **** 
 180:Drivers/lvgl/lvgl/src/widgets/lv_arc.c **** void lv_arc_set_bg_angles(lv_obj_t * obj, uint16_t start, uint16_t end)
 181:Drivers/lvgl/lvgl/src/widgets/lv_arc.c **** {
 182:Drivers/lvgl/lvgl/src/widgets/lv_arc.c ****     lv_arc_set_bg_end_angle(obj, end);
 183:Drivers/lvgl/lvgl/src/widgets/lv_arc.c ****     lv_arc_set_bg_start_angle(obj, start);
 184:Drivers/lvgl/lvgl/src/widgets/lv_arc.c **** }
 185:Drivers/lvgl/lvgl/src/widgets/lv_arc.c **** 
 186:Drivers/lvgl/lvgl/src/widgets/lv_arc.c **** void lv_arc_set_rotation(lv_obj_t * obj, uint16_t rotation)
 187:Drivers/lvgl/lvgl/src/widgets/lv_arc.c **** {
 188:Drivers/lvgl/lvgl/src/widgets/lv_arc.c ****     LV_ASSERT_OBJ(obj, MY_CLASS);
 189:Drivers/lvgl/lvgl/src/widgets/lv_arc.c ****     lv_arc_t * arc = (lv_arc_t *)obj;
 190:Drivers/lvgl/lvgl/src/widgets/lv_arc.c **** 
 191:Drivers/lvgl/lvgl/src/widgets/lv_arc.c ****     arc->rotation = rotation;
 192:Drivers/lvgl/lvgl/src/widgets/lv_arc.c **** 
 193:Drivers/lvgl/lvgl/src/widgets/lv_arc.c ****     lv_obj_invalidate(obj);
 194:Drivers/lvgl/lvgl/src/widgets/lv_arc.c **** }
 195:Drivers/lvgl/lvgl/src/widgets/lv_arc.c **** 
 196:Drivers/lvgl/lvgl/src/widgets/lv_arc.c **** void lv_arc_set_mode(lv_obj_t * obj, lv_arc_mode_t type)
 197:Drivers/lvgl/lvgl/src/widgets/lv_arc.c **** {
 198:Drivers/lvgl/lvgl/src/widgets/lv_arc.c ****     LV_ASSERT_OBJ(obj, MY_CLASS);
 199:Drivers/lvgl/lvgl/src/widgets/lv_arc.c ****     lv_arc_t * arc = (lv_arc_t *)obj;
 200:Drivers/lvgl/lvgl/src/widgets/lv_arc.c **** 
 201:Drivers/lvgl/lvgl/src/widgets/lv_arc.c ****     int16_t val = arc->value;
 202:Drivers/lvgl/lvgl/src/widgets/lv_arc.c **** 
 203:Drivers/lvgl/lvgl/src/widgets/lv_arc.c ****     arc->type = type;
 204:Drivers/lvgl/lvgl/src/widgets/lv_arc.c ****     arc->value = -1; /** Force set_value handling*/
ARM GAS  /tmp/ccD6LWGo.s 			page 5


 205:Drivers/lvgl/lvgl/src/widgets/lv_arc.c **** 
 206:Drivers/lvgl/lvgl/src/widgets/lv_arc.c ****     int16_t bg_midpoint, bg_end = arc->bg_angle_end;
 207:Drivers/lvgl/lvgl/src/widgets/lv_arc.c ****     if(arc->bg_angle_end < arc->bg_angle_start) bg_end = arc->bg_angle_end + 360;
 208:Drivers/lvgl/lvgl/src/widgets/lv_arc.c **** 
 209:Drivers/lvgl/lvgl/src/widgets/lv_arc.c ****     switch(arc->type) {
 210:Drivers/lvgl/lvgl/src/widgets/lv_arc.c ****         case LV_ARC_MODE_SYMMETRICAL:
 211:Drivers/lvgl/lvgl/src/widgets/lv_arc.c ****             bg_midpoint = (arc->bg_angle_start + bg_end) / 2;
 212:Drivers/lvgl/lvgl/src/widgets/lv_arc.c ****             lv_arc_set_start_angle(obj, bg_midpoint);
 213:Drivers/lvgl/lvgl/src/widgets/lv_arc.c ****             lv_arc_set_end_angle(obj, bg_midpoint);
 214:Drivers/lvgl/lvgl/src/widgets/lv_arc.c ****             break;
 215:Drivers/lvgl/lvgl/src/widgets/lv_arc.c ****         case LV_ARC_MODE_REVERSE:
 216:Drivers/lvgl/lvgl/src/widgets/lv_arc.c ****             lv_arc_set_end_angle(obj, arc->bg_angle_end);
 217:Drivers/lvgl/lvgl/src/widgets/lv_arc.c ****             break;
 218:Drivers/lvgl/lvgl/src/widgets/lv_arc.c ****         default: /** LV_ARC_TYPE_NORMAL*/
 219:Drivers/lvgl/lvgl/src/widgets/lv_arc.c ****             lv_arc_set_start_angle(obj, arc->bg_angle_start);
 220:Drivers/lvgl/lvgl/src/widgets/lv_arc.c ****     }
 221:Drivers/lvgl/lvgl/src/widgets/lv_arc.c **** 
 222:Drivers/lvgl/lvgl/src/widgets/lv_arc.c ****     lv_arc_set_value(obj, val);
 223:Drivers/lvgl/lvgl/src/widgets/lv_arc.c **** }
 224:Drivers/lvgl/lvgl/src/widgets/lv_arc.c **** 
 225:Drivers/lvgl/lvgl/src/widgets/lv_arc.c **** void lv_arc_set_value(lv_obj_t * obj, int16_t value)
 226:Drivers/lvgl/lvgl/src/widgets/lv_arc.c **** {
 227:Drivers/lvgl/lvgl/src/widgets/lv_arc.c ****     LV_ASSERT_OBJ(obj, MY_CLASS);
 228:Drivers/lvgl/lvgl/src/widgets/lv_arc.c ****     lv_arc_t * arc = (lv_arc_t *)obj;
 229:Drivers/lvgl/lvgl/src/widgets/lv_arc.c **** 
 230:Drivers/lvgl/lvgl/src/widgets/lv_arc.c ****     if(arc->value == value) return;
 231:Drivers/lvgl/lvgl/src/widgets/lv_arc.c **** 
 232:Drivers/lvgl/lvgl/src/widgets/lv_arc.c ****     int16_t new_value;
 233:Drivers/lvgl/lvgl/src/widgets/lv_arc.c ****     new_value = value > arc->max_value ? arc->max_value : value;
 234:Drivers/lvgl/lvgl/src/widgets/lv_arc.c ****     new_value = new_value < arc->min_value ? arc->min_value : new_value;
 235:Drivers/lvgl/lvgl/src/widgets/lv_arc.c **** 
 236:Drivers/lvgl/lvgl/src/widgets/lv_arc.c ****     if(arc->value == new_value) return;
 237:Drivers/lvgl/lvgl/src/widgets/lv_arc.c ****     arc->value = new_value;
 238:Drivers/lvgl/lvgl/src/widgets/lv_arc.c **** 
 239:Drivers/lvgl/lvgl/src/widgets/lv_arc.c ****     value_update(obj);
 240:Drivers/lvgl/lvgl/src/widgets/lv_arc.c **** }
 241:Drivers/lvgl/lvgl/src/widgets/lv_arc.c **** 
 242:Drivers/lvgl/lvgl/src/widgets/lv_arc.c **** void lv_arc_set_range(lv_obj_t * obj, int16_t min, int16_t max)
 243:Drivers/lvgl/lvgl/src/widgets/lv_arc.c **** {
 244:Drivers/lvgl/lvgl/src/widgets/lv_arc.c ****     LV_ASSERT_OBJ(obj, MY_CLASS);
 245:Drivers/lvgl/lvgl/src/widgets/lv_arc.c ****     lv_arc_t * arc = (lv_arc_t *)obj;
 246:Drivers/lvgl/lvgl/src/widgets/lv_arc.c **** 
 247:Drivers/lvgl/lvgl/src/widgets/lv_arc.c ****     if(arc->min_value == min && arc->max_value == max) return;
 248:Drivers/lvgl/lvgl/src/widgets/lv_arc.c **** 
 249:Drivers/lvgl/lvgl/src/widgets/lv_arc.c ****     arc->min_value = min;
 250:Drivers/lvgl/lvgl/src/widgets/lv_arc.c ****     arc->max_value = max;
 251:Drivers/lvgl/lvgl/src/widgets/lv_arc.c **** 
 252:Drivers/lvgl/lvgl/src/widgets/lv_arc.c ****     if(arc->value < min) {
 253:Drivers/lvgl/lvgl/src/widgets/lv_arc.c ****         arc->value = min;
 254:Drivers/lvgl/lvgl/src/widgets/lv_arc.c ****     }
 255:Drivers/lvgl/lvgl/src/widgets/lv_arc.c ****     if(arc->value > max) {
 256:Drivers/lvgl/lvgl/src/widgets/lv_arc.c ****         arc->value = max;
 257:Drivers/lvgl/lvgl/src/widgets/lv_arc.c ****     }
 258:Drivers/lvgl/lvgl/src/widgets/lv_arc.c **** 
 259:Drivers/lvgl/lvgl/src/widgets/lv_arc.c ****     value_update(obj); /*value has changed relative to the new range*/
 260:Drivers/lvgl/lvgl/src/widgets/lv_arc.c **** }
 261:Drivers/lvgl/lvgl/src/widgets/lv_arc.c **** 
ARM GAS  /tmp/ccD6LWGo.s 			page 6


 262:Drivers/lvgl/lvgl/src/widgets/lv_arc.c **** void lv_arc_set_change_rate(lv_obj_t * obj, uint16_t rate)
 263:Drivers/lvgl/lvgl/src/widgets/lv_arc.c **** {
 264:Drivers/lvgl/lvgl/src/widgets/lv_arc.c ****     LV_ASSERT_OBJ(obj, MY_CLASS);
 265:Drivers/lvgl/lvgl/src/widgets/lv_arc.c ****     lv_arc_t * arc = (lv_arc_t *)obj;
 266:Drivers/lvgl/lvgl/src/widgets/lv_arc.c **** 
 267:Drivers/lvgl/lvgl/src/widgets/lv_arc.c ****     arc->chg_rate = rate;
 268:Drivers/lvgl/lvgl/src/widgets/lv_arc.c **** }
 269:Drivers/lvgl/lvgl/src/widgets/lv_arc.c **** 
 270:Drivers/lvgl/lvgl/src/widgets/lv_arc.c **** /*=====================
 271:Drivers/lvgl/lvgl/src/widgets/lv_arc.c ****  * Getter functions
 272:Drivers/lvgl/lvgl/src/widgets/lv_arc.c ****  *====================*/
 273:Drivers/lvgl/lvgl/src/widgets/lv_arc.c **** 
 274:Drivers/lvgl/lvgl/src/widgets/lv_arc.c **** uint16_t lv_arc_get_angle_start(lv_obj_t * obj)
 275:Drivers/lvgl/lvgl/src/widgets/lv_arc.c **** {
 276:Drivers/lvgl/lvgl/src/widgets/lv_arc.c ****     LV_ASSERT_OBJ(obj, MY_CLASS);
 277:Drivers/lvgl/lvgl/src/widgets/lv_arc.c ****     return ((lv_arc_t *) obj)->indic_angle_start;
 278:Drivers/lvgl/lvgl/src/widgets/lv_arc.c **** }
 279:Drivers/lvgl/lvgl/src/widgets/lv_arc.c **** 
 280:Drivers/lvgl/lvgl/src/widgets/lv_arc.c **** uint16_t lv_arc_get_angle_end(lv_obj_t * obj)
 281:Drivers/lvgl/lvgl/src/widgets/lv_arc.c **** {
 282:Drivers/lvgl/lvgl/src/widgets/lv_arc.c ****     LV_ASSERT_OBJ(obj, MY_CLASS);
 283:Drivers/lvgl/lvgl/src/widgets/lv_arc.c ****     return ((lv_arc_t *) obj)->indic_angle_end;
 284:Drivers/lvgl/lvgl/src/widgets/lv_arc.c **** }
 285:Drivers/lvgl/lvgl/src/widgets/lv_arc.c **** 
 286:Drivers/lvgl/lvgl/src/widgets/lv_arc.c **** uint16_t lv_arc_get_bg_angle_start(lv_obj_t * obj)
 287:Drivers/lvgl/lvgl/src/widgets/lv_arc.c **** {
 288:Drivers/lvgl/lvgl/src/widgets/lv_arc.c ****     LV_ASSERT_OBJ(obj, MY_CLASS);
 289:Drivers/lvgl/lvgl/src/widgets/lv_arc.c ****     return ((lv_arc_t *) obj)->bg_angle_start;
 290:Drivers/lvgl/lvgl/src/widgets/lv_arc.c **** }
 291:Drivers/lvgl/lvgl/src/widgets/lv_arc.c **** 
 292:Drivers/lvgl/lvgl/src/widgets/lv_arc.c **** uint16_t lv_arc_get_bg_angle_end(lv_obj_t * obj)
 293:Drivers/lvgl/lvgl/src/widgets/lv_arc.c **** {
 294:Drivers/lvgl/lvgl/src/widgets/lv_arc.c ****     LV_ASSERT_OBJ(obj, MY_CLASS);
 295:Drivers/lvgl/lvgl/src/widgets/lv_arc.c ****     return ((lv_arc_t *) obj)->bg_angle_end;
 296:Drivers/lvgl/lvgl/src/widgets/lv_arc.c **** }
 297:Drivers/lvgl/lvgl/src/widgets/lv_arc.c **** 
 298:Drivers/lvgl/lvgl/src/widgets/lv_arc.c **** int16_t lv_arc_get_value(const lv_obj_t * obj)
 299:Drivers/lvgl/lvgl/src/widgets/lv_arc.c **** {
 300:Drivers/lvgl/lvgl/src/widgets/lv_arc.c ****     LV_ASSERT_OBJ(obj, MY_CLASS);
 301:Drivers/lvgl/lvgl/src/widgets/lv_arc.c ****     return ((lv_arc_t *) obj)->value;
 302:Drivers/lvgl/lvgl/src/widgets/lv_arc.c **** }
 303:Drivers/lvgl/lvgl/src/widgets/lv_arc.c **** 
 304:Drivers/lvgl/lvgl/src/widgets/lv_arc.c **** int16_t lv_arc_get_min_value(const lv_obj_t * obj)
 305:Drivers/lvgl/lvgl/src/widgets/lv_arc.c **** {
 306:Drivers/lvgl/lvgl/src/widgets/lv_arc.c ****     LV_ASSERT_OBJ(obj, MY_CLASS);
 307:Drivers/lvgl/lvgl/src/widgets/lv_arc.c ****     return ((lv_arc_t *) obj)->min_value;
 308:Drivers/lvgl/lvgl/src/widgets/lv_arc.c **** }
 309:Drivers/lvgl/lvgl/src/widgets/lv_arc.c **** 
 310:Drivers/lvgl/lvgl/src/widgets/lv_arc.c **** int16_t lv_arc_get_max_value(const lv_obj_t * obj)
 311:Drivers/lvgl/lvgl/src/widgets/lv_arc.c **** {
 312:Drivers/lvgl/lvgl/src/widgets/lv_arc.c ****     LV_ASSERT_OBJ(obj, MY_CLASS);
 313:Drivers/lvgl/lvgl/src/widgets/lv_arc.c ****     return ((lv_arc_t *) obj)->max_value;
 314:Drivers/lvgl/lvgl/src/widgets/lv_arc.c **** }
 315:Drivers/lvgl/lvgl/src/widgets/lv_arc.c **** 
 316:Drivers/lvgl/lvgl/src/widgets/lv_arc.c **** lv_arc_mode_t lv_arc_get_mode(const lv_obj_t * obj)
 317:Drivers/lvgl/lvgl/src/widgets/lv_arc.c **** {
 318:Drivers/lvgl/lvgl/src/widgets/lv_arc.c ****     LV_ASSERT_OBJ(obj, MY_CLASS);
ARM GAS  /tmp/ccD6LWGo.s 			page 7


 319:Drivers/lvgl/lvgl/src/widgets/lv_arc.c ****     return ((lv_arc_t *) obj)->type;
 320:Drivers/lvgl/lvgl/src/widgets/lv_arc.c **** }
 321:Drivers/lvgl/lvgl/src/widgets/lv_arc.c **** 
 322:Drivers/lvgl/lvgl/src/widgets/lv_arc.c **** /*=====================
 323:Drivers/lvgl/lvgl/src/widgets/lv_arc.c ****  * Other functions
 324:Drivers/lvgl/lvgl/src/widgets/lv_arc.c ****  *====================*/
 325:Drivers/lvgl/lvgl/src/widgets/lv_arc.c **** 
 326:Drivers/lvgl/lvgl/src/widgets/lv_arc.c **** 
 327:Drivers/lvgl/lvgl/src/widgets/lv_arc.c **** void lv_arc_align_obj_to_angle(const lv_obj_t * obj, lv_obj_t * obj_to_align, lv_coord_t r_offset)
 328:Drivers/lvgl/lvgl/src/widgets/lv_arc.c **** {
 329:Drivers/lvgl/lvgl/src/widgets/lv_arc.c ****     LV_ASSERT_OBJ(obj, MY_CLASS);
 330:Drivers/lvgl/lvgl/src/widgets/lv_arc.c ****     LV_ASSERT_NULL(obj_to_align);
 331:Drivers/lvgl/lvgl/src/widgets/lv_arc.c **** 
 332:Drivers/lvgl/lvgl/src/widgets/lv_arc.c ****     lv_obj_update_layout(obj);
 333:Drivers/lvgl/lvgl/src/widgets/lv_arc.c **** 
 334:Drivers/lvgl/lvgl/src/widgets/lv_arc.c ****     lv_point_t center;
 335:Drivers/lvgl/lvgl/src/widgets/lv_arc.c ****     lv_coord_t arc_r;
 336:Drivers/lvgl/lvgl/src/widgets/lv_arc.c ****     get_center(obj, &center, &arc_r);
 337:Drivers/lvgl/lvgl/src/widgets/lv_arc.c ****     lv_coord_t indic_width = lv_obj_get_style_arc_width(obj, LV_PART_INDICATOR);
 338:Drivers/lvgl/lvgl/src/widgets/lv_arc.c ****     lv_coord_t indic_width_half = indic_width / 2;
 339:Drivers/lvgl/lvgl/src/widgets/lv_arc.c ****     arc_r -= indic_width_half;
 340:Drivers/lvgl/lvgl/src/widgets/lv_arc.c ****     arc_r += r_offset;
 341:Drivers/lvgl/lvgl/src/widgets/lv_arc.c **** 
 342:Drivers/lvgl/lvgl/src/widgets/lv_arc.c ****     uint16_t angle = get_angle(obj);
 343:Drivers/lvgl/lvgl/src/widgets/lv_arc.c ****     lv_coord_t knob_x = (arc_r * lv_trigo_sin(angle + 90)) >> LV_TRIGO_SHIFT;
 344:Drivers/lvgl/lvgl/src/widgets/lv_arc.c ****     lv_coord_t knob_y = (arc_r * lv_trigo_sin(angle)) >> LV_TRIGO_SHIFT;
 345:Drivers/lvgl/lvgl/src/widgets/lv_arc.c ****     lv_obj_align_to(obj_to_align, obj, LV_ALIGN_CENTER, knob_x, knob_y);
 346:Drivers/lvgl/lvgl/src/widgets/lv_arc.c **** }
 347:Drivers/lvgl/lvgl/src/widgets/lv_arc.c **** 
 348:Drivers/lvgl/lvgl/src/widgets/lv_arc.c **** void lv_arc_rotate_obj_to_angle(const lv_obj_t * obj, lv_obj_t * obj_to_rotate, lv_coord_t r_offset
 349:Drivers/lvgl/lvgl/src/widgets/lv_arc.c **** {
 350:Drivers/lvgl/lvgl/src/widgets/lv_arc.c ****     LV_ASSERT_OBJ(obj, MY_CLASS);
 351:Drivers/lvgl/lvgl/src/widgets/lv_arc.c ****     LV_ASSERT_NULL(obj_to_rotate);
 352:Drivers/lvgl/lvgl/src/widgets/lv_arc.c **** 
 353:Drivers/lvgl/lvgl/src/widgets/lv_arc.c ****     lv_obj_update_layout(obj);
 354:Drivers/lvgl/lvgl/src/widgets/lv_arc.c **** 
 355:Drivers/lvgl/lvgl/src/widgets/lv_arc.c ****     lv_point_t center;
 356:Drivers/lvgl/lvgl/src/widgets/lv_arc.c ****     lv_coord_t arc_r;
 357:Drivers/lvgl/lvgl/src/widgets/lv_arc.c ****     get_center(obj, &center, &arc_r);
 358:Drivers/lvgl/lvgl/src/widgets/lv_arc.c ****     lv_coord_t indic_width = lv_obj_get_style_arc_width(obj, LV_PART_INDICATOR);
 359:Drivers/lvgl/lvgl/src/widgets/lv_arc.c ****     lv_coord_t indic_width_half = indic_width / 2;
 360:Drivers/lvgl/lvgl/src/widgets/lv_arc.c ****     arc_r -= indic_width_half;
 361:Drivers/lvgl/lvgl/src/widgets/lv_arc.c **** 
 362:Drivers/lvgl/lvgl/src/widgets/lv_arc.c ****     arc_r += r_offset;
 363:Drivers/lvgl/lvgl/src/widgets/lv_arc.c ****     lv_obj_align_to(obj_to_rotate, obj, LV_ALIGN_CENTER, 0, -arc_r);
 364:Drivers/lvgl/lvgl/src/widgets/lv_arc.c **** 
 365:Drivers/lvgl/lvgl/src/widgets/lv_arc.c ****     lv_obj_update_layout(obj);
 366:Drivers/lvgl/lvgl/src/widgets/lv_arc.c **** 
 367:Drivers/lvgl/lvgl/src/widgets/lv_arc.c ****     uint16_t angle = get_angle(obj);
 368:Drivers/lvgl/lvgl/src/widgets/lv_arc.c ****     lv_coord_t pivot_x = obj_to_rotate->coords.x1 - center.x;
 369:Drivers/lvgl/lvgl/src/widgets/lv_arc.c ****     lv_coord_t pivot_y = obj_to_rotate->coords.y1 - center.y;
 370:Drivers/lvgl/lvgl/src/widgets/lv_arc.c ****     lv_obj_set_style_transform_pivot_x(obj_to_rotate, -pivot_x, 0);
 371:Drivers/lvgl/lvgl/src/widgets/lv_arc.c ****     lv_obj_set_style_transform_pivot_y(obj_to_rotate, -pivot_y, 0);
 372:Drivers/lvgl/lvgl/src/widgets/lv_arc.c ****     lv_obj_set_style_transform_angle(obj_to_rotate, angle * 10 + 900, 0);
 373:Drivers/lvgl/lvgl/src/widgets/lv_arc.c **** }
 374:Drivers/lvgl/lvgl/src/widgets/lv_arc.c **** 
 375:Drivers/lvgl/lvgl/src/widgets/lv_arc.c **** 
ARM GAS  /tmp/ccD6LWGo.s 			page 8


 376:Drivers/lvgl/lvgl/src/widgets/lv_arc.c **** /**********************
 377:Drivers/lvgl/lvgl/src/widgets/lv_arc.c ****  *   STATIC FUNCTIONS
 378:Drivers/lvgl/lvgl/src/widgets/lv_arc.c ****  **********************/
 379:Drivers/lvgl/lvgl/src/widgets/lv_arc.c **** 
 380:Drivers/lvgl/lvgl/src/widgets/lv_arc.c **** static void lv_arc_constructor(const lv_obj_class_t * class_p, lv_obj_t * obj)
 381:Drivers/lvgl/lvgl/src/widgets/lv_arc.c **** {
 382:Drivers/lvgl/lvgl/src/widgets/lv_arc.c ****     LV_UNUSED(class_p);
 383:Drivers/lvgl/lvgl/src/widgets/lv_arc.c ****     LV_TRACE_OBJ_CREATE("begin");
 384:Drivers/lvgl/lvgl/src/widgets/lv_arc.c **** 
 385:Drivers/lvgl/lvgl/src/widgets/lv_arc.c ****     lv_arc_t * arc = (lv_arc_t *)obj;
 386:Drivers/lvgl/lvgl/src/widgets/lv_arc.c **** 
 387:Drivers/lvgl/lvgl/src/widgets/lv_arc.c ****     /*Initialize the allocated 'ext'*/
 388:Drivers/lvgl/lvgl/src/widgets/lv_arc.c ****     arc->rotation = 0;
 389:Drivers/lvgl/lvgl/src/widgets/lv_arc.c ****     arc->bg_angle_start = 135;
 390:Drivers/lvgl/lvgl/src/widgets/lv_arc.c ****     arc->bg_angle_end   = 45;
 391:Drivers/lvgl/lvgl/src/widgets/lv_arc.c ****     arc->indic_angle_start = 135;
 392:Drivers/lvgl/lvgl/src/widgets/lv_arc.c ****     arc->indic_angle_end   = 270;
 393:Drivers/lvgl/lvgl/src/widgets/lv_arc.c ****     arc->type = LV_ARC_MODE_NORMAL;
 394:Drivers/lvgl/lvgl/src/widgets/lv_arc.c ****     arc->value = VALUE_UNSET;
 395:Drivers/lvgl/lvgl/src/widgets/lv_arc.c ****     arc->min_close = 1;
 396:Drivers/lvgl/lvgl/src/widgets/lv_arc.c ****     arc->min_value = 0;
 397:Drivers/lvgl/lvgl/src/widgets/lv_arc.c ****     arc->max_value = 100;
 398:Drivers/lvgl/lvgl/src/widgets/lv_arc.c ****     arc->dragging = false;
 399:Drivers/lvgl/lvgl/src/widgets/lv_arc.c ****     arc->chg_rate = 720;
 400:Drivers/lvgl/lvgl/src/widgets/lv_arc.c ****     arc->last_tick = lv_tick_get();
 401:Drivers/lvgl/lvgl/src/widgets/lv_arc.c ****     arc->last_angle = arc->indic_angle_end;
 402:Drivers/lvgl/lvgl/src/widgets/lv_arc.c **** 
 403:Drivers/lvgl/lvgl/src/widgets/lv_arc.c ****     lv_obj_add_flag(obj, LV_OBJ_FLAG_CLICKABLE);
 404:Drivers/lvgl/lvgl/src/widgets/lv_arc.c ****     lv_obj_clear_flag(obj, LV_OBJ_FLAG_SCROLL_CHAIN | LV_OBJ_FLAG_SCROLLABLE);
 405:Drivers/lvgl/lvgl/src/widgets/lv_arc.c ****     lv_obj_set_ext_click_area(obj, LV_DPI_DEF / 10);
 406:Drivers/lvgl/lvgl/src/widgets/lv_arc.c **** 
 407:Drivers/lvgl/lvgl/src/widgets/lv_arc.c **** 
 408:Drivers/lvgl/lvgl/src/widgets/lv_arc.c ****     LV_TRACE_OBJ_CREATE("finished");
 409:Drivers/lvgl/lvgl/src/widgets/lv_arc.c **** }
 410:Drivers/lvgl/lvgl/src/widgets/lv_arc.c **** 
 411:Drivers/lvgl/lvgl/src/widgets/lv_arc.c **** static void lv_arc_event(const lv_obj_class_t * class_p, lv_event_t * e)
 412:Drivers/lvgl/lvgl/src/widgets/lv_arc.c **** {
 413:Drivers/lvgl/lvgl/src/widgets/lv_arc.c ****     LV_UNUSED(class_p);
 414:Drivers/lvgl/lvgl/src/widgets/lv_arc.c **** 
 415:Drivers/lvgl/lvgl/src/widgets/lv_arc.c ****     lv_res_t res;
 416:Drivers/lvgl/lvgl/src/widgets/lv_arc.c **** 
 417:Drivers/lvgl/lvgl/src/widgets/lv_arc.c ****     /*Call the ancestor's event handler*/
 418:Drivers/lvgl/lvgl/src/widgets/lv_arc.c ****     res = lv_obj_event_base(MY_CLASS, e);
 419:Drivers/lvgl/lvgl/src/widgets/lv_arc.c ****     if(res != LV_RES_OK) return;
 420:Drivers/lvgl/lvgl/src/widgets/lv_arc.c **** 
 421:Drivers/lvgl/lvgl/src/widgets/lv_arc.c ****     lv_event_code_t code = lv_event_get_code(e);
 422:Drivers/lvgl/lvgl/src/widgets/lv_arc.c ****     lv_obj_t * obj = lv_event_get_target(e);
 423:Drivers/lvgl/lvgl/src/widgets/lv_arc.c ****     lv_arc_t * arc = (lv_arc_t *)lv_event_get_target(e);
 424:Drivers/lvgl/lvgl/src/widgets/lv_arc.c ****     if(code == LV_EVENT_PRESSING) {
 425:Drivers/lvgl/lvgl/src/widgets/lv_arc.c ****         lv_indev_t * indev = lv_indev_get_act();
 426:Drivers/lvgl/lvgl/src/widgets/lv_arc.c ****         if(indev == NULL) return;
 427:Drivers/lvgl/lvgl/src/widgets/lv_arc.c **** 
 428:Drivers/lvgl/lvgl/src/widgets/lv_arc.c ****         /*Handle only pointers here*/
 429:Drivers/lvgl/lvgl/src/widgets/lv_arc.c ****         lv_indev_type_t indev_type = lv_indev_get_type(indev);
 430:Drivers/lvgl/lvgl/src/widgets/lv_arc.c ****         if(indev_type != LV_INDEV_TYPE_POINTER) return;
 431:Drivers/lvgl/lvgl/src/widgets/lv_arc.c **** 
 432:Drivers/lvgl/lvgl/src/widgets/lv_arc.c ****         lv_point_t p;
ARM GAS  /tmp/ccD6LWGo.s 			page 9


 433:Drivers/lvgl/lvgl/src/widgets/lv_arc.c ****         lv_indev_get_point(indev, &p);
 434:Drivers/lvgl/lvgl/src/widgets/lv_arc.c **** 
 435:Drivers/lvgl/lvgl/src/widgets/lv_arc.c ****         /*Make point relative to the arc's center*/
 436:Drivers/lvgl/lvgl/src/widgets/lv_arc.c ****         lv_point_t center;
 437:Drivers/lvgl/lvgl/src/widgets/lv_arc.c ****         lv_coord_t r;
 438:Drivers/lvgl/lvgl/src/widgets/lv_arc.c ****         get_center(obj, &center, &r);
 439:Drivers/lvgl/lvgl/src/widgets/lv_arc.c **** 
 440:Drivers/lvgl/lvgl/src/widgets/lv_arc.c ****         p.x -= center.x;
 441:Drivers/lvgl/lvgl/src/widgets/lv_arc.c ****         p.y -= center.y;
 442:Drivers/lvgl/lvgl/src/widgets/lv_arc.c **** 
 443:Drivers/lvgl/lvgl/src/widgets/lv_arc.c ****         /*Enter dragging mode if pressed out of the knob*/
 444:Drivers/lvgl/lvgl/src/widgets/lv_arc.c ****         if(arc->dragging == false) {
 445:Drivers/lvgl/lvgl/src/widgets/lv_arc.c ****             lv_coord_t indic_width = lv_obj_get_style_arc_width(obj, LV_PART_INDICATOR);
 446:Drivers/lvgl/lvgl/src/widgets/lv_arc.c ****             r -= indic_width;
 447:Drivers/lvgl/lvgl/src/widgets/lv_arc.c ****             /*Add some more sensitive area if there is no advanced git testing.
 448:Drivers/lvgl/lvgl/src/widgets/lv_arc.c ****              * (Advanced hit testing is more precise)*/
 449:Drivers/lvgl/lvgl/src/widgets/lv_arc.c ****             if(lv_obj_has_flag(obj, LV_OBJ_FLAG_ADV_HITTEST)) {
 450:Drivers/lvgl/lvgl/src/widgets/lv_arc.c ****                 r -= indic_width;
 451:Drivers/lvgl/lvgl/src/widgets/lv_arc.c **** 
 452:Drivers/lvgl/lvgl/src/widgets/lv_arc.c ****             }
 453:Drivers/lvgl/lvgl/src/widgets/lv_arc.c ****             else {
 454:Drivers/lvgl/lvgl/src/widgets/lv_arc.c ****                 r -= LV_MAX(r / 4, indic_width);
 455:Drivers/lvgl/lvgl/src/widgets/lv_arc.c ****             }
 456:Drivers/lvgl/lvgl/src/widgets/lv_arc.c ****             if(r < 1) r = 1;
 457:Drivers/lvgl/lvgl/src/widgets/lv_arc.c **** 
 458:Drivers/lvgl/lvgl/src/widgets/lv_arc.c ****             if(p.x * p.x + p.y * p.y > r * r) {
 459:Drivers/lvgl/lvgl/src/widgets/lv_arc.c ****                 arc->dragging = true;
 460:Drivers/lvgl/lvgl/src/widgets/lv_arc.c ****                 arc->last_tick = lv_tick_get(); /*Capture timestamp at dragging start*/
 461:Drivers/lvgl/lvgl/src/widgets/lv_arc.c ****             }
 462:Drivers/lvgl/lvgl/src/widgets/lv_arc.c ****         }
 463:Drivers/lvgl/lvgl/src/widgets/lv_arc.c **** 
 464:Drivers/lvgl/lvgl/src/widgets/lv_arc.c ****         /*It must be in "dragging" mode to turn the arc*/
 465:Drivers/lvgl/lvgl/src/widgets/lv_arc.c ****         if(arc->dragging == false) return;
 466:Drivers/lvgl/lvgl/src/widgets/lv_arc.c **** 
 467:Drivers/lvgl/lvgl/src/widgets/lv_arc.c ****         /*No angle can be determined if exactly the middle of the arc is being pressed*/
 468:Drivers/lvgl/lvgl/src/widgets/lv_arc.c ****         if(p.x == 0 && p.y == 0) return;
 469:Drivers/lvgl/lvgl/src/widgets/lv_arc.c **** 
 470:Drivers/lvgl/lvgl/src/widgets/lv_arc.c ****         /*Calculate the angle of the pressed point*/
 471:Drivers/lvgl/lvgl/src/widgets/lv_arc.c ****         int16_t angle;
 472:Drivers/lvgl/lvgl/src/widgets/lv_arc.c ****         int16_t bg_end = arc->bg_angle_end;
 473:Drivers/lvgl/lvgl/src/widgets/lv_arc.c ****         if(arc->bg_angle_end < arc->bg_angle_start) {
 474:Drivers/lvgl/lvgl/src/widgets/lv_arc.c ****             bg_end = arc->bg_angle_end + 360;
 475:Drivers/lvgl/lvgl/src/widgets/lv_arc.c ****         }
 476:Drivers/lvgl/lvgl/src/widgets/lv_arc.c **** 
 477:Drivers/lvgl/lvgl/src/widgets/lv_arc.c ****         angle = lv_atan2(p.y, p.x);
 478:Drivers/lvgl/lvgl/src/widgets/lv_arc.c ****         angle -= arc->rotation;
 479:Drivers/lvgl/lvgl/src/widgets/lv_arc.c ****         angle -= arc->bg_angle_start;  /*Make the angle relative to the start angle*/
 480:Drivers/lvgl/lvgl/src/widgets/lv_arc.c **** 
 481:Drivers/lvgl/lvgl/src/widgets/lv_arc.c ****         if(angle < 0) angle += 360;
 482:Drivers/lvgl/lvgl/src/widgets/lv_arc.c **** 
 483:Drivers/lvgl/lvgl/src/widgets/lv_arc.c ****         int16_t deg_range = bg_end - arc->bg_angle_start;
 484:Drivers/lvgl/lvgl/src/widgets/lv_arc.c **** 
 485:Drivers/lvgl/lvgl/src/widgets/lv_arc.c ****         int16_t last_angle_rel = arc->last_angle - arc->bg_angle_start;
 486:Drivers/lvgl/lvgl/src/widgets/lv_arc.c ****         int16_t delta_angle = angle - last_angle_rel;
 487:Drivers/lvgl/lvgl/src/widgets/lv_arc.c **** 
 488:Drivers/lvgl/lvgl/src/widgets/lv_arc.c ****         /*Do not allow big jumps.
 489:Drivers/lvgl/lvgl/src/widgets/lv_arc.c ****          *It's mainly to avoid jumping to the opposite end if the "dead" range between min. and max
ARM GAS  /tmp/ccD6LWGo.s 			page 10


 490:Drivers/lvgl/lvgl/src/widgets/lv_arc.c ****          *Check which end was closer on the last valid press (arc->min_close) and prefer that end*/
 491:Drivers/lvgl/lvgl/src/widgets/lv_arc.c ****         if(LV_ABS(delta_angle) > 280) {
 492:Drivers/lvgl/lvgl/src/widgets/lv_arc.c ****             if(arc->min_close) angle = 0;
 493:Drivers/lvgl/lvgl/src/widgets/lv_arc.c ****             else angle = deg_range;
 494:Drivers/lvgl/lvgl/src/widgets/lv_arc.c ****         }
 495:Drivers/lvgl/lvgl/src/widgets/lv_arc.c ****         else {
 496:Drivers/lvgl/lvgl/src/widgets/lv_arc.c ****             if(angle < deg_range / 2)arc->min_close = 1;
 497:Drivers/lvgl/lvgl/src/widgets/lv_arc.c ****             else arc->min_close = 0;
 498:Drivers/lvgl/lvgl/src/widgets/lv_arc.c ****         }
 499:Drivers/lvgl/lvgl/src/widgets/lv_arc.c **** 
 500:Drivers/lvgl/lvgl/src/widgets/lv_arc.c ****         /*Calculate the slew rate limited angle based on change rate (degrees/sec)*/
 501:Drivers/lvgl/lvgl/src/widgets/lv_arc.c ****         delta_angle = angle - last_angle_rel;
 502:Drivers/lvgl/lvgl/src/widgets/lv_arc.c ****         uint32_t delta_tick = lv_tick_elaps(arc->last_tick);
 503:Drivers/lvgl/lvgl/src/widgets/lv_arc.c ****         int16_t delta_angle_max = (arc->chg_rate * delta_tick) / 1000;
 504:Drivers/lvgl/lvgl/src/widgets/lv_arc.c **** 
 505:Drivers/lvgl/lvgl/src/widgets/lv_arc.c ****         if(delta_angle > delta_angle_max) {
 506:Drivers/lvgl/lvgl/src/widgets/lv_arc.c ****             delta_angle = delta_angle_max;
 507:Drivers/lvgl/lvgl/src/widgets/lv_arc.c ****         }
 508:Drivers/lvgl/lvgl/src/widgets/lv_arc.c ****         else if(delta_angle < -delta_angle_max) {
 509:Drivers/lvgl/lvgl/src/widgets/lv_arc.c ****             delta_angle = -delta_angle_max;
 510:Drivers/lvgl/lvgl/src/widgets/lv_arc.c ****         }
 511:Drivers/lvgl/lvgl/src/widgets/lv_arc.c **** 
 512:Drivers/lvgl/lvgl/src/widgets/lv_arc.c ****         angle = last_angle_rel + delta_angle; /*Apply the limited angle change*/
 513:Drivers/lvgl/lvgl/src/widgets/lv_arc.c **** 
 514:Drivers/lvgl/lvgl/src/widgets/lv_arc.c ****         /*Rounding for symmetry*/
 515:Drivers/lvgl/lvgl/src/widgets/lv_arc.c ****         int32_t round = ((bg_end - arc->bg_angle_start) * 8) / (arc->max_value - arc->min_value);
 516:Drivers/lvgl/lvgl/src/widgets/lv_arc.c ****         round = (round + 4) >> 4;
 517:Drivers/lvgl/lvgl/src/widgets/lv_arc.c ****         angle += round;
 518:Drivers/lvgl/lvgl/src/widgets/lv_arc.c **** 
 519:Drivers/lvgl/lvgl/src/widgets/lv_arc.c ****         angle += arc->bg_angle_start;  /*Make the angle absolute again*/
 520:Drivers/lvgl/lvgl/src/widgets/lv_arc.c **** 
 521:Drivers/lvgl/lvgl/src/widgets/lv_arc.c ****         /*Set the new value*/
 522:Drivers/lvgl/lvgl/src/widgets/lv_arc.c ****         int16_t old_value = arc->value;
 523:Drivers/lvgl/lvgl/src/widgets/lv_arc.c ****         int16_t new_value = lv_map(angle, arc->bg_angle_start, bg_end, arc->min_value, arc->max_val
 524:Drivers/lvgl/lvgl/src/widgets/lv_arc.c ****         if(new_value != lv_arc_get_value(obj)) {
 525:Drivers/lvgl/lvgl/src/widgets/lv_arc.c ****             arc->last_tick = lv_tick_get(); /*Cache timestamp for the next iteration*/
 526:Drivers/lvgl/lvgl/src/widgets/lv_arc.c ****             lv_arc_set_value(obj, new_value); /*set_value caches the last_angle for the next iterat
 527:Drivers/lvgl/lvgl/src/widgets/lv_arc.c ****             if(new_value != old_value) {
 528:Drivers/lvgl/lvgl/src/widgets/lv_arc.c ****                 res = lv_event_send(obj, LV_EVENT_VALUE_CHANGED, NULL);
 529:Drivers/lvgl/lvgl/src/widgets/lv_arc.c ****                 if(res != LV_RES_OK) return;
 530:Drivers/lvgl/lvgl/src/widgets/lv_arc.c ****             }
 531:Drivers/lvgl/lvgl/src/widgets/lv_arc.c ****         }
 532:Drivers/lvgl/lvgl/src/widgets/lv_arc.c **** 
 533:Drivers/lvgl/lvgl/src/widgets/lv_arc.c ****         /*Don't let the elapsed time become too big while sitting on an end point*/
 534:Drivers/lvgl/lvgl/src/widgets/lv_arc.c ****         if(new_value == arc->min_value || new_value == arc->max_value) {
 535:Drivers/lvgl/lvgl/src/widgets/lv_arc.c ****             arc->last_tick = lv_tick_get(); /*Cache timestamp for the next iteration*/
 536:Drivers/lvgl/lvgl/src/widgets/lv_arc.c ****         }
 537:Drivers/lvgl/lvgl/src/widgets/lv_arc.c ****     }
 538:Drivers/lvgl/lvgl/src/widgets/lv_arc.c ****     else if(code == LV_EVENT_RELEASED || code == LV_EVENT_PRESS_LOST) {
 539:Drivers/lvgl/lvgl/src/widgets/lv_arc.c ****         arc->dragging = false;
 540:Drivers/lvgl/lvgl/src/widgets/lv_arc.c **** 
 541:Drivers/lvgl/lvgl/src/widgets/lv_arc.c ****         /*Leave edit mode if released. (No need to wait for LONG_PRESS)*/
 542:Drivers/lvgl/lvgl/src/widgets/lv_arc.c ****         lv_group_t * g             = lv_obj_get_group(obj);
 543:Drivers/lvgl/lvgl/src/widgets/lv_arc.c ****         bool editing               = lv_group_get_editing(g);
 544:Drivers/lvgl/lvgl/src/widgets/lv_arc.c ****         lv_indev_type_t indev_type = lv_indev_get_type(lv_indev_get_act());
 545:Drivers/lvgl/lvgl/src/widgets/lv_arc.c ****         if(indev_type == LV_INDEV_TYPE_ENCODER) {
 546:Drivers/lvgl/lvgl/src/widgets/lv_arc.c ****             if(editing) lv_group_set_editing(g, false);
ARM GAS  /tmp/ccD6LWGo.s 			page 11


 547:Drivers/lvgl/lvgl/src/widgets/lv_arc.c ****         }
 548:Drivers/lvgl/lvgl/src/widgets/lv_arc.c **** 
 549:Drivers/lvgl/lvgl/src/widgets/lv_arc.c ****     }
 550:Drivers/lvgl/lvgl/src/widgets/lv_arc.c ****     else if(code == LV_EVENT_KEY) {
 551:Drivers/lvgl/lvgl/src/widgets/lv_arc.c ****         char c = *((char *)lv_event_get_param(e));
 552:Drivers/lvgl/lvgl/src/widgets/lv_arc.c **** 
 553:Drivers/lvgl/lvgl/src/widgets/lv_arc.c ****         int16_t old_value = arc->value;
 554:Drivers/lvgl/lvgl/src/widgets/lv_arc.c ****         if(c == LV_KEY_RIGHT || c == LV_KEY_UP) {
 555:Drivers/lvgl/lvgl/src/widgets/lv_arc.c ****             lv_arc_set_value(obj, lv_arc_get_value(obj) + 1);
 556:Drivers/lvgl/lvgl/src/widgets/lv_arc.c ****         }
 557:Drivers/lvgl/lvgl/src/widgets/lv_arc.c ****         else if(c == LV_KEY_LEFT || c == LV_KEY_DOWN) {
 558:Drivers/lvgl/lvgl/src/widgets/lv_arc.c ****             lv_arc_set_value(obj, lv_arc_get_value(obj) - 1);
 559:Drivers/lvgl/lvgl/src/widgets/lv_arc.c ****         }
 560:Drivers/lvgl/lvgl/src/widgets/lv_arc.c **** 
 561:Drivers/lvgl/lvgl/src/widgets/lv_arc.c ****         if(old_value != arc->value) {
 562:Drivers/lvgl/lvgl/src/widgets/lv_arc.c ****             res = lv_event_send(obj, LV_EVENT_VALUE_CHANGED, NULL);
 563:Drivers/lvgl/lvgl/src/widgets/lv_arc.c ****             if(res != LV_RES_OK) return;
 564:Drivers/lvgl/lvgl/src/widgets/lv_arc.c ****         }
 565:Drivers/lvgl/lvgl/src/widgets/lv_arc.c ****     }
 566:Drivers/lvgl/lvgl/src/widgets/lv_arc.c ****     else if(code == LV_EVENT_HIT_TEST) {
 567:Drivers/lvgl/lvgl/src/widgets/lv_arc.c ****         lv_hit_test_info_t * info = lv_event_get_param(e);;
 568:Drivers/lvgl/lvgl/src/widgets/lv_arc.c **** 
 569:Drivers/lvgl/lvgl/src/widgets/lv_arc.c ****         lv_point_t p;
 570:Drivers/lvgl/lvgl/src/widgets/lv_arc.c ****         lv_coord_t r;
 571:Drivers/lvgl/lvgl/src/widgets/lv_arc.c ****         get_center(obj, &p, &r);
 572:Drivers/lvgl/lvgl/src/widgets/lv_arc.c **** 
 573:Drivers/lvgl/lvgl/src/widgets/lv_arc.c ****         lv_coord_t ext_click_area = 0;
 574:Drivers/lvgl/lvgl/src/widgets/lv_arc.c ****         if(obj->spec_attr) ext_click_area = obj->spec_attr->ext_click_pad;
 575:Drivers/lvgl/lvgl/src/widgets/lv_arc.c **** 
 576:Drivers/lvgl/lvgl/src/widgets/lv_arc.c ****         lv_coord_t w = lv_obj_get_style_arc_width(obj, LV_PART_MAIN);
 577:Drivers/lvgl/lvgl/src/widgets/lv_arc.c ****         r -= w + ext_click_area;
 578:Drivers/lvgl/lvgl/src/widgets/lv_arc.c **** 
 579:Drivers/lvgl/lvgl/src/widgets/lv_arc.c ****         lv_area_t a;
 580:Drivers/lvgl/lvgl/src/widgets/lv_arc.c ****         /*Invalid if clicked inside*/
 581:Drivers/lvgl/lvgl/src/widgets/lv_arc.c ****         lv_area_set(&a, p.x - r, p.y - r, p.x + r, p.y + r);
 582:Drivers/lvgl/lvgl/src/widgets/lv_arc.c ****         if(_lv_area_is_point_on(&a, info->point, LV_RADIUS_CIRCLE)) {
 583:Drivers/lvgl/lvgl/src/widgets/lv_arc.c ****             info->res = false;
 584:Drivers/lvgl/lvgl/src/widgets/lv_arc.c ****             return;
 585:Drivers/lvgl/lvgl/src/widgets/lv_arc.c ****         }
 586:Drivers/lvgl/lvgl/src/widgets/lv_arc.c **** 
 587:Drivers/lvgl/lvgl/src/widgets/lv_arc.c ****         /*Valid if no clicked outside*/
 588:Drivers/lvgl/lvgl/src/widgets/lv_arc.c ****         lv_area_increase(&a, w + ext_click_area * 2, w + ext_click_area * 2);
 589:Drivers/lvgl/lvgl/src/widgets/lv_arc.c ****         info->res = _lv_area_is_point_on(&a, info->point, LV_RADIUS_CIRCLE);
 590:Drivers/lvgl/lvgl/src/widgets/lv_arc.c ****     }
 591:Drivers/lvgl/lvgl/src/widgets/lv_arc.c ****     else if(code == LV_EVENT_REFR_EXT_DRAW_SIZE) {
 592:Drivers/lvgl/lvgl/src/widgets/lv_arc.c ****         lv_coord_t bg_left = lv_obj_get_style_pad_left(obj, LV_PART_MAIN);
 593:Drivers/lvgl/lvgl/src/widgets/lv_arc.c ****         lv_coord_t bg_right = lv_obj_get_style_pad_right(obj, LV_PART_MAIN);
 594:Drivers/lvgl/lvgl/src/widgets/lv_arc.c ****         lv_coord_t bg_top = lv_obj_get_style_pad_top(obj, LV_PART_MAIN);
 595:Drivers/lvgl/lvgl/src/widgets/lv_arc.c ****         lv_coord_t bg_bottom = lv_obj_get_style_pad_bottom(obj, LV_PART_MAIN);
 596:Drivers/lvgl/lvgl/src/widgets/lv_arc.c ****         lv_coord_t bg_pad = LV_MAX4(bg_left, bg_right, bg_top, bg_bottom);
 597:Drivers/lvgl/lvgl/src/widgets/lv_arc.c **** 
 598:Drivers/lvgl/lvgl/src/widgets/lv_arc.c ****         lv_coord_t knob_left = lv_obj_get_style_pad_left(obj, LV_PART_KNOB);
 599:Drivers/lvgl/lvgl/src/widgets/lv_arc.c ****         lv_coord_t knob_right = lv_obj_get_style_pad_right(obj, LV_PART_KNOB);
 600:Drivers/lvgl/lvgl/src/widgets/lv_arc.c ****         lv_coord_t knob_top = lv_obj_get_style_pad_top(obj, LV_PART_KNOB);
 601:Drivers/lvgl/lvgl/src/widgets/lv_arc.c ****         lv_coord_t knob_bottom = lv_obj_get_style_pad_bottom(obj, LV_PART_KNOB);
 602:Drivers/lvgl/lvgl/src/widgets/lv_arc.c ****         lv_coord_t knob_pad = LV_MAX4(knob_left, knob_right, knob_top, knob_bottom) + 2;
 603:Drivers/lvgl/lvgl/src/widgets/lv_arc.c **** 
ARM GAS  /tmp/ccD6LWGo.s 			page 12


 604:Drivers/lvgl/lvgl/src/widgets/lv_arc.c ****         lv_coord_t knob_extra_size = knob_pad - bg_pad;
 605:Drivers/lvgl/lvgl/src/widgets/lv_arc.c ****         knob_extra_size += knob_get_extra_size(obj);
 606:Drivers/lvgl/lvgl/src/widgets/lv_arc.c **** 
 607:Drivers/lvgl/lvgl/src/widgets/lv_arc.c ****         lv_coord_t * s = lv_event_get_param(e);
 608:Drivers/lvgl/lvgl/src/widgets/lv_arc.c ****         *s = LV_MAX(*s, knob_extra_size);
 609:Drivers/lvgl/lvgl/src/widgets/lv_arc.c ****     }
 610:Drivers/lvgl/lvgl/src/widgets/lv_arc.c ****     else if(code == LV_EVENT_DRAW_MAIN) {
 611:Drivers/lvgl/lvgl/src/widgets/lv_arc.c ****         lv_arc_draw(e);
 612:Drivers/lvgl/lvgl/src/widgets/lv_arc.c ****     }
 613:Drivers/lvgl/lvgl/src/widgets/lv_arc.c **** }
 614:Drivers/lvgl/lvgl/src/widgets/lv_arc.c **** 
 615:Drivers/lvgl/lvgl/src/widgets/lv_arc.c **** static void lv_arc_draw(lv_event_t * e)
 616:Drivers/lvgl/lvgl/src/widgets/lv_arc.c **** {
 617:Drivers/lvgl/lvgl/src/widgets/lv_arc.c ****     lv_obj_t * obj = lv_event_get_target(e);
 618:Drivers/lvgl/lvgl/src/widgets/lv_arc.c ****     lv_arc_t * arc = (lv_arc_t *)obj;
 619:Drivers/lvgl/lvgl/src/widgets/lv_arc.c **** 
 620:Drivers/lvgl/lvgl/src/widgets/lv_arc.c ****     lv_draw_ctx_t * draw_ctx = lv_event_get_draw_ctx(e);
 621:Drivers/lvgl/lvgl/src/widgets/lv_arc.c **** 
 622:Drivers/lvgl/lvgl/src/widgets/lv_arc.c ****     lv_point_t center;
 623:Drivers/lvgl/lvgl/src/widgets/lv_arc.c ****     lv_coord_t arc_r;
 624:Drivers/lvgl/lvgl/src/widgets/lv_arc.c ****     get_center(obj, &center, &arc_r);
 625:Drivers/lvgl/lvgl/src/widgets/lv_arc.c **** 
 626:Drivers/lvgl/lvgl/src/widgets/lv_arc.c ****     lv_obj_draw_part_dsc_t part_draw_dsc;
 627:Drivers/lvgl/lvgl/src/widgets/lv_arc.c ****     lv_obj_draw_dsc_init(&part_draw_dsc, draw_ctx);
 628:Drivers/lvgl/lvgl/src/widgets/lv_arc.c **** 
 629:Drivers/lvgl/lvgl/src/widgets/lv_arc.c ****     /*Draw the background arc*/
 630:Drivers/lvgl/lvgl/src/widgets/lv_arc.c ****     lv_draw_arc_dsc_t arc_dsc;
 631:Drivers/lvgl/lvgl/src/widgets/lv_arc.c ****     if(arc_r > 0) {
 632:Drivers/lvgl/lvgl/src/widgets/lv_arc.c ****         lv_draw_arc_dsc_init(&arc_dsc);
 633:Drivers/lvgl/lvgl/src/widgets/lv_arc.c ****         lv_obj_init_draw_arc_dsc(obj, LV_PART_MAIN, &arc_dsc);
 634:Drivers/lvgl/lvgl/src/widgets/lv_arc.c **** 
 635:Drivers/lvgl/lvgl/src/widgets/lv_arc.c ****         part_draw_dsc.part = LV_PART_MAIN;
 636:Drivers/lvgl/lvgl/src/widgets/lv_arc.c ****         part_draw_dsc.class_p = MY_CLASS;
 637:Drivers/lvgl/lvgl/src/widgets/lv_arc.c ****         part_draw_dsc.type = LV_ARC_DRAW_PART_BACKGROUND;
 638:Drivers/lvgl/lvgl/src/widgets/lv_arc.c ****         part_draw_dsc.p1 = &center;
 639:Drivers/lvgl/lvgl/src/widgets/lv_arc.c ****         part_draw_dsc.radius = arc_r;
 640:Drivers/lvgl/lvgl/src/widgets/lv_arc.c ****         part_draw_dsc.arc_dsc = &arc_dsc;
 641:Drivers/lvgl/lvgl/src/widgets/lv_arc.c ****         lv_event_send(obj, LV_EVENT_DRAW_PART_BEGIN, &part_draw_dsc);
 642:Drivers/lvgl/lvgl/src/widgets/lv_arc.c **** 
 643:Drivers/lvgl/lvgl/src/widgets/lv_arc.c ****         lv_draw_arc(draw_ctx, &arc_dsc, &center, part_draw_dsc.radius, arc->bg_angle_start + arc->r
 644:Drivers/lvgl/lvgl/src/widgets/lv_arc.c ****                     arc->bg_angle_end + arc->rotation);
 645:Drivers/lvgl/lvgl/src/widgets/lv_arc.c **** 
 646:Drivers/lvgl/lvgl/src/widgets/lv_arc.c ****         lv_event_send(obj, LV_EVENT_DRAW_PART_END, &part_draw_dsc);
 647:Drivers/lvgl/lvgl/src/widgets/lv_arc.c ****     }
 648:Drivers/lvgl/lvgl/src/widgets/lv_arc.c **** 
 649:Drivers/lvgl/lvgl/src/widgets/lv_arc.c ****     /*Make the indicator arc smaller or larger according to its greatest padding value*/
 650:Drivers/lvgl/lvgl/src/widgets/lv_arc.c ****     lv_coord_t left_indic = lv_obj_get_style_pad_left(obj, LV_PART_INDICATOR);
 651:Drivers/lvgl/lvgl/src/widgets/lv_arc.c ****     lv_coord_t right_indic = lv_obj_get_style_pad_right(obj, LV_PART_INDICATOR);
 652:Drivers/lvgl/lvgl/src/widgets/lv_arc.c ****     lv_coord_t top_indic = lv_obj_get_style_pad_top(obj, LV_PART_INDICATOR);
 653:Drivers/lvgl/lvgl/src/widgets/lv_arc.c ****     lv_coord_t bottom_indic = lv_obj_get_style_pad_bottom(obj, LV_PART_INDICATOR);
 654:Drivers/lvgl/lvgl/src/widgets/lv_arc.c ****     lv_coord_t indic_r = arc_r - LV_MAX4(left_indic, right_indic, top_indic, bottom_indic);
 655:Drivers/lvgl/lvgl/src/widgets/lv_arc.c **** 
 656:Drivers/lvgl/lvgl/src/widgets/lv_arc.c ****     if(indic_r > 0) {
 657:Drivers/lvgl/lvgl/src/widgets/lv_arc.c ****         lv_draw_arc_dsc_init(&arc_dsc);
 658:Drivers/lvgl/lvgl/src/widgets/lv_arc.c ****         lv_obj_init_draw_arc_dsc(obj, LV_PART_INDICATOR, &arc_dsc);
 659:Drivers/lvgl/lvgl/src/widgets/lv_arc.c **** 
 660:Drivers/lvgl/lvgl/src/widgets/lv_arc.c ****         part_draw_dsc.part = LV_PART_INDICATOR;
ARM GAS  /tmp/ccD6LWGo.s 			page 13


 661:Drivers/lvgl/lvgl/src/widgets/lv_arc.c ****         part_draw_dsc.class_p = MY_CLASS;
 662:Drivers/lvgl/lvgl/src/widgets/lv_arc.c ****         part_draw_dsc.type = LV_ARC_DRAW_PART_FOREGROUND;
 663:Drivers/lvgl/lvgl/src/widgets/lv_arc.c ****         part_draw_dsc.p1 = &center;
 664:Drivers/lvgl/lvgl/src/widgets/lv_arc.c ****         part_draw_dsc.radius = indic_r;
 665:Drivers/lvgl/lvgl/src/widgets/lv_arc.c ****         part_draw_dsc.arc_dsc = &arc_dsc;
 666:Drivers/lvgl/lvgl/src/widgets/lv_arc.c ****         lv_event_send(obj, LV_EVENT_DRAW_PART_BEGIN, &part_draw_dsc);
 667:Drivers/lvgl/lvgl/src/widgets/lv_arc.c **** 
 668:Drivers/lvgl/lvgl/src/widgets/lv_arc.c ****         if(arc_dsc.width > part_draw_dsc.radius) arc_dsc.width = part_draw_dsc.radius;
 669:Drivers/lvgl/lvgl/src/widgets/lv_arc.c ****         lv_draw_arc(draw_ctx, &arc_dsc, &center, part_draw_dsc.radius, arc->indic_angle_start + arc
 670:Drivers/lvgl/lvgl/src/widgets/lv_arc.c ****                     arc->indic_angle_end + arc->rotation);
 671:Drivers/lvgl/lvgl/src/widgets/lv_arc.c **** 
 672:Drivers/lvgl/lvgl/src/widgets/lv_arc.c ****         lv_event_send(obj, LV_EVENT_DRAW_PART_END, &part_draw_dsc);
 673:Drivers/lvgl/lvgl/src/widgets/lv_arc.c ****     }
 674:Drivers/lvgl/lvgl/src/widgets/lv_arc.c **** 
 675:Drivers/lvgl/lvgl/src/widgets/lv_arc.c ****     lv_area_t knob_area;
 676:Drivers/lvgl/lvgl/src/widgets/lv_arc.c ****     get_knob_area(obj, &center, arc_r, &knob_area);
 677:Drivers/lvgl/lvgl/src/widgets/lv_arc.c **** 
 678:Drivers/lvgl/lvgl/src/widgets/lv_arc.c ****     lv_draw_rect_dsc_t knob_rect_dsc;
 679:Drivers/lvgl/lvgl/src/widgets/lv_arc.c ****     lv_draw_rect_dsc_init(&knob_rect_dsc);
 680:Drivers/lvgl/lvgl/src/widgets/lv_arc.c ****     lv_obj_init_draw_rect_dsc(obj, LV_PART_KNOB, &knob_rect_dsc);
 681:Drivers/lvgl/lvgl/src/widgets/lv_arc.c **** 
 682:Drivers/lvgl/lvgl/src/widgets/lv_arc.c ****     part_draw_dsc.part = LV_PART_KNOB;
 683:Drivers/lvgl/lvgl/src/widgets/lv_arc.c ****     part_draw_dsc.class_p = MY_CLASS;
 684:Drivers/lvgl/lvgl/src/widgets/lv_arc.c ****     part_draw_dsc.type = LV_ARC_DRAW_PART_KNOB;
 685:Drivers/lvgl/lvgl/src/widgets/lv_arc.c ****     part_draw_dsc.draw_area = &knob_area;
 686:Drivers/lvgl/lvgl/src/widgets/lv_arc.c ****     part_draw_dsc.rect_dsc = &knob_rect_dsc;
 687:Drivers/lvgl/lvgl/src/widgets/lv_arc.c ****     lv_event_send(obj, LV_EVENT_DRAW_PART_BEGIN, &part_draw_dsc);
 688:Drivers/lvgl/lvgl/src/widgets/lv_arc.c **** 
 689:Drivers/lvgl/lvgl/src/widgets/lv_arc.c ****     lv_draw_rect(draw_ctx, &knob_rect_dsc, &knob_area);
 690:Drivers/lvgl/lvgl/src/widgets/lv_arc.c **** 
 691:Drivers/lvgl/lvgl/src/widgets/lv_arc.c ****     lv_event_send(obj, LV_EVENT_DRAW_PART_END, &part_draw_dsc);
 692:Drivers/lvgl/lvgl/src/widgets/lv_arc.c **** }
 693:Drivers/lvgl/lvgl/src/widgets/lv_arc.c **** 
 694:Drivers/lvgl/lvgl/src/widgets/lv_arc.c **** static void inv_arc_area(lv_obj_t * obj, uint16_t start_angle, uint16_t end_angle, lv_part_t part)
 695:Drivers/lvgl/lvgl/src/widgets/lv_arc.c **** {
 696:Drivers/lvgl/lvgl/src/widgets/lv_arc.c ****     LV_ASSERT_OBJ(obj, MY_CLASS);
 697:Drivers/lvgl/lvgl/src/widgets/lv_arc.c **** 
 698:Drivers/lvgl/lvgl/src/widgets/lv_arc.c ****     /*Skip this complicated invalidation if the arc is not visible*/
 699:Drivers/lvgl/lvgl/src/widgets/lv_arc.c ****     if(lv_obj_is_visible(obj) == false) return;
 700:Drivers/lvgl/lvgl/src/widgets/lv_arc.c **** 
 701:Drivers/lvgl/lvgl/src/widgets/lv_arc.c ****     lv_arc_t * arc = (lv_arc_t *)obj;
 702:Drivers/lvgl/lvgl/src/widgets/lv_arc.c **** 
 703:Drivers/lvgl/lvgl/src/widgets/lv_arc.c ****     if(start_angle == end_angle) return;
 704:Drivers/lvgl/lvgl/src/widgets/lv_arc.c **** 
 705:Drivers/lvgl/lvgl/src/widgets/lv_arc.c ****     if(start_angle > 360) start_angle -= 360;
 706:Drivers/lvgl/lvgl/src/widgets/lv_arc.c ****     if(end_angle > 360) end_angle -= 360;
 707:Drivers/lvgl/lvgl/src/widgets/lv_arc.c **** 
 708:Drivers/lvgl/lvgl/src/widgets/lv_arc.c ****     start_angle += arc->rotation;
 709:Drivers/lvgl/lvgl/src/widgets/lv_arc.c ****     end_angle += arc->rotation;
 710:Drivers/lvgl/lvgl/src/widgets/lv_arc.c **** 
 711:Drivers/lvgl/lvgl/src/widgets/lv_arc.c ****     if(start_angle > 360) start_angle -= 360;
 712:Drivers/lvgl/lvgl/src/widgets/lv_arc.c ****     if(end_angle > 360) end_angle -= 360;
 713:Drivers/lvgl/lvgl/src/widgets/lv_arc.c **** 
 714:Drivers/lvgl/lvgl/src/widgets/lv_arc.c ****     lv_coord_t r;
 715:Drivers/lvgl/lvgl/src/widgets/lv_arc.c ****     lv_point_t c;
 716:Drivers/lvgl/lvgl/src/widgets/lv_arc.c ****     get_center(obj, &c, &r);
 717:Drivers/lvgl/lvgl/src/widgets/lv_arc.c **** 
ARM GAS  /tmp/ccD6LWGo.s 			page 14


 718:Drivers/lvgl/lvgl/src/widgets/lv_arc.c ****     lv_coord_t w = lv_obj_get_style_arc_width(obj, part);
 719:Drivers/lvgl/lvgl/src/widgets/lv_arc.c ****     lv_coord_t rounded = lv_obj_get_style_arc_rounded(obj, part);
 720:Drivers/lvgl/lvgl/src/widgets/lv_arc.c **** 
 721:Drivers/lvgl/lvgl/src/widgets/lv_arc.c ****     lv_area_t inv_area;
 722:Drivers/lvgl/lvgl/src/widgets/lv_arc.c ****     lv_draw_arc_get_area(c.x, c.y, r, start_angle, end_angle, w, rounded, &inv_area);
 723:Drivers/lvgl/lvgl/src/widgets/lv_arc.c **** 
 724:Drivers/lvgl/lvgl/src/widgets/lv_arc.c ****     lv_obj_invalidate_area(obj, &inv_area);
 725:Drivers/lvgl/lvgl/src/widgets/lv_arc.c **** }
 726:Drivers/lvgl/lvgl/src/widgets/lv_arc.c **** 
 727:Drivers/lvgl/lvgl/src/widgets/lv_arc.c **** static void inv_knob_area(lv_obj_t * obj)
 728:Drivers/lvgl/lvgl/src/widgets/lv_arc.c **** {
 729:Drivers/lvgl/lvgl/src/widgets/lv_arc.c ****     lv_point_t c;
 730:Drivers/lvgl/lvgl/src/widgets/lv_arc.c ****     lv_coord_t r;
 731:Drivers/lvgl/lvgl/src/widgets/lv_arc.c ****     get_center(obj, &c, &r);
 732:Drivers/lvgl/lvgl/src/widgets/lv_arc.c **** 
 733:Drivers/lvgl/lvgl/src/widgets/lv_arc.c ****     lv_area_t a;
 734:Drivers/lvgl/lvgl/src/widgets/lv_arc.c ****     get_knob_area(obj, &c, r, &a);
 735:Drivers/lvgl/lvgl/src/widgets/lv_arc.c **** 
 736:Drivers/lvgl/lvgl/src/widgets/lv_arc.c ****     lv_coord_t knob_extra_size = knob_get_extra_size(obj);
 737:Drivers/lvgl/lvgl/src/widgets/lv_arc.c **** 
 738:Drivers/lvgl/lvgl/src/widgets/lv_arc.c ****     if(knob_extra_size > 0) {
 739:Drivers/lvgl/lvgl/src/widgets/lv_arc.c ****         lv_area_increase(&a, knob_extra_size, knob_extra_size);
 740:Drivers/lvgl/lvgl/src/widgets/lv_arc.c ****     }
 741:Drivers/lvgl/lvgl/src/widgets/lv_arc.c **** 
 742:Drivers/lvgl/lvgl/src/widgets/lv_arc.c ****     lv_obj_invalidate_area(obj, &a);
 743:Drivers/lvgl/lvgl/src/widgets/lv_arc.c **** }
 744:Drivers/lvgl/lvgl/src/widgets/lv_arc.c **** 
 745:Drivers/lvgl/lvgl/src/widgets/lv_arc.c **** static void get_center(const lv_obj_t * obj, lv_point_t * center, lv_coord_t * arc_r)
 746:Drivers/lvgl/lvgl/src/widgets/lv_arc.c **** {
 747:Drivers/lvgl/lvgl/src/widgets/lv_arc.c ****     lv_coord_t left_bg = lv_obj_get_style_pad_left(obj, LV_PART_MAIN);
 748:Drivers/lvgl/lvgl/src/widgets/lv_arc.c ****     lv_coord_t right_bg = lv_obj_get_style_pad_right(obj, LV_PART_MAIN);
 749:Drivers/lvgl/lvgl/src/widgets/lv_arc.c ****     lv_coord_t top_bg = lv_obj_get_style_pad_top(obj, LV_PART_MAIN);
 750:Drivers/lvgl/lvgl/src/widgets/lv_arc.c ****     lv_coord_t bottom_bg = lv_obj_get_style_pad_bottom(obj, LV_PART_MAIN);
 751:Drivers/lvgl/lvgl/src/widgets/lv_arc.c **** 
 752:Drivers/lvgl/lvgl/src/widgets/lv_arc.c ****     lv_coord_t r = (LV_MIN(lv_obj_get_width(obj) - left_bg - right_bg,
 753:Drivers/lvgl/lvgl/src/widgets/lv_arc.c ****                            lv_obj_get_height(obj) - top_bg - bottom_bg)) / 2;
 754:Drivers/lvgl/lvgl/src/widgets/lv_arc.c **** 
 755:Drivers/lvgl/lvgl/src/widgets/lv_arc.c ****     center->x = obj->coords.x1 + r + left_bg;
 756:Drivers/lvgl/lvgl/src/widgets/lv_arc.c ****     center->y = obj->coords.y1 + r + top_bg;
 757:Drivers/lvgl/lvgl/src/widgets/lv_arc.c **** 
 758:Drivers/lvgl/lvgl/src/widgets/lv_arc.c ****     if(arc_r) *arc_r = r;
 759:Drivers/lvgl/lvgl/src/widgets/lv_arc.c **** }
 760:Drivers/lvgl/lvgl/src/widgets/lv_arc.c **** 
 761:Drivers/lvgl/lvgl/src/widgets/lv_arc.c **** static lv_coord_t get_angle(const lv_obj_t * obj)
 762:Drivers/lvgl/lvgl/src/widgets/lv_arc.c **** {
  26              		.loc 1 762 0
  27              		.cfi_startproc
  28              		@ args = 0, pretend = 0, frame = 0
  29              		@ frame_needed = 0, uses_anonymous_args = 0
  30              		@ link register save eliminated.
  31              	.LVL0:
 763:Drivers/lvgl/lvgl/src/widgets/lv_arc.c ****     lv_arc_t * arc = (lv_arc_t *)obj;
 764:Drivers/lvgl/lvgl/src/widgets/lv_arc.c ****     uint16_t angle = arc->rotation;
  32              		.loc 1 764 0
  33 0000 828C     		ldrh	r2, [r0, #36]
  34              	.LVL1:
 765:Drivers/lvgl/lvgl/src/widgets/lv_arc.c ****     if(arc->type == LV_ARC_MODE_NORMAL) {
ARM GAS  /tmp/ccD6LWGo.s 			page 15


  35              		.loc 1 765 0
  36 0002 90F83430 		ldrb	r3, [r0, #52]	@ zero_extendqisi2
  37 0006 13F00603 		ands	r3, r3, #6
  38 000a 1ED0     		beq	.L14
 766:Drivers/lvgl/lvgl/src/widgets/lv_arc.c ****         angle += arc->indic_angle_end;
 767:Drivers/lvgl/lvgl/src/widgets/lv_arc.c ****     }
 768:Drivers/lvgl/lvgl/src/widgets/lv_arc.c ****     else if(arc->type == LV_ARC_MODE_REVERSE) {
  39              		.loc 1 768 0
  40 000c 042B     		cmp	r3, #4
  41 000e 21D0     		beq	.L15
 769:Drivers/lvgl/lvgl/src/widgets/lv_arc.c ****         angle += arc->indic_angle_start;
 770:Drivers/lvgl/lvgl/src/widgets/lv_arc.c ****     }
 771:Drivers/lvgl/lvgl/src/widgets/lv_arc.c ****     else if(arc->type == LV_ARC_MODE_SYMMETRICAL) {
  42              		.loc 1 771 0
  43 0010 022B     		cmp	r3, #2
  44 0012 1DD1     		bne	.L11
 762:Drivers/lvgl/lvgl/src/widgets/lv_arc.c ****     lv_arc_t * arc = (lv_arc_t *)obj;
  45              		.loc 1 762 0
  46 0014 30B4     		push	{r4, r5}
  47              	.LCFI0:
  48              		.cfi_def_cfa_offset 8
  49              		.cfi_offset 4, -8
  50              		.cfi_offset 5, -4
  51              	.LBB82:
 772:Drivers/lvgl/lvgl/src/widgets/lv_arc.c ****         int16_t bg_end = arc->bg_angle_end;
  52              		.loc 1 772 0
  53 0016 818D     		ldrh	r1, [r0, #44]
  54 0018 0DB2     		sxth	r5, r1
  55              	.LVL2:
 773:Drivers/lvgl/lvgl/src/widgets/lv_arc.c ****         if(arc->bg_angle_end < arc->bg_angle_start) bg_end = arc->bg_angle_end + 360;
  56              		.loc 1 773 0
  57 001a 438D     		ldrh	r3, [r0, #42]
  58 001c 9942     		cmp	r1, r3
  59 001e 02D2     		bcs	.L5
  60              		.loc 1 773 0 is_stmt 0 discriminator 1
  61 0020 01F5B471 		add	r1, r1, #360
  62 0024 0DB2     		sxth	r5, r1
  63              	.LVL3:
  64              	.L5:
 774:Drivers/lvgl/lvgl/src/widgets/lv_arc.c ****         int16_t indic_end = arc->indic_angle_end;
  65              		.loc 1 774 0 is_stmt 1
  66 0026 048D     		ldrh	r4, [r0, #40]
  67 0028 21B2     		sxth	r1, r4
  68              	.LVL4:
 775:Drivers/lvgl/lvgl/src/widgets/lv_arc.c ****         if(arc->indic_angle_end < arc->indic_angle_start) indic_end = arc->indic_angle_end + 360;
  69              		.loc 1 775 0
  70 002a C08C     		ldrh	r0, [r0, #38]
  71              	.LVL5:
  72 002c 8442     		cmp	r4, r0
  73 002e 02D2     		bcs	.L6
  74              		.loc 1 775 0 is_stmt 0 discriminator 1
  75 0030 04F5B471 		add	r1, r4, #360
  76              	.LVL6:
  77 0034 09B2     		sxth	r1, r1
  78              	.LVL7:
  79              	.L6:
 776:Drivers/lvgl/lvgl/src/widgets/lv_arc.c **** 
ARM GAS  /tmp/ccD6LWGo.s 			page 16


 777:Drivers/lvgl/lvgl/src/widgets/lv_arc.c ****         int32_t angle_midpoint = (int32_t)(arc->bg_angle_start + bg_end) / 2;
  80              		.loc 1 777 0 is_stmt 1
  81 0036 5B19     		adds	r3, r3, r5
  82 0038 10D4     		bmi	.L16
  83              	.L7:
  84 003a 5B10     		asrs	r3, r3, #1
  85              	.LVL8:
 778:Drivers/lvgl/lvgl/src/widgets/lv_arc.c ****         if(arc->indic_angle_start < angle_midpoint) angle += arc->indic_angle_start;
  86              		.loc 1 778 0
  87 003c 9842     		cmp	r0, r3
  88 003e 0FDB     		blt	.L17
 779:Drivers/lvgl/lvgl/src/widgets/lv_arc.c ****         else if(indic_end > angle_midpoint) angle += arc->indic_angle_end;
  89              		.loc 1 779 0
  90 0040 9942     		cmp	r1, r3
  91 0042 12DC     		bgt	.L18
 780:Drivers/lvgl/lvgl/src/widgets/lv_arc.c ****         else angle += angle_midpoint;
  92              		.loc 1 780 0
  93 0044 1A44     		add	r2, r2, r3
  94              	.LVL9:
  95 0046 92B2     		uxth	r2, r2
  96              	.LVL10:
  97 0048 0CE0     		b	.L3
  98              	.LVL11:
  99              	.L14:
 100              	.LCFI1:
 101              		.cfi_def_cfa_offset 0
 102              		.cfi_restore 4
 103              		.cfi_restore 5
 104              	.LBE82:
 766:Drivers/lvgl/lvgl/src/widgets/lv_arc.c ****     }
 105              		.loc 1 766 0
 106 004a 008D     		ldrh	r0, [r0, #40]
 107              	.LVL12:
 108 004c 0244     		add	r2, r2, r0
 109              	.LVL13:
 110 004e 92B2     		uxth	r2, r2
 111              	.LVL14:
 112              	.L11:
 781:Drivers/lvgl/lvgl/src/widgets/lv_arc.c ****     }
 782:Drivers/lvgl/lvgl/src/widgets/lv_arc.c **** 
 783:Drivers/lvgl/lvgl/src/widgets/lv_arc.c ****     return angle;
 784:Drivers/lvgl/lvgl/src/widgets/lv_arc.c **** }
 113              		.loc 1 784 0
 114 0050 10B2     		sxth	r0, r2
 115 0052 7047     		bx	lr
 116              	.LVL15:
 117              	.L15:
 769:Drivers/lvgl/lvgl/src/widgets/lv_arc.c ****     }
 118              		.loc 1 769 0
 119 0054 C08C     		ldrh	r0, [r0, #38]
 120              	.LVL16:
 121 0056 0244     		add	r2, r2, r0
 122              	.LVL17:
 123 0058 92B2     		uxth	r2, r2
 124              	.LVL18:
 125 005a F9E7     		b	.L11
 126              	.LVL19:
ARM GAS  /tmp/ccD6LWGo.s 			page 17


 127              	.L16:
 128              	.LCFI2:
 129              		.cfi_def_cfa_offset 8
 130              		.cfi_offset 4, -8
 131              		.cfi_offset 5, -4
 132              	.LBB83:
 777:Drivers/lvgl/lvgl/src/widgets/lv_arc.c ****         if(arc->indic_angle_start < angle_midpoint) angle += arc->indic_angle_start;
 133              		.loc 1 777 0
 134 005c 0133     		adds	r3, r3, #1
 135 005e ECE7     		b	.L7
 136              	.LVL20:
 137              	.L17:
 778:Drivers/lvgl/lvgl/src/widgets/lv_arc.c ****         else if(indic_end > angle_midpoint) angle += arc->indic_angle_end;
 138              		.loc 1 778 0 discriminator 1
 139 0060 0244     		add	r2, r2, r0
 140              	.LVL21:
 141 0062 92B2     		uxth	r2, r2
 142              	.LVL22:
 143              	.L3:
 144              	.LBE83:
 145              		.loc 1 784 0
 146 0064 10B2     		sxth	r0, r2
 147 0066 30BC     		pop	{r4, r5}
 148              	.LCFI3:
 149              		.cfi_remember_state
 150              		.cfi_restore 5
 151              		.cfi_restore 4
 152              		.cfi_def_cfa_offset 0
 153              	.LVL23:
 154 0068 7047     		bx	lr
 155              	.LVL24:
 156              	.L18:
 157              	.LCFI4:
 158              		.cfi_restore_state
 159              	.LBB84:
 779:Drivers/lvgl/lvgl/src/widgets/lv_arc.c ****         else angle += angle_midpoint;
 160              		.loc 1 779 0 discriminator 1
 161 006a 2244     		add	r2, r2, r4
 162              	.LVL25:
 163 006c 92B2     		uxth	r2, r2
 164              	.LVL26:
 165 006e F9E7     		b	.L3
 166              	.LBE84:
 167              		.cfi_endproc
 168              	.LFE187:
 170              		.section	.text.get_center,"ax",%progbits
 171              		.align	1
 172              		.syntax unified
 173              		.thumb
 174              		.thumb_func
 175              		.fpu fpv5-d16
 177              	get_center:
 178              	.LFB186:
 746:Drivers/lvgl/lvgl/src/widgets/lv_arc.c ****     lv_coord_t left_bg = lv_obj_get_style_pad_left(obj, LV_PART_MAIN);
 179              		.loc 1 746 0
 180              		.cfi_startproc
 181              		@ args = 0, pretend = 0, frame = 8
ARM GAS  /tmp/ccD6LWGo.s 			page 18


 182              		@ frame_needed = 0, uses_anonymous_args = 0
 183              	.LVL27:
 184 0000 2DE9F04F 		push	{r4, r5, r6, r7, r8, r9, r10, fp, lr}
 185              	.LCFI5:
 186              		.cfi_def_cfa_offset 36
 187              		.cfi_offset 4, -36
 188              		.cfi_offset 5, -32
 189              		.cfi_offset 6, -28
 190              		.cfi_offset 7, -24
 191              		.cfi_offset 8, -20
 192              		.cfi_offset 9, -16
 193              		.cfi_offset 10, -12
 194              		.cfi_offset 11, -8
 195              		.cfi_offset 14, -4
 196 0004 83B0     		sub	sp, sp, #12
 197              	.LCFI6:
 198              		.cfi_def_cfa_offset 48
 199 0006 0546     		mov	r5, r0
 200 0008 8846     		mov	r8, r1
 201 000a 9346     		mov	fp, r2
 202              	.LVL28:
 203              	.LBB85:
 204              	.LBB86:
 205              		.file 2 "Drivers/lvgl/lvgl/src/widgets/../core/lv_obj_style_gen.h"
   1:Drivers/lvgl/lvgl/src/widgets/../core/lv_obj_style_gen.h **** static inline lv_coord_t lv_obj_get_style_width(const struct _lv_obj_t * obj, uint32_t part)
   2:Drivers/lvgl/lvgl/src/widgets/../core/lv_obj_style_gen.h **** {
   3:Drivers/lvgl/lvgl/src/widgets/../core/lv_obj_style_gen.h ****     lv_style_value_t v = lv_obj_get_style_prop(obj, part, LV_STYLE_WIDTH);
   4:Drivers/lvgl/lvgl/src/widgets/../core/lv_obj_style_gen.h ****     return (lv_coord_t)v.num;
   5:Drivers/lvgl/lvgl/src/widgets/../core/lv_obj_style_gen.h **** }
   6:Drivers/lvgl/lvgl/src/widgets/../core/lv_obj_style_gen.h **** 
   7:Drivers/lvgl/lvgl/src/widgets/../core/lv_obj_style_gen.h **** static inline lv_coord_t lv_obj_get_style_min_width(const struct _lv_obj_t * obj, uint32_t part)
   8:Drivers/lvgl/lvgl/src/widgets/../core/lv_obj_style_gen.h **** {
   9:Drivers/lvgl/lvgl/src/widgets/../core/lv_obj_style_gen.h ****     lv_style_value_t v = lv_obj_get_style_prop(obj, part, LV_STYLE_MIN_WIDTH);
  10:Drivers/lvgl/lvgl/src/widgets/../core/lv_obj_style_gen.h ****     return (lv_coord_t)v.num;
  11:Drivers/lvgl/lvgl/src/widgets/../core/lv_obj_style_gen.h **** }
  12:Drivers/lvgl/lvgl/src/widgets/../core/lv_obj_style_gen.h **** 
  13:Drivers/lvgl/lvgl/src/widgets/../core/lv_obj_style_gen.h **** static inline lv_coord_t lv_obj_get_style_max_width(const struct _lv_obj_t * obj, uint32_t part)
  14:Drivers/lvgl/lvgl/src/widgets/../core/lv_obj_style_gen.h **** {
  15:Drivers/lvgl/lvgl/src/widgets/../core/lv_obj_style_gen.h ****     lv_style_value_t v = lv_obj_get_style_prop(obj, part, LV_STYLE_MAX_WIDTH);
  16:Drivers/lvgl/lvgl/src/widgets/../core/lv_obj_style_gen.h ****     return (lv_coord_t)v.num;
  17:Drivers/lvgl/lvgl/src/widgets/../core/lv_obj_style_gen.h **** }
  18:Drivers/lvgl/lvgl/src/widgets/../core/lv_obj_style_gen.h **** 
  19:Drivers/lvgl/lvgl/src/widgets/../core/lv_obj_style_gen.h **** static inline lv_coord_t lv_obj_get_style_height(const struct _lv_obj_t * obj, uint32_t part)
  20:Drivers/lvgl/lvgl/src/widgets/../core/lv_obj_style_gen.h **** {
  21:Drivers/lvgl/lvgl/src/widgets/../core/lv_obj_style_gen.h ****     lv_style_value_t v = lv_obj_get_style_prop(obj, part, LV_STYLE_HEIGHT);
  22:Drivers/lvgl/lvgl/src/widgets/../core/lv_obj_style_gen.h ****     return (lv_coord_t)v.num;
  23:Drivers/lvgl/lvgl/src/widgets/../core/lv_obj_style_gen.h **** }
  24:Drivers/lvgl/lvgl/src/widgets/../core/lv_obj_style_gen.h **** 
  25:Drivers/lvgl/lvgl/src/widgets/../core/lv_obj_style_gen.h **** static inline lv_coord_t lv_obj_get_style_min_height(const struct _lv_obj_t * obj, uint32_t part)
  26:Drivers/lvgl/lvgl/src/widgets/../core/lv_obj_style_gen.h **** {
  27:Drivers/lvgl/lvgl/src/widgets/../core/lv_obj_style_gen.h ****     lv_style_value_t v = lv_obj_get_style_prop(obj, part, LV_STYLE_MIN_HEIGHT);
  28:Drivers/lvgl/lvgl/src/widgets/../core/lv_obj_style_gen.h ****     return (lv_coord_t)v.num;
  29:Drivers/lvgl/lvgl/src/widgets/../core/lv_obj_style_gen.h **** }
  30:Drivers/lvgl/lvgl/src/widgets/../core/lv_obj_style_gen.h **** 
  31:Drivers/lvgl/lvgl/src/widgets/../core/lv_obj_style_gen.h **** static inline lv_coord_t lv_obj_get_style_max_height(const struct _lv_obj_t * obj, uint32_t part)
  32:Drivers/lvgl/lvgl/src/widgets/../core/lv_obj_style_gen.h **** {
  33:Drivers/lvgl/lvgl/src/widgets/../core/lv_obj_style_gen.h ****     lv_style_value_t v = lv_obj_get_style_prop(obj, part, LV_STYLE_MAX_HEIGHT);
ARM GAS  /tmp/ccD6LWGo.s 			page 19


  34:Drivers/lvgl/lvgl/src/widgets/../core/lv_obj_style_gen.h ****     return (lv_coord_t)v.num;
  35:Drivers/lvgl/lvgl/src/widgets/../core/lv_obj_style_gen.h **** }
  36:Drivers/lvgl/lvgl/src/widgets/../core/lv_obj_style_gen.h **** 
  37:Drivers/lvgl/lvgl/src/widgets/../core/lv_obj_style_gen.h **** static inline lv_coord_t lv_obj_get_style_x(const struct _lv_obj_t * obj, uint32_t part)
  38:Drivers/lvgl/lvgl/src/widgets/../core/lv_obj_style_gen.h **** {
  39:Drivers/lvgl/lvgl/src/widgets/../core/lv_obj_style_gen.h ****     lv_style_value_t v = lv_obj_get_style_prop(obj, part, LV_STYLE_X);
  40:Drivers/lvgl/lvgl/src/widgets/../core/lv_obj_style_gen.h ****     return (lv_coord_t)v.num;
  41:Drivers/lvgl/lvgl/src/widgets/../core/lv_obj_style_gen.h **** }
  42:Drivers/lvgl/lvgl/src/widgets/../core/lv_obj_style_gen.h **** 
  43:Drivers/lvgl/lvgl/src/widgets/../core/lv_obj_style_gen.h **** static inline lv_coord_t lv_obj_get_style_y(const struct _lv_obj_t * obj, uint32_t part)
  44:Drivers/lvgl/lvgl/src/widgets/../core/lv_obj_style_gen.h **** {
  45:Drivers/lvgl/lvgl/src/widgets/../core/lv_obj_style_gen.h ****     lv_style_value_t v = lv_obj_get_style_prop(obj, part, LV_STYLE_Y);
  46:Drivers/lvgl/lvgl/src/widgets/../core/lv_obj_style_gen.h ****     return (lv_coord_t)v.num;
  47:Drivers/lvgl/lvgl/src/widgets/../core/lv_obj_style_gen.h **** }
  48:Drivers/lvgl/lvgl/src/widgets/../core/lv_obj_style_gen.h **** 
  49:Drivers/lvgl/lvgl/src/widgets/../core/lv_obj_style_gen.h **** static inline lv_align_t lv_obj_get_style_align(const struct _lv_obj_t * obj, uint32_t part)
  50:Drivers/lvgl/lvgl/src/widgets/../core/lv_obj_style_gen.h **** {
  51:Drivers/lvgl/lvgl/src/widgets/../core/lv_obj_style_gen.h ****     lv_style_value_t v = lv_obj_get_style_prop(obj, part, LV_STYLE_ALIGN);
  52:Drivers/lvgl/lvgl/src/widgets/../core/lv_obj_style_gen.h ****     return (lv_align_t)v.num;
  53:Drivers/lvgl/lvgl/src/widgets/../core/lv_obj_style_gen.h **** }
  54:Drivers/lvgl/lvgl/src/widgets/../core/lv_obj_style_gen.h **** 
  55:Drivers/lvgl/lvgl/src/widgets/../core/lv_obj_style_gen.h **** static inline lv_coord_t lv_obj_get_style_transform_width(const struct _lv_obj_t * obj, uint32_t pa
  56:Drivers/lvgl/lvgl/src/widgets/../core/lv_obj_style_gen.h **** {
  57:Drivers/lvgl/lvgl/src/widgets/../core/lv_obj_style_gen.h ****     lv_style_value_t v = lv_obj_get_style_prop(obj, part, LV_STYLE_TRANSFORM_WIDTH);
  58:Drivers/lvgl/lvgl/src/widgets/../core/lv_obj_style_gen.h ****     return (lv_coord_t)v.num;
  59:Drivers/lvgl/lvgl/src/widgets/../core/lv_obj_style_gen.h **** }
  60:Drivers/lvgl/lvgl/src/widgets/../core/lv_obj_style_gen.h **** 
  61:Drivers/lvgl/lvgl/src/widgets/../core/lv_obj_style_gen.h **** static inline lv_coord_t lv_obj_get_style_transform_height(const struct _lv_obj_t * obj, uint32_t p
  62:Drivers/lvgl/lvgl/src/widgets/../core/lv_obj_style_gen.h **** {
  63:Drivers/lvgl/lvgl/src/widgets/../core/lv_obj_style_gen.h ****     lv_style_value_t v = lv_obj_get_style_prop(obj, part, LV_STYLE_TRANSFORM_HEIGHT);
  64:Drivers/lvgl/lvgl/src/widgets/../core/lv_obj_style_gen.h ****     return (lv_coord_t)v.num;
  65:Drivers/lvgl/lvgl/src/widgets/../core/lv_obj_style_gen.h **** }
  66:Drivers/lvgl/lvgl/src/widgets/../core/lv_obj_style_gen.h **** 
  67:Drivers/lvgl/lvgl/src/widgets/../core/lv_obj_style_gen.h **** static inline lv_coord_t lv_obj_get_style_translate_x(const struct _lv_obj_t * obj, uint32_t part)
  68:Drivers/lvgl/lvgl/src/widgets/../core/lv_obj_style_gen.h **** {
  69:Drivers/lvgl/lvgl/src/widgets/../core/lv_obj_style_gen.h ****     lv_style_value_t v = lv_obj_get_style_prop(obj, part, LV_STYLE_TRANSLATE_X);
  70:Drivers/lvgl/lvgl/src/widgets/../core/lv_obj_style_gen.h ****     return (lv_coord_t)v.num;
  71:Drivers/lvgl/lvgl/src/widgets/../core/lv_obj_style_gen.h **** }
  72:Drivers/lvgl/lvgl/src/widgets/../core/lv_obj_style_gen.h **** 
  73:Drivers/lvgl/lvgl/src/widgets/../core/lv_obj_style_gen.h **** static inline lv_coord_t lv_obj_get_style_translate_y(const struct _lv_obj_t * obj, uint32_t part)
  74:Drivers/lvgl/lvgl/src/widgets/../core/lv_obj_style_gen.h **** {
  75:Drivers/lvgl/lvgl/src/widgets/../core/lv_obj_style_gen.h ****     lv_style_value_t v = lv_obj_get_style_prop(obj, part, LV_STYLE_TRANSLATE_Y);
  76:Drivers/lvgl/lvgl/src/widgets/../core/lv_obj_style_gen.h ****     return (lv_coord_t)v.num;
  77:Drivers/lvgl/lvgl/src/widgets/../core/lv_obj_style_gen.h **** }
  78:Drivers/lvgl/lvgl/src/widgets/../core/lv_obj_style_gen.h **** 
  79:Drivers/lvgl/lvgl/src/widgets/../core/lv_obj_style_gen.h **** static inline lv_coord_t lv_obj_get_style_transform_zoom(const struct _lv_obj_t * obj, uint32_t par
  80:Drivers/lvgl/lvgl/src/widgets/../core/lv_obj_style_gen.h **** {
  81:Drivers/lvgl/lvgl/src/widgets/../core/lv_obj_style_gen.h ****     lv_style_value_t v = lv_obj_get_style_prop(obj, part, LV_STYLE_TRANSFORM_ZOOM);
  82:Drivers/lvgl/lvgl/src/widgets/../core/lv_obj_style_gen.h ****     return (lv_coord_t)v.num;
  83:Drivers/lvgl/lvgl/src/widgets/../core/lv_obj_style_gen.h **** }
  84:Drivers/lvgl/lvgl/src/widgets/../core/lv_obj_style_gen.h **** 
  85:Drivers/lvgl/lvgl/src/widgets/../core/lv_obj_style_gen.h **** static inline lv_coord_t lv_obj_get_style_transform_angle(const struct _lv_obj_t * obj, uint32_t pa
  86:Drivers/lvgl/lvgl/src/widgets/../core/lv_obj_style_gen.h **** {
  87:Drivers/lvgl/lvgl/src/widgets/../core/lv_obj_style_gen.h ****     lv_style_value_t v = lv_obj_get_style_prop(obj, part, LV_STYLE_TRANSFORM_ANGLE);
  88:Drivers/lvgl/lvgl/src/widgets/../core/lv_obj_style_gen.h ****     return (lv_coord_t)v.num;
  89:Drivers/lvgl/lvgl/src/widgets/../core/lv_obj_style_gen.h **** }
  90:Drivers/lvgl/lvgl/src/widgets/../core/lv_obj_style_gen.h **** 
ARM GAS  /tmp/ccD6LWGo.s 			page 20


  91:Drivers/lvgl/lvgl/src/widgets/../core/lv_obj_style_gen.h **** static inline lv_coord_t lv_obj_get_style_transform_pivot_x(const struct _lv_obj_t * obj, uint32_t 
  92:Drivers/lvgl/lvgl/src/widgets/../core/lv_obj_style_gen.h **** {
  93:Drivers/lvgl/lvgl/src/widgets/../core/lv_obj_style_gen.h ****     lv_style_value_t v = lv_obj_get_style_prop(obj, part, LV_STYLE_TRANSFORM_PIVOT_X);
  94:Drivers/lvgl/lvgl/src/widgets/../core/lv_obj_style_gen.h ****     return (lv_coord_t)v.num;
  95:Drivers/lvgl/lvgl/src/widgets/../core/lv_obj_style_gen.h **** }
  96:Drivers/lvgl/lvgl/src/widgets/../core/lv_obj_style_gen.h **** 
  97:Drivers/lvgl/lvgl/src/widgets/../core/lv_obj_style_gen.h **** static inline lv_coord_t lv_obj_get_style_transform_pivot_y(const struct _lv_obj_t * obj, uint32_t 
  98:Drivers/lvgl/lvgl/src/widgets/../core/lv_obj_style_gen.h **** {
  99:Drivers/lvgl/lvgl/src/widgets/../core/lv_obj_style_gen.h ****     lv_style_value_t v = lv_obj_get_style_prop(obj, part, LV_STYLE_TRANSFORM_PIVOT_Y);
 100:Drivers/lvgl/lvgl/src/widgets/../core/lv_obj_style_gen.h ****     return (lv_coord_t)v.num;
 101:Drivers/lvgl/lvgl/src/widgets/../core/lv_obj_style_gen.h **** }
 102:Drivers/lvgl/lvgl/src/widgets/../core/lv_obj_style_gen.h **** 
 103:Drivers/lvgl/lvgl/src/widgets/../core/lv_obj_style_gen.h **** static inline lv_coord_t lv_obj_get_style_pad_top(const struct _lv_obj_t * obj, uint32_t part)
 104:Drivers/lvgl/lvgl/src/widgets/../core/lv_obj_style_gen.h **** {
 105:Drivers/lvgl/lvgl/src/widgets/../core/lv_obj_style_gen.h ****     lv_style_value_t v = lv_obj_get_style_prop(obj, part, LV_STYLE_PAD_TOP);
 106:Drivers/lvgl/lvgl/src/widgets/../core/lv_obj_style_gen.h ****     return (lv_coord_t)v.num;
 107:Drivers/lvgl/lvgl/src/widgets/../core/lv_obj_style_gen.h **** }
 108:Drivers/lvgl/lvgl/src/widgets/../core/lv_obj_style_gen.h **** 
 109:Drivers/lvgl/lvgl/src/widgets/../core/lv_obj_style_gen.h **** static inline lv_coord_t lv_obj_get_style_pad_bottom(const struct _lv_obj_t * obj, uint32_t part)
 110:Drivers/lvgl/lvgl/src/widgets/../core/lv_obj_style_gen.h **** {
 111:Drivers/lvgl/lvgl/src/widgets/../core/lv_obj_style_gen.h ****     lv_style_value_t v = lv_obj_get_style_prop(obj, part, LV_STYLE_PAD_BOTTOM);
 112:Drivers/lvgl/lvgl/src/widgets/../core/lv_obj_style_gen.h ****     return (lv_coord_t)v.num;
 113:Drivers/lvgl/lvgl/src/widgets/../core/lv_obj_style_gen.h **** }
 114:Drivers/lvgl/lvgl/src/widgets/../core/lv_obj_style_gen.h **** 
 115:Drivers/lvgl/lvgl/src/widgets/../core/lv_obj_style_gen.h **** static inline lv_coord_t lv_obj_get_style_pad_left(const struct _lv_obj_t * obj, uint32_t part)
 116:Drivers/lvgl/lvgl/src/widgets/../core/lv_obj_style_gen.h **** {
 117:Drivers/lvgl/lvgl/src/widgets/../core/lv_obj_style_gen.h ****     lv_style_value_t v = lv_obj_get_style_prop(obj, part, LV_STYLE_PAD_LEFT);
 206              		.loc 2 117 0
 207 000c 1222     		movs	r2, #18
 208              	.LVL29:
 209 000e 0021     		movs	r1, #0
 210              	.LVL30:
 211 0010 FFF7FEFF 		bl	lv_obj_get_style_prop
 212              	.LVL31:
 213 0014 0190     		str	r0, [sp, #4]
 118:Drivers/lvgl/lvgl/src/widgets/../core/lv_obj_style_gen.h ****     return (lv_coord_t)v.num;
 214              		.loc 2 118 0
 215 0016 06B2     		sxth	r6, r0
 216              	.LVL32:
 217              	.LBE86:
 218              	.LBE85:
 219              	.LBB87:
 220              	.LBB88:
 119:Drivers/lvgl/lvgl/src/widgets/../core/lv_obj_style_gen.h **** }
 120:Drivers/lvgl/lvgl/src/widgets/../core/lv_obj_style_gen.h **** 
 121:Drivers/lvgl/lvgl/src/widgets/../core/lv_obj_style_gen.h **** static inline lv_coord_t lv_obj_get_style_pad_right(const struct _lv_obj_t * obj, uint32_t part)
 122:Drivers/lvgl/lvgl/src/widgets/../core/lv_obj_style_gen.h **** {
 123:Drivers/lvgl/lvgl/src/widgets/../core/lv_obj_style_gen.h ****     lv_style_value_t v = lv_obj_get_style_prop(obj, part, LV_STYLE_PAD_RIGHT);
 221              		.loc 2 123 0
 222 0018 1322     		movs	r2, #19
 223 001a 0021     		movs	r1, #0
 224 001c 2846     		mov	r0, r5
 225 001e FFF7FEFF 		bl	lv_obj_get_style_prop
 226              	.LVL33:
 124:Drivers/lvgl/lvgl/src/widgets/../core/lv_obj_style_gen.h ****     return (lv_coord_t)v.num;
 227              		.loc 2 124 0
 228 0022 0FFA80FA 		sxth	r10, r0
ARM GAS  /tmp/ccD6LWGo.s 			page 21


 229              	.LVL34:
 230              	.LBE88:
 231              	.LBE87:
 232              	.LBB89:
 233              	.LBB90:
 105:Drivers/lvgl/lvgl/src/widgets/../core/lv_obj_style_gen.h ****     return (lv_coord_t)v.num;
 234              		.loc 2 105 0
 235 0026 1022     		movs	r2, #16
 236 0028 0021     		movs	r1, #0
 237 002a 2846     		mov	r0, r5
 238 002c FFF7FEFF 		bl	lv_obj_get_style_prop
 239              	.LVL35:
 240 0030 0090     		str	r0, [sp]
 106:Drivers/lvgl/lvgl/src/widgets/../core/lv_obj_style_gen.h **** }
 241              		.loc 2 106 0
 242 0032 04B2     		sxth	r4, r0
 243              	.LVL36:
 244              	.LBE90:
 245              	.LBE89:
 246              	.LBB91:
 247              	.LBB92:
 111:Drivers/lvgl/lvgl/src/widgets/../core/lv_obj_style_gen.h ****     return (lv_coord_t)v.num;
 248              		.loc 2 111 0
 249 0034 1122     		movs	r2, #17
 250 0036 0021     		movs	r1, #0
 251 0038 2846     		mov	r0, r5
 252 003a FFF7FEFF 		bl	lv_obj_get_style_prop
 253              	.LVL37:
 112:Drivers/lvgl/lvgl/src/widgets/../core/lv_obj_style_gen.h **** }
 254              		.loc 2 112 0
 255 003e 0FFA80F9 		sxth	r9, r0
 256              	.LVL38:
 257              	.LBE92:
 258              	.LBE91:
 752:Drivers/lvgl/lvgl/src/widgets/lv_arc.c ****                            lv_obj_get_height(obj) - top_bg - bottom_bg)) / 2;
 259              		.loc 1 752 0
 260 0042 2846     		mov	r0, r5
 261 0044 FFF7FEFF 		bl	lv_obj_get_width
 262              	.LVL39:
 263 0048 801B     		subs	r0, r0, r6
 264 004a A0EB0A07 		sub	r7, r0, r10
 265 004e 2846     		mov	r0, r5
 266 0050 FFF7FEFF 		bl	lv_obj_get_height
 267              	.LVL40:
 268 0054 001B     		subs	r0, r0, r4
 269 0056 A0EB0900 		sub	r0, r0, r9
 270 005a 8742     		cmp	r7, r0
 271 005c 24DA     		bge	.L20
 752:Drivers/lvgl/lvgl/src/widgets/lv_arc.c ****                            lv_obj_get_height(obj) - top_bg - bottom_bg)) / 2;
 272              		.loc 1 752 0 is_stmt 0 discriminator 1
 273 005e 2846     		mov	r0, r5
 274 0060 FFF7FEFF 		bl	lv_obj_get_width
 275              	.LVL41:
 276 0064 A0EB0609 		sub	r9, r0, r6
 753:Drivers/lvgl/lvgl/src/widgets/lv_arc.c **** 
 277              		.loc 1 753 0 is_stmt 1 discriminator 1
 278 0068 B9EB0A09 		subs	r9, r9, r10
ARM GAS  /tmp/ccD6LWGo.s 			page 22


 279 006c 19D4     		bmi	.L26
 280              	.L21:
 752:Drivers/lvgl/lvgl/src/widgets/lv_arc.c ****                            lv_obj_get_height(obj) - top_bg - bottom_bg)) / 2;
 281              		.loc 1 752 0 discriminator 1
 282 006e 49F34F09 		sbfx	r9, r9, #1, #16
 283              	.L22:
 284              	.LVL42:
 755:Drivers/lvgl/lvgl/src/widgets/lv_arc.c ****     center->y = obj->coords.y1 + r + top_bg;
 285              		.loc 1 755 0 discriminator 4
 286 0072 AA8A     		ldrh	r2, [r5, #20]
 287 0074 1FFA89F3 		uxth	r3, r9
 288 0078 1A44     		add	r2, r2, r3
 289 007a 0199     		ldr	r1, [sp, #4]
 290 007c 11FA82F2 		uxtah	r2, r1, r2
 291 0080 A8F80020 		strh	r2, [r8]	@ movhi
 756:Drivers/lvgl/lvgl/src/widgets/lv_arc.c **** 
 292              		.loc 1 756 0 discriminator 4
 293 0084 EA8A     		ldrh	r2, [r5, #22]
 294 0086 1344     		add	r3, r3, r2
 295 0088 009A     		ldr	r2, [sp]
 296 008a 12FA83F3 		uxtah	r3, r2, r3
 297 008e A8F80230 		strh	r3, [r8, #2]	@ movhi
 758:Drivers/lvgl/lvgl/src/widgets/lv_arc.c **** }
 298              		.loc 1 758 0 discriminator 4
 299 0092 BBF1000F 		cmp	fp, #0
 300 0096 01D0     		beq	.L19
 758:Drivers/lvgl/lvgl/src/widgets/lv_arc.c **** }
 301              		.loc 1 758 0 is_stmt 0 discriminator 1
 302 0098 ABF80090 		strh	r9, [fp]	@ movhi
 303              	.L19:
 759:Drivers/lvgl/lvgl/src/widgets/lv_arc.c **** 
 304              		.loc 1 759 0 is_stmt 1
 305 009c 03B0     		add	sp, sp, #12
 306              	.LCFI7:
 307              		.cfi_remember_state
 308              		.cfi_def_cfa_offset 36
 309              		@ sp needed
 310 009e BDE8F08F 		pop	{r4, r5, r6, r7, r8, r9, r10, fp, pc}
 311              	.LVL43:
 312              	.L26:
 313              	.LCFI8:
 314              		.cfi_restore_state
 753:Drivers/lvgl/lvgl/src/widgets/lv_arc.c **** 
 315              		.loc 1 753 0 discriminator 1
 316 00a2 09F10109 		add	r9, r9, #1
 317 00a6 E2E7     		b	.L21
 318              	.L20:
 752:Drivers/lvgl/lvgl/src/widgets/lv_arc.c ****                            lv_obj_get_height(obj) - top_bg - bottom_bg)) / 2;
 319              		.loc 1 752 0 discriminator 2
 320 00a8 2846     		mov	r0, r5
 321 00aa FFF7FEFF 		bl	lv_obj_get_height
 322              	.LVL44:
 323 00ae 001B     		subs	r0, r0, r4
 753:Drivers/lvgl/lvgl/src/widgets/lv_arc.c **** 
 324              		.loc 1 753 0 discriminator 2
 325 00b0 B0EB0909 		subs	r9, r0, r9
 326 00b4 02D4     		bmi	.L27
ARM GAS  /tmp/ccD6LWGo.s 			page 23


 327              	.L23:
 752:Drivers/lvgl/lvgl/src/widgets/lv_arc.c ****                            lv_obj_get_height(obj) - top_bg - bottom_bg)) / 2;
 328              		.loc 1 752 0 discriminator 2
 329 00b6 49F34F09 		sbfx	r9, r9, #1, #16
 330 00ba DAE7     		b	.L22
 331              	.L27:
 753:Drivers/lvgl/lvgl/src/widgets/lv_arc.c **** 
 332              		.loc 1 753 0 discriminator 2
 333 00bc 09F10109 		add	r9, r9, #1
 334 00c0 F9E7     		b	.L23
 335              		.cfi_endproc
 336              	.LFE186:
 338              		.section	.text.knob_get_extra_size,"ax",%progbits
 339              		.align	1
 340              		.syntax unified
 341              		.thumb
 342              		.thumb_func
 343              		.fpu fpv5-d16
 345              	knob_get_extra_size:
 346              	.LFB190:
 785:Drivers/lvgl/lvgl/src/widgets/lv_arc.c **** 
 786:Drivers/lvgl/lvgl/src/widgets/lv_arc.c **** 
 787:Drivers/lvgl/lvgl/src/widgets/lv_arc.c **** static void get_knob_area(lv_obj_t * obj, const lv_point_t * center, lv_coord_t r, lv_area_t * knob
 788:Drivers/lvgl/lvgl/src/widgets/lv_arc.c **** {
 789:Drivers/lvgl/lvgl/src/widgets/lv_arc.c ****     lv_coord_t indic_width = lv_obj_get_style_arc_width(obj, LV_PART_INDICATOR);
 790:Drivers/lvgl/lvgl/src/widgets/lv_arc.c ****     lv_coord_t indic_width_half = indic_width / 2;
 791:Drivers/lvgl/lvgl/src/widgets/lv_arc.c ****     r -= indic_width_half;
 792:Drivers/lvgl/lvgl/src/widgets/lv_arc.c **** 
 793:Drivers/lvgl/lvgl/src/widgets/lv_arc.c ****     lv_coord_t angle = get_angle(obj);
 794:Drivers/lvgl/lvgl/src/widgets/lv_arc.c ****     lv_coord_t knob_x = (r * lv_trigo_sin(angle + 90)) >> LV_TRIGO_SHIFT;
 795:Drivers/lvgl/lvgl/src/widgets/lv_arc.c ****     lv_coord_t knob_y = (r * lv_trigo_sin(angle)) >> LV_TRIGO_SHIFT;
 796:Drivers/lvgl/lvgl/src/widgets/lv_arc.c **** 
 797:Drivers/lvgl/lvgl/src/widgets/lv_arc.c ****     lv_coord_t left_knob = lv_obj_get_style_pad_left(obj, LV_PART_KNOB);
 798:Drivers/lvgl/lvgl/src/widgets/lv_arc.c ****     lv_coord_t right_knob = lv_obj_get_style_pad_right(obj, LV_PART_KNOB);
 799:Drivers/lvgl/lvgl/src/widgets/lv_arc.c ****     lv_coord_t top_knob = lv_obj_get_style_pad_top(obj, LV_PART_KNOB);
 800:Drivers/lvgl/lvgl/src/widgets/lv_arc.c ****     lv_coord_t bottom_knob = lv_obj_get_style_pad_bottom(obj, LV_PART_KNOB);
 801:Drivers/lvgl/lvgl/src/widgets/lv_arc.c **** 
 802:Drivers/lvgl/lvgl/src/widgets/lv_arc.c ****     knob_area->x1 = center->x + knob_x - left_knob - indic_width_half;
 803:Drivers/lvgl/lvgl/src/widgets/lv_arc.c ****     knob_area->x2 = center->x + knob_x + right_knob + indic_width_half;
 804:Drivers/lvgl/lvgl/src/widgets/lv_arc.c ****     knob_area->y1 = center->y + knob_y - top_knob - indic_width_half;
 805:Drivers/lvgl/lvgl/src/widgets/lv_arc.c ****     knob_area->y2 = center->y + knob_y + bottom_knob + indic_width_half;
 806:Drivers/lvgl/lvgl/src/widgets/lv_arc.c **** }
 807:Drivers/lvgl/lvgl/src/widgets/lv_arc.c **** 
 808:Drivers/lvgl/lvgl/src/widgets/lv_arc.c **** /**
 809:Drivers/lvgl/lvgl/src/widgets/lv_arc.c ****  * Used internally to update arc angles after a value change
 810:Drivers/lvgl/lvgl/src/widgets/lv_arc.c ****  * @param arc pointer to an arc object
 811:Drivers/lvgl/lvgl/src/widgets/lv_arc.c ****  */
 812:Drivers/lvgl/lvgl/src/widgets/lv_arc.c **** static void value_update(lv_obj_t * obj)
 813:Drivers/lvgl/lvgl/src/widgets/lv_arc.c **** {
 814:Drivers/lvgl/lvgl/src/widgets/lv_arc.c ****     LV_ASSERT_OBJ(obj, MY_CLASS);
 815:Drivers/lvgl/lvgl/src/widgets/lv_arc.c ****     lv_arc_t * arc = (lv_arc_t *)obj;
 816:Drivers/lvgl/lvgl/src/widgets/lv_arc.c **** 
 817:Drivers/lvgl/lvgl/src/widgets/lv_arc.c ****     /*If the value is still not set to any value do not update*/
 818:Drivers/lvgl/lvgl/src/widgets/lv_arc.c ****     if(arc->value == VALUE_UNSET) return;
 819:Drivers/lvgl/lvgl/src/widgets/lv_arc.c **** 
 820:Drivers/lvgl/lvgl/src/widgets/lv_arc.c ****     int16_t bg_midpoint, range_midpoint, bg_end = arc->bg_angle_end;
 821:Drivers/lvgl/lvgl/src/widgets/lv_arc.c ****     if(arc->bg_angle_end < arc->bg_angle_start) bg_end = arc->bg_angle_end + 360;
ARM GAS  /tmp/ccD6LWGo.s 			page 24


 822:Drivers/lvgl/lvgl/src/widgets/lv_arc.c **** 
 823:Drivers/lvgl/lvgl/src/widgets/lv_arc.c ****     int16_t angle;
 824:Drivers/lvgl/lvgl/src/widgets/lv_arc.c ****     switch(arc->type) {
 825:Drivers/lvgl/lvgl/src/widgets/lv_arc.c ****         case LV_ARC_MODE_SYMMETRICAL:
 826:Drivers/lvgl/lvgl/src/widgets/lv_arc.c ****             bg_midpoint = (arc->bg_angle_start + bg_end) / 2;
 827:Drivers/lvgl/lvgl/src/widgets/lv_arc.c ****             range_midpoint = (int32_t)(arc->min_value + arc->max_value) / 2;
 828:Drivers/lvgl/lvgl/src/widgets/lv_arc.c **** 
 829:Drivers/lvgl/lvgl/src/widgets/lv_arc.c ****             if(arc->value < range_midpoint) {
 830:Drivers/lvgl/lvgl/src/widgets/lv_arc.c ****                 angle = lv_map(arc->value, arc->min_value, range_midpoint, arc->bg_angle_start, bg_
 831:Drivers/lvgl/lvgl/src/widgets/lv_arc.c ****                 lv_arc_set_start_angle(obj, angle);
 832:Drivers/lvgl/lvgl/src/widgets/lv_arc.c ****                 lv_arc_set_end_angle(obj, bg_midpoint);
 833:Drivers/lvgl/lvgl/src/widgets/lv_arc.c ****             }
 834:Drivers/lvgl/lvgl/src/widgets/lv_arc.c ****             else {
 835:Drivers/lvgl/lvgl/src/widgets/lv_arc.c ****                 angle = lv_map(arc->value, range_midpoint, arc->max_value, bg_midpoint, bg_end);
 836:Drivers/lvgl/lvgl/src/widgets/lv_arc.c ****                 lv_arc_set_start_angle(obj, bg_midpoint);
 837:Drivers/lvgl/lvgl/src/widgets/lv_arc.c ****                 lv_arc_set_end_angle(obj, angle);
 838:Drivers/lvgl/lvgl/src/widgets/lv_arc.c ****             }
 839:Drivers/lvgl/lvgl/src/widgets/lv_arc.c ****             break;
 840:Drivers/lvgl/lvgl/src/widgets/lv_arc.c ****         case LV_ARC_MODE_REVERSE:
 841:Drivers/lvgl/lvgl/src/widgets/lv_arc.c ****             angle = lv_map(arc->value, arc->min_value, arc->max_value, bg_end, arc->bg_angle_start)
 842:Drivers/lvgl/lvgl/src/widgets/lv_arc.c ****             lv_arc_set_angles(obj, angle, arc->bg_angle_end);
 843:Drivers/lvgl/lvgl/src/widgets/lv_arc.c ****             break;
 844:Drivers/lvgl/lvgl/src/widgets/lv_arc.c ****         case LV_ARC_MODE_NORMAL:
 845:Drivers/lvgl/lvgl/src/widgets/lv_arc.c ****             angle = lv_map(arc->value, arc->min_value, arc->max_value, arc->bg_angle_start, bg_end)
 846:Drivers/lvgl/lvgl/src/widgets/lv_arc.c ****             lv_arc_set_angles(obj, arc->bg_angle_start, angle);
 847:Drivers/lvgl/lvgl/src/widgets/lv_arc.c **** 
 848:Drivers/lvgl/lvgl/src/widgets/lv_arc.c ****             break;
 849:Drivers/lvgl/lvgl/src/widgets/lv_arc.c ****         default:
 850:Drivers/lvgl/lvgl/src/widgets/lv_arc.c ****             LV_LOG_WARN("Invalid mode: %d", arc->type);
 851:Drivers/lvgl/lvgl/src/widgets/lv_arc.c ****             return;
 852:Drivers/lvgl/lvgl/src/widgets/lv_arc.c ****     }
 853:Drivers/lvgl/lvgl/src/widgets/lv_arc.c ****     arc->last_angle = angle; /*Cache angle for slew rate limiting*/
 854:Drivers/lvgl/lvgl/src/widgets/lv_arc.c **** }
 855:Drivers/lvgl/lvgl/src/widgets/lv_arc.c **** 
 856:Drivers/lvgl/lvgl/src/widgets/lv_arc.c **** static lv_coord_t knob_get_extra_size(lv_obj_t * obj)
 857:Drivers/lvgl/lvgl/src/widgets/lv_arc.c **** {
 347              		.loc 1 857 0
 348              		.cfi_startproc
 349              		@ args = 0, pretend = 0, frame = 0
 350              		@ frame_needed = 0, uses_anonymous_args = 0
 351              	.LVL45:
 352 0000 70B5     		push	{r4, r5, r6, lr}
 353              	.LCFI9:
 354              		.cfi_def_cfa_offset 16
 355              		.cfi_offset 4, -16
 356              		.cfi_offset 5, -12
 357              		.cfi_offset 6, -8
 358              		.cfi_offset 14, -4
 359 0002 0546     		mov	r5, r0
 360              	.LVL46:
 361              	.LBB93:
 362              	.LBB94:
 125:Drivers/lvgl/lvgl/src/widgets/../core/lv_obj_style_gen.h **** }
 126:Drivers/lvgl/lvgl/src/widgets/../core/lv_obj_style_gen.h **** 
 127:Drivers/lvgl/lvgl/src/widgets/../core/lv_obj_style_gen.h **** static inline lv_coord_t lv_obj_get_style_pad_row(const struct _lv_obj_t * obj, uint32_t part)
 128:Drivers/lvgl/lvgl/src/widgets/../core/lv_obj_style_gen.h **** {
 129:Drivers/lvgl/lvgl/src/widgets/../core/lv_obj_style_gen.h ****     lv_style_value_t v = lv_obj_get_style_prop(obj, part, LV_STYLE_PAD_ROW);
ARM GAS  /tmp/ccD6LWGo.s 			page 25


 130:Drivers/lvgl/lvgl/src/widgets/../core/lv_obj_style_gen.h ****     return (lv_coord_t)v.num;
 131:Drivers/lvgl/lvgl/src/widgets/../core/lv_obj_style_gen.h **** }
 132:Drivers/lvgl/lvgl/src/widgets/../core/lv_obj_style_gen.h **** 
 133:Drivers/lvgl/lvgl/src/widgets/../core/lv_obj_style_gen.h **** static inline lv_coord_t lv_obj_get_style_pad_column(const struct _lv_obj_t * obj, uint32_t part)
 134:Drivers/lvgl/lvgl/src/widgets/../core/lv_obj_style_gen.h **** {
 135:Drivers/lvgl/lvgl/src/widgets/../core/lv_obj_style_gen.h ****     lv_style_value_t v = lv_obj_get_style_prop(obj, part, LV_STYLE_PAD_COLUMN);
 136:Drivers/lvgl/lvgl/src/widgets/../core/lv_obj_style_gen.h ****     return (lv_coord_t)v.num;
 137:Drivers/lvgl/lvgl/src/widgets/../core/lv_obj_style_gen.h **** }
 138:Drivers/lvgl/lvgl/src/widgets/../core/lv_obj_style_gen.h **** 
 139:Drivers/lvgl/lvgl/src/widgets/../core/lv_obj_style_gen.h **** static inline lv_color_t lv_obj_get_style_bg_color(const struct _lv_obj_t * obj, uint32_t part)
 140:Drivers/lvgl/lvgl/src/widgets/../core/lv_obj_style_gen.h **** {
 141:Drivers/lvgl/lvgl/src/widgets/../core/lv_obj_style_gen.h ****     lv_style_value_t v = lv_obj_get_style_prop(obj, part, LV_STYLE_BG_COLOR);
 142:Drivers/lvgl/lvgl/src/widgets/../core/lv_obj_style_gen.h ****     return v.color;
 143:Drivers/lvgl/lvgl/src/widgets/../core/lv_obj_style_gen.h **** }
 144:Drivers/lvgl/lvgl/src/widgets/../core/lv_obj_style_gen.h **** 
 145:Drivers/lvgl/lvgl/src/widgets/../core/lv_obj_style_gen.h **** static inline lv_color_t lv_obj_get_style_bg_color_filtered(const struct _lv_obj_t * obj, uint32_t 
 146:Drivers/lvgl/lvgl/src/widgets/../core/lv_obj_style_gen.h **** {
 147:Drivers/lvgl/lvgl/src/widgets/../core/lv_obj_style_gen.h ****     lv_style_value_t v = _lv_obj_style_apply_color_filter(obj, part, lv_obj_get_style_prop(obj, par
 148:Drivers/lvgl/lvgl/src/widgets/../core/lv_obj_style_gen.h ****     return v.color;
 149:Drivers/lvgl/lvgl/src/widgets/../core/lv_obj_style_gen.h **** }
 150:Drivers/lvgl/lvgl/src/widgets/../core/lv_obj_style_gen.h **** 
 151:Drivers/lvgl/lvgl/src/widgets/../core/lv_obj_style_gen.h **** static inline lv_opa_t lv_obj_get_style_bg_opa(const struct _lv_obj_t * obj, uint32_t part)
 152:Drivers/lvgl/lvgl/src/widgets/../core/lv_obj_style_gen.h **** {
 153:Drivers/lvgl/lvgl/src/widgets/../core/lv_obj_style_gen.h ****     lv_style_value_t v = lv_obj_get_style_prop(obj, part, LV_STYLE_BG_OPA);
 154:Drivers/lvgl/lvgl/src/widgets/../core/lv_obj_style_gen.h ****     return (lv_opa_t)v.num;
 155:Drivers/lvgl/lvgl/src/widgets/../core/lv_obj_style_gen.h **** }
 156:Drivers/lvgl/lvgl/src/widgets/../core/lv_obj_style_gen.h **** 
 157:Drivers/lvgl/lvgl/src/widgets/../core/lv_obj_style_gen.h **** static inline lv_color_t lv_obj_get_style_bg_grad_color(const struct _lv_obj_t * obj, uint32_t part
 158:Drivers/lvgl/lvgl/src/widgets/../core/lv_obj_style_gen.h **** {
 159:Drivers/lvgl/lvgl/src/widgets/../core/lv_obj_style_gen.h ****     lv_style_value_t v = lv_obj_get_style_prop(obj, part, LV_STYLE_BG_GRAD_COLOR);
 160:Drivers/lvgl/lvgl/src/widgets/../core/lv_obj_style_gen.h ****     return v.color;
 161:Drivers/lvgl/lvgl/src/widgets/../core/lv_obj_style_gen.h **** }
 162:Drivers/lvgl/lvgl/src/widgets/../core/lv_obj_style_gen.h **** 
 163:Drivers/lvgl/lvgl/src/widgets/../core/lv_obj_style_gen.h **** static inline lv_color_t lv_obj_get_style_bg_grad_color_filtered(const struct _lv_obj_t * obj, uint
 164:Drivers/lvgl/lvgl/src/widgets/../core/lv_obj_style_gen.h **** {
 165:Drivers/lvgl/lvgl/src/widgets/../core/lv_obj_style_gen.h ****     lv_style_value_t v = _lv_obj_style_apply_color_filter(obj, part, lv_obj_get_style_prop(obj, par
 166:Drivers/lvgl/lvgl/src/widgets/../core/lv_obj_style_gen.h ****     return v.color;
 167:Drivers/lvgl/lvgl/src/widgets/../core/lv_obj_style_gen.h **** }
 168:Drivers/lvgl/lvgl/src/widgets/../core/lv_obj_style_gen.h **** 
 169:Drivers/lvgl/lvgl/src/widgets/../core/lv_obj_style_gen.h **** static inline lv_grad_dir_t lv_obj_get_style_bg_grad_dir(const struct _lv_obj_t * obj, uint32_t par
 170:Drivers/lvgl/lvgl/src/widgets/../core/lv_obj_style_gen.h **** {
 171:Drivers/lvgl/lvgl/src/widgets/../core/lv_obj_style_gen.h ****     lv_style_value_t v = lv_obj_get_style_prop(obj, part, LV_STYLE_BG_GRAD_DIR);
 172:Drivers/lvgl/lvgl/src/widgets/../core/lv_obj_style_gen.h ****     return (lv_grad_dir_t)v.num;
 173:Drivers/lvgl/lvgl/src/widgets/../core/lv_obj_style_gen.h **** }
 174:Drivers/lvgl/lvgl/src/widgets/../core/lv_obj_style_gen.h **** 
 175:Drivers/lvgl/lvgl/src/widgets/../core/lv_obj_style_gen.h **** static inline lv_coord_t lv_obj_get_style_bg_main_stop(const struct _lv_obj_t * obj, uint32_t part)
 176:Drivers/lvgl/lvgl/src/widgets/../core/lv_obj_style_gen.h **** {
 177:Drivers/lvgl/lvgl/src/widgets/../core/lv_obj_style_gen.h ****     lv_style_value_t v = lv_obj_get_style_prop(obj, part, LV_STYLE_BG_MAIN_STOP);
 178:Drivers/lvgl/lvgl/src/widgets/../core/lv_obj_style_gen.h ****     return (lv_coord_t)v.num;
 179:Drivers/lvgl/lvgl/src/widgets/../core/lv_obj_style_gen.h **** }
 180:Drivers/lvgl/lvgl/src/widgets/../core/lv_obj_style_gen.h **** 
 181:Drivers/lvgl/lvgl/src/widgets/../core/lv_obj_style_gen.h **** static inline lv_coord_t lv_obj_get_style_bg_grad_stop(const struct _lv_obj_t * obj, uint32_t part)
 182:Drivers/lvgl/lvgl/src/widgets/../core/lv_obj_style_gen.h **** {
 183:Drivers/lvgl/lvgl/src/widgets/../core/lv_obj_style_gen.h ****     lv_style_value_t v = lv_obj_get_style_prop(obj, part, LV_STYLE_BG_GRAD_STOP);
 184:Drivers/lvgl/lvgl/src/widgets/../core/lv_obj_style_gen.h ****     return (lv_coord_t)v.num;
 185:Drivers/lvgl/lvgl/src/widgets/../core/lv_obj_style_gen.h **** }
 186:Drivers/lvgl/lvgl/src/widgets/../core/lv_obj_style_gen.h **** 
ARM GAS  /tmp/ccD6LWGo.s 			page 26


 187:Drivers/lvgl/lvgl/src/widgets/../core/lv_obj_style_gen.h **** static inline const lv_grad_dsc_t * lv_obj_get_style_bg_grad(const struct _lv_obj_t * obj, uint32_t
 188:Drivers/lvgl/lvgl/src/widgets/../core/lv_obj_style_gen.h **** {
 189:Drivers/lvgl/lvgl/src/widgets/../core/lv_obj_style_gen.h ****     lv_style_value_t v = lv_obj_get_style_prop(obj, part, LV_STYLE_BG_GRAD);
 190:Drivers/lvgl/lvgl/src/widgets/../core/lv_obj_style_gen.h ****     return (const lv_grad_dsc_t *)v.ptr;
 191:Drivers/lvgl/lvgl/src/widgets/../core/lv_obj_style_gen.h **** }
 192:Drivers/lvgl/lvgl/src/widgets/../core/lv_obj_style_gen.h **** 
 193:Drivers/lvgl/lvgl/src/widgets/../core/lv_obj_style_gen.h **** static inline lv_dither_mode_t lv_obj_get_style_bg_dither_mode(const struct _lv_obj_t * obj, uint32
 194:Drivers/lvgl/lvgl/src/widgets/../core/lv_obj_style_gen.h **** {
 195:Drivers/lvgl/lvgl/src/widgets/../core/lv_obj_style_gen.h ****     lv_style_value_t v = lv_obj_get_style_prop(obj, part, LV_STYLE_BG_DITHER_MODE);
 196:Drivers/lvgl/lvgl/src/widgets/../core/lv_obj_style_gen.h ****     return (lv_dither_mode_t)v.num;
 197:Drivers/lvgl/lvgl/src/widgets/../core/lv_obj_style_gen.h **** }
 198:Drivers/lvgl/lvgl/src/widgets/../core/lv_obj_style_gen.h **** 
 199:Drivers/lvgl/lvgl/src/widgets/../core/lv_obj_style_gen.h **** static inline const void * lv_obj_get_style_bg_img_src(const struct _lv_obj_t * obj, uint32_t part)
 200:Drivers/lvgl/lvgl/src/widgets/../core/lv_obj_style_gen.h **** {
 201:Drivers/lvgl/lvgl/src/widgets/../core/lv_obj_style_gen.h ****     lv_style_value_t v = lv_obj_get_style_prop(obj, part, LV_STYLE_BG_IMG_SRC);
 202:Drivers/lvgl/lvgl/src/widgets/../core/lv_obj_style_gen.h ****     return (const void *)v.ptr;
 203:Drivers/lvgl/lvgl/src/widgets/../core/lv_obj_style_gen.h **** }
 204:Drivers/lvgl/lvgl/src/widgets/../core/lv_obj_style_gen.h **** 
 205:Drivers/lvgl/lvgl/src/widgets/../core/lv_obj_style_gen.h **** static inline lv_opa_t lv_obj_get_style_bg_img_opa(const struct _lv_obj_t * obj, uint32_t part)
 206:Drivers/lvgl/lvgl/src/widgets/../core/lv_obj_style_gen.h **** {
 207:Drivers/lvgl/lvgl/src/widgets/../core/lv_obj_style_gen.h ****     lv_style_value_t v = lv_obj_get_style_prop(obj, part, LV_STYLE_BG_IMG_OPA);
 208:Drivers/lvgl/lvgl/src/widgets/../core/lv_obj_style_gen.h ****     return (lv_opa_t)v.num;
 209:Drivers/lvgl/lvgl/src/widgets/../core/lv_obj_style_gen.h **** }
 210:Drivers/lvgl/lvgl/src/widgets/../core/lv_obj_style_gen.h **** 
 211:Drivers/lvgl/lvgl/src/widgets/../core/lv_obj_style_gen.h **** static inline lv_color_t lv_obj_get_style_bg_img_recolor(const struct _lv_obj_t * obj, uint32_t par
 212:Drivers/lvgl/lvgl/src/widgets/../core/lv_obj_style_gen.h **** {
 213:Drivers/lvgl/lvgl/src/widgets/../core/lv_obj_style_gen.h ****     lv_style_value_t v = lv_obj_get_style_prop(obj, part, LV_STYLE_BG_IMG_RECOLOR);
 214:Drivers/lvgl/lvgl/src/widgets/../core/lv_obj_style_gen.h ****     return v.color;
 215:Drivers/lvgl/lvgl/src/widgets/../core/lv_obj_style_gen.h **** }
 216:Drivers/lvgl/lvgl/src/widgets/../core/lv_obj_style_gen.h **** 
 217:Drivers/lvgl/lvgl/src/widgets/../core/lv_obj_style_gen.h **** static inline lv_color_t lv_obj_get_style_bg_img_recolor_filtered(const struct _lv_obj_t * obj, uin
 218:Drivers/lvgl/lvgl/src/widgets/../core/lv_obj_style_gen.h **** {
 219:Drivers/lvgl/lvgl/src/widgets/../core/lv_obj_style_gen.h ****     lv_style_value_t v = _lv_obj_style_apply_color_filter(obj, part, lv_obj_get_style_prop(obj, par
 220:Drivers/lvgl/lvgl/src/widgets/../core/lv_obj_style_gen.h ****     return v.color;
 221:Drivers/lvgl/lvgl/src/widgets/../core/lv_obj_style_gen.h **** }
 222:Drivers/lvgl/lvgl/src/widgets/../core/lv_obj_style_gen.h **** 
 223:Drivers/lvgl/lvgl/src/widgets/../core/lv_obj_style_gen.h **** static inline lv_opa_t lv_obj_get_style_bg_img_recolor_opa(const struct _lv_obj_t * obj, uint32_t p
 224:Drivers/lvgl/lvgl/src/widgets/../core/lv_obj_style_gen.h **** {
 225:Drivers/lvgl/lvgl/src/widgets/../core/lv_obj_style_gen.h ****     lv_style_value_t v = lv_obj_get_style_prop(obj, part, LV_STYLE_BG_IMG_RECOLOR_OPA);
 226:Drivers/lvgl/lvgl/src/widgets/../core/lv_obj_style_gen.h ****     return (lv_opa_t)v.num;
 227:Drivers/lvgl/lvgl/src/widgets/../core/lv_obj_style_gen.h **** }
 228:Drivers/lvgl/lvgl/src/widgets/../core/lv_obj_style_gen.h **** 
 229:Drivers/lvgl/lvgl/src/widgets/../core/lv_obj_style_gen.h **** static inline bool lv_obj_get_style_bg_img_tiled(const struct _lv_obj_t * obj, uint32_t part)
 230:Drivers/lvgl/lvgl/src/widgets/../core/lv_obj_style_gen.h **** {
 231:Drivers/lvgl/lvgl/src/widgets/../core/lv_obj_style_gen.h ****     lv_style_value_t v = lv_obj_get_style_prop(obj, part, LV_STYLE_BG_IMG_TILED);
 232:Drivers/lvgl/lvgl/src/widgets/../core/lv_obj_style_gen.h ****     return (bool)v.num;
 233:Drivers/lvgl/lvgl/src/widgets/../core/lv_obj_style_gen.h **** }
 234:Drivers/lvgl/lvgl/src/widgets/../core/lv_obj_style_gen.h **** 
 235:Drivers/lvgl/lvgl/src/widgets/../core/lv_obj_style_gen.h **** static inline lv_color_t lv_obj_get_style_border_color(const struct _lv_obj_t * obj, uint32_t part)
 236:Drivers/lvgl/lvgl/src/widgets/../core/lv_obj_style_gen.h **** {
 237:Drivers/lvgl/lvgl/src/widgets/../core/lv_obj_style_gen.h ****     lv_style_value_t v = lv_obj_get_style_prop(obj, part, LV_STYLE_BORDER_COLOR);
 238:Drivers/lvgl/lvgl/src/widgets/../core/lv_obj_style_gen.h ****     return v.color;
 239:Drivers/lvgl/lvgl/src/widgets/../core/lv_obj_style_gen.h **** }
 240:Drivers/lvgl/lvgl/src/widgets/../core/lv_obj_style_gen.h **** 
 241:Drivers/lvgl/lvgl/src/widgets/../core/lv_obj_style_gen.h **** static inline lv_color_t lv_obj_get_style_border_color_filtered(const struct _lv_obj_t * obj, uint3
 242:Drivers/lvgl/lvgl/src/widgets/../core/lv_obj_style_gen.h **** {
 243:Drivers/lvgl/lvgl/src/widgets/../core/lv_obj_style_gen.h ****     lv_style_value_t v = _lv_obj_style_apply_color_filter(obj, part, lv_obj_get_style_prop(obj, par
ARM GAS  /tmp/ccD6LWGo.s 			page 27


 244:Drivers/lvgl/lvgl/src/widgets/../core/lv_obj_style_gen.h ****     return v.color;
 245:Drivers/lvgl/lvgl/src/widgets/../core/lv_obj_style_gen.h **** }
 246:Drivers/lvgl/lvgl/src/widgets/../core/lv_obj_style_gen.h **** 
 247:Drivers/lvgl/lvgl/src/widgets/../core/lv_obj_style_gen.h **** static inline lv_opa_t lv_obj_get_style_border_opa(const struct _lv_obj_t * obj, uint32_t part)
 248:Drivers/lvgl/lvgl/src/widgets/../core/lv_obj_style_gen.h **** {
 249:Drivers/lvgl/lvgl/src/widgets/../core/lv_obj_style_gen.h ****     lv_style_value_t v = lv_obj_get_style_prop(obj, part, LV_STYLE_BORDER_OPA);
 250:Drivers/lvgl/lvgl/src/widgets/../core/lv_obj_style_gen.h ****     return (lv_opa_t)v.num;
 251:Drivers/lvgl/lvgl/src/widgets/../core/lv_obj_style_gen.h **** }
 252:Drivers/lvgl/lvgl/src/widgets/../core/lv_obj_style_gen.h **** 
 253:Drivers/lvgl/lvgl/src/widgets/../core/lv_obj_style_gen.h **** static inline lv_coord_t lv_obj_get_style_border_width(const struct _lv_obj_t * obj, uint32_t part)
 254:Drivers/lvgl/lvgl/src/widgets/../core/lv_obj_style_gen.h **** {
 255:Drivers/lvgl/lvgl/src/widgets/../core/lv_obj_style_gen.h ****     lv_style_value_t v = lv_obj_get_style_prop(obj, part, LV_STYLE_BORDER_WIDTH);
 256:Drivers/lvgl/lvgl/src/widgets/../core/lv_obj_style_gen.h ****     return (lv_coord_t)v.num;
 257:Drivers/lvgl/lvgl/src/widgets/../core/lv_obj_style_gen.h **** }
 258:Drivers/lvgl/lvgl/src/widgets/../core/lv_obj_style_gen.h **** 
 259:Drivers/lvgl/lvgl/src/widgets/../core/lv_obj_style_gen.h **** static inline lv_border_side_t lv_obj_get_style_border_side(const struct _lv_obj_t * obj, uint32_t 
 260:Drivers/lvgl/lvgl/src/widgets/../core/lv_obj_style_gen.h **** {
 261:Drivers/lvgl/lvgl/src/widgets/../core/lv_obj_style_gen.h ****     lv_style_value_t v = lv_obj_get_style_prop(obj, part, LV_STYLE_BORDER_SIDE);
 262:Drivers/lvgl/lvgl/src/widgets/../core/lv_obj_style_gen.h ****     return (lv_border_side_t)v.num;
 263:Drivers/lvgl/lvgl/src/widgets/../core/lv_obj_style_gen.h **** }
 264:Drivers/lvgl/lvgl/src/widgets/../core/lv_obj_style_gen.h **** 
 265:Drivers/lvgl/lvgl/src/widgets/../core/lv_obj_style_gen.h **** static inline bool lv_obj_get_style_border_post(const struct _lv_obj_t * obj, uint32_t part)
 266:Drivers/lvgl/lvgl/src/widgets/../core/lv_obj_style_gen.h **** {
 267:Drivers/lvgl/lvgl/src/widgets/../core/lv_obj_style_gen.h ****     lv_style_value_t v = lv_obj_get_style_prop(obj, part, LV_STYLE_BORDER_POST);
 268:Drivers/lvgl/lvgl/src/widgets/../core/lv_obj_style_gen.h ****     return (bool)v.num;
 269:Drivers/lvgl/lvgl/src/widgets/../core/lv_obj_style_gen.h **** }
 270:Drivers/lvgl/lvgl/src/widgets/../core/lv_obj_style_gen.h **** 
 271:Drivers/lvgl/lvgl/src/widgets/../core/lv_obj_style_gen.h **** static inline lv_coord_t lv_obj_get_style_outline_width(const struct _lv_obj_t * obj, uint32_t part
 272:Drivers/lvgl/lvgl/src/widgets/../core/lv_obj_style_gen.h **** {
 273:Drivers/lvgl/lvgl/src/widgets/../core/lv_obj_style_gen.h ****     lv_style_value_t v = lv_obj_get_style_prop(obj, part, LV_STYLE_OUTLINE_WIDTH);
 274:Drivers/lvgl/lvgl/src/widgets/../core/lv_obj_style_gen.h ****     return (lv_coord_t)v.num;
 275:Drivers/lvgl/lvgl/src/widgets/../core/lv_obj_style_gen.h **** }
 276:Drivers/lvgl/lvgl/src/widgets/../core/lv_obj_style_gen.h **** 
 277:Drivers/lvgl/lvgl/src/widgets/../core/lv_obj_style_gen.h **** static inline lv_color_t lv_obj_get_style_outline_color(const struct _lv_obj_t * obj, uint32_t part
 278:Drivers/lvgl/lvgl/src/widgets/../core/lv_obj_style_gen.h **** {
 279:Drivers/lvgl/lvgl/src/widgets/../core/lv_obj_style_gen.h ****     lv_style_value_t v = lv_obj_get_style_prop(obj, part, LV_STYLE_OUTLINE_COLOR);
 280:Drivers/lvgl/lvgl/src/widgets/../core/lv_obj_style_gen.h ****     return v.color;
 281:Drivers/lvgl/lvgl/src/widgets/../core/lv_obj_style_gen.h **** }
 282:Drivers/lvgl/lvgl/src/widgets/../core/lv_obj_style_gen.h **** 
 283:Drivers/lvgl/lvgl/src/widgets/../core/lv_obj_style_gen.h **** static inline lv_color_t lv_obj_get_style_outline_color_filtered(const struct _lv_obj_t * obj, uint
 284:Drivers/lvgl/lvgl/src/widgets/../core/lv_obj_style_gen.h **** {
 285:Drivers/lvgl/lvgl/src/widgets/../core/lv_obj_style_gen.h ****     lv_style_value_t v = _lv_obj_style_apply_color_filter(obj, part, lv_obj_get_style_prop(obj, par
 286:Drivers/lvgl/lvgl/src/widgets/../core/lv_obj_style_gen.h ****     return v.color;
 287:Drivers/lvgl/lvgl/src/widgets/../core/lv_obj_style_gen.h **** }
 288:Drivers/lvgl/lvgl/src/widgets/../core/lv_obj_style_gen.h **** 
 289:Drivers/lvgl/lvgl/src/widgets/../core/lv_obj_style_gen.h **** static inline lv_opa_t lv_obj_get_style_outline_opa(const struct _lv_obj_t * obj, uint32_t part)
 290:Drivers/lvgl/lvgl/src/widgets/../core/lv_obj_style_gen.h **** {
 291:Drivers/lvgl/lvgl/src/widgets/../core/lv_obj_style_gen.h ****     lv_style_value_t v = lv_obj_get_style_prop(obj, part, LV_STYLE_OUTLINE_OPA);
 292:Drivers/lvgl/lvgl/src/widgets/../core/lv_obj_style_gen.h ****     return (lv_opa_t)v.num;
 293:Drivers/lvgl/lvgl/src/widgets/../core/lv_obj_style_gen.h **** }
 294:Drivers/lvgl/lvgl/src/widgets/../core/lv_obj_style_gen.h **** 
 295:Drivers/lvgl/lvgl/src/widgets/../core/lv_obj_style_gen.h **** static inline lv_coord_t lv_obj_get_style_outline_pad(const struct _lv_obj_t * obj, uint32_t part)
 296:Drivers/lvgl/lvgl/src/widgets/../core/lv_obj_style_gen.h **** {
 297:Drivers/lvgl/lvgl/src/widgets/../core/lv_obj_style_gen.h ****     lv_style_value_t v = lv_obj_get_style_prop(obj, part, LV_STYLE_OUTLINE_PAD);
 298:Drivers/lvgl/lvgl/src/widgets/../core/lv_obj_style_gen.h ****     return (lv_coord_t)v.num;
 299:Drivers/lvgl/lvgl/src/widgets/../core/lv_obj_style_gen.h **** }
 300:Drivers/lvgl/lvgl/src/widgets/../core/lv_obj_style_gen.h **** 
ARM GAS  /tmp/ccD6LWGo.s 			page 28


 301:Drivers/lvgl/lvgl/src/widgets/../core/lv_obj_style_gen.h **** static inline lv_coord_t lv_obj_get_style_shadow_width(const struct _lv_obj_t * obj, uint32_t part)
 302:Drivers/lvgl/lvgl/src/widgets/../core/lv_obj_style_gen.h **** {
 303:Drivers/lvgl/lvgl/src/widgets/../core/lv_obj_style_gen.h ****     lv_style_value_t v = lv_obj_get_style_prop(obj, part, LV_STYLE_SHADOW_WIDTH);
 363              		.loc 2 303 0
 364 0004 4022     		movs	r2, #64
 365 0006 4FF44031 		mov	r1, #196608
 366 000a FFF7FEFF 		bl	lv_obj_get_style_prop
 367              	.LVL47:
 368              	.LBE94:
 369              	.LBE93:
 858:Drivers/lvgl/lvgl/src/widgets/lv_arc.c ****     lv_coord_t knob_shadow_size = 0;
 859:Drivers/lvgl/lvgl/src/widgets/lv_arc.c ****     knob_shadow_size += lv_obj_get_style_shadow_width(obj, LV_PART_KNOB);
 370              		.loc 1 859 0
 371 000e 84B2     		uxth	r4, r0
 372              	.LVL48:
 373              	.LBB95:
 374              	.LBB96:
 304:Drivers/lvgl/lvgl/src/widgets/../core/lv_obj_style_gen.h ****     return (lv_coord_t)v.num;
 305:Drivers/lvgl/lvgl/src/widgets/../core/lv_obj_style_gen.h **** }
 306:Drivers/lvgl/lvgl/src/widgets/../core/lv_obj_style_gen.h **** 
 307:Drivers/lvgl/lvgl/src/widgets/../core/lv_obj_style_gen.h **** static inline lv_coord_t lv_obj_get_style_shadow_ofs_x(const struct _lv_obj_t * obj, uint32_t part)
 308:Drivers/lvgl/lvgl/src/widgets/../core/lv_obj_style_gen.h **** {
 309:Drivers/lvgl/lvgl/src/widgets/../core/lv_obj_style_gen.h ****     lv_style_value_t v = lv_obj_get_style_prop(obj, part, LV_STYLE_SHADOW_OFS_X);
 310:Drivers/lvgl/lvgl/src/widgets/../core/lv_obj_style_gen.h ****     return (lv_coord_t)v.num;
 311:Drivers/lvgl/lvgl/src/widgets/../core/lv_obj_style_gen.h **** }
 312:Drivers/lvgl/lvgl/src/widgets/../core/lv_obj_style_gen.h **** 
 313:Drivers/lvgl/lvgl/src/widgets/../core/lv_obj_style_gen.h **** static inline lv_coord_t lv_obj_get_style_shadow_ofs_y(const struct _lv_obj_t * obj, uint32_t part)
 314:Drivers/lvgl/lvgl/src/widgets/../core/lv_obj_style_gen.h **** {
 315:Drivers/lvgl/lvgl/src/widgets/../core/lv_obj_style_gen.h ****     lv_style_value_t v = lv_obj_get_style_prop(obj, part, LV_STYLE_SHADOW_OFS_Y);
 316:Drivers/lvgl/lvgl/src/widgets/../core/lv_obj_style_gen.h ****     return (lv_coord_t)v.num;
 317:Drivers/lvgl/lvgl/src/widgets/../core/lv_obj_style_gen.h **** }
 318:Drivers/lvgl/lvgl/src/widgets/../core/lv_obj_style_gen.h **** 
 319:Drivers/lvgl/lvgl/src/widgets/../core/lv_obj_style_gen.h **** static inline lv_coord_t lv_obj_get_style_shadow_spread(const struct _lv_obj_t * obj, uint32_t part
 320:Drivers/lvgl/lvgl/src/widgets/../core/lv_obj_style_gen.h **** {
 321:Drivers/lvgl/lvgl/src/widgets/../core/lv_obj_style_gen.h ****     lv_style_value_t v = lv_obj_get_style_prop(obj, part, LV_STYLE_SHADOW_SPREAD);
 375              		.loc 2 321 0
 376 0010 4322     		movs	r2, #67
 377 0012 4FF44031 		mov	r1, #196608
 378 0016 2846     		mov	r0, r5
 379              	.LVL49:
 380 0018 FFF7FEFF 		bl	lv_obj_get_style_prop
 381              	.LVL50:
 382              	.LBE96:
 383              	.LBE95:
 860:Drivers/lvgl/lvgl/src/widgets/lv_arc.c ****     knob_shadow_size += lv_obj_get_style_shadow_spread(obj, LV_PART_KNOB);
 384              		.loc 1 860 0
 385 001c 14FA80F4 		uxtah	r4, r4, r0
 386 0020 A4B2     		uxth	r4, r4
 387              	.LVL51:
 388              	.LBB97:
 389              	.LBB98:
 309:Drivers/lvgl/lvgl/src/widgets/../core/lv_obj_style_gen.h ****     return (lv_coord_t)v.num;
 390              		.loc 2 309 0
 391 0022 4122     		movs	r2, #65
 392 0024 4FF44031 		mov	r1, #196608
 393 0028 2846     		mov	r0, r5
 394 002a FFF7FEFF 		bl	lv_obj_get_style_prop
ARM GAS  /tmp/ccD6LWGo.s 			page 29


 395              	.LVL52:
 310:Drivers/lvgl/lvgl/src/widgets/../core/lv_obj_style_gen.h **** }
 396              		.loc 2 310 0
 397 002e 00B2     		sxth	r0, r0
 398              	.LVL53:
 399              	.LBE98:
 400              	.LBE97:
 861:Drivers/lvgl/lvgl/src/widgets/lv_arc.c ****     knob_shadow_size += LV_ABS(lv_obj_get_style_shadow_ofs_x(obj, LV_PART_KNOB));
 401              		.loc 1 861 0
 402 0030 0028     		cmp	r0, #0
 403 0032 2EDD     		ble	.L29
 404              	.LVL54:
 405              	.LBB99:
 406              	.LBB100:
 309:Drivers/lvgl/lvgl/src/widgets/../core/lv_obj_style_gen.h ****     return (lv_coord_t)v.num;
 407              		.loc 2 309 0
 408 0034 4122     		movs	r2, #65
 409 0036 4FF44031 		mov	r1, #196608
 410 003a 2846     		mov	r0, r5
 411 003c FFF7FEFF 		bl	lv_obj_get_style_prop
 412              	.LVL55:
 310:Drivers/lvgl/lvgl/src/widgets/../core/lv_obj_style_gen.h **** }
 413              		.loc 2 310 0
 414 0040 00B2     		sxth	r0, r0
 415              	.LVL56:
 416              	.L30:
 417              	.LBE100:
 418              	.LBE99:
 419              		.loc 1 861 0 discriminator 4
 420 0042 0444     		add	r4, r4, r0
 421              	.LVL57:
 422 0044 A4B2     		uxth	r4, r4
 423              	.LVL58:
 424              	.LBB101:
 425              	.LBB102:
 315:Drivers/lvgl/lvgl/src/widgets/../core/lv_obj_style_gen.h ****     return (lv_coord_t)v.num;
 426              		.loc 2 315 0 discriminator 4
 427 0046 4222     		movs	r2, #66
 428 0048 4FF44031 		mov	r1, #196608
 429 004c 2846     		mov	r0, r5
 430 004e FFF7FEFF 		bl	lv_obj_get_style_prop
 431              	.LVL59:
 316:Drivers/lvgl/lvgl/src/widgets/../core/lv_obj_style_gen.h **** }
 432              		.loc 2 316 0 discriminator 4
 433 0052 00B2     		sxth	r0, r0
 434              	.LVL60:
 435              	.LBE102:
 436              	.LBE101:
 862:Drivers/lvgl/lvgl/src/widgets/lv_arc.c ****     knob_shadow_size += LV_ABS(lv_obj_get_style_shadow_ofs_y(obj, LV_PART_KNOB));
 437              		.loc 1 862 0 discriminator 4
 438 0054 0028     		cmp	r0, #0
 439 0056 25DD     		ble	.L31
 440              	.LVL61:
 441              	.LBB103:
 442              	.LBB104:
 315:Drivers/lvgl/lvgl/src/widgets/../core/lv_obj_style_gen.h ****     return (lv_coord_t)v.num;
 443              		.loc 2 315 0
ARM GAS  /tmp/ccD6LWGo.s 			page 30


 444 0058 4222     		movs	r2, #66
 445 005a 4FF44031 		mov	r1, #196608
 446 005e 2846     		mov	r0, r5
 447 0060 FFF7FEFF 		bl	lv_obj_get_style_prop
 448              	.LVL62:
 316:Drivers/lvgl/lvgl/src/widgets/../core/lv_obj_style_gen.h **** }
 449              		.loc 2 316 0
 450 0064 00B2     		sxth	r0, r0
 451              	.LVL63:
 452              	.L32:
 453              	.LBE104:
 454              	.LBE103:
 455              		.loc 1 862 0 discriminator 4
 456 0066 0444     		add	r4, r4, r0
 457              	.LVL64:
 458 0068 24B2     		sxth	r4, r4
 459              	.LVL65:
 460              	.LBB105:
 461              	.LBB106:
 273:Drivers/lvgl/lvgl/src/widgets/../core/lv_obj_style_gen.h ****     return (lv_coord_t)v.num;
 462              		.loc 2 273 0 discriminator 4
 463 006a 3522     		movs	r2, #53
 464 006c 4FF44031 		mov	r1, #196608
 465 0070 2846     		mov	r0, r5
 466 0072 FFF7FEFF 		bl	lv_obj_get_style_prop
 467              	.LVL66:
 468              	.LBE106:
 469              	.LBE105:
 863:Drivers/lvgl/lvgl/src/widgets/lv_arc.c **** 
 864:Drivers/lvgl/lvgl/src/widgets/lv_arc.c ****     lv_coord_t knob_outline_size = 0;
 865:Drivers/lvgl/lvgl/src/widgets/lv_arc.c ****     knob_outline_size += lv_obj_get_style_outline_width(obj, LV_PART_KNOB);
 470              		.loc 1 865 0 discriminator 4
 471 0076 86B2     		uxth	r6, r0
 472              	.LVL67:
 473              	.LBB107:
 474              	.LBB108:
 297:Drivers/lvgl/lvgl/src/widgets/../core/lv_obj_style_gen.h ****     return (lv_coord_t)v.num;
 475              		.loc 2 297 0 discriminator 4
 476 0078 3822     		movs	r2, #56
 477 007a 4FF44031 		mov	r1, #196608
 478 007e 2846     		mov	r0, r5
 479              	.LVL68:
 480 0080 FFF7FEFF 		bl	lv_obj_get_style_prop
 481              	.LVL69:
 482              	.LBE108:
 483              	.LBE107:
 866:Drivers/lvgl/lvgl/src/widgets/lv_arc.c ****     knob_outline_size += lv_obj_get_style_outline_pad(obj, LV_PART_KNOB);
 484              		.loc 1 866 0 discriminator 4
 485 0084 16FA80F0 		uxtah	r0, r6, r0
 486 0088 00B2     		sxth	r0, r0
 487              	.LVL70:
 867:Drivers/lvgl/lvgl/src/widgets/lv_arc.c **** 
 868:Drivers/lvgl/lvgl/src/widgets/lv_arc.c ****     return LV_MAX(knob_shadow_size, knob_outline_size);
 869:Drivers/lvgl/lvgl/src/widgets/lv_arc.c **** }
 488              		.loc 1 869 0 discriminator 4
 489 008a A042     		cmp	r0, r4
 490 008c B8BF     		it	lt
ARM GAS  /tmp/ccD6LWGo.s 			page 31


 491 008e 2046     		movlt	r0, r4
 492              	.LVL71:
 493 0090 70BD     		pop	{r4, r5, r6, pc}
 494              	.LVL72:
 495              	.L29:
 496              	.LBB109:
 497              	.LBB110:
 309:Drivers/lvgl/lvgl/src/widgets/../core/lv_obj_style_gen.h ****     return (lv_coord_t)v.num;
 498              		.loc 2 309 0
 499 0092 4122     		movs	r2, #65
 500 0094 4FF44031 		mov	r1, #196608
 501 0098 2846     		mov	r0, r5
 502 009a FFF7FEFF 		bl	lv_obj_get_style_prop
 503              	.LVL73:
 310:Drivers/lvgl/lvgl/src/widgets/../core/lv_obj_style_gen.h **** }
 504              		.loc 2 310 0
 505 009e 00B2     		sxth	r0, r0
 506              	.LVL74:
 507              	.LBE110:
 508              	.LBE109:
 861:Drivers/lvgl/lvgl/src/widgets/lv_arc.c ****     knob_shadow_size += LV_ABS(lv_obj_get_style_shadow_ofs_y(obj, LV_PART_KNOB));
 509              		.loc 1 861 0
 510 00a0 4042     		negs	r0, r0
 511 00a2 CEE7     		b	.L30
 512              	.L31:
 513              	.LVL75:
 514              	.LBB111:
 515              	.LBB112:
 315:Drivers/lvgl/lvgl/src/widgets/../core/lv_obj_style_gen.h ****     return (lv_coord_t)v.num;
 516              		.loc 2 315 0
 517 00a4 4222     		movs	r2, #66
 518 00a6 4FF44031 		mov	r1, #196608
 519 00aa 2846     		mov	r0, r5
 520 00ac FFF7FEFF 		bl	lv_obj_get_style_prop
 521              	.LVL76:
 316:Drivers/lvgl/lvgl/src/widgets/../core/lv_obj_style_gen.h **** }
 522              		.loc 2 316 0
 523 00b0 00B2     		sxth	r0, r0
 524              	.LVL77:
 525              	.LBE112:
 526              	.LBE111:
 862:Drivers/lvgl/lvgl/src/widgets/lv_arc.c **** 
 527              		.loc 1 862 0
 528 00b2 4042     		negs	r0, r0
 529 00b4 D7E7     		b	.L32
 530              		.cfi_endproc
 531              	.LFE190:
 533              		.section	.text.get_knob_area,"ax",%progbits
 534              		.align	1
 535              		.syntax unified
 536              		.thumb
 537              		.thumb_func
 538              		.fpu fpv5-d16
 540              	get_knob_area:
 541              	.LFB188:
 788:Drivers/lvgl/lvgl/src/widgets/lv_arc.c ****     lv_coord_t indic_width = lv_obj_get_style_arc_width(obj, LV_PART_INDICATOR);
 542              		.loc 1 788 0
ARM GAS  /tmp/ccD6LWGo.s 			page 32


 543              		.cfi_startproc
 544              		@ args = 0, pretend = 0, frame = 8
 545              		@ frame_needed = 0, uses_anonymous_args = 0
 546              	.LVL78:
 547 0000 2DE9F04F 		push	{r4, r5, r6, r7, r8, r9, r10, fp, lr}
 548              	.LCFI10:
 549              		.cfi_def_cfa_offset 36
 550              		.cfi_offset 4, -36
 551              		.cfi_offset 5, -32
 552              		.cfi_offset 6, -28
 553              		.cfi_offset 7, -24
 554              		.cfi_offset 8, -20
 555              		.cfi_offset 9, -16
 556              		.cfi_offset 10, -12
 557              		.cfi_offset 11, -8
 558              		.cfi_offset 14, -4
 559 0004 83B0     		sub	sp, sp, #12
 560              	.LCFI11:
 561              		.cfi_def_cfa_offset 48
 562 0006 0190     		str	r0, [sp, #4]
 563 0008 8846     		mov	r8, r1
 564 000a 9146     		mov	r9, r2
 565 000c 1F46     		mov	r7, r3
 566              	.LVL79:
 567              	.LBB113:
 568              	.LBB114:
 322:Drivers/lvgl/lvgl/src/widgets/../core/lv_obj_style_gen.h ****     return (lv_coord_t)v.num;
 323:Drivers/lvgl/lvgl/src/widgets/../core/lv_obj_style_gen.h **** }
 324:Drivers/lvgl/lvgl/src/widgets/../core/lv_obj_style_gen.h **** 
 325:Drivers/lvgl/lvgl/src/widgets/../core/lv_obj_style_gen.h **** static inline lv_color_t lv_obj_get_style_shadow_color(const struct _lv_obj_t * obj, uint32_t part)
 326:Drivers/lvgl/lvgl/src/widgets/../core/lv_obj_style_gen.h **** {
 327:Drivers/lvgl/lvgl/src/widgets/../core/lv_obj_style_gen.h ****     lv_style_value_t v = lv_obj_get_style_prop(obj, part, LV_STYLE_SHADOW_COLOR);
 328:Drivers/lvgl/lvgl/src/widgets/../core/lv_obj_style_gen.h ****     return v.color;
 329:Drivers/lvgl/lvgl/src/widgets/../core/lv_obj_style_gen.h **** }
 330:Drivers/lvgl/lvgl/src/widgets/../core/lv_obj_style_gen.h **** 
 331:Drivers/lvgl/lvgl/src/widgets/../core/lv_obj_style_gen.h **** static inline lv_color_t lv_obj_get_style_shadow_color_filtered(const struct _lv_obj_t * obj, uint3
 332:Drivers/lvgl/lvgl/src/widgets/../core/lv_obj_style_gen.h **** {
 333:Drivers/lvgl/lvgl/src/widgets/../core/lv_obj_style_gen.h ****     lv_style_value_t v = _lv_obj_style_apply_color_filter(obj, part, lv_obj_get_style_prop(obj, par
 334:Drivers/lvgl/lvgl/src/widgets/../core/lv_obj_style_gen.h ****     return v.color;
 335:Drivers/lvgl/lvgl/src/widgets/../core/lv_obj_style_gen.h **** }
 336:Drivers/lvgl/lvgl/src/widgets/../core/lv_obj_style_gen.h **** 
 337:Drivers/lvgl/lvgl/src/widgets/../core/lv_obj_style_gen.h **** static inline lv_opa_t lv_obj_get_style_shadow_opa(const struct _lv_obj_t * obj, uint32_t part)
 338:Drivers/lvgl/lvgl/src/widgets/../core/lv_obj_style_gen.h **** {
 339:Drivers/lvgl/lvgl/src/widgets/../core/lv_obj_style_gen.h ****     lv_style_value_t v = lv_obj_get_style_prop(obj, part, LV_STYLE_SHADOW_OPA);
 340:Drivers/lvgl/lvgl/src/widgets/../core/lv_obj_style_gen.h ****     return (lv_opa_t)v.num;
 341:Drivers/lvgl/lvgl/src/widgets/../core/lv_obj_style_gen.h **** }
 342:Drivers/lvgl/lvgl/src/widgets/../core/lv_obj_style_gen.h **** 
 343:Drivers/lvgl/lvgl/src/widgets/../core/lv_obj_style_gen.h **** static inline lv_opa_t lv_obj_get_style_img_opa(const struct _lv_obj_t * obj, uint32_t part)
 344:Drivers/lvgl/lvgl/src/widgets/../core/lv_obj_style_gen.h **** {
 345:Drivers/lvgl/lvgl/src/widgets/../core/lv_obj_style_gen.h ****     lv_style_value_t v = lv_obj_get_style_prop(obj, part, LV_STYLE_IMG_OPA);
 346:Drivers/lvgl/lvgl/src/widgets/../core/lv_obj_style_gen.h ****     return (lv_opa_t)v.num;
 347:Drivers/lvgl/lvgl/src/widgets/../core/lv_obj_style_gen.h **** }
 348:Drivers/lvgl/lvgl/src/widgets/../core/lv_obj_style_gen.h **** 
 349:Drivers/lvgl/lvgl/src/widgets/../core/lv_obj_style_gen.h **** static inline lv_color_t lv_obj_get_style_img_recolor(const struct _lv_obj_t * obj, uint32_t part)
 350:Drivers/lvgl/lvgl/src/widgets/../core/lv_obj_style_gen.h **** {
 351:Drivers/lvgl/lvgl/src/widgets/../core/lv_obj_style_gen.h ****     lv_style_value_t v = lv_obj_get_style_prop(obj, part, LV_STYLE_IMG_RECOLOR);
 352:Drivers/lvgl/lvgl/src/widgets/../core/lv_obj_style_gen.h ****     return v.color;
ARM GAS  /tmp/ccD6LWGo.s 			page 33


 353:Drivers/lvgl/lvgl/src/widgets/../core/lv_obj_style_gen.h **** }
 354:Drivers/lvgl/lvgl/src/widgets/../core/lv_obj_style_gen.h **** 
 355:Drivers/lvgl/lvgl/src/widgets/../core/lv_obj_style_gen.h **** static inline lv_color_t lv_obj_get_style_img_recolor_filtered(const struct _lv_obj_t * obj, uint32
 356:Drivers/lvgl/lvgl/src/widgets/../core/lv_obj_style_gen.h **** {
 357:Drivers/lvgl/lvgl/src/widgets/../core/lv_obj_style_gen.h ****     lv_style_value_t v = _lv_obj_style_apply_color_filter(obj, part, lv_obj_get_style_prop(obj, par
 358:Drivers/lvgl/lvgl/src/widgets/../core/lv_obj_style_gen.h ****     return v.color;
 359:Drivers/lvgl/lvgl/src/widgets/../core/lv_obj_style_gen.h **** }
 360:Drivers/lvgl/lvgl/src/widgets/../core/lv_obj_style_gen.h **** 
 361:Drivers/lvgl/lvgl/src/widgets/../core/lv_obj_style_gen.h **** static inline lv_opa_t lv_obj_get_style_img_recolor_opa(const struct _lv_obj_t * obj, uint32_t part
 362:Drivers/lvgl/lvgl/src/widgets/../core/lv_obj_style_gen.h **** {
 363:Drivers/lvgl/lvgl/src/widgets/../core/lv_obj_style_gen.h ****     lv_style_value_t v = lv_obj_get_style_prop(obj, part, LV_STYLE_IMG_RECOLOR_OPA);
 364:Drivers/lvgl/lvgl/src/widgets/../core/lv_obj_style_gen.h ****     return (lv_opa_t)v.num;
 365:Drivers/lvgl/lvgl/src/widgets/../core/lv_obj_style_gen.h **** }
 366:Drivers/lvgl/lvgl/src/widgets/../core/lv_obj_style_gen.h **** 
 367:Drivers/lvgl/lvgl/src/widgets/../core/lv_obj_style_gen.h **** static inline lv_coord_t lv_obj_get_style_line_width(const struct _lv_obj_t * obj, uint32_t part)
 368:Drivers/lvgl/lvgl/src/widgets/../core/lv_obj_style_gen.h **** {
 369:Drivers/lvgl/lvgl/src/widgets/../core/lv_obj_style_gen.h ****     lv_style_value_t v = lv_obj_get_style_prop(obj, part, LV_STYLE_LINE_WIDTH);
 370:Drivers/lvgl/lvgl/src/widgets/../core/lv_obj_style_gen.h ****     return (lv_coord_t)v.num;
 371:Drivers/lvgl/lvgl/src/widgets/../core/lv_obj_style_gen.h **** }
 372:Drivers/lvgl/lvgl/src/widgets/../core/lv_obj_style_gen.h **** 
 373:Drivers/lvgl/lvgl/src/widgets/../core/lv_obj_style_gen.h **** static inline lv_coord_t lv_obj_get_style_line_dash_width(const struct _lv_obj_t * obj, uint32_t pa
 374:Drivers/lvgl/lvgl/src/widgets/../core/lv_obj_style_gen.h **** {
 375:Drivers/lvgl/lvgl/src/widgets/../core/lv_obj_style_gen.h ****     lv_style_value_t v = lv_obj_get_style_prop(obj, part, LV_STYLE_LINE_DASH_WIDTH);
 376:Drivers/lvgl/lvgl/src/widgets/../core/lv_obj_style_gen.h ****     return (lv_coord_t)v.num;
 377:Drivers/lvgl/lvgl/src/widgets/../core/lv_obj_style_gen.h **** }
 378:Drivers/lvgl/lvgl/src/widgets/../core/lv_obj_style_gen.h **** 
 379:Drivers/lvgl/lvgl/src/widgets/../core/lv_obj_style_gen.h **** static inline lv_coord_t lv_obj_get_style_line_dash_gap(const struct _lv_obj_t * obj, uint32_t part
 380:Drivers/lvgl/lvgl/src/widgets/../core/lv_obj_style_gen.h **** {
 381:Drivers/lvgl/lvgl/src/widgets/../core/lv_obj_style_gen.h ****     lv_style_value_t v = lv_obj_get_style_prop(obj, part, LV_STYLE_LINE_DASH_GAP);
 382:Drivers/lvgl/lvgl/src/widgets/../core/lv_obj_style_gen.h ****     return (lv_coord_t)v.num;
 383:Drivers/lvgl/lvgl/src/widgets/../core/lv_obj_style_gen.h **** }
 384:Drivers/lvgl/lvgl/src/widgets/../core/lv_obj_style_gen.h **** 
 385:Drivers/lvgl/lvgl/src/widgets/../core/lv_obj_style_gen.h **** static inline bool lv_obj_get_style_line_rounded(const struct _lv_obj_t * obj, uint32_t part)
 386:Drivers/lvgl/lvgl/src/widgets/../core/lv_obj_style_gen.h **** {
 387:Drivers/lvgl/lvgl/src/widgets/../core/lv_obj_style_gen.h ****     lv_style_value_t v = lv_obj_get_style_prop(obj, part, LV_STYLE_LINE_ROUNDED);
 388:Drivers/lvgl/lvgl/src/widgets/../core/lv_obj_style_gen.h ****     return (bool)v.num;
 389:Drivers/lvgl/lvgl/src/widgets/../core/lv_obj_style_gen.h **** }
 390:Drivers/lvgl/lvgl/src/widgets/../core/lv_obj_style_gen.h **** 
 391:Drivers/lvgl/lvgl/src/widgets/../core/lv_obj_style_gen.h **** static inline lv_color_t lv_obj_get_style_line_color(const struct _lv_obj_t * obj, uint32_t part)
 392:Drivers/lvgl/lvgl/src/widgets/../core/lv_obj_style_gen.h **** {
 393:Drivers/lvgl/lvgl/src/widgets/../core/lv_obj_style_gen.h ****     lv_style_value_t v = lv_obj_get_style_prop(obj, part, LV_STYLE_LINE_COLOR);
 394:Drivers/lvgl/lvgl/src/widgets/../core/lv_obj_style_gen.h ****     return v.color;
 395:Drivers/lvgl/lvgl/src/widgets/../core/lv_obj_style_gen.h **** }
 396:Drivers/lvgl/lvgl/src/widgets/../core/lv_obj_style_gen.h **** 
 397:Drivers/lvgl/lvgl/src/widgets/../core/lv_obj_style_gen.h **** static inline lv_color_t lv_obj_get_style_line_color_filtered(const struct _lv_obj_t * obj, uint32_
 398:Drivers/lvgl/lvgl/src/widgets/../core/lv_obj_style_gen.h **** {
 399:Drivers/lvgl/lvgl/src/widgets/../core/lv_obj_style_gen.h ****     lv_style_value_t v = _lv_obj_style_apply_color_filter(obj, part, lv_obj_get_style_prop(obj, par
 400:Drivers/lvgl/lvgl/src/widgets/../core/lv_obj_style_gen.h ****     return v.color;
 401:Drivers/lvgl/lvgl/src/widgets/../core/lv_obj_style_gen.h **** }
 402:Drivers/lvgl/lvgl/src/widgets/../core/lv_obj_style_gen.h **** 
 403:Drivers/lvgl/lvgl/src/widgets/../core/lv_obj_style_gen.h **** static inline lv_opa_t lv_obj_get_style_line_opa(const struct _lv_obj_t * obj, uint32_t part)
 404:Drivers/lvgl/lvgl/src/widgets/../core/lv_obj_style_gen.h **** {
 405:Drivers/lvgl/lvgl/src/widgets/../core/lv_obj_style_gen.h ****     lv_style_value_t v = lv_obj_get_style_prop(obj, part, LV_STYLE_LINE_OPA);
 406:Drivers/lvgl/lvgl/src/widgets/../core/lv_obj_style_gen.h ****     return (lv_opa_t)v.num;
 407:Drivers/lvgl/lvgl/src/widgets/../core/lv_obj_style_gen.h **** }
 408:Drivers/lvgl/lvgl/src/widgets/../core/lv_obj_style_gen.h **** 
 409:Drivers/lvgl/lvgl/src/widgets/../core/lv_obj_style_gen.h **** static inline lv_coord_t lv_obj_get_style_arc_width(const struct _lv_obj_t * obj, uint32_t part)
ARM GAS  /tmp/ccD6LWGo.s 			page 34


 410:Drivers/lvgl/lvgl/src/widgets/../core/lv_obj_style_gen.h **** {
 411:Drivers/lvgl/lvgl/src/widgets/../core/lv_obj_style_gen.h ****     lv_style_value_t v = lv_obj_get_style_prop(obj, part, LV_STYLE_ARC_WIDTH);
 569              		.loc 2 411 0
 570 000e 5022     		movs	r2, #80
 571              	.LVL80:
 572 0010 4FF40031 		mov	r1, #131072
 573              	.LVL81:
 574 0014 FFF7FEFF 		bl	lv_obj_get_style_prop
 575              	.LVL82:
 412:Drivers/lvgl/lvgl/src/widgets/../core/lv_obj_style_gen.h ****     return (lv_coord_t)v.num;
 576              		.loc 2 412 0
 577 0018 00B2     		sxth	r0, r0
 578              	.LVL83:
 579              	.LBE114:
 580              	.LBE113:
 790:Drivers/lvgl/lvgl/src/widgets/lv_arc.c ****     r -= indic_width_half;
 581              		.loc 1 790 0
 582 001a 0028     		cmp	r0, #0
 583 001c 64DB     		blt	.L37
 584              	.L35:
 585              	.LVL84:
 791:Drivers/lvgl/lvgl/src/widgets/lv_arc.c **** 
 586              		.loc 1 791 0
 587 001e C0F34F05 		ubfx	r5, r0, #1, #16
 588 0022 A9EB0509 		sub	r9, r9, r5
 589 0026 0FFA89F9 		sxth	r9, r9
 590              	.LVL85:
 793:Drivers/lvgl/lvgl/src/widgets/lv_arc.c ****     lv_coord_t knob_x = (r * lv_trigo_sin(angle + 90)) >> LV_TRIGO_SHIFT;
 591              		.loc 1 793 0
 592 002a DDF804B0 		ldr	fp, [sp, #4]
 593 002e 5846     		mov	r0, fp
 594              	.LVL86:
 595 0030 FFF7FEFF 		bl	get_angle
 596              	.LVL87:
 597 0034 8246     		mov	r10, r0
 598              	.LVL88:
 794:Drivers/lvgl/lvgl/src/widgets/lv_arc.c ****     lv_coord_t knob_y = (r * lv_trigo_sin(angle)) >> LV_TRIGO_SHIFT;
 599              		.loc 1 794 0
 600 0036 5A30     		adds	r0, r0, #90
 601              	.LVL89:
 602 0038 00B2     		sxth	r0, r0
 603 003a FFF7FEFF 		bl	lv_trigo_sin
 604              	.LVL90:
 605 003e 00FB09F0 		mul	r0, r0, r9
 606 0042 C413     		asrs	r4, r0, #15
 607              	.LVL91:
 795:Drivers/lvgl/lvgl/src/widgets/lv_arc.c **** 
 608              		.loc 1 795 0
 609 0044 5046     		mov	r0, r10
 610 0046 FFF7FEFF 		bl	lv_trigo_sin
 611              	.LVL92:
 612 004a 00FB09F0 		mul	r0, r0, r9
 613 004e C613     		asrs	r6, r0, #15
 614              	.LVL93:
 615              	.LBB115:
 616              	.LBB116:
 117:Drivers/lvgl/lvgl/src/widgets/../core/lv_obj_style_gen.h ****     return (lv_coord_t)v.num;
ARM GAS  /tmp/ccD6LWGo.s 			page 35


 617              		.loc 2 117 0
 618 0050 1222     		movs	r2, #18
 619 0052 4FF44031 		mov	r1, #196608
 620 0056 D946     		mov	r9, fp
 621              	.LVL94:
 622 0058 5846     		mov	r0, fp
 623 005a FFF7FEFF 		bl	lv_obj_get_style_prop
 624              	.LVL95:
 625 005e 8346     		mov	fp, r0
 626              	.LVL96:
 627              	.LBE116:
 628              	.LBE115:
 629              	.LBB117:
 630              	.LBB118:
 123:Drivers/lvgl/lvgl/src/widgets/../core/lv_obj_style_gen.h ****     return (lv_coord_t)v.num;
 631              		.loc 2 123 0
 632 0060 1322     		movs	r2, #19
 633 0062 4FF44031 		mov	r1, #196608
 634 0066 4846     		mov	r0, r9
 635 0068 FFF7FEFF 		bl	lv_obj_get_style_prop
 636              	.LVL97:
 637 006c 8246     		mov	r10, r0
 638              	.LVL98:
 639              	.LBE118:
 640              	.LBE117:
 641              	.LBB119:
 642              	.LBB120:
 105:Drivers/lvgl/lvgl/src/widgets/../core/lv_obj_style_gen.h ****     return (lv_coord_t)v.num;
 643              		.loc 2 105 0
 644 006e 1022     		movs	r2, #16
 645 0070 4FF44031 		mov	r1, #196608
 646 0074 CDF80490 		str	r9, [sp, #4]
 647              	.LVL99:
 648 0078 4846     		mov	r0, r9
 649 007a FFF7FEFF 		bl	lv_obj_get_style_prop
 650              	.LVL100:
 651 007e 8146     		mov	r9, r0
 652              	.LVL101:
 653              	.LBE120:
 654              	.LBE119:
 655              	.LBB121:
 656              	.LBB122:
 111:Drivers/lvgl/lvgl/src/widgets/../core/lv_obj_style_gen.h ****     return (lv_coord_t)v.num;
 657              		.loc 2 111 0
 658 0080 1122     		movs	r2, #17
 659 0082 4FF44031 		mov	r1, #196608
 660 0086 0198     		ldr	r0, [sp, #4]
 661 0088 FFF7FEFF 		bl	lv_obj_get_style_prop
 662              	.LVL102:
 663              	.LBE122:
 664              	.LBE121:
 802:Drivers/lvgl/lvgl/src/widgets/lv_arc.c ****     knob_area->x2 = center->x + knob_x + right_knob + indic_width_half;
 665              		.loc 1 802 0
 666 008c B8F80030 		ldrh	r3, [r8]
 667 0090 A4B2     		uxth	r4, r4
 668 0092 2344     		add	r3, r3, r4
 669 0094 9BB2     		uxth	r3, r3
ARM GAS  /tmp/ccD6LWGo.s 			page 36


 670              	.LVL103:
 671 0096 A3EB0B0B 		sub	fp, r3, fp
 672              	.LVL104:
 673 009a 1FFA8BFB 		uxth	fp, fp
 674 009e ABEB050B 		sub	fp, fp, r5
 675 00a2 A7F800B0 		strh	fp, [r7]	@ movhi
 803:Drivers/lvgl/lvgl/src/widgets/lv_arc.c ****     knob_area->y1 = center->y + knob_y - top_knob - indic_width_half;
 676              		.loc 1 803 0
 677 00a6 B8F80030 		ldrh	r3, [r8]
 678 00aa 1C44     		add	r4, r4, r3
 679              	.LVL105:
 680 00ac 1AFA84FA 		uxtah	r10, r10, r4
 681              	.LVL106:
 682 00b0 15FA8AFA 		uxtah	r10, r5, r10
 683 00b4 A7F804A0 		strh	r10, [r7, #4]	@ movhi
 804:Drivers/lvgl/lvgl/src/widgets/lv_arc.c ****     knob_area->y2 = center->y + knob_y + bottom_knob + indic_width_half;
 684              		.loc 1 804 0
 685 00b8 B8F80230 		ldrh	r3, [r8, #2]
 686 00bc B2B2     		uxth	r2, r6
 687 00be 1344     		add	r3, r3, r2
 688 00c0 9BB2     		uxth	r3, r3
 689              	.LVL107:
 690 00c2 A3EB0909 		sub	r9, r3, r9
 691              	.LVL108:
 692 00c6 1FFA89F9 		uxth	r9, r9
 693 00ca A9EB0509 		sub	r9, r9, r5
 694 00ce A7F80290 		strh	r9, [r7, #2]	@ movhi
 805:Drivers/lvgl/lvgl/src/widgets/lv_arc.c **** }
 695              		.loc 1 805 0
 696 00d2 B8F80230 		ldrh	r3, [r8, #2]
 697 00d6 1A44     		add	r2, r2, r3
 698 00d8 10FA82F2 		uxtah	r2, r0, r2
 699 00dc 15FA82F5 		uxtah	r5, r5, r2
 700 00e0 FD80     		strh	r5, [r7, #6]	@ movhi
 806:Drivers/lvgl/lvgl/src/widgets/lv_arc.c **** 
 701              		.loc 1 806 0
 702 00e2 03B0     		add	sp, sp, #12
 703              	.LCFI12:
 704              		.cfi_remember_state
 705              		.cfi_def_cfa_offset 36
 706              		@ sp needed
 707 00e4 BDE8F08F 		pop	{r4, r5, r6, r7, r8, r9, r10, fp, pc}
 708              	.LVL109:
 709              	.L37:
 710              	.LCFI13:
 711              		.cfi_restore_state
 790:Drivers/lvgl/lvgl/src/widgets/lv_arc.c ****     r -= indic_width_half;
 712              		.loc 1 790 0
 713 00e8 0130     		adds	r0, r0, #1
 714 00ea 98E7     		b	.L35
 715              		.cfi_endproc
 716              	.LFE188:
 718              		.section	.text.lv_arc_draw,"ax",%progbits
 719              		.align	1
 720              		.syntax unified
 721              		.thumb
 722              		.thumb_func
ARM GAS  /tmp/ccD6LWGo.s 			page 37


 723              		.fpu fpv5-d16
 725              	lv_arc_draw:
 726              	.LFB183:
 616:Drivers/lvgl/lvgl/src/widgets/lv_arc.c ****     lv_obj_t * obj = lv_event_get_target(e);
 727              		.loc 1 616 0
 728              		.cfi_startproc
 729              		@ args = 0, pretend = 0, frame = 160
 730              		@ frame_needed = 0, uses_anonymous_args = 0
 731              	.LVL110:
 732 0000 2DE9F041 		push	{r4, r5, r6, r7, r8, lr}
 733              	.LCFI14:
 734              		.cfi_def_cfa_offset 24
 735              		.cfi_offset 4, -24
 736              		.cfi_offset 5, -20
 737              		.cfi_offset 6, -16
 738              		.cfi_offset 7, -12
 739              		.cfi_offset 8, -8
 740              		.cfi_offset 14, -4
 741 0004 AAB0     		sub	sp, sp, #168
 742              	.LCFI15:
 743              		.cfi_def_cfa_offset 192
 744 0006 0546     		mov	r5, r0
 617:Drivers/lvgl/lvgl/src/widgets/lv_arc.c ****     lv_arc_t * arc = (lv_arc_t *)obj;
 745              		.loc 1 617 0
 746 0008 FFF7FEFF 		bl	lv_event_get_target
 747              	.LVL111:
 748 000c 0446     		mov	r4, r0
 749              	.LVL112:
 620:Drivers/lvgl/lvgl/src/widgets/lv_arc.c **** 
 750              		.loc 1 620 0
 751 000e 2846     		mov	r0, r5
 752              	.LVL113:
 753 0010 FFF7FEFF 		bl	lv_event_get_draw_ctx
 754              	.LVL114:
 755 0014 0646     		mov	r6, r0
 756              	.LVL115:
 624:Drivers/lvgl/lvgl/src/widgets/lv_arc.c **** 
 757              		.loc 1 624 0
 758 0016 0DF1A202 		add	r2, sp, #162
 759 001a 29A9     		add	r1, sp, #164
 760 001c 2046     		mov	r0, r4
 761              	.LVL116:
 762 001e FFF7FEFF 		bl	get_center
 763              	.LVL117:
 627:Drivers/lvgl/lvgl/src/widgets/lv_arc.c **** 
 764              		.loc 1 627 0
 765 0022 3146     		mov	r1, r6
 766 0024 16A8     		add	r0, sp, #88
 767 0026 FFF7FEFF 		bl	lv_obj_draw_dsc_init
 768              	.LVL118:
 631:Drivers/lvgl/lvgl/src/widgets/lv_arc.c ****         lv_draw_arc_dsc_init(&arc_dsc);
 769              		.loc 1 631 0
 770 002a BDF9A230 		ldrsh	r3, [sp, #162]
 771 002e 002B     		cmp	r3, #0
 772 0030 00F39180 		bgt	.L43
 773              	.LVL119:
 774              	.L39:
ARM GAS  /tmp/ccD6LWGo.s 			page 38


 775              	.LBB123:
 776              	.LBB124:
 117:Drivers/lvgl/lvgl/src/widgets/../core/lv_obj_style_gen.h ****     return (lv_coord_t)v.num;
 777              		.loc 2 117 0
 778 0034 1222     		movs	r2, #18
 779 0036 4FF40031 		mov	r1, #131072
 780 003a 2046     		mov	r0, r4
 781 003c FFF7FEFF 		bl	lv_obj_get_style_prop
 782              	.LVL120:
 118:Drivers/lvgl/lvgl/src/widgets/../core/lv_obj_style_gen.h **** }
 783              		.loc 2 118 0
 784 0040 07B2     		sxth	r7, r0
 785              	.LVL121:
 786              	.LBE124:
 787              	.LBE123:
 788              	.LBB125:
 789              	.LBB126:
 123:Drivers/lvgl/lvgl/src/widgets/../core/lv_obj_style_gen.h ****     return (lv_coord_t)v.num;
 790              		.loc 2 123 0
 791 0042 1322     		movs	r2, #19
 792 0044 4FF40031 		mov	r1, #131072
 793 0048 2046     		mov	r0, r4
 794 004a FFF7FEFF 		bl	lv_obj_get_style_prop
 795              	.LVL122:
 124:Drivers/lvgl/lvgl/src/widgets/../core/lv_obj_style_gen.h **** }
 796              		.loc 2 124 0
 797 004e 05B2     		sxth	r5, r0
 798              	.LVL123:
 799              	.LBE126:
 800              	.LBE125:
 801              	.LBB127:
 802              	.LBB128:
 105:Drivers/lvgl/lvgl/src/widgets/../core/lv_obj_style_gen.h ****     return (lv_coord_t)v.num;
 803              		.loc 2 105 0
 804 0050 1022     		movs	r2, #16
 805 0052 4FF40031 		mov	r1, #131072
 806 0056 2046     		mov	r0, r4
 807 0058 FFF7FEFF 		bl	lv_obj_get_style_prop
 808              	.LVL124:
 106:Drivers/lvgl/lvgl/src/widgets/../core/lv_obj_style_gen.h **** }
 809              		.loc 2 106 0
 810 005c 0FFA80F8 		sxth	r8, r0
 811              	.LVL125:
 812              	.LBE128:
 813              	.LBE127:
 814              	.LBB129:
 815              	.LBB130:
 111:Drivers/lvgl/lvgl/src/widgets/../core/lv_obj_style_gen.h ****     return (lv_coord_t)v.num;
 816              		.loc 2 111 0
 817 0060 1122     		movs	r2, #17
 818 0062 4FF40031 		mov	r1, #131072
 819 0066 2046     		mov	r0, r4
 820 0068 FFF7FEFF 		bl	lv_obj_get_style_prop
 821              	.LVL126:
 112:Drivers/lvgl/lvgl/src/widgets/../core/lv_obj_style_gen.h **** }
 822              		.loc 2 112 0
 823 006c 00B2     		sxth	r0, r0
ARM GAS  /tmp/ccD6LWGo.s 			page 39


 824              	.LVL127:
 825              	.LBE130:
 826              	.LBE129:
 654:Drivers/lvgl/lvgl/src/widgets/lv_arc.c **** 
 827              		.loc 1 654 0
 828 006e 4045     		cmp	r0, r8
 829 0070 B8BF     		it	lt
 830 0072 4046     		movlt	r0, r8
 831 0074 BD42     		cmp	r5, r7
 832 0076 B8BF     		it	lt
 833 0078 3D46     		movlt	r5, r7
 834 007a A842     		cmp	r0, r5
 835 007c B8BF     		it	lt
 836 007e 2846     		movlt	r0, r5
 837 0080 80B2     		uxth	r0, r0
 838 0082 BDF8A250 		ldrh	r5, [sp, #162]
 839 0086 281A     		subs	r0, r5, r0
 840 0088 05B2     		sxth	r5, r0
 841              	.LVL128:
 656:Drivers/lvgl/lvgl/src/widgets/lv_arc.c ****         lv_draw_arc_dsc_init(&arc_dsc);
 842              		.loc 1 656 0
 843 008a 002D     		cmp	r5, #0
 844 008c 36DD     		ble	.L40
 657:Drivers/lvgl/lvgl/src/widgets/lv_arc.c ****         lv_obj_init_draw_arc_dsc(obj, LV_PART_INDICATOR, &arc_dsc);
 845              		.loc 1 657 0
 846 008e 12AF     		add	r7, sp, #72
 847 0090 3846     		mov	r0, r7
 848 0092 FFF7FEFF 		bl	lv_draw_arc_dsc_init
 849              	.LVL129:
 658:Drivers/lvgl/lvgl/src/widgets/lv_arc.c **** 
 850              		.loc 1 658 0
 851 0096 3A46     		mov	r2, r7
 852 0098 4FF40031 		mov	r1, #131072
 853 009c 2046     		mov	r0, r4
 854 009e FFF7FEFF 		bl	lv_obj_init_draw_arc_dsc
 855              	.LVL130:
 660:Drivers/lvgl/lvgl/src/widgets/lv_arc.c ****         part_draw_dsc.class_p = MY_CLASS;
 856              		.loc 1 660 0
 857 00a2 4FF40033 		mov	r3, #131072
 858 00a6 2393     		str	r3, [sp, #140]
 661:Drivers/lvgl/lvgl/src/widgets/lv_arc.c ****         part_draw_dsc.type = LV_ARC_DRAW_PART_FOREGROUND;
 859              		.loc 1 661 0
 860 00a8 434B     		ldr	r3, .L44
 861 00aa 1793     		str	r3, [sp, #92]
 662:Drivers/lvgl/lvgl/src/widgets/lv_arc.c ****         part_draw_dsc.p1 = &center;
 862              		.loc 1 662 0
 863 00ac 0123     		movs	r3, #1
 864 00ae 1893     		str	r3, [sp, #96]
 663:Drivers/lvgl/lvgl/src/widgets/lv_arc.c ****         part_draw_dsc.radius = indic_r;
 865              		.loc 1 663 0
 866 00b0 29AB     		add	r3, sp, #164
 867 00b2 1F93     		str	r3, [sp, #124]
 664:Drivers/lvgl/lvgl/src/widgets/lv_arc.c ****         part_draw_dsc.arc_dsc = &arc_dsc;
 868              		.loc 1 664 0
 869 00b4 ADF89450 		strh	r5, [sp, #148]	@ movhi
 665:Drivers/lvgl/lvgl/src/widgets/lv_arc.c ****         lv_event_send(obj, LV_EVENT_DRAW_PART_BEGIN, &part_draw_dsc);
 870              		.loc 1 665 0
ARM GAS  /tmp/ccD6LWGo.s 			page 40


 871 00b8 1E97     		str	r7, [sp, #120]
 666:Drivers/lvgl/lvgl/src/widgets/lv_arc.c **** 
 872              		.loc 1 666 0
 873 00ba 16AA     		add	r2, sp, #88
 874 00bc 1A21     		movs	r1, #26
 875 00be 2046     		mov	r0, r4
 876 00c0 FFF7FEFF 		bl	lv_event_send
 877              	.LVL131:
 668:Drivers/lvgl/lvgl/src/widgets/lv_arc.c ****         lv_draw_arc(draw_ctx, &arc_dsc, &center, part_draw_dsc.radius, arc->indic_angle_start + arc
 878              		.loc 1 668 0
 879 00c4 BDF94A20 		ldrsh	r2, [sp, #74]
 880 00c8 BDF99430 		ldrsh	r3, [sp, #148]
 881 00cc 9A42     		cmp	r2, r3
 882 00ce 01DD     		ble	.L41
 668:Drivers/lvgl/lvgl/src/widgets/lv_arc.c ****         lv_draw_arc(draw_ctx, &arc_dsc, &center, part_draw_dsc.radius, arc->indic_angle_start + arc
 883              		.loc 1 668 0 is_stmt 0 discriminator 1
 884 00d0 ADF84A30 		strh	r3, [sp, #74]	@ movhi
 885              	.L41:
 669:Drivers/lvgl/lvgl/src/widgets/lv_arc.c ****                     arc->indic_angle_end + arc->rotation);
 886              		.loc 1 669 0 is_stmt 1
 887 00d4 E28C     		ldrh	r2, [r4, #38]
 888 00d6 A08C     		ldrh	r0, [r4, #36]
 670:Drivers/lvgl/lvgl/src/widgets/lv_arc.c **** 
 889              		.loc 1 670 0
 890 00d8 218D     		ldrh	r1, [r4, #40]
 669:Drivers/lvgl/lvgl/src/widgets/lv_arc.c ****                     arc->indic_angle_end + arc->rotation);
 891              		.loc 1 669 0
 892 00da 0144     		add	r1, r1, r0
 893 00dc 89B2     		uxth	r1, r1
 894 00de 0191     		str	r1, [sp, #4]
 895 00e0 0244     		add	r2, r2, r0
 896 00e2 92B2     		uxth	r2, r2
 897 00e4 0092     		str	r2, [sp]
 898 00e6 9BB2     		uxth	r3, r3
 899 00e8 29AA     		add	r2, sp, #164
 900 00ea 12A9     		add	r1, sp, #72
 901 00ec 3046     		mov	r0, r6
 902 00ee FFF7FEFF 		bl	lv_draw_arc
 903              	.LVL132:
 672:Drivers/lvgl/lvgl/src/widgets/lv_arc.c ****     }
 904              		.loc 1 672 0
 905 00f2 16AA     		add	r2, sp, #88
 906 00f4 1B21     		movs	r1, #27
 907 00f6 2046     		mov	r0, r4
 908 00f8 FFF7FEFF 		bl	lv_event_send
 909              	.LVL133:
 910              	.L40:
 676:Drivers/lvgl/lvgl/src/widgets/lv_arc.c **** 
 911              		.loc 1 676 0
 912 00fc 10AF     		add	r7, sp, #64
 913 00fe 3B46     		mov	r3, r7
 914 0100 BDF9A220 		ldrsh	r2, [sp, #162]
 915 0104 29A9     		add	r1, sp, #164
 916 0106 2046     		mov	r0, r4
 917 0108 FFF7FEFF 		bl	get_knob_area
 918              	.LVL134:
 679:Drivers/lvgl/lvgl/src/widgets/lv_arc.c ****     lv_obj_init_draw_rect_dsc(obj, LV_PART_KNOB, &knob_rect_dsc);
ARM GAS  /tmp/ccD6LWGo.s 			page 41


 919              		.loc 1 679 0
 920 010c 02AD     		add	r5, sp, #8
 921              	.LVL135:
 922 010e 2846     		mov	r0, r5
 923 0110 FFF7FEFF 		bl	lv_draw_rect_dsc_init
 924              	.LVL136:
 680:Drivers/lvgl/lvgl/src/widgets/lv_arc.c **** 
 925              		.loc 1 680 0
 926 0114 2A46     		mov	r2, r5
 927 0116 4FF44031 		mov	r1, #196608
 928 011a 2046     		mov	r0, r4
 929 011c FFF7FEFF 		bl	lv_obj_init_draw_rect_dsc
 930              	.LVL137:
 682:Drivers/lvgl/lvgl/src/widgets/lv_arc.c ****     part_draw_dsc.class_p = MY_CLASS;
 931              		.loc 1 682 0
 932 0120 4FF44033 		mov	r3, #196608
 933 0124 2393     		str	r3, [sp, #140]
 683:Drivers/lvgl/lvgl/src/widgets/lv_arc.c ****     part_draw_dsc.type = LV_ARC_DRAW_PART_KNOB;
 934              		.loc 1 683 0
 935 0126 244B     		ldr	r3, .L44
 936 0128 1793     		str	r3, [sp, #92]
 684:Drivers/lvgl/lvgl/src/widgets/lv_arc.c ****     part_draw_dsc.draw_area = &knob_area;
 937              		.loc 1 684 0
 938 012a 0223     		movs	r3, #2
 939 012c 1893     		str	r3, [sp, #96]
 685:Drivers/lvgl/lvgl/src/widgets/lv_arc.c ****     part_draw_dsc.rect_dsc = &knob_rect_dsc;
 940              		.loc 1 685 0
 941 012e 1997     		str	r7, [sp, #100]
 686:Drivers/lvgl/lvgl/src/widgets/lv_arc.c ****     lv_event_send(obj, LV_EVENT_DRAW_PART_BEGIN, &part_draw_dsc);
 942              		.loc 1 686 0
 943 0130 1A95     		str	r5, [sp, #104]
 687:Drivers/lvgl/lvgl/src/widgets/lv_arc.c **** 
 944              		.loc 1 687 0
 945 0132 16AA     		add	r2, sp, #88
 946 0134 1A21     		movs	r1, #26
 947 0136 2046     		mov	r0, r4
 948 0138 FFF7FEFF 		bl	lv_event_send
 949              	.LVL138:
 689:Drivers/lvgl/lvgl/src/widgets/lv_arc.c **** 
 950              		.loc 1 689 0
 951 013c 3A46     		mov	r2, r7
 952 013e 2946     		mov	r1, r5
 953 0140 3046     		mov	r0, r6
 954 0142 FFF7FEFF 		bl	lv_draw_rect
 955              	.LVL139:
 691:Drivers/lvgl/lvgl/src/widgets/lv_arc.c **** }
 956              		.loc 1 691 0
 957 0146 16AA     		add	r2, sp, #88
 958 0148 1B21     		movs	r1, #27
 959 014a 2046     		mov	r0, r4
 960 014c FFF7FEFF 		bl	lv_event_send
 961              	.LVL140:
 692:Drivers/lvgl/lvgl/src/widgets/lv_arc.c **** 
 962              		.loc 1 692 0
 963 0150 2AB0     		add	sp, sp, #168
 964              	.LCFI16:
 965              		.cfi_remember_state
ARM GAS  /tmp/ccD6LWGo.s 			page 42


 966              		.cfi_def_cfa_offset 24
 967              		@ sp needed
 968 0152 BDE8F081 		pop	{r4, r5, r6, r7, r8, pc}
 969              	.LVL141:
 970              	.L43:
 971              	.LCFI17:
 972              		.cfi_restore_state
 632:Drivers/lvgl/lvgl/src/widgets/lv_arc.c ****         lv_obj_init_draw_arc_dsc(obj, LV_PART_MAIN, &arc_dsc);
 973              		.loc 1 632 0
 974 0156 12AD     		add	r5, sp, #72
 975              	.LVL142:
 976 0158 2846     		mov	r0, r5
 977 015a FFF7FEFF 		bl	lv_draw_arc_dsc_init
 978              	.LVL143:
 633:Drivers/lvgl/lvgl/src/widgets/lv_arc.c **** 
 979              		.loc 1 633 0
 980 015e 2A46     		mov	r2, r5
 981 0160 0021     		movs	r1, #0
 982 0162 2046     		mov	r0, r4
 983 0164 FFF7FEFF 		bl	lv_obj_init_draw_arc_dsc
 984              	.LVL144:
 635:Drivers/lvgl/lvgl/src/widgets/lv_arc.c ****         part_draw_dsc.class_p = MY_CLASS;
 985              		.loc 1 635 0
 986 0168 0023     		movs	r3, #0
 987 016a 2393     		str	r3, [sp, #140]
 636:Drivers/lvgl/lvgl/src/widgets/lv_arc.c ****         part_draw_dsc.type = LV_ARC_DRAW_PART_BACKGROUND;
 988              		.loc 1 636 0
 989 016c 124A     		ldr	r2, .L44
 990 016e 1792     		str	r2, [sp, #92]
 637:Drivers/lvgl/lvgl/src/widgets/lv_arc.c ****         part_draw_dsc.p1 = &center;
 991              		.loc 1 637 0
 992 0170 1893     		str	r3, [sp, #96]
 638:Drivers/lvgl/lvgl/src/widgets/lv_arc.c ****         part_draw_dsc.radius = arc_r;
 993              		.loc 1 638 0
 994 0172 29AF     		add	r7, sp, #164
 995 0174 1F97     		str	r7, [sp, #124]
 639:Drivers/lvgl/lvgl/src/widgets/lv_arc.c ****         part_draw_dsc.arc_dsc = &arc_dsc;
 996              		.loc 1 639 0
 997 0176 BDF8A230 		ldrh	r3, [sp, #162]
 998 017a ADF89430 		strh	r3, [sp, #148]	@ movhi
 640:Drivers/lvgl/lvgl/src/widgets/lv_arc.c ****         lv_event_send(obj, LV_EVENT_DRAW_PART_BEGIN, &part_draw_dsc);
 999              		.loc 1 640 0
 1000 017e 1E95     		str	r5, [sp, #120]
 641:Drivers/lvgl/lvgl/src/widgets/lv_arc.c **** 
 1001              		.loc 1 641 0
 1002 0180 16AA     		add	r2, sp, #88
 1003 0182 1A21     		movs	r1, #26
 1004 0184 2046     		mov	r0, r4
 1005 0186 FFF7FEFF 		bl	lv_event_send
 1006              	.LVL145:
 643:Drivers/lvgl/lvgl/src/widgets/lv_arc.c ****                     arc->bg_angle_end + arc->rotation);
 1007              		.loc 1 643 0
 1008 018a BDF99430 		ldrsh	r3, [sp, #148]
 1009 018e 628D     		ldrh	r2, [r4, #42]
 1010 0190 A08C     		ldrh	r0, [r4, #36]
 644:Drivers/lvgl/lvgl/src/widgets/lv_arc.c **** 
 1011              		.loc 1 644 0
ARM GAS  /tmp/ccD6LWGo.s 			page 43


 1012 0192 A18D     		ldrh	r1, [r4, #44]
 643:Drivers/lvgl/lvgl/src/widgets/lv_arc.c ****                     arc->bg_angle_end + arc->rotation);
 1013              		.loc 1 643 0
 1014 0194 0144     		add	r1, r1, r0
 1015 0196 89B2     		uxth	r1, r1
 1016 0198 0191     		str	r1, [sp, #4]
 1017 019a 0244     		add	r2, r2, r0
 1018 019c 92B2     		uxth	r2, r2
 1019 019e 0092     		str	r2, [sp]
 1020 01a0 9BB2     		uxth	r3, r3
 1021 01a2 3A46     		mov	r2, r7
 1022 01a4 2946     		mov	r1, r5
 1023 01a6 3046     		mov	r0, r6
 1024 01a8 FFF7FEFF 		bl	lv_draw_arc
 1025              	.LVL146:
 646:Drivers/lvgl/lvgl/src/widgets/lv_arc.c ****     }
 1026              		.loc 1 646 0
 1027 01ac 16AA     		add	r2, sp, #88
 1028 01ae 1B21     		movs	r1, #27
 1029 01b0 2046     		mov	r0, r4
 1030 01b2 FFF7FEFF 		bl	lv_event_send
 1031              	.LVL147:
 1032 01b6 3DE7     		b	.L39
 1033              	.L45:
 1034              		.align	2
 1035              	.L44:
 1036 01b8 00000000 		.word	.LANCHOR0
 1037              		.cfi_endproc
 1038              	.LFE183:
 1040              		.section	.text.lv_arc_constructor,"ax",%progbits
 1041              		.align	1
 1042              		.syntax unified
 1043              		.thumb
 1044              		.thumb_func
 1045              		.fpu fpv5-d16
 1047              	lv_arc_constructor:
 1048              	.LFB181:
 381:Drivers/lvgl/lvgl/src/widgets/lv_arc.c ****     LV_UNUSED(class_p);
 1049              		.loc 1 381 0
 1050              		.cfi_startproc
 1051              		@ args = 0, pretend = 0, frame = 0
 1052              		@ frame_needed = 0, uses_anonymous_args = 0
 1053              	.LVL148:
 1054 0000 10B5     		push	{r4, lr}
 1055              	.LCFI18:
 1056              		.cfi_def_cfa_offset 8
 1057              		.cfi_offset 4, -8
 1058              		.cfi_offset 14, -4
 1059 0002 0C46     		mov	r4, r1
 1060              	.LVL149:
 388:Drivers/lvgl/lvgl/src/widgets/lv_arc.c ****     arc->bg_angle_start = 135;
 1061              		.loc 1 388 0
 1062 0004 0022     		movs	r2, #0
 1063 0006 8A84     		strh	r2, [r1, #36]	@ movhi
 389:Drivers/lvgl/lvgl/src/widgets/lv_arc.c ****     arc->bg_angle_end   = 45;
 1064              		.loc 1 389 0
 1065 0008 8723     		movs	r3, #135
ARM GAS  /tmp/ccD6LWGo.s 			page 44


 1066 000a 4B85     		strh	r3, [r1, #42]	@ movhi
 390:Drivers/lvgl/lvgl/src/widgets/lv_arc.c ****     arc->indic_angle_start = 135;
 1067              		.loc 1 390 0
 1068 000c 2D21     		movs	r1, #45
 1069              	.LVL150:
 1070 000e A185     		strh	r1, [r4, #44]	@ movhi
 391:Drivers/lvgl/lvgl/src/widgets/lv_arc.c ****     arc->indic_angle_end   = 270;
 1071              		.loc 1 391 0
 1072 0010 E384     		strh	r3, [r4, #38]	@ movhi
 392:Drivers/lvgl/lvgl/src/widgets/lv_arc.c ****     arc->type = LV_ARC_MODE_NORMAL;
 1073              		.loc 1 392 0
 1074 0012 4FF48773 		mov	r3, #270
 1075 0016 2385     		strh	r3, [r4, #40]	@ movhi
 393:Drivers/lvgl/lvgl/src/widgets/lv_arc.c ****     arc->value = VALUE_UNSET;
 1076              		.loc 1 393 0
 1077 0018 94F83430 		ldrb	r3, [r4, #52]	@ zero_extendqisi2
 394:Drivers/lvgl/lvgl/src/widgets/lv_arc.c ****     arc->min_close = 1;
 1078              		.loc 1 394 0
 1079 001c 4FF40041 		mov	r1, #32768
 1080 0020 E185     		strh	r1, [r4, #46]	@ movhi
 395:Drivers/lvgl/lvgl/src/widgets/lv_arc.c ****     arc->min_value = 0;
 1081              		.loc 1 395 0
 1082 0022 03F0F903 		and	r3, r3, #249
 396:Drivers/lvgl/lvgl/src/widgets/lv_arc.c ****     arc->max_value = 100;
 1083              		.loc 1 396 0
 1084 0026 2286     		strh	r2, [r4, #48]	@ movhi
 397:Drivers/lvgl/lvgl/src/widgets/lv_arc.c ****     arc->dragging = false;
 1085              		.loc 1 397 0
 1086 0028 6421     		movs	r1, #100
 1087 002a 6186     		strh	r1, [r4, #50]	@ movhi
 398:Drivers/lvgl/lvgl/src/widgets/lv_arc.c ****     arc->chg_rate = 720;
 1088              		.loc 1 398 0
 1089 002c 43F00803 		orr	r3, r3, #8
 1090 0030 62F30003 		bfi	r3, r2, #0, #1
 1091 0034 84F83430 		strb	r3, [r4, #52]
 399:Drivers/lvgl/lvgl/src/widgets/lv_arc.c ****     arc->last_tick = lv_tick_get();
 1092              		.loc 1 399 0
 1093 0038 4FF43473 		mov	r3, #720
 1094 003c E386     		strh	r3, [r4, #54]	@ movhi
 400:Drivers/lvgl/lvgl/src/widgets/lv_arc.c ****     arc->last_angle = arc->indic_angle_end;
 1095              		.loc 1 400 0
 1096 003e FFF7FEFF 		bl	lv_tick_get
 1097              	.LVL151:
 1098 0042 A063     		str	r0, [r4, #56]
 401:Drivers/lvgl/lvgl/src/widgets/lv_arc.c **** 
 1099              		.loc 1 401 0
 1100 0044 B4F92830 		ldrsh	r3, [r4, #40]
 1101 0048 A387     		strh	r3, [r4, #60]	@ movhi
 403:Drivers/lvgl/lvgl/src/widgets/lv_arc.c ****     lv_obj_clear_flag(obj, LV_OBJ_FLAG_SCROLL_CHAIN | LV_OBJ_FLAG_SCROLLABLE);
 1102              		.loc 1 403 0
 1103 004a 0221     		movs	r1, #2
 1104 004c 2046     		mov	r0, r4
 1105 004e FFF7FEFF 		bl	lv_obj_add_flag
 1106              	.LVL152:
 404:Drivers/lvgl/lvgl/src/widgets/lv_arc.c ****     lv_obj_set_ext_click_area(obj, LV_DPI_DEF / 10);
 1107              		.loc 1 404 0
 1108 0052 4FF44471 		mov	r1, #784
ARM GAS  /tmp/ccD6LWGo.s 			page 45


 1109 0056 2046     		mov	r0, r4
 1110 0058 FFF7FEFF 		bl	lv_obj_clear_flag
 1111              	.LVL153:
 405:Drivers/lvgl/lvgl/src/widgets/lv_arc.c **** 
 1112              		.loc 1 405 0
 1113 005c 0D21     		movs	r1, #13
 1114 005e 2046     		mov	r0, r4
 1115 0060 FFF7FEFF 		bl	lv_obj_set_ext_click_area
 1116              	.LVL154:
 409:Drivers/lvgl/lvgl/src/widgets/lv_arc.c **** 
 1117              		.loc 1 409 0
 1118 0064 10BD     		pop	{r4, pc}
 1119              		.cfi_endproc
 1120              	.LFE181:
 1122              		.section	.text.inv_arc_area,"ax",%progbits
 1123              		.align	1
 1124              		.syntax unified
 1125              		.thumb
 1126              		.thumb_func
 1127              		.fpu fpv5-d16
 1129              	inv_arc_area:
 1130              	.LFB184:
 695:Drivers/lvgl/lvgl/src/widgets/lv_arc.c ****     LV_ASSERT_OBJ(obj, MY_CLASS);
 1131              		.loc 1 695 0
 1132              		.cfi_startproc
 1133              		@ args = 0, pretend = 0, frame = 16
 1134              		@ frame_needed = 0, uses_anonymous_args = 0
 1135              	.LVL155:
 1136 0000 2DE9F041 		push	{r4, r5, r6, r7, r8, lr}
 1137              	.LCFI19:
 1138              		.cfi_def_cfa_offset 24
 1139              		.cfi_offset 4, -24
 1140              		.cfi_offset 5, -20
 1141              		.cfi_offset 6, -16
 1142              		.cfi_offset 7, -12
 1143              		.cfi_offset 8, -8
 1144              		.cfi_offset 14, -4
 1145 0004 88B0     		sub	sp, sp, #32
 1146              	.LCFI20:
 1147              		.cfi_def_cfa_offset 56
 1148 0006 0646     		mov	r6, r0
 1149 0008 0C46     		mov	r4, r1
 1150 000a 1546     		mov	r5, r2
 1151 000c 1F46     		mov	r7, r3
 699:Drivers/lvgl/lvgl/src/widgets/lv_arc.c **** 
 1152              		.loc 1 699 0
 1153 000e FFF7FEFF 		bl	lv_obj_is_visible
 1154              	.LVL156:
 1155 0012 0028     		cmp	r0, #0
 1156 0014 46D0     		beq	.L48
 1157              	.LVL157:
 703:Drivers/lvgl/lvgl/src/widgets/lv_arc.c **** 
 1158              		.loc 1 703 0
 1159 0016 AC42     		cmp	r4, r5
 1160 0018 44D0     		beq	.L48
 705:Drivers/lvgl/lvgl/src/widgets/lv_arc.c ****     if(end_angle > 360) end_angle -= 360;
 1161              		.loc 1 705 0
ARM GAS  /tmp/ccD6LWGo.s 			page 46


 1162 001a B4F5B47F 		cmp	r4, #360
 1163 001e 02D9     		bls	.L50
 705:Drivers/lvgl/lvgl/src/widgets/lv_arc.c ****     if(end_angle > 360) end_angle -= 360;
 1164              		.loc 1 705 0 is_stmt 0 discriminator 1
 1165 0020 A4F5B474 		sub	r4, r4, #360
 1166 0024 A4B2     		uxth	r4, r4
 1167              	.LVL158:
 1168              	.L50:
 706:Drivers/lvgl/lvgl/src/widgets/lv_arc.c **** 
 1169              		.loc 1 706 0 is_stmt 1
 1170 0026 B5F5B47F 		cmp	r5, #360
 1171 002a 02D9     		bls	.L51
 706:Drivers/lvgl/lvgl/src/widgets/lv_arc.c **** 
 1172              		.loc 1 706 0 is_stmt 0 discriminator 1
 1173 002c A5F5B475 		sub	r5, r5, #360
 1174 0030 ADB2     		uxth	r5, r5
 1175              	.LVL159:
 1176              	.L51:
 708:Drivers/lvgl/lvgl/src/widgets/lv_arc.c ****     end_angle += arc->rotation;
 1177              		.loc 1 708 0 is_stmt 1
 1178 0032 B38C     		ldrh	r3, [r6, #36]
 1179 0034 1C44     		add	r4, r4, r3
 1180              	.LVL160:
 1181 0036 A4B2     		uxth	r4, r4
 1182              	.LVL161:
 709:Drivers/lvgl/lvgl/src/widgets/lv_arc.c **** 
 1183              		.loc 1 709 0
 1184 0038 1D44     		add	r5, r5, r3
 1185              	.LVL162:
 1186 003a ADB2     		uxth	r5, r5
 1187              	.LVL163:
 711:Drivers/lvgl/lvgl/src/widgets/lv_arc.c ****     if(end_angle > 360) end_angle -= 360;
 1188              		.loc 1 711 0
 1189 003c B4F5B47F 		cmp	r4, #360
 1190 0040 02D9     		bls	.L52
 711:Drivers/lvgl/lvgl/src/widgets/lv_arc.c ****     if(end_angle > 360) end_angle -= 360;
 1191              		.loc 1 711 0 is_stmt 0 discriminator 1
 1192 0042 A4F5B474 		sub	r4, r4, #360
 1193              	.LVL164:
 1194 0046 A4B2     		uxth	r4, r4
 1195              	.LVL165:
 1196              	.L52:
 712:Drivers/lvgl/lvgl/src/widgets/lv_arc.c **** 
 1197              		.loc 1 712 0 is_stmt 1
 1198 0048 B5F5B47F 		cmp	r5, #360
 1199 004c 02D9     		bls	.L53
 712:Drivers/lvgl/lvgl/src/widgets/lv_arc.c **** 
 1200              		.loc 1 712 0 is_stmt 0 discriminator 1
 1201 004e A5F5B475 		sub	r5, r5, #360
 1202              	.LVL166:
 1203 0052 ADB2     		uxth	r5, r5
 1204              	.LVL167:
 1205              	.L53:
 716:Drivers/lvgl/lvgl/src/widgets/lv_arc.c **** 
 1206              		.loc 1 716 0 is_stmt 1
 1207 0054 0DF11E02 		add	r2, sp, #30
 1208 0058 06A9     		add	r1, sp, #24
ARM GAS  /tmp/ccD6LWGo.s 			page 47


 1209 005a 3046     		mov	r0, r6
 1210 005c FFF7FEFF 		bl	get_center
 1211              	.LVL168:
 1212              	.LBB131:
 1213              	.LBB132:
 411:Drivers/lvgl/lvgl/src/widgets/../core/lv_obj_style_gen.h ****     return (lv_coord_t)v.num;
 1214              		.loc 2 411 0
 1215 0060 5022     		movs	r2, #80
 1216 0062 3946     		mov	r1, r7
 1217 0064 3046     		mov	r0, r6
 1218 0066 FFF7FEFF 		bl	lv_obj_get_style_prop
 1219              	.LVL169:
 1220              		.loc 2 412 0
 1221 006a 0FFA80F8 		sxth	r8, r0
 1222              	.LVL170:
 1223              	.LBE132:
 1224              	.LBE131:
 1225              	.LBB133:
 1226              	.LBB134:
 413:Drivers/lvgl/lvgl/src/widgets/../core/lv_obj_style_gen.h **** }
 414:Drivers/lvgl/lvgl/src/widgets/../core/lv_obj_style_gen.h **** 
 415:Drivers/lvgl/lvgl/src/widgets/../core/lv_obj_style_gen.h **** static inline bool lv_obj_get_style_arc_rounded(const struct _lv_obj_t * obj, uint32_t part)
 416:Drivers/lvgl/lvgl/src/widgets/../core/lv_obj_style_gen.h **** {
 417:Drivers/lvgl/lvgl/src/widgets/../core/lv_obj_style_gen.h ****     lv_style_value_t v = lv_obj_get_style_prop(obj, part, LV_STYLE_ARC_ROUNDED);
 1227              		.loc 2 417 0
 1228 006e 5122     		movs	r2, #81
 1229 0070 3946     		mov	r1, r7
 1230 0072 3046     		mov	r0, r6
 1231 0074 FFF7FEFF 		bl	lv_obj_get_style_prop
 1232              	.LVL171:
 418:Drivers/lvgl/lvgl/src/widgets/../core/lv_obj_style_gen.h ****     return (bool)v.num;
 1233              		.loc 2 418 0
 1234 0078 031C     		adds	r3, r0, #0
 1235 007a 18BF     		it	ne
 1236 007c 0123     		movne	r3, #1
 1237              	.LVL172:
 1238              	.LBE134:
 1239              	.LBE133:
 722:Drivers/lvgl/lvgl/src/widgets/lv_arc.c **** 
 1240              		.loc 1 722 0
 1241 007e BDF81E20 		ldrh	r2, [sp, #30]
 1242 0082 BDF91A10 		ldrsh	r1, [sp, #26]
 1243 0086 BDF91800 		ldrsh	r0, [sp, #24]
 1244 008a 04AF     		add	r7, sp, #16
 1245              	.LVL173:
 1246 008c 0397     		str	r7, [sp, #12]
 1247 008e 0293     		str	r3, [sp, #8]
 1248 0090 CDF80480 		str	r8, [sp, #4]
 1249 0094 0095     		str	r5, [sp]
 1250 0096 2346     		mov	r3, r4
 1251              	.LVL174:
 1252 0098 FFF7FEFF 		bl	lv_draw_arc_get_area
 1253              	.LVL175:
 724:Drivers/lvgl/lvgl/src/widgets/lv_arc.c **** }
 1254              		.loc 1 724 0
 1255 009c 3946     		mov	r1, r7
 1256 009e 3046     		mov	r0, r6
ARM GAS  /tmp/ccD6LWGo.s 			page 48


 1257 00a0 FFF7FEFF 		bl	lv_obj_invalidate_area
 1258              	.LVL176:
 1259              	.L48:
 725:Drivers/lvgl/lvgl/src/widgets/lv_arc.c **** 
 1260              		.loc 1 725 0
 1261 00a4 08B0     		add	sp, sp, #32
 1262              	.LCFI21:
 1263              		.cfi_def_cfa_offset 24
 1264              		@ sp needed
 1265 00a6 BDE8F081 		pop	{r4, r5, r6, r7, r8, pc}
 1266              		.cfi_endproc
 1267              	.LFE184:
 1269              		.section	.text.inv_knob_area,"ax",%progbits
 1270              		.align	1
 1271              		.syntax unified
 1272              		.thumb
 1273              		.thumb_func
 1274              		.fpu fpv5-d16
 1276              	inv_knob_area:
 1277              	.LFB185:
 728:Drivers/lvgl/lvgl/src/widgets/lv_arc.c ****     lv_point_t c;
 1278              		.loc 1 728 0
 1279              		.cfi_startproc
 1280              		@ args = 0, pretend = 0, frame = 16
 1281              		@ frame_needed = 0, uses_anonymous_args = 0
 1282              	.LVL177:
 1283 0000 10B5     		push	{r4, lr}
 1284              	.LCFI22:
 1285              		.cfi_def_cfa_offset 8
 1286              		.cfi_offset 4, -8
 1287              		.cfi_offset 14, -4
 1288 0002 84B0     		sub	sp, sp, #16
 1289              	.LCFI23:
 1290              		.cfi_def_cfa_offset 24
 1291 0004 0446     		mov	r4, r0
 731:Drivers/lvgl/lvgl/src/widgets/lv_arc.c **** 
 1292              		.loc 1 731 0
 1293 0006 0DF10A02 		add	r2, sp, #10
 1294 000a 03A9     		add	r1, sp, #12
 1295 000c FFF7FEFF 		bl	get_center
 1296              	.LVL178:
 734:Drivers/lvgl/lvgl/src/widgets/lv_arc.c **** 
 1297              		.loc 1 734 0
 1298 0010 6B46     		mov	r3, sp
 1299 0012 BDF90A20 		ldrsh	r2, [sp, #10]
 1300 0016 03A9     		add	r1, sp, #12
 1301 0018 2046     		mov	r0, r4
 1302 001a FFF7FEFF 		bl	get_knob_area
 1303              	.LVL179:
 736:Drivers/lvgl/lvgl/src/widgets/lv_arc.c **** 
 1304              		.loc 1 736 0
 1305 001e 2046     		mov	r0, r4
 1306 0020 FFF7FEFF 		bl	knob_get_extra_size
 1307              	.LVL180:
 738:Drivers/lvgl/lvgl/src/widgets/lv_arc.c ****         lv_area_increase(&a, knob_extra_size, knob_extra_size);
 1308              		.loc 1 738 0
 1309 0024 011E     		subs	r1, r0, #0
ARM GAS  /tmp/ccD6LWGo.s 			page 49


 1310 0026 03DD     		ble	.L57
 739:Drivers/lvgl/lvgl/src/widgets/lv_arc.c ****     }
 1311              		.loc 1 739 0
 1312 0028 0A46     		mov	r2, r1
 1313 002a 6846     		mov	r0, sp
 1314              	.LVL181:
 1315 002c FFF7FEFF 		bl	lv_area_increase
 1316              	.LVL182:
 1317              	.L57:
 742:Drivers/lvgl/lvgl/src/widgets/lv_arc.c **** }
 1318              		.loc 1 742 0
 1319 0030 6946     		mov	r1, sp
 1320 0032 2046     		mov	r0, r4
 1321 0034 FFF7FEFF 		bl	lv_obj_invalidate_area
 1322              	.LVL183:
 743:Drivers/lvgl/lvgl/src/widgets/lv_arc.c **** 
 1323              		.loc 1 743 0
 1324 0038 04B0     		add	sp, sp, #16
 1325              	.LCFI24:
 1326              		.cfi_def_cfa_offset 8
 1327              		@ sp needed
 1328 003a 10BD     		pop	{r4, pc}
 1329              		.cfi_endproc
 1330              	.LFE185:
 1332              		.section	.text.lv_arc_create,"ax",%progbits
 1333              		.align	1
 1334              		.global	lv_arc_create
 1335              		.syntax unified
 1336              		.thumb
 1337              		.thumb_func
 1338              		.fpu fpv5-d16
 1340              	lv_arc_create:
 1341              	.LFB159:
  64:Drivers/lvgl/lvgl/src/widgets/lv_arc.c ****     LV_LOG_INFO("begin");
 1342              		.loc 1 64 0
 1343              		.cfi_startproc
 1344              		@ args = 0, pretend = 0, frame = 0
 1345              		@ frame_needed = 0, uses_anonymous_args = 0
 1346              	.LVL184:
 1347 0000 10B5     		push	{r4, lr}
 1348              	.LCFI25:
 1349              		.cfi_def_cfa_offset 8
 1350              		.cfi_offset 4, -8
 1351              		.cfi_offset 14, -4
  66:Drivers/lvgl/lvgl/src/widgets/lv_arc.c ****     lv_obj_class_init_obj(obj);
 1352              		.loc 1 66 0
 1353 0002 0146     		mov	r1, r0
 1354 0004 0348     		ldr	r0, .L61
 1355              	.LVL185:
 1356 0006 FFF7FEFF 		bl	lv_obj_class_create_obj
 1357              	.LVL186:
 1358 000a 0446     		mov	r4, r0
 1359              	.LVL187:
  67:Drivers/lvgl/lvgl/src/widgets/lv_arc.c ****     return obj;
 1360              		.loc 1 67 0
 1361 000c FFF7FEFF 		bl	lv_obj_class_init_obj
 1362              	.LVL188:
ARM GAS  /tmp/ccD6LWGo.s 			page 50


  69:Drivers/lvgl/lvgl/src/widgets/lv_arc.c **** 
 1363              		.loc 1 69 0
 1364 0010 2046     		mov	r0, r4
 1365 0012 10BD     		pop	{r4, pc}
 1366              	.LVL189:
 1367              	.L62:
 1368              		.align	2
 1369              	.L61:
 1370 0014 00000000 		.word	.LANCHOR0
 1371              		.cfi_endproc
 1372              	.LFE159:
 1374              		.section	.text.lv_arc_set_start_angle,"ax",%progbits
 1375              		.align	1
 1376              		.global	lv_arc_set_start_angle
 1377              		.syntax unified
 1378              		.thumb
 1379              		.thumb_func
 1380              		.fpu fpv5-d16
 1382              	lv_arc_set_start_angle:
 1383              	.LFB160:
  84:Drivers/lvgl/lvgl/src/widgets/lv_arc.c ****     LV_ASSERT_OBJ(obj, MY_CLASS);
 1384              		.loc 1 84 0
 1385              		.cfi_startproc
 1386              		@ args = 0, pretend = 0, frame = 0
 1387              		@ frame_needed = 0, uses_anonymous_args = 0
 1388              	.LVL190:
 1389 0000 70B5     		push	{r4, r5, r6, lr}
 1390              	.LCFI26:
 1391              		.cfi_def_cfa_offset 16
 1392              		.cfi_offset 4, -16
 1393              		.cfi_offset 5, -12
 1394              		.cfi_offset 6, -8
 1395              		.cfi_offset 14, -4
 1396 0002 0446     		mov	r4, r0
 1397 0004 0D46     		mov	r5, r1
 1398              	.LVL191:
  88:Drivers/lvgl/lvgl/src/widgets/lv_arc.c **** 
 1399              		.loc 1 88 0
 1400 0006 B1F5B47F 		cmp	r1, #360
 1401 000a 02D9     		bls	.L64
  88:Drivers/lvgl/lvgl/src/widgets/lv_arc.c **** 
 1402              		.loc 1 88 0 is_stmt 0 discriminator 1
 1403 000c A1F5B475 		sub	r5, r1, #360
 1404 0010 ADB2     		uxth	r5, r5
 1405              	.LVL192:
 1406              	.L64:
  90:Drivers/lvgl/lvgl/src/widgets/lv_arc.c ****     int16_t new_delta = arc->indic_angle_end - start;
 1407              		.loc 1 90 0 is_stmt 1
 1408 0012 238D     		ldrh	r3, [r4, #40]
 1409 0014 E18C     		ldrh	r1, [r4, #38]
 1410 0016 5A1A     		subs	r2, r3, r1
 1411 0018 92B2     		uxth	r2, r2
 1412 001a 16B2     		sxth	r6, r2
 1413              	.LVL193:
  91:Drivers/lvgl/lvgl/src/widgets/lv_arc.c **** 
 1414              		.loc 1 91 0
 1415 001c 5B1B     		subs	r3, r3, r5
ARM GAS  /tmp/ccD6LWGo.s 			page 51


 1416 001e 9BB2     		uxth	r3, r3
 1417 0020 18B2     		sxth	r0, r3
 1418              	.LVL194:
  93:Drivers/lvgl/lvgl/src/widgets/lv_arc.c ****     if(new_delta < 0) new_delta = 360 + new_delta;
 1419              		.loc 1 93 0
 1420 0022 002E     		cmp	r6, #0
 1421 0024 13DB     		blt	.L71
 1422              	.L65:
  94:Drivers/lvgl/lvgl/src/widgets/lv_arc.c **** 
 1423              		.loc 1 94 0
 1424 0026 0028     		cmp	r0, #0
 1425 0028 15DB     		blt	.L72
 1426              	.L66:
  96:Drivers/lvgl/lvgl/src/widgets/lv_arc.c ****     else if(new_delta < old_delta) inv_arc_area(obj, arc->indic_angle_start, start, LV_PART_INDICAT
 1427              		.loc 1 96 0
 1428 002a 831B     		subs	r3, r0, r6
 1429 002c 002B     		cmp	r3, #0
 1430 002e B8BF     		it	lt
 1431 0030 5B42     		rsblt	r3, r3, #0
 1432 0032 B42B     		cmp	r3, #180
 1433 0034 13DC     		bgt	.L73
  97:Drivers/lvgl/lvgl/src/widgets/lv_arc.c ****     else if(old_delta < new_delta) inv_arc_area(obj, start, arc->indic_angle_start, LV_PART_INDICAT
 1434              		.loc 1 97 0
 1435 0036 8642     		cmp	r6, r0
 1436 0038 15DC     		bgt	.L74
  98:Drivers/lvgl/lvgl/src/widgets/lv_arc.c **** 
 1437              		.loc 1 98 0
 1438 003a 8642     		cmp	r6, r0
 1439 003c 1ADB     		blt	.L75
 1440              	.LVL195:
 1441              	.L68:
 100:Drivers/lvgl/lvgl/src/widgets/lv_arc.c **** 
 1442              		.loc 1 100 0
 1443 003e 2046     		mov	r0, r4
 1444 0040 FFF7FEFF 		bl	inv_knob_area
 1445              	.LVL196:
 102:Drivers/lvgl/lvgl/src/widgets/lv_arc.c **** 
 1446              		.loc 1 102 0
 1447 0044 E584     		strh	r5, [r4, #38]	@ movhi
 104:Drivers/lvgl/lvgl/src/widgets/lv_arc.c **** }
 1448              		.loc 1 104 0
 1449 0046 2046     		mov	r0, r4
 1450 0048 FFF7FEFF 		bl	inv_knob_area
 1451              	.LVL197:
 105:Drivers/lvgl/lvgl/src/widgets/lv_arc.c **** 
 1452              		.loc 1 105 0
 1453 004c 70BD     		pop	{r4, r5, r6, pc}
 1454              	.LVL198:
 1455              	.L71:
  93:Drivers/lvgl/lvgl/src/widgets/lv_arc.c ****     if(new_delta < 0) new_delta = 360 + new_delta;
 1456              		.loc 1 93 0 discriminator 1
 1457 004e 02F5B472 		add	r2, r2, #360
 1458 0052 16B2     		sxth	r6, r2
 1459              	.LVL199:
 1460 0054 E7E7     		b	.L65
 1461              	.L72:
  94:Drivers/lvgl/lvgl/src/widgets/lv_arc.c **** 
ARM GAS  /tmp/ccD6LWGo.s 			page 52


 1462              		.loc 1 94 0 discriminator 1
 1463 0056 03F5B473 		add	r3, r3, #360
 1464 005a 18B2     		sxth	r0, r3
 1465              	.LVL200:
 1466 005c E5E7     		b	.L66
 1467              	.L73:
  96:Drivers/lvgl/lvgl/src/widgets/lv_arc.c ****     else if(new_delta < old_delta) inv_arc_area(obj, arc->indic_angle_start, start, LV_PART_INDICAT
 1468              		.loc 1 96 0 discriminator 1
 1469 005e 2046     		mov	r0, r4
 1470              	.LVL201:
 1471 0060 FFF7FEFF 		bl	lv_obj_invalidate
 1472              	.LVL202:
 1473 0064 EBE7     		b	.L68
 1474              	.LVL203:
 1475              	.L74:
  97:Drivers/lvgl/lvgl/src/widgets/lv_arc.c ****     else if(old_delta < new_delta) inv_arc_area(obj, start, arc->indic_angle_start, LV_PART_INDICAT
 1476              		.loc 1 97 0 discriminator 1
 1477 0066 4FF40033 		mov	r3, #131072
 1478 006a 2A46     		mov	r2, r5
 1479 006c 2046     		mov	r0, r4
 1480              	.LVL204:
 1481 006e FFF7FEFF 		bl	inv_arc_area
 1482              	.LVL205:
 1483 0072 E4E7     		b	.L68
 1484              	.LVL206:
 1485              	.L75:
  98:Drivers/lvgl/lvgl/src/widgets/lv_arc.c **** 
 1486              		.loc 1 98 0 discriminator 1
 1487 0074 4FF40033 		mov	r3, #131072
 1488 0078 0A46     		mov	r2, r1
 1489 007a 2946     		mov	r1, r5
 1490 007c 2046     		mov	r0, r4
 1491              	.LVL207:
 1492 007e FFF7FEFF 		bl	inv_arc_area
 1493              	.LVL208:
 1494 0082 DCE7     		b	.L68
 1495              		.cfi_endproc
 1496              	.LFE160:
 1498              		.section	.text.lv_arc_set_end_angle,"ax",%progbits
 1499              		.align	1
 1500              		.global	lv_arc_set_end_angle
 1501              		.syntax unified
 1502              		.thumb
 1503              		.thumb_func
 1504              		.fpu fpv5-d16
 1506              	lv_arc_set_end_angle:
 1507              	.LFB161:
 108:Drivers/lvgl/lvgl/src/widgets/lv_arc.c ****     LV_ASSERT_OBJ(obj, MY_CLASS);
 1508              		.loc 1 108 0
 1509              		.cfi_startproc
 1510              		@ args = 0, pretend = 0, frame = 0
 1511              		@ frame_needed = 0, uses_anonymous_args = 0
 1512              	.LVL209:
 1513 0000 70B5     		push	{r4, r5, r6, lr}
 1514              	.LCFI27:
 1515              		.cfi_def_cfa_offset 16
 1516              		.cfi_offset 4, -16
ARM GAS  /tmp/ccD6LWGo.s 			page 53


 1517              		.cfi_offset 5, -12
 1518              		.cfi_offset 6, -8
 1519              		.cfi_offset 14, -4
 1520 0002 0446     		mov	r4, r0
 1521 0004 0D46     		mov	r5, r1
 1522              	.LVL210:
 111:Drivers/lvgl/lvgl/src/widgets/lv_arc.c **** 
 1523              		.loc 1 111 0
 1524 0006 B1F5B47F 		cmp	r1, #360
 1525 000a 02D9     		bls	.L77
 111:Drivers/lvgl/lvgl/src/widgets/lv_arc.c **** 
 1526              		.loc 1 111 0 is_stmt 0 discriminator 1
 1527 000c A1F5B475 		sub	r5, r1, #360
 1528 0010 ADB2     		uxth	r5, r5
 1529              	.LVL211:
 1530              	.L77:
 113:Drivers/lvgl/lvgl/src/widgets/lv_arc.c ****     int16_t new_delta = end - arc->indic_angle_start;
 1531              		.loc 1 113 0 is_stmt 1
 1532 0012 218D     		ldrh	r1, [r4, #40]
 1533 0014 E38C     		ldrh	r3, [r4, #38]
 1534 0016 CA1A     		subs	r2, r1, r3
 1535 0018 92B2     		uxth	r2, r2
 1536 001a 16B2     		sxth	r6, r2
 1537              	.LVL212:
 114:Drivers/lvgl/lvgl/src/widgets/lv_arc.c **** 
 1538              		.loc 1 114 0
 1539 001c EB1A     		subs	r3, r5, r3
 1540 001e 9BB2     		uxth	r3, r3
 1541 0020 18B2     		sxth	r0, r3
 1542              	.LVL213:
 116:Drivers/lvgl/lvgl/src/widgets/lv_arc.c ****     if(new_delta < 0) new_delta = 360 + new_delta;
 1543              		.loc 1 116 0
 1544 0022 002E     		cmp	r6, #0
 1545 0024 13DB     		blt	.L84
 1546              	.L78:
 117:Drivers/lvgl/lvgl/src/widgets/lv_arc.c **** 
 1547              		.loc 1 117 0
 1548 0026 0028     		cmp	r0, #0
 1549 0028 15DB     		blt	.L85
 1550              	.L79:
 119:Drivers/lvgl/lvgl/src/widgets/lv_arc.c ****     else if(new_delta < old_delta) inv_arc_area(obj, end, arc->indic_angle_end, LV_PART_INDICATOR);
 1551              		.loc 1 119 0
 1552 002a 831B     		subs	r3, r0, r6
 1553 002c 002B     		cmp	r3, #0
 1554 002e B8BF     		it	lt
 1555 0030 5B42     		rsblt	r3, r3, #0
 1556 0032 B42B     		cmp	r3, #180
 1557 0034 13DC     		bgt	.L86
 120:Drivers/lvgl/lvgl/src/widgets/lv_arc.c ****     else if(old_delta < new_delta) inv_arc_area(obj, arc->indic_angle_end, end, LV_PART_INDICATOR);
 1558              		.loc 1 120 0
 1559 0036 8642     		cmp	r6, r0
 1560 0038 15DC     		bgt	.L87
 121:Drivers/lvgl/lvgl/src/widgets/lv_arc.c **** 
 1561              		.loc 1 121 0
 1562 003a 8642     		cmp	r6, r0
 1563 003c 1BDB     		blt	.L88
 1564              	.LVL214:
ARM GAS  /tmp/ccD6LWGo.s 			page 54


 1565              	.L81:
 123:Drivers/lvgl/lvgl/src/widgets/lv_arc.c **** 
 1566              		.loc 1 123 0
 1567 003e 2046     		mov	r0, r4
 1568 0040 FFF7FEFF 		bl	inv_knob_area
 1569              	.LVL215:
 125:Drivers/lvgl/lvgl/src/widgets/lv_arc.c **** 
 1570              		.loc 1 125 0
 1571 0044 2585     		strh	r5, [r4, #40]	@ movhi
 127:Drivers/lvgl/lvgl/src/widgets/lv_arc.c **** }
 1572              		.loc 1 127 0
 1573 0046 2046     		mov	r0, r4
 1574 0048 FFF7FEFF 		bl	inv_knob_area
 1575              	.LVL216:
 128:Drivers/lvgl/lvgl/src/widgets/lv_arc.c **** 
 1576              		.loc 1 128 0
 1577 004c 70BD     		pop	{r4, r5, r6, pc}
 1578              	.LVL217:
 1579              	.L84:
 116:Drivers/lvgl/lvgl/src/widgets/lv_arc.c ****     if(new_delta < 0) new_delta = 360 + new_delta;
 1580              		.loc 1 116 0 discriminator 1
 1581 004e 02F5B472 		add	r2, r2, #360
 1582 0052 16B2     		sxth	r6, r2
 1583              	.LVL218:
 1584 0054 E7E7     		b	.L78
 1585              	.L85:
 117:Drivers/lvgl/lvgl/src/widgets/lv_arc.c **** 
 1586              		.loc 1 117 0 discriminator 1
 1587 0056 03F5B473 		add	r3, r3, #360
 1588 005a 18B2     		sxth	r0, r3
 1589              	.LVL219:
 1590 005c E5E7     		b	.L79
 1591              	.L86:
 119:Drivers/lvgl/lvgl/src/widgets/lv_arc.c ****     else if(new_delta < old_delta) inv_arc_area(obj, end, arc->indic_angle_end, LV_PART_INDICATOR);
 1592              		.loc 1 119 0 discriminator 1
 1593 005e 2046     		mov	r0, r4
 1594              	.LVL220:
 1595 0060 FFF7FEFF 		bl	lv_obj_invalidate
 1596              	.LVL221:
 1597 0064 EBE7     		b	.L81
 1598              	.LVL222:
 1599              	.L87:
 120:Drivers/lvgl/lvgl/src/widgets/lv_arc.c ****     else if(old_delta < new_delta) inv_arc_area(obj, arc->indic_angle_end, end, LV_PART_INDICATOR);
 1600              		.loc 1 120 0 discriminator 1
 1601 0066 4FF40033 		mov	r3, #131072
 1602 006a 0A46     		mov	r2, r1
 1603 006c 2946     		mov	r1, r5
 1604 006e 2046     		mov	r0, r4
 1605              	.LVL223:
 1606 0070 FFF7FEFF 		bl	inv_arc_area
 1607              	.LVL224:
 1608 0074 E3E7     		b	.L81
 1609              	.LVL225:
 1610              	.L88:
 121:Drivers/lvgl/lvgl/src/widgets/lv_arc.c **** 
 1611              		.loc 1 121 0 discriminator 1
 1612 0076 4FF40033 		mov	r3, #131072
ARM GAS  /tmp/ccD6LWGo.s 			page 55


 1613 007a 2A46     		mov	r2, r5
 1614 007c 2046     		mov	r0, r4
 1615              	.LVL226:
 1616 007e FFF7FEFF 		bl	inv_arc_area
 1617              	.LVL227:
 1618 0082 DCE7     		b	.L81
 1619              		.cfi_endproc
 1620              	.LFE161:
 1622              		.section	.text.lv_arc_set_angles,"ax",%progbits
 1623              		.align	1
 1624              		.global	lv_arc_set_angles
 1625              		.syntax unified
 1626              		.thumb
 1627              		.thumb_func
 1628              		.fpu fpv5-d16
 1630              	lv_arc_set_angles:
 1631              	.LFB162:
 131:Drivers/lvgl/lvgl/src/widgets/lv_arc.c ****     lv_arc_set_end_angle(obj, end);
 1632              		.loc 1 131 0
 1633              		.cfi_startproc
 1634              		@ args = 0, pretend = 0, frame = 0
 1635              		@ frame_needed = 0, uses_anonymous_args = 0
 1636              	.LVL228:
 1637 0000 38B5     		push	{r3, r4, r5, lr}
 1638              	.LCFI28:
 1639              		.cfi_def_cfa_offset 16
 1640              		.cfi_offset 3, -16
 1641              		.cfi_offset 4, -12
 1642              		.cfi_offset 5, -8
 1643              		.cfi_offset 14, -4
 1644 0002 0446     		mov	r4, r0
 1645 0004 0D46     		mov	r5, r1
 132:Drivers/lvgl/lvgl/src/widgets/lv_arc.c ****     lv_arc_set_start_angle(obj, start);
 1646              		.loc 1 132 0
 1647 0006 1146     		mov	r1, r2
 1648              	.LVL229:
 1649 0008 FFF7FEFF 		bl	lv_arc_set_end_angle
 1650              	.LVL230:
 133:Drivers/lvgl/lvgl/src/widgets/lv_arc.c **** }
 1651              		.loc 1 133 0
 1652 000c 2946     		mov	r1, r5
 1653 000e 2046     		mov	r0, r4
 1654 0010 FFF7FEFF 		bl	lv_arc_set_start_angle
 1655              	.LVL231:
 134:Drivers/lvgl/lvgl/src/widgets/lv_arc.c **** 
 1656              		.loc 1 134 0
 1657 0014 38BD     		pop	{r3, r4, r5, pc}
 1658              		.cfi_endproc
 1659              	.LFE162:
 1661              		.section	.text.value_update,"ax",%progbits
 1662              		.align	1
 1663              		.syntax unified
 1664              		.thumb
 1665              		.thumb_func
 1666              		.fpu fpv5-d16
 1668              	value_update:
 1669              	.LFB189:
ARM GAS  /tmp/ccD6LWGo.s 			page 56


 813:Drivers/lvgl/lvgl/src/widgets/lv_arc.c ****     LV_ASSERT_OBJ(obj, MY_CLASS);
 1670              		.loc 1 813 0
 1671              		.cfi_startproc
 1672              		@ args = 0, pretend = 0, frame = 0
 1673              		@ frame_needed = 0, uses_anonymous_args = 0
 1674              	.LVL232:
 1675 0000 F0B5     		push	{r4, r5, r6, r7, lr}
 1676              	.LCFI29:
 1677              		.cfi_def_cfa_offset 20
 1678              		.cfi_offset 4, -20
 1679              		.cfi_offset 5, -16
 1680              		.cfi_offset 6, -12
 1681              		.cfi_offset 7, -8
 1682              		.cfi_offset 14, -4
 1683 0002 83B0     		sub	sp, sp, #12
 1684              	.LCFI30:
 1685              		.cfi_def_cfa_offset 32
 1686              	.LVL233:
 818:Drivers/lvgl/lvgl/src/widgets/lv_arc.c **** 
 1687              		.loc 1 818 0
 1688 0004 B0F92E60 		ldrsh	r6, [r0, #46]
 1689 0008 16F5004F 		cmn	r6, #32768
 1690 000c 22D0     		beq	.L91
 820:Drivers/lvgl/lvgl/src/widgets/lv_arc.c ****     if(arc->bg_angle_end < arc->bg_angle_start) bg_end = arc->bg_angle_end + 360;
 1691              		.loc 1 820 0
 1692 000e 828D     		ldrh	r2, [r0, #44]
 1693 0010 15B2     		sxth	r5, r2
 1694              	.LVL234:
 821:Drivers/lvgl/lvgl/src/widgets/lv_arc.c **** 
 1695              		.loc 1 821 0
 1696 0012 438D     		ldrh	r3, [r0, #42]
 1697 0014 9A42     		cmp	r2, r3
 1698 0016 02D2     		bcs	.L93
 821:Drivers/lvgl/lvgl/src/widgets/lv_arc.c **** 
 1699              		.loc 1 821 0 is_stmt 0 discriminator 1
 1700 0018 02F5B472 		add	r2, r2, #360
 1701 001c 15B2     		sxth	r5, r2
 1702              	.LVL235:
 1703              	.L93:
 1704 001e 0446     		mov	r4, r0
 824:Drivers/lvgl/lvgl/src/widgets/lv_arc.c ****         case LV_ARC_MODE_SYMMETRICAL:
 1705              		.loc 1 824 0 is_stmt 1
 1706 0020 90F83420 		ldrb	r2, [r0, #52]	@ zero_extendqisi2
 1707 0024 C2F34102 		ubfx	r2, r2, #1, #2
 1708 0028 012A     		cmp	r2, #1
 1709 002a 15D0     		beq	.L94
 1710 002c 002A     		cmp	r2, #0
 1711 002e 49D0     		beq	.L95
 1712 0030 022A     		cmp	r2, #2
 1713 0032 0FD1     		bne	.L91
 841:Drivers/lvgl/lvgl/src/widgets/lv_arc.c ****             lv_arc_set_angles(obj, angle, arc->bg_angle_end);
 1714              		.loc 1 841 0
 1715 0034 B0F93010 		ldrsh	r1, [r0, #48]
 1716 0038 B0F93220 		ldrsh	r2, [r0, #50]
 1717 003c 0093     		str	r3, [sp]
 1718 003e 2B46     		mov	r3, r5
 1719 0040 3046     		mov	r0, r6
ARM GAS  /tmp/ccD6LWGo.s 			page 57


 1720              	.LVL236:
 1721 0042 FFF7FEFF 		bl	lv_map
 1722              	.LVL237:
 1723 0046 06B2     		sxth	r6, r0
 1724              	.LVL238:
 842:Drivers/lvgl/lvgl/src/widgets/lv_arc.c ****             break;
 1725              		.loc 1 842 0
 1726 0048 A28D     		ldrh	r2, [r4, #44]
 1727 004a 81B2     		uxth	r1, r0
 1728 004c 2046     		mov	r0, r4
 1729 004e FFF7FEFF 		bl	lv_arc_set_angles
 1730              	.LVL239:
 1731              	.L100:
 853:Drivers/lvgl/lvgl/src/widgets/lv_arc.c **** }
 1732              		.loc 1 853 0
 1733 0052 A687     		strh	r6, [r4, #60]	@ movhi
 1734              	.LVL240:
 1735              	.L91:
 854:Drivers/lvgl/lvgl/src/widgets/lv_arc.c **** 
 1736              		.loc 1 854 0
 1737 0054 03B0     		add	sp, sp, #12
 1738              	.LCFI31:
 1739              		.cfi_remember_state
 1740              		.cfi_def_cfa_offset 20
 1741              		@ sp needed
 1742 0056 F0BD     		pop	{r4, r5, r6, r7, pc}
 1743              	.LVL241:
 1744              	.L94:
 1745              	.LCFI32:
 1746              		.cfi_restore_state
 826:Drivers/lvgl/lvgl/src/widgets/lv_arc.c ****             range_midpoint = (int32_t)(arc->min_value + arc->max_value) / 2;
 1747              		.loc 1 826 0
 1748 0058 AE46     		mov	lr, r5
 1749 005a 5D19     		adds	r5, r3, r5
 1750              	.LVL242:
 1751 005c 1DD4     		bmi	.L102
 1752              	.L97:
 1753 005e 6D10     		asrs	r5, r5, #1
 1754 0060 0FFA85FC 		sxth	ip, r5
 1755              	.LVL243:
 827:Drivers/lvgl/lvgl/src/widgets/lv_arc.c **** 
 1756              		.loc 1 827 0
 1757 0064 B4F93070 		ldrsh	r7, [r4, #48]
 1758 0068 B4F93220 		ldrsh	r2, [r4, #50]
 1759 006c B818     		adds	r0, r7, r2
 1760              	.LVL244:
 1761 006e 16D4     		bmi	.L103
 1762              	.L98:
 1763 0070 40F34F01 		sbfx	r1, r0, #1, #16
 1764              	.LVL245:
 829:Drivers/lvgl/lvgl/src/widgets/lv_arc.c ****                 angle = lv_map(arc->value, arc->min_value, range_midpoint, arc->bg_angle_start, bg_
 1765              		.loc 1 829 0
 1766 0074 8E42     		cmp	r6, r1
 1767 0076 14DA     		bge	.L99
 830:Drivers/lvgl/lvgl/src/widgets/lv_arc.c ****                 lv_arc_set_start_angle(obj, angle);
 1768              		.loc 1 830 0
 1769 0078 CDF800C0 		str	ip, [sp]
ARM GAS  /tmp/ccD6LWGo.s 			page 58


 1770 007c 0A46     		mov	r2, r1
 1771 007e 3946     		mov	r1, r7
 1772              	.LVL246:
 1773 0080 3046     		mov	r0, r6
 1774 0082 FFF7FEFF 		bl	lv_map
 1775              	.LVL247:
 1776 0086 06B2     		sxth	r6, r0
 1777              	.LVL248:
 831:Drivers/lvgl/lvgl/src/widgets/lv_arc.c ****                 lv_arc_set_end_angle(obj, bg_midpoint);
 1778              		.loc 1 831 0
 1779 0088 81B2     		uxth	r1, r0
 1780 008a 2046     		mov	r0, r4
 1781 008c FFF7FEFF 		bl	lv_arc_set_start_angle
 1782              	.LVL249:
 832:Drivers/lvgl/lvgl/src/widgets/lv_arc.c ****             }
 1783              		.loc 1 832 0
 1784 0090 A9B2     		uxth	r1, r5
 1785 0092 2046     		mov	r0, r4
 1786 0094 FFF7FEFF 		bl	lv_arc_set_end_angle
 1787              	.LVL250:
 1788 0098 DBE7     		b	.L100
 1789              	.LVL251:
 1790              	.L102:
 826:Drivers/lvgl/lvgl/src/widgets/lv_arc.c ****             range_midpoint = (int32_t)(arc->min_value + arc->max_value) / 2;
 1791              		.loc 1 826 0
 1792 009a 0135     		adds	r5, r5, #1
 1793 009c DFE7     		b	.L97
 1794              	.LVL252:
 1795              	.L103:
 827:Drivers/lvgl/lvgl/src/widgets/lv_arc.c **** 
 1796              		.loc 1 827 0
 1797 009e 0130     		adds	r0, r0, #1
 1798 00a0 E6E7     		b	.L98
 1799              	.LVL253:
 1800              	.L99:
 835:Drivers/lvgl/lvgl/src/widgets/lv_arc.c ****                 lv_arc_set_start_angle(obj, bg_midpoint);
 1801              		.loc 1 835 0
 1802 00a2 CDF800E0 		str	lr, [sp]
 1803 00a6 6346     		mov	r3, ip
 1804 00a8 3046     		mov	r0, r6
 1805 00aa FFF7FEFF 		bl	lv_map
 1806              	.LVL254:
 1807 00ae 0746     		mov	r7, r0
 1808 00b0 06B2     		sxth	r6, r0
 1809              	.LVL255:
 836:Drivers/lvgl/lvgl/src/widgets/lv_arc.c ****                 lv_arc_set_end_angle(obj, angle);
 1810              		.loc 1 836 0
 1811 00b2 A9B2     		uxth	r1, r5
 1812 00b4 2046     		mov	r0, r4
 1813 00b6 FFF7FEFF 		bl	lv_arc_set_start_angle
 1814              	.LVL256:
 837:Drivers/lvgl/lvgl/src/widgets/lv_arc.c ****             }
 1815              		.loc 1 837 0
 1816 00ba B9B2     		uxth	r1, r7
 1817 00bc 2046     		mov	r0, r4
 1818 00be FFF7FEFF 		bl	lv_arc_set_end_angle
 1819              	.LVL257:
ARM GAS  /tmp/ccD6LWGo.s 			page 59


 1820 00c2 C6E7     		b	.L100
 1821              	.LVL258:
 1822              	.L95:
 845:Drivers/lvgl/lvgl/src/widgets/lv_arc.c ****             lv_arc_set_angles(obj, arc->bg_angle_start, angle);
 1823              		.loc 1 845 0
 1824 00c4 B0F93010 		ldrsh	r1, [r0, #48]
 1825 00c8 B0F93220 		ldrsh	r2, [r0, #50]
 1826 00cc 0095     		str	r5, [sp]
 1827 00ce 3046     		mov	r0, r6
 1828              	.LVL259:
 1829 00d0 FFF7FEFF 		bl	lv_map
 1830              	.LVL260:
 1831 00d4 06B2     		sxth	r6, r0
 1832              	.LVL261:
 846:Drivers/lvgl/lvgl/src/widgets/lv_arc.c **** 
 1833              		.loc 1 846 0
 1834 00d6 82B2     		uxth	r2, r0
 1835 00d8 618D     		ldrh	r1, [r4, #42]
 1836 00da 2046     		mov	r0, r4
 1837 00dc FFF7FEFF 		bl	lv_arc_set_angles
 1838              	.LVL262:
 848:Drivers/lvgl/lvgl/src/widgets/lv_arc.c ****         default:
 1839              		.loc 1 848 0
 1840 00e0 B7E7     		b	.L100
 1841              		.cfi_endproc
 1842              	.LFE189:
 1844              		.section	.text.lv_arc_set_bg_start_angle,"ax",%progbits
 1845              		.align	1
 1846              		.global	lv_arc_set_bg_start_angle
 1847              		.syntax unified
 1848              		.thumb
 1849              		.thumb_func
 1850              		.fpu fpv5-d16
 1852              	lv_arc_set_bg_start_angle:
 1853              	.LFB163:
 137:Drivers/lvgl/lvgl/src/widgets/lv_arc.c ****     LV_ASSERT_OBJ(obj, MY_CLASS);
 1854              		.loc 1 137 0
 1855              		.cfi_startproc
 1856              		@ args = 0, pretend = 0, frame = 0
 1857              		@ frame_needed = 0, uses_anonymous_args = 0
 1858              	.LVL263:
 1859 0000 70B5     		push	{r4, r5, r6, lr}
 1860              	.LCFI33:
 1861              		.cfi_def_cfa_offset 16
 1862              		.cfi_offset 4, -16
 1863              		.cfi_offset 5, -12
 1864              		.cfi_offset 6, -8
 1865              		.cfi_offset 14, -4
 1866 0002 0546     		mov	r5, r0
 1867 0004 0C46     		mov	r4, r1
 1868              	.LVL264:
 141:Drivers/lvgl/lvgl/src/widgets/lv_arc.c **** 
 1869              		.loc 1 141 0
 1870 0006 B1F5B47F 		cmp	r1, #360
 1871 000a 02D9     		bls	.L105
 141:Drivers/lvgl/lvgl/src/widgets/lv_arc.c **** 
 1872              		.loc 1 141 0 is_stmt 0 discriminator 1
ARM GAS  /tmp/ccD6LWGo.s 			page 60


 1873 000c A1F5B474 		sub	r4, r1, #360
 1874 0010 A4B2     		uxth	r4, r4
 1875              	.LVL265:
 1876              	.L105:
 143:Drivers/lvgl/lvgl/src/widgets/lv_arc.c ****     int16_t new_delta = arc->bg_angle_end - start;
 1877              		.loc 1 143 0 is_stmt 1
 1878 0012 AB8D     		ldrh	r3, [r5, #44]
 1879 0014 698D     		ldrh	r1, [r5, #42]
 1880 0016 5A1A     		subs	r2, r3, r1
 1881 0018 92B2     		uxth	r2, r2
 1882 001a 16B2     		sxth	r6, r2
 1883              	.LVL266:
 144:Drivers/lvgl/lvgl/src/widgets/lv_arc.c **** 
 1884              		.loc 1 144 0
 1885 001c 1B1B     		subs	r3, r3, r4
 1886 001e 9BB2     		uxth	r3, r3
 1887 0020 18B2     		sxth	r0, r3
 1888              	.LVL267:
 146:Drivers/lvgl/lvgl/src/widgets/lv_arc.c ****     if(new_delta < 0) new_delta = 360 + new_delta;
 1889              		.loc 1 146 0
 1890 0022 002E     		cmp	r6, #0
 1891 0024 10DB     		blt	.L112
 1892              	.L106:
 147:Drivers/lvgl/lvgl/src/widgets/lv_arc.c **** 
 1893              		.loc 1 147 0
 1894 0026 0028     		cmp	r0, #0
 1895 0028 12DB     		blt	.L113
 1896              	.L107:
 149:Drivers/lvgl/lvgl/src/widgets/lv_arc.c ****     else if(new_delta < old_delta) inv_arc_area(obj, arc->bg_angle_start, start, LV_PART_MAIN);
 1897              		.loc 1 149 0
 1898 002a 831B     		subs	r3, r0, r6
 1899 002c 002B     		cmp	r3, #0
 1900 002e B8BF     		it	lt
 1901 0030 5B42     		rsblt	r3, r3, #0
 1902 0032 B42B     		cmp	r3, #180
 1903 0034 10DC     		bgt	.L114
 150:Drivers/lvgl/lvgl/src/widgets/lv_arc.c ****     else if(old_delta < new_delta) inv_arc_area(obj, start, arc->bg_angle_start, LV_PART_MAIN);
 1904              		.loc 1 150 0
 1905 0036 8642     		cmp	r6, r0
 1906 0038 12DC     		bgt	.L115
 151:Drivers/lvgl/lvgl/src/widgets/lv_arc.c **** 
 1907              		.loc 1 151 0
 1908 003a 8642     		cmp	r6, r0
 1909 003c 16DB     		blt	.L116
 1910              	.LVL268:
 1911              	.L109:
 153:Drivers/lvgl/lvgl/src/widgets/lv_arc.c **** 
 1912              		.loc 1 153 0
 1913 003e 6C85     		strh	r4, [r5, #42]	@ movhi
 155:Drivers/lvgl/lvgl/src/widgets/lv_arc.c **** }
 1914              		.loc 1 155 0
 1915 0040 2846     		mov	r0, r5
 1916 0042 FFF7FEFF 		bl	value_update
 1917              	.LVL269:
 156:Drivers/lvgl/lvgl/src/widgets/lv_arc.c **** 
 1918              		.loc 1 156 0
 1919 0046 70BD     		pop	{r4, r5, r6, pc}
ARM GAS  /tmp/ccD6LWGo.s 			page 61


 1920              	.LVL270:
 1921              	.L112:
 146:Drivers/lvgl/lvgl/src/widgets/lv_arc.c ****     if(new_delta < 0) new_delta = 360 + new_delta;
 1922              		.loc 1 146 0 discriminator 1
 1923 0048 02F5B472 		add	r2, r2, #360
 1924 004c 16B2     		sxth	r6, r2
 1925              	.LVL271:
 1926 004e EAE7     		b	.L106
 1927              	.L113:
 147:Drivers/lvgl/lvgl/src/widgets/lv_arc.c **** 
 1928              		.loc 1 147 0 discriminator 1
 1929 0050 03F5B473 		add	r3, r3, #360
 1930 0054 18B2     		sxth	r0, r3
 1931              	.LVL272:
 1932 0056 E8E7     		b	.L107
 1933              	.L114:
 149:Drivers/lvgl/lvgl/src/widgets/lv_arc.c ****     else if(new_delta < old_delta) inv_arc_area(obj, arc->bg_angle_start, start, LV_PART_MAIN);
 1934              		.loc 1 149 0 discriminator 1
 1935 0058 2846     		mov	r0, r5
 1936              	.LVL273:
 1937 005a FFF7FEFF 		bl	lv_obj_invalidate
 1938              	.LVL274:
 1939 005e EEE7     		b	.L109
 1940              	.LVL275:
 1941              	.L115:
 150:Drivers/lvgl/lvgl/src/widgets/lv_arc.c ****     else if(old_delta < new_delta) inv_arc_area(obj, start, arc->bg_angle_start, LV_PART_MAIN);
 1942              		.loc 1 150 0 discriminator 1
 1943 0060 0023     		movs	r3, #0
 1944 0062 2246     		mov	r2, r4
 1945 0064 2846     		mov	r0, r5
 1946              	.LVL276:
 1947 0066 FFF7FEFF 		bl	inv_arc_area
 1948              	.LVL277:
 1949 006a E8E7     		b	.L109
 1950              	.LVL278:
 1951              	.L116:
 151:Drivers/lvgl/lvgl/src/widgets/lv_arc.c **** 
 1952              		.loc 1 151 0 discriminator 1
 1953 006c 0023     		movs	r3, #0
 1954 006e 0A46     		mov	r2, r1
 1955 0070 2146     		mov	r1, r4
 1956 0072 2846     		mov	r0, r5
 1957              	.LVL279:
 1958 0074 FFF7FEFF 		bl	inv_arc_area
 1959              	.LVL280:
 1960 0078 E1E7     		b	.L109
 1961              		.cfi_endproc
 1962              	.LFE163:
 1964              		.section	.text.lv_arc_set_bg_end_angle,"ax",%progbits
 1965              		.align	1
 1966              		.global	lv_arc_set_bg_end_angle
 1967              		.syntax unified
 1968              		.thumb
 1969              		.thumb_func
 1970              		.fpu fpv5-d16
 1972              	lv_arc_set_bg_end_angle:
 1973              	.LFB164:
ARM GAS  /tmp/ccD6LWGo.s 			page 62


 159:Drivers/lvgl/lvgl/src/widgets/lv_arc.c ****     LV_ASSERT_OBJ(obj, MY_CLASS);
 1974              		.loc 1 159 0
 1975              		.cfi_startproc
 1976              		@ args = 0, pretend = 0, frame = 0
 1977              		@ frame_needed = 0, uses_anonymous_args = 0
 1978              	.LVL281:
 1979 0000 70B5     		push	{r4, r5, r6, lr}
 1980              	.LCFI34:
 1981              		.cfi_def_cfa_offset 16
 1982              		.cfi_offset 4, -16
 1983              		.cfi_offset 5, -12
 1984              		.cfi_offset 6, -8
 1985              		.cfi_offset 14, -4
 1986 0002 0546     		mov	r5, r0
 1987 0004 0C46     		mov	r4, r1
 1988              	.LVL282:
 163:Drivers/lvgl/lvgl/src/widgets/lv_arc.c **** 
 1989              		.loc 1 163 0
 1990 0006 B1F5B47F 		cmp	r1, #360
 1991 000a 02D9     		bls	.L118
 163:Drivers/lvgl/lvgl/src/widgets/lv_arc.c **** 
 1992              		.loc 1 163 0 is_stmt 0 discriminator 1
 1993 000c A1F5B474 		sub	r4, r1, #360
 1994 0010 A4B2     		uxth	r4, r4
 1995              	.LVL283:
 1996              	.L118:
 165:Drivers/lvgl/lvgl/src/widgets/lv_arc.c ****     int16_t new_delta = end - arc->bg_angle_start;
 1997              		.loc 1 165 0 is_stmt 1
 1998 0012 A98D     		ldrh	r1, [r5, #44]
 1999 0014 6B8D     		ldrh	r3, [r5, #42]
 2000 0016 CA1A     		subs	r2, r1, r3
 2001 0018 92B2     		uxth	r2, r2
 2002 001a 16B2     		sxth	r6, r2
 2003              	.LVL284:
 166:Drivers/lvgl/lvgl/src/widgets/lv_arc.c **** 
 2004              		.loc 1 166 0
 2005 001c E31A     		subs	r3, r4, r3
 2006 001e 9BB2     		uxth	r3, r3
 2007 0020 18B2     		sxth	r0, r3
 2008              	.LVL285:
 168:Drivers/lvgl/lvgl/src/widgets/lv_arc.c ****     if(new_delta < 0) new_delta = 360 + new_delta;
 2009              		.loc 1 168 0
 2010 0022 002E     		cmp	r6, #0
 2011 0024 10DB     		blt	.L125
 2012              	.L119:
 169:Drivers/lvgl/lvgl/src/widgets/lv_arc.c **** 
 2013              		.loc 1 169 0
 2014 0026 0028     		cmp	r0, #0
 2015 0028 12DB     		blt	.L126
 2016              	.L120:
 171:Drivers/lvgl/lvgl/src/widgets/lv_arc.c ****     else if(new_delta < old_delta) inv_arc_area(obj, end, arc->bg_angle_end, LV_PART_MAIN);
 2017              		.loc 1 171 0
 2018 002a 831B     		subs	r3, r0, r6
 2019 002c 002B     		cmp	r3, #0
 2020 002e B8BF     		it	lt
 2021 0030 5B42     		rsblt	r3, r3, #0
 2022 0032 B42B     		cmp	r3, #180
ARM GAS  /tmp/ccD6LWGo.s 			page 63


 2023 0034 10DC     		bgt	.L127
 172:Drivers/lvgl/lvgl/src/widgets/lv_arc.c ****     else if(old_delta < new_delta) inv_arc_area(obj, arc->bg_angle_end, end, LV_PART_MAIN);
 2024              		.loc 1 172 0
 2025 0036 8642     		cmp	r6, r0
 2026 0038 12DC     		bgt	.L128
 173:Drivers/lvgl/lvgl/src/widgets/lv_arc.c **** 
 2027              		.loc 1 173 0
 2028 003a 8642     		cmp	r6, r0
 2029 003c 17DB     		blt	.L129
 2030              	.LVL286:
 2031              	.L122:
 175:Drivers/lvgl/lvgl/src/widgets/lv_arc.c **** 
 2032              		.loc 1 175 0
 2033 003e AC85     		strh	r4, [r5, #44]	@ movhi
 177:Drivers/lvgl/lvgl/src/widgets/lv_arc.c **** }
 2034              		.loc 1 177 0
 2035 0040 2846     		mov	r0, r5
 2036 0042 FFF7FEFF 		bl	value_update
 2037              	.LVL287:
 178:Drivers/lvgl/lvgl/src/widgets/lv_arc.c **** 
 2038              		.loc 1 178 0
 2039 0046 70BD     		pop	{r4, r5, r6, pc}
 2040              	.LVL288:
 2041              	.L125:
 168:Drivers/lvgl/lvgl/src/widgets/lv_arc.c ****     if(new_delta < 0) new_delta = 360 + new_delta;
 2042              		.loc 1 168 0 discriminator 1
 2043 0048 02F5B472 		add	r2, r2, #360
 2044 004c 16B2     		sxth	r6, r2
 2045              	.LVL289:
 2046 004e EAE7     		b	.L119
 2047              	.L126:
 169:Drivers/lvgl/lvgl/src/widgets/lv_arc.c **** 
 2048              		.loc 1 169 0 discriminator 1
 2049 0050 03F5B473 		add	r3, r3, #360
 2050 0054 18B2     		sxth	r0, r3
 2051              	.LVL290:
 2052 0056 E8E7     		b	.L120
 2053              	.L127:
 171:Drivers/lvgl/lvgl/src/widgets/lv_arc.c ****     else if(new_delta < old_delta) inv_arc_area(obj, end, arc->bg_angle_end, LV_PART_MAIN);
 2054              		.loc 1 171 0 discriminator 1
 2055 0058 2846     		mov	r0, r5
 2056              	.LVL291:
 2057 005a FFF7FEFF 		bl	lv_obj_invalidate
 2058              	.LVL292:
 2059 005e EEE7     		b	.L122
 2060              	.LVL293:
 2061              	.L128:
 172:Drivers/lvgl/lvgl/src/widgets/lv_arc.c ****     else if(old_delta < new_delta) inv_arc_area(obj, arc->bg_angle_end, end, LV_PART_MAIN);
 2062              		.loc 1 172 0 discriminator 1
 2063 0060 0023     		movs	r3, #0
 2064 0062 0A46     		mov	r2, r1
 2065 0064 2146     		mov	r1, r4
 2066 0066 2846     		mov	r0, r5
 2067              	.LVL294:
 2068 0068 FFF7FEFF 		bl	inv_arc_area
 2069              	.LVL295:
 2070 006c E7E7     		b	.L122
ARM GAS  /tmp/ccD6LWGo.s 			page 64


 2071              	.LVL296:
 2072              	.L129:
 173:Drivers/lvgl/lvgl/src/widgets/lv_arc.c **** 
 2073              		.loc 1 173 0 discriminator 1
 2074 006e 0023     		movs	r3, #0
 2075 0070 2246     		mov	r2, r4
 2076 0072 2846     		mov	r0, r5
 2077              	.LVL297:
 2078 0074 FFF7FEFF 		bl	inv_arc_area
 2079              	.LVL298:
 2080 0078 E1E7     		b	.L122
 2081              		.cfi_endproc
 2082              	.LFE164:
 2084              		.section	.text.lv_arc_set_bg_angles,"ax",%progbits
 2085              		.align	1
 2086              		.global	lv_arc_set_bg_angles
 2087              		.syntax unified
 2088              		.thumb
 2089              		.thumb_func
 2090              		.fpu fpv5-d16
 2092              	lv_arc_set_bg_angles:
 2093              	.LFB165:
 181:Drivers/lvgl/lvgl/src/widgets/lv_arc.c ****     lv_arc_set_bg_end_angle(obj, end);
 2094              		.loc 1 181 0
 2095              		.cfi_startproc
 2096              		@ args = 0, pretend = 0, frame = 0
 2097              		@ frame_needed = 0, uses_anonymous_args = 0
 2098              	.LVL299:
 2099 0000 38B5     		push	{r3, r4, r5, lr}
 2100              	.LCFI35:
 2101              		.cfi_def_cfa_offset 16
 2102              		.cfi_offset 3, -16
 2103              		.cfi_offset 4, -12
 2104              		.cfi_offset 5, -8
 2105              		.cfi_offset 14, -4
 2106 0002 0446     		mov	r4, r0
 2107 0004 0D46     		mov	r5, r1
 182:Drivers/lvgl/lvgl/src/widgets/lv_arc.c ****     lv_arc_set_bg_start_angle(obj, start);
 2108              		.loc 1 182 0
 2109 0006 1146     		mov	r1, r2
 2110              	.LVL300:
 2111 0008 FFF7FEFF 		bl	lv_arc_set_bg_end_angle
 2112              	.LVL301:
 183:Drivers/lvgl/lvgl/src/widgets/lv_arc.c **** }
 2113              		.loc 1 183 0
 2114 000c 2946     		mov	r1, r5
 2115 000e 2046     		mov	r0, r4
 2116 0010 FFF7FEFF 		bl	lv_arc_set_bg_start_angle
 2117              	.LVL302:
 184:Drivers/lvgl/lvgl/src/widgets/lv_arc.c **** 
 2118              		.loc 1 184 0
 2119 0014 38BD     		pop	{r3, r4, r5, pc}
 2120              		.cfi_endproc
 2121              	.LFE165:
 2123              		.section	.text.lv_arc_set_rotation,"ax",%progbits
 2124              		.align	1
 2125              		.global	lv_arc_set_rotation
ARM GAS  /tmp/ccD6LWGo.s 			page 65


 2126              		.syntax unified
 2127              		.thumb
 2128              		.thumb_func
 2129              		.fpu fpv5-d16
 2131              	lv_arc_set_rotation:
 2132              	.LFB166:
 187:Drivers/lvgl/lvgl/src/widgets/lv_arc.c ****     LV_ASSERT_OBJ(obj, MY_CLASS);
 2133              		.loc 1 187 0
 2134              		.cfi_startproc
 2135              		@ args = 0, pretend = 0, frame = 0
 2136              		@ frame_needed = 0, uses_anonymous_args = 0
 2137              	.LVL303:
 2138 0000 08B5     		push	{r3, lr}
 2139              	.LCFI36:
 2140              		.cfi_def_cfa_offset 8
 2141              		.cfi_offset 3, -8
 2142              		.cfi_offset 14, -4
 2143              	.LVL304:
 191:Drivers/lvgl/lvgl/src/widgets/lv_arc.c **** 
 2144              		.loc 1 191 0
 2145 0002 8184     		strh	r1, [r0, #36]	@ movhi
 193:Drivers/lvgl/lvgl/src/widgets/lv_arc.c **** }
 2146              		.loc 1 193 0
 2147 0004 FFF7FEFF 		bl	lv_obj_invalidate
 2148              	.LVL305:
 194:Drivers/lvgl/lvgl/src/widgets/lv_arc.c **** 
 2149              		.loc 1 194 0
 2150 0008 08BD     		pop	{r3, pc}
 2151              		.cfi_endproc
 2152              	.LFE166:
 2154              		.section	.text.lv_arc_set_value,"ax",%progbits
 2155              		.align	1
 2156              		.global	lv_arc_set_value
 2157              		.syntax unified
 2158              		.thumb
 2159              		.thumb_func
 2160              		.fpu fpv5-d16
 2162              	lv_arc_set_value:
 2163              	.LFB168:
 226:Drivers/lvgl/lvgl/src/widgets/lv_arc.c ****     LV_ASSERT_OBJ(obj, MY_CLASS);
 2164              		.loc 1 226 0
 2165              		.cfi_startproc
 2166              		@ args = 0, pretend = 0, frame = 0
 2167              		@ frame_needed = 0, uses_anonymous_args = 0
 2168              	.LVL306:
 230:Drivers/lvgl/lvgl/src/widgets/lv_arc.c **** 
 2169              		.loc 1 230 0
 2170 0000 B0F92E20 		ldrsh	r2, [r0, #46]
 2171 0004 8A42     		cmp	r2, r1
 2172 0006 10D0     		beq	.L137
 226:Drivers/lvgl/lvgl/src/widgets/lv_arc.c ****     LV_ASSERT_OBJ(obj, MY_CLASS);
 2173              		.loc 1 226 0
 2174 0008 08B5     		push	{r3, lr}
 2175              	.LCFI37:
 2176              		.cfi_def_cfa_offset 8
 2177              		.cfi_offset 3, -8
 2178              		.cfi_offset 14, -4
ARM GAS  /tmp/ccD6LWGo.s 			page 66


 233:Drivers/lvgl/lvgl/src/widgets/lv_arc.c ****     new_value = new_value < arc->min_value ? arc->min_value : new_value;
 2179              		.loc 1 233 0
 2180 000a B0F93230 		ldrsh	r3, [r0, #50]
 2181 000e 8B42     		cmp	r3, r1
 2182 0010 A8BF     		it	ge
 2183 0012 0B46     		movge	r3, r1
 2184              	.LVL307:
 234:Drivers/lvgl/lvgl/src/widgets/lv_arc.c **** 
 2185              		.loc 1 234 0
 2186 0014 B0F93010 		ldrsh	r1, [r0, #48]
 2187              	.LVL308:
 2188 0018 9942     		cmp	r1, r3
 2189 001a B8BF     		it	lt
 2190 001c 1946     		movlt	r1, r3
 2191              	.LVL309:
 236:Drivers/lvgl/lvgl/src/widgets/lv_arc.c ****     arc->value = new_value;
 2192              		.loc 1 236 0
 2193 001e 8A42     		cmp	r2, r1
 2194 0020 02D0     		beq	.L134
 237:Drivers/lvgl/lvgl/src/widgets/lv_arc.c **** 
 2195              		.loc 1 237 0
 2196 0022 C185     		strh	r1, [r0, #46]	@ movhi
 239:Drivers/lvgl/lvgl/src/widgets/lv_arc.c **** }
 2197              		.loc 1 239 0
 2198 0024 FFF7FEFF 		bl	value_update
 2199              	.LVL310:
 2200              	.L134:
 240:Drivers/lvgl/lvgl/src/widgets/lv_arc.c **** 
 2201              		.loc 1 240 0
 2202 0028 08BD     		pop	{r3, pc}
 2203              	.LVL311:
 2204              	.L137:
 2205              	.LCFI38:
 2206              		.cfi_def_cfa_offset 0
 2207              		.cfi_restore 3
 2208              		.cfi_restore 14
 2209 002a 7047     		bx	lr
 2210              		.cfi_endproc
 2211              	.LFE168:
 2213              		.section	.text.lv_arc_set_mode,"ax",%progbits
 2214              		.align	1
 2215              		.global	lv_arc_set_mode
 2216              		.syntax unified
 2217              		.thumb
 2218              		.thumb_func
 2219              		.fpu fpv5-d16
 2221              	lv_arc_set_mode:
 2222              	.LFB167:
 197:Drivers/lvgl/lvgl/src/widgets/lv_arc.c ****     LV_ASSERT_OBJ(obj, MY_CLASS);
 2223              		.loc 1 197 0
 2224              		.cfi_startproc
 2225              		@ args = 0, pretend = 0, frame = 0
 2226              		@ frame_needed = 0, uses_anonymous_args = 0
 2227              	.LVL312:
 2228 0000 70B5     		push	{r4, r5, r6, lr}
 2229              	.LCFI39:
 2230              		.cfi_def_cfa_offset 16
ARM GAS  /tmp/ccD6LWGo.s 			page 67


 2231              		.cfi_offset 4, -16
 2232              		.cfi_offset 5, -12
 2233              		.cfi_offset 6, -8
 2234              		.cfi_offset 14, -4
 2235 0002 0446     		mov	r4, r0
 2236              	.LVL313:
 201:Drivers/lvgl/lvgl/src/widgets/lv_arc.c **** 
 2237              		.loc 1 201 0
 2238 0004 B0F92E60 		ldrsh	r6, [r0, #46]
 2239              	.LVL314:
 203:Drivers/lvgl/lvgl/src/widgets/lv_arc.c ****     arc->value = -1; /** Force set_value handling*/
 2240              		.loc 1 203 0
 2241 0008 01F00300 		and	r0, r1, #3
 2242              	.LVL315:
 2243 000c 94F83430 		ldrb	r3, [r4, #52]	@ zero_extendqisi2
 2244 0010 60F34203 		bfi	r3, r0, #1, #2
 2245 0014 84F83430 		strb	r3, [r4, #52]
 204:Drivers/lvgl/lvgl/src/widgets/lv_arc.c **** 
 2246              		.loc 1 204 0
 2247 0018 4FF6FF73 		movw	r3, #65535
 2248 001c E385     		strh	r3, [r4, #46]	@ movhi
 206:Drivers/lvgl/lvgl/src/widgets/lv_arc.c ****     if(arc->bg_angle_end < arc->bg_angle_start) bg_end = arc->bg_angle_end + 360;
 2249              		.loc 1 206 0
 2250 001e A28D     		ldrh	r2, [r4, #44]
 2251 0020 13B2     		sxth	r3, r2
 2252              	.LVL316:
 207:Drivers/lvgl/lvgl/src/widgets/lv_arc.c **** 
 2253              		.loc 1 207 0
 2254 0022 618D     		ldrh	r1, [r4, #42]
 2255              	.LVL317:
 2256 0024 8A42     		cmp	r2, r1
 2257 0026 02D2     		bcs	.L141
 207:Drivers/lvgl/lvgl/src/widgets/lv_arc.c **** 
 2258              		.loc 1 207 0 is_stmt 0 discriminator 1
 2259 0028 02F5B473 		add	r3, r2, #360
 2260              	.LVL318:
 2261 002c 1BB2     		sxth	r3, r3
 2262              	.LVL319:
 2263              	.L141:
 209:Drivers/lvgl/lvgl/src/widgets/lv_arc.c ****         case LV_ARC_MODE_SYMMETRICAL:
 2264              		.loc 1 209 0 is_stmt 1
 2265 002e 0128     		cmp	r0, #1
 2266 0030 05D0     		beq	.L143
 2267 0032 0228     		cmp	r0, #2
 2268 0034 16D0     		beq	.L144
 219:Drivers/lvgl/lvgl/src/widgets/lv_arc.c ****     }
 2269              		.loc 1 219 0
 2270 0036 2046     		mov	r0, r4
 2271 0038 FFF7FEFF 		bl	lv_arc_set_start_angle
 2272              	.LVL320:
 2273 003c 0BE0     		b	.L146
 2274              	.LVL321:
 2275              	.L143:
 211:Drivers/lvgl/lvgl/src/widgets/lv_arc.c ****             lv_arc_set_start_angle(obj, bg_midpoint);
 2276              		.loc 1 211 0
 2277 003e 5B18     		adds	r3, r3, r1
 2278              	.LVL322:
ARM GAS  /tmp/ccD6LWGo.s 			page 68


 2279 0040 0ED4     		bmi	.L149
 2280              	.L145:
 2281              	.LVL323:
 212:Drivers/lvgl/lvgl/src/widgets/lv_arc.c ****             lv_arc_set_end_angle(obj, bg_midpoint);
 2282              		.loc 1 212 0
 2283 0042 C3F34F05 		ubfx	r5, r3, #1, #16
 2284 0046 2946     		mov	r1, r5
 2285 0048 2046     		mov	r0, r4
 2286 004a FFF7FEFF 		bl	lv_arc_set_start_angle
 2287              	.LVL324:
 213:Drivers/lvgl/lvgl/src/widgets/lv_arc.c ****             break;
 2288              		.loc 1 213 0
 2289 004e 2946     		mov	r1, r5
 2290 0050 2046     		mov	r0, r4
 2291 0052 FFF7FEFF 		bl	lv_arc_set_end_angle
 2292              	.LVL325:
 2293              	.L146:
 222:Drivers/lvgl/lvgl/src/widgets/lv_arc.c **** }
 2294              		.loc 1 222 0
 2295 0056 3146     		mov	r1, r6
 2296 0058 2046     		mov	r0, r4
 2297 005a FFF7FEFF 		bl	lv_arc_set_value
 2298              	.LVL326:
 223:Drivers/lvgl/lvgl/src/widgets/lv_arc.c **** 
 2299              		.loc 1 223 0
 2300 005e 70BD     		pop	{r4, r5, r6, pc}
 2301              	.LVL327:
 2302              	.L149:
 211:Drivers/lvgl/lvgl/src/widgets/lv_arc.c ****             lv_arc_set_start_angle(obj, bg_midpoint);
 2303              		.loc 1 211 0
 2304 0060 0133     		adds	r3, r3, #1
 2305 0062 EEE7     		b	.L145
 2306              	.LVL328:
 2307              	.L144:
 216:Drivers/lvgl/lvgl/src/widgets/lv_arc.c ****             break;
 2308              		.loc 1 216 0
 2309 0064 1146     		mov	r1, r2
 2310 0066 2046     		mov	r0, r4
 2311 0068 FFF7FEFF 		bl	lv_arc_set_end_angle
 2312              	.LVL329:
 217:Drivers/lvgl/lvgl/src/widgets/lv_arc.c ****         default: /** LV_ARC_TYPE_NORMAL*/
 2313              		.loc 1 217 0
 2314 006c F3E7     		b	.L146
 2315              		.cfi_endproc
 2316              	.LFE167:
 2318              		.section	.text.lv_arc_set_range,"ax",%progbits
 2319              		.align	1
 2320              		.global	lv_arc_set_range
 2321              		.syntax unified
 2322              		.thumb
 2323              		.thumb_func
 2324              		.fpu fpv5-d16
 2326              	lv_arc_set_range:
 2327              	.LFB169:
 243:Drivers/lvgl/lvgl/src/widgets/lv_arc.c ****     LV_ASSERT_OBJ(obj, MY_CLASS);
 2328              		.loc 1 243 0
 2329              		.cfi_startproc
ARM GAS  /tmp/ccD6LWGo.s 			page 69


 2330              		@ args = 0, pretend = 0, frame = 0
 2331              		@ frame_needed = 0, uses_anonymous_args = 0
 2332              	.LVL330:
 2333 0000 08B5     		push	{r3, lr}
 2334              	.LCFI40:
 2335              		.cfi_def_cfa_offset 8
 2336              		.cfi_offset 3, -8
 2337              		.cfi_offset 14, -4
 2338              	.LVL331:
 247:Drivers/lvgl/lvgl/src/widgets/lv_arc.c **** 
 2339              		.loc 1 247 0
 2340 0002 B0F93030 		ldrsh	r3, [r0, #48]
 2341 0006 8B42     		cmp	r3, r1
 2342 0008 0ED0     		beq	.L156
 2343              	.L151:
 249:Drivers/lvgl/lvgl/src/widgets/lv_arc.c ****     arc->max_value = max;
 2344              		.loc 1 249 0
 2345 000a 0186     		strh	r1, [r0, #48]	@ movhi
 250:Drivers/lvgl/lvgl/src/widgets/lv_arc.c **** 
 2346              		.loc 1 250 0
 2347 000c 4286     		strh	r2, [r0, #50]	@ movhi
 252:Drivers/lvgl/lvgl/src/widgets/lv_arc.c ****         arc->value = min;
 2348              		.loc 1 252 0
 2349 000e B0F92E30 		ldrsh	r3, [r0, #46]
 2350 0012 8B42     		cmp	r3, r1
 2351 0014 00DA     		bge	.L153
 253:Drivers/lvgl/lvgl/src/widgets/lv_arc.c ****     }
 2352              		.loc 1 253 0
 2353 0016 C185     		strh	r1, [r0, #46]	@ movhi
 2354              	.L153:
 255:Drivers/lvgl/lvgl/src/widgets/lv_arc.c ****         arc->value = max;
 2355              		.loc 1 255 0
 2356 0018 B0F92E30 		ldrsh	r3, [r0, #46]
 2357 001c 9342     		cmp	r3, r2
 2358 001e 00DD     		ble	.L154
 256:Drivers/lvgl/lvgl/src/widgets/lv_arc.c ****     }
 2359              		.loc 1 256 0
 2360 0020 C285     		strh	r2, [r0, #46]	@ movhi
 2361              	.L154:
 259:Drivers/lvgl/lvgl/src/widgets/lv_arc.c **** }
 2362              		.loc 1 259 0
 2363 0022 FFF7FEFF 		bl	value_update
 2364              	.LVL332:
 2365              	.L150:
 260:Drivers/lvgl/lvgl/src/widgets/lv_arc.c **** 
 2366              		.loc 1 260 0
 2367 0026 08BD     		pop	{r3, pc}
 2368              	.LVL333:
 2369              	.L156:
 247:Drivers/lvgl/lvgl/src/widgets/lv_arc.c **** 
 2370              		.loc 1 247 0 discriminator 1
 2371 0028 B0F93230 		ldrsh	r3, [r0, #50]
 2372 002c 9342     		cmp	r3, r2
 2373 002e ECD1     		bne	.L151
 2374 0030 F9E7     		b	.L150
 2375              		.cfi_endproc
 2376              	.LFE169:
ARM GAS  /tmp/ccD6LWGo.s 			page 70


 2378              		.section	.text.lv_arc_set_change_rate,"ax",%progbits
 2379              		.align	1
 2380              		.global	lv_arc_set_change_rate
 2381              		.syntax unified
 2382              		.thumb
 2383              		.thumb_func
 2384              		.fpu fpv5-d16
 2386              	lv_arc_set_change_rate:
 2387              	.LFB170:
 263:Drivers/lvgl/lvgl/src/widgets/lv_arc.c ****     LV_ASSERT_OBJ(obj, MY_CLASS);
 2388              		.loc 1 263 0
 2389              		.cfi_startproc
 2390              		@ args = 0, pretend = 0, frame = 0
 2391              		@ frame_needed = 0, uses_anonymous_args = 0
 2392              		@ link register save eliminated.
 2393              	.LVL334:
 267:Drivers/lvgl/lvgl/src/widgets/lv_arc.c **** }
 2394              		.loc 1 267 0
 2395 0000 C186     		strh	r1, [r0, #54]	@ movhi
 268:Drivers/lvgl/lvgl/src/widgets/lv_arc.c **** 
 2396              		.loc 1 268 0
 2397 0002 7047     		bx	lr
 2398              		.cfi_endproc
 2399              	.LFE170:
 2401              		.section	.text.lv_arc_get_angle_start,"ax",%progbits
 2402              		.align	1
 2403              		.global	lv_arc_get_angle_start
 2404              		.syntax unified
 2405              		.thumb
 2406              		.thumb_func
 2407              		.fpu fpv5-d16
 2409              	lv_arc_get_angle_start:
 2410              	.LFB171:
 275:Drivers/lvgl/lvgl/src/widgets/lv_arc.c ****     LV_ASSERT_OBJ(obj, MY_CLASS);
 2411              		.loc 1 275 0
 2412              		.cfi_startproc
 2413              		@ args = 0, pretend = 0, frame = 0
 2414              		@ frame_needed = 0, uses_anonymous_args = 0
 2415              		@ link register save eliminated.
 2416              	.LVL335:
 278:Drivers/lvgl/lvgl/src/widgets/lv_arc.c **** 
 2417              		.loc 1 278 0
 2418 0000 C08C     		ldrh	r0, [r0, #38]
 2419              	.LVL336:
 2420 0002 7047     		bx	lr
 2421              		.cfi_endproc
 2422              	.LFE171:
 2424              		.section	.text.lv_arc_get_angle_end,"ax",%progbits
 2425              		.align	1
 2426              		.global	lv_arc_get_angle_end
 2427              		.syntax unified
 2428              		.thumb
 2429              		.thumb_func
 2430              		.fpu fpv5-d16
 2432              	lv_arc_get_angle_end:
 2433              	.LFB172:
 281:Drivers/lvgl/lvgl/src/widgets/lv_arc.c ****     LV_ASSERT_OBJ(obj, MY_CLASS);
ARM GAS  /tmp/ccD6LWGo.s 			page 71


 2434              		.loc 1 281 0
 2435              		.cfi_startproc
 2436              		@ args = 0, pretend = 0, frame = 0
 2437              		@ frame_needed = 0, uses_anonymous_args = 0
 2438              		@ link register save eliminated.
 2439              	.LVL337:
 284:Drivers/lvgl/lvgl/src/widgets/lv_arc.c **** 
 2440              		.loc 1 284 0
 2441 0000 008D     		ldrh	r0, [r0, #40]
 2442              	.LVL338:
 2443 0002 7047     		bx	lr
 2444              		.cfi_endproc
 2445              	.LFE172:
 2447              		.section	.text.lv_arc_get_bg_angle_start,"ax",%progbits
 2448              		.align	1
 2449              		.global	lv_arc_get_bg_angle_start
 2450              		.syntax unified
 2451              		.thumb
 2452              		.thumb_func
 2453              		.fpu fpv5-d16
 2455              	lv_arc_get_bg_angle_start:
 2456              	.LFB173:
 287:Drivers/lvgl/lvgl/src/widgets/lv_arc.c ****     LV_ASSERT_OBJ(obj, MY_CLASS);
 2457              		.loc 1 287 0
 2458              		.cfi_startproc
 2459              		@ args = 0, pretend = 0, frame = 0
 2460              		@ frame_needed = 0, uses_anonymous_args = 0
 2461              		@ link register save eliminated.
 2462              	.LVL339:
 290:Drivers/lvgl/lvgl/src/widgets/lv_arc.c **** 
 2463              		.loc 1 290 0
 2464 0000 408D     		ldrh	r0, [r0, #42]
 2465              	.LVL340:
 2466 0002 7047     		bx	lr
 2467              		.cfi_endproc
 2468              	.LFE173:
 2470              		.section	.text.lv_arc_get_bg_angle_end,"ax",%progbits
 2471              		.align	1
 2472              		.global	lv_arc_get_bg_angle_end
 2473              		.syntax unified
 2474              		.thumb
 2475              		.thumb_func
 2476              		.fpu fpv5-d16
 2478              	lv_arc_get_bg_angle_end:
 2479              	.LFB174:
 293:Drivers/lvgl/lvgl/src/widgets/lv_arc.c ****     LV_ASSERT_OBJ(obj, MY_CLASS);
 2480              		.loc 1 293 0
 2481              		.cfi_startproc
 2482              		@ args = 0, pretend = 0, frame = 0
 2483              		@ frame_needed = 0, uses_anonymous_args = 0
 2484              		@ link register save eliminated.
 2485              	.LVL341:
 296:Drivers/lvgl/lvgl/src/widgets/lv_arc.c **** 
 2486              		.loc 1 296 0
 2487 0000 808D     		ldrh	r0, [r0, #44]
 2488              	.LVL342:
 2489 0002 7047     		bx	lr
ARM GAS  /tmp/ccD6LWGo.s 			page 72


 2490              		.cfi_endproc
 2491              	.LFE174:
 2493              		.section	.text.lv_arc_get_value,"ax",%progbits
 2494              		.align	1
 2495              		.global	lv_arc_get_value
 2496              		.syntax unified
 2497              		.thumb
 2498              		.thumb_func
 2499              		.fpu fpv5-d16
 2501              	lv_arc_get_value:
 2502              	.LFB175:
 299:Drivers/lvgl/lvgl/src/widgets/lv_arc.c ****     LV_ASSERT_OBJ(obj, MY_CLASS);
 2503              		.loc 1 299 0
 2504              		.cfi_startproc
 2505              		@ args = 0, pretend = 0, frame = 0
 2506              		@ frame_needed = 0, uses_anonymous_args = 0
 2507              		@ link register save eliminated.
 2508              	.LVL343:
 302:Drivers/lvgl/lvgl/src/widgets/lv_arc.c **** 
 2509              		.loc 1 302 0
 2510 0000 B0F92E00 		ldrsh	r0, [r0, #46]
 2511              	.LVL344:
 2512 0004 7047     		bx	lr
 2513              		.cfi_endproc
 2514              	.LFE175:
 2516              		.section	.text.lv_arc_event,"ax",%progbits
 2517              		.align	1
 2518              		.syntax unified
 2519              		.thumb
 2520              		.thumb_func
 2521              		.fpu fpv5-d16
 2523              	lv_arc_event:
 2524              	.LFB182:
 412:Drivers/lvgl/lvgl/src/widgets/lv_arc.c ****     LV_UNUSED(class_p);
 2525              		.loc 1 412 0
 2526              		.cfi_startproc
 2527              		@ args = 0, pretend = 0, frame = 16
 2528              		@ frame_needed = 0, uses_anonymous_args = 0
 2529              	.LVL345:
 2530 0000 2DE9F047 		push	{r4, r5, r6, r7, r8, r9, r10, lr}
 2531              	.LCFI41:
 2532              		.cfi_def_cfa_offset 32
 2533              		.cfi_offset 4, -32
 2534              		.cfi_offset 5, -28
 2535              		.cfi_offset 6, -24
 2536              		.cfi_offset 7, -20
 2537              		.cfi_offset 8, -16
 2538              		.cfi_offset 9, -12
 2539              		.cfi_offset 10, -8
 2540              		.cfi_offset 14, -4
 2541 0004 86B0     		sub	sp, sp, #24
 2542              	.LCFI42:
 2543              		.cfi_def_cfa_offset 56
 2544 0006 0C46     		mov	r4, r1
 418:Drivers/lvgl/lvgl/src/widgets/lv_arc.c ****     if(res != LV_RES_OK) return;
 2545              		.loc 1 418 0
 2546 0008 C348     		ldr	r0, .L208
ARM GAS  /tmp/ccD6LWGo.s 			page 73


 2547              	.LVL346:
 2548 000a FFF7FEFF 		bl	lv_obj_event_base
 2549              	.LVL347:
 419:Drivers/lvgl/lvgl/src/widgets/lv_arc.c **** 
 2550              		.loc 1 419 0
 2551 000e 0128     		cmp	r0, #1
 2552 0010 02D0     		beq	.L194
 2553              	.LVL348:
 2554              	.L163:
 613:Drivers/lvgl/lvgl/src/widgets/lv_arc.c **** 
 2555              		.loc 1 613 0
 2556 0012 06B0     		add	sp, sp, #24
 2557              	.LCFI43:
 2558              		.cfi_remember_state
 2559              		.cfi_def_cfa_offset 32
 2560              		@ sp needed
 2561 0014 BDE8F087 		pop	{r4, r5, r6, r7, r8, r9, r10, pc}
 2562              	.LVL349:
 2563              	.L194:
 2564              	.LCFI44:
 2565              		.cfi_restore_state
 421:Drivers/lvgl/lvgl/src/widgets/lv_arc.c ****     lv_obj_t * obj = lv_event_get_target(e);
 2566              		.loc 1 421 0
 2567 0018 2046     		mov	r0, r4
 2568              	.LVL350:
 2569 001a FFF7FEFF 		bl	lv_event_get_code
 2570              	.LVL351:
 2571 001e 0546     		mov	r5, r0
 2572              	.LVL352:
 422:Drivers/lvgl/lvgl/src/widgets/lv_arc.c ****     lv_arc_t * arc = (lv_arc_t *)lv_event_get_target(e);
 2573              		.loc 1 422 0
 2574 0020 2046     		mov	r0, r4
 2575 0022 FFF7FEFF 		bl	lv_event_get_target
 2576              	.LVL353:
 2577 0026 0646     		mov	r6, r0
 2578              	.LVL354:
 423:Drivers/lvgl/lvgl/src/widgets/lv_arc.c ****     if(code == LV_EVENT_PRESSING) {
 2579              		.loc 1 423 0
 2580 0028 2046     		mov	r0, r4
 2581              	.LVL355:
 2582 002a FFF7FEFF 		bl	lv_event_get_target
 2583              	.LVL356:
 2584 002e 0746     		mov	r7, r0
 2585              	.LVL357:
 424:Drivers/lvgl/lvgl/src/widgets/lv_arc.c ****         lv_indev_t * indev = lv_indev_get_act();
 2586              		.loc 1 424 0
 2587 0030 022D     		cmp	r5, #2
 2588 0032 13D0     		beq	.L195
 538:Drivers/lvgl/lvgl/src/widgets/lv_arc.c ****         arc->dragging = false;
 2589              		.loc 1 538 0
 2590 0034 032D     		cmp	r5, #3
 2591 0036 18BF     		it	ne
 2592 0038 082D     		cmpne	r5, #8
 2593 003a 00F02381 		beq	.L196
 550:Drivers/lvgl/lvgl/src/widgets/lv_arc.c ****         char c = *((char *)lv_event_get_param(e));
 2594              		.loc 1 550 0
 2595 003e 0D2D     		cmp	r5, #13
ARM GAS  /tmp/ccD6LWGo.s 			page 74


 2596 0040 00F03C81 		beq	.L197
 566:Drivers/lvgl/lvgl/src/widgets/lv_arc.c ****         lv_hit_test_info_t * info = lv_event_get_param(e);;
 2597              		.loc 1 566 0
 2598 0044 112D     		cmp	r5, #17
 2599 0046 00F06B81 		beq	.L198
 591:Drivers/lvgl/lvgl/src/widgets/lv_arc.c ****         lv_coord_t bg_left = lv_obj_get_style_pad_left(obj, LV_PART_MAIN);
 2600              		.loc 1 591 0
 2601 004a 132D     		cmp	r5, #19
 2602 004c 00F0B181 		beq	.L199
 610:Drivers/lvgl/lvgl/src/widgets/lv_arc.c ****         lv_arc_draw(e);
 2603              		.loc 1 610 0
 2604 0050 152D     		cmp	r5, #21
 2605 0052 DED1     		bne	.L163
 611:Drivers/lvgl/lvgl/src/widgets/lv_arc.c ****     }
 2606              		.loc 1 611 0
 2607 0054 2046     		mov	r0, r4
 2608              	.LVL358:
 2609 0056 FFF7FEFF 		bl	lv_arc_draw
 2610              	.LVL359:
 2611 005a DAE7     		b	.L163
 2612              	.LVL360:
 2613              	.L195:
 2614              	.LBB135:
 425:Drivers/lvgl/lvgl/src/widgets/lv_arc.c ****         if(indev == NULL) return;
 2615              		.loc 1 425 0
 2616 005c FFF7FEFF 		bl	lv_indev_get_act
 2617              	.LVL361:
 426:Drivers/lvgl/lvgl/src/widgets/lv_arc.c **** 
 2618              		.loc 1 426 0
 2619 0060 0446     		mov	r4, r0
 2620              	.LVL362:
 2621 0062 0028     		cmp	r0, #0
 2622 0064 D5D0     		beq	.L163
 429:Drivers/lvgl/lvgl/src/widgets/lv_arc.c ****         if(indev_type != LV_INDEV_TYPE_POINTER) return;
 2623              		.loc 1 429 0
 2624 0066 FFF7FEFF 		bl	lv_indev_get_type
 2625              	.LVL363:
 430:Drivers/lvgl/lvgl/src/widgets/lv_arc.c **** 
 2626              		.loc 1 430 0
 2627 006a 0128     		cmp	r0, #1
 2628 006c D1D1     		bne	.L163
 433:Drivers/lvgl/lvgl/src/widgets/lv_arc.c **** 
 2629              		.loc 1 433 0
 2630 006e 03A9     		add	r1, sp, #12
 2631 0070 2046     		mov	r0, r4
 2632              	.LVL364:
 2633 0072 FFF7FEFF 		bl	lv_indev_get_point
 2634              	.LVL365:
 438:Drivers/lvgl/lvgl/src/widgets/lv_arc.c **** 
 2635              		.loc 1 438 0
 2636 0076 0DF10A02 		add	r2, sp, #10
 2637 007a 04A9     		add	r1, sp, #16
 2638 007c 3046     		mov	r0, r6
 2639 007e FFF7FEFF 		bl	get_center
 2640              	.LVL366:
 440:Drivers/lvgl/lvgl/src/widgets/lv_arc.c ****         p.y -= center.y;
 2641              		.loc 1 440 0
ARM GAS  /tmp/ccD6LWGo.s 			page 75


 2642 0082 BDF81020 		ldrh	r2, [sp, #16]
 2643 0086 BDF80C30 		ldrh	r3, [sp, #12]
 2644 008a 9B1A     		subs	r3, r3, r2
 2645 008c ADF80C30 		strh	r3, [sp, #12]	@ movhi
 441:Drivers/lvgl/lvgl/src/widgets/lv_arc.c **** 
 2646              		.loc 1 441 0
 2647 0090 BDF81220 		ldrh	r2, [sp, #18]
 2648 0094 BDF80E30 		ldrh	r3, [sp, #14]
 2649 0098 9B1A     		subs	r3, r3, r2
 2650 009a ADF80E30 		strh	r3, [sp, #14]	@ movhi
 444:Drivers/lvgl/lvgl/src/widgets/lv_arc.c ****             lv_coord_t indic_width = lv_obj_get_style_arc_width(obj, LV_PART_INDICATOR);
 2651              		.loc 1 444 0
 2652 009e 97F83430 		ldrb	r3, [r7, #52]	@ zero_extendqisi2
 2653 00a2 13F0010F 		tst	r3, #1
 2654 00a6 49D0     		beq	.L200
 2655              	.LVL367:
 2656              	.L167:
 465:Drivers/lvgl/lvgl/src/widgets/lv_arc.c **** 
 2657              		.loc 1 465 0
 2658 00a8 97F83430 		ldrb	r3, [r7, #52]	@ zero_extendqisi2
 2659 00ac 13F0010F 		tst	r3, #1
 2660 00b0 AFD0     		beq	.L163
 468:Drivers/lvgl/lvgl/src/widgets/lv_arc.c **** 
 2661              		.loc 1 468 0
 2662 00b2 BDF90C10 		ldrsh	r1, [sp, #12]
 2663 00b6 19B9     		cbnz	r1, .L172
 468:Drivers/lvgl/lvgl/src/widgets/lv_arc.c **** 
 2664              		.loc 1 468 0 is_stmt 0 discriminator 1
 2665 00b8 BDF90E30 		ldrsh	r3, [sp, #14]
 2666 00bc 002B     		cmp	r3, #0
 2667 00be A8D0     		beq	.L163
 2668              	.L172:
 472:Drivers/lvgl/lvgl/src/widgets/lv_arc.c ****         if(arc->bg_angle_end < arc->bg_angle_start) {
 2669              		.loc 1 472 0 is_stmt 1
 2670 00c0 BB8D     		ldrh	r3, [r7, #44]
 2671 00c2 1DB2     		sxth	r5, r3
 2672              	.LVL368:
 473:Drivers/lvgl/lvgl/src/widgets/lv_arc.c ****             bg_end = arc->bg_angle_end + 360;
 2673              		.loc 1 473 0
 2674 00c4 7A8D     		ldrh	r2, [r7, #42]
 2675 00c6 9342     		cmp	r3, r2
 2676 00c8 02D2     		bcs	.L173
 474:Drivers/lvgl/lvgl/src/widgets/lv_arc.c ****         }
 2677              		.loc 1 474 0
 2678 00ca 03F5B473 		add	r3, r3, #360
 2679 00ce 1DB2     		sxth	r5, r3
 2680              	.LVL369:
 2681              	.L173:
 477:Drivers/lvgl/lvgl/src/widgets/lv_arc.c ****         angle -= arc->rotation;
 2682              		.loc 1 477 0
 2683 00d0 BDF90E00 		ldrsh	r0, [sp, #14]
 2684 00d4 FFF7FEFF 		bl	lv_atan2
 2685              	.LVL370:
 478:Drivers/lvgl/lvgl/src/widgets/lv_arc.c ****         angle -= arc->bg_angle_start;  /*Make the angle relative to the start angle*/
 2686              		.loc 1 478 0
 2687 00d8 BB8C     		ldrh	r3, [r7, #36]
 2688 00da C31A     		subs	r3, r0, r3
ARM GAS  /tmp/ccD6LWGo.s 			page 76


 2689 00dc 9BB2     		uxth	r3, r3
 2690              	.LVL371:
 479:Drivers/lvgl/lvgl/src/widgets/lv_arc.c **** 
 2691              		.loc 1 479 0
 2692 00de 7A8D     		ldrh	r2, [r7, #42]
 2693 00e0 9B1A     		subs	r3, r3, r2
 2694              	.LVL372:
 2695 00e2 9BB2     		uxth	r3, r3
 2696 00e4 19B2     		sxth	r1, r3
 2697              	.LVL373:
 481:Drivers/lvgl/lvgl/src/widgets/lv_arc.c **** 
 2698              		.loc 1 481 0
 2699 00e6 0029     		cmp	r1, #0
 2700 00e8 70DB     		blt	.L201
 2701              	.L174:
 483:Drivers/lvgl/lvgl/src/widgets/lv_arc.c **** 
 2702              		.loc 1 483 0
 2703 00ea AB1A     		subs	r3, r5, r2
 2704 00ec 1BB2     		sxth	r3, r3
 2705              	.LVL374:
 485:Drivers/lvgl/lvgl/src/widgets/lv_arc.c ****         int16_t delta_angle = angle - last_angle_rel;
 2706              		.loc 1 485 0
 2707 00ee BC8F     		ldrh	r4, [r7, #60]
 2708 00f0 A41A     		subs	r4, r4, r2
 2709 00f2 A4B2     		uxth	r4, r4
 2710              	.LVL375:
 486:Drivers/lvgl/lvgl/src/widgets/lv_arc.c **** 
 2711              		.loc 1 486 0
 2712 00f4 0A1B     		subs	r2, r1, r4
 2713 00f6 12B2     		sxth	r2, r2
 2714              	.LVL376:
 491:Drivers/lvgl/lvgl/src/widgets/lv_arc.c ****             if(arc->min_close) angle = 0;
 2715              		.loc 1 491 0
 2716 00f8 002A     		cmp	r2, #0
 2717 00fa B8BF     		it	lt
 2718 00fc 5242     		rsblt	r2, r2, #0
 2719              	.LVL377:
 2720 00fe B2F58C7F 		cmp	r2, #280
 2721 0102 67DD     		ble	.L175
 492:Drivers/lvgl/lvgl/src/widgets/lv_arc.c ****             else angle = deg_range;
 2722              		.loc 1 492 0
 2723 0104 97F83420 		ldrb	r2, [r7, #52]	@ zero_extendqisi2
 2724 0108 12F0080F 		tst	r2, #8
 2725 010c 00D0     		beq	.L176
 2726 010e 0023     		movs	r3, #0
 2727              	.LVL378:
 2728              	.L176:
 501:Drivers/lvgl/lvgl/src/widgets/lv_arc.c ****         uint32_t delta_tick = lv_tick_elaps(arc->last_tick);
 2729              		.loc 1 501 0
 2730 0110 1B1B     		subs	r3, r3, r4
 2731              	.LVL379:
 2732 0112 0FFA83F8 		sxth	r8, r3
 2733              	.LVL380:
 502:Drivers/lvgl/lvgl/src/widgets/lv_arc.c ****         int16_t delta_angle_max = (arc->chg_rate * delta_tick) / 1000;
 2734              		.loc 1 502 0
 2735 0116 B86B     		ldr	r0, [r7, #56]
 2736 0118 FFF7FEFF 		bl	lv_tick_elaps
ARM GAS  /tmp/ccD6LWGo.s 			page 77


 2737              	.LVL381:
 503:Drivers/lvgl/lvgl/src/widgets/lv_arc.c **** 
 2738              		.loc 1 503 0
 2739 011c FB8E     		ldrh	r3, [r7, #54]
 2740 011e 00FB03F3 		mul	r3, r0, r3
 2741 0122 7E4A     		ldr	r2, .L208+4
 2742 0124 A2FB0323 		umull	r2, r3, r2, r3
 2743 0128 9B09     		lsrs	r3, r3, #6
 2744 012a 18B2     		sxth	r0, r3
 2745              	.LVL382:
 505:Drivers/lvgl/lvgl/src/widgets/lv_arc.c ****             delta_angle = delta_angle_max;
 2746              		.loc 1 505 0
 2747 012c 8045     		cmp	r8, r0
 2748 012e 6BDC     		bgt	.L179
 508:Drivers/lvgl/lvgl/src/widgets/lv_arc.c ****             delta_angle = -delta_angle_max;
 2749              		.loc 1 508 0
 2750 0130 4042     		negs	r0, r0
 2751              	.LVL383:
 2752 0132 8045     		cmp	r8, r0
 2753 0134 67DA     		bge	.L191
 509:Drivers/lvgl/lvgl/src/widgets/lv_arc.c ****         }
 2754              		.loc 1 509 0
 2755 0136 5B42     		negs	r3, r3
 2756 0138 18B2     		sxth	r0, r3
 2757              	.LVL384:
 2758 013a 65E0     		b	.L179
 2759              	.LVL385:
 2760              	.L200:
 2761              	.LBB136:
 2762              	.LBB137:
 2763              	.LBB138:
 411:Drivers/lvgl/lvgl/src/widgets/../core/lv_obj_style_gen.h ****     return (lv_coord_t)v.num;
 2764              		.loc 2 411 0
 2765 013c 5022     		movs	r2, #80
 2766 013e 4FF40031 		mov	r1, #131072
 2767 0142 3046     		mov	r0, r6
 2768 0144 FFF7FEFF 		bl	lv_obj_get_style_prop
 2769              	.LVL386:
 412:Drivers/lvgl/lvgl/src/widgets/../core/lv_obj_style_gen.h **** }
 2770              		.loc 2 412 0
 2771 0148 05B2     		sxth	r5, r0
 2772              	.LVL387:
 2773              	.LBE138:
 2774              	.LBE137:
 446:Drivers/lvgl/lvgl/src/widgets/lv_arc.c ****             /*Add some more sensitive area if there is no advanced git testing.
 2775              		.loc 1 446 0
 2776 014a 84B2     		uxth	r4, r0
 2777              	.LVL388:
 2778 014c BDF80A30 		ldrh	r3, [sp, #10]
 2779 0150 1B1B     		subs	r3, r3, r4
 2780 0152 ADF80A30 		strh	r3, [sp, #10]	@ movhi
 449:Drivers/lvgl/lvgl/src/widgets/lv_arc.c ****                 r -= indic_width;
 2781              		.loc 1 449 0
 2782 0156 4FF48031 		mov	r1, #65536
 2783 015a 3046     		mov	r0, r6
 2784 015c FFF7FEFF 		bl	lv_obj_has_flag
 2785              	.LVL389:
ARM GAS  /tmp/ccD6LWGo.s 			page 78


 2786 0160 00B3     		cbz	r0, .L168
 450:Drivers/lvgl/lvgl/src/widgets/lv_arc.c **** 
 2787              		.loc 1 450 0
 2788 0162 BDF80A00 		ldrh	r0, [sp, #10]
 2789 0166 001B     		subs	r0, r0, r4
 2790 0168 ADF80A00 		strh	r0, [sp, #10]	@ movhi
 2791              	.L169:
 456:Drivers/lvgl/lvgl/src/widgets/lv_arc.c **** 
 2792              		.loc 1 456 0
 2793 016c BDF90A30 		ldrsh	r3, [sp, #10]
 2794 0170 002B     		cmp	r3, #0
 2795 0172 27DD     		ble	.L202
 2796              	.L171:
 458:Drivers/lvgl/lvgl/src/widgets/lv_arc.c ****                 arc->dragging = true;
 2797              		.loc 1 458 0
 2798 0174 BDF90C30 		ldrsh	r3, [sp, #12]
 2799 0178 BDF90E20 		ldrsh	r2, [sp, #14]
 2800 017c 02FB02F2 		mul	r2, r2, r2
 2801 0180 03FB0322 		mla	r2, r3, r3, r2
 2802 0184 BDF90A30 		ldrsh	r3, [sp, #10]
 2803 0188 03FB03F3 		mul	r3, r3, r3
 2804 018c 9A42     		cmp	r2, r3
 2805 018e 8BDD     		ble	.L167
 459:Drivers/lvgl/lvgl/src/widgets/lv_arc.c ****                 arc->last_tick = lv_tick_get(); /*Capture timestamp at dragging start*/
 2806              		.loc 1 459 0
 2807 0190 97F83430 		ldrb	r3, [r7, #52]	@ zero_extendqisi2
 2808 0194 43F00103 		orr	r3, r3, #1
 2809 0198 87F83430 		strb	r3, [r7, #52]
 460:Drivers/lvgl/lvgl/src/widgets/lv_arc.c ****             }
 2810              		.loc 1 460 0
 2811 019c FFF7FEFF 		bl	lv_tick_get
 2812              	.LVL390:
 2813 01a0 B863     		str	r0, [r7, #56]
 2814 01a2 81E7     		b	.L167
 2815              	.L168:
 454:Drivers/lvgl/lvgl/src/widgets/lv_arc.c ****             }
 2816              		.loc 1 454 0
 2817 01a4 BDF90A20 		ldrsh	r2, [sp, #10]
 2818 01a8 1346     		mov	r3, r2
 2819 01aa 002A     		cmp	r2, #0
 2820 01ac 08DB     		blt	.L203
 2821              	.L170:
 2822 01ae 9B10     		asrs	r3, r3, #2
 2823 01b0 AB42     		cmp	r3, r5
 2824 01b2 B8BF     		it	lt
 2825 01b4 2B46     		movlt	r3, r5
 2826 01b6 9BB2     		uxth	r3, r3
 2827 01b8 D31A     		subs	r3, r2, r3
 2828 01ba ADF80A30 		strh	r3, [sp, #10]	@ movhi
 2829 01be D5E7     		b	.L169
 2830              	.L203:
 2831 01c0 D31C     		adds	r3, r2, #3
 2832 01c2 F4E7     		b	.L170
 2833              	.L202:
 456:Drivers/lvgl/lvgl/src/widgets/lv_arc.c **** 
 2834              		.loc 1 456 0 discriminator 1
 2835 01c4 0123     		movs	r3, #1
ARM GAS  /tmp/ccD6LWGo.s 			page 79


 2836 01c6 ADF80A30 		strh	r3, [sp, #10]	@ movhi
 2837 01ca D3E7     		b	.L171
 2838              	.LVL391:
 2839              	.L201:
 2840              	.LBE136:
 481:Drivers/lvgl/lvgl/src/widgets/lv_arc.c **** 
 2841              		.loc 1 481 0 discriminator 1
 2842 01cc 03F5B473 		add	r3, r3, #360
 2843 01d0 19B2     		sxth	r1, r3
 2844              	.LVL392:
 2845 01d2 8AE7     		b	.L174
 2846              	.LVL393:
 2847              	.L175:
 496:Drivers/lvgl/lvgl/src/widgets/lv_arc.c ****             else arc->min_close = 0;
 2848              		.loc 1 496 0
 2849 01d4 1A46     		mov	r2, r3
 2850 01d6 002B     		cmp	r3, #0
 2851 01d8 0BDB     		blt	.L204
 2852              	.L177:
 2853 01da 42F34F02 		sbfx	r2, r2, #1, #16
 2854 01de 8A42     		cmp	r2, r1
 2855 01e0 09DD     		ble	.L178
 496:Drivers/lvgl/lvgl/src/widgets/lv_arc.c ****             else arc->min_close = 0;
 2856              		.loc 1 496 0 is_stmt 0 discriminator 1
 2857 01e2 97F83430 		ldrb	r3, [r7, #52]	@ zero_extendqisi2
 2858              	.LVL394:
 2859 01e6 43F00803 		orr	r3, r3, #8
 2860 01ea 87F83430 		strb	r3, [r7, #52]
 2861 01ee 0B46     		mov	r3, r1
 2862 01f0 8EE7     		b	.L176
 2863              	.LVL395:
 2864              	.L204:
 496:Drivers/lvgl/lvgl/src/widgets/lv_arc.c ****             else arc->min_close = 0;
 2865              		.loc 1 496 0
 2866 01f2 5A1C     		adds	r2, r3, #1
 2867 01f4 F1E7     		b	.L177
 2868              	.L178:
 497:Drivers/lvgl/lvgl/src/widgets/lv_arc.c ****         }
 2869              		.loc 1 497 0 is_stmt 1
 2870 01f6 97F83430 		ldrb	r3, [r7, #52]	@ zero_extendqisi2
 2871              	.LVL396:
 2872 01fa 6FF3C303 		bfc	r3, #3, #1
 2873 01fe 87F83430 		strb	r3, [r7, #52]
 2874 0202 0B46     		mov	r3, r1
 2875 0204 84E7     		b	.L176
 2876              	.LVL397:
 2877              	.L191:
 501:Drivers/lvgl/lvgl/src/widgets/lv_arc.c ****         uint32_t delta_tick = lv_tick_elaps(arc->last_tick);
 2878              		.loc 1 501 0
 2879 0206 4046     		mov	r0, r8
 2880              	.LVL398:
 2881              	.L179:
 512:Drivers/lvgl/lvgl/src/widgets/lv_arc.c **** 
 2882              		.loc 1 512 0
 2883 0208 2044     		add	r0, r0, r4
 2884              	.LVL399:
 515:Drivers/lvgl/lvgl/src/widgets/lv_arc.c ****         round = (round + 4) >> 4;
ARM GAS  /tmp/ccD6LWGo.s 			page 80


 2885              		.loc 1 515 0
 2886 020a 798D     		ldrh	r1, [r7, #42]
 2887 020c 6A1A     		subs	r2, r5, r1
 2888 020e D200     		lsls	r2, r2, #3
 2889 0210 B7F93240 		ldrsh	r4, [r7, #50]
 2890              	.LVL400:
 2891 0214 B7F93030 		ldrsh	r3, [r7, #48]
 2892 0218 A4EB030C 		sub	ip, r4, r3
 2893 021c 92FBFCF2 		sdiv	r2, r2, ip
 2894              	.LVL401:
 516:Drivers/lvgl/lvgl/src/widgets/lv_arc.c ****         angle += round;
 2895              		.loc 1 516 0
 2896 0220 0432     		adds	r2, r2, #4
 2897              	.LVL402:
 2898 0222 1211     		asrs	r2, r2, #4
 2899              	.LVL403:
 517:Drivers/lvgl/lvgl/src/widgets/lv_arc.c **** 
 2900              		.loc 1 517 0
 2901 0224 12FA80F0 		uxtah	r0, r2, r0
 2902              	.LVL404:
 519:Drivers/lvgl/lvgl/src/widgets/lv_arc.c **** 
 2903              		.loc 1 519 0
 2904 0228 11FA80F0 		uxtah	r0, r1, r0
 2905              	.LVL405:
 522:Drivers/lvgl/lvgl/src/widgets/lv_arc.c ****         int16_t new_value = lv_map(angle, arc->bg_angle_start, bg_end, arc->min_value, arc->max_val
 2906              		.loc 1 522 0
 2907 022c B7F92E80 		ldrsh	r8, [r7, #46]
 2908              	.LVL406:
 523:Drivers/lvgl/lvgl/src/widgets/lv_arc.c ****         if(new_value != lv_arc_get_value(obj)) {
 2909              		.loc 1 523 0
 2910 0230 0094     		str	r4, [sp]
 2911 0232 2A46     		mov	r2, r5
 2912              	.LVL407:
 2913 0234 00B2     		sxth	r0, r0
 2914 0236 FFF7FEFF 		bl	lv_map
 2915              	.LVL408:
 2916 023a 04B2     		sxth	r4, r0
 2917              	.LVL409:
 524:Drivers/lvgl/lvgl/src/widgets/lv_arc.c ****             arc->last_tick = lv_tick_get(); /*Cache timestamp for the next iteration*/
 2918              		.loc 1 524 0
 2919 023c 3046     		mov	r0, r6
 2920 023e FFF7FEFF 		bl	lv_arc_get_value
 2921              	.LVL410:
 2922 0242 A042     		cmp	r0, r4
 2923 0244 0CD1     		bne	.L205
 2924              	.L180:
 534:Drivers/lvgl/lvgl/src/widgets/lv_arc.c ****             arc->last_tick = lv_tick_get(); /*Cache timestamp for the next iteration*/
 2925              		.loc 1 534 0
 2926 0246 B7F93030 		ldrsh	r3, [r7, #48]
 2927 024a A342     		cmp	r3, r4
 2928 024c 04D0     		beq	.L181
 534:Drivers/lvgl/lvgl/src/widgets/lv_arc.c ****             arc->last_tick = lv_tick_get(); /*Cache timestamp for the next iteration*/
 2929              		.loc 1 534 0 is_stmt 0 discriminator 1
 2930 024e B7F93230 		ldrsh	r3, [r7, #50]
 2931 0252 A342     		cmp	r3, r4
 2932 0254 7FF4DDAE 		bne	.L163
 2933              	.L181:
ARM GAS  /tmp/ccD6LWGo.s 			page 81


 535:Drivers/lvgl/lvgl/src/widgets/lv_arc.c ****         }
 2934              		.loc 1 535 0 is_stmt 1
 2935 0258 FFF7FEFF 		bl	lv_tick_get
 2936              	.LVL411:
 2937 025c B863     		str	r0, [r7, #56]
 2938 025e D8E6     		b	.L163
 2939              	.L205:
 525:Drivers/lvgl/lvgl/src/widgets/lv_arc.c ****             lv_arc_set_value(obj, new_value); /*set_value caches the last_angle for the next iterat
 2940              		.loc 1 525 0
 2941 0260 FFF7FEFF 		bl	lv_tick_get
 2942              	.LVL412:
