ARM GAS  /tmp/ccd9EMp8.s 			page 1


   1              		.cpu cortex-m7
   2              		.eabi_attribute 28, 1
   3              		.eabi_attribute 20, 1
   4              		.eabi_attribute 21, 1
   5              		.eabi_attribute 23, 3
   6              		.eabi_attribute 24, 1
   7              		.eabi_attribute 25, 1
   8              		.eabi_attribute 26, 1
   9              		.eabi_attribute 30, 1
  10              		.eabi_attribute 34, 1
  11              		.eabi_attribute 18, 4
  12              		.file	"lv_bar.c"
  13              		.text
  14              	.Ltext0:
  15              		.cfi_sections	.debug_frame
  16              		.section	.text.lv_area_get_width,"ax",%progbits
  17              		.align	1
  18              		.syntax unified
  19              		.thumb
  20              		.thumb_func
  21              		.fpu fpv5-d16
  23              	lv_area_get_width:
  24              	.LFB1:
  25              		.file 1 "Drivers/lvgl/lvgl/src/widgets/../core/../misc/../font/../misc/lv_area.h"
   1:Drivers/lvgl/lvgl/src/widgets/../core/../misc/../font/../misc/lv_area.h **** /**
   2:Drivers/lvgl/lvgl/src/widgets/../core/../misc/../font/../misc/lv_area.h ****  * @file lv_area.h
   3:Drivers/lvgl/lvgl/src/widgets/../core/../misc/../font/../misc/lv_area.h ****  *
   4:Drivers/lvgl/lvgl/src/widgets/../core/../misc/../font/../misc/lv_area.h ****  */
   5:Drivers/lvgl/lvgl/src/widgets/../core/../misc/../font/../misc/lv_area.h **** 
   6:Drivers/lvgl/lvgl/src/widgets/../core/../misc/../font/../misc/lv_area.h **** #ifndef LV_AREA_H
   7:Drivers/lvgl/lvgl/src/widgets/../core/../misc/../font/../misc/lv_area.h **** #define LV_AREA_H
   8:Drivers/lvgl/lvgl/src/widgets/../core/../misc/../font/../misc/lv_area.h **** 
   9:Drivers/lvgl/lvgl/src/widgets/../core/../misc/../font/../misc/lv_area.h **** #ifdef __cplusplus
  10:Drivers/lvgl/lvgl/src/widgets/../core/../misc/../font/../misc/lv_area.h **** extern "C" {
  11:Drivers/lvgl/lvgl/src/widgets/../core/../misc/../font/../misc/lv_area.h **** #endif
  12:Drivers/lvgl/lvgl/src/widgets/../core/../misc/../font/../misc/lv_area.h **** 
  13:Drivers/lvgl/lvgl/src/widgets/../core/../misc/../font/../misc/lv_area.h **** /*********************
  14:Drivers/lvgl/lvgl/src/widgets/../core/../misc/../font/../misc/lv_area.h ****  *      INCLUDES
  15:Drivers/lvgl/lvgl/src/widgets/../core/../misc/../font/../misc/lv_area.h ****  *********************/
  16:Drivers/lvgl/lvgl/src/widgets/../core/../misc/../font/../misc/lv_area.h **** #include "../lv_conf_internal.h"
  17:Drivers/lvgl/lvgl/src/widgets/../core/../misc/../font/../misc/lv_area.h **** #include <stdbool.h>
  18:Drivers/lvgl/lvgl/src/widgets/../core/../misc/../font/../misc/lv_area.h **** #include <stdint.h>
  19:Drivers/lvgl/lvgl/src/widgets/../core/../misc/../font/../misc/lv_area.h **** 
  20:Drivers/lvgl/lvgl/src/widgets/../core/../misc/../font/../misc/lv_area.h **** /*********************
  21:Drivers/lvgl/lvgl/src/widgets/../core/../misc/../font/../misc/lv_area.h ****  *      DEFINES
  22:Drivers/lvgl/lvgl/src/widgets/../core/../misc/../font/../misc/lv_area.h ****  *********************/
  23:Drivers/lvgl/lvgl/src/widgets/../core/../misc/../font/../misc/lv_area.h **** 
  24:Drivers/lvgl/lvgl/src/widgets/../core/../misc/../font/../misc/lv_area.h **** #if LV_USE_LARGE_COORD
  25:Drivers/lvgl/lvgl/src/widgets/../core/../misc/../font/../misc/lv_area.h **** typedef int32_t lv_coord_t;
  26:Drivers/lvgl/lvgl/src/widgets/../core/../misc/../font/../misc/lv_area.h **** #else
  27:Drivers/lvgl/lvgl/src/widgets/../core/../misc/../font/../misc/lv_area.h **** typedef int16_t lv_coord_t;
  28:Drivers/lvgl/lvgl/src/widgets/../core/../misc/../font/../misc/lv_area.h **** #endif
  29:Drivers/lvgl/lvgl/src/widgets/../core/../misc/../font/../misc/lv_area.h **** 
  30:Drivers/lvgl/lvgl/src/widgets/../core/../misc/../font/../misc/lv_area.h **** /**********************
  31:Drivers/lvgl/lvgl/src/widgets/../core/../misc/../font/../misc/lv_area.h ****  *      TYPEDEFS
  32:Drivers/lvgl/lvgl/src/widgets/../core/../misc/../font/../misc/lv_area.h ****  **********************/
  33:Drivers/lvgl/lvgl/src/widgets/../core/../misc/../font/../misc/lv_area.h **** 
ARM GAS  /tmp/ccd9EMp8.s 			page 2


  34:Drivers/lvgl/lvgl/src/widgets/../core/../misc/../font/../misc/lv_area.h **** /**
  35:Drivers/lvgl/lvgl/src/widgets/../core/../misc/../font/../misc/lv_area.h ****  * Represents a point on the screen.
  36:Drivers/lvgl/lvgl/src/widgets/../core/../misc/../font/../misc/lv_area.h ****  */
  37:Drivers/lvgl/lvgl/src/widgets/../core/../misc/../font/../misc/lv_area.h **** typedef struct {
  38:Drivers/lvgl/lvgl/src/widgets/../core/../misc/../font/../misc/lv_area.h ****     lv_coord_t x;
  39:Drivers/lvgl/lvgl/src/widgets/../core/../misc/../font/../misc/lv_area.h ****     lv_coord_t y;
  40:Drivers/lvgl/lvgl/src/widgets/../core/../misc/../font/../misc/lv_area.h **** } lv_point_t;
  41:Drivers/lvgl/lvgl/src/widgets/../core/../misc/../font/../misc/lv_area.h **** 
  42:Drivers/lvgl/lvgl/src/widgets/../core/../misc/../font/../misc/lv_area.h **** /** Represents an area of the screen.*/
  43:Drivers/lvgl/lvgl/src/widgets/../core/../misc/../font/../misc/lv_area.h **** typedef struct {
  44:Drivers/lvgl/lvgl/src/widgets/../core/../misc/../font/../misc/lv_area.h ****     lv_coord_t x1;
  45:Drivers/lvgl/lvgl/src/widgets/../core/../misc/../font/../misc/lv_area.h ****     lv_coord_t y1;
  46:Drivers/lvgl/lvgl/src/widgets/../core/../misc/../font/../misc/lv_area.h ****     lv_coord_t x2;
  47:Drivers/lvgl/lvgl/src/widgets/../core/../misc/../font/../misc/lv_area.h ****     lv_coord_t y2;
  48:Drivers/lvgl/lvgl/src/widgets/../core/../misc/../font/../misc/lv_area.h **** } lv_area_t;
  49:Drivers/lvgl/lvgl/src/widgets/../core/../misc/../font/../misc/lv_area.h **** 
  50:Drivers/lvgl/lvgl/src/widgets/../core/../misc/../font/../misc/lv_area.h **** /** Alignments*/
  51:Drivers/lvgl/lvgl/src/widgets/../core/../misc/../font/../misc/lv_area.h **** enum {
  52:Drivers/lvgl/lvgl/src/widgets/../core/../misc/../font/../misc/lv_area.h ****     LV_ALIGN_DEFAULT = 0,
  53:Drivers/lvgl/lvgl/src/widgets/../core/../misc/../font/../misc/lv_area.h ****     LV_ALIGN_TOP_LEFT,
  54:Drivers/lvgl/lvgl/src/widgets/../core/../misc/../font/../misc/lv_area.h ****     LV_ALIGN_TOP_MID,
  55:Drivers/lvgl/lvgl/src/widgets/../core/../misc/../font/../misc/lv_area.h ****     LV_ALIGN_TOP_RIGHT,
  56:Drivers/lvgl/lvgl/src/widgets/../core/../misc/../font/../misc/lv_area.h ****     LV_ALIGN_BOTTOM_LEFT,
  57:Drivers/lvgl/lvgl/src/widgets/../core/../misc/../font/../misc/lv_area.h ****     LV_ALIGN_BOTTOM_MID,
  58:Drivers/lvgl/lvgl/src/widgets/../core/../misc/../font/../misc/lv_area.h ****     LV_ALIGN_BOTTOM_RIGHT,
  59:Drivers/lvgl/lvgl/src/widgets/../core/../misc/../font/../misc/lv_area.h ****     LV_ALIGN_LEFT_MID,
  60:Drivers/lvgl/lvgl/src/widgets/../core/../misc/../font/../misc/lv_area.h ****     LV_ALIGN_RIGHT_MID,
  61:Drivers/lvgl/lvgl/src/widgets/../core/../misc/../font/../misc/lv_area.h ****     LV_ALIGN_CENTER,
  62:Drivers/lvgl/lvgl/src/widgets/../core/../misc/../font/../misc/lv_area.h **** 
  63:Drivers/lvgl/lvgl/src/widgets/../core/../misc/../font/../misc/lv_area.h ****     LV_ALIGN_OUT_TOP_LEFT,
  64:Drivers/lvgl/lvgl/src/widgets/../core/../misc/../font/../misc/lv_area.h ****     LV_ALIGN_OUT_TOP_MID,
  65:Drivers/lvgl/lvgl/src/widgets/../core/../misc/../font/../misc/lv_area.h ****     LV_ALIGN_OUT_TOP_RIGHT,
  66:Drivers/lvgl/lvgl/src/widgets/../core/../misc/../font/../misc/lv_area.h ****     LV_ALIGN_OUT_BOTTOM_LEFT,
  67:Drivers/lvgl/lvgl/src/widgets/../core/../misc/../font/../misc/lv_area.h ****     LV_ALIGN_OUT_BOTTOM_MID,
  68:Drivers/lvgl/lvgl/src/widgets/../core/../misc/../font/../misc/lv_area.h ****     LV_ALIGN_OUT_BOTTOM_RIGHT,
  69:Drivers/lvgl/lvgl/src/widgets/../core/../misc/../font/../misc/lv_area.h ****     LV_ALIGN_OUT_LEFT_TOP,
  70:Drivers/lvgl/lvgl/src/widgets/../core/../misc/../font/../misc/lv_area.h ****     LV_ALIGN_OUT_LEFT_MID,
  71:Drivers/lvgl/lvgl/src/widgets/../core/../misc/../font/../misc/lv_area.h ****     LV_ALIGN_OUT_LEFT_BOTTOM,
  72:Drivers/lvgl/lvgl/src/widgets/../core/../misc/../font/../misc/lv_area.h ****     LV_ALIGN_OUT_RIGHT_TOP,
  73:Drivers/lvgl/lvgl/src/widgets/../core/../misc/../font/../misc/lv_area.h ****     LV_ALIGN_OUT_RIGHT_MID,
  74:Drivers/lvgl/lvgl/src/widgets/../core/../misc/../font/../misc/lv_area.h ****     LV_ALIGN_OUT_RIGHT_BOTTOM,
  75:Drivers/lvgl/lvgl/src/widgets/../core/../misc/../font/../misc/lv_area.h **** };
  76:Drivers/lvgl/lvgl/src/widgets/../core/../misc/../font/../misc/lv_area.h **** typedef uint8_t lv_align_t;
  77:Drivers/lvgl/lvgl/src/widgets/../core/../misc/../font/../misc/lv_area.h **** 
  78:Drivers/lvgl/lvgl/src/widgets/../core/../misc/../font/../misc/lv_area.h **** enum {
  79:Drivers/lvgl/lvgl/src/widgets/../core/../misc/../font/../misc/lv_area.h ****     LV_DIR_NONE     = 0x00,
  80:Drivers/lvgl/lvgl/src/widgets/../core/../misc/../font/../misc/lv_area.h ****     LV_DIR_LEFT     = (1 << 0),
  81:Drivers/lvgl/lvgl/src/widgets/../core/../misc/../font/../misc/lv_area.h ****     LV_DIR_RIGHT    = (1 << 1),
  82:Drivers/lvgl/lvgl/src/widgets/../core/../misc/../font/../misc/lv_area.h ****     LV_DIR_TOP      = (1 << 2),
  83:Drivers/lvgl/lvgl/src/widgets/../core/../misc/../font/../misc/lv_area.h ****     LV_DIR_BOTTOM   = (1 << 3),
  84:Drivers/lvgl/lvgl/src/widgets/../core/../misc/../font/../misc/lv_area.h ****     LV_DIR_HOR      = LV_DIR_LEFT | LV_DIR_RIGHT,
  85:Drivers/lvgl/lvgl/src/widgets/../core/../misc/../font/../misc/lv_area.h ****     LV_DIR_VER      = LV_DIR_TOP | LV_DIR_BOTTOM,
  86:Drivers/lvgl/lvgl/src/widgets/../core/../misc/../font/../misc/lv_area.h ****     LV_DIR_ALL      = LV_DIR_HOR | LV_DIR_VER,
  87:Drivers/lvgl/lvgl/src/widgets/../core/../misc/../font/../misc/lv_area.h **** };
  88:Drivers/lvgl/lvgl/src/widgets/../core/../misc/../font/../misc/lv_area.h **** 
  89:Drivers/lvgl/lvgl/src/widgets/../core/../misc/../font/../misc/lv_area.h **** typedef uint8_t lv_dir_t;
  90:Drivers/lvgl/lvgl/src/widgets/../core/../misc/../font/../misc/lv_area.h **** 
ARM GAS  /tmp/ccd9EMp8.s 			page 3


  91:Drivers/lvgl/lvgl/src/widgets/../core/../misc/../font/../misc/lv_area.h **** /**********************
  92:Drivers/lvgl/lvgl/src/widgets/../core/../misc/../font/../misc/lv_area.h ****  * GLOBAL PROTOTYPES
  93:Drivers/lvgl/lvgl/src/widgets/../core/../misc/../font/../misc/lv_area.h ****  **********************/
  94:Drivers/lvgl/lvgl/src/widgets/../core/../misc/../font/../misc/lv_area.h **** 
  95:Drivers/lvgl/lvgl/src/widgets/../core/../misc/../font/../misc/lv_area.h **** /**
  96:Drivers/lvgl/lvgl/src/widgets/../core/../misc/../font/../misc/lv_area.h ****  * Initialize an area
  97:Drivers/lvgl/lvgl/src/widgets/../core/../misc/../font/../misc/lv_area.h ****  * @param area_p pointer to an area
  98:Drivers/lvgl/lvgl/src/widgets/../core/../misc/../font/../misc/lv_area.h ****  * @param x1 left coordinate of the area
  99:Drivers/lvgl/lvgl/src/widgets/../core/../misc/../font/../misc/lv_area.h ****  * @param y1 top coordinate of the area
 100:Drivers/lvgl/lvgl/src/widgets/../core/../misc/../font/../misc/lv_area.h ****  * @param x2 right coordinate of the area
 101:Drivers/lvgl/lvgl/src/widgets/../core/../misc/../font/../misc/lv_area.h ****  * @param y2 bottom coordinate of the area
 102:Drivers/lvgl/lvgl/src/widgets/../core/../misc/../font/../misc/lv_area.h ****  */
 103:Drivers/lvgl/lvgl/src/widgets/../core/../misc/../font/../misc/lv_area.h **** void lv_area_set(lv_area_t * area_p, lv_coord_t x1, lv_coord_t y1, lv_coord_t x2, lv_coord_t y2);
 104:Drivers/lvgl/lvgl/src/widgets/../core/../misc/../font/../misc/lv_area.h **** 
 105:Drivers/lvgl/lvgl/src/widgets/../core/../misc/../font/../misc/lv_area.h **** /**
 106:Drivers/lvgl/lvgl/src/widgets/../core/../misc/../font/../misc/lv_area.h ****  * Copy an area
 107:Drivers/lvgl/lvgl/src/widgets/../core/../misc/../font/../misc/lv_area.h ****  * @param dest pointer to the destination area
 108:Drivers/lvgl/lvgl/src/widgets/../core/../misc/../font/../misc/lv_area.h ****  * @param src pointer to the source area
 109:Drivers/lvgl/lvgl/src/widgets/../core/../misc/../font/../misc/lv_area.h ****  */
 110:Drivers/lvgl/lvgl/src/widgets/../core/../misc/../font/../misc/lv_area.h **** inline static void lv_area_copy(lv_area_t * dest, const lv_area_t * src)
 111:Drivers/lvgl/lvgl/src/widgets/../core/../misc/../font/../misc/lv_area.h **** {
 112:Drivers/lvgl/lvgl/src/widgets/../core/../misc/../font/../misc/lv_area.h ****     dest->x1 = src->x1;
 113:Drivers/lvgl/lvgl/src/widgets/../core/../misc/../font/../misc/lv_area.h ****     dest->y1 = src->y1;
 114:Drivers/lvgl/lvgl/src/widgets/../core/../misc/../font/../misc/lv_area.h ****     dest->x2 = src->x2;
 115:Drivers/lvgl/lvgl/src/widgets/../core/../misc/../font/../misc/lv_area.h ****     dest->y2 = src->y2;
 116:Drivers/lvgl/lvgl/src/widgets/../core/../misc/../font/../misc/lv_area.h **** }
 117:Drivers/lvgl/lvgl/src/widgets/../core/../misc/../font/../misc/lv_area.h **** 
 118:Drivers/lvgl/lvgl/src/widgets/../core/../misc/../font/../misc/lv_area.h **** /**
 119:Drivers/lvgl/lvgl/src/widgets/../core/../misc/../font/../misc/lv_area.h ****  * Get the width of an area
 120:Drivers/lvgl/lvgl/src/widgets/../core/../misc/../font/../misc/lv_area.h ****  * @param area_p pointer to an area
 121:Drivers/lvgl/lvgl/src/widgets/../core/../misc/../font/../misc/lv_area.h ****  * @return the width of the area (if x1 == x2 -> width = 1)
 122:Drivers/lvgl/lvgl/src/widgets/../core/../misc/../font/../misc/lv_area.h ****  */
 123:Drivers/lvgl/lvgl/src/widgets/../core/../misc/../font/../misc/lv_area.h **** static inline lv_coord_t lv_area_get_width(const lv_area_t * area_p)
 124:Drivers/lvgl/lvgl/src/widgets/../core/../misc/../font/../misc/lv_area.h **** {
  26              		.loc 1 124 0
  27              		.cfi_startproc
  28              		@ args = 0, pretend = 0, frame = 0
  29              		@ frame_needed = 0, uses_anonymous_args = 0
  30              		@ link register save eliminated.
  31              	.LVL0:
 125:Drivers/lvgl/lvgl/src/widgets/../core/../misc/../font/../misc/lv_area.h ****     return (lv_coord_t)(area_p->x2 - area_p->x1 + 1);
  32              		.loc 1 125 0
  33 0000 8388     		ldrh	r3, [r0, #4]
  34 0002 0088     		ldrh	r0, [r0]
  35              	.LVL1:
  36 0004 181A     		subs	r0, r3, r0
  37 0006 80B2     		uxth	r0, r0
  38 0008 0130     		adds	r0, r0, #1
 126:Drivers/lvgl/lvgl/src/widgets/../core/../misc/../font/../misc/lv_area.h **** }
  39              		.loc 1 126 0
  40 000a 00B2     		sxth	r0, r0
  41 000c 7047     		bx	lr
  42              		.cfi_endproc
  43              	.LFE1:
  45              		.section	.text.lv_area_get_height,"ax",%progbits
  46              		.align	1
  47              		.syntax unified
ARM GAS  /tmp/ccd9EMp8.s 			page 4


  48              		.thumb
  49              		.thumb_func
  50              		.fpu fpv5-d16
  52              	lv_area_get_height:
  53              	.LFB2:
 127:Drivers/lvgl/lvgl/src/widgets/../core/../misc/../font/../misc/lv_area.h **** 
 128:Drivers/lvgl/lvgl/src/widgets/../core/../misc/../font/../misc/lv_area.h **** /**
 129:Drivers/lvgl/lvgl/src/widgets/../core/../misc/../font/../misc/lv_area.h ****  * Get the height of an area
 130:Drivers/lvgl/lvgl/src/widgets/../core/../misc/../font/../misc/lv_area.h ****  * @param area_p pointer to an area
 131:Drivers/lvgl/lvgl/src/widgets/../core/../misc/../font/../misc/lv_area.h ****  * @return the height of the area (if y1 == y2 -> height = 1)
 132:Drivers/lvgl/lvgl/src/widgets/../core/../misc/../font/../misc/lv_area.h ****  */
 133:Drivers/lvgl/lvgl/src/widgets/../core/../misc/../font/../misc/lv_area.h **** static inline lv_coord_t lv_area_get_height(const lv_area_t * area_p)
 134:Drivers/lvgl/lvgl/src/widgets/../core/../misc/../font/../misc/lv_area.h **** {
  54              		.loc 1 134 0
  55              		.cfi_startproc
  56              		@ args = 0, pretend = 0, frame = 0
  57              		@ frame_needed = 0, uses_anonymous_args = 0
  58              		@ link register save eliminated.
  59              	.LVL2:
 135:Drivers/lvgl/lvgl/src/widgets/../core/../misc/../font/../misc/lv_area.h ****     return (lv_coord_t)(area_p->y2 - area_p->y1 + 1);
  60              		.loc 1 135 0
  61 0000 C388     		ldrh	r3, [r0, #6]
  62 0002 4088     		ldrh	r0, [r0, #2]
  63              	.LVL3:
  64 0004 181A     		subs	r0, r3, r0
  65 0006 80B2     		uxth	r0, r0
  66 0008 0130     		adds	r0, r0, #1
 136:Drivers/lvgl/lvgl/src/widgets/../core/../misc/../font/../misc/lv_area.h **** }
  67              		.loc 1 136 0
  68 000a 00B2     		sxth	r0, r0
  69 000c 7047     		bx	lr
  70              		.cfi_endproc
  71              	.LFE2:
  73              		.section	.text.lv_bar_init_anim,"ax",%progbits
  74              		.align	1
  75              		.syntax unified
  76              		.thumb
  77              		.thumb_func
  78              		.fpu fpv5-d16
  80              	lv_bar_init_anim:
  81              	.LFB176:
  82              		.file 2 "Drivers/lvgl/lvgl/src/widgets/lv_bar.c"
   1:Drivers/lvgl/lvgl/src/widgets/lv_bar.c **** /**
   2:Drivers/lvgl/lvgl/src/widgets/lv_bar.c ****  * @file lv_bar.c
   3:Drivers/lvgl/lvgl/src/widgets/lv_bar.c ****  *
   4:Drivers/lvgl/lvgl/src/widgets/lv_bar.c ****  */
   5:Drivers/lvgl/lvgl/src/widgets/lv_bar.c **** 
   6:Drivers/lvgl/lvgl/src/widgets/lv_bar.c **** /*********************
   7:Drivers/lvgl/lvgl/src/widgets/lv_bar.c ****  *      INCLUDES
   8:Drivers/lvgl/lvgl/src/widgets/lv_bar.c ****  *********************/
   9:Drivers/lvgl/lvgl/src/widgets/lv_bar.c **** #include "lv_bar.h"
  10:Drivers/lvgl/lvgl/src/widgets/lv_bar.c **** #if LV_USE_BAR != 0
  11:Drivers/lvgl/lvgl/src/widgets/lv_bar.c **** 
  12:Drivers/lvgl/lvgl/src/widgets/lv_bar.c **** #include "../misc/lv_assert.h"
  13:Drivers/lvgl/lvgl/src/widgets/lv_bar.c **** #include "../draw/lv_draw.h"
  14:Drivers/lvgl/lvgl/src/widgets/lv_bar.c **** #include "../misc/lv_anim.h"
  15:Drivers/lvgl/lvgl/src/widgets/lv_bar.c **** #include "../misc/lv_math.h"
ARM GAS  /tmp/ccd9EMp8.s 			page 5


  16:Drivers/lvgl/lvgl/src/widgets/lv_bar.c **** 
  17:Drivers/lvgl/lvgl/src/widgets/lv_bar.c **** /*********************
  18:Drivers/lvgl/lvgl/src/widgets/lv_bar.c ****  *      DEFINES
  19:Drivers/lvgl/lvgl/src/widgets/lv_bar.c ****  *********************/
  20:Drivers/lvgl/lvgl/src/widgets/lv_bar.c **** #define MY_CLASS &lv_bar_class
  21:Drivers/lvgl/lvgl/src/widgets/lv_bar.c **** 
  22:Drivers/lvgl/lvgl/src/widgets/lv_bar.c **** /** hor. pad and ver. pad cannot make the indicator smaller than this [px]*/
  23:Drivers/lvgl/lvgl/src/widgets/lv_bar.c **** #define LV_BAR_SIZE_MIN  4
  24:Drivers/lvgl/lvgl/src/widgets/lv_bar.c **** 
  25:Drivers/lvgl/lvgl/src/widgets/lv_bar.c **** #define LV_BAR_IS_ANIMATING(anim_struct) (((anim_struct).anim_state) != LV_BAR_ANIM_STATE_INV)
  26:Drivers/lvgl/lvgl/src/widgets/lv_bar.c **** #define LV_BAR_GET_ANIM_VALUE(orig_value, anim_struct) (LV_BAR_IS_ANIMATING(anim_struct) ? ((anim_s
  27:Drivers/lvgl/lvgl/src/widgets/lv_bar.c **** 
  28:Drivers/lvgl/lvgl/src/widgets/lv_bar.c **** /** Bar animation start value. (Not the real value of the Bar just indicates process animation)*/
  29:Drivers/lvgl/lvgl/src/widgets/lv_bar.c **** #define LV_BAR_ANIM_STATE_START 0
  30:Drivers/lvgl/lvgl/src/widgets/lv_bar.c **** 
  31:Drivers/lvgl/lvgl/src/widgets/lv_bar.c **** /** Bar animation end value.  (Not the real value of the Bar just indicates process animation)*/
  32:Drivers/lvgl/lvgl/src/widgets/lv_bar.c **** #define LV_BAR_ANIM_STATE_END   256
  33:Drivers/lvgl/lvgl/src/widgets/lv_bar.c **** 
  34:Drivers/lvgl/lvgl/src/widgets/lv_bar.c **** /** Mark no animation is in progress*/
  35:Drivers/lvgl/lvgl/src/widgets/lv_bar.c **** #define LV_BAR_ANIM_STATE_INV   -1
  36:Drivers/lvgl/lvgl/src/widgets/lv_bar.c **** 
  37:Drivers/lvgl/lvgl/src/widgets/lv_bar.c **** /** log2(LV_BAR_ANIM_STATE_END) used to normalize data*/
  38:Drivers/lvgl/lvgl/src/widgets/lv_bar.c **** #define LV_BAR_ANIM_STATE_NORM  8
  39:Drivers/lvgl/lvgl/src/widgets/lv_bar.c **** 
  40:Drivers/lvgl/lvgl/src/widgets/lv_bar.c **** /**********************
  41:Drivers/lvgl/lvgl/src/widgets/lv_bar.c ****  *      TYPEDEFS
  42:Drivers/lvgl/lvgl/src/widgets/lv_bar.c ****  **********************/
  43:Drivers/lvgl/lvgl/src/widgets/lv_bar.c **** 
  44:Drivers/lvgl/lvgl/src/widgets/lv_bar.c **** /**********************
  45:Drivers/lvgl/lvgl/src/widgets/lv_bar.c ****  *  STATIC PROTOTYPES
  46:Drivers/lvgl/lvgl/src/widgets/lv_bar.c ****  **********************/
  47:Drivers/lvgl/lvgl/src/widgets/lv_bar.c **** static void lv_bar_constructor(const lv_obj_class_t * class_p, lv_obj_t * obj);
  48:Drivers/lvgl/lvgl/src/widgets/lv_bar.c **** static void lv_bar_destructor(const lv_obj_class_t * class_p, lv_obj_t * obj);
  49:Drivers/lvgl/lvgl/src/widgets/lv_bar.c **** static void lv_bar_event(const lv_obj_class_t * class_p, lv_event_t * e);
  50:Drivers/lvgl/lvgl/src/widgets/lv_bar.c **** static void draw_indic(lv_event_t * e);
  51:Drivers/lvgl/lvgl/src/widgets/lv_bar.c **** static void lv_bar_set_value_with_anim(lv_obj_t * obj, int32_t new_value, int32_t * value_ptr,
  52:Drivers/lvgl/lvgl/src/widgets/lv_bar.c ****                                        _lv_bar_anim_t * anim_info, lv_anim_enable_t en);
  53:Drivers/lvgl/lvgl/src/widgets/lv_bar.c **** static void lv_bar_init_anim(lv_obj_t * bar, _lv_bar_anim_t * bar_anim);
  54:Drivers/lvgl/lvgl/src/widgets/lv_bar.c **** static void lv_bar_anim(void * bar, int32_t value);
  55:Drivers/lvgl/lvgl/src/widgets/lv_bar.c **** static void lv_bar_anim_ready(lv_anim_t * a);
  56:Drivers/lvgl/lvgl/src/widgets/lv_bar.c **** 
  57:Drivers/lvgl/lvgl/src/widgets/lv_bar.c **** /**********************
  58:Drivers/lvgl/lvgl/src/widgets/lv_bar.c ****  *  STATIC VARIABLES
  59:Drivers/lvgl/lvgl/src/widgets/lv_bar.c ****  **********************/
  60:Drivers/lvgl/lvgl/src/widgets/lv_bar.c **** const lv_obj_class_t lv_bar_class = {
  61:Drivers/lvgl/lvgl/src/widgets/lv_bar.c ****     .constructor_cb = lv_bar_constructor,
  62:Drivers/lvgl/lvgl/src/widgets/lv_bar.c ****     .destructor_cb = lv_bar_destructor,
  63:Drivers/lvgl/lvgl/src/widgets/lv_bar.c ****     .event_cb = lv_bar_event,
  64:Drivers/lvgl/lvgl/src/widgets/lv_bar.c ****     .width_def = LV_DPI_DEF * 2,
  65:Drivers/lvgl/lvgl/src/widgets/lv_bar.c ****     .height_def = LV_DPI_DEF / 10,
  66:Drivers/lvgl/lvgl/src/widgets/lv_bar.c ****     .instance_size = sizeof(lv_bar_t),
  67:Drivers/lvgl/lvgl/src/widgets/lv_bar.c ****     .base_class = &lv_obj_class
  68:Drivers/lvgl/lvgl/src/widgets/lv_bar.c **** };
  69:Drivers/lvgl/lvgl/src/widgets/lv_bar.c **** 
  70:Drivers/lvgl/lvgl/src/widgets/lv_bar.c **** /**********************
  71:Drivers/lvgl/lvgl/src/widgets/lv_bar.c ****  *      MACROS
  72:Drivers/lvgl/lvgl/src/widgets/lv_bar.c ****  **********************/
ARM GAS  /tmp/ccd9EMp8.s 			page 6


  73:Drivers/lvgl/lvgl/src/widgets/lv_bar.c **** 
  74:Drivers/lvgl/lvgl/src/widgets/lv_bar.c **** /**********************
  75:Drivers/lvgl/lvgl/src/widgets/lv_bar.c ****  *   GLOBAL FUNCTIONS
  76:Drivers/lvgl/lvgl/src/widgets/lv_bar.c ****  **********************/
  77:Drivers/lvgl/lvgl/src/widgets/lv_bar.c **** 
  78:Drivers/lvgl/lvgl/src/widgets/lv_bar.c **** lv_obj_t * lv_bar_create(lv_obj_t * parent)
  79:Drivers/lvgl/lvgl/src/widgets/lv_bar.c **** {
  80:Drivers/lvgl/lvgl/src/widgets/lv_bar.c ****     LV_LOG_INFO("begin");
  81:Drivers/lvgl/lvgl/src/widgets/lv_bar.c ****     lv_obj_t * obj = lv_obj_class_create_obj(MY_CLASS, parent);
  82:Drivers/lvgl/lvgl/src/widgets/lv_bar.c ****     lv_obj_class_init_obj(obj);
  83:Drivers/lvgl/lvgl/src/widgets/lv_bar.c ****     return obj;
  84:Drivers/lvgl/lvgl/src/widgets/lv_bar.c **** }
  85:Drivers/lvgl/lvgl/src/widgets/lv_bar.c **** 
  86:Drivers/lvgl/lvgl/src/widgets/lv_bar.c **** /*=====================
  87:Drivers/lvgl/lvgl/src/widgets/lv_bar.c ****  * Setter functions
  88:Drivers/lvgl/lvgl/src/widgets/lv_bar.c ****  *====================*/
  89:Drivers/lvgl/lvgl/src/widgets/lv_bar.c **** 
  90:Drivers/lvgl/lvgl/src/widgets/lv_bar.c **** void lv_bar_set_value(lv_obj_t * obj, int32_t value, lv_anim_enable_t anim)
  91:Drivers/lvgl/lvgl/src/widgets/lv_bar.c **** {
  92:Drivers/lvgl/lvgl/src/widgets/lv_bar.c ****     LV_ASSERT_OBJ(obj, MY_CLASS);
  93:Drivers/lvgl/lvgl/src/widgets/lv_bar.c ****     lv_bar_t * bar = (lv_bar_t *)obj;
  94:Drivers/lvgl/lvgl/src/widgets/lv_bar.c **** 
  95:Drivers/lvgl/lvgl/src/widgets/lv_bar.c ****     if(bar->cur_value == value) return;
  96:Drivers/lvgl/lvgl/src/widgets/lv_bar.c **** 
  97:Drivers/lvgl/lvgl/src/widgets/lv_bar.c ****     value = LV_CLAMP(bar->min_value, value, bar->max_value);
  98:Drivers/lvgl/lvgl/src/widgets/lv_bar.c ****     value = value < bar->start_value ? bar->start_value : value; /*Can't be smaller than the left v
  99:Drivers/lvgl/lvgl/src/widgets/lv_bar.c **** 
 100:Drivers/lvgl/lvgl/src/widgets/lv_bar.c ****     if(bar->cur_value == value) return;
 101:Drivers/lvgl/lvgl/src/widgets/lv_bar.c ****     lv_bar_set_value_with_anim(obj, value, &bar->cur_value, &bar->cur_value_anim, anim);
 102:Drivers/lvgl/lvgl/src/widgets/lv_bar.c **** }
 103:Drivers/lvgl/lvgl/src/widgets/lv_bar.c **** 
 104:Drivers/lvgl/lvgl/src/widgets/lv_bar.c **** void lv_bar_set_start_value(lv_obj_t * obj, int32_t value, lv_anim_enable_t anim)
 105:Drivers/lvgl/lvgl/src/widgets/lv_bar.c **** {
 106:Drivers/lvgl/lvgl/src/widgets/lv_bar.c ****     LV_ASSERT_OBJ(obj, MY_CLASS);
 107:Drivers/lvgl/lvgl/src/widgets/lv_bar.c **** 
 108:Drivers/lvgl/lvgl/src/widgets/lv_bar.c ****     lv_bar_t * bar = (lv_bar_t *)obj;
 109:Drivers/lvgl/lvgl/src/widgets/lv_bar.c **** 
 110:Drivers/lvgl/lvgl/src/widgets/lv_bar.c ****     if(bar->mode != LV_BAR_MODE_RANGE) {
 111:Drivers/lvgl/lvgl/src/widgets/lv_bar.c ****         return;
 112:Drivers/lvgl/lvgl/src/widgets/lv_bar.c ****     }
 113:Drivers/lvgl/lvgl/src/widgets/lv_bar.c **** 
 114:Drivers/lvgl/lvgl/src/widgets/lv_bar.c ****     value = LV_CLAMP(bar->min_value, value, bar->max_value);
 115:Drivers/lvgl/lvgl/src/widgets/lv_bar.c ****     value = value > bar->cur_value ? bar->cur_value : value; /*Can't be greater than the right valu
 116:Drivers/lvgl/lvgl/src/widgets/lv_bar.c **** 
 117:Drivers/lvgl/lvgl/src/widgets/lv_bar.c ****     if(bar->start_value == value) return;
 118:Drivers/lvgl/lvgl/src/widgets/lv_bar.c ****     lv_bar_set_value_with_anim(obj, value, &bar->start_value, &bar->start_value_anim, anim);
 119:Drivers/lvgl/lvgl/src/widgets/lv_bar.c **** }
 120:Drivers/lvgl/lvgl/src/widgets/lv_bar.c **** 
 121:Drivers/lvgl/lvgl/src/widgets/lv_bar.c **** void lv_bar_set_range(lv_obj_t * obj, int32_t min, int32_t max)
 122:Drivers/lvgl/lvgl/src/widgets/lv_bar.c **** {
 123:Drivers/lvgl/lvgl/src/widgets/lv_bar.c ****     LV_ASSERT_OBJ(obj, MY_CLASS);
 124:Drivers/lvgl/lvgl/src/widgets/lv_bar.c **** 
 125:Drivers/lvgl/lvgl/src/widgets/lv_bar.c ****     lv_bar_t * bar = (lv_bar_t *)obj;
 126:Drivers/lvgl/lvgl/src/widgets/lv_bar.c **** 
 127:Drivers/lvgl/lvgl/src/widgets/lv_bar.c ****     if(bar->min_value == min && bar->max_value == max) return;
 128:Drivers/lvgl/lvgl/src/widgets/lv_bar.c **** 
 129:Drivers/lvgl/lvgl/src/widgets/lv_bar.c ****     bar->max_value = max;
ARM GAS  /tmp/ccd9EMp8.s 			page 7


 130:Drivers/lvgl/lvgl/src/widgets/lv_bar.c ****     bar->min_value = min;
 131:Drivers/lvgl/lvgl/src/widgets/lv_bar.c **** 
 132:Drivers/lvgl/lvgl/src/widgets/lv_bar.c ****     if(lv_bar_get_mode(obj) != LV_BAR_MODE_RANGE)
 133:Drivers/lvgl/lvgl/src/widgets/lv_bar.c ****         bar->start_value = min;
 134:Drivers/lvgl/lvgl/src/widgets/lv_bar.c **** 
 135:Drivers/lvgl/lvgl/src/widgets/lv_bar.c ****     if(bar->cur_value > max) {
 136:Drivers/lvgl/lvgl/src/widgets/lv_bar.c ****         bar->cur_value = max;
 137:Drivers/lvgl/lvgl/src/widgets/lv_bar.c ****         lv_bar_set_value(obj, bar->cur_value, LV_ANIM_OFF);
 138:Drivers/lvgl/lvgl/src/widgets/lv_bar.c ****     }
 139:Drivers/lvgl/lvgl/src/widgets/lv_bar.c ****     if(bar->cur_value < min) {
 140:Drivers/lvgl/lvgl/src/widgets/lv_bar.c ****         bar->cur_value = min;
 141:Drivers/lvgl/lvgl/src/widgets/lv_bar.c ****         lv_bar_set_value(obj, bar->cur_value, LV_ANIM_OFF);
 142:Drivers/lvgl/lvgl/src/widgets/lv_bar.c ****     }
 143:Drivers/lvgl/lvgl/src/widgets/lv_bar.c ****     lv_obj_invalidate(obj);
 144:Drivers/lvgl/lvgl/src/widgets/lv_bar.c **** }
 145:Drivers/lvgl/lvgl/src/widgets/lv_bar.c **** 
 146:Drivers/lvgl/lvgl/src/widgets/lv_bar.c **** void lv_bar_set_mode(lv_obj_t * obj, lv_bar_mode_t mode)
 147:Drivers/lvgl/lvgl/src/widgets/lv_bar.c **** {
 148:Drivers/lvgl/lvgl/src/widgets/lv_bar.c ****     LV_ASSERT_OBJ(obj, MY_CLASS);
 149:Drivers/lvgl/lvgl/src/widgets/lv_bar.c ****     lv_bar_t * bar = (lv_bar_t *)obj;
 150:Drivers/lvgl/lvgl/src/widgets/lv_bar.c **** 
 151:Drivers/lvgl/lvgl/src/widgets/lv_bar.c ****     bar->mode = mode;
 152:Drivers/lvgl/lvgl/src/widgets/lv_bar.c ****     if(bar->mode != LV_BAR_MODE_RANGE) {
 153:Drivers/lvgl/lvgl/src/widgets/lv_bar.c ****         bar->start_value = bar->min_value;
 154:Drivers/lvgl/lvgl/src/widgets/lv_bar.c ****     }
 155:Drivers/lvgl/lvgl/src/widgets/lv_bar.c **** 
 156:Drivers/lvgl/lvgl/src/widgets/lv_bar.c ****     lv_obj_invalidate(obj);
 157:Drivers/lvgl/lvgl/src/widgets/lv_bar.c **** }
 158:Drivers/lvgl/lvgl/src/widgets/lv_bar.c **** 
 159:Drivers/lvgl/lvgl/src/widgets/lv_bar.c **** /*=====================
 160:Drivers/lvgl/lvgl/src/widgets/lv_bar.c ****  * Getter functions
 161:Drivers/lvgl/lvgl/src/widgets/lv_bar.c ****  *====================*/
 162:Drivers/lvgl/lvgl/src/widgets/lv_bar.c **** 
 163:Drivers/lvgl/lvgl/src/widgets/lv_bar.c **** int32_t lv_bar_get_value(const lv_obj_t * obj)
 164:Drivers/lvgl/lvgl/src/widgets/lv_bar.c **** {
 165:Drivers/lvgl/lvgl/src/widgets/lv_bar.c ****     LV_ASSERT_OBJ(obj, MY_CLASS);
 166:Drivers/lvgl/lvgl/src/widgets/lv_bar.c ****     lv_bar_t * bar = (lv_bar_t *)obj;
 167:Drivers/lvgl/lvgl/src/widgets/lv_bar.c **** 
 168:Drivers/lvgl/lvgl/src/widgets/lv_bar.c ****     return LV_BAR_GET_ANIM_VALUE(bar->cur_value, bar->cur_value_anim);
 169:Drivers/lvgl/lvgl/src/widgets/lv_bar.c **** }
 170:Drivers/lvgl/lvgl/src/widgets/lv_bar.c **** 
 171:Drivers/lvgl/lvgl/src/widgets/lv_bar.c **** int32_t lv_bar_get_start_value(const lv_obj_t * obj)
 172:Drivers/lvgl/lvgl/src/widgets/lv_bar.c **** {
 173:Drivers/lvgl/lvgl/src/widgets/lv_bar.c ****     LV_ASSERT_OBJ(obj, MY_CLASS);
 174:Drivers/lvgl/lvgl/src/widgets/lv_bar.c ****     lv_bar_t * bar = (lv_bar_t *)obj;
 175:Drivers/lvgl/lvgl/src/widgets/lv_bar.c **** 
 176:Drivers/lvgl/lvgl/src/widgets/lv_bar.c ****     if(bar->mode != LV_BAR_MODE_RANGE) return bar->min_value;
 177:Drivers/lvgl/lvgl/src/widgets/lv_bar.c **** 
 178:Drivers/lvgl/lvgl/src/widgets/lv_bar.c ****     return LV_BAR_GET_ANIM_VALUE(bar->start_value, bar->start_value_anim);
 179:Drivers/lvgl/lvgl/src/widgets/lv_bar.c **** }
 180:Drivers/lvgl/lvgl/src/widgets/lv_bar.c **** 
 181:Drivers/lvgl/lvgl/src/widgets/lv_bar.c **** int32_t lv_bar_get_min_value(const lv_obj_t * obj)
 182:Drivers/lvgl/lvgl/src/widgets/lv_bar.c **** {
 183:Drivers/lvgl/lvgl/src/widgets/lv_bar.c ****     LV_ASSERT_OBJ(obj, MY_CLASS);
 184:Drivers/lvgl/lvgl/src/widgets/lv_bar.c ****     lv_bar_t * bar = (lv_bar_t *)obj;
 185:Drivers/lvgl/lvgl/src/widgets/lv_bar.c ****     return bar->min_value;
 186:Drivers/lvgl/lvgl/src/widgets/lv_bar.c **** }
ARM GAS  /tmp/ccd9EMp8.s 			page 8


 187:Drivers/lvgl/lvgl/src/widgets/lv_bar.c **** 
 188:Drivers/lvgl/lvgl/src/widgets/lv_bar.c **** int32_t lv_bar_get_max_value(const lv_obj_t * obj)
 189:Drivers/lvgl/lvgl/src/widgets/lv_bar.c **** {
 190:Drivers/lvgl/lvgl/src/widgets/lv_bar.c ****     LV_ASSERT_OBJ(obj, MY_CLASS);
 191:Drivers/lvgl/lvgl/src/widgets/lv_bar.c ****     lv_bar_t * bar = (lv_bar_t *)obj;
 192:Drivers/lvgl/lvgl/src/widgets/lv_bar.c **** 
 193:Drivers/lvgl/lvgl/src/widgets/lv_bar.c ****     return bar->max_value;
 194:Drivers/lvgl/lvgl/src/widgets/lv_bar.c **** }
 195:Drivers/lvgl/lvgl/src/widgets/lv_bar.c **** 
 196:Drivers/lvgl/lvgl/src/widgets/lv_bar.c **** lv_bar_mode_t lv_bar_get_mode(lv_obj_t * obj)
 197:Drivers/lvgl/lvgl/src/widgets/lv_bar.c **** {
 198:Drivers/lvgl/lvgl/src/widgets/lv_bar.c ****     LV_ASSERT_OBJ(obj, MY_CLASS);
 199:Drivers/lvgl/lvgl/src/widgets/lv_bar.c ****     lv_bar_t * bar = (lv_bar_t *)obj;
 200:Drivers/lvgl/lvgl/src/widgets/lv_bar.c **** 
 201:Drivers/lvgl/lvgl/src/widgets/lv_bar.c ****     return bar->mode;
 202:Drivers/lvgl/lvgl/src/widgets/lv_bar.c **** }
 203:Drivers/lvgl/lvgl/src/widgets/lv_bar.c **** 
 204:Drivers/lvgl/lvgl/src/widgets/lv_bar.c **** /**********************
 205:Drivers/lvgl/lvgl/src/widgets/lv_bar.c ****  *   STATIC FUNCTIONS
 206:Drivers/lvgl/lvgl/src/widgets/lv_bar.c ****  **********************/
 207:Drivers/lvgl/lvgl/src/widgets/lv_bar.c **** 
 208:Drivers/lvgl/lvgl/src/widgets/lv_bar.c **** static void lv_bar_constructor(const lv_obj_class_t * class_p, lv_obj_t * obj)
 209:Drivers/lvgl/lvgl/src/widgets/lv_bar.c **** {
 210:Drivers/lvgl/lvgl/src/widgets/lv_bar.c ****     LV_UNUSED(class_p);
 211:Drivers/lvgl/lvgl/src/widgets/lv_bar.c ****     LV_TRACE_OBJ_CREATE("begin");
 212:Drivers/lvgl/lvgl/src/widgets/lv_bar.c **** 
 213:Drivers/lvgl/lvgl/src/widgets/lv_bar.c ****     lv_bar_t * bar = (lv_bar_t *)obj;
 214:Drivers/lvgl/lvgl/src/widgets/lv_bar.c ****     bar->min_value = 0;
 215:Drivers/lvgl/lvgl/src/widgets/lv_bar.c ****     bar->max_value = 100;
 216:Drivers/lvgl/lvgl/src/widgets/lv_bar.c ****     bar->start_value = 0;
 217:Drivers/lvgl/lvgl/src/widgets/lv_bar.c ****     bar->cur_value = 0;
 218:Drivers/lvgl/lvgl/src/widgets/lv_bar.c ****     bar->indic_area.x1 = 0;
 219:Drivers/lvgl/lvgl/src/widgets/lv_bar.c ****     bar->indic_area.x2 = 0;
 220:Drivers/lvgl/lvgl/src/widgets/lv_bar.c ****     bar->indic_area.y1 = 0;
 221:Drivers/lvgl/lvgl/src/widgets/lv_bar.c ****     bar->indic_area.y2 = 0;
 222:Drivers/lvgl/lvgl/src/widgets/lv_bar.c ****     bar->mode = LV_BAR_MODE_NORMAL;
 223:Drivers/lvgl/lvgl/src/widgets/lv_bar.c **** 
 224:Drivers/lvgl/lvgl/src/widgets/lv_bar.c ****     lv_bar_init_anim(obj, &bar->cur_value_anim);
 225:Drivers/lvgl/lvgl/src/widgets/lv_bar.c ****     lv_bar_init_anim(obj, &bar->start_value_anim);
 226:Drivers/lvgl/lvgl/src/widgets/lv_bar.c **** 
 227:Drivers/lvgl/lvgl/src/widgets/lv_bar.c ****     lv_obj_clear_flag(obj, LV_OBJ_FLAG_CHECKABLE);
 228:Drivers/lvgl/lvgl/src/widgets/lv_bar.c ****     lv_obj_clear_flag(obj, LV_OBJ_FLAG_SCROLLABLE);
 229:Drivers/lvgl/lvgl/src/widgets/lv_bar.c ****     lv_bar_set_value(obj, 0, LV_ANIM_OFF);
 230:Drivers/lvgl/lvgl/src/widgets/lv_bar.c **** 
 231:Drivers/lvgl/lvgl/src/widgets/lv_bar.c ****     LV_TRACE_OBJ_CREATE("finished");
 232:Drivers/lvgl/lvgl/src/widgets/lv_bar.c **** }
 233:Drivers/lvgl/lvgl/src/widgets/lv_bar.c **** 
 234:Drivers/lvgl/lvgl/src/widgets/lv_bar.c **** static void lv_bar_destructor(const lv_obj_class_t * class_p, lv_obj_t * obj)
 235:Drivers/lvgl/lvgl/src/widgets/lv_bar.c **** {
 236:Drivers/lvgl/lvgl/src/widgets/lv_bar.c ****     LV_UNUSED(class_p);
 237:Drivers/lvgl/lvgl/src/widgets/lv_bar.c ****     lv_bar_t * bar = (lv_bar_t *)obj;
 238:Drivers/lvgl/lvgl/src/widgets/lv_bar.c **** 
 239:Drivers/lvgl/lvgl/src/widgets/lv_bar.c ****     lv_anim_del(&bar->cur_value_anim, NULL);
 240:Drivers/lvgl/lvgl/src/widgets/lv_bar.c ****     lv_anim_del(&bar->start_value_anim, NULL);
 241:Drivers/lvgl/lvgl/src/widgets/lv_bar.c **** }
 242:Drivers/lvgl/lvgl/src/widgets/lv_bar.c **** 
 243:Drivers/lvgl/lvgl/src/widgets/lv_bar.c **** static void draw_indic(lv_event_t * e)
ARM GAS  /tmp/ccd9EMp8.s 			page 9


 244:Drivers/lvgl/lvgl/src/widgets/lv_bar.c **** {
 245:Drivers/lvgl/lvgl/src/widgets/lv_bar.c ****     lv_obj_t * obj = lv_event_get_target(e);
 246:Drivers/lvgl/lvgl/src/widgets/lv_bar.c ****     lv_bar_t * bar = (lv_bar_t *)obj;
 247:Drivers/lvgl/lvgl/src/widgets/lv_bar.c **** 
 248:Drivers/lvgl/lvgl/src/widgets/lv_bar.c ****     lv_draw_ctx_t * draw_ctx = lv_event_get_draw_ctx(e);
 249:Drivers/lvgl/lvgl/src/widgets/lv_bar.c **** 
 250:Drivers/lvgl/lvgl/src/widgets/lv_bar.c ****     lv_area_t bar_coords;
 251:Drivers/lvgl/lvgl/src/widgets/lv_bar.c ****     lv_obj_get_coords(obj, &bar_coords);
 252:Drivers/lvgl/lvgl/src/widgets/lv_bar.c **** 
 253:Drivers/lvgl/lvgl/src/widgets/lv_bar.c ****     lv_coord_t transf_w = lv_obj_get_style_transform_width(obj, LV_PART_MAIN);
 254:Drivers/lvgl/lvgl/src/widgets/lv_bar.c ****     lv_coord_t transf_h = lv_obj_get_style_transform_height(obj, LV_PART_MAIN);
 255:Drivers/lvgl/lvgl/src/widgets/lv_bar.c ****     bar_coords.x1 -= transf_w;
 256:Drivers/lvgl/lvgl/src/widgets/lv_bar.c ****     bar_coords.x2 += transf_w;
 257:Drivers/lvgl/lvgl/src/widgets/lv_bar.c ****     bar_coords.y1 -= transf_h;
 258:Drivers/lvgl/lvgl/src/widgets/lv_bar.c ****     bar_coords.y2 += transf_h;
 259:Drivers/lvgl/lvgl/src/widgets/lv_bar.c ****     lv_coord_t barw = lv_area_get_width(&bar_coords);
 260:Drivers/lvgl/lvgl/src/widgets/lv_bar.c ****     lv_coord_t barh = lv_area_get_height(&bar_coords);
 261:Drivers/lvgl/lvgl/src/widgets/lv_bar.c ****     int32_t range = bar->max_value - bar->min_value;
 262:Drivers/lvgl/lvgl/src/widgets/lv_bar.c ****     bool hor = barw >= barh ? true : false;
 263:Drivers/lvgl/lvgl/src/widgets/lv_bar.c ****     bool sym = false;
 264:Drivers/lvgl/lvgl/src/widgets/lv_bar.c ****     if(bar->mode == LV_BAR_MODE_SYMMETRICAL && bar->min_value < 0 && bar->max_value > 0 &&
 265:Drivers/lvgl/lvgl/src/widgets/lv_bar.c ****        bar->start_value == bar->min_value) sym = true;
 266:Drivers/lvgl/lvgl/src/widgets/lv_bar.c **** 
 267:Drivers/lvgl/lvgl/src/widgets/lv_bar.c ****     /*Calculate the indicator area*/
 268:Drivers/lvgl/lvgl/src/widgets/lv_bar.c ****     lv_coord_t bg_left = lv_obj_get_style_pad_left(obj,     LV_PART_MAIN);
 269:Drivers/lvgl/lvgl/src/widgets/lv_bar.c ****     lv_coord_t bg_right = lv_obj_get_style_pad_right(obj,   LV_PART_MAIN);
 270:Drivers/lvgl/lvgl/src/widgets/lv_bar.c ****     lv_coord_t bg_top = lv_obj_get_style_pad_top(obj,       LV_PART_MAIN);
 271:Drivers/lvgl/lvgl/src/widgets/lv_bar.c ****     lv_coord_t bg_bottom = lv_obj_get_style_pad_bottom(obj, LV_PART_MAIN);
 272:Drivers/lvgl/lvgl/src/widgets/lv_bar.c ****     /*Respect padding and minimum width/height too*/
 273:Drivers/lvgl/lvgl/src/widgets/lv_bar.c ****     lv_area_copy(&bar->indic_area, &bar_coords);
 274:Drivers/lvgl/lvgl/src/widgets/lv_bar.c ****     bar->indic_area.x1 += bg_left;
 275:Drivers/lvgl/lvgl/src/widgets/lv_bar.c ****     bar->indic_area.x2 -= bg_right;
 276:Drivers/lvgl/lvgl/src/widgets/lv_bar.c ****     bar->indic_area.y1 += bg_top;
 277:Drivers/lvgl/lvgl/src/widgets/lv_bar.c ****     bar->indic_area.y2 -= bg_bottom;
 278:Drivers/lvgl/lvgl/src/widgets/lv_bar.c **** 
 279:Drivers/lvgl/lvgl/src/widgets/lv_bar.c ****     if(hor && lv_area_get_height(&bar->indic_area) < LV_BAR_SIZE_MIN) {
 280:Drivers/lvgl/lvgl/src/widgets/lv_bar.c ****         bar->indic_area.y1 = obj->coords.y1 + (barh / 2) - (LV_BAR_SIZE_MIN / 2);
 281:Drivers/lvgl/lvgl/src/widgets/lv_bar.c ****         bar->indic_area.y2 = bar->indic_area.y1 + LV_BAR_SIZE_MIN;
 282:Drivers/lvgl/lvgl/src/widgets/lv_bar.c ****     }
 283:Drivers/lvgl/lvgl/src/widgets/lv_bar.c ****     else if(!hor && lv_area_get_width(&bar->indic_area) < LV_BAR_SIZE_MIN) {
 284:Drivers/lvgl/lvgl/src/widgets/lv_bar.c ****         bar->indic_area.x1 = obj->coords.x1 + (barw / 2) - (LV_BAR_SIZE_MIN / 2);
 285:Drivers/lvgl/lvgl/src/widgets/lv_bar.c ****         bar->indic_area.x2 = bar->indic_area.x1 + LV_BAR_SIZE_MIN;
 286:Drivers/lvgl/lvgl/src/widgets/lv_bar.c ****     }
 287:Drivers/lvgl/lvgl/src/widgets/lv_bar.c **** 
 288:Drivers/lvgl/lvgl/src/widgets/lv_bar.c ****     lv_coord_t indicw = lv_area_get_width(&bar->indic_area);
 289:Drivers/lvgl/lvgl/src/widgets/lv_bar.c ****     lv_coord_t indich = lv_area_get_height(&bar->indic_area);
 290:Drivers/lvgl/lvgl/src/widgets/lv_bar.c **** 
 291:Drivers/lvgl/lvgl/src/widgets/lv_bar.c ****     /*Calculate the indicator length*/
 292:Drivers/lvgl/lvgl/src/widgets/lv_bar.c ****     lv_coord_t anim_length = hor ? indicw : indich;
 293:Drivers/lvgl/lvgl/src/widgets/lv_bar.c **** 
 294:Drivers/lvgl/lvgl/src/widgets/lv_bar.c ****     lv_coord_t anim_cur_value_x, anim_start_value_x;
 295:Drivers/lvgl/lvgl/src/widgets/lv_bar.c **** 
 296:Drivers/lvgl/lvgl/src/widgets/lv_bar.c ****     lv_coord_t * axis1, * axis2;
 297:Drivers/lvgl/lvgl/src/widgets/lv_bar.c ****     lv_coord_t (*indic_length_calc)(const lv_area_t * area);
 298:Drivers/lvgl/lvgl/src/widgets/lv_bar.c **** 
 299:Drivers/lvgl/lvgl/src/widgets/lv_bar.c ****     if(hor) {
 300:Drivers/lvgl/lvgl/src/widgets/lv_bar.c ****         axis1 = &bar->indic_area.x1;
ARM GAS  /tmp/ccd9EMp8.s 			page 10


 301:Drivers/lvgl/lvgl/src/widgets/lv_bar.c ****         axis2 = &bar->indic_area.x2;
 302:Drivers/lvgl/lvgl/src/widgets/lv_bar.c ****         indic_length_calc = lv_area_get_width;
 303:Drivers/lvgl/lvgl/src/widgets/lv_bar.c ****     }
 304:Drivers/lvgl/lvgl/src/widgets/lv_bar.c ****     else {
 305:Drivers/lvgl/lvgl/src/widgets/lv_bar.c ****         axis1 = &bar->indic_area.y1;
 306:Drivers/lvgl/lvgl/src/widgets/lv_bar.c ****         axis2 = &bar->indic_area.y2;
 307:Drivers/lvgl/lvgl/src/widgets/lv_bar.c ****         indic_length_calc = lv_area_get_height;
 308:Drivers/lvgl/lvgl/src/widgets/lv_bar.c ****     }
 309:Drivers/lvgl/lvgl/src/widgets/lv_bar.c **** 
 310:Drivers/lvgl/lvgl/src/widgets/lv_bar.c ****     if(LV_BAR_IS_ANIMATING(bar->start_value_anim)) {
 311:Drivers/lvgl/lvgl/src/widgets/lv_bar.c ****         lv_coord_t anim_start_value_start_x =
 312:Drivers/lvgl/lvgl/src/widgets/lv_bar.c ****             (int32_t)((int32_t)anim_length * (bar->start_value_anim.anim_start - bar->min_value)) /
 313:Drivers/lvgl/lvgl/src/widgets/lv_bar.c ****         lv_coord_t anim_start_value_end_x =
 314:Drivers/lvgl/lvgl/src/widgets/lv_bar.c ****             (int32_t)((int32_t)anim_length * (bar->start_value_anim.anim_end - bar->min_value)) / r
 315:Drivers/lvgl/lvgl/src/widgets/lv_bar.c **** 
 316:Drivers/lvgl/lvgl/src/widgets/lv_bar.c ****         anim_start_value_x = (((anim_start_value_end_x - anim_start_value_start_x) * bar->start_val
 317:Drivers/lvgl/lvgl/src/widgets/lv_bar.c ****                               LV_BAR_ANIM_STATE_END);
 318:Drivers/lvgl/lvgl/src/widgets/lv_bar.c **** 
 319:Drivers/lvgl/lvgl/src/widgets/lv_bar.c ****         anim_start_value_x += anim_start_value_start_x;
 320:Drivers/lvgl/lvgl/src/widgets/lv_bar.c ****     }
 321:Drivers/lvgl/lvgl/src/widgets/lv_bar.c ****     else {
 322:Drivers/lvgl/lvgl/src/widgets/lv_bar.c ****         anim_start_value_x = (int32_t)((int32_t)anim_length * (bar->start_value - bar->min_value)) 
 323:Drivers/lvgl/lvgl/src/widgets/lv_bar.c ****     }
 324:Drivers/lvgl/lvgl/src/widgets/lv_bar.c **** 
 325:Drivers/lvgl/lvgl/src/widgets/lv_bar.c ****     if(LV_BAR_IS_ANIMATING(bar->cur_value_anim)) {
 326:Drivers/lvgl/lvgl/src/widgets/lv_bar.c ****         lv_coord_t anim_cur_value_start_x =
 327:Drivers/lvgl/lvgl/src/widgets/lv_bar.c ****             (int32_t)((int32_t)anim_length * (bar->cur_value_anim.anim_start - bar->min_value)) / r
 328:Drivers/lvgl/lvgl/src/widgets/lv_bar.c ****         lv_coord_t anim_cur_value_end_x =
 329:Drivers/lvgl/lvgl/src/widgets/lv_bar.c ****             (int32_t)((int32_t)anim_length * (bar->cur_value_anim.anim_end - bar->min_value)) / ran
 330:Drivers/lvgl/lvgl/src/widgets/lv_bar.c **** 
 331:Drivers/lvgl/lvgl/src/widgets/lv_bar.c ****         anim_cur_value_x = anim_cur_value_start_x + (((anim_cur_value_end_x - anim_cur_value_start_
 332:Drivers/lvgl/lvgl/src/widgets/lv_bar.c ****                                                       bar->cur_value_anim.anim_state) /
 333:Drivers/lvgl/lvgl/src/widgets/lv_bar.c ****                                                      LV_BAR_ANIM_STATE_END);
 334:Drivers/lvgl/lvgl/src/widgets/lv_bar.c ****     }
 335:Drivers/lvgl/lvgl/src/widgets/lv_bar.c ****     else {
 336:Drivers/lvgl/lvgl/src/widgets/lv_bar.c ****         anim_cur_value_x = (int32_t)((int32_t)anim_length * (bar->cur_value - bar->min_value)) / ra
 337:Drivers/lvgl/lvgl/src/widgets/lv_bar.c ****     }
 338:Drivers/lvgl/lvgl/src/widgets/lv_bar.c **** 
 339:Drivers/lvgl/lvgl/src/widgets/lv_bar.c ****     lv_base_dir_t base_dir = lv_obj_get_style_base_dir(obj, LV_PART_MAIN);
 340:Drivers/lvgl/lvgl/src/widgets/lv_bar.c ****     if(hor && base_dir == LV_BASE_DIR_RTL) {
 341:Drivers/lvgl/lvgl/src/widgets/lv_bar.c ****         /*Swap axes*/
 342:Drivers/lvgl/lvgl/src/widgets/lv_bar.c ****         lv_coord_t * tmp;
 343:Drivers/lvgl/lvgl/src/widgets/lv_bar.c ****         tmp = axis1;
 344:Drivers/lvgl/lvgl/src/widgets/lv_bar.c ****         axis1 = axis2;
 345:Drivers/lvgl/lvgl/src/widgets/lv_bar.c ****         axis2 = tmp;
 346:Drivers/lvgl/lvgl/src/widgets/lv_bar.c ****         anim_cur_value_x = -anim_cur_value_x;
 347:Drivers/lvgl/lvgl/src/widgets/lv_bar.c ****         anim_start_value_x = -anim_start_value_x;
 348:Drivers/lvgl/lvgl/src/widgets/lv_bar.c ****     }
 349:Drivers/lvgl/lvgl/src/widgets/lv_bar.c **** 
 350:Drivers/lvgl/lvgl/src/widgets/lv_bar.c ****     /*Set the indicator length*/
 351:Drivers/lvgl/lvgl/src/widgets/lv_bar.c ****     if(hor) {
 352:Drivers/lvgl/lvgl/src/widgets/lv_bar.c ****         *axis2 = *axis1 + anim_cur_value_x;
 353:Drivers/lvgl/lvgl/src/widgets/lv_bar.c ****         *axis1 += anim_start_value_x;
 354:Drivers/lvgl/lvgl/src/widgets/lv_bar.c ****     }
 355:Drivers/lvgl/lvgl/src/widgets/lv_bar.c ****     else {
 356:Drivers/lvgl/lvgl/src/widgets/lv_bar.c ****         *axis1 = *axis2 - anim_cur_value_x + 1;
 357:Drivers/lvgl/lvgl/src/widgets/lv_bar.c ****         *axis2 -= anim_start_value_x;
ARM GAS  /tmp/ccd9EMp8.s 			page 11


 358:Drivers/lvgl/lvgl/src/widgets/lv_bar.c ****     }
 359:Drivers/lvgl/lvgl/src/widgets/lv_bar.c ****     if(sym) {
 360:Drivers/lvgl/lvgl/src/widgets/lv_bar.c ****         lv_coord_t zero, shift;
 361:Drivers/lvgl/lvgl/src/widgets/lv_bar.c ****         shift = (-bar->min_value * anim_length) / range;
 362:Drivers/lvgl/lvgl/src/widgets/lv_bar.c ****         if(hor) {
 363:Drivers/lvgl/lvgl/src/widgets/lv_bar.c ****             zero = *axis1 + shift;
 364:Drivers/lvgl/lvgl/src/widgets/lv_bar.c ****             if(*axis2 > zero)
 365:Drivers/lvgl/lvgl/src/widgets/lv_bar.c ****                 *axis1 = zero;
 366:Drivers/lvgl/lvgl/src/widgets/lv_bar.c ****             else {
 367:Drivers/lvgl/lvgl/src/widgets/lv_bar.c ****                 *axis1 = *axis2;
 368:Drivers/lvgl/lvgl/src/widgets/lv_bar.c ****                 *axis2 = zero;
 369:Drivers/lvgl/lvgl/src/widgets/lv_bar.c ****             }
 370:Drivers/lvgl/lvgl/src/widgets/lv_bar.c ****         }
 371:Drivers/lvgl/lvgl/src/widgets/lv_bar.c ****         else {
 372:Drivers/lvgl/lvgl/src/widgets/lv_bar.c ****             zero = *axis2 - shift + 1;
 373:Drivers/lvgl/lvgl/src/widgets/lv_bar.c ****             if(*axis1 > zero)
 374:Drivers/lvgl/lvgl/src/widgets/lv_bar.c ****                 *axis2 = zero;
 375:Drivers/lvgl/lvgl/src/widgets/lv_bar.c ****             else {
 376:Drivers/lvgl/lvgl/src/widgets/lv_bar.c ****                 *axis2 = *axis1;
 377:Drivers/lvgl/lvgl/src/widgets/lv_bar.c ****                 *axis1 = zero;
 378:Drivers/lvgl/lvgl/src/widgets/lv_bar.c ****             }
 379:Drivers/lvgl/lvgl/src/widgets/lv_bar.c ****             if(*axis2 < *axis1) {
 380:Drivers/lvgl/lvgl/src/widgets/lv_bar.c ****                 /*swap*/
 381:Drivers/lvgl/lvgl/src/widgets/lv_bar.c ****                 zero = *axis1;
 382:Drivers/lvgl/lvgl/src/widgets/lv_bar.c ****                 *axis1 = *axis2;
 383:Drivers/lvgl/lvgl/src/widgets/lv_bar.c ****                 *axis2 = zero;
 384:Drivers/lvgl/lvgl/src/widgets/lv_bar.c ****             }
 385:Drivers/lvgl/lvgl/src/widgets/lv_bar.c ****         }
 386:Drivers/lvgl/lvgl/src/widgets/lv_bar.c ****     }
 387:Drivers/lvgl/lvgl/src/widgets/lv_bar.c **** 
 388:Drivers/lvgl/lvgl/src/widgets/lv_bar.c ****     /*Do not draw a zero length indicator but at least call the draw part events*/
 389:Drivers/lvgl/lvgl/src/widgets/lv_bar.c ****     if(!sym && indic_length_calc(&bar->indic_area) <= 1) {
 390:Drivers/lvgl/lvgl/src/widgets/lv_bar.c **** 
 391:Drivers/lvgl/lvgl/src/widgets/lv_bar.c ****         lv_obj_draw_part_dsc_t part_draw_dsc;
 392:Drivers/lvgl/lvgl/src/widgets/lv_bar.c ****         lv_obj_draw_dsc_init(&part_draw_dsc, draw_ctx);
 393:Drivers/lvgl/lvgl/src/widgets/lv_bar.c ****         part_draw_dsc.part = LV_PART_INDICATOR;
 394:Drivers/lvgl/lvgl/src/widgets/lv_bar.c ****         part_draw_dsc.class_p = MY_CLASS;
 395:Drivers/lvgl/lvgl/src/widgets/lv_bar.c ****         part_draw_dsc.type = LV_BAR_DRAW_PART_INDICATOR;
 396:Drivers/lvgl/lvgl/src/widgets/lv_bar.c ****         part_draw_dsc.draw_area = &bar->indic_area;
 397:Drivers/lvgl/lvgl/src/widgets/lv_bar.c **** 
 398:Drivers/lvgl/lvgl/src/widgets/lv_bar.c ****         lv_event_send(obj, LV_EVENT_DRAW_PART_BEGIN, &part_draw_dsc);
 399:Drivers/lvgl/lvgl/src/widgets/lv_bar.c ****         lv_event_send(obj, LV_EVENT_DRAW_PART_END, &part_draw_dsc);
 400:Drivers/lvgl/lvgl/src/widgets/lv_bar.c ****         return;
 401:Drivers/lvgl/lvgl/src/widgets/lv_bar.c ****     }
 402:Drivers/lvgl/lvgl/src/widgets/lv_bar.c **** 
 403:Drivers/lvgl/lvgl/src/widgets/lv_bar.c ****     lv_area_t indic_area;
 404:Drivers/lvgl/lvgl/src/widgets/lv_bar.c ****     lv_area_copy(&indic_area, &bar->indic_area);
 405:Drivers/lvgl/lvgl/src/widgets/lv_bar.c **** 
 406:Drivers/lvgl/lvgl/src/widgets/lv_bar.c ****     lv_draw_rect_dsc_t draw_rect_dsc;
 407:Drivers/lvgl/lvgl/src/widgets/lv_bar.c ****     lv_draw_rect_dsc_init(&draw_rect_dsc);
 408:Drivers/lvgl/lvgl/src/widgets/lv_bar.c ****     lv_obj_init_draw_rect_dsc(obj, LV_PART_INDICATOR, &draw_rect_dsc);
 409:Drivers/lvgl/lvgl/src/widgets/lv_bar.c **** 
 410:Drivers/lvgl/lvgl/src/widgets/lv_bar.c ****     lv_obj_draw_part_dsc_t part_draw_dsc;
 411:Drivers/lvgl/lvgl/src/widgets/lv_bar.c ****     lv_obj_draw_dsc_init(&part_draw_dsc, draw_ctx);
 412:Drivers/lvgl/lvgl/src/widgets/lv_bar.c ****     part_draw_dsc.part = LV_PART_INDICATOR;
 413:Drivers/lvgl/lvgl/src/widgets/lv_bar.c ****     part_draw_dsc.class_p = MY_CLASS;
 414:Drivers/lvgl/lvgl/src/widgets/lv_bar.c ****     part_draw_dsc.type = LV_BAR_DRAW_PART_INDICATOR;
ARM GAS  /tmp/ccd9EMp8.s 			page 12


 415:Drivers/lvgl/lvgl/src/widgets/lv_bar.c ****     part_draw_dsc.rect_dsc = &draw_rect_dsc;
 416:Drivers/lvgl/lvgl/src/widgets/lv_bar.c ****     part_draw_dsc.draw_area = &bar->indic_area;
 417:Drivers/lvgl/lvgl/src/widgets/lv_bar.c **** 
 418:Drivers/lvgl/lvgl/src/widgets/lv_bar.c ****     lv_event_send(obj, LV_EVENT_DRAW_PART_BEGIN, &part_draw_dsc);
 419:Drivers/lvgl/lvgl/src/widgets/lv_bar.c **** 
 420:Drivers/lvgl/lvgl/src/widgets/lv_bar.c ****     lv_coord_t bg_radius = lv_obj_get_style_radius(obj, LV_PART_MAIN);
 421:Drivers/lvgl/lvgl/src/widgets/lv_bar.c ****     lv_coord_t short_side = LV_MIN(barw, barh);
 422:Drivers/lvgl/lvgl/src/widgets/lv_bar.c ****     if(bg_radius > short_side >> 1) bg_radius = short_side >> 1;
 423:Drivers/lvgl/lvgl/src/widgets/lv_bar.c **** 
 424:Drivers/lvgl/lvgl/src/widgets/lv_bar.c ****     lv_coord_t indic_radius = draw_rect_dsc.radius;
 425:Drivers/lvgl/lvgl/src/widgets/lv_bar.c ****     short_side = LV_MIN(indicw, indich);
 426:Drivers/lvgl/lvgl/src/widgets/lv_bar.c ****     if(indic_radius > short_side >> 1) indic_radius = short_side >> 1;
 427:Drivers/lvgl/lvgl/src/widgets/lv_bar.c **** 
 428:Drivers/lvgl/lvgl/src/widgets/lv_bar.c ****     /*Draw only the shadow and outline only if the indicator is long enough.
 429:Drivers/lvgl/lvgl/src/widgets/lv_bar.c ****      *The radius of the bg and the indicator can make a strange shape where
 430:Drivers/lvgl/lvgl/src/widgets/lv_bar.c ****      *it'd be very difficult to draw shadow.*/
 431:Drivers/lvgl/lvgl/src/widgets/lv_bar.c ****     if((hor && lv_area_get_width(&bar->indic_area) > indic_radius * 2) ||
 432:Drivers/lvgl/lvgl/src/widgets/lv_bar.c ****        (!hor && lv_area_get_height(&bar->indic_area) > indic_radius * 2)) {
 433:Drivers/lvgl/lvgl/src/widgets/lv_bar.c ****         lv_opa_t bg_opa = draw_rect_dsc.bg_opa;
 434:Drivers/lvgl/lvgl/src/widgets/lv_bar.c ****         lv_opa_t bg_img_opa = draw_rect_dsc.bg_img_opa;
 435:Drivers/lvgl/lvgl/src/widgets/lv_bar.c ****         lv_opa_t border_opa = draw_rect_dsc.border_opa;
 436:Drivers/lvgl/lvgl/src/widgets/lv_bar.c ****         draw_rect_dsc.bg_opa = LV_OPA_TRANSP;
 437:Drivers/lvgl/lvgl/src/widgets/lv_bar.c ****         draw_rect_dsc.bg_img_opa = LV_OPA_TRANSP;
 438:Drivers/lvgl/lvgl/src/widgets/lv_bar.c ****         draw_rect_dsc.border_opa = LV_OPA_TRANSP;
 439:Drivers/lvgl/lvgl/src/widgets/lv_bar.c **** 
 440:Drivers/lvgl/lvgl/src/widgets/lv_bar.c ****         lv_draw_rect(draw_ctx, &draw_rect_dsc, &bar->indic_area);
 441:Drivers/lvgl/lvgl/src/widgets/lv_bar.c **** 
 442:Drivers/lvgl/lvgl/src/widgets/lv_bar.c ****         draw_rect_dsc.bg_opa = bg_opa;
 443:Drivers/lvgl/lvgl/src/widgets/lv_bar.c ****         draw_rect_dsc.bg_img_opa = bg_img_opa;
 444:Drivers/lvgl/lvgl/src/widgets/lv_bar.c ****         draw_rect_dsc.border_opa = border_opa;
 445:Drivers/lvgl/lvgl/src/widgets/lv_bar.c ****     }
 446:Drivers/lvgl/lvgl/src/widgets/lv_bar.c **** 
 447:Drivers/lvgl/lvgl/src/widgets/lv_bar.c **** #if LV_DRAW_COMPLEX
 448:Drivers/lvgl/lvgl/src/widgets/lv_bar.c ****     lv_draw_mask_radius_param_t mask_bg_param;
 449:Drivers/lvgl/lvgl/src/widgets/lv_bar.c ****     lv_area_t bg_mask_area;
 450:Drivers/lvgl/lvgl/src/widgets/lv_bar.c ****     bg_mask_area.x1 = obj->coords.x1 + bg_left;
 451:Drivers/lvgl/lvgl/src/widgets/lv_bar.c ****     bg_mask_area.x2 = obj->coords.x2 - bg_right;
 452:Drivers/lvgl/lvgl/src/widgets/lv_bar.c ****     bg_mask_area.y1 = obj->coords.y1 + bg_top;
 453:Drivers/lvgl/lvgl/src/widgets/lv_bar.c ****     bg_mask_area.y2 = obj->coords.y2 - bg_bottom;
 454:Drivers/lvgl/lvgl/src/widgets/lv_bar.c **** 
 455:Drivers/lvgl/lvgl/src/widgets/lv_bar.c ****     lv_draw_mask_radius_init(&mask_bg_param, &bg_mask_area, bg_radius, false);
 456:Drivers/lvgl/lvgl/src/widgets/lv_bar.c ****     lv_coord_t mask_bg_id = lv_draw_mask_add(&mask_bg_param, NULL);
 457:Drivers/lvgl/lvgl/src/widgets/lv_bar.c **** #endif
 458:Drivers/lvgl/lvgl/src/widgets/lv_bar.c **** 
 459:Drivers/lvgl/lvgl/src/widgets/lv_bar.c ****     /*Draw_only the background and background image*/
 460:Drivers/lvgl/lvgl/src/widgets/lv_bar.c ****     lv_opa_t shadow_opa = draw_rect_dsc.shadow_opa;
 461:Drivers/lvgl/lvgl/src/widgets/lv_bar.c ****     lv_opa_t border_opa = draw_rect_dsc.border_opa;
 462:Drivers/lvgl/lvgl/src/widgets/lv_bar.c ****     draw_rect_dsc.border_opa = LV_OPA_TRANSP;
 463:Drivers/lvgl/lvgl/src/widgets/lv_bar.c ****     draw_rect_dsc.shadow_opa = LV_OPA_TRANSP;
 464:Drivers/lvgl/lvgl/src/widgets/lv_bar.c **** 
 465:Drivers/lvgl/lvgl/src/widgets/lv_bar.c ****     /*Get the max possible indicator area. The gradient should be applied on this*/
 466:Drivers/lvgl/lvgl/src/widgets/lv_bar.c ****     lv_area_t mask_indic_max_area;
 467:Drivers/lvgl/lvgl/src/widgets/lv_bar.c ****     lv_area_copy(&mask_indic_max_area, &bar_coords);
 468:Drivers/lvgl/lvgl/src/widgets/lv_bar.c ****     mask_indic_max_area.x1 += bg_left;
 469:Drivers/lvgl/lvgl/src/widgets/lv_bar.c ****     mask_indic_max_area.y1 += bg_top;
 470:Drivers/lvgl/lvgl/src/widgets/lv_bar.c ****     mask_indic_max_area.x2 -= bg_right;
 471:Drivers/lvgl/lvgl/src/widgets/lv_bar.c ****     mask_indic_max_area.y2 -= bg_bottom;
ARM GAS  /tmp/ccd9EMp8.s 			page 13


 472:Drivers/lvgl/lvgl/src/widgets/lv_bar.c ****     if(hor && lv_area_get_height(&mask_indic_max_area) < LV_BAR_SIZE_MIN) {
 473:Drivers/lvgl/lvgl/src/widgets/lv_bar.c ****         mask_indic_max_area.y1 = obj->coords.y1 + (barh / 2) - (LV_BAR_SIZE_MIN / 2);
 474:Drivers/lvgl/lvgl/src/widgets/lv_bar.c ****         mask_indic_max_area.y2 = mask_indic_max_area.y1 + LV_BAR_SIZE_MIN;
 475:Drivers/lvgl/lvgl/src/widgets/lv_bar.c ****     }
 476:Drivers/lvgl/lvgl/src/widgets/lv_bar.c ****     else if(!hor && lv_area_get_width(&mask_indic_max_area) < LV_BAR_SIZE_MIN) {
 477:Drivers/lvgl/lvgl/src/widgets/lv_bar.c ****         mask_indic_max_area.x1 = obj->coords.x1 + (barw / 2) - (LV_BAR_SIZE_MIN / 2);
 478:Drivers/lvgl/lvgl/src/widgets/lv_bar.c ****         mask_indic_max_area.x2 = mask_indic_max_area.x1 + LV_BAR_SIZE_MIN;
 479:Drivers/lvgl/lvgl/src/widgets/lv_bar.c ****     }
 480:Drivers/lvgl/lvgl/src/widgets/lv_bar.c **** 
 481:Drivers/lvgl/lvgl/src/widgets/lv_bar.c **** #if LV_DRAW_COMPLEX
 482:Drivers/lvgl/lvgl/src/widgets/lv_bar.c ****     /*Create a mask to the current indicator area to see only this part from the whole gradient.*/
 483:Drivers/lvgl/lvgl/src/widgets/lv_bar.c ****     lv_draw_mask_radius_param_t mask_indic_param;
 484:Drivers/lvgl/lvgl/src/widgets/lv_bar.c ****     lv_draw_mask_radius_init(&mask_indic_param, &bar->indic_area, draw_rect_dsc.radius, false);
 485:Drivers/lvgl/lvgl/src/widgets/lv_bar.c ****     int16_t mask_indic_id = lv_draw_mask_add(&mask_indic_param, NULL);
 486:Drivers/lvgl/lvgl/src/widgets/lv_bar.c **** #endif
 487:Drivers/lvgl/lvgl/src/widgets/lv_bar.c **** 
 488:Drivers/lvgl/lvgl/src/widgets/lv_bar.c ****     lv_draw_rect(draw_ctx, &draw_rect_dsc, &mask_indic_max_area);
 489:Drivers/lvgl/lvgl/src/widgets/lv_bar.c ****     draw_rect_dsc.border_opa = border_opa;
 490:Drivers/lvgl/lvgl/src/widgets/lv_bar.c ****     draw_rect_dsc.shadow_opa = shadow_opa;
 491:Drivers/lvgl/lvgl/src/widgets/lv_bar.c **** 
 492:Drivers/lvgl/lvgl/src/widgets/lv_bar.c ****     /*Draw the border*/
 493:Drivers/lvgl/lvgl/src/widgets/lv_bar.c ****     draw_rect_dsc.bg_opa = LV_OPA_TRANSP;
 494:Drivers/lvgl/lvgl/src/widgets/lv_bar.c ****     draw_rect_dsc.bg_img_opa = LV_OPA_TRANSP;
 495:Drivers/lvgl/lvgl/src/widgets/lv_bar.c ****     draw_rect_dsc.shadow_opa = LV_OPA_TRANSP;
 496:Drivers/lvgl/lvgl/src/widgets/lv_bar.c ****     lv_draw_rect(draw_ctx, &draw_rect_dsc, &bar->indic_area);
 497:Drivers/lvgl/lvgl/src/widgets/lv_bar.c **** 
 498:Drivers/lvgl/lvgl/src/widgets/lv_bar.c **** #if LV_DRAW_COMPLEX
 499:Drivers/lvgl/lvgl/src/widgets/lv_bar.c ****     lv_draw_mask_free_param(&mask_indic_param);
 500:Drivers/lvgl/lvgl/src/widgets/lv_bar.c ****     lv_draw_mask_free_param(&mask_bg_param);
 501:Drivers/lvgl/lvgl/src/widgets/lv_bar.c ****     lv_draw_mask_remove_id(mask_indic_id);
 502:Drivers/lvgl/lvgl/src/widgets/lv_bar.c ****     lv_draw_mask_remove_id(mask_bg_id);
 503:Drivers/lvgl/lvgl/src/widgets/lv_bar.c **** #endif
 504:Drivers/lvgl/lvgl/src/widgets/lv_bar.c **** 
 505:Drivers/lvgl/lvgl/src/widgets/lv_bar.c ****     lv_event_send(obj, LV_EVENT_DRAW_PART_END, &part_draw_dsc);
 506:Drivers/lvgl/lvgl/src/widgets/lv_bar.c **** }
 507:Drivers/lvgl/lvgl/src/widgets/lv_bar.c **** 
 508:Drivers/lvgl/lvgl/src/widgets/lv_bar.c **** static void lv_bar_event(const lv_obj_class_t * class_p, lv_event_t * e)
 509:Drivers/lvgl/lvgl/src/widgets/lv_bar.c **** {
 510:Drivers/lvgl/lvgl/src/widgets/lv_bar.c ****     LV_UNUSED(class_p);
 511:Drivers/lvgl/lvgl/src/widgets/lv_bar.c **** 
 512:Drivers/lvgl/lvgl/src/widgets/lv_bar.c ****     lv_res_t res;
 513:Drivers/lvgl/lvgl/src/widgets/lv_bar.c **** 
 514:Drivers/lvgl/lvgl/src/widgets/lv_bar.c ****     /*Call the ancestor's event handler*/
 515:Drivers/lvgl/lvgl/src/widgets/lv_bar.c ****     res = lv_obj_event_base(MY_CLASS, e);
 516:Drivers/lvgl/lvgl/src/widgets/lv_bar.c ****     if(res != LV_RES_OK) return;
 517:Drivers/lvgl/lvgl/src/widgets/lv_bar.c **** 
 518:Drivers/lvgl/lvgl/src/widgets/lv_bar.c ****     lv_event_code_t code = lv_event_get_code(e);
 519:Drivers/lvgl/lvgl/src/widgets/lv_bar.c ****     lv_obj_t * obj = lv_event_get_target(e);
 520:Drivers/lvgl/lvgl/src/widgets/lv_bar.c **** 
 521:Drivers/lvgl/lvgl/src/widgets/lv_bar.c ****     if(code == LV_EVENT_REFR_EXT_DRAW_SIZE) {
 522:Drivers/lvgl/lvgl/src/widgets/lv_bar.c ****         lv_coord_t indic_size;
 523:Drivers/lvgl/lvgl/src/widgets/lv_bar.c ****         indic_size = lv_obj_calculate_ext_draw_size(obj, LV_PART_INDICATOR);
 524:Drivers/lvgl/lvgl/src/widgets/lv_bar.c **** 
 525:Drivers/lvgl/lvgl/src/widgets/lv_bar.c ****         /*Bg size is handled by lv_obj*/
 526:Drivers/lvgl/lvgl/src/widgets/lv_bar.c ****         lv_coord_t * s = lv_event_get_param(e);
 527:Drivers/lvgl/lvgl/src/widgets/lv_bar.c ****         *s = LV_MAX(*s, indic_size);
 528:Drivers/lvgl/lvgl/src/widgets/lv_bar.c **** 
ARM GAS  /tmp/ccd9EMp8.s 			page 14


 529:Drivers/lvgl/lvgl/src/widgets/lv_bar.c ****         /*Calculate the indicator area*/
 530:Drivers/lvgl/lvgl/src/widgets/lv_bar.c ****         lv_coord_t bg_left = lv_obj_get_style_pad_left(obj, LV_PART_MAIN);
 531:Drivers/lvgl/lvgl/src/widgets/lv_bar.c ****         lv_coord_t bg_right = lv_obj_get_style_pad_right(obj, LV_PART_MAIN);
 532:Drivers/lvgl/lvgl/src/widgets/lv_bar.c ****         lv_coord_t bg_top = lv_obj_get_style_pad_top(obj, LV_PART_MAIN);
 533:Drivers/lvgl/lvgl/src/widgets/lv_bar.c ****         lv_coord_t bg_bottom = lv_obj_get_style_pad_bottom(obj, LV_PART_MAIN);
 534:Drivers/lvgl/lvgl/src/widgets/lv_bar.c **** 
 535:Drivers/lvgl/lvgl/src/widgets/lv_bar.c ****         lv_coord_t pad = LV_MIN4(bg_left, bg_right, bg_top, bg_bottom);
 536:Drivers/lvgl/lvgl/src/widgets/lv_bar.c ****         if(pad < 0) {
 537:Drivers/lvgl/lvgl/src/widgets/lv_bar.c ****             *s = LV_MAX(*s, -pad);
 538:Drivers/lvgl/lvgl/src/widgets/lv_bar.c ****         }
 539:Drivers/lvgl/lvgl/src/widgets/lv_bar.c ****     }
 540:Drivers/lvgl/lvgl/src/widgets/lv_bar.c ****     else if(code == LV_EVENT_PRESSED || code == LV_EVENT_RELEASED) {
 541:Drivers/lvgl/lvgl/src/widgets/lv_bar.c ****         lv_bar_t * bar = (lv_bar_t *)obj;
 542:Drivers/lvgl/lvgl/src/widgets/lv_bar.c ****         lv_obj_invalidate_area(obj, &bar->indic_area);
 543:Drivers/lvgl/lvgl/src/widgets/lv_bar.c ****     }
 544:Drivers/lvgl/lvgl/src/widgets/lv_bar.c ****     else if(code == LV_EVENT_DRAW_MAIN) {
 545:Drivers/lvgl/lvgl/src/widgets/lv_bar.c ****         draw_indic(e);
 546:Drivers/lvgl/lvgl/src/widgets/lv_bar.c ****     }
 547:Drivers/lvgl/lvgl/src/widgets/lv_bar.c **** }
 548:Drivers/lvgl/lvgl/src/widgets/lv_bar.c **** 
 549:Drivers/lvgl/lvgl/src/widgets/lv_bar.c **** static void lv_bar_anim(void * var, int32_t value)
 550:Drivers/lvgl/lvgl/src/widgets/lv_bar.c **** {
 551:Drivers/lvgl/lvgl/src/widgets/lv_bar.c ****     _lv_bar_anim_t * bar_anim = var;
 552:Drivers/lvgl/lvgl/src/widgets/lv_bar.c ****     bar_anim->anim_state    = value;
 553:Drivers/lvgl/lvgl/src/widgets/lv_bar.c ****     lv_obj_invalidate(bar_anim->bar);
 554:Drivers/lvgl/lvgl/src/widgets/lv_bar.c **** }
 555:Drivers/lvgl/lvgl/src/widgets/lv_bar.c **** 
 556:Drivers/lvgl/lvgl/src/widgets/lv_bar.c **** static void lv_bar_anim_ready(lv_anim_t * a)
 557:Drivers/lvgl/lvgl/src/widgets/lv_bar.c **** {
 558:Drivers/lvgl/lvgl/src/widgets/lv_bar.c ****     _lv_bar_anim_t * var = a->var;
 559:Drivers/lvgl/lvgl/src/widgets/lv_bar.c ****     lv_obj_t * obj = (lv_obj_t *)var->bar;
 560:Drivers/lvgl/lvgl/src/widgets/lv_bar.c ****     lv_bar_t * bar = (lv_bar_t *)obj;
 561:Drivers/lvgl/lvgl/src/widgets/lv_bar.c **** 
 562:Drivers/lvgl/lvgl/src/widgets/lv_bar.c ****     var->anim_state = LV_BAR_ANIM_STATE_INV;
 563:Drivers/lvgl/lvgl/src/widgets/lv_bar.c ****     if(var == &bar->cur_value_anim)
 564:Drivers/lvgl/lvgl/src/widgets/lv_bar.c ****         bar->cur_value = var->anim_end;
 565:Drivers/lvgl/lvgl/src/widgets/lv_bar.c ****     else if(var == &bar->start_value_anim)
 566:Drivers/lvgl/lvgl/src/widgets/lv_bar.c ****         bar->start_value = var->anim_end;
 567:Drivers/lvgl/lvgl/src/widgets/lv_bar.c ****     lv_obj_invalidate(var->bar);
 568:Drivers/lvgl/lvgl/src/widgets/lv_bar.c **** }
 569:Drivers/lvgl/lvgl/src/widgets/lv_bar.c **** 
 570:Drivers/lvgl/lvgl/src/widgets/lv_bar.c **** static void lv_bar_set_value_with_anim(lv_obj_t * obj, int32_t new_value, int32_t * value_ptr,
 571:Drivers/lvgl/lvgl/src/widgets/lv_bar.c ****                                        _lv_bar_anim_t * anim_info, lv_anim_enable_t en)
 572:Drivers/lvgl/lvgl/src/widgets/lv_bar.c **** {
 573:Drivers/lvgl/lvgl/src/widgets/lv_bar.c ****     if(en == LV_ANIM_OFF) {
 574:Drivers/lvgl/lvgl/src/widgets/lv_bar.c ****         lv_anim_del(anim_info, NULL);
 575:Drivers/lvgl/lvgl/src/widgets/lv_bar.c ****         anim_info->anim_state = LV_BAR_ANIM_STATE_INV;
 576:Drivers/lvgl/lvgl/src/widgets/lv_bar.c ****         *value_ptr = new_value;
 577:Drivers/lvgl/lvgl/src/widgets/lv_bar.c ****         lv_obj_invalidate((lv_obj_t *)obj);
 578:Drivers/lvgl/lvgl/src/widgets/lv_bar.c ****     }
 579:Drivers/lvgl/lvgl/src/widgets/lv_bar.c ****     else {
 580:Drivers/lvgl/lvgl/src/widgets/lv_bar.c ****         /*No animation in progress -> simply set the values*/
 581:Drivers/lvgl/lvgl/src/widgets/lv_bar.c ****         if(anim_info->anim_state == LV_BAR_ANIM_STATE_INV) {
 582:Drivers/lvgl/lvgl/src/widgets/lv_bar.c ****             anim_info->anim_start = *value_ptr;
 583:Drivers/lvgl/lvgl/src/widgets/lv_bar.c ****             anim_info->anim_end   = new_value;
 584:Drivers/lvgl/lvgl/src/widgets/lv_bar.c ****         }
 585:Drivers/lvgl/lvgl/src/widgets/lv_bar.c ****         /*Animation in progress. Start from the animation end value*/
ARM GAS  /tmp/ccd9EMp8.s 			page 15


 586:Drivers/lvgl/lvgl/src/widgets/lv_bar.c ****         else {
 587:Drivers/lvgl/lvgl/src/widgets/lv_bar.c ****             anim_info->anim_start = anim_info->anim_end;
 588:Drivers/lvgl/lvgl/src/widgets/lv_bar.c ****             anim_info->anim_end   = new_value;
 589:Drivers/lvgl/lvgl/src/widgets/lv_bar.c ****         }
 590:Drivers/lvgl/lvgl/src/widgets/lv_bar.c ****         *value_ptr = new_value;
 591:Drivers/lvgl/lvgl/src/widgets/lv_bar.c ****         /*Stop the previous animation if it exists*/
 592:Drivers/lvgl/lvgl/src/widgets/lv_bar.c ****         lv_anim_del(anim_info, NULL);
 593:Drivers/lvgl/lvgl/src/widgets/lv_bar.c **** 
 594:Drivers/lvgl/lvgl/src/widgets/lv_bar.c ****         lv_anim_t a;
 595:Drivers/lvgl/lvgl/src/widgets/lv_bar.c ****         lv_anim_init(&a);
 596:Drivers/lvgl/lvgl/src/widgets/lv_bar.c ****         lv_anim_set_var(&a, anim_info);
 597:Drivers/lvgl/lvgl/src/widgets/lv_bar.c ****         lv_anim_set_exec_cb(&a, lv_bar_anim);
 598:Drivers/lvgl/lvgl/src/widgets/lv_bar.c ****         lv_anim_set_values(&a, LV_BAR_ANIM_STATE_START, LV_BAR_ANIM_STATE_END);
 599:Drivers/lvgl/lvgl/src/widgets/lv_bar.c ****         lv_anim_set_ready_cb(&a, lv_bar_anim_ready);
 600:Drivers/lvgl/lvgl/src/widgets/lv_bar.c ****         lv_anim_set_time(&a, lv_obj_get_style_anim_time(obj, LV_PART_MAIN));
 601:Drivers/lvgl/lvgl/src/widgets/lv_bar.c ****         lv_anim_start(&a);
 602:Drivers/lvgl/lvgl/src/widgets/lv_bar.c ****     }
 603:Drivers/lvgl/lvgl/src/widgets/lv_bar.c **** }
 604:Drivers/lvgl/lvgl/src/widgets/lv_bar.c **** 
 605:Drivers/lvgl/lvgl/src/widgets/lv_bar.c **** static void lv_bar_init_anim(lv_obj_t * obj, _lv_bar_anim_t * bar_anim)
 606:Drivers/lvgl/lvgl/src/widgets/lv_bar.c **** {
  83              		.loc 2 606 0
  84              		.cfi_startproc
  85              		@ args = 0, pretend = 0, frame = 0
  86              		@ frame_needed = 0, uses_anonymous_args = 0
  87              		@ link register save eliminated.
  88              	.LVL4:
 607:Drivers/lvgl/lvgl/src/widgets/lv_bar.c ****     bar_anim->bar = obj;
  89              		.loc 2 607 0
  90 0000 0860     		str	r0, [r1]
 608:Drivers/lvgl/lvgl/src/widgets/lv_bar.c ****     bar_anim->anim_start = 0;
  91              		.loc 2 608 0
  92 0002 0023     		movs	r3, #0
  93 0004 4B60     		str	r3, [r1, #4]
 609:Drivers/lvgl/lvgl/src/widgets/lv_bar.c ****     bar_anim->anim_end = 0;
  94              		.loc 2 609 0
  95 0006 8B60     		str	r3, [r1, #8]
 610:Drivers/lvgl/lvgl/src/widgets/lv_bar.c ****     bar_anim->anim_state = LV_BAR_ANIM_STATE_INV;
  96              		.loc 2 610 0
  97 0008 4FF0FF33 		mov	r3, #-1
  98 000c CB60     		str	r3, [r1, #12]
 611:Drivers/lvgl/lvgl/src/widgets/lv_bar.c **** }
  99              		.loc 2 611 0
 100 000e 7047     		bx	lr
 101              		.cfi_endproc
 102              	.LFE176:
 104              		.section	.text.draw_indic,"ax",%progbits
 105              		.align	1
 106              		.syntax unified
 107              		.thumb
 108              		.thumb_func
 109              		.fpu fpv5-d16
 111              	draw_indic:
 112              	.LFB171:
 244:Drivers/lvgl/lvgl/src/widgets/lv_bar.c ****     lv_obj_t * obj = lv_event_get_target(e);
 113              		.loc 2 244 0
 114              		.cfi_startproc
ARM GAS  /tmp/ccd9EMp8.s 			page 16


 115              		@ args = 0, pretend = 0, frame = 320
 116              		@ frame_needed = 0, uses_anonymous_args = 0
 117              	.LVL5:
 118 0000 2DE9F04F 		push	{r4, r5, r6, r7, r8, r9, r10, fp, lr}
 119              	.LCFI0:
 120              		.cfi_def_cfa_offset 36
 121              		.cfi_offset 4, -36
 122              		.cfi_offset 5, -32
 123              		.cfi_offset 6, -28
 124              		.cfi_offset 7, -24
 125              		.cfi_offset 8, -20
 126              		.cfi_offset 9, -16
 127              		.cfi_offset 10, -12
 128              		.cfi_offset 11, -8
 129              		.cfi_offset 14, -4
 130 0004 D1B0     		sub	sp, sp, #324
 131              	.LCFI1:
 132              		.cfi_def_cfa_offset 360
 133 0006 0546     		mov	r5, r0
 245:Drivers/lvgl/lvgl/src/widgets/lv_bar.c ****     lv_bar_t * bar = (lv_bar_t *)obj;
 134              		.loc 2 245 0
 135 0008 FFF7FEFF 		bl	lv_event_get_target
 136              	.LVL6:
 137 000c 0446     		mov	r4, r0
 138              	.LVL7:
 248:Drivers/lvgl/lvgl/src/widgets/lv_bar.c **** 
 139              		.loc 2 248 0
 140 000e 2846     		mov	r0, r5
 141              	.LVL8:
 142 0010 FFF7FEFF 		bl	lv_event_get_draw_ctx
 143              	.LVL9:
 144 0014 0290     		str	r0, [sp, #8]
 145              	.LVL10:
 251:Drivers/lvgl/lvgl/src/widgets/lv_bar.c **** 
 146              		.loc 2 251 0
 147 0016 4EA9     		add	r1, sp, #312
 148 0018 2046     		mov	r0, r4
 149              	.LVL11:
 150 001a FFF7FEFF 		bl	lv_obj_get_coords
 151              	.LVL12:
 152              	.LBB73:
 153              	.LBB74:
 154              		.file 3 "Drivers/lvgl/lvgl/src/widgets/../core/lv_obj_style_gen.h"
   1:Drivers/lvgl/lvgl/src/widgets/../core/lv_obj_style_gen.h **** static inline lv_coord_t lv_obj_get_style_width(const struct _lv_obj_t * obj, uint32_t part)
   2:Drivers/lvgl/lvgl/src/widgets/../core/lv_obj_style_gen.h **** {
   3:Drivers/lvgl/lvgl/src/widgets/../core/lv_obj_style_gen.h ****     lv_style_value_t v = lv_obj_get_style_prop(obj, part, LV_STYLE_WIDTH);
   4:Drivers/lvgl/lvgl/src/widgets/../core/lv_obj_style_gen.h ****     return (lv_coord_t)v.num;
   5:Drivers/lvgl/lvgl/src/widgets/../core/lv_obj_style_gen.h **** }
   6:Drivers/lvgl/lvgl/src/widgets/../core/lv_obj_style_gen.h **** 
   7:Drivers/lvgl/lvgl/src/widgets/../core/lv_obj_style_gen.h **** static inline lv_coord_t lv_obj_get_style_min_width(const struct _lv_obj_t * obj, uint32_t part)
   8:Drivers/lvgl/lvgl/src/widgets/../core/lv_obj_style_gen.h **** {
   9:Drivers/lvgl/lvgl/src/widgets/../core/lv_obj_style_gen.h ****     lv_style_value_t v = lv_obj_get_style_prop(obj, part, LV_STYLE_MIN_WIDTH);
  10:Drivers/lvgl/lvgl/src/widgets/../core/lv_obj_style_gen.h ****     return (lv_coord_t)v.num;
  11:Drivers/lvgl/lvgl/src/widgets/../core/lv_obj_style_gen.h **** }
  12:Drivers/lvgl/lvgl/src/widgets/../core/lv_obj_style_gen.h **** 
  13:Drivers/lvgl/lvgl/src/widgets/../core/lv_obj_style_gen.h **** static inline lv_coord_t lv_obj_get_style_max_width(const struct _lv_obj_t * obj, uint32_t part)
  14:Drivers/lvgl/lvgl/src/widgets/../core/lv_obj_style_gen.h **** {
ARM GAS  /tmp/ccd9EMp8.s 			page 17


  15:Drivers/lvgl/lvgl/src/widgets/../core/lv_obj_style_gen.h ****     lv_style_value_t v = lv_obj_get_style_prop(obj, part, LV_STYLE_MAX_WIDTH);
  16:Drivers/lvgl/lvgl/src/widgets/../core/lv_obj_style_gen.h ****     return (lv_coord_t)v.num;
  17:Drivers/lvgl/lvgl/src/widgets/../core/lv_obj_style_gen.h **** }
  18:Drivers/lvgl/lvgl/src/widgets/../core/lv_obj_style_gen.h **** 
  19:Drivers/lvgl/lvgl/src/widgets/../core/lv_obj_style_gen.h **** static inline lv_coord_t lv_obj_get_style_height(const struct _lv_obj_t * obj, uint32_t part)
  20:Drivers/lvgl/lvgl/src/widgets/../core/lv_obj_style_gen.h **** {
  21:Drivers/lvgl/lvgl/src/widgets/../core/lv_obj_style_gen.h ****     lv_style_value_t v = lv_obj_get_style_prop(obj, part, LV_STYLE_HEIGHT);
  22:Drivers/lvgl/lvgl/src/widgets/../core/lv_obj_style_gen.h ****     return (lv_coord_t)v.num;
  23:Drivers/lvgl/lvgl/src/widgets/../core/lv_obj_style_gen.h **** }
  24:Drivers/lvgl/lvgl/src/widgets/../core/lv_obj_style_gen.h **** 
  25:Drivers/lvgl/lvgl/src/widgets/../core/lv_obj_style_gen.h **** static inline lv_coord_t lv_obj_get_style_min_height(const struct _lv_obj_t * obj, uint32_t part)
  26:Drivers/lvgl/lvgl/src/widgets/../core/lv_obj_style_gen.h **** {
  27:Drivers/lvgl/lvgl/src/widgets/../core/lv_obj_style_gen.h ****     lv_style_value_t v = lv_obj_get_style_prop(obj, part, LV_STYLE_MIN_HEIGHT);
  28:Drivers/lvgl/lvgl/src/widgets/../core/lv_obj_style_gen.h ****     return (lv_coord_t)v.num;
  29:Drivers/lvgl/lvgl/src/widgets/../core/lv_obj_style_gen.h **** }
  30:Drivers/lvgl/lvgl/src/widgets/../core/lv_obj_style_gen.h **** 
  31:Drivers/lvgl/lvgl/src/widgets/../core/lv_obj_style_gen.h **** static inline lv_coord_t lv_obj_get_style_max_height(const struct _lv_obj_t * obj, uint32_t part)
  32:Drivers/lvgl/lvgl/src/widgets/../core/lv_obj_style_gen.h **** {
  33:Drivers/lvgl/lvgl/src/widgets/../core/lv_obj_style_gen.h ****     lv_style_value_t v = lv_obj_get_style_prop(obj, part, LV_STYLE_MAX_HEIGHT);
  34:Drivers/lvgl/lvgl/src/widgets/../core/lv_obj_style_gen.h ****     return (lv_coord_t)v.num;
  35:Drivers/lvgl/lvgl/src/widgets/../core/lv_obj_style_gen.h **** }
  36:Drivers/lvgl/lvgl/src/widgets/../core/lv_obj_style_gen.h **** 
  37:Drivers/lvgl/lvgl/src/widgets/../core/lv_obj_style_gen.h **** static inline lv_coord_t lv_obj_get_style_x(const struct _lv_obj_t * obj, uint32_t part)
  38:Drivers/lvgl/lvgl/src/widgets/../core/lv_obj_style_gen.h **** {
  39:Drivers/lvgl/lvgl/src/widgets/../core/lv_obj_style_gen.h ****     lv_style_value_t v = lv_obj_get_style_prop(obj, part, LV_STYLE_X);
  40:Drivers/lvgl/lvgl/src/widgets/../core/lv_obj_style_gen.h ****     return (lv_coord_t)v.num;
  41:Drivers/lvgl/lvgl/src/widgets/../core/lv_obj_style_gen.h **** }
  42:Drivers/lvgl/lvgl/src/widgets/../core/lv_obj_style_gen.h **** 
  43:Drivers/lvgl/lvgl/src/widgets/../core/lv_obj_style_gen.h **** static inline lv_coord_t lv_obj_get_style_y(const struct _lv_obj_t * obj, uint32_t part)
  44:Drivers/lvgl/lvgl/src/widgets/../core/lv_obj_style_gen.h **** {
  45:Drivers/lvgl/lvgl/src/widgets/../core/lv_obj_style_gen.h ****     lv_style_value_t v = lv_obj_get_style_prop(obj, part, LV_STYLE_Y);
  46:Drivers/lvgl/lvgl/src/widgets/../core/lv_obj_style_gen.h ****     return (lv_coord_t)v.num;
  47:Drivers/lvgl/lvgl/src/widgets/../core/lv_obj_style_gen.h **** }
  48:Drivers/lvgl/lvgl/src/widgets/../core/lv_obj_style_gen.h **** 
  49:Drivers/lvgl/lvgl/src/widgets/../core/lv_obj_style_gen.h **** static inline lv_align_t lv_obj_get_style_align(const struct _lv_obj_t * obj, uint32_t part)
  50:Drivers/lvgl/lvgl/src/widgets/../core/lv_obj_style_gen.h **** {
  51:Drivers/lvgl/lvgl/src/widgets/../core/lv_obj_style_gen.h ****     lv_style_value_t v = lv_obj_get_style_prop(obj, part, LV_STYLE_ALIGN);
  52:Drivers/lvgl/lvgl/src/widgets/../core/lv_obj_style_gen.h ****     return (lv_align_t)v.num;
  53:Drivers/lvgl/lvgl/src/widgets/../core/lv_obj_style_gen.h **** }
  54:Drivers/lvgl/lvgl/src/widgets/../core/lv_obj_style_gen.h **** 
  55:Drivers/lvgl/lvgl/src/widgets/../core/lv_obj_style_gen.h **** static inline lv_coord_t lv_obj_get_style_transform_width(const struct _lv_obj_t * obj, uint32_t pa
  56:Drivers/lvgl/lvgl/src/widgets/../core/lv_obj_style_gen.h **** {
  57:Drivers/lvgl/lvgl/src/widgets/../core/lv_obj_style_gen.h ****     lv_style_value_t v = lv_obj_get_style_prop(obj, part, LV_STYLE_TRANSFORM_WIDTH);
 155              		.loc 3 57 0
 156 001e 6822     		movs	r2, #104
 157 0020 0021     		movs	r1, #0
 158 0022 2046     		mov	r0, r4
 159 0024 FFF7FEFF 		bl	lv_obj_get_style_prop
 160              	.LVL13:
 161 0028 0546     		mov	r5, r0
 162              	.LVL14:
 163              	.LBE74:
 164              	.LBE73:
 165              	.LBB75:
 166              	.LBB76:
  58:Drivers/lvgl/lvgl/src/widgets/../core/lv_obj_style_gen.h ****     return (lv_coord_t)v.num;
  59:Drivers/lvgl/lvgl/src/widgets/../core/lv_obj_style_gen.h **** }
ARM GAS  /tmp/ccd9EMp8.s 			page 18


  60:Drivers/lvgl/lvgl/src/widgets/../core/lv_obj_style_gen.h **** 
  61:Drivers/lvgl/lvgl/src/widgets/../core/lv_obj_style_gen.h **** static inline lv_coord_t lv_obj_get_style_transform_height(const struct _lv_obj_t * obj, uint32_t p
  62:Drivers/lvgl/lvgl/src/widgets/../core/lv_obj_style_gen.h **** {
  63:Drivers/lvgl/lvgl/src/widgets/../core/lv_obj_style_gen.h ****     lv_style_value_t v = lv_obj_get_style_prop(obj, part, LV_STYLE_TRANSFORM_HEIGHT);
 167              		.loc 3 63 0
 168 002a 6922     		movs	r2, #105
 169 002c 0021     		movs	r1, #0
 170 002e 2046     		mov	r0, r4
 171 0030 FFF7FEFF 		bl	lv_obj_get_style_prop
 172              	.LVL15:
 173              	.LBE76:
 174              	.LBE75:
 255:Drivers/lvgl/lvgl/src/widgets/lv_bar.c ****     bar_coords.x2 += transf_w;
 175              		.loc 2 255 0
 176 0034 ADB2     		uxth	r5, r5
 177 0036 BDF83831 		ldrh	r3, [sp, #312]
 178 003a 5B1B     		subs	r3, r3, r5
 179 003c 9BB2     		uxth	r3, r3
 180 003e ADF83831 		strh	r3, [sp, #312]	@ movhi
 256:Drivers/lvgl/lvgl/src/widgets/lv_bar.c ****     bar_coords.y1 -= transf_h;
 181              		.loc 2 256 0
 182 0042 BDF83C21 		ldrh	r2, [sp, #316]
 183 0046 1544     		add	r5, r5, r2
 184 0048 ADB2     		uxth	r5, r5
 185 004a ADF83C51 		strh	r5, [sp, #316]	@ movhi
 257:Drivers/lvgl/lvgl/src/widgets/lv_bar.c ****     bar_coords.y2 += transf_h;
 186              		.loc 2 257 0
 187 004e 80B2     		uxth	r0, r0
 188 0050 BDF83A61 		ldrh	r6, [sp, #314]
 189 0054 361A     		subs	r6, r6, r0
 190 0056 B6B2     		uxth	r6, r6
 191 0058 ADF83A61 		strh	r6, [sp, #314]	@ movhi
 258:Drivers/lvgl/lvgl/src/widgets/lv_bar.c ****     lv_coord_t barw = lv_area_get_width(&bar_coords);
 192              		.loc 2 258 0
 193 005c BDF83E21 		ldrh	r2, [sp, #318]
 194 0060 1044     		add	r0, r0, r2
 195 0062 80B2     		uxth	r0, r0
 196 0064 ADF83E01 		strh	r0, [sp, #318]	@ movhi
 197              	.LVL16:
 198              	.LBB77:
 199              	.LBB78:
 125:Drivers/lvgl/lvgl/src/widgets/../core/../misc/../font/../misc/lv_area.h **** }
 200              		.loc 1 125 0
 201 0068 ED1A     		subs	r5, r5, r3
 202 006a ADB2     		uxth	r5, r5
 203 006c 0135     		adds	r5, r5, #1
 204 006e 2DB2     		sxth	r5, r5
 205              	.LVL17:
 206              	.LBE78:
 207              	.LBE77:
 208              	.LBB79:
 209              	.LBB80:
 135:Drivers/lvgl/lvgl/src/widgets/../core/../misc/../font/../misc/lv_area.h **** }
 210              		.loc 1 135 0
 211 0070 861B     		subs	r6, r0, r6
 212 0072 B6B2     		uxth	r6, r6
 213 0074 0136     		adds	r6, r6, #1
ARM GAS  /tmp/ccd9EMp8.s 			page 19


 214 0076 36B2     		sxth	r6, r6
 215              	.LVL18:
 216              	.LBE80:
 217              	.LBE79:
 261:Drivers/lvgl/lvgl/src/widgets/lv_bar.c ****     bool hor = barw >= barh ? true : false;
 218              		.loc 2 261 0
 219 0078 E16A     		ldr	r1, [r4, #44]
 220 007a A26A     		ldr	r2, [r4, #40]
 221 007c A1EB020A 		sub	r10, r1, r2
 222              	.LVL19:
 262:Drivers/lvgl/lvgl/src/widgets/lv_bar.c ****     bool sym = false;
 223              		.loc 2 262 0
 224 0080 AE42     		cmp	r6, r5
 225 0082 CCBF     		ite	gt
 226 0084 0023     		movgt	r3, #0
 227 0086 0123     		movle	r3, #1
 228 0088 0993     		str	r3, [sp, #36]
 229              	.LVL20:
 264:Drivers/lvgl/lvgl/src/widgets/lv_bar.c ****        bar->start_value == bar->min_value) sym = true;
 230              		.loc 2 264 0
 231 008a 94F85C30 		ldrb	r3, [r4, #92]	@ zero_extendqisi2
 232 008e 03F00303 		and	r3, r3, #3
 233 0092 012B     		cmp	r3, #1
 234 0094 00F0E781 		beq	.L44
 263:Drivers/lvgl/lvgl/src/widgets/lv_bar.c ****     if(bar->mode == LV_BAR_MODE_SYMMETRICAL && bar->min_value < 0 && bar->max_value > 0 &&
 235              		.loc 2 263 0
 236 0098 0023     		movs	r3, #0
 237 009a 0393     		str	r3, [sp, #12]
 238              	.L5:
 239              	.LVL21:
 240              	.LBB81:
 241              	.LBB82:
  64:Drivers/lvgl/lvgl/src/widgets/../core/lv_obj_style_gen.h ****     return (lv_coord_t)v.num;
  65:Drivers/lvgl/lvgl/src/widgets/../core/lv_obj_style_gen.h **** }
  66:Drivers/lvgl/lvgl/src/widgets/../core/lv_obj_style_gen.h **** 
  67:Drivers/lvgl/lvgl/src/widgets/../core/lv_obj_style_gen.h **** static inline lv_coord_t lv_obj_get_style_translate_x(const struct _lv_obj_t * obj, uint32_t part)
  68:Drivers/lvgl/lvgl/src/widgets/../core/lv_obj_style_gen.h **** {
  69:Drivers/lvgl/lvgl/src/widgets/../core/lv_obj_style_gen.h ****     lv_style_value_t v = lv_obj_get_style_prop(obj, part, LV_STYLE_TRANSLATE_X);
  70:Drivers/lvgl/lvgl/src/widgets/../core/lv_obj_style_gen.h ****     return (lv_coord_t)v.num;
  71:Drivers/lvgl/lvgl/src/widgets/../core/lv_obj_style_gen.h **** }
  72:Drivers/lvgl/lvgl/src/widgets/../core/lv_obj_style_gen.h **** 
  73:Drivers/lvgl/lvgl/src/widgets/../core/lv_obj_style_gen.h **** static inline lv_coord_t lv_obj_get_style_translate_y(const struct _lv_obj_t * obj, uint32_t part)
  74:Drivers/lvgl/lvgl/src/widgets/../core/lv_obj_style_gen.h **** {
  75:Drivers/lvgl/lvgl/src/widgets/../core/lv_obj_style_gen.h ****     lv_style_value_t v = lv_obj_get_style_prop(obj, part, LV_STYLE_TRANSLATE_Y);
  76:Drivers/lvgl/lvgl/src/widgets/../core/lv_obj_style_gen.h ****     return (lv_coord_t)v.num;
  77:Drivers/lvgl/lvgl/src/widgets/../core/lv_obj_style_gen.h **** }
  78:Drivers/lvgl/lvgl/src/widgets/../core/lv_obj_style_gen.h **** 
  79:Drivers/lvgl/lvgl/src/widgets/../core/lv_obj_style_gen.h **** static inline lv_coord_t lv_obj_get_style_transform_zoom(const struct _lv_obj_t * obj, uint32_t par
  80:Drivers/lvgl/lvgl/src/widgets/../core/lv_obj_style_gen.h **** {
  81:Drivers/lvgl/lvgl/src/widgets/../core/lv_obj_style_gen.h ****     lv_style_value_t v = lv_obj_get_style_prop(obj, part, LV_STYLE_TRANSFORM_ZOOM);
  82:Drivers/lvgl/lvgl/src/widgets/../core/lv_obj_style_gen.h ****     return (lv_coord_t)v.num;
  83:Drivers/lvgl/lvgl/src/widgets/../core/lv_obj_style_gen.h **** }
  84:Drivers/lvgl/lvgl/src/widgets/../core/lv_obj_style_gen.h **** 
  85:Drivers/lvgl/lvgl/src/widgets/../core/lv_obj_style_gen.h **** static inline lv_coord_t lv_obj_get_style_transform_angle(const struct _lv_obj_t * obj, uint32_t pa
  86:Drivers/lvgl/lvgl/src/widgets/../core/lv_obj_style_gen.h **** {
  87:Drivers/lvgl/lvgl/src/widgets/../core/lv_obj_style_gen.h ****     lv_style_value_t v = lv_obj_get_style_prop(obj, part, LV_STYLE_TRANSFORM_ANGLE);
  88:Drivers/lvgl/lvgl/src/widgets/../core/lv_obj_style_gen.h ****     return (lv_coord_t)v.num;
ARM GAS  /tmp/ccd9EMp8.s 			page 20


  89:Drivers/lvgl/lvgl/src/widgets/../core/lv_obj_style_gen.h **** }
  90:Drivers/lvgl/lvgl/src/widgets/../core/lv_obj_style_gen.h **** 
  91:Drivers/lvgl/lvgl/src/widgets/../core/lv_obj_style_gen.h **** static inline lv_coord_t lv_obj_get_style_transform_pivot_x(const struct _lv_obj_t * obj, uint32_t 
  92:Drivers/lvgl/lvgl/src/widgets/../core/lv_obj_style_gen.h **** {
  93:Drivers/lvgl/lvgl/src/widgets/../core/lv_obj_style_gen.h ****     lv_style_value_t v = lv_obj_get_style_prop(obj, part, LV_STYLE_TRANSFORM_PIVOT_X);
  94:Drivers/lvgl/lvgl/src/widgets/../core/lv_obj_style_gen.h ****     return (lv_coord_t)v.num;
  95:Drivers/lvgl/lvgl/src/widgets/../core/lv_obj_style_gen.h **** }
  96:Drivers/lvgl/lvgl/src/widgets/../core/lv_obj_style_gen.h **** 
  97:Drivers/lvgl/lvgl/src/widgets/../core/lv_obj_style_gen.h **** static inline lv_coord_t lv_obj_get_style_transform_pivot_y(const struct _lv_obj_t * obj, uint32_t 
  98:Drivers/lvgl/lvgl/src/widgets/../core/lv_obj_style_gen.h **** {
  99:Drivers/lvgl/lvgl/src/widgets/../core/lv_obj_style_gen.h ****     lv_style_value_t v = lv_obj_get_style_prop(obj, part, LV_STYLE_TRANSFORM_PIVOT_Y);
 100:Drivers/lvgl/lvgl/src/widgets/../core/lv_obj_style_gen.h ****     return (lv_coord_t)v.num;
 101:Drivers/lvgl/lvgl/src/widgets/../core/lv_obj_style_gen.h **** }
 102:Drivers/lvgl/lvgl/src/widgets/../core/lv_obj_style_gen.h **** 
 103:Drivers/lvgl/lvgl/src/widgets/../core/lv_obj_style_gen.h **** static inline lv_coord_t lv_obj_get_style_pad_top(const struct _lv_obj_t * obj, uint32_t part)
 104:Drivers/lvgl/lvgl/src/widgets/../core/lv_obj_style_gen.h **** {
 105:Drivers/lvgl/lvgl/src/widgets/../core/lv_obj_style_gen.h ****     lv_style_value_t v = lv_obj_get_style_prop(obj, part, LV_STYLE_PAD_TOP);
 106:Drivers/lvgl/lvgl/src/widgets/../core/lv_obj_style_gen.h ****     return (lv_coord_t)v.num;
 107:Drivers/lvgl/lvgl/src/widgets/../core/lv_obj_style_gen.h **** }
 108:Drivers/lvgl/lvgl/src/widgets/../core/lv_obj_style_gen.h **** 
 109:Drivers/lvgl/lvgl/src/widgets/../core/lv_obj_style_gen.h **** static inline lv_coord_t lv_obj_get_style_pad_bottom(const struct _lv_obj_t * obj, uint32_t part)
 110:Drivers/lvgl/lvgl/src/widgets/../core/lv_obj_style_gen.h **** {
 111:Drivers/lvgl/lvgl/src/widgets/../core/lv_obj_style_gen.h ****     lv_style_value_t v = lv_obj_get_style_prop(obj, part, LV_STYLE_PAD_BOTTOM);
 112:Drivers/lvgl/lvgl/src/widgets/../core/lv_obj_style_gen.h ****     return (lv_coord_t)v.num;
 113:Drivers/lvgl/lvgl/src/widgets/../core/lv_obj_style_gen.h **** }
 114:Drivers/lvgl/lvgl/src/widgets/../core/lv_obj_style_gen.h **** 
 115:Drivers/lvgl/lvgl/src/widgets/../core/lv_obj_style_gen.h **** static inline lv_coord_t lv_obj_get_style_pad_left(const struct _lv_obj_t * obj, uint32_t part)
 116:Drivers/lvgl/lvgl/src/widgets/../core/lv_obj_style_gen.h **** {
 117:Drivers/lvgl/lvgl/src/widgets/../core/lv_obj_style_gen.h ****     lv_style_value_t v = lv_obj_get_style_prop(obj, part, LV_STYLE_PAD_LEFT);
 242              		.loc 3 117 0
 243 009c 1222     		movs	r2, #18
 244 009e 0021     		movs	r1, #0
 245 00a0 2046     		mov	r0, r4
 246 00a2 FFF7FEFF 		bl	lv_obj_get_style_prop
 247              	.LVL22:
 248 00a6 8146     		mov	r9, r0
 249              	.LVL23:
 250              	.LBE82:
 251              	.LBE81:
 252              	.LBB83:
 253              	.LBB84:
 118:Drivers/lvgl/lvgl/src/widgets/../core/lv_obj_style_gen.h ****     return (lv_coord_t)v.num;
 119:Drivers/lvgl/lvgl/src/widgets/../core/lv_obj_style_gen.h **** }
 120:Drivers/lvgl/lvgl/src/widgets/../core/lv_obj_style_gen.h **** 
 121:Drivers/lvgl/lvgl/src/widgets/../core/lv_obj_style_gen.h **** static inline lv_coord_t lv_obj_get_style_pad_right(const struct _lv_obj_t * obj, uint32_t part)
 122:Drivers/lvgl/lvgl/src/widgets/../core/lv_obj_style_gen.h **** {
 123:Drivers/lvgl/lvgl/src/widgets/../core/lv_obj_style_gen.h ****     lv_style_value_t v = lv_obj_get_style_prop(obj, part, LV_STYLE_PAD_RIGHT);
 254              		.loc 3 123 0
 255 00a8 1322     		movs	r2, #19
 256 00aa 0021     		movs	r1, #0
 257 00ac 2046     		mov	r0, r4
 258 00ae FFF7FEFF 		bl	lv_obj_get_style_prop
 259              	.LVL24:
 260 00b2 8046     		mov	r8, r0
 261              	.LVL25:
 262              	.LBE84:
 263              	.LBE83:
ARM GAS  /tmp/ccd9EMp8.s 			page 21


 264              	.LBB85:
 265              	.LBB86:
 105:Drivers/lvgl/lvgl/src/widgets/../core/lv_obj_style_gen.h ****     return (lv_coord_t)v.num;
 266              		.loc 3 105 0
 267 00b4 1022     		movs	r2, #16
 268 00b6 0021     		movs	r1, #0
 269 00b8 2046     		mov	r0, r4
 270 00ba FFF7FEFF 		bl	lv_obj_get_style_prop
 271              	.LVL26:
 272 00be 0746     		mov	r7, r0
 273              	.LVL27:
 274              	.LBE86:
 275              	.LBE85:
 276              	.LBB87:
 277              	.LBB88:
 111:Drivers/lvgl/lvgl/src/widgets/../core/lv_obj_style_gen.h ****     return (lv_coord_t)v.num;
 278              		.loc 3 111 0
 279 00c0 1122     		movs	r2, #17
 280 00c2 0021     		movs	r1, #0
 281 00c4 2046     		mov	r0, r4
 282 00c6 FFF7FEFF 		bl	lv_obj_get_style_prop
 283              	.LVL28:
 284              	.LBE88:
 285              	.LBE87:
 273:Drivers/lvgl/lvgl/src/widgets/lv_bar.c ****     bar->indic_area.x1 += bg_left;
 286              		.loc 2 273 0
 287 00ca 04F13403 		add	r3, r4, #52
 288 00ce 0093     		str	r3, [sp]
 289              	.LVL29:
 290              	.LBB89:
 291              	.LBB90:
 112:Drivers/lvgl/lvgl/src/widgets/../core/../misc/../font/../misc/lv_area.h ****     dest->y1 = src->y1;
 292              		.loc 1 112 0
 293 00d0 BDF938C1 		ldrsh	ip, [sp, #312]
 113:Drivers/lvgl/lvgl/src/widgets/../core/../misc/../font/../misc/lv_area.h ****     dest->x2 = src->x2;
 294              		.loc 1 113 0
 295 00d4 BDF93A11 		ldrsh	r1, [sp, #314]
 114:Drivers/lvgl/lvgl/src/widgets/../core/../misc/../font/../misc/lv_area.h ****     dest->y2 = src->y2;
 296              		.loc 1 114 0
 297 00d8 BDF93C21 		ldrsh	r2, [sp, #316]
 115:Drivers/lvgl/lvgl/src/widgets/../core/../misc/../font/../misc/lv_area.h **** }
 298              		.loc 1 115 0
 299 00dc BDF93EE1 		ldrsh	lr, [sp, #318]
 300              	.LVL30:
 301              	.LBE90:
 302              	.LBE89:
 274:Drivers/lvgl/lvgl/src/widgets/lv_bar.c ****     bar->indic_area.x2 -= bg_right;
 303              		.loc 2 274 0
 304 00e0 1FFA89F3 		uxth	r3, r9
 305 00e4 0493     		str	r3, [sp, #16]
 306 00e6 9C44     		add	ip, ip, r3
 307 00e8 1FFA8CFC 		uxth	ip, ip
 308 00ec A4F834C0 		strh	ip, [r4, #52]	@ movhi
 275:Drivers/lvgl/lvgl/src/widgets/lv_bar.c ****     bar->indic_area.y1 += bg_top;
 309              		.loc 2 275 0
 310 00f0 1FFA88F3 		uxth	r3, r8
 311 00f4 0593     		str	r3, [sp, #20]
ARM GAS  /tmp/ccd9EMp8.s 			page 22


 312 00f6 D21A     		subs	r2, r2, r3
 313 00f8 92B2     		uxth	r2, r2
 314 00fa 2287     		strh	r2, [r4, #56]	@ movhi
 276:Drivers/lvgl/lvgl/src/widgets/lv_bar.c ****     bar->indic_area.y2 -= bg_bottom;
 315              		.loc 2 276 0
 316 00fc BBB2     		uxth	r3, r7
 317 00fe 0693     		str	r3, [sp, #24]
 318 0100 1944     		add	r1, r1, r3
 319 0102 89B2     		uxth	r1, r1
 320 0104 E186     		strh	r1, [r4, #54]	@ movhi
 277:Drivers/lvgl/lvgl/src/widgets/lv_bar.c **** 
 321              		.loc 2 277 0
 322 0106 83B2     		uxth	r3, r0
 323 0108 0793     		str	r3, [sp, #28]
 324 010a AEEB0303 		sub	r3, lr, r3
 325 010e 9BB2     		uxth	r3, r3
 326 0110 6387     		strh	r3, [r4, #58]	@ movhi
 279:Drivers/lvgl/lvgl/src/widgets/lv_bar.c ****         bar->indic_area.y1 = obj->coords.y1 + (barh / 2) - (LV_BAR_SIZE_MIN / 2);
 327              		.loc 2 279 0
 328 0112 AE42     		cmp	r6, r5
 329 0114 00F3C181 		bgt	.L6
 330              	.LVL31:
 331              	.LBB91:
 332              	.LBB92:
 135:Drivers/lvgl/lvgl/src/widgets/../core/../misc/../font/../misc/lv_area.h **** }
 333              		.loc 1 135 0 discriminator 1
 334 0118 5B1A     		subs	r3, r3, r1
 335 011a 9BB2     		uxth	r3, r3
 336 011c 0133     		adds	r3, r3, #1
 337 011e 1BB2     		sxth	r3, r3
 338              	.LVL32:
 339              	.LBE92:
 340              	.LBE91:
 279:Drivers/lvgl/lvgl/src/widgets/lv_bar.c ****         bar->indic_area.y1 = obj->coords.y1 + (barh / 2) - (LV_BAR_SIZE_MIN / 2);
 341              		.loc 2 279 0 discriminator 1
 342 0120 032B     		cmp	r3, #3
 343 0122 00F3BA81 		bgt	.L6
 280:Drivers/lvgl/lvgl/src/widgets/lv_bar.c ****         bar->indic_area.y2 = bar->indic_area.y1 + LV_BAR_SIZE_MIN;
 344              		.loc 2 280 0
 345 0126 E38A     		ldrh	r3, [r4, #22]
 346 0128 3246     		mov	r2, r6
 347 012a 002E     		cmp	r6, #0
 348 012c C0F2B381 		blt	.L45
 349              	.L7:
 350 0130 03EB6203 		add	r3, r3, r2, asr #1
 351 0134 9BB2     		uxth	r3, r3
 352 0136 023B     		subs	r3, r3, #2
 353 0138 9BB2     		uxth	r3, r3
 354 013a E386     		strh	r3, [r4, #54]	@ movhi
 281:Drivers/lvgl/lvgl/src/widgets/lv_bar.c ****     }
 355              		.loc 2 281 0
 356 013c 0433     		adds	r3, r3, #4
 357 013e 6387     		strh	r3, [r4, #58]	@ movhi
 358              	.L8:
 359              	.LVL33:
 360              	.LBB93:
 361              	.LBB94:
ARM GAS  /tmp/ccd9EMp8.s 			page 23


 125:Drivers/lvgl/lvgl/src/widgets/../core/../misc/../font/../misc/lv_area.h **** }
 362              		.loc 1 125 0
 363 0140 238F     		ldrh	r3, [r4, #56]
 364 0142 A28E     		ldrh	r2, [r4, #52]
 365 0144 9B1A     		subs	r3, r3, r2
 366 0146 9BB2     		uxth	r3, r3
 367 0148 0133     		adds	r3, r3, #1
 368 014a 19B2     		sxth	r1, r3
 369 014c 0B91     		str	r1, [sp, #44]
 370              	.LVL34:
 371              	.LBE94:
 372              	.LBE93:
 373              	.LBB95:
 374              	.LBB96:
 135:Drivers/lvgl/lvgl/src/widgets/../core/../misc/../font/../misc/lv_area.h **** }
 375              		.loc 1 135 0
 376 014e 638F     		ldrh	r3, [r4, #58]
 377 0150 E28E     		ldrh	r2, [r4, #54]
 378 0152 9B1A     		subs	r3, r3, r2
 379 0154 9BB2     		uxth	r3, r3
 380 0156 0133     		adds	r3, r3, #1
 381 0158 1BB2     		sxth	r3, r3
 382 015a 0893     		str	r3, [sp, #32]
 383              	.LVL35:
 384              	.LBE96:
 385              	.LBE95:
 292:Drivers/lvgl/lvgl/src/widgets/lv_bar.c **** 
 386              		.loc 2 292 0
 387 015c AE42     		cmp	r6, r5
 388 015e 00F3B681 		bgt	.L42
 389 0162 8B46     		mov	fp, r1
 390              	.L10:
 391              	.LVL36:
 299:Drivers/lvgl/lvgl/src/widgets/lv_bar.c ****         axis1 = &bar->indic_area.x1;
 392              		.loc 2 299 0 discriminator 4
 393 0164 AE42     		cmp	r6, r5
 394 0166 00F3B581 		bgt	.L11
 300:Drivers/lvgl/lvgl/src/widgets/lv_bar.c ****         axis2 = &bar->indic_area.x2;
 395              		.loc 2 300 0
 396 016a 04F13403 		add	r3, r4, #52
 397 016e 0193     		str	r3, [sp, #4]
 398              	.LVL37:
 301:Drivers/lvgl/lvgl/src/widgets/lv_bar.c ****         indic_length_calc = lv_area_get_width;
 399              		.loc 2 301 0
 400 0170 04F13809 		add	r9, r4, #56
 401              	.LVL38:
 302:Drivers/lvgl/lvgl/src/widgets/lv_bar.c ****     }
 402              		.loc 2 302 0
 403 0174 C44B     		ldr	r3, .L53
 404              	.LVL39:
 405 0176 0A93     		str	r3, [sp, #40]
 406              	.LVL40:
 407              	.L12:
 310:Drivers/lvgl/lvgl/src/widgets/lv_bar.c ****         lv_coord_t anim_start_value_start_x =
 408              		.loc 2 310 0
 409 0178 A16D     		ldr	r1, [r4, #88]
 410 017a B1F1FF3F 		cmp	r1, #-1
ARM GAS  /tmp/ccd9EMp8.s 			page 24


 411 017e 00F0B381 		beq	.L13
 412              	.LBB97:
 312:Drivers/lvgl/lvgl/src/widgets/lv_bar.c ****         lv_coord_t anim_start_value_end_x =
 413              		.loc 2 312 0
 414 0182 276D     		ldr	r7, [r4, #80]
 415 0184 A36A     		ldr	r3, [r4, #40]
 416 0186 FF1A     		subs	r7, r7, r3
 417 0188 07FB0BF7 		mul	r7, r7, fp
 418 018c 97FBFAF7 		sdiv	r7, r7, r10
 311:Drivers/lvgl/lvgl/src/widgets/lv_bar.c ****             (int32_t)((int32_t)anim_length * (bar->start_value_anim.anim_start - bar->min_value)) /
 419              		.loc 2 311 0
 420 0190 38B2     		sxth	r0, r7
 421              	.LVL41:
 314:Drivers/lvgl/lvgl/src/widgets/lv_bar.c **** 
 422              		.loc 2 314 0
 423 0192 626D     		ldr	r2, [r4, #84]
 424 0194 D31A     		subs	r3, r2, r3
 425 0196 03FB0BF3 		mul	r3, r3, fp
 426 019a 93FBFAF3 		sdiv	r3, r3, r10
 313:Drivers/lvgl/lvgl/src/widgets/lv_bar.c ****             (int32_t)((int32_t)anim_length * (bar->start_value_anim.anim_end - bar->min_value)) / r
 427              		.loc 2 313 0
 428 019e 1BB2     		sxth	r3, r3
 429              	.LVL42:
 316:Drivers/lvgl/lvgl/src/widgets/lv_bar.c ****                               LV_BAR_ANIM_STATE_END);
 430              		.loc 2 316 0
 431 01a0 1B1A     		subs	r3, r3, r0
 432              	.LVL43:
 433 01a2 03FB01F3 		mul	r3, r3, r1
 434 01a6 002B     		cmp	r3, #0
 435 01a8 C0F29C81 		blt	.L46
 436              	.L14:
 437              	.LVL44:
 319:Drivers/lvgl/lvgl/src/widgets/lv_bar.c ****     }
 438              		.loc 2 319 0
 439 01ac 07EB2327 		add	r7, r7, r3, asr #8
 440 01b0 3FB2     		sxth	r7, r7
 441              	.LVL45:
 442              	.L15:
 443              	.LBE97:
 325:Drivers/lvgl/lvgl/src/widgets/lv_bar.c ****         lv_coord_t anim_cur_value_start_x =
 444              		.loc 2 325 0
 445 01b2 A16C     		ldr	r1, [r4, #72]
 446 01b4 B1F1FF3F 		cmp	r1, #-1
 447 01b8 00F0A181 		beq	.L16
 448              	.LBB98:
 327:Drivers/lvgl/lvgl/src/widgets/lv_bar.c ****         lv_coord_t anim_cur_value_end_x =
 449              		.loc 2 327 0
 450 01bc 206C     		ldr	r0, [r4, #64]
 451 01be A36A     		ldr	r3, [r4, #40]
 452 01c0 A0EB0308 		sub	r8, r0, r3
 453 01c4 08FB0BF8 		mul	r8, r8, fp
 454 01c8 98FBFAF8 		sdiv	r8, r8, r10
 326:Drivers/lvgl/lvgl/src/widgets/lv_bar.c ****             (int32_t)((int32_t)anim_length * (bar->cur_value_anim.anim_start - bar->min_value)) / r
 455              		.loc 2 326 0
 456 01cc 0FFA88F0 		sxth	r0, r8
 457              	.LVL46:
 329:Drivers/lvgl/lvgl/src/widgets/lv_bar.c **** 
ARM GAS  /tmp/ccd9EMp8.s 			page 25


 458              		.loc 2 329 0
 459 01d0 626C     		ldr	r2, [r4, #68]
 460 01d2 D31A     		subs	r3, r2, r3
 461 01d4 03FB0BF3 		mul	r3, r3, fp
 462 01d8 93FBFAF3 		sdiv	r3, r3, r10
 328:Drivers/lvgl/lvgl/src/widgets/lv_bar.c ****             (int32_t)((int32_t)anim_length * (bar->cur_value_anim.anim_end - bar->min_value)) / ran
 463              		.loc 2 328 0
 464 01dc 1BB2     		sxth	r3, r3
 465              	.LVL47:
 331:Drivers/lvgl/lvgl/src/widgets/lv_bar.c ****                                                       bar->cur_value_anim.anim_state) /
 466              		.loc 2 331 0
 467 01de 1B1A     		subs	r3, r3, r0
 468              	.LVL48:
 469 01e0 03FB01F3 		mul	r3, r3, r1
 332:Drivers/lvgl/lvgl/src/widgets/lv_bar.c ****                                                      LV_BAR_ANIM_STATE_END);
 470              		.loc 2 332 0
 471 01e4 002B     		cmp	r3, #0
 472 01e6 C0F28881 		blt	.L47
 473              	.L17:
 331:Drivers/lvgl/lvgl/src/widgets/lv_bar.c ****                                                       bar->cur_value_anim.anim_state) /
 474              		.loc 2 331 0
 475 01ea 08EB2328 		add	r8, r8, r3, asr #8
 476 01ee 0FFA88F8 		sxth	r8, r8
 477              	.LVL49:
 478              	.L18:
 479              	.LBE98:
 480              	.LBB99:
 481              	.LBB100:
 124:Drivers/lvgl/lvgl/src/widgets/../core/lv_obj_style_gen.h ****     return (lv_coord_t)v.num;
 125:Drivers/lvgl/lvgl/src/widgets/../core/lv_obj_style_gen.h **** }
 126:Drivers/lvgl/lvgl/src/widgets/../core/lv_obj_style_gen.h **** 
 127:Drivers/lvgl/lvgl/src/widgets/../core/lv_obj_style_gen.h **** static inline lv_coord_t lv_obj_get_style_pad_row(const struct _lv_obj_t * obj, uint32_t part)
 128:Drivers/lvgl/lvgl/src/widgets/../core/lv_obj_style_gen.h **** {
 129:Drivers/lvgl/lvgl/src/widgets/../core/lv_obj_style_gen.h ****     lv_style_value_t v = lv_obj_get_style_prop(obj, part, LV_STYLE_PAD_ROW);
 130:Drivers/lvgl/lvgl/src/widgets/../core/lv_obj_style_gen.h ****     return (lv_coord_t)v.num;
 131:Drivers/lvgl/lvgl/src/widgets/../core/lv_obj_style_gen.h **** }
 132:Drivers/lvgl/lvgl/src/widgets/../core/lv_obj_style_gen.h **** 
 133:Drivers/lvgl/lvgl/src/widgets/../core/lv_obj_style_gen.h **** static inline lv_coord_t lv_obj_get_style_pad_column(const struct _lv_obj_t * obj, uint32_t part)
 134:Drivers/lvgl/lvgl/src/widgets/../core/lv_obj_style_gen.h **** {
 135:Drivers/lvgl/lvgl/src/widgets/../core/lv_obj_style_gen.h ****     lv_style_value_t v = lv_obj_get_style_prop(obj, part, LV_STYLE_PAD_COLUMN);
 136:Drivers/lvgl/lvgl/src/widgets/../core/lv_obj_style_gen.h ****     return (lv_coord_t)v.num;
 137:Drivers/lvgl/lvgl/src/widgets/../core/lv_obj_style_gen.h **** }
 138:Drivers/lvgl/lvgl/src/widgets/../core/lv_obj_style_gen.h **** 
 139:Drivers/lvgl/lvgl/src/widgets/../core/lv_obj_style_gen.h **** static inline lv_color_t lv_obj_get_style_bg_color(const struct _lv_obj_t * obj, uint32_t part)
 140:Drivers/lvgl/lvgl/src/widgets/../core/lv_obj_style_gen.h **** {
 141:Drivers/lvgl/lvgl/src/widgets/../core/lv_obj_style_gen.h ****     lv_style_value_t v = lv_obj_get_style_prop(obj, part, LV_STYLE_BG_COLOR);
 142:Drivers/lvgl/lvgl/src/widgets/../core/lv_obj_style_gen.h ****     return v.color;
 143:Drivers/lvgl/lvgl/src/widgets/../core/lv_obj_style_gen.h **** }
 144:Drivers/lvgl/lvgl/src/widgets/../core/lv_obj_style_gen.h **** 
 145:Drivers/lvgl/lvgl/src/widgets/../core/lv_obj_style_gen.h **** static inline lv_color_t lv_obj_get_style_bg_color_filtered(const struct _lv_obj_t * obj, uint32_t 
 146:Drivers/lvgl/lvgl/src/widgets/../core/lv_obj_style_gen.h **** {
 147:Drivers/lvgl/lvgl/src/widgets/../core/lv_obj_style_gen.h ****     lv_style_value_t v = _lv_obj_style_apply_color_filter(obj, part, lv_obj_get_style_prop(obj, par
 148:Drivers/lvgl/lvgl/src/widgets/../core/lv_obj_style_gen.h ****     return v.color;
 149:Drivers/lvgl/lvgl/src/widgets/../core/lv_obj_style_gen.h **** }
 150:Drivers/lvgl/lvgl/src/widgets/../core/lv_obj_style_gen.h **** 
 151:Drivers/lvgl/lvgl/src/widgets/../core/lv_obj_style_gen.h **** static inline lv_opa_t lv_obj_get_style_bg_opa(const struct _lv_obj_t * obj, uint32_t part)
 152:Drivers/lvgl/lvgl/src/widgets/../core/lv_obj_style_gen.h **** {
ARM GAS  /tmp/ccd9EMp8.s 			page 26


 153:Drivers/lvgl/lvgl/src/widgets/../core/lv_obj_style_gen.h ****     lv_style_value_t v = lv_obj_get_style_prop(obj, part, LV_STYLE_BG_OPA);
 154:Drivers/lvgl/lvgl/src/widgets/../core/lv_obj_style_gen.h ****     return (lv_opa_t)v.num;
 155:Drivers/lvgl/lvgl/src/widgets/../core/lv_obj_style_gen.h **** }
 156:Drivers/lvgl/lvgl/src/widgets/../core/lv_obj_style_gen.h **** 
 157:Drivers/lvgl/lvgl/src/widgets/../core/lv_obj_style_gen.h **** static inline lv_color_t lv_obj_get_style_bg_grad_color(const struct _lv_obj_t * obj, uint32_t part
 158:Drivers/lvgl/lvgl/src/widgets/../core/lv_obj_style_gen.h **** {
 159:Drivers/lvgl/lvgl/src/widgets/../core/lv_obj_style_gen.h ****     lv_style_value_t v = lv_obj_get_style_prop(obj, part, LV_STYLE_BG_GRAD_COLOR);
 160:Drivers/lvgl/lvgl/src/widgets/../core/lv_obj_style_gen.h ****     return v.color;
 161:Drivers/lvgl/lvgl/src/widgets/../core/lv_obj_style_gen.h **** }
 162:Drivers/lvgl/lvgl/src/widgets/../core/lv_obj_style_gen.h **** 
 163:Drivers/lvgl/lvgl/src/widgets/../core/lv_obj_style_gen.h **** static inline lv_color_t lv_obj_get_style_bg_grad_color_filtered(const struct _lv_obj_t * obj, uint
 164:Drivers/lvgl/lvgl/src/widgets/../core/lv_obj_style_gen.h **** {
 165:Drivers/lvgl/lvgl/src/widgets/../core/lv_obj_style_gen.h ****     lv_style_value_t v = _lv_obj_style_apply_color_filter(obj, part, lv_obj_get_style_prop(obj, par
 166:Drivers/lvgl/lvgl/src/widgets/../core/lv_obj_style_gen.h ****     return v.color;
 167:Drivers/lvgl/lvgl/src/widgets/../core/lv_obj_style_gen.h **** }
 168:Drivers/lvgl/lvgl/src/widgets/../core/lv_obj_style_gen.h **** 
 169:Drivers/lvgl/lvgl/src/widgets/../core/lv_obj_style_gen.h **** static inline lv_grad_dir_t lv_obj_get_style_bg_grad_dir(const struct _lv_obj_t * obj, uint32_t par
 170:Drivers/lvgl/lvgl/src/widgets/../core/lv_obj_style_gen.h **** {
 171:Drivers/lvgl/lvgl/src/widgets/../core/lv_obj_style_gen.h ****     lv_style_value_t v = lv_obj_get_style_prop(obj, part, LV_STYLE_BG_GRAD_DIR);
 172:Drivers/lvgl/lvgl/src/widgets/../core/lv_obj_style_gen.h ****     return (lv_grad_dir_t)v.num;
 173:Drivers/lvgl/lvgl/src/widgets/../core/lv_obj_style_gen.h **** }
 174:Drivers/lvgl/lvgl/src/widgets/../core/lv_obj_style_gen.h **** 
 175:Drivers/lvgl/lvgl/src/widgets/../core/lv_obj_style_gen.h **** static inline lv_coord_t lv_obj_get_style_bg_main_stop(const struct _lv_obj_t * obj, uint32_t part)
 176:Drivers/lvgl/lvgl/src/widgets/../core/lv_obj_style_gen.h **** {
 177:Drivers/lvgl/lvgl/src/widgets/../core/lv_obj_style_gen.h ****     lv_style_value_t v = lv_obj_get_style_prop(obj, part, LV_STYLE_BG_MAIN_STOP);
 178:Drivers/lvgl/lvgl/src/widgets/../core/lv_obj_style_gen.h ****     return (lv_coord_t)v.num;
 179:Drivers/lvgl/lvgl/src/widgets/../core/lv_obj_style_gen.h **** }
 180:Drivers/lvgl/lvgl/src/widgets/../core/lv_obj_style_gen.h **** 
 181:Drivers/lvgl/lvgl/src/widgets/../core/lv_obj_style_gen.h **** static inline lv_coord_t lv_obj_get_style_bg_grad_stop(const struct _lv_obj_t * obj, uint32_t part)
 182:Drivers/lvgl/lvgl/src/widgets/../core/lv_obj_style_gen.h **** {
 183:Drivers/lvgl/lvgl/src/widgets/../core/lv_obj_style_gen.h ****     lv_style_value_t v = lv_obj_get_style_prop(obj, part, LV_STYLE_BG_GRAD_STOP);
 184:Drivers/lvgl/lvgl/src/widgets/../core/lv_obj_style_gen.h ****     return (lv_coord_t)v.num;
 185:Drivers/lvgl/lvgl/src/widgets/../core/lv_obj_style_gen.h **** }
 186:Drivers/lvgl/lvgl/src/widgets/../core/lv_obj_style_gen.h **** 
 187:Drivers/lvgl/lvgl/src/widgets/../core/lv_obj_style_gen.h **** static inline const lv_grad_dsc_t * lv_obj_get_style_bg_grad(const struct _lv_obj_t * obj, uint32_t
 188:Drivers/lvgl/lvgl/src/widgets/../core/lv_obj_style_gen.h **** {
 189:Drivers/lvgl/lvgl/src/widgets/../core/lv_obj_style_gen.h ****     lv_style_value_t v = lv_obj_get_style_prop(obj, part, LV_STYLE_BG_GRAD);
 190:Drivers/lvgl/lvgl/src/widgets/../core/lv_obj_style_gen.h ****     return (const lv_grad_dsc_t *)v.ptr;
 191:Drivers/lvgl/lvgl/src/widgets/../core/lv_obj_style_gen.h **** }
 192:Drivers/lvgl/lvgl/src/widgets/../core/lv_obj_style_gen.h **** 
 193:Drivers/lvgl/lvgl/src/widgets/../core/lv_obj_style_gen.h **** static inline lv_dither_mode_t lv_obj_get_style_bg_dither_mode(const struct _lv_obj_t * obj, uint32
 194:Drivers/lvgl/lvgl/src/widgets/../core/lv_obj_style_gen.h **** {
 195:Drivers/lvgl/lvgl/src/widgets/../core/lv_obj_style_gen.h ****     lv_style_value_t v = lv_obj_get_style_prop(obj, part, LV_STYLE_BG_DITHER_MODE);
 196:Drivers/lvgl/lvgl/src/widgets/../core/lv_obj_style_gen.h ****     return (lv_dither_mode_t)v.num;
 197:Drivers/lvgl/lvgl/src/widgets/../core/lv_obj_style_gen.h **** }
 198:Drivers/lvgl/lvgl/src/widgets/../core/lv_obj_style_gen.h **** 
 199:Drivers/lvgl/lvgl/src/widgets/../core/lv_obj_style_gen.h **** static inline const void * lv_obj_get_style_bg_img_src(const struct _lv_obj_t * obj, uint32_t part)
 200:Drivers/lvgl/lvgl/src/widgets/../core/lv_obj_style_gen.h **** {
 201:Drivers/lvgl/lvgl/src/widgets/../core/lv_obj_style_gen.h ****     lv_style_value_t v = lv_obj_get_style_prop(obj, part, LV_STYLE_BG_IMG_SRC);
 202:Drivers/lvgl/lvgl/src/widgets/../core/lv_obj_style_gen.h ****     return (const void *)v.ptr;
 203:Drivers/lvgl/lvgl/src/widgets/../core/lv_obj_style_gen.h **** }
 204:Drivers/lvgl/lvgl/src/widgets/../core/lv_obj_style_gen.h **** 
 205:Drivers/lvgl/lvgl/src/widgets/../core/lv_obj_style_gen.h **** static inline lv_opa_t lv_obj_get_style_bg_img_opa(const struct _lv_obj_t * obj, uint32_t part)
 206:Drivers/lvgl/lvgl/src/widgets/../core/lv_obj_style_gen.h **** {
 207:Drivers/lvgl/lvgl/src/widgets/../core/lv_obj_style_gen.h ****     lv_style_value_t v = lv_obj_get_style_prop(obj, part, LV_STYLE_BG_IMG_OPA);
 208:Drivers/lvgl/lvgl/src/widgets/../core/lv_obj_style_gen.h ****     return (lv_opa_t)v.num;
 209:Drivers/lvgl/lvgl/src/widgets/../core/lv_obj_style_gen.h **** }
ARM GAS  /tmp/ccd9EMp8.s 			page 27


 210:Drivers/lvgl/lvgl/src/widgets/../core/lv_obj_style_gen.h **** 
 211:Drivers/lvgl/lvgl/src/widgets/../core/lv_obj_style_gen.h **** static inline lv_color_t lv_obj_get_style_bg_img_recolor(const struct _lv_obj_t * obj, uint32_t par
 212:Drivers/lvgl/lvgl/src/widgets/../core/lv_obj_style_gen.h **** {
 213:Drivers/lvgl/lvgl/src/widgets/../core/lv_obj_style_gen.h ****     lv_style_value_t v = lv_obj_get_style_prop(obj, part, LV_STYLE_BG_IMG_RECOLOR);
 214:Drivers/lvgl/lvgl/src/widgets/../core/lv_obj_style_gen.h ****     return v.color;
 215:Drivers/lvgl/lvgl/src/widgets/../core/lv_obj_style_gen.h **** }
 216:Drivers/lvgl/lvgl/src/widgets/../core/lv_obj_style_gen.h **** 
 217:Drivers/lvgl/lvgl/src/widgets/../core/lv_obj_style_gen.h **** static inline lv_color_t lv_obj_get_style_bg_img_recolor_filtered(const struct _lv_obj_t * obj, uin
 218:Drivers/lvgl/lvgl/src/widgets/../core/lv_obj_style_gen.h **** {
 219:Drivers/lvgl/lvgl/src/widgets/../core/lv_obj_style_gen.h ****     lv_style_value_t v = _lv_obj_style_apply_color_filter(obj, part, lv_obj_get_style_prop(obj, par
 220:Drivers/lvgl/lvgl/src/widgets/../core/lv_obj_style_gen.h ****     return v.color;
 221:Drivers/lvgl/lvgl/src/widgets/../core/lv_obj_style_gen.h **** }
 222:Drivers/lvgl/lvgl/src/widgets/../core/lv_obj_style_gen.h **** 
 223:Drivers/lvgl/lvgl/src/widgets/../core/lv_obj_style_gen.h **** static inline lv_opa_t lv_obj_get_style_bg_img_recolor_opa(const struct _lv_obj_t * obj, uint32_t p
 224:Drivers/lvgl/lvgl/src/widgets/../core/lv_obj_style_gen.h **** {
 225:Drivers/lvgl/lvgl/src/widgets/../core/lv_obj_style_gen.h ****     lv_style_value_t v = lv_obj_get_style_prop(obj, part, LV_STYLE_BG_IMG_RECOLOR_OPA);
 226:Drivers/lvgl/lvgl/src/widgets/../core/lv_obj_style_gen.h ****     return (lv_opa_t)v.num;
 227:Drivers/lvgl/lvgl/src/widgets/../core/lv_obj_style_gen.h **** }
 228:Drivers/lvgl/lvgl/src/widgets/../core/lv_obj_style_gen.h **** 
 229:Drivers/lvgl/lvgl/src/widgets/../core/lv_obj_style_gen.h **** static inline bool lv_obj_get_style_bg_img_tiled(const struct _lv_obj_t * obj, uint32_t part)
 230:Drivers/lvgl/lvgl/src/widgets/../core/lv_obj_style_gen.h **** {
 231:Drivers/lvgl/lvgl/src/widgets/../core/lv_obj_style_gen.h ****     lv_style_value_t v = lv_obj_get_style_prop(obj, part, LV_STYLE_BG_IMG_TILED);
 232:Drivers/lvgl/lvgl/src/widgets/../core/lv_obj_style_gen.h ****     return (bool)v.num;
 233:Drivers/lvgl/lvgl/src/widgets/../core/lv_obj_style_gen.h **** }
 234:Drivers/lvgl/lvgl/src/widgets/../core/lv_obj_style_gen.h **** 
 235:Drivers/lvgl/lvgl/src/widgets/../core/lv_obj_style_gen.h **** static inline lv_color_t lv_obj_get_style_border_color(const struct _lv_obj_t * obj, uint32_t part)
 236:Drivers/lvgl/lvgl/src/widgets/../core/lv_obj_style_gen.h **** {
 237:Drivers/lvgl/lvgl/src/widgets/../core/lv_obj_style_gen.h ****     lv_style_value_t v = lv_obj_get_style_prop(obj, part, LV_STYLE_BORDER_COLOR);
 238:Drivers/lvgl/lvgl/src/widgets/../core/lv_obj_style_gen.h ****     return v.color;
 239:Drivers/lvgl/lvgl/src/widgets/../core/lv_obj_style_gen.h **** }
 240:Drivers/lvgl/lvgl/src/widgets/../core/lv_obj_style_gen.h **** 
 241:Drivers/lvgl/lvgl/src/widgets/../core/lv_obj_style_gen.h **** static inline lv_color_t lv_obj_get_style_border_color_filtered(const struct _lv_obj_t * obj, uint3
 242:Drivers/lvgl/lvgl/src/widgets/../core/lv_obj_style_gen.h **** {
 243:Drivers/lvgl/lvgl/src/widgets/../core/lv_obj_style_gen.h ****     lv_style_value_t v = _lv_obj_style_apply_color_filter(obj, part, lv_obj_get_style_prop(obj, par
 244:Drivers/lvgl/lvgl/src/widgets/../core/lv_obj_style_gen.h ****     return v.color;
 245:Drivers/lvgl/lvgl/src/widgets/../core/lv_obj_style_gen.h **** }
 246:Drivers/lvgl/lvgl/src/widgets/../core/lv_obj_style_gen.h **** 
 247:Drivers/lvgl/lvgl/src/widgets/../core/lv_obj_style_gen.h **** static inline lv_opa_t lv_obj_get_style_border_opa(const struct _lv_obj_t * obj, uint32_t part)
 248:Drivers/lvgl/lvgl/src/widgets/../core/lv_obj_style_gen.h **** {
 249:Drivers/lvgl/lvgl/src/widgets/../core/lv_obj_style_gen.h ****     lv_style_value_t v = lv_obj_get_style_prop(obj, part, LV_STYLE_BORDER_OPA);
 250:Drivers/lvgl/lvgl/src/widgets/../core/lv_obj_style_gen.h ****     return (lv_opa_t)v.num;
 251:Drivers/lvgl/lvgl/src/widgets/../core/lv_obj_style_gen.h **** }
 252:Drivers/lvgl/lvgl/src/widgets/../core/lv_obj_style_gen.h **** 
 253:Drivers/lvgl/lvgl/src/widgets/../core/lv_obj_style_gen.h **** static inline lv_coord_t lv_obj_get_style_border_width(const struct _lv_obj_t * obj, uint32_t part)
 254:Drivers/lvgl/lvgl/src/widgets/../core/lv_obj_style_gen.h **** {
 255:Drivers/lvgl/lvgl/src/widgets/../core/lv_obj_style_gen.h ****     lv_style_value_t v = lv_obj_get_style_prop(obj, part, LV_STYLE_BORDER_WIDTH);
 256:Drivers/lvgl/lvgl/src/widgets/../core/lv_obj_style_gen.h ****     return (lv_coord_t)v.num;
 257:Drivers/lvgl/lvgl/src/widgets/../core/lv_obj_style_gen.h **** }
 258:Drivers/lvgl/lvgl/src/widgets/../core/lv_obj_style_gen.h **** 
 259:Drivers/lvgl/lvgl/src/widgets/../core/lv_obj_style_gen.h **** static inline lv_border_side_t lv_obj_get_style_border_side(const struct _lv_obj_t * obj, uint32_t 
 260:Drivers/lvgl/lvgl/src/widgets/../core/lv_obj_style_gen.h **** {
 261:Drivers/lvgl/lvgl/src/widgets/../core/lv_obj_style_gen.h ****     lv_style_value_t v = lv_obj_get_style_prop(obj, part, LV_STYLE_BORDER_SIDE);
 262:Drivers/lvgl/lvgl/src/widgets/../core/lv_obj_style_gen.h ****     return (lv_border_side_t)v.num;
 263:Drivers/lvgl/lvgl/src/widgets/../core/lv_obj_style_gen.h **** }
 264:Drivers/lvgl/lvgl/src/widgets/../core/lv_obj_style_gen.h **** 
 265:Drivers/lvgl/lvgl/src/widgets/../core/lv_obj_style_gen.h **** static inline bool lv_obj_get_style_border_post(const struct _lv_obj_t * obj, uint32_t part)
 266:Drivers/lvgl/lvgl/src/widgets/../core/lv_obj_style_gen.h **** {
ARM GAS  /tmp/ccd9EMp8.s 			page 28


 267:Drivers/lvgl/lvgl/src/widgets/../core/lv_obj_style_gen.h ****     lv_style_value_t v = lv_obj_get_style_prop(obj, part, LV_STYLE_BORDER_POST);
 268:Drivers/lvgl/lvgl/src/widgets/../core/lv_obj_style_gen.h ****     return (bool)v.num;
 269:Drivers/lvgl/lvgl/src/widgets/../core/lv_obj_style_gen.h **** }
 270:Drivers/lvgl/lvgl/src/widgets/../core/lv_obj_style_gen.h **** 
 271:Drivers/lvgl/lvgl/src/widgets/../core/lv_obj_style_gen.h **** static inline lv_coord_t lv_obj_get_style_outline_width(const struct _lv_obj_t * obj, uint32_t part
 272:Drivers/lvgl/lvgl/src/widgets/../core/lv_obj_style_gen.h **** {
 273:Drivers/lvgl/lvgl/src/widgets/../core/lv_obj_style_gen.h ****     lv_style_value_t v = lv_obj_get_style_prop(obj, part, LV_STYLE_OUTLINE_WIDTH);
 274:Drivers/lvgl/lvgl/src/widgets/../core/lv_obj_style_gen.h ****     return (lv_coord_t)v.num;
 275:Drivers/lvgl/lvgl/src/widgets/../core/lv_obj_style_gen.h **** }
 276:Drivers/lvgl/lvgl/src/widgets/../core/lv_obj_style_gen.h **** 
 277:Drivers/lvgl/lvgl/src/widgets/../core/lv_obj_style_gen.h **** static inline lv_color_t lv_obj_get_style_outline_color(const struct _lv_obj_t * obj, uint32_t part
 278:Drivers/lvgl/lvgl/src/widgets/../core/lv_obj_style_gen.h **** {
 279:Drivers/lvgl/lvgl/src/widgets/../core/lv_obj_style_gen.h ****     lv_style_value_t v = lv_obj_get_style_prop(obj, part, LV_STYLE_OUTLINE_COLOR);
 280:Drivers/lvgl/lvgl/src/widgets/../core/lv_obj_style_gen.h ****     return v.color;
 281:Drivers/lvgl/lvgl/src/widgets/../core/lv_obj_style_gen.h **** }
 282:Drivers/lvgl/lvgl/src/widgets/../core/lv_obj_style_gen.h **** 
 283:Drivers/lvgl/lvgl/src/widgets/../core/lv_obj_style_gen.h **** static inline lv_color_t lv_obj_get_style_outline_color_filtered(const struct _lv_obj_t * obj, uint
 284:Drivers/lvgl/lvgl/src/widgets/../core/lv_obj_style_gen.h **** {
 285:Drivers/lvgl/lvgl/src/widgets/../core/lv_obj_style_gen.h ****     lv_style_value_t v = _lv_obj_style_apply_color_filter(obj, part, lv_obj_get_style_prop(obj, par
 286:Drivers/lvgl/lvgl/src/widgets/../core/lv_obj_style_gen.h ****     return v.color;
 287:Drivers/lvgl/lvgl/src/widgets/../core/lv_obj_style_gen.h **** }
 288:Drivers/lvgl/lvgl/src/widgets/../core/lv_obj_style_gen.h **** 
 289:Drivers/lvgl/lvgl/src/widgets/../core/lv_obj_style_gen.h **** static inline lv_opa_t lv_obj_get_style_outline_opa(const struct _lv_obj_t * obj, uint32_t part)
 290:Drivers/lvgl/lvgl/src/widgets/../core/lv_obj_style_gen.h **** {
 291:Drivers/lvgl/lvgl/src/widgets/../core/lv_obj_style_gen.h ****     lv_style_value_t v = lv_obj_get_style_prop(obj, part, LV_STYLE_OUTLINE_OPA);
 292:Drivers/lvgl/lvgl/src/widgets/../core/lv_obj_style_gen.h ****     return (lv_opa_t)v.num;
 293:Drivers/lvgl/lvgl/src/widgets/../core/lv_obj_style_gen.h **** }
 294:Drivers/lvgl/lvgl/src/widgets/../core/lv_obj_style_gen.h **** 
 295:Drivers/lvgl/lvgl/src/widgets/../core/lv_obj_style_gen.h **** static inline lv_coord_t lv_obj_get_style_outline_pad(const struct _lv_obj_t * obj, uint32_t part)
 296:Drivers/lvgl/lvgl/src/widgets/../core/lv_obj_style_gen.h **** {
 297:Drivers/lvgl/lvgl/src/widgets/../core/lv_obj_style_gen.h ****     lv_style_value_t v = lv_obj_get_style_prop(obj, part, LV_STYLE_OUTLINE_PAD);
 298:Drivers/lvgl/lvgl/src/widgets/../core/lv_obj_style_gen.h ****     return (lv_coord_t)v.num;
 299:Drivers/lvgl/lvgl/src/widgets/../core/lv_obj_style_gen.h **** }
 300:Drivers/lvgl/lvgl/src/widgets/../core/lv_obj_style_gen.h **** 
 301:Drivers/lvgl/lvgl/src/widgets/../core/lv_obj_style_gen.h **** static inline lv_coord_t lv_obj_get_style_shadow_width(const struct _lv_obj_t * obj, uint32_t part)
 302:Drivers/lvgl/lvgl/src/widgets/../core/lv_obj_style_gen.h **** {
 303:Drivers/lvgl/lvgl/src/widgets/../core/lv_obj_style_gen.h ****     lv_style_value_t v = lv_obj_get_style_prop(obj, part, LV_STYLE_SHADOW_WIDTH);
 304:Drivers/lvgl/lvgl/src/widgets/../core/lv_obj_style_gen.h ****     return (lv_coord_t)v.num;
 305:Drivers/lvgl/lvgl/src/widgets/../core/lv_obj_style_gen.h **** }
 306:Drivers/lvgl/lvgl/src/widgets/../core/lv_obj_style_gen.h **** 
 307:Drivers/lvgl/lvgl/src/widgets/../core/lv_obj_style_gen.h **** static inline lv_coord_t lv_obj_get_style_shadow_ofs_x(const struct _lv_obj_t * obj, uint32_t part)
 308:Drivers/lvgl/lvgl/src/widgets/../core/lv_obj_style_gen.h **** {
 309:Drivers/lvgl/lvgl/src/widgets/../core/lv_obj_style_gen.h ****     lv_style_value_t v = lv_obj_get_style_prop(obj, part, LV_STYLE_SHADOW_OFS_X);
 310:Drivers/lvgl/lvgl/src/widgets/../core/lv_obj_style_gen.h ****     return (lv_coord_t)v.num;
 311:Drivers/lvgl/lvgl/src/widgets/../core/lv_obj_style_gen.h **** }
 312:Drivers/lvgl/lvgl/src/widgets/../core/lv_obj_style_gen.h **** 
 313:Drivers/lvgl/lvgl/src/widgets/../core/lv_obj_style_gen.h **** static inline lv_coord_t lv_obj_get_style_shadow_ofs_y(const struct _lv_obj_t * obj, uint32_t part)
 314:Drivers/lvgl/lvgl/src/widgets/../core/lv_obj_style_gen.h **** {
 315:Drivers/lvgl/lvgl/src/widgets/../core/lv_obj_style_gen.h ****     lv_style_value_t v = lv_obj_get_style_prop(obj, part, LV_STYLE_SHADOW_OFS_Y);
 316:Drivers/lvgl/lvgl/src/widgets/../core/lv_obj_style_gen.h ****     return (lv_coord_t)v.num;
 317:Drivers/lvgl/lvgl/src/widgets/../core/lv_obj_style_gen.h **** }
 318:Drivers/lvgl/lvgl/src/widgets/../core/lv_obj_style_gen.h **** 
 319:Drivers/lvgl/lvgl/src/widgets/../core/lv_obj_style_gen.h **** static inline lv_coord_t lv_obj_get_style_shadow_spread(const struct _lv_obj_t * obj, uint32_t part
 320:Drivers/lvgl/lvgl/src/widgets/../core/lv_obj_style_gen.h **** {
 321:Drivers/lvgl/lvgl/src/widgets/../core/lv_obj_style_gen.h ****     lv_style_value_t v = lv_obj_get_style_prop(obj, part, LV_STYLE_SHADOW_SPREAD);
 322:Drivers/lvgl/lvgl/src/widgets/../core/lv_obj_style_gen.h ****     return (lv_coord_t)v.num;
 323:Drivers/lvgl/lvgl/src/widgets/../core/lv_obj_style_gen.h **** }
ARM GAS  /tmp/ccd9EMp8.s 			page 29


 324:Drivers/lvgl/lvgl/src/widgets/../core/lv_obj_style_gen.h **** 
 325:Drivers/lvgl/lvgl/src/widgets/../core/lv_obj_style_gen.h **** static inline lv_color_t lv_obj_get_style_shadow_color(const struct _lv_obj_t * obj, uint32_t part)
 326:Drivers/lvgl/lvgl/src/widgets/../core/lv_obj_style_gen.h **** {
 327:Drivers/lvgl/lvgl/src/widgets/../core/lv_obj_style_gen.h ****     lv_style_value_t v = lv_obj_get_style_prop(obj, part, LV_STYLE_SHADOW_COLOR);
 328:Drivers/lvgl/lvgl/src/widgets/../core/lv_obj_style_gen.h ****     return v.color;
 329:Drivers/lvgl/lvgl/src/widgets/../core/lv_obj_style_gen.h **** }
 330:Drivers/lvgl/lvgl/src/widgets/../core/lv_obj_style_gen.h **** 
 331:Drivers/lvgl/lvgl/src/widgets/../core/lv_obj_style_gen.h **** static inline lv_color_t lv_obj_get_style_shadow_color_filtered(const struct _lv_obj_t * obj, uint3
 332:Drivers/lvgl/lvgl/src/widgets/../core/lv_obj_style_gen.h **** {
 333:Drivers/lvgl/lvgl/src/widgets/../core/lv_obj_style_gen.h ****     lv_style_value_t v = _lv_obj_style_apply_color_filter(obj, part, lv_obj_get_style_prop(obj, par
 334:Drivers/lvgl/lvgl/src/widgets/../core/lv_obj_style_gen.h ****     return v.color;
 335:Drivers/lvgl/lvgl/src/widgets/../core/lv_obj_style_gen.h **** }
 336:Drivers/lvgl/lvgl/src/widgets/../core/lv_obj_style_gen.h **** 
 337:Drivers/lvgl/lvgl/src/widgets/../core/lv_obj_style_gen.h **** static inline lv_opa_t lv_obj_get_style_shadow_opa(const struct _lv_obj_t * obj, uint32_t part)
 338:Drivers/lvgl/lvgl/src/widgets/../core/lv_obj_style_gen.h **** {
 339:Drivers/lvgl/lvgl/src/widgets/../core/lv_obj_style_gen.h ****     lv_style_value_t v = lv_obj_get_style_prop(obj, part, LV_STYLE_SHADOW_OPA);
 340:Drivers/lvgl/lvgl/src/widgets/../core/lv_obj_style_gen.h ****     return (lv_opa_t)v.num;
 341:Drivers/lvgl/lvgl/src/widgets/../core/lv_obj_style_gen.h **** }
 342:Drivers/lvgl/lvgl/src/widgets/../core/lv_obj_style_gen.h **** 
 343:Drivers/lvgl/lvgl/src/widgets/../core/lv_obj_style_gen.h **** static inline lv_opa_t lv_obj_get_style_img_opa(const struct _lv_obj_t * obj, uint32_t part)
 344:Drivers/lvgl/lvgl/src/widgets/../core/lv_obj_style_gen.h **** {
 345:Drivers/lvgl/lvgl/src/widgets/../core/lv_obj_style_gen.h ****     lv_style_value_t v = lv_obj_get_style_prop(obj, part, LV_STYLE_IMG_OPA);
 346:Drivers/lvgl/lvgl/src/widgets/../core/lv_obj_style_gen.h ****     return (lv_opa_t)v.num;
 347:Drivers/lvgl/lvgl/src/widgets/../core/lv_obj_style_gen.h **** }
 348:Drivers/lvgl/lvgl/src/widgets/../core/lv_obj_style_gen.h **** 
 349:Drivers/lvgl/lvgl/src/widgets/../core/lv_obj_style_gen.h **** static inline lv_color_t lv_obj_get_style_img_recolor(const struct _lv_obj_t * obj, uint32_t part)
 350:Drivers/lvgl/lvgl/src/widgets/../core/lv_obj_style_gen.h **** {
 351:Drivers/lvgl/lvgl/src/widgets/../core/lv_obj_style_gen.h ****     lv_style_value_t v = lv_obj_get_style_prop(obj, part, LV_STYLE_IMG_RECOLOR);
 352:Drivers/lvgl/lvgl/src/widgets/../core/lv_obj_style_gen.h ****     return v.color;
 353:Drivers/lvgl/lvgl/src/widgets/../core/lv_obj_style_gen.h **** }
 354:Drivers/lvgl/lvgl/src/widgets/../core/lv_obj_style_gen.h **** 
 355:Drivers/lvgl/lvgl/src/widgets/../core/lv_obj_style_gen.h **** static inline lv_color_t lv_obj_get_style_img_recolor_filtered(const struct _lv_obj_t * obj, uint32
 356:Drivers/lvgl/lvgl/src/widgets/../core/lv_obj_style_gen.h **** {
 357:Drivers/lvgl/lvgl/src/widgets/../core/lv_obj_style_gen.h ****     lv_style_value_t v = _lv_obj_style_apply_color_filter(obj, part, lv_obj_get_style_prop(obj, par
 358:Drivers/lvgl/lvgl/src/widgets/../core/lv_obj_style_gen.h ****     return v.color;
 359:Drivers/lvgl/lvgl/src/widgets/../core/lv_obj_style_gen.h **** }
 360:Drivers/lvgl/lvgl/src/widgets/../core/lv_obj_style_gen.h **** 
 361:Drivers/lvgl/lvgl/src/widgets/../core/lv_obj_style_gen.h **** static inline lv_opa_t lv_obj_get_style_img_recolor_opa(const struct _lv_obj_t * obj, uint32_t part
 362:Drivers/lvgl/lvgl/src/widgets/../core/lv_obj_style_gen.h **** {
 363:Drivers/lvgl/lvgl/src/widgets/../core/lv_obj_style_gen.h ****     lv_style_value_t v = lv_obj_get_style_prop(obj, part, LV_STYLE_IMG_RECOLOR_OPA);
 364:Drivers/lvgl/lvgl/src/widgets/../core/lv_obj_style_gen.h ****     return (lv_opa_t)v.num;
 365:Drivers/lvgl/lvgl/src/widgets/../core/lv_obj_style_gen.h **** }
 366:Drivers/lvgl/lvgl/src/widgets/../core/lv_obj_style_gen.h **** 
 367:Drivers/lvgl/lvgl/src/widgets/../core/lv_obj_style_gen.h **** static inline lv_coord_t lv_obj_get_style_line_width(const struct _lv_obj_t * obj, uint32_t part)
 368:Drivers/lvgl/lvgl/src/widgets/../core/lv_obj_style_gen.h **** {
 369:Drivers/lvgl/lvgl/src/widgets/../core/lv_obj_style_gen.h ****     lv_style_value_t v = lv_obj_get_style_prop(obj, part, LV_STYLE_LINE_WIDTH);
 370:Drivers/lvgl/lvgl/src/widgets/../core/lv_obj_style_gen.h ****     return (lv_coord_t)v.num;
 371:Drivers/lvgl/lvgl/src/widgets/../core/lv_obj_style_gen.h **** }
 372:Drivers/lvgl/lvgl/src/widgets/../core/lv_obj_style_gen.h **** 
 373:Drivers/lvgl/lvgl/src/widgets/../core/lv_obj_style_gen.h **** static inline lv_coord_t lv_obj_get_style_line_dash_width(const struct _lv_obj_t * obj, uint32_t pa
 374:Drivers/lvgl/lvgl/src/widgets/../core/lv_obj_style_gen.h **** {
 375:Drivers/lvgl/lvgl/src/widgets/../core/lv_obj_style_gen.h ****     lv_style_value_t v = lv_obj_get_style_prop(obj, part, LV_STYLE_LINE_DASH_WIDTH);
 376:Drivers/lvgl/lvgl/src/widgets/../core/lv_obj_style_gen.h ****     return (lv_coord_t)v.num;
 377:Drivers/lvgl/lvgl/src/widgets/../core/lv_obj_style_gen.h **** }
 378:Drivers/lvgl/lvgl/src/widgets/../core/lv_obj_style_gen.h **** 
 379:Drivers/lvgl/lvgl/src/widgets/../core/lv_obj_style_gen.h **** static inline lv_coord_t lv_obj_get_style_line_dash_gap(const struct _lv_obj_t * obj, uint32_t part
 380:Drivers/lvgl/lvgl/src/widgets/../core/lv_obj_style_gen.h **** {
ARM GAS  /tmp/ccd9EMp8.s 			page 30


 381:Drivers/lvgl/lvgl/src/widgets/../core/lv_obj_style_gen.h ****     lv_style_value_t v = lv_obj_get_style_prop(obj, part, LV_STYLE_LINE_DASH_GAP);
 382:Drivers/lvgl/lvgl/src/widgets/../core/lv_obj_style_gen.h ****     return (lv_coord_t)v.num;
 383:Drivers/lvgl/lvgl/src/widgets/../core/lv_obj_style_gen.h **** }
 384:Drivers/lvgl/lvgl/src/widgets/../core/lv_obj_style_gen.h **** 
 385:Drivers/lvgl/lvgl/src/widgets/../core/lv_obj_style_gen.h **** static inline bool lv_obj_get_style_line_rounded(const struct _lv_obj_t * obj, uint32_t part)
 386:Drivers/lvgl/lvgl/src/widgets/../core/lv_obj_style_gen.h **** {
 387:Drivers/lvgl/lvgl/src/widgets/../core/lv_obj_style_gen.h ****     lv_style_value_t v = lv_obj_get_style_prop(obj, part, LV_STYLE_LINE_ROUNDED);
 388:Drivers/lvgl/lvgl/src/widgets/../core/lv_obj_style_gen.h ****     return (bool)v.num;
 389:Drivers/lvgl/lvgl/src/widgets/../core/lv_obj_style_gen.h **** }
 390:Drivers/lvgl/lvgl/src/widgets/../core/lv_obj_style_gen.h **** 
 391:Drivers/lvgl/lvgl/src/widgets/../core/lv_obj_style_gen.h **** static inline lv_color_t lv_obj_get_style_line_color(const struct _lv_obj_t * obj, uint32_t part)
 392:Drivers/lvgl/lvgl/src/widgets/../core/lv_obj_style_gen.h **** {
 393:Drivers/lvgl/lvgl/src/widgets/../core/lv_obj_style_gen.h ****     lv_style_value_t v = lv_obj_get_style_prop(obj, part, LV_STYLE_LINE_COLOR);
 394:Drivers/lvgl/lvgl/src/widgets/../core/lv_obj_style_gen.h ****     return v.color;
 395:Drivers/lvgl/lvgl/src/widgets/../core/lv_obj_style_gen.h **** }
 396:Drivers/lvgl/lvgl/src/widgets/../core/lv_obj_style_gen.h **** 
 397:Drivers/lvgl/lvgl/src/widgets/../core/lv_obj_style_gen.h **** static inline lv_color_t lv_obj_get_style_line_color_filtered(const struct _lv_obj_t * obj, uint32_
 398:Drivers/lvgl/lvgl/src/widgets/../core/lv_obj_style_gen.h **** {
 399:Drivers/lvgl/lvgl/src/widgets/../core/lv_obj_style_gen.h ****     lv_style_value_t v = _lv_obj_style_apply_color_filter(obj, part, lv_obj_get_style_prop(obj, par
 400:Drivers/lvgl/lvgl/src/widgets/../core/lv_obj_style_gen.h ****     return v.color;
 401:Drivers/lvgl/lvgl/src/widgets/../core/lv_obj_style_gen.h **** }
 402:Drivers/lvgl/lvgl/src/widgets/../core/lv_obj_style_gen.h **** 
 403:Drivers/lvgl/lvgl/src/widgets/../core/lv_obj_style_gen.h **** static inline lv_opa_t lv_obj_get_style_line_opa(const struct _lv_obj_t * obj, uint32_t part)
 404:Drivers/lvgl/lvgl/src/widgets/../core/lv_obj_style_gen.h **** {
 405:Drivers/lvgl/lvgl/src/widgets/../core/lv_obj_style_gen.h ****     lv_style_value_t v = lv_obj_get_style_prop(obj, part, LV_STYLE_LINE_OPA);
 406:Drivers/lvgl/lvgl/src/widgets/../core/lv_obj_style_gen.h ****     return (lv_opa_t)v.num;
 407:Drivers/lvgl/lvgl/src/widgets/../core/lv_obj_style_gen.h **** }
 408:Drivers/lvgl/lvgl/src/widgets/../core/lv_obj_style_gen.h **** 
 409:Drivers/lvgl/lvgl/src/widgets/../core/lv_obj_style_gen.h **** static inline lv_coord_t lv_obj_get_style_arc_width(const struct _lv_obj_t * obj, uint32_t part)
 410:Drivers/lvgl/lvgl/src/widgets/../core/lv_obj_style_gen.h **** {
 411:Drivers/lvgl/lvgl/src/widgets/../core/lv_obj_style_gen.h ****     lv_style_value_t v = lv_obj_get_style_prop(obj, part, LV_STYLE_ARC_WIDTH);
 412:Drivers/lvgl/lvgl/src/widgets/../core/lv_obj_style_gen.h ****     return (lv_coord_t)v.num;
 413:Drivers/lvgl/lvgl/src/widgets/../core/lv_obj_style_gen.h **** }
 414:Drivers/lvgl/lvgl/src/widgets/../core/lv_obj_style_gen.h **** 
 415:Drivers/lvgl/lvgl/src/widgets/../core/lv_obj_style_gen.h **** static inline bool lv_obj_get_style_arc_rounded(const struct _lv_obj_t * obj, uint32_t part)
 416:Drivers/lvgl/lvgl/src/widgets/../core/lv_obj_style_gen.h **** {
 417:Drivers/lvgl/lvgl/src/widgets/../core/lv_obj_style_gen.h ****     lv_style_value_t v = lv_obj_get_style_prop(obj, part, LV_STYLE_ARC_ROUNDED);
 418:Drivers/lvgl/lvgl/src/widgets/../core/lv_obj_style_gen.h ****     return (bool)v.num;
 419:Drivers/lvgl/lvgl/src/widgets/../core/lv_obj_style_gen.h **** }
 420:Drivers/lvgl/lvgl/src/widgets/../core/lv_obj_style_gen.h **** 
 421:Drivers/lvgl/lvgl/src/widgets/../core/lv_obj_style_gen.h **** static inline lv_color_t lv_obj_get_style_arc_color(const struct _lv_obj_t * obj, uint32_t part)
 422:Drivers/lvgl/lvgl/src/widgets/../core/lv_obj_style_gen.h **** {
 423:Drivers/lvgl/lvgl/src/widgets/../core/lv_obj_style_gen.h ****     lv_style_value_t v = lv_obj_get_style_prop(obj, part, LV_STYLE_ARC_COLOR);
 424:Drivers/lvgl/lvgl/src/widgets/../core/lv_obj_style_gen.h ****     return v.color;
 425:Drivers/lvgl/lvgl/src/widgets/../core/lv_obj_style_gen.h **** }
 426:Drivers/lvgl/lvgl/src/widgets/../core/lv_obj_style_gen.h **** 
 427:Drivers/lvgl/lvgl/src/widgets/../core/lv_obj_style_gen.h **** static inline lv_color_t lv_obj_get_style_arc_color_filtered(const struct _lv_obj_t * obj, uint32_t
 428:Drivers/lvgl/lvgl/src/widgets/../core/lv_obj_style_gen.h **** {
 429:Drivers/lvgl/lvgl/src/widgets/../core/lv_obj_style_gen.h ****     lv_style_value_t v = _lv_obj_style_apply_color_filter(obj, part, lv_obj_get_style_prop(obj, par
 430:Drivers/lvgl/lvgl/src/widgets/../core/lv_obj_style_gen.h ****     return v.color;
 431:Drivers/lvgl/lvgl/src/widgets/../core/lv_obj_style_gen.h **** }
 432:Drivers/lvgl/lvgl/src/widgets/../core/lv_obj_style_gen.h **** 
 433:Drivers/lvgl/lvgl/src/widgets/../core/lv_obj_style_gen.h **** static inline lv_opa_t lv_obj_get_style_arc_opa(const struct _lv_obj_t * obj, uint32_t part)
 434:Drivers/lvgl/lvgl/src/widgets/../core/lv_obj_style_gen.h **** {
 435:Drivers/lvgl/lvgl/src/widgets/../core/lv_obj_style_gen.h ****     lv_style_value_t v = lv_obj_get_style_prop(obj, part, LV_STYLE_ARC_OPA);
 436:Drivers/lvgl/lvgl/src/widgets/../core/lv_obj_style_gen.h ****     return (lv_opa_t)v.num;
 437:Drivers/lvgl/lvgl/src/widgets/../core/lv_obj_style_gen.h **** }
ARM GAS  /tmp/ccd9EMp8.s 			page 31


 438:Drivers/lvgl/lvgl/src/widgets/../core/lv_obj_style_gen.h **** 
 439:Drivers/lvgl/lvgl/src/widgets/../core/lv_obj_style_gen.h **** static inline const void * lv_obj_get_style_arc_img_src(const struct _lv_obj_t * obj, uint32_t part
 440:Drivers/lvgl/lvgl/src/widgets/../core/lv_obj_style_gen.h **** {
 441:Drivers/lvgl/lvgl/src/widgets/../core/lv_obj_style_gen.h ****     lv_style_value_t v = lv_obj_get_style_prop(obj, part, LV_STYLE_ARC_IMG_SRC);
 442:Drivers/lvgl/lvgl/src/widgets/../core/lv_obj_style_gen.h ****     return (const void *)v.ptr;
 443:Drivers/lvgl/lvgl/src/widgets/../core/lv_obj_style_gen.h **** }
 444:Drivers/lvgl/lvgl/src/widgets/../core/lv_obj_style_gen.h **** 
 445:Drivers/lvgl/lvgl/src/widgets/../core/lv_obj_style_gen.h **** static inline lv_color_t lv_obj_get_style_text_color(const struct _lv_obj_t * obj, uint32_t part)
 446:Drivers/lvgl/lvgl/src/widgets/../core/lv_obj_style_gen.h **** {
 447:Drivers/lvgl/lvgl/src/widgets/../core/lv_obj_style_gen.h ****     lv_style_value_t v = lv_obj_get_style_prop(obj, part, LV_STYLE_TEXT_COLOR);
 448:Drivers/lvgl/lvgl/src/widgets/../core/lv_obj_style_gen.h ****     return v.color;
 449:Drivers/lvgl/lvgl/src/widgets/../core/lv_obj_style_gen.h **** }
 450:Drivers/lvgl/lvgl/src/widgets/../core/lv_obj_style_gen.h **** 
 451:Drivers/lvgl/lvgl/src/widgets/../core/lv_obj_style_gen.h **** static inline lv_color_t lv_obj_get_style_text_color_filtered(const struct _lv_obj_t * obj, uint32_
 452:Drivers/lvgl/lvgl/src/widgets/../core/lv_obj_style_gen.h **** {
 453:Drivers/lvgl/lvgl/src/widgets/../core/lv_obj_style_gen.h ****     lv_style_value_t v = _lv_obj_style_apply_color_filter(obj, part, lv_obj_get_style_prop(obj, par
 454:Drivers/lvgl/lvgl/src/widgets/../core/lv_obj_style_gen.h ****     return v.color;
 455:Drivers/lvgl/lvgl/src/widgets/../core/lv_obj_style_gen.h **** }
 456:Drivers/lvgl/lvgl/src/widgets/../core/lv_obj_style_gen.h **** 
 457:Drivers/lvgl/lvgl/src/widgets/../core/lv_obj_style_gen.h **** static inline lv_opa_t lv_obj_get_style_text_opa(const struct _lv_obj_t * obj, uint32_t part)
 458:Drivers/lvgl/lvgl/src/widgets/../core/lv_obj_style_gen.h **** {
 459:Drivers/lvgl/lvgl/src/widgets/../core/lv_obj_style_gen.h ****     lv_style_value_t v = lv_obj_get_style_prop(obj, part, LV_STYLE_TEXT_OPA);
 460:Drivers/lvgl/lvgl/src/widgets/../core/lv_obj_style_gen.h ****     return (lv_opa_t)v.num;
 461:Drivers/lvgl/lvgl/src/widgets/../core/lv_obj_style_gen.h **** }
 462:Drivers/lvgl/lvgl/src/widgets/../core/lv_obj_style_gen.h **** 
 463:Drivers/lvgl/lvgl/src/widgets/../core/lv_obj_style_gen.h **** static inline const lv_font_t * lv_obj_get_style_text_font(const struct _lv_obj_t * obj, uint32_t p
 464:Drivers/lvgl/lvgl/src/widgets/../core/lv_obj_style_gen.h **** {
 465:Drivers/lvgl/lvgl/src/widgets/../core/lv_obj_style_gen.h ****     lv_style_value_t v = lv_obj_get_style_prop(obj, part, LV_STYLE_TEXT_FONT);
 466:Drivers/lvgl/lvgl/src/widgets/../core/lv_obj_style_gen.h ****     return (const lv_font_t *)v.ptr;
 467:Drivers/lvgl/lvgl/src/widgets/../core/lv_obj_style_gen.h **** }
 468:Drivers/lvgl/lvgl/src/widgets/../core/lv_obj_style_gen.h **** 
 469:Drivers/lvgl/lvgl/src/widgets/../core/lv_obj_style_gen.h **** static inline lv_coord_t lv_obj_get_style_text_letter_space(const struct _lv_obj_t * obj, uint32_t 
 470:Drivers/lvgl/lvgl/src/widgets/../core/lv_obj_style_gen.h **** {
 471:Drivers/lvgl/lvgl/src/widgets/../core/lv_obj_style_gen.h ****     lv_style_value_t v = lv_obj_get_style_prop(obj, part, LV_STYLE_TEXT_LETTER_SPACE);
 472:Drivers/lvgl/lvgl/src/widgets/../core/lv_obj_style_gen.h ****     return (lv_coord_t)v.num;
 473:Drivers/lvgl/lvgl/src/widgets/../core/lv_obj_style_gen.h **** }
 474:Drivers/lvgl/lvgl/src/widgets/../core/lv_obj_style_gen.h **** 
 475:Drivers/lvgl/lvgl/src/widgets/../core/lv_obj_style_gen.h **** static inline lv_coord_t lv_obj_get_style_text_line_space(const struct _lv_obj_t * obj, uint32_t pa
 476:Drivers/lvgl/lvgl/src/widgets/../core/lv_obj_style_gen.h **** {
 477:Drivers/lvgl/lvgl/src/widgets/../core/lv_obj_style_gen.h ****     lv_style_value_t v = lv_obj_get_style_prop(obj, part, LV_STYLE_TEXT_LINE_SPACE);
 478:Drivers/lvgl/lvgl/src/widgets/../core/lv_obj_style_gen.h ****     return (lv_coord_t)v.num;
 479:Drivers/lvgl/lvgl/src/widgets/../core/lv_obj_style_gen.h **** }
 480:Drivers/lvgl/lvgl/src/widgets/../core/lv_obj_style_gen.h **** 
 481:Drivers/lvgl/lvgl/src/widgets/../core/lv_obj_style_gen.h **** static inline lv_text_decor_t lv_obj_get_style_text_decor(const struct _lv_obj_t * obj, uint32_t pa
 482:Drivers/lvgl/lvgl/src/widgets/../core/lv_obj_style_gen.h **** {
 483:Drivers/lvgl/lvgl/src/widgets/../core/lv_obj_style_gen.h ****     lv_style_value_t v = lv_obj_get_style_prop(obj, part, LV_STYLE_TEXT_DECOR);
 484:Drivers/lvgl/lvgl/src/widgets/../core/lv_obj_style_gen.h ****     return (lv_text_decor_t)v.num;
 485:Drivers/lvgl/lvgl/src/widgets/../core/lv_obj_style_gen.h **** }
 486:Drivers/lvgl/lvgl/src/widgets/../core/lv_obj_style_gen.h **** 
 487:Drivers/lvgl/lvgl/src/widgets/../core/lv_obj_style_gen.h **** static inline lv_text_align_t lv_obj_get_style_text_align(const struct _lv_obj_t * obj, uint32_t pa
 488:Drivers/lvgl/lvgl/src/widgets/../core/lv_obj_style_gen.h **** {
 489:Drivers/lvgl/lvgl/src/widgets/../core/lv_obj_style_gen.h ****     lv_style_value_t v = lv_obj_get_style_prop(obj, part, LV_STYLE_TEXT_ALIGN);
 490:Drivers/lvgl/lvgl/src/widgets/../core/lv_obj_style_gen.h ****     return (lv_text_align_t)v.num;
 491:Drivers/lvgl/lvgl/src/widgets/../core/lv_obj_style_gen.h **** }
 492:Drivers/lvgl/lvgl/src/widgets/../core/lv_obj_style_gen.h **** 
 493:Drivers/lvgl/lvgl/src/widgets/../core/lv_obj_style_gen.h **** static inline lv_coord_t lv_obj_get_style_radius(const struct _lv_obj_t * obj, uint32_t part)
 494:Drivers/lvgl/lvgl/src/widgets/../core/lv_obj_style_gen.h **** {
ARM GAS  /tmp/ccd9EMp8.s 			page 32


 495:Drivers/lvgl/lvgl/src/widgets/../core/lv_obj_style_gen.h ****     lv_style_value_t v = lv_obj_get_style_prop(obj, part, LV_STYLE_RADIUS);
 496:Drivers/lvgl/lvgl/src/widgets/../core/lv_obj_style_gen.h ****     return (lv_coord_t)v.num;
 497:Drivers/lvgl/lvgl/src/widgets/../core/lv_obj_style_gen.h **** }
 498:Drivers/lvgl/lvgl/src/widgets/../core/lv_obj_style_gen.h **** 
 499:Drivers/lvgl/lvgl/src/widgets/../core/lv_obj_style_gen.h **** static inline bool lv_obj_get_style_clip_corner(const struct _lv_obj_t * obj, uint32_t part)
 500:Drivers/lvgl/lvgl/src/widgets/../core/lv_obj_style_gen.h **** {
 501:Drivers/lvgl/lvgl/src/widgets/../core/lv_obj_style_gen.h ****     lv_style_value_t v = lv_obj_get_style_prop(obj, part, LV_STYLE_CLIP_CORNER);
 502:Drivers/lvgl/lvgl/src/widgets/../core/lv_obj_style_gen.h ****     return (bool)v.num;
 503:Drivers/lvgl/lvgl/src/widgets/../core/lv_obj_style_gen.h **** }
 504:Drivers/lvgl/lvgl/src/widgets/../core/lv_obj_style_gen.h **** 
 505:Drivers/lvgl/lvgl/src/widgets/../core/lv_obj_style_gen.h **** static inline lv_opa_t lv_obj_get_style_opa(const struct _lv_obj_t * obj, uint32_t part)
 506:Drivers/lvgl/lvgl/src/widgets/../core/lv_obj_style_gen.h **** {
 507:Drivers/lvgl/lvgl/src/widgets/../core/lv_obj_style_gen.h ****     lv_style_value_t v = lv_obj_get_style_prop(obj, part, LV_STYLE_OPA);
 508:Drivers/lvgl/lvgl/src/widgets/../core/lv_obj_style_gen.h ****     return (lv_opa_t)v.num;
 509:Drivers/lvgl/lvgl/src/widgets/../core/lv_obj_style_gen.h **** }
 510:Drivers/lvgl/lvgl/src/widgets/../core/lv_obj_style_gen.h **** 
 511:Drivers/lvgl/lvgl/src/widgets/../core/lv_obj_style_gen.h **** static inline const lv_color_filter_dsc_t * lv_obj_get_style_color_filter_dsc(const struct _lv_obj_
 512:Drivers/lvgl/lvgl/src/widgets/../core/lv_obj_style_gen.h **** {
 513:Drivers/lvgl/lvgl/src/widgets/../core/lv_obj_style_gen.h ****     lv_style_value_t v = lv_obj_get_style_prop(obj, part, LV_STYLE_COLOR_FILTER_DSC);
 514:Drivers/lvgl/lvgl/src/widgets/../core/lv_obj_style_gen.h ****     return (const lv_color_filter_dsc_t *)v.ptr;
 515:Drivers/lvgl/lvgl/src/widgets/../core/lv_obj_style_gen.h **** }
 516:Drivers/lvgl/lvgl/src/widgets/../core/lv_obj_style_gen.h **** 
 517:Drivers/lvgl/lvgl/src/widgets/../core/lv_obj_style_gen.h **** static inline lv_opa_t lv_obj_get_style_color_filter_opa(const struct _lv_obj_t * obj, uint32_t par
 518:Drivers/lvgl/lvgl/src/widgets/../core/lv_obj_style_gen.h **** {
 519:Drivers/lvgl/lvgl/src/widgets/../core/lv_obj_style_gen.h ****     lv_style_value_t v = lv_obj_get_style_prop(obj, part, LV_STYLE_COLOR_FILTER_OPA);
 520:Drivers/lvgl/lvgl/src/widgets/../core/lv_obj_style_gen.h ****     return (lv_opa_t)v.num;
 521:Drivers/lvgl/lvgl/src/widgets/../core/lv_obj_style_gen.h **** }
 522:Drivers/lvgl/lvgl/src/widgets/../core/lv_obj_style_gen.h **** 
 523:Drivers/lvgl/lvgl/src/widgets/../core/lv_obj_style_gen.h **** static inline const lv_anim_t * lv_obj_get_style_anim(const struct _lv_obj_t * obj, uint32_t part)
 524:Drivers/lvgl/lvgl/src/widgets/../core/lv_obj_style_gen.h **** {
 525:Drivers/lvgl/lvgl/src/widgets/../core/lv_obj_style_gen.h ****     lv_style_value_t v = lv_obj_get_style_prop(obj, part, LV_STYLE_ANIM);
 526:Drivers/lvgl/lvgl/src/widgets/../core/lv_obj_style_gen.h ****     return (const lv_anim_t *)v.ptr;
 527:Drivers/lvgl/lvgl/src/widgets/../core/lv_obj_style_gen.h **** }
 528:Drivers/lvgl/lvgl/src/widgets/../core/lv_obj_style_gen.h **** 
 529:Drivers/lvgl/lvgl/src/widgets/../core/lv_obj_style_gen.h **** static inline uint32_t lv_obj_get_style_anim_time(const struct _lv_obj_t * obj, uint32_t part)
 530:Drivers/lvgl/lvgl/src/widgets/../core/lv_obj_style_gen.h **** {
 531:Drivers/lvgl/lvgl/src/widgets/../core/lv_obj_style_gen.h ****     lv_style_value_t v = lv_obj_get_style_prop(obj, part, LV_STYLE_ANIM_TIME);
 532:Drivers/lvgl/lvgl/src/widgets/../core/lv_obj_style_gen.h ****     return (uint32_t)v.num;
 533:Drivers/lvgl/lvgl/src/widgets/../core/lv_obj_style_gen.h **** }
 534:Drivers/lvgl/lvgl/src/widgets/../core/lv_obj_style_gen.h **** 
 535:Drivers/lvgl/lvgl/src/widgets/../core/lv_obj_style_gen.h **** static inline uint32_t lv_obj_get_style_anim_speed(const struct _lv_obj_t * obj, uint32_t part)
 536:Drivers/lvgl/lvgl/src/widgets/../core/lv_obj_style_gen.h **** {
 537:Drivers/lvgl/lvgl/src/widgets/../core/lv_obj_style_gen.h ****     lv_style_value_t v = lv_obj_get_style_prop(obj, part, LV_STYLE_ANIM_SPEED);
 538:Drivers/lvgl/lvgl/src/widgets/../core/lv_obj_style_gen.h ****     return (uint32_t)v.num;
 539:Drivers/lvgl/lvgl/src/widgets/../core/lv_obj_style_gen.h **** }
 540:Drivers/lvgl/lvgl/src/widgets/../core/lv_obj_style_gen.h **** 
 541:Drivers/lvgl/lvgl/src/widgets/../core/lv_obj_style_gen.h **** static inline const lv_style_transition_dsc_t * lv_obj_get_style_transition(const struct _lv_obj_t 
 542:Drivers/lvgl/lvgl/src/widgets/../core/lv_obj_style_gen.h **** {
 543:Drivers/lvgl/lvgl/src/widgets/../core/lv_obj_style_gen.h ****     lv_style_value_t v = lv_obj_get_style_prop(obj, part, LV_STYLE_TRANSITION);
 544:Drivers/lvgl/lvgl/src/widgets/../core/lv_obj_style_gen.h ****     return (const lv_style_transition_dsc_t *)v.ptr;
 545:Drivers/lvgl/lvgl/src/widgets/../core/lv_obj_style_gen.h **** }
 546:Drivers/lvgl/lvgl/src/widgets/../core/lv_obj_style_gen.h **** 
 547:Drivers/lvgl/lvgl/src/widgets/../core/lv_obj_style_gen.h **** static inline lv_blend_mode_t lv_obj_get_style_blend_mode(const struct _lv_obj_t * obj, uint32_t pa
 548:Drivers/lvgl/lvgl/src/widgets/../core/lv_obj_style_gen.h **** {
 549:Drivers/lvgl/lvgl/src/widgets/../core/lv_obj_style_gen.h ****     lv_style_value_t v = lv_obj_get_style_prop(obj, part, LV_STYLE_BLEND_MODE);
 550:Drivers/lvgl/lvgl/src/widgets/../core/lv_obj_style_gen.h ****     return (lv_blend_mode_t)v.num;
 551:Drivers/lvgl/lvgl/src/widgets/../core/lv_obj_style_gen.h **** }
ARM GAS  /tmp/ccd9EMp8.s 			page 33


 552:Drivers/lvgl/lvgl/src/widgets/../core/lv_obj_style_gen.h **** 
 553:Drivers/lvgl/lvgl/src/widgets/../core/lv_obj_style_gen.h **** static inline uint16_t lv_obj_get_style_layout(const struct _lv_obj_t * obj, uint32_t part)
 554:Drivers/lvgl/lvgl/src/widgets/../core/lv_obj_style_gen.h **** {
 555:Drivers/lvgl/lvgl/src/widgets/../core/lv_obj_style_gen.h ****     lv_style_value_t v = lv_obj_get_style_prop(obj, part, LV_STYLE_LAYOUT);
 556:Drivers/lvgl/lvgl/src/widgets/../core/lv_obj_style_gen.h ****     return (uint16_t)v.num;
 557:Drivers/lvgl/lvgl/src/widgets/../core/lv_obj_style_gen.h **** }
 558:Drivers/lvgl/lvgl/src/widgets/../core/lv_obj_style_gen.h **** 
 559:Drivers/lvgl/lvgl/src/widgets/../core/lv_obj_style_gen.h **** static inline lv_base_dir_t lv_obj_get_style_base_dir(const struct _lv_obj_t * obj, uint32_t part)
 560:Drivers/lvgl/lvgl/src/widgets/../core/lv_obj_style_gen.h **** {
 561:Drivers/lvgl/lvgl/src/widgets/../core/lv_obj_style_gen.h ****     lv_style_value_t v = lv_obj_get_style_prop(obj, part, LV_STYLE_BASE_DIR);
 482              		.loc 3 561 0
 483 01f2 1622     		movs	r2, #22
 484 01f4 0021     		movs	r1, #0
 485 01f6 2046     		mov	r0, r4
 486 01f8 FFF7FEFF 		bl	lv_obj_get_style_prop
 487              	.LVL50:
 562:Drivers/lvgl/lvgl/src/widgets/../core/lv_obj_style_gen.h ****     return (lv_base_dir_t)v.num;
 488              		.loc 3 562 0
 489 01fc C0B2     		uxtb	r0, r0
 490              	.LVL51:
 491              	.LBE100:
 492              	.LBE99:
 340:Drivers/lvgl/lvgl/src/widgets/lv_bar.c ****         /*Swap axes*/
 493              		.loc 2 340 0
 494 01fe 099B     		ldr	r3, [sp, #36]
 495 0200 0128     		cmp	r0, #1
 496 0202 14BF     		ite	ne
 497 0204 0023     		movne	r3, #0
 498 0206 03F00103 		andeq	r3, r3, #1
 499 020a 4BB1     		cbz	r3, .L19
 500              	.LVL52:
 501              	.LBB101:
 346:Drivers/lvgl/lvgl/src/widgets/lv_bar.c ****         anim_start_value_x = -anim_start_value_x;
 502              		.loc 2 346 0
 503 020c C8F10008 		rsb	r8, r8, #0
 504              	.LVL53:
 505 0210 0FFA88F8 		sxth	r8, r8
 506              	.LVL54:
 347:Drivers/lvgl/lvgl/src/widgets/lv_bar.c ****     }
 507              		.loc 2 347 0
 508 0214 7F42     		negs	r7, r7
 509              	.LVL55:
 510 0216 3FB2     		sxth	r7, r7
 511              	.LVL56:
 512 0218 019B     		ldr	r3, [sp, #4]
 344:Drivers/lvgl/lvgl/src/widgets/lv_bar.c ****         axis2 = tmp;
 513              		.loc 2 344 0
 514 021a CDF80490 		str	r9, [sp, #4]
 515              	.LVL57:
 345:Drivers/lvgl/lvgl/src/widgets/lv_bar.c ****         anim_cur_value_x = -anim_cur_value_x;
 516              		.loc 2 345 0
 517 021e 9946     		mov	r9, r3
 518              	.LVL58:
 519              	.L19:
 520              	.LBE101:
 351:Drivers/lvgl/lvgl/src/widgets/lv_bar.c ****         *axis2 = *axis1 + anim_cur_value_x;
 521              		.loc 2 351 0
ARM GAS  /tmp/ccd9EMp8.s 			page 34


 522 0220 AE42     		cmp	r6, r5
 523 0222 00F37781 		bgt	.L20
 352:Drivers/lvgl/lvgl/src/widgets/lv_bar.c ****         *axis1 += anim_start_value_x;
 524              		.loc 2 352 0
 525 0226 019A     		ldr	r2, [sp, #4]
 526 0228 1388     		ldrh	r3, [r2]
 527 022a 9844     		add	r8, r8, r3
 528              	.LVL59:
 529 022c A9F80080 		strh	r8, [r9]	@ movhi
 353:Drivers/lvgl/lvgl/src/widgets/lv_bar.c ****     }
 530              		.loc 2 353 0
 531 0230 1388     		ldrh	r3, [r2]
 532 0232 1F44     		add	r7, r7, r3
 533              	.LVL60:
 534 0234 1780     		strh	r7, [r2]	@ movhi
 535              	.L21:
 359:Drivers/lvgl/lvgl/src/widgets/lv_bar.c ****         lv_coord_t zero, shift;
 536              		.loc 2 359 0
 537 0236 039B     		ldr	r3, [sp, #12]
 538 0238 ABB1     		cbz	r3, .L22
 539              	.LBB102:
 361:Drivers/lvgl/lvgl/src/widgets/lv_bar.c ****         if(hor) {
 540              		.loc 2 361 0
 541 023a A36A     		ldr	r3, [r4, #40]
 542 023c 5B42     		negs	r3, r3
 543 023e 03FB0BFB 		mul	fp, r3, fp
 544              	.LVL61:
 545 0242 9BFBFAFA 		sdiv	r10, fp, r10
 546              	.LVL62:
 362:Drivers/lvgl/lvgl/src/widgets/lv_bar.c ****             zero = *axis1 + shift;
 547              		.loc 2 362 0
 548 0246 AE42     		cmp	r6, r5
 549 0248 00F37A81 		bgt	.L23
 363:Drivers/lvgl/lvgl/src/widgets/lv_bar.c ****             if(*axis2 > zero)
 550              		.loc 2 363 0
 551 024c 019A     		ldr	r2, [sp, #4]
 552 024e B2F800B0 		ldrh	fp, [r2]
 553 0252 DA44     		add	r10, r10, fp
 554              	.LVL63:
 555 0254 0FFA8AFA 		sxth	r10, r10
 556              	.LVL64:
 364:Drivers/lvgl/lvgl/src/widgets/lv_bar.c ****                 *axis1 = zero;
 557              		.loc 2 364 0
 558 0258 B9F90030 		ldrsh	r3, [r9]
 559 025c 5345     		cmp	r3, r10
 560 025e 40F36A81 		ble	.L24
 365:Drivers/lvgl/lvgl/src/widgets/lv_bar.c ****             else {
 561              		.loc 2 365 0
 562 0262 A2F800A0 		strh	r10, [r2]	@ movhi
 563              	.LVL65:
 564              	.L22:
 565              	.LBE102:
 389:Drivers/lvgl/lvgl/src/widgets/lv_bar.c **** 
 566              		.loc 2 389 0
 567 0266 039B     		ldr	r3, [sp, #12]
 568 0268 2BB9     		cbnz	r3, .L27
 389:Drivers/lvgl/lvgl/src/widgets/lv_bar.c **** 
ARM GAS  /tmp/ccd9EMp8.s 			page 35


 569              		.loc 2 389 0 is_stmt 0 discriminator 1
 570 026a 0098     		ldr	r0, [sp]
 571 026c 0A9B     		ldr	r3, [sp, #40]
 572 026e 9847     		blx	r3
 573              	.LVL66:
 574 0270 0128     		cmp	r0, #1
 575 0272 40F38481 		ble	.L48
 576              	.L27:
 407:Drivers/lvgl/lvgl/src/widgets/lv_bar.c ****     lv_obj_init_draw_rect_dsc(obj, LV_PART_INDICATOR, &draw_rect_dsc);
 577              		.loc 2 407 0 is_stmt 1
 578 0276 40AF     		add	r7, sp, #256
 579 0278 3846     		mov	r0, r7
 580 027a FFF7FEFF 		bl	lv_draw_rect_dsc_init
 581              	.LVL67:
 408:Drivers/lvgl/lvgl/src/widgets/lv_bar.c **** 
 582              		.loc 2 408 0
 583 027e 3A46     		mov	r2, r7
 584 0280 4FF40031 		mov	r1, #131072
 585 0284 2046     		mov	r0, r4
 586 0286 FFF7FEFF 		bl	lv_obj_init_draw_rect_dsc
 587              	.LVL68:
 411:Drivers/lvgl/lvgl/src/widgets/lv_bar.c ****     part_draw_dsc.part = LV_PART_INDICATOR;
 588              		.loc 2 411 0
 589 028a 0299     		ldr	r1, [sp, #8]
 590 028c 2EA8     		add	r0, sp, #184
 591 028e FFF7FEFF 		bl	lv_obj_draw_dsc_init
 592              	.LVL69:
 412:Drivers/lvgl/lvgl/src/widgets/lv_bar.c ****     part_draw_dsc.class_p = MY_CLASS;
 593              		.loc 2 412 0
 594 0292 4FF40033 		mov	r3, #131072
 595 0296 3B93     		str	r3, [sp, #236]
 413:Drivers/lvgl/lvgl/src/widgets/lv_bar.c ****     part_draw_dsc.type = LV_BAR_DRAW_PART_INDICATOR;
 596              		.loc 2 413 0
 597 0298 7C4B     		ldr	r3, .L53+4
 598 029a 2F93     		str	r3, [sp, #188]
 414:Drivers/lvgl/lvgl/src/widgets/lv_bar.c ****     part_draw_dsc.rect_dsc = &draw_rect_dsc;
 599              		.loc 2 414 0
 600 029c 4FF00008 		mov	r8, #0
 601 02a0 CDF8C080 		str	r8, [sp, #192]
 415:Drivers/lvgl/lvgl/src/widgets/lv_bar.c ****     part_draw_dsc.draw_area = &bar->indic_area;
 602              		.loc 2 415 0
 603 02a4 3297     		str	r7, [sp, #200]
 416:Drivers/lvgl/lvgl/src/widgets/lv_bar.c **** 
 604              		.loc 2 416 0
 605 02a6 009B     		ldr	r3, [sp]
 606 02a8 3193     		str	r3, [sp, #196]
 418:Drivers/lvgl/lvgl/src/widgets/lv_bar.c **** 
 607              		.loc 2 418 0
 608 02aa 2EAA     		add	r2, sp, #184
 609 02ac 1A21     		movs	r1, #26
 610 02ae 2046     		mov	r0, r4
 611 02b0 FFF7FEFF 		bl	lv_event_send
 612              	.LVL70:
 613              	.LBB103:
 614              	.LBB104:
 495:Drivers/lvgl/lvgl/src/widgets/../core/lv_obj_style_gen.h ****     return (lv_coord_t)v.num;
 615              		.loc 3 495 0
ARM GAS  /tmp/ccd9EMp8.s 			page 36


 616 02b4 0B22     		movs	r2, #11
 617 02b6 4146     		mov	r1, r8
 618 02b8 2046     		mov	r0, r4
 619 02ba FFF7FEFF 		bl	lv_obj_get_style_prop
 620              	.LVL71:
 496:Drivers/lvgl/lvgl/src/widgets/../core/lv_obj_style_gen.h **** }
 621              		.loc 3 496 0
 622 02be 00B2     		sxth	r0, r0
 623              	.LVL72:
 624              	.LBE104:
 625              	.LBE103:
 421:Drivers/lvgl/lvgl/src/widgets/lv_bar.c ****     if(bg_radius > short_side >> 1) bg_radius = short_side >> 1;
 626              		.loc 2 421 0
 627 02c0 3746     		mov	r7, r6
 628 02c2 AE42     		cmp	r6, r5
 629 02c4 A8BF     		it	ge
 630 02c6 2F46     		movge	r7, r5
 631              	.LVL73:
 422:Drivers/lvgl/lvgl/src/widgets/lv_bar.c **** 
 632              		.loc 2 422 0
 633 02c8 7F10     		asrs	r7, r7, #1
 634              	.LVL74:
 635 02ca 8742     		cmp	r7, r0
 636              	.LVL75:
 637 02cc 00DB     		blt	.L29
 420:Drivers/lvgl/lvgl/src/widgets/lv_bar.c ****     lv_coord_t short_side = LV_MIN(barw, barh);
 638              		.loc 2 420 0
 639 02ce 0746     		mov	r7, r0
 640              	.L29:
 641              	.LVL76:
 424:Drivers/lvgl/lvgl/src/widgets/lv_bar.c ****     short_side = LV_MIN(indicw, indich);
 642              		.loc 2 424 0
 643 02d0 BDF90031 		ldrsh	r3, [sp, #256]
 644              	.LVL77:
 425:Drivers/lvgl/lvgl/src/widgets/lv_bar.c ****     if(indic_radius > short_side >> 1) indic_radius = short_side >> 1;
 645              		.loc 2 425 0
 646 02d4 089A     		ldr	r2, [sp, #32]
 647 02d6 0B99     		ldr	r1, [sp, #44]
 648 02d8 8A42     		cmp	r2, r1
 649 02da A8BF     		it	ge
 650 02dc 0A46     		movge	r2, r1
 651              	.LVL78:
 426:Drivers/lvgl/lvgl/src/widgets/lv_bar.c **** 
 652              		.loc 2 426 0
 653 02de 5210     		asrs	r2, r2, #1
 654              	.LVL79:
 655 02e0 9A42     		cmp	r2, r3
 656              	.LVL80:
 657 02e2 00DB     		blt	.L30
 424:Drivers/lvgl/lvgl/src/widgets/lv_bar.c ****     short_side = LV_MIN(indicw, indich);
 658              		.loc 2 424 0
 659 02e4 1A46     		mov	r2, r3
 660              	.L30:
 661              	.LVL81:
 431:Drivers/lvgl/lvgl/src/widgets/lv_bar.c ****        (!hor && lv_area_get_height(&bar->indic_area) > indic_radius * 2)) {
 662              		.loc 2 431 0
 663 02e6 AE42     		cmp	r6, r5
ARM GAS  /tmp/ccd9EMp8.s 			page 37


 664 02e8 08DC     		bgt	.L31
 665              	.LVL82:
 666              	.LBB105:
 667              	.LBB106:
 125:Drivers/lvgl/lvgl/src/widgets/../core/../misc/../font/../misc/lv_area.h **** }
 668              		.loc 1 125 0 discriminator 1
 669 02ea 238F     		ldrh	r3, [r4, #56]
 670 02ec A18E     		ldrh	r1, [r4, #52]
 671              	.LVL83:
 672 02ee 5B1A     		subs	r3, r3, r1
 673 02f0 9BB2     		uxth	r3, r3
 674 02f2 0133     		adds	r3, r3, #1
 675 02f4 1BB2     		sxth	r3, r3
 676              	.LVL84:
 677              	.LBE106:
 678              	.LBE105:
 431:Drivers/lvgl/lvgl/src/widgets/lv_bar.c ****        (!hor && lv_area_get_height(&bar->indic_area) > indic_radius * 2)) {
 679              		.loc 2 431 0 discriminator 1
 680 02f6 B3EB420F 		cmp	r3, r2, lsl #1
 681 02fa 0ADC     		bgt	.L32
 682              	.L31:
 431:Drivers/lvgl/lvgl/src/widgets/lv_bar.c ****        (!hor && lv_area_get_height(&bar->indic_area) > indic_radius * 2)) {
 683              		.loc 2 431 0 is_stmt 0 discriminator 3
 684 02fc AE42     		cmp	r6, r5
 685 02fe 20DD     		ble	.L33
 686              	.LVL85:
 687              	.LBB107:
 688              	.LBB108:
 135:Drivers/lvgl/lvgl/src/widgets/../core/../misc/../font/../misc/lv_area.h **** }
 689              		.loc 1 135 0 is_stmt 1
 690 0300 638F     		ldrh	r3, [r4, #58]
 691 0302 E18E     		ldrh	r1, [r4, #54]
 692 0304 5B1A     		subs	r3, r3, r1
 693 0306 9BB2     		uxth	r3, r3
 694 0308 0133     		adds	r3, r3, #1
 695 030a 1BB2     		sxth	r3, r3
 696              	.LVL86:
 697              	.LBE108:
 698              	.LBE107:
 432:Drivers/lvgl/lvgl/src/widgets/lv_bar.c ****         lv_opa_t bg_opa = draw_rect_dsc.bg_opa;
 699              		.loc 2 432 0
 700 030c B3EB420F 		cmp	r3, r2, lsl #1
 701 0310 17DD     		ble	.L33
 702              	.L32:
 703              	.LBB109:
 433:Drivers/lvgl/lvgl/src/widgets/lv_bar.c ****         lv_opa_t bg_img_opa = draw_rect_dsc.bg_img_opa;
 704              		.loc 2 433 0
 705 0312 9DF803A1 		ldrb	r10, [sp, #259]	@ zero_extendqisi2
 706              	.LVL87:
 434:Drivers/lvgl/lvgl/src/widgets/lv_bar.c ****         lv_opa_t border_opa = draw_rect_dsc.border_opa;
 707              		.loc 2 434 0
 708 0316 9DF81A91 		ldrb	r9, [sp, #282]	@ zero_extendqisi2
 709              	.LVL88:
 435:Drivers/lvgl/lvgl/src/widgets/lv_bar.c ****         draw_rect_dsc.bg_opa = LV_OPA_TRANSP;
 710              		.loc 2 435 0
 711 031a 9DF82281 		ldrb	r8, [sp, #290]	@ zero_extendqisi2
 712              	.LVL89:
ARM GAS  /tmp/ccd9EMp8.s 			page 38


 436:Drivers/lvgl/lvgl/src/widgets/lv_bar.c ****         draw_rect_dsc.bg_img_opa = LV_OPA_TRANSP;
 713              		.loc 2 436 0
 714 031e 0023     		movs	r3, #0
 715 0320 8DF80331 		strb	r3, [sp, #259]
 437:Drivers/lvgl/lvgl/src/widgets/lv_bar.c ****         draw_rect_dsc.border_opa = LV_OPA_TRANSP;
 716              		.loc 2 437 0
 717 0324 8DF81A31 		strb	r3, [sp, #282]
 438:Drivers/lvgl/lvgl/src/widgets/lv_bar.c **** 
 718              		.loc 2 438 0
 719 0328 8DF82231 		strb	r3, [sp, #290]
 440:Drivers/lvgl/lvgl/src/widgets/lv_bar.c **** 
 720              		.loc 2 440 0
 721 032c 009A     		ldr	r2, [sp]
 722              	.LVL90:
 723 032e 40A9     		add	r1, sp, #256
 724 0330 0298     		ldr	r0, [sp, #8]
 725 0332 FFF7FEFF 		bl	lv_draw_rect
 726              	.LVL91:
 442:Drivers/lvgl/lvgl/src/widgets/lv_bar.c ****         draw_rect_dsc.bg_img_opa = bg_img_opa;
 727              		.loc 2 442 0
 728 0336 8DF803A1 		strb	r10, [sp, #259]
 443:Drivers/lvgl/lvgl/src/widgets/lv_bar.c ****         draw_rect_dsc.border_opa = border_opa;
 729              		.loc 2 443 0
 730 033a 8DF81A91 		strb	r9, [sp, #282]
 444:Drivers/lvgl/lvgl/src/widgets/lv_bar.c ****     }
 731              		.loc 2 444 0
 732 033e 8DF82281 		strb	r8, [sp, #290]
 733              	.LVL92:
 734              	.L33:
 735              	.LBE109:
 450:Drivers/lvgl/lvgl/src/widgets/lv_bar.c ****     bg_mask_area.x2 = obj->coords.x2 - bg_right;
 736              		.loc 2 450 0
 737 0342 A38A     		ldrh	r3, [r4, #20]
 738 0344 049A     		ldr	r2, [sp, #16]
 739 0346 1344     		add	r3, r3, r2
 740 0348 ADF89830 		strh	r3, [sp, #152]	@ movhi
 451:Drivers/lvgl/lvgl/src/widgets/lv_bar.c ****     bg_mask_area.y1 = obj->coords.y1 + bg_top;
 741              		.loc 2 451 0
 742 034c 238B     		ldrh	r3, [r4, #24]
 743 034e 0599     		ldr	r1, [sp, #20]
 744 0350 5B1A     		subs	r3, r3, r1
 745 0352 ADF89C30 		strh	r3, [sp, #156]	@ movhi
 452:Drivers/lvgl/lvgl/src/widgets/lv_bar.c ****     bg_mask_area.y2 = obj->coords.y2 - bg_bottom;
 746              		.loc 2 452 0
 747 0356 E38A     		ldrh	r3, [r4, #22]
 748 0358 0698     		ldr	r0, [sp, #24]
 749 035a 0344     		add	r3, r3, r0
 750 035c ADF89A30 		strh	r3, [sp, #154]	@ movhi
 453:Drivers/lvgl/lvgl/src/widgets/lv_bar.c **** 
 751              		.loc 2 453 0
 752 0360 638B     		ldrh	r3, [r4, #26]
 753 0362 079A     		ldr	r2, [sp, #28]
 754 0364 9B1A     		subs	r3, r3, r2
 755 0366 ADF89E30 		strh	r3, [sp, #158]	@ movhi
 455:Drivers/lvgl/lvgl/src/widgets/lv_bar.c ****     lv_coord_t mask_bg_id = lv_draw_mask_add(&mask_bg_param, NULL);
 756              		.loc 2 455 0
 757 036a 0023     		movs	r3, #0
ARM GAS  /tmp/ccd9EMp8.s 			page 39


 758 036c 3A46     		mov	r2, r7
 759 036e 26A9     		add	r1, sp, #152
 760 0370 28A8     		add	r0, sp, #160
 761 0372 FFF7FEFF 		bl	lv_draw_mask_radius_init
 762              	.LVL93:
 456:Drivers/lvgl/lvgl/src/widgets/lv_bar.c **** #endif
 763              		.loc 2 456 0
 764 0376 0021     		movs	r1, #0
 765 0378 28A8     		add	r0, sp, #160
 766 037a FFF7FEFF 		bl	lv_draw_mask_add
 767              	.LVL94:
 768 037e 0746     		mov	r7, r0
 769              	.LVL95:
 461:Drivers/lvgl/lvgl/src/widgets/lv_bar.c ****     draw_rect_dsc.border_opa = LV_OPA_TRANSP;
 770              		.loc 2 461 0
 771 0380 9DF82281 		ldrb	r8, [sp, #290]	@ zero_extendqisi2
 772              	.LVL96:
 462:Drivers/lvgl/lvgl/src/widgets/lv_bar.c ****     draw_rect_dsc.shadow_opa = LV_OPA_TRANSP;
 773              		.loc 2 462 0
 774 0384 0023     		movs	r3, #0
 775 0386 8DF82231 		strb	r3, [sp, #290]
 463:Drivers/lvgl/lvgl/src/widgets/lv_bar.c **** 
 776              		.loc 2 463 0
 777 038a 8DF83631 		strb	r3, [sp, #310]
 778              	.LVL97:
 779              	.LBB110:
 780              	.LBB111:
 112:Drivers/lvgl/lvgl/src/widgets/../core/../misc/../font/../misc/lv_area.h ****     dest->y1 = src->y1;
 781              		.loc 1 112 0
 782 038e BDF93811 		ldrsh	r1, [sp, #312]
 113:Drivers/lvgl/lvgl/src/widgets/../core/../misc/../font/../misc/lv_area.h ****     dest->x2 = src->x2;
 783              		.loc 1 113 0
 784 0392 BDF93A01 		ldrsh	r0, [sp, #314]
 114:Drivers/lvgl/lvgl/src/widgets/../core/../misc/../font/../misc/lv_area.h ****     dest->y2 = src->y2;
 785              		.loc 1 114 0
 786 0396 BDF93C21 		ldrsh	r2, [sp, #316]
 115:Drivers/lvgl/lvgl/src/widgets/../core/../misc/../font/../misc/lv_area.h **** }
 787              		.loc 1 115 0
 788 039a BDF93EE1 		ldrsh	lr, [sp, #318]
 789              	.LVL98:
 790              	.LBE111:
 791              	.LBE110:
 468:Drivers/lvgl/lvgl/src/widgets/lv_bar.c ****     mask_indic_max_area.y1 += bg_top;
 792              		.loc 2 468 0
 793 039e 049B     		ldr	r3, [sp, #16]
 794 03a0 1944     		add	r1, r1, r3
 795 03a2 89B2     		uxth	r1, r1
 796 03a4 ADF89010 		strh	r1, [sp, #144]	@ movhi
 469:Drivers/lvgl/lvgl/src/widgets/lv_bar.c ****     mask_indic_max_area.x2 -= bg_right;
 797              		.loc 2 469 0
 798 03a8 069B     		ldr	r3, [sp, #24]
 799 03aa 1844     		add	r0, r0, r3
 800 03ac 80B2     		uxth	r0, r0
 801 03ae ADF89200 		strh	r0, [sp, #146]	@ movhi
 470:Drivers/lvgl/lvgl/src/widgets/lv_bar.c ****     mask_indic_max_area.y2 -= bg_bottom;
 802              		.loc 2 470 0
 803 03b2 059B     		ldr	r3, [sp, #20]
ARM GAS  /tmp/ccd9EMp8.s 			page 40


 804 03b4 D21A     		subs	r2, r2, r3
 805 03b6 92B2     		uxth	r2, r2
 806 03b8 ADF89420 		strh	r2, [sp, #148]	@ movhi
 471:Drivers/lvgl/lvgl/src/widgets/lv_bar.c ****     if(hor && lv_area_get_height(&mask_indic_max_area) < LV_BAR_SIZE_MIN) {
 807              		.loc 2 471 0
 808 03bc 079B     		ldr	r3, [sp, #28]
 809 03be AEEB0303 		sub	r3, lr, r3
 810 03c2 9BB2     		uxth	r3, r3
 811 03c4 ADF89630 		strh	r3, [sp, #150]	@ movhi
 472:Drivers/lvgl/lvgl/src/widgets/lv_bar.c ****         mask_indic_max_area.y1 = obj->coords.y1 + (barh / 2) - (LV_BAR_SIZE_MIN / 2);
 812              		.loc 2 472 0
 813 03c8 AE42     		cmp	r6, r5
 814 03ca 00F3F280 		bgt	.L34
 815              	.LVL99:
 816              	.LBB112:
 817              	.LBB113:
 135:Drivers/lvgl/lvgl/src/widgets/../core/../misc/../font/../misc/lv_area.h **** }
 818              		.loc 1 135 0
 819 03ce 1B1A     		subs	r3, r3, r0
 820 03d0 9BB2     		uxth	r3, r3
 821 03d2 0133     		adds	r3, r3, #1
 822 03d4 1BB2     		sxth	r3, r3
 823              	.LVL100:
 824              	.LBE113:
 825              	.LBE112:
 472:Drivers/lvgl/lvgl/src/widgets/lv_bar.c ****         mask_indic_max_area.y1 = obj->coords.y1 + (barh / 2) - (LV_BAR_SIZE_MIN / 2);
 826              		.loc 2 472 0
 827 03d6 032B     		cmp	r3, #3
 828 03d8 00F3EB80 		bgt	.L34
 473:Drivers/lvgl/lvgl/src/widgets/lv_bar.c ****         mask_indic_max_area.y2 = mask_indic_max_area.y1 + LV_BAR_SIZE_MIN;
 829              		.loc 2 473 0
 830 03dc E38A     		ldrh	r3, [r4, #22]
 831 03de 3246     		mov	r2, r6
 832 03e0 002E     		cmp	r6, #0
 833 03e2 C0F2E480 		blt	.L49
 834              	.L35:
 835 03e6 03EB6203 		add	r3, r3, r2, asr #1
 836 03ea 9BB2     		uxth	r3, r3
 837 03ec 023B     		subs	r3, r3, #2
 838 03ee 9BB2     		uxth	r3, r3
 839 03f0 ADF89230 		strh	r3, [sp, #146]	@ movhi
 474:Drivers/lvgl/lvgl/src/widgets/lv_bar.c ****     }
 840              		.loc 2 474 0
 841 03f4 0433     		adds	r3, r3, #4
 842 03f6 ADF89630 		strh	r3, [sp, #150]	@ movhi
 843              	.L36:
 484:Drivers/lvgl/lvgl/src/widgets/lv_bar.c ****     int16_t mask_indic_id = lv_draw_mask_add(&mask_indic_param, NULL);
 844              		.loc 2 484 0
 845 03fa 0023     		movs	r3, #0
 846 03fc BDF90021 		ldrsh	r2, [sp, #256]
 847 0400 DDF80090 		ldr	r9, [sp]
 848 0404 4946     		mov	r1, r9
 849 0406 1EA8     		add	r0, sp, #120
 850 0408 FFF7FEFF 		bl	lv_draw_mask_radius_init
 851              	.LVL101:
 485:Drivers/lvgl/lvgl/src/widgets/lv_bar.c **** #endif
 852              		.loc 2 485 0
ARM GAS  /tmp/ccd9EMp8.s 			page 41


 853 040c 0021     		movs	r1, #0
 854 040e 1EA8     		add	r0, sp, #120
 855 0410 FFF7FEFF 		bl	lv_draw_mask_add
 856              	.LVL102:
 857 0414 0546     		mov	r5, r0
 858              	.LVL103:
 488:Drivers/lvgl/lvgl/src/widgets/lv_bar.c ****     draw_rect_dsc.border_opa = border_opa;
 859              		.loc 2 488 0
 860 0416 24AA     		add	r2, sp, #144
 861 0418 40A9     		add	r1, sp, #256
 862 041a 029E     		ldr	r6, [sp, #8]
 863 041c 3046     		mov	r0, r6
 864 041e FFF7FEFF 		bl	lv_draw_rect
 865              	.LVL104:
 489:Drivers/lvgl/lvgl/src/widgets/lv_bar.c ****     draw_rect_dsc.shadow_opa = shadow_opa;
 866              		.loc 2 489 0
 867 0422 8DF82281 		strb	r8, [sp, #290]
 493:Drivers/lvgl/lvgl/src/widgets/lv_bar.c ****     draw_rect_dsc.bg_img_opa = LV_OPA_TRANSP;
 868              		.loc 2 493 0
 869 0426 0023     		movs	r3, #0
 870 0428 8DF80331 		strb	r3, [sp, #259]
 494:Drivers/lvgl/lvgl/src/widgets/lv_bar.c ****     draw_rect_dsc.shadow_opa = LV_OPA_TRANSP;
 871              		.loc 2 494 0
 872 042c 8DF81A31 		strb	r3, [sp, #282]
 495:Drivers/lvgl/lvgl/src/widgets/lv_bar.c ****     lv_draw_rect(draw_ctx, &draw_rect_dsc, &bar->indic_area);
 873              		.loc 2 495 0
 874 0430 8DF83631 		strb	r3, [sp, #310]
 496:Drivers/lvgl/lvgl/src/widgets/lv_bar.c **** 
 875              		.loc 2 496 0
 876 0434 4A46     		mov	r2, r9
 877 0436 40A9     		add	r1, sp, #256
 878 0438 3046     		mov	r0, r6
 879 043a FFF7FEFF 		bl	lv_draw_rect
 880              	.LVL105:
 499:Drivers/lvgl/lvgl/src/widgets/lv_bar.c ****     lv_draw_mask_free_param(&mask_bg_param);
 881              		.loc 2 499 0
 882 043e 1EA8     		add	r0, sp, #120
 883 0440 FFF7FEFF 		bl	lv_draw_mask_free_param
 884              	.LVL106:
 500:Drivers/lvgl/lvgl/src/widgets/lv_bar.c ****     lv_draw_mask_remove_id(mask_indic_id);
 885              		.loc 2 500 0
 886 0444 28A8     		add	r0, sp, #160
 887 0446 FFF7FEFF 		bl	lv_draw_mask_free_param
 888              	.LVL107:
 501:Drivers/lvgl/lvgl/src/widgets/lv_bar.c ****     lv_draw_mask_remove_id(mask_bg_id);
 889              		.loc 2 501 0
 890 044a 2846     		mov	r0, r5
 891 044c FFF7FEFF 		bl	lv_draw_mask_remove_id
 892              	.LVL108:
 502:Drivers/lvgl/lvgl/src/widgets/lv_bar.c **** #endif
 893              		.loc 2 502 0
 894 0450 3846     		mov	r0, r7
 895 0452 FFF7FEFF 		bl	lv_draw_mask_remove_id
 896              	.LVL109:
 505:Drivers/lvgl/lvgl/src/widgets/lv_bar.c **** }
 897              		.loc 2 505 0
 898 0456 2EAA     		add	r2, sp, #184
ARM GAS  /tmp/ccd9EMp8.s 			page 42


 899 0458 1B21     		movs	r1, #27
 900 045a 2046     		mov	r0, r4
 901 045c FFF7FEFF 		bl	lv_event_send
 902              	.LVL110:
 903              	.L4:
 506:Drivers/lvgl/lvgl/src/widgets/lv_bar.c **** 
 904              		.loc 2 506 0
 905 0460 51B0     		add	sp, sp, #324
 906              	.LCFI2:
 907              		.cfi_remember_state
 908              		.cfi_def_cfa_offset 36
 909              		@ sp needed
 910 0462 BDE8F08F 		pop	{r4, r5, r6, r7, r8, r9, r10, fp, pc}
 911              	.LVL111:
 912              	.L44:
 913              	.LCFI3:
 914              		.cfi_restore_state
 264:Drivers/lvgl/lvgl/src/widgets/lv_bar.c ****        bar->start_value == bar->min_value) sym = true;
 915              		.loc 2 264 0 discriminator 1
 916 0466 002A     		cmp	r2, #0
 917 0468 02DB     		blt	.L50
 263:Drivers/lvgl/lvgl/src/widgets/lv_bar.c ****     if(bar->mode == LV_BAR_MODE_SYMMETRICAL && bar->min_value < 0 && bar->max_value > 0 &&
 918              		.loc 2 263 0
 919 046a 0023     		movs	r3, #0
 920 046c 0393     		str	r3, [sp, #12]
 921 046e 15E6     		b	.L5
 922              	.L50:
 264:Drivers/lvgl/lvgl/src/widgets/lv_bar.c ****        bar->start_value == bar->min_value) sym = true;
 923              		.loc 2 264 0 discriminator 2
 924 0470 0029     		cmp	r1, #0
 925 0472 05DD     		ble	.L40
 265:Drivers/lvgl/lvgl/src/widgets/lv_bar.c **** 
 926              		.loc 2 265 0 discriminator 3
 927 0474 236B     		ldr	r3, [r4, #48]
 264:Drivers/lvgl/lvgl/src/widgets/lv_bar.c ****        bar->start_value == bar->min_value) sym = true;
 928              		.loc 2 264 0 discriminator 3
 929 0476 9A42     		cmp	r2, r3
 930 0478 0AD0     		beq	.L41
 263:Drivers/lvgl/lvgl/src/widgets/lv_bar.c ****     if(bar->mode == LV_BAR_MODE_SYMMETRICAL && bar->min_value < 0 && bar->max_value > 0 &&
 931              		.loc 2 263 0
 932 047a 0023     		movs	r3, #0
 933 047c 0393     		str	r3, [sp, #12]
 934 047e 0DE6     		b	.L5
 935              	.L40:
 936 0480 0023     		movs	r3, #0
 937 0482 0393     		str	r3, [sp, #12]
 938 0484 0AE6     		b	.L5
 939              	.L54:
 940 0486 00BF     		.align	2
 941              	.L53:
 942 0488 00000000 		.word	lv_area_get_width
 943 048c 00000000 		.word	.LANCHOR0
 944              	.L41:
 265:Drivers/lvgl/lvgl/src/widgets/lv_bar.c **** 
 945              		.loc 2 265 0
 946 0490 0123     		movs	r3, #1
 947 0492 0393     		str	r3, [sp, #12]
ARM GAS  /tmp/ccd9EMp8.s 			page 43


 948 0494 02E6     		b	.L5
 949              	.LVL112:
 950              	.L45:
 280:Drivers/lvgl/lvgl/src/widgets/lv_bar.c ****         bar->indic_area.y2 = bar->indic_area.y1 + LV_BAR_SIZE_MIN;
 951              		.loc 2 280 0
 952 0496 721C     		adds	r2, r6, #1
 953 0498 4AE6     		b	.L7
 954              	.L6:
 283:Drivers/lvgl/lvgl/src/widgets/lv_bar.c ****         bar->indic_area.x1 = obj->coords.x1 + (barw / 2) - (LV_BAR_SIZE_MIN / 2);
 955              		.loc 2 283 0
 956 049a AE42     		cmp	r6, r5
 957 049c 7FF750AE 		ble	.L8
 958              	.LVL113:
 959              	.LBB114:
 960              	.LBB115:
 125:Drivers/lvgl/lvgl/src/widgets/../core/../misc/../font/../misc/lv_area.h **** }
 961              		.loc 1 125 0 discriminator 1
 962 04a0 A2EB0C02 		sub	r2, r2, ip
 963 04a4 92B2     		uxth	r2, r2
 964 04a6 0132     		adds	r2, r2, #1
 965 04a8 12B2     		sxth	r2, r2
 966              	.LVL114:
 967              	.LBE115:
 968              	.LBE114:
 283:Drivers/lvgl/lvgl/src/widgets/lv_bar.c ****         bar->indic_area.x1 = obj->coords.x1 + (barw / 2) - (LV_BAR_SIZE_MIN / 2);
 969              		.loc 2 283 0 discriminator 1
 970 04aa 032A     		cmp	r2, #3
 971 04ac 3FF748AE 		bgt	.L8
 284:Drivers/lvgl/lvgl/src/widgets/lv_bar.c ****         bar->indic_area.x2 = bar->indic_area.x1 + LV_BAR_SIZE_MIN;
 972              		.loc 2 284 0
 973 04b0 A38A     		ldrh	r3, [r4, #20]
 974 04b2 2A46     		mov	r2, r5
 975 04b4 002D     		cmp	r5, #0
 976 04b6 08DB     		blt	.L51
 977              	.L9:
 978 04b8 03EB6203 		add	r3, r3, r2, asr #1
 979 04bc 9BB2     		uxth	r3, r3
 980 04be 023B     		subs	r3, r3, #2
 981 04c0 9BB2     		uxth	r3, r3
 982 04c2 A386     		strh	r3, [r4, #52]	@ movhi
 285:Drivers/lvgl/lvgl/src/widgets/lv_bar.c ****     }
 983              		.loc 2 285 0
 984 04c4 0433     		adds	r3, r3, #4
 985 04c6 2387     		strh	r3, [r4, #56]	@ movhi
 986 04c8 3AE6     		b	.L8
 987              	.L51:
 284:Drivers/lvgl/lvgl/src/widgets/lv_bar.c ****         bar->indic_area.x2 = bar->indic_area.x1 + LV_BAR_SIZE_MIN;
 988              		.loc 2 284 0
 989 04ca 6A1C     		adds	r2, r5, #1
 990 04cc F4E7     		b	.L9
 991              	.L42:
 292:Drivers/lvgl/lvgl/src/widgets/lv_bar.c **** 
 992              		.loc 2 292 0
 993 04ce DDF820B0 		ldr	fp, [sp, #32]
 994 04d2 47E6     		b	.L10
 995              	.LVL115:
 996              	.L11:
ARM GAS  /tmp/ccd9EMp8.s 			page 44


 305:Drivers/lvgl/lvgl/src/widgets/lv_bar.c ****         axis2 = &bar->indic_area.y2;
 997              		.loc 2 305 0
 998 04d4 04F13603 		add	r3, r4, #54
 999 04d8 0193     		str	r3, [sp, #4]
 1000              	.LVL116:
 306:Drivers/lvgl/lvgl/src/widgets/lv_bar.c ****         indic_length_calc = lv_area_get_height;
 1001              		.loc 2 306 0
 1002 04da 04F13A09 		add	r9, r4, #58
 1003              	.LVL117:
 307:Drivers/lvgl/lvgl/src/widgets/lv_bar.c ****     }
 1004              		.loc 2 307 0
 1005 04de 424B     		ldr	r3, .L55
 1006              	.LVL118:
 1007 04e0 0A93     		str	r3, [sp, #40]
 1008 04e2 49E6     		b	.L12
 1009              	.LVL119:
 1010              	.L46:
 1011              	.LBB116:
 316:Drivers/lvgl/lvgl/src/widgets/lv_bar.c ****                               LV_BAR_ANIM_STATE_END);
 1012              		.loc 2 316 0
 1013 04e4 FF33     		adds	r3, r3, #255
 1014 04e6 61E6     		b	.L14
 1015              	.LVL120:
 1016              	.L13:
 1017              	.LBE116:
 322:Drivers/lvgl/lvgl/src/widgets/lv_bar.c ****     }
 1018              		.loc 2 322 0
 1019 04e8 276B     		ldr	r7, [r4, #48]
 1020 04ea A36A     		ldr	r3, [r4, #40]
 1021 04ec FF1A     		subs	r7, r7, r3
 1022 04ee 07FB0BF7 		mul	r7, r7, fp
 1023 04f2 97FBFAF7 		sdiv	r7, r7, r10
 1024 04f6 3FB2     		sxth	r7, r7
 1025              	.LVL121:
 1026 04f8 5BE6     		b	.L15
 1027              	.LVL122:
 1028              	.L47:
 1029              	.LBB117:
 332:Drivers/lvgl/lvgl/src/widgets/lv_bar.c ****                                                      LV_BAR_ANIM_STATE_END);
 1030              		.loc 2 332 0
 1031 04fa FF33     		adds	r3, r3, #255
 1032 04fc 75E6     		b	.L17
 1033              	.LVL123:
 1034              	.L16:
 1035              	.LBE117:
 336:Drivers/lvgl/lvgl/src/widgets/lv_bar.c ****     }
 1036              		.loc 2 336 0
 1037 04fe 636A     		ldr	r3, [r4, #36]
 1038 0500 A26A     		ldr	r2, [r4, #40]
 1039 0502 A3EB0208 		sub	r8, r3, r2
 1040 0506 08FB0BF8 		mul	r8, r8, fp
 1041 050a 98FBFAF8 		sdiv	r8, r8, r10
 1042 050e 0FFA88F8 		sxth	r8, r8
 1043              	.LVL124:
 1044 0512 6EE6     		b	.L18
 1045              	.L20:
 356:Drivers/lvgl/lvgl/src/widgets/lv_bar.c ****         *axis2 -= anim_start_value_x;
ARM GAS  /tmp/ccd9EMp8.s 			page 45


 1046              		.loc 2 356 0
 1047 0514 B9F80030 		ldrh	r3, [r9]
 1048 0518 A3EB0808 		sub	r8, r3, r8
 1049              	.LVL125:
 1050 051c 1FFA88F8 		uxth	r8, r8
 1051 0520 08F10108 		add	r8, r8, #1
 1052 0524 019B     		ldr	r3, [sp, #4]
 1053 0526 A3F80080 		strh	r8, [r3]	@ movhi
 357:Drivers/lvgl/lvgl/src/widgets/lv_bar.c ****     }
 1054              		.loc 2 357 0
 1055 052a B9F80030 		ldrh	r3, [r9]
 1056 052e DF1B     		subs	r7, r3, r7
 1057              	.LVL126:
 1058 0530 A9F80070 		strh	r7, [r9]	@ movhi
 1059 0534 7FE6     		b	.L21
 1060              	.LVL127:
 1061              	.L24:
 1062              	.LBB118:
 367:Drivers/lvgl/lvgl/src/widgets/lv_bar.c ****                 *axis2 = zero;
 1063              		.loc 2 367 0
 1064 0536 019A     		ldr	r2, [sp, #4]
 1065 0538 1380     		strh	r3, [r2]	@ movhi
 368:Drivers/lvgl/lvgl/src/widgets/lv_bar.c ****             }
 1066              		.loc 2 368 0
 1067 053a A9F800A0 		strh	r10, [r9]	@ movhi
 1068 053e 92E6     		b	.L22
 1069              	.LVL128:
 1070              	.L23:
 372:Drivers/lvgl/lvgl/src/widgets/lv_bar.c ****             if(*axis1 > zero)
 1071              		.loc 2 372 0
 1072 0540 B9F80030 		ldrh	r3, [r9]
 1073 0544 A3EB0A03 		sub	r3, r3, r10
 1074 0548 9BB2     		uxth	r3, r3
 1075 054a 0133     		adds	r3, r3, #1
 1076 054c 1BB2     		sxth	r3, r3
 1077              	.LVL129:
 373:Drivers/lvgl/lvgl/src/widgets/lv_bar.c ****                 *axis2 = zero;
 1078              		.loc 2 373 0
 1079 054e 019A     		ldr	r2, [sp, #4]
 1080 0550 B2F90020 		ldrsh	r2, [r2]
 1081 0554 9A42     		cmp	r2, r3
 1082 0556 0DDD     		ble	.L25
 374:Drivers/lvgl/lvgl/src/widgets/lv_bar.c ****             else {
 1083              		.loc 2 374 0
 1084 0558 A9F80030 		strh	r3, [r9]	@ movhi
 1085              	.L26:
 379:Drivers/lvgl/lvgl/src/widgets/lv_bar.c ****                 /*swap*/
 1086              		.loc 2 379 0
 1087 055c B9F90020 		ldrsh	r2, [r9]
 1088 0560 0199     		ldr	r1, [sp, #4]
 1089 0562 B1F90030 		ldrsh	r3, [r1]
 1090              	.LVL130:
 1091 0566 9A42     		cmp	r2, r3
 1092 0568 BFF67DAE 		bge	.L22
 1093              	.LVL131:
 382:Drivers/lvgl/lvgl/src/widgets/lv_bar.c ****                 *axis2 = zero;
 1094              		.loc 2 382 0
ARM GAS  /tmp/ccd9EMp8.s 			page 46


 1095 056c 0A80     		strh	r2, [r1]	@ movhi
 383:Drivers/lvgl/lvgl/src/widgets/lv_bar.c ****             }
 1096              		.loc 2 383 0
 1097 056e A9F80030 		strh	r3, [r9]	@ movhi
 1098 0572 78E6     		b	.L22
 1099              	.L25:
 376:Drivers/lvgl/lvgl/src/widgets/lv_bar.c ****                 *axis1 = zero;
 1100              		.loc 2 376 0
 1101 0574 A9F80020 		strh	r2, [r9]	@ movhi
 377:Drivers/lvgl/lvgl/src/widgets/lv_bar.c ****             }
 1102              		.loc 2 377 0
 1103 0578 019A     		ldr	r2, [sp, #4]
 1104 057a 1380     		strh	r3, [r2]	@ movhi
 1105 057c EEE7     		b	.L26
 1106              	.LVL132:
 1107              	.L48:
 1108              	.LBE118:
 1109              	.LBB119:
 392:Drivers/lvgl/lvgl/src/widgets/lv_bar.c ****         part_draw_dsc.part = LV_PART_INDICATOR;
 1110              		.loc 2 392 0
 1111 057e 0299     		ldr	r1, [sp, #8]
 1112 0580 0CA8     		add	r0, sp, #48
 1113 0582 FFF7FEFF 		bl	lv_obj_draw_dsc_init
 1114              	.LVL133:
 393:Drivers/lvgl/lvgl/src/widgets/lv_bar.c ****         part_draw_dsc.class_p = MY_CLASS;
 1115              		.loc 2 393 0
 1116 0586 4FF40033 		mov	r3, #131072
 1117 058a 1993     		str	r3, [sp, #100]
 394:Drivers/lvgl/lvgl/src/widgets/lv_bar.c ****         part_draw_dsc.type = LV_BAR_DRAW_PART_INDICATOR;
 1118              		.loc 2 394 0
 1119 058c 174B     		ldr	r3, .L55+4
 1120 058e 0D93     		str	r3, [sp, #52]
 395:Drivers/lvgl/lvgl/src/widgets/lv_bar.c ****         part_draw_dsc.draw_area = &bar->indic_area;
 1121              		.loc 2 395 0
 1122 0590 0023     		movs	r3, #0
 1123 0592 0E93     		str	r3, [sp, #56]
 396:Drivers/lvgl/lvgl/src/widgets/lv_bar.c **** 
 1124              		.loc 2 396 0
 1125 0594 009B     		ldr	r3, [sp]
 1126 0596 0F93     		str	r3, [sp, #60]
 398:Drivers/lvgl/lvgl/src/widgets/lv_bar.c ****         lv_event_send(obj, LV_EVENT_DRAW_PART_END, &part_draw_dsc);
 1127              		.loc 2 398 0
 1128 0598 0CAA     		add	r2, sp, #48
 1129 059a 1A21     		movs	r1, #26
 1130 059c 2046     		mov	r0, r4
 1131 059e FFF7FEFF 		bl	lv_event_send
 1132              	.LVL134:
 399:Drivers/lvgl/lvgl/src/widgets/lv_bar.c ****         return;
 1133              		.loc 2 399 0
 1134 05a2 0CAA     		add	r2, sp, #48
 1135 05a4 1B21     		movs	r1, #27
 1136 05a6 2046     		mov	r0, r4
 1137 05a8 FFF7FEFF 		bl	lv_event_send
 1138              	.LVL135:
 1139 05ac 58E7     		b	.L4
 1140              	.LVL136:
 1141              	.L49:
ARM GAS  /tmp/ccd9EMp8.s 			page 47


 1142              	.LBE119:
 473:Drivers/lvgl/lvgl/src/widgets/lv_bar.c ****         mask_indic_max_area.y2 = mask_indic_max_area.y1 + LV_BAR_SIZE_MIN;
 1143              		.loc 2 473 0
 1144 05ae 721C     		adds	r2, r6, #1
 1145 05b0 19E7     		b	.L35
 1146              	.L34:
 476:Drivers/lvgl/lvgl/src/widgets/lv_bar.c ****         mask_indic_max_area.x1 = obj->coords.x1 + (barw / 2) - (LV_BAR_SIZE_MIN / 2);
 1147              		.loc 2 476 0
 1148 05b2 AE42     		cmp	r6, r5
 1149 05b4 7FF721AF 		ble	.L36
 1150              	.LVL137:
 1151              	.LBB120:
 1152              	.LBB121:
 125:Drivers/lvgl/lvgl/src/widgets/../core/../misc/../font/../misc/lv_area.h **** }
 1153              		.loc 1 125 0
 1154 05b8 521A     		subs	r2, r2, r1
 1155 05ba 92B2     		uxth	r2, r2
 1156 05bc 0132     		adds	r2, r2, #1
 1157 05be 12B2     		sxth	r2, r2
 1158              	.LVL138:
 1159              	.LBE121:
 1160              	.LBE120:
 476:Drivers/lvgl/lvgl/src/widgets/lv_bar.c ****         mask_indic_max_area.x1 = obj->coords.x1 + (barw / 2) - (LV_BAR_SIZE_MIN / 2);
 1161              		.loc 2 476 0
 1162 05c0 032A     		cmp	r2, #3
 1163 05c2 3FF71AAF 		bgt	.L36
 477:Drivers/lvgl/lvgl/src/widgets/lv_bar.c ****         mask_indic_max_area.x2 = mask_indic_max_area.x1 + LV_BAR_SIZE_MIN;
 1164              		.loc 2 477 0
 1165 05c6 A38A     		ldrh	r3, [r4, #20]
 1166 05c8 2A46     		mov	r2, r5
 1167 05ca 002D     		cmp	r5, #0
 1168 05cc 0ADB     		blt	.L52
 1169              	.L37:
 1170 05ce 03EB6203 		add	r3, r3, r2, asr #1
 1171 05d2 9BB2     		uxth	r3, r3
 1172 05d4 023B     		subs	r3, r3, #2
 1173 05d6 9BB2     		uxth	r3, r3
 1174 05d8 ADF89030 		strh	r3, [sp, #144]	@ movhi
 478:Drivers/lvgl/lvgl/src/widgets/lv_bar.c ****     }
 1175              		.loc 2 478 0
 1176 05dc 0433     		adds	r3, r3, #4
 1177 05de ADF89430 		strh	r3, [sp, #148]	@ movhi
 1178 05e2 0AE7     		b	.L36
 1179              	.L52:
 477:Drivers/lvgl/lvgl/src/widgets/lv_bar.c ****         mask_indic_max_area.x2 = mask_indic_max_area.x1 + LV_BAR_SIZE_MIN;
 1180              		.loc 2 477 0
 1181 05e4 6A1C     		adds	r2, r5, #1
 1182 05e6 F2E7     		b	.L37
 1183              	.L56:
 1184              		.align	2
 1185              	.L55:
 1186 05e8 00000000 		.word	lv_area_get_height
 1187 05ec 00000000 		.word	.LANCHOR0
 1188              		.cfi_endproc
 1189              	.LFE171:
 1191              		.section	.text.lv_bar_event,"ax",%progbits
 1192              		.align	1
ARM GAS  /tmp/ccd9EMp8.s 			page 48


 1193              		.syntax unified
 1194              		.thumb
 1195              		.thumb_func
 1196              		.fpu fpv5-d16
 1198              	lv_bar_event:
 1199              	.LFB172:
 509:Drivers/lvgl/lvgl/src/widgets/lv_bar.c ****     LV_UNUSED(class_p);
 1200              		.loc 2 509 0
 1201              		.cfi_startproc
 1202              		@ args = 0, pretend = 0, frame = 0
 1203              		@ frame_needed = 0, uses_anonymous_args = 0
 1204              	.LVL139:
 1205 0000 2DE9F041 		push	{r4, r5, r6, r7, r8, lr}
 1206              	.LCFI4:
 1207              		.cfi_def_cfa_offset 24
 1208              		.cfi_offset 4, -24
 1209              		.cfi_offset 5, -20
 1210              		.cfi_offset 6, -16
 1211              		.cfi_offset 7, -12
 1212              		.cfi_offset 8, -8
 1213              		.cfi_offset 14, -4
 1214 0004 0C46     		mov	r4, r1
 515:Drivers/lvgl/lvgl/src/widgets/lv_bar.c ****     if(res != LV_RES_OK) return;
 1215              		.loc 2 515 0
 1216 0006 2D48     		ldr	r0, .L65
 1217              	.LVL140:
 1218 0008 FFF7FEFF 		bl	lv_obj_event_base
 1219              	.LVL141:
 516:Drivers/lvgl/lvgl/src/widgets/lv_bar.c **** 
 1220              		.loc 2 516 0
 1221 000c 0128     		cmp	r0, #1
 1222 000e 01D0     		beq	.L62
 1223              	.LVL142:
 1224              	.L57:
 547:Drivers/lvgl/lvgl/src/widgets/lv_bar.c **** 
 1225              		.loc 2 547 0
 1226 0010 BDE8F081 		pop	{r4, r5, r6, r7, r8, pc}
 1227              	.LVL143:
 1228              	.L62:
 518:Drivers/lvgl/lvgl/src/widgets/lv_bar.c ****     lv_obj_t * obj = lv_event_get_target(e);
 1229              		.loc 2 518 0
 1230 0014 2046     		mov	r0, r4
 1231              	.LVL144:
 1232 0016 FFF7FEFF 		bl	lv_event_get_code
 1233              	.LVL145:
 1234 001a 0546     		mov	r5, r0
 1235              	.LVL146:
 519:Drivers/lvgl/lvgl/src/widgets/lv_bar.c **** 
 1236              		.loc 2 519 0
 1237 001c 2046     		mov	r0, r4
 1238 001e FFF7FEFF 		bl	lv_event_get_target
 1239              	.LVL147:
 1240 0022 0646     		mov	r6, r0
 1241              	.LVL148:
 521:Drivers/lvgl/lvgl/src/widgets/lv_bar.c ****         lv_coord_t indic_size;
 1242              		.loc 2 521 0
 1243 0024 132D     		cmp	r5, #19
ARM GAS  /tmp/ccd9EMp8.s 			page 49


 1244 0026 09D0     		beq	.L63
 540:Drivers/lvgl/lvgl/src/widgets/lv_bar.c ****         lv_bar_t * bar = (lv_bar_t *)obj;
 1245              		.loc 2 540 0
 1246 0028 082D     		cmp	r5, #8
 1247 002a 18BF     		it	ne
 1248 002c 012D     		cmpne	r5, #1
 1249 002e 40D0     		beq	.L64
 544:Drivers/lvgl/lvgl/src/widgets/lv_bar.c ****         draw_indic(e);
 1250              		.loc 2 544 0
 1251 0030 152D     		cmp	r5, #21
 1252 0032 EDD1     		bne	.L57
 545:Drivers/lvgl/lvgl/src/widgets/lv_bar.c ****     }
 1253              		.loc 2 545 0
 1254 0034 2046     		mov	r0, r4
 1255              	.LVL149:
 1256 0036 FFF7FEFF 		bl	draw_indic
 1257              	.LVL150:
 1258 003a E9E7     		b	.L57
 1259              	.LVL151:
 1260              	.L63:
 1261              	.LBB122:
 523:Drivers/lvgl/lvgl/src/widgets/lv_bar.c **** 
 1262              		.loc 2 523 0
 1263 003c 4FF40031 		mov	r1, #131072
 1264 0040 FFF7FEFF 		bl	lv_obj_calculate_ext_draw_size
 1265              	.LVL152:
 1266 0044 0746     		mov	r7, r0
 1267              	.LVL153:
 526:Drivers/lvgl/lvgl/src/widgets/lv_bar.c ****         *s = LV_MAX(*s, indic_size);
 1268              		.loc 2 526 0
 1269 0046 2046     		mov	r0, r4
 1270 0048 FFF7FEFF 		bl	lv_event_get_param
 1271              	.LVL154:
 1272 004c 0546     		mov	r5, r0
 1273              	.LVL155:
 527:Drivers/lvgl/lvgl/src/widgets/lv_bar.c **** 
 1274              		.loc 2 527 0
 1275 004e B0F90000 		ldrsh	r0, [r0]
 1276              	.LVL156:
 1277 0052 B842     		cmp	r0, r7
 1278 0054 B8BF     		it	lt
 1279 0056 3846     		movlt	r0, r7
 1280 0058 2880     		strh	r0, [r5]	@ movhi
 1281              	.LVL157:
 1282              	.LBB123:
 1283              	.LBB124:
 117:Drivers/lvgl/lvgl/src/widgets/../core/lv_obj_style_gen.h ****     return (lv_coord_t)v.num;
 1284              		.loc 3 117 0
 1285 005a 1222     		movs	r2, #18
 1286 005c 0021     		movs	r1, #0
 1287 005e 3046     		mov	r0, r6
 1288 0060 FFF7FEFF 		bl	lv_obj_get_style_prop
 1289              	.LVL158:
 118:Drivers/lvgl/lvgl/src/widgets/../core/lv_obj_style_gen.h **** }
 1290              		.loc 3 118 0
 1291 0064 07B2     		sxth	r7, r0
 1292              	.LVL159:
ARM GAS  /tmp/ccd9EMp8.s 			page 50


 1293              	.LBE124:
 1294              	.LBE123:
 1295              	.LBB125:
 1296              	.LBB126:
 123:Drivers/lvgl/lvgl/src/widgets/../core/lv_obj_style_gen.h ****     return (lv_coord_t)v.num;
 1297              		.loc 3 123 0
 1298 0066 1322     		movs	r2, #19
 1299 0068 0021     		movs	r1, #0
 1300 006a 3046     		mov	r0, r6
 1301 006c FFF7FEFF 		bl	lv_obj_get_style_prop
 1302              	.LVL160:
 124:Drivers/lvgl/lvgl/src/widgets/../core/lv_obj_style_gen.h **** }
 1303              		.loc 3 124 0
 1304 0070 04B2     		sxth	r4, r0
 1305              	.LVL161:
 1306              	.LBE126:
 1307              	.LBE125:
 1308              	.LBB127:
 1309              	.LBB128:
 105:Drivers/lvgl/lvgl/src/widgets/../core/lv_obj_style_gen.h ****     return (lv_coord_t)v.num;
 1310              		.loc 3 105 0
 1311 0072 1022     		movs	r2, #16
 1312 0074 0021     		movs	r1, #0
 1313 0076 3046     		mov	r0, r6
 1314 0078 FFF7FEFF 		bl	lv_obj_get_style_prop
 1315              	.LVL162:
 106:Drivers/lvgl/lvgl/src/widgets/../core/lv_obj_style_gen.h **** }
 1316              		.loc 3 106 0
 1317 007c 0FFA80F8 		sxth	r8, r0
 1318              	.LVL163:
 1319              	.LBE128:
 1320              	.LBE127:
 1321              	.LBB129:
 1322              	.LBB130:
 111:Drivers/lvgl/lvgl/src/widgets/../core/lv_obj_style_gen.h ****     return (lv_coord_t)v.num;
 1323              		.loc 3 111 0
 1324 0080 1122     		movs	r2, #17
 1325 0082 0021     		movs	r1, #0
 1326 0084 3046     		mov	r0, r6
 1327 0086 FFF7FEFF 		bl	lv_obj_get_style_prop
 1328              	.LVL164:
 112:Drivers/lvgl/lvgl/src/widgets/../core/lv_obj_style_gen.h **** }
 1329              		.loc 3 112 0
 1330 008a 00B2     		sxth	r0, r0
 1331              	.LVL165:
 1332              	.LBE130:
 1333              	.LBE129:
 535:Drivers/lvgl/lvgl/src/widgets/lv_bar.c ****         if(pad < 0) {
 1334              		.loc 2 535 0
 1335 008c 4045     		cmp	r0, r8
 1336 008e A8BF     		it	ge
 1337 0090 4046     		movge	r0, r8
 1338 0092 BC42     		cmp	r4, r7
 1339 0094 A8BF     		it	ge
 1340 0096 3C46     		movge	r4, r7
 1341 0098 A042     		cmp	r0, r4
 1342 009a A8BF     		it	ge
ARM GAS  /tmp/ccd9EMp8.s 			page 51


 1343 009c 2046     		movge	r0, r4
 1344              	.LVL166:
 536:Drivers/lvgl/lvgl/src/widgets/lv_bar.c ****             *s = LV_MAX(*s, -pad);
 1345              		.loc 2 536 0
 1346 009e 0028     		cmp	r0, #0
 1347 00a0 B6DA     		bge	.L57
 537:Drivers/lvgl/lvgl/src/widgets/lv_bar.c ****         }
 1348              		.loc 2 537 0
 1349 00a2 4042     		negs	r0, r0
 1350              	.LVL167:
 1351 00a4 B5F90030 		ldrsh	r3, [r5]
 1352 00a8 9842     		cmp	r0, r3
 1353 00aa B8BF     		it	lt
 1354 00ac 1846     		movlt	r0, r3
 1355              	.LVL168:
 1356 00ae 2880     		strh	r0, [r5]	@ movhi
 1357 00b0 AEE7     		b	.L57
 1358              	.LVL169:
 1359              	.L64:
 1360              	.LBE122:
 1361              	.LBB131:
 542:Drivers/lvgl/lvgl/src/widgets/lv_bar.c ****     }
 1362              		.loc 2 542 0
 1363 00b2 00F13401 		add	r1, r0, #52
 1364 00b6 FFF7FEFF 		bl	lv_obj_invalidate_area
 1365              	.LVL170:
 1366              	.LBE131:
 1367 00ba A9E7     		b	.L57
 1368              	.L66:
 1369              		.align	2
 1370              	.L65:
 1371 00bc 00000000 		.word	.LANCHOR0
 1372              		.cfi_endproc
 1373              	.LFE172:
 1375              		.section	.text.lv_bar_destructor,"ax",%progbits
 1376              		.align	1
 1377              		.syntax unified
 1378              		.thumb
 1379              		.thumb_func
 1380              		.fpu fpv5-d16
 1382              	lv_bar_destructor:
 1383              	.LFB170:
 235:Drivers/lvgl/lvgl/src/widgets/lv_bar.c ****     LV_UNUSED(class_p);
 1384              		.loc 2 235 0
 1385              		.cfi_startproc
 1386              		@ args = 0, pretend = 0, frame = 0
 1387              		@ frame_needed = 0, uses_anonymous_args = 0
 1388              	.LVL171:
 1389 0000 10B5     		push	{r4, lr}
 1390              	.LCFI5:
 1391              		.cfi_def_cfa_offset 8
 1392              		.cfi_offset 4, -8
 1393              		.cfi_offset 14, -4
 1394 0002 0C46     		mov	r4, r1
 1395              	.LVL172:
 239:Drivers/lvgl/lvgl/src/widgets/lv_bar.c ****     lv_anim_del(&bar->start_value_anim, NULL);
 1396              		.loc 2 239 0
ARM GAS  /tmp/ccd9EMp8.s 			page 52


 1397 0004 0021     		movs	r1, #0
 1398              	.LVL173:
 1399 0006 04F13C00 		add	r0, r4, #60
 1400              	.LVL174:
 1401 000a FFF7FEFF 		bl	lv_anim_del
 1402              	.LVL175:
 240:Drivers/lvgl/lvgl/src/widgets/lv_bar.c **** }
 1403              		.loc 2 240 0
 1404 000e 0021     		movs	r1, #0
 1405 0010 04F14C00 		add	r0, r4, #76
 1406 0014 FFF7FEFF 		bl	lv_anim_del
 1407              	.LVL176:
 241:Drivers/lvgl/lvgl/src/widgets/lv_bar.c **** 
 1408              		.loc 2 241 0
 1409 0018 10BD     		pop	{r4, pc}
 1410              		.cfi_endproc
 1411              	.LFE170:
 1413              		.section	.text.lv_bar_anim_ready,"ax",%progbits
 1414              		.align	1
 1415              		.syntax unified
 1416              		.thumb
 1417              		.thumb_func
 1418              		.fpu fpv5-d16
 1420              	lv_bar_anim_ready:
 1421              	.LFB174:
 557:Drivers/lvgl/lvgl/src/widgets/lv_bar.c ****     _lv_bar_anim_t * var = a->var;
 1422              		.loc 2 557 0
 1423              		.cfi_startproc
 1424              		@ args = 0, pretend = 0, frame = 0
 1425              		@ frame_needed = 0, uses_anonymous_args = 0
 1426              	.LVL177:
 1427 0000 08B5     		push	{r3, lr}
 1428              	.LCFI6:
 1429              		.cfi_def_cfa_offset 8
 1430              		.cfi_offset 3, -8
 1431              		.cfi_offset 14, -4
 558:Drivers/lvgl/lvgl/src/widgets/lv_bar.c ****     lv_obj_t * obj = (lv_obj_t *)var->bar;
 1432              		.loc 2 558 0
 1433 0002 0368     		ldr	r3, [r0]
 1434              	.LVL178:
 559:Drivers/lvgl/lvgl/src/widgets/lv_bar.c ****     lv_bar_t * bar = (lv_bar_t *)obj;
 1435              		.loc 2 559 0
 1436 0004 1A68     		ldr	r2, [r3]
 1437              	.LVL179:
 562:Drivers/lvgl/lvgl/src/widgets/lv_bar.c ****     if(var == &bar->cur_value_anim)
 1438              		.loc 2 562 0
 1439 0006 4FF0FF31 		mov	r1, #-1
 1440 000a D960     		str	r1, [r3, #12]
 563:Drivers/lvgl/lvgl/src/widgets/lv_bar.c ****         bar->cur_value = var->anim_end;
 1441              		.loc 2 563 0
 1442 000c 02F13C01 		add	r1, r2, #60
 1443 0010 9942     		cmp	r1, r3
 1444 0012 07D0     		beq	.L73
 565:Drivers/lvgl/lvgl/src/widgets/lv_bar.c ****         bar->start_value = var->anim_end;
 1445              		.loc 2 565 0
 1446 0014 02F14C01 		add	r1, r2, #76
 1447 0018 9942     		cmp	r1, r3
ARM GAS  /tmp/ccd9EMp8.s 			page 53


 1448 001a 06D0     		beq	.L74
 1449              	.L71:
 567:Drivers/lvgl/lvgl/src/widgets/lv_bar.c **** }
 1450              		.loc 2 567 0
 1451 001c 1868     		ldr	r0, [r3]
 1452              	.LVL180:
 1453 001e FFF7FEFF 		bl	lv_obj_invalidate
 1454              	.LVL181:
 568:Drivers/lvgl/lvgl/src/widgets/lv_bar.c **** 
 1455              		.loc 2 568 0
 1456 0022 08BD     		pop	{r3, pc}
 1457              	.LVL182:
 1458              	.L73:
 564:Drivers/lvgl/lvgl/src/widgets/lv_bar.c ****     else if(var == &bar->start_value_anim)
 1459              		.loc 2 564 0
 1460 0024 9968     		ldr	r1, [r3, #8]
 1461 0026 5162     		str	r1, [r2, #36]
 1462 0028 F8E7     		b	.L71
 1463              	.L74:
 566:Drivers/lvgl/lvgl/src/widgets/lv_bar.c ****     lv_obj_invalidate(var->bar);
 1464              		.loc 2 566 0
 1465 002a 9968     		ldr	r1, [r3, #8]
 1466 002c 1163     		str	r1, [r2, #48]
 1467 002e F5E7     		b	.L71
 1468              		.cfi_endproc
 1469              	.LFE174:
 1471              		.section	.text.lv_bar_anim,"ax",%progbits
 1472              		.align	1
 1473              		.syntax unified
 1474              		.thumb
 1475              		.thumb_func
 1476              		.fpu fpv5-d16
 1478              	lv_bar_anim:
 1479              	.LFB173:
 550:Drivers/lvgl/lvgl/src/widgets/lv_bar.c ****     _lv_bar_anim_t * bar_anim = var;
 1480              		.loc 2 550 0
 1481              		.cfi_startproc
 1482              		@ args = 0, pretend = 0, frame = 0
 1483              		@ frame_needed = 0, uses_anonymous_args = 0
 1484              	.LVL183:
 1485 0000 08B5     		push	{r3, lr}
 1486              	.LCFI7:
 1487              		.cfi_def_cfa_offset 8
 1488              		.cfi_offset 3, -8
 1489              		.cfi_offset 14, -4
 1490              	.LVL184:
 552:Drivers/lvgl/lvgl/src/widgets/lv_bar.c ****     lv_obj_invalidate(bar_anim->bar);
 1491              		.loc 2 552 0
 1492 0002 C160     		str	r1, [r0, #12]
 553:Drivers/lvgl/lvgl/src/widgets/lv_bar.c **** }
 1493              		.loc 2 553 0
 1494 0004 0068     		ldr	r0, [r0]
 1495              	.LVL185:
 1496 0006 FFF7FEFF 		bl	lv_obj_invalidate
 1497              	.LVL186:
 554:Drivers/lvgl/lvgl/src/widgets/lv_bar.c **** 
 1498              		.loc 2 554 0
ARM GAS  /tmp/ccd9EMp8.s 			page 54


 1499 000a 08BD     		pop	{r3, pc}
 1500              		.cfi_endproc
 1501              	.LFE173:
 1503              		.section	.text.lv_bar_set_value_with_anim,"ax",%progbits
 1504              		.align	1
 1505              		.syntax unified
 1506              		.thumb
 1507              		.thumb_func
 1508              		.fpu fpv5-d16
 1510              	lv_bar_set_value_with_anim:
 1511              	.LFB175:
 572:Drivers/lvgl/lvgl/src/widgets/lv_bar.c ****     if(en == LV_ANIM_OFF) {
 1512              		.loc 2 572 0
 1513              		.cfi_startproc
 1514              		@ args = 4, pretend = 0, frame = 72
 1515              		@ frame_needed = 0, uses_anonymous_args = 0
 1516              	.LVL187:
 1517 0000 F0B5     		push	{r4, r5, r6, r7, lr}
 1518              	.LCFI8:
 1519              		.cfi_def_cfa_offset 20
 1520              		.cfi_offset 4, -20
 1521              		.cfi_offset 5, -16
 1522              		.cfi_offset 6, -12
 1523              		.cfi_offset 7, -8
 1524              		.cfi_offset 14, -4
 1525 0002 93B0     		sub	sp, sp, #76
 1526              	.LCFI9:
 1527              		.cfi_def_cfa_offset 96
 1528 0004 0746     		mov	r7, r0
 1529 0006 0D46     		mov	r5, r1
 1530 0008 1646     		mov	r6, r2
 1531 000a 1C46     		mov	r4, r3
 1532 000c 9DF86030 		ldrb	r3, [sp, #96]	@ zero_extendqisi2
 1533              	.LVL188:
 573:Drivers/lvgl/lvgl/src/widgets/lv_bar.c ****         lv_anim_del(anim_info, NULL);
 1534              		.loc 2 573 0
 1535 0010 1BB3     		cbz	r3, .L83
 1536              	.LBB132:
 581:Drivers/lvgl/lvgl/src/widgets/lv_bar.c ****             anim_info->anim_start = *value_ptr;
 1537              		.loc 2 581 0
 1538 0012 E368     		ldr	r3, [r4, #12]
 1539 0014 B3F1FF3F 		cmp	r3, #-1
 1540 0018 2BD0     		beq	.L84
 587:Drivers/lvgl/lvgl/src/widgets/lv_bar.c ****             anim_info->anim_end   = new_value;
 1541              		.loc 2 587 0
 1542 001a A368     		ldr	r3, [r4, #8]
 1543 001c 6360     		str	r3, [r4, #4]
 588:Drivers/lvgl/lvgl/src/widgets/lv_bar.c ****         }
 1544              		.loc 2 588 0
 1545 001e A160     		str	r1, [r4, #8]
 1546              	.L81:
 590:Drivers/lvgl/lvgl/src/widgets/lv_bar.c ****         /*Stop the previous animation if it exists*/
 1547              		.loc 2 590 0
 1548 0020 3560     		str	r5, [r6]
 592:Drivers/lvgl/lvgl/src/widgets/lv_bar.c **** 
 1549              		.loc 2 592 0
 1550 0022 0021     		movs	r1, #0
ARM GAS  /tmp/ccd9EMp8.s 			page 55


 1551              	.LVL189:
 1552 0024 2046     		mov	r0, r4
 1553              	.LVL190:
 1554 0026 FFF7FEFF 		bl	lv_anim_del
 1555              	.LVL191:
 595:Drivers/lvgl/lvgl/src/widgets/lv_bar.c ****         lv_anim_set_var(&a, anim_info);
 1556              		.loc 2 595 0
 1557 002a 01A8     		add	r0, sp, #4
 1558 002c FFF7FEFF 		bl	lv_anim_init
 1559              	.LVL192:
 1560              	.LBB133:
 1561              	.LBB134:
 1562              		.file 4 "Drivers/lvgl/lvgl/src/widgets/../core/../misc/lv_anim.h"
   1:Drivers/lvgl/lvgl/src/widgets/../core/../misc/lv_anim.h **** /**
   2:Drivers/lvgl/lvgl/src/widgets/../core/../misc/lv_anim.h ****  * @file lv_anim.h
   3:Drivers/lvgl/lvgl/src/widgets/../core/../misc/lv_anim.h ****  *
   4:Drivers/lvgl/lvgl/src/widgets/../core/../misc/lv_anim.h ****  */
   5:Drivers/lvgl/lvgl/src/widgets/../core/../misc/lv_anim.h **** 
   6:Drivers/lvgl/lvgl/src/widgets/../core/../misc/lv_anim.h **** #ifndef LV_ANIM_H
   7:Drivers/lvgl/lvgl/src/widgets/../core/../misc/lv_anim.h **** #define LV_ANIM_H
   8:Drivers/lvgl/lvgl/src/widgets/../core/../misc/lv_anim.h **** 
   9:Drivers/lvgl/lvgl/src/widgets/../core/../misc/lv_anim.h **** #ifdef __cplusplus
  10:Drivers/lvgl/lvgl/src/widgets/../core/../misc/lv_anim.h **** extern "C" {
  11:Drivers/lvgl/lvgl/src/widgets/../core/../misc/lv_anim.h **** #endif
  12:Drivers/lvgl/lvgl/src/widgets/../core/../misc/lv_anim.h **** 
  13:Drivers/lvgl/lvgl/src/widgets/../core/../misc/lv_anim.h **** /*********************
  14:Drivers/lvgl/lvgl/src/widgets/../core/../misc/lv_anim.h ****  *      INCLUDES
  15:Drivers/lvgl/lvgl/src/widgets/../core/../misc/lv_anim.h ****  *********************/
  16:Drivers/lvgl/lvgl/src/widgets/../core/../misc/lv_anim.h **** #include "../lv_conf_internal.h"
  17:Drivers/lvgl/lvgl/src/widgets/../core/../misc/lv_anim.h **** 
  18:Drivers/lvgl/lvgl/src/widgets/../core/../misc/lv_anim.h **** #include <stdint.h>
  19:Drivers/lvgl/lvgl/src/widgets/../core/../misc/lv_anim.h **** #include <stdbool.h>
  20:Drivers/lvgl/lvgl/src/widgets/../core/../misc/lv_anim.h **** #include <stddef.h>
  21:Drivers/lvgl/lvgl/src/widgets/../core/../misc/lv_anim.h **** 
  22:Drivers/lvgl/lvgl/src/widgets/../core/../misc/lv_anim.h **** /*********************
  23:Drivers/lvgl/lvgl/src/widgets/../core/../misc/lv_anim.h ****  *      DEFINES
  24:Drivers/lvgl/lvgl/src/widgets/../core/../misc/lv_anim.h ****  *********************/
  25:Drivers/lvgl/lvgl/src/widgets/../core/../misc/lv_anim.h **** 
  26:Drivers/lvgl/lvgl/src/widgets/../core/../misc/lv_anim.h **** #define LV_ANIM_REPEAT_INFINITE      0xFFFF
  27:Drivers/lvgl/lvgl/src/widgets/../core/../misc/lv_anim.h **** #define LV_ANIM_PLAYTIME_INFINITE    0xFFFFFFFF
  28:Drivers/lvgl/lvgl/src/widgets/../core/../misc/lv_anim.h **** 
  29:Drivers/lvgl/lvgl/src/widgets/../core/../misc/lv_anim.h **** LV_EXPORT_CONST_INT(LV_ANIM_REPEAT_INFINITE);
  30:Drivers/lvgl/lvgl/src/widgets/../core/../misc/lv_anim.h **** LV_EXPORT_CONST_INT(LV_ANIM_PLAYTIME_INFINITE);
  31:Drivers/lvgl/lvgl/src/widgets/../core/../misc/lv_anim.h **** 
  32:Drivers/lvgl/lvgl/src/widgets/../core/../misc/lv_anim.h **** /**********************
  33:Drivers/lvgl/lvgl/src/widgets/../core/../misc/lv_anim.h ****  *      TYPEDEFS
  34:Drivers/lvgl/lvgl/src/widgets/../core/../misc/lv_anim.h ****  **********************/
  35:Drivers/lvgl/lvgl/src/widgets/../core/../misc/lv_anim.h **** 
  36:Drivers/lvgl/lvgl/src/widgets/../core/../misc/lv_anim.h **** /** Can be used to indicate if animations are enabled or disabled in a case*/
  37:Drivers/lvgl/lvgl/src/widgets/../core/../misc/lv_anim.h **** typedef enum {
  38:Drivers/lvgl/lvgl/src/widgets/../core/../misc/lv_anim.h ****     LV_ANIM_OFF,
  39:Drivers/lvgl/lvgl/src/widgets/../core/../misc/lv_anim.h ****     LV_ANIM_ON,
  40:Drivers/lvgl/lvgl/src/widgets/../core/../misc/lv_anim.h **** } lv_anim_enable_t;
  41:Drivers/lvgl/lvgl/src/widgets/../core/../misc/lv_anim.h **** 
  42:Drivers/lvgl/lvgl/src/widgets/../core/../misc/lv_anim.h **** struct _lv_anim_t;
  43:Drivers/lvgl/lvgl/src/widgets/../core/../misc/lv_anim.h **** struct _lv_timer_t;
  44:Drivers/lvgl/lvgl/src/widgets/../core/../misc/lv_anim.h **** 
ARM GAS  /tmp/ccd9EMp8.s 			page 56


  45:Drivers/lvgl/lvgl/src/widgets/../core/../misc/lv_anim.h **** /** Get the current value during an animation*/
  46:Drivers/lvgl/lvgl/src/widgets/../core/../misc/lv_anim.h **** typedef int32_t (*lv_anim_path_cb_t)(const struct _lv_anim_t *);
  47:Drivers/lvgl/lvgl/src/widgets/../core/../misc/lv_anim.h **** 
  48:Drivers/lvgl/lvgl/src/widgets/../core/../misc/lv_anim.h **** /** Generic prototype of "animator" functions.
  49:Drivers/lvgl/lvgl/src/widgets/../core/../misc/lv_anim.h ****  * First parameter is the variable to animate.
  50:Drivers/lvgl/lvgl/src/widgets/../core/../misc/lv_anim.h ****  * Second parameter is the value to set.
  51:Drivers/lvgl/lvgl/src/widgets/../core/../misc/lv_anim.h ****  * Compatible with `lv_xxx_set_yyy(obj, value)` functions
  52:Drivers/lvgl/lvgl/src/widgets/../core/../misc/lv_anim.h ****  * The `x` in `_xcb_t` means it's not a fully generic prototype because
  53:Drivers/lvgl/lvgl/src/widgets/../core/../misc/lv_anim.h ****  * it doesn't receive `lv_anim_t *` as its first argument*/
  54:Drivers/lvgl/lvgl/src/widgets/../core/../misc/lv_anim.h **** typedef void (*lv_anim_exec_xcb_t)(void *, int32_t);
  55:Drivers/lvgl/lvgl/src/widgets/../core/../misc/lv_anim.h **** 
  56:Drivers/lvgl/lvgl/src/widgets/../core/../misc/lv_anim.h **** /** Same as `lv_anim_exec_xcb_t` but receives `lv_anim_t *` as the first parameter.
  57:Drivers/lvgl/lvgl/src/widgets/../core/../misc/lv_anim.h ****  * It's more consistent but less convenient. Might be used by binding generator functions.*/
  58:Drivers/lvgl/lvgl/src/widgets/../core/../misc/lv_anim.h **** typedef void (*lv_anim_custom_exec_cb_t)(struct _lv_anim_t *, int32_t);
  59:Drivers/lvgl/lvgl/src/widgets/../core/../misc/lv_anim.h **** 
  60:Drivers/lvgl/lvgl/src/widgets/../core/../misc/lv_anim.h **** /** Callback to call when the animation is ready*/
  61:Drivers/lvgl/lvgl/src/widgets/../core/../misc/lv_anim.h **** typedef void (*lv_anim_ready_cb_t)(struct _lv_anim_t *);
  62:Drivers/lvgl/lvgl/src/widgets/../core/../misc/lv_anim.h **** 
  63:Drivers/lvgl/lvgl/src/widgets/../core/../misc/lv_anim.h **** /** Callback to call when the animation really stars (considering `delay`)*/
  64:Drivers/lvgl/lvgl/src/widgets/../core/../misc/lv_anim.h **** typedef void (*lv_anim_start_cb_t)(struct _lv_anim_t *);
  65:Drivers/lvgl/lvgl/src/widgets/../core/../misc/lv_anim.h **** 
  66:Drivers/lvgl/lvgl/src/widgets/../core/../misc/lv_anim.h **** /** Callback used when the animation values are relative to get the current value*/
  67:Drivers/lvgl/lvgl/src/widgets/../core/../misc/lv_anim.h **** typedef int32_t (*lv_anim_get_value_cb_t)(struct _lv_anim_t *);
  68:Drivers/lvgl/lvgl/src/widgets/../core/../misc/lv_anim.h **** 
  69:Drivers/lvgl/lvgl/src/widgets/../core/../misc/lv_anim.h **** /** Callback used when the animation is deleted*/
  70:Drivers/lvgl/lvgl/src/widgets/../core/../misc/lv_anim.h **** typedef void (*lv_anim_deleted_cb_t)(struct _lv_anim_t *);
  71:Drivers/lvgl/lvgl/src/widgets/../core/../misc/lv_anim.h **** 
  72:Drivers/lvgl/lvgl/src/widgets/../core/../misc/lv_anim.h **** /** Describes an animation*/
  73:Drivers/lvgl/lvgl/src/widgets/../core/../misc/lv_anim.h **** typedef struct _lv_anim_t {
  74:Drivers/lvgl/lvgl/src/widgets/../core/../misc/lv_anim.h ****     void * var;                          /**<Variable to animate*/
  75:Drivers/lvgl/lvgl/src/widgets/../core/../misc/lv_anim.h ****     lv_anim_exec_xcb_t exec_cb;          /**< Function to execute to animate*/
  76:Drivers/lvgl/lvgl/src/widgets/../core/../misc/lv_anim.h ****     lv_anim_start_cb_t start_cb;         /**< Call it when the animation is starts (considering `de
  77:Drivers/lvgl/lvgl/src/widgets/../core/../misc/lv_anim.h ****     lv_anim_ready_cb_t ready_cb;         /**< Call it when the animation is ready*/
  78:Drivers/lvgl/lvgl/src/widgets/../core/../misc/lv_anim.h ****     lv_anim_deleted_cb_t deleted_cb;     /**< Call it when the animation is deleted*/
  79:Drivers/lvgl/lvgl/src/widgets/../core/../misc/lv_anim.h ****     lv_anim_get_value_cb_t get_value_cb; /**< Get the current value in relative mode*/
  80:Drivers/lvgl/lvgl/src/widgets/../core/../misc/lv_anim.h **** #if LV_USE_USER_DATA
  81:Drivers/lvgl/lvgl/src/widgets/../core/../misc/lv_anim.h ****     void * user_data; /**< Custom user data*/
  82:Drivers/lvgl/lvgl/src/widgets/../core/../misc/lv_anim.h **** #endif
  83:Drivers/lvgl/lvgl/src/widgets/../core/../misc/lv_anim.h ****     lv_anim_path_cb_t path_cb;         /**< Describe the path (curve) of animations*/
  84:Drivers/lvgl/lvgl/src/widgets/../core/../misc/lv_anim.h ****     int32_t start_value;               /**< Start value*/
  85:Drivers/lvgl/lvgl/src/widgets/../core/../misc/lv_anim.h ****     int32_t current_value;             /**< Current value*/
  86:Drivers/lvgl/lvgl/src/widgets/../core/../misc/lv_anim.h ****     int32_t end_value;                 /**< End value*/
  87:Drivers/lvgl/lvgl/src/widgets/../core/../misc/lv_anim.h ****     int32_t time;                /**< Animation time in ms*/
  88:Drivers/lvgl/lvgl/src/widgets/../core/../misc/lv_anim.h ****     int32_t act_time;            /**< Current time in animation. Set to negative to make delay.*/
  89:Drivers/lvgl/lvgl/src/widgets/../core/../misc/lv_anim.h ****     uint32_t playback_delay;     /**< Wait before play back*/
  90:Drivers/lvgl/lvgl/src/widgets/../core/../misc/lv_anim.h ****     uint32_t playback_time;      /**< Duration of playback animation*/
  91:Drivers/lvgl/lvgl/src/widgets/../core/../misc/lv_anim.h ****     uint32_t repeat_delay;       /**< Wait before repeat*/
  92:Drivers/lvgl/lvgl/src/widgets/../core/../misc/lv_anim.h ****     uint16_t repeat_cnt;         /**< Repeat count for the animation*/
  93:Drivers/lvgl/lvgl/src/widgets/../core/../misc/lv_anim.h ****     uint8_t early_apply  : 1;    /**< 1: Apply start value immediately even is there is `delay`*/
  94:Drivers/lvgl/lvgl/src/widgets/../core/../misc/lv_anim.h **** 
  95:Drivers/lvgl/lvgl/src/widgets/../core/../misc/lv_anim.h ****     /*Animation system use these - user shouldn't set*/
  96:Drivers/lvgl/lvgl/src/widgets/../core/../misc/lv_anim.h ****     uint8_t playback_now : 1; /**< Play back is in progress*/
  97:Drivers/lvgl/lvgl/src/widgets/../core/../misc/lv_anim.h ****     uint8_t run_round : 1;    /**< Indicates the animation has run in this round*/
  98:Drivers/lvgl/lvgl/src/widgets/../core/../misc/lv_anim.h ****     uint8_t start_cb_called : 1;    /**< Indicates that the `start_cb` was already called*/
  99:Drivers/lvgl/lvgl/src/widgets/../core/../misc/lv_anim.h **** } lv_anim_t;
 100:Drivers/lvgl/lvgl/src/widgets/../core/../misc/lv_anim.h **** 
 101:Drivers/lvgl/lvgl/src/widgets/../core/../misc/lv_anim.h **** /**********************
ARM GAS  /tmp/ccd9EMp8.s 			page 57


 102:Drivers/lvgl/lvgl/src/widgets/../core/../misc/lv_anim.h ****  * GLOBAL PROTOTYPES
 103:Drivers/lvgl/lvgl/src/widgets/../core/../misc/lv_anim.h ****  **********************/
 104:Drivers/lvgl/lvgl/src/widgets/../core/../misc/lv_anim.h **** 
 105:Drivers/lvgl/lvgl/src/widgets/../core/../misc/lv_anim.h **** /**
 106:Drivers/lvgl/lvgl/src/widgets/../core/../misc/lv_anim.h ****  * Init. the animation module
 107:Drivers/lvgl/lvgl/src/widgets/../core/../misc/lv_anim.h ****  */
 108:Drivers/lvgl/lvgl/src/widgets/../core/../misc/lv_anim.h **** void _lv_anim_core_init(void);
 109:Drivers/lvgl/lvgl/src/widgets/../core/../misc/lv_anim.h **** 
 110:Drivers/lvgl/lvgl/src/widgets/../core/../misc/lv_anim.h **** /**
 111:Drivers/lvgl/lvgl/src/widgets/../core/../misc/lv_anim.h ****  * Initialize an animation variable.
 112:Drivers/lvgl/lvgl/src/widgets/../core/../misc/lv_anim.h ****  * E.g.:
 113:Drivers/lvgl/lvgl/src/widgets/../core/../misc/lv_anim.h ****  * lv_anim_t a;
 114:Drivers/lvgl/lvgl/src/widgets/../core/../misc/lv_anim.h ****  * lv_anim_init(&a);
 115:Drivers/lvgl/lvgl/src/widgets/../core/../misc/lv_anim.h ****  * lv_anim_set_...(&a);
 116:Drivers/lvgl/lvgl/src/widgets/../core/../misc/lv_anim.h ****  * lv_anim_start(&a);
 117:Drivers/lvgl/lvgl/src/widgets/../core/../misc/lv_anim.h ****  * @param a     pointer to an `lv_anim_t` variable to initialize
 118:Drivers/lvgl/lvgl/src/widgets/../core/../misc/lv_anim.h ****  */
 119:Drivers/lvgl/lvgl/src/widgets/../core/../misc/lv_anim.h **** void lv_anim_init(lv_anim_t * a);
 120:Drivers/lvgl/lvgl/src/widgets/../core/../misc/lv_anim.h **** 
 121:Drivers/lvgl/lvgl/src/widgets/../core/../misc/lv_anim.h **** /**
 122:Drivers/lvgl/lvgl/src/widgets/../core/../misc/lv_anim.h ****  * Set a variable to animate
 123:Drivers/lvgl/lvgl/src/widgets/../core/../misc/lv_anim.h ****  * @param a     pointer to an initialized `lv_anim_t` variable
 124:Drivers/lvgl/lvgl/src/widgets/../core/../misc/lv_anim.h ****  * @param var   pointer to a variable to animate
 125:Drivers/lvgl/lvgl/src/widgets/../core/../misc/lv_anim.h ****  */
 126:Drivers/lvgl/lvgl/src/widgets/../core/../misc/lv_anim.h **** static inline void lv_anim_set_var(lv_anim_t * a, void * var)
 127:Drivers/lvgl/lvgl/src/widgets/../core/../misc/lv_anim.h **** {
 128:Drivers/lvgl/lvgl/src/widgets/../core/../misc/lv_anim.h ****     a->var = var;
 1563              		.loc 4 128 0
 1564 0030 0194     		str	r4, [sp, #4]
 1565              	.LVL193:
 1566              	.LBE134:
 1567              	.LBE133:
 1568              	.LBB135:
 1569              	.LBB136:
 129:Drivers/lvgl/lvgl/src/widgets/../core/../misc/lv_anim.h **** }
 130:Drivers/lvgl/lvgl/src/widgets/../core/../misc/lv_anim.h **** 
 131:Drivers/lvgl/lvgl/src/widgets/../core/../misc/lv_anim.h **** /**
 132:Drivers/lvgl/lvgl/src/widgets/../core/../misc/lv_anim.h ****  * Set a function to animate `var`
 133:Drivers/lvgl/lvgl/src/widgets/../core/../misc/lv_anim.h ****  * @param a         pointer to an initialized `lv_anim_t` variable
 134:Drivers/lvgl/lvgl/src/widgets/../core/../misc/lv_anim.h ****  * @param exec_cb   a function to execute during animation
 135:Drivers/lvgl/lvgl/src/widgets/../core/../misc/lv_anim.h ****  *                  LVGL's built-in functions can be used.
 136:Drivers/lvgl/lvgl/src/widgets/../core/../misc/lv_anim.h ****  *                  E.g. lv_obj_set_x
 137:Drivers/lvgl/lvgl/src/widgets/../core/../misc/lv_anim.h ****  */
 138:Drivers/lvgl/lvgl/src/widgets/../core/../misc/lv_anim.h **** static inline void lv_anim_set_exec_cb(lv_anim_t * a, lv_anim_exec_xcb_t exec_cb)
 139:Drivers/lvgl/lvgl/src/widgets/../core/../misc/lv_anim.h **** {
 140:Drivers/lvgl/lvgl/src/widgets/../core/../misc/lv_anim.h ****     a->exec_cb = exec_cb;
 1570              		.loc 4 140 0
 1571 0032 124B     		ldr	r3, .L85
 1572 0034 0293     		str	r3, [sp, #8]
 1573              	.LVL194:
 1574              	.LBE136:
 1575              	.LBE135:
 1576              	.LBB137:
 1577              	.LBB138:
 141:Drivers/lvgl/lvgl/src/widgets/../core/../misc/lv_anim.h **** }
 142:Drivers/lvgl/lvgl/src/widgets/../core/../misc/lv_anim.h **** 
 143:Drivers/lvgl/lvgl/src/widgets/../core/../misc/lv_anim.h **** /**
ARM GAS  /tmp/ccd9EMp8.s 			page 58


 144:Drivers/lvgl/lvgl/src/widgets/../core/../misc/lv_anim.h ****  * Set the duration of an animation
 145:Drivers/lvgl/lvgl/src/widgets/../core/../misc/lv_anim.h ****  * @param a         pointer to an initialized `lv_anim_t` variable
 146:Drivers/lvgl/lvgl/src/widgets/../core/../misc/lv_anim.h ****  * @param duration  duration of the animation in milliseconds
 147:Drivers/lvgl/lvgl/src/widgets/../core/../misc/lv_anim.h ****  */
 148:Drivers/lvgl/lvgl/src/widgets/../core/../misc/lv_anim.h **** static inline void lv_anim_set_time(lv_anim_t * a, uint32_t duration)
 149:Drivers/lvgl/lvgl/src/widgets/../core/../misc/lv_anim.h **** {
 150:Drivers/lvgl/lvgl/src/widgets/../core/../misc/lv_anim.h ****     a->time = duration;
 151:Drivers/lvgl/lvgl/src/widgets/../core/../misc/lv_anim.h **** }
 152:Drivers/lvgl/lvgl/src/widgets/../core/../misc/lv_anim.h **** 
 153:Drivers/lvgl/lvgl/src/widgets/../core/../misc/lv_anim.h **** /**
 154:Drivers/lvgl/lvgl/src/widgets/../core/../misc/lv_anim.h ****  * Set a delay before starting the animation
 155:Drivers/lvgl/lvgl/src/widgets/../core/../misc/lv_anim.h ****  * @param a         pointer to an initialized `lv_anim_t` variable
 156:Drivers/lvgl/lvgl/src/widgets/../core/../misc/lv_anim.h ****  * @param delay     delay before the animation in milliseconds
 157:Drivers/lvgl/lvgl/src/widgets/../core/../misc/lv_anim.h ****  */
 158:Drivers/lvgl/lvgl/src/widgets/../core/../misc/lv_anim.h **** static inline void lv_anim_set_delay(lv_anim_t * a, uint32_t delay)
 159:Drivers/lvgl/lvgl/src/widgets/../core/../misc/lv_anim.h **** {
 160:Drivers/lvgl/lvgl/src/widgets/../core/../misc/lv_anim.h ****     a->act_time = -(int32_t)(delay);
 161:Drivers/lvgl/lvgl/src/widgets/../core/../misc/lv_anim.h **** }
 162:Drivers/lvgl/lvgl/src/widgets/../core/../misc/lv_anim.h **** 
 163:Drivers/lvgl/lvgl/src/widgets/../core/../misc/lv_anim.h **** /**
 164:Drivers/lvgl/lvgl/src/widgets/../core/../misc/lv_anim.h ****  * Set the start and end values of an animation
 165:Drivers/lvgl/lvgl/src/widgets/../core/../misc/lv_anim.h ****  * @param a         pointer to an initialized `lv_anim_t` variable
 166:Drivers/lvgl/lvgl/src/widgets/../core/../misc/lv_anim.h ****  * @param start     the start value
 167:Drivers/lvgl/lvgl/src/widgets/../core/../misc/lv_anim.h ****  * @param end       the end value
 168:Drivers/lvgl/lvgl/src/widgets/../core/../misc/lv_anim.h ****  */
 169:Drivers/lvgl/lvgl/src/widgets/../core/../misc/lv_anim.h **** static inline void lv_anim_set_values(lv_anim_t * a, int32_t start, int32_t end)
 170:Drivers/lvgl/lvgl/src/widgets/../core/../misc/lv_anim.h **** {
 171:Drivers/lvgl/lvgl/src/widgets/../core/../misc/lv_anim.h ****     a->start_value = start;
 1578              		.loc 4 171 0
 1579 0036 0021     		movs	r1, #0
 1580 0038 0991     		str	r1, [sp, #36]
 172:Drivers/lvgl/lvgl/src/widgets/../core/../misc/lv_anim.h ****     a->current_value = start;
 1581              		.loc 4 172 0
 1582 003a 0A91     		str	r1, [sp, #40]
 173:Drivers/lvgl/lvgl/src/widgets/../core/../misc/lv_anim.h ****     a->end_value = end;
 1583              		.loc 4 173 0
 1584 003c 4FF48073 		mov	r3, #256
 1585 0040 0B93     		str	r3, [sp, #44]
 1586              	.LVL195:
 1587              	.LBE138:
 1588              	.LBE137:
 1589              	.LBB139:
 1590              	.LBB140:
 174:Drivers/lvgl/lvgl/src/widgets/../core/../misc/lv_anim.h **** }
 175:Drivers/lvgl/lvgl/src/widgets/../core/../misc/lv_anim.h **** 
 176:Drivers/lvgl/lvgl/src/widgets/../core/../misc/lv_anim.h **** /**
 177:Drivers/lvgl/lvgl/src/widgets/../core/../misc/lv_anim.h ****  * Similar to `lv_anim_set_exec_cb` but `lv_anim_custom_exec_cb_t` receives
 178:Drivers/lvgl/lvgl/src/widgets/../core/../misc/lv_anim.h ****  * `lv_anim_t * ` as its first parameter instead of `void *`.
 179:Drivers/lvgl/lvgl/src/widgets/../core/../misc/lv_anim.h ****  * This function might be used when LVGL is bound to other languages because
 180:Drivers/lvgl/lvgl/src/widgets/../core/../misc/lv_anim.h ****  * it's more consistent to have `lv_anim_t *` as first parameter.
 181:Drivers/lvgl/lvgl/src/widgets/../core/../misc/lv_anim.h ****  * The variable to animate can be stored in the animation's `user_data`
 182:Drivers/lvgl/lvgl/src/widgets/../core/../misc/lv_anim.h ****  * @param a         pointer to an initialized `lv_anim_t` variable
 183:Drivers/lvgl/lvgl/src/widgets/../core/../misc/lv_anim.h ****  * @param exec_cb   a function to execute.
 184:Drivers/lvgl/lvgl/src/widgets/../core/../misc/lv_anim.h ****  */
 185:Drivers/lvgl/lvgl/src/widgets/../core/../misc/lv_anim.h **** static inline void lv_anim_set_custom_exec_cb(lv_anim_t * a, lv_anim_custom_exec_cb_t exec_cb)
 186:Drivers/lvgl/lvgl/src/widgets/../core/../misc/lv_anim.h **** {
 187:Drivers/lvgl/lvgl/src/widgets/../core/../misc/lv_anim.h ****     a->var     = a;
ARM GAS  /tmp/ccd9EMp8.s 			page 59


 188:Drivers/lvgl/lvgl/src/widgets/../core/../misc/lv_anim.h ****     a->exec_cb = (lv_anim_exec_xcb_t)exec_cb;
 189:Drivers/lvgl/lvgl/src/widgets/../core/../misc/lv_anim.h **** }
 190:Drivers/lvgl/lvgl/src/widgets/../core/../misc/lv_anim.h **** 
 191:Drivers/lvgl/lvgl/src/widgets/../core/../misc/lv_anim.h **** /**
 192:Drivers/lvgl/lvgl/src/widgets/../core/../misc/lv_anim.h ****  * Set the path (curve) of the animation.
 193:Drivers/lvgl/lvgl/src/widgets/../core/../misc/lv_anim.h ****  * @param a         pointer to an initialized `lv_anim_t` variable
 194:Drivers/lvgl/lvgl/src/widgets/../core/../misc/lv_anim.h ****  * @param path_cb a function to set the current value of the animation.
 195:Drivers/lvgl/lvgl/src/widgets/../core/../misc/lv_anim.h ****  */
 196:Drivers/lvgl/lvgl/src/widgets/../core/../misc/lv_anim.h **** static inline void lv_anim_set_path_cb(lv_anim_t * a, lv_anim_path_cb_t path_cb)
 197:Drivers/lvgl/lvgl/src/widgets/../core/../misc/lv_anim.h **** {
 198:Drivers/lvgl/lvgl/src/widgets/../core/../misc/lv_anim.h ****     a->path_cb = path_cb;
 199:Drivers/lvgl/lvgl/src/widgets/../core/../misc/lv_anim.h **** }
 200:Drivers/lvgl/lvgl/src/widgets/../core/../misc/lv_anim.h **** 
 201:Drivers/lvgl/lvgl/src/widgets/../core/../misc/lv_anim.h **** /**
 202:Drivers/lvgl/lvgl/src/widgets/../core/../misc/lv_anim.h ****  * Set a function call when the animation really starts (considering `delay`)
 203:Drivers/lvgl/lvgl/src/widgets/../core/../misc/lv_anim.h ****  * @param a         pointer to an initialized `lv_anim_t` variable
 204:Drivers/lvgl/lvgl/src/widgets/../core/../misc/lv_anim.h ****  * @param start_cb  a function call when the animation starts
 205:Drivers/lvgl/lvgl/src/widgets/../core/../misc/lv_anim.h ****  */
 206:Drivers/lvgl/lvgl/src/widgets/../core/../misc/lv_anim.h **** static inline void lv_anim_set_start_cb(lv_anim_t * a, lv_anim_start_cb_t start_cb)
 207:Drivers/lvgl/lvgl/src/widgets/../core/../misc/lv_anim.h **** {
 208:Drivers/lvgl/lvgl/src/widgets/../core/../misc/lv_anim.h ****     a->start_cb = start_cb;
 209:Drivers/lvgl/lvgl/src/widgets/../core/../misc/lv_anim.h **** }
 210:Drivers/lvgl/lvgl/src/widgets/../core/../misc/lv_anim.h **** 
 211:Drivers/lvgl/lvgl/src/widgets/../core/../misc/lv_anim.h **** /**
 212:Drivers/lvgl/lvgl/src/widgets/../core/../misc/lv_anim.h ****  * Set a function to use the current value of the variable and make start and end value
 213:Drivers/lvgl/lvgl/src/widgets/../core/../misc/lv_anim.h ****  * relative to the returned current value.
 214:Drivers/lvgl/lvgl/src/widgets/../core/../misc/lv_anim.h ****  * @param a             pointer to an initialized `lv_anim_t` variable
 215:Drivers/lvgl/lvgl/src/widgets/../core/../misc/lv_anim.h ****  * @param get_value_cb  a function call when the animation starts
 216:Drivers/lvgl/lvgl/src/widgets/../core/../misc/lv_anim.h ****  */
 217:Drivers/lvgl/lvgl/src/widgets/../core/../misc/lv_anim.h **** static inline void lv_anim_set_get_value_cb(lv_anim_t * a, lv_anim_get_value_cb_t get_value_cb)
 218:Drivers/lvgl/lvgl/src/widgets/../core/../misc/lv_anim.h **** {
 219:Drivers/lvgl/lvgl/src/widgets/../core/../misc/lv_anim.h ****     a->get_value_cb = get_value_cb;
 220:Drivers/lvgl/lvgl/src/widgets/../core/../misc/lv_anim.h **** }
 221:Drivers/lvgl/lvgl/src/widgets/../core/../misc/lv_anim.h **** 
 222:Drivers/lvgl/lvgl/src/widgets/../core/../misc/lv_anim.h **** /**
 223:Drivers/lvgl/lvgl/src/widgets/../core/../misc/lv_anim.h ****  * Set a function call when the animation is ready
 224:Drivers/lvgl/lvgl/src/widgets/../core/../misc/lv_anim.h ****  * @param a         pointer to an initialized `lv_anim_t` variable
 225:Drivers/lvgl/lvgl/src/widgets/../core/../misc/lv_anim.h ****  * @param ready_cb  a function call when the animation is ready
 226:Drivers/lvgl/lvgl/src/widgets/../core/../misc/lv_anim.h ****  */
 227:Drivers/lvgl/lvgl/src/widgets/../core/../misc/lv_anim.h **** static inline void lv_anim_set_ready_cb(lv_anim_t * a, lv_anim_ready_cb_t ready_cb)
 228:Drivers/lvgl/lvgl/src/widgets/../core/../misc/lv_anim.h **** {
 229:Drivers/lvgl/lvgl/src/widgets/../core/../misc/lv_anim.h ****     a->ready_cb = ready_cb;
 1591              		.loc 4 229 0
 1592 0042 0F4B     		ldr	r3, .L85+4
 1593 0044 0493     		str	r3, [sp, #16]
 1594              	.LVL196:
 1595              	.LBE140:
 1596              	.LBE139:
 1597              	.LBB141:
 1598              	.LBB142:
 531:Drivers/lvgl/lvgl/src/widgets/../core/lv_obj_style_gen.h ****     return (uint32_t)v.num;
 1599              		.loc 3 531 0
 1600 0046 6422     		movs	r2, #100
 1601 0048 3846     		mov	r0, r7
 1602 004a FFF7FEFF 		bl	lv_obj_get_style_prop
 1603              	.LVL197:
 1604              	.LBE142:
ARM GAS  /tmp/ccd9EMp8.s 			page 60


 1605              	.LBE141:
 1606              	.LBB143:
 1607              	.LBB144:
 150:Drivers/lvgl/lvgl/src/widgets/../core/../misc/lv_anim.h **** }
 1608              		.loc 4 150 0
 1609 004e 0C90     		str	r0, [sp, #48]
 1610              	.LVL198:
 1611              	.LBE144:
 1612              	.LBE143:
 601:Drivers/lvgl/lvgl/src/widgets/lv_bar.c ****     }
 1613              		.loc 2 601 0
 1614 0050 01A8     		add	r0, sp, #4
 1615 0052 FFF7FEFF 		bl	lv_anim_start
 1616              	.LVL199:
 1617              	.L77:
 1618              	.LBE132:
 603:Drivers/lvgl/lvgl/src/widgets/lv_bar.c **** 
 1619              		.loc 2 603 0
 1620 0056 13B0     		add	sp, sp, #76
 1621              	.LCFI10:
 1622              		.cfi_remember_state
 1623              		.cfi_def_cfa_offset 20
 1624              		@ sp needed
 1625 0058 F0BD     		pop	{r4, r5, r6, r7, pc}
 1626              	.LVL200:
 1627              	.L83:
 1628              	.LCFI11:
 1629              		.cfi_restore_state
 574:Drivers/lvgl/lvgl/src/widgets/lv_bar.c ****         anim_info->anim_state = LV_BAR_ANIM_STATE_INV;
 1630              		.loc 2 574 0
 1631 005a 0021     		movs	r1, #0
 1632              	.LVL201:
 1633 005c 2046     		mov	r0, r4
 1634              	.LVL202:
 1635 005e FFF7FEFF 		bl	lv_anim_del
 1636              	.LVL203:
 575:Drivers/lvgl/lvgl/src/widgets/lv_bar.c ****         *value_ptr = new_value;
 1637              		.loc 2 575 0
 1638 0062 4FF0FF33 		mov	r3, #-1
 1639 0066 E360     		str	r3, [r4, #12]
 576:Drivers/lvgl/lvgl/src/widgets/lv_bar.c ****         lv_obj_invalidate((lv_obj_t *)obj);
 1640              		.loc 2 576 0
 1641 0068 3560     		str	r5, [r6]
 577:Drivers/lvgl/lvgl/src/widgets/lv_bar.c ****     }
 1642              		.loc 2 577 0
 1643 006a 3846     		mov	r0, r7
 1644 006c FFF7FEFF 		bl	lv_obj_invalidate
 1645              	.LVL204:
 1646 0070 F1E7     		b	.L77
 1647              	.LVL205:
 1648              	.L84:
 1649              	.LBB145:
 582:Drivers/lvgl/lvgl/src/widgets/lv_bar.c ****             anim_info->anim_end   = new_value;
 1650              		.loc 2 582 0
 1651 0072 1368     		ldr	r3, [r2]
 1652 0074 6360     		str	r3, [r4, #4]
 583:Drivers/lvgl/lvgl/src/widgets/lv_bar.c ****         }
ARM GAS  /tmp/ccd9EMp8.s 			page 61


 1653              		.loc 2 583 0
 1654 0076 A160     		str	r1, [r4, #8]
 1655 0078 D2E7     		b	.L81
 1656              	.L86:
 1657 007a 00BF     		.align	2
 1658              	.L85:
 1659 007c 00000000 		.word	lv_bar_anim
 1660 0080 00000000 		.word	lv_bar_anim_ready
 1661              	.LBE145:
 1662              		.cfi_endproc
 1663              	.LFE175:
 1665              		.section	.text.lv_bar_create,"ax",%progbits
 1666              		.align	1
 1667              		.global	lv_bar_create
 1668              		.syntax unified
 1669              		.thumb
 1670              		.thumb_func
 1671              		.fpu fpv5-d16
 1673              	lv_bar_create:
 1674              	.LFB159:
  79:Drivers/lvgl/lvgl/src/widgets/lv_bar.c ****     LV_LOG_INFO("begin");
 1675              		.loc 2 79 0
 1676              		.cfi_startproc
 1677              		@ args = 0, pretend = 0, frame = 0
 1678              		@ frame_needed = 0, uses_anonymous_args = 0
 1679              	.LVL206:
 1680 0000 10B5     		push	{r4, lr}
 1681              	.LCFI12:
 1682              		.cfi_def_cfa_offset 8
 1683              		.cfi_offset 4, -8
 1684              		.cfi_offset 14, -4
  81:Drivers/lvgl/lvgl/src/widgets/lv_bar.c ****     lv_obj_class_init_obj(obj);
 1685              		.loc 2 81 0
 1686 0002 0146     		mov	r1, r0
 1687 0004 0348     		ldr	r0, .L89
 1688              	.LVL207:
 1689 0006 FFF7FEFF 		bl	lv_obj_class_create_obj
 1690              	.LVL208:
 1691 000a 0446     		mov	r4, r0
 1692              	.LVL209:
  82:Drivers/lvgl/lvgl/src/widgets/lv_bar.c ****     return obj;
 1693              		.loc 2 82 0
 1694 000c FFF7FEFF 		bl	lv_obj_class_init_obj
 1695              	.LVL210:
  84:Drivers/lvgl/lvgl/src/widgets/lv_bar.c **** 
 1696              		.loc 2 84 0
 1697 0010 2046     		mov	r0, r4
 1698 0012 10BD     		pop	{r4, pc}
 1699              	.LVL211:
 1700              	.L90:
 1701              		.align	2
 1702              	.L89:
 1703 0014 00000000 		.word	.LANCHOR0
 1704              		.cfi_endproc
 1705              	.LFE159:
 1707              		.section	.text.lv_bar_set_value,"ax",%progbits
 1708              		.align	1
ARM GAS  /tmp/ccd9EMp8.s 			page 62


 1709              		.global	lv_bar_set_value
 1710              		.syntax unified
 1711              		.thumb
 1712              		.thumb_func
 1713              		.fpu fpv5-d16
 1715              	lv_bar_set_value:
 1716              	.LFB160:
  91:Drivers/lvgl/lvgl/src/widgets/lv_bar.c ****     LV_ASSERT_OBJ(obj, MY_CLASS);
 1717              		.loc 2 91 0
 1718              		.cfi_startproc
 1719              		@ args = 0, pretend = 0, frame = 0
 1720              		@ frame_needed = 0, uses_anonymous_args = 0
 1721              	.LVL212:
 1722 0000 10B5     		push	{r4, lr}
 1723              	.LCFI13:
 1724              		.cfi_def_cfa_offset 8
 1725              		.cfi_offset 4, -8
 1726              		.cfi_offset 14, -4
 1727 0002 82B0     		sub	sp, sp, #8
 1728              	.LCFI14:
 1729              		.cfi_def_cfa_offset 16
 1730              	.LVL213:
  95:Drivers/lvgl/lvgl/src/widgets/lv_bar.c **** 
 1731              		.loc 2 95 0
 1732 0004 446A     		ldr	r4, [r0, #36]
 1733 0006 8C42     		cmp	r4, r1
 1734 0008 14D0     		beq	.L91
  97:Drivers/lvgl/lvgl/src/widgets/lv_bar.c ****     value = value < bar->start_value ? bar->start_value : value; /*Can't be smaller than the left v
 1735              		.loc 2 97 0
 1736 000a C36A     		ldr	r3, [r0, #44]
 1737 000c 8B42     		cmp	r3, r1
 1738 000e A8BF     		it	ge
 1739 0010 0B46     		movge	r3, r1
 1740 0012 816A     		ldr	r1, [r0, #40]
 1741              	.LVL214:
 1742 0014 8B42     		cmp	r3, r1
 1743 0016 B8BF     		it	lt
 1744 0018 0B46     		movlt	r3, r1
 1745              	.LVL215:
  98:Drivers/lvgl/lvgl/src/widgets/lv_bar.c **** 
 1746              		.loc 2 98 0
 1747 001a 016B     		ldr	r1, [r0, #48]
 1748 001c 9942     		cmp	r1, r3
 1749 001e B8BF     		it	lt
 1750 0020 1946     		movlt	r1, r3
 1751              	.LVL216:
 100:Drivers/lvgl/lvgl/src/widgets/lv_bar.c ****     lv_bar_set_value_with_anim(obj, value, &bar->cur_value, &bar->cur_value_anim, anim);
 1752              		.loc 2 100 0
 1753 0022 8C42     		cmp	r4, r1
 1754 0024 06D0     		beq	.L91
 101:Drivers/lvgl/lvgl/src/widgets/lv_bar.c **** }
 1755              		.loc 2 101 0
 1756 0026 0092     		str	r2, [sp]
 1757 0028 00F13C03 		add	r3, r0, #60
 1758 002c 00F12402 		add	r2, r0, #36
 1759              	.LVL217:
 1760 0030 FFF7FEFF 		bl	lv_bar_set_value_with_anim
ARM GAS  /tmp/ccd9EMp8.s 			page 63


 1761              	.LVL218:
 1762              	.L91:
 102:Drivers/lvgl/lvgl/src/widgets/lv_bar.c **** 
 1763              		.loc 2 102 0
 1764 0034 02B0     		add	sp, sp, #8
 1765              	.LCFI15:
 1766              		.cfi_def_cfa_offset 8
 1767              		@ sp needed
 1768 0036 10BD     		pop	{r4, pc}
 1769              		.cfi_endproc
 1770              	.LFE160:
 1772              		.section	.text.lv_bar_constructor,"ax",%progbits
 1773              		.align	1
 1774              		.syntax unified
 1775              		.thumb
 1776              		.thumb_func
 1777              		.fpu fpv5-d16
 1779              	lv_bar_constructor:
 1780              	.LFB169:
 209:Drivers/lvgl/lvgl/src/widgets/lv_bar.c ****     LV_UNUSED(class_p);
 1781              		.loc 2 209 0
 1782              		.cfi_startproc
 1783              		@ args = 0, pretend = 0, frame = 0
 1784              		@ frame_needed = 0, uses_anonymous_args = 0
 1785              	.LVL219:
 1786 0000 38B5     		push	{r3, r4, r5, lr}
 1787              	.LCFI16:
 1788              		.cfi_def_cfa_offset 16
 1789              		.cfi_offset 3, -16
 1790              		.cfi_offset 4, -12
 1791              		.cfi_offset 5, -8
 1792              		.cfi_offset 14, -4
 1793 0002 0C46     		mov	r4, r1
 1794              	.LVL220:
 214:Drivers/lvgl/lvgl/src/widgets/lv_bar.c ****     bar->max_value = 100;
 1795              		.loc 2 214 0
 1796 0004 0025     		movs	r5, #0
 1797 0006 8D62     		str	r5, [r1, #40]
 215:Drivers/lvgl/lvgl/src/widgets/lv_bar.c ****     bar->start_value = 0;
 1798              		.loc 2 215 0
 1799 0008 6423     		movs	r3, #100
 1800 000a CB62     		str	r3, [r1, #44]
 216:Drivers/lvgl/lvgl/src/widgets/lv_bar.c ****     bar->cur_value = 0;
 1801              		.loc 2 216 0
 1802 000c 0D63     		str	r5, [r1, #48]
 217:Drivers/lvgl/lvgl/src/widgets/lv_bar.c ****     bar->indic_area.x1 = 0;
 1803              		.loc 2 217 0
 1804 000e 4D62     		str	r5, [r1, #36]
 218:Drivers/lvgl/lvgl/src/widgets/lv_bar.c ****     bar->indic_area.x2 = 0;
 1805              		.loc 2 218 0
 1806 0010 8D86     		strh	r5, [r1, #52]	@ movhi
 219:Drivers/lvgl/lvgl/src/widgets/lv_bar.c ****     bar->indic_area.y1 = 0;
 1807              		.loc 2 219 0
 1808 0012 0D87     		strh	r5, [r1, #56]	@ movhi
 220:Drivers/lvgl/lvgl/src/widgets/lv_bar.c ****     bar->indic_area.y2 = 0;
 1809              		.loc 2 220 0
 1810 0014 CD86     		strh	r5, [r1, #54]	@ movhi
ARM GAS  /tmp/ccd9EMp8.s 			page 64


 221:Drivers/lvgl/lvgl/src/widgets/lv_bar.c ****     bar->mode = LV_BAR_MODE_NORMAL;
 1811              		.loc 2 221 0
 1812 0016 4D87     		strh	r5, [r1, #58]	@ movhi
 222:Drivers/lvgl/lvgl/src/widgets/lv_bar.c **** 
 1813              		.loc 2 222 0
 1814 0018 91F85C30 		ldrb	r3, [r1, #92]	@ zero_extendqisi2
 1815 001c 65F30103 		bfi	r3, r5, #0, #2
 1816 0020 81F85C30 		strb	r3, [r1, #92]
 224:Drivers/lvgl/lvgl/src/widgets/lv_bar.c ****     lv_bar_init_anim(obj, &bar->start_value_anim);
 1817              		.loc 2 224 0
 1818 0024 3C31     		adds	r1, r1, #60
 1819              	.LVL221:
 1820 0026 2046     		mov	r0, r4
 1821              	.LVL222:
 1822 0028 FFF7FEFF 		bl	lv_bar_init_anim
 1823              	.LVL223:
 225:Drivers/lvgl/lvgl/src/widgets/lv_bar.c **** 
 1824              		.loc 2 225 0
 1825 002c 04F14C01 		add	r1, r4, #76
 1826 0030 2046     		mov	r0, r4
 1827 0032 FFF7FEFF 		bl	lv_bar_init_anim
 1828              	.LVL224:
 227:Drivers/lvgl/lvgl/src/widgets/lv_bar.c ****     lv_obj_clear_flag(obj, LV_OBJ_FLAG_SCROLLABLE);
 1829              		.loc 2 227 0
 1830 0036 0821     		movs	r1, #8
 1831 0038 2046     		mov	r0, r4
 1832 003a FFF7FEFF 		bl	lv_obj_clear_flag
 1833              	.LVL225:
 228:Drivers/lvgl/lvgl/src/widgets/lv_bar.c ****     lv_bar_set_value(obj, 0, LV_ANIM_OFF);
 1834              		.loc 2 228 0
 1835 003e 1021     		movs	r1, #16
 1836 0040 2046     		mov	r0, r4
 1837 0042 FFF7FEFF 		bl	lv_obj_clear_flag
 1838              	.LVL226:
 229:Drivers/lvgl/lvgl/src/widgets/lv_bar.c **** 
 1839              		.loc 2 229 0
 1840 0046 2A46     		mov	r2, r5
 1841 0048 2946     		mov	r1, r5
 1842 004a 2046     		mov	r0, r4
 1843 004c FFF7FEFF 		bl	lv_bar_set_value
 1844              	.LVL227:
 232:Drivers/lvgl/lvgl/src/widgets/lv_bar.c **** 
 1845              		.loc 2 232 0
 1846 0050 38BD     		pop	{r3, r4, r5, pc}
 1847              		.cfi_endproc
 1848              	.LFE169:
 1850              		.section	.text.lv_bar_set_start_value,"ax",%progbits
 1851              		.align	1
 1852              		.global	lv_bar_set_start_value
 1853              		.syntax unified
 1854              		.thumb
 1855              		.thumb_func
 1856              		.fpu fpv5-d16
 1858              	lv_bar_set_start_value:
 1859              	.LFB161:
 105:Drivers/lvgl/lvgl/src/widgets/lv_bar.c ****     LV_ASSERT_OBJ(obj, MY_CLASS);
 1860              		.loc 2 105 0
ARM GAS  /tmp/ccd9EMp8.s 			page 65


 1861              		.cfi_startproc
 1862              		@ args = 0, pretend = 0, frame = 0
 1863              		@ frame_needed = 0, uses_anonymous_args = 0
 1864              	.LVL228:
 110:Drivers/lvgl/lvgl/src/widgets/lv_bar.c ****         return;
 1865              		.loc 2 110 0
 1866 0000 90F85C30 		ldrb	r3, [r0, #92]	@ zero_extendqisi2
 1867 0004 03F00303 		and	r3, r3, #3
 1868 0008 022B     		cmp	r3, #2
 1869 000a 00D0     		beq	.L102
 1870              	.L99:
 1871 000c 7047     		bx	lr
 1872              	.L102:
 114:Drivers/lvgl/lvgl/src/widgets/lv_bar.c ****     value = value > bar->cur_value ? bar->cur_value : value; /*Can't be greater than the right valu
 1873              		.loc 2 114 0
 1874 000e C36A     		ldr	r3, [r0, #44]
 1875 0010 9942     		cmp	r1, r3
 1876 0012 A8BF     		it	ge
 1877 0014 1946     		movge	r1, r3
 1878              	.LVL229:
 1879 0016 836A     		ldr	r3, [r0, #40]
 1880 0018 9942     		cmp	r1, r3
 1881 001a B8BF     		it	lt
 1882 001c 1946     		movlt	r1, r3
 1883              	.LVL230:
 115:Drivers/lvgl/lvgl/src/widgets/lv_bar.c **** 
 1884              		.loc 2 115 0
 1885 001e 436A     		ldr	r3, [r0, #36]
 1886 0020 9942     		cmp	r1, r3
 1887 0022 A8BF     		it	ge
 1888 0024 1946     		movge	r1, r3
 1889              	.LVL231:
 117:Drivers/lvgl/lvgl/src/widgets/lv_bar.c ****     lv_bar_set_value_with_anim(obj, value, &bar->start_value, &bar->start_value_anim, anim);
 1890              		.loc 2 117 0
 1891 0026 036B     		ldr	r3, [r0, #48]
 1892 0028 8B42     		cmp	r3, r1
 1893 002a EFD0     		beq	.L99
 105:Drivers/lvgl/lvgl/src/widgets/lv_bar.c ****     LV_ASSERT_OBJ(obj, MY_CLASS);
 1894              		.loc 2 105 0
 1895 002c 00B5     		push	{lr}
 1896              	.LCFI17:
 1897              		.cfi_def_cfa_offset 4
 1898              		.cfi_offset 14, -4
 1899 002e 83B0     		sub	sp, sp, #12
 1900              	.LCFI18:
 1901              		.cfi_def_cfa_offset 16
 118:Drivers/lvgl/lvgl/src/widgets/lv_bar.c **** }
 1902              		.loc 2 118 0
 1903 0030 0092     		str	r2, [sp]
 1904 0032 00F14C03 		add	r3, r0, #76
 1905 0036 00F13002 		add	r2, r0, #48
 1906              	.LVL232:
 1907 003a FFF7FEFF 		bl	lv_bar_set_value_with_anim
 1908              	.LVL233:
 119:Drivers/lvgl/lvgl/src/widgets/lv_bar.c **** 
 1909              		.loc 2 119 0
 1910 003e 03B0     		add	sp, sp, #12
ARM GAS  /tmp/ccd9EMp8.s 			page 66


 1911              	.LCFI19:
 1912              		.cfi_def_cfa_offset 4
 1913              		@ sp needed
 1914 0040 5DF804FB 		ldr	pc, [sp], #4
 1915              		.cfi_endproc
 1916              	.LFE161:
 1918              		.section	.text.lv_bar_set_mode,"ax",%progbits
 1919              		.align	1
 1920              		.global	lv_bar_set_mode
 1921              		.syntax unified
 1922              		.thumb
 1923              		.thumb_func
 1924              		.fpu fpv5-d16
 1926              	lv_bar_set_mode:
 1927              	.LFB163:
 147:Drivers/lvgl/lvgl/src/widgets/lv_bar.c ****     LV_ASSERT_OBJ(obj, MY_CLASS);
 1928              		.loc 2 147 0
 1929              		.cfi_startproc
 1930              		@ args = 0, pretend = 0, frame = 0
 1931              		@ frame_needed = 0, uses_anonymous_args = 0
 1932              	.LVL234:
 1933 0000 08B5     		push	{r3, lr}
 1934              	.LCFI20:
 1935              		.cfi_def_cfa_offset 8
 1936              		.cfi_offset 3, -8
 1937              		.cfi_offset 14, -4
 1938              	.LVL235:
 151:Drivers/lvgl/lvgl/src/widgets/lv_bar.c ****     if(bar->mode != LV_BAR_MODE_RANGE) {
 1939              		.loc 2 151 0
 1940 0002 90F85C30 		ldrb	r3, [r0, #92]	@ zero_extendqisi2
 1941 0006 61F30103 		bfi	r3, r1, #0, #2
 1942 000a 80F85C30 		strb	r3, [r0, #92]
 152:Drivers/lvgl/lvgl/src/widgets/lv_bar.c ****         bar->start_value = bar->min_value;
 1943              		.loc 2 152 0
 1944 000e 03F00303 		and	r3, r3, #3
 1945 0012 022B     		cmp	r3, #2
 1946 0014 01D0     		beq	.L104
 153:Drivers/lvgl/lvgl/src/widgets/lv_bar.c ****     }
 1947              		.loc 2 153 0
 1948 0016 836A     		ldr	r3, [r0, #40]
 1949 0018 0363     		str	r3, [r0, #48]
 1950              	.L104:
 156:Drivers/lvgl/lvgl/src/widgets/lv_bar.c **** }
 1951              		.loc 2 156 0
 1952 001a FFF7FEFF 		bl	lv_obj_invalidate
 1953              	.LVL236:
 157:Drivers/lvgl/lvgl/src/widgets/lv_bar.c **** 
 1954              		.loc 2 157 0
 1955 001e 08BD     		pop	{r3, pc}
 1956              		.cfi_endproc
 1957              	.LFE163:
 1959              		.section	.text.lv_bar_get_value,"ax",%progbits
 1960              		.align	1
 1961              		.global	lv_bar_get_value
 1962              		.syntax unified
 1963              		.thumb
 1964              		.thumb_func
ARM GAS  /tmp/ccd9EMp8.s 			page 67


 1965              		.fpu fpv5-d16
 1967              	lv_bar_get_value:
 1968              	.LFB164:
 164:Drivers/lvgl/lvgl/src/widgets/lv_bar.c ****     LV_ASSERT_OBJ(obj, MY_CLASS);
 1969              		.loc 2 164 0
 1970              		.cfi_startproc
 1971              		@ args = 0, pretend = 0, frame = 0
 1972              		@ frame_needed = 0, uses_anonymous_args = 0
 1973              		@ link register save eliminated.
 1974              	.LVL237:
 168:Drivers/lvgl/lvgl/src/widgets/lv_bar.c **** }
 1975              		.loc 2 168 0
 1976 0000 836C     		ldr	r3, [r0, #72]
 1977 0002 B3F1FF3F 		cmp	r3, #-1
 1978 0006 01D0     		beq	.L107
 168:Drivers/lvgl/lvgl/src/widgets/lv_bar.c **** }
 1979              		.loc 2 168 0 is_stmt 0 discriminator 1
 1980 0008 406C     		ldr	r0, [r0, #68]
 1981              	.LVL238:
 1982 000a 7047     		bx	lr
 1983              	.LVL239:
 1984              	.L107:
 168:Drivers/lvgl/lvgl/src/widgets/lv_bar.c **** }
 1985              		.loc 2 168 0 discriminator 2
 1986 000c 406A     		ldr	r0, [r0, #36]
 1987              	.LVL240:
 169:Drivers/lvgl/lvgl/src/widgets/lv_bar.c **** 
 1988              		.loc 2 169 0 is_stmt 1 discriminator 2
 1989 000e 7047     		bx	lr
 1990              		.cfi_endproc
 1991              	.LFE164:
 1993              		.section	.text.lv_bar_get_start_value,"ax",%progbits
 1994              		.align	1
 1995              		.global	lv_bar_get_start_value
 1996              		.syntax unified
 1997              		.thumb
 1998              		.thumb_func
 1999              		.fpu fpv5-d16
 2001              	lv_bar_get_start_value:
 2002              	.LFB165:
 172:Drivers/lvgl/lvgl/src/widgets/lv_bar.c ****     LV_ASSERT_OBJ(obj, MY_CLASS);
 2003              		.loc 2 172 0
 2004              		.cfi_startproc
 2005              		@ args = 0, pretend = 0, frame = 0
 2006              		@ frame_needed = 0, uses_anonymous_args = 0
 2007              		@ link register save eliminated.
 2008              	.LVL241:
 176:Drivers/lvgl/lvgl/src/widgets/lv_bar.c **** 
 2009              		.loc 2 176 0
 2010 0000 90F85C30 		ldrb	r3, [r0, #92]	@ zero_extendqisi2
 2011 0004 03F00303 		and	r3, r3, #3
 2012 0008 022B     		cmp	r3, #2
 2013 000a 01D0     		beq	.L110
 176:Drivers/lvgl/lvgl/src/widgets/lv_bar.c **** 
 2014              		.loc 2 176 0 is_stmt 0 discriminator 1
 2015 000c 806A     		ldr	r0, [r0, #40]
 2016              	.LVL242:
ARM GAS  /tmp/ccd9EMp8.s 			page 68


 2017 000e 7047     		bx	lr
 2018              	.LVL243:
 2019              	.L110:
 178:Drivers/lvgl/lvgl/src/widgets/lv_bar.c **** }
 2020              		.loc 2 178 0 is_stmt 1
 2021 0010 836D     		ldr	r3, [r0, #88]
 2022 0012 B3F1FF3F 		cmp	r3, #-1
 2023 0016 01D0     		beq	.L112
 178:Drivers/lvgl/lvgl/src/widgets/lv_bar.c **** }
 2024              		.loc 2 178 0 is_stmt 0 discriminator 1
 2025 0018 406D     		ldr	r0, [r0, #84]
 2026              	.LVL244:
 2027 001a 7047     		bx	lr
 2028              	.LVL245:
 2029              	.L112:
 178:Drivers/lvgl/lvgl/src/widgets/lv_bar.c **** }
 2030              		.loc 2 178 0 discriminator 2
 2031 001c 006B     		ldr	r0, [r0, #48]
 2032              	.LVL246:
 179:Drivers/lvgl/lvgl/src/widgets/lv_bar.c **** 
 2033              		.loc 2 179 0 is_stmt 1 discriminator 2
 2034 001e 7047     		bx	lr
 2035              		.cfi_endproc
 2036              	.LFE165:
 2038              		.section	.text.lv_bar_get_min_value,"ax",%progbits
 2039              		.align	1
 2040              		.global	lv_bar_get_min_value
 2041              		.syntax unified
 2042              		.thumb
 2043              		.thumb_func
 2044              		.fpu fpv5-d16
 2046              	lv_bar_get_min_value:
 2047              	.LFB166:
 182:Drivers/lvgl/lvgl/src/widgets/lv_bar.c ****     LV_ASSERT_OBJ(obj, MY_CLASS);
 2048              		.loc 2 182 0
 2049              		.cfi_startproc
 2050              		@ args = 0, pretend = 0, frame = 0
 2051              		@ frame_needed = 0, uses_anonymous_args = 0
 2052              		@ link register save eliminated.
 2053              	.LVL247:
 186:Drivers/lvgl/lvgl/src/widgets/lv_bar.c **** 
 2054              		.loc 2 186 0
 2055 0000 806A     		ldr	r0, [r0, #40]
 2056              	.LVL248:
 2057 0002 7047     		bx	lr
 2058              		.cfi_endproc
 2059              	.LFE166:
 2061              		.section	.text.lv_bar_get_max_value,"ax",%progbits
 2062              		.align	1
 2063              		.global	lv_bar_get_max_value
 2064              		.syntax unified
 2065              		.thumb
 2066              		.thumb_func
 2067              		.fpu fpv5-d16
 2069              	lv_bar_get_max_value:
 2070              	.LFB167:
 189:Drivers/lvgl/lvgl/src/widgets/lv_bar.c ****     LV_ASSERT_OBJ(obj, MY_CLASS);
ARM GAS  /tmp/ccd9EMp8.s 			page 69


 2071              		.loc 2 189 0
 2072              		.cfi_startproc
 2073              		@ args = 0, pretend = 0, frame = 0
 2074              		@ frame_needed = 0, uses_anonymous_args = 0
 2075              		@ link register save eliminated.
 2076              	.LVL249:
 194:Drivers/lvgl/lvgl/src/widgets/lv_bar.c **** 
 2077              		.loc 2 194 0
 2078 0000 C06A     		ldr	r0, [r0, #44]
 2079              	.LVL250:
 2080 0002 7047     		bx	lr
 2081              		.cfi_endproc
 2082              	.LFE167:
 2084              		.section	.text.lv_bar_get_mode,"ax",%progbits
 2085              		.align	1
 2086              		.global	lv_bar_get_mode
 2087              		.syntax unified
 2088              		.thumb
 2089              		.thumb_func
 2090              		.fpu fpv5-d16
 2092              	lv_bar_get_mode:
 2093              	.LFB168:
 197:Drivers/lvgl/lvgl/src/widgets/lv_bar.c ****     LV_ASSERT_OBJ(obj, MY_CLASS);
 2094              		.loc 2 197 0
 2095              		.cfi_startproc
 2096              		@ args = 0, pretend = 0, frame = 0
 2097              		@ frame_needed = 0, uses_anonymous_args = 0
 2098              		@ link register save eliminated.
 2099              	.LVL251:
 201:Drivers/lvgl/lvgl/src/widgets/lv_bar.c **** }
 2100              		.loc 2 201 0
 2101 0000 90F85C00 		ldrb	r0, [r0, #92]	@ zero_extendqisi2
 2102              	.LVL252:
 202:Drivers/lvgl/lvgl/src/widgets/lv_bar.c **** 
 2103              		.loc 2 202 0
 2104 0004 00F00300 		and	r0, r0, #3
 2105 0008 7047     		bx	lr
 2106              		.cfi_endproc
 2107              	.LFE168:
 2109              		.section	.text.lv_bar_set_range,"ax",%progbits
 2110              		.align	1
 2111              		.global	lv_bar_set_range
 2112              		.syntax unified
 2113              		.thumb
 2114              		.thumb_func
 2115              		.fpu fpv5-d16
 2117              	lv_bar_set_range:
 2118              	.LFB162:
 122:Drivers/lvgl/lvgl/src/widgets/lv_bar.c ****     LV_ASSERT_OBJ(obj, MY_CLASS);
 2119              		.loc 2 122 0
 2120              		.cfi_startproc
 2121              		@ args = 0, pretend = 0, frame = 0
 2122              		@ frame_needed = 0, uses_anonymous_args = 0
 2123              	.LVL253:
 127:Drivers/lvgl/lvgl/src/widgets/lv_bar.c **** 
 2124              		.loc 2 127 0
 2125 0000 836A     		ldr	r3, [r0, #40]
ARM GAS  /tmp/ccd9EMp8.s 			page 70


 2126 0002 8B42     		cmp	r3, r1
 2127 0004 14D0     		beq	.L125
 2128              	.L117:
 122:Drivers/lvgl/lvgl/src/widgets/lv_bar.c ****     LV_ASSERT_OBJ(obj, MY_CLASS);
 2129              		.loc 2 122 0
 2130 0006 70B5     		push	{r4, r5, r6, lr}
 2131              	.LCFI21:
 2132              		.cfi_def_cfa_offset 16
 2133              		.cfi_offset 4, -16
 2134              		.cfi_offset 5, -12
 2135              		.cfi_offset 6, -8
 2136              		.cfi_offset 14, -4
 2137 0008 1646     		mov	r6, r2
 2138 000a 0D46     		mov	r5, r1
 2139 000c 0446     		mov	r4, r0
 129:Drivers/lvgl/lvgl/src/widgets/lv_bar.c ****     bar->min_value = min;
 2140              		.loc 2 129 0
 2141 000e E262     		str	r2, [r4, #44]
 130:Drivers/lvgl/lvgl/src/widgets/lv_bar.c **** 
 2142              		.loc 2 130 0
 2143 0010 A162     		str	r1, [r4, #40]
 132:Drivers/lvgl/lvgl/src/widgets/lv_bar.c ****         bar->start_value = min;
 2144              		.loc 2 132 0
 2145 0012 FFF7FEFF 		bl	lv_bar_get_mode
 2146              	.LVL254:
 2147 0016 0228     		cmp	r0, #2
 2148 0018 00D0     		beq	.L119
 133:Drivers/lvgl/lvgl/src/widgets/lv_bar.c **** 
 2149              		.loc 2 133 0
 2150 001a 2563     		str	r5, [r4, #48]
 2151              	.L119:
 135:Drivers/lvgl/lvgl/src/widgets/lv_bar.c ****         bar->cur_value = max;
 2152              		.loc 2 135 0
 2153 001c 636A     		ldr	r3, [r4, #36]
 2154 001e B342     		cmp	r3, r6
 2155 0020 0ADC     		bgt	.L126
 2156              	.L120:
 139:Drivers/lvgl/lvgl/src/widgets/lv_bar.c ****         bar->cur_value = min;
 2157              		.loc 2 139 0
 2158 0022 636A     		ldr	r3, [r4, #36]
 2159 0024 AB42     		cmp	r3, r5
 2160 0026 0EDB     		blt	.L127
 2161              	.L121:
 143:Drivers/lvgl/lvgl/src/widgets/lv_bar.c **** }
 2162              		.loc 2 143 0
 2163 0028 2046     		mov	r0, r4
 2164 002a FFF7FEFF 		bl	lv_obj_invalidate
 2165              	.LVL255:
 144:Drivers/lvgl/lvgl/src/widgets/lv_bar.c **** 
 2166              		.loc 2 144 0
 2167 002e 70BD     		pop	{r4, r5, r6, pc}
 2168              	.LVL256:
 2169              	.L125:
 2170              	.LCFI22:
 2171              		.cfi_def_cfa_offset 0
 2172              		.cfi_restore 4
 2173              		.cfi_restore 5
ARM GAS  /tmp/ccd9EMp8.s 			page 71


 2174              		.cfi_restore 6
 2175              		.cfi_restore 14
 127:Drivers/lvgl/lvgl/src/widgets/lv_bar.c **** 
 2176              		.loc 2 127 0 discriminator 1
 2177 0030 C36A     		ldr	r3, [r0, #44]
 2178 0032 9342     		cmp	r3, r2
 2179 0034 E7D1     		bne	.L117
 2180 0036 7047     		bx	lr
 2181              	.LVL257:
 2182              	.L126:
 2183              	.LCFI23:
 2184              		.cfi_def_cfa_offset 16
 2185              		.cfi_offset 4, -16
 2186              		.cfi_offset 5, -12
 2187              		.cfi_offset 6, -8
 2188              		.cfi_offset 14, -4
 136:Drivers/lvgl/lvgl/src/widgets/lv_bar.c ****         lv_bar_set_value(obj, bar->cur_value, LV_ANIM_OFF);
 2189              		.loc 2 136 0
 2190 0038 6662     		str	r6, [r4, #36]
 137:Drivers/lvgl/lvgl/src/widgets/lv_bar.c ****     }
 2191              		.loc 2 137 0
 2192 003a 0022     		movs	r2, #0
 2193 003c 3146     		mov	r1, r6
 2194 003e 2046     		mov	r0, r4
 2195 0040 FFF7FEFF 		bl	lv_bar_set_value
 2196              	.LVL258:
 2197 0044 EDE7     		b	.L120
 2198              	.L127:
 140:Drivers/lvgl/lvgl/src/widgets/lv_bar.c ****         lv_bar_set_value(obj, bar->cur_value, LV_ANIM_OFF);
 2199              		.loc 2 140 0
 2200 0046 6562     		str	r5, [r4, #36]
 141:Drivers/lvgl/lvgl/src/widgets/lv_bar.c ****     }
 2201              		.loc 2 141 0
 2202 0048 0022     		movs	r2, #0
 2203 004a 2946     		mov	r1, r5
 2204 004c 2046     		mov	r0, r4
 2205 004e FFF7FEFF 		bl	lv_bar_set_value
 2206              	.LVL259:
 2207 0052 E9E7     		b	.L121
 2208              		.cfi_endproc
 2209              	.LFE162:
