ARM GAS  /tmp/ccpV5owi.s 			page 1


   1              		.cpu cortex-m7
   2              		.eabi_attribute 28, 1
   3              		.eabi_attribute 20, 1
   4              		.eabi_attribute 21, 1
   5              		.eabi_attribute 23, 3
   6              		.eabi_attribute 24, 1
   7              		.eabi_attribute 25, 1
   8              		.eabi_attribute 26, 1
   9              		.eabi_attribute 30, 1
  10              		.eabi_attribute 34, 1
  11              		.eabi_attribute 18, 4
  12              		.file	"lv_btnmatrix.c"
  13              		.text
  14              	.Ltext0:
  15              		.cfi_sections	.debug_frame
  16              		.section	.text.get_button_width,"ax",%progbits
  17              		.align	1
  18              		.syntax unified
  19              		.thumb
  20              		.thumb_func
  21              		.fpu fpv5-d16
  23              	get_button_width:
  24              	.LFB179:
  25              		.file 1 "Drivers/lvgl/lvgl/src/widgets/lv_btnmatrix.c"
   1:Drivers/lvgl/lvgl/src/widgets/lv_btnmatrix.c **** /**
   2:Drivers/lvgl/lvgl/src/widgets/lv_btnmatrix.c ****  * @file lv_btnmatrix.c
   3:Drivers/lvgl/lvgl/src/widgets/lv_btnmatrix.c ****  *
   4:Drivers/lvgl/lvgl/src/widgets/lv_btnmatrix.c ****  */
   5:Drivers/lvgl/lvgl/src/widgets/lv_btnmatrix.c **** 
   6:Drivers/lvgl/lvgl/src/widgets/lv_btnmatrix.c **** /*********************
   7:Drivers/lvgl/lvgl/src/widgets/lv_btnmatrix.c ****  *      INCLUDES
   8:Drivers/lvgl/lvgl/src/widgets/lv_btnmatrix.c ****  *********************/
   9:Drivers/lvgl/lvgl/src/widgets/lv_btnmatrix.c **** #include "lv_btnmatrix.h"
  10:Drivers/lvgl/lvgl/src/widgets/lv_btnmatrix.c **** #if LV_USE_BTNMATRIX != 0
  11:Drivers/lvgl/lvgl/src/widgets/lv_btnmatrix.c **** 
  12:Drivers/lvgl/lvgl/src/widgets/lv_btnmatrix.c **** #include "../misc/lv_assert.h"
  13:Drivers/lvgl/lvgl/src/widgets/lv_btnmatrix.c **** #include "../core/lv_indev.h"
  14:Drivers/lvgl/lvgl/src/widgets/lv_btnmatrix.c **** #include "../core/lv_group.h"
  15:Drivers/lvgl/lvgl/src/widgets/lv_btnmatrix.c **** #include "../draw/lv_draw.h"
  16:Drivers/lvgl/lvgl/src/widgets/lv_btnmatrix.c **** #include "../core/lv_refr.h"
  17:Drivers/lvgl/lvgl/src/widgets/lv_btnmatrix.c **** #include "../misc/lv_txt.h"
  18:Drivers/lvgl/lvgl/src/widgets/lv_btnmatrix.c **** #include "../misc/lv_txt_ap.h"
  19:Drivers/lvgl/lvgl/src/widgets/lv_btnmatrix.c **** 
  20:Drivers/lvgl/lvgl/src/widgets/lv_btnmatrix.c **** /*********************
  21:Drivers/lvgl/lvgl/src/widgets/lv_btnmatrix.c ****  *      DEFINES
  22:Drivers/lvgl/lvgl/src/widgets/lv_btnmatrix.c ****  *********************/
  23:Drivers/lvgl/lvgl/src/widgets/lv_btnmatrix.c **** #define MY_CLASS &lv_btnmatrix_class
  24:Drivers/lvgl/lvgl/src/widgets/lv_btnmatrix.c **** 
  25:Drivers/lvgl/lvgl/src/widgets/lv_btnmatrix.c **** #define BTN_EXTRA_CLICK_AREA_MAX (LV_DPI_DEF / 10)
  26:Drivers/lvgl/lvgl/src/widgets/lv_btnmatrix.c **** #define LV_BTNMATRIX_WIDTH_MASK 0x0007
  27:Drivers/lvgl/lvgl/src/widgets/lv_btnmatrix.c **** 
  28:Drivers/lvgl/lvgl/src/widgets/lv_btnmatrix.c **** /**********************
  29:Drivers/lvgl/lvgl/src/widgets/lv_btnmatrix.c ****  *      TYPEDEFS
  30:Drivers/lvgl/lvgl/src/widgets/lv_btnmatrix.c ****  **********************/
  31:Drivers/lvgl/lvgl/src/widgets/lv_btnmatrix.c **** 
  32:Drivers/lvgl/lvgl/src/widgets/lv_btnmatrix.c **** /**********************
  33:Drivers/lvgl/lvgl/src/widgets/lv_btnmatrix.c ****  *  STATIC PROTOTYPES
ARM GAS  /tmp/ccpV5owi.s 			page 2


  34:Drivers/lvgl/lvgl/src/widgets/lv_btnmatrix.c ****  **********************/
  35:Drivers/lvgl/lvgl/src/widgets/lv_btnmatrix.c **** static void lv_btnmatrix_constructor(const lv_obj_class_t * class_p, lv_obj_t * obj);
  36:Drivers/lvgl/lvgl/src/widgets/lv_btnmatrix.c **** static void lv_btnmatrix_destructor(const lv_obj_class_t * class_p, lv_obj_t * obj);
  37:Drivers/lvgl/lvgl/src/widgets/lv_btnmatrix.c **** static void lv_btnmatrix_event(const lv_obj_class_t * class_p, lv_event_t * e);
  38:Drivers/lvgl/lvgl/src/widgets/lv_btnmatrix.c **** static void draw_main(lv_event_t * e);
  39:Drivers/lvgl/lvgl/src/widgets/lv_btnmatrix.c **** 
  40:Drivers/lvgl/lvgl/src/widgets/lv_btnmatrix.c **** static uint8_t get_button_width(lv_btnmatrix_ctrl_t ctrl_bits);
  41:Drivers/lvgl/lvgl/src/widgets/lv_btnmatrix.c **** static bool button_is_hidden(lv_btnmatrix_ctrl_t ctrl_bits);
  42:Drivers/lvgl/lvgl/src/widgets/lv_btnmatrix.c **** static bool button_is_checked(lv_btnmatrix_ctrl_t ctrl_bits);
  43:Drivers/lvgl/lvgl/src/widgets/lv_btnmatrix.c **** static bool button_is_repeat_disabled(lv_btnmatrix_ctrl_t ctrl_bits);
  44:Drivers/lvgl/lvgl/src/widgets/lv_btnmatrix.c **** static bool button_is_inactive(lv_btnmatrix_ctrl_t ctrl_bits);
  45:Drivers/lvgl/lvgl/src/widgets/lv_btnmatrix.c **** static bool button_is_click_trig(lv_btnmatrix_ctrl_t ctrl_bits);
  46:Drivers/lvgl/lvgl/src/widgets/lv_btnmatrix.c **** static bool button_is_popover(lv_btnmatrix_ctrl_t ctrl_bits);
  47:Drivers/lvgl/lvgl/src/widgets/lv_btnmatrix.c **** static bool button_is_checkable(lv_btnmatrix_ctrl_t ctrl_bits);
  48:Drivers/lvgl/lvgl/src/widgets/lv_btnmatrix.c **** static bool button_is_recolor(lv_btnmatrix_ctrl_t ctrl_bits);
  49:Drivers/lvgl/lvgl/src/widgets/lv_btnmatrix.c **** static bool button_get_checked(lv_btnmatrix_ctrl_t ctrl_bits);
  50:Drivers/lvgl/lvgl/src/widgets/lv_btnmatrix.c **** static uint16_t get_button_from_point(lv_obj_t * obj, lv_point_t * p);
  51:Drivers/lvgl/lvgl/src/widgets/lv_btnmatrix.c **** static void allocate_btn_areas_and_controls(const lv_obj_t * obj, const char ** map);
  52:Drivers/lvgl/lvgl/src/widgets/lv_btnmatrix.c **** static void invalidate_button_area(const lv_obj_t * obj, uint16_t btn_idx);
  53:Drivers/lvgl/lvgl/src/widgets/lv_btnmatrix.c **** static void make_one_button_checked(lv_obj_t * obj, uint16_t btn_idx);
  54:Drivers/lvgl/lvgl/src/widgets/lv_btnmatrix.c **** static bool has_popovers_in_top_row(lv_obj_t * obj);
  55:Drivers/lvgl/lvgl/src/widgets/lv_btnmatrix.c **** 
  56:Drivers/lvgl/lvgl/src/widgets/lv_btnmatrix.c **** /**********************
  57:Drivers/lvgl/lvgl/src/widgets/lv_btnmatrix.c ****  *  STATIC VARIABLES
  58:Drivers/lvgl/lvgl/src/widgets/lv_btnmatrix.c ****  **********************/
  59:Drivers/lvgl/lvgl/src/widgets/lv_btnmatrix.c **** static const char * lv_btnmatrix_def_map[] = {"Btn1", "Btn2", "Btn3", "\n", "Btn4", "Btn5", ""};
  60:Drivers/lvgl/lvgl/src/widgets/lv_btnmatrix.c **** 
  61:Drivers/lvgl/lvgl/src/widgets/lv_btnmatrix.c **** const lv_obj_class_t lv_btnmatrix_class = {
  62:Drivers/lvgl/lvgl/src/widgets/lv_btnmatrix.c ****     .constructor_cb = lv_btnmatrix_constructor,
  63:Drivers/lvgl/lvgl/src/widgets/lv_btnmatrix.c ****     .destructor_cb = lv_btnmatrix_destructor,
  64:Drivers/lvgl/lvgl/src/widgets/lv_btnmatrix.c ****     .event_cb = lv_btnmatrix_event,
  65:Drivers/lvgl/lvgl/src/widgets/lv_btnmatrix.c ****     .width_def = LV_DPI_DEF * 2,
  66:Drivers/lvgl/lvgl/src/widgets/lv_btnmatrix.c ****     .height_def = LV_DPI_DEF,
  67:Drivers/lvgl/lvgl/src/widgets/lv_btnmatrix.c ****     .instance_size = sizeof(lv_btnmatrix_t),
  68:Drivers/lvgl/lvgl/src/widgets/lv_btnmatrix.c ****     .editable = LV_OBJ_CLASS_EDITABLE_TRUE,
  69:Drivers/lvgl/lvgl/src/widgets/lv_btnmatrix.c ****     .group_def = LV_OBJ_CLASS_GROUP_DEF_TRUE,
  70:Drivers/lvgl/lvgl/src/widgets/lv_btnmatrix.c ****     .base_class = &lv_obj_class
  71:Drivers/lvgl/lvgl/src/widgets/lv_btnmatrix.c **** };
  72:Drivers/lvgl/lvgl/src/widgets/lv_btnmatrix.c **** 
  73:Drivers/lvgl/lvgl/src/widgets/lv_btnmatrix.c **** /**********************
  74:Drivers/lvgl/lvgl/src/widgets/lv_btnmatrix.c ****  *      MACROS
  75:Drivers/lvgl/lvgl/src/widgets/lv_btnmatrix.c ****  **********************/
  76:Drivers/lvgl/lvgl/src/widgets/lv_btnmatrix.c **** 
  77:Drivers/lvgl/lvgl/src/widgets/lv_btnmatrix.c **** /**********************
  78:Drivers/lvgl/lvgl/src/widgets/lv_btnmatrix.c ****  *   GLOBAL FUNCTIONS
  79:Drivers/lvgl/lvgl/src/widgets/lv_btnmatrix.c ****  **********************/
  80:Drivers/lvgl/lvgl/src/widgets/lv_btnmatrix.c **** 
  81:Drivers/lvgl/lvgl/src/widgets/lv_btnmatrix.c **** lv_obj_t * lv_btnmatrix_create(lv_obj_t * parent)
  82:Drivers/lvgl/lvgl/src/widgets/lv_btnmatrix.c **** {
  83:Drivers/lvgl/lvgl/src/widgets/lv_btnmatrix.c ****     LV_LOG_INFO("begin");
  84:Drivers/lvgl/lvgl/src/widgets/lv_btnmatrix.c ****     lv_obj_t * obj = lv_obj_class_create_obj(MY_CLASS, parent);
  85:Drivers/lvgl/lvgl/src/widgets/lv_btnmatrix.c ****     lv_obj_class_init_obj(obj);
  86:Drivers/lvgl/lvgl/src/widgets/lv_btnmatrix.c ****     return obj;
  87:Drivers/lvgl/lvgl/src/widgets/lv_btnmatrix.c **** }
  88:Drivers/lvgl/lvgl/src/widgets/lv_btnmatrix.c **** 
  89:Drivers/lvgl/lvgl/src/widgets/lv_btnmatrix.c **** /*=====================
  90:Drivers/lvgl/lvgl/src/widgets/lv_btnmatrix.c ****  * Setter functions
ARM GAS  /tmp/ccpV5owi.s 			page 3


  91:Drivers/lvgl/lvgl/src/widgets/lv_btnmatrix.c ****  *====================*/
  92:Drivers/lvgl/lvgl/src/widgets/lv_btnmatrix.c **** 
  93:Drivers/lvgl/lvgl/src/widgets/lv_btnmatrix.c **** void lv_btnmatrix_set_map(lv_obj_t * obj, const char * map[])
  94:Drivers/lvgl/lvgl/src/widgets/lv_btnmatrix.c **** {
  95:Drivers/lvgl/lvgl/src/widgets/lv_btnmatrix.c ****     LV_ASSERT_OBJ(obj, MY_CLASS);
  96:Drivers/lvgl/lvgl/src/widgets/lv_btnmatrix.c ****     if(map == NULL) return;
  97:Drivers/lvgl/lvgl/src/widgets/lv_btnmatrix.c **** 
  98:Drivers/lvgl/lvgl/src/widgets/lv_btnmatrix.c ****     lv_btnmatrix_t * btnm = (lv_btnmatrix_t *)obj;
  99:Drivers/lvgl/lvgl/src/widgets/lv_btnmatrix.c **** 
 100:Drivers/lvgl/lvgl/src/widgets/lv_btnmatrix.c ****     /*Analyze the map and create the required number of buttons*/
 101:Drivers/lvgl/lvgl/src/widgets/lv_btnmatrix.c ****     allocate_btn_areas_and_controls(obj, map);
 102:Drivers/lvgl/lvgl/src/widgets/lv_btnmatrix.c ****     btnm->map_p = map;
 103:Drivers/lvgl/lvgl/src/widgets/lv_btnmatrix.c **** 
 104:Drivers/lvgl/lvgl/src/widgets/lv_btnmatrix.c ****     lv_base_dir_t base_dir = lv_obj_get_style_base_dir(obj, LV_PART_MAIN);
 105:Drivers/lvgl/lvgl/src/widgets/lv_btnmatrix.c **** 
 106:Drivers/lvgl/lvgl/src/widgets/lv_btnmatrix.c ****     /*Set size and positions of the buttons*/
 107:Drivers/lvgl/lvgl/src/widgets/lv_btnmatrix.c ****     lv_coord_t pleft = lv_obj_get_style_pad_left(obj, LV_PART_MAIN);
 108:Drivers/lvgl/lvgl/src/widgets/lv_btnmatrix.c ****     lv_coord_t ptop = lv_obj_get_style_pad_top(obj, LV_PART_MAIN);
 109:Drivers/lvgl/lvgl/src/widgets/lv_btnmatrix.c ****     lv_coord_t prow = lv_obj_get_style_pad_row(obj, LV_PART_MAIN);
 110:Drivers/lvgl/lvgl/src/widgets/lv_btnmatrix.c ****     lv_coord_t pcol = lv_obj_get_style_pad_column(obj, LV_PART_MAIN);
 111:Drivers/lvgl/lvgl/src/widgets/lv_btnmatrix.c **** 
 112:Drivers/lvgl/lvgl/src/widgets/lv_btnmatrix.c ****     lv_coord_t max_w            = lv_obj_get_content_width(obj);
 113:Drivers/lvgl/lvgl/src/widgets/lv_btnmatrix.c ****     lv_coord_t max_h            = lv_obj_get_content_height(obj);
 114:Drivers/lvgl/lvgl/src/widgets/lv_btnmatrix.c **** 
 115:Drivers/lvgl/lvgl/src/widgets/lv_btnmatrix.c ****     /*Calculate the position of each row*/
 116:Drivers/lvgl/lvgl/src/widgets/lv_btnmatrix.c ****     lv_coord_t max_h_no_gap = max_h - (prow * (btnm->row_cnt - 1));
 117:Drivers/lvgl/lvgl/src/widgets/lv_btnmatrix.c **** 
 118:Drivers/lvgl/lvgl/src/widgets/lv_btnmatrix.c ****     /*Count the units and the buttons in a line
 119:Drivers/lvgl/lvgl/src/widgets/lv_btnmatrix.c ****      *(A button can be 1,2,3... unit wide)*/
 120:Drivers/lvgl/lvgl/src/widgets/lv_btnmatrix.c ****     uint32_t txt_tot_i = 0; /*Act. index in the str map*/
 121:Drivers/lvgl/lvgl/src/widgets/lv_btnmatrix.c ****     uint32_t btn_tot_i = 0; /*Act. index of button areas*/
 122:Drivers/lvgl/lvgl/src/widgets/lv_btnmatrix.c ****     const char ** map_row = map;
 123:Drivers/lvgl/lvgl/src/widgets/lv_btnmatrix.c **** 
 124:Drivers/lvgl/lvgl/src/widgets/lv_btnmatrix.c ****     /*Count the units and the buttons in a line*/
 125:Drivers/lvgl/lvgl/src/widgets/lv_btnmatrix.c ****     uint32_t row;
 126:Drivers/lvgl/lvgl/src/widgets/lv_btnmatrix.c ****     for(row = 0; row < btnm->row_cnt; row++) {
 127:Drivers/lvgl/lvgl/src/widgets/lv_btnmatrix.c ****         uint16_t unit_cnt = 0;           /*Number of units in a row*/
 128:Drivers/lvgl/lvgl/src/widgets/lv_btnmatrix.c ****         uint16_t btn_cnt = 0;            /*Number of buttons in a row*/
 129:Drivers/lvgl/lvgl/src/widgets/lv_btnmatrix.c ****         /*Count the buttons and units in this row*/
 130:Drivers/lvgl/lvgl/src/widgets/lv_btnmatrix.c ****         while(map_row[btn_cnt] && strcmp(map_row[btn_cnt], "\n") != 0 && map_row[btn_cnt][0] != '\0
 131:Drivers/lvgl/lvgl/src/widgets/lv_btnmatrix.c ****             unit_cnt += get_button_width(btnm->ctrl_bits[btn_tot_i + btn_cnt]);
 132:Drivers/lvgl/lvgl/src/widgets/lv_btnmatrix.c ****             btn_cnt++;
 133:Drivers/lvgl/lvgl/src/widgets/lv_btnmatrix.c ****         }
 134:Drivers/lvgl/lvgl/src/widgets/lv_btnmatrix.c **** 
 135:Drivers/lvgl/lvgl/src/widgets/lv_btnmatrix.c ****         /*Only deal with the non empty lines*/
 136:Drivers/lvgl/lvgl/src/widgets/lv_btnmatrix.c ****         if(btn_cnt == 0) {
 137:Drivers/lvgl/lvgl/src/widgets/lv_btnmatrix.c ****             map_row = &map_row[btn_cnt + 1];       /*Set the map to the next row*/
 138:Drivers/lvgl/lvgl/src/widgets/lv_btnmatrix.c ****             continue;
 139:Drivers/lvgl/lvgl/src/widgets/lv_btnmatrix.c ****         }
 140:Drivers/lvgl/lvgl/src/widgets/lv_btnmatrix.c **** 
 141:Drivers/lvgl/lvgl/src/widgets/lv_btnmatrix.c ****         lv_coord_t row_y1 = ptop + (max_h_no_gap * row) / btnm->row_cnt + row * prow;
 142:Drivers/lvgl/lvgl/src/widgets/lv_btnmatrix.c ****         lv_coord_t row_y2 = ptop + (max_h_no_gap * (row + 1)) / btnm->row_cnt + row * prow - 1;
 143:Drivers/lvgl/lvgl/src/widgets/lv_btnmatrix.c **** 
 144:Drivers/lvgl/lvgl/src/widgets/lv_btnmatrix.c ****         /*Set the button size and positions*/
 145:Drivers/lvgl/lvgl/src/widgets/lv_btnmatrix.c ****         lv_coord_t max_w_no_gap = max_w - (pcol * (btn_cnt - 1));
 146:Drivers/lvgl/lvgl/src/widgets/lv_btnmatrix.c ****         if(max_w_no_gap < 0) max_w_no_gap = 0;
 147:Drivers/lvgl/lvgl/src/widgets/lv_btnmatrix.c **** 
ARM GAS  /tmp/ccpV5owi.s 			page 4


 148:Drivers/lvgl/lvgl/src/widgets/lv_btnmatrix.c ****         uint32_t row_unit_cnt = 0;  /*The current unit position in the row*/
 149:Drivers/lvgl/lvgl/src/widgets/lv_btnmatrix.c ****         uint32_t btn;
 150:Drivers/lvgl/lvgl/src/widgets/lv_btnmatrix.c ****         for(btn = 0; btn < btn_cnt; btn++, btn_tot_i++, txt_tot_i++) {
 151:Drivers/lvgl/lvgl/src/widgets/lv_btnmatrix.c ****             uint32_t btn_u = get_button_width(btnm->ctrl_bits[btn_tot_i]);
 152:Drivers/lvgl/lvgl/src/widgets/lv_btnmatrix.c **** 
 153:Drivers/lvgl/lvgl/src/widgets/lv_btnmatrix.c ****             lv_coord_t btn_x1 = (max_w_no_gap * row_unit_cnt) / unit_cnt + btn * pcol;
 154:Drivers/lvgl/lvgl/src/widgets/lv_btnmatrix.c ****             lv_coord_t btn_x2 = (max_w_no_gap * (row_unit_cnt + btn_u)) / unit_cnt + btn * pcol - 1
 155:Drivers/lvgl/lvgl/src/widgets/lv_btnmatrix.c **** 
 156:Drivers/lvgl/lvgl/src/widgets/lv_btnmatrix.c ****             /*If RTL start from the right*/
 157:Drivers/lvgl/lvgl/src/widgets/lv_btnmatrix.c ****             if(base_dir == LV_BASE_DIR_RTL) {
 158:Drivers/lvgl/lvgl/src/widgets/lv_btnmatrix.c ****                 lv_coord_t tmp = btn_x1;
 159:Drivers/lvgl/lvgl/src/widgets/lv_btnmatrix.c ****                 btn_x1 = btn_x2;
 160:Drivers/lvgl/lvgl/src/widgets/lv_btnmatrix.c ****                 btn_x2 = tmp;
 161:Drivers/lvgl/lvgl/src/widgets/lv_btnmatrix.c **** 
 162:Drivers/lvgl/lvgl/src/widgets/lv_btnmatrix.c ****                 btn_x1 = max_w - btn_x1;
 163:Drivers/lvgl/lvgl/src/widgets/lv_btnmatrix.c ****                 btn_x2 = max_w - btn_x2;
 164:Drivers/lvgl/lvgl/src/widgets/lv_btnmatrix.c ****             }
 165:Drivers/lvgl/lvgl/src/widgets/lv_btnmatrix.c **** 
 166:Drivers/lvgl/lvgl/src/widgets/lv_btnmatrix.c ****             btn_x1 += pleft;
 167:Drivers/lvgl/lvgl/src/widgets/lv_btnmatrix.c ****             btn_x2 += pleft;
 168:Drivers/lvgl/lvgl/src/widgets/lv_btnmatrix.c **** 
 169:Drivers/lvgl/lvgl/src/widgets/lv_btnmatrix.c ****             lv_area_set(&btnm->button_areas[btn_tot_i], btn_x1, row_y1, btn_x2, row_y2);
 170:Drivers/lvgl/lvgl/src/widgets/lv_btnmatrix.c **** 
 171:Drivers/lvgl/lvgl/src/widgets/lv_btnmatrix.c ****             row_unit_cnt += btn_u;
 172:Drivers/lvgl/lvgl/src/widgets/lv_btnmatrix.c ****         }
 173:Drivers/lvgl/lvgl/src/widgets/lv_btnmatrix.c **** 
 174:Drivers/lvgl/lvgl/src/widgets/lv_btnmatrix.c ****         map_row = &map_row[btn_cnt + 1];       /*Set the map to the next line*/
 175:Drivers/lvgl/lvgl/src/widgets/lv_btnmatrix.c ****     }
 176:Drivers/lvgl/lvgl/src/widgets/lv_btnmatrix.c **** 
 177:Drivers/lvgl/lvgl/src/widgets/lv_btnmatrix.c ****     /*Popovers in the top row will draw outside the widget and the extended draw size depends on
 178:Drivers/lvgl/lvgl/src/widgets/lv_btnmatrix.c ****      *the row height which may have changed when setting the new map*/
 179:Drivers/lvgl/lvgl/src/widgets/lv_btnmatrix.c ****     lv_obj_refresh_ext_draw_size(obj);
 180:Drivers/lvgl/lvgl/src/widgets/lv_btnmatrix.c **** 
 181:Drivers/lvgl/lvgl/src/widgets/lv_btnmatrix.c ****     lv_obj_invalidate(obj);
 182:Drivers/lvgl/lvgl/src/widgets/lv_btnmatrix.c **** }
 183:Drivers/lvgl/lvgl/src/widgets/lv_btnmatrix.c **** 
 184:Drivers/lvgl/lvgl/src/widgets/lv_btnmatrix.c **** void lv_btnmatrix_set_ctrl_map(lv_obj_t * obj, const lv_btnmatrix_ctrl_t ctrl_map[])
 185:Drivers/lvgl/lvgl/src/widgets/lv_btnmatrix.c **** {
 186:Drivers/lvgl/lvgl/src/widgets/lv_btnmatrix.c ****     LV_ASSERT_OBJ(obj, MY_CLASS);
 187:Drivers/lvgl/lvgl/src/widgets/lv_btnmatrix.c **** 
 188:Drivers/lvgl/lvgl/src/widgets/lv_btnmatrix.c ****     lv_btnmatrix_t * btnm = (lv_btnmatrix_t *)obj;
 189:Drivers/lvgl/lvgl/src/widgets/lv_btnmatrix.c ****     lv_memcpy(btnm->ctrl_bits, ctrl_map, sizeof(lv_btnmatrix_ctrl_t) * btnm->btn_cnt);
 190:Drivers/lvgl/lvgl/src/widgets/lv_btnmatrix.c **** 
 191:Drivers/lvgl/lvgl/src/widgets/lv_btnmatrix.c ****     lv_btnmatrix_set_map(obj, btnm->map_p);
 192:Drivers/lvgl/lvgl/src/widgets/lv_btnmatrix.c **** }
 193:Drivers/lvgl/lvgl/src/widgets/lv_btnmatrix.c **** 
 194:Drivers/lvgl/lvgl/src/widgets/lv_btnmatrix.c **** void lv_btnmatrix_set_selected_btn(lv_obj_t * obj, uint16_t btn_id)
 195:Drivers/lvgl/lvgl/src/widgets/lv_btnmatrix.c **** {
 196:Drivers/lvgl/lvgl/src/widgets/lv_btnmatrix.c ****     LV_ASSERT_OBJ(obj, MY_CLASS);
 197:Drivers/lvgl/lvgl/src/widgets/lv_btnmatrix.c **** 
 198:Drivers/lvgl/lvgl/src/widgets/lv_btnmatrix.c ****     lv_btnmatrix_t * btnm = (lv_btnmatrix_t *)obj;
 199:Drivers/lvgl/lvgl/src/widgets/lv_btnmatrix.c **** 
 200:Drivers/lvgl/lvgl/src/widgets/lv_btnmatrix.c ****     if(btn_id >= btnm->btn_cnt && btn_id != LV_BTNMATRIX_BTN_NONE) return;
 201:Drivers/lvgl/lvgl/src/widgets/lv_btnmatrix.c **** 
 202:Drivers/lvgl/lvgl/src/widgets/lv_btnmatrix.c ****     invalidate_button_area(obj, btnm->btn_id_sel);
 203:Drivers/lvgl/lvgl/src/widgets/lv_btnmatrix.c ****     btnm->btn_id_sel = btn_id;
 204:Drivers/lvgl/lvgl/src/widgets/lv_btnmatrix.c ****     invalidate_button_area(obj, btn_id);
ARM GAS  /tmp/ccpV5owi.s 			page 5


 205:Drivers/lvgl/lvgl/src/widgets/lv_btnmatrix.c **** }
 206:Drivers/lvgl/lvgl/src/widgets/lv_btnmatrix.c **** 
 207:Drivers/lvgl/lvgl/src/widgets/lv_btnmatrix.c **** void lv_btnmatrix_set_btn_ctrl(lv_obj_t * obj, uint16_t btn_id, lv_btnmatrix_ctrl_t ctrl)
 208:Drivers/lvgl/lvgl/src/widgets/lv_btnmatrix.c **** {
 209:Drivers/lvgl/lvgl/src/widgets/lv_btnmatrix.c ****     LV_ASSERT_OBJ(obj, MY_CLASS);
 210:Drivers/lvgl/lvgl/src/widgets/lv_btnmatrix.c **** 
 211:Drivers/lvgl/lvgl/src/widgets/lv_btnmatrix.c ****     lv_btnmatrix_t * btnm = (lv_btnmatrix_t *)obj;;
 212:Drivers/lvgl/lvgl/src/widgets/lv_btnmatrix.c **** 
 213:Drivers/lvgl/lvgl/src/widgets/lv_btnmatrix.c ****     if(btn_id >= btnm->btn_cnt) return;
 214:Drivers/lvgl/lvgl/src/widgets/lv_btnmatrix.c **** 
 215:Drivers/lvgl/lvgl/src/widgets/lv_btnmatrix.c ****     if(btnm->one_check && (ctrl & LV_BTNMATRIX_CTRL_CHECKED)) {
 216:Drivers/lvgl/lvgl/src/widgets/lv_btnmatrix.c ****         lv_btnmatrix_clear_btn_ctrl_all(obj, LV_BTNMATRIX_CTRL_CHECKED);
 217:Drivers/lvgl/lvgl/src/widgets/lv_btnmatrix.c ****     }
 218:Drivers/lvgl/lvgl/src/widgets/lv_btnmatrix.c **** 
 219:Drivers/lvgl/lvgl/src/widgets/lv_btnmatrix.c ****     btnm->ctrl_bits[btn_id] |= ctrl;
 220:Drivers/lvgl/lvgl/src/widgets/lv_btnmatrix.c ****     invalidate_button_area(obj, btn_id);
 221:Drivers/lvgl/lvgl/src/widgets/lv_btnmatrix.c **** 
 222:Drivers/lvgl/lvgl/src/widgets/lv_btnmatrix.c ****     if(ctrl & LV_BTNMATRIX_CTRL_POPOVER) {
 223:Drivers/lvgl/lvgl/src/widgets/lv_btnmatrix.c ****         lv_obj_refresh_ext_draw_size(obj);
 224:Drivers/lvgl/lvgl/src/widgets/lv_btnmatrix.c ****     }
 225:Drivers/lvgl/lvgl/src/widgets/lv_btnmatrix.c **** }
 226:Drivers/lvgl/lvgl/src/widgets/lv_btnmatrix.c **** 
 227:Drivers/lvgl/lvgl/src/widgets/lv_btnmatrix.c **** void lv_btnmatrix_clear_btn_ctrl(lv_obj_t * obj, uint16_t btn_id, lv_btnmatrix_ctrl_t ctrl)
 228:Drivers/lvgl/lvgl/src/widgets/lv_btnmatrix.c **** {
 229:Drivers/lvgl/lvgl/src/widgets/lv_btnmatrix.c ****     LV_ASSERT_OBJ(obj, MY_CLASS);
 230:Drivers/lvgl/lvgl/src/widgets/lv_btnmatrix.c **** 
 231:Drivers/lvgl/lvgl/src/widgets/lv_btnmatrix.c ****     lv_btnmatrix_t * btnm = (lv_btnmatrix_t *)obj;;
 232:Drivers/lvgl/lvgl/src/widgets/lv_btnmatrix.c **** 
 233:Drivers/lvgl/lvgl/src/widgets/lv_btnmatrix.c ****     if(btn_id >= btnm->btn_cnt) return;
 234:Drivers/lvgl/lvgl/src/widgets/lv_btnmatrix.c **** 
 235:Drivers/lvgl/lvgl/src/widgets/lv_btnmatrix.c ****     btnm->ctrl_bits[btn_id] &= (~ctrl);
 236:Drivers/lvgl/lvgl/src/widgets/lv_btnmatrix.c ****     invalidate_button_area(obj, btn_id);
 237:Drivers/lvgl/lvgl/src/widgets/lv_btnmatrix.c **** 
 238:Drivers/lvgl/lvgl/src/widgets/lv_btnmatrix.c ****     if(ctrl & LV_BTNMATRIX_CTRL_POPOVER) {
 239:Drivers/lvgl/lvgl/src/widgets/lv_btnmatrix.c ****         lv_obj_refresh_ext_draw_size(obj);
 240:Drivers/lvgl/lvgl/src/widgets/lv_btnmatrix.c ****     }
 241:Drivers/lvgl/lvgl/src/widgets/lv_btnmatrix.c **** }
 242:Drivers/lvgl/lvgl/src/widgets/lv_btnmatrix.c **** 
 243:Drivers/lvgl/lvgl/src/widgets/lv_btnmatrix.c **** void lv_btnmatrix_set_btn_ctrl_all(lv_obj_t * obj, lv_btnmatrix_ctrl_t ctrl)
 244:Drivers/lvgl/lvgl/src/widgets/lv_btnmatrix.c **** {
 245:Drivers/lvgl/lvgl/src/widgets/lv_btnmatrix.c ****     LV_ASSERT_OBJ(obj, MY_CLASS);
 246:Drivers/lvgl/lvgl/src/widgets/lv_btnmatrix.c **** 
 247:Drivers/lvgl/lvgl/src/widgets/lv_btnmatrix.c ****     lv_btnmatrix_t * btnm = (lv_btnmatrix_t *)obj;;
 248:Drivers/lvgl/lvgl/src/widgets/lv_btnmatrix.c ****     uint16_t i;
 249:Drivers/lvgl/lvgl/src/widgets/lv_btnmatrix.c ****     for(i = 0; i < btnm->btn_cnt; i++) {
 250:Drivers/lvgl/lvgl/src/widgets/lv_btnmatrix.c ****         lv_btnmatrix_set_btn_ctrl(obj, i, ctrl);
 251:Drivers/lvgl/lvgl/src/widgets/lv_btnmatrix.c ****     }
 252:Drivers/lvgl/lvgl/src/widgets/lv_btnmatrix.c **** }
 253:Drivers/lvgl/lvgl/src/widgets/lv_btnmatrix.c **** 
 254:Drivers/lvgl/lvgl/src/widgets/lv_btnmatrix.c **** void lv_btnmatrix_clear_btn_ctrl_all(lv_obj_t * obj, lv_btnmatrix_ctrl_t ctrl)
 255:Drivers/lvgl/lvgl/src/widgets/lv_btnmatrix.c **** {
 256:Drivers/lvgl/lvgl/src/widgets/lv_btnmatrix.c ****     LV_ASSERT_OBJ(obj, MY_CLASS);
 257:Drivers/lvgl/lvgl/src/widgets/lv_btnmatrix.c **** 
 258:Drivers/lvgl/lvgl/src/widgets/lv_btnmatrix.c ****     lv_btnmatrix_t * btnm = (lv_btnmatrix_t *)obj;;
 259:Drivers/lvgl/lvgl/src/widgets/lv_btnmatrix.c ****     uint16_t i;
 260:Drivers/lvgl/lvgl/src/widgets/lv_btnmatrix.c ****     for(i = 0; i < btnm->btn_cnt; i++) {
 261:Drivers/lvgl/lvgl/src/widgets/lv_btnmatrix.c ****         lv_btnmatrix_clear_btn_ctrl(obj, i, ctrl);
ARM GAS  /tmp/ccpV5owi.s 			page 6


 262:Drivers/lvgl/lvgl/src/widgets/lv_btnmatrix.c ****     }
 263:Drivers/lvgl/lvgl/src/widgets/lv_btnmatrix.c **** }
 264:Drivers/lvgl/lvgl/src/widgets/lv_btnmatrix.c **** 
 265:Drivers/lvgl/lvgl/src/widgets/lv_btnmatrix.c **** void lv_btnmatrix_set_btn_width(lv_obj_t * obj, uint16_t btn_id, uint8_t width)
 266:Drivers/lvgl/lvgl/src/widgets/lv_btnmatrix.c **** {
 267:Drivers/lvgl/lvgl/src/widgets/lv_btnmatrix.c ****     LV_ASSERT_OBJ(obj, MY_CLASS);
 268:Drivers/lvgl/lvgl/src/widgets/lv_btnmatrix.c **** 
 269:Drivers/lvgl/lvgl/src/widgets/lv_btnmatrix.c ****     lv_btnmatrix_t * btnm = (lv_btnmatrix_t *)obj;;
 270:Drivers/lvgl/lvgl/src/widgets/lv_btnmatrix.c ****     if(btn_id >= btnm->btn_cnt) return;
 271:Drivers/lvgl/lvgl/src/widgets/lv_btnmatrix.c ****     btnm->ctrl_bits[btn_id] &= (~LV_BTNMATRIX_WIDTH_MASK);
 272:Drivers/lvgl/lvgl/src/widgets/lv_btnmatrix.c ****     btnm->ctrl_bits[btn_id] |= (LV_BTNMATRIX_WIDTH_MASK & width);
 273:Drivers/lvgl/lvgl/src/widgets/lv_btnmatrix.c **** 
 274:Drivers/lvgl/lvgl/src/widgets/lv_btnmatrix.c ****     lv_btnmatrix_set_map(obj, btnm->map_p);
 275:Drivers/lvgl/lvgl/src/widgets/lv_btnmatrix.c **** }
 276:Drivers/lvgl/lvgl/src/widgets/lv_btnmatrix.c **** 
 277:Drivers/lvgl/lvgl/src/widgets/lv_btnmatrix.c **** void lv_btnmatrix_set_one_checked(lv_obj_t * obj, bool en)
 278:Drivers/lvgl/lvgl/src/widgets/lv_btnmatrix.c **** {
 279:Drivers/lvgl/lvgl/src/widgets/lv_btnmatrix.c ****     LV_ASSERT_OBJ(obj, MY_CLASS);
 280:Drivers/lvgl/lvgl/src/widgets/lv_btnmatrix.c **** 
 281:Drivers/lvgl/lvgl/src/widgets/lv_btnmatrix.c ****     lv_btnmatrix_t * btnm = (lv_btnmatrix_t *)obj;;
 282:Drivers/lvgl/lvgl/src/widgets/lv_btnmatrix.c ****     btnm->one_check     = en;
 283:Drivers/lvgl/lvgl/src/widgets/lv_btnmatrix.c **** 
 284:Drivers/lvgl/lvgl/src/widgets/lv_btnmatrix.c ****     /*If more than one button is toggled only the first one should be*/
 285:Drivers/lvgl/lvgl/src/widgets/lv_btnmatrix.c ****     make_one_button_checked(obj, 0);
 286:Drivers/lvgl/lvgl/src/widgets/lv_btnmatrix.c **** }
 287:Drivers/lvgl/lvgl/src/widgets/lv_btnmatrix.c **** 
 288:Drivers/lvgl/lvgl/src/widgets/lv_btnmatrix.c **** /*=====================
 289:Drivers/lvgl/lvgl/src/widgets/lv_btnmatrix.c ****  * Getter functions
 290:Drivers/lvgl/lvgl/src/widgets/lv_btnmatrix.c ****  *====================*/
 291:Drivers/lvgl/lvgl/src/widgets/lv_btnmatrix.c **** 
 292:Drivers/lvgl/lvgl/src/widgets/lv_btnmatrix.c **** const char ** lv_btnmatrix_get_map(const lv_obj_t * obj)
 293:Drivers/lvgl/lvgl/src/widgets/lv_btnmatrix.c **** {
 294:Drivers/lvgl/lvgl/src/widgets/lv_btnmatrix.c ****     LV_ASSERT_OBJ(obj, MY_CLASS);
 295:Drivers/lvgl/lvgl/src/widgets/lv_btnmatrix.c **** 
 296:Drivers/lvgl/lvgl/src/widgets/lv_btnmatrix.c ****     lv_btnmatrix_t * btnm = (lv_btnmatrix_t *)obj;;
 297:Drivers/lvgl/lvgl/src/widgets/lv_btnmatrix.c ****     return btnm->map_p;
 298:Drivers/lvgl/lvgl/src/widgets/lv_btnmatrix.c **** }
 299:Drivers/lvgl/lvgl/src/widgets/lv_btnmatrix.c **** 
 300:Drivers/lvgl/lvgl/src/widgets/lv_btnmatrix.c **** uint16_t lv_btnmatrix_get_selected_btn(const lv_obj_t * obj)
 301:Drivers/lvgl/lvgl/src/widgets/lv_btnmatrix.c **** {
 302:Drivers/lvgl/lvgl/src/widgets/lv_btnmatrix.c ****     LV_ASSERT_OBJ(obj, MY_CLASS);
 303:Drivers/lvgl/lvgl/src/widgets/lv_btnmatrix.c **** 
 304:Drivers/lvgl/lvgl/src/widgets/lv_btnmatrix.c ****     lv_btnmatrix_t * btnm = (lv_btnmatrix_t *)obj;;
 305:Drivers/lvgl/lvgl/src/widgets/lv_btnmatrix.c ****     return btnm->btn_id_sel;
 306:Drivers/lvgl/lvgl/src/widgets/lv_btnmatrix.c **** }
 307:Drivers/lvgl/lvgl/src/widgets/lv_btnmatrix.c **** 
 308:Drivers/lvgl/lvgl/src/widgets/lv_btnmatrix.c **** const char * lv_btnmatrix_get_btn_text(const lv_obj_t * obj, uint16_t btn_id)
 309:Drivers/lvgl/lvgl/src/widgets/lv_btnmatrix.c **** {
 310:Drivers/lvgl/lvgl/src/widgets/lv_btnmatrix.c ****     LV_ASSERT_OBJ(obj, MY_CLASS);
 311:Drivers/lvgl/lvgl/src/widgets/lv_btnmatrix.c **** 
 312:Drivers/lvgl/lvgl/src/widgets/lv_btnmatrix.c ****     if(btn_id == LV_BTNMATRIX_BTN_NONE) return NULL;
 313:Drivers/lvgl/lvgl/src/widgets/lv_btnmatrix.c **** 
 314:Drivers/lvgl/lvgl/src/widgets/lv_btnmatrix.c ****     lv_btnmatrix_t * btnm = (lv_btnmatrix_t *)obj;
 315:Drivers/lvgl/lvgl/src/widgets/lv_btnmatrix.c ****     if(btn_id > btnm->btn_cnt) return NULL;
 316:Drivers/lvgl/lvgl/src/widgets/lv_btnmatrix.c **** 
 317:Drivers/lvgl/lvgl/src/widgets/lv_btnmatrix.c ****     uint16_t txt_i = 0;
 318:Drivers/lvgl/lvgl/src/widgets/lv_btnmatrix.c ****     uint16_t btn_i = 0;
ARM GAS  /tmp/ccpV5owi.s 			page 7


 319:Drivers/lvgl/lvgl/src/widgets/lv_btnmatrix.c **** 
 320:Drivers/lvgl/lvgl/src/widgets/lv_btnmatrix.c ****     /*Search the text of btnm->btn_pr the buttons text in the map
 321:Drivers/lvgl/lvgl/src/widgets/lv_btnmatrix.c ****      *Skip "\n"-s*/
 322:Drivers/lvgl/lvgl/src/widgets/lv_btnmatrix.c ****     while(btn_i != btn_id) {
 323:Drivers/lvgl/lvgl/src/widgets/lv_btnmatrix.c ****         btn_i++;
 324:Drivers/lvgl/lvgl/src/widgets/lv_btnmatrix.c ****         txt_i++;
 325:Drivers/lvgl/lvgl/src/widgets/lv_btnmatrix.c ****         if(strcmp(btnm->map_p[txt_i], "\n") == 0) txt_i++;
 326:Drivers/lvgl/lvgl/src/widgets/lv_btnmatrix.c ****     }
 327:Drivers/lvgl/lvgl/src/widgets/lv_btnmatrix.c **** 
 328:Drivers/lvgl/lvgl/src/widgets/lv_btnmatrix.c ****     if(btn_i == btnm->btn_cnt) return NULL;
 329:Drivers/lvgl/lvgl/src/widgets/lv_btnmatrix.c **** 
 330:Drivers/lvgl/lvgl/src/widgets/lv_btnmatrix.c ****     return btnm->map_p[txt_i];
 331:Drivers/lvgl/lvgl/src/widgets/lv_btnmatrix.c **** }
 332:Drivers/lvgl/lvgl/src/widgets/lv_btnmatrix.c **** 
 333:Drivers/lvgl/lvgl/src/widgets/lv_btnmatrix.c **** bool lv_btnmatrix_has_btn_ctrl(lv_obj_t * obj, uint16_t btn_id, lv_btnmatrix_ctrl_t ctrl)
 334:Drivers/lvgl/lvgl/src/widgets/lv_btnmatrix.c **** {
 335:Drivers/lvgl/lvgl/src/widgets/lv_btnmatrix.c ****     LV_ASSERT_OBJ(obj, MY_CLASS);
 336:Drivers/lvgl/lvgl/src/widgets/lv_btnmatrix.c **** 
 337:Drivers/lvgl/lvgl/src/widgets/lv_btnmatrix.c ****     lv_btnmatrix_t * btnm = (lv_btnmatrix_t *)obj;;
 338:Drivers/lvgl/lvgl/src/widgets/lv_btnmatrix.c ****     if(btn_id >= btnm->btn_cnt) return false;
 339:Drivers/lvgl/lvgl/src/widgets/lv_btnmatrix.c **** 
 340:Drivers/lvgl/lvgl/src/widgets/lv_btnmatrix.c ****     return ((btnm->ctrl_bits[btn_id] & ctrl) == ctrl) ? true : false;
 341:Drivers/lvgl/lvgl/src/widgets/lv_btnmatrix.c **** }
 342:Drivers/lvgl/lvgl/src/widgets/lv_btnmatrix.c **** 
 343:Drivers/lvgl/lvgl/src/widgets/lv_btnmatrix.c **** bool lv_btnmatrix_get_one_checked(const lv_obj_t * obj)
 344:Drivers/lvgl/lvgl/src/widgets/lv_btnmatrix.c **** {
 345:Drivers/lvgl/lvgl/src/widgets/lv_btnmatrix.c ****     LV_ASSERT_OBJ(obj, MY_CLASS);
 346:Drivers/lvgl/lvgl/src/widgets/lv_btnmatrix.c **** 
 347:Drivers/lvgl/lvgl/src/widgets/lv_btnmatrix.c ****     lv_btnmatrix_t * btnm = (lv_btnmatrix_t *)obj;;
 348:Drivers/lvgl/lvgl/src/widgets/lv_btnmatrix.c **** 
 349:Drivers/lvgl/lvgl/src/widgets/lv_btnmatrix.c ****     return btnm->one_check;
 350:Drivers/lvgl/lvgl/src/widgets/lv_btnmatrix.c **** }
 351:Drivers/lvgl/lvgl/src/widgets/lv_btnmatrix.c **** 
 352:Drivers/lvgl/lvgl/src/widgets/lv_btnmatrix.c **** /**********************
 353:Drivers/lvgl/lvgl/src/widgets/lv_btnmatrix.c ****  *   STATIC FUNCTIONS
 354:Drivers/lvgl/lvgl/src/widgets/lv_btnmatrix.c ****  **********************/
 355:Drivers/lvgl/lvgl/src/widgets/lv_btnmatrix.c **** 
 356:Drivers/lvgl/lvgl/src/widgets/lv_btnmatrix.c **** static void lv_btnmatrix_constructor(const lv_obj_class_t * class_p, lv_obj_t * obj)
 357:Drivers/lvgl/lvgl/src/widgets/lv_btnmatrix.c **** {
 358:Drivers/lvgl/lvgl/src/widgets/lv_btnmatrix.c ****     LV_UNUSED(class_p);
 359:Drivers/lvgl/lvgl/src/widgets/lv_btnmatrix.c ****     LV_TRACE_OBJ_CREATE("begin");
 360:Drivers/lvgl/lvgl/src/widgets/lv_btnmatrix.c ****     lv_btnmatrix_t * btnm = (lv_btnmatrix_t *)obj;
 361:Drivers/lvgl/lvgl/src/widgets/lv_btnmatrix.c ****     btnm->btn_cnt        = 0;
 362:Drivers/lvgl/lvgl/src/widgets/lv_btnmatrix.c ****     btnm->row_cnt        = 0;
 363:Drivers/lvgl/lvgl/src/widgets/lv_btnmatrix.c ****     btnm->btn_id_sel     = LV_BTNMATRIX_BTN_NONE;
 364:Drivers/lvgl/lvgl/src/widgets/lv_btnmatrix.c ****     btnm->button_areas   = NULL;
 365:Drivers/lvgl/lvgl/src/widgets/lv_btnmatrix.c ****     btnm->ctrl_bits      = NULL;
 366:Drivers/lvgl/lvgl/src/widgets/lv_btnmatrix.c ****     btnm->map_p          = NULL;
 367:Drivers/lvgl/lvgl/src/widgets/lv_btnmatrix.c ****     btnm->one_check      = 0;
 368:Drivers/lvgl/lvgl/src/widgets/lv_btnmatrix.c **** 
 369:Drivers/lvgl/lvgl/src/widgets/lv_btnmatrix.c ****     lv_btnmatrix_set_map(obj, lv_btnmatrix_def_map);
 370:Drivers/lvgl/lvgl/src/widgets/lv_btnmatrix.c **** 
 371:Drivers/lvgl/lvgl/src/widgets/lv_btnmatrix.c ****     LV_TRACE_OBJ_CREATE("finished");
 372:Drivers/lvgl/lvgl/src/widgets/lv_btnmatrix.c **** }
 373:Drivers/lvgl/lvgl/src/widgets/lv_btnmatrix.c **** 
 374:Drivers/lvgl/lvgl/src/widgets/lv_btnmatrix.c **** static void lv_btnmatrix_destructor(const lv_obj_class_t * class_p, lv_obj_t * obj)
 375:Drivers/lvgl/lvgl/src/widgets/lv_btnmatrix.c **** {
ARM GAS  /tmp/ccpV5owi.s 			page 8


 376:Drivers/lvgl/lvgl/src/widgets/lv_btnmatrix.c ****     LV_TRACE_OBJ_CREATE("begin");
 377:Drivers/lvgl/lvgl/src/widgets/lv_btnmatrix.c ****     LV_UNUSED(class_p);
 378:Drivers/lvgl/lvgl/src/widgets/lv_btnmatrix.c ****     lv_btnmatrix_t * btnm = (lv_btnmatrix_t *)obj;
 379:Drivers/lvgl/lvgl/src/widgets/lv_btnmatrix.c ****     lv_mem_free(btnm->button_areas);
 380:Drivers/lvgl/lvgl/src/widgets/lv_btnmatrix.c ****     lv_mem_free(btnm->ctrl_bits);
 381:Drivers/lvgl/lvgl/src/widgets/lv_btnmatrix.c ****     btnm->button_areas = NULL;
 382:Drivers/lvgl/lvgl/src/widgets/lv_btnmatrix.c ****     btnm->ctrl_bits = NULL;
 383:Drivers/lvgl/lvgl/src/widgets/lv_btnmatrix.c ****     LV_TRACE_OBJ_CREATE("finished");
 384:Drivers/lvgl/lvgl/src/widgets/lv_btnmatrix.c **** }
 385:Drivers/lvgl/lvgl/src/widgets/lv_btnmatrix.c **** 
 386:Drivers/lvgl/lvgl/src/widgets/lv_btnmatrix.c **** static void lv_btnmatrix_event(const lv_obj_class_t * class_p, lv_event_t * e)
 387:Drivers/lvgl/lvgl/src/widgets/lv_btnmatrix.c **** {
 388:Drivers/lvgl/lvgl/src/widgets/lv_btnmatrix.c ****     LV_UNUSED(class_p);
 389:Drivers/lvgl/lvgl/src/widgets/lv_btnmatrix.c **** 
 390:Drivers/lvgl/lvgl/src/widgets/lv_btnmatrix.c ****     lv_res_t res;
 391:Drivers/lvgl/lvgl/src/widgets/lv_btnmatrix.c **** 
 392:Drivers/lvgl/lvgl/src/widgets/lv_btnmatrix.c ****     /*Call the ancestor's event handler*/
 393:Drivers/lvgl/lvgl/src/widgets/lv_btnmatrix.c ****     res = lv_obj_event_base(MY_CLASS, e);
 394:Drivers/lvgl/lvgl/src/widgets/lv_btnmatrix.c ****     if(res != LV_RES_OK) return;
 395:Drivers/lvgl/lvgl/src/widgets/lv_btnmatrix.c **** 
 396:Drivers/lvgl/lvgl/src/widgets/lv_btnmatrix.c ****     lv_event_code_t code = lv_event_get_code(e);
 397:Drivers/lvgl/lvgl/src/widgets/lv_btnmatrix.c ****     lv_obj_t * obj = lv_event_get_target(e);
 398:Drivers/lvgl/lvgl/src/widgets/lv_btnmatrix.c ****     lv_btnmatrix_t * btnm = (lv_btnmatrix_t *)obj;
 399:Drivers/lvgl/lvgl/src/widgets/lv_btnmatrix.c ****     lv_point_t p;
 400:Drivers/lvgl/lvgl/src/widgets/lv_btnmatrix.c **** 
 401:Drivers/lvgl/lvgl/src/widgets/lv_btnmatrix.c ****     if(code == LV_EVENT_REFR_EXT_DRAW_SIZE) {
 402:Drivers/lvgl/lvgl/src/widgets/lv_btnmatrix.c ****         if(has_popovers_in_top_row(obj)) {
 403:Drivers/lvgl/lvgl/src/widgets/lv_btnmatrix.c ****             /*reserve one row worth of extra space to account for popovers in the top row*/
 404:Drivers/lvgl/lvgl/src/widgets/lv_btnmatrix.c ****             lv_coord_t s = btnm->row_cnt > 0 ? lv_obj_get_content_height(obj) / btnm->row_cnt : 0;
 405:Drivers/lvgl/lvgl/src/widgets/lv_btnmatrix.c ****             lv_event_set_ext_draw_size(e, s);
 406:Drivers/lvgl/lvgl/src/widgets/lv_btnmatrix.c ****         }
 407:Drivers/lvgl/lvgl/src/widgets/lv_btnmatrix.c ****     }
 408:Drivers/lvgl/lvgl/src/widgets/lv_btnmatrix.c ****     if(code == LV_EVENT_STYLE_CHANGED) {
 409:Drivers/lvgl/lvgl/src/widgets/lv_btnmatrix.c ****         lv_btnmatrix_set_map(obj, btnm->map_p);
 410:Drivers/lvgl/lvgl/src/widgets/lv_btnmatrix.c ****     }
 411:Drivers/lvgl/lvgl/src/widgets/lv_btnmatrix.c ****     else if(code == LV_EVENT_SIZE_CHANGED) {
 412:Drivers/lvgl/lvgl/src/widgets/lv_btnmatrix.c ****         lv_btnmatrix_set_map(obj, btnm->map_p);
 413:Drivers/lvgl/lvgl/src/widgets/lv_btnmatrix.c ****     }
 414:Drivers/lvgl/lvgl/src/widgets/lv_btnmatrix.c ****     else if(code == LV_EVENT_PRESSED) {
 415:Drivers/lvgl/lvgl/src/widgets/lv_btnmatrix.c ****         void * param = lv_event_get_param(e);
 416:Drivers/lvgl/lvgl/src/widgets/lv_btnmatrix.c ****         invalidate_button_area(obj, btnm->btn_id_sel);
 417:Drivers/lvgl/lvgl/src/widgets/lv_btnmatrix.c **** 
 418:Drivers/lvgl/lvgl/src/widgets/lv_btnmatrix.c ****         lv_indev_type_t indev_type = lv_indev_get_type(lv_indev_get_act());
 419:Drivers/lvgl/lvgl/src/widgets/lv_btnmatrix.c ****         if(indev_type == LV_INDEV_TYPE_POINTER || indev_type == LV_INDEV_TYPE_BUTTON) {
 420:Drivers/lvgl/lvgl/src/widgets/lv_btnmatrix.c ****             uint16_t btn_pr;
 421:Drivers/lvgl/lvgl/src/widgets/lv_btnmatrix.c ****             /*Search the pressed area*/
 422:Drivers/lvgl/lvgl/src/widgets/lv_btnmatrix.c ****             lv_indev_get_point(param, &p);
 423:Drivers/lvgl/lvgl/src/widgets/lv_btnmatrix.c ****             btn_pr = get_button_from_point(obj, &p);
 424:Drivers/lvgl/lvgl/src/widgets/lv_btnmatrix.c ****             /*Handle the case where there is no button there*/
 425:Drivers/lvgl/lvgl/src/widgets/lv_btnmatrix.c ****             if(btn_pr != LV_BTNMATRIX_BTN_NONE) {
 426:Drivers/lvgl/lvgl/src/widgets/lv_btnmatrix.c ****                 if(button_is_inactive(btnm->ctrl_bits[btn_pr]) == false &&
 427:Drivers/lvgl/lvgl/src/widgets/lv_btnmatrix.c ****                    button_is_hidden(btnm->ctrl_bits[btn_pr]) == false) {
 428:Drivers/lvgl/lvgl/src/widgets/lv_btnmatrix.c ****                     btnm->btn_id_sel = btn_pr;
 429:Drivers/lvgl/lvgl/src/widgets/lv_btnmatrix.c ****                     invalidate_button_area(obj, btnm->btn_id_sel); /*Invalidate the new area*/
 430:Drivers/lvgl/lvgl/src/widgets/lv_btnmatrix.c ****                 }
 431:Drivers/lvgl/lvgl/src/widgets/lv_btnmatrix.c ****             }
 432:Drivers/lvgl/lvgl/src/widgets/lv_btnmatrix.c ****         }
ARM GAS  /tmp/ccpV5owi.s 			page 9


 433:Drivers/lvgl/lvgl/src/widgets/lv_btnmatrix.c **** 
 434:Drivers/lvgl/lvgl/src/widgets/lv_btnmatrix.c ****         if(btnm->btn_id_sel != LV_BTNMATRIX_BTN_NONE) {
 435:Drivers/lvgl/lvgl/src/widgets/lv_btnmatrix.c ****             if(button_is_click_trig(btnm->ctrl_bits[btnm->btn_id_sel]) == false &&
 436:Drivers/lvgl/lvgl/src/widgets/lv_btnmatrix.c ****                button_is_popover(btnm->ctrl_bits[btnm->btn_id_sel]) == false &&
 437:Drivers/lvgl/lvgl/src/widgets/lv_btnmatrix.c ****                button_is_inactive(btnm->ctrl_bits[btnm->btn_id_sel]) == false &&
 438:Drivers/lvgl/lvgl/src/widgets/lv_btnmatrix.c ****                button_is_hidden(btnm->ctrl_bits[btnm->btn_id_sel]) == false) {
 439:Drivers/lvgl/lvgl/src/widgets/lv_btnmatrix.c ****                 uint32_t b = btnm->btn_id_sel;
 440:Drivers/lvgl/lvgl/src/widgets/lv_btnmatrix.c ****                 res        = lv_event_send(obj, LV_EVENT_VALUE_CHANGED, &b);
 441:Drivers/lvgl/lvgl/src/widgets/lv_btnmatrix.c ****                 if(res != LV_RES_OK) return;
 442:Drivers/lvgl/lvgl/src/widgets/lv_btnmatrix.c ****             }
 443:Drivers/lvgl/lvgl/src/widgets/lv_btnmatrix.c ****         }
 444:Drivers/lvgl/lvgl/src/widgets/lv_btnmatrix.c ****     }
 445:Drivers/lvgl/lvgl/src/widgets/lv_btnmatrix.c ****     else if(code == LV_EVENT_PRESSING) {
 446:Drivers/lvgl/lvgl/src/widgets/lv_btnmatrix.c ****         void * param = lv_event_get_param(e);
 447:Drivers/lvgl/lvgl/src/widgets/lv_btnmatrix.c ****         uint16_t btn_pr = LV_BTNMATRIX_BTN_NONE;
 448:Drivers/lvgl/lvgl/src/widgets/lv_btnmatrix.c ****         /*Search the pressed area*/
 449:Drivers/lvgl/lvgl/src/widgets/lv_btnmatrix.c ****         lv_indev_t * indev = lv_indev_get_act();
 450:Drivers/lvgl/lvgl/src/widgets/lv_btnmatrix.c ****         lv_indev_type_t indev_type = lv_indev_get_type(indev);
 451:Drivers/lvgl/lvgl/src/widgets/lv_btnmatrix.c ****         if(indev_type == LV_INDEV_TYPE_ENCODER || indev_type == LV_INDEV_TYPE_KEYPAD) return;
 452:Drivers/lvgl/lvgl/src/widgets/lv_btnmatrix.c **** 
 453:Drivers/lvgl/lvgl/src/widgets/lv_btnmatrix.c ****         lv_indev_get_point(indev, &p);
 454:Drivers/lvgl/lvgl/src/widgets/lv_btnmatrix.c ****         btn_pr = get_button_from_point(obj, &p);
 455:Drivers/lvgl/lvgl/src/widgets/lv_btnmatrix.c ****         /*Invalidate to old and the new areas*/
 456:Drivers/lvgl/lvgl/src/widgets/lv_btnmatrix.c ****         if(btn_pr != btnm->btn_id_sel) {
 457:Drivers/lvgl/lvgl/src/widgets/lv_btnmatrix.c ****             if(btnm->btn_id_sel != LV_BTNMATRIX_BTN_NONE) {
 458:Drivers/lvgl/lvgl/src/widgets/lv_btnmatrix.c ****                 invalidate_button_area(obj, btnm->btn_id_sel);
 459:Drivers/lvgl/lvgl/src/widgets/lv_btnmatrix.c ****             }
 460:Drivers/lvgl/lvgl/src/widgets/lv_btnmatrix.c **** 
 461:Drivers/lvgl/lvgl/src/widgets/lv_btnmatrix.c ****             btnm->btn_id_sel = btn_pr;
 462:Drivers/lvgl/lvgl/src/widgets/lv_btnmatrix.c **** 
 463:Drivers/lvgl/lvgl/src/widgets/lv_btnmatrix.c ****             lv_indev_reset_long_press(param); /*Start the log press time again on the new button*/
 464:Drivers/lvgl/lvgl/src/widgets/lv_btnmatrix.c ****             if(btn_pr != LV_BTNMATRIX_BTN_NONE &&
 465:Drivers/lvgl/lvgl/src/widgets/lv_btnmatrix.c ****                button_is_inactive(btnm->ctrl_bits[btn_pr]) == false &&
 466:Drivers/lvgl/lvgl/src/widgets/lv_btnmatrix.c ****                button_is_hidden(btnm->ctrl_bits[btn_pr]) == false) {
 467:Drivers/lvgl/lvgl/src/widgets/lv_btnmatrix.c ****                 invalidate_button_area(obj, btn_pr);
 468:Drivers/lvgl/lvgl/src/widgets/lv_btnmatrix.c ****                 /*Send VALUE_CHANGED for the newly pressed button*/
 469:Drivers/lvgl/lvgl/src/widgets/lv_btnmatrix.c ****                 if(button_is_click_trig(btnm->ctrl_bits[btn_pr]) == false &&
 470:Drivers/lvgl/lvgl/src/widgets/lv_btnmatrix.c ****                    button_is_popover(btnm->ctrl_bits[btnm->btn_id_sel]) == false) {
 471:Drivers/lvgl/lvgl/src/widgets/lv_btnmatrix.c ****                     uint32_t b = btn_pr;
 472:Drivers/lvgl/lvgl/src/widgets/lv_btnmatrix.c ****                     res = lv_event_send(obj, LV_EVENT_VALUE_CHANGED, &b);
 473:Drivers/lvgl/lvgl/src/widgets/lv_btnmatrix.c ****                     if(res != LV_RES_OK) return;
 474:Drivers/lvgl/lvgl/src/widgets/lv_btnmatrix.c ****                 }
 475:Drivers/lvgl/lvgl/src/widgets/lv_btnmatrix.c ****             }
 476:Drivers/lvgl/lvgl/src/widgets/lv_btnmatrix.c ****         }
 477:Drivers/lvgl/lvgl/src/widgets/lv_btnmatrix.c ****     }
 478:Drivers/lvgl/lvgl/src/widgets/lv_btnmatrix.c ****     else if(code == LV_EVENT_RELEASED) {
 479:Drivers/lvgl/lvgl/src/widgets/lv_btnmatrix.c ****         if(btnm->btn_id_sel != LV_BTNMATRIX_BTN_NONE) {
 480:Drivers/lvgl/lvgl/src/widgets/lv_btnmatrix.c ****             /*Toggle the button if enabled*/
 481:Drivers/lvgl/lvgl/src/widgets/lv_btnmatrix.c ****             if(button_is_checkable(btnm->ctrl_bits[btnm->btn_id_sel]) &&
 482:Drivers/lvgl/lvgl/src/widgets/lv_btnmatrix.c ****                !button_is_inactive(btnm->ctrl_bits[btnm->btn_id_sel])) {
 483:Drivers/lvgl/lvgl/src/widgets/lv_btnmatrix.c ****                 if(button_get_checked(btnm->ctrl_bits[btnm->btn_id_sel]) && !btnm->one_check) {
 484:Drivers/lvgl/lvgl/src/widgets/lv_btnmatrix.c ****                     btnm->ctrl_bits[btnm->btn_id_sel] &= (~LV_BTNMATRIX_CTRL_CHECKED);
 485:Drivers/lvgl/lvgl/src/widgets/lv_btnmatrix.c ****                 }
 486:Drivers/lvgl/lvgl/src/widgets/lv_btnmatrix.c ****                 else {
 487:Drivers/lvgl/lvgl/src/widgets/lv_btnmatrix.c ****                     btnm->ctrl_bits[btnm->btn_id_sel] |= LV_BTNMATRIX_CTRL_CHECKED;
 488:Drivers/lvgl/lvgl/src/widgets/lv_btnmatrix.c ****                 }
 489:Drivers/lvgl/lvgl/src/widgets/lv_btnmatrix.c ****                 if(btnm->one_check) make_one_button_checked(obj, btnm->btn_id_sel);
ARM GAS  /tmp/ccpV5owi.s 			page 10


 490:Drivers/lvgl/lvgl/src/widgets/lv_btnmatrix.c ****             }
 491:Drivers/lvgl/lvgl/src/widgets/lv_btnmatrix.c **** 
 492:Drivers/lvgl/lvgl/src/widgets/lv_btnmatrix.c **** 
 493:Drivers/lvgl/lvgl/src/widgets/lv_btnmatrix.c ****             if((button_is_click_trig(btnm->ctrl_bits[btnm->btn_id_sel]) == true ||
 494:Drivers/lvgl/lvgl/src/widgets/lv_btnmatrix.c ****                 button_is_popover(btnm->ctrl_bits[btnm->btn_id_sel]) == true) &&
 495:Drivers/lvgl/lvgl/src/widgets/lv_btnmatrix.c ****                button_is_inactive(btnm->ctrl_bits[btnm->btn_id_sel]) == false &&
 496:Drivers/lvgl/lvgl/src/widgets/lv_btnmatrix.c ****                button_is_hidden(btnm->ctrl_bits[btnm->btn_id_sel]) == false) {
 497:Drivers/lvgl/lvgl/src/widgets/lv_btnmatrix.c ****                 uint32_t b = btnm->btn_id_sel;
 498:Drivers/lvgl/lvgl/src/widgets/lv_btnmatrix.c ****                 res        = lv_event_send(obj, LV_EVENT_VALUE_CHANGED, &b);
 499:Drivers/lvgl/lvgl/src/widgets/lv_btnmatrix.c ****                 if(res != LV_RES_OK) return;
 500:Drivers/lvgl/lvgl/src/widgets/lv_btnmatrix.c ****             }
 501:Drivers/lvgl/lvgl/src/widgets/lv_btnmatrix.c ****         }
 502:Drivers/lvgl/lvgl/src/widgets/lv_btnmatrix.c **** 
 503:Drivers/lvgl/lvgl/src/widgets/lv_btnmatrix.c ****         /*Invalidate to old pressed area*/;
 504:Drivers/lvgl/lvgl/src/widgets/lv_btnmatrix.c ****         invalidate_button_area(obj, btnm->btn_id_sel);
 505:Drivers/lvgl/lvgl/src/widgets/lv_btnmatrix.c **** 
 506:Drivers/lvgl/lvgl/src/widgets/lv_btnmatrix.c ****     }
 507:Drivers/lvgl/lvgl/src/widgets/lv_btnmatrix.c ****     else if(code == LV_EVENT_LONG_PRESSED_REPEAT) {
 508:Drivers/lvgl/lvgl/src/widgets/lv_btnmatrix.c ****         if(btnm->btn_id_sel != LV_BTNMATRIX_BTN_NONE) {
 509:Drivers/lvgl/lvgl/src/widgets/lv_btnmatrix.c ****             if(button_is_repeat_disabled(btnm->ctrl_bits[btnm->btn_id_sel]) == false &&
 510:Drivers/lvgl/lvgl/src/widgets/lv_btnmatrix.c ****                button_is_inactive(btnm->ctrl_bits[btnm->btn_id_sel]) == false &&
 511:Drivers/lvgl/lvgl/src/widgets/lv_btnmatrix.c ****                button_is_hidden(btnm->ctrl_bits[btnm->btn_id_sel]) == false) {
 512:Drivers/lvgl/lvgl/src/widgets/lv_btnmatrix.c ****                 uint32_t b = btnm->btn_id_sel;
 513:Drivers/lvgl/lvgl/src/widgets/lv_btnmatrix.c ****                 res        = lv_event_send(obj, LV_EVENT_VALUE_CHANGED, &b);
 514:Drivers/lvgl/lvgl/src/widgets/lv_btnmatrix.c ****                 if(res != LV_RES_OK) return;
 515:Drivers/lvgl/lvgl/src/widgets/lv_btnmatrix.c ****             }
 516:Drivers/lvgl/lvgl/src/widgets/lv_btnmatrix.c ****         }
 517:Drivers/lvgl/lvgl/src/widgets/lv_btnmatrix.c ****     }
 518:Drivers/lvgl/lvgl/src/widgets/lv_btnmatrix.c ****     else if(code == LV_EVENT_PRESS_LOST) {
 519:Drivers/lvgl/lvgl/src/widgets/lv_btnmatrix.c ****         invalidate_button_area(obj, btnm->btn_id_sel);
 520:Drivers/lvgl/lvgl/src/widgets/lv_btnmatrix.c ****         btnm->btn_id_sel = LV_BTNMATRIX_BTN_NONE;
 521:Drivers/lvgl/lvgl/src/widgets/lv_btnmatrix.c ****     }
 522:Drivers/lvgl/lvgl/src/widgets/lv_btnmatrix.c ****     else if(code == LV_EVENT_FOCUSED) {
 523:Drivers/lvgl/lvgl/src/widgets/lv_btnmatrix.c ****         lv_indev_t * indev = lv_event_get_param(e);
 524:Drivers/lvgl/lvgl/src/widgets/lv_btnmatrix.c ****         lv_indev_type_t indev_type = lv_indev_get_type(indev);
 525:Drivers/lvgl/lvgl/src/widgets/lv_btnmatrix.c **** 
 526:Drivers/lvgl/lvgl/src/widgets/lv_btnmatrix.c ****         /*If not focused by an input device assume the last input device*/
 527:Drivers/lvgl/lvgl/src/widgets/lv_btnmatrix.c ****         if(indev == NULL) {
 528:Drivers/lvgl/lvgl/src/widgets/lv_btnmatrix.c ****             indev = lv_indev_get_next(NULL);
 529:Drivers/lvgl/lvgl/src/widgets/lv_btnmatrix.c ****             indev_type = lv_indev_get_type(indev);
 530:Drivers/lvgl/lvgl/src/widgets/lv_btnmatrix.c ****         }
 531:Drivers/lvgl/lvgl/src/widgets/lv_btnmatrix.c **** 
 532:Drivers/lvgl/lvgl/src/widgets/lv_btnmatrix.c ****         bool editing = lv_group_get_editing(lv_obj_get_group(obj));
 533:Drivers/lvgl/lvgl/src/widgets/lv_btnmatrix.c ****         /*Focus the first button if there is not selected button*/
 534:Drivers/lvgl/lvgl/src/widgets/lv_btnmatrix.c ****         if(btnm->btn_id_sel == LV_BTNMATRIX_BTN_NONE) {
 535:Drivers/lvgl/lvgl/src/widgets/lv_btnmatrix.c ****             if(indev_type == LV_INDEV_TYPE_KEYPAD || (indev_type == LV_INDEV_TYPE_ENCODER && editin
 536:Drivers/lvgl/lvgl/src/widgets/lv_btnmatrix.c ****                 uint32_t b = 0;
 537:Drivers/lvgl/lvgl/src/widgets/lv_btnmatrix.c ****                 if(btnm->one_check) {
 538:Drivers/lvgl/lvgl/src/widgets/lv_btnmatrix.c ****                     while(button_is_hidden(btnm->ctrl_bits[b]) || button_is_inactive(btnm->ctrl_bit
 539:Drivers/lvgl/lvgl/src/widgets/lv_btnmatrix.c ****                           button_is_checked(btnm->ctrl_bits[b]) == false) b++;
 540:Drivers/lvgl/lvgl/src/widgets/lv_btnmatrix.c ****                 }
 541:Drivers/lvgl/lvgl/src/widgets/lv_btnmatrix.c ****                 else {
 542:Drivers/lvgl/lvgl/src/widgets/lv_btnmatrix.c ****                     while(button_is_hidden(btnm->ctrl_bits[b]) || button_is_inactive(btnm->ctrl_bit
 543:Drivers/lvgl/lvgl/src/widgets/lv_btnmatrix.c ****                 }
 544:Drivers/lvgl/lvgl/src/widgets/lv_btnmatrix.c **** 
 545:Drivers/lvgl/lvgl/src/widgets/lv_btnmatrix.c ****                 btnm->btn_id_sel = b;
 546:Drivers/lvgl/lvgl/src/widgets/lv_btnmatrix.c ****             }
ARM GAS  /tmp/ccpV5owi.s 			page 11


 547:Drivers/lvgl/lvgl/src/widgets/lv_btnmatrix.c ****             else {
 548:Drivers/lvgl/lvgl/src/widgets/lv_btnmatrix.c ****                 btnm->btn_id_sel = LV_BTNMATRIX_BTN_NONE;
 549:Drivers/lvgl/lvgl/src/widgets/lv_btnmatrix.c ****             }
 550:Drivers/lvgl/lvgl/src/widgets/lv_btnmatrix.c ****         }
 551:Drivers/lvgl/lvgl/src/widgets/lv_btnmatrix.c ****     }
 552:Drivers/lvgl/lvgl/src/widgets/lv_btnmatrix.c ****     else if(code == LV_EVENT_DEFOCUSED || code == LV_EVENT_LEAVE) {
 553:Drivers/lvgl/lvgl/src/widgets/lv_btnmatrix.c ****         if(btnm->btn_id_sel != LV_BTNMATRIX_BTN_NONE) invalidate_button_area(obj, btnm->btn_id_sel)
 554:Drivers/lvgl/lvgl/src/widgets/lv_btnmatrix.c ****         btnm->btn_id_sel = LV_BTNMATRIX_BTN_NONE;
 555:Drivers/lvgl/lvgl/src/widgets/lv_btnmatrix.c ****     }
 556:Drivers/lvgl/lvgl/src/widgets/lv_btnmatrix.c ****     else if(code == LV_EVENT_KEY) {
 557:Drivers/lvgl/lvgl/src/widgets/lv_btnmatrix.c **** 
 558:Drivers/lvgl/lvgl/src/widgets/lv_btnmatrix.c ****         invalidate_button_area(obj, btnm->btn_id_sel);
 559:Drivers/lvgl/lvgl/src/widgets/lv_btnmatrix.c **** 
 560:Drivers/lvgl/lvgl/src/widgets/lv_btnmatrix.c ****         char c = *((char *)lv_event_get_param(e));
 561:Drivers/lvgl/lvgl/src/widgets/lv_btnmatrix.c ****         if(c == LV_KEY_RIGHT) {
 562:Drivers/lvgl/lvgl/src/widgets/lv_btnmatrix.c ****             if(btnm->btn_id_sel == LV_BTNMATRIX_BTN_NONE)  btnm->btn_id_sel = 0;
 563:Drivers/lvgl/lvgl/src/widgets/lv_btnmatrix.c ****             else btnm->btn_id_sel++;
 564:Drivers/lvgl/lvgl/src/widgets/lv_btnmatrix.c ****             if(btnm->btn_id_sel >= btnm->btn_cnt) btnm->btn_id_sel = 0;
 565:Drivers/lvgl/lvgl/src/widgets/lv_btnmatrix.c **** 
 566:Drivers/lvgl/lvgl/src/widgets/lv_btnmatrix.c ****             while(button_is_hidden(btnm->ctrl_bits[btnm->btn_id_sel]) || button_is_inactive(btnm->c
 567:Drivers/lvgl/lvgl/src/widgets/lv_btnmatrix.c ****                 btnm->btn_id_sel++;
 568:Drivers/lvgl/lvgl/src/widgets/lv_btnmatrix.c ****                 if(btnm->btn_id_sel >= btnm->btn_cnt) btnm->btn_id_sel = 0;
 569:Drivers/lvgl/lvgl/src/widgets/lv_btnmatrix.c ****             }
 570:Drivers/lvgl/lvgl/src/widgets/lv_btnmatrix.c ****         }
 571:Drivers/lvgl/lvgl/src/widgets/lv_btnmatrix.c ****         else if(c == LV_KEY_LEFT) {
 572:Drivers/lvgl/lvgl/src/widgets/lv_btnmatrix.c ****             if(btnm->btn_id_sel == LV_BTNMATRIX_BTN_NONE) btnm->btn_id_sel = 0;
 573:Drivers/lvgl/lvgl/src/widgets/lv_btnmatrix.c **** 
 574:Drivers/lvgl/lvgl/src/widgets/lv_btnmatrix.c ****             if(btnm->btn_id_sel == 0) btnm->btn_id_sel = btnm->btn_cnt - 1;
 575:Drivers/lvgl/lvgl/src/widgets/lv_btnmatrix.c ****             else if(btnm->btn_id_sel > 0) btnm->btn_id_sel--;
 576:Drivers/lvgl/lvgl/src/widgets/lv_btnmatrix.c **** 
 577:Drivers/lvgl/lvgl/src/widgets/lv_btnmatrix.c ****             while(button_is_hidden(btnm->ctrl_bits[btnm->btn_id_sel]) || button_is_inactive(btnm->c
 578:Drivers/lvgl/lvgl/src/widgets/lv_btnmatrix.c ****                 if(btnm->btn_id_sel > 0) btnm->btn_id_sel--;
 579:Drivers/lvgl/lvgl/src/widgets/lv_btnmatrix.c ****                 else btnm->btn_id_sel = btnm->btn_cnt - 1;
 580:Drivers/lvgl/lvgl/src/widgets/lv_btnmatrix.c ****             }
 581:Drivers/lvgl/lvgl/src/widgets/lv_btnmatrix.c ****         }
 582:Drivers/lvgl/lvgl/src/widgets/lv_btnmatrix.c ****         else if(c == LV_KEY_DOWN) {
 583:Drivers/lvgl/lvgl/src/widgets/lv_btnmatrix.c ****             lv_coord_t col_gap = lv_obj_get_style_pad_column(obj, LV_PART_MAIN);
 584:Drivers/lvgl/lvgl/src/widgets/lv_btnmatrix.c ****             /*Find the area below the current*/
 585:Drivers/lvgl/lvgl/src/widgets/lv_btnmatrix.c ****             if(btnm->btn_id_sel == LV_BTNMATRIX_BTN_NONE) {
 586:Drivers/lvgl/lvgl/src/widgets/lv_btnmatrix.c ****                 btnm->btn_id_sel = 0;
 587:Drivers/lvgl/lvgl/src/widgets/lv_btnmatrix.c ****                 while(button_is_hidden(btnm->ctrl_bits[btnm->btn_id_sel]) || button_is_inactive(btn
 588:Drivers/lvgl/lvgl/src/widgets/lv_btnmatrix.c ****                     btnm->btn_id_sel++;
 589:Drivers/lvgl/lvgl/src/widgets/lv_btnmatrix.c ****                     if(btnm->btn_id_sel >= btnm->btn_cnt) btnm->btn_id_sel = 0;
 590:Drivers/lvgl/lvgl/src/widgets/lv_btnmatrix.c ****                 }
 591:Drivers/lvgl/lvgl/src/widgets/lv_btnmatrix.c ****             }
 592:Drivers/lvgl/lvgl/src/widgets/lv_btnmatrix.c ****             else {
 593:Drivers/lvgl/lvgl/src/widgets/lv_btnmatrix.c ****                 uint16_t area_below;
 594:Drivers/lvgl/lvgl/src/widgets/lv_btnmatrix.c ****                 lv_coord_t pr_center =
 595:Drivers/lvgl/lvgl/src/widgets/lv_btnmatrix.c ****                     btnm->button_areas[btnm->btn_id_sel].x1 + (lv_area_get_width(&btnm->button_area
 596:Drivers/lvgl/lvgl/src/widgets/lv_btnmatrix.c **** 
 597:Drivers/lvgl/lvgl/src/widgets/lv_btnmatrix.c ****                 for(area_below = btnm->btn_id_sel; area_below < btnm->btn_cnt; area_below++) {
 598:Drivers/lvgl/lvgl/src/widgets/lv_btnmatrix.c ****                     if(btnm->button_areas[area_below].y1 > btnm->button_areas[btnm->btn_id_sel].y1 
 599:Drivers/lvgl/lvgl/src/widgets/lv_btnmatrix.c ****                        pr_center >= btnm->button_areas[area_below].x1 &&
 600:Drivers/lvgl/lvgl/src/widgets/lv_btnmatrix.c ****                        pr_center <= btnm->button_areas[area_below].x2 + col_gap &&
 601:Drivers/lvgl/lvgl/src/widgets/lv_btnmatrix.c ****                        button_is_inactive(btnm->ctrl_bits[area_below]) == false &&
 602:Drivers/lvgl/lvgl/src/widgets/lv_btnmatrix.c ****                        button_is_hidden(btnm->ctrl_bits[area_below]) == false) {
 603:Drivers/lvgl/lvgl/src/widgets/lv_btnmatrix.c ****                         break;
ARM GAS  /tmp/ccpV5owi.s 			page 12


 604:Drivers/lvgl/lvgl/src/widgets/lv_btnmatrix.c ****                     }
 605:Drivers/lvgl/lvgl/src/widgets/lv_btnmatrix.c ****                 }
 606:Drivers/lvgl/lvgl/src/widgets/lv_btnmatrix.c **** 
 607:Drivers/lvgl/lvgl/src/widgets/lv_btnmatrix.c ****                 if(area_below < btnm->btn_cnt) btnm->btn_id_sel = area_below;
 608:Drivers/lvgl/lvgl/src/widgets/lv_btnmatrix.c ****             }
 609:Drivers/lvgl/lvgl/src/widgets/lv_btnmatrix.c ****         }
 610:Drivers/lvgl/lvgl/src/widgets/lv_btnmatrix.c ****         else if(c == LV_KEY_UP) {
 611:Drivers/lvgl/lvgl/src/widgets/lv_btnmatrix.c ****             lv_coord_t col_gap = lv_obj_get_style_pad_column(obj, LV_PART_MAIN);
 612:Drivers/lvgl/lvgl/src/widgets/lv_btnmatrix.c ****             /*Find the area below the current*/
 613:Drivers/lvgl/lvgl/src/widgets/lv_btnmatrix.c ****             if(btnm->btn_id_sel == LV_BTNMATRIX_BTN_NONE) {
 614:Drivers/lvgl/lvgl/src/widgets/lv_btnmatrix.c ****                 btnm->btn_id_sel = 0;
 615:Drivers/lvgl/lvgl/src/widgets/lv_btnmatrix.c ****                 while(button_is_hidden(btnm->ctrl_bits[btnm->btn_id_sel]) || button_is_inactive(btn
 616:Drivers/lvgl/lvgl/src/widgets/lv_btnmatrix.c ****                     btnm->btn_id_sel++;
 617:Drivers/lvgl/lvgl/src/widgets/lv_btnmatrix.c ****                     if(btnm->btn_id_sel >= btnm->btn_cnt) btnm->btn_id_sel = 0;
 618:Drivers/lvgl/lvgl/src/widgets/lv_btnmatrix.c ****                 }
 619:Drivers/lvgl/lvgl/src/widgets/lv_btnmatrix.c ****             }
 620:Drivers/lvgl/lvgl/src/widgets/lv_btnmatrix.c ****             else {
 621:Drivers/lvgl/lvgl/src/widgets/lv_btnmatrix.c ****                 int16_t area_above;
 622:Drivers/lvgl/lvgl/src/widgets/lv_btnmatrix.c ****                 lv_coord_t pr_center =
 623:Drivers/lvgl/lvgl/src/widgets/lv_btnmatrix.c ****                     btnm->button_areas[btnm->btn_id_sel].x1 + (lv_area_get_width(&btnm->button_area
 624:Drivers/lvgl/lvgl/src/widgets/lv_btnmatrix.c **** 
 625:Drivers/lvgl/lvgl/src/widgets/lv_btnmatrix.c ****                 for(area_above = btnm->btn_id_sel; area_above >= 0; area_above--) {
 626:Drivers/lvgl/lvgl/src/widgets/lv_btnmatrix.c ****                     if(btnm->button_areas[area_above].y1 < btnm->button_areas[btnm->btn_id_sel].y1 
 627:Drivers/lvgl/lvgl/src/widgets/lv_btnmatrix.c ****                        pr_center >= btnm->button_areas[area_above].x1 - col_gap &&
 628:Drivers/lvgl/lvgl/src/widgets/lv_btnmatrix.c ****                        pr_center <= btnm->button_areas[area_above].x2 &&
 629:Drivers/lvgl/lvgl/src/widgets/lv_btnmatrix.c ****                        button_is_inactive(btnm->ctrl_bits[area_above]) == false &&
 630:Drivers/lvgl/lvgl/src/widgets/lv_btnmatrix.c ****                        button_is_hidden(btnm->ctrl_bits[area_above]) == false) {
 631:Drivers/lvgl/lvgl/src/widgets/lv_btnmatrix.c ****                         break;
 632:Drivers/lvgl/lvgl/src/widgets/lv_btnmatrix.c ****                     }
 633:Drivers/lvgl/lvgl/src/widgets/lv_btnmatrix.c ****                 }
 634:Drivers/lvgl/lvgl/src/widgets/lv_btnmatrix.c ****                 if(area_above >= 0) btnm->btn_id_sel = area_above;
 635:Drivers/lvgl/lvgl/src/widgets/lv_btnmatrix.c ****             }
 636:Drivers/lvgl/lvgl/src/widgets/lv_btnmatrix.c ****         }
 637:Drivers/lvgl/lvgl/src/widgets/lv_btnmatrix.c **** 
 638:Drivers/lvgl/lvgl/src/widgets/lv_btnmatrix.c ****         invalidate_button_area(obj, btnm->btn_id_sel);
 639:Drivers/lvgl/lvgl/src/widgets/lv_btnmatrix.c ****     }
 640:Drivers/lvgl/lvgl/src/widgets/lv_btnmatrix.c ****     else if(code == LV_EVENT_DRAW_MAIN) {
 641:Drivers/lvgl/lvgl/src/widgets/lv_btnmatrix.c ****         draw_main(e);
 642:Drivers/lvgl/lvgl/src/widgets/lv_btnmatrix.c ****     }
 643:Drivers/lvgl/lvgl/src/widgets/lv_btnmatrix.c **** 
 644:Drivers/lvgl/lvgl/src/widgets/lv_btnmatrix.c **** }
 645:Drivers/lvgl/lvgl/src/widgets/lv_btnmatrix.c **** 
 646:Drivers/lvgl/lvgl/src/widgets/lv_btnmatrix.c **** static void draw_main(lv_event_t * e)
 647:Drivers/lvgl/lvgl/src/widgets/lv_btnmatrix.c **** {
 648:Drivers/lvgl/lvgl/src/widgets/lv_btnmatrix.c ****     lv_obj_t * obj = lv_event_get_target(e);
 649:Drivers/lvgl/lvgl/src/widgets/lv_btnmatrix.c ****     lv_btnmatrix_t * btnm = (lv_btnmatrix_t *)obj;
 650:Drivers/lvgl/lvgl/src/widgets/lv_btnmatrix.c ****     if(btnm->btn_cnt == 0) return;
 651:Drivers/lvgl/lvgl/src/widgets/lv_btnmatrix.c **** 
 652:Drivers/lvgl/lvgl/src/widgets/lv_btnmatrix.c ****     lv_draw_ctx_t * draw_ctx = lv_event_get_draw_ctx(e);
 653:Drivers/lvgl/lvgl/src/widgets/lv_btnmatrix.c ****     obj->skip_trans = 1;
 654:Drivers/lvgl/lvgl/src/widgets/lv_btnmatrix.c **** 
 655:Drivers/lvgl/lvgl/src/widgets/lv_btnmatrix.c ****     lv_area_t area_obj;
 656:Drivers/lvgl/lvgl/src/widgets/lv_btnmatrix.c ****     lv_obj_get_coords(obj, &area_obj);
 657:Drivers/lvgl/lvgl/src/widgets/lv_btnmatrix.c **** 
 658:Drivers/lvgl/lvgl/src/widgets/lv_btnmatrix.c ****     lv_area_t btn_area;
 659:Drivers/lvgl/lvgl/src/widgets/lv_btnmatrix.c **** 
 660:Drivers/lvgl/lvgl/src/widgets/lv_btnmatrix.c ****     uint16_t btn_i = 0;
ARM GAS  /tmp/ccpV5owi.s 			page 13


 661:Drivers/lvgl/lvgl/src/widgets/lv_btnmatrix.c ****     uint16_t txt_i = 0;
 662:Drivers/lvgl/lvgl/src/widgets/lv_btnmatrix.c **** 
 663:Drivers/lvgl/lvgl/src/widgets/lv_btnmatrix.c ****     lv_draw_rect_dsc_t draw_rect_dsc_act;
 664:Drivers/lvgl/lvgl/src/widgets/lv_btnmatrix.c ****     lv_draw_label_dsc_t draw_label_dsc_act;
 665:Drivers/lvgl/lvgl/src/widgets/lv_btnmatrix.c **** 
 666:Drivers/lvgl/lvgl/src/widgets/lv_btnmatrix.c ****     lv_draw_rect_dsc_t draw_rect_dsc_def;
 667:Drivers/lvgl/lvgl/src/widgets/lv_btnmatrix.c ****     lv_draw_label_dsc_t draw_label_dsc_def;
 668:Drivers/lvgl/lvgl/src/widgets/lv_btnmatrix.c **** 
 669:Drivers/lvgl/lvgl/src/widgets/lv_btnmatrix.c ****     lv_state_t state_ori = obj->state;
 670:Drivers/lvgl/lvgl/src/widgets/lv_btnmatrix.c ****     obj->state = LV_STATE_DEFAULT;
 671:Drivers/lvgl/lvgl/src/widgets/lv_btnmatrix.c ****     obj->skip_trans = 1;
 672:Drivers/lvgl/lvgl/src/widgets/lv_btnmatrix.c ****     lv_draw_rect_dsc_init(&draw_rect_dsc_def);
 673:Drivers/lvgl/lvgl/src/widgets/lv_btnmatrix.c ****     lv_draw_label_dsc_init(&draw_label_dsc_def);
 674:Drivers/lvgl/lvgl/src/widgets/lv_btnmatrix.c ****     lv_obj_init_draw_rect_dsc(obj, LV_PART_ITEMS, &draw_rect_dsc_def);
 675:Drivers/lvgl/lvgl/src/widgets/lv_btnmatrix.c ****     lv_obj_init_draw_label_dsc(obj, LV_PART_ITEMS, &draw_label_dsc_def);
 676:Drivers/lvgl/lvgl/src/widgets/lv_btnmatrix.c ****     obj->skip_trans = 0;
 677:Drivers/lvgl/lvgl/src/widgets/lv_btnmatrix.c ****     obj->state = state_ori;
 678:Drivers/lvgl/lvgl/src/widgets/lv_btnmatrix.c **** 
 679:Drivers/lvgl/lvgl/src/widgets/lv_btnmatrix.c ****     lv_coord_t ptop = lv_obj_get_style_pad_top(obj, LV_PART_MAIN);
 680:Drivers/lvgl/lvgl/src/widgets/lv_btnmatrix.c ****     lv_coord_t pbottom = lv_obj_get_style_pad_bottom(obj, LV_PART_MAIN);
 681:Drivers/lvgl/lvgl/src/widgets/lv_btnmatrix.c ****     lv_coord_t pleft = lv_obj_get_style_pad_left(obj, LV_PART_MAIN);
 682:Drivers/lvgl/lvgl/src/widgets/lv_btnmatrix.c ****     lv_coord_t pright = lv_obj_get_style_pad_right(obj, LV_PART_MAIN);
 683:Drivers/lvgl/lvgl/src/widgets/lv_btnmatrix.c **** 
 684:Drivers/lvgl/lvgl/src/widgets/lv_btnmatrix.c **** #if LV_USE_ARABIC_PERSIAN_CHARS
 685:Drivers/lvgl/lvgl/src/widgets/lv_btnmatrix.c ****     const size_t txt_ap_size = 256 ;
 686:Drivers/lvgl/lvgl/src/widgets/lv_btnmatrix.c ****     char * txt_ap = lv_mem_buf_get(txt_ap_size);
 687:Drivers/lvgl/lvgl/src/widgets/lv_btnmatrix.c **** #endif
 688:Drivers/lvgl/lvgl/src/widgets/lv_btnmatrix.c **** 
 689:Drivers/lvgl/lvgl/src/widgets/lv_btnmatrix.c ****     lv_obj_draw_part_dsc_t part_draw_dsc;
 690:Drivers/lvgl/lvgl/src/widgets/lv_btnmatrix.c ****     lv_obj_draw_dsc_init(&part_draw_dsc, draw_ctx);
 691:Drivers/lvgl/lvgl/src/widgets/lv_btnmatrix.c ****     part_draw_dsc.part = LV_PART_ITEMS;
 692:Drivers/lvgl/lvgl/src/widgets/lv_btnmatrix.c ****     part_draw_dsc.class_p = MY_CLASS;
 693:Drivers/lvgl/lvgl/src/widgets/lv_btnmatrix.c ****     part_draw_dsc.type = LV_BTNMATRIX_DRAW_PART_BTN;
 694:Drivers/lvgl/lvgl/src/widgets/lv_btnmatrix.c ****     part_draw_dsc.rect_dsc = &draw_rect_dsc_act;
 695:Drivers/lvgl/lvgl/src/widgets/lv_btnmatrix.c ****     part_draw_dsc.label_dsc = &draw_label_dsc_act;
 696:Drivers/lvgl/lvgl/src/widgets/lv_btnmatrix.c **** 
 697:Drivers/lvgl/lvgl/src/widgets/lv_btnmatrix.c ****     for(btn_i = 0; btn_i < btnm->btn_cnt; btn_i++, txt_i++) {
 698:Drivers/lvgl/lvgl/src/widgets/lv_btnmatrix.c ****         /*Search the next valid text in the map*/
 699:Drivers/lvgl/lvgl/src/widgets/lv_btnmatrix.c ****         while(strcmp(btnm->map_p[txt_i], "\n") == 0) {
 700:Drivers/lvgl/lvgl/src/widgets/lv_btnmatrix.c ****             txt_i++;
 701:Drivers/lvgl/lvgl/src/widgets/lv_btnmatrix.c ****         }
 702:Drivers/lvgl/lvgl/src/widgets/lv_btnmatrix.c **** 
 703:Drivers/lvgl/lvgl/src/widgets/lv_btnmatrix.c ****         /*Skip hidden buttons*/
 704:Drivers/lvgl/lvgl/src/widgets/lv_btnmatrix.c ****         if(button_is_hidden(btnm->ctrl_bits[btn_i])) continue;
 705:Drivers/lvgl/lvgl/src/widgets/lv_btnmatrix.c **** 
 706:Drivers/lvgl/lvgl/src/widgets/lv_btnmatrix.c ****         /*Get the state of the button*/
 707:Drivers/lvgl/lvgl/src/widgets/lv_btnmatrix.c ****         lv_state_t btn_state = LV_STATE_DEFAULT;
 708:Drivers/lvgl/lvgl/src/widgets/lv_btnmatrix.c ****         if(button_get_checked(btnm->ctrl_bits[btn_i])) btn_state |= LV_STATE_CHECKED;
 709:Drivers/lvgl/lvgl/src/widgets/lv_btnmatrix.c **** 
 710:Drivers/lvgl/lvgl/src/widgets/lv_btnmatrix.c ****         if(button_is_inactive(btnm->ctrl_bits[btn_i])) btn_state |= LV_STATE_DISABLED;
 711:Drivers/lvgl/lvgl/src/widgets/lv_btnmatrix.c ****         else if(btn_i == btnm->btn_id_sel) {
 712:Drivers/lvgl/lvgl/src/widgets/lv_btnmatrix.c ****             if(state_ori & LV_STATE_PRESSED) btn_state |= LV_STATE_PRESSED;
 713:Drivers/lvgl/lvgl/src/widgets/lv_btnmatrix.c ****             if(state_ori & LV_STATE_FOCUSED) btn_state |= LV_STATE_FOCUSED;
 714:Drivers/lvgl/lvgl/src/widgets/lv_btnmatrix.c ****             if(state_ori & LV_STATE_FOCUS_KEY) btn_state |= LV_STATE_FOCUS_KEY;
 715:Drivers/lvgl/lvgl/src/widgets/lv_btnmatrix.c ****             if(state_ori & LV_STATE_EDITED) btn_state |= LV_STATE_EDITED;
 716:Drivers/lvgl/lvgl/src/widgets/lv_btnmatrix.c ****         }
 717:Drivers/lvgl/lvgl/src/widgets/lv_btnmatrix.c **** 
ARM GAS  /tmp/ccpV5owi.s 			page 14


 718:Drivers/lvgl/lvgl/src/widgets/lv_btnmatrix.c ****         /*Get the button's area*/
 719:Drivers/lvgl/lvgl/src/widgets/lv_btnmatrix.c ****         lv_area_copy(&btn_area, &btnm->button_areas[btn_i]);
 720:Drivers/lvgl/lvgl/src/widgets/lv_btnmatrix.c ****         btn_area.x1 += area_obj.x1;
 721:Drivers/lvgl/lvgl/src/widgets/lv_btnmatrix.c ****         btn_area.y1 += area_obj.y1;
 722:Drivers/lvgl/lvgl/src/widgets/lv_btnmatrix.c ****         btn_area.x2 += area_obj.x1;
 723:Drivers/lvgl/lvgl/src/widgets/lv_btnmatrix.c ****         btn_area.y2 += area_obj.y1;
 724:Drivers/lvgl/lvgl/src/widgets/lv_btnmatrix.c **** 
 725:Drivers/lvgl/lvgl/src/widgets/lv_btnmatrix.c ****         /*Set up the draw descriptors*/
 726:Drivers/lvgl/lvgl/src/widgets/lv_btnmatrix.c ****         if(btn_state == LV_STATE_DEFAULT) {
 727:Drivers/lvgl/lvgl/src/widgets/lv_btnmatrix.c ****             lv_memcpy(&draw_rect_dsc_act, &draw_rect_dsc_def, sizeof(lv_draw_rect_dsc_t));
 728:Drivers/lvgl/lvgl/src/widgets/lv_btnmatrix.c ****             lv_memcpy(&draw_label_dsc_act, &draw_label_dsc_def, sizeof(lv_draw_label_dsc_t));
 729:Drivers/lvgl/lvgl/src/widgets/lv_btnmatrix.c ****         }
 730:Drivers/lvgl/lvgl/src/widgets/lv_btnmatrix.c ****         /*In other cases get the styles directly without caching them*/
 731:Drivers/lvgl/lvgl/src/widgets/lv_btnmatrix.c ****         else {
 732:Drivers/lvgl/lvgl/src/widgets/lv_btnmatrix.c ****             obj->state = btn_state;
 733:Drivers/lvgl/lvgl/src/widgets/lv_btnmatrix.c ****             obj->skip_trans = 1;
 734:Drivers/lvgl/lvgl/src/widgets/lv_btnmatrix.c ****             lv_draw_rect_dsc_init(&draw_rect_dsc_act);
 735:Drivers/lvgl/lvgl/src/widgets/lv_btnmatrix.c ****             lv_draw_label_dsc_init(&draw_label_dsc_act);
 736:Drivers/lvgl/lvgl/src/widgets/lv_btnmatrix.c ****             lv_obj_init_draw_rect_dsc(obj, LV_PART_ITEMS, &draw_rect_dsc_act);
 737:Drivers/lvgl/lvgl/src/widgets/lv_btnmatrix.c ****             lv_obj_init_draw_label_dsc(obj, LV_PART_ITEMS, &draw_label_dsc_act);
 738:Drivers/lvgl/lvgl/src/widgets/lv_btnmatrix.c ****             obj->state = state_ori;
 739:Drivers/lvgl/lvgl/src/widgets/lv_btnmatrix.c ****             obj->skip_trans = 0;
 740:Drivers/lvgl/lvgl/src/widgets/lv_btnmatrix.c ****         }
 741:Drivers/lvgl/lvgl/src/widgets/lv_btnmatrix.c **** 
 742:Drivers/lvgl/lvgl/src/widgets/lv_btnmatrix.c ****         bool recolor = button_is_recolor(btnm->ctrl_bits[btn_i]);
 743:Drivers/lvgl/lvgl/src/widgets/lv_btnmatrix.c ****         if(recolor) draw_label_dsc_act.flag |= LV_TEXT_FLAG_RECOLOR;
 744:Drivers/lvgl/lvgl/src/widgets/lv_btnmatrix.c ****         else draw_label_dsc_act.flag &= ~LV_TEXT_FLAG_RECOLOR;
 745:Drivers/lvgl/lvgl/src/widgets/lv_btnmatrix.c **** 
 746:Drivers/lvgl/lvgl/src/widgets/lv_btnmatrix.c **** 
 747:Drivers/lvgl/lvgl/src/widgets/lv_btnmatrix.c ****         part_draw_dsc.draw_area = &btn_area;
 748:Drivers/lvgl/lvgl/src/widgets/lv_btnmatrix.c ****         part_draw_dsc.id = btn_i;
 749:Drivers/lvgl/lvgl/src/widgets/lv_btnmatrix.c ****         lv_event_send(obj, LV_EVENT_DRAW_PART_BEGIN, &part_draw_dsc);
 750:Drivers/lvgl/lvgl/src/widgets/lv_btnmatrix.c **** 
 751:Drivers/lvgl/lvgl/src/widgets/lv_btnmatrix.c ****         /*Remove borders on the edges if `LV_BORDER_SIDE_INTERNAL`*/
 752:Drivers/lvgl/lvgl/src/widgets/lv_btnmatrix.c ****         if(draw_rect_dsc_act.border_side & LV_BORDER_SIDE_INTERNAL) {
 753:Drivers/lvgl/lvgl/src/widgets/lv_btnmatrix.c ****             draw_rect_dsc_act.border_side = LV_BORDER_SIDE_FULL;
 754:Drivers/lvgl/lvgl/src/widgets/lv_btnmatrix.c ****             if(btn_area.x1 == obj->coords.x1 + pleft) draw_rect_dsc_act.border_side &= ~LV_BORDER_S
 755:Drivers/lvgl/lvgl/src/widgets/lv_btnmatrix.c ****             if(btn_area.x2 == obj->coords.x2 - pright) draw_rect_dsc_act.border_side &= ~LV_BORDER_
 756:Drivers/lvgl/lvgl/src/widgets/lv_btnmatrix.c ****             if(btn_area.y1 == obj->coords.y1 + ptop) draw_rect_dsc_act.border_side &= ~LV_BORDER_SI
 757:Drivers/lvgl/lvgl/src/widgets/lv_btnmatrix.c ****             if(btn_area.y2 == obj->coords.y2 - pbottom) draw_rect_dsc_act.border_side &= ~LV_BORDER
 758:Drivers/lvgl/lvgl/src/widgets/lv_btnmatrix.c ****         }
 759:Drivers/lvgl/lvgl/src/widgets/lv_btnmatrix.c **** 
 760:Drivers/lvgl/lvgl/src/widgets/lv_btnmatrix.c ****         lv_coord_t btn_height = lv_area_get_height(&btn_area);
 761:Drivers/lvgl/lvgl/src/widgets/lv_btnmatrix.c **** 
 762:Drivers/lvgl/lvgl/src/widgets/lv_btnmatrix.c ****         if((btn_state & LV_STATE_PRESSED) && (btnm->ctrl_bits[btn_i] & LV_BTNMATRIX_CTRL_POPOVER)) 
 763:Drivers/lvgl/lvgl/src/widgets/lv_btnmatrix.c ****             /*Push up the upper boundary of the btn area to create the popover*/
 764:Drivers/lvgl/lvgl/src/widgets/lv_btnmatrix.c ****             btn_area.y1 -= btn_height;
 765:Drivers/lvgl/lvgl/src/widgets/lv_btnmatrix.c ****         }
 766:Drivers/lvgl/lvgl/src/widgets/lv_btnmatrix.c **** 
 767:Drivers/lvgl/lvgl/src/widgets/lv_btnmatrix.c ****         /*Draw the background*/
 768:Drivers/lvgl/lvgl/src/widgets/lv_btnmatrix.c ****         lv_draw_rect(draw_ctx, &draw_rect_dsc_act, &btn_area);
 769:Drivers/lvgl/lvgl/src/widgets/lv_btnmatrix.c **** 
 770:Drivers/lvgl/lvgl/src/widgets/lv_btnmatrix.c ****         /*Calculate the size of the text*/
 771:Drivers/lvgl/lvgl/src/widgets/lv_btnmatrix.c ****         const lv_font_t * font = draw_label_dsc_act.font;
 772:Drivers/lvgl/lvgl/src/widgets/lv_btnmatrix.c ****         lv_coord_t letter_space = draw_label_dsc_act.letter_space;
 773:Drivers/lvgl/lvgl/src/widgets/lv_btnmatrix.c ****         lv_coord_t line_space = draw_label_dsc_act.line_space;
 774:Drivers/lvgl/lvgl/src/widgets/lv_btnmatrix.c ****         const char * txt = btnm->map_p[txt_i];
ARM GAS  /tmp/ccpV5owi.s 			page 15


 775:Drivers/lvgl/lvgl/src/widgets/lv_btnmatrix.c **** 
 776:Drivers/lvgl/lvgl/src/widgets/lv_btnmatrix.c **** #if LV_USE_ARABIC_PERSIAN_CHARS
 777:Drivers/lvgl/lvgl/src/widgets/lv_btnmatrix.c ****         /*Get the size of the Arabic text and process it*/
 778:Drivers/lvgl/lvgl/src/widgets/lv_btnmatrix.c ****         size_t len_ap = _lv_txt_ap_calc_bytes_cnt(txt);
 779:Drivers/lvgl/lvgl/src/widgets/lv_btnmatrix.c ****         if(len_ap < txt_ap_size) {
 780:Drivers/lvgl/lvgl/src/widgets/lv_btnmatrix.c ****             _lv_txt_ap_proc(txt, txt_ap);
 781:Drivers/lvgl/lvgl/src/widgets/lv_btnmatrix.c ****             txt = txt_ap;
 782:Drivers/lvgl/lvgl/src/widgets/lv_btnmatrix.c ****         }
 783:Drivers/lvgl/lvgl/src/widgets/lv_btnmatrix.c **** #endif
 784:Drivers/lvgl/lvgl/src/widgets/lv_btnmatrix.c ****         lv_point_t txt_size;
 785:Drivers/lvgl/lvgl/src/widgets/lv_btnmatrix.c ****         lv_txt_get_size(&txt_size, txt, font, letter_space,
 786:Drivers/lvgl/lvgl/src/widgets/lv_btnmatrix.c ****                         line_space, lv_area_get_width(&area_obj), draw_label_dsc_act.flag);
 787:Drivers/lvgl/lvgl/src/widgets/lv_btnmatrix.c **** 
 788:Drivers/lvgl/lvgl/src/widgets/lv_btnmatrix.c ****         btn_area.x1 += (lv_area_get_width(&btn_area) - txt_size.x) / 2;
 789:Drivers/lvgl/lvgl/src/widgets/lv_btnmatrix.c ****         btn_area.y1 += (lv_area_get_height(&btn_area) - txt_size.y) / 2;
 790:Drivers/lvgl/lvgl/src/widgets/lv_btnmatrix.c ****         btn_area.x2 = btn_area.x1 + txt_size.x;
 791:Drivers/lvgl/lvgl/src/widgets/lv_btnmatrix.c ****         btn_area.y2 = btn_area.y1 + txt_size.y;
 792:Drivers/lvgl/lvgl/src/widgets/lv_btnmatrix.c **** 
 793:Drivers/lvgl/lvgl/src/widgets/lv_btnmatrix.c ****         if((btn_state & LV_STATE_PRESSED) && (btnm->ctrl_bits[btn_i] & LV_BTNMATRIX_CTRL_POPOVER)) 
 794:Drivers/lvgl/lvgl/src/widgets/lv_btnmatrix.c ****             /*Push up the button text into the popover*/
 795:Drivers/lvgl/lvgl/src/widgets/lv_btnmatrix.c ****             btn_area.y1 -= btn_height / 2;
 796:Drivers/lvgl/lvgl/src/widgets/lv_btnmatrix.c ****             btn_area.y2 -= btn_height / 2;
 797:Drivers/lvgl/lvgl/src/widgets/lv_btnmatrix.c ****         }
 798:Drivers/lvgl/lvgl/src/widgets/lv_btnmatrix.c **** 
 799:Drivers/lvgl/lvgl/src/widgets/lv_btnmatrix.c ****         /*Draw the text*/
 800:Drivers/lvgl/lvgl/src/widgets/lv_btnmatrix.c ****         lv_draw_label(draw_ctx, &draw_label_dsc_act, &btn_area, txt, NULL);
 801:Drivers/lvgl/lvgl/src/widgets/lv_btnmatrix.c **** 
 802:Drivers/lvgl/lvgl/src/widgets/lv_btnmatrix.c ****         lv_event_send(obj, LV_EVENT_DRAW_PART_END, &part_draw_dsc);
 803:Drivers/lvgl/lvgl/src/widgets/lv_btnmatrix.c ****     }
 804:Drivers/lvgl/lvgl/src/widgets/lv_btnmatrix.c **** 
 805:Drivers/lvgl/lvgl/src/widgets/lv_btnmatrix.c ****     obj->skip_trans = 0;
 806:Drivers/lvgl/lvgl/src/widgets/lv_btnmatrix.c **** #if LV_USE_ARABIC_PERSIAN_CHARS
 807:Drivers/lvgl/lvgl/src/widgets/lv_btnmatrix.c ****     lv_mem_buf_release(txt_ap);
 808:Drivers/lvgl/lvgl/src/widgets/lv_btnmatrix.c **** #endif
 809:Drivers/lvgl/lvgl/src/widgets/lv_btnmatrix.c **** }
 810:Drivers/lvgl/lvgl/src/widgets/lv_btnmatrix.c **** /**
 811:Drivers/lvgl/lvgl/src/widgets/lv_btnmatrix.c ****  * Create the required number of buttons and control bytes according to a map
 812:Drivers/lvgl/lvgl/src/widgets/lv_btnmatrix.c ****  * @param obj pointer to button matrix object
 813:Drivers/lvgl/lvgl/src/widgets/lv_btnmatrix.c ****  * @param map_p pointer to a string array
 814:Drivers/lvgl/lvgl/src/widgets/lv_btnmatrix.c ****  */
 815:Drivers/lvgl/lvgl/src/widgets/lv_btnmatrix.c **** static void allocate_btn_areas_and_controls(const lv_obj_t * obj, const char ** map)
 816:Drivers/lvgl/lvgl/src/widgets/lv_btnmatrix.c **** {
 817:Drivers/lvgl/lvgl/src/widgets/lv_btnmatrix.c ****     lv_btnmatrix_t * btnm = (lv_btnmatrix_t *)obj;
 818:Drivers/lvgl/lvgl/src/widgets/lv_btnmatrix.c ****     btnm->row_cnt = 1;
 819:Drivers/lvgl/lvgl/src/widgets/lv_btnmatrix.c ****     /*Count the buttons in the map*/
 820:Drivers/lvgl/lvgl/src/widgets/lv_btnmatrix.c ****     uint16_t btn_cnt = 0;
 821:Drivers/lvgl/lvgl/src/widgets/lv_btnmatrix.c ****     uint16_t i       = 0;
 822:Drivers/lvgl/lvgl/src/widgets/lv_btnmatrix.c ****     while(map[i] && map[i][0] != '\0') {
 823:Drivers/lvgl/lvgl/src/widgets/lv_btnmatrix.c ****         if(strcmp(map[i], "\n") != 0) { /*Do not count line breaks*/
 824:Drivers/lvgl/lvgl/src/widgets/lv_btnmatrix.c ****             btn_cnt++;
 825:Drivers/lvgl/lvgl/src/widgets/lv_btnmatrix.c ****         }
 826:Drivers/lvgl/lvgl/src/widgets/lv_btnmatrix.c ****         else {
 827:Drivers/lvgl/lvgl/src/widgets/lv_btnmatrix.c ****             btnm->row_cnt++;
 828:Drivers/lvgl/lvgl/src/widgets/lv_btnmatrix.c ****         }
 829:Drivers/lvgl/lvgl/src/widgets/lv_btnmatrix.c ****         i++;
 830:Drivers/lvgl/lvgl/src/widgets/lv_btnmatrix.c ****     }
 831:Drivers/lvgl/lvgl/src/widgets/lv_btnmatrix.c **** 
ARM GAS  /tmp/ccpV5owi.s 			page 16


 832:Drivers/lvgl/lvgl/src/widgets/lv_btnmatrix.c ****     /*Do not allocate memory for the same amount of buttons*/
 833:Drivers/lvgl/lvgl/src/widgets/lv_btnmatrix.c ****     if(btn_cnt == btnm->btn_cnt) return;
 834:Drivers/lvgl/lvgl/src/widgets/lv_btnmatrix.c **** 
 835:Drivers/lvgl/lvgl/src/widgets/lv_btnmatrix.c ****     if(btnm->button_areas != NULL) {
 836:Drivers/lvgl/lvgl/src/widgets/lv_btnmatrix.c ****         lv_mem_free(btnm->button_areas);
 837:Drivers/lvgl/lvgl/src/widgets/lv_btnmatrix.c ****         btnm->button_areas = NULL;
 838:Drivers/lvgl/lvgl/src/widgets/lv_btnmatrix.c ****     }
 839:Drivers/lvgl/lvgl/src/widgets/lv_btnmatrix.c ****     if(btnm->ctrl_bits != NULL) {
 840:Drivers/lvgl/lvgl/src/widgets/lv_btnmatrix.c ****         lv_mem_free(btnm->ctrl_bits);
 841:Drivers/lvgl/lvgl/src/widgets/lv_btnmatrix.c ****         btnm->ctrl_bits = NULL;
 842:Drivers/lvgl/lvgl/src/widgets/lv_btnmatrix.c ****     }
 843:Drivers/lvgl/lvgl/src/widgets/lv_btnmatrix.c **** 
 844:Drivers/lvgl/lvgl/src/widgets/lv_btnmatrix.c ****     btnm->button_areas = lv_mem_alloc(sizeof(lv_area_t) * btn_cnt);
 845:Drivers/lvgl/lvgl/src/widgets/lv_btnmatrix.c ****     LV_ASSERT_MALLOC(btnm->button_areas);
 846:Drivers/lvgl/lvgl/src/widgets/lv_btnmatrix.c ****     btnm->ctrl_bits = lv_mem_alloc(sizeof(lv_btnmatrix_ctrl_t) * btn_cnt);
 847:Drivers/lvgl/lvgl/src/widgets/lv_btnmatrix.c ****     LV_ASSERT_MALLOC(btnm->ctrl_bits);
 848:Drivers/lvgl/lvgl/src/widgets/lv_btnmatrix.c ****     if(btnm->button_areas == NULL || btnm->ctrl_bits == NULL) btn_cnt = 0;
 849:Drivers/lvgl/lvgl/src/widgets/lv_btnmatrix.c **** 
 850:Drivers/lvgl/lvgl/src/widgets/lv_btnmatrix.c ****     lv_memset_00(btnm->ctrl_bits, sizeof(lv_btnmatrix_ctrl_t) * btn_cnt);
 851:Drivers/lvgl/lvgl/src/widgets/lv_btnmatrix.c **** 
 852:Drivers/lvgl/lvgl/src/widgets/lv_btnmatrix.c ****     btnm->btn_cnt = btn_cnt;
 853:Drivers/lvgl/lvgl/src/widgets/lv_btnmatrix.c **** }
 854:Drivers/lvgl/lvgl/src/widgets/lv_btnmatrix.c **** 
 855:Drivers/lvgl/lvgl/src/widgets/lv_btnmatrix.c **** /**
 856:Drivers/lvgl/lvgl/src/widgets/lv_btnmatrix.c ****  * Get the width of a button in units (default is 1).
 857:Drivers/lvgl/lvgl/src/widgets/lv_btnmatrix.c ****  * @param ctrl_bits least significant 3 bits used (1..7 valid values)
 858:Drivers/lvgl/lvgl/src/widgets/lv_btnmatrix.c ****  * @return the width of the button in units
 859:Drivers/lvgl/lvgl/src/widgets/lv_btnmatrix.c ****  */
 860:Drivers/lvgl/lvgl/src/widgets/lv_btnmatrix.c **** static uint8_t get_button_width(lv_btnmatrix_ctrl_t ctrl_bits)
 861:Drivers/lvgl/lvgl/src/widgets/lv_btnmatrix.c **** {
  26              		.loc 1 861 0
  27              		.cfi_startproc
  28              		@ args = 0, pretend = 0, frame = 0
  29              		@ frame_needed = 0, uses_anonymous_args = 0
  30              		@ link register save eliminated.
  31              	.LVL0:
 862:Drivers/lvgl/lvgl/src/widgets/lv_btnmatrix.c ****     uint8_t w = ctrl_bits & LV_BTNMATRIX_WIDTH_MASK;
 863:Drivers/lvgl/lvgl/src/widgets/lv_btnmatrix.c ****     return w != 0 ? w : 1;
  32              		.loc 1 863 0
  33 0000 10F00700 		ands	r0, r0, #7
  34              	.LVL1:
  35 0004 00D1     		bne	.L2
  36 0006 0120     		movs	r0, #1
  37              	.L2:
 864:Drivers/lvgl/lvgl/src/widgets/lv_btnmatrix.c **** }
  38              		.loc 1 864 0 discriminator 4
  39 0008 7047     		bx	lr
  40              		.cfi_endproc
  41              	.LFE179:
  43              		.section	.text.button_is_hidden,"ax",%progbits
  44              		.align	1
  45              		.syntax unified
  46              		.thumb
  47              		.thumb_func
  48              		.fpu fpv5-d16
  50              	button_is_hidden:
  51              	.LFB180:
ARM GAS  /tmp/ccpV5owi.s 			page 17


 865:Drivers/lvgl/lvgl/src/widgets/lv_btnmatrix.c **** 
 866:Drivers/lvgl/lvgl/src/widgets/lv_btnmatrix.c **** static bool button_is_hidden(lv_btnmatrix_ctrl_t ctrl_bits)
 867:Drivers/lvgl/lvgl/src/widgets/lv_btnmatrix.c **** {
  52              		.loc 1 867 0
  53              		.cfi_startproc
  54              		@ args = 0, pretend = 0, frame = 0
  55              		@ frame_needed = 0, uses_anonymous_args = 0
  56              		@ link register save eliminated.
  57              	.LVL2:
 868:Drivers/lvgl/lvgl/src/widgets/lv_btnmatrix.c ****     return (ctrl_bits & LV_BTNMATRIX_CTRL_HIDDEN) ? true : false;
 869:Drivers/lvgl/lvgl/src/widgets/lv_btnmatrix.c **** }
  58              		.loc 1 869 0
  59 0000 C0F30010 		ubfx	r0, r0, #4, #1
  60              	.LVL3:
  61 0004 7047     		bx	lr
  62              		.cfi_endproc
  63              	.LFE180:
  65              		.section	.text.button_is_checked,"ax",%progbits
  66              		.align	1
  67              		.syntax unified
  68              		.thumb
  69              		.thumb_func
  70              		.fpu fpv5-d16
  72              	button_is_checked:
  73              	.LFB181:
 870:Drivers/lvgl/lvgl/src/widgets/lv_btnmatrix.c **** 
 871:Drivers/lvgl/lvgl/src/widgets/lv_btnmatrix.c **** static bool button_is_checked(lv_btnmatrix_ctrl_t ctrl_bits)
 872:Drivers/lvgl/lvgl/src/widgets/lv_btnmatrix.c **** {
  74              		.loc 1 872 0
  75              		.cfi_startproc
  76              		@ args = 0, pretend = 0, frame = 0
  77              		@ frame_needed = 0, uses_anonymous_args = 0
  78              		@ link register save eliminated.
  79              	.LVL4:
 873:Drivers/lvgl/lvgl/src/widgets/lv_btnmatrix.c ****     return (ctrl_bits & LV_BTNMATRIX_CTRL_CHECKED) ? true : false;
 874:Drivers/lvgl/lvgl/src/widgets/lv_btnmatrix.c **** }
  80              		.loc 1 874 0
  81 0000 C0F30020 		ubfx	r0, r0, #8, #1
  82              	.LVL5:
  83 0004 7047     		bx	lr
  84              		.cfi_endproc
  85              	.LFE181:
  87              		.section	.text.button_is_repeat_disabled,"ax",%progbits
  88              		.align	1
  89              		.syntax unified
  90              		.thumb
  91              		.thumb_func
  92              		.fpu fpv5-d16
  94              	button_is_repeat_disabled:
  95              	.LFB182:
 875:Drivers/lvgl/lvgl/src/widgets/lv_btnmatrix.c **** 
 876:Drivers/lvgl/lvgl/src/widgets/lv_btnmatrix.c **** static bool button_is_repeat_disabled(lv_btnmatrix_ctrl_t ctrl_bits)
 877:Drivers/lvgl/lvgl/src/widgets/lv_btnmatrix.c **** {
  96              		.loc 1 877 0
  97              		.cfi_startproc
  98              		@ args = 0, pretend = 0, frame = 0
  99              		@ frame_needed = 0, uses_anonymous_args = 0
ARM GAS  /tmp/ccpV5owi.s 			page 18


 100              		@ link register save eliminated.
 101              	.LVL6:
 878:Drivers/lvgl/lvgl/src/widgets/lv_btnmatrix.c ****     return (ctrl_bits & LV_BTNMATRIX_CTRL_NO_REPEAT) ? true : false;
 879:Drivers/lvgl/lvgl/src/widgets/lv_btnmatrix.c **** }
 102              		.loc 1 879 0
 103 0000 C0F34010 		ubfx	r0, r0, #5, #1
 104              	.LVL7:
 105 0004 7047     		bx	lr
 106              		.cfi_endproc
 107              	.LFE182:
 109              		.section	.text.button_is_inactive,"ax",%progbits
 110              		.align	1
 111              		.syntax unified
 112              		.thumb
 113              		.thumb_func
 114              		.fpu fpv5-d16
 116              	button_is_inactive:
 117              	.LFB183:
 880:Drivers/lvgl/lvgl/src/widgets/lv_btnmatrix.c **** 
 881:Drivers/lvgl/lvgl/src/widgets/lv_btnmatrix.c **** static bool button_is_inactive(lv_btnmatrix_ctrl_t ctrl_bits)
 882:Drivers/lvgl/lvgl/src/widgets/lv_btnmatrix.c **** {
 118              		.loc 1 882 0
 119              		.cfi_startproc
 120              		@ args = 0, pretend = 0, frame = 0
 121              		@ frame_needed = 0, uses_anonymous_args = 0
 122              		@ link register save eliminated.
 123              	.LVL8:
 883:Drivers/lvgl/lvgl/src/widgets/lv_btnmatrix.c ****     return (ctrl_bits & LV_BTNMATRIX_CTRL_DISABLED) ? true : false;
 884:Drivers/lvgl/lvgl/src/widgets/lv_btnmatrix.c **** }
 124              		.loc 1 884 0
 125 0000 C0F38010 		ubfx	r0, r0, #6, #1
 126              	.LVL9:
 127 0004 7047     		bx	lr
 128              		.cfi_endproc
 129              	.LFE183:
 131              		.section	.text.button_is_click_trig,"ax",%progbits
 132              		.align	1
 133              		.syntax unified
 134              		.thumb
 135              		.thumb_func
 136              		.fpu fpv5-d16
 138              	button_is_click_trig:
 139              	.LFB184:
 885:Drivers/lvgl/lvgl/src/widgets/lv_btnmatrix.c **** 
 886:Drivers/lvgl/lvgl/src/widgets/lv_btnmatrix.c **** static bool button_is_click_trig(lv_btnmatrix_ctrl_t ctrl_bits)
 887:Drivers/lvgl/lvgl/src/widgets/lv_btnmatrix.c **** {
 140              		.loc 1 887 0
 141              		.cfi_startproc
 142              		@ args = 0, pretend = 0, frame = 0
 143              		@ frame_needed = 0, uses_anonymous_args = 0
 144              		@ link register save eliminated.
 145              	.LVL10:
 888:Drivers/lvgl/lvgl/src/widgets/lv_btnmatrix.c ****     return (ctrl_bits & LV_BTNMATRIX_CTRL_CLICK_TRIG) ? true : false;
 889:Drivers/lvgl/lvgl/src/widgets/lv_btnmatrix.c **** }
 146              		.loc 1 889 0
 147 0000 C0F34020 		ubfx	r0, r0, #9, #1
 148              	.LVL11:
ARM GAS  /tmp/ccpV5owi.s 			page 19


 149 0004 7047     		bx	lr
 150              		.cfi_endproc
 151              	.LFE184:
 153              		.section	.text.button_is_popover,"ax",%progbits
 154              		.align	1
 155              		.syntax unified
 156              		.thumb
 157              		.thumb_func
 158              		.fpu fpv5-d16
 160              	button_is_popover:
 161              	.LFB185:
 890:Drivers/lvgl/lvgl/src/widgets/lv_btnmatrix.c **** 
 891:Drivers/lvgl/lvgl/src/widgets/lv_btnmatrix.c **** static bool button_is_popover(lv_btnmatrix_ctrl_t ctrl_bits)
 892:Drivers/lvgl/lvgl/src/widgets/lv_btnmatrix.c **** {
 162              		.loc 1 892 0
 163              		.cfi_startproc
 164              		@ args = 0, pretend = 0, frame = 0
 165              		@ frame_needed = 0, uses_anonymous_args = 0
 166              		@ link register save eliminated.
 167              	.LVL12:
 893:Drivers/lvgl/lvgl/src/widgets/lv_btnmatrix.c ****     return (ctrl_bits & LV_BTNMATRIX_CTRL_POPOVER) ? true : false;
 894:Drivers/lvgl/lvgl/src/widgets/lv_btnmatrix.c **** }
 168              		.loc 1 894 0
 169 0000 C0F38020 		ubfx	r0, r0, #10, #1
 170              	.LVL13:
 171 0004 7047     		bx	lr
 172              		.cfi_endproc
 173              	.LFE185:
 175              		.section	.text.button_is_checkable,"ax",%progbits
 176              		.align	1
 177              		.syntax unified
 178              		.thumb
 179              		.thumb_func
 180              		.fpu fpv5-d16
 182              	button_is_checkable:
 183              	.LFB186:
 895:Drivers/lvgl/lvgl/src/widgets/lv_btnmatrix.c **** 
 896:Drivers/lvgl/lvgl/src/widgets/lv_btnmatrix.c **** static bool button_is_checkable(lv_btnmatrix_ctrl_t ctrl_bits)
 897:Drivers/lvgl/lvgl/src/widgets/lv_btnmatrix.c **** {
 184              		.loc 1 897 0
 185              		.cfi_startproc
 186              		@ args = 0, pretend = 0, frame = 0
 187              		@ frame_needed = 0, uses_anonymous_args = 0
 188              		@ link register save eliminated.
 189              	.LVL14:
 898:Drivers/lvgl/lvgl/src/widgets/lv_btnmatrix.c ****     return (ctrl_bits & LV_BTNMATRIX_CTRL_CHECKABLE) ? true : false;
 899:Drivers/lvgl/lvgl/src/widgets/lv_btnmatrix.c **** }
 190              		.loc 1 899 0
 191 0000 C0F3C010 		ubfx	r0, r0, #7, #1
 192              	.LVL15:
 193 0004 7047     		bx	lr
 194              		.cfi_endproc
 195              	.LFE186:
 197              		.section	.text.button_get_checked,"ax",%progbits
 198              		.align	1
 199              		.syntax unified
 200              		.thumb
ARM GAS  /tmp/ccpV5owi.s 			page 20


 201              		.thumb_func
 202              		.fpu fpv5-d16
 204              	button_get_checked:
 205              	.LFB187:
 900:Drivers/lvgl/lvgl/src/widgets/lv_btnmatrix.c **** 
 901:Drivers/lvgl/lvgl/src/widgets/lv_btnmatrix.c **** static bool button_get_checked(lv_btnmatrix_ctrl_t ctrl_bits)
 902:Drivers/lvgl/lvgl/src/widgets/lv_btnmatrix.c **** {
 206              		.loc 1 902 0
 207              		.cfi_startproc
 208              		@ args = 0, pretend = 0, frame = 0
 209              		@ frame_needed = 0, uses_anonymous_args = 0
 210              		@ link register save eliminated.
 211              	.LVL16:
 903:Drivers/lvgl/lvgl/src/widgets/lv_btnmatrix.c ****     return (ctrl_bits & LV_BTNMATRIX_CTRL_CHECKED) ? true : false;
 904:Drivers/lvgl/lvgl/src/widgets/lv_btnmatrix.c **** }
 212              		.loc 1 904 0
 213 0000 C0F30020 		ubfx	r0, r0, #8, #1
 214              	.LVL17:
 215 0004 7047     		bx	lr
 216              		.cfi_endproc
 217              	.LFE187:
 219              		.section	.text.button_is_recolor,"ax",%progbits
 220              		.align	1
 221              		.syntax unified
 222              		.thumb
 223              		.thumb_func
 224              		.fpu fpv5-d16
 226              	button_is_recolor:
 227              	.LFB188:
 905:Drivers/lvgl/lvgl/src/widgets/lv_btnmatrix.c **** 
 906:Drivers/lvgl/lvgl/src/widgets/lv_btnmatrix.c **** static bool button_is_recolor(lv_btnmatrix_ctrl_t ctrl_bits)
 907:Drivers/lvgl/lvgl/src/widgets/lv_btnmatrix.c **** {
 228              		.loc 1 907 0
 229              		.cfi_startproc
 230              		@ args = 0, pretend = 0, frame = 0
 231              		@ frame_needed = 0, uses_anonymous_args = 0
 232              		@ link register save eliminated.
 233              	.LVL18:
 908:Drivers/lvgl/lvgl/src/widgets/lv_btnmatrix.c ****     return (ctrl_bits & LV_BTNMATRIX_CTRL_RECOLOR) ? true : false;
 909:Drivers/lvgl/lvgl/src/widgets/lv_btnmatrix.c **** }
 234              		.loc 1 909 0
 235 0000 C0F3C020 		ubfx	r0, r0, #11, #1
 236              	.LVL19:
 237 0004 7047     		bx	lr
 238              		.cfi_endproc
 239              	.LFE188:
 241              		.section	.text.has_popovers_in_top_row,"ax",%progbits
 242              		.align	1
 243              		.syntax unified
 244              		.thumb
 245              		.thumb_func
 246              		.fpu fpv5-d16
 248              	has_popovers_in_top_row:
 249              	.LFB192:
 910:Drivers/lvgl/lvgl/src/widgets/lv_btnmatrix.c **** /**
 911:Drivers/lvgl/lvgl/src/widgets/lv_btnmatrix.c ****  * Gives the button id of a button under a given point
 912:Drivers/lvgl/lvgl/src/widgets/lv_btnmatrix.c ****  * @param obj pointer to a button matrix object
ARM GAS  /tmp/ccpV5owi.s 			page 21


 913:Drivers/lvgl/lvgl/src/widgets/lv_btnmatrix.c ****  * @param p a point with absolute coordinates
 914:Drivers/lvgl/lvgl/src/widgets/lv_btnmatrix.c ****  * @return the id of the button or LV_BTNMATRIX_BTN_NONE.
 915:Drivers/lvgl/lvgl/src/widgets/lv_btnmatrix.c ****  */
 916:Drivers/lvgl/lvgl/src/widgets/lv_btnmatrix.c **** static uint16_t get_button_from_point(lv_obj_t * obj, lv_point_t * p)
 917:Drivers/lvgl/lvgl/src/widgets/lv_btnmatrix.c **** {
 918:Drivers/lvgl/lvgl/src/widgets/lv_btnmatrix.c ****     lv_area_t obj_cords;
 919:Drivers/lvgl/lvgl/src/widgets/lv_btnmatrix.c ****     lv_area_t btn_area;
 920:Drivers/lvgl/lvgl/src/widgets/lv_btnmatrix.c ****     lv_btnmatrix_t * btnm = (lv_btnmatrix_t *)obj;;
 921:Drivers/lvgl/lvgl/src/widgets/lv_btnmatrix.c ****     uint16_t i;
 922:Drivers/lvgl/lvgl/src/widgets/lv_btnmatrix.c ****     lv_obj_get_coords(obj, &obj_cords);
 923:Drivers/lvgl/lvgl/src/widgets/lv_btnmatrix.c **** 
 924:Drivers/lvgl/lvgl/src/widgets/lv_btnmatrix.c ****     lv_coord_t w = lv_obj_get_width(obj);
 925:Drivers/lvgl/lvgl/src/widgets/lv_btnmatrix.c ****     lv_coord_t h = lv_obj_get_height(obj);
 926:Drivers/lvgl/lvgl/src/widgets/lv_btnmatrix.c ****     lv_coord_t pleft = lv_obj_get_style_pad_left(obj, LV_PART_MAIN);
 927:Drivers/lvgl/lvgl/src/widgets/lv_btnmatrix.c ****     lv_coord_t pright = lv_obj_get_style_pad_right(obj, LV_PART_MAIN);
 928:Drivers/lvgl/lvgl/src/widgets/lv_btnmatrix.c ****     lv_coord_t ptop = lv_obj_get_style_pad_top(obj, LV_PART_MAIN);
 929:Drivers/lvgl/lvgl/src/widgets/lv_btnmatrix.c ****     lv_coord_t pbottom = lv_obj_get_style_pad_bottom(obj, LV_PART_MAIN);
 930:Drivers/lvgl/lvgl/src/widgets/lv_btnmatrix.c ****     lv_coord_t prow = lv_obj_get_style_pad_row(obj, LV_PART_MAIN);
 931:Drivers/lvgl/lvgl/src/widgets/lv_btnmatrix.c ****     lv_coord_t pcol = lv_obj_get_style_pad_column(obj, LV_PART_MAIN);
 932:Drivers/lvgl/lvgl/src/widgets/lv_btnmatrix.c **** 
 933:Drivers/lvgl/lvgl/src/widgets/lv_btnmatrix.c ****     /*Get the half gap. Button look larger with this value. (+1 for rounding error)*/
 934:Drivers/lvgl/lvgl/src/widgets/lv_btnmatrix.c ****     prow = (prow / 2) + 1 + (prow & 1);
 935:Drivers/lvgl/lvgl/src/widgets/lv_btnmatrix.c ****     pcol = (pcol / 2) + 1 + (pcol & 1);
 936:Drivers/lvgl/lvgl/src/widgets/lv_btnmatrix.c **** 
 937:Drivers/lvgl/lvgl/src/widgets/lv_btnmatrix.c ****     prow = LV_MIN(prow, BTN_EXTRA_CLICK_AREA_MAX);
 938:Drivers/lvgl/lvgl/src/widgets/lv_btnmatrix.c ****     pcol = LV_MIN(pcol, BTN_EXTRA_CLICK_AREA_MAX);
 939:Drivers/lvgl/lvgl/src/widgets/lv_btnmatrix.c ****     pright = LV_MIN(pright, BTN_EXTRA_CLICK_AREA_MAX);
 940:Drivers/lvgl/lvgl/src/widgets/lv_btnmatrix.c ****     ptop = LV_MIN(ptop, BTN_EXTRA_CLICK_AREA_MAX);
 941:Drivers/lvgl/lvgl/src/widgets/lv_btnmatrix.c ****     pbottom = LV_MIN(pbottom, BTN_EXTRA_CLICK_AREA_MAX);
 942:Drivers/lvgl/lvgl/src/widgets/lv_btnmatrix.c **** 
 943:Drivers/lvgl/lvgl/src/widgets/lv_btnmatrix.c ****     for(i = 0; i < btnm->btn_cnt; i++) {
 944:Drivers/lvgl/lvgl/src/widgets/lv_btnmatrix.c ****         lv_area_copy(&btn_area, &btnm->button_areas[i]);
 945:Drivers/lvgl/lvgl/src/widgets/lv_btnmatrix.c ****         if(btn_area.x1 <= pleft) btn_area.x1 += obj_cords.x1 - LV_MIN(pleft, BTN_EXTRA_CLICK_AREA_M
 946:Drivers/lvgl/lvgl/src/widgets/lv_btnmatrix.c ****         else btn_area.x1 += obj_cords.x1 - pcol;
 947:Drivers/lvgl/lvgl/src/widgets/lv_btnmatrix.c **** 
 948:Drivers/lvgl/lvgl/src/widgets/lv_btnmatrix.c ****         if(btn_area.y1 <= ptop) btn_area.y1 += obj_cords.y1 - LV_MIN(ptop, BTN_EXTRA_CLICK_AREA_MAX
 949:Drivers/lvgl/lvgl/src/widgets/lv_btnmatrix.c ****         else btn_area.y1 += obj_cords.y1 - prow;
 950:Drivers/lvgl/lvgl/src/widgets/lv_btnmatrix.c **** 
 951:Drivers/lvgl/lvgl/src/widgets/lv_btnmatrix.c ****         if(btn_area.x2 >= w - pright - 2) btn_area.x2 += obj_cords.x1 + LV_MIN(pright,
 952:Drivers/lvgl/lvgl/src/widgets/lv_btnmatrix.c ****                                                                                    BTN_EXTRA_CLICK_
 953:Drivers/lvgl/lvgl/src/widgets/lv_btnmatrix.c ****         else btn_area.x2 += obj_cords.x1 + pcol;
 954:Drivers/lvgl/lvgl/src/widgets/lv_btnmatrix.c **** 
 955:Drivers/lvgl/lvgl/src/widgets/lv_btnmatrix.c ****         if(btn_area.y2 >= h - pbottom - 2) btn_area.y2 += obj_cords.y1 + LV_MIN(pbottom,
 956:Drivers/lvgl/lvgl/src/widgets/lv_btnmatrix.c ****                                                                                     BTN_EXTRA_CLICK
 957:Drivers/lvgl/lvgl/src/widgets/lv_btnmatrix.c ****         else btn_area.y2 += obj_cords.y1 + prow;
 958:Drivers/lvgl/lvgl/src/widgets/lv_btnmatrix.c **** 
 959:Drivers/lvgl/lvgl/src/widgets/lv_btnmatrix.c ****         if(_lv_area_is_point_on(&btn_area, p, 0) != false) {
 960:Drivers/lvgl/lvgl/src/widgets/lv_btnmatrix.c ****             break;
 961:Drivers/lvgl/lvgl/src/widgets/lv_btnmatrix.c ****         }
 962:Drivers/lvgl/lvgl/src/widgets/lv_btnmatrix.c ****     }
 963:Drivers/lvgl/lvgl/src/widgets/lv_btnmatrix.c **** 
 964:Drivers/lvgl/lvgl/src/widgets/lv_btnmatrix.c ****     if(i == btnm->btn_cnt) i = LV_BTNMATRIX_BTN_NONE;
 965:Drivers/lvgl/lvgl/src/widgets/lv_btnmatrix.c **** 
 966:Drivers/lvgl/lvgl/src/widgets/lv_btnmatrix.c ****     return i;
 967:Drivers/lvgl/lvgl/src/widgets/lv_btnmatrix.c **** }
 968:Drivers/lvgl/lvgl/src/widgets/lv_btnmatrix.c **** 
 969:Drivers/lvgl/lvgl/src/widgets/lv_btnmatrix.c **** static void invalidate_button_area(const lv_obj_t * obj, uint16_t btn_idx)
ARM GAS  /tmp/ccpV5owi.s 			page 22


 970:Drivers/lvgl/lvgl/src/widgets/lv_btnmatrix.c **** {
 971:Drivers/lvgl/lvgl/src/widgets/lv_btnmatrix.c ****     if(btn_idx == LV_BTNMATRIX_BTN_NONE) return;
 972:Drivers/lvgl/lvgl/src/widgets/lv_btnmatrix.c **** 
 973:Drivers/lvgl/lvgl/src/widgets/lv_btnmatrix.c ****     lv_area_t btn_area;
 974:Drivers/lvgl/lvgl/src/widgets/lv_btnmatrix.c ****     lv_area_t obj_area;
 975:Drivers/lvgl/lvgl/src/widgets/lv_btnmatrix.c **** 
 976:Drivers/lvgl/lvgl/src/widgets/lv_btnmatrix.c ****     lv_btnmatrix_t * btnm = (lv_btnmatrix_t *)obj;;
 977:Drivers/lvgl/lvgl/src/widgets/lv_btnmatrix.c ****     if(btn_idx >= btnm->btn_cnt) return;
 978:Drivers/lvgl/lvgl/src/widgets/lv_btnmatrix.c **** 
 979:Drivers/lvgl/lvgl/src/widgets/lv_btnmatrix.c ****     lv_area_copy(&btn_area, &btnm->button_areas[btn_idx]);
 980:Drivers/lvgl/lvgl/src/widgets/lv_btnmatrix.c ****     lv_obj_get_coords(obj, &obj_area);
 981:Drivers/lvgl/lvgl/src/widgets/lv_btnmatrix.c **** 
 982:Drivers/lvgl/lvgl/src/widgets/lv_btnmatrix.c ****     /*The buttons might have outline and shadow so make the invalidation larger with the gaps betwe
 983:Drivers/lvgl/lvgl/src/widgets/lv_btnmatrix.c ****      *It assumes that the outline or shadow is smaller than the gaps*/
 984:Drivers/lvgl/lvgl/src/widgets/lv_btnmatrix.c ****     lv_coord_t row_gap = lv_obj_get_style_pad_row(obj, LV_PART_MAIN);
 985:Drivers/lvgl/lvgl/src/widgets/lv_btnmatrix.c ****     lv_coord_t col_gap = lv_obj_get_style_pad_column(obj, LV_PART_MAIN);
 986:Drivers/lvgl/lvgl/src/widgets/lv_btnmatrix.c **** 
 987:Drivers/lvgl/lvgl/src/widgets/lv_btnmatrix.c ****     /*Be sure to have a minimal extra space if row/col_gap is small*/
 988:Drivers/lvgl/lvgl/src/widgets/lv_btnmatrix.c ****     lv_coord_t dpi = lv_disp_get_dpi(lv_obj_get_disp(obj));
 989:Drivers/lvgl/lvgl/src/widgets/lv_btnmatrix.c ****     row_gap = LV_MAX(row_gap, dpi / 10);
 990:Drivers/lvgl/lvgl/src/widgets/lv_btnmatrix.c ****     col_gap = LV_MAX(col_gap, dpi / 10);
 991:Drivers/lvgl/lvgl/src/widgets/lv_btnmatrix.c **** 
 992:Drivers/lvgl/lvgl/src/widgets/lv_btnmatrix.c ****     /*Convert relative coordinates to absolute*/
 993:Drivers/lvgl/lvgl/src/widgets/lv_btnmatrix.c ****     btn_area.x1 += obj_area.x1 - row_gap;
 994:Drivers/lvgl/lvgl/src/widgets/lv_btnmatrix.c ****     btn_area.y1 += obj_area.y1 - col_gap;
 995:Drivers/lvgl/lvgl/src/widgets/lv_btnmatrix.c ****     btn_area.x2 += obj_area.x1 + row_gap;
 996:Drivers/lvgl/lvgl/src/widgets/lv_btnmatrix.c ****     btn_area.y2 += obj_area.y1 + col_gap;
 997:Drivers/lvgl/lvgl/src/widgets/lv_btnmatrix.c **** 
 998:Drivers/lvgl/lvgl/src/widgets/lv_btnmatrix.c ****     if((btn_idx == btnm->btn_id_sel) && (btnm->ctrl_bits[btn_idx] & LV_BTNMATRIX_CTRL_POPOVER)) {
 999:Drivers/lvgl/lvgl/src/widgets/lv_btnmatrix.c ****         /*Push up the upper boundary of the btn area to also invalidate the popover*/
1000:Drivers/lvgl/lvgl/src/widgets/lv_btnmatrix.c ****         btn_area.y1 -= lv_area_get_height(&btn_area);
1001:Drivers/lvgl/lvgl/src/widgets/lv_btnmatrix.c ****     }
1002:Drivers/lvgl/lvgl/src/widgets/lv_btnmatrix.c **** 
1003:Drivers/lvgl/lvgl/src/widgets/lv_btnmatrix.c ****     lv_obj_invalidate_area(obj, &btn_area);
1004:Drivers/lvgl/lvgl/src/widgets/lv_btnmatrix.c **** }
1005:Drivers/lvgl/lvgl/src/widgets/lv_btnmatrix.c **** 
1006:Drivers/lvgl/lvgl/src/widgets/lv_btnmatrix.c **** /**
1007:Drivers/lvgl/lvgl/src/widgets/lv_btnmatrix.c ****  * Enforces a single button being toggled on the button matrix.
1008:Drivers/lvgl/lvgl/src/widgets/lv_btnmatrix.c ****  * It simply clears the toggle flag on other buttons.
1009:Drivers/lvgl/lvgl/src/widgets/lv_btnmatrix.c ****  * @param obj Button matrix object
1010:Drivers/lvgl/lvgl/src/widgets/lv_btnmatrix.c ****  * @param btn_idx Button that should remain toggled
1011:Drivers/lvgl/lvgl/src/widgets/lv_btnmatrix.c ****  */
1012:Drivers/lvgl/lvgl/src/widgets/lv_btnmatrix.c **** static void make_one_button_checked(lv_obj_t * obj, uint16_t btn_idx)
1013:Drivers/lvgl/lvgl/src/widgets/lv_btnmatrix.c **** {
1014:Drivers/lvgl/lvgl/src/widgets/lv_btnmatrix.c ****     /*Save whether the button was toggled*/
1015:Drivers/lvgl/lvgl/src/widgets/lv_btnmatrix.c ****     bool was_toggled = lv_btnmatrix_has_btn_ctrl(obj, btn_idx, LV_BTNMATRIX_CTRL_CHECKED);
1016:Drivers/lvgl/lvgl/src/widgets/lv_btnmatrix.c **** 
1017:Drivers/lvgl/lvgl/src/widgets/lv_btnmatrix.c ****     lv_btnmatrix_clear_btn_ctrl_all(obj, LV_BTNMATRIX_CTRL_CHECKED);
1018:Drivers/lvgl/lvgl/src/widgets/lv_btnmatrix.c **** 
1019:Drivers/lvgl/lvgl/src/widgets/lv_btnmatrix.c ****     if(was_toggled) lv_btnmatrix_set_btn_ctrl(obj, btn_idx, LV_BTNMATRIX_CTRL_CHECKED);
1020:Drivers/lvgl/lvgl/src/widgets/lv_btnmatrix.c **** }
1021:Drivers/lvgl/lvgl/src/widgets/lv_btnmatrix.c **** 
1022:Drivers/lvgl/lvgl/src/widgets/lv_btnmatrix.c **** /**
1023:Drivers/lvgl/lvgl/src/widgets/lv_btnmatrix.c ****  * Check if any of the buttons in the first row has the LV_BTNMATRIX_CTRL_POPOVER control flag set.
1024:Drivers/lvgl/lvgl/src/widgets/lv_btnmatrix.c ****  * @param obj Button matrix object
1025:Drivers/lvgl/lvgl/src/widgets/lv_btnmatrix.c ****  * @return true if at least one button has the flag, false otherwise
1026:Drivers/lvgl/lvgl/src/widgets/lv_btnmatrix.c ****  */
ARM GAS  /tmp/ccpV5owi.s 			page 23


1027:Drivers/lvgl/lvgl/src/widgets/lv_btnmatrix.c **** static bool has_popovers_in_top_row(lv_obj_t * obj)
1028:Drivers/lvgl/lvgl/src/widgets/lv_btnmatrix.c **** {
 250              		.loc 1 1028 0
 251              		.cfi_startproc
 252              		@ args = 0, pretend = 0, frame = 0
 253              		@ frame_needed = 0, uses_anonymous_args = 0
 254              	.LVL20:
1029:Drivers/lvgl/lvgl/src/widgets/lv_btnmatrix.c ****     lv_btnmatrix_t * btnm = (lv_btnmatrix_t *)obj;
1030:Drivers/lvgl/lvgl/src/widgets/lv_btnmatrix.c **** 
1031:Drivers/lvgl/lvgl/src/widgets/lv_btnmatrix.c ****     if(btnm->row_cnt <= 0) {
 255              		.loc 1 1031 0
 256 0000 438E     		ldrh	r3, [r0, #50]
 257 0002 D3B1     		cbz	r3, .L17
1028:Drivers/lvgl/lvgl/src/widgets/lv_btnmatrix.c ****     lv_btnmatrix_t * btnm = (lv_btnmatrix_t *)obj;
 258              		.loc 1 1028 0
 259 0004 2DE9F041 		push	{r4, r5, r6, r7, r8, lr}
 260              	.LCFI0:
 261              		.cfi_def_cfa_offset 24
 262              		.cfi_offset 4, -24
 263              		.cfi_offset 5, -20
 264              		.cfi_offset 6, -16
 265              		.cfi_offset 7, -12
 266              		.cfi_offset 8, -8
 267              		.cfi_offset 14, -4
 268 0008 0746     		mov	r7, r0
1032:Drivers/lvgl/lvgl/src/widgets/lv_btnmatrix.c ****         return false;
1033:Drivers/lvgl/lvgl/src/widgets/lv_btnmatrix.c ****     }
1034:Drivers/lvgl/lvgl/src/widgets/lv_btnmatrix.c **** 
1035:Drivers/lvgl/lvgl/src/widgets/lv_btnmatrix.c ****     const char ** map_row = btnm->map_p;
 269              		.loc 1 1035 0
 270 000a D0F82480 		ldr	r8, [r0, #36]
 271              	.LVL21:
1036:Drivers/lvgl/lvgl/src/widgets/lv_btnmatrix.c ****     uint16_t btn_cnt = 0;
 272              		.loc 1 1036 0
 273 000e 0024     		movs	r4, #0
 274              	.LVL22:
 275              	.L15:
1037:Drivers/lvgl/lvgl/src/widgets/lv_btnmatrix.c **** 
1038:Drivers/lvgl/lvgl/src/widgets/lv_btnmatrix.c ****     while(map_row[btn_cnt] && strcmp(map_row[btn_cnt], "\n") != 0 && map_row[btn_cnt][0] != '\0') {
 276              		.loc 1 1038 0
 277 0010 2646     		mov	r6, r4
 278 0012 58F82450 		ldr	r5, [r8, r4, lsl #2]
 279 0016 9DB1     		cbz	r5, .L18
 280              		.loc 1 1038 0 is_stmt 0 discriminator 1
 281 0018 0C49     		ldr	r1, .L24
 282 001a 2846     		mov	r0, r5
 283 001c FFF7FEFF 		bl	strcmp
 284              	.LVL23:
 285 0020 90B1     		cbz	r0, .L19
 286              		.loc 1 1038 0 discriminator 2
 287 0022 2B78     		ldrb	r3, [r5]	@ zero_extendqisi2
 288 0024 6BB1     		cbz	r3, .L14
1039:Drivers/lvgl/lvgl/src/widgets/lv_btnmatrix.c ****         if(button_is_popover(btnm->ctrl_bits[btn_cnt])) {
 289              		.loc 1 1039 0 is_stmt 1
 290 0026 FB6A     		ldr	r3, [r7, #44]
 291 0028 33F81600 		ldrh	r0, [r3, r6, lsl #1]
 292 002c FFF7FEFF 		bl	button_is_popover
ARM GAS  /tmp/ccpV5owi.s 			page 24


 293              	.LVL24:
 294 0030 0346     		mov	r3, r0
 295 0032 30B9     		cbnz	r0, .L14
1040:Drivers/lvgl/lvgl/src/widgets/lv_btnmatrix.c ****             return true;
1041:Drivers/lvgl/lvgl/src/widgets/lv_btnmatrix.c ****         }
1042:Drivers/lvgl/lvgl/src/widgets/lv_btnmatrix.c ****         btn_cnt++;
 296              		.loc 1 1042 0
 297 0034 0134     		adds	r4, r4, #1
 298              	.LVL25:
 299 0036 A4B2     		uxth	r4, r4
 300              	.LVL26:
 301 0038 EAE7     		b	.L15
 302              	.LVL27:
 303              	.L17:
 304              	.LCFI1:
 305              		.cfi_def_cfa_offset 0
 306              		.cfi_restore 4
 307              		.cfi_restore 5
 308              		.cfi_restore 6
 309              		.cfi_restore 7
 310              		.cfi_restore 8
 311              		.cfi_restore 14
1032:Drivers/lvgl/lvgl/src/widgets/lv_btnmatrix.c ****     }
 312              		.loc 1 1032 0
 313 003a 0023     		movs	r3, #0
1043:Drivers/lvgl/lvgl/src/widgets/lv_btnmatrix.c ****     }
1044:Drivers/lvgl/lvgl/src/widgets/lv_btnmatrix.c **** 
1045:Drivers/lvgl/lvgl/src/widgets/lv_btnmatrix.c ****     return false;
1046:Drivers/lvgl/lvgl/src/widgets/lv_btnmatrix.c **** }
 314              		.loc 1 1046 0
 315 003c 1846     		mov	r0, r3
 316              	.LVL28:
 317 003e 7047     		bx	lr
 318              	.LVL29:
 319              	.L18:
 320              	.LCFI2:
 321              		.cfi_def_cfa_offset 24
 322              		.cfi_offset 4, -24
 323              		.cfi_offset 5, -20
 324              		.cfi_offset 6, -16
 325              		.cfi_offset 7, -12
 326              		.cfi_offset 8, -8
 327              		.cfi_offset 14, -4
1045:Drivers/lvgl/lvgl/src/widgets/lv_btnmatrix.c **** }
 328              		.loc 1 1045 0
 329 0040 0023     		movs	r3, #0
 330              	.L14:
 331              		.loc 1 1046 0
 332 0042 1846     		mov	r0, r3
 333 0044 BDE8F081 		pop	{r4, r5, r6, r7, r8, pc}
 334              	.LVL30:
 335              	.L19:
1045:Drivers/lvgl/lvgl/src/widgets/lv_btnmatrix.c **** }
 336              		.loc 1 1045 0
 337 0048 0023     		movs	r3, #0
 338 004a FAE7     		b	.L14
 339              	.L25:
ARM GAS  /tmp/ccpV5owi.s 			page 25


 340              		.align	2
 341              	.L24:
 342 004c 00000000 		.word	.LC0
 343              		.cfi_endproc
 344              	.LFE192:
 346              		.section	.text.get_button_from_point,"ax",%progbits
 347              		.align	1
 348              		.syntax unified
 349              		.thumb
 350              		.thumb_func
 351              		.fpu fpv5-d16
 353              	get_button_from_point:
 354              	.LFB189:
 917:Drivers/lvgl/lvgl/src/widgets/lv_btnmatrix.c ****     lv_area_t obj_cords;
 355              		.loc 1 917 0
 356              		.cfi_startproc
 357              		@ args = 0, pretend = 0, frame = 32
 358              		@ frame_needed = 0, uses_anonymous_args = 0
 359              	.LVL31:
 360 0000 2DE9F04F 		push	{r4, r5, r6, r7, r8, r9, r10, fp, lr}
 361              	.LCFI3:
 362              		.cfi_def_cfa_offset 36
 363              		.cfi_offset 4, -36
 364              		.cfi_offset 5, -32
 365              		.cfi_offset 6, -28
 366              		.cfi_offset 7, -24
 367              		.cfi_offset 8, -20
 368              		.cfi_offset 9, -16
 369              		.cfi_offset 10, -12
 370              		.cfi_offset 11, -8
 371              		.cfi_offset 14, -4
 372 0004 89B0     		sub	sp, sp, #36
 373              	.LCFI4:
 374              		.cfi_def_cfa_offset 72
 375 0006 0546     		mov	r5, r0
 376 0008 0391     		str	r1, [sp, #12]
 377              	.LVL32:
 922:Drivers/lvgl/lvgl/src/widgets/lv_btnmatrix.c **** 
 378              		.loc 1 922 0
 379 000a 06A9     		add	r1, sp, #24
 380              	.LVL33:
 381 000c FFF7FEFF 		bl	lv_obj_get_coords
 382              	.LVL34:
 924:Drivers/lvgl/lvgl/src/widgets/lv_btnmatrix.c ****     lv_coord_t h = lv_obj_get_height(obj);
 383              		.loc 1 924 0
 384 0010 2846     		mov	r0, r5
 385 0012 FFF7FEFF 		bl	lv_obj_get_width
 386              	.LVL35:
 387 0016 0190     		str	r0, [sp, #4]
 388              	.LVL36:
 925:Drivers/lvgl/lvgl/src/widgets/lv_btnmatrix.c ****     lv_coord_t pleft = lv_obj_get_style_pad_left(obj, LV_PART_MAIN);
 389              		.loc 1 925 0
 390 0018 2846     		mov	r0, r5
 391 001a FFF7FEFF 		bl	lv_obj_get_height
 392              	.LVL37:
 393 001e 0290     		str	r0, [sp, #8]
 394              	.LVL38:
ARM GAS  /tmp/ccpV5owi.s 			page 26


 395              	.LBB79:
 396              	.LBB80:
 397              		.file 2 "Drivers/lvgl/lvgl/src/widgets/../core/lv_obj_style_gen.h"
   1:Drivers/lvgl/lvgl/src/widgets/../core/lv_obj_style_gen.h **** static inline lv_coord_t lv_obj_get_style_width(const struct _lv_obj_t * obj, uint32_t part)
   2:Drivers/lvgl/lvgl/src/widgets/../core/lv_obj_style_gen.h **** {
   3:Drivers/lvgl/lvgl/src/widgets/../core/lv_obj_style_gen.h ****     lv_style_value_t v = lv_obj_get_style_prop(obj, part, LV_STYLE_WIDTH);
   4:Drivers/lvgl/lvgl/src/widgets/../core/lv_obj_style_gen.h ****     return (lv_coord_t)v.num;
   5:Drivers/lvgl/lvgl/src/widgets/../core/lv_obj_style_gen.h **** }
   6:Drivers/lvgl/lvgl/src/widgets/../core/lv_obj_style_gen.h **** 
   7:Drivers/lvgl/lvgl/src/widgets/../core/lv_obj_style_gen.h **** static inline lv_coord_t lv_obj_get_style_min_width(const struct _lv_obj_t * obj, uint32_t part)
   8:Drivers/lvgl/lvgl/src/widgets/../core/lv_obj_style_gen.h **** {
   9:Drivers/lvgl/lvgl/src/widgets/../core/lv_obj_style_gen.h ****     lv_style_value_t v = lv_obj_get_style_prop(obj, part, LV_STYLE_MIN_WIDTH);
  10:Drivers/lvgl/lvgl/src/widgets/../core/lv_obj_style_gen.h ****     return (lv_coord_t)v.num;
  11:Drivers/lvgl/lvgl/src/widgets/../core/lv_obj_style_gen.h **** }
  12:Drivers/lvgl/lvgl/src/widgets/../core/lv_obj_style_gen.h **** 
  13:Drivers/lvgl/lvgl/src/widgets/../core/lv_obj_style_gen.h **** static inline lv_coord_t lv_obj_get_style_max_width(const struct _lv_obj_t * obj, uint32_t part)
  14:Drivers/lvgl/lvgl/src/widgets/../core/lv_obj_style_gen.h **** {
  15:Drivers/lvgl/lvgl/src/widgets/../core/lv_obj_style_gen.h ****     lv_style_value_t v = lv_obj_get_style_prop(obj, part, LV_STYLE_MAX_WIDTH);
  16:Drivers/lvgl/lvgl/src/widgets/../core/lv_obj_style_gen.h ****     return (lv_coord_t)v.num;
  17:Drivers/lvgl/lvgl/src/widgets/../core/lv_obj_style_gen.h **** }
  18:Drivers/lvgl/lvgl/src/widgets/../core/lv_obj_style_gen.h **** 
  19:Drivers/lvgl/lvgl/src/widgets/../core/lv_obj_style_gen.h **** static inline lv_coord_t lv_obj_get_style_height(const struct _lv_obj_t * obj, uint32_t part)
  20:Drivers/lvgl/lvgl/src/widgets/../core/lv_obj_style_gen.h **** {
  21:Drivers/lvgl/lvgl/src/widgets/../core/lv_obj_style_gen.h ****     lv_style_value_t v = lv_obj_get_style_prop(obj, part, LV_STYLE_HEIGHT);
  22:Drivers/lvgl/lvgl/src/widgets/../core/lv_obj_style_gen.h ****     return (lv_coord_t)v.num;
  23:Drivers/lvgl/lvgl/src/widgets/../core/lv_obj_style_gen.h **** }
  24:Drivers/lvgl/lvgl/src/widgets/../core/lv_obj_style_gen.h **** 
  25:Drivers/lvgl/lvgl/src/widgets/../core/lv_obj_style_gen.h **** static inline lv_coord_t lv_obj_get_style_min_height(const struct _lv_obj_t * obj, uint32_t part)
  26:Drivers/lvgl/lvgl/src/widgets/../core/lv_obj_style_gen.h **** {
  27:Drivers/lvgl/lvgl/src/widgets/../core/lv_obj_style_gen.h ****     lv_style_value_t v = lv_obj_get_style_prop(obj, part, LV_STYLE_MIN_HEIGHT);
  28:Drivers/lvgl/lvgl/src/widgets/../core/lv_obj_style_gen.h ****     return (lv_coord_t)v.num;
  29:Drivers/lvgl/lvgl/src/widgets/../core/lv_obj_style_gen.h **** }
  30:Drivers/lvgl/lvgl/src/widgets/../core/lv_obj_style_gen.h **** 
  31:Drivers/lvgl/lvgl/src/widgets/../core/lv_obj_style_gen.h **** static inline lv_coord_t lv_obj_get_style_max_height(const struct _lv_obj_t * obj, uint32_t part)
  32:Drivers/lvgl/lvgl/src/widgets/../core/lv_obj_style_gen.h **** {
  33:Drivers/lvgl/lvgl/src/widgets/../core/lv_obj_style_gen.h ****     lv_style_value_t v = lv_obj_get_style_prop(obj, part, LV_STYLE_MAX_HEIGHT);
  34:Drivers/lvgl/lvgl/src/widgets/../core/lv_obj_style_gen.h ****     return (lv_coord_t)v.num;
  35:Drivers/lvgl/lvgl/src/widgets/../core/lv_obj_style_gen.h **** }
  36:Drivers/lvgl/lvgl/src/widgets/../core/lv_obj_style_gen.h **** 
  37:Drivers/lvgl/lvgl/src/widgets/../core/lv_obj_style_gen.h **** static inline lv_coord_t lv_obj_get_style_x(const struct _lv_obj_t * obj, uint32_t part)
  38:Drivers/lvgl/lvgl/src/widgets/../core/lv_obj_style_gen.h **** {
  39:Drivers/lvgl/lvgl/src/widgets/../core/lv_obj_style_gen.h ****     lv_style_value_t v = lv_obj_get_style_prop(obj, part, LV_STYLE_X);
  40:Drivers/lvgl/lvgl/src/widgets/../core/lv_obj_style_gen.h ****     return (lv_coord_t)v.num;
  41:Drivers/lvgl/lvgl/src/widgets/../core/lv_obj_style_gen.h **** }
  42:Drivers/lvgl/lvgl/src/widgets/../core/lv_obj_style_gen.h **** 
  43:Drivers/lvgl/lvgl/src/widgets/../core/lv_obj_style_gen.h **** static inline lv_coord_t lv_obj_get_style_y(const struct _lv_obj_t * obj, uint32_t part)
  44:Drivers/lvgl/lvgl/src/widgets/../core/lv_obj_style_gen.h **** {
  45:Drivers/lvgl/lvgl/src/widgets/../core/lv_obj_style_gen.h ****     lv_style_value_t v = lv_obj_get_style_prop(obj, part, LV_STYLE_Y);
  46:Drivers/lvgl/lvgl/src/widgets/../core/lv_obj_style_gen.h ****     return (lv_coord_t)v.num;
  47:Drivers/lvgl/lvgl/src/widgets/../core/lv_obj_style_gen.h **** }
  48:Drivers/lvgl/lvgl/src/widgets/../core/lv_obj_style_gen.h **** 
  49:Drivers/lvgl/lvgl/src/widgets/../core/lv_obj_style_gen.h **** static inline lv_align_t lv_obj_get_style_align(const struct _lv_obj_t * obj, uint32_t part)
  50:Drivers/lvgl/lvgl/src/widgets/../core/lv_obj_style_gen.h **** {
  51:Drivers/lvgl/lvgl/src/widgets/../core/lv_obj_style_gen.h ****     lv_style_value_t v = lv_obj_get_style_prop(obj, part, LV_STYLE_ALIGN);
  52:Drivers/lvgl/lvgl/src/widgets/../core/lv_obj_style_gen.h ****     return (lv_align_t)v.num;
  53:Drivers/lvgl/lvgl/src/widgets/../core/lv_obj_style_gen.h **** }
  54:Drivers/lvgl/lvgl/src/widgets/../core/lv_obj_style_gen.h **** 
ARM GAS  /tmp/ccpV5owi.s 			page 27


  55:Drivers/lvgl/lvgl/src/widgets/../core/lv_obj_style_gen.h **** static inline lv_coord_t lv_obj_get_style_transform_width(const struct _lv_obj_t * obj, uint32_t pa
  56:Drivers/lvgl/lvgl/src/widgets/../core/lv_obj_style_gen.h **** {
  57:Drivers/lvgl/lvgl/src/widgets/../core/lv_obj_style_gen.h ****     lv_style_value_t v = lv_obj_get_style_prop(obj, part, LV_STYLE_TRANSFORM_WIDTH);
  58:Drivers/lvgl/lvgl/src/widgets/../core/lv_obj_style_gen.h ****     return (lv_coord_t)v.num;
  59:Drivers/lvgl/lvgl/src/widgets/../core/lv_obj_style_gen.h **** }
  60:Drivers/lvgl/lvgl/src/widgets/../core/lv_obj_style_gen.h **** 
  61:Drivers/lvgl/lvgl/src/widgets/../core/lv_obj_style_gen.h **** static inline lv_coord_t lv_obj_get_style_transform_height(const struct _lv_obj_t * obj, uint32_t p
  62:Drivers/lvgl/lvgl/src/widgets/../core/lv_obj_style_gen.h **** {
  63:Drivers/lvgl/lvgl/src/widgets/../core/lv_obj_style_gen.h ****     lv_style_value_t v = lv_obj_get_style_prop(obj, part, LV_STYLE_TRANSFORM_HEIGHT);
  64:Drivers/lvgl/lvgl/src/widgets/../core/lv_obj_style_gen.h ****     return (lv_coord_t)v.num;
  65:Drivers/lvgl/lvgl/src/widgets/../core/lv_obj_style_gen.h **** }
  66:Drivers/lvgl/lvgl/src/widgets/../core/lv_obj_style_gen.h **** 
  67:Drivers/lvgl/lvgl/src/widgets/../core/lv_obj_style_gen.h **** static inline lv_coord_t lv_obj_get_style_translate_x(const struct _lv_obj_t * obj, uint32_t part)
  68:Drivers/lvgl/lvgl/src/widgets/../core/lv_obj_style_gen.h **** {
  69:Drivers/lvgl/lvgl/src/widgets/../core/lv_obj_style_gen.h ****     lv_style_value_t v = lv_obj_get_style_prop(obj, part, LV_STYLE_TRANSLATE_X);
  70:Drivers/lvgl/lvgl/src/widgets/../core/lv_obj_style_gen.h ****     return (lv_coord_t)v.num;
  71:Drivers/lvgl/lvgl/src/widgets/../core/lv_obj_style_gen.h **** }
  72:Drivers/lvgl/lvgl/src/widgets/../core/lv_obj_style_gen.h **** 
  73:Drivers/lvgl/lvgl/src/widgets/../core/lv_obj_style_gen.h **** static inline lv_coord_t lv_obj_get_style_translate_y(const struct _lv_obj_t * obj, uint32_t part)
  74:Drivers/lvgl/lvgl/src/widgets/../core/lv_obj_style_gen.h **** {
  75:Drivers/lvgl/lvgl/src/widgets/../core/lv_obj_style_gen.h ****     lv_style_value_t v = lv_obj_get_style_prop(obj, part, LV_STYLE_TRANSLATE_Y);
  76:Drivers/lvgl/lvgl/src/widgets/../core/lv_obj_style_gen.h ****     return (lv_coord_t)v.num;
  77:Drivers/lvgl/lvgl/src/widgets/../core/lv_obj_style_gen.h **** }
  78:Drivers/lvgl/lvgl/src/widgets/../core/lv_obj_style_gen.h **** 
  79:Drivers/lvgl/lvgl/src/widgets/../core/lv_obj_style_gen.h **** static inline lv_coord_t lv_obj_get_style_transform_zoom(const struct _lv_obj_t * obj, uint32_t par
  80:Drivers/lvgl/lvgl/src/widgets/../core/lv_obj_style_gen.h **** {
  81:Drivers/lvgl/lvgl/src/widgets/../core/lv_obj_style_gen.h ****     lv_style_value_t v = lv_obj_get_style_prop(obj, part, LV_STYLE_TRANSFORM_ZOOM);
  82:Drivers/lvgl/lvgl/src/widgets/../core/lv_obj_style_gen.h ****     return (lv_coord_t)v.num;
  83:Drivers/lvgl/lvgl/src/widgets/../core/lv_obj_style_gen.h **** }
  84:Drivers/lvgl/lvgl/src/widgets/../core/lv_obj_style_gen.h **** 
  85:Drivers/lvgl/lvgl/src/widgets/../core/lv_obj_style_gen.h **** static inline lv_coord_t lv_obj_get_style_transform_angle(const struct _lv_obj_t * obj, uint32_t pa
  86:Drivers/lvgl/lvgl/src/widgets/../core/lv_obj_style_gen.h **** {
  87:Drivers/lvgl/lvgl/src/widgets/../core/lv_obj_style_gen.h ****     lv_style_value_t v = lv_obj_get_style_prop(obj, part, LV_STYLE_TRANSFORM_ANGLE);
  88:Drivers/lvgl/lvgl/src/widgets/../core/lv_obj_style_gen.h ****     return (lv_coord_t)v.num;
  89:Drivers/lvgl/lvgl/src/widgets/../core/lv_obj_style_gen.h **** }
  90:Drivers/lvgl/lvgl/src/widgets/../core/lv_obj_style_gen.h **** 
  91:Drivers/lvgl/lvgl/src/widgets/../core/lv_obj_style_gen.h **** static inline lv_coord_t lv_obj_get_style_transform_pivot_x(const struct _lv_obj_t * obj, uint32_t 
  92:Drivers/lvgl/lvgl/src/widgets/../core/lv_obj_style_gen.h **** {
  93:Drivers/lvgl/lvgl/src/widgets/../core/lv_obj_style_gen.h ****     lv_style_value_t v = lv_obj_get_style_prop(obj, part, LV_STYLE_TRANSFORM_PIVOT_X);
  94:Drivers/lvgl/lvgl/src/widgets/../core/lv_obj_style_gen.h ****     return (lv_coord_t)v.num;
  95:Drivers/lvgl/lvgl/src/widgets/../core/lv_obj_style_gen.h **** }
  96:Drivers/lvgl/lvgl/src/widgets/../core/lv_obj_style_gen.h **** 
  97:Drivers/lvgl/lvgl/src/widgets/../core/lv_obj_style_gen.h **** static inline lv_coord_t lv_obj_get_style_transform_pivot_y(const struct _lv_obj_t * obj, uint32_t 
  98:Drivers/lvgl/lvgl/src/widgets/../core/lv_obj_style_gen.h **** {
  99:Drivers/lvgl/lvgl/src/widgets/../core/lv_obj_style_gen.h ****     lv_style_value_t v = lv_obj_get_style_prop(obj, part, LV_STYLE_TRANSFORM_PIVOT_Y);
 100:Drivers/lvgl/lvgl/src/widgets/../core/lv_obj_style_gen.h ****     return (lv_coord_t)v.num;
 101:Drivers/lvgl/lvgl/src/widgets/../core/lv_obj_style_gen.h **** }
 102:Drivers/lvgl/lvgl/src/widgets/../core/lv_obj_style_gen.h **** 
 103:Drivers/lvgl/lvgl/src/widgets/../core/lv_obj_style_gen.h **** static inline lv_coord_t lv_obj_get_style_pad_top(const struct _lv_obj_t * obj, uint32_t part)
 104:Drivers/lvgl/lvgl/src/widgets/../core/lv_obj_style_gen.h **** {
 105:Drivers/lvgl/lvgl/src/widgets/../core/lv_obj_style_gen.h ****     lv_style_value_t v = lv_obj_get_style_prop(obj, part, LV_STYLE_PAD_TOP);
 106:Drivers/lvgl/lvgl/src/widgets/../core/lv_obj_style_gen.h ****     return (lv_coord_t)v.num;
 107:Drivers/lvgl/lvgl/src/widgets/../core/lv_obj_style_gen.h **** }
 108:Drivers/lvgl/lvgl/src/widgets/../core/lv_obj_style_gen.h **** 
 109:Drivers/lvgl/lvgl/src/widgets/../core/lv_obj_style_gen.h **** static inline lv_coord_t lv_obj_get_style_pad_bottom(const struct _lv_obj_t * obj, uint32_t part)
 110:Drivers/lvgl/lvgl/src/widgets/../core/lv_obj_style_gen.h **** {
 111:Drivers/lvgl/lvgl/src/widgets/../core/lv_obj_style_gen.h ****     lv_style_value_t v = lv_obj_get_style_prop(obj, part, LV_STYLE_PAD_BOTTOM);
ARM GAS  /tmp/ccpV5owi.s 			page 28


 112:Drivers/lvgl/lvgl/src/widgets/../core/lv_obj_style_gen.h ****     return (lv_coord_t)v.num;
 113:Drivers/lvgl/lvgl/src/widgets/../core/lv_obj_style_gen.h **** }
 114:Drivers/lvgl/lvgl/src/widgets/../core/lv_obj_style_gen.h **** 
 115:Drivers/lvgl/lvgl/src/widgets/../core/lv_obj_style_gen.h **** static inline lv_coord_t lv_obj_get_style_pad_left(const struct _lv_obj_t * obj, uint32_t part)
 116:Drivers/lvgl/lvgl/src/widgets/../core/lv_obj_style_gen.h **** {
 117:Drivers/lvgl/lvgl/src/widgets/../core/lv_obj_style_gen.h ****     lv_style_value_t v = lv_obj_get_style_prop(obj, part, LV_STYLE_PAD_LEFT);
 398              		.loc 2 117 0
 399 0020 1222     		movs	r2, #18
 400 0022 0021     		movs	r1, #0
 401 0024 2846     		mov	r0, r5
 402 0026 FFF7FEFF 		bl	lv_obj_get_style_prop
 403              	.LVL39:
 118:Drivers/lvgl/lvgl/src/widgets/../core/lv_obj_style_gen.h ****     return (lv_coord_t)v.num;
 404              		.loc 2 118 0
 405 002a 0FFA80FB 		sxth	fp, r0
 406              	.LVL40:
 407              	.LBE80:
 408              	.LBE79:
 409              	.LBB81:
 410              	.LBB82:
 119:Drivers/lvgl/lvgl/src/widgets/../core/lv_obj_style_gen.h **** }
 120:Drivers/lvgl/lvgl/src/widgets/../core/lv_obj_style_gen.h **** 
 121:Drivers/lvgl/lvgl/src/widgets/../core/lv_obj_style_gen.h **** static inline lv_coord_t lv_obj_get_style_pad_right(const struct _lv_obj_t * obj, uint32_t part)
 122:Drivers/lvgl/lvgl/src/widgets/../core/lv_obj_style_gen.h **** {
 123:Drivers/lvgl/lvgl/src/widgets/../core/lv_obj_style_gen.h ****     lv_style_value_t v = lv_obj_get_style_prop(obj, part, LV_STYLE_PAD_RIGHT);
 411              		.loc 2 123 0
 412 002e 1322     		movs	r2, #19
 413 0030 0021     		movs	r1, #0
 414 0032 2846     		mov	r0, r5
 415 0034 FFF7FEFF 		bl	lv_obj_get_style_prop
 416              	.LVL41:
 124:Drivers/lvgl/lvgl/src/widgets/../core/lv_obj_style_gen.h ****     return (lv_coord_t)v.num;
 417              		.loc 2 124 0
 418 0038 0FFA80FA 		sxth	r10, r0
 419              	.LVL42:
 420              	.LBE82:
 421              	.LBE81:
 422              	.LBB83:
 423              	.LBB84:
 105:Drivers/lvgl/lvgl/src/widgets/../core/lv_obj_style_gen.h ****     return (lv_coord_t)v.num;
 424              		.loc 2 105 0
 425 003c 1022     		movs	r2, #16
 426 003e 0021     		movs	r1, #0
 427 0040 2846     		mov	r0, r5
 428 0042 FFF7FEFF 		bl	lv_obj_get_style_prop
 429              	.LVL43:
 106:Drivers/lvgl/lvgl/src/widgets/../core/lv_obj_style_gen.h **** }
 430              		.loc 2 106 0
 431 0046 0FFA80F9 		sxth	r9, r0
 432              	.LVL44:
 433              	.LBE84:
 434              	.LBE83:
 435              	.LBB85:
 436              	.LBB86:
 111:Drivers/lvgl/lvgl/src/widgets/../core/lv_obj_style_gen.h ****     return (lv_coord_t)v.num;
 437              		.loc 2 111 0
 438 004a 1122     		movs	r2, #17
ARM GAS  /tmp/ccpV5owi.s 			page 29


 439 004c 0021     		movs	r1, #0
 440 004e 2846     		mov	r0, r5
 441 0050 FFF7FEFF 		bl	lv_obj_get_style_prop
 442              	.LVL45:
 112:Drivers/lvgl/lvgl/src/widgets/../core/lv_obj_style_gen.h **** }
 443              		.loc 2 112 0
 444 0054 0FFA80F8 		sxth	r8, r0
 445              	.LVL46:
 446              	.LBE86:
 447              	.LBE85:
 448              	.LBB87:
 449              	.LBB88:
 125:Drivers/lvgl/lvgl/src/widgets/../core/lv_obj_style_gen.h **** }
 126:Drivers/lvgl/lvgl/src/widgets/../core/lv_obj_style_gen.h **** 
 127:Drivers/lvgl/lvgl/src/widgets/../core/lv_obj_style_gen.h **** static inline lv_coord_t lv_obj_get_style_pad_row(const struct _lv_obj_t * obj, uint32_t part)
 128:Drivers/lvgl/lvgl/src/widgets/../core/lv_obj_style_gen.h **** {
 129:Drivers/lvgl/lvgl/src/widgets/../core/lv_obj_style_gen.h ****     lv_style_value_t v = lv_obj_get_style_prop(obj, part, LV_STYLE_PAD_ROW);
 450              		.loc 2 129 0
 451 0058 1422     		movs	r2, #20
 452 005a 0021     		movs	r1, #0
 453 005c 2846     		mov	r0, r5
 454 005e FFF7FEFF 		bl	lv_obj_get_style_prop
 455              	.LVL47:
 456 0062 0746     		mov	r7, r0
 457              	.LVL48:
 130:Drivers/lvgl/lvgl/src/widgets/../core/lv_obj_style_gen.h ****     return (lv_coord_t)v.num;
 458              		.loc 2 130 0
 459 0064 06B2     		sxth	r6, r0
 460              	.LVL49:
 461              	.LBE88:
 462              	.LBE87:
 463              	.LBB89:
 464              	.LBB90:
 131:Drivers/lvgl/lvgl/src/widgets/../core/lv_obj_style_gen.h **** }
 132:Drivers/lvgl/lvgl/src/widgets/../core/lv_obj_style_gen.h **** 
 133:Drivers/lvgl/lvgl/src/widgets/../core/lv_obj_style_gen.h **** static inline lv_coord_t lv_obj_get_style_pad_column(const struct _lv_obj_t * obj, uint32_t part)
 134:Drivers/lvgl/lvgl/src/widgets/../core/lv_obj_style_gen.h **** {
 135:Drivers/lvgl/lvgl/src/widgets/../core/lv_obj_style_gen.h ****     lv_style_value_t v = lv_obj_get_style_prop(obj, part, LV_STYLE_PAD_COLUMN);
 465              		.loc 2 135 0
 466 0066 1522     		movs	r2, #21
 467 0068 0021     		movs	r1, #0
 468 006a 2846     		mov	r0, r5
 469 006c FFF7FEFF 		bl	lv_obj_get_style_prop
 470              	.LVL50:
 136:Drivers/lvgl/lvgl/src/widgets/../core/lv_obj_style_gen.h ****     return (lv_coord_t)v.num;
 471              		.loc 2 136 0
 472 0070 03B2     		sxth	r3, r0
 473              	.LVL51:
 474              	.LBE90:
 475              	.LBE89:
 934:Drivers/lvgl/lvgl/src/widgets/lv_btnmatrix.c ****     pcol = (pcol / 2) + 1 + (pcol & 1);
 476              		.loc 1 934 0
 477 0072 07F00107 		and	r7, r7, #1
 478              	.LVL52:
 479 0076 3446     		mov	r4, r6
 480 0078 002E     		cmp	r6, #0
 481 007a 23DB     		blt	.L43
ARM GAS  /tmp/ccpV5owi.s 			page 30


 482              	.L27:
 483 007c 07EB6407 		add	r7, r7, r4, asr #1
 484 0080 0137     		adds	r7, r7, #1
 485 0082 3FB2     		sxth	r7, r7
 486              	.LVL53:
 935:Drivers/lvgl/lvgl/src/widgets/lv_btnmatrix.c **** 
 487              		.loc 1 935 0
 488 0084 00F00106 		and	r6, r0, #1
 489 0088 1846     		mov	r0, r3
 490 008a 002B     		cmp	r3, #0
 491 008c 1CDB     		blt	.L44
 492              	.L28:
 493 008e 06EB6006 		add	r6, r6, r0, asr #1
 494 0092 0136     		adds	r6, r6, #1
 495 0094 36B2     		sxth	r6, r6
 496              	.LVL54:
 937:Drivers/lvgl/lvgl/src/widgets/lv_btnmatrix.c ****     pcol = LV_MIN(pcol, BTN_EXTRA_CLICK_AREA_MAX);
 497              		.loc 1 937 0
 498 0096 0D2F     		cmp	r7, #13
 499 0098 A8BF     		it	ge
 500 009a 0D27     		movge	r7, #13
 501              	.LVL55:
 938:Drivers/lvgl/lvgl/src/widgets/lv_btnmatrix.c ****     pright = LV_MIN(pright, BTN_EXTRA_CLICK_AREA_MAX);
 502              		.loc 1 938 0
 503 009c 0D2E     		cmp	r6, #13
 504 009e A8BF     		it	ge
 505 00a0 0D26     		movge	r6, #13
 506              	.LVL56:
 939:Drivers/lvgl/lvgl/src/widgets/lv_btnmatrix.c ****     ptop = LV_MIN(ptop, BTN_EXTRA_CLICK_AREA_MAX);
 507              		.loc 1 939 0
 508 00a2 BAF10D0F 		cmp	r10, #13
 509 00a6 A8BF     		it	ge
 510 00a8 4FF00D0A 		movge	r10, #13
 511              	.LVL57:
 940:Drivers/lvgl/lvgl/src/widgets/lv_btnmatrix.c ****     pbottom = LV_MIN(pbottom, BTN_EXTRA_CLICK_AREA_MAX);
 512              		.loc 1 940 0
 513 00ac B9F10D0F 		cmp	r9, #13
 514 00b0 A8BF     		it	ge
 515 00b2 4FF00D09 		movge	r9, #13
 516              	.LVL58:
 941:Drivers/lvgl/lvgl/src/widgets/lv_btnmatrix.c **** 
 517              		.loc 1 941 0
 518 00b6 B8F10D0F 		cmp	r8, #13
 519 00ba A8BF     		it	ge
 520 00bc 4FF00D08 		movge	r8, #13
 521              	.LVL59:
 943:Drivers/lvgl/lvgl/src/widgets/lv_btnmatrix.c ****         lv_area_copy(&btn_area, &btnm->button_areas[i]);
 522              		.loc 1 943 0
 523 00c0 0024     		movs	r4, #0
 524 00c2 2BE0     		b	.L29
 525              	.LVL60:
 526              	.L43:
 934:Drivers/lvgl/lvgl/src/widgets/lv_btnmatrix.c ****     pcol = (pcol / 2) + 1 + (pcol & 1);
 527              		.loc 1 934 0
 528 00c4 741C     		adds	r4, r6, #1
 529 00c6 D9E7     		b	.L27
 530              	.LVL61:
ARM GAS  /tmp/ccpV5owi.s 			page 31


 531              	.L44:
 935:Drivers/lvgl/lvgl/src/widgets/lv_btnmatrix.c **** 
 532              		.loc 1 935 0
 533 00c8 581C     		adds	r0, r3, #1
 534 00ca E0E7     		b	.L28
 535              	.LVL62:
 536              	.L30:
 946:Drivers/lvgl/lvgl/src/widgets/lv_btnmatrix.c **** 
 537              		.loc 1 946 0
 538 00cc BDF81830 		ldrh	r3, [sp, #24]
 539 00d0 9B1B     		subs	r3, r3, r6
 540 00d2 1CFA83FC 		uxtah	ip, ip, r3
 541 00d6 ADF810C0 		strh	ip, [sp, #16]	@ movhi
 542 00da 45E0     		b	.L31
 543              	.L32:
 949:Drivers/lvgl/lvgl/src/widgets/lv_btnmatrix.c **** 
 544              		.loc 1 949 0
 545 00dc BDF81A30 		ldrh	r3, [sp, #26]
 546 00e0 DB1B     		subs	r3, r3, r7
 547 00e2 10FA83F0 		uxtah	r0, r0, r3
 548 00e6 ADF81200 		strh	r0, [sp, #18]	@ movhi
 549 00ea 4FE0     		b	.L33
 550              	.L34:
 953:Drivers/lvgl/lvgl/src/widgets/lv_btnmatrix.c **** 
 551              		.loc 1 953 0
 552 00ec BDF81830 		ldrh	r3, [sp, #24]
 553 00f0 3344     		add	r3, r3, r6
 554 00f2 12FA83F2 		uxtah	r2, r2, r3
 555 00f6 ADF81420 		strh	r2, [sp, #20]	@ movhi
 556 00fa 59E0     		b	.L35
 557              	.L36:
 957:Drivers/lvgl/lvgl/src/widgets/lv_btnmatrix.c **** 
 558              		.loc 1 957 0
 559 00fc BDF81A30 		ldrh	r3, [sp, #26]
 560 0100 3B44     		add	r3, r3, r7
 561 0102 11FA83F1 		uxtah	r1, r1, r3
 562 0106 ADF81610 		strh	r1, [sp, #22]	@ movhi
 563              	.L37:
 959:Drivers/lvgl/lvgl/src/widgets/lv_btnmatrix.c ****             break;
 564              		.loc 1 959 0
 565 010a 0022     		movs	r2, #0
 566 010c 0399     		ldr	r1, [sp, #12]
 567 010e 04A8     		add	r0, sp, #16
 568 0110 FFF7FEFF 		bl	_lv_area_is_point_on
 569              	.LVL63:
 570 0114 0028     		cmp	r0, #0
 571 0116 5ED1     		bne	.L38
 943:Drivers/lvgl/lvgl/src/widgets/lv_btnmatrix.c ****         lv_area_copy(&btn_area, &btnm->button_areas[i]);
 572              		.loc 1 943 0 discriminator 2
 573 0118 0134     		adds	r4, r4, #1
 574              	.LVL64:
 575 011a A4B2     		uxth	r4, r4
 576              	.LVL65:
 577              	.L29:
 943:Drivers/lvgl/lvgl/src/widgets/lv_btnmatrix.c ****         lv_area_copy(&btn_area, &btnm->button_areas[i]);
 578              		.loc 1 943 0 is_stmt 0 discriminator 1
 579 011c 2B8E     		ldrh	r3, [r5, #48]
ARM GAS  /tmp/ccpV5owi.s 			page 32


 580 011e A342     		cmp	r3, r4
 581 0120 59D9     		bls	.L38
 944:Drivers/lvgl/lvgl/src/widgets/lv_btnmatrix.c ****         if(btn_area.x1 <= pleft) btn_area.x1 += obj_cords.x1 - LV_MIN(pleft, BTN_EXTRA_CLICK_AREA_M
 582              		.loc 1 944 0 is_stmt 1
 583 0122 AA6A     		ldr	r2, [r5, #40]
 584 0124 02EBC403 		add	r3, r2, r4, lsl #3
 585              	.LVL66:
 586              	.LBB91:
 587              	.LBB92:
 588              		.file 3 "Drivers/lvgl/lvgl/src/widgets/../core/../misc/../font/../misc/lv_area.h"
   1:Drivers/lvgl/lvgl/src/widgets/../core/../misc/../font/../misc/lv_area.h **** /**
   2:Drivers/lvgl/lvgl/src/widgets/../core/../misc/../font/../misc/lv_area.h ****  * @file lv_area.h
   3:Drivers/lvgl/lvgl/src/widgets/../core/../misc/../font/../misc/lv_area.h ****  *
   4:Drivers/lvgl/lvgl/src/widgets/../core/../misc/../font/../misc/lv_area.h ****  */
   5:Drivers/lvgl/lvgl/src/widgets/../core/../misc/../font/../misc/lv_area.h **** 
   6:Drivers/lvgl/lvgl/src/widgets/../core/../misc/../font/../misc/lv_area.h **** #ifndef LV_AREA_H
   7:Drivers/lvgl/lvgl/src/widgets/../core/../misc/../font/../misc/lv_area.h **** #define LV_AREA_H
   8:Drivers/lvgl/lvgl/src/widgets/../core/../misc/../font/../misc/lv_area.h **** 
   9:Drivers/lvgl/lvgl/src/widgets/../core/../misc/../font/../misc/lv_area.h **** #ifdef __cplusplus
  10:Drivers/lvgl/lvgl/src/widgets/../core/../misc/../font/../misc/lv_area.h **** extern "C" {
  11:Drivers/lvgl/lvgl/src/widgets/../core/../misc/../font/../misc/lv_area.h **** #endif
  12:Drivers/lvgl/lvgl/src/widgets/../core/../misc/../font/../misc/lv_area.h **** 
  13:Drivers/lvgl/lvgl/src/widgets/../core/../misc/../font/../misc/lv_area.h **** /*********************
  14:Drivers/lvgl/lvgl/src/widgets/../core/../misc/../font/../misc/lv_area.h ****  *      INCLUDES
  15:Drivers/lvgl/lvgl/src/widgets/../core/../misc/../font/../misc/lv_area.h ****  *********************/
  16:Drivers/lvgl/lvgl/src/widgets/../core/../misc/../font/../misc/lv_area.h **** #include "../lv_conf_internal.h"
  17:Drivers/lvgl/lvgl/src/widgets/../core/../misc/../font/../misc/lv_area.h **** #include <stdbool.h>
  18:Drivers/lvgl/lvgl/src/widgets/../core/../misc/../font/../misc/lv_area.h **** #include <stdint.h>
  19:Drivers/lvgl/lvgl/src/widgets/../core/../misc/../font/../misc/lv_area.h **** 
  20:Drivers/lvgl/lvgl/src/widgets/../core/../misc/../font/../misc/lv_area.h **** /*********************
  21:Drivers/lvgl/lvgl/src/widgets/../core/../misc/../font/../misc/lv_area.h ****  *      DEFINES
  22:Drivers/lvgl/lvgl/src/widgets/../core/../misc/../font/../misc/lv_area.h ****  *********************/
  23:Drivers/lvgl/lvgl/src/widgets/../core/../misc/../font/../misc/lv_area.h **** 
  24:Drivers/lvgl/lvgl/src/widgets/../core/../misc/../font/../misc/lv_area.h **** #if LV_USE_LARGE_COORD
  25:Drivers/lvgl/lvgl/src/widgets/../core/../misc/../font/../misc/lv_area.h **** typedef int32_t lv_coord_t;
  26:Drivers/lvgl/lvgl/src/widgets/../core/../misc/../font/../misc/lv_area.h **** #else
  27:Drivers/lvgl/lvgl/src/widgets/../core/../misc/../font/../misc/lv_area.h **** typedef int16_t lv_coord_t;
  28:Drivers/lvgl/lvgl/src/widgets/../core/../misc/../font/../misc/lv_area.h **** #endif
  29:Drivers/lvgl/lvgl/src/widgets/../core/../misc/../font/../misc/lv_area.h **** 
  30:Drivers/lvgl/lvgl/src/widgets/../core/../misc/../font/../misc/lv_area.h **** /**********************
  31:Drivers/lvgl/lvgl/src/widgets/../core/../misc/../font/../misc/lv_area.h ****  *      TYPEDEFS
  32:Drivers/lvgl/lvgl/src/widgets/../core/../misc/../font/../misc/lv_area.h ****  **********************/
  33:Drivers/lvgl/lvgl/src/widgets/../core/../misc/../font/../misc/lv_area.h **** 
  34:Drivers/lvgl/lvgl/src/widgets/../core/../misc/../font/../misc/lv_area.h **** /**
  35:Drivers/lvgl/lvgl/src/widgets/../core/../misc/../font/../misc/lv_area.h ****  * Represents a point on the screen.
  36:Drivers/lvgl/lvgl/src/widgets/../core/../misc/../font/../misc/lv_area.h ****  */
  37:Drivers/lvgl/lvgl/src/widgets/../core/../misc/../font/../misc/lv_area.h **** typedef struct {
  38:Drivers/lvgl/lvgl/src/widgets/../core/../misc/../font/../misc/lv_area.h ****     lv_coord_t x;
  39:Drivers/lvgl/lvgl/src/widgets/../core/../misc/../font/../misc/lv_area.h ****     lv_coord_t y;
  40:Drivers/lvgl/lvgl/src/widgets/../core/../misc/../font/../misc/lv_area.h **** } lv_point_t;
  41:Drivers/lvgl/lvgl/src/widgets/../core/../misc/../font/../misc/lv_area.h **** 
  42:Drivers/lvgl/lvgl/src/widgets/../core/../misc/../font/../misc/lv_area.h **** /** Represents an area of the screen.*/
  43:Drivers/lvgl/lvgl/src/widgets/../core/../misc/../font/../misc/lv_area.h **** typedef struct {
  44:Drivers/lvgl/lvgl/src/widgets/../core/../misc/../font/../misc/lv_area.h ****     lv_coord_t x1;
  45:Drivers/lvgl/lvgl/src/widgets/../core/../misc/../font/../misc/lv_area.h ****     lv_coord_t y1;
  46:Drivers/lvgl/lvgl/src/widgets/../core/../misc/../font/../misc/lv_area.h ****     lv_coord_t x2;
  47:Drivers/lvgl/lvgl/src/widgets/../core/../misc/../font/../misc/lv_area.h ****     lv_coord_t y2;
ARM GAS  /tmp/ccpV5owi.s 			page 33


  48:Drivers/lvgl/lvgl/src/widgets/../core/../misc/../font/../misc/lv_area.h **** } lv_area_t;
  49:Drivers/lvgl/lvgl/src/widgets/../core/../misc/../font/../misc/lv_area.h **** 
  50:Drivers/lvgl/lvgl/src/widgets/../core/../misc/../font/../misc/lv_area.h **** /** Alignments*/
  51:Drivers/lvgl/lvgl/src/widgets/../core/../misc/../font/../misc/lv_area.h **** enum {
  52:Drivers/lvgl/lvgl/src/widgets/../core/../misc/../font/../misc/lv_area.h ****     LV_ALIGN_DEFAULT = 0,
  53:Drivers/lvgl/lvgl/src/widgets/../core/../misc/../font/../misc/lv_area.h ****     LV_ALIGN_TOP_LEFT,
  54:Drivers/lvgl/lvgl/src/widgets/../core/../misc/../font/../misc/lv_area.h ****     LV_ALIGN_TOP_MID,
  55:Drivers/lvgl/lvgl/src/widgets/../core/../misc/../font/../misc/lv_area.h ****     LV_ALIGN_TOP_RIGHT,
  56:Drivers/lvgl/lvgl/src/widgets/../core/../misc/../font/../misc/lv_area.h ****     LV_ALIGN_BOTTOM_LEFT,
  57:Drivers/lvgl/lvgl/src/widgets/../core/../misc/../font/../misc/lv_area.h ****     LV_ALIGN_BOTTOM_MID,
  58:Drivers/lvgl/lvgl/src/widgets/../core/../misc/../font/../misc/lv_area.h ****     LV_ALIGN_BOTTOM_RIGHT,
  59:Drivers/lvgl/lvgl/src/widgets/../core/../misc/../font/../misc/lv_area.h ****     LV_ALIGN_LEFT_MID,
  60:Drivers/lvgl/lvgl/src/widgets/../core/../misc/../font/../misc/lv_area.h ****     LV_ALIGN_RIGHT_MID,
  61:Drivers/lvgl/lvgl/src/widgets/../core/../misc/../font/../misc/lv_area.h ****     LV_ALIGN_CENTER,
  62:Drivers/lvgl/lvgl/src/widgets/../core/../misc/../font/../misc/lv_area.h **** 
  63:Drivers/lvgl/lvgl/src/widgets/../core/../misc/../font/../misc/lv_area.h ****     LV_ALIGN_OUT_TOP_LEFT,
  64:Drivers/lvgl/lvgl/src/widgets/../core/../misc/../font/../misc/lv_area.h ****     LV_ALIGN_OUT_TOP_MID,
  65:Drivers/lvgl/lvgl/src/widgets/../core/../misc/../font/../misc/lv_area.h ****     LV_ALIGN_OUT_TOP_RIGHT,
  66:Drivers/lvgl/lvgl/src/widgets/../core/../misc/../font/../misc/lv_area.h ****     LV_ALIGN_OUT_BOTTOM_LEFT,
  67:Drivers/lvgl/lvgl/src/widgets/../core/../misc/../font/../misc/lv_area.h ****     LV_ALIGN_OUT_BOTTOM_MID,
  68:Drivers/lvgl/lvgl/src/widgets/../core/../misc/../font/../misc/lv_area.h ****     LV_ALIGN_OUT_BOTTOM_RIGHT,
  69:Drivers/lvgl/lvgl/src/widgets/../core/../misc/../font/../misc/lv_area.h ****     LV_ALIGN_OUT_LEFT_TOP,
  70:Drivers/lvgl/lvgl/src/widgets/../core/../misc/../font/../misc/lv_area.h ****     LV_ALIGN_OUT_LEFT_MID,
  71:Drivers/lvgl/lvgl/src/widgets/../core/../misc/../font/../misc/lv_area.h ****     LV_ALIGN_OUT_LEFT_BOTTOM,
  72:Drivers/lvgl/lvgl/src/widgets/../core/../misc/../font/../misc/lv_area.h ****     LV_ALIGN_OUT_RIGHT_TOP,
  73:Drivers/lvgl/lvgl/src/widgets/../core/../misc/../font/../misc/lv_area.h ****     LV_ALIGN_OUT_RIGHT_MID,
  74:Drivers/lvgl/lvgl/src/widgets/../core/../misc/../font/../misc/lv_area.h ****     LV_ALIGN_OUT_RIGHT_BOTTOM,
  75:Drivers/lvgl/lvgl/src/widgets/../core/../misc/../font/../misc/lv_area.h **** };
  76:Drivers/lvgl/lvgl/src/widgets/../core/../misc/../font/../misc/lv_area.h **** typedef uint8_t lv_align_t;
  77:Drivers/lvgl/lvgl/src/widgets/../core/../misc/../font/../misc/lv_area.h **** 
  78:Drivers/lvgl/lvgl/src/widgets/../core/../misc/../font/../misc/lv_area.h **** enum {
  79:Drivers/lvgl/lvgl/src/widgets/../core/../misc/../font/../misc/lv_area.h ****     LV_DIR_NONE     = 0x00,
  80:Drivers/lvgl/lvgl/src/widgets/../core/../misc/../font/../misc/lv_area.h ****     LV_DIR_LEFT     = (1 << 0),
  81:Drivers/lvgl/lvgl/src/widgets/../core/../misc/../font/../misc/lv_area.h ****     LV_DIR_RIGHT    = (1 << 1),
  82:Drivers/lvgl/lvgl/src/widgets/../core/../misc/../font/../misc/lv_area.h ****     LV_DIR_TOP      = (1 << 2),
  83:Drivers/lvgl/lvgl/src/widgets/../core/../misc/../font/../misc/lv_area.h ****     LV_DIR_BOTTOM   = (1 << 3),
  84:Drivers/lvgl/lvgl/src/widgets/../core/../misc/../font/../misc/lv_area.h ****     LV_DIR_HOR      = LV_DIR_LEFT | LV_DIR_RIGHT,
  85:Drivers/lvgl/lvgl/src/widgets/../core/../misc/../font/../misc/lv_area.h ****     LV_DIR_VER      = LV_DIR_TOP | LV_DIR_BOTTOM,
  86:Drivers/lvgl/lvgl/src/widgets/../core/../misc/../font/../misc/lv_area.h ****     LV_DIR_ALL      = LV_DIR_HOR | LV_DIR_VER,
  87:Drivers/lvgl/lvgl/src/widgets/../core/../misc/../font/../misc/lv_area.h **** };
  88:Drivers/lvgl/lvgl/src/widgets/../core/../misc/../font/../misc/lv_area.h **** 
  89:Drivers/lvgl/lvgl/src/widgets/../core/../misc/../font/../misc/lv_area.h **** typedef uint8_t lv_dir_t;
  90:Drivers/lvgl/lvgl/src/widgets/../core/../misc/../font/../misc/lv_area.h **** 
  91:Drivers/lvgl/lvgl/src/widgets/../core/../misc/../font/../misc/lv_area.h **** /**********************
  92:Drivers/lvgl/lvgl/src/widgets/../core/../misc/../font/../misc/lv_area.h ****  * GLOBAL PROTOTYPES
  93:Drivers/lvgl/lvgl/src/widgets/../core/../misc/../font/../misc/lv_area.h ****  **********************/
  94:Drivers/lvgl/lvgl/src/widgets/../core/../misc/../font/../misc/lv_area.h **** 
  95:Drivers/lvgl/lvgl/src/widgets/../core/../misc/../font/../misc/lv_area.h **** /**
  96:Drivers/lvgl/lvgl/src/widgets/../core/../misc/../font/../misc/lv_area.h ****  * Initialize an area
  97:Drivers/lvgl/lvgl/src/widgets/../core/../misc/../font/../misc/lv_area.h ****  * @param area_p pointer to an area
  98:Drivers/lvgl/lvgl/src/widgets/../core/../misc/../font/../misc/lv_area.h ****  * @param x1 left coordinate of the area
  99:Drivers/lvgl/lvgl/src/widgets/../core/../misc/../font/../misc/lv_area.h ****  * @param y1 top coordinate of the area
 100:Drivers/lvgl/lvgl/src/widgets/../core/../misc/../font/../misc/lv_area.h ****  * @param x2 right coordinate of the area
 101:Drivers/lvgl/lvgl/src/widgets/../core/../misc/../font/../misc/lv_area.h ****  * @param y2 bottom coordinate of the area
 102:Drivers/lvgl/lvgl/src/widgets/../core/../misc/../font/../misc/lv_area.h ****  */
 103:Drivers/lvgl/lvgl/src/widgets/../core/../misc/../font/../misc/lv_area.h **** void lv_area_set(lv_area_t * area_p, lv_coord_t x1, lv_coord_t y1, lv_coord_t x2, lv_coord_t y2);
 104:Drivers/lvgl/lvgl/src/widgets/../core/../misc/../font/../misc/lv_area.h **** 
ARM GAS  /tmp/ccpV5owi.s 			page 34


 105:Drivers/lvgl/lvgl/src/widgets/../core/../misc/../font/../misc/lv_area.h **** /**
 106:Drivers/lvgl/lvgl/src/widgets/../core/../misc/../font/../misc/lv_area.h ****  * Copy an area
 107:Drivers/lvgl/lvgl/src/widgets/../core/../misc/../font/../misc/lv_area.h ****  * @param dest pointer to the destination area
 108:Drivers/lvgl/lvgl/src/widgets/../core/../misc/../font/../misc/lv_area.h ****  * @param src pointer to the source area
 109:Drivers/lvgl/lvgl/src/widgets/../core/../misc/../font/../misc/lv_area.h ****  */
 110:Drivers/lvgl/lvgl/src/widgets/../core/../misc/../font/../misc/lv_area.h **** inline static void lv_area_copy(lv_area_t * dest, const lv_area_t * src)
 111:Drivers/lvgl/lvgl/src/widgets/../core/../misc/../font/../misc/lv_area.h **** {
 112:Drivers/lvgl/lvgl/src/widgets/../core/../misc/../font/../misc/lv_area.h ****     dest->x1 = src->x1;
 589              		.loc 3 112 0
 590 0128 32F934C0 		ldrsh	ip, [r2, r4, lsl #3]
 591 012c ADF810C0 		strh	ip, [sp, #16]	@ movhi
 113:Drivers/lvgl/lvgl/src/widgets/../core/../misc/../font/../misc/lv_area.h ****     dest->y1 = src->y1;
 592              		.loc 3 113 0
 593 0130 B3F90200 		ldrsh	r0, [r3, #2]
 594 0134 ADF81200 		strh	r0, [sp, #18]	@ movhi
 114:Drivers/lvgl/lvgl/src/widgets/../core/../misc/../font/../misc/lv_area.h ****     dest->x2 = src->x2;
 595              		.loc 3 114 0
 596 0138 B3F90420 		ldrsh	r2, [r3, #4]
 597 013c ADF81420 		strh	r2, [sp, #20]	@ movhi
 115:Drivers/lvgl/lvgl/src/widgets/../core/../misc/../font/../misc/lv_area.h ****     dest->y2 = src->y2;
 598              		.loc 3 115 0
 599 0140 B3F90610 		ldrsh	r1, [r3, #6]
 600              	.LVL67:
 601              	.LBE92:
 602              	.LBE91:
 945:Drivers/lvgl/lvgl/src/widgets/lv_btnmatrix.c ****         else btn_area.x1 += obj_cords.x1 - pcol;
 603              		.loc 1 945 0
 604 0144 E345     		cmp	fp, ip
 605 0146 C1DB     		blt	.L30
 945:Drivers/lvgl/lvgl/src/widgets/lv_btnmatrix.c ****         else btn_area.x1 += obj_cords.x1 - pcol;
 606              		.loc 1 945 0 is_stmt 0 discriminator 1
 607 0148 BDF81830 		ldrh	r3, [sp, #24]
 608 014c DE46     		mov	lr, fp
 609 014e BBF10D0F 		cmp	fp, #13
 610 0152 A8BF     		it	ge
 611 0154 4FF00D0E 		movge	lr, #13
 612 0158 1FFA8EFE 		uxth	lr, lr
 613 015c A3EB0E03 		sub	r3, r3, lr
 614 0160 1CFA83FC 		uxtah	ip, ip, r3
 615 0164 ADF810C0 		strh	ip, [sp, #16]	@ movhi
 616              	.L31:
 948:Drivers/lvgl/lvgl/src/widgets/lv_btnmatrix.c ****         else btn_area.y1 += obj_cords.y1 - prow;
 617              		.loc 1 948 0 is_stmt 1
 618 0168 8145     		cmp	r9, r0
 619 016a B7DB     		blt	.L32
 948:Drivers/lvgl/lvgl/src/widgets/lv_btnmatrix.c ****         else btn_area.y1 += obj_cords.y1 - prow;
 620              		.loc 1 948 0 is_stmt 0 discriminator 1
 621 016c BDF81A30 		ldrh	r3, [sp, #26]
 622 0170 CC46     		mov	ip, r9
 623 0172 B9F10D0F 		cmp	r9, #13
 624 0176 A8BF     		it	ge
 625 0178 4FF00D0C 		movge	ip, #13
 626 017c 1FFA8CFC 		uxth	ip, ip
 627 0180 A3EB0C03 		sub	r3, r3, ip
 628 0184 10FA83F0 		uxtah	r0, r0, r3
 629 0188 ADF81200 		strh	r0, [sp, #18]	@ movhi
 630              	.L33:
ARM GAS  /tmp/ccpV5owi.s 			page 35


 951:Drivers/lvgl/lvgl/src/widgets/lv_btnmatrix.c ****                                                                                    BTN_EXTRA_CLICK_
 631              		.loc 1 951 0 is_stmt 1
 632 018c 019B     		ldr	r3, [sp, #4]
 633 018e A3EB0A03 		sub	r3, r3, r10
 634 0192 023B     		subs	r3, r3, #2
 635 0194 9A42     		cmp	r2, r3
 636 0196 A9DB     		blt	.L34
 951:Drivers/lvgl/lvgl/src/widgets/lv_btnmatrix.c ****                                                                                    BTN_EXTRA_CLICK_
 637              		.loc 1 951 0 is_stmt 0 discriminator 1
 638 0198 BDF81800 		ldrh	r0, [sp, #24]
 639 019c 5346     		mov	r3, r10
 640 019e 0D2B     		cmp	r3, #13
 641 01a0 A8BF     		it	ge
 642 01a2 0D23     		movge	r3, #13
 643 01a4 10FA83F3 		uxtah	r3, r0, r3
 644 01a8 12FA83F2 		uxtah	r2, r2, r3
 645 01ac ADF81420 		strh	r2, [sp, #20]	@ movhi
 646              	.L35:
 955:Drivers/lvgl/lvgl/src/widgets/lv_btnmatrix.c ****                                                                                     BTN_EXTRA_CLICK
 647              		.loc 1 955 0 is_stmt 1
 648 01b0 029B     		ldr	r3, [sp, #8]
 649 01b2 A3EB0803 		sub	r3, r3, r8
 650 01b6 023B     		subs	r3, r3, #2
 651 01b8 9942     		cmp	r1, r3
 652 01ba 9FDB     		blt	.L36
 955:Drivers/lvgl/lvgl/src/widgets/lv_btnmatrix.c ****                                                                                     BTN_EXTRA_CLICK
 653              		.loc 1 955 0 is_stmt 0 discriminator 1
 654 01bc BDF81A20 		ldrh	r2, [sp, #26]
 655 01c0 4346     		mov	r3, r8
 656 01c2 0D2B     		cmp	r3, #13
 657 01c4 A8BF     		it	ge
 658 01c6 0D23     		movge	r3, #13
 659 01c8 12FA83F3 		uxtah	r3, r2, r3
 660 01cc 11FA83F1 		uxtah	r1, r1, r3
 661 01d0 ADF81610 		strh	r1, [sp, #22]	@ movhi
 662 01d4 99E7     		b	.L37
 663              	.L38:
 964:Drivers/lvgl/lvgl/src/widgets/lv_btnmatrix.c **** 
 664              		.loc 1 964 0 is_stmt 1
 665 01d6 2B8E     		ldrh	r3, [r5, #48]
 666 01d8 A342     		cmp	r3, r4
 667 01da 03D0     		beq	.L45
 668              	.LVL68:
 669              	.L40:
 967:Drivers/lvgl/lvgl/src/widgets/lv_btnmatrix.c **** 
 670              		.loc 1 967 0
 671 01dc 2046     		mov	r0, r4
 672 01de 09B0     		add	sp, sp, #36
 673              	.LCFI5:
 674              		.cfi_remember_state
 675              		.cfi_def_cfa_offset 36
 676              		@ sp needed
 677 01e0 BDE8F08F 		pop	{r4, r5, r6, r7, r8, r9, r10, fp, pc}
 678              	.LVL69:
 679              	.L45:
 680              	.LCFI6:
 681              		.cfi_restore_state
ARM GAS  /tmp/ccpV5owi.s 			page 36


 964:Drivers/lvgl/lvgl/src/widgets/lv_btnmatrix.c **** 
 682              		.loc 1 964 0
 683 01e4 4FF6FF74 		movw	r4, #65535
 684              	.LVL70:
 685 01e8 F8E7     		b	.L40
 686              		.cfi_endproc
 687              	.LFE189:
 689              		.section	.text.invalidate_button_area,"ax",%progbits
 690              		.align	1
 691              		.syntax unified
 692              		.thumb
 693              		.thumb_func
 694              		.fpu fpv5-d16
 696              	invalidate_button_area:
 697              	.LFB190:
 970:Drivers/lvgl/lvgl/src/widgets/lv_btnmatrix.c ****     if(btn_idx == LV_BTNMATRIX_BTN_NONE) return;
 698              		.loc 1 970 0
 699              		.cfi_startproc
 700              		@ args = 0, pretend = 0, frame = 16
 701              		@ frame_needed = 0, uses_anonymous_args = 0
 702              	.LVL71:
 971:Drivers/lvgl/lvgl/src/widgets/lv_btnmatrix.c **** 
 703              		.loc 1 971 0
 704 0000 4FF6FF73 		movw	r3, #65535
 705 0004 9942     		cmp	r1, r3
 706 0006 02D0     		beq	.L51
 707              	.LVL72:
 977:Drivers/lvgl/lvgl/src/widgets/lv_btnmatrix.c **** 
 708              		.loc 1 977 0
 709 0008 038E     		ldrh	r3, [r0, #48]
 710 000a 8B42     		cmp	r3, r1
 711 000c 00D8     		bhi	.L54
 712              	.LVL73:
 713              	.L51:
 714 000e 7047     		bx	lr
 715              	.LVL74:
 716              	.L54:
 970:Drivers/lvgl/lvgl/src/widgets/lv_btnmatrix.c ****     if(btn_idx == LV_BTNMATRIX_BTN_NONE) return;
 717              		.loc 1 970 0
 718 0010 F0B5     		push	{r4, r5, r6, r7, lr}
 719              	.LCFI7:
 720              		.cfi_def_cfa_offset 20
 721              		.cfi_offset 4, -20
 722              		.cfi_offset 5, -16
 723              		.cfi_offset 6, -12
 724              		.cfi_offset 7, -8
 725              		.cfi_offset 14, -4
 726 0012 85B0     		sub	sp, sp, #20
 727              	.LCFI8:
 728              		.cfi_def_cfa_offset 40
 729 0014 0D46     		mov	r5, r1
 730 0016 0446     		mov	r4, r0
 979:Drivers/lvgl/lvgl/src/widgets/lv_btnmatrix.c ****     lv_obj_get_coords(obj, &obj_area);
 731              		.loc 1 979 0
 732 0018 826A     		ldr	r2, [r0, #40]
 733 001a 02EBC103 		add	r3, r2, r1, lsl #3
 734              	.LVL75:
ARM GAS  /tmp/ccpV5owi.s 			page 37


 735              	.LBB93:
 736              	.LBB94:
 112:Drivers/lvgl/lvgl/src/widgets/../core/../misc/../font/../misc/lv_area.h ****     dest->y1 = src->y1;
 737              		.loc 3 112 0
 738 001e 32F93120 		ldrsh	r2, [r2, r1, lsl #3]
 739 0022 ADF80820 		strh	r2, [sp, #8]	@ movhi
 113:Drivers/lvgl/lvgl/src/widgets/../core/../misc/../font/../misc/lv_area.h ****     dest->x2 = src->x2;
 740              		.loc 3 113 0
 741 0026 B3F90220 		ldrsh	r2, [r3, #2]
 742 002a ADF80A20 		strh	r2, [sp, #10]	@ movhi
 114:Drivers/lvgl/lvgl/src/widgets/../core/../misc/../font/../misc/lv_area.h ****     dest->y2 = src->y2;
 743              		.loc 3 114 0
 744 002e B3F90420 		ldrsh	r2, [r3, #4]
 745 0032 ADF80C20 		strh	r2, [sp, #12]	@ movhi
 746              		.loc 3 115 0
 747 0036 B3F90630 		ldrsh	r3, [r3, #6]
 748              	.LVL76:
 749 003a ADF80E30 		strh	r3, [sp, #14]	@ movhi
 750              	.LVL77:
 751              	.LBE94:
 752              	.LBE93:
 980:Drivers/lvgl/lvgl/src/widgets/lv_btnmatrix.c **** 
 753              		.loc 1 980 0
 754 003e 6946     		mov	r1, sp
 755              	.LVL78:
 756 0040 FFF7FEFF 		bl	lv_obj_get_coords
 757              	.LVL79:
 758              	.LBB95:
 759              	.LBB96:
 129:Drivers/lvgl/lvgl/src/widgets/../core/lv_obj_style_gen.h ****     return (lv_coord_t)v.num;
 760              		.loc 2 129 0
 761 0044 1422     		movs	r2, #20
 762 0046 0021     		movs	r1, #0
 763 0048 2046     		mov	r0, r4
 764 004a FFF7FEFF 		bl	lv_obj_get_style_prop
 765              	.LVL80:
 130:Drivers/lvgl/lvgl/src/widgets/../core/lv_obj_style_gen.h **** }
 766              		.loc 2 130 0
 767 004e 06B2     		sxth	r6, r0
 768              	.LVL81:
 769              	.LBE96:
 770              	.LBE95:
 771              	.LBB97:
 772              	.LBB98:
 135:Drivers/lvgl/lvgl/src/widgets/../core/lv_obj_style_gen.h ****     return (lv_coord_t)v.num;
 773              		.loc 2 135 0
 774 0050 1522     		movs	r2, #21
 775 0052 0021     		movs	r1, #0
 776 0054 2046     		mov	r0, r4
 777 0056 FFF7FEFF 		bl	lv_obj_get_style_prop
 778              	.LVL82:
 779              		.loc 2 136 0
 780 005a 07B2     		sxth	r7, r0
 781              	.LVL83:
 782              	.LBE98:
 783              	.LBE97:
 988:Drivers/lvgl/lvgl/src/widgets/lv_btnmatrix.c ****     row_gap = LV_MAX(row_gap, dpi / 10);
ARM GAS  /tmp/ccpV5owi.s 			page 38


 784              		.loc 1 988 0
 785 005c 2046     		mov	r0, r4
 786 005e FFF7FEFF 		bl	lv_obj_get_disp
 787              	.LVL84:
 788 0062 FFF7FEFF 		bl	lv_disp_get_dpi
 789              	.LVL85:
 989:Drivers/lvgl/lvgl/src/widgets/lv_btnmatrix.c ****     col_gap = LV_MAX(col_gap, dpi / 10);
 790              		.loc 1 989 0
 791 0066 244A     		ldr	r2, .L56
 792 0068 82FB0032 		smull	r3, r2, r2, r0
 793 006c C317     		asrs	r3, r0, #31
 794 006e C3EBA203 		rsb	r3, r3, r2, asr #2
 795 0072 1BB2     		sxth	r3, r3
 796 0074 9E42     		cmp	r6, r3
 797 0076 B8BF     		it	lt
 798 0078 1E46     		movlt	r6, r3
 799              	.LVL86:
 990:Drivers/lvgl/lvgl/src/widgets/lv_btnmatrix.c **** 
 800              		.loc 1 990 0
 801 007a BB42     		cmp	r3, r7
 802 007c B8BF     		it	lt
 803 007e 3B46     		movlt	r3, r7
 804              	.LVL87:
 993:Drivers/lvgl/lvgl/src/widgets/lv_btnmatrix.c ****     btn_area.y1 += obj_area.y1 - col_gap;
 805              		.loc 1 993 0
 806 0080 BDF80010 		ldrh	r1, [sp]
 807 0084 B6B2     		uxth	r6, r6
 808 0086 8A1B     		subs	r2, r1, r6
 809 0088 BDF80800 		ldrh	r0, [sp, #8]
 810              	.LVL88:
 811 008c 10FA82F2 		uxtah	r2, r0, r2
 812 0090 ADF80820 		strh	r2, [sp, #8]	@ movhi
 994:Drivers/lvgl/lvgl/src/widgets/lv_btnmatrix.c ****     btn_area.x2 += obj_area.x1 + row_gap;
 813              		.loc 1 994 0
 814 0094 BDF80220 		ldrh	r2, [sp, #2]
 815 0098 9BB2     		uxth	r3, r3
 816 009a D01A     		subs	r0, r2, r3
 817 009c BDF80A70 		ldrh	r7, [sp, #10]
 818 00a0 17FA80F0 		uxtah	r0, r7, r0
 819 00a4 80B2     		uxth	r0, r0
 820 00a6 ADF80A00 		strh	r0, [sp, #10]	@ movhi
 995:Drivers/lvgl/lvgl/src/widgets/lv_btnmatrix.c ****     btn_area.y2 += obj_area.y1 + col_gap;
 821              		.loc 1 995 0
 822 00aa 3144     		add	r1, r1, r6
 823 00ac BDF80C60 		ldrh	r6, [sp, #12]
 824              	.LVL89:
 825 00b0 16FA81F1 		uxtah	r1, r6, r1
 826 00b4 ADF80C10 		strh	r1, [sp, #12]	@ movhi
 996:Drivers/lvgl/lvgl/src/widgets/lv_btnmatrix.c **** 
 827              		.loc 1 996 0
 828 00b8 1344     		add	r3, r3, r2
 829              	.LVL90:
 830 00ba BDF80E20 		ldrh	r2, [sp, #14]
 831 00be 12FA83F3 		uxtah	r3, r2, r3
 832 00c2 9BB2     		uxth	r3, r3
 833 00c4 ADF80E30 		strh	r3, [sp, #14]	@ movhi
 998:Drivers/lvgl/lvgl/src/widgets/lv_btnmatrix.c ****         /*Push up the upper boundary of the btn area to also invalidate the popover*/
ARM GAS  /tmp/ccpV5owi.s 			page 39


 834              		.loc 1 998 0
 835 00c8 A28E     		ldrh	r2, [r4, #52]
 836 00ca AA42     		cmp	r2, r5
 837 00cc 05D0     		beq	.L55
 838              	.L48:
1003:Drivers/lvgl/lvgl/src/widgets/lv_btnmatrix.c **** }
 839              		.loc 1 1003 0
 840 00ce 02A9     		add	r1, sp, #8
 841 00d0 2046     		mov	r0, r4
 842 00d2 FFF7FEFF 		bl	lv_obj_invalidate_area
 843              	.LVL91:
1004:Drivers/lvgl/lvgl/src/widgets/lv_btnmatrix.c **** 
 844              		.loc 1 1004 0
 845 00d6 05B0     		add	sp, sp, #20
 846              	.LCFI9:
 847              		.cfi_remember_state
 848              		.cfi_def_cfa_offset 20
 849              		@ sp needed
 850 00d8 F0BD     		pop	{r4, r5, r6, r7, pc}
 851              	.LVL92:
 852              	.L55:
 853              	.LCFI10:
 854              		.cfi_restore_state
 998:Drivers/lvgl/lvgl/src/widgets/lv_btnmatrix.c ****         /*Push up the upper boundary of the btn area to also invalidate the popover*/
 855              		.loc 1 998 0 discriminator 1
 856 00da E26A     		ldr	r2, [r4, #44]
 857 00dc 32F81520 		ldrh	r2, [r2, r5, lsl #1]
 858 00e0 12F4806F 		tst	r2, #1024
 859 00e4 F3D0     		beq	.L48
 860              	.LVL93:
 861              	.LBB99:
 862              	.LBB100:
 116:Drivers/lvgl/lvgl/src/widgets/../core/../misc/../font/../misc/lv_area.h **** }
 117:Drivers/lvgl/lvgl/src/widgets/../core/../misc/../font/../misc/lv_area.h **** 
 118:Drivers/lvgl/lvgl/src/widgets/../core/../misc/../font/../misc/lv_area.h **** /**
 119:Drivers/lvgl/lvgl/src/widgets/../core/../misc/../font/../misc/lv_area.h ****  * Get the width of an area
 120:Drivers/lvgl/lvgl/src/widgets/../core/../misc/../font/../misc/lv_area.h ****  * @param area_p pointer to an area
 121:Drivers/lvgl/lvgl/src/widgets/../core/../misc/../font/../misc/lv_area.h ****  * @return the width of the area (if x1 == x2 -> width = 1)
 122:Drivers/lvgl/lvgl/src/widgets/../core/../misc/../font/../misc/lv_area.h ****  */
 123:Drivers/lvgl/lvgl/src/widgets/../core/../misc/../font/../misc/lv_area.h **** static inline lv_coord_t lv_area_get_width(const lv_area_t * area_p)
 124:Drivers/lvgl/lvgl/src/widgets/../core/../misc/../font/../misc/lv_area.h **** {
 125:Drivers/lvgl/lvgl/src/widgets/../core/../misc/../font/../misc/lv_area.h ****     return (lv_coord_t)(area_p->x2 - area_p->x1 + 1);
 126:Drivers/lvgl/lvgl/src/widgets/../core/../misc/../font/../misc/lv_area.h **** }
 127:Drivers/lvgl/lvgl/src/widgets/../core/../misc/../font/../misc/lv_area.h **** 
 128:Drivers/lvgl/lvgl/src/widgets/../core/../misc/../font/../misc/lv_area.h **** /**
 129:Drivers/lvgl/lvgl/src/widgets/../core/../misc/../font/../misc/lv_area.h ****  * Get the height of an area
 130:Drivers/lvgl/lvgl/src/widgets/../core/../misc/../font/../misc/lv_area.h ****  * @param area_p pointer to an area
 131:Drivers/lvgl/lvgl/src/widgets/../core/../misc/../font/../misc/lv_area.h ****  * @return the height of the area (if y1 == y2 -> height = 1)
 132:Drivers/lvgl/lvgl/src/widgets/../core/../misc/../font/../misc/lv_area.h ****  */
 133:Drivers/lvgl/lvgl/src/widgets/../core/../misc/../font/../misc/lv_area.h **** static inline lv_coord_t lv_area_get_height(const lv_area_t * area_p)
 134:Drivers/lvgl/lvgl/src/widgets/../core/../misc/../font/../misc/lv_area.h **** {
 135:Drivers/lvgl/lvgl/src/widgets/../core/../misc/../font/../misc/lv_area.h ****     return (lv_coord_t)(area_p->y2 - area_p->y1 + 1);
 863              		.loc 3 135 0
 864 00e6 1B1A     		subs	r3, r3, r0
 865 00e8 9BB2     		uxth	r3, r3
 866 00ea 0133     		adds	r3, r3, #1
 867 00ec 9BB2     		uxth	r3, r3
ARM GAS  /tmp/ccpV5owi.s 			page 40


 868              	.LVL94:
 869              	.LBE100:
 870              	.LBE99:
1000:Drivers/lvgl/lvgl/src/widgets/lv_btnmatrix.c ****     }
 871              		.loc 1 1000 0
 872 00ee C31A     		subs	r3, r0, r3
 873 00f0 ADF80A30 		strh	r3, [sp, #10]	@ movhi
 874 00f4 EBE7     		b	.L48
 875              	.L57:
 876 00f6 00BF     		.align	2
 877              	.L56:
 878 00f8 67666666 		.word	1717986919
 879              		.cfi_endproc
 880              	.LFE190:
 882              		.section	.text.draw_main,"ax",%progbits
 883              		.align	1
 884              		.syntax unified
 885              		.thumb
 886              		.thumb_func
 887              		.fpu fpv5-d16
 889              	draw_main:
 890              	.LFB177:
 647:Drivers/lvgl/lvgl/src/widgets/lv_btnmatrix.c ****     lv_obj_t * obj = lv_event_get_target(e);
 891              		.loc 1 647 0
 892              		.cfi_startproc
 893              		@ args = 0, pretend = 0, frame = 296
 894              		@ frame_needed = 0, uses_anonymous_args = 0
 895              	.LVL95:
 896 0000 2DE9F04F 		push	{r4, r5, r6, r7, r8, r9, r10, fp, lr}
 897              	.LCFI11:
 898              		.cfi_def_cfa_offset 36
 899              		.cfi_offset 4, -36
 900              		.cfi_offset 5, -32
 901              		.cfi_offset 6, -28
 902              		.cfi_offset 7, -24
 903              		.cfi_offset 8, -20
 904              		.cfi_offset 9, -16
 905              		.cfi_offset 10, -12
 906              		.cfi_offset 11, -8
 907              		.cfi_offset 14, -4
 908 0004 CFB0     		sub	sp, sp, #316
 909              	.LCFI12:
 910              		.cfi_def_cfa_offset 352
 911 0006 0446     		mov	r4, r0
 648:Drivers/lvgl/lvgl/src/widgets/lv_btnmatrix.c ****     lv_btnmatrix_t * btnm = (lv_btnmatrix_t *)obj;
 912              		.loc 1 648 0
 913 0008 FFF7FEFF 		bl	lv_event_get_target
 914              	.LVL96:
 650:Drivers/lvgl/lvgl/src/widgets/lv_btnmatrix.c **** 
 915              		.loc 1 650 0
 916 000c 038E     		ldrh	r3, [r0, #48]
 917 000e 13B9     		cbnz	r3, .L88
 918              	.LVL97:
 919              	.L58:
 809:Drivers/lvgl/lvgl/src/widgets/lv_btnmatrix.c **** /**
 920              		.loc 1 809 0
 921 0010 4FB0     		add	sp, sp, #316
ARM GAS  /tmp/ccpV5owi.s 			page 41


 922              	.LCFI13:
 923              		.cfi_remember_state
 924              		.cfi_def_cfa_offset 36
 925              		@ sp needed
 926 0012 BDE8F08F 		pop	{r4, r5, r6, r7, r8, r9, r10, fp, pc}
 927              	.LVL98:
 928              	.L88:
 929              	.LCFI14:
 930              		.cfi_restore_state
 931 0016 0546     		mov	r5, r0
 652:Drivers/lvgl/lvgl/src/widgets/lv_btnmatrix.c ****     obj->skip_trans = 1;
 932              		.loc 1 652 0
 933 0018 2046     		mov	r0, r4
 934              	.LVL99:
 935 001a FFF7FEFF 		bl	lv_event_get_draw_ctx
 936              	.LVL100:
 937 001e 0746     		mov	r7, r0
 938 0020 0490     		str	r0, [sp, #16]
 939              	.LVL101:
 653:Drivers/lvgl/lvgl/src/widgets/lv_btnmatrix.c **** 
 940              		.loc 1 653 0
 941 0022 95F82230 		ldrb	r3, [r5, #34]	@ zero_extendqisi2
 942 0026 43F00403 		orr	r3, r3, #4
 943 002a 85F82230 		strb	r3, [r5, #34]
 656:Drivers/lvgl/lvgl/src/widgets/lv_btnmatrix.c **** 
 944              		.loc 1 656 0
 945 002e 4CA9     		add	r1, sp, #304
 946 0030 2846     		mov	r0, r5
 947              	.LVL102:
 948 0032 FFF7FEFF 		bl	lv_obj_get_coords
 949              	.LVL103:
 669:Drivers/lvgl/lvgl/src/widgets/lv_btnmatrix.c ****     obj->state = LV_STATE_DEFAULT;
 950              		.loc 1 669 0
 951 0036 2C8C     		ldrh	r4, [r5, #32]
 952              	.LVL104:
 953 0038 0594     		str	r4, [sp, #20]
 954              	.LVL105:
 670:Drivers/lvgl/lvgl/src/widgets/lv_btnmatrix.c ****     obj->skip_trans = 1;
 955              		.loc 1 670 0
 956 003a 0026     		movs	r6, #0
 957 003c 2E84     		strh	r6, [r5, #32]	@ movhi
 671:Drivers/lvgl/lvgl/src/widgets/lv_btnmatrix.c ****     lv_draw_rect_dsc_init(&draw_rect_dsc_def);
 958              		.loc 1 671 0
 959 003e 95F82230 		ldrb	r3, [r5, #34]	@ zero_extendqisi2
 960 0042 43F00403 		orr	r3, r3, #4
 961 0046 85F82230 		strb	r3, [r5, #34]
 672:Drivers/lvgl/lvgl/src/widgets/lv_btnmatrix.c ****     lv_draw_label_dsc_init(&draw_label_dsc_def);
 962              		.loc 1 672 0
 963 004a 26A8     		add	r0, sp, #152
 964 004c FFF7FEFF 		bl	lv_draw_rect_dsc_init
 965              	.LVL106:
 673:Drivers/lvgl/lvgl/src/widgets/lv_btnmatrix.c ****     lv_obj_init_draw_rect_dsc(obj, LV_PART_ITEMS, &draw_rect_dsc_def);
 966              		.loc 1 673 0
 967 0050 1EA8     		add	r0, sp, #120
 968 0052 FFF7FEFF 		bl	lv_draw_label_dsc_init
 969              	.LVL107:
 674:Drivers/lvgl/lvgl/src/widgets/lv_btnmatrix.c ****     lv_obj_init_draw_label_dsc(obj, LV_PART_ITEMS, &draw_label_dsc_def);
ARM GAS  /tmp/ccpV5owi.s 			page 42


 970              		.loc 1 674 0
 971 0056 26AA     		add	r2, sp, #152
 972 0058 4FF4A021 		mov	r1, #327680
 973 005c 2846     		mov	r0, r5
 974 005e FFF7FEFF 		bl	lv_obj_init_draw_rect_dsc
 975              	.LVL108:
 675:Drivers/lvgl/lvgl/src/widgets/lv_btnmatrix.c ****     obj->skip_trans = 0;
 976              		.loc 1 675 0
 977 0062 1EAA     		add	r2, sp, #120
 978 0064 4FF4A021 		mov	r1, #327680
 979 0068 2846     		mov	r0, r5
 980 006a FFF7FEFF 		bl	lv_obj_init_draw_label_dsc
 981              	.LVL109:
 676:Drivers/lvgl/lvgl/src/widgets/lv_btnmatrix.c ****     obj->state = state_ori;
 982              		.loc 1 676 0
 983 006e 95F82230 		ldrb	r3, [r5, #34]	@ zero_extendqisi2
 984 0072 66F38203 		bfi	r3, r6, #2, #1
 985 0076 85F82230 		strb	r3, [r5, #34]
 677:Drivers/lvgl/lvgl/src/widgets/lv_btnmatrix.c **** 
 986              		.loc 1 677 0
 987 007a 2C84     		strh	r4, [r5, #32]	@ movhi
 988              	.LVL110:
 989              	.LBB101:
 990              	.LBB102:
 105:Drivers/lvgl/lvgl/src/widgets/../core/lv_obj_style_gen.h ****     return (lv_coord_t)v.num;
 991              		.loc 2 105 0
 992 007c 1022     		movs	r2, #16
 993 007e 3146     		mov	r1, r6
 994 0080 2846     		mov	r0, r5
 995 0082 FFF7FEFF 		bl	lv_obj_get_style_prop
 996              	.LVL111:
 106:Drivers/lvgl/lvgl/src/widgets/../core/lv_obj_style_gen.h **** }
 997              		.loc 2 106 0
 998 0086 03B2     		sxth	r3, r0
 999 0088 0693     		str	r3, [sp, #24]
 1000              	.LVL112:
 1001              	.LBE102:
 1002              	.LBE101:
 1003              	.LBB103:
 1004              	.LBB104:
 111:Drivers/lvgl/lvgl/src/widgets/../core/lv_obj_style_gen.h ****     return (lv_coord_t)v.num;
 1005              		.loc 2 111 0
 1006 008a 1122     		movs	r2, #17
 1007 008c 3146     		mov	r1, r6
 1008 008e 2846     		mov	r0, r5
 1009 0090 FFF7FEFF 		bl	lv_obj_get_style_prop
 1010              	.LVL113:
 112:Drivers/lvgl/lvgl/src/widgets/../core/lv_obj_style_gen.h **** }
 1011              		.loc 2 112 0
 1012 0094 03B2     		sxth	r3, r0
 1013 0096 0793     		str	r3, [sp, #28]
 1014              	.LVL114:
 1015              	.LBE104:
 1016              	.LBE103:
 1017              	.LBB105:
 1018              	.LBB106:
 117:Drivers/lvgl/lvgl/src/widgets/../core/lv_obj_style_gen.h ****     return (lv_coord_t)v.num;
ARM GAS  /tmp/ccpV5owi.s 			page 43


 1019              		.loc 2 117 0
 1020 0098 1222     		movs	r2, #18
 1021 009a 3146     		mov	r1, r6
 1022 009c 2846     		mov	r0, r5
 1023 009e FFF7FEFF 		bl	lv_obj_get_style_prop
 1024              	.LVL115:
 118:Drivers/lvgl/lvgl/src/widgets/../core/lv_obj_style_gen.h **** }
 1025              		.loc 2 118 0
 1026 00a2 03B2     		sxth	r3, r0
 1027 00a4 0893     		str	r3, [sp, #32]
 1028              	.LVL116:
 1029              	.LBE106:
 1030              	.LBE105:
 1031              	.LBB107:
 1032              	.LBB108:
 123:Drivers/lvgl/lvgl/src/widgets/../core/lv_obj_style_gen.h ****     return (lv_coord_t)v.num;
 1033              		.loc 2 123 0
 1034 00a6 1322     		movs	r2, #19
 1035 00a8 3146     		mov	r1, r6
 1036 00aa 2846     		mov	r0, r5
 1037 00ac FFF7FEFF 		bl	lv_obj_get_style_prop
 1038              	.LVL117:
 124:Drivers/lvgl/lvgl/src/widgets/../core/lv_obj_style_gen.h **** }
 1039              		.loc 2 124 0
 1040 00b0 03B2     		sxth	r3, r0
 1041 00b2 0993     		str	r3, [sp, #36]
 1042              	.LVL118:
 1043              	.LBE108:
 1044              	.LBE107:
 690:Drivers/lvgl/lvgl/src/widgets/lv_btnmatrix.c ****     part_draw_dsc.part = LV_PART_ITEMS;
 1045              		.loc 1 690 0
 1046 00b4 3946     		mov	r1, r7
 1047 00b6 0CA8     		add	r0, sp, #48
 1048 00b8 FFF7FEFF 		bl	lv_obj_draw_dsc_init
 1049              	.LVL119:
 691:Drivers/lvgl/lvgl/src/widgets/lv_btnmatrix.c ****     part_draw_dsc.class_p = MY_CLASS;
 1050              		.loc 1 691 0
 1051 00bc 4FF4A023 		mov	r3, #327680
 1052 00c0 1993     		str	r3, [sp, #100]
 692:Drivers/lvgl/lvgl/src/widgets/lv_btnmatrix.c ****     part_draw_dsc.type = LV_BTNMATRIX_DRAW_PART_BTN;
 1053              		.loc 1 692 0
 1054 00c2 CF4B     		ldr	r3, .L96
 1055 00c4 0D93     		str	r3, [sp, #52]
 693:Drivers/lvgl/lvgl/src/widgets/lv_btnmatrix.c ****     part_draw_dsc.rect_dsc = &draw_rect_dsc_act;
 1056              		.loc 1 693 0
 1057 00c6 0E96     		str	r6, [sp, #56]
 694:Drivers/lvgl/lvgl/src/widgets/lv_btnmatrix.c ****     part_draw_dsc.label_dsc = &draw_label_dsc_act;
 1058              		.loc 1 694 0
 1059 00c8 3CAB     		add	r3, sp, #240
 1060 00ca 1093     		str	r3, [sp, #64]
 695:Drivers/lvgl/lvgl/src/widgets/lv_btnmatrix.c **** 
 1061              		.loc 1 695 0
 1062 00cc 34AB     		add	r3, sp, #208
 1063 00ce 1193     		str	r3, [sp, #68]
 661:Drivers/lvgl/lvgl/src/widgets/lv_btnmatrix.c **** 
 1064              		.loc 1 661 0
 1065 00d0 3446     		mov	r4, r6
ARM GAS  /tmp/ccpV5owi.s 			page 44


 1066              	.LVL120:
 697:Drivers/lvgl/lvgl/src/widgets/lv_btnmatrix.c ****         /*Search the next valid text in the map*/
 1067              		.loc 1 697 0
 1068 00d2 20E1     		b	.L60
 1069              	.LVL121:
 1070              	.L61:
 1071              	.LBB109:
 700:Drivers/lvgl/lvgl/src/widgets/lv_btnmatrix.c ****         }
 1072              		.loc 1 700 0
 1073 00d4 0134     		adds	r4, r4, #1
 1074              	.LVL122:
 1075 00d6 A4B2     		uxth	r4, r4
 1076              	.LVL123:
 1077              	.L83:
 699:Drivers/lvgl/lvgl/src/widgets/lv_btnmatrix.c ****             txt_i++;
 1078              		.loc 1 699 0
 1079 00d8 6B6A     		ldr	r3, [r5, #36]
 1080 00da A700     		lsls	r7, r4, #2
 1081 00dc C949     		ldr	r1, .L96+4
 1082 00de 53F82400 		ldr	r0, [r3, r4, lsl #2]
 1083 00e2 FFF7FEFF 		bl	strcmp
 1084              	.LVL124:
 1085 00e6 0028     		cmp	r0, #0
 1086 00e8 F4D0     		beq	.L61
 704:Drivers/lvgl/lvgl/src/widgets/lv_btnmatrix.c **** 
 1087              		.loc 1 704 0
 1088 00ea EB6A     		ldr	r3, [r5, #44]
 1089 00ec B246     		mov	r10, r6
 1090 00ee 4FEA460B 		lsl	fp, r6, #1
 1091 00f2 33F81690 		ldrh	r9, [r3, r6, lsl #1]
 1092 00f6 4846     		mov	r0, r9
 1093 00f8 FFF7FEFF 		bl	button_is_hidden
 1094              	.LVL125:
 1095 00fc 0028     		cmp	r0, #0
 1096 00fe 40F00681 		bne	.L63
 1097              	.LVL126:
 708:Drivers/lvgl/lvgl/src/widgets/lv_btnmatrix.c **** 
 1098              		.loc 1 708 0
 1099 0102 4846     		mov	r0, r9
 1100 0104 FFF7FEFF 		bl	button_get_checked
 1101              	.LVL127:
 1102 0108 0028     		cmp	r0, #0
 1103 010a 40F00F81 		bne	.L85
 707:Drivers/lvgl/lvgl/src/widgets/lv_btnmatrix.c ****         if(button_get_checked(btnm->ctrl_bits[btn_i])) btn_state |= LV_STATE_CHECKED;
 1104              		.loc 1 707 0
 1105 010e 4FF00008 		mov	r8, #0
 1106              	.L64:
 1107              	.LVL128:
 710:Drivers/lvgl/lvgl/src/widgets/lv_btnmatrix.c ****         else if(btn_i == btnm->btn_id_sel) {
 1108              		.loc 1 710 0
 1109 0112 4846     		mov	r0, r9
 1110 0114 FFF7FEFF 		bl	button_is_inactive
 1111              	.LVL129:
 1112 0118 0028     		cmp	r0, #0
 1113 011a 00F00A81 		beq	.L65
 710:Drivers/lvgl/lvgl/src/widgets/lv_btnmatrix.c ****         else if(btn_i == btnm->btn_id_sel) {
 1114              		.loc 1 710 0 is_stmt 0 discriminator 1
ARM GAS  /tmp/ccpV5owi.s 			page 45


 1115 011e 48F08008 		orr	r8, r8, #128
 1116              	.LVL130:
 1117              	.L66:
 719:Drivers/lvgl/lvgl/src/widgets/lv_btnmatrix.c ****         btn_area.x1 += area_obj.x1;
 1118              		.loc 1 719 0 is_stmt 1
 1119 0122 AB6A     		ldr	r3, [r5, #40]
 1120 0124 03EBCA02 		add	r2, r3, r10, lsl #3
 1121              	.LVL131:
 1122              	.LBB110:
 1123              	.LBB111:
 112:Drivers/lvgl/lvgl/src/widgets/../core/../misc/../font/../misc/lv_area.h ****     dest->y1 = src->y1;
 1124              		.loc 3 112 0
 1125 0128 33F93A30 		ldrsh	r3, [r3, r10, lsl #3]
 113:Drivers/lvgl/lvgl/src/widgets/../core/../misc/../font/../misc/lv_area.h ****     dest->x2 = src->x2;
 1126              		.loc 3 113 0
 1127 012c B2F90210 		ldrsh	r1, [r2, #2]
 114:Drivers/lvgl/lvgl/src/widgets/../core/../misc/../font/../misc/lv_area.h ****     dest->y2 = src->y2;
 1128              		.loc 3 114 0
 1129 0130 B2F904C0 		ldrsh	ip, [r2, #4]
 115:Drivers/lvgl/lvgl/src/widgets/../core/../misc/../font/../misc/lv_area.h **** }
 1130              		.loc 3 115 0
 1131 0134 B2F90600 		ldrsh	r0, [r2, #6]
 1132              	.LVL132:
 1133              	.LBE111:
 1134              	.LBE110:
 720:Drivers/lvgl/lvgl/src/widgets/lv_btnmatrix.c ****         btn_area.y1 += area_obj.y1;
 1135              		.loc 1 720 0
 1136 0138 BDF83021 		ldrh	r2, [sp, #304]
 1137 013c 1344     		add	r3, r3, r2
 1138 013e ADF82831 		strh	r3, [sp, #296]	@ movhi
 721:Drivers/lvgl/lvgl/src/widgets/lv_btnmatrix.c ****         btn_area.x2 += area_obj.x1;
 1139              		.loc 1 721 0
 1140 0142 BDF83231 		ldrh	r3, [sp, #306]
 1141 0146 1944     		add	r1, r1, r3
 1142 0148 ADF82A11 		strh	r1, [sp, #298]	@ movhi
 722:Drivers/lvgl/lvgl/src/widgets/lv_btnmatrix.c ****         btn_area.y2 += area_obj.y1;
 1143              		.loc 1 722 0
 1144 014c 6244     		add	r2, r2, ip
 1145 014e ADF82C21 		strh	r2, [sp, #300]	@ movhi
 723:Drivers/lvgl/lvgl/src/widgets/lv_btnmatrix.c **** 
 1146              		.loc 1 723 0
 1147 0152 0344     		add	r3, r3, r0
 1148 0154 ADF82E31 		strh	r3, [sp, #302]	@ movhi
 726:Drivers/lvgl/lvgl/src/widgets/lv_btnmatrix.c ****             lv_memcpy(&draw_rect_dsc_act, &draw_rect_dsc_def, sizeof(lv_draw_rect_dsc_t));
 1149              		.loc 1 726 0
 1150 0158 B8F1000F 		cmp	r8, #0
 1151 015c 40F00781 		bne	.L70
 727:Drivers/lvgl/lvgl/src/widgets/lv_btnmatrix.c ****             lv_memcpy(&draw_label_dsc_act, &draw_label_dsc_def, sizeof(lv_draw_label_dsc_t));
 1152              		.loc 1 727 0
 1153 0160 3822     		movs	r2, #56
 1154 0162 26A9     		add	r1, sp, #152
 1155 0164 3CA8     		add	r0, sp, #240
 1156 0166 FFF7FEFF 		bl	lv_memcpy
 1157              	.LVL133:
 728:Drivers/lvgl/lvgl/src/widgets/lv_btnmatrix.c ****         }
 1158              		.loc 1 728 0
 1159 016a 2022     		movs	r2, #32
ARM GAS  /tmp/ccpV5owi.s 			page 46


 1160 016c 1EA9     		add	r1, sp, #120
 1161 016e 34A8     		add	r0, sp, #208
 1162 0170 FFF7FEFF 		bl	lv_memcpy
 1163              	.LVL134:
 1164              	.L71:
 742:Drivers/lvgl/lvgl/src/widgets/lv_btnmatrix.c ****         if(recolor) draw_label_dsc_act.flag |= LV_TEXT_FLAG_RECOLOR;
 1165              		.loc 1 742 0
 1166 0174 EB6A     		ldr	r3, [r5, #44]
 1167 0176 33F80B00 		ldrh	r0, [r3, fp]
 1168 017a FFF7FEFF 		bl	button_is_recolor
 1169              	.LVL135:
 743:Drivers/lvgl/lvgl/src/widgets/lv_btnmatrix.c ****         else draw_label_dsc_act.flag &= ~LV_TEXT_FLAG_RECOLOR;
 1170              		.loc 1 743 0
 1171 017e 0028     		cmp	r0, #0
 1172 0180 00F01981 		beq	.L72
 743:Drivers/lvgl/lvgl/src/widgets/lv_btnmatrix.c ****         else draw_label_dsc_act.flag &= ~LV_TEXT_FLAG_RECOLOR;
 1173              		.loc 1 743 0 is_stmt 0 discriminator 1
 1174 0184 9DF8ED30 		ldrb	r3, [sp, #237]	@ zero_extendqisi2
 1175 0188 43F00103 		orr	r3, r3, #1
 1176 018c 8DF8ED30 		strb	r3, [sp, #237]
 1177              	.L73:
 747:Drivers/lvgl/lvgl/src/widgets/lv_btnmatrix.c ****         part_draw_dsc.id = btn_i;
 1178              		.loc 1 747 0 is_stmt 1
 1179 0190 4AAB     		add	r3, sp, #296
 1180 0192 0F93     		str	r3, [sp, #60]
 748:Drivers/lvgl/lvgl/src/widgets/lv_btnmatrix.c ****         lv_event_send(obj, LV_EVENT_DRAW_PART_BEGIN, &part_draw_dsc);
 1181              		.loc 1 748 0
 1182 0194 CDF868A0 		str	r10, [sp, #104]
 749:Drivers/lvgl/lvgl/src/widgets/lv_btnmatrix.c **** 
 1183              		.loc 1 749 0
 1184 0198 0CAA     		add	r2, sp, #48
 1185 019a 1A21     		movs	r1, #26
 1186 019c 2846     		mov	r0, r5
 1187              	.LVL136:
 1188 019e FFF7FEFF 		bl	lv_event_send
 1189              	.LVL137:
 752:Drivers/lvgl/lvgl/src/widgets/lv_btnmatrix.c ****             draw_rect_dsc_act.border_side = LV_BORDER_SIDE_FULL;
 1190              		.loc 1 752 0
 1191 01a2 9DF81331 		ldrb	r3, [sp, #275]	@ zero_extendqisi2
 1192 01a6 13F0200F 		tst	r3, #32
 1193 01aa 2AD0     		beq	.L74
 753:Drivers/lvgl/lvgl/src/widgets/lv_btnmatrix.c ****             if(btn_area.x1 == obj->coords.x1 + pleft) draw_rect_dsc_act.border_side &= ~LV_BORDER_S
 1194              		.loc 1 753 0
 1195 01ac 9DF81331 		ldrb	r3, [sp, #275]	@ zero_extendqisi2
 1196 01b0 0F22     		movs	r2, #15
 1197 01b2 62F34503 		bfi	r3, r2, #1, #5
 1198 01b6 8DF81331 		strb	r3, [sp, #275]
 754:Drivers/lvgl/lvgl/src/widgets/lv_btnmatrix.c ****             if(btn_area.x2 == obj->coords.x2 - pright) draw_rect_dsc_act.border_side &= ~LV_BORDER_
 1199              		.loc 1 754 0
 1200 01ba BDF92821 		ldrsh	r2, [sp, #296]
 1201 01be B5F91430 		ldrsh	r3, [r5, #20]
 1202 01c2 0899     		ldr	r1, [sp, #32]
 1203 01c4 0B44     		add	r3, r3, r1
 1204 01c6 9A42     		cmp	r2, r3
 1205 01c8 00F0FC80 		beq	.L89
 1206              	.L75:
 755:Drivers/lvgl/lvgl/src/widgets/lv_btnmatrix.c ****             if(btn_area.y1 == obj->coords.y1 + ptop) draw_rect_dsc_act.border_side &= ~LV_BORDER_SI
ARM GAS  /tmp/ccpV5owi.s 			page 47


 1207              		.loc 1 755 0
 1208 01cc BDF92C21 		ldrsh	r2, [sp, #300]
 1209 01d0 B5F91830 		ldrsh	r3, [r5, #24]
 1210 01d4 0999     		ldr	r1, [sp, #36]
 1211 01d6 5B1A     		subs	r3, r3, r1
 1212 01d8 9A42     		cmp	r2, r3
 1213 01da 00F0FB80 		beq	.L90
 1214              	.L76:
 756:Drivers/lvgl/lvgl/src/widgets/lv_btnmatrix.c ****             if(btn_area.y2 == obj->coords.y2 - pbottom) draw_rect_dsc_act.border_side &= ~LV_BORDER
 1215              		.loc 1 756 0
 1216 01de BDF92A21 		ldrsh	r2, [sp, #298]
 1217 01e2 B5F91630 		ldrsh	r3, [r5, #22]
 1218 01e6 0699     		ldr	r1, [sp, #24]
 1219 01e8 0B44     		add	r3, r3, r1
 1220 01ea 9A42     		cmp	r2, r3
 1221 01ec 00F0FD80 		beq	.L91
 1222              	.L77:
 757:Drivers/lvgl/lvgl/src/widgets/lv_btnmatrix.c ****         }
 1223              		.loc 1 757 0
 1224 01f0 BDF92E21 		ldrsh	r2, [sp, #302]
 1225 01f4 B5F91A30 		ldrsh	r3, [r5, #26]
 1226 01f8 0799     		ldr	r1, [sp, #28]
 1227 01fa 5B1A     		subs	r3, r3, r1
 1228 01fc 9A42     		cmp	r2, r3
 1229 01fe 00F00381 		beq	.L92
 1230              	.L74:
 1231              	.LVL138:
 1232              	.LBB112:
 1233              	.LBB113:
 1234              		.loc 3 135 0
 1235 0202 BDF82E31 		ldrh	r3, [sp, #302]
 1236 0206 BDF82A21 		ldrh	r2, [sp, #298]
 1237 020a 9B1A     		subs	r3, r3, r2
 1238 020c 9BB2     		uxth	r3, r3
 1239 020e 0133     		adds	r3, r3, #1
 1240 0210 9BB2     		uxth	r3, r3
 1241 0212 0FFA83F9 		sxth	r9, r3
 1242              	.LVL139:
 1243              	.LBE113:
 1244              	.LBE112:
 762:Drivers/lvgl/lvgl/src/widgets/lv_btnmatrix.c ****             /*Push up the upper boundary of the btn area to create the popover*/
 1245              		.loc 1 762 0
 1246 0216 18F02008 		ands	r8, r8, #32
 1247              	.LVL140:
 1248 021a 08D0     		beq	.L78
 762:Drivers/lvgl/lvgl/src/widgets/lv_btnmatrix.c ****             /*Push up the upper boundary of the btn area to create the popover*/
 1249              		.loc 1 762 0 is_stmt 0 discriminator 1
 1250 021c E96A     		ldr	r1, [r5, #44]
 1251 021e 31F80B10 		ldrh	r1, [r1, fp]
 1252 0222 11F4806F 		tst	r1, #1024
 1253 0226 02D0     		beq	.L78
 764:Drivers/lvgl/lvgl/src/widgets/lv_btnmatrix.c ****         }
 1254              		.loc 1 764 0 is_stmt 1
 1255 0228 D31A     		subs	r3, r2, r3
 1256 022a ADF82A31 		strh	r3, [sp, #298]	@ movhi
 1257              	.L78:
 768:Drivers/lvgl/lvgl/src/widgets/lv_btnmatrix.c **** 
ARM GAS  /tmp/ccpV5owi.s 			page 48


 1258              		.loc 1 768 0
 1259 022e 4AAA     		add	r2, sp, #296
 1260 0230 3CA9     		add	r1, sp, #240
 1261 0232 0498     		ldr	r0, [sp, #16]
 1262 0234 FFF7FEFF 		bl	lv_draw_rect
 1263              	.LVL141:
 772:Drivers/lvgl/lvgl/src/widgets/lv_btnmatrix.c ****         lv_coord_t line_space = draw_label_dsc_act.line_space;
 1264              		.loc 1 772 0
 1265 0238 BDF9E430 		ldrsh	r3, [sp, #228]
 1266              	.LVL142:
 773:Drivers/lvgl/lvgl/src/widgets/lv_btnmatrix.c ****         const char * txt = btnm->map_p[txt_i];
 1267              		.loc 1 773 0
 1268 023c BDF9E210 		ldrsh	r1, [sp, #226]
 1269              	.LVL143:
 774:Drivers/lvgl/lvgl/src/widgets/lv_btnmatrix.c **** 
 1270              		.loc 1 774 0
 1271 0240 6A6A     		ldr	r2, [r5, #36]
 1272 0242 D759     		ldr	r7, [r2, r7]
 1273              	.LVL144:
 1274              	.LBB114:
 1275              	.LBB115:
 125:Drivers/lvgl/lvgl/src/widgets/../core/../misc/../font/../misc/lv_area.h **** }
 1276              		.loc 3 125 0
 1277 0244 BDF83421 		ldrh	r2, [sp, #308]
 1278 0248 BDF83001 		ldrh	r0, [sp, #304]
 1279 024c 121A     		subs	r2, r2, r0
 1280 024e 92B2     		uxth	r2, r2
 1281 0250 0132     		adds	r2, r2, #1
 1282 0252 12B2     		sxth	r2, r2
 1283              	.LVL145:
 1284              	.LBE115:
 1285              	.LBE114:
 785:Drivers/lvgl/lvgl/src/widgets/lv_btnmatrix.c ****                         line_space, lv_area_get_width(&area_obj), draw_label_dsc_act.flag);
 1286              		.loc 1 785 0
 1287 0254 9DF8ED00 		ldrb	r0, [sp, #237]	@ zero_extendqisi2
 1288 0258 0290     		str	r0, [sp, #8]
 1289 025a 0192     		str	r2, [sp, #4]
 1290 025c 0091     		str	r1, [sp]
 1291 025e 349A     		ldr	r2, [sp, #208]
 1292 0260 3946     		mov	r1, r7
 1293              	.LVL146:
 1294 0262 0BA8     		add	r0, sp, #44
 1295 0264 FFF7FEFF 		bl	lv_txt_get_size
 1296              	.LVL147:
 1297              	.LBB116:
 1298              	.LBB117:
 125:Drivers/lvgl/lvgl/src/widgets/../core/../misc/../font/../misc/lv_area.h **** }
 1299              		.loc 3 125 0
 1300 0268 BDF82C31 		ldrh	r3, [sp, #300]
 1301 026c BDF82811 		ldrh	r1, [sp, #296]
 1302 0270 5B1A     		subs	r3, r3, r1
 1303 0272 9BB2     		uxth	r3, r3
 1304 0274 0133     		adds	r3, r3, #1
 1305 0276 1BB2     		sxth	r3, r3
 1306              	.LVL148:
 1307              	.LBE117:
 1308              	.LBE116:
ARM GAS  /tmp/ccpV5owi.s 			page 49


 788:Drivers/lvgl/lvgl/src/widgets/lv_btnmatrix.c ****         btn_area.y1 += (lv_area_get_height(&btn_area) - txt_size.y) / 2;
 1309              		.loc 1 788 0
 1310 0278 BDF92C00 		ldrsh	r0, [sp, #44]
 1311 027c 1B1A     		subs	r3, r3, r0
 1312 027e 00F1CE80 		bmi	.L93
 1313              	.L79:
 1314 0282 01EB6303 		add	r3, r1, r3, asr #1
 1315 0286 99B2     		uxth	r1, r3
 1316 0288 ADF82811 		strh	r1, [sp, #296]	@ movhi
 1317              	.LVL149:
 1318              	.LBB118:
 1319              	.LBB119:
 1320              		.loc 3 135 0
 1321 028c BDF82E31 		ldrh	r3, [sp, #302]
 1322 0290 BDF82A21 		ldrh	r2, [sp, #298]
 1323 0294 9B1A     		subs	r3, r3, r2
 1324 0296 9BB2     		uxth	r3, r3
 1325 0298 0133     		adds	r3, r3, #1
 1326 029a 1BB2     		sxth	r3, r3
 1327              	.LVL150:
 1328              	.LBE119:
 1329              	.LBE118:
 789:Drivers/lvgl/lvgl/src/widgets/lv_btnmatrix.c ****         btn_area.x2 = btn_area.x1 + txt_size.x;
 1330              		.loc 1 789 0
 1331 029c BDF92EC0 		ldrsh	ip, [sp, #46]
 1332 02a0 B3EB0C03 		subs	r3, r3, ip
 1333 02a4 00F1BD80 		bmi	.L94
 1334              	.L80:
 1335 02a8 02EB6303 		add	r3, r2, r3, asr #1
 1336 02ac 9BB2     		uxth	r3, r3
 1337 02ae ADF82A31 		strh	r3, [sp, #298]	@ movhi
 790:Drivers/lvgl/lvgl/src/widgets/lv_btnmatrix.c ****         btn_area.y2 = btn_area.y1 + txt_size.y;
 1338              		.loc 1 790 0
 1339 02b2 11FA80F1 		uxtah	r1, r1, r0
 1340 02b6 ADF82C11 		strh	r1, [sp, #300]	@ movhi
 791:Drivers/lvgl/lvgl/src/widgets/lv_btnmatrix.c **** 
 1341              		.loc 1 791 0
 1342 02ba 13FA8CFC 		uxtah	ip, r3, ip
 1343 02be 1FFA8CFC 		uxth	ip, ip
 1344 02c2 ADF82EC1 		strh	ip, [sp, #302]	@ movhi
 793:Drivers/lvgl/lvgl/src/widgets/lv_btnmatrix.c ****             /*Push up the button text into the popover*/
 1345              		.loc 1 793 0
 1346 02c6 B8F1000F 		cmp	r8, #0
 1347 02ca 13D0     		beq	.L81
 793:Drivers/lvgl/lvgl/src/widgets/lv_btnmatrix.c ****             /*Push up the button text into the popover*/
 1348              		.loc 1 793 0 is_stmt 0 discriminator 1
 1349 02cc EA6A     		ldr	r2, [r5, #44]
 1350 02ce 32F80B20 		ldrh	r2, [r2, fp]
 1351 02d2 12F4806F 		tst	r2, #1024
 1352 02d6 0DD0     		beq	.L81
 795:Drivers/lvgl/lvgl/src/widgets/lv_btnmatrix.c ****             btn_area.y2 -= btn_height / 2;
 1353              		.loc 1 795 0 is_stmt 1
 1354 02d8 4A46     		mov	r2, r9
 1355 02da B9F1000F 		cmp	r9, #0
 1356 02de C0F2A280 		blt	.L95
 1357              	.L82:
 1358 02e2 C2F34F02 		ubfx	r2, r2, #1, #16
ARM GAS  /tmp/ccpV5owi.s 			page 50


 1359 02e6 9B1A     		subs	r3, r3, r2
 1360 02e8 ADF82A31 		strh	r3, [sp, #298]	@ movhi
 796:Drivers/lvgl/lvgl/src/widgets/lv_btnmatrix.c ****         }
 1361              		.loc 1 796 0
 1362 02ec ACEB020C 		sub	ip, ip, r2
 1363 02f0 ADF82EC1 		strh	ip, [sp, #302]	@ movhi
 1364              	.L81:
 800:Drivers/lvgl/lvgl/src/widgets/lv_btnmatrix.c **** 
 1365              		.loc 1 800 0
 1366 02f4 0023     		movs	r3, #0
 1367 02f6 0093     		str	r3, [sp]
 1368 02f8 3B46     		mov	r3, r7
 1369 02fa 4AAA     		add	r2, sp, #296
 1370 02fc 34A9     		add	r1, sp, #208
 1371 02fe 0498     		ldr	r0, [sp, #16]
 1372 0300 FFF7FEFF 		bl	lv_draw_label
 1373              	.LVL151:
 802:Drivers/lvgl/lvgl/src/widgets/lv_btnmatrix.c ****     }
 1374              		.loc 1 802 0
 1375 0304 0CAA     		add	r2, sp, #48
 1376 0306 1B21     		movs	r1, #27
 1377 0308 2846     		mov	r0, r5
 1378 030a FFF7FEFF 		bl	lv_event_send
 1379              	.LVL152:
 1380              	.L63:
 1381              	.LBE109:
 697:Drivers/lvgl/lvgl/src/widgets/lv_btnmatrix.c ****         /*Search the next valid text in the map*/
 1382              		.loc 1 697 0 discriminator 2
 1383 030e 0136     		adds	r6, r6, #1
 1384              	.LVL153:
 1385 0310 B6B2     		uxth	r6, r6
 1386              	.LVL154:
 1387 0312 0134     		adds	r4, r4, #1
 1388              	.LVL155:
 1389 0314 A4B2     		uxth	r4, r4
 1390              	.LVL156:
 1391              	.L60:
 697:Drivers/lvgl/lvgl/src/widgets/lv_btnmatrix.c ****         /*Search the next valid text in the map*/
 1392              		.loc 1 697 0 is_stmt 0 discriminator 1
 1393 0316 2B8E     		ldrh	r3, [r5, #48]
 1394 0318 B342     		cmp	r3, r6
 1395 031a 3FF6DDAE 		bhi	.L83
 805:Drivers/lvgl/lvgl/src/widgets/lv_btnmatrix.c **** #if LV_USE_ARABIC_PERSIAN_CHARS
 1396              		.loc 1 805 0 is_stmt 1
 1397 031e 95F82230 		ldrb	r3, [r5, #34]	@ zero_extendqisi2
 1398 0322 6FF38203 		bfc	r3, #2, #1
 1399 0326 85F82230 		strb	r3, [r5, #34]
 1400 032a 71E6     		b	.L58
 1401              	.LVL157:
 1402              	.L85:
 1403              	.LBB120:
 708:Drivers/lvgl/lvgl/src/widgets/lv_btnmatrix.c **** 
 1404              		.loc 1 708 0
 1405 032c 4FF00108 		mov	r8, #1
 1406 0330 EFE6     		b	.L64
 1407              	.LVL158:
 1408              	.L65:
ARM GAS  /tmp/ccpV5owi.s 			page 51


 711:Drivers/lvgl/lvgl/src/widgets/lv_btnmatrix.c ****             if(state_ori & LV_STATE_PRESSED) btn_state |= LV_STATE_PRESSED;
 1409              		.loc 1 711 0
 1410 0332 AB8E     		ldrh	r3, [r5, #52]
 1411 0334 B342     		cmp	r3, r6
 1412 0336 7FF4F4AE 		bne	.L66
 712:Drivers/lvgl/lvgl/src/widgets/lv_btnmatrix.c ****             if(state_ori & LV_STATE_FOCUSED) btn_state |= LV_STATE_FOCUSED;
 1413              		.loc 1 712 0
 1414 033a 059B     		ldr	r3, [sp, #20]
 1415 033c 13F0200F 		tst	r3, #32
 1416 0340 01D0     		beq	.L67
 712:Drivers/lvgl/lvgl/src/widgets/lv_btnmatrix.c ****             if(state_ori & LV_STATE_FOCUSED) btn_state |= LV_STATE_FOCUSED;
 1417              		.loc 1 712 0 is_stmt 0 discriminator 1
 1418 0342 48F02008 		orr	r8, r8, #32
 1419              	.LVL159:
 1420              	.L67:
 713:Drivers/lvgl/lvgl/src/widgets/lv_btnmatrix.c ****             if(state_ori & LV_STATE_FOCUS_KEY) btn_state |= LV_STATE_FOCUS_KEY;
 1421              		.loc 1 713 0 is_stmt 1
 1422 0346 059B     		ldr	r3, [sp, #20]
 1423 0348 13F0020F 		tst	r3, #2
 1424 034c 01D0     		beq	.L68
 713:Drivers/lvgl/lvgl/src/widgets/lv_btnmatrix.c ****             if(state_ori & LV_STATE_FOCUS_KEY) btn_state |= LV_STATE_FOCUS_KEY;
 1425              		.loc 1 713 0 is_stmt 0 discriminator 1
 1426 034e 48F00208 		orr	r8, r8, #2
 1427              	.LVL160:
 1428              	.L68:
 714:Drivers/lvgl/lvgl/src/widgets/lv_btnmatrix.c ****             if(state_ori & LV_STATE_EDITED) btn_state |= LV_STATE_EDITED;
 1429              		.loc 1 714 0 is_stmt 1
 1430 0352 059B     		ldr	r3, [sp, #20]
 1431 0354 13F0040F 		tst	r3, #4
 1432 0358 01D0     		beq	.L69
 714:Drivers/lvgl/lvgl/src/widgets/lv_btnmatrix.c ****             if(state_ori & LV_STATE_EDITED) btn_state |= LV_STATE_EDITED;
 1433              		.loc 1 714 0 is_stmt 0 discriminator 1
 1434 035a 48F00408 		orr	r8, r8, #4
 1435              	.LVL161:
 1436              	.L69:
 715:Drivers/lvgl/lvgl/src/widgets/lv_btnmatrix.c ****         }
 1437              		.loc 1 715 0 is_stmt 1
 1438 035e 059B     		ldr	r3, [sp, #20]
 1439 0360 13F0080F 		tst	r3, #8
 1440 0364 3FF4DDAE 		beq	.L66
 715:Drivers/lvgl/lvgl/src/widgets/lv_btnmatrix.c ****         }
 1441              		.loc 1 715 0 is_stmt 0 discriminator 1
 1442 0368 48F00808 		orr	r8, r8, #8
 1443              	.LVL162:
 1444 036c D9E6     		b	.L66
 1445              	.L70:
 732:Drivers/lvgl/lvgl/src/widgets/lv_btnmatrix.c ****             obj->skip_trans = 1;
 1446              		.loc 1 732 0 is_stmt 1
 1447 036e A5F82080 		strh	r8, [r5, #32]	@ movhi
 733:Drivers/lvgl/lvgl/src/widgets/lv_btnmatrix.c ****             lv_draw_rect_dsc_init(&draw_rect_dsc_act);
 1448              		.loc 1 733 0
 1449 0372 95F82230 		ldrb	r3, [r5, #34]	@ zero_extendqisi2
 1450 0376 43F00403 		orr	r3, r3, #4
 1451 037a 85F82230 		strb	r3, [r5, #34]
 734:Drivers/lvgl/lvgl/src/widgets/lv_btnmatrix.c ****             lv_draw_label_dsc_init(&draw_label_dsc_act);
 1452              		.loc 1 734 0
 1453 037e 3CA8     		add	r0, sp, #240
ARM GAS  /tmp/ccpV5owi.s 			page 52


 1454 0380 FFF7FEFF 		bl	lv_draw_rect_dsc_init
 1455              	.LVL163:
 735:Drivers/lvgl/lvgl/src/widgets/lv_btnmatrix.c ****             lv_obj_init_draw_rect_dsc(obj, LV_PART_ITEMS, &draw_rect_dsc_act);
 1456              		.loc 1 735 0
 1457 0384 34A8     		add	r0, sp, #208
 1458 0386 FFF7FEFF 		bl	lv_draw_label_dsc_init
 1459              	.LVL164:
 736:Drivers/lvgl/lvgl/src/widgets/lv_btnmatrix.c ****             lv_obj_init_draw_label_dsc(obj, LV_PART_ITEMS, &draw_label_dsc_act);
 1460              		.loc 1 736 0
 1461 038a 3CAA     		add	r2, sp, #240
 1462 038c 4FF4A021 		mov	r1, #327680
 1463 0390 2846     		mov	r0, r5
 1464 0392 FFF7FEFF 		bl	lv_obj_init_draw_rect_dsc
 1465              	.LVL165:
 737:Drivers/lvgl/lvgl/src/widgets/lv_btnmatrix.c ****             obj->state = state_ori;
 1466              		.loc 1 737 0
 1467 0396 34AA     		add	r2, sp, #208
 1468 0398 4FF4A021 		mov	r1, #327680
 1469 039c 2846     		mov	r0, r5
 1470 039e FFF7FEFF 		bl	lv_obj_init_draw_label_dsc
 1471              	.LVL166:
 738:Drivers/lvgl/lvgl/src/widgets/lv_btnmatrix.c ****             obj->skip_trans = 0;
 1472              		.loc 1 738 0
 1473 03a2 BDF81430 		ldrh	r3, [sp, #20]
 1474 03a6 2B84     		strh	r3, [r5, #32]	@ movhi
 739:Drivers/lvgl/lvgl/src/widgets/lv_btnmatrix.c ****         }
 1475              		.loc 1 739 0
 1476 03a8 95F82230 		ldrb	r3, [r5, #34]	@ zero_extendqisi2
 1477 03ac 6FF38203 		bfc	r3, #2, #1
 1478 03b0 85F82230 		strb	r3, [r5, #34]
 1479 03b4 DEE6     		b	.L71
 1480              	.LVL167:
 1481              	.L72:
 744:Drivers/lvgl/lvgl/src/widgets/lv_btnmatrix.c **** 
 1482              		.loc 1 744 0
 1483 03b6 9DF8ED30 		ldrb	r3, [sp, #237]	@ zero_extendqisi2
 1484 03ba 23F00103 		bic	r3, r3, #1
 1485 03be 8DF8ED30 		strb	r3, [sp, #237]
 1486 03c2 E5E6     		b	.L73
 1487              	.LVL168:
 1488              	.L89:
 754:Drivers/lvgl/lvgl/src/widgets/lv_btnmatrix.c ****             if(btn_area.x2 == obj->coords.x2 - pright) draw_rect_dsc_act.border_side &= ~LV_BORDER_
 1489              		.loc 1 754 0 discriminator 1
 1490 03c4 9DF81331 		ldrb	r3, [sp, #275]	@ zero_extendqisi2
 1491 03c8 0B22     		movs	r2, #11
 1492 03ca 62F34503 		bfi	r3, r2, #1, #5
 1493 03ce 8DF81331 		strb	r3, [sp, #275]
 1494 03d2 FBE6     		b	.L75
 1495              	.L90:
 755:Drivers/lvgl/lvgl/src/widgets/lv_btnmatrix.c ****             if(btn_area.y1 == obj->coords.y1 + ptop) draw_rect_dsc_act.border_side &= ~LV_BORDER_SI
 1496              		.loc 1 755 0 discriminator 1
 1497 03d4 9DF81331 		ldrb	r3, [sp, #275]	@ zero_extendqisi2
 1498 03d8 C3F34402 		ubfx	r2, r3, #1, #5
 1499 03dc 02F01702 		and	r2, r2, #23
 1500 03e0 62F34503 		bfi	r3, r2, #1, #5
 1501 03e4 8DF81331 		strb	r3, [sp, #275]
 1502 03e8 F9E6     		b	.L76
ARM GAS  /tmp/ccpV5owi.s 			page 53


 1503              	.L91:
 756:Drivers/lvgl/lvgl/src/widgets/lv_btnmatrix.c ****             if(btn_area.y2 == obj->coords.y2 - pbottom) draw_rect_dsc_act.border_side &= ~LV_BORDER
 1504              		.loc 1 756 0 discriminator 1
 1505 03ea 9DF81331 		ldrb	r3, [sp, #275]	@ zero_extendqisi2
 1506 03ee C3F34402 		ubfx	r2, r3, #1, #5
 1507 03f2 02F01D02 		and	r2, r2, #29
 1508 03f6 62F34503 		bfi	r3, r2, #1, #5
 1509 03fa 8DF81331 		strb	r3, [sp, #275]
 1510 03fe F7E6     		b	.L77
 1511              	.L97:
 1512              		.align	2
 1513              	.L96:
 1514 0400 00000000 		.word	.LANCHOR0
 1515 0404 00000000 		.word	.LC0
 1516              	.L92:
 757:Drivers/lvgl/lvgl/src/widgets/lv_btnmatrix.c ****         }
 1517              		.loc 1 757 0 discriminator 1
 1518 0408 9DF81331 		ldrb	r3, [sp, #275]	@ zero_extendqisi2
 1519 040c C3F34402 		ubfx	r2, r3, #1, #5
 1520 0410 02F01E02 		and	r2, r2, #30
 1521 0414 62F34503 		bfi	r3, r2, #1, #5
 1522 0418 8DF81331 		strb	r3, [sp, #275]
 1523 041c F1E6     		b	.L74
 1524              	.LVL169:
 1525              	.L93:
 788:Drivers/lvgl/lvgl/src/widgets/lv_btnmatrix.c ****         btn_area.y1 += (lv_area_get_height(&btn_area) - txt_size.y) / 2;
 1526              		.loc 1 788 0
 1527 041e 0133     		adds	r3, r3, #1
 1528 0420 2FE7     		b	.L79
 1529              	.L94:
 789:Drivers/lvgl/lvgl/src/widgets/lv_btnmatrix.c ****         btn_area.x2 = btn_area.x1 + txt_size.x;
 1530              		.loc 1 789 0
 1531 0422 0133     		adds	r3, r3, #1
 1532 0424 40E7     		b	.L80
 1533              	.L95:
 795:Drivers/lvgl/lvgl/src/widgets/lv_btnmatrix.c ****             btn_area.y2 -= btn_height / 2;
 1534              		.loc 1 795 0
 1535 0426 09F10102 		add	r2, r9, #1
 1536 042a 5AE7     		b	.L82
 1537              	.LBE120:
 1538              		.cfi_endproc
 1539              	.LFE177:
 1541              		.section	.text.lv_btnmatrix_destructor,"ax",%progbits
 1542              		.align	1
 1543              		.syntax unified
 1544              		.thumb
 1545              		.thumb_func
 1546              		.fpu fpv5-d16
 1548              	lv_btnmatrix_destructor:
 1549              	.LFB175:
 375:Drivers/lvgl/lvgl/src/widgets/lv_btnmatrix.c ****     LV_TRACE_OBJ_CREATE("begin");
 1550              		.loc 1 375 0
 1551              		.cfi_startproc
 1552              		@ args = 0, pretend = 0, frame = 0
 1553              		@ frame_needed = 0, uses_anonymous_args = 0
 1554              	.LVL170:
 1555 0000 10B5     		push	{r4, lr}
ARM GAS  /tmp/ccpV5owi.s 			page 54


 1556              	.LCFI15:
 1557              		.cfi_def_cfa_offset 8
 1558              		.cfi_offset 4, -8
 1559              		.cfi_offset 14, -4
 1560 0002 0C46     		mov	r4, r1
 1561              	.LVL171:
 379:Drivers/lvgl/lvgl/src/widgets/lv_btnmatrix.c ****     lv_mem_free(btnm->ctrl_bits);
 1562              		.loc 1 379 0
 1563 0004 886A     		ldr	r0, [r1, #40]
 1564              	.LVL172:
 1565 0006 FFF7FEFF 		bl	lv_mem_free
 1566              	.LVL173:
 380:Drivers/lvgl/lvgl/src/widgets/lv_btnmatrix.c ****     btnm->button_areas = NULL;
 1567              		.loc 1 380 0
 1568 000a E06A     		ldr	r0, [r4, #44]
 1569 000c FFF7FEFF 		bl	lv_mem_free
 1570              	.LVL174:
 381:Drivers/lvgl/lvgl/src/widgets/lv_btnmatrix.c ****     btnm->ctrl_bits = NULL;
 1571              		.loc 1 381 0
 1572 0010 0023     		movs	r3, #0
 1573 0012 A362     		str	r3, [r4, #40]
 382:Drivers/lvgl/lvgl/src/widgets/lv_btnmatrix.c ****     LV_TRACE_OBJ_CREATE("finished");
 1574              		.loc 1 382 0
 1575 0014 E362     		str	r3, [r4, #44]
 384:Drivers/lvgl/lvgl/src/widgets/lv_btnmatrix.c **** 
 1576              		.loc 1 384 0
 1577 0016 10BD     		pop	{r4, pc}
 1578              		.cfi_endproc
 1579              	.LFE175:
 1581              		.section	.text.allocate_btn_areas_and_controls,"ax",%progbits
 1582              		.align	1
 1583              		.syntax unified
 1584              		.thumb
 1585              		.thumb_func
 1586              		.fpu fpv5-d16
 1588              	allocate_btn_areas_and_controls:
 1589              	.LFB178:
 816:Drivers/lvgl/lvgl/src/widgets/lv_btnmatrix.c ****     lv_btnmatrix_t * btnm = (lv_btnmatrix_t *)obj;
 1590              		.loc 1 816 0
 1591              		.cfi_startproc
 1592              		@ args = 0, pretend = 0, frame = 0
 1593              		@ frame_needed = 0, uses_anonymous_args = 0
 1594              	.LVL175:
 1595 0000 F8B5     		push	{r3, r4, r5, r6, r7, lr}
 1596              	.LCFI16:
 1597              		.cfi_def_cfa_offset 24
 1598              		.cfi_offset 3, -24
 1599              		.cfi_offset 4, -20
 1600              		.cfi_offset 5, -16
 1601              		.cfi_offset 6, -12
 1602              		.cfi_offset 7, -8
 1603              		.cfi_offset 14, -4
 1604 0002 0446     		mov	r4, r0
 1605 0004 0F46     		mov	r7, r1
 1606              	.LVL176:
 818:Drivers/lvgl/lvgl/src/widgets/lv_btnmatrix.c ****     /*Count the buttons in the map*/
 1607              		.loc 1 818 0
ARM GAS  /tmp/ccpV5owi.s 			page 55


 1608 0006 0123     		movs	r3, #1
 1609 0008 4386     		strh	r3, [r0, #50]	@ movhi
 1610              	.LVL177:
 821:Drivers/lvgl/lvgl/src/widgets/lv_btnmatrix.c ****     while(map[i] && map[i][0] != '\0') {
 1611              		.loc 1 821 0
 1612 000a 0026     		movs	r6, #0
 820:Drivers/lvgl/lvgl/src/widgets/lv_btnmatrix.c ****     uint16_t i       = 0;
 1613              		.loc 1 820 0
 1614 000c 3546     		mov	r5, r6
 822:Drivers/lvgl/lvgl/src/widgets/lv_btnmatrix.c ****         if(strcmp(map[i], "\n") != 0) { /*Do not count line breaks*/
 1615              		.loc 1 822 0
 1616 000e 04E0     		b	.L101
 1617              	.LVL178:
 1618              	.L102:
 827:Drivers/lvgl/lvgl/src/widgets/lv_btnmatrix.c ****         }
 1619              		.loc 1 827 0
 1620 0010 638E     		ldrh	r3, [r4, #50]
 1621 0012 0133     		adds	r3, r3, #1
 1622 0014 6386     		strh	r3, [r4, #50]	@ movhi
 1623              	.L103:
 829:Drivers/lvgl/lvgl/src/widgets/lv_btnmatrix.c ****     }
 1624              		.loc 1 829 0
 1625 0016 0136     		adds	r6, r6, #1
 1626              	.LVL179:
 1627 0018 B6B2     		uxth	r6, r6
 1628              	.LVL180:
 1629              	.L101:
 822:Drivers/lvgl/lvgl/src/widgets/lv_btnmatrix.c ****         if(strcmp(map[i], "\n") != 0) { /*Do not count line breaks*/
 1630              		.loc 1 822 0
 1631 001a 57F82600 		ldr	r0, [r7, r6, lsl #2]
 1632 001e 48B1     		cbz	r0, .L104
 822:Drivers/lvgl/lvgl/src/widgets/lv_btnmatrix.c ****         if(strcmp(map[i], "\n") != 0) { /*Do not count line breaks*/
 1633              		.loc 1 822 0 is_stmt 0 discriminator 1
 1634 0020 0378     		ldrb	r3, [r0]	@ zero_extendqisi2
 1635 0022 3BB1     		cbz	r3, .L104
 823:Drivers/lvgl/lvgl/src/widgets/lv_btnmatrix.c ****             btn_cnt++;
 1636              		.loc 1 823 0 is_stmt 1
 1637 0024 1549     		ldr	r1, .L117
 1638 0026 FFF7FEFF 		bl	strcmp
 1639              	.LVL181:
 1640 002a 0028     		cmp	r0, #0
 1641 002c F0D0     		beq	.L102
 824:Drivers/lvgl/lvgl/src/widgets/lv_btnmatrix.c ****         }
 1642              		.loc 1 824 0
 1643 002e 0135     		adds	r5, r5, #1
 1644              	.LVL182:
 1645 0030 ADB2     		uxth	r5, r5
 1646              	.LVL183:
 1647 0032 F0E7     		b	.L103
 1648              	.L104:
 833:Drivers/lvgl/lvgl/src/widgets/lv_btnmatrix.c **** 
 1649              		.loc 1 833 0
 1650 0034 238E     		ldrh	r3, [r4, #48]
 1651 0036 AB42     		cmp	r3, r5
 1652 0038 1CD0     		beq	.L100
 835:Drivers/lvgl/lvgl/src/widgets/lv_btnmatrix.c ****         lv_mem_free(btnm->button_areas);
 1653              		.loc 1 835 0
ARM GAS  /tmp/ccpV5owi.s 			page 56


 1654 003a A06A     		ldr	r0, [r4, #40]
 1655 003c 18B1     		cbz	r0, .L107
 836:Drivers/lvgl/lvgl/src/widgets/lv_btnmatrix.c ****         btnm->button_areas = NULL;
 1656              		.loc 1 836 0
 1657 003e FFF7FEFF 		bl	lv_mem_free
 1658              	.LVL184:
 837:Drivers/lvgl/lvgl/src/widgets/lv_btnmatrix.c ****     }
 1659              		.loc 1 837 0
 1660 0042 0023     		movs	r3, #0
 1661 0044 A362     		str	r3, [r4, #40]
 1662              	.L107:
 839:Drivers/lvgl/lvgl/src/widgets/lv_btnmatrix.c ****         lv_mem_free(btnm->ctrl_bits);
 1663              		.loc 1 839 0
 1664 0046 E06A     		ldr	r0, [r4, #44]
 1665 0048 18B1     		cbz	r0, .L108
 840:Drivers/lvgl/lvgl/src/widgets/lv_btnmatrix.c ****         btnm->ctrl_bits = NULL;
 1666              		.loc 1 840 0
 1667 004a FFF7FEFF 		bl	lv_mem_free
 1668              	.LVL185:
 841:Drivers/lvgl/lvgl/src/widgets/lv_btnmatrix.c ****     }
 1669              		.loc 1 841 0
 1670 004e 0023     		movs	r3, #0
 1671 0050 E362     		str	r3, [r4, #44]
 1672              	.L108:
 844:Drivers/lvgl/lvgl/src/widgets/lv_btnmatrix.c ****     LV_ASSERT_MALLOC(btnm->button_areas);
 1673              		.loc 1 844 0
 1674 0052 E800     		lsls	r0, r5, #3
 1675 0054 FFF7FEFF 		bl	lv_mem_alloc
 1676              	.LVL186:
 1677 0058 A062     		str	r0, [r4, #40]
 845:Drivers/lvgl/lvgl/src/widgets/lv_btnmatrix.c ****     btnm->ctrl_bits = lv_mem_alloc(sizeof(lv_btnmatrix_ctrl_t) * btn_cnt);
 1678              		.loc 1 845 0
 1679 005a 00B9     		cbnz	r0, .L109
 1680              	.L110:
 1681 005c FEE7     		b	.L110
 1682              	.L109:
 846:Drivers/lvgl/lvgl/src/widgets/lv_btnmatrix.c ****     LV_ASSERT_MALLOC(btnm->ctrl_bits);
 1683              		.loc 1 846 0
 1684 005e 6800     		lsls	r0, r5, #1
 1685 0060 FFF7FEFF 		bl	lv_mem_alloc
 1686              	.LVL187:
 1687 0064 E062     		str	r0, [r4, #44]
 847:Drivers/lvgl/lvgl/src/widgets/lv_btnmatrix.c ****     if(btnm->button_areas == NULL || btnm->ctrl_bits == NULL) btn_cnt = 0;
 1688              		.loc 1 847 0
 1689 0066 30B1     		cbz	r0, .L112
 848:Drivers/lvgl/lvgl/src/widgets/lv_btnmatrix.c **** 
 1690              		.loc 1 848 0
 1691 0068 A36A     		ldr	r3, [r4, #40]
 1692 006a 2BB1     		cbz	r3, .L116
 1693              	.LVL188:
 1694              	.L113:
 850:Drivers/lvgl/lvgl/src/widgets/lv_btnmatrix.c **** 
 1695              		.loc 1 850 0
 1696 006c 6900     		lsls	r1, r5, #1
 1697 006e FFF7FEFF 		bl	lv_memset_00
 1698              	.LVL189:
 852:Drivers/lvgl/lvgl/src/widgets/lv_btnmatrix.c **** }
ARM GAS  /tmp/ccpV5owi.s 			page 57


 1699              		.loc 1 852 0
 1700 0072 2586     		strh	r5, [r4, #48]	@ movhi
 1701              	.L100:
 853:Drivers/lvgl/lvgl/src/widgets/lv_btnmatrix.c **** 
 1702              		.loc 1 853 0
 1703 0074 F8BD     		pop	{r3, r4, r5, r6, r7, pc}
 1704              	.LVL190:
 1705              	.L112:
 1706 0076 FEE7     		b	.L112
 1707              	.L116:
 848:Drivers/lvgl/lvgl/src/widgets/lv_btnmatrix.c **** 
 1708              		.loc 1 848 0
 1709 0078 0025     		movs	r5, #0
 1710              	.LVL191:
 1711 007a F7E7     		b	.L113
 1712              	.L118:
 1713              		.align	2
 1714              	.L117:
 1715 007c 00000000 		.word	.LC0
 1716              		.cfi_endproc
 1717              	.LFE178:
 1719              		.section	.text.lv_btnmatrix_create,"ax",%progbits
 1720              		.align	1
 1721              		.global	lv_btnmatrix_create
 1722              		.syntax unified
 1723              		.thumb
 1724              		.thumb_func
 1725              		.fpu fpv5-d16
 1727              	lv_btnmatrix_create:
 1728              	.LFB159:
  82:Drivers/lvgl/lvgl/src/widgets/lv_btnmatrix.c ****     LV_LOG_INFO("begin");
 1729              		.loc 1 82 0
 1730              		.cfi_startproc
 1731              		@ args = 0, pretend = 0, frame = 0
 1732              		@ frame_needed = 0, uses_anonymous_args = 0
 1733              	.LVL192:
 1734 0000 10B5     		push	{r4, lr}
 1735              	.LCFI17:
 1736              		.cfi_def_cfa_offset 8
 1737              		.cfi_offset 4, -8
 1738              		.cfi_offset 14, -4
  84:Drivers/lvgl/lvgl/src/widgets/lv_btnmatrix.c ****     lv_obj_class_init_obj(obj);
 1739              		.loc 1 84 0
 1740 0002 0146     		mov	r1, r0
 1741 0004 0348     		ldr	r0, .L121
 1742              	.LVL193:
 1743 0006 FFF7FEFF 		bl	lv_obj_class_create_obj
 1744              	.LVL194:
 1745 000a 0446     		mov	r4, r0
 1746              	.LVL195:
  85:Drivers/lvgl/lvgl/src/widgets/lv_btnmatrix.c ****     return obj;
 1747              		.loc 1 85 0
 1748 000c FFF7FEFF 		bl	lv_obj_class_init_obj
 1749              	.LVL196:
  87:Drivers/lvgl/lvgl/src/widgets/lv_btnmatrix.c **** 
 1750              		.loc 1 87 0
 1751 0010 2046     		mov	r0, r4
ARM GAS  /tmp/ccpV5owi.s 			page 58


 1752 0012 10BD     		pop	{r4, pc}
 1753              	.LVL197:
 1754              	.L122:
 1755              		.align	2
 1756              	.L121:
 1757 0014 00000000 		.word	.LANCHOR0
 1758              		.cfi_endproc
 1759              	.LFE159:
 1761              		.section	.text.lv_btnmatrix_set_map,"ax",%progbits
 1762              		.align	1
 1763              		.global	lv_btnmatrix_set_map
 1764              		.syntax unified
 1765              		.thumb
 1766              		.thumb_func
 1767              		.fpu fpv5-d16
 1769              	lv_btnmatrix_set_map:
 1770              	.LFB160:
  94:Drivers/lvgl/lvgl/src/widgets/lv_btnmatrix.c ****     LV_ASSERT_OBJ(obj, MY_CLASS);
 1771              		.loc 1 94 0
 1772              		.cfi_startproc
 1773              		@ args = 0, pretend = 0, frame = 56
 1774              		@ frame_needed = 0, uses_anonymous_args = 0
 1775              	.LVL198:
  96:Drivers/lvgl/lvgl/src/widgets/lv_btnmatrix.c **** 
 1776              		.loc 1 96 0
 1777 0000 0029     		cmp	r1, #0
 1778 0002 00F0E480 		beq	.L138
  94:Drivers/lvgl/lvgl/src/widgets/lv_btnmatrix.c ****     LV_ASSERT_OBJ(obj, MY_CLASS);
 1779              		.loc 1 94 0
 1780 0006 2DE9F04F 		push	{r4, r5, r6, r7, r8, r9, r10, fp, lr}
 1781              	.LCFI18:
 1782              		.cfi_def_cfa_offset 36
 1783              		.cfi_offset 4, -36
 1784              		.cfi_offset 5, -32
 1785              		.cfi_offset 6, -28
 1786              		.cfi_offset 7, -24
 1787              		.cfi_offset 8, -20
 1788              		.cfi_offset 9, -16
 1789              		.cfi_offset 10, -12
 1790              		.cfi_offset 11, -8
 1791              		.cfi_offset 14, -4
 1792 000a 91B0     		sub	sp, sp, #68
 1793              	.LCFI19:
 1794              		.cfi_def_cfa_offset 104
 1795 000c 8346     		mov	fp, r0
 1796 000e 0D46     		mov	r5, r1
 1797              	.LVL199:
 101:Drivers/lvgl/lvgl/src/widgets/lv_btnmatrix.c ****     btnm->map_p = map;
 1798              		.loc 1 101 0
 1799 0010 FFF7FEFF 		bl	allocate_btn_areas_and_controls
 1800              	.LVL200:
 102:Drivers/lvgl/lvgl/src/widgets/lv_btnmatrix.c **** 
 1801              		.loc 1 102 0
 1802 0014 CBF82450 		str	r5, [fp, #36]
 1803              	.LVL201:
 1804              	.LBB121:
 1805              	.LBB122:
ARM GAS  /tmp/ccpV5owi.s 			page 59


 137:Drivers/lvgl/lvgl/src/widgets/../core/lv_obj_style_gen.h **** }
 138:Drivers/lvgl/lvgl/src/widgets/../core/lv_obj_style_gen.h **** 
 139:Drivers/lvgl/lvgl/src/widgets/../core/lv_obj_style_gen.h **** static inline lv_color_t lv_obj_get_style_bg_color(const struct _lv_obj_t * obj, uint32_t part)
 140:Drivers/lvgl/lvgl/src/widgets/../core/lv_obj_style_gen.h **** {
 141:Drivers/lvgl/lvgl/src/widgets/../core/lv_obj_style_gen.h ****     lv_style_value_t v = lv_obj_get_style_prop(obj, part, LV_STYLE_BG_COLOR);
 142:Drivers/lvgl/lvgl/src/widgets/../core/lv_obj_style_gen.h ****     return v.color;
 143:Drivers/lvgl/lvgl/src/widgets/../core/lv_obj_style_gen.h **** }
 144:Drivers/lvgl/lvgl/src/widgets/../core/lv_obj_style_gen.h **** 
 145:Drivers/lvgl/lvgl/src/widgets/../core/lv_obj_style_gen.h **** static inline lv_color_t lv_obj_get_style_bg_color_filtered(const struct _lv_obj_t * obj, uint32_t 
 146:Drivers/lvgl/lvgl/src/widgets/../core/lv_obj_style_gen.h **** {
 147:Drivers/lvgl/lvgl/src/widgets/../core/lv_obj_style_gen.h ****     lv_style_value_t v = _lv_obj_style_apply_color_filter(obj, part, lv_obj_get_style_prop(obj, par
 148:Drivers/lvgl/lvgl/src/widgets/../core/lv_obj_style_gen.h ****     return v.color;
 149:Drivers/lvgl/lvgl/src/widgets/../core/lv_obj_style_gen.h **** }
 150:Drivers/lvgl/lvgl/src/widgets/../core/lv_obj_style_gen.h **** 
 151:Drivers/lvgl/lvgl/src/widgets/../core/lv_obj_style_gen.h **** static inline lv_opa_t lv_obj_get_style_bg_opa(const struct _lv_obj_t * obj, uint32_t part)
 152:Drivers/lvgl/lvgl/src/widgets/../core/lv_obj_style_gen.h **** {
 153:Drivers/lvgl/lvgl/src/widgets/../core/lv_obj_style_gen.h ****     lv_style_value_t v = lv_obj_get_style_prop(obj, part, LV_STYLE_BG_OPA);
 154:Drivers/lvgl/lvgl/src/widgets/../core/lv_obj_style_gen.h ****     return (lv_opa_t)v.num;
 155:Drivers/lvgl/lvgl/src/widgets/../core/lv_obj_style_gen.h **** }
 156:Drivers/lvgl/lvgl/src/widgets/../core/lv_obj_style_gen.h **** 
 157:Drivers/lvgl/lvgl/src/widgets/../core/lv_obj_style_gen.h **** static inline lv_color_t lv_obj_get_style_bg_grad_color(const struct _lv_obj_t * obj, uint32_t part
 158:Drivers/lvgl/lvgl/src/widgets/../core/lv_obj_style_gen.h **** {
 159:Drivers/lvgl/lvgl/src/widgets/../core/lv_obj_style_gen.h ****     lv_style_value_t v = lv_obj_get_style_prop(obj, part, LV_STYLE_BG_GRAD_COLOR);
 160:Drivers/lvgl/lvgl/src/widgets/../core/lv_obj_style_gen.h ****     return v.color;
 161:Drivers/lvgl/lvgl/src/widgets/../core/lv_obj_style_gen.h **** }
 162:Drivers/lvgl/lvgl/src/widgets/../core/lv_obj_style_gen.h **** 
 163:Drivers/lvgl/lvgl/src/widgets/../core/lv_obj_style_gen.h **** static inline lv_color_t lv_obj_get_style_bg_grad_color_filtered(const struct _lv_obj_t * obj, uint
 164:Drivers/lvgl/lvgl/src/widgets/../core/lv_obj_style_gen.h **** {
 165:Drivers/lvgl/lvgl/src/widgets/../core/lv_obj_style_gen.h ****     lv_style_value_t v = _lv_obj_style_apply_color_filter(obj, part, lv_obj_get_style_prop(obj, par
 166:Drivers/lvgl/lvgl/src/widgets/../core/lv_obj_style_gen.h ****     return v.color;
 167:Drivers/lvgl/lvgl/src/widgets/../core/lv_obj_style_gen.h **** }
 168:Drivers/lvgl/lvgl/src/widgets/../core/lv_obj_style_gen.h **** 
 169:Drivers/lvgl/lvgl/src/widgets/../core/lv_obj_style_gen.h **** static inline lv_grad_dir_t lv_obj_get_style_bg_grad_dir(const struct _lv_obj_t * obj, uint32_t par
 170:Drivers/lvgl/lvgl/src/widgets/../core/lv_obj_style_gen.h **** {
 171:Drivers/lvgl/lvgl/src/widgets/../core/lv_obj_style_gen.h ****     lv_style_value_t v = lv_obj_get_style_prop(obj, part, LV_STYLE_BG_GRAD_DIR);
 172:Drivers/lvgl/lvgl/src/widgets/../core/lv_obj_style_gen.h ****     return (lv_grad_dir_t)v.num;
 173:Drivers/lvgl/lvgl/src/widgets/../core/lv_obj_style_gen.h **** }
 174:Drivers/lvgl/lvgl/src/widgets/../core/lv_obj_style_gen.h **** 
 175:Drivers/lvgl/lvgl/src/widgets/../core/lv_obj_style_gen.h **** static inline lv_coord_t lv_obj_get_style_bg_main_stop(const struct _lv_obj_t * obj, uint32_t part)
 176:Drivers/lvgl/lvgl/src/widgets/../core/lv_obj_style_gen.h **** {
 177:Drivers/lvgl/lvgl/src/widgets/../core/lv_obj_style_gen.h ****     lv_style_value_t v = lv_obj_get_style_prop(obj, part, LV_STYLE_BG_MAIN_STOP);
 178:Drivers/lvgl/lvgl/src/widgets/../core/lv_obj_style_gen.h ****     return (lv_coord_t)v.num;
 179:Drivers/lvgl/lvgl/src/widgets/../core/lv_obj_style_gen.h **** }
 180:Drivers/lvgl/lvgl/src/widgets/../core/lv_obj_style_gen.h **** 
 181:Drivers/lvgl/lvgl/src/widgets/../core/lv_obj_style_gen.h **** static inline lv_coord_t lv_obj_get_style_bg_grad_stop(const struct _lv_obj_t * obj, uint32_t part)
 182:Drivers/lvgl/lvgl/src/widgets/../core/lv_obj_style_gen.h **** {
 183:Drivers/lvgl/lvgl/src/widgets/../core/lv_obj_style_gen.h ****     lv_style_value_t v = lv_obj_get_style_prop(obj, part, LV_STYLE_BG_GRAD_STOP);
 184:Drivers/lvgl/lvgl/src/widgets/../core/lv_obj_style_gen.h ****     return (lv_coord_t)v.num;
 185:Drivers/lvgl/lvgl/src/widgets/../core/lv_obj_style_gen.h **** }
 186:Drivers/lvgl/lvgl/src/widgets/../core/lv_obj_style_gen.h **** 
 187:Drivers/lvgl/lvgl/src/widgets/../core/lv_obj_style_gen.h **** static inline const lv_grad_dsc_t * lv_obj_get_style_bg_grad(const struct _lv_obj_t * obj, uint32_t
 188:Drivers/lvgl/lvgl/src/widgets/../core/lv_obj_style_gen.h **** {
 189:Drivers/lvgl/lvgl/src/widgets/../core/lv_obj_style_gen.h ****     lv_style_value_t v = lv_obj_get_style_prop(obj, part, LV_STYLE_BG_GRAD);
 190:Drivers/lvgl/lvgl/src/widgets/../core/lv_obj_style_gen.h ****     return (const lv_grad_dsc_t *)v.ptr;
 191:Drivers/lvgl/lvgl/src/widgets/../core/lv_obj_style_gen.h **** }
 192:Drivers/lvgl/lvgl/src/widgets/../core/lv_obj_style_gen.h **** 
 193:Drivers/lvgl/lvgl/src/widgets/../core/lv_obj_style_gen.h **** static inline lv_dither_mode_t lv_obj_get_style_bg_dither_mode(const struct _lv_obj_t * obj, uint32
ARM GAS  /tmp/ccpV5owi.s 			page 60


 194:Drivers/lvgl/lvgl/src/widgets/../core/lv_obj_style_gen.h **** {
 195:Drivers/lvgl/lvgl/src/widgets/../core/lv_obj_style_gen.h ****     lv_style_value_t v = lv_obj_get_style_prop(obj, part, LV_STYLE_BG_DITHER_MODE);
 196:Drivers/lvgl/lvgl/src/widgets/../core/lv_obj_style_gen.h ****     return (lv_dither_mode_t)v.num;
 197:Drivers/lvgl/lvgl/src/widgets/../core/lv_obj_style_gen.h **** }
 198:Drivers/lvgl/lvgl/src/widgets/../core/lv_obj_style_gen.h **** 
 199:Drivers/lvgl/lvgl/src/widgets/../core/lv_obj_style_gen.h **** static inline const void * lv_obj_get_style_bg_img_src(const struct _lv_obj_t * obj, uint32_t part)
 200:Drivers/lvgl/lvgl/src/widgets/../core/lv_obj_style_gen.h **** {
 201:Drivers/lvgl/lvgl/src/widgets/../core/lv_obj_style_gen.h ****     lv_style_value_t v = lv_obj_get_style_prop(obj, part, LV_STYLE_BG_IMG_SRC);
 202:Drivers/lvgl/lvgl/src/widgets/../core/lv_obj_style_gen.h ****     return (const void *)v.ptr;
 203:Drivers/lvgl/lvgl/src/widgets/../core/lv_obj_style_gen.h **** }
 204:Drivers/lvgl/lvgl/src/widgets/../core/lv_obj_style_gen.h **** 
 205:Drivers/lvgl/lvgl/src/widgets/../core/lv_obj_style_gen.h **** static inline lv_opa_t lv_obj_get_style_bg_img_opa(const struct _lv_obj_t * obj, uint32_t part)
 206:Drivers/lvgl/lvgl/src/widgets/../core/lv_obj_style_gen.h **** {
 207:Drivers/lvgl/lvgl/src/widgets/../core/lv_obj_style_gen.h ****     lv_style_value_t v = lv_obj_get_style_prop(obj, part, LV_STYLE_BG_IMG_OPA);
 208:Drivers/lvgl/lvgl/src/widgets/../core/lv_obj_style_gen.h ****     return (lv_opa_t)v.num;
 209:Drivers/lvgl/lvgl/src/widgets/../core/lv_obj_style_gen.h **** }
 210:Drivers/lvgl/lvgl/src/widgets/../core/lv_obj_style_gen.h **** 
 211:Drivers/lvgl/lvgl/src/widgets/../core/lv_obj_style_gen.h **** static inline lv_color_t lv_obj_get_style_bg_img_recolor(const struct _lv_obj_t * obj, uint32_t par
 212:Drivers/lvgl/lvgl/src/widgets/../core/lv_obj_style_gen.h **** {
 213:Drivers/lvgl/lvgl/src/widgets/../core/lv_obj_style_gen.h ****     lv_style_value_t v = lv_obj_get_style_prop(obj, part, LV_STYLE_BG_IMG_RECOLOR);
 214:Drivers/lvgl/lvgl/src/widgets/../core/lv_obj_style_gen.h ****     return v.color;
 215:Drivers/lvgl/lvgl/src/widgets/../core/lv_obj_style_gen.h **** }
 216:Drivers/lvgl/lvgl/src/widgets/../core/lv_obj_style_gen.h **** 
 217:Drivers/lvgl/lvgl/src/widgets/../core/lv_obj_style_gen.h **** static inline lv_color_t lv_obj_get_style_bg_img_recolor_filtered(const struct _lv_obj_t * obj, uin
 218:Drivers/lvgl/lvgl/src/widgets/../core/lv_obj_style_gen.h **** {
 219:Drivers/lvgl/lvgl/src/widgets/../core/lv_obj_style_gen.h ****     lv_style_value_t v = _lv_obj_style_apply_color_filter(obj, part, lv_obj_get_style_prop(obj, par
 220:Drivers/lvgl/lvgl/src/widgets/../core/lv_obj_style_gen.h ****     return v.color;
 221:Drivers/lvgl/lvgl/src/widgets/../core/lv_obj_style_gen.h **** }
 222:Drivers/lvgl/lvgl/src/widgets/../core/lv_obj_style_gen.h **** 
 223:Drivers/lvgl/lvgl/src/widgets/../core/lv_obj_style_gen.h **** static inline lv_opa_t lv_obj_get_style_bg_img_recolor_opa(const struct _lv_obj_t * obj, uint32_t p
 224:Drivers/lvgl/lvgl/src/widgets/../core/lv_obj_style_gen.h **** {
 225:Drivers/lvgl/lvgl/src/widgets/../core/lv_obj_style_gen.h ****     lv_style_value_t v = lv_obj_get_style_prop(obj, part, LV_STYLE_BG_IMG_RECOLOR_OPA);
 226:Drivers/lvgl/lvgl/src/widgets/../core/lv_obj_style_gen.h ****     return (lv_opa_t)v.num;
 227:Drivers/lvgl/lvgl/src/widgets/../core/lv_obj_style_gen.h **** }
 228:Drivers/lvgl/lvgl/src/widgets/../core/lv_obj_style_gen.h **** 
 229:Drivers/lvgl/lvgl/src/widgets/../core/lv_obj_style_gen.h **** static inline bool lv_obj_get_style_bg_img_tiled(const struct _lv_obj_t * obj, uint32_t part)
 230:Drivers/lvgl/lvgl/src/widgets/../core/lv_obj_style_gen.h **** {
 231:Drivers/lvgl/lvgl/src/widgets/../core/lv_obj_style_gen.h ****     lv_style_value_t v = lv_obj_get_style_prop(obj, part, LV_STYLE_BG_IMG_TILED);
 232:Drivers/lvgl/lvgl/src/widgets/../core/lv_obj_style_gen.h ****     return (bool)v.num;
 233:Drivers/lvgl/lvgl/src/widgets/../core/lv_obj_style_gen.h **** }
 234:Drivers/lvgl/lvgl/src/widgets/../core/lv_obj_style_gen.h **** 
 235:Drivers/lvgl/lvgl/src/widgets/../core/lv_obj_style_gen.h **** static inline lv_color_t lv_obj_get_style_border_color(const struct _lv_obj_t * obj, uint32_t part)
 236:Drivers/lvgl/lvgl/src/widgets/../core/lv_obj_style_gen.h **** {
 237:Drivers/lvgl/lvgl/src/widgets/../core/lv_obj_style_gen.h ****     lv_style_value_t v = lv_obj_get_style_prop(obj, part, LV_STYLE_BORDER_COLOR);
 238:Drivers/lvgl/lvgl/src/widgets/../core/lv_obj_style_gen.h ****     return v.color;
 239:Drivers/lvgl/lvgl/src/widgets/../core/lv_obj_style_gen.h **** }
 240:Drivers/lvgl/lvgl/src/widgets/../core/lv_obj_style_gen.h **** 
 241:Drivers/lvgl/lvgl/src/widgets/../core/lv_obj_style_gen.h **** static inline lv_color_t lv_obj_get_style_border_color_filtered(const struct _lv_obj_t * obj, uint3
 242:Drivers/lvgl/lvgl/src/widgets/../core/lv_obj_style_gen.h **** {
 243:Drivers/lvgl/lvgl/src/widgets/../core/lv_obj_style_gen.h ****     lv_style_value_t v = _lv_obj_style_apply_color_filter(obj, part, lv_obj_get_style_prop(obj, par
 244:Drivers/lvgl/lvgl/src/widgets/../core/lv_obj_style_gen.h ****     return v.color;
 245:Drivers/lvgl/lvgl/src/widgets/../core/lv_obj_style_gen.h **** }
 246:Drivers/lvgl/lvgl/src/widgets/../core/lv_obj_style_gen.h **** 
 247:Drivers/lvgl/lvgl/src/widgets/../core/lv_obj_style_gen.h **** static inline lv_opa_t lv_obj_get_style_border_opa(const struct _lv_obj_t * obj, uint32_t part)
 248:Drivers/lvgl/lvgl/src/widgets/../core/lv_obj_style_gen.h **** {
 249:Drivers/lvgl/lvgl/src/widgets/../core/lv_obj_style_gen.h ****     lv_style_value_t v = lv_obj_get_style_prop(obj, part, LV_STYLE_BORDER_OPA);
 250:Drivers/lvgl/lvgl/src/widgets/../core/lv_obj_style_gen.h ****     return (lv_opa_t)v.num;
ARM GAS  /tmp/ccpV5owi.s 			page 61


 251:Drivers/lvgl/lvgl/src/widgets/../core/lv_obj_style_gen.h **** }
 252:Drivers/lvgl/lvgl/src/widgets/../core/lv_obj_style_gen.h **** 
 253:Drivers/lvgl/lvgl/src/widgets/../core/lv_obj_style_gen.h **** static inline lv_coord_t lv_obj_get_style_border_width(const struct _lv_obj_t * obj, uint32_t part)
 254:Drivers/lvgl/lvgl/src/widgets/../core/lv_obj_style_gen.h **** {
 255:Drivers/lvgl/lvgl/src/widgets/../core/lv_obj_style_gen.h ****     lv_style_value_t v = lv_obj_get_style_prop(obj, part, LV_STYLE_BORDER_WIDTH);
 256:Drivers/lvgl/lvgl/src/widgets/../core/lv_obj_style_gen.h ****     return (lv_coord_t)v.num;
 257:Drivers/lvgl/lvgl/src/widgets/../core/lv_obj_style_gen.h **** }
 258:Drivers/lvgl/lvgl/src/widgets/../core/lv_obj_style_gen.h **** 
 259:Drivers/lvgl/lvgl/src/widgets/../core/lv_obj_style_gen.h **** static inline lv_border_side_t lv_obj_get_style_border_side(const struct _lv_obj_t * obj, uint32_t 
 260:Drivers/lvgl/lvgl/src/widgets/../core/lv_obj_style_gen.h **** {
 261:Drivers/lvgl/lvgl/src/widgets/../core/lv_obj_style_gen.h ****     lv_style_value_t v = lv_obj_get_style_prop(obj, part, LV_STYLE_BORDER_SIDE);
 262:Drivers/lvgl/lvgl/src/widgets/../core/lv_obj_style_gen.h ****     return (lv_border_side_t)v.num;
 263:Drivers/lvgl/lvgl/src/widgets/../core/lv_obj_style_gen.h **** }
 264:Drivers/lvgl/lvgl/src/widgets/../core/lv_obj_style_gen.h **** 
 265:Drivers/lvgl/lvgl/src/widgets/../core/lv_obj_style_gen.h **** static inline bool lv_obj_get_style_border_post(const struct _lv_obj_t * obj, uint32_t part)
 266:Drivers/lvgl/lvgl/src/widgets/../core/lv_obj_style_gen.h **** {
 267:Drivers/lvgl/lvgl/src/widgets/../core/lv_obj_style_gen.h ****     lv_style_value_t v = lv_obj_get_style_prop(obj, part, LV_STYLE_BORDER_POST);
 268:Drivers/lvgl/lvgl/src/widgets/../core/lv_obj_style_gen.h ****     return (bool)v.num;
 269:Drivers/lvgl/lvgl/src/widgets/../core/lv_obj_style_gen.h **** }
 270:Drivers/lvgl/lvgl/src/widgets/../core/lv_obj_style_gen.h **** 
 271:Drivers/lvgl/lvgl/src/widgets/../core/lv_obj_style_gen.h **** static inline lv_coord_t lv_obj_get_style_outline_width(const struct _lv_obj_t * obj, uint32_t part
 272:Drivers/lvgl/lvgl/src/widgets/../core/lv_obj_style_gen.h **** {
 273:Drivers/lvgl/lvgl/src/widgets/../core/lv_obj_style_gen.h ****     lv_style_value_t v = lv_obj_get_style_prop(obj, part, LV_STYLE_OUTLINE_WIDTH);
 274:Drivers/lvgl/lvgl/src/widgets/../core/lv_obj_style_gen.h ****     return (lv_coord_t)v.num;
 275:Drivers/lvgl/lvgl/src/widgets/../core/lv_obj_style_gen.h **** }
 276:Drivers/lvgl/lvgl/src/widgets/../core/lv_obj_style_gen.h **** 
 277:Drivers/lvgl/lvgl/src/widgets/../core/lv_obj_style_gen.h **** static inline lv_color_t lv_obj_get_style_outline_color(const struct _lv_obj_t * obj, uint32_t part
 278:Drivers/lvgl/lvgl/src/widgets/../core/lv_obj_style_gen.h **** {
 279:Drivers/lvgl/lvgl/src/widgets/../core/lv_obj_style_gen.h ****     lv_style_value_t v = lv_obj_get_style_prop(obj, part, LV_STYLE_OUTLINE_COLOR);
 280:Drivers/lvgl/lvgl/src/widgets/../core/lv_obj_style_gen.h ****     return v.color;
 281:Drivers/lvgl/lvgl/src/widgets/../core/lv_obj_style_gen.h **** }
 282:Drivers/lvgl/lvgl/src/widgets/../core/lv_obj_style_gen.h **** 
 283:Drivers/lvgl/lvgl/src/widgets/../core/lv_obj_style_gen.h **** static inline lv_color_t lv_obj_get_style_outline_color_filtered(const struct _lv_obj_t * obj, uint
 284:Drivers/lvgl/lvgl/src/widgets/../core/lv_obj_style_gen.h **** {
 285:Drivers/lvgl/lvgl/src/widgets/../core/lv_obj_style_gen.h ****     lv_style_value_t v = _lv_obj_style_apply_color_filter(obj, part, lv_obj_get_style_prop(obj, par
 286:Drivers/lvgl/lvgl/src/widgets/../core/lv_obj_style_gen.h ****     return v.color;
 287:Drivers/lvgl/lvgl/src/widgets/../core/lv_obj_style_gen.h **** }
 288:Drivers/lvgl/lvgl/src/widgets/../core/lv_obj_style_gen.h **** 
 289:Drivers/lvgl/lvgl/src/widgets/../core/lv_obj_style_gen.h **** static inline lv_opa_t lv_obj_get_style_outline_opa(const struct _lv_obj_t * obj, uint32_t part)
 290:Drivers/lvgl/lvgl/src/widgets/../core/lv_obj_style_gen.h **** {
 291:Drivers/lvgl/lvgl/src/widgets/../core/lv_obj_style_gen.h ****     lv_style_value_t v = lv_obj_get_style_prop(obj, part, LV_STYLE_OUTLINE_OPA);
 292:Drivers/lvgl/lvgl/src/widgets/../core/lv_obj_style_gen.h ****     return (lv_opa_t)v.num;
 293:Drivers/lvgl/lvgl/src/widgets/../core/lv_obj_style_gen.h **** }
 294:Drivers/lvgl/lvgl/src/widgets/../core/lv_obj_style_gen.h **** 
 295:Drivers/lvgl/lvgl/src/widgets/../core/lv_obj_style_gen.h **** static inline lv_coord_t lv_obj_get_style_outline_pad(const struct _lv_obj_t * obj, uint32_t part)
 296:Drivers/lvgl/lvgl/src/widgets/../core/lv_obj_style_gen.h **** {
 297:Drivers/lvgl/lvgl/src/widgets/../core/lv_obj_style_gen.h ****     lv_style_value_t v = lv_obj_get_style_prop(obj, part, LV_STYLE_OUTLINE_PAD);
 298:Drivers/lvgl/lvgl/src/widgets/../core/lv_obj_style_gen.h ****     return (lv_coord_t)v.num;
 299:Drivers/lvgl/lvgl/src/widgets/../core/lv_obj_style_gen.h **** }
 300:Drivers/lvgl/lvgl/src/widgets/../core/lv_obj_style_gen.h **** 
 301:Drivers/lvgl/lvgl/src/widgets/../core/lv_obj_style_gen.h **** static inline lv_coord_t lv_obj_get_style_shadow_width(const struct _lv_obj_t * obj, uint32_t part)
 302:Drivers/lvgl/lvgl/src/widgets/../core/lv_obj_style_gen.h **** {
 303:Drivers/lvgl/lvgl/src/widgets/../core/lv_obj_style_gen.h ****     lv_style_value_t v = lv_obj_get_style_prop(obj, part, LV_STYLE_SHADOW_WIDTH);
 304:Drivers/lvgl/lvgl/src/widgets/../core/lv_obj_style_gen.h ****     return (lv_coord_t)v.num;
 305:Drivers/lvgl/lvgl/src/widgets/../core/lv_obj_style_gen.h **** }
 306:Drivers/lvgl/lvgl/src/widgets/../core/lv_obj_style_gen.h **** 
 307:Drivers/lvgl/lvgl/src/widgets/../core/lv_obj_style_gen.h **** static inline lv_coord_t lv_obj_get_style_shadow_ofs_x(const struct _lv_obj_t * obj, uint32_t part)
ARM GAS  /tmp/ccpV5owi.s 			page 62


 308:Drivers/lvgl/lvgl/src/widgets/../core/lv_obj_style_gen.h **** {
 309:Drivers/lvgl/lvgl/src/widgets/../core/lv_obj_style_gen.h ****     lv_style_value_t v = lv_obj_get_style_prop(obj, part, LV_STYLE_SHADOW_OFS_X);
 310:Drivers/lvgl/lvgl/src/widgets/../core/lv_obj_style_gen.h ****     return (lv_coord_t)v.num;
 311:Drivers/lvgl/lvgl/src/widgets/../core/lv_obj_style_gen.h **** }
 312:Drivers/lvgl/lvgl/src/widgets/../core/lv_obj_style_gen.h **** 
 313:Drivers/lvgl/lvgl/src/widgets/../core/lv_obj_style_gen.h **** static inline lv_coord_t lv_obj_get_style_shadow_ofs_y(const struct _lv_obj_t * obj, uint32_t part)
 314:Drivers/lvgl/lvgl/src/widgets/../core/lv_obj_style_gen.h **** {
 315:Drivers/lvgl/lvgl/src/widgets/../core/lv_obj_style_gen.h ****     lv_style_value_t v = lv_obj_get_style_prop(obj, part, LV_STYLE_SHADOW_OFS_Y);
 316:Drivers/lvgl/lvgl/src/widgets/../core/lv_obj_style_gen.h ****     return (lv_coord_t)v.num;
 317:Drivers/lvgl/lvgl/src/widgets/../core/lv_obj_style_gen.h **** }
 318:Drivers/lvgl/lvgl/src/widgets/../core/lv_obj_style_gen.h **** 
 319:Drivers/lvgl/lvgl/src/widgets/../core/lv_obj_style_gen.h **** static inline lv_coord_t lv_obj_get_style_shadow_spread(const struct _lv_obj_t * obj, uint32_t part
 320:Drivers/lvgl/lvgl/src/widgets/../core/lv_obj_style_gen.h **** {
 321:Drivers/lvgl/lvgl/src/widgets/../core/lv_obj_style_gen.h ****     lv_style_value_t v = lv_obj_get_style_prop(obj, part, LV_STYLE_SHADOW_SPREAD);
 322:Drivers/lvgl/lvgl/src/widgets/../core/lv_obj_style_gen.h ****     return (lv_coord_t)v.num;
 323:Drivers/lvgl/lvgl/src/widgets/../core/lv_obj_style_gen.h **** }
 324:Drivers/lvgl/lvgl/src/widgets/../core/lv_obj_style_gen.h **** 
 325:Drivers/lvgl/lvgl/src/widgets/../core/lv_obj_style_gen.h **** static inline lv_color_t lv_obj_get_style_shadow_color(const struct _lv_obj_t * obj, uint32_t part)
 326:Drivers/lvgl/lvgl/src/widgets/../core/lv_obj_style_gen.h **** {
 327:Drivers/lvgl/lvgl/src/widgets/../core/lv_obj_style_gen.h ****     lv_style_value_t v = lv_obj_get_style_prop(obj, part, LV_STYLE_SHADOW_COLOR);
 328:Drivers/lvgl/lvgl/src/widgets/../core/lv_obj_style_gen.h ****     return v.color;
 329:Drivers/lvgl/lvgl/src/widgets/../core/lv_obj_style_gen.h **** }
 330:Drivers/lvgl/lvgl/src/widgets/../core/lv_obj_style_gen.h **** 
 331:Drivers/lvgl/lvgl/src/widgets/../core/lv_obj_style_gen.h **** static inline lv_color_t lv_obj_get_style_shadow_color_filtered(const struct _lv_obj_t * obj, uint3
 332:Drivers/lvgl/lvgl/src/widgets/../core/lv_obj_style_gen.h **** {
 333:Drivers/lvgl/lvgl/src/widgets/../core/lv_obj_style_gen.h ****     lv_style_value_t v = _lv_obj_style_apply_color_filter(obj, part, lv_obj_get_style_prop(obj, par
 334:Drivers/lvgl/lvgl/src/widgets/../core/lv_obj_style_gen.h ****     return v.color;
 335:Drivers/lvgl/lvgl/src/widgets/../core/lv_obj_style_gen.h **** }
 336:Drivers/lvgl/lvgl/src/widgets/../core/lv_obj_style_gen.h **** 
 337:Drivers/lvgl/lvgl/src/widgets/../core/lv_obj_style_gen.h **** static inline lv_opa_t lv_obj_get_style_shadow_opa(const struct _lv_obj_t * obj, uint32_t part)
 338:Drivers/lvgl/lvgl/src/widgets/../core/lv_obj_style_gen.h **** {
 339:Drivers/lvgl/lvgl/src/widgets/../core/lv_obj_style_gen.h ****     lv_style_value_t v = lv_obj_get_style_prop(obj, part, LV_STYLE_SHADOW_OPA);
 340:Drivers/lvgl/lvgl/src/widgets/../core/lv_obj_style_gen.h ****     return (lv_opa_t)v.num;
 341:Drivers/lvgl/lvgl/src/widgets/../core/lv_obj_style_gen.h **** }
 342:Drivers/lvgl/lvgl/src/widgets/../core/lv_obj_style_gen.h **** 
 343:Drivers/lvgl/lvgl/src/widgets/../core/lv_obj_style_gen.h **** static inline lv_opa_t lv_obj_get_style_img_opa(const struct _lv_obj_t * obj, uint32_t part)
 344:Drivers/lvgl/lvgl/src/widgets/../core/lv_obj_style_gen.h **** {
 345:Drivers/lvgl/lvgl/src/widgets/../core/lv_obj_style_gen.h ****     lv_style_value_t v = lv_obj_get_style_prop(obj, part, LV_STYLE_IMG_OPA);
 346:Drivers/lvgl/lvgl/src/widgets/../core/lv_obj_style_gen.h ****     return (lv_opa_t)v.num;
 347:Drivers/lvgl/lvgl/src/widgets/../core/lv_obj_style_gen.h **** }
 348:Drivers/lvgl/lvgl/src/widgets/../core/lv_obj_style_gen.h **** 
 349:Drivers/lvgl/lvgl/src/widgets/../core/lv_obj_style_gen.h **** static inline lv_color_t lv_obj_get_style_img_recolor(const struct _lv_obj_t * obj, uint32_t part)
 350:Drivers/lvgl/lvgl/src/widgets/../core/lv_obj_style_gen.h **** {
 351:Drivers/lvgl/lvgl/src/widgets/../core/lv_obj_style_gen.h ****     lv_style_value_t v = lv_obj_get_style_prop(obj, part, LV_STYLE_IMG_RECOLOR);
 352:Drivers/lvgl/lvgl/src/widgets/../core/lv_obj_style_gen.h ****     return v.color;
 353:Drivers/lvgl/lvgl/src/widgets/../core/lv_obj_style_gen.h **** }
 354:Drivers/lvgl/lvgl/src/widgets/../core/lv_obj_style_gen.h **** 
 355:Drivers/lvgl/lvgl/src/widgets/../core/lv_obj_style_gen.h **** static inline lv_color_t lv_obj_get_style_img_recolor_filtered(const struct _lv_obj_t * obj, uint32
 356:Drivers/lvgl/lvgl/src/widgets/../core/lv_obj_style_gen.h **** {
 357:Drivers/lvgl/lvgl/src/widgets/../core/lv_obj_style_gen.h ****     lv_style_value_t v = _lv_obj_style_apply_color_filter(obj, part, lv_obj_get_style_prop(obj, par
 358:Drivers/lvgl/lvgl/src/widgets/../core/lv_obj_style_gen.h ****     return v.color;
 359:Drivers/lvgl/lvgl/src/widgets/../core/lv_obj_style_gen.h **** }
 360:Drivers/lvgl/lvgl/src/widgets/../core/lv_obj_style_gen.h **** 
 361:Drivers/lvgl/lvgl/src/widgets/../core/lv_obj_style_gen.h **** static inline lv_opa_t lv_obj_get_style_img_recolor_opa(const struct _lv_obj_t * obj, uint32_t part
 362:Drivers/lvgl/lvgl/src/widgets/../core/lv_obj_style_gen.h **** {
 363:Drivers/lvgl/lvgl/src/widgets/../core/lv_obj_style_gen.h ****     lv_style_value_t v = lv_obj_get_style_prop(obj, part, LV_STYLE_IMG_RECOLOR_OPA);
 364:Drivers/lvgl/lvgl/src/widgets/../core/lv_obj_style_gen.h ****     return (lv_opa_t)v.num;
ARM GAS  /tmp/ccpV5owi.s 			page 63


 365:Drivers/lvgl/lvgl/src/widgets/../core/lv_obj_style_gen.h **** }
 366:Drivers/lvgl/lvgl/src/widgets/../core/lv_obj_style_gen.h **** 
 367:Drivers/lvgl/lvgl/src/widgets/../core/lv_obj_style_gen.h **** static inline lv_coord_t lv_obj_get_style_line_width(const struct _lv_obj_t * obj, uint32_t part)
 368:Drivers/lvgl/lvgl/src/widgets/../core/lv_obj_style_gen.h **** {
 369:Drivers/lvgl/lvgl/src/widgets/../core/lv_obj_style_gen.h ****     lv_style_value_t v = lv_obj_get_style_prop(obj, part, LV_STYLE_LINE_WIDTH);
 370:Drivers/lvgl/lvgl/src/widgets/../core/lv_obj_style_gen.h ****     return (lv_coord_t)v.num;
 371:Drivers/lvgl/lvgl/src/widgets/../core/lv_obj_style_gen.h **** }
 372:Drivers/lvgl/lvgl/src/widgets/../core/lv_obj_style_gen.h **** 
 373:Drivers/lvgl/lvgl/src/widgets/../core/lv_obj_style_gen.h **** static inline lv_coord_t lv_obj_get_style_line_dash_width(const struct _lv_obj_t * obj, uint32_t pa
 374:Drivers/lvgl/lvgl/src/widgets/../core/lv_obj_style_gen.h **** {
 375:Drivers/lvgl/lvgl/src/widgets/../core/lv_obj_style_gen.h ****     lv_style_value_t v = lv_obj_get_style_prop(obj, part, LV_STYLE_LINE_DASH_WIDTH);
 376:Drivers/lvgl/lvgl/src/widgets/../core/lv_obj_style_gen.h ****     return (lv_coord_t)v.num;
 377:Drivers/lvgl/lvgl/src/widgets/../core/lv_obj_style_gen.h **** }
 378:Drivers/lvgl/lvgl/src/widgets/../core/lv_obj_style_gen.h **** 
 379:Drivers/lvgl/lvgl/src/widgets/../core/lv_obj_style_gen.h **** static inline lv_coord_t lv_obj_get_style_line_dash_gap(const struct _lv_obj_t * obj, uint32_t part
 380:Drivers/lvgl/lvgl/src/widgets/../core/lv_obj_style_gen.h **** {
 381:Drivers/lvgl/lvgl/src/widgets/../core/lv_obj_style_gen.h ****     lv_style_value_t v = lv_obj_get_style_prop(obj, part, LV_STYLE_LINE_DASH_GAP);
 382:Drivers/lvgl/lvgl/src/widgets/../core/lv_obj_style_gen.h ****     return (lv_coord_t)v.num;
 383:Drivers/lvgl/lvgl/src/widgets/../core/lv_obj_style_gen.h **** }
 384:Drivers/lvgl/lvgl/src/widgets/../core/lv_obj_style_gen.h **** 
 385:Drivers/lvgl/lvgl/src/widgets/../core/lv_obj_style_gen.h **** static inline bool lv_obj_get_style_line_rounded(const struct _lv_obj_t * obj, uint32_t part)
 386:Drivers/lvgl/lvgl/src/widgets/../core/lv_obj_style_gen.h **** {
 387:Drivers/lvgl/lvgl/src/widgets/../core/lv_obj_style_gen.h ****     lv_style_value_t v = lv_obj_get_style_prop(obj, part, LV_STYLE_LINE_ROUNDED);
 388:Drivers/lvgl/lvgl/src/widgets/../core/lv_obj_style_gen.h ****     return (bool)v.num;
 389:Drivers/lvgl/lvgl/src/widgets/../core/lv_obj_style_gen.h **** }
 390:Drivers/lvgl/lvgl/src/widgets/../core/lv_obj_style_gen.h **** 
 391:Drivers/lvgl/lvgl/src/widgets/../core/lv_obj_style_gen.h **** static inline lv_color_t lv_obj_get_style_line_color(const struct _lv_obj_t * obj, uint32_t part)
 392:Drivers/lvgl/lvgl/src/widgets/../core/lv_obj_style_gen.h **** {
 393:Drivers/lvgl/lvgl/src/widgets/../core/lv_obj_style_gen.h ****     lv_style_value_t v = lv_obj_get_style_prop(obj, part, LV_STYLE_LINE_COLOR);
 394:Drivers/lvgl/lvgl/src/widgets/../core/lv_obj_style_gen.h ****     return v.color;
 395:Drivers/lvgl/lvgl/src/widgets/../core/lv_obj_style_gen.h **** }
 396:Drivers/lvgl/lvgl/src/widgets/../core/lv_obj_style_gen.h **** 
 397:Drivers/lvgl/lvgl/src/widgets/../core/lv_obj_style_gen.h **** static inline lv_color_t lv_obj_get_style_line_color_filtered(const struct _lv_obj_t * obj, uint32_
 398:Drivers/lvgl/lvgl/src/widgets/../core/lv_obj_style_gen.h **** {
 399:Drivers/lvgl/lvgl/src/widgets/../core/lv_obj_style_gen.h ****     lv_style_value_t v = _lv_obj_style_apply_color_filter(obj, part, lv_obj_get_style_prop(obj, par
 400:Drivers/lvgl/lvgl/src/widgets/../core/lv_obj_style_gen.h ****     return v.color;
 401:Drivers/lvgl/lvgl/src/widgets/../core/lv_obj_style_gen.h **** }
 402:Drivers/lvgl/lvgl/src/widgets/../core/lv_obj_style_gen.h **** 
 403:Drivers/lvgl/lvgl/src/widgets/../core/lv_obj_style_gen.h **** static inline lv_opa_t lv_obj_get_style_line_opa(const struct _lv_obj_t * obj, uint32_t part)
 404:Drivers/lvgl/lvgl/src/widgets/../core/lv_obj_style_gen.h **** {
 405:Drivers/lvgl/lvgl/src/widgets/../core/lv_obj_style_gen.h ****     lv_style_value_t v = lv_obj_get_style_prop(obj, part, LV_STYLE_LINE_OPA);
 406:Drivers/lvgl/lvgl/src/widgets/../core/lv_obj_style_gen.h ****     return (lv_opa_t)v.num;
 407:Drivers/lvgl/lvgl/src/widgets/../core/lv_obj_style_gen.h **** }
 408:Drivers/lvgl/lvgl/src/widgets/../core/lv_obj_style_gen.h **** 
 409:Drivers/lvgl/lvgl/src/widgets/../core/lv_obj_style_gen.h **** static inline lv_coord_t lv_obj_get_style_arc_width(const struct _lv_obj_t * obj, uint32_t part)
 410:Drivers/lvgl/lvgl/src/widgets/../core/lv_obj_style_gen.h **** {
 411:Drivers/lvgl/lvgl/src/widgets/../core/lv_obj_style_gen.h ****     lv_style_value_t v = lv_obj_get_style_prop(obj, part, LV_STYLE_ARC_WIDTH);
 412:Drivers/lvgl/lvgl/src/widgets/../core/lv_obj_style_gen.h ****     return (lv_coord_t)v.num;
 413:Drivers/lvgl/lvgl/src/widgets/../core/lv_obj_style_gen.h **** }
 414:Drivers/lvgl/lvgl/src/widgets/../core/lv_obj_style_gen.h **** 
 415:Drivers/lvgl/lvgl/src/widgets/../core/lv_obj_style_gen.h **** static inline bool lv_obj_get_style_arc_rounded(const struct _lv_obj_t * obj, uint32_t part)
 416:Drivers/lvgl/lvgl/src/widgets/../core/lv_obj_style_gen.h **** {
 417:Drivers/lvgl/lvgl/src/widgets/../core/lv_obj_style_gen.h ****     lv_style_value_t v = lv_obj_get_style_prop(obj, part, LV_STYLE_ARC_ROUNDED);
 418:Drivers/lvgl/lvgl/src/widgets/../core/lv_obj_style_gen.h ****     return (bool)v.num;
 419:Drivers/lvgl/lvgl/src/widgets/../core/lv_obj_style_gen.h **** }
 420:Drivers/lvgl/lvgl/src/widgets/../core/lv_obj_style_gen.h **** 
 421:Drivers/lvgl/lvgl/src/widgets/../core/lv_obj_style_gen.h **** static inline lv_color_t lv_obj_get_style_arc_color(const struct _lv_obj_t * obj, uint32_t part)
ARM GAS  /tmp/ccpV5owi.s 			page 64


 422:Drivers/lvgl/lvgl/src/widgets/../core/lv_obj_style_gen.h **** {
 423:Drivers/lvgl/lvgl/src/widgets/../core/lv_obj_style_gen.h ****     lv_style_value_t v = lv_obj_get_style_prop(obj, part, LV_STYLE_ARC_COLOR);
 424:Drivers/lvgl/lvgl/src/widgets/../core/lv_obj_style_gen.h ****     return v.color;
 425:Drivers/lvgl/lvgl/src/widgets/../core/lv_obj_style_gen.h **** }
 426:Drivers/lvgl/lvgl/src/widgets/../core/lv_obj_style_gen.h **** 
 427:Drivers/lvgl/lvgl/src/widgets/../core/lv_obj_style_gen.h **** static inline lv_color_t lv_obj_get_style_arc_color_filtered(const struct _lv_obj_t * obj, uint32_t
 428:Drivers/lvgl/lvgl/src/widgets/../core/lv_obj_style_gen.h **** {
 429:Drivers/lvgl/lvgl/src/widgets/../core/lv_obj_style_gen.h ****     lv_style_value_t v = _lv_obj_style_apply_color_filter(obj, part, lv_obj_get_style_prop(obj, par
 430:Drivers/lvgl/lvgl/src/widgets/../core/lv_obj_style_gen.h ****     return v.color;
 431:Drivers/lvgl/lvgl/src/widgets/../core/lv_obj_style_gen.h **** }
 432:Drivers/lvgl/lvgl/src/widgets/../core/lv_obj_style_gen.h **** 
 433:Drivers/lvgl/lvgl/src/widgets/../core/lv_obj_style_gen.h **** static inline lv_opa_t lv_obj_get_style_arc_opa(const struct _lv_obj_t * obj, uint32_t part)
 434:Drivers/lvgl/lvgl/src/widgets/../core/lv_obj_style_gen.h **** {
 435:Drivers/lvgl/lvgl/src/widgets/../core/lv_obj_style_gen.h ****     lv_style_value_t v = lv_obj_get_style_prop(obj, part, LV_STYLE_ARC_OPA);
 436:Drivers/lvgl/lvgl/src/widgets/../core/lv_obj_style_gen.h ****     return (lv_opa_t)v.num;
 437:Drivers/lvgl/lvgl/src/widgets/../core/lv_obj_style_gen.h **** }
 438:Drivers/lvgl/lvgl/src/widgets/../core/lv_obj_style_gen.h **** 
 439:Drivers/lvgl/lvgl/src/widgets/../core/lv_obj_style_gen.h **** static inline const void * lv_obj_get_style_arc_img_src(const struct _lv_obj_t * obj, uint32_t part
 440:Drivers/lvgl/lvgl/src/widgets/../core/lv_obj_style_gen.h **** {
 441:Drivers/lvgl/lvgl/src/widgets/../core/lv_obj_style_gen.h ****     lv_style_value_t v = lv_obj_get_style_prop(obj, part, LV_STYLE_ARC_IMG_SRC);
 442:Drivers/lvgl/lvgl/src/widgets/../core/lv_obj_style_gen.h ****     return (const void *)v.ptr;
 443:Drivers/lvgl/lvgl/src/widgets/../core/lv_obj_style_gen.h **** }
 444:Drivers/lvgl/lvgl/src/widgets/../core/lv_obj_style_gen.h **** 
 445:Drivers/lvgl/lvgl/src/widgets/../core/lv_obj_style_gen.h **** static inline lv_color_t lv_obj_get_style_text_color(const struct _lv_obj_t * obj, uint32_t part)
 446:Drivers/lvgl/lvgl/src/widgets/../core/lv_obj_style_gen.h **** {
 447:Drivers/lvgl/lvgl/src/widgets/../core/lv_obj_style_gen.h ****     lv_style_value_t v = lv_obj_get_style_prop(obj, part, LV_STYLE_TEXT_COLOR);
 448:Drivers/lvgl/lvgl/src/widgets/../core/lv_obj_style_gen.h ****     return v.color;
 449:Drivers/lvgl/lvgl/src/widgets/../core/lv_obj_style_gen.h **** }
 450:Drivers/lvgl/lvgl/src/widgets/../core/lv_obj_style_gen.h **** 
 451:Drivers/lvgl/lvgl/src/widgets/../core/lv_obj_style_gen.h **** static inline lv_color_t lv_obj_get_style_text_color_filtered(const struct _lv_obj_t * obj, uint32_
 452:Drivers/lvgl/lvgl/src/widgets/../core/lv_obj_style_gen.h **** {
 453:Drivers/lvgl/lvgl/src/widgets/../core/lv_obj_style_gen.h ****     lv_style_value_t v = _lv_obj_style_apply_color_filter(obj, part, lv_obj_get_style_prop(obj, par
 454:Drivers/lvgl/lvgl/src/widgets/../core/lv_obj_style_gen.h ****     return v.color;
 455:Drivers/lvgl/lvgl/src/widgets/../core/lv_obj_style_gen.h **** }
 456:Drivers/lvgl/lvgl/src/widgets/../core/lv_obj_style_gen.h **** 
 457:Drivers/lvgl/lvgl/src/widgets/../core/lv_obj_style_gen.h **** static inline lv_opa_t lv_obj_get_style_text_opa(const struct _lv_obj_t * obj, uint32_t part)
 458:Drivers/lvgl/lvgl/src/widgets/../core/lv_obj_style_gen.h **** {
 459:Drivers/lvgl/lvgl/src/widgets/../core/lv_obj_style_gen.h ****     lv_style_value_t v = lv_obj_get_style_prop(obj, part, LV_STYLE_TEXT_OPA);
 460:Drivers/lvgl/lvgl/src/widgets/../core/lv_obj_style_gen.h ****     return (lv_opa_t)v.num;
 461:Drivers/lvgl/lvgl/src/widgets/../core/lv_obj_style_gen.h **** }
 462:Drivers/lvgl/lvgl/src/widgets/../core/lv_obj_style_gen.h **** 
 463:Drivers/lvgl/lvgl/src/widgets/../core/lv_obj_style_gen.h **** static inline const lv_font_t * lv_obj_get_style_text_font(const struct _lv_obj_t * obj, uint32_t p
 464:Drivers/lvgl/lvgl/src/widgets/../core/lv_obj_style_gen.h **** {
 465:Drivers/lvgl/lvgl/src/widgets/../core/lv_obj_style_gen.h ****     lv_style_value_t v = lv_obj_get_style_prop(obj, part, LV_STYLE_TEXT_FONT);
 466:Drivers/lvgl/lvgl/src/widgets/../core/lv_obj_style_gen.h ****     return (const lv_font_t *)v.ptr;
 467:Drivers/lvgl/lvgl/src/widgets/../core/lv_obj_style_gen.h **** }
 468:Drivers/lvgl/lvgl/src/widgets/../core/lv_obj_style_gen.h **** 
 469:Drivers/lvgl/lvgl/src/widgets/../core/lv_obj_style_gen.h **** static inline lv_coord_t lv_obj_get_style_text_letter_space(const struct _lv_obj_t * obj, uint32_t 
 470:Drivers/lvgl/lvgl/src/widgets/../core/lv_obj_style_gen.h **** {
 471:Drivers/lvgl/lvgl/src/widgets/../core/lv_obj_style_gen.h ****     lv_style_value_t v = lv_obj_get_style_prop(obj, part, LV_STYLE_TEXT_LETTER_SPACE);
 472:Drivers/lvgl/lvgl/src/widgets/../core/lv_obj_style_gen.h ****     return (lv_coord_t)v.num;
 473:Drivers/lvgl/lvgl/src/widgets/../core/lv_obj_style_gen.h **** }
 474:Drivers/lvgl/lvgl/src/widgets/../core/lv_obj_style_gen.h **** 
 475:Drivers/lvgl/lvgl/src/widgets/../core/lv_obj_style_gen.h **** static inline lv_coord_t lv_obj_get_style_text_line_space(const struct _lv_obj_t * obj, uint32_t pa
 476:Drivers/lvgl/lvgl/src/widgets/../core/lv_obj_style_gen.h **** {
 477:Drivers/lvgl/lvgl/src/widgets/../core/lv_obj_style_gen.h ****     lv_style_value_t v = lv_obj_get_style_prop(obj, part, LV_STYLE_TEXT_LINE_SPACE);
 478:Drivers/lvgl/lvgl/src/widgets/../core/lv_obj_style_gen.h ****     return (lv_coord_t)v.num;
ARM GAS  /tmp/ccpV5owi.s 			page 65


 479:Drivers/lvgl/lvgl/src/widgets/../core/lv_obj_style_gen.h **** }
 480:Drivers/lvgl/lvgl/src/widgets/../core/lv_obj_style_gen.h **** 
 481:Drivers/lvgl/lvgl/src/widgets/../core/lv_obj_style_gen.h **** static inline lv_text_decor_t lv_obj_get_style_text_decor(const struct _lv_obj_t * obj, uint32_t pa
 482:Drivers/lvgl/lvgl/src/widgets/../core/lv_obj_style_gen.h **** {
 483:Drivers/lvgl/lvgl/src/widgets/../core/lv_obj_style_gen.h ****     lv_style_value_t v = lv_obj_get_style_prop(obj, part, LV_STYLE_TEXT_DECOR);
 484:Drivers/lvgl/lvgl/src/widgets/../core/lv_obj_style_gen.h ****     return (lv_text_decor_t)v.num;
 485:Drivers/lvgl/lvgl/src/widgets/../core/lv_obj_style_gen.h **** }
 486:Drivers/lvgl/lvgl/src/widgets/../core/lv_obj_style_gen.h **** 
 487:Drivers/lvgl/lvgl/src/widgets/../core/lv_obj_style_gen.h **** static inline lv_text_align_t lv_obj_get_style_text_align(const struct _lv_obj_t * obj, uint32_t pa
 488:Drivers/lvgl/lvgl/src/widgets/../core/lv_obj_style_gen.h **** {
 489:Drivers/lvgl/lvgl/src/widgets/../core/lv_obj_style_gen.h ****     lv_style_value_t v = lv_obj_get_style_prop(obj, part, LV_STYLE_TEXT_ALIGN);
 490:Drivers/lvgl/lvgl/src/widgets/../core/lv_obj_style_gen.h ****     return (lv_text_align_t)v.num;
 491:Drivers/lvgl/lvgl/src/widgets/../core/lv_obj_style_gen.h **** }
 492:Drivers/lvgl/lvgl/src/widgets/../core/lv_obj_style_gen.h **** 
 493:Drivers/lvgl/lvgl/src/widgets/../core/lv_obj_style_gen.h **** static inline lv_coord_t lv_obj_get_style_radius(const struct _lv_obj_t * obj, uint32_t part)
 494:Drivers/lvgl/lvgl/src/widgets/../core/lv_obj_style_gen.h **** {
 495:Drivers/lvgl/lvgl/src/widgets/../core/lv_obj_style_gen.h ****     lv_style_value_t v = lv_obj_get_style_prop(obj, part, LV_STYLE_RADIUS);
 496:Drivers/lvgl/lvgl/src/widgets/../core/lv_obj_style_gen.h ****     return (lv_coord_t)v.num;
 497:Drivers/lvgl/lvgl/src/widgets/../core/lv_obj_style_gen.h **** }
 498:Drivers/lvgl/lvgl/src/widgets/../core/lv_obj_style_gen.h **** 
 499:Drivers/lvgl/lvgl/src/widgets/../core/lv_obj_style_gen.h **** static inline bool lv_obj_get_style_clip_corner(const struct _lv_obj_t * obj, uint32_t part)
 500:Drivers/lvgl/lvgl/src/widgets/../core/lv_obj_style_gen.h **** {
 501:Drivers/lvgl/lvgl/src/widgets/../core/lv_obj_style_gen.h ****     lv_style_value_t v = lv_obj_get_style_prop(obj, part, LV_STYLE_CLIP_CORNER);
 502:Drivers/lvgl/lvgl/src/widgets/../core/lv_obj_style_gen.h ****     return (bool)v.num;
 503:Drivers/lvgl/lvgl/src/widgets/../core/lv_obj_style_gen.h **** }
 504:Drivers/lvgl/lvgl/src/widgets/../core/lv_obj_style_gen.h **** 
 505:Drivers/lvgl/lvgl/src/widgets/../core/lv_obj_style_gen.h **** static inline lv_opa_t lv_obj_get_style_opa(const struct _lv_obj_t * obj, uint32_t part)
 506:Drivers/lvgl/lvgl/src/widgets/../core/lv_obj_style_gen.h **** {
 507:Drivers/lvgl/lvgl/src/widgets/../core/lv_obj_style_gen.h ****     lv_style_value_t v = lv_obj_get_style_prop(obj, part, LV_STYLE_OPA);
 508:Drivers/lvgl/lvgl/src/widgets/../core/lv_obj_style_gen.h ****     return (lv_opa_t)v.num;
 509:Drivers/lvgl/lvgl/src/widgets/../core/lv_obj_style_gen.h **** }
 510:Drivers/lvgl/lvgl/src/widgets/../core/lv_obj_style_gen.h **** 
 511:Drivers/lvgl/lvgl/src/widgets/../core/lv_obj_style_gen.h **** static inline const lv_color_filter_dsc_t * lv_obj_get_style_color_filter_dsc(const struct _lv_obj_
 512:Drivers/lvgl/lvgl/src/widgets/../core/lv_obj_style_gen.h **** {
 513:Drivers/lvgl/lvgl/src/widgets/../core/lv_obj_style_gen.h ****     lv_style_value_t v = lv_obj_get_style_prop(obj, part, LV_STYLE_COLOR_FILTER_DSC);
 514:Drivers/lvgl/lvgl/src/widgets/../core/lv_obj_style_gen.h ****     return (const lv_color_filter_dsc_t *)v.ptr;
 515:Drivers/lvgl/lvgl/src/widgets/../core/lv_obj_style_gen.h **** }
 516:Drivers/lvgl/lvgl/src/widgets/../core/lv_obj_style_gen.h **** 
 517:Drivers/lvgl/lvgl/src/widgets/../core/lv_obj_style_gen.h **** static inline lv_opa_t lv_obj_get_style_color_filter_opa(const struct _lv_obj_t * obj, uint32_t par
 518:Drivers/lvgl/lvgl/src/widgets/../core/lv_obj_style_gen.h **** {
 519:Drivers/lvgl/lvgl/src/widgets/../core/lv_obj_style_gen.h ****     lv_style_value_t v = lv_obj_get_style_prop(obj, part, LV_STYLE_COLOR_FILTER_OPA);
 520:Drivers/lvgl/lvgl/src/widgets/../core/lv_obj_style_gen.h ****     return (lv_opa_t)v.num;
 521:Drivers/lvgl/lvgl/src/widgets/../core/lv_obj_style_gen.h **** }
 522:Drivers/lvgl/lvgl/src/widgets/../core/lv_obj_style_gen.h **** 
 523:Drivers/lvgl/lvgl/src/widgets/../core/lv_obj_style_gen.h **** static inline const lv_anim_t * lv_obj_get_style_anim(const struct _lv_obj_t * obj, uint32_t part)
 524:Drivers/lvgl/lvgl/src/widgets/../core/lv_obj_style_gen.h **** {
 525:Drivers/lvgl/lvgl/src/widgets/../core/lv_obj_style_gen.h ****     lv_style_value_t v = lv_obj_get_style_prop(obj, part, LV_STYLE_ANIM);
 526:Drivers/lvgl/lvgl/src/widgets/../core/lv_obj_style_gen.h ****     return (const lv_anim_t *)v.ptr;
 527:Drivers/lvgl/lvgl/src/widgets/../core/lv_obj_style_gen.h **** }
 528:Drivers/lvgl/lvgl/src/widgets/../core/lv_obj_style_gen.h **** 
 529:Drivers/lvgl/lvgl/src/widgets/../core/lv_obj_style_gen.h **** static inline uint32_t lv_obj_get_style_anim_time(const struct _lv_obj_t * obj, uint32_t part)
 530:Drivers/lvgl/lvgl/src/widgets/../core/lv_obj_style_gen.h **** {
 531:Drivers/lvgl/lvgl/src/widgets/../core/lv_obj_style_gen.h ****     lv_style_value_t v = lv_obj_get_style_prop(obj, part, LV_STYLE_ANIM_TIME);
 532:Drivers/lvgl/lvgl/src/widgets/../core/lv_obj_style_gen.h ****     return (uint32_t)v.num;
 533:Drivers/lvgl/lvgl/src/widgets/../core/lv_obj_style_gen.h **** }
 534:Drivers/lvgl/lvgl/src/widgets/../core/lv_obj_style_gen.h **** 
 535:Drivers/lvgl/lvgl/src/widgets/../core/lv_obj_style_gen.h **** static inline uint32_t lv_obj_get_style_anim_speed(const struct _lv_obj_t * obj, uint32_t part)
ARM GAS  /tmp/ccpV5owi.s 			page 66


 536:Drivers/lvgl/lvgl/src/widgets/../core/lv_obj_style_gen.h **** {
 537:Drivers/lvgl/lvgl/src/widgets/../core/lv_obj_style_gen.h ****     lv_style_value_t v = lv_obj_get_style_prop(obj, part, LV_STYLE_ANIM_SPEED);
 538:Drivers/lvgl/lvgl/src/widgets/../core/lv_obj_style_gen.h ****     return (uint32_t)v.num;
 539:Drivers/lvgl/lvgl/src/widgets/../core/lv_obj_style_gen.h **** }
 540:Drivers/lvgl/lvgl/src/widgets/../core/lv_obj_style_gen.h **** 
 541:Drivers/lvgl/lvgl/src/widgets/../core/lv_obj_style_gen.h **** static inline const lv_style_transition_dsc_t * lv_obj_get_style_transition(const struct _lv_obj_t 
 542:Drivers/lvgl/lvgl/src/widgets/../core/lv_obj_style_gen.h **** {
 543:Drivers/lvgl/lvgl/src/widgets/../core/lv_obj_style_gen.h ****     lv_style_value_t v = lv_obj_get_style_prop(obj, part, LV_STYLE_TRANSITION);
 544:Drivers/lvgl/lvgl/src/widgets/../core/lv_obj_style_gen.h ****     return (const lv_style_transition_dsc_t *)v.ptr;
 545:Drivers/lvgl/lvgl/src/widgets/../core/lv_obj_style_gen.h **** }
 546:Drivers/lvgl/lvgl/src/widgets/../core/lv_obj_style_gen.h **** 
 547:Drivers/lvgl/lvgl/src/widgets/../core/lv_obj_style_gen.h **** static inline lv_blend_mode_t lv_obj_get_style_blend_mode(const struct _lv_obj_t * obj, uint32_t pa
 548:Drivers/lvgl/lvgl/src/widgets/../core/lv_obj_style_gen.h **** {
 549:Drivers/lvgl/lvgl/src/widgets/../core/lv_obj_style_gen.h ****     lv_style_value_t v = lv_obj_get_style_prop(obj, part, LV_STYLE_BLEND_MODE);
 550:Drivers/lvgl/lvgl/src/widgets/../core/lv_obj_style_gen.h ****     return (lv_blend_mode_t)v.num;
 551:Drivers/lvgl/lvgl/src/widgets/../core/lv_obj_style_gen.h **** }
 552:Drivers/lvgl/lvgl/src/widgets/../core/lv_obj_style_gen.h **** 
 553:Drivers/lvgl/lvgl/src/widgets/../core/lv_obj_style_gen.h **** static inline uint16_t lv_obj_get_style_layout(const struct _lv_obj_t * obj, uint32_t part)
 554:Drivers/lvgl/lvgl/src/widgets/../core/lv_obj_style_gen.h **** {
 555:Drivers/lvgl/lvgl/src/widgets/../core/lv_obj_style_gen.h ****     lv_style_value_t v = lv_obj_get_style_prop(obj, part, LV_STYLE_LAYOUT);
 556:Drivers/lvgl/lvgl/src/widgets/../core/lv_obj_style_gen.h ****     return (uint16_t)v.num;
 557:Drivers/lvgl/lvgl/src/widgets/../core/lv_obj_style_gen.h **** }
 558:Drivers/lvgl/lvgl/src/widgets/../core/lv_obj_style_gen.h **** 
 559:Drivers/lvgl/lvgl/src/widgets/../core/lv_obj_style_gen.h **** static inline lv_base_dir_t lv_obj_get_style_base_dir(const struct _lv_obj_t * obj, uint32_t part)
 560:Drivers/lvgl/lvgl/src/widgets/../core/lv_obj_style_gen.h **** {
 561:Drivers/lvgl/lvgl/src/widgets/../core/lv_obj_style_gen.h ****     lv_style_value_t v = lv_obj_get_style_prop(obj, part, LV_STYLE_BASE_DIR);
 1806              		.loc 2 561 0
 1807 0018 1622     		movs	r2, #22
 1808 001a 0021     		movs	r1, #0
 1809 001c 5846     		mov	r0, fp
 1810 001e FFF7FEFF 		bl	lv_obj_get_style_prop
 1811              	.LVL202:
 562:Drivers/lvgl/lvgl/src/widgets/../core/lv_obj_style_gen.h ****     return (lv_base_dir_t)v.num;
 1812              		.loc 2 562 0
 1813 0022 C3B2     		uxtb	r3, r0
 1814 0024 0793     		str	r3, [sp, #28]
 1815              	.LVL203:
 1816              	.LBE122:
 1817              	.LBE121:
 1818              	.LBB123:
 1819              	.LBB124:
 117:Drivers/lvgl/lvgl/src/widgets/../core/lv_obj_style_gen.h ****     return (lv_coord_t)v.num;
 1820              		.loc 2 117 0
 1821 0026 1222     		movs	r2, #18
 1822 0028 0021     		movs	r1, #0
 1823 002a 5846     		mov	r0, fp
 1824 002c FFF7FEFF 		bl	lv_obj_get_style_prop
 1825              	.LVL204:
 1826 0030 0690     		str	r0, [sp, #24]
 1827              	.LVL205:
 1828              	.LBE124:
 1829              	.LBE123:
 1830              	.LBB125:
 1831              	.LBB126:
 105:Drivers/lvgl/lvgl/src/widgets/../core/lv_obj_style_gen.h ****     return (lv_coord_t)v.num;
 1832              		.loc 2 105 0
 1833 0032 1022     		movs	r2, #16
ARM GAS  /tmp/ccpV5owi.s 			page 67


 1834 0034 0021     		movs	r1, #0
 1835 0036 5846     		mov	r0, fp
 1836 0038 FFF7FEFF 		bl	lv_obj_get_style_prop
 1837              	.LVL206:
 1838 003c 0F90     		str	r0, [sp, #60]
 1839              	.LVL207:
 1840              	.LBE126:
 1841              	.LBE125:
 1842              	.LBB127:
 1843              	.LBB128:
 129:Drivers/lvgl/lvgl/src/widgets/../core/lv_obj_style_gen.h ****     return (lv_coord_t)v.num;
 1844              		.loc 2 129 0
 1845 003e 1422     		movs	r2, #20
 1846 0040 0021     		movs	r1, #0
 1847 0042 5846     		mov	r0, fp
 1848 0044 FFF7FEFF 		bl	lv_obj_get_style_prop
 1849              	.LVL208:
 1850 0048 0446     		mov	r4, r0
 1851              	.LVL209:
 130:Drivers/lvgl/lvgl/src/widgets/../core/lv_obj_style_gen.h **** }
 1852              		.loc 2 130 0
 1853 004a 03B2     		sxth	r3, r0
 1854 004c 0E93     		str	r3, [sp, #56]
 1855              	.LVL210:
 1856              	.LBE128:
 1857              	.LBE127:
 1858              	.LBB129:
 1859              	.LBB130:
 135:Drivers/lvgl/lvgl/src/widgets/../core/lv_obj_style_gen.h ****     return (lv_coord_t)v.num;
 1860              		.loc 2 135 0
 1861 004e 1522     		movs	r2, #21
 1862 0050 0021     		movs	r1, #0
 1863 0052 5846     		mov	r0, fp
 1864 0054 FFF7FEFF 		bl	lv_obj_get_style_prop
 1865              	.LVL211:
 1866 0058 0D90     		str	r0, [sp, #52]
 136:Drivers/lvgl/lvgl/src/widgets/../core/lv_obj_style_gen.h **** }
 1867              		.loc 2 136 0
 1868 005a 03B2     		sxth	r3, r0
 1869 005c 0C93     		str	r3, [sp, #48]
 1870              	.LVL212:
 1871              	.LBE130:
 1872              	.LBE129:
 112:Drivers/lvgl/lvgl/src/widgets/lv_btnmatrix.c ****     lv_coord_t max_h            = lv_obj_get_content_height(obj);
 1873              		.loc 1 112 0
 1874 005e 5846     		mov	r0, fp
 1875 0060 FFF7FEFF 		bl	lv_obj_get_content_width
 1876              	.LVL213:
 1877 0064 0A90     		str	r0, [sp, #40]
 1878              	.LVL214:
 113:Drivers/lvgl/lvgl/src/widgets/lv_btnmatrix.c **** 
 1879              		.loc 1 113 0
 1880 0066 5846     		mov	r0, fp
 1881 0068 FFF7FEFF 		bl	lv_obj_get_content_height
 1882              	.LVL215:
 116:Drivers/lvgl/lvgl/src/widgets/lv_btnmatrix.c **** 
 1883              		.loc 1 116 0
ARM GAS  /tmp/ccpV5owi.s 			page 68


 1884 006c BBF83230 		ldrh	r3, [fp, #50]
 1885 0070 013B     		subs	r3, r3, #1
 1886 0072 13FB04F4 		smulbb	r4, r3, r4
 1887 0076 041B     		subs	r4, r0, r4
 1888 0078 23B2     		sxth	r3, r4
 1889 007a 0B93     		str	r3, [sp, #44]
 1890              	.LVL216:
 126:Drivers/lvgl/lvgl/src/widgets/lv_btnmatrix.c ****         uint16_t unit_cnt = 0;           /*Number of units in a row*/
 1891              		.loc 1 126 0
 1892 007c 0023     		movs	r3, #0
 1893 007e 0393     		str	r3, [sp, #12]
 120:Drivers/lvgl/lvgl/src/widgets/lv_btnmatrix.c ****     uint32_t btn_tot_i = 0; /*Act. index of button areas*/
 1894              		.loc 1 120 0
 1895 0080 9A46     		mov	r10, r3
 1896 0082 A946     		mov	r9, r5
 126:Drivers/lvgl/lvgl/src/widgets/lv_btnmatrix.c ****         uint16_t unit_cnt = 0;           /*Number of units in a row*/
 1897              		.loc 1 126 0
 1898 0084 92E0     		b	.L125
 1899              	.LVL217:
 1900              	.L127:
 1901              	.LBB131:
 131:Drivers/lvgl/lvgl/src/widgets/lv_btnmatrix.c ****             btn_cnt++;
 1902              		.loc 1 131 0
 1903 0086 DBF82C30 		ldr	r3, [fp, #44]
 1904 008a 5544     		add	r5, r5, r10
 1905 008c 33F81500 		ldrh	r0, [r3, r5, lsl #1]
 1906 0090 FFF7FEFF 		bl	get_button_width
 1907              	.LVL218:
 1908 0094 16FA80F6 		uxtah	r6, r6, r0
 1909              	.LVL219:
 1910 0098 B6B2     		uxth	r6, r6
 1911              	.LVL220:
 132:Drivers/lvgl/lvgl/src/widgets/lv_btnmatrix.c ****         }
 1912              		.loc 1 132 0
 1913 009a 0134     		adds	r4, r4, #1
 1914              	.LVL221:
 1915 009c A4B2     		uxth	r4, r4
 1916              	.LVL222:
 1917              	.L134:
 130:Drivers/lvgl/lvgl/src/widgets/lv_btnmatrix.c ****             unit_cnt += get_button_width(btnm->ctrl_bits[btn_tot_i + btn_cnt]);
 1918              		.loc 1 130 0
 1919 009e 2546     		mov	r5, r4
 1920 00a0 59F82470 		ldr	r7, [r9, r4, lsl #2]
 1921 00a4 3FB1     		cbz	r7, .L126
 130:Drivers/lvgl/lvgl/src/widgets/lv_btnmatrix.c ****             unit_cnt += get_button_width(btnm->ctrl_bits[btn_tot_i + btn_cnt]);
 1922              		.loc 1 130 0 is_stmt 0 discriminator 1
 1923 00a6 4A49     		ldr	r1, .L145
 1924 00a8 3846     		mov	r0, r7
 1925 00aa FFF7FEFF 		bl	strcmp
 1926              	.LVL223:
 1927 00ae 10B1     		cbz	r0, .L126
 130:Drivers/lvgl/lvgl/src/widgets/lv_btnmatrix.c ****             unit_cnt += get_button_width(btnm->ctrl_bits[btn_tot_i + btn_cnt]);
 1928              		.loc 1 130 0 discriminator 2
 1929 00b0 3B78     		ldrb	r3, [r7]	@ zero_extendqisi2
 1930 00b2 002B     		cmp	r3, #0
 1931 00b4 E7D1     		bne	.L127
 1932              	.L126:
ARM GAS  /tmp/ccpV5owi.s 			page 69


 136:Drivers/lvgl/lvgl/src/widgets/lv_btnmatrix.c ****             map_row = &map_row[btn_cnt + 1];       /*Set the map to the next row*/
 1933              		.loc 1 136 0 is_stmt 1
 1934 00b6 84B3     		cbz	r4, .L141
 141:Drivers/lvgl/lvgl/src/widgets/lv_btnmatrix.c ****         lv_coord_t row_y2 = ptop + (max_h_no_gap * (row + 1)) / btnm->row_cnt + row * prow - 1;
 1935              		.loc 1 141 0
 1936 00b8 039F     		ldr	r7, [sp, #12]
 1937 00ba 0B98     		ldr	r0, [sp, #44]
 1938 00bc 0246     		mov	r2, r0
 1939 00be 07FB02F2 		mul	r2, r7, r2
 1940 00c2 B2FBF8F2 		udiv	r2, r2, r8
 1941 00c6 BDF83C30 		ldrh	r3, [sp, #60]
 1942 00ca 1A44     		add	r2, r2, r3
 1943 00cc BDF838C0 		ldrh	ip, [sp, #56]
 1944 00d0 1CFB07F1 		smulbb	r1, ip, r7
 1945 00d4 89B2     		uxth	r1, r1
 1946 00d6 11FA82F2 		uxtah	r2, r1, r2
 1947 00da 12B2     		sxth	r2, r2
 1948 00dc 0492     		str	r2, [sp, #16]
 1949              	.LVL224:
 142:Drivers/lvgl/lvgl/src/widgets/lv_btnmatrix.c **** 
 1950              		.loc 1 142 0
 1951 00de 07FB0002 		mla	r2, r7, r0, r0
 1952 00e2 B2FBF8F8 		udiv	r8, r2, r8
 1953 00e6 4344     		add	r3, r3, r8
 1954 00e8 11FA83F3 		uxtah	r3, r1, r3
 1955 00ec 9BB2     		uxth	r3, r3
 1956 00ee 013B     		subs	r3, r3, #1
 1957 00f0 1BB2     		sxth	r3, r3
 1958 00f2 0593     		str	r3, [sp, #20]
 1959              	.LVL225:
 145:Drivers/lvgl/lvgl/src/widgets/lv_btnmatrix.c ****         if(max_w_no_gap < 0) max_w_no_gap = 0;
 1960              		.loc 1 145 0
 1961 00f4 BDF82830 		ldrh	r3, [sp, #40]
 1962 00f8 0893     		str	r3, [sp, #32]
 1963 00fa 013C     		subs	r4, r4, #1
 1964              	.LVL226:
 1965 00fc BDF83420 		ldrh	r2, [sp, #52]
 1966 0100 14FB02F4 		smulbb	r4, r4, r2
 1967 0104 1C1B     		subs	r4, r3, r4
 1968 0106 24B2     		sxth	r4, r4
 1969              	.LVL227:
 146:Drivers/lvgl/lvgl/src/widgets/lv_btnmatrix.c **** 
 1970              		.loc 1 146 0
 1971 0108 002C     		cmp	r4, #0
 1972 010a 0ADB     		blt	.L142
 1973              	.LVL228:
 1974              	.L130:
 150:Drivers/lvgl/lvgl/src/widgets/lv_btnmatrix.c ****             uint32_t btn_u = get_button_width(btnm->ctrl_bits[btn_tot_i]);
 1975              		.loc 1 150 0
 1976 010c 0027     		movs	r7, #0
 148:Drivers/lvgl/lvgl/src/widgets/lv_btnmatrix.c ****         uint32_t btn;
 1977              		.loc 1 148 0
 1978 010e B846     		mov	r8, r7
 1979 0110 CDF82490 		str	r9, [sp, #36]
 1980 0114 DDF83090 		ldr	r9, [sp, #48]
 1981              	.LVL229:
 150:Drivers/lvgl/lvgl/src/widgets/lv_btnmatrix.c ****             uint32_t btn_u = get_button_width(btnm->ctrl_bits[btn_tot_i]);
ARM GAS  /tmp/ccpV5owi.s 			page 70


 1982              		.loc 1 150 0
 1983 0118 17E0     		b	.L131
 1984              	.LVL230:
 1985              	.L141:
 137:Drivers/lvgl/lvgl/src/widgets/lv_btnmatrix.c ****             continue;
 1986              		.loc 1 137 0
 1987 011a 0135     		adds	r5, r5, #1
 1988 011c 09EB8509 		add	r9, r9, r5, lsl #2
 1989              	.LVL231:
 138:Drivers/lvgl/lvgl/src/widgets/lv_btnmatrix.c ****         }
 1990              		.loc 1 138 0
 1991 0120 41E0     		b	.L129
 1992              	.LVL232:
 1993              	.L142:
 146:Drivers/lvgl/lvgl/src/widgets/lv_btnmatrix.c **** 
 1994              		.loc 1 146 0
 1995 0122 0024     		movs	r4, #0
 1996              	.LVL233:
 1997 0124 F2E7     		b	.L130
 1998              	.LVL234:
 1999              	.L132:
 2000              	.LBB132:
 166:Drivers/lvgl/lvgl/src/widgets/lv_btnmatrix.c ****             btn_x2 += pleft;
 2001              		.loc 1 166 0 discriminator 2
 2002 0126 BDF81830 		ldrh	r3, [sp, #24]
 2003 012a 1944     		add	r1, r1, r3
 2004              	.LVL235:
 167:Drivers/lvgl/lvgl/src/widgets/lv_btnmatrix.c **** 
 2005              		.loc 1 167 0 discriminator 2
 2006 012c 0344     		add	r3, r3, r0
 2007              	.LVL236:
 169:Drivers/lvgl/lvgl/src/widgets/lv_btnmatrix.c **** 
 2008              		.loc 1 169 0 discriminator 2
 2009 012e DBF82800 		ldr	r0, [fp, #40]
 2010 0132 059A     		ldr	r2, [sp, #20]
 2011 0134 0092     		str	r2, [sp]
 2012 0136 1BB2     		sxth	r3, r3
 2013 0138 049A     		ldr	r2, [sp, #16]
 2014 013a 09B2     		sxth	r1, r1
 2015 013c 00EBCA00 		add	r0, r0, r10, lsl #3
 2016 0140 FFF7FEFF 		bl	lv_area_set
 2017              	.LVL237:
 2018              	.LBE132:
 150:Drivers/lvgl/lvgl/src/widgets/lv_btnmatrix.c ****             uint32_t btn_u = get_button_width(btnm->ctrl_bits[btn_tot_i]);
 2019              		.loc 1 150 0 discriminator 2
 2020 0144 0137     		adds	r7, r7, #1
 2021              	.LVL238:
 2022 0146 0AF1010A 		add	r10, r10, #1
 2023              	.LVL239:
 2024              	.L131:
 150:Drivers/lvgl/lvgl/src/widgets/lv_btnmatrix.c ****             uint32_t btn_u = get_button_width(btnm->ctrl_bits[btn_tot_i]);
 2025              		.loc 1 150 0 is_stmt 0 discriminator 1
 2026 014a BD42     		cmp	r5, r7
 2027 014c 26D9     		bls	.L143
 2028              	.LBB134:
 151:Drivers/lvgl/lvgl/src/widgets/lv_btnmatrix.c **** 
 2029              		.loc 1 151 0 is_stmt 1
ARM GAS  /tmp/ccpV5owi.s 			page 71


 2030 014e DBF82C30 		ldr	r3, [fp, #44]
 2031 0152 33F81A00 		ldrh	r0, [r3, r10, lsl #1]
 2032 0156 FFF7FEFF 		bl	get_button_width
 2033              	.LVL240:
 153:Drivers/lvgl/lvgl/src/widgets/lv_btnmatrix.c ****             lv_coord_t btn_x2 = (max_w_no_gap * (row_unit_cnt + btn_u)) / unit_cnt + btn * pcol - 1
 2034              		.loc 1 153 0
 2035 015a 08FB04FC 		mul	ip, r8, r4
 2036 015e BCFBF6FC 		udiv	ip, ip, r6
 2037 0162 19FB07F3 		smulbb	r3, r9, r7
 2038 0166 9BB2     		uxth	r3, r3
 2039 0168 9C44     		add	ip, ip, r3
 2040 016a 1FFA8CFC 		uxth	ip, ip
 2041 016e 0FFA8CF1 		sxth	r1, ip
 2042              	.LVL241:
 154:Drivers/lvgl/lvgl/src/widgets/lv_btnmatrix.c **** 
 2043              		.loc 1 154 0
 2044 0172 8044     		add	r8, r8, r0
 2045              	.LVL242:
 2046 0174 08FB04F2 		mul	r2, r8, r4
 2047 0178 B2FBF6F2 		udiv	r2, r2, r6
 2048 017c 1A44     		add	r2, r2, r3
 2049 017e 92B2     		uxth	r2, r2
 2050 0180 013A     		subs	r2, r2, #1
 2051 0182 92B2     		uxth	r2, r2
 2052 0184 10B2     		sxth	r0, r2
 2053              	.LVL243:
 157:Drivers/lvgl/lvgl/src/widgets/lv_btnmatrix.c ****                 lv_coord_t tmp = btn_x1;
 2054              		.loc 1 157 0
 2055 0186 079B     		ldr	r3, [sp, #28]
 2056 0188 012B     		cmp	r3, #1
 2057 018a CCD1     		bne	.L132
 2058              	.LVL244:
 2059              	.LBB133:
 162:Drivers/lvgl/lvgl/src/widgets/lv_btnmatrix.c ****                 btn_x2 = max_w - btn_x2;
 2060              		.loc 1 162 0
 2061 018c 089B     		ldr	r3, [sp, #32]
 2062 018e 991A     		subs	r1, r3, r2
 2063              	.LVL245:
 2064 0190 09B2     		sxth	r1, r1
 2065              	.LVL246:
 163:Drivers/lvgl/lvgl/src/widgets/lv_btnmatrix.c ****             }
 2066              		.loc 1 163 0
 2067 0192 A3EB0C0C 		sub	ip, r3, ip
 2068 0196 0FFA8CF0 		sxth	r0, ip
 2069              	.LVL247:
 2070 019a C4E7     		b	.L132
 2071              	.LVL248:
 2072              	.L143:
 2073 019c DDF82490 		ldr	r9, [sp, #36]
 2074              	.LBE133:
 2075              	.LBE134:
 174:Drivers/lvgl/lvgl/src/widgets/lv_btnmatrix.c ****     }
 2076              		.loc 1 174 0
 2077 01a0 0135     		adds	r5, r5, #1
 2078 01a2 09EB8509 		add	r9, r9, r5, lsl #2
 2079              	.LVL249:
 2080              	.L129:
ARM GAS  /tmp/ccpV5owi.s 			page 72


 2081              	.LBE131:
 126:Drivers/lvgl/lvgl/src/widgets/lv_btnmatrix.c ****         uint16_t unit_cnt = 0;           /*Number of units in a row*/
 2082              		.loc 1 126 0 discriminator 2
 2083 01a6 039B     		ldr	r3, [sp, #12]
 2084 01a8 0133     		adds	r3, r3, #1
 2085 01aa 0393     		str	r3, [sp, #12]
 2086              	.LVL250:
 2087              	.L125:
 126:Drivers/lvgl/lvgl/src/widgets/lv_btnmatrix.c ****         uint16_t unit_cnt = 0;           /*Number of units in a row*/
 2088              		.loc 1 126 0 is_stmt 0 discriminator 1
 2089 01ac BBF83280 		ldrh	r8, [fp, #50]
 2090 01b0 039B     		ldr	r3, [sp, #12]
 2091 01b2 9845     		cmp	r8, r3
 2092 01b4 02D9     		bls	.L144
 2093              	.LBB135:
 128:Drivers/lvgl/lvgl/src/widgets/lv_btnmatrix.c ****         /*Count the buttons and units in this row*/
 2094              		.loc 1 128 0 is_stmt 1
 2095 01b6 0024     		movs	r4, #0
 127:Drivers/lvgl/lvgl/src/widgets/lv_btnmatrix.c ****         uint16_t btn_cnt = 0;            /*Number of buttons in a row*/
 2096              		.loc 1 127 0
 2097 01b8 2646     		mov	r6, r4
 2098 01ba 70E7     		b	.L134
 2099              	.L144:
 2100              	.LBE135:
 179:Drivers/lvgl/lvgl/src/widgets/lv_btnmatrix.c **** 
 2101              		.loc 1 179 0
 2102 01bc 5846     		mov	r0, fp
 2103 01be FFF7FEFF 		bl	lv_obj_refresh_ext_draw_size
 2104              	.LVL251:
 181:Drivers/lvgl/lvgl/src/widgets/lv_btnmatrix.c **** }
 2105              		.loc 1 181 0
 2106 01c2 5846     		mov	r0, fp
 2107 01c4 FFF7FEFF 		bl	lv_obj_invalidate
 2108              	.LVL252:
 182:Drivers/lvgl/lvgl/src/widgets/lv_btnmatrix.c **** 
 2109              		.loc 1 182 0
 2110 01c8 11B0     		add	sp, sp, #68
 2111              	.LCFI20:
 2112              		.cfi_def_cfa_offset 36
 2113              		@ sp needed
 2114 01ca BDE8F08F 		pop	{r4, r5, r6, r7, r8, r9, r10, fp, pc}
 2115              	.LVL253:
 2116              	.L138:
 2117              	.LCFI21:
 2118              		.cfi_def_cfa_offset 0
 2119              		.cfi_restore 4
 2120              		.cfi_restore 5
 2121              		.cfi_restore 6
 2122              		.cfi_restore 7
 2123              		.cfi_restore 8
 2124              		.cfi_restore 9
 2125              		.cfi_restore 10
 2126              		.cfi_restore 11
 2127              		.cfi_restore 14
 2128 01ce 7047     		bx	lr
 2129              	.L146:
 2130              		.align	2
ARM GAS  /tmp/ccpV5owi.s 			page 73


 2131              	.L145:
 2132 01d0 00000000 		.word	.LC0
 2133              		.cfi_endproc
 2134              	.LFE160:
 2136              		.section	.text.lv_btnmatrix_constructor,"ax",%progbits
 2137              		.align	1
 2138              		.syntax unified
 2139              		.thumb
 2140              		.thumb_func
 2141              		.fpu fpv5-d16
 2143              	lv_btnmatrix_constructor:
 2144              	.LFB174:
 357:Drivers/lvgl/lvgl/src/widgets/lv_btnmatrix.c ****     LV_UNUSED(class_p);
 2145              		.loc 1 357 0
 2146              		.cfi_startproc
 2147              		@ args = 0, pretend = 0, frame = 0
 2148              		@ frame_needed = 0, uses_anonymous_args = 0
 2149              	.LVL254:
 2150 0000 08B5     		push	{r3, lr}
 2151              	.LCFI22:
 2152              		.cfi_def_cfa_offset 8
 2153              		.cfi_offset 3, -8
 2154              		.cfi_offset 14, -4
 2155 0002 0846     		mov	r0, r1
 2156              	.LVL255:
 361:Drivers/lvgl/lvgl/src/widgets/lv_btnmatrix.c ****     btnm->row_cnt        = 0;
 2157              		.loc 1 361 0
 2158 0004 0023     		movs	r3, #0
 2159 0006 0B86     		strh	r3, [r1, #48]	@ movhi
 362:Drivers/lvgl/lvgl/src/widgets/lv_btnmatrix.c ****     btnm->btn_id_sel     = LV_BTNMATRIX_BTN_NONE;
 2160              		.loc 1 362 0
 2161 0008 4B86     		strh	r3, [r1, #50]	@ movhi
 363:Drivers/lvgl/lvgl/src/widgets/lv_btnmatrix.c ****     btnm->button_areas   = NULL;
 2162              		.loc 1 363 0
 2163 000a 4FF6FF72 		movw	r2, #65535
 2164 000e 8A86     		strh	r2, [r1, #52]	@ movhi
 364:Drivers/lvgl/lvgl/src/widgets/lv_btnmatrix.c ****     btnm->ctrl_bits      = NULL;
 2165              		.loc 1 364 0
 2166 0010 8B62     		str	r3, [r1, #40]
 365:Drivers/lvgl/lvgl/src/widgets/lv_btnmatrix.c ****     btnm->map_p          = NULL;
 2167              		.loc 1 365 0
 2168 0012 CB62     		str	r3, [r1, #44]
 366:Drivers/lvgl/lvgl/src/widgets/lv_btnmatrix.c ****     btnm->one_check      = 0;
 2169              		.loc 1 366 0
 2170 0014 4B62     		str	r3, [r1, #36]
 367:Drivers/lvgl/lvgl/src/widgets/lv_btnmatrix.c **** 
 2171              		.loc 1 367 0
 2172 0016 91F83620 		ldrb	r2, [r1, #54]	@ zero_extendqisi2
 2173 001a 63F30002 		bfi	r2, r3, #0, #1
 2174 001e 81F83620 		strb	r2, [r1, #54]
 369:Drivers/lvgl/lvgl/src/widgets/lv_btnmatrix.c **** 
 2175              		.loc 1 369 0
 2176 0022 0249     		ldr	r1, .L149
 2177              	.LVL256:
 2178 0024 FFF7FEFF 		bl	lv_btnmatrix_set_map
 2179              	.LVL257:
 372:Drivers/lvgl/lvgl/src/widgets/lv_btnmatrix.c **** 
ARM GAS  /tmp/ccpV5owi.s 			page 74


 2180              		.loc 1 372 0
 2181 0028 08BD     		pop	{r3, pc}
 2182              	.L150:
 2183 002a 00BF     		.align	2
 2184              	.L149:
 2185 002c 00000000 		.word	.LANCHOR1
 2186              		.cfi_endproc
 2187              	.LFE174:
 2189              		.section	.text.lv_btnmatrix_set_ctrl_map,"ax",%progbits
 2190              		.align	1
 2191              		.global	lv_btnmatrix_set_ctrl_map
 2192              		.syntax unified
 2193              		.thumb
 2194              		.thumb_func
 2195              		.fpu fpv5-d16
 2197              	lv_btnmatrix_set_ctrl_map:
 2198              	.LFB161:
 185:Drivers/lvgl/lvgl/src/widgets/lv_btnmatrix.c ****     LV_ASSERT_OBJ(obj, MY_CLASS);
 2199              		.loc 1 185 0
 2200              		.cfi_startproc
 2201              		@ args = 0, pretend = 0, frame = 0
 2202              		@ frame_needed = 0, uses_anonymous_args = 0
 2203              	.LVL258:
 2204 0000 10B5     		push	{r4, lr}
 2205              	.LCFI23:
 2206              		.cfi_def_cfa_offset 8
 2207              		.cfi_offset 4, -8
 2208              		.cfi_offset 14, -4
 2209 0002 0446     		mov	r4, r0
 2210              	.LVL259:
 189:Drivers/lvgl/lvgl/src/widgets/lv_btnmatrix.c **** 
 2211              		.loc 1 189 0
 2212 0004 028E     		ldrh	r2, [r0, #48]
 2213 0006 5200     		lsls	r2, r2, #1
 2214 0008 C06A     		ldr	r0, [r0, #44]
 2215              	.LVL260:
 2216 000a FFF7FEFF 		bl	lv_memcpy
 2217              	.LVL261:
 191:Drivers/lvgl/lvgl/src/widgets/lv_btnmatrix.c **** }
 2218              		.loc 1 191 0
 2219 000e 616A     		ldr	r1, [r4, #36]
 2220 0010 2046     		mov	r0, r4
 2221 0012 FFF7FEFF 		bl	lv_btnmatrix_set_map
 2222              	.LVL262:
 192:Drivers/lvgl/lvgl/src/widgets/lv_btnmatrix.c **** 
 2223              		.loc 1 192 0
 2224 0016 10BD     		pop	{r4, pc}
 2225              		.cfi_endproc
 2226              	.LFE161:
 2228              		.section	.text.lv_btnmatrix_set_selected_btn,"ax",%progbits
 2229              		.align	1
 2230              		.global	lv_btnmatrix_set_selected_btn
 2231              		.syntax unified
 2232              		.thumb
 2233              		.thumb_func
 2234              		.fpu fpv5-d16
 2236              	lv_btnmatrix_set_selected_btn:
ARM GAS  /tmp/ccpV5owi.s 			page 75


 2237              	.LFB162:
 195:Drivers/lvgl/lvgl/src/widgets/lv_btnmatrix.c ****     LV_ASSERT_OBJ(obj, MY_CLASS);
 2238              		.loc 1 195 0
 2239              		.cfi_startproc
 2240              		@ args = 0, pretend = 0, frame = 0
 2241              		@ frame_needed = 0, uses_anonymous_args = 0
 2242              	.LVL263:
 2243 0000 38B5     		push	{r3, r4, r5, lr}
 2244              	.LCFI24:
 2245              		.cfi_def_cfa_offset 16
 2246              		.cfi_offset 3, -16
 2247              		.cfi_offset 4, -12
 2248              		.cfi_offset 5, -8
 2249              		.cfi_offset 14, -4
 2250              	.LVL264:
 200:Drivers/lvgl/lvgl/src/widgets/lv_btnmatrix.c **** 
 2251              		.loc 1 200 0
 2252 0002 038E     		ldrh	r3, [r0, #48]
 2253 0004 8B42     		cmp	r3, r1
 2254 0006 03D8     		bhi	.L154
 200:Drivers/lvgl/lvgl/src/widgets/lv_btnmatrix.c **** 
 2255              		.loc 1 200 0 is_stmt 0 discriminator 1
 2256 0008 4FF6FF73 		movw	r3, #65535
 2257 000c 9942     		cmp	r1, r3
 2258 000e 09D1     		bne	.L153
 2259              	.L154:
 2260 0010 0D46     		mov	r5, r1
 2261 0012 0446     		mov	r4, r0
 202:Drivers/lvgl/lvgl/src/widgets/lv_btnmatrix.c ****     btnm->btn_id_sel = btn_id;
 2262              		.loc 1 202 0 is_stmt 1
 2263 0014 818E     		ldrh	r1, [r0, #52]
 2264              	.LVL265:
 2265 0016 FFF7FEFF 		bl	invalidate_button_area
 2266              	.LVL266:
 203:Drivers/lvgl/lvgl/src/widgets/lv_btnmatrix.c ****     invalidate_button_area(obj, btn_id);
 2267              		.loc 1 203 0
 2268 001a A586     		strh	r5, [r4, #52]	@ movhi
 204:Drivers/lvgl/lvgl/src/widgets/lv_btnmatrix.c **** }
 2269              		.loc 1 204 0
 2270 001c 2946     		mov	r1, r5
 2271 001e 2046     		mov	r0, r4
 2272 0020 FFF7FEFF 		bl	invalidate_button_area
 2273              	.LVL267:
 2274              	.L153:
 205:Drivers/lvgl/lvgl/src/widgets/lv_btnmatrix.c **** 
 2275              		.loc 1 205 0
 2276 0024 38BD     		pop	{r3, r4, r5, pc}
 2277              		.cfi_endproc
 2278              	.LFE162:
 2280              		.section	.text.lv_btnmatrix_clear_btn_ctrl,"ax",%progbits
 2281              		.align	1
 2282              		.global	lv_btnmatrix_clear_btn_ctrl
 2283              		.syntax unified
 2284              		.thumb
 2285              		.thumb_func
 2286              		.fpu fpv5-d16
 2288              	lv_btnmatrix_clear_btn_ctrl:
ARM GAS  /tmp/ccpV5owi.s 			page 76


 2289              	.LFB164:
 228:Drivers/lvgl/lvgl/src/widgets/lv_btnmatrix.c ****     LV_ASSERT_OBJ(obj, MY_CLASS);
 2290              		.loc 1 228 0
 2291              		.cfi_startproc
 2292              		@ args = 0, pretend = 0, frame = 0
 2293              		@ frame_needed = 0, uses_anonymous_args = 0
 2294              	.LVL268:
 2295 0000 38B5     		push	{r3, r4, r5, lr}
 2296              	.LCFI25:
 2297              		.cfi_def_cfa_offset 16
 2298              		.cfi_offset 3, -16
 2299              		.cfi_offset 4, -12
 2300              		.cfi_offset 5, -8
 2301              		.cfi_offset 14, -4
 2302              	.LVL269:
 233:Drivers/lvgl/lvgl/src/widgets/lv_btnmatrix.c **** 
 2303              		.loc 1 233 0
 2304 0002 038E     		ldrh	r3, [r0, #48]
 2305 0004 8B42     		cmp	r3, r1
 2306 0006 00D8     		bhi	.L160
 2307              	.LVL270:
 2308              	.L157:
 241:Drivers/lvgl/lvgl/src/widgets/lv_btnmatrix.c **** 
 2309              		.loc 1 241 0
 2310 0008 38BD     		pop	{r3, r4, r5, pc}
 2311              	.LVL271:
 2312              	.L160:
 2313 000a 1546     		mov	r5, r2
 2314 000c 0446     		mov	r4, r0
 235:Drivers/lvgl/lvgl/src/widgets/lv_btnmatrix.c ****     invalidate_button_area(obj, btn_id);
 2315              		.loc 1 235 0
 2316 000e C26A     		ldr	r2, [r0, #44]
 2317              	.LVL272:
 2318 0010 32F81130 		ldrh	r3, [r2, r1, lsl #1]
 2319 0014 23EA0503 		bic	r3, r3, r5
 2320 0018 22F81130 		strh	r3, [r2, r1, lsl #1]	@ movhi
 236:Drivers/lvgl/lvgl/src/widgets/lv_btnmatrix.c **** 
 2321              		.loc 1 236 0
 2322 001c FFF7FEFF 		bl	invalidate_button_area
 2323              	.LVL273:
 238:Drivers/lvgl/lvgl/src/widgets/lv_btnmatrix.c ****         lv_obj_refresh_ext_draw_size(obj);
 2324              		.loc 1 238 0
 2325 0020 15F4806F 		tst	r5, #1024
 2326 0024 F0D0     		beq	.L157
 239:Drivers/lvgl/lvgl/src/widgets/lv_btnmatrix.c ****     }
 2327              		.loc 1 239 0
 2328 0026 2046     		mov	r0, r4
 2329 0028 FFF7FEFF 		bl	lv_obj_refresh_ext_draw_size
 2330              	.LVL274:
 2331 002c ECE7     		b	.L157
 2332              		.cfi_endproc
 2333              	.LFE164:
 2335              		.section	.text.lv_btnmatrix_clear_btn_ctrl_all,"ax",%progbits
 2336              		.align	1
 2337              		.global	lv_btnmatrix_clear_btn_ctrl_all
 2338              		.syntax unified
 2339              		.thumb
ARM GAS  /tmp/ccpV5owi.s 			page 77


 2340              		.thumb_func
 2341              		.fpu fpv5-d16
 2343              	lv_btnmatrix_clear_btn_ctrl_all:
 2344              	.LFB166:
 255:Drivers/lvgl/lvgl/src/widgets/lv_btnmatrix.c ****     LV_ASSERT_OBJ(obj, MY_CLASS);
 2345              		.loc 1 255 0
 2346              		.cfi_startproc
 2347              		@ args = 0, pretend = 0, frame = 0
 2348              		@ frame_needed = 0, uses_anonymous_args = 0
 2349              	.LVL275:
 2350 0000 70B5     		push	{r4, r5, r6, lr}
 2351              	.LCFI26:
 2352              		.cfi_def_cfa_offset 16
 2353              		.cfi_offset 4, -16
 2354              		.cfi_offset 5, -12
 2355              		.cfi_offset 6, -8
 2356              		.cfi_offset 14, -4
 2357 0002 0546     		mov	r5, r0
 2358 0004 0E46     		mov	r6, r1
 2359              	.LVL276:
 260:Drivers/lvgl/lvgl/src/widgets/lv_btnmatrix.c ****         lv_btnmatrix_clear_btn_ctrl(obj, i, ctrl);
 2360              		.loc 1 260 0
 2361 0006 0024     		movs	r4, #0
 2362 0008 06E0     		b	.L162
 2363              	.LVL277:
 2364              	.L163:
 261:Drivers/lvgl/lvgl/src/widgets/lv_btnmatrix.c ****     }
 2365              		.loc 1 261 0 discriminator 3
 2366 000a 3246     		mov	r2, r6
 2367 000c 2146     		mov	r1, r4
 2368 000e 2846     		mov	r0, r5
 2369 0010 FFF7FEFF 		bl	lv_btnmatrix_clear_btn_ctrl
 2370              	.LVL278:
 260:Drivers/lvgl/lvgl/src/widgets/lv_btnmatrix.c ****         lv_btnmatrix_clear_btn_ctrl(obj, i, ctrl);
 2371              		.loc 1 260 0 discriminator 3
 2372 0014 0134     		adds	r4, r4, #1
 2373              	.LVL279:
 2374 0016 A4B2     		uxth	r4, r4
 2375              	.LVL280:
 2376              	.L162:
 260:Drivers/lvgl/lvgl/src/widgets/lv_btnmatrix.c ****         lv_btnmatrix_clear_btn_ctrl(obj, i, ctrl);
 2377              		.loc 1 260 0 is_stmt 0 discriminator 1
 2378 0018 2B8E     		ldrh	r3, [r5, #48]
 2379 001a A342     		cmp	r3, r4
 2380 001c F5D8     		bhi	.L163
 263:Drivers/lvgl/lvgl/src/widgets/lv_btnmatrix.c **** 
 2381              		.loc 1 263 0 is_stmt 1
 2382 001e 70BD     		pop	{r4, r5, r6, pc}
 2383              		.cfi_endproc
 2384              	.LFE166:
 2386              		.section	.text.lv_btnmatrix_set_btn_ctrl,"ax",%progbits
 2387              		.align	1
 2388              		.global	lv_btnmatrix_set_btn_ctrl
 2389              		.syntax unified
 2390              		.thumb
 2391              		.thumb_func
 2392              		.fpu fpv5-d16
ARM GAS  /tmp/ccpV5owi.s 			page 78


 2394              	lv_btnmatrix_set_btn_ctrl:
 2395              	.LFB163:
 208:Drivers/lvgl/lvgl/src/widgets/lv_btnmatrix.c ****     LV_ASSERT_OBJ(obj, MY_CLASS);
 2396              		.loc 1 208 0
 2397              		.cfi_startproc
 2398              		@ args = 0, pretend = 0, frame = 0
 2399              		@ frame_needed = 0, uses_anonymous_args = 0
 2400              	.LVL281:
 213:Drivers/lvgl/lvgl/src/widgets/lv_btnmatrix.c **** 
 2401              		.loc 1 213 0
 2402 0000 038E     		ldrh	r3, [r0, #48]
 2403 0002 8B42     		cmp	r3, r1
 2404 0004 22D9     		bls	.L169
 208:Drivers/lvgl/lvgl/src/widgets/lv_btnmatrix.c ****     LV_ASSERT_OBJ(obj, MY_CLASS);
 2405              		.loc 1 208 0
 2406 0006 70B5     		push	{r4, r5, r6, lr}
 2407              	.LCFI27:
 2408              		.cfi_def_cfa_offset 16
 2409              		.cfi_offset 4, -16
 2410              		.cfi_offset 5, -12
 2411              		.cfi_offset 6, -8
 2412              		.cfi_offset 14, -4
 2413 0008 1646     		mov	r6, r2
 2414 000a 0D46     		mov	r5, r1
 2415 000c 0446     		mov	r4, r0
 215:Drivers/lvgl/lvgl/src/widgets/lv_btnmatrix.c ****         lv_btnmatrix_clear_btn_ctrl_all(obj, LV_BTNMATRIX_CTRL_CHECKED);
 2416              		.loc 1 215 0
 2417 000e 90F83630 		ldrb	r3, [r0, #54]	@ zero_extendqisi2
 2418 0012 13F0010F 		tst	r3, #1
 2419 0016 02D0     		beq	.L167
 215:Drivers/lvgl/lvgl/src/widgets/lv_btnmatrix.c ****         lv_btnmatrix_clear_btn_ctrl_all(obj, LV_BTNMATRIX_CTRL_CHECKED);
 2420              		.loc 1 215 0 is_stmt 0 discriminator 1
 2421 0018 12F4807F 		tst	r2, #256
 2422 001c 0DD1     		bne	.L172
 2423              	.LVL282:
 2424              	.L167:
 219:Drivers/lvgl/lvgl/src/widgets/lv_btnmatrix.c ****     invalidate_button_area(obj, btn_id);
 2425              		.loc 1 219 0 is_stmt 1
 2426 001e E26A     		ldr	r2, [r4, #44]
 2427 0020 32F81530 		ldrh	r3, [r2, r5, lsl #1]
 2428 0024 3343     		orrs	r3, r3, r6
 2429 0026 22F81530 		strh	r3, [r2, r5, lsl #1]	@ movhi
 220:Drivers/lvgl/lvgl/src/widgets/lv_btnmatrix.c **** 
 2430              		.loc 1 220 0
 2431 002a 2946     		mov	r1, r5
 2432 002c 2046     		mov	r0, r4
 2433 002e FFF7FEFF 		bl	invalidate_button_area
 2434              	.LVL283:
 222:Drivers/lvgl/lvgl/src/widgets/lv_btnmatrix.c ****         lv_obj_refresh_ext_draw_size(obj);
 2435              		.loc 1 222 0
 2436 0032 16F4806F 		tst	r6, #1024
 2437 0036 05D1     		bne	.L173
 2438              	.L165:
 225:Drivers/lvgl/lvgl/src/widgets/lv_btnmatrix.c **** 
 2439              		.loc 1 225 0
 2440 0038 70BD     		pop	{r4, r5, r6, pc}
 2441              	.LVL284:
ARM GAS  /tmp/ccpV5owi.s 			page 79


 2442              	.L172:
 216:Drivers/lvgl/lvgl/src/widgets/lv_btnmatrix.c ****     }
 2443              		.loc 1 216 0
 2444 003a 4FF48071 		mov	r1, #256
 2445              	.LVL285:
 2446 003e FFF7FEFF 		bl	lv_btnmatrix_clear_btn_ctrl_all
 2447              	.LVL286:
 2448 0042 ECE7     		b	.L167
 2449              	.L173:
 223:Drivers/lvgl/lvgl/src/widgets/lv_btnmatrix.c ****     }
 2450              		.loc 1 223 0
 2451 0044 2046     		mov	r0, r4
 2452 0046 FFF7FEFF 		bl	lv_obj_refresh_ext_draw_size
 2453              	.LVL287:
 2454 004a F5E7     		b	.L165
 2455              	.LVL288:
 2456              	.L169:
 2457              	.LCFI28:
 2458              		.cfi_def_cfa_offset 0
 2459              		.cfi_restore 4
 2460              		.cfi_restore 5
 2461              		.cfi_restore 6
 2462              		.cfi_restore 14
 2463 004c 7047     		bx	lr
 2464              		.cfi_endproc
 2465              	.LFE163:
 2467              		.section	.text.lv_btnmatrix_set_btn_ctrl_all,"ax",%progbits
 2468              		.align	1
 2469              		.global	lv_btnmatrix_set_btn_ctrl_all
 2470              		.syntax unified
 2471              		.thumb
 2472              		.thumb_func
 2473              		.fpu fpv5-d16
 2475              	lv_btnmatrix_set_btn_ctrl_all:
 2476              	.LFB165:
 244:Drivers/lvgl/lvgl/src/widgets/lv_btnmatrix.c ****     LV_ASSERT_OBJ(obj, MY_CLASS);
 2477              		.loc 1 244 0
 2478              		.cfi_startproc
 2479              		@ args = 0, pretend = 0, frame = 0
 2480              		@ frame_needed = 0, uses_anonymous_args = 0
 2481              	.LVL289:
 2482 0000 70B5     		push	{r4, r5, r6, lr}
 2483              	.LCFI29:
 2484              		.cfi_def_cfa_offset 16
 2485              		.cfi_offset 4, -16
 2486              		.cfi_offset 5, -12
 2487              		.cfi_offset 6, -8
 2488              		.cfi_offset 14, -4
 2489 0002 0546     		mov	r5, r0
 2490 0004 0E46     		mov	r6, r1
 2491              	.LVL290:
 249:Drivers/lvgl/lvgl/src/widgets/lv_btnmatrix.c ****         lv_btnmatrix_set_btn_ctrl(obj, i, ctrl);
 2492              		.loc 1 249 0
 2493 0006 0024     		movs	r4, #0
 2494 0008 06E0     		b	.L175
 2495              	.LVL291:
 2496              	.L176:
ARM GAS  /tmp/ccpV5owi.s 			page 80


 250:Drivers/lvgl/lvgl/src/widgets/lv_btnmatrix.c ****     }
 2497              		.loc 1 250 0 discriminator 3
 2498 000a 3246     		mov	r2, r6
 2499 000c 2146     		mov	r1, r4
 2500 000e 2846     		mov	r0, r5
 2501 0010 FFF7FEFF 		bl	lv_btnmatrix_set_btn_ctrl
 2502              	.LVL292:
 249:Drivers/lvgl/lvgl/src/widgets/lv_btnmatrix.c ****         lv_btnmatrix_set_btn_ctrl(obj, i, ctrl);
 2503              		.loc 1 249 0 discriminator 3
 2504 0014 0134     		adds	r4, r4, #1
 2505              	.LVL293:
 2506 0016 A4B2     		uxth	r4, r4
 2507              	.LVL294:
 2508              	.L175:
 249:Drivers/lvgl/lvgl/src/widgets/lv_btnmatrix.c ****         lv_btnmatrix_set_btn_ctrl(obj, i, ctrl);
 2509              		.loc 1 249 0 is_stmt 0 discriminator 1
 2510 0018 2B8E     		ldrh	r3, [r5, #48]
 2511 001a A342     		cmp	r3, r4
 2512 001c F5D8     		bhi	.L176
 252:Drivers/lvgl/lvgl/src/widgets/lv_btnmatrix.c **** 
 2513              		.loc 1 252 0 is_stmt 1
 2514 001e 70BD     		pop	{r4, r5, r6, pc}
 2515              		.cfi_endproc
 2516              	.LFE165:
 2518              		.section	.text.lv_btnmatrix_set_btn_width,"ax",%progbits
 2519              		.align	1
 2520              		.global	lv_btnmatrix_set_btn_width
 2521              		.syntax unified
 2522              		.thumb
 2523              		.thumb_func
 2524              		.fpu fpv5-d16
 2526              	lv_btnmatrix_set_btn_width:
 2527              	.LFB167:
 266:Drivers/lvgl/lvgl/src/widgets/lv_btnmatrix.c ****     LV_ASSERT_OBJ(obj, MY_CLASS);
 2528              		.loc 1 266 0
 2529              		.cfi_startproc
 2530              		@ args = 0, pretend = 0, frame = 0
 2531              		@ frame_needed = 0, uses_anonymous_args = 0
 2532              	.LVL295:
 270:Drivers/lvgl/lvgl/src/widgets/lv_btnmatrix.c ****     btnm->ctrl_bits[btn_id] &= (~LV_BTNMATRIX_WIDTH_MASK);
 2533              		.loc 1 270 0
 2534 0000 038E     		ldrh	r3, [r0, #48]
 2535 0002 8B42     		cmp	r3, r1
 2536 0004 00D8     		bhi	.L184
 2537 0006 7047     		bx	lr
 2538              	.L184:
 266:Drivers/lvgl/lvgl/src/widgets/lv_btnmatrix.c ****     LV_ASSERT_OBJ(obj, MY_CLASS);
 2539              		.loc 1 266 0
 2540 0008 10B5     		push	{r4, lr}
 2541              	.LCFI30:
 2542              		.cfi_def_cfa_offset 8
 2543              		.cfi_offset 4, -8
 2544              		.cfi_offset 14, -4
 271:Drivers/lvgl/lvgl/src/widgets/lv_btnmatrix.c ****     btnm->ctrl_bits[btn_id] |= (LV_BTNMATRIX_WIDTH_MASK & width);
 2545              		.loc 1 271 0
 2546 000a C46A     		ldr	r4, [r0, #44]
 2547 000c 34F81130 		ldrh	r3, [r4, r1, lsl #1]
ARM GAS  /tmp/ccpV5owi.s 			page 81


 2548 0010 23F00703 		bic	r3, r3, #7
 2549 0014 24F81130 		strh	r3, [r4, r1, lsl #1]	@ movhi
 272:Drivers/lvgl/lvgl/src/widgets/lv_btnmatrix.c **** 
 2550              		.loc 1 272 0
 2551 0018 C36A     		ldr	r3, [r0, #44]
 2552 001a 02F00702 		and	r2, r2, #7
 2553              	.LVL296:
 2554 001e 33F81140 		ldrh	r4, [r3, r1, lsl #1]
 2555 0022 2243     		orrs	r2, r2, r4
 2556 0024 23F81120 		strh	r2, [r3, r1, lsl #1]	@ movhi
 274:Drivers/lvgl/lvgl/src/widgets/lv_btnmatrix.c **** }
 2557              		.loc 1 274 0
 2558 0028 416A     		ldr	r1, [r0, #36]
 2559              	.LVL297:
 2560 002a FFF7FEFF 		bl	lv_btnmatrix_set_map
 2561              	.LVL298:
 275:Drivers/lvgl/lvgl/src/widgets/lv_btnmatrix.c **** 
 2562              		.loc 1 275 0
 2563 002e 10BD     		pop	{r4, pc}
 2564              		.cfi_endproc
 2565              	.LFE167:
 2567              		.section	.text.lv_btnmatrix_get_map,"ax",%progbits
 2568              		.align	1
 2569              		.global	lv_btnmatrix_get_map
 2570              		.syntax unified
 2571              		.thumb
 2572              		.thumb_func
 2573              		.fpu fpv5-d16
 2575              	lv_btnmatrix_get_map:
 2576              	.LFB169:
 293:Drivers/lvgl/lvgl/src/widgets/lv_btnmatrix.c ****     LV_ASSERT_OBJ(obj, MY_CLASS);
 2577              		.loc 1 293 0
 2578              		.cfi_startproc
 2579              		@ args = 0, pretend = 0, frame = 0
 2580              		@ frame_needed = 0, uses_anonymous_args = 0
 2581              		@ link register save eliminated.
 2582              	.LVL299:
 298:Drivers/lvgl/lvgl/src/widgets/lv_btnmatrix.c **** 
 2583              		.loc 1 298 0
 2584 0000 406A     		ldr	r0, [r0, #36]
 2585              	.LVL300:
 2586 0002 7047     		bx	lr
 2587              		.cfi_endproc
 2588              	.LFE169:
 2590              		.section	.text.lv_btnmatrix_get_selected_btn,"ax",%progbits
 2591              		.align	1
 2592              		.global	lv_btnmatrix_get_selected_btn
 2593              		.syntax unified
 2594              		.thumb
 2595              		.thumb_func
 2596              		.fpu fpv5-d16
 2598              	lv_btnmatrix_get_selected_btn:
 2599              	.LFB170:
 301:Drivers/lvgl/lvgl/src/widgets/lv_btnmatrix.c ****     LV_ASSERT_OBJ(obj, MY_CLASS);
 2600              		.loc 1 301 0
 2601              		.cfi_startproc
 2602              		@ args = 0, pretend = 0, frame = 0
ARM GAS  /tmp/ccpV5owi.s 			page 82


 2603              		@ frame_needed = 0, uses_anonymous_args = 0
 2604              		@ link register save eliminated.
 2605              	.LVL301:
 306:Drivers/lvgl/lvgl/src/widgets/lv_btnmatrix.c **** 
 2606              		.loc 1 306 0
 2607 0000 808E     		ldrh	r0, [r0, #52]
 2608              	.LVL302:
 2609 0002 7047     		bx	lr
 2610              		.cfi_endproc
 2611              	.LFE170:
 2613              		.section	.text.lv_btnmatrix_get_btn_text,"ax",%progbits
 2614              		.align	1
 2615              		.global	lv_btnmatrix_get_btn_text
 2616              		.syntax unified
 2617              		.thumb
 2618              		.thumb_func
 2619              		.fpu fpv5-d16
 2621              	lv_btnmatrix_get_btn_text:
 2622              	.LFB171:
 309:Drivers/lvgl/lvgl/src/widgets/lv_btnmatrix.c ****     LV_ASSERT_OBJ(obj, MY_CLASS);
 2623              		.loc 1 309 0
 2624              		.cfi_startproc
 2625              		@ args = 0, pretend = 0, frame = 0
 2626              		@ frame_needed = 0, uses_anonymous_args = 0
 2627              	.LVL303:
 2628 0000 2DE9F843 		push	{r3, r4, r5, r6, r7, r8, r9, lr}
 2629              	.LCFI31:
 2630              		.cfi_def_cfa_offset 32
 2631              		.cfi_offset 3, -32
 2632              		.cfi_offset 4, -28
 2633              		.cfi_offset 5, -24
 2634              		.cfi_offset 6, -20
 2635              		.cfi_offset 7, -16
 2636              		.cfi_offset 8, -12
 2637              		.cfi_offset 9, -8
 2638              		.cfi_offset 14, -4
 312:Drivers/lvgl/lvgl/src/widgets/lv_btnmatrix.c **** 
 2639              		.loc 1 312 0
 2640 0004 4FF6FF73 		movw	r3, #65535
 2641 0008 9942     		cmp	r1, r3
 2642 000a 23D0     		beq	.L192
 2643              	.LVL304:
 315:Drivers/lvgl/lvgl/src/widgets/lv_btnmatrix.c **** 
 2644              		.loc 1 315 0
 2645 000c B0F83090 		ldrh	r9, [r0, #48]
 2646 0010 8945     		cmp	r9, r1
 2647 0012 21D3     		bcc	.L193
 2648 0014 0F46     		mov	r7, r1
 2649 0016 8046     		mov	r8, r0
 318:Drivers/lvgl/lvgl/src/widgets/lv_btnmatrix.c **** 
 2650              		.loc 1 318 0
 2651 0018 0025     		movs	r5, #0
 317:Drivers/lvgl/lvgl/src/widgets/lv_btnmatrix.c ****     uint16_t btn_i = 0;
 2652              		.loc 1 317 0
 2653 001a 2E46     		mov	r6, r5
 2654 001c 00E0     		b	.L189
 2655              	.LVL305:
ARM GAS  /tmp/ccpV5owi.s 			page 83


 2656              	.L190:
 309:Drivers/lvgl/lvgl/src/widgets/lv_btnmatrix.c ****     LV_ASSERT_OBJ(obj, MY_CLASS);
 2657              		.loc 1 309 0
 2658 001e 2646     		mov	r6, r4
 2659              	.LVL306:
 2660              	.L189:
 322:Drivers/lvgl/lvgl/src/widgets/lv_btnmatrix.c ****         btn_i++;
 2661              		.loc 1 322 0
 2662 0020 BD42     		cmp	r5, r7
 2663 0022 0FD0     		beq	.L196
 323:Drivers/lvgl/lvgl/src/widgets/lv_btnmatrix.c ****         txt_i++;
 2664              		.loc 1 323 0
 2665 0024 0135     		adds	r5, r5, #1
 2666              	.LVL307:
 2667 0026 ADB2     		uxth	r5, r5
 2668              	.LVL308:
 324:Drivers/lvgl/lvgl/src/widgets/lv_btnmatrix.c ****         if(strcmp(btnm->map_p[txt_i], "\n") == 0) txt_i++;
 2669              		.loc 1 324 0
 2670 0028 741C     		adds	r4, r6, #1
 2671 002a A4B2     		uxth	r4, r4
 2672              	.LVL309:
 325:Drivers/lvgl/lvgl/src/widgets/lv_btnmatrix.c ****     }
 2673              		.loc 1 325 0
 2674 002c D8F82430 		ldr	r3, [r8, #36]
 2675 0030 0B49     		ldr	r1, .L197
 2676 0032 53F82400 		ldr	r0, [r3, r4, lsl #2]
 2677 0036 FFF7FEFF 		bl	strcmp
 2678              	.LVL310:
 2679 003a 0028     		cmp	r0, #0
 2680 003c EFD1     		bne	.L190
 325:Drivers/lvgl/lvgl/src/widgets/lv_btnmatrix.c ****     }
 2681              		.loc 1 325 0 is_stmt 0 discriminator 1
 2682 003e B41C     		adds	r4, r6, #2
 2683              	.LVL311:
 2684 0040 A4B2     		uxth	r4, r4
 2685              	.LVL312:
 2686 0042 ECE7     		b	.L190
 2687              	.LVL313:
 2688              	.L196:
 328:Drivers/lvgl/lvgl/src/widgets/lv_btnmatrix.c **** 
 2689              		.loc 1 328 0 is_stmt 1
 2690 0044 A945     		cmp	r9, r5
 2691 0046 09D0     		beq	.L194
 330:Drivers/lvgl/lvgl/src/widgets/lv_btnmatrix.c **** }
 2692              		.loc 1 330 0
 2693 0048 D8F82430 		ldr	r3, [r8, #36]
 2694 004c 53F82600 		ldr	r0, [r3, r6, lsl #2]
 2695              	.LVL314:
 2696              	.L187:
 331:Drivers/lvgl/lvgl/src/widgets/lv_btnmatrix.c **** 
 2697              		.loc 1 331 0
 2698 0050 BDE8F883 		pop	{r3, r4, r5, r6, r7, r8, r9, pc}
 2699              	.LVL315:
 2700              	.L192:
 312:Drivers/lvgl/lvgl/src/widgets/lv_btnmatrix.c **** 
 2701              		.loc 1 312 0
 2702 0054 0020     		movs	r0, #0
ARM GAS  /tmp/ccpV5owi.s 			page 84


 2703              	.LVL316:
 2704 0056 FBE7     		b	.L187
 2705              	.LVL317:
 2706              	.L193:
 315:Drivers/lvgl/lvgl/src/widgets/lv_btnmatrix.c **** 
 2707              		.loc 1 315 0
 2708 0058 0020     		movs	r0, #0
 2709              	.LVL318:
 2710 005a F9E7     		b	.L187
 2711              	.LVL319:
 2712              	.L194:
 328:Drivers/lvgl/lvgl/src/widgets/lv_btnmatrix.c **** 
 2713              		.loc 1 328 0
 2714 005c 0020     		movs	r0, #0
 2715 005e F7E7     		b	.L187
 2716              	.L198:
 2717              		.align	2
 2718              	.L197:
 2719 0060 00000000 		.word	.LC0
 2720              		.cfi_endproc
 2721              	.LFE171:
 2723              		.section	.text.lv_btnmatrix_has_btn_ctrl,"ax",%progbits
 2724              		.align	1
 2725              		.global	lv_btnmatrix_has_btn_ctrl
 2726              		.syntax unified
 2727              		.thumb
 2728              		.thumb_func
 2729              		.fpu fpv5-d16
 2731              	lv_btnmatrix_has_btn_ctrl:
 2732              	.LFB172:
 334:Drivers/lvgl/lvgl/src/widgets/lv_btnmatrix.c ****     LV_ASSERT_OBJ(obj, MY_CLASS);
 2733              		.loc 1 334 0
 2734              		.cfi_startproc
 2735              		@ args = 0, pretend = 0, frame = 0
 2736              		@ frame_needed = 0, uses_anonymous_args = 0
 2737              		@ link register save eliminated.
 2738              	.LVL320:
 338:Drivers/lvgl/lvgl/src/widgets/lv_btnmatrix.c **** 
 2739              		.loc 1 338 0
 2740 0000 038E     		ldrh	r3, [r0, #48]
 2741 0002 8B42     		cmp	r3, r1
 2742 0004 08D9     		bls	.L201
 340:Drivers/lvgl/lvgl/src/widgets/lv_btnmatrix.c **** }
 2743              		.loc 1 340 0
 2744 0006 C36A     		ldr	r3, [r0, #44]
 2745 0008 33F81130 		ldrh	r3, [r3, r1, lsl #1]
 2746 000c 32EA0303 		bics	r3, r2, r3
 2747 0010 0CBF     		ite	eq
 2748 0012 0120     		moveq	r0, #1
 2749              	.LVL321:
 2750 0014 0020     		movne	r0, #0
 2751 0016 7047     		bx	lr
 2752              	.LVL322:
 2753              	.L201:
 338:Drivers/lvgl/lvgl/src/widgets/lv_btnmatrix.c **** 
 2754              		.loc 1 338 0
 2755 0018 0020     		movs	r0, #0
ARM GAS  /tmp/ccpV5owi.s 			page 85


 2756              	.LVL323:
 341:Drivers/lvgl/lvgl/src/widgets/lv_btnmatrix.c **** 
 2757              		.loc 1 341 0
 2758 001a 7047     		bx	lr
 2759              		.cfi_endproc
 2760              	.LFE172:
 2762              		.section	.text.make_one_button_checked,"ax",%progbits
 2763              		.align	1
 2764              		.syntax unified
 2765              		.thumb
 2766              		.thumb_func
 2767              		.fpu fpv5-d16
 2769              	make_one_button_checked:
 2770              	.LFB191:
1013:Drivers/lvgl/lvgl/src/widgets/lv_btnmatrix.c ****     /*Save whether the button was toggled*/
 2771              		.loc 1 1013 0
 2772              		.cfi_startproc
 2773              		@ args = 0, pretend = 0, frame = 0
 2774              		@ frame_needed = 0, uses_anonymous_args = 0
 2775              	.LVL324:
 2776 0000 70B5     		push	{r4, r5, r6, lr}
 2777              	.LCFI32:
 2778              		.cfi_def_cfa_offset 16
 2779              		.cfi_offset 4, -16
 2780              		.cfi_offset 5, -12
 2781              		.cfi_offset 6, -8
 2782              		.cfi_offset 14, -4
 2783 0002 0446     		mov	r4, r0
 2784 0004 0E46     		mov	r6, r1
1015:Drivers/lvgl/lvgl/src/widgets/lv_btnmatrix.c **** 
 2785              		.loc 1 1015 0
 2786 0006 4FF48072 		mov	r2, #256
 2787 000a FFF7FEFF 		bl	lv_btnmatrix_has_btn_ctrl
 2788              	.LVL325:
 2789 000e 0546     		mov	r5, r0
 2790              	.LVL326:
1017:Drivers/lvgl/lvgl/src/widgets/lv_btnmatrix.c **** 
 2791              		.loc 1 1017 0
 2792 0010 4FF48071 		mov	r1, #256
 2793 0014 2046     		mov	r0, r4
 2794 0016 FFF7FEFF 		bl	lv_btnmatrix_clear_btn_ctrl_all
 2795              	.LVL327:
1019:Drivers/lvgl/lvgl/src/widgets/lv_btnmatrix.c **** }
 2796              		.loc 1 1019 0
 2797 001a 05B9     		cbnz	r5, .L205
 2798              	.L202:
1020:Drivers/lvgl/lvgl/src/widgets/lv_btnmatrix.c **** 
 2799              		.loc 1 1020 0
 2800 001c 70BD     		pop	{r4, r5, r6, pc}
 2801              	.LVL328:
 2802              	.L205:
1019:Drivers/lvgl/lvgl/src/widgets/lv_btnmatrix.c **** }
 2803              		.loc 1 1019 0 discriminator 1
 2804 001e 4FF48072 		mov	r2, #256
 2805 0022 3146     		mov	r1, r6
 2806 0024 2046     		mov	r0, r4
 2807 0026 FFF7FEFF 		bl	lv_btnmatrix_set_btn_ctrl
ARM GAS  /tmp/ccpV5owi.s 			page 86


 2808              	.LVL329:
1020:Drivers/lvgl/lvgl/src/widgets/lv_btnmatrix.c **** 
 2809              		.loc 1 1020 0 discriminator 1
 2810 002a F7E7     		b	.L202
 2811              		.cfi_endproc
 2812              	.LFE191:
 2814              		.section	.text.lv_btnmatrix_event,"ax",%progbits
 2815              		.align	1
 2816              		.syntax unified
 2817              		.thumb
 2818              		.thumb_func
 2819              		.fpu fpv5-d16
 2821              	lv_btnmatrix_event:
 2822              	.LFB176:
 387:Drivers/lvgl/lvgl/src/widgets/lv_btnmatrix.c ****     LV_UNUSED(class_p);
 2823              		.loc 1 387 0
 2824              		.cfi_startproc
 2825              		@ args = 0, pretend = 0, frame = 8
 2826              		@ frame_needed = 0, uses_anonymous_args = 0
 2827              	.LVL330:
 2828 0000 2DE9F04F 		push	{r4, r5, r6, r7, r8, r9, r10, fp, lr}
 2829              	.LCFI33:
 2830              		.cfi_def_cfa_offset 36
 2831              		.cfi_offset 4, -36
 2832              		.cfi_offset 5, -32
 2833              		.cfi_offset 6, -28
 2834              		.cfi_offset 7, -24
 2835              		.cfi_offset 8, -20
 2836              		.cfi_offset 9, -16
 2837              		.cfi_offset 10, -12
 2838              		.cfi_offset 11, -8
 2839              		.cfi_offset 14, -4
 2840 0004 83B0     		sub	sp, sp, #12
 2841              	.LCFI34:
 2842              		.cfi_def_cfa_offset 48
 2843 0006 0C46     		mov	r4, r1
 393:Drivers/lvgl/lvgl/src/widgets/lv_btnmatrix.c ****     if(res != LV_RES_OK) return;
 2844              		.loc 1 393 0
 2845 0008 BC48     		ldr	r0, .L306
 2846              	.LVL331:
 2847 000a FFF7FEFF 		bl	lv_obj_event_base
 2848              	.LVL332:
 394:Drivers/lvgl/lvgl/src/widgets/lv_btnmatrix.c **** 
 2849              		.loc 1 394 0
 2850 000e 0128     		cmp	r0, #1
 2851 0010 02D0     		beq	.L278
 2852              	.LVL333:
 2853              	.L206:
 644:Drivers/lvgl/lvgl/src/widgets/lv_btnmatrix.c **** 
 2854              		.loc 1 644 0
 2855 0012 03B0     		add	sp, sp, #12
 2856              	.LCFI35:
 2857              		.cfi_remember_state
 2858              		.cfi_def_cfa_offset 36
 2859              		@ sp needed
 2860 0014 BDE8F08F 		pop	{r4, r5, r6, r7, r8, r9, r10, fp, pc}
 2861              	.LVL334:
ARM GAS  /tmp/ccpV5owi.s 			page 87


 2862              	.L278:
 2863              	.LCFI36:
 2864              		.cfi_restore_state
 396:Drivers/lvgl/lvgl/src/widgets/lv_btnmatrix.c ****     lv_obj_t * obj = lv_event_get_target(e);
 2865              		.loc 1 396 0
 2866 0018 2046     		mov	r0, r4
 2867              	.LVL335:
 2868 001a FFF7FEFF 		bl	lv_event_get_code
 2869              	.LVL336:
 2870 001e 0546     		mov	r5, r0
 2871              	.LVL337:
 397:Drivers/lvgl/lvgl/src/widgets/lv_btnmatrix.c ****     lv_btnmatrix_t * btnm = (lv_btnmatrix_t *)obj;
 2872              		.loc 1 397 0
 2873 0020 2046     		mov	r0, r4
 2874 0022 FFF7FEFF 		bl	lv_event_get_target
 2875              	.LVL338:
 2876 0026 0646     		mov	r6, r0
 2877              	.LVL339:
 401:Drivers/lvgl/lvgl/src/widgets/lv_btnmatrix.c ****         if(has_popovers_in_top_row(obj)) {
 2878              		.loc 1 401 0
 2879 0028 132D     		cmp	r5, #19
 2880 002a 23D0     		beq	.L279
 2881              	.LVL340:
 2882              	.L208:
 408:Drivers/lvgl/lvgl/src/widgets/lv_btnmatrix.c ****         lv_btnmatrix_set_map(obj, btnm->map_p);
 2883              		.loc 1 408 0
 2884 002c 2A2D     		cmp	r5, #42
 2885 002e 34D0     		beq	.L280
 411:Drivers/lvgl/lvgl/src/widgets/lv_btnmatrix.c ****         lv_btnmatrix_set_map(obj, btnm->map_p);
 2886              		.loc 1 411 0
 2887 0030 292D     		cmp	r5, #41
 2888 0032 37D0     		beq	.L281
 414:Drivers/lvgl/lvgl/src/widgets/lv_btnmatrix.c ****         void * param = lv_event_get_param(e);
 2889              		.loc 1 414 0
 2890 0034 012D     		cmp	r5, #1
 2891 0036 3AD0     		beq	.L282
 445:Drivers/lvgl/lvgl/src/widgets/lv_btnmatrix.c ****         void * param = lv_event_get_param(e);
 2892              		.loc 1 445 0
 2893 0038 022D     		cmp	r5, #2
 2894 003a 00F08C80 		beq	.L283
 478:Drivers/lvgl/lvgl/src/widgets/lv_btnmatrix.c ****         if(btnm->btn_id_sel != LV_BTNMATRIX_BTN_NONE) {
 2895              		.loc 1 478 0
 2896 003e 082D     		cmp	r5, #8
 2897 0040 00F0E080 		beq	.L284
 507:Drivers/lvgl/lvgl/src/widgets/lv_btnmatrix.c ****         if(btnm->btn_id_sel != LV_BTNMATRIX_BTN_NONE) {
 2898              		.loc 1 507 0
 2899 0044 062D     		cmp	r5, #6
 2900 0046 00F02D81 		beq	.L285
 518:Drivers/lvgl/lvgl/src/widgets/lv_btnmatrix.c ****         invalidate_button_area(obj, btnm->btn_id_sel);
 2901              		.loc 1 518 0
 2902 004a 032D     		cmp	r5, #3
 2903 004c 00F04D81 		beq	.L286
 522:Drivers/lvgl/lvgl/src/widgets/lv_btnmatrix.c ****         lv_indev_t * indev = lv_event_get_param(e);
 2904              		.loc 1 522 0
 2905 0050 0E2D     		cmp	r5, #14
 2906 0052 00F05581 		beq	.L287
 552:Drivers/lvgl/lvgl/src/widgets/lv_btnmatrix.c ****         if(btnm->btn_id_sel != LV_BTNMATRIX_BTN_NONE) invalidate_button_area(obj, btnm->btn_id_sel)
ARM GAS  /tmp/ccpV5owi.s 			page 88


 2907              		.loc 1 552 0
 2908 0056 A5F10F03 		sub	r3, r5, #15
 2909 005a DBB2     		uxtb	r3, r3
 2910 005c 012B     		cmp	r3, #1
 2911 005e 40F2A381 		bls	.L288
 556:Drivers/lvgl/lvgl/src/widgets/lv_btnmatrix.c **** 
 2912              		.loc 1 556 0
 2913 0062 0D2D     		cmp	r5, #13
 2914 0064 00F0AD81 		beq	.L289
 640:Drivers/lvgl/lvgl/src/widgets/lv_btnmatrix.c ****         draw_main(e);
 2915              		.loc 1 640 0
 2916 0068 152D     		cmp	r5, #21
 2917 006a D2D1     		bne	.L206
 641:Drivers/lvgl/lvgl/src/widgets/lv_btnmatrix.c ****     }
 2918              		.loc 1 641 0
 2919 006c 2046     		mov	r0, r4
 2920 006e FFF7FEFF 		bl	draw_main
 2921              	.LVL341:
 2922 0072 CEE7     		b	.L206
 2923              	.LVL342:
 2924              	.L279:
 402:Drivers/lvgl/lvgl/src/widgets/lv_btnmatrix.c ****             /*reserve one row worth of extra space to account for popovers in the top row*/
 2925              		.loc 1 402 0
 2926 0074 FFF7FEFF 		bl	has_popovers_in_top_row
 2927              	.LVL343:
 2928 0078 0028     		cmp	r0, #0
 2929 007a D7D0     		beq	.L208
 2930              	.LBB136:
 404:Drivers/lvgl/lvgl/src/widgets/lv_btnmatrix.c ****             lv_event_set_ext_draw_size(e, s);
 2931              		.loc 1 404 0
 2932 007c 738E     		ldrh	r3, [r6, #50]
 2933 007e 23B9     		cbnz	r3, .L290
 2934 0080 0021     		movs	r1, #0
 2935              	.L209:
 2936              	.LVL344:
 405:Drivers/lvgl/lvgl/src/widgets/lv_btnmatrix.c ****         }
 2937              		.loc 1 405 0 discriminator 4
 2938 0082 2046     		mov	r0, r4
 2939 0084 FFF7FEFF 		bl	lv_event_set_ext_draw_size
 2940              	.LVL345:
 2941 0088 D0E7     		b	.L208
 2942              	.L290:
 404:Drivers/lvgl/lvgl/src/widgets/lv_btnmatrix.c ****             lv_event_set_ext_draw_size(e, s);
 2943              		.loc 1 404 0 discriminator 1
 2944 008a 3046     		mov	r0, r6
 2945 008c FFF7FEFF 		bl	lv_obj_get_content_height
 2946              	.LVL346:
 2947 0090 738E     		ldrh	r3, [r6, #50]
 2948 0092 90FBF3F3 		sdiv	r3, r0, r3
 2949 0096 19B2     		sxth	r1, r3
 2950 0098 F3E7     		b	.L209
 2951              	.L280:
 2952              	.LBE136:
 409:Drivers/lvgl/lvgl/src/widgets/lv_btnmatrix.c ****     }
 2953              		.loc 1 409 0
 2954 009a 716A     		ldr	r1, [r6, #36]
 2955 009c 3046     		mov	r0, r6
ARM GAS  /tmp/ccpV5owi.s 			page 89


 2956 009e FFF7FEFF 		bl	lv_btnmatrix_set_map
 2957              	.LVL347:
 2958 00a2 B6E7     		b	.L206
 2959              	.L281:
 412:Drivers/lvgl/lvgl/src/widgets/lv_btnmatrix.c ****     }
 2960              		.loc 1 412 0
 2961 00a4 716A     		ldr	r1, [r6, #36]
 2962 00a6 3046     		mov	r0, r6
 2963 00a8 FFF7FEFF 		bl	lv_btnmatrix_set_map
 2964              	.LVL348:
 2965 00ac B1E7     		b	.L206
 2966              	.L282:
 2967              	.LBB137:
 415:Drivers/lvgl/lvgl/src/widgets/lv_btnmatrix.c ****         invalidate_button_area(obj, btnm->btn_id_sel);
 2968              		.loc 1 415 0
 2969 00ae 2046     		mov	r0, r4
 2970 00b0 FFF7FEFF 		bl	lv_event_get_param
 2971              	.LVL349:
 2972 00b4 0446     		mov	r4, r0
 2973              	.LVL350:
 416:Drivers/lvgl/lvgl/src/widgets/lv_btnmatrix.c **** 
 2974              		.loc 1 416 0
 2975 00b6 B18E     		ldrh	r1, [r6, #52]
 2976 00b8 3046     		mov	r0, r6
 2977              	.LVL351:
 2978 00ba FFF7FEFF 		bl	invalidate_button_area
 2979              	.LVL352:
 418:Drivers/lvgl/lvgl/src/widgets/lv_btnmatrix.c ****         if(indev_type == LV_INDEV_TYPE_POINTER || indev_type == LV_INDEV_TYPE_BUTTON) {
 2980              		.loc 1 418 0
 2981 00be FFF7FEFF 		bl	lv_indev_get_act
 2982              	.LVL353:
 2983 00c2 FFF7FEFF 		bl	lv_indev_get_type
 2984              	.LVL354:
 419:Drivers/lvgl/lvgl/src/widgets/lv_btnmatrix.c ****             uint16_t btn_pr;
 2985              		.loc 1 419 0
 2986 00c6 0328     		cmp	r0, #3
 2987 00c8 18BF     		it	ne
 2988 00ca 0128     		cmpne	r0, #1
 2989 00cc 23D0     		beq	.L291
 2990              	.LVL355:
 2991              	.L214:
 434:Drivers/lvgl/lvgl/src/widgets/lv_btnmatrix.c ****             if(button_is_click_trig(btnm->ctrl_bits[btnm->btn_id_sel]) == false &&
 2992              		.loc 1 434 0
 2993 00ce B48E     		ldrh	r4, [r6, #52]
 2994 00d0 4FF6FF73 		movw	r3, #65535
 2995 00d4 9C42     		cmp	r4, r3
 2996 00d6 9CD0     		beq	.L206
 435:Drivers/lvgl/lvgl/src/widgets/lv_btnmatrix.c ****                button_is_popover(btnm->ctrl_bits[btnm->btn_id_sel]) == false &&
 2997              		.loc 1 435 0
 2998 00d8 F36A     		ldr	r3, [r6, #44]
 2999 00da 33F81450 		ldrh	r5, [r3, r4, lsl #1]
 3000 00de 2846     		mov	r0, r5
 3001 00e0 FFF7FEFF 		bl	button_is_click_trig
 3002              	.LVL356:
 3003 00e4 0028     		cmp	r0, #0
 3004 00e6 94D1     		bne	.L206
 436:Drivers/lvgl/lvgl/src/widgets/lv_btnmatrix.c ****                button_is_inactive(btnm->ctrl_bits[btnm->btn_id_sel]) == false &&
ARM GAS  /tmp/ccpV5owi.s 			page 90


 3005              		.loc 1 436 0 discriminator 1
 3006 00e8 2846     		mov	r0, r5
 3007 00ea FFF7FEFF 		bl	button_is_popover
 3008              	.LVL357:
 435:Drivers/lvgl/lvgl/src/widgets/lv_btnmatrix.c ****                button_is_popover(btnm->ctrl_bits[btnm->btn_id_sel]) == false &&
 3009              		.loc 1 435 0 discriminator 1
 3010 00ee 0028     		cmp	r0, #0
 3011 00f0 8FD1     		bne	.L206
 437:Drivers/lvgl/lvgl/src/widgets/lv_btnmatrix.c ****                button_is_hidden(btnm->ctrl_bits[btnm->btn_id_sel]) == false) {
 3012              		.loc 1 437 0
 3013 00f2 2846     		mov	r0, r5
 3014 00f4 FFF7FEFF 		bl	button_is_inactive
 3015              	.LVL358:
 436:Drivers/lvgl/lvgl/src/widgets/lv_btnmatrix.c ****                button_is_inactive(btnm->ctrl_bits[btnm->btn_id_sel]) == false &&
 3016              		.loc 1 436 0
 3017 00f8 0028     		cmp	r0, #0
 3018 00fa 8AD1     		bne	.L206
 438:Drivers/lvgl/lvgl/src/widgets/lv_btnmatrix.c ****                 uint32_t b = btnm->btn_id_sel;
 3019              		.loc 1 438 0
 3020 00fc 2846     		mov	r0, r5
 3021 00fe FFF7FEFF 		bl	button_is_hidden
 3022              	.LVL359:
 437:Drivers/lvgl/lvgl/src/widgets/lv_btnmatrix.c ****                button_is_hidden(btnm->ctrl_bits[btnm->btn_id_sel]) == false) {
 3023              		.loc 1 437 0
 3024 0102 0028     		cmp	r0, #0
 3025 0104 85D1     		bne	.L206
 3026              	.LBB138:
 439:Drivers/lvgl/lvgl/src/widgets/lv_btnmatrix.c ****                 res        = lv_event_send(obj, LV_EVENT_VALUE_CHANGED, &b);
 3027              		.loc 1 439 0
 3028 0106 02AA     		add	r2, sp, #8
 3029 0108 42F8084D 		str	r4, [r2, #-8]!
 440:Drivers/lvgl/lvgl/src/widgets/lv_btnmatrix.c ****                 if(res != LV_RES_OK) return;
 3030              		.loc 1 440 0
 3031 010c 1C21     		movs	r1, #28
 3032 010e 3046     		mov	r0, r6
 3033 0110 FFF7FEFF 		bl	lv_event_send
 3034              	.LVL360:
 3035 0114 7DE7     		b	.L206
 3036              	.LVL361:
 3037              	.L291:
 3038              	.LBE138:
 3039              	.LBB139:
 422:Drivers/lvgl/lvgl/src/widgets/lv_btnmatrix.c ****             btn_pr = get_button_from_point(obj, &p);
 3040              		.loc 1 422 0
 3041 0116 01A9     		add	r1, sp, #4
 3042 0118 2046     		mov	r0, r4
 3043              	.LVL362:
 3044 011a FFF7FEFF 		bl	lv_indev_get_point
 3045              	.LVL363:
 423:Drivers/lvgl/lvgl/src/widgets/lv_btnmatrix.c ****             /*Handle the case where there is no button there*/
 3046              		.loc 1 423 0
 3047 011e 01A9     		add	r1, sp, #4
 3048 0120 3046     		mov	r0, r6
 3049 0122 FFF7FEFF 		bl	get_button_from_point
 3050              	.LVL364:
 3051 0126 0446     		mov	r4, r0
 3052              	.LVL365:
ARM GAS  /tmp/ccpV5owi.s 			page 91


 425:Drivers/lvgl/lvgl/src/widgets/lv_btnmatrix.c ****                 if(button_is_inactive(btnm->ctrl_bits[btn_pr]) == false &&
 3053              		.loc 1 425 0
 3054 0128 4FF6FF73 		movw	r3, #65535
 3055 012c 9842     		cmp	r0, r3
 3056 012e CED0     		beq	.L214
 426:Drivers/lvgl/lvgl/src/widgets/lv_btnmatrix.c ****                    button_is_hidden(btnm->ctrl_bits[btn_pr]) == false) {
 3057              		.loc 1 426 0
 3058 0130 F36A     		ldr	r3, [r6, #44]
 3059 0132 33F81050 		ldrh	r5, [r3, r0, lsl #1]
 3060              	.LVL366:
 3061 0136 2846     		mov	r0, r5
 3062              	.LVL367:
 3063 0138 FFF7FEFF 		bl	button_is_inactive
 3064              	.LVL368:
 3065 013c 0028     		cmp	r0, #0
 3066 013e C6D1     		bne	.L214
 427:Drivers/lvgl/lvgl/src/widgets/lv_btnmatrix.c ****                     btnm->btn_id_sel = btn_pr;
 3067              		.loc 1 427 0 discriminator 1
 3068 0140 2846     		mov	r0, r5
 3069 0142 FFF7FEFF 		bl	button_is_hidden
 3070              	.LVL369:
 426:Drivers/lvgl/lvgl/src/widgets/lv_btnmatrix.c ****                    button_is_hidden(btnm->ctrl_bits[btn_pr]) == false) {
 3071              		.loc 1 426 0 discriminator 1
 3072 0146 0028     		cmp	r0, #0
 3073 0148 C1D1     		bne	.L214
 428:Drivers/lvgl/lvgl/src/widgets/lv_btnmatrix.c ****                     invalidate_button_area(obj, btnm->btn_id_sel); /*Invalidate the new area*/
 3074              		.loc 1 428 0
 3075 014a B486     		strh	r4, [r6, #52]	@ movhi
 429:Drivers/lvgl/lvgl/src/widgets/lv_btnmatrix.c ****                 }
 3076              		.loc 1 429 0
 3077 014c 2146     		mov	r1, r4
 3078 014e 3046     		mov	r0, r6
 3079 0150 FFF7FEFF 		bl	invalidate_button_area
 3080              	.LVL370:
 3081 0154 BBE7     		b	.L214
 3082              	.LVL371:
 3083              	.L283:
 3084              	.LBE139:
 3085              	.LBE137:
 3086              	.LBB140:
 446:Drivers/lvgl/lvgl/src/widgets/lv_btnmatrix.c ****         uint16_t btn_pr = LV_BTNMATRIX_BTN_NONE;
 3087              		.loc 1 446 0
 3088 0156 2046     		mov	r0, r4
 3089 0158 FFF7FEFF 		bl	lv_event_get_param
 3090              	.LVL372:
 3091 015c 0546     		mov	r5, r0
 3092              	.LVL373:
 449:Drivers/lvgl/lvgl/src/widgets/lv_btnmatrix.c ****         lv_indev_type_t indev_type = lv_indev_get_type(indev);
 3093              		.loc 1 449 0
 3094 015e FFF7FEFF 		bl	lv_indev_get_act
 3095              	.LVL374:
 3096 0162 0446     		mov	r4, r0
 3097              	.LVL375:
 450:Drivers/lvgl/lvgl/src/widgets/lv_btnmatrix.c ****         if(indev_type == LV_INDEV_TYPE_ENCODER || indev_type == LV_INDEV_TYPE_KEYPAD) return;
 3098              		.loc 1 450 0
 3099 0164 FFF7FEFF 		bl	lv_indev_get_type
 3100              	.LVL376:
ARM GAS  /tmp/ccpV5owi.s 			page 92


 451:Drivers/lvgl/lvgl/src/widgets/lv_btnmatrix.c **** 
 3101              		.loc 1 451 0
 3102 0168 0228     		cmp	r0, #2
 3103 016a 18BF     		it	ne
 3104 016c 0428     		cmpne	r0, #4
 3105 016e 3FF450AF 		beq	.L206
 453:Drivers/lvgl/lvgl/src/widgets/lv_btnmatrix.c ****         btn_pr = get_button_from_point(obj, &p);
 3106              		.loc 1 453 0
 3107 0172 01A9     		add	r1, sp, #4
 3108 0174 2046     		mov	r0, r4
 3109              	.LVL377:
 3110 0176 FFF7FEFF 		bl	lv_indev_get_point
 3111              	.LVL378:
 454:Drivers/lvgl/lvgl/src/widgets/lv_btnmatrix.c ****         /*Invalidate to old and the new areas*/
 3112              		.loc 1 454 0
 3113 017a 01A9     		add	r1, sp, #4
 3114 017c 3046     		mov	r0, r6
 3115 017e FFF7FEFF 		bl	get_button_from_point
 3116              	.LVL379:
 3117 0182 0446     		mov	r4, r0
 3118              	.LVL380:
 456:Drivers/lvgl/lvgl/src/widgets/lv_btnmatrix.c ****             if(btnm->btn_id_sel != LV_BTNMATRIX_BTN_NONE) {
 3119              		.loc 1 456 0
 3120 0184 B18E     		ldrh	r1, [r6, #52]
 3121 0186 8142     		cmp	r1, r0
 3122 0188 3FF443AF 		beq	.L206
 457:Drivers/lvgl/lvgl/src/widgets/lv_btnmatrix.c ****                 invalidate_button_area(obj, btnm->btn_id_sel);
 3123              		.loc 1 457 0
 3124 018c 4FF6FF73 		movw	r3, #65535
 3125 0190 9942     		cmp	r1, r3
 3126 0192 33D1     		bne	.L292
 3127              	.LVL381:
 3128              	.L217:
 461:Drivers/lvgl/lvgl/src/widgets/lv_btnmatrix.c **** 
 3129              		.loc 1 461 0
 3130 0194 B486     		strh	r4, [r6, #52]	@ movhi
 463:Drivers/lvgl/lvgl/src/widgets/lv_btnmatrix.c ****             if(btn_pr != LV_BTNMATRIX_BTN_NONE &&
 3131              		.loc 1 463 0
 3132 0196 2846     		mov	r0, r5
 3133 0198 FFF7FEFF 		bl	lv_indev_reset_long_press
 3134              	.LVL382:
 464:Drivers/lvgl/lvgl/src/widgets/lv_btnmatrix.c ****                button_is_inactive(btnm->ctrl_bits[btn_pr]) == false &&
 3135              		.loc 1 464 0
 3136 019c 4FF6FF73 		movw	r3, #65535
 3137 01a0 9C42     		cmp	r4, r3
 3138 01a2 3FF436AF 		beq	.L206
 465:Drivers/lvgl/lvgl/src/widgets/lv_btnmatrix.c ****                button_is_hidden(btnm->ctrl_bits[btn_pr]) == false) {
 3139              		.loc 1 465 0 discriminator 1
 3140 01a6 F36A     		ldr	r3, [r6, #44]
 3141 01a8 33F81450 		ldrh	r5, [r3, r4, lsl #1]
 3142              	.LVL383:
 3143 01ac 2846     		mov	r0, r5
 3144 01ae FFF7FEFF 		bl	button_is_inactive
 3145              	.LVL384:
 464:Drivers/lvgl/lvgl/src/widgets/lv_btnmatrix.c ****                button_is_inactive(btnm->ctrl_bits[btn_pr]) == false &&
 3146              		.loc 1 464 0 discriminator 1
 3147 01b2 0028     		cmp	r0, #0
ARM GAS  /tmp/ccpV5owi.s 			page 93


 3148 01b4 7FF42DAF 		bne	.L206
 466:Drivers/lvgl/lvgl/src/widgets/lv_btnmatrix.c ****                 invalidate_button_area(obj, btn_pr);
 3149              		.loc 1 466 0
 3150 01b8 2846     		mov	r0, r5
 3151 01ba FFF7FEFF 		bl	button_is_hidden
 3152              	.LVL385:
 465:Drivers/lvgl/lvgl/src/widgets/lv_btnmatrix.c ****                button_is_hidden(btnm->ctrl_bits[btn_pr]) == false) {
 3153              		.loc 1 465 0
 3154 01be 0028     		cmp	r0, #0
 3155 01c0 7FF427AF 		bne	.L206
 467:Drivers/lvgl/lvgl/src/widgets/lv_btnmatrix.c ****                 /*Send VALUE_CHANGED for the newly pressed button*/
 3156              		.loc 1 467 0
 3157 01c4 2146     		mov	r1, r4
 3158 01c6 3046     		mov	r0, r6
 3159 01c8 FFF7FEFF 		bl	invalidate_button_area
 3160              	.LVL386:
 469:Drivers/lvgl/lvgl/src/widgets/lv_btnmatrix.c ****                    button_is_popover(btnm->ctrl_bits[btnm->btn_id_sel]) == false) {
 3161              		.loc 1 469 0
 3162 01cc F56A     		ldr	r5, [r6, #44]
 3163 01ce 35F81400 		ldrh	r0, [r5, r4, lsl #1]
 3164 01d2 FFF7FEFF 		bl	button_is_click_trig
 3165              	.LVL387:
 3166 01d6 0028     		cmp	r0, #0
 3167 01d8 7FF41BAF 		bne	.L206
 470:Drivers/lvgl/lvgl/src/widgets/lv_btnmatrix.c ****                     uint32_t b = btn_pr;
 3168              		.loc 1 470 0 discriminator 1
 3169 01dc B38E     		ldrh	r3, [r6, #52]
 3170 01de 35F81300 		ldrh	r0, [r5, r3, lsl #1]
 3171 01e2 FFF7FEFF 		bl	button_is_popover
 3172              	.LVL388:
 469:Drivers/lvgl/lvgl/src/widgets/lv_btnmatrix.c ****                    button_is_popover(btnm->ctrl_bits[btnm->btn_id_sel]) == false) {
 3173              		.loc 1 469 0 discriminator 1
 3174 01e6 0028     		cmp	r0, #0
 3175 01e8 7FF413AF 		bne	.L206
 3176              	.LBB141:
 471:Drivers/lvgl/lvgl/src/widgets/lv_btnmatrix.c ****                     res = lv_event_send(obj, LV_EVENT_VALUE_CHANGED, &b);
 3177              		.loc 1 471 0
 3178 01ec 02AA     		add	r2, sp, #8
 3179 01ee 42F8084D 		str	r4, [r2, #-8]!
 472:Drivers/lvgl/lvgl/src/widgets/lv_btnmatrix.c ****                     if(res != LV_RES_OK) return;
 3180              		.loc 1 472 0
 3181 01f2 1C21     		movs	r1, #28
 3182 01f4 3046     		mov	r0, r6
 3183 01f6 FFF7FEFF 		bl	lv_event_send
 3184              	.LVL389:
 3185 01fa 0AE7     		b	.L206
 3186              	.LVL390:
 3187              	.L292:
 3188              	.LBE141:
 458:Drivers/lvgl/lvgl/src/widgets/lv_btnmatrix.c ****             }
 3189              		.loc 1 458 0
 3190 01fc 3046     		mov	r0, r6
 3191              	.LVL391:
 3192 01fe FFF7FEFF 		bl	invalidate_button_area
 3193              	.LVL392:
 3194 0202 C7E7     		b	.L217
 3195              	.LVL393:
ARM GAS  /tmp/ccpV5owi.s 			page 94


 3196              	.L284:
 3197              	.LBE140:
 479:Drivers/lvgl/lvgl/src/widgets/lv_btnmatrix.c ****             /*Toggle the button if enabled*/
 3198              		.loc 1 479 0
 3199 0204 B48E     		ldrh	r4, [r6, #52]
 3200              	.LVL394:
 3201 0206 4FF6FF73 		movw	r3, #65535
 3202 020a 9C42     		cmp	r4, r3
 3203 020c 35D0     		beq	.L220
 481:Drivers/lvgl/lvgl/src/widgets/lv_btnmatrix.c ****                !button_is_inactive(btnm->ctrl_bits[btnm->btn_id_sel])) {
 3204              		.loc 1 481 0
 3205 020e F76A     		ldr	r7, [r6, #44]
 3206 0210 37F81450 		ldrh	r5, [r7, r4, lsl #1]
 3207              	.LVL395:
 3208 0214 2846     		mov	r0, r5
 3209 0216 FFF7FEFF 		bl	button_is_checkable
 3210              	.LVL396:
 3211 021a D0B1     		cbz	r0, .L221
 482:Drivers/lvgl/lvgl/src/widgets/lv_btnmatrix.c ****                 if(button_get_checked(btnm->ctrl_bits[btnm->btn_id_sel]) && !btnm->one_check) {
 3212              		.loc 1 482 0 discriminator 1
 3213 021c 2846     		mov	r0, r5
 3214 021e FFF7FEFF 		bl	button_is_inactive
 3215              	.LVL397:
 481:Drivers/lvgl/lvgl/src/widgets/lv_btnmatrix.c ****                !button_is_inactive(btnm->ctrl_bits[btnm->btn_id_sel])) {
 3216              		.loc 1 481 0 discriminator 1
 3217 0222 B0B9     		cbnz	r0, .L221
 483:Drivers/lvgl/lvgl/src/widgets/lv_btnmatrix.c ****                     btnm->ctrl_bits[btnm->btn_id_sel] &= (~LV_BTNMATRIX_CTRL_CHECKED);
 3218              		.loc 1 483 0
 3219 0224 2846     		mov	r0, r5
 3220 0226 FFF7FEFF 		bl	button_get_checked
 3221              	.LVL398:
 3222 022a 48B1     		cbz	r0, .L222
 483:Drivers/lvgl/lvgl/src/widgets/lv_btnmatrix.c ****                     btnm->ctrl_bits[btnm->btn_id_sel] &= (~LV_BTNMATRIX_CTRL_CHECKED);
 3223              		.loc 1 483 0 is_stmt 0 discriminator 1
 3224 022c 96F83630 		ldrb	r3, [r6, #54]	@ zero_extendqisi2
 3225 0230 13F0010F 		tst	r3, #1
 3226 0234 04D1     		bne	.L222
 484:Drivers/lvgl/lvgl/src/widgets/lv_btnmatrix.c ****                 }
 3227              		.loc 1 484 0 is_stmt 1
 3228 0236 25F48075 		bic	r5, r5, #256
 3229 023a 27F81450 		strh	r5, [r7, r4, lsl #1]	@ movhi
 3230 023e 03E0     		b	.L223
 3231              	.L222:
 487:Drivers/lvgl/lvgl/src/widgets/lv_btnmatrix.c ****                 }
 3232              		.loc 1 487 0
 3233 0240 45F48075 		orr	r5, r5, #256
 3234 0244 27F81450 		strh	r5, [r7, r4, lsl #1]	@ movhi
 3235              	.L223:
 489:Drivers/lvgl/lvgl/src/widgets/lv_btnmatrix.c ****             }
 3236              		.loc 1 489 0
 3237 0248 96F83630 		ldrb	r3, [r6, #54]	@ zero_extendqisi2
 3238 024c 13F0010F 		tst	r3, #1
 3239 0250 18D1     		bne	.L293
 3240              	.L221:
 493:Drivers/lvgl/lvgl/src/widgets/lv_btnmatrix.c ****                 button_is_popover(btnm->ctrl_bits[btnm->btn_id_sel]) == true) &&
 3241              		.loc 1 493 0
 3242 0252 F36A     		ldr	r3, [r6, #44]
ARM GAS  /tmp/ccpV5owi.s 			page 95


 3243 0254 B58E     		ldrh	r5, [r6, #52]
 3244 0256 33F81540 		ldrh	r4, [r3, r5, lsl #1]
 3245 025a 2046     		mov	r0, r4
 3246 025c FFF7FEFF 		bl	button_is_click_trig
 3247              	.LVL399:
 3248 0260 18B9     		cbnz	r0, .L224
 494:Drivers/lvgl/lvgl/src/widgets/lv_btnmatrix.c ****                button_is_inactive(btnm->ctrl_bits[btnm->btn_id_sel]) == false &&
 3249              		.loc 1 494 0 discriminator 1
 3250 0262 2046     		mov	r0, r4
 3251 0264 FFF7FEFF 		bl	button_is_popover
 3252              	.LVL400:
 493:Drivers/lvgl/lvgl/src/widgets/lv_btnmatrix.c ****                 button_is_popover(btnm->ctrl_bits[btnm->btn_id_sel]) == true) &&
 3253              		.loc 1 493 0 discriminator 1
 3254 0268 38B1     		cbz	r0, .L220
 3255              	.L224:
 495:Drivers/lvgl/lvgl/src/widgets/lv_btnmatrix.c ****                button_is_hidden(btnm->ctrl_bits[btnm->btn_id_sel]) == false) {
 3256              		.loc 1 495 0
 3257 026a 2046     		mov	r0, r4
 3258 026c FFF7FEFF 		bl	button_is_inactive
 3259              	.LVL401:
 494:Drivers/lvgl/lvgl/src/widgets/lv_btnmatrix.c ****                button_is_inactive(btnm->ctrl_bits[btnm->btn_id_sel]) == false &&
 3260              		.loc 1 494 0
 3261 0270 18B9     		cbnz	r0, .L220
 496:Drivers/lvgl/lvgl/src/widgets/lv_btnmatrix.c ****                 uint32_t b = btnm->btn_id_sel;
 3262              		.loc 1 496 0
 3263 0272 2046     		mov	r0, r4
 3264 0274 FFF7FEFF 		bl	button_is_hidden
 3265              	.LVL402:
 495:Drivers/lvgl/lvgl/src/widgets/lv_btnmatrix.c ****                button_is_hidden(btnm->ctrl_bits[btnm->btn_id_sel]) == false) {
 3266              		.loc 1 495 0
 3267 0278 48B1     		cbz	r0, .L294
 3268              	.L220:
 504:Drivers/lvgl/lvgl/src/widgets/lv_btnmatrix.c **** 
 3269              		.loc 1 504 0
 3270 027a B18E     		ldrh	r1, [r6, #52]
 3271 027c 3046     		mov	r0, r6
 3272 027e FFF7FEFF 		bl	invalidate_button_area
 3273              	.LVL403:
 3274 0282 C6E6     		b	.L206
 3275              	.L293:
 489:Drivers/lvgl/lvgl/src/widgets/lv_btnmatrix.c ****             }
 3276              		.loc 1 489 0 discriminator 1
 3277 0284 B18E     		ldrh	r1, [r6, #52]
 3278 0286 3046     		mov	r0, r6
 3279 0288 FFF7FEFF 		bl	make_one_button_checked
 3280              	.LVL404:
 3281 028c E1E7     		b	.L221
 3282              	.L294:
 3283              	.LBB142:
 497:Drivers/lvgl/lvgl/src/widgets/lv_btnmatrix.c ****                 res        = lv_event_send(obj, LV_EVENT_VALUE_CHANGED, &b);
 3284              		.loc 1 497 0
 3285 028e 02AA     		add	r2, sp, #8
 3286 0290 42F8085D 		str	r5, [r2, #-8]!
 498:Drivers/lvgl/lvgl/src/widgets/lv_btnmatrix.c ****                 if(res != LV_RES_OK) return;
 3287              		.loc 1 498 0
 3288 0294 1C21     		movs	r1, #28
 3289 0296 3046     		mov	r0, r6
ARM GAS  /tmp/ccpV5owi.s 			page 96


 3290 0298 FFF7FEFF 		bl	lv_event_send
 3291              	.LVL405:
 499:Drivers/lvgl/lvgl/src/widgets/lv_btnmatrix.c ****             }
 3292              		.loc 1 499 0
 3293 029c 0128     		cmp	r0, #1
 3294 029e 7FF4B8AE 		bne	.L206
 3295 02a2 EAE7     		b	.L220
 3296              	.LVL406:
 3297              	.L285:
 3298              	.LBE142:
 508:Drivers/lvgl/lvgl/src/widgets/lv_btnmatrix.c ****             if(button_is_repeat_disabled(btnm->ctrl_bits[btnm->btn_id_sel]) == false &&
 3299              		.loc 1 508 0
 3300 02a4 B48E     		ldrh	r4, [r6, #52]
 3301              	.LVL407:
 3302 02a6 4FF6FF73 		movw	r3, #65535
 3303 02aa 9C42     		cmp	r4, r3
 3304 02ac 3FF4B1AE 		beq	.L206
 509:Drivers/lvgl/lvgl/src/widgets/lv_btnmatrix.c ****                button_is_inactive(btnm->ctrl_bits[btnm->btn_id_sel]) == false &&
 3305              		.loc 1 509 0
 3306 02b0 F36A     		ldr	r3, [r6, #44]
 3307 02b2 33F81450 		ldrh	r5, [r3, r4, lsl #1]
 3308              	.LVL408:
 3309 02b6 2846     		mov	r0, r5
 3310 02b8 FFF7FEFF 		bl	button_is_repeat_disabled
 3311              	.LVL409:
 3312 02bc 0028     		cmp	r0, #0
 3313 02be 7FF4A8AE 		bne	.L206
 510:Drivers/lvgl/lvgl/src/widgets/lv_btnmatrix.c ****                button_is_hidden(btnm->ctrl_bits[btnm->btn_id_sel]) == false) {
 3314              		.loc 1 510 0 discriminator 1
 3315 02c2 2846     		mov	r0, r5
 3316 02c4 FFF7FEFF 		bl	button_is_inactive
 3317              	.LVL410:
 509:Drivers/lvgl/lvgl/src/widgets/lv_btnmatrix.c ****                button_is_inactive(btnm->ctrl_bits[btnm->btn_id_sel]) == false &&
 3318              		.loc 1 509 0 discriminator 1
 3319 02c8 0028     		cmp	r0, #0
 3320 02ca 7FF4A2AE 		bne	.L206
 511:Drivers/lvgl/lvgl/src/widgets/lv_btnmatrix.c ****                 uint32_t b = btnm->btn_id_sel;
 3321              		.loc 1 511 0
 3322 02ce 2846     		mov	r0, r5
 3323 02d0 FFF7FEFF 		bl	button_is_hidden
 3324              	.LVL411:
 510:Drivers/lvgl/lvgl/src/widgets/lv_btnmatrix.c ****                button_is_hidden(btnm->ctrl_bits[btnm->btn_id_sel]) == false) {
 3325              		.loc 1 510 0
 3326 02d4 0028     		cmp	r0, #0
 3327 02d6 7FF49CAE 		bne	.L206
 3328              	.LBB143:
 512:Drivers/lvgl/lvgl/src/widgets/lv_btnmatrix.c ****                 res        = lv_event_send(obj, LV_EVENT_VALUE_CHANGED, &b);
 3329              		.loc 1 512 0
 3330 02da 02AA     		add	r2, sp, #8
 3331 02dc 42F8084D 		str	r4, [r2, #-8]!
 513:Drivers/lvgl/lvgl/src/widgets/lv_btnmatrix.c ****                 if(res != LV_RES_OK) return;
 3332              		.loc 1 513 0
 3333 02e0 1C21     		movs	r1, #28
 3334 02e2 3046     		mov	r0, r6
 3335 02e4 FFF7FEFF 		bl	lv_event_send
 3336              	.LVL412:
 3337 02e8 93E6     		b	.L206
ARM GAS  /tmp/ccpV5owi.s 			page 97


 3338              	.LVL413:
 3339              	.L286:
 3340              	.LBE143:
 519:Drivers/lvgl/lvgl/src/widgets/lv_btnmatrix.c ****         btnm->btn_id_sel = LV_BTNMATRIX_BTN_NONE;
 3341              		.loc 1 519 0
 3342 02ea B18E     		ldrh	r1, [r6, #52]
 3343 02ec 3046     		mov	r0, r6
 3344 02ee FFF7FEFF 		bl	invalidate_button_area
 3345              	.LVL414:
 520:Drivers/lvgl/lvgl/src/widgets/lv_btnmatrix.c ****     }
 3346              		.loc 1 520 0
 3347 02f2 4FF6FF73 		movw	r3, #65535
 3348 02f6 B386     		strh	r3, [r6, #52]	@ movhi
 3349 02f8 8BE6     		b	.L206
 3350              	.L307:
 3351 02fa 00BF     		.align	2
 3352              	.L306:
 3353 02fc 00000000 		.word	.LANCHOR0
 3354              	.L287:
 3355              	.LBB144:
 523:Drivers/lvgl/lvgl/src/widgets/lv_btnmatrix.c ****         lv_indev_type_t indev_type = lv_indev_get_type(indev);
 3356              		.loc 1 523 0
 3357 0300 2046     		mov	r0, r4
 3358 0302 FFF7FEFF 		bl	lv_event_get_param
 3359              	.LVL415:
 3360 0306 0446     		mov	r4, r0
 3361              	.LVL416:
 524:Drivers/lvgl/lvgl/src/widgets/lv_btnmatrix.c **** 
 3362              		.loc 1 524 0
 3363 0308 FFF7FEFF 		bl	lv_indev_get_type
 3364              	.LVL417:
 3365 030c 0546     		mov	r5, r0
 3366              	.LVL418:
 527:Drivers/lvgl/lvgl/src/widgets/lv_btnmatrix.c ****             indev = lv_indev_get_next(NULL);
 3367              		.loc 1 527 0
 3368 030e D4B1     		cbz	r4, .L295
 3369              	.LVL419:
 3370              	.L230:
 532:Drivers/lvgl/lvgl/src/widgets/lv_btnmatrix.c ****         /*Focus the first button if there is not selected button*/
 3371              		.loc 1 532 0
 3372 0310 3046     		mov	r0, r6
 3373 0312 FFF7FEFF 		bl	lv_obj_get_group
 3374              	.LVL420:
 3375 0316 FFF7FEFF 		bl	lv_group_get_editing
 3376              	.LVL421:
 534:Drivers/lvgl/lvgl/src/widgets/lv_btnmatrix.c ****             if(indev_type == LV_INDEV_TYPE_KEYPAD || (indev_type == LV_INDEV_TYPE_ENCODER && editin
 3377              		.loc 1 534 0
 3378 031a B28E     		ldrh	r2, [r6, #52]
 3379 031c 4FF6FF73 		movw	r3, #65535
 3380 0320 9A42     		cmp	r2, r3
 3381 0322 7FF476AE 		bne	.L206
 535:Drivers/lvgl/lvgl/src/widgets/lv_btnmatrix.c ****                 uint32_t b = 0;
 3382              		.loc 1 535 0
 3383 0326 022D     		cmp	r5, #2
 3384 0328 06D0     		beq	.L231
 535:Drivers/lvgl/lvgl/src/widgets/lv_btnmatrix.c ****                 uint32_t b = 0;
 3385              		.loc 1 535 0 is_stmt 0 discriminator 1
ARM GAS  /tmp/ccpV5owi.s 			page 98


 3386 032a 042D     		cmp	r5, #4
 3387 032c 14BF     		ite	ne
 3388 032e 0020     		movne	r0, #0
 3389 0330 00F00100 		andeq	r0, r0, #1
 3390              	.LVL422:
 3391 0334 0028     		cmp	r0, #0
 3392 0336 33D0     		beq	.L232
 3393              	.L231:
 3394              	.LVL423:
 3395              	.LBB145:
 537:Drivers/lvgl/lvgl/src/widgets/lv_btnmatrix.c ****                     while(button_is_hidden(btnm->ctrl_bits[b]) || button_is_inactive(btnm->ctrl_bit
 3396              		.loc 1 537 0 is_stmt 1
 3397 0338 96F83630 		ldrb	r3, [r6, #54]	@ zero_extendqisi2
 3398 033c 13F0010F 		tst	r3, #1
 3399 0340 1DD1     		bne	.L276
 536:Drivers/lvgl/lvgl/src/widgets/lv_btnmatrix.c ****                 if(btnm->one_check) {
 3400              		.loc 1 536 0
 3401 0342 0024     		movs	r4, #0
 3402 0344 1EE0     		b	.L234
 3403              	.LVL424:
 3404              	.L295:
 3405              	.LBE145:
 528:Drivers/lvgl/lvgl/src/widgets/lv_btnmatrix.c ****             indev_type = lv_indev_get_type(indev);
 3406              		.loc 1 528 0
 3407 0346 0020     		movs	r0, #0
 3408 0348 FFF7FEFF 		bl	lv_indev_get_next
 3409              	.LVL425:
 529:Drivers/lvgl/lvgl/src/widgets/lv_btnmatrix.c ****         }
 3410              		.loc 1 529 0
 3411 034c FFF7FEFF 		bl	lv_indev_get_type
 3412              	.LVL426:
 3413 0350 0546     		mov	r5, r0
 3414              	.LVL427:
 3415 0352 DDE7     		b	.L230
 3416              	.LVL428:
 3417              	.L235:
 3418              	.LBB146:
 539:Drivers/lvgl/lvgl/src/widgets/lv_btnmatrix.c ****                 }
 3419              		.loc 1 539 0
 3420 0354 0134     		adds	r4, r4, #1
 3421              	.LVL429:
 3422              	.L233:
 538:Drivers/lvgl/lvgl/src/widgets/lv_btnmatrix.c ****                           button_is_checked(btnm->ctrl_bits[b]) == false) b++;
 3423              		.loc 1 538 0
 3424 0356 F36A     		ldr	r3, [r6, #44]
 3425 0358 33F81450 		ldrh	r5, [r3, r4, lsl #1]
 3426 035c 2846     		mov	r0, r5
 3427 035e FFF7FEFF 		bl	button_is_hidden
 3428              	.LVL430:
 3429 0362 0028     		cmp	r0, #0
 3430 0364 F6D1     		bne	.L235
 538:Drivers/lvgl/lvgl/src/widgets/lv_btnmatrix.c ****                           button_is_checked(btnm->ctrl_bits[b]) == false) b++;
 3431              		.loc 1 538 0 is_stmt 0 discriminator 1
 3432 0366 2846     		mov	r0, r5
 3433 0368 FFF7FEFF 		bl	button_is_inactive
 3434              	.LVL431:
 3435 036c 0028     		cmp	r0, #0
ARM GAS  /tmp/ccpV5owi.s 			page 99


 3436 036e F1D1     		bne	.L235
 539:Drivers/lvgl/lvgl/src/widgets/lv_btnmatrix.c ****                 }
 3437              		.loc 1 539 0 is_stmt 1 discriminator 2
 3438 0370 2846     		mov	r0, r5
 3439 0372 FFF7FEFF 		bl	button_is_checked
 3440              	.LVL432:
 538:Drivers/lvgl/lvgl/src/widgets/lv_btnmatrix.c ****                           button_is_checked(btnm->ctrl_bits[b]) == false) b++;
 3441              		.loc 1 538 0 discriminator 2
 3442 0376 0028     		cmp	r0, #0
 3443 0378 ECD0     		beq	.L235
 3444              	.L236:
 545:Drivers/lvgl/lvgl/src/widgets/lv_btnmatrix.c ****             }
 3445              		.loc 1 545 0
 3446 037a B486     		strh	r4, [r6, #52]	@ movhi
 3447              	.LBE146:
 535:Drivers/lvgl/lvgl/src/widgets/lv_btnmatrix.c ****                 uint32_t b = 0;
 3448              		.loc 1 535 0
 3449 037c 49E6     		b	.L206
 3450              	.LVL433:
 3451              	.L276:
 3452              	.LBB147:
 536:Drivers/lvgl/lvgl/src/widgets/lv_btnmatrix.c ****                 if(btnm->one_check) {
 3453              		.loc 1 536 0
 3454 037e 0024     		movs	r4, #0
 3455 0380 E9E7     		b	.L233
 3456              	.LVL434:
 3457              	.L237:
 542:Drivers/lvgl/lvgl/src/widgets/lv_btnmatrix.c ****                 }
 3458              		.loc 1 542 0 discriminator 4
 3459 0382 0134     		adds	r4, r4, #1
 3460              	.LVL435:
 3461              	.L234:
 542:Drivers/lvgl/lvgl/src/widgets/lv_btnmatrix.c ****                 }
 3462              		.loc 1 542 0 is_stmt 0 discriminator 1
 3463 0384 F36A     		ldr	r3, [r6, #44]
 3464 0386 33F81450 		ldrh	r5, [r3, r4, lsl #1]
 3465 038a 2846     		mov	r0, r5
 3466 038c FFF7FEFF 		bl	button_is_hidden
 3467              	.LVL436:
 3468 0390 0028     		cmp	r0, #0
 3469 0392 F6D1     		bne	.L237
 542:Drivers/lvgl/lvgl/src/widgets/lv_btnmatrix.c ****                 }
 3470              		.loc 1 542 0 discriminator 3
 3471 0394 2846     		mov	r0, r5
 3472 0396 FFF7FEFF 		bl	button_is_inactive
 3473              	.LVL437:
 3474 039a 0028     		cmp	r0, #0
 3475 039c F1D1     		bne	.L237
 3476 039e ECE7     		b	.L236
 3477              	.LVL438:
 3478              	.L232:
 3479              	.LBE147:
 548:Drivers/lvgl/lvgl/src/widgets/lv_btnmatrix.c ****             }
 3480              		.loc 1 548 0 is_stmt 1
 3481 03a0 4FF6FF73 		movw	r3, #65535
 3482 03a4 B386     		strh	r3, [r6, #52]	@ movhi
 3483 03a6 34E6     		b	.L206
ARM GAS  /tmp/ccpV5owi.s 			page 100


 3484              	.LVL439:
 3485              	.L288:
 3486              	.LBE144:
 553:Drivers/lvgl/lvgl/src/widgets/lv_btnmatrix.c ****         btnm->btn_id_sel = LV_BTNMATRIX_BTN_NONE;
 3487              		.loc 1 553 0
 3488 03a8 B18E     		ldrh	r1, [r6, #52]
 3489 03aa 4FF6FF73 		movw	r3, #65535
 3490 03ae 9942     		cmp	r1, r3
 3491 03b0 03D1     		bne	.L296
 3492              	.L239:
 554:Drivers/lvgl/lvgl/src/widgets/lv_btnmatrix.c ****     }
 3493              		.loc 1 554 0
 3494 03b2 4FF6FF73 		movw	r3, #65535
 3495 03b6 B386     		strh	r3, [r6, #52]	@ movhi
 3496 03b8 2BE6     		b	.L206
 3497              	.L296:
 553:Drivers/lvgl/lvgl/src/widgets/lv_btnmatrix.c ****         btnm->btn_id_sel = LV_BTNMATRIX_BTN_NONE;
 3498              		.loc 1 553 0 discriminator 1
 3499 03ba 3046     		mov	r0, r6
 3500 03bc FFF7FEFF 		bl	invalidate_button_area
 3501              	.LVL440:
 3502 03c0 F7E7     		b	.L239
 3503              	.L289:
 3504              	.LBB148:
 558:Drivers/lvgl/lvgl/src/widgets/lv_btnmatrix.c **** 
 3505              		.loc 1 558 0
 3506 03c2 B18E     		ldrh	r1, [r6, #52]
 3507 03c4 3046     		mov	r0, r6
 3508 03c6 FFF7FEFF 		bl	invalidate_button_area
 3509              	.LVL441:
 560:Drivers/lvgl/lvgl/src/widgets/lv_btnmatrix.c ****         if(c == LV_KEY_RIGHT) {
 3510              		.loc 1 560 0
 3511 03ca 2046     		mov	r0, r4
 3512 03cc FFF7FEFF 		bl	lv_event_get_param
 3513              	.LVL442:
 3514 03d0 0378     		ldrb	r3, [r0]	@ zero_extendqisi2
 3515              	.LVL443:
 561:Drivers/lvgl/lvgl/src/widgets/lv_btnmatrix.c ****             if(btnm->btn_id_sel == LV_BTNMATRIX_BTN_NONE)  btnm->btn_id_sel = 0;
 3516              		.loc 1 561 0
 3517 03d2 132B     		cmp	r3, #19
 3518 03d4 15D0     		beq	.L297
 571:Drivers/lvgl/lvgl/src/widgets/lv_btnmatrix.c ****             if(btnm->btn_id_sel == LV_BTNMATRIX_BTN_NONE) btnm->btn_id_sel = 0;
 3519              		.loc 1 571 0
 3520 03d6 142B     		cmp	r3, #20
 3521 03d8 3FD0     		beq	.L298
 582:Drivers/lvgl/lvgl/src/widgets/lv_btnmatrix.c ****             lv_coord_t col_gap = lv_obj_get_style_pad_column(obj, LV_PART_MAIN);
 3522              		.loc 1 582 0
 3523 03da 122B     		cmp	r3, #18
 3524 03dc 64D0     		beq	.L299
 610:Drivers/lvgl/lvgl/src/widgets/lv_btnmatrix.c ****             lv_coord_t col_gap = lv_obj_get_style_pad_column(obj, LV_PART_MAIN);
 3525              		.loc 1 610 0
 3526 03de 112B     		cmp	r3, #17
 3527 03e0 33D1     		bne	.L248
 3528              	.LVL444:
 3529              	.LBB149:
 3530              	.LBB150:
 3531              	.LBB151:
ARM GAS  /tmp/ccpV5owi.s 			page 101


 135:Drivers/lvgl/lvgl/src/widgets/../core/lv_obj_style_gen.h ****     return (lv_coord_t)v.num;
 3532              		.loc 2 135 0
 3533 03e2 1522     		movs	r2, #21
 3534 03e4 0021     		movs	r1, #0
 3535 03e6 3046     		mov	r0, r6
 3536 03e8 FFF7FEFF 		bl	lv_obj_get_style_prop
 3537              	.LVL445:
 136:Drivers/lvgl/lvgl/src/widgets/../core/lv_obj_style_gen.h **** }
 3538              		.loc 2 136 0
 3539 03ec 0FFA80F8 		sxth	r8, r0
 3540              	.LVL446:
 3541              	.LBE151:
 3542              	.LBE150:
 613:Drivers/lvgl/lvgl/src/widgets/lv_btnmatrix.c ****                 btnm->btn_id_sel = 0;
 3543              		.loc 1 613 0
 3544 03f0 B48E     		ldrh	r4, [r6, #52]
 3545              	.LVL447:
 3546 03f2 4FF6FF73 		movw	r3, #65535
 3547 03f6 9C42     		cmp	r4, r3
 3548 03f8 40F0CD80 		bne	.L266
 614:Drivers/lvgl/lvgl/src/widgets/lv_btnmatrix.c ****                 while(button_is_hidden(btnm->ctrl_bits[btnm->btn_id_sel]) || button_is_inactive(btn
 3549              		.loc 1 614 0
 3550 03fc 0023     		movs	r3, #0
 3551 03fe B386     		strh	r3, [r6, #52]	@ movhi
 615:Drivers/lvgl/lvgl/src/widgets/lv_btnmatrix.c ****                     btnm->btn_id_sel++;
 3552              		.loc 1 615 0
 3553 0400 B7E0     		b	.L268
 3554              	.LVL448:
 3555              	.L297:
 3556              	.LBE149:
 562:Drivers/lvgl/lvgl/src/widgets/lv_btnmatrix.c ****             else btnm->btn_id_sel++;
 3557              		.loc 1 562 0
 3558 0402 B38E     		ldrh	r3, [r6, #52]
 3559              	.LVL449:
 3560 0404 4FF6FF72 		movw	r2, #65535
 3561 0408 9342     		cmp	r3, r2
 3562 040a 08D0     		beq	.L300
 563:Drivers/lvgl/lvgl/src/widgets/lv_btnmatrix.c ****             if(btnm->btn_id_sel >= btnm->btn_cnt) btnm->btn_id_sel = 0;
 3563              		.loc 1 563 0
 3564 040c 0133     		adds	r3, r3, #1
 3565 040e B386     		strh	r3, [r6, #52]	@ movhi
 3566              	.LVL450:
 3567              	.L243:
 564:Drivers/lvgl/lvgl/src/widgets/lv_btnmatrix.c **** 
 3568              		.loc 1 564 0
 3569 0410 B38E     		ldrh	r3, [r6, #52]
 3570 0412 378E     		ldrh	r7, [r6, #48]
 3571 0414 BB42     		cmp	r3, r7
 3572 0416 0AD3     		bcc	.L245
 564:Drivers/lvgl/lvgl/src/widgets/lv_btnmatrix.c **** 
 3573              		.loc 1 564 0 is_stmt 0 discriminator 1
 3574 0418 0023     		movs	r3, #0
 3575 041a B386     		strh	r3, [r6, #52]	@ movhi
 3576 041c 07E0     		b	.L245
 3577              	.LVL451:
 3578              	.L300:
 562:Drivers/lvgl/lvgl/src/widgets/lv_btnmatrix.c ****             else btnm->btn_id_sel++;
ARM GAS  /tmp/ccpV5owi.s 			page 102


 3579              		.loc 1 562 0 is_stmt 1 discriminator 1
 3580 041e 0023     		movs	r3, #0
 3581 0420 B386     		strh	r3, [r6, #52]	@ movhi
 3582              	.LVL452:
 3583 0422 F5E7     		b	.L243
 3584              	.LVL453:
 3585              	.L247:
 567:Drivers/lvgl/lvgl/src/widgets/lv_btnmatrix.c ****                 if(btnm->btn_id_sel >= btnm->btn_cnt) btnm->btn_id_sel = 0;
 3586              		.loc 1 567 0
 3587 0424 0134     		adds	r4, r4, #1
 3588 0426 A4B2     		uxth	r4, r4
 3589 0428 B486     		strh	r4, [r6, #52]	@ movhi
 568:Drivers/lvgl/lvgl/src/widgets/lv_btnmatrix.c ****             }
 3590              		.loc 1 568 0
 3591 042a A742     		cmp	r7, r4
 3592 042c 12D9     		bls	.L301
 3593              	.L245:
 566:Drivers/lvgl/lvgl/src/widgets/lv_btnmatrix.c ****                 btnm->btn_id_sel++;
 3594              		.loc 1 566 0
 3595 042e F36A     		ldr	r3, [r6, #44]
 3596 0430 B48E     		ldrh	r4, [r6, #52]
 3597 0432 33F81450 		ldrh	r5, [r3, r4, lsl #1]
 3598 0436 2846     		mov	r0, r5
 3599 0438 FFF7FEFF 		bl	button_is_hidden
 3600              	.LVL454:
 3601 043c 0028     		cmp	r0, #0
 3602 043e F1D1     		bne	.L247
 566:Drivers/lvgl/lvgl/src/widgets/lv_btnmatrix.c ****                 btnm->btn_id_sel++;
 3603              		.loc 1 566 0 is_stmt 0 discriminator 1
 3604 0440 2846     		mov	r0, r5
 3605 0442 FFF7FEFF 		bl	button_is_inactive
 3606              	.LVL455:
 3607 0446 0028     		cmp	r0, #0
 3608 0448 ECD1     		bne	.L247
 3609              	.L248:
 638:Drivers/lvgl/lvgl/src/widgets/lv_btnmatrix.c ****     }
 3610              		.loc 1 638 0 is_stmt 1
 3611 044a B18E     		ldrh	r1, [r6, #52]
 3612 044c 3046     		mov	r0, r6
 3613 044e FFF7FEFF 		bl	invalidate_button_area
 3614              	.LVL456:
 3615              	.LBE148:
 3616 0452 DEE5     		b	.L206
 3617              	.L301:
 3618              	.LBB163:
 568:Drivers/lvgl/lvgl/src/widgets/lv_btnmatrix.c ****             }
 3619              		.loc 1 568 0 discriminator 1
 3620 0454 0023     		movs	r3, #0
 3621 0456 B386     		strh	r3, [r6, #52]	@ movhi
 3622 0458 E9E7     		b	.L245
 3623              	.LVL457:
 3624              	.L298:
 572:Drivers/lvgl/lvgl/src/widgets/lv_btnmatrix.c **** 
 3625              		.loc 1 572 0
 3626 045a B28E     		ldrh	r2, [r6, #52]
 3627 045c 4FF6FF73 		movw	r3, #65535
 3628              	.LVL458:
ARM GAS  /tmp/ccpV5owi.s 			page 103


 3629 0460 9A42     		cmp	r2, r3
 3630 0462 05D0     		beq	.L302
 3631              	.LVL459:
 3632              	.L250:
 574:Drivers/lvgl/lvgl/src/widgets/lv_btnmatrix.c ****             else if(btnm->btn_id_sel > 0) btnm->btn_id_sel--;
 3633              		.loc 1 574 0
 3634 0464 B38E     		ldrh	r3, [r6, #52]
 3635 0466 33B9     		cbnz	r3, .L251
 574:Drivers/lvgl/lvgl/src/widgets/lv_btnmatrix.c ****             else if(btnm->btn_id_sel > 0) btnm->btn_id_sel--;
 3636              		.loc 1 574 0 is_stmt 0 discriminator 1
 3637 0468 338E     		ldrh	r3, [r6, #48]
 3638 046a 013B     		subs	r3, r3, #1
 3639 046c B386     		strh	r3, [r6, #52]	@ movhi
 3640 046e 08E0     		b	.L255
 3641              	.LVL460:
 3642              	.L302:
 572:Drivers/lvgl/lvgl/src/widgets/lv_btnmatrix.c **** 
 3643              		.loc 1 572 0 is_stmt 1 discriminator 1
 3644 0470 0023     		movs	r3, #0
 3645 0472 B386     		strh	r3, [r6, #52]	@ movhi
 3646              	.LVL461:
 3647 0474 F6E7     		b	.L250
 3648              	.L251:
 575:Drivers/lvgl/lvgl/src/widgets/lv_btnmatrix.c **** 
 3649              		.loc 1 575 0 discriminator 1
 3650 0476 013B     		subs	r3, r3, #1
 3651 0478 B386     		strh	r3, [r6, #52]	@ movhi
 3652 047a 02E0     		b	.L255
 3653              	.LVL462:
 3654              	.L256:
 578:Drivers/lvgl/lvgl/src/widgets/lv_btnmatrix.c ****                 else btnm->btn_id_sel = btnm->btn_cnt - 1;
 3655              		.loc 1 578 0
 3656 047c 84B1     		cbz	r4, .L253
 578:Drivers/lvgl/lvgl/src/widgets/lv_btnmatrix.c ****                 else btnm->btn_id_sel = btnm->btn_cnt - 1;
 3657              		.loc 1 578 0 is_stmt 0 discriminator 1
 3658 047e 013C     		subs	r4, r4, #1
 3659 0480 B486     		strh	r4, [r6, #52]	@ movhi
 3660              	.L255:
 577:Drivers/lvgl/lvgl/src/widgets/lv_btnmatrix.c ****                 if(btnm->btn_id_sel > 0) btnm->btn_id_sel--;
 3661              		.loc 1 577 0 is_stmt 1
 3662 0482 F36A     		ldr	r3, [r6, #44]
 3663 0484 B48E     		ldrh	r4, [r6, #52]
 3664 0486 33F81450 		ldrh	r5, [r3, r4, lsl #1]
 3665 048a 2846     		mov	r0, r5
 3666 048c FFF7FEFF 		bl	button_is_hidden
 3667              	.LVL463:
 3668 0490 0028     		cmp	r0, #0
 3669 0492 F3D1     		bne	.L256
 577:Drivers/lvgl/lvgl/src/widgets/lv_btnmatrix.c ****                 if(btnm->btn_id_sel > 0) btnm->btn_id_sel--;
 3670              		.loc 1 577 0 is_stmt 0 discriminator 1
 3671 0494 2846     		mov	r0, r5
 3672 0496 FFF7FEFF 		bl	button_is_inactive
 3673              	.LVL464:
 3674 049a 0028     		cmp	r0, #0
 3675 049c EED1     		bne	.L256
 3676 049e D4E7     		b	.L248
 3677              	.L253:
ARM GAS  /tmp/ccpV5owi.s 			page 104


 579:Drivers/lvgl/lvgl/src/widgets/lv_btnmatrix.c ****             }
 3678              		.loc 1 579 0 is_stmt 1
 3679 04a0 338E     		ldrh	r3, [r6, #48]
 3680 04a2 013B     		subs	r3, r3, #1
 3681 04a4 B386     		strh	r3, [r6, #52]	@ movhi
 3682 04a6 ECE7     		b	.L255
 3683              	.LVL465:
 3684              	.L299:
 3685              	.LBB155:
 3686              	.LBB156:
 3687              	.LBB157:
 135:Drivers/lvgl/lvgl/src/widgets/../core/lv_obj_style_gen.h ****     return (lv_coord_t)v.num;
 3688              		.loc 2 135 0
 3689 04a8 1522     		movs	r2, #21
 3690 04aa 0021     		movs	r1, #0
 3691 04ac 3046     		mov	r0, r6
 3692 04ae FFF7FEFF 		bl	lv_obj_get_style_prop
 3693              	.LVL466:
 136:Drivers/lvgl/lvgl/src/widgets/../core/lv_obj_style_gen.h **** }
 3694              		.loc 2 136 0
 3695 04b2 0FFA80F8 		sxth	r8, r0
 3696              	.LVL467:
 3697              	.LBE157:
 3698              	.LBE156:
 585:Drivers/lvgl/lvgl/src/widgets/lv_btnmatrix.c ****                 btnm->btn_id_sel = 0;
 3699              		.loc 1 585 0
 3700 04b6 B48E     		ldrh	r4, [r6, #52]
 3701              	.LVL468:
 3702 04b8 4FF6FF73 		movw	r3, #65535
 3703 04bc 9C42     		cmp	r4, r3
 3704 04be 0ED0     		beq	.L303
 3705              	.LBB158:
 595:Drivers/lvgl/lvgl/src/widgets/lv_btnmatrix.c **** 
 3706              		.loc 1 595 0
 3707 04c0 B56A     		ldr	r5, [r6, #40]
 3708              	.LVL469:
 3709 04c2 05EBC407 		add	r7, r5, r4, lsl #3
 3710 04c6 35F83420 		ldrh	r2, [r5, r4, lsl #3]
 3711              	.LVL470:
 3712              	.LBB159:
 3713              	.LBB160:
 125:Drivers/lvgl/lvgl/src/widgets/../core/../misc/../font/../misc/lv_area.h **** }
 3714              		.loc 3 125 0
 3715 04ca BB88     		ldrh	r3, [r7, #4]
 3716 04cc 9B1A     		subs	r3, r3, r2
 3717 04ce 9BB2     		uxth	r3, r3
 3718 04d0 0133     		adds	r3, r3, #1
 3719              	.LVL471:
 3720              	.LBE160:
 3721              	.LBE159:
 595:Drivers/lvgl/lvgl/src/widgets/lv_btnmatrix.c **** 
 3722              		.loc 1 595 0
 3723 04d2 43F34E03 		sbfx	r3, r3, #1, #15
 3724 04d6 1344     		add	r3, r3, r2
 594:Drivers/lvgl/lvgl/src/widgets/lv_btnmatrix.c ****                     btnm->button_areas[btnm->btn_id_sel].x1 + (lv_area_get_width(&btnm->button_area
 3725              		.loc 1 594 0
 3726 04d8 0FFA83F9 		sxth	r9, r3
ARM GAS  /tmp/ccpV5owi.s 			page 105


 3727              	.LVL472:
 597:Drivers/lvgl/lvgl/src/widgets/lv_btnmatrix.c ****                     if(btnm->button_areas[area_below].y1 > btnm->button_areas[btnm->btn_id_sel].y1 
 3728              		.loc 1 597 0
 3729 04dc 1CE0     		b	.L262
 3730              	.LVL473:
 3731              	.L303:
 3732              	.LBE158:
 586:Drivers/lvgl/lvgl/src/widgets/lv_btnmatrix.c ****                 while(button_is_hidden(btnm->ctrl_bits[btnm->btn_id_sel]) || button_is_inactive(btn
 3733              		.loc 1 586 0
 3734 04de 0023     		movs	r3, #0
 3735 04e0 B386     		strh	r3, [r6, #52]	@ movhi
 587:Drivers/lvgl/lvgl/src/widgets/lv_btnmatrix.c ****                     btnm->btn_id_sel++;
 3736              		.loc 1 587 0
 3737 04e2 05E0     		b	.L260
 3738              	.LVL474:
 3739              	.L261:
 588:Drivers/lvgl/lvgl/src/widgets/lv_btnmatrix.c ****                     if(btnm->btn_id_sel >= btnm->btn_cnt) btnm->btn_id_sel = 0;
 3740              		.loc 1 588 0
 3741 04e4 631C     		adds	r3, r4, #1
 3742 04e6 9BB2     		uxth	r3, r3
 3743 04e8 B386     		strh	r3, [r6, #52]	@ movhi
 589:Drivers/lvgl/lvgl/src/widgets/lv_btnmatrix.c ****                 }
 3744              		.loc 1 589 0
 3745 04ea 328E     		ldrh	r2, [r6, #48]
 3746 04ec 9342     		cmp	r3, r2
 3747 04ee 0ED2     		bcs	.L304
 3748              	.L260:
 587:Drivers/lvgl/lvgl/src/widgets/lv_btnmatrix.c ****                     btnm->btn_id_sel++;
 3749              		.loc 1 587 0
 3750 04f0 F36A     		ldr	r3, [r6, #44]
 3751 04f2 B48E     		ldrh	r4, [r6, #52]
 3752 04f4 33F81450 		ldrh	r5, [r3, r4, lsl #1]
 3753 04f8 2846     		mov	r0, r5
 3754 04fa FFF7FEFF 		bl	button_is_hidden
 3755              	.LVL475:
 3756 04fe 0028     		cmp	r0, #0
 3757 0500 F0D1     		bne	.L261
 587:Drivers/lvgl/lvgl/src/widgets/lv_btnmatrix.c ****                     btnm->btn_id_sel++;
 3758              		.loc 1 587 0 is_stmt 0 discriminator 1
 3759 0502 2846     		mov	r0, r5
 3760 0504 FFF7FEFF 		bl	button_is_inactive
 3761              	.LVL476:
 3762 0508 0028     		cmp	r0, #0
 3763 050a EBD1     		bne	.L261
 3764 050c 9DE7     		b	.L248
 3765              	.L304:
 589:Drivers/lvgl/lvgl/src/widgets/lv_btnmatrix.c ****                 }
 3766              		.loc 1 589 0 is_stmt 1 discriminator 1
 3767 050e 0023     		movs	r3, #0
 3768 0510 B386     		strh	r3, [r6, #52]	@ movhi
 3769 0512 EDE7     		b	.L260
 3770              	.LVL477:
 3771              	.L263:
 3772              	.LBB161:
 597:Drivers/lvgl/lvgl/src/widgets/lv_btnmatrix.c ****                     if(btnm->button_areas[area_below].y1 > btnm->button_areas[btnm->btn_id_sel].y1 
 3773              		.loc 1 597 0 discriminator 2
 3774 0514 0134     		adds	r4, r4, #1
ARM GAS  /tmp/ccpV5owi.s 			page 106


 3775              	.LVL478:
 3776 0516 A4B2     		uxth	r4, r4
 3777              	.LVL479:
 3778              	.L262:
 597:Drivers/lvgl/lvgl/src/widgets/lv_btnmatrix.c ****                     if(btnm->button_areas[area_below].y1 > btnm->button_areas[btnm->btn_id_sel].y1 
 3779              		.loc 1 597 0 is_stmt 0 discriminator 1
 3780 0518 B6F830A0 		ldrh	r10, [r6, #48]
 3781 051c A245     		cmp	r10, r4
 3782 051e 1DD9     		bls	.L264
 598:Drivers/lvgl/lvgl/src/widgets/lv_btnmatrix.c ****                        pr_center >= btnm->button_areas[area_below].x1 &&
 3783              		.loc 1 598 0 is_stmt 1
 3784 0520 05EBC403 		add	r3, r5, r4, lsl #3
 3785 0524 B3F90210 		ldrsh	r1, [r3, #2]
 3786 0528 B7F90220 		ldrsh	r2, [r7, #2]
 3787 052c 9142     		cmp	r1, r2
 3788 052e F1DD     		ble	.L263
 599:Drivers/lvgl/lvgl/src/widgets/lv_btnmatrix.c ****                        pr_center <= btnm->button_areas[area_below].x2 + col_gap &&
 3789              		.loc 1 599 0 discriminator 1
 3790 0530 35F93420 		ldrsh	r2, [r5, r4, lsl #3]
 598:Drivers/lvgl/lvgl/src/widgets/lv_btnmatrix.c ****                        pr_center >= btnm->button_areas[area_below].x1 &&
 3791              		.loc 1 598 0 discriminator 1
 3792 0534 4A45     		cmp	r2, r9
 3793 0536 EDDC     		bgt	.L263
 600:Drivers/lvgl/lvgl/src/widgets/lv_btnmatrix.c ****                        button_is_inactive(btnm->ctrl_bits[area_below]) == false &&
 3794              		.loc 1 600 0
 3795 0538 B3F90430 		ldrsh	r3, [r3, #4]
 3796 053c 4344     		add	r3, r3, r8
 599:Drivers/lvgl/lvgl/src/widgets/lv_btnmatrix.c ****                        pr_center <= btnm->button_areas[area_below].x2 + col_gap &&
 3797              		.loc 1 599 0
 3798 053e 9945     		cmp	r9, r3
 3799 0540 E8DC     		bgt	.L263
 601:Drivers/lvgl/lvgl/src/widgets/lv_btnmatrix.c ****                        button_is_hidden(btnm->ctrl_bits[area_below]) == false) {
 3800              		.loc 1 601 0
 3801 0542 F36A     		ldr	r3, [r6, #44]
 3802 0544 33F814B0 		ldrh	fp, [r3, r4, lsl #1]
 3803 0548 5846     		mov	r0, fp
 3804 054a FFF7FEFF 		bl	button_is_inactive
 3805              	.LVL480:
 600:Drivers/lvgl/lvgl/src/widgets/lv_btnmatrix.c ****                        button_is_inactive(btnm->ctrl_bits[area_below]) == false &&
 3806              		.loc 1 600 0
 3807 054e 0028     		cmp	r0, #0
 3808 0550 E0D1     		bne	.L263
 602:Drivers/lvgl/lvgl/src/widgets/lv_btnmatrix.c ****                         break;
 3809              		.loc 1 602 0
 3810 0552 5846     		mov	r0, fp
 3811 0554 FFF7FEFF 		bl	button_is_hidden
 3812              	.LVL481:
 601:Drivers/lvgl/lvgl/src/widgets/lv_btnmatrix.c ****                        button_is_hidden(btnm->ctrl_bits[area_below]) == false) {
 3813              		.loc 1 601 0
 3814 0558 0028     		cmp	r0, #0
 3815 055a DBD1     		bne	.L263
 3816              	.L264:
 607:Drivers/lvgl/lvgl/src/widgets/lv_btnmatrix.c ****             }
 3817              		.loc 1 607 0
 3818 055c A245     		cmp	r10, r4
 3819 055e 7FF674AF 		bls	.L248
 607:Drivers/lvgl/lvgl/src/widgets/lv_btnmatrix.c ****             }
ARM GAS  /tmp/ccpV5owi.s 			page 107


 3820              		.loc 1 607 0 is_stmt 0 discriminator 1
 3821 0562 B486     		strh	r4, [r6, #52]	@ movhi
 3822 0564 71E7     		b	.L248
 3823              	.LVL482:
 3824              	.L269:
 3825              	.LBE161:
 3826              	.LBE155:
 3827              	.LBB162:
 616:Drivers/lvgl/lvgl/src/widgets/lv_btnmatrix.c ****                     if(btnm->btn_id_sel >= btnm->btn_cnt) btnm->btn_id_sel = 0;
 3828              		.loc 1 616 0 is_stmt 1
 3829 0566 631C     		adds	r3, r4, #1
 3830 0568 9BB2     		uxth	r3, r3
 3831 056a B386     		strh	r3, [r6, #52]	@ movhi
 617:Drivers/lvgl/lvgl/src/widgets/lv_btnmatrix.c ****                 }
 3832              		.loc 1 617 0
 3833 056c 328E     		ldrh	r2, [r6, #48]
 3834 056e 9342     		cmp	r3, r2
 3835 0570 0ED2     		bcs	.L305
 3836              	.L268:
 615:Drivers/lvgl/lvgl/src/widgets/lv_btnmatrix.c ****                     btnm->btn_id_sel++;
 3837              		.loc 1 615 0
 3838 0572 F36A     		ldr	r3, [r6, #44]
 3839 0574 B48E     		ldrh	r4, [r6, #52]
 3840 0576 33F81450 		ldrh	r5, [r3, r4, lsl #1]
 3841 057a 2846     		mov	r0, r5
 3842 057c FFF7FEFF 		bl	button_is_hidden
 3843              	.LVL483:
 3844 0580 0028     		cmp	r0, #0
 3845 0582 F0D1     		bne	.L269
 615:Drivers/lvgl/lvgl/src/widgets/lv_btnmatrix.c ****                     btnm->btn_id_sel++;
 3846              		.loc 1 615 0 is_stmt 0 discriminator 1
 3847 0584 2846     		mov	r0, r5
 3848 0586 FFF7FEFF 		bl	button_is_inactive
 3849              	.LVL484:
 3850 058a 0028     		cmp	r0, #0
 3851 058c EBD1     		bne	.L269
 3852 058e 5CE7     		b	.L248
 3853              	.L305:
 617:Drivers/lvgl/lvgl/src/widgets/lv_btnmatrix.c ****                 }
 3854              		.loc 1 617 0 is_stmt 1 discriminator 1
 3855 0590 0023     		movs	r3, #0
 3856 0592 B386     		strh	r3, [r6, #52]	@ movhi
 3857 0594 EDE7     		b	.L268
 3858              	.LVL485:
 3859              	.L266:
 3860              	.LBB152:
 623:Drivers/lvgl/lvgl/src/widgets/lv_btnmatrix.c **** 
 3861              		.loc 1 623 0
 3862 0596 B56A     		ldr	r5, [r6, #40]
 3863              	.LVL486:
 3864 0598 05EBC407 		add	r7, r5, r4, lsl #3
 3865 059c 35F83420 		ldrh	r2, [r5, r4, lsl #3]
 3866              	.LVL487:
 3867              	.LBB153:
 3868              	.LBB154:
 125:Drivers/lvgl/lvgl/src/widgets/../core/../misc/../font/../misc/lv_area.h **** }
 3869              		.loc 3 125 0
ARM GAS  /tmp/ccpV5owi.s 			page 108


 3870 05a0 BB88     		ldrh	r3, [r7, #4]
 3871 05a2 9B1A     		subs	r3, r3, r2
 3872 05a4 9BB2     		uxth	r3, r3
 3873 05a6 0133     		adds	r3, r3, #1
 3874              	.LVL488:
 3875              	.LBE154:
 3876              	.LBE153:
 623:Drivers/lvgl/lvgl/src/widgets/lv_btnmatrix.c **** 
 3877              		.loc 1 623 0
 3878 05a8 43F34E03 		sbfx	r3, r3, #1, #15
 3879 05ac 1344     		add	r3, r3, r2
 622:Drivers/lvgl/lvgl/src/widgets/lv_btnmatrix.c ****                     btnm->button_areas[btnm->btn_id_sel].x1 + (lv_area_get_width(&btnm->button_area
 3880              		.loc 1 622 0
 3881 05ae 0FFA83F9 		sxth	r9, r3
 3882              	.LVL489:
 625:Drivers/lvgl/lvgl/src/widgets/lv_btnmatrix.c ****                     if(btnm->button_areas[area_above].y1 < btnm->button_areas[btnm->btn_id_sel].y1 
 3883              		.loc 1 625 0
 3884 05b2 24B2     		sxth	r4, r4
 3885              	.LVL490:
 3886 05b4 01E0     		b	.L270
 3887              	.L271:
 625:Drivers/lvgl/lvgl/src/widgets/lv_btnmatrix.c ****                     if(btnm->button_areas[area_above].y1 < btnm->button_areas[btnm->btn_id_sel].y1 
 3888              		.loc 1 625 0 is_stmt 0 discriminator 2
 3889 05b6 013C     		subs	r4, r4, #1
 3890              	.LVL491:
 3891 05b8 24B2     		sxth	r4, r4
 3892              	.LVL492:
 3893              	.L270:
 625:Drivers/lvgl/lvgl/src/widgets/lv_btnmatrix.c ****                     if(btnm->button_areas[area_above].y1 < btnm->button_areas[btnm->btn_id_sel].y1 
 3894              		.loc 1 625 0 discriminator 1
 3895 05ba 002C     		cmp	r4, #0
 3896 05bc 1EDB     		blt	.L272
 626:Drivers/lvgl/lvgl/src/widgets/lv_btnmatrix.c ****                        pr_center >= btnm->button_areas[area_above].x1 - col_gap &&
 3897              		.loc 1 626 0 is_stmt 1
 3898 05be 05EBC402 		add	r2, r5, r4, lsl #3
 3899 05c2 B2F90200 		ldrsh	r0, [r2, #2]
 3900 05c6 B7F90230 		ldrsh	r3, [r7, #2]
 3901 05ca 9842     		cmp	r0, r3
 3902 05cc F3DA     		bge	.L271
 627:Drivers/lvgl/lvgl/src/widgets/lv_btnmatrix.c ****                        pr_center <= btnm->button_areas[area_above].x2 &&
 3903              		.loc 1 627 0 discriminator 1
 3904 05ce 35F93430 		ldrsh	r3, [r5, r4, lsl #3]
 3905 05d2 A3EB0803 		sub	r3, r3, r8
 626:Drivers/lvgl/lvgl/src/widgets/lv_btnmatrix.c ****                        pr_center >= btnm->button_areas[area_above].x1 - col_gap &&
 3906              		.loc 1 626 0 discriminator 1
 3907 05d6 9945     		cmp	r9, r3
 3908 05d8 EDDB     		blt	.L271
 628:Drivers/lvgl/lvgl/src/widgets/lv_btnmatrix.c ****                        button_is_inactive(btnm->ctrl_bits[area_above]) == false &&
 3909              		.loc 1 628 0
 3910 05da B2F90430 		ldrsh	r3, [r2, #4]
 627:Drivers/lvgl/lvgl/src/widgets/lv_btnmatrix.c ****                        pr_center <= btnm->button_areas[area_above].x2 &&
 3911              		.loc 1 627 0
 3912 05de 4B45     		cmp	r3, r9
 3913 05e0 E9DB     		blt	.L271
 629:Drivers/lvgl/lvgl/src/widgets/lv_btnmatrix.c ****                        button_is_hidden(btnm->ctrl_bits[area_above]) == false) {
 3914              		.loc 1 629 0
 3915 05e2 F36A     		ldr	r3, [r6, #44]
ARM GAS  /tmp/ccpV5owi.s 			page 109


 3916 05e4 33F814A0 		ldrh	r10, [r3, r4, lsl #1]
 3917 05e8 5046     		mov	r0, r10
 3918 05ea FFF7FEFF 		bl	button_is_inactive
 3919              	.LVL493:
 628:Drivers/lvgl/lvgl/src/widgets/lv_btnmatrix.c ****                        button_is_inactive(btnm->ctrl_bits[area_above]) == false &&
 3920              		.loc 1 628 0
 3921 05ee 0028     		cmp	r0, #0
 3922 05f0 E1D1     		bne	.L271
 630:Drivers/lvgl/lvgl/src/widgets/lv_btnmatrix.c ****                         break;
 3923              		.loc 1 630 0
 3924 05f2 5046     		mov	r0, r10
 3925 05f4 FFF7FEFF 		bl	button_is_hidden
 3926              	.LVL494:
 629:Drivers/lvgl/lvgl/src/widgets/lv_btnmatrix.c ****                        button_is_hidden(btnm->ctrl_bits[area_above]) == false) {
 3927              		.loc 1 629 0
 3928 05f8 0028     		cmp	r0, #0
 3929 05fa DCD1     		bne	.L271
 3930              	.L272:
 634:Drivers/lvgl/lvgl/src/widgets/lv_btnmatrix.c ****             }
 3931              		.loc 1 634 0
 3932 05fc 002C     		cmp	r4, #0
 3933 05fe FFF624AF 		blt	.L248
 634:Drivers/lvgl/lvgl/src/widgets/lv_btnmatrix.c ****             }
 3934              		.loc 1 634 0 is_stmt 0 discriminator 1
 3935 0602 B486     		strh	r4, [r6, #52]	@ movhi
 3936 0604 21E7     		b	.L248
 3937              	.LBE152:
 3938              	.LBE162:
 3939              	.LBE163:
 3940              		.cfi_endproc
 3941              	.LFE176:
 3943 0606 00BF     		.section	.text.lv_btnmatrix_set_one_checked,"ax",%progbits
 3944              		.align	1
 3945              		.global	lv_btnmatrix_set_one_checked
 3946              		.syntax unified
 3947              		.thumb
 3948              		.thumb_func
 3949              		.fpu fpv5-d16
 3951              	lv_btnmatrix_set_one_checked:
 3952              	.LFB168:
 278:Drivers/lvgl/lvgl/src/widgets/lv_btnmatrix.c ****     LV_ASSERT_OBJ(obj, MY_CLASS);
 3953              		.loc 1 278 0 is_stmt 1
 3954              		.cfi_startproc
 3955              		@ args = 0, pretend = 0, frame = 0
 3956              		@ frame_needed = 0, uses_anonymous_args = 0
 3957              	.LVL495:
 3958 0000 08B5     		push	{r3, lr}
 3959              	.LCFI37:
 3960              		.cfi_def_cfa_offset 8
 3961              		.cfi_offset 3, -8
 3962              		.cfi_offset 14, -4
 3963              	.LVL496:
 282:Drivers/lvgl/lvgl/src/widgets/lv_btnmatrix.c **** 
 3964              		.loc 1 282 0
 3965 0002 90F83620 		ldrb	r2, [r0, #54]	@ zero_extendqisi2
 3966 0006 61F30002 		bfi	r2, r1, #0, #1
 3967 000a 80F83620 		strb	r2, [r0, #54]
ARM GAS  /tmp/ccpV5owi.s 			page 110


 285:Drivers/lvgl/lvgl/src/widgets/lv_btnmatrix.c **** }
 3968              		.loc 1 285 0
 3969 000e 0021     		movs	r1, #0
 3970              	.LVL497:
 3971 0010 FFF7FEFF 		bl	make_one_button_checked
 3972              	.LVL498:
 286:Drivers/lvgl/lvgl/src/widgets/lv_btnmatrix.c **** 
 3973              		.loc 1 286 0
 3974 0014 08BD     		pop	{r3, pc}
 3975              		.cfi_endproc
 3976              	.LFE168:
 3978              		.section	.text.lv_btnmatrix_get_one_checked,"ax",%progbits
 3979              		.align	1
 3980              		.global	lv_btnmatrix_get_one_checked
 3981              		.syntax unified
 3982              		.thumb
 3983              		.thumb_func
 3984              		.fpu fpv5-d16
 3986              	lv_btnmatrix_get_one_checked:
 3987              	.LFB173:
 344:Drivers/lvgl/lvgl/src/widgets/lv_btnmatrix.c ****     LV_ASSERT_OBJ(obj, MY_CLASS);
 3988              		.loc 1 344 0
 3989              		.cfi_startproc
 3990              		@ args = 0, pretend = 0, frame = 0
 3991              		@ frame_needed = 0, uses_anonymous_args = 0
 3992              		@ link register save eliminated.
 3993              	.LVL499:
 349:Drivers/lvgl/lvgl/src/widgets/lv_btnmatrix.c **** }
 3994              		.loc 1 349 0
 3995 0000 90F83600 		ldrb	r0, [r0, #54]	@ zero_extendqisi2
 3996              	.LVL500:
 350:Drivers/lvgl/lvgl/src/widgets/lv_btnmatrix.c **** 
 3997              		.loc 1 350 0
 3998 0004 00F00100 		and	r0, r0, #1
 3999 0008 7047     		bx	lr
 4000              		.cfi_endproc
 4001              	.LFE173:
 4003              		.global	lv_btnmatrix_class
 4004              		.section	.data.lv_btnmatrix_def_map,"aw",%progbits
 4005              		.align	2
 4006              		.set	.LANCHOR1,. + 0
 4009              	lv_btnmatrix_def_map:
 4010 0000 00000000 		.word	.LC1
 4011 0004 08000000 		.word	.LC2
 4012 0008 10000000 		.word	.LC3
 4013 000c 00000000 		.word	.LC0
 4014 0010 18000000 		.word	.LC4
 4015 0014 20000000 		.word	.LC5
 4016 0018 28000000 		.word	.LC6
 4017              		.section	.rodata.has_popovers_in_top_row.str1.4,"aMS",%progbits,1
 4018              		.align	2
 4019              	.LC0:
 4020 0000 0A00     		.ascii	"\012\000"
 4021              		.section	.rodata.lv_btnmatrix_class,"a",%progbits
 4022              		.align	2
 4023              		.set	.LANCHOR0,. + 0
 4026              	lv_btnmatrix_class:
ARM GAS  /tmp/ccpV5owi.s 			page 111


 4027 0000 00000000 		.word	lv_obj_class
 4028 0004 00000000 		.word	lv_btnmatrix_constructor
 4029 0008 00000000 		.word	lv_btnmatrix_destructor
 4030 000c 00000000 		.space	4
 4031 0010 00000000 		.word	lv_btnmatrix_event
 4032 0014 0401     		.short	260
 4033 0016 8200     		.short	130
 4034 0018 85       		.byte	133
 4035 0019 03       		.byte	3
 4036 001a 00       		.byte	0
 4037 001b 00       		.space	1
 4038              		.section	.rodata.str1.4,"aMS",%progbits,1
 4039              		.align	2
 4040              	.LC1:
 4041 0000 42746E31 		.ascii	"Btn1\000"
 4041      00
 4042 0005 000000   		.space	3
 4043              	.LC2:
 4044 0008 42746E32 		.ascii	"Btn2\000"
 4044      00
 4045 000d 000000   		.space	3
 4046              	.LC3:
 4047 0010 42746E33 		.ascii	"Btn3\000"
 4047      00
 4048 0015 000000   		.space	3
 4049              	.LC4:
 4050 0018 42746E34 		.ascii	"Btn4\000"
 4050      00
 4051 001d 000000   		.space	3
 4052              	.LC5:
 4053 0020 42746E35 		.ascii	"Btn5\000"
 4053      00
 4054 0025 000000   		.space	3
 4055              	.LC6:
 4056 0028 00       		.ascii	"\000"
 4057              		.text
 4058              	.Letext0:
 4059              		.file 4 "/opt/gcc-arm-none-eabi-7-2017-q4-major/arm-none-eabi/include/machine/_default_types.h"
 4060              		.file 5 "/opt/gcc-arm-none-eabi-7-2017-q4-major/arm-none-eabi/include/sys/_stdint.h"
 4061              		.file 6 "/opt/gcc-arm-none-eabi-7-2017-q4-major/lib/gcc/arm-none-eabi/7.2.1/include/stddef.h"
 4062              		.file 7 "Drivers/lvgl/lvgl/src/widgets/../core/../misc/../font/lv_font.h"
 4063              		.file 8 "Drivers/lvgl/lvgl/src/widgets/../core/../misc/lv_types.h"
 4064              		.file 9 "/opt/gcc-arm-none-eabi-7-2017-q4-major/arm-none-eabi/include/sys/lock.h"
 4065              		.file 10 "/opt/gcc-arm-none-eabi-7-2017-q4-major/arm-none-eabi/include/sys/_types.h"
 4066              		.file 11 "/opt/gcc-arm-none-eabi-7-2017-q4-major/arm-none-eabi/include/sys/reent.h"
 4067              		.file 12 "Drivers/lvgl/lvgl/src/widgets/../core/../misc/lv_color.h"
 4068              		.file 13 "Drivers/lvgl/lvgl/src/widgets/../core/../misc/lv_txt.h"
 4069              		.file 14 "Drivers/lvgl/lvgl/src/widgets/../core/../misc/lv_bidi.h"
 4070              		.file 15 "Drivers/lvgl/lvgl/src/widgets/../core/../misc/lv_style.h"
 4071              		.file 16 "Drivers/lvgl/lvgl/src/widgets/../core/../hal/../draw/lv_img_buf.h"
 4072              		.file 17 "Drivers/lvgl/lvgl/src/widgets/../core/lv_obj.h"
 4073              		.file 18 "Drivers/lvgl/lvgl/src/widgets/../core/../hal/../draw/lv_draw_rect.h"
 4074              		.file 19 "Drivers/lvgl/lvgl/src/widgets/../core/../hal/../draw/lv_draw_label.h"
 4075              		.file 20 "Drivers/lvgl/lvgl/src/widgets/../core/../hal/../draw/lv_draw_img.h"
 4076              		.file 21 "Drivers/lvgl/lvgl/src/widgets/../core/../hal/../draw/lv_draw_line.h"
 4077              		.file 22 "Drivers/lvgl/lvgl/src/widgets/../core/../hal/../draw/lv_draw_arc.h"
 4078              		.file 23 "Drivers/lvgl/lvgl/src/widgets/../core/../hal/../draw/lv_draw_layer.h"
ARM GAS  /tmp/ccpV5owi.s 			page 112


 4079              		.file 24 "Drivers/lvgl/lvgl/src/widgets/../core/../hal/../draw/lv_draw.h"
 4080              		.file 25 "Drivers/lvgl/lvgl/src/widgets/../core/../hal/../misc/lv_ll.h"
 4081              		.file 26 "Drivers/lvgl/lvgl/src/widgets/../core/../hal/../misc/lv_timer.h"
 4082              		.file 27 "Drivers/lvgl/lvgl/src/widgets/../core/../hal/lv_hal_disp.h"
 4083              		.file 28 "Drivers/lvgl/lvgl/src/widgets/../core/../hal/lv_hal_indev.h"
 4084              		.file 29 "Drivers/lvgl/lvgl/src/widgets/../core/lv_group.h"
 4085              		.file 30 "Drivers/lvgl/lvgl/src/widgets/../core/lv_obj_scroll.h"
 4086              		.file 31 "Drivers/lvgl/lvgl/src/widgets/../core/lv_obj_style.h"
 4087              		.file 32 "Drivers/lvgl/lvgl/src/widgets/../core/lv_obj_draw.h"
 4088              		.file 33 "Drivers/lvgl/lvgl/src/widgets/../core/lv_obj_class.h"
 4089              		.file 34 "Drivers/lvgl/lvgl/src/widgets/../core/lv_event.h"
 4090              		.file 35 "Drivers/lvgl/lvgl/src/widgets/lv_btnmatrix.h"
 4091              		.file 36 "/opt/gcc-arm-none-eabi-7-2017-q4-major/arm-none-eabi/include/string.h"
 4092              		.file 37 "Drivers/lvgl/lvgl/src/widgets/../core/../hal/../draw/sw/../../core/lv_obj_pos.h"
 4093              		.file 38 "Drivers/lvgl/lvgl/src/widgets/../core/lv_obj_tree.h"
 4094              		.file 39 "Drivers/lvgl/lvgl/src/widgets/../core/../misc/lv_mem.h"
 4095              		.file 40 "Drivers/lvgl/lvgl/src/widgets/../core/lv_indev.h"
ARM GAS  /tmp/ccpV5owi.s 			page 113


DEFINED SYMBOLS
                            *ABS*:0000000000000000 lv_btnmatrix.c
     /tmp/ccpV5owi.s:17     .text.get_button_width:0000000000000000 $t
     /tmp/ccpV5owi.s:23     .text.get_button_width:0000000000000000 get_button_width
     /tmp/ccpV5owi.s:44     .text.button_is_hidden:0000000000000000 $t
     /tmp/ccpV5owi.s:50     .text.button_is_hidden:0000000000000000 button_is_hidden
     /tmp/ccpV5owi.s:66     .text.button_is_checked:0000000000000000 $t
     /tmp/ccpV5owi.s:72     .text.button_is_checked:0000000000000000 button_is_checked
     /tmp/ccpV5owi.s:88     .text.button_is_repeat_disabled:0000000000000000 $t
     /tmp/ccpV5owi.s:94     .text.button_is_repeat_disabled:0000000000000000 button_is_repeat_disabled
     /tmp/ccpV5owi.s:110    .text.button_is_inactive:0000000000000000 $t
     /tmp/ccpV5owi.s:116    .text.button_is_inactive:0000000000000000 button_is_inactive
     /tmp/ccpV5owi.s:132    .text.button_is_click_trig:0000000000000000 $t
     /tmp/ccpV5owi.s:138    .text.button_is_click_trig:0000000000000000 button_is_click_trig
     /tmp/ccpV5owi.s:154    .text.button_is_popover:0000000000000000 $t
     /tmp/ccpV5owi.s:160    .text.button_is_popover:0000000000000000 button_is_popover
     /tmp/ccpV5owi.s:176    .text.button_is_checkable:0000000000000000 $t
     /tmp/ccpV5owi.s:182    .text.button_is_checkable:0000000000000000 button_is_checkable
     /tmp/ccpV5owi.s:198    .text.button_get_checked:0000000000000000 $t
     /tmp/ccpV5owi.s:204    .text.button_get_checked:0000000000000000 button_get_checked
     /tmp/ccpV5owi.s:220    .text.button_is_recolor:0000000000000000 $t
     /tmp/ccpV5owi.s:226    .text.button_is_recolor:0000000000000000 button_is_recolor
     /tmp/ccpV5owi.s:242    .text.has_popovers_in_top_row:0000000000000000 $t
     /tmp/ccpV5owi.s:248    .text.has_popovers_in_top_row:0000000000000000 has_popovers_in_top_row
     /tmp/ccpV5owi.s:342    .text.has_popovers_in_top_row:000000000000004c $d
     /tmp/ccpV5owi.s:347    .text.get_button_from_point:0000000000000000 $t
     /tmp/ccpV5owi.s:353    .text.get_button_from_point:0000000000000000 get_button_from_point
     /tmp/ccpV5owi.s:690    .text.invalidate_button_area:0000000000000000 $t
     /tmp/ccpV5owi.s:696    .text.invalidate_button_area:0000000000000000 invalidate_button_area
     /tmp/ccpV5owi.s:878    .text.invalidate_button_area:00000000000000f8 $d
     /tmp/ccpV5owi.s:883    .text.draw_main:0000000000000000 $t
     /tmp/ccpV5owi.s:889    .text.draw_main:0000000000000000 draw_main
     /tmp/ccpV5owi.s:1514   .text.draw_main:0000000000000400 $d
     /tmp/ccpV5owi.s:1518   .text.draw_main:0000000000000408 $t
     /tmp/ccpV5owi.s:1542   .text.lv_btnmatrix_destructor:0000000000000000 $t
     /tmp/ccpV5owi.s:1548   .text.lv_btnmatrix_destructor:0000000000000000 lv_btnmatrix_destructor
     /tmp/ccpV5owi.s:1582   .text.allocate_btn_areas_and_controls:0000000000000000 $t
     /tmp/ccpV5owi.s:1588   .text.allocate_btn_areas_and_controls:0000000000000000 allocate_btn_areas_and_controls
     /tmp/ccpV5owi.s:1715   .text.allocate_btn_areas_and_controls:000000000000007c $d
     /tmp/ccpV5owi.s:1720   .text.lv_btnmatrix_create:0000000000000000 $t
     /tmp/ccpV5owi.s:1727   .text.lv_btnmatrix_create:0000000000000000 lv_btnmatrix_create
     /tmp/ccpV5owi.s:1757   .text.lv_btnmatrix_create:0000000000000014 $d
     /tmp/ccpV5owi.s:1762   .text.lv_btnmatrix_set_map:0000000000000000 $t
     /tmp/ccpV5owi.s:1769   .text.lv_btnmatrix_set_map:0000000000000000 lv_btnmatrix_set_map
     /tmp/ccpV5owi.s:2132   .text.lv_btnmatrix_set_map:00000000000001d0 $d
     /tmp/ccpV5owi.s:2137   .text.lv_btnmatrix_constructor:0000000000000000 $t
     /tmp/ccpV5owi.s:2143   .text.lv_btnmatrix_constructor:0000000000000000 lv_btnmatrix_constructor
     /tmp/ccpV5owi.s:2185   .text.lv_btnmatrix_constructor:000000000000002c $d
     /tmp/ccpV5owi.s:2190   .text.lv_btnmatrix_set_ctrl_map:0000000000000000 $t
     /tmp/ccpV5owi.s:2197   .text.lv_btnmatrix_set_ctrl_map:0000000000000000 lv_btnmatrix_set_ctrl_map
     /tmp/ccpV5owi.s:2229   .text.lv_btnmatrix_set_selected_btn:0000000000000000 $t
     /tmp/ccpV5owi.s:2236   .text.lv_btnmatrix_set_selected_btn:0000000000000000 lv_btnmatrix_set_selected_btn
     /tmp/ccpV5owi.s:2281   .text.lv_btnmatrix_clear_btn_ctrl:0000000000000000 $t
     /tmp/ccpV5owi.s:2288   .text.lv_btnmatrix_clear_btn_ctrl:0000000000000000 lv_btnmatrix_clear_btn_ctrl
     /tmp/ccpV5owi.s:2336   .text.lv_btnmatrix_clear_btn_ctrl_all:0000000000000000 $t
     /tmp/ccpV5owi.s:2343   .text.lv_btnmatrix_clear_btn_ctrl_all:0000000000000000 lv_btnmatrix_clear_btn_ctrl_all
     /tmp/ccpV5owi.s:2387   .text.lv_btnmatrix_set_btn_ctrl:0000000000000000 $t
ARM GAS  /tmp/ccpV5owi.s 			page 114


     /tmp/ccpV5owi.s:2394   .text.lv_btnmatrix_set_btn_ctrl:0000000000000000 lv_btnmatrix_set_btn_ctrl
     /tmp/ccpV5owi.s:2468   .text.lv_btnmatrix_set_btn_ctrl_all:0000000000000000 $t
     /tmp/ccpV5owi.s:2475   .text.lv_btnmatrix_set_btn_ctrl_all:0000000000000000 lv_btnmatrix_set_btn_ctrl_all
     /tmp/ccpV5owi.s:2519   .text.lv_btnmatrix_set_btn_width:0000000000000000 $t
     /tmp/ccpV5owi.s:2526   .text.lv_btnmatrix_set_btn_width:0000000000000000 lv_btnmatrix_set_btn_width
     /tmp/ccpV5owi.s:2568   .text.lv_btnmatrix_get_map:0000000000000000 $t
     /tmp/ccpV5owi.s:2575   .text.lv_btnmatrix_get_map:0000000000000000 lv_btnmatrix_get_map
     /tmp/ccpV5owi.s:2591   .text.lv_btnmatrix_get_selected_btn:0000000000000000 $t
     /tmp/ccpV5owi.s:2598   .text.lv_btnmatrix_get_selected_btn:0000000000000000 lv_btnmatrix_get_selected_btn
     /tmp/ccpV5owi.s:2614   .text.lv_btnmatrix_get_btn_text:0000000000000000 $t
     /tmp/ccpV5owi.s:2621   .text.lv_btnmatrix_get_btn_text:0000000000000000 lv_btnmatrix_get_btn_text
     /tmp/ccpV5owi.s:2719   .text.lv_btnmatrix_get_btn_text:0000000000000060 $d
     /tmp/ccpV5owi.s:2724   .text.lv_btnmatrix_has_btn_ctrl:0000000000000000 $t
     /tmp/ccpV5owi.s:2731   .text.lv_btnmatrix_has_btn_ctrl:0000000000000000 lv_btnmatrix_has_btn_ctrl
     /tmp/ccpV5owi.s:2763   .text.make_one_button_checked:0000000000000000 $t
     /tmp/ccpV5owi.s:2769   .text.make_one_button_checked:0000000000000000 make_one_button_checked
     /tmp/ccpV5owi.s:2815   .text.lv_btnmatrix_event:0000000000000000 $t
     /tmp/ccpV5owi.s:2821   .text.lv_btnmatrix_event:0000000000000000 lv_btnmatrix_event
     /tmp/ccpV5owi.s:3353   .text.lv_btnmatrix_event:00000000000002fc $d
     /tmp/ccpV5owi.s:3357   .text.lv_btnmatrix_event:0000000000000300 $t
     /tmp/ccpV5owi.s:3944   .text.lv_btnmatrix_set_one_checked:0000000000000000 $t
     /tmp/ccpV5owi.s:3951   .text.lv_btnmatrix_set_one_checked:0000000000000000 lv_btnmatrix_set_one_checked
     /tmp/ccpV5owi.s:3979   .text.lv_btnmatrix_get_one_checked:0000000000000000 $t
     /tmp/ccpV5owi.s:3986   .text.lv_btnmatrix_get_one_checked:0000000000000000 lv_btnmatrix_get_one_checked
     /tmp/ccpV5owi.s:4026   .rodata.lv_btnmatrix_class:0000000000000000 lv_btnmatrix_class
     /tmp/ccpV5owi.s:4005   .data.lv_btnmatrix_def_map:0000000000000000 $d
     /tmp/ccpV5owi.s:4009   .data.lv_btnmatrix_def_map:0000000000000000 lv_btnmatrix_def_map
     /tmp/ccpV5owi.s:4018   .rodata.has_popovers_in_top_row.str1.4:0000000000000000 $d
     /tmp/ccpV5owi.s:4022   .rodata.lv_btnmatrix_class:0000000000000000 $d
     /tmp/ccpV5owi.s:4039   .rodata.str1.4:0000000000000000 $d

UNDEFINED SYMBOLS
strcmp
lv_obj_get_coords
lv_obj_get_width
lv_obj_get_height
lv_obj_get_style_prop
_lv_area_is_point_on
lv_obj_get_disp
lv_disp_get_dpi
lv_obj_invalidate_area
lv_event_get_target
lv_event_get_draw_ctx
lv_draw_rect_dsc_init
lv_draw_label_dsc_init
lv_obj_init_draw_rect_dsc
lv_obj_init_draw_label_dsc
lv_obj_draw_dsc_init
lv_memcpy
lv_event_send
lv_draw_rect
lv_txt_get_size
lv_draw_label
lv_mem_free
lv_mem_alloc
lv_memset_00
lv_obj_class_create_obj
ARM GAS  /tmp/ccpV5owi.s 			page 115


lv_obj_class_init_obj
lv_obj_get_content_width
lv_obj_get_content_height
lv_area_set
lv_obj_refresh_ext_draw_size
lv_obj_invalidate
lv_obj_event_base
lv_event_get_code
lv_event_set_ext_draw_size
lv_event_get_param
lv_indev_get_act
lv_indev_get_type
lv_indev_get_point
lv_indev_reset_long_press
lv_obj_get_group
lv_group_get_editing
lv_indev_get_next
lv_obj_class
