ARM GAS  /tmp/ccpV5owi.s 			page 1


   1              		.cpu cortex-m7
   2              		.eabi_attribute 28, 1
   3              		.eabi_attribute 20, 1
   4              		.eabi_attribute 21, 1
   5              		.eabi_attribute 23, 3
   6              		.eabi_attribute 24, 1
   7              		.eabi_attribute 25, 1
   8              		.eabi_attribute 26, 1
   9              		.eabi_attribute 30, 1
  10              		.eabi_attribute 34, 1
  11              		.eabi_attribute 18, 4
  12              		.file	"lv_btnmatrix.c"
  13              		.text
  14              	.Ltext0:
  15              		.cfi_sections	.debug_frame
  16              		.section	.text.get_button_width,"ax",%progbits
  17              		.align	1
  18              		.syntax unified
  19              		.thumb
  20              		.thumb_func
  21              		.fpu fpv5-d16
  23              	get_button_width:
  24              	.LFB179:
  25              		.file 1 "Drivers/lvgl/lvgl/src/widgets/lv_btnmatrix.c"
   1:Drivers/lvgl/lvgl/src/widgets/lv_btnmatrix.c **** /**
   2:Drivers/lvgl/lvgl/src/widgets/lv_btnmatrix.c ****  * @file lv_btnmatrix.c
   3:Drivers/lvgl/lvgl/src/widgets/lv_btnmatrix.c ****  *
   4:Drivers/lvgl/lvgl/src/widgets/lv_btnmatrix.c ****  */
   5:Drivers/lvgl/lvgl/src/widgets/lv_btnmatrix.c **** 
   6:Drivers/lvgl/lvgl/src/widgets/lv_btnmatrix.c **** /*********************
   7:Drivers/lvgl/lvgl/src/widgets/lv_btnmatrix.c ****  *      INCLUDES
   8:Drivers/lvgl/lvgl/src/widgets/lv_btnmatrix.c ****  *********************/
   9:Drivers/lvgl/lvgl/src/widgets/lv_btnmatrix.c **** #include "lv_btnmatrix.h"
  10:Drivers/lvgl/lvgl/src/widgets/lv_btnmatrix.c **** #if LV_USE_BTNMATRIX != 0
  11:Drivers/lvgl/lvgl/src/widgets/lv_btnmatrix.c **** 
  12:Drivers/lvgl/lvgl/src/widgets/lv_btnmatrix.c **** #include "../misc/lv_assert.h"
  13:Drivers/lvgl/lvgl/src/widgets/lv_btnmatrix.c **** #include "../core/lv_indev.h"
  14:Drivers/lvgl/lvgl/src/widgets/lv_btnmatrix.c **** #include "../core/lv_group.h"
  15:Drivers/lvgl/lvgl/src/widgets/lv_btnmatrix.c **** #include "../draw/lv_draw.h"
  16:Drivers/lvgl/lvgl/src/widgets/lv_btnmatrix.c **** #include "../core/lv_refr.h"
  17:Drivers/lvgl/lvgl/src/widgets/lv_btnmatrix.c **** #include "../misc/lv_txt.h"
  18:Drivers/lvgl/lvgl/src/widgets/lv_btnmatrix.c **** #include "../misc/lv_txt_ap.h"
  19:Drivers/lvgl/lvgl/src/widgets/lv_btnmatrix.c **** 
  20:Drivers/lvgl/lvgl/src/widgets/lv_btnmatrix.c **** /*********************
  21:Drivers/lvgl/lvgl/src/widgets/lv_btnmatrix.c ****  *      DEFINES
  22:Drivers/lvgl/lvgl/src/widgets/lv_btnmatrix.c ****  *********************/
  23:Drivers/lvgl/lvgl/src/widgets/lv_btnmatrix.c **** #define MY_CLASS &lv_btnmatrix_class
  24:Drivers/lvgl/lvgl/src/widgets/lv_btnmatrix.c **** 
  25:Drivers/lvgl/lvgl/src/widgets/lv_btnmatrix.c **** #define BTN_EXTRA_CLICK_AREA_MAX (LV_DPI_DEF / 10)
  26:Drivers/lvgl/lvgl/src/widgets/lv_btnmatrix.c **** #define LV_BTNMATRIX_WIDTH_MASK 0x0007
  27:Drivers/lvgl/lvgl/src/widgets/lv_btnmatrix.c **** 
  28:Drivers/lvgl/lvgl/src/widgets/lv_btnmatrix.c **** /**********************
  29:Drivers/lvgl/lvgl/src/widgets/lv_btnmatrix.c ****  *      TYPEDEFS
  30:Drivers/lvgl/lvgl/src/widgets/lv_btnmatrix.c ****  **********************/
  31:Drivers/lvgl/lvgl/src/widgets/lv_btnmatrix.c **** 
  32:Drivers/lvgl/lvgl/src/widgets/lv_btnmatrix.c **** /**********************
  33:Drivers/lvgl/lvgl/src/widgets/lv_btnmatrix.c ****  *  STATIC PROTOTYPES
ARM GAS  /tmp/ccpV5owi.s 			page 2


  34:Drivers/lvgl/lvgl/src/widgets/lv_btnmatrix.c ****  **********************/
  35:Drivers/lvgl/lvgl/src/widgets/lv_btnmatrix.c **** static void lv_btnmatrix_constructor(const lv_obj_class_t * class_p, lv_obj_t * obj);
  36:Drivers/lvgl/lvgl/src/widgets/lv_btnmatrix.c **** static void lv_btnmatrix_destructor(const lv_obj_class_t * class_p, lv_obj_t * obj);
  37:Drivers/lvgl/lvgl/src/widgets/lv_btnmatrix.c **** static void lv_btnmatrix_event(const lv_obj_class_t * class_p, lv_event_t * e);
  38:Drivers/lvgl/lvgl/src/widgets/lv_btnmatrix.c **** static void draw_main(lv_event_t * e);
  39:Drivers/lvgl/lvgl/src/widgets/lv_btnmatrix.c **** 
  40:Drivers/lvgl/lvgl/src/widgets/lv_btnmatrix.c **** static uint8_t get_button_width(lv_btnmatrix_ctrl_t ctrl_bits);
  41:Drivers/lvgl/lvgl/src/widgets/lv_btnmatrix.c **** static bool button_is_hidden(lv_btnmatrix_ctrl_t ctrl_bits);
  42:Drivers/lvgl/lvgl/src/widgets/lv_btnmatrix.c **** static bool button_is_checked(lv_btnmatrix_ctrl_t ctrl_bits);
  43:Drivers/lvgl/lvgl/src/widgets/lv_btnmatrix.c **** static bool button_is_repeat_disabled(lv_btnmatrix_ctrl_t ctrl_bits);
  44:Drivers/lvgl/lvgl/src/widgets/lv_btnmatrix.c **** static bool button_is_inactive(lv_btnmatrix_ctrl_t ctrl_bits);
  45:Drivers/lvgl/lvgl/src/widgets/lv_btnmatrix.c **** static bool button_is_click_trig(lv_btnmatrix_ctrl_t ctrl_bits);
  46:Drivers/lvgl/lvgl/src/widgets/lv_btnmatrix.c **** static bool button_is_popover(lv_btnmatrix_ctrl_t ctrl_bits);
  47:Drivers/lvgl/lvgl/src/widgets/lv_btnmatrix.c **** static bool button_is_checkable(lv_btnmatrix_ctrl_t ctrl_bits);
  48:Drivers/lvgl/lvgl/src/widgets/lv_btnmatrix.c **** static bool button_is_recolor(lv_btnmatrix_ctrl_t ctrl_bits);
  49:Drivers/lvgl/lvgl/src/widgets/lv_btnmatrix.c **** static bool button_get_checked(lv_btnmatrix_ctrl_t ctrl_bits);
  50:Drivers/lvgl/lvgl/src/widgets/lv_btnmatrix.c **** static uint16_t get_button_from_point(lv_obj_t * obj, lv_point_t * p);
  51:Drivers/lvgl/lvgl/src/widgets/lv_btnmatrix.c **** static void allocate_btn_areas_and_controls(const lv_obj_t * obj, const char ** map);
  52:Drivers/lvgl/lvgl/src/widgets/lv_btnmatrix.c **** static void invalidate_button_area(const lv_obj_t * obj, uint16_t btn_idx);
  53:Drivers/lvgl/lvgl/src/widgets/lv_btnmatrix.c **** static void make_one_button_checked(lv_obj_t * obj, uint16_t btn_idx);
  54:Drivers/lvgl/lvgl/src/widgets/lv_btnmatrix.c **** static bool has_popovers_in_top_row(lv_obj_t * obj);
  55:Drivers/lvgl/lvgl/src/widgets/lv_btnmatrix.c **** 
  56:Drivers/lvgl/lvgl/src/widgets/lv_btnmatrix.c **** /**********************
  57:Drivers/lvgl/lvgl/src/widgets/lv_btnmatrix.c ****  *  STATIC VARIABLES
  58:Drivers/lvgl/lvgl/src/widgets/lv_btnmatrix.c ****  **********************/
  59:Drivers/lvgl/lvgl/src/widgets/lv_btnmatrix.c **** static const char * lv_btnmatrix_def_map[] = {"Btn1", "Btn2", "Btn3", "\n", "Btn4", "Btn5", ""};
  60:Drivers/lvgl/lvgl/src/widgets/lv_btnmatrix.c **** 
  61:Drivers/lvgl/lvgl/src/widgets/lv_btnmatrix.c **** const lv_obj_class_t lv_btnmatrix_class = {
  62:Drivers/lvgl/lvgl/src/widgets/lv_btnmatrix.c ****     .constructor_cb = lv_btnmatrix_constructor,
  63:Drivers/lvgl/lvgl/src/widgets/lv_btnmatrix.c ****     .destructor_cb = lv_btnmatrix_destructor,
  64:Drivers/lvgl/lvgl/src/widgets/lv_btnmatrix.c ****     .event_cb = lv_btnmatrix_event,
  65:Drivers/lvgl/lvgl/src/widgets/lv_btnmatrix.c ****     .width_def = LV_DPI_DEF * 2,
  66:Drivers/lvgl/lvgl/src/widgets/lv_btnmatrix.c ****     .height_def = LV_DPI_DEF,
  67:Drivers/lvgl/lvgl/src/widgets/lv_btnmatrix.c ****     .instance_size = sizeof(lv_btnmatrix_t),
  68:Drivers/lvgl/lvgl/src/widgets/lv_btnmatrix.c ****     .editable = LV_OBJ_CLASS_EDITABLE_TRUE,
  69:Drivers/lvgl/lvgl/src/widgets/lv_btnmatrix.c ****     .group_def = LV_OBJ_CLASS_GROUP_DEF_TRUE,
  70:Drivers/lvgl/lvgl/src/widgets/lv_btnmatrix.c ****     .base_class = &lv_obj_class
  71:Drivers/lvgl/lvgl/src/widgets/lv_btnmatrix.c **** };
  72:Drivers/lvgl/lvgl/src/widgets/lv_btnmatrix.c **** 
  73:Drivers/lvgl/lvgl/src/widgets/lv_btnmatrix.c **** /**********************
  74:Drivers/lvgl/lvgl/src/widgets/lv_btnmatrix.c ****  *      MACROS
  75:Drivers/lvgl/lvgl/src/widgets/lv_btnmatrix.c ****  **********************/
  76:Drivers/lvgl/lvgl/src/widgets/lv_btnmatrix.c **** 
  77:Drivers/lvgl/lvgl/src/widgets/lv_btnmatrix.c **** /**********************
  78:Drivers/lvgl/lvgl/src/widgets/lv_btnmatrix.c ****  *   GLOBAL FUNCTIONS
  79:Drivers/lvgl/lvgl/src/widgets/lv_btnmatrix.c ****  **********************/
  80:Drivers/lvgl/lvgl/src/widgets/lv_btnmatrix.c **** 
  81:Drivers/lvgl/lvgl/src/widgets/lv_btnmatrix.c **** lv_obj_t * lv_btnmatrix_create(lv_obj_t * parent)
  82:Drivers/lvgl/lvgl/src/widgets/lv_btnmatrix.c **** {
  83:Drivers/lvgl/lvgl/src/widgets/lv_btnmatrix.c ****     LV_LOG_INFO("begin");
  84:Drivers/lvgl/lvgl/src/widgets/lv_btnmatrix.c ****     lv_obj_t * obj = lv_obj_class_create_obj(MY_CLASS, parent);
  85:Drivers/lvgl/lvgl/src/widgets/lv_btnmatrix.c ****     lv_obj_class_init_obj(obj);
  86:Drivers/lvgl/lvgl/src/widgets/lv_btnmatrix.c ****     return obj;
  87:Drivers/lvgl/lvgl/src/widgets/lv_btnmatrix.c **** }
  88:Drivers/lvgl/lvgl/src/widgets/lv_btnmatrix.c **** 
  89:Drivers/lvgl/lvgl/src/widgets/lv_btnmatrix.c **** /*=====================
  90:Drivers/lvgl/lvgl/src/widgets/lv_btnmatrix.c ****  * Setter functions
ARM GAS  /tmp/ccpV5owi.s 			page 3


  91:Drivers/lvgl/lvgl/src/widgets/lv_btnmatrix.c ****  *====================*/
  92:Drivers/lvgl/lvgl/src/widgets/lv_btnmatrix.c **** 
  93:Drivers/lvgl/lvgl/src/widgets/lv_btnmatrix.c **** void lv_btnmatrix_set_map(lv_obj_t * obj, const char * map[])
  94:Drivers/lvgl/lvgl/src/widgets/lv_btnmatrix.c **** {
  95:Drivers/lvgl/lvgl/src/widgets/lv_btnmatrix.c ****     LV_ASSERT_OBJ(obj, MY_CLASS);
  96:Drivers/lvgl/lvgl/src/widgets/lv_btnmatrix.c ****     if(map == NULL) return;
  97:Drivers/lvgl/lvgl/src/widgets/lv_btnmatrix.c **** 
  98:Drivers/lvgl/lvgl/src/widgets/lv_btnmatrix.c ****     lv_btnmatrix_t * btnm = (lv_btnmatrix_t *)obj;
  99:Drivers/lvgl/lvgl/src/widgets/lv_btnmatrix.c **** 
 100:Drivers/lvgl/lvgl/src/widgets/lv_btnmatrix.c ****     /*Analyze the map and create the required number of buttons*/
 101:Drivers/lvgl/lvgl/src/widgets/lv_btnmatrix.c ****     allocate_btn_areas_and_controls(obj, map);
 102:Drivers/lvgl/lvgl/src/widgets/lv_btnmatrix.c ****     btnm->map_p = map;
 103:Drivers/lvgl/lvgl/src/widgets/lv_btnmatrix.c **** 
 104:Drivers/lvgl/lvgl/src/widgets/lv_btnmatrix.c ****     lv_base_dir_t base_dir = lv_obj_get_style_base_dir(obj, LV_PART_MAIN);
 105:Drivers/lvgl/lvgl/src/widgets/lv_btnmatrix.c **** 
 106:Drivers/lvgl/lvgl/src/widgets/lv_btnmatrix.c ****     /*Set size and positions of the buttons*/
 107:Drivers/lvgl/lvgl/src/widgets/lv_btnmatrix.c ****     lv_coord_t pleft = lv_obj_get_style_pad_left(obj, LV_PART_MAIN);
 108:Drivers/lvgl/lvgl/src/widgets/lv_btnmatrix.c ****     lv_coord_t ptop = lv_obj_get_style_pad_top(obj, LV_PART_MAIN);
 109:Drivers/lvgl/lvgl/src/widgets/lv_btnmatrix.c ****     lv_coord_t prow = lv_obj_get_style_pad_row(obj, LV_PART_MAIN);
 110:Drivers/lvgl/lvgl/src/widgets/lv_btnmatrix.c ****     lv_coord_t pcol = lv_obj_get_style_pad_column(obj, LV_PART_MAIN);
 111:Drivers/lvgl/lvgl/src/widgets/lv_btnmatrix.c **** 
 112:Drivers/lvgl/lvgl/src/widgets/lv_btnmatrix.c ****     lv_coord_t max_w            = lv_obj_get_content_width(obj);
 113:Drivers/lvgl/lvgl/src/widgets/lv_btnmatrix.c ****     lv_coord_t max_h            = lv_obj_get_content_height(obj);
 114:Drivers/lvgl/lvgl/src/widgets/lv_btnmatrix.c **** 
 115:Drivers/lvgl/lvgl/src/widgets/lv_btnmatrix.c ****     /*Calculate the position of each row*/
 116:Drivers/lvgl/lvgl/src/widgets/lv_btnmatrix.c ****     lv_coord_t max_h_no_gap = max_h - (prow * (btnm->row_cnt - 1));
 117:Drivers/lvgl/lvgl/src/widgets/lv_btnmatrix.c **** 
 118:Drivers/lvgl/lvgl/src/widgets/lv_btnmatrix.c ****     /*Count the units and the buttons in a line
 119:Drivers/lvgl/lvgl/src/widgets/lv_btnmatrix.c ****      *(A button can be 1,2,3... unit wide)*/
 120:Drivers/lvgl/lvgl/src/widgets/lv_btnmatrix.c ****     uint32_t txt_tot_i = 0; /*Act. index in the str map*/
 121:Drivers/lvgl/lvgl/src/widgets/lv_btnmatrix.c ****     uint32_t btn_tot_i = 0; /*Act. index of button areas*/
 122:Drivers/lvgl/lvgl/src/widgets/lv_btnmatrix.c ****     const char ** map_row = map;
 123:Drivers/lvgl/lvgl/src/widgets/lv_btnmatrix.c **** 
 124:Drivers/lvgl/lvgl/src/widgets/lv_btnmatrix.c ****     /*Count the units and the buttons in a line*/
 125:Drivers/lvgl/lvgl/src/widgets/lv_btnmatrix.c ****     uint32_t row;
 126:Drivers/lvgl/lvgl/src/widgets/lv_btnmatrix.c ****     for(row = 0; row < btnm->row_cnt; row++) {
 127:Drivers/lvgl/lvgl/src/widgets/lv_btnmatrix.c ****         uint16_t unit_cnt = 0;           /*Number of units in a row*/
 128:Drivers/lvgl/lvgl/src/widgets/lv_btnmatrix.c ****         uint16_t btn_cnt = 0;            /*Number of buttons in a row*/
 129:Drivers/lvgl/lvgl/src/widgets/lv_btnmatrix.c ****         /*Count the buttons and units in this row*/
 130:Drivers/lvgl/lvgl/src/widgets/lv_btnmatrix.c ****         while(map_row[btn_cnt] && strcmp(map_row[btn_cnt], "\n") != 0 && map_row[btn_cnt][0] != '\0
 131:Drivers/lvgl/lvgl/src/widgets/lv_btnmatrix.c ****             unit_cnt += get_button_width(btnm->ctrl_bits[btn_tot_i + btn_cnt]);
 132:Drivers/lvgl/lvgl/src/widgets/lv_btnmatrix.c ****             btn_cnt++;
 133:Drivers/lvgl/lvgl/src/widgets/lv_btnmatrix.c ****         }
 134:Drivers/lvgl/lvgl/src/widgets/lv_btnmatrix.c **** 
 135:Drivers/lvgl/lvgl/src/widgets/lv_btnmatrix.c ****         /*Only deal with the non empty lines*/
 136:Drivers/lvgl/lvgl/src/widgets/lv_btnmatrix.c ****         if(btn_cnt == 0) {
 137:Drivers/lvgl/lvgl/src/widgets/lv_btnmatrix.c ****             map_row = &map_row[btn_cnt + 1];       /*Set the map to the next row*/
 138:Drivers/lvgl/lvgl/src/widgets/lv_btnmatrix.c ****             continue;
 139:Drivers/lvgl/lvgl/src/widgets/lv_btnmatrix.c ****         }
 140:Drivers/lvgl/lvgl/src/widgets/lv_btnmatrix.c **** 
 141:Drivers/lvgl/lvgl/src/widgets/lv_btnmatrix.c ****         lv_coord_t row_y1 = ptop + (max_h_no_gap * row) / btnm->row_cnt + row * prow;
 142:Drivers/lvgl/lvgl/src/widgets/lv_btnmatrix.c ****         lv_coord_t row_y2 = ptop + (max_h_no_gap * (row + 1)) / btnm->row_cnt + row * prow - 1;
 143:Drivers/lvgl/lvgl/src/widgets/lv_btnmatrix.c **** 
 144:Drivers/lvgl/lvgl/src/widgets/lv_btnmatrix.c ****         /*Set the button size and positions*/
 145:Drivers/lvgl/lvgl/src/widgets/lv_btnmatrix.c ****         lv_coord_t max_w_no_gap = max_w - (pcol * (btn_cnt - 1));
 146:Drivers/lvgl/lvgl/src/widgets/lv_btnmatrix.c ****         if(max_w_no_gap < 0) max_w_no_gap = 0;
 147:Drivers/lvgl/lvgl/src/widgets/lv_btnmatrix.c **** 
ARM GAS  /tmp/ccpV5owi.s 			page 4


 148:Drivers/lvgl/lvgl/src/widgets/lv_btnmatrix.c ****         uint32_t row_unit_cnt = 0;  /*The current unit position in the row*/
 149:Drivers/lvgl/lvgl/src/widgets/lv_btnmatrix.c ****         uint32_t btn;
 150:Drivers/lvgl/lvgl/src/widgets/lv_btnmatrix.c ****         for(btn = 0; btn < btn_cnt; btn++, btn_tot_i++, txt_tot_i++) {
 151:Drivers/lvgl/lvgl/src/widgets/lv_btnmatrix.c ****             uint32_t btn_u = get_button_width(btnm->ctrl_bits[btn_tot_i]);
 152:Drivers/lvgl/lvgl/src/widgets/lv_btnmatrix.c **** 
 153:Drivers/lvgl/lvgl/src/widgets/lv_btnmatrix.c ****             lv_coord_t btn_x1 = (max_w_no_gap * row_unit_cnt) / unit_cnt + btn * pcol;
 154:Drivers/lvgl/lvgl/src/widgets/lv_btnmatrix.c ****             lv_coord_t btn_x2 = (max_w_no_gap * (row_unit_cnt + btn_u)) / unit_cnt + btn * pcol - 1
 155:Drivers/lvgl/lvgl/src/widgets/lv_btnmatrix.c **** 
 156:Drivers/lvgl/lvgl/src/widgets/lv_btnmatrix.c ****             /*If RTL start from the right*/
 157:Drivers/lvgl/lvgl/src/widgets/lv_btnmatrix.c ****             if(base_dir == LV_BASE_DIR_RTL) {
 158:Drivers/lvgl/lvgl/src/widgets/lv_btnmatrix.c ****                 lv_coord_t tmp = btn_x1;
 159:Drivers/lvgl/lvgl/src/widgets/lv_btnmatrix.c ****                 btn_x1 = btn_x2;
 160:Drivers/lvgl/lvgl/src/widgets/lv_btnmatrix.c ****                 btn_x2 = tmp;
 161:Drivers/lvgl/lvgl/src/widgets/lv_btnmatrix.c **** 
 162:Drivers/lvgl/lvgl/src/widgets/lv_btnmatrix.c ****                 btn_x1 = max_w - btn_x1;
 163:Drivers/lvgl/lvgl/src/widgets/lv_btnmatrix.c ****                 btn_x2 = max_w - btn_x2;
 164:Drivers/lvgl/lvgl/src/widgets/lv_btnmatrix.c ****             }
 165:Drivers/lvgl/lvgl/src/widgets/lv_btnmatrix.c **** 
 166:Drivers/lvgl/lvgl/src/widgets/lv_btnmatrix.c ****             btn_x1 += pleft;
 167:Drivers/lvgl/lvgl/src/widgets/lv_btnmatrix.c ****             btn_x2 += pleft;
 168:Drivers/lvgl/lvgl/src/widgets/lv_btnmatrix.c **** 
 169:Drivers/lvgl/lvgl/src/widgets/lv_btnmatrix.c ****             lv_area_set(&btnm->button_areas[btn_tot_i], btn_x1, row_y1, btn_x2, row_y2);
 170:Drivers/lvgl/lvgl/src/widgets/lv_btnmatrix.c **** 
 171:Drivers/lvgl/lvgl/src/widgets/lv_btnmatrix.c ****             row_unit_cnt += btn_u;
 172:Drivers/lvgl/lvgl/src/widgets/lv_btnmatrix.c ****         }
 173:Drivers/lvgl/lvgl/src/widgets/lv_btnmatrix.c **** 
 174:Drivers/lvgl/lvgl/src/widgets/lv_btnmatrix.c ****         map_row = &map_row[btn_cnt + 1];       /*Set the map to the next line*/
 175:Drivers/lvgl/lvgl/src/widgets/lv_btnmatrix.c ****     }
 176:Drivers/lvgl/lvgl/src/widgets/lv_btnmatrix.c **** 
 177:Drivers/lvgl/lvgl/src/widgets/lv_btnmatrix.c ****     /*Popovers in the top row will draw outside the widget and the extended draw size depends on
 178:Drivers/lvgl/lvgl/src/widgets/lv_btnmatrix.c ****      *the row height which may have changed when setting the new map*/
 179:Drivers/lvgl/lvgl/src/widgets/lv_btnmatrix.c ****     lv_obj_refresh_ext_draw_size(obj);
 180:Drivers/lvgl/lvgl/src/widgets/lv_btnmatrix.c **** 
 181:Drivers/lvgl/lvgl/src/widgets/lv_btnmatrix.c ****     lv_obj_invalidate(obj);
 182:Drivers/lvgl/lvgl/src/widgets/lv_btnmatrix.c **** }
 183:Drivers/lvgl/lvgl/src/widgets/lv_btnmatrix.c **** 
 184:Drivers/lvgl/lvgl/src/widgets/lv_btnmatrix.c **** void lv_btnmatrix_set_ctrl_map(lv_obj_t * obj, const lv_btnmatrix_ctrl_t ctrl_map[])
 185:Drivers/lvgl/lvgl/src/widgets/lv_btnmatrix.c **** {
 186:Drivers/lvgl/lvgl/src/widgets/lv_btnmatrix.c ****     LV_ASSERT_OBJ(obj, MY_CLASS);
 187:Drivers/lvgl/lvgl/src/widgets/lv_btnmatrix.c **** 
 188:Drivers/lvgl/lvgl/src/widgets/lv_btnmatrix.c ****     lv_btnmatrix_t * btnm = (lv_btnmatrix_t *)obj;
 189:Drivers/lvgl/lvgl/src/widgets/lv_btnmatrix.c ****     lv_memcpy(btnm->ctrl_bits, ctrl_map, sizeof(lv_btnmatrix_ctrl_t) * btnm->btn_cnt);
 190:Drivers/lvgl/lvgl/src/widgets/lv_btnmatrix.c **** 
 191:Drivers/lvgl/lvgl/src/widgets/lv_btnmatrix.c ****     lv_btnmatrix_set_map(obj, btnm->map_p);
 192:Drivers/lvgl/lvgl/src/widgets/lv_btnmatrix.c **** }
 193:Drivers/lvgl/lvgl/src/widgets/lv_btnmatrix.c **** 
 194:Drivers/lvgl/lvgl/src/widgets/lv_btnmatrix.c **** void lv_btnmatrix_set_selected_btn(lv_obj_t * obj, uint16_t btn_id)
 195:Drivers/lvgl/lvgl/src/widgets/lv_btnmatrix.c **** {
 196:Drivers/lvgl/lvgl/src/widgets/lv_btnmatrix.c ****     LV_ASSERT_OBJ(obj, MY_CLASS);
 197:Drivers/lvgl/lvgl/src/widgets/lv_btnmatrix.c **** 
 198:Drivers/lvgl/lvgl/src/widgets/lv_btnmatrix.c ****     lv_btnmatrix_t * btnm = (lv_btnmatrix_t *)obj;
 199:Drivers/lvgl/lvgl/src/widgets/lv_btnmatrix.c **** 
 200:Drivers/lvgl/lvgl/src/widgets/lv_btnmatrix.c ****     if(btn_id >= btnm->btn_cnt && btn_id != LV_BTNMATRIX_BTN_NONE) return;
 201:Drivers/lvgl/lvgl/src/widgets/lv_btnmatrix.c **** 
 202:Drivers/lvgl/lvgl/src/widgets/lv_btnmatrix.c ****     invalidate_button_area(obj, btnm->btn_id_sel);
 203:Drivers/lvgl/lvgl/src/widgets/lv_btnmatrix.c ****     btnm->btn_id_sel = btn_id;
 204:Drivers/lvgl/lvgl/src/widgets/lv_btnmatrix.c ****     invalidate_button_area(obj, btn_id);
ARM GAS  /tmp/ccpV5owi.s 			page 5


 205:Drivers/lvgl/lvgl/src/widgets/lv_btnmatrix.c **** }
 206:Drivers/lvgl/lvgl/src/widgets/lv_btnmatrix.c **** 
 207:Drivers/lvgl/lvgl/src/widgets/lv_btnmatrix.c **** void lv_btnmatrix_set_btn_ctrl(lv_obj_t * obj, uint16_t btn_id, lv_btnmatrix_ctrl_t ctrl)
 208:Drivers/lvgl/lvgl/src/widgets/lv_btnmatrix.c **** {
 209:Drivers/lvgl/lvgl/src/widgets/lv_btnmatrix.c ****     LV_ASSERT_OBJ(obj, MY_CLASS);
 210:Drivers/lvgl/lvgl/src/widgets/lv_btnmatrix.c **** 
 211:Drivers/lvgl/lvgl/src/widgets/lv_btnmatrix.c ****     lv_btnmatrix_t * btnm = (lv_btnmatrix_t *)obj;;
 212:Drivers/lvgl/lvgl/src/widgets/lv_btnmatrix.c **** 
 213:Drivers/lvgl/lvgl/src/widgets/lv_btnmatrix.c ****     if(btn_id >= btnm->btn_cnt) return;
 214:Drivers/lvgl/lvgl/src/widgets/lv_btnmatrix.c **** 
 215:Drivers/lvgl/lvgl/src/widgets/lv_btnmatrix.c ****     if(btnm->one_check && (ctrl & LV_BTNMATRIX_CTRL_CHECKED)) {
 216:Drivers/lvgl/lvgl/src/widgets/lv_btnmatrix.c ****         lv_btnmatrix_clear_btn_ctrl_all(obj, LV_BTNMATRIX_CTRL_CHECKED);
 217:Drivers/lvgl/lvgl/src/widgets/lv_btnmatrix.c ****     }
 218:Drivers/lvgl/lvgl/src/widgets/lv_btnmatrix.c **** 
 219:Drivers/lvgl/lvgl/src/widgets/lv_btnmatrix.c ****     btnm->ctrl_bits[btn_id] |= ctrl;
 220:Drivers/lvgl/lvgl/src/widgets/lv_btnmatrix.c ****     invalidate_button_area(obj, btn_id);
 221:Drivers/lvgl/lvgl/src/widgets/lv_btnmatrix.c **** 
 222:Drivers/lvgl/lvgl/src/widgets/lv_btnmatrix.c ****     if(ctrl & LV_BTNMATRIX_CTRL_POPOVER) {
 223:Drivers/lvgl/lvgl/src/widgets/lv_btnmatrix.c ****         lv_obj_refresh_ext_draw_size(obj);
 224:Drivers/lvgl/lvgl/src/widgets/lv_btnmatrix.c ****     }
 225:Drivers/lvgl/lvgl/src/widgets/lv_btnmatrix.c **** }
 226:Drivers/lvgl/lvgl/src/widgets/lv_btnmatrix.c **** 
 227:Drivers/lvgl/lvgl/src/widgets/lv_btnmatrix.c **** void lv_btnmatrix_clear_btn_ctrl(lv_obj_t * obj, uint16_t btn_id, lv_btnmatrix_ctrl_t ctrl)
 228:Drivers/lvgl/lvgl/src/widgets/lv_btnmatrix.c **** {
 229:Drivers/lvgl/lvgl/src/widgets/lv_btnmatrix.c ****     LV_ASSERT_OBJ(obj, MY_CLASS);
 230:Drivers/lvgl/lvgl/src/widgets/lv_btnmatrix.c **** 
 231:Drivers/lvgl/lvgl/src/widgets/lv_btnmatrix.c ****     lv_btnmatrix_t * btnm = (lv_btnmatrix_t *)obj;;
 232:Drivers/lvgl/lvgl/src/widgets/lv_btnmatrix.c **** 
 233:Drivers/lvgl/lvgl/src/widgets/lv_btnmatrix.c ****     if(btn_id >= btnm->btn_cnt) return;
 234:Drivers/lvgl/lvgl/src/widgets/lv_btnmatrix.c **** 
 235:Drivers/lvgl/lvgl/src/widgets/lv_btnmatrix.c ****     btnm->ctrl_bits[btn_id] &= (~ctrl);
 236:Drivers/lvgl/lvgl/src/widgets/lv_btnmatrix.c ****     invalidate_button_area(obj, btn_id);
 237:Drivers/lvgl/lvgl/src/widgets/lv_btnmatrix.c **** 
 238:Drivers/lvgl/lvgl/src/widgets/lv_btnmatrix.c ****     if(ctrl & LV_BTNMATRIX_CTRL_POPOVER) {
 239:Drivers/lvgl/lvgl/src/widgets/lv_btnmatrix.c ****         lv_obj_refresh_ext_draw_size(obj);
 240:Drivers/lvgl/lvgl/src/widgets/lv_btnmatrix.c ****     }
 241:Drivers/lvgl/lvgl/src/widgets/lv_btnmatrix.c **** }
 242:Drivers/lvgl/lvgl/src/widgets/lv_btnmatrix.c **** 
 243:Drivers/lvgl/lvgl/src/widgets/lv_btnmatrix.c **** void lv_btnmatrix_set_btn_ctrl_all(lv_obj_t * obj, lv_btnmatrix_ctrl_t ctrl)
 244:Drivers/lvgl/lvgl/src/widgets/lv_btnmatrix.c **** {
 245:Drivers/lvgl/lvgl/src/widgets/lv_btnmatrix.c ****     LV_ASSERT_OBJ(obj, MY_CLASS);
 246:Drivers/lvgl/lvgl/src/widgets/lv_btnmatrix.c **** 
 247:Drivers/lvgl/lvgl/src/widgets/lv_btnmatrix.c ****     lv_btnmatrix_t * btnm = (lv_btnmatrix_t *)obj;;
 248:Drivers/lvgl/lvgl/src/widgets/lv_btnmatrix.c ****     uint16_t i;
 249:Drivers/lvgl/lvgl/src/widgets/lv_btnmatrix.c ****     for(i = 0; i < btnm->btn_cnt; i++) {
 250:Drivers/lvgl/lvgl/src/widgets/lv_btnmatrix.c ****         lv_btnmatrix_set_btn_ctrl(obj, i, ctrl);
 251:Drivers/lvgl/lvgl/src/widgets/lv_btnmatrix.c ****     }
 252:Drivers/lvgl/lvgl/src/widgets/lv_btnmatrix.c **** }
 253:Drivers/lvgl/lvgl/src/widgets/lv_btnmatrix.c **** 
 254:Drivers/lvgl/lvgl/src/widgets/lv_btnmatrix.c **** void lv_btnmatrix_clear_btn_ctrl_all(lv_obj_t * obj, lv_btnmatrix_ctrl_t ctrl)
 255:Drivers/lvgl/lvgl/src/widgets/lv_btnmatrix.c **** {
 256:Drivers/lvgl/lvgl/src/widgets/lv_btnmatrix.c ****     LV_ASSERT_OBJ(obj, MY_CLASS);
 257:Drivers/lvgl/lvgl/src/widgets/lv_btnmatrix.c **** 
 258:Drivers/lvgl/lvgl/src/widgets/lv_btnmatrix.c ****     lv_btnmatrix_t * btnm = (lv_btnmatrix_t *)obj;;
 259:Drivers/lvgl/lvgl/src/widgets/lv_btnmatrix.c ****     uint16_t i;
 260:Drivers/lvgl/lvgl/src/widgets/lv_btnmatrix.c ****     for(i = 0; i < btnm->btn_cnt; i++) {
 261:Drivers/lvgl/lvgl/src/widgets/lv_btnmatrix.c ****         lv_btnmatrix_clear_btn_ctrl(obj, i, ctrl);
ARM GAS  /tmp/ccpV5owi.s 			page 6


 262:Drivers/lvgl/lvgl/src/widgets/lv_btnmatrix.c ****     }
 263:Drivers/lvgl/lvgl/src/widgets/lv_btnmatrix.c **** }
 264:Drivers/lvgl/lvgl/src/widgets/lv_btnmatrix.c **** 
 265:Drivers/lvgl/lvgl/src/widgets/lv_btnmatrix.c **** void lv_btnmatrix_set_btn_width(lv_obj_t * obj, uint16_t btn_id, uint8_t width)
 266:Drivers/lvgl/lvgl/src/widgets/lv_btnmatrix.c **** {
 267:Drivers/lvgl/lvgl/src/widgets/lv_btnmatrix.c ****     LV_ASSERT_OBJ(obj, MY_CLASS);
 268:Drivers/lvgl/lvgl/src/widgets/lv_btnmatrix.c **** 
 269:Drivers/lvgl/lvgl/src/widgets/lv_btnmatrix.c ****     lv_btnmatrix_t * btnm = (lv_btnmatrix_t *)obj;;
 270:Drivers/lvgl/lvgl/src/widgets/lv_btnmatrix.c ****     if(btn_id >= btnm->btn_cnt) return;
 271:Drivers/lvgl/lvgl/src/widgets/lv_btnmatrix.c ****     btnm->ctrl_bits[btn_id] &= (~LV_BTNMATRIX_WIDTH_MASK);
 272:Drivers/lvgl/lvgl/src/widgets/lv_btnmatrix.c ****     btnm->ctrl_bits[btn_id] |= (LV_BTNMATRIX_WIDTH_MASK & width);
 273:Drivers/lvgl/lvgl/src/widgets/lv_btnmatrix.c **** 
 274:Drivers/lvgl/lvgl/src/widgets/lv_btnmatrix.c ****     lv_btnmatrix_set_map(obj, btnm->map_p);
 275:Drivers/lvgl/lvgl/src/widgets/lv_btnmatrix.c **** }
 276:Drivers/lvgl/lvgl/src/widgets/lv_btnmatrix.c **** 
 277:Drivers/lvgl/lvgl/src/widgets/lv_btnmatrix.c **** void lv_btnmatrix_set_one_checked(lv_obj_t * obj, bool en)
 278:Drivers/lvgl/lvgl/src/widgets/lv_btnmatrix.c **** {
 279:Drivers/lvgl/lvgl/src/widgets/lv_btnmatrix.c ****     LV_ASSERT_OBJ(obj, MY_CLASS);
 280:Drivers/lvgl/lvgl/src/widgets/lv_btnmatrix.c **** 
 281:Drivers/lvgl/lvgl/src/widgets/lv_btnmatrix.c ****     lv_btnmatrix_t * btnm = (lv_btnmatrix_t *)obj;;
 282:Drivers/lvgl/lvgl/src/widgets/lv_btnmatrix.c ****     btnm->one_check     = en;
 283:Drivers/lvgl/lvgl/src/widgets/lv_btnmatrix.c **** 
 284:Drivers/lvgl/lvgl/src/widgets/lv_btnmatrix.c ****     /*If more than one button is toggled only the first one should be*/
 285:Drivers/lvgl/lvgl/src/widgets/lv_btnmatrix.c ****     make_one_button_checked(obj, 0);
 286:Drivers/lvgl/lvgl/src/widgets/lv_btnmatrix.c **** }
 287:Drivers/lvgl/lvgl/src/widgets/lv_btnmatrix.c **** 
 288:Drivers/lvgl/lvgl/src/widgets/lv_btnmatrix.c **** /*=====================
 289:Drivers/lvgl/lvgl/src/widgets/lv_btnmatrix.c ****  * Getter functions
 290:Drivers/lvgl/lvgl/src/widgets/lv_btnmatrix.c ****  *====================*/
 291:Drivers/lvgl/lvgl/src/widgets/lv_btnmatrix.c **** 
 292:Drivers/lvgl/lvgl/src/widgets/lv_btnmatrix.c **** const char ** lv_btnmatrix_get_map(const lv_obj_t * obj)
 293:Drivers/lvgl/lvgl/src/widgets/lv_btnmatrix.c **** {
 294:Drivers/lvgl/lvgl/src/widgets/lv_btnmatrix.c ****     LV_ASSERT_OBJ(obj, MY_CLASS);
 295:Drivers/lvgl/lvgl/src/widgets/lv_btnmatrix.c **** 
 296:Drivers/lvgl/lvgl/src/widgets/lv_btnmatrix.c ****     lv_btnmatrix_t * btnm = (lv_btnmatrix_t *)obj;;
 297:Drivers/lvgl/lvgl/src/widgets/lv_btnmatrix.c ****     return btnm->map_p;
 298:Drivers/lvgl/lvgl/src/widgets/lv_btnmatrix.c **** }
 299:Drivers/lvgl/lvgl/src/widgets/lv_btnmatrix.c **** 
 300:Drivers/lvgl/lvgl/src/widgets/lv_btnmatrix.c **** uint16_t lv_btnmatrix_get_selected_btn(const lv_obj_t * obj)
 301:Drivers/lvgl/lvgl/src/widgets/lv_btnmatrix.c **** {
 302:Drivers/lvgl/lvgl/src/widgets/lv_btnmatrix.c ****     LV_ASSERT_OBJ(obj, MY_CLASS);
 303:Drivers/lvgl/lvgl/src/widgets/lv_btnmatrix.c **** 
 304:Drivers/lvgl/lvgl/src/widgets/lv_btnmatrix.c ****     lv_btnmatrix_t * btnm = (lv_btnmatrix_t *)obj;;
 305:Drivers/lvgl/lvgl/src/widgets/lv_btnmatrix.c ****     return btnm->btn_id_sel;
 306:Drivers/lvgl/lvgl/src/widgets/lv_btnmatrix.c **** }
 307:Drivers/lvgl/lvgl/src/widgets/lv_btnmatrix.c **** 
 308:Drivers/lvgl/lvgl/src/widgets/lv_btnmatrix.c **** const char * lv_btnmatrix_get_btn_text(const lv_obj_t * obj, uint16_t btn_id)
 309:Drivers/lvgl/lvgl/src/widgets/lv_btnmatrix.c **** {
 310:Drivers/lvgl/lvgl/src/widgets/lv_btnmatrix.c ****     LV_ASSERT_OBJ(obj, MY_CLASS);
 311:Drivers/lvgl/lvgl/src/widgets/lv_btnmatrix.c **** 
 312:Drivers/lvgl/lvgl/src/widgets/lv_btnmatrix.c ****     if(btn_id == LV_BTNMATRIX_BTN_NONE) return NULL;
 313:Drivers/lvgl/lvgl/src/widgets/lv_btnmatrix.c **** 
 314:Drivers/lvgl/lvgl/src/widgets/lv_btnmatrix.c ****     lv_btnmatrix_t * btnm = (lv_btnmatrix_t *)obj;
 315:Drivers/lvgl/lvgl/src/widgets/lv_btnmatrix.c ****     if(btn_id > btnm->btn_cnt) return NULL;
 316:Drivers/lvgl/lvgl/src/widgets/lv_btnmatrix.c **** 
 317:Drivers/lvgl/lvgl/src/widgets/lv_btnmatrix.c ****     uint16_t txt_i = 0;
 318:Drivers/lvgl/lvgl/src/widgets/lv_btnmatrix.c ****     uint16_t btn_i = 0;
ARM GAS  /tmp/ccpV5owi.s 			page 7


 319:Drivers/lvgl/lvgl/src/widgets/lv_btnmatrix.c **** 
 320:Drivers/lvgl/lvgl/src/widgets/lv_btnmatrix.c ****     /*Search the text of btnm->btn_pr the buttons text in the map
 321:Drivers/lvgl/lvgl/src/widgets/lv_btnmatrix.c ****      *Skip "\n"-s*/
 322:Drivers/lvgl/lvgl/src/widgets/lv_btnmatrix.c ****     while(btn_i != btn_id) {
 323:Drivers/lvgl/lvgl/src/widgets/lv_btnmatrix.c ****         btn_i++;
 324:Drivers/lvgl/lvgl/src/widgets/lv_btnmatrix.c ****         txt_i++;
 325:Drivers/lvgl/lvgl/src/widgets/lv_btnmatrix.c ****         if(strcmp(btnm->map_p[txt_i], "\n") == 0) txt_i++;
 326:Drivers/lvgl/lvgl/src/widgets/lv_btnmatrix.c ****     }
 327:Drivers/lvgl/lvgl/src/widgets/lv_btnmatrix.c **** 
 328:Drivers/lvgl/lvgl/src/widgets/lv_btnmatrix.c ****     if(btn_i == btnm->btn_cnt) return NULL;
 329:Drivers/lvgl/lvgl/src/widgets/lv_btnmatrix.c **** 
 330:Drivers/lvgl/lvgl/src/widgets/lv_btnmatrix.c ****     return btnm->map_p[txt_i];
 331:Drivers/lvgl/lvgl/src/widgets/lv_btnmatrix.c **** }
 332:Drivers/lvgl/lvgl/src/widgets/lv_btnmatrix.c **** 
 333:Drivers/lvgl/lvgl/src/widgets/lv_btnmatrix.c **** bool lv_btnmatrix_has_btn_ctrl(lv_obj_t * obj, uint16_t btn_id, lv_btnmatrix_ctrl_t ctrl)
 334:Drivers/lvgl/lvgl/src/widgets/lv_btnmatrix.c **** {
 335:Drivers/lvgl/lvgl/src/widgets/lv_btnmatrix.c ****     LV_ASSERT_OBJ(obj, MY_CLASS);
 336:Drivers/lvgl/lvgl/src/widgets/lv_btnmatrix.c **** 
 337:Drivers/lvgl/lvgl/src/widgets/lv_btnmatrix.c ****     lv_btnmatrix_t * btnm = (lv_btnmatrix_t *)obj;;
 338:Drivers/lvgl/lvgl/src/widgets/lv_btnmatrix.c ****     if(btn_id >= btnm->btn_cnt) return false;
 339:Drivers/lvgl/lvgl/src/widgets/lv_btnmatrix.c **** 
 340:Drivers/lvgl/lvgl/src/widgets/lv_btnmatrix.c ****     return ((btnm->ctrl_bits[btn_id] & ctrl) == ctrl) ? true : false;
 341:Drivers/lvgl/lvgl/src/widgets/lv_btnmatrix.c **** }
 342:Drivers/lvgl/lvgl/src/widgets/lv_btnmatrix.c **** 
 343:Drivers/lvgl/lvgl/src/widgets/lv_btnmatrix.c **** bool lv_btnmatrix_get_one_checked(const lv_obj_t * obj)
 344:Drivers/lvgl/lvgl/src/widgets/lv_btnmatrix.c **** {
 345:Drivers/lvgl/lvgl/src/widgets/lv_btnmatrix.c ****     LV_ASSERT_OBJ(obj, MY_CLASS);
 346:Drivers/lvgl/lvgl/src/widgets/lv_btnmatrix.c **** 
 347:Drivers/lvgl/lvgl/src/widgets/lv_btnmatrix.c ****     lv_btnmatrix_t * btnm = (lv_btnmatrix_t *)obj;;
 348:Drivers/lvgl/lvgl/src/widgets/lv_btnmatrix.c **** 
 349:Drivers/lvgl/lvgl/src/widgets/lv_btnmatrix.c ****     return btnm->one_check;
 350:Drivers/lvgl/lvgl/src/widgets/lv_btnmatrix.c **** }
 351:Drivers/lvgl/lvgl/src/widgets/lv_btnmatrix.c **** 
 352:Drivers/lvgl/lvgl/src/widgets/lv_btnmatrix.c **** /**********************
 353:Drivers/lvgl/lvgl/src/widgets/lv_btnmatrix.c ****  *   STATIC FUNCTIONS
 354:Drivers/lvgl/lvgl/src/widgets/lv_btnmatrix.c ****  **********************/
 355:Drivers/lvgl/lvgl/src/widgets/lv_btnmatrix.c **** 
 356:Drivers/lvgl/lvgl/src/widgets/lv_btnmatrix.c **** static void lv_btnmatrix_constructor(const lv_obj_class_t * class_p, lv_obj_t * obj)
 357:Drivers/lvgl/lvgl/src/widgets/lv_btnmatrix.c **** {
 358:Drivers/lvgl/lvgl/src/widgets/lv_btnmatrix.c ****     LV_UNUSED(class_p);
 359:Drivers/lvgl/lvgl/src/widgets/lv_btnmatrix.c ****     LV_TRACE_OBJ_CREATE("begin");
 360:Drivers/lvgl/lvgl/src/widgets/lv_btnmatrix.c ****     lv_btnmatrix_t * btnm = (lv_btnmatrix_t *)obj;
 361:Drivers/lvgl/lvgl/src/widgets/lv_btnmatrix.c ****     btnm->btn_cnt        = 0;
 362:Drivers/lvgl/lvgl/src/widgets/lv_btnmatrix.c ****     btnm->row_cnt        = 0;
 363:Drivers/lvgl/lvgl/src/widgets/lv_btnmatrix.c ****     btnm->btn_id_sel     = LV_BTNMATRIX_BTN_NONE;
 364:Drivers/lvgl/lvgl/src/widgets/lv_btnmatrix.c ****     btnm->button_areas   = NULL;
 365:Drivers/lvgl/lvgl/src/widgets/lv_btnmatrix.c ****     btnm->ctrl_bits      = NULL;
 366:Drivers/lvgl/lvgl/src/widgets/lv_btnmatrix.c ****     btnm->map_p          = NULL;
 367:Drivers/lvgl/lvgl/src/widgets/lv_btnmatrix.c ****     btnm->one_check      = 0;
 368:Drivers/lvgl/lvgl/src/widgets/lv_btnmatrix.c **** 
 369:Drivers/lvgl/lvgl/src/widgets/lv_btnmatrix.c ****     lv_btnmatrix_set_map(obj, lv_btnmatrix_def_map);
 370:Drivers/lvgl/lvgl/src/widgets/lv_btnmatrix.c **** 
 371:Drivers/lvgl/lvgl/src/widgets/lv_btnmatrix.c ****     LV_TRACE_OBJ_CREATE("finished");
 372:Drivers/lvgl/lvgl/src/widgets/lv_btnmatrix.c **** }
 373:Drivers/lvgl/lvgl/src/widgets/lv_btnmatrix.c **** 
 374:Drivers/lvgl/lvgl/src/widgets/lv_btnmatrix.c **** static void lv_btnmatrix_destructor(const lv_obj_class_t * class_p, lv_obj_t * obj)
 375:Drivers/lvgl/lvgl/src/widgets/lv_btnmatrix.c **** {
ARM GAS  /tmp/ccpV5owi.s 			page 8


 376:Drivers/lvgl/lvgl/src/widgets/lv_btnmatrix.c ****     LV_TRACE_OBJ_CREATE("begin");
 377:Drivers/lvgl/lvgl/src/widgets/lv_btnmatrix.c ****     LV_UNUSED(class_p);
 378:Drivers/lvgl/lvgl/src/widgets/lv_btnmatrix.c ****     lv_btnmatrix_t * btnm = (lv_btnmatrix_t *)obj;
 379:Drivers/lvgl/lvgl/src/widgets/lv_btnmatrix.c ****     lv_mem_free(btnm->button_areas);
 380:Drivers/lvgl/lvgl/src/widgets/lv_btnmatrix.c ****     lv_mem_free(btnm->ctrl_bits);
 381:Drivers/lvgl/lvgl/src/widgets/lv_btnmatrix.c ****     btnm->button_areas = NULL;
 382:Drivers/lvgl/lvgl/src/widgets/lv_btnmatrix.c ****     btnm->ctrl_bits = NULL;
 383:Drivers/lvgl/lvgl/src/widgets/lv_btnmatrix.c ****     LV_TRACE_OBJ_CREATE("finished");
 384:Drivers/lvgl/lvgl/src/widgets/lv_btnmatrix.c **** }
 385:Drivers/lvgl/lvgl/src/widgets/lv_btnmatrix.c **** 
 386:Drivers/lvgl/lvgl/src/widgets/lv_btnmatrix.c **** static void lv_btnmatrix_event(const lv_obj_class_t * class_p, lv_event_t * e)
 387:Drivers/lvgl/lvgl/src/widgets/lv_btnmatrix.c **** {
 388:Drivers/lvgl/lvgl/src/widgets/lv_btnmatrix.c ****     LV_UNUSED(class_p);
 389:Drivers/lvgl/lvgl/src/widgets/lv_btnmatrix.c **** 
 390:Drivers/lvgl/lvgl/src/widgets/lv_btnmatrix.c ****     lv_res_t res;
 391:Drivers/lvgl/lvgl/src/widgets/lv_btnmatrix.c **** 
 392:Drivers/lvgl/lvgl/src/widgets/lv_btnmatrix.c ****     /*Call the ancestor's event handler*/
 393:Drivers/lvgl/lvgl/src/widgets/lv_btnmatrix.c ****     res = lv_obj_event_base(MY_CLASS, e);
 394:Drivers/lvgl/lvgl/src/widgets/lv_btnmatrix.c ****     if(res != LV_RES_OK) return;
 395:Drivers/lvgl/lvgl/src/widgets/lv_btnmatrix.c **** 
 396:Drivers/lvgl/lvgl/src/widgets/lv_btnmatrix.c ****     lv_event_code_t code = lv_event_get_code(e);
 397:Drivers/lvgl/lvgl/src/widgets/lv_btnmatrix.c ****     lv_obj_t * obj = lv_event_get_target(e);
 398:Drivers/lvgl/lvgl/src/widgets/lv_btnmatrix.c ****     lv_btnmatrix_t * btnm = (lv_btnmatrix_t *)obj;
 399:Drivers/lvgl/lvgl/src/widgets/lv_btnmatrix.c ****     lv_point_t p;
 400:Drivers/lvgl/lvgl/src/widgets/lv_btnmatrix.c **** 
 401:Drivers/lvgl/lvgl/src/widgets/lv_btnmatrix.c ****     if(code == LV_EVENT_REFR_EXT_DRAW_SIZE) {
 402:Drivers/lvgl/lvgl/src/widgets/lv_btnmatrix.c ****         if(has_popovers_in_top_row(obj)) {
 403:Drivers/lvgl/lvgl/src/widgets/lv_btnmatrix.c ****             /*reserve one row worth of extra space to account for popovers in the top row*/
 404:Drivers/lvgl/lvgl/src/widgets/lv_btnmatrix.c ****             lv_coord_t s = btnm->row_cnt > 0 ? lv_obj_get_content_height(obj) / btnm->row_cnt : 0;
 405:Drivers/lvgl/lvgl/src/widgets/lv_btnmatrix.c ****             lv_event_set_ext_draw_size(e, s);
 406:Drivers/lvgl/lvgl/src/widgets/lv_btnmatrix.c ****         }
 407:Drivers/lvgl/lvgl/src/widgets/lv_btnmatrix.c ****     }
 408:Drivers/lvgl/lvgl/src/widgets/lv_btnmatrix.c ****     if(code == LV_EVENT_STYLE_CHANGED) {
 409:Drivers/lvgl/lvgl/src/widgets/lv_btnmatrix.c ****         lv_btnmatrix_set_map(obj, btnm->map_p);
 410:Drivers/lvgl/lvgl/src/widgets/lv_btnmatrix.c ****     }
 411:Drivers/lvgl/lvgl/src/widgets/lv_btnmatrix.c ****     else if(code == LV_EVENT_SIZE_CHANGED) {
 412:Drivers/lvgl/lvgl/src/widgets/lv_btnmatrix.c ****         lv_btnmatrix_set_map(obj, btnm->map_p);
 413:Drivers/lvgl/lvgl/src/widgets/lv_btnmatrix.c ****     }
 414:Drivers/lvgl/lvgl/src/widgets/lv_btnmatrix.c ****     else if(code == LV_EVENT_PRESSED) {
 415:Drivers/lvgl/lvgl/src/widgets/lv_btnmatrix.c ****         void * param = lv_event_get_param(e);
 416:Drivers/lvgl/lvgl/src/widgets/lv_btnmatrix.c ****         invalidate_button_area(obj, btnm->btn_id_sel);
 417:Drivers/lvgl/lvgl/src/widgets/lv_btnmatrix.c **** 
 418:Drivers/lvgl/lvgl/src/widgets/lv_btnmatrix.c ****         lv_indev_type_t indev_type = lv_indev_get_type(lv_indev_get_act());
 419:Drivers/lvgl/lvgl/src/widgets/lv_btnmatrix.c ****         if(indev_type == LV_INDEV_TYPE_POINTER || indev_type == LV_INDEV_TYPE_BUTTON) {
 420:Drivers/lvgl/lvgl/src/widgets/lv_btnmatrix.c ****             uint16_t btn_pr;
 421:Drivers/lvgl/lvgl/src/widgets/lv_btnmatrix.c ****             /*Search the pressed area*/
 422:Drivers/lvgl/lvgl/src/widgets/lv_btnmatrix.c ****             lv_indev_get_point(param, &p);
 423:Drivers/lvgl/lvgl/src/widgets/lv_btnmatrix.c ****             btn_pr = get_button_from_point(obj, &p);
 424:Drivers/lvgl/lvgl/src/widgets/lv_btnmatrix.c ****             /*Handle the case where there is no button there*/
 425:Drivers/lvgl/lvgl/src/widgets/lv_btnmatrix.c ****             if(btn_pr != LV_BTNMATRIX_BTN_NONE) {
 426:Drivers/lvgl/lvgl/src/widgets/lv_btnmatrix.c ****                 if(button_is_inactive(btnm->ctrl_bits[btn_pr]) == false &&
 427:Drivers/lvgl/lvgl/src/widgets/lv_btnmatrix.c ****                    button_is_hidden(btnm->ctrl_bits[btn_pr]) == false) {
 428:Drivers/lvgl/lvgl/src/widgets/lv_btnmatrix.c ****                     btnm->btn_id_sel = btn_pr;
 429:Drivers/lvgl/lvgl/src/widgets/lv_btnmatrix.c ****                     invalidate_button_area(obj, btnm->btn_id_sel); /*Invalidate the new area*/
 430:Drivers/lvgl/lvgl/src/widgets/lv_btnmatrix.c ****                 }
 431:Drivers/lvgl/lvgl/src/widgets/lv_btnmatrix.c ****             }
 432:Drivers/lvgl/lvgl/src/widgets/lv_btnmatrix.c ****         }
ARM GAS  /tmp/ccpV5owi.s 			page 9


 433:Drivers/lvgl/lvgl/src/widgets/lv_btnmatrix.c **** 
 434:Drivers/lvgl/lvgl/src/widgets/lv_btnmatrix.c ****         if(btnm->btn_id_sel != LV_BTNMATRIX_BTN_NONE) {
 435:Drivers/lvgl/lvgl/src/widgets/lv_btnmatrix.c ****             if(button_is_click_trig(btnm->ctrl_bits[btnm->btn_id_sel]) == false &&
 436:Drivers/lvgl/lvgl/src/widgets/lv_btnmatrix.c ****                button_is_popover(btnm->ctrl_bits[btnm->btn_id_sel]) == false &&
 437:Drivers/lvgl/lvgl/src/widgets/lv_btnmatrix.c ****                button_is_inactive(btnm->ctrl_bits[btnm->btn_id_sel]) == false &&
 438:Drivers/lvgl/lvgl/src/widgets/lv_btnmatrix.c ****                button_is_hidden(btnm->ctrl_bits[btnm->btn_id_sel]) == false) {
 439:Drivers/lvgl/lvgl/src/widgets/lv_btnmatrix.c ****                 uint32_t b = btnm->btn_id_sel;
 440:Drivers/lvgl/lvgl/src/widgets/lv_btnmatrix.c ****                 res        = lv_event_send(obj, LV_EVENT_VALUE_CHANGED, &b);
 441:Drivers/lvgl/lvgl/src/widgets/lv_btnmatrix.c ****                 if(res != LV_RES_OK) return;
 442:Drivers/lvgl/lvgl/src/widgets/lv_btnmatrix.c ****             }
 443:Drivers/lvgl/lvgl/src/widgets/lv_btnmatrix.c ****         }
 444:Drivers/lvgl/lvgl/src/widgets/lv_btnmatrix.c ****     }
 445:Drivers/lvgl/lvgl/src/widgets/lv_btnmatrix.c ****     else if(code == LV_EVENT_PRESSING) {
 446:Drivers/lvgl/lvgl/src/widgets/lv_btnmatrix.c ****         void * param = lv_event_get_param(e);
 447:Drivers/lvgl/lvgl/src/widgets/lv_btnmatrix.c ****         uint16_t btn_pr = LV_BTNMATRIX_BTN_NONE;
 448:Drivers/lvgl/lvgl/src/widgets/lv_btnmatrix.c ****         /*Search the pressed area*/
 449:Drivers/lvgl/lvgl/src/widgets/lv_btnmatrix.c ****         lv_indev_t * indev = lv_indev_get_act();
 450:Drivers/lvgl/lvgl/src/widgets/lv_btnmatrix.c ****         lv_indev_type_t indev_type = lv_indev_get_type(indev);
 451:Drivers/lvgl/lvgl/src/widgets/lv_btnmatrix.c ****         if(indev_type == LV_INDEV_TYPE_ENCODER || indev_type == LV_INDEV_TYPE_KEYPAD) return;
 452:Drivers/lvgl/lvgl/src/widgets/lv_btnmatrix.c **** 
 453:Drivers/lvgl/lvgl/src/widgets/lv_btnmatrix.c ****         lv_indev_get_point(indev, &p);
 454:Drivers/lvgl/lvgl/src/widgets/lv_btnmatrix.c ****         btn_pr = get_button_from_point(obj, &p);
 455:Drivers/lvgl/lvgl/src/widgets/lv_btnmatrix.c ****         /*Invalidate to old and the new areas*/
 456:Drivers/lvgl/lvgl/src/widgets/lv_btnmatrix.c ****         if(btn_pr != btnm->btn_id_sel) {
 457:Drivers/lvgl/lvgl/src/widgets/lv_btnmatrix.c ****             if(btnm->btn_id_sel != LV_BTNMATRIX_BTN_NONE) {
 458:Drivers/lvgl/lvgl/src/widgets/lv_btnmatrix.c ****                 invalidate_button_area(obj, btnm->btn_id_sel);
 459:Drivers/lvgl/lvgl/src/widgets/lv_btnmatrix.c ****             }
 460:Drivers/lvgl/lvgl/src/widgets/lv_btnmatrix.c **** 
 461:Drivers/lvgl/lvgl/src/widgets/lv_btnmatrix.c ****             btnm->btn_id_sel = btn_pr;
 462:Drivers/lvgl/lvgl/src/widgets/lv_btnmatrix.c **** 
 463:Drivers/lvgl/lvgl/src/widgets/lv_btnmatrix.c ****             lv_indev_reset_long_press(param); /*Start the log press time again on the new button*/
 464:Drivers/lvgl/lvgl/src/widgets/lv_btnmatrix.c ****             if(btn_pr != LV_BTNMATRIX_BTN_NONE &&
 465:Drivers/lvgl/lvgl/src/widgets/lv_btnmatrix.c ****                button_is_inactive(btnm->ctrl_bits[btn_pr]) == false &&
 466:Drivers/lvgl/lvgl/src/widgets/lv_btnmatrix.c ****                button_is_hidden(btnm->ctrl_bits[btn_pr]) == false) {
 467:Drivers/lvgl/lvgl/src/widgets/lv_btnmatrix.c ****                 invalidate_button_area(obj, btn_pr);
 468:Drivers/lvgl/lvgl/src/widgets/lv_btnmatrix.c ****                 /*Send VALUE_CHANGED for the newly pressed button*/
 469:Drivers/lvgl/lvgl/src/widgets/lv_btnmatrix.c ****                 if(button_is_click_trig(btnm->ctrl_bits[btn_pr]) == false &&
 470:Drivers/lvgl/lvgl/src/widgets/lv_btnmatrix.c ****                    button_is_popover(btnm->ctrl_bits[btnm->btn_id_sel]) == false) {
 471:Drivers/lvgl/lvgl/src/widgets/lv_btnmatrix.c ****                     uint32_t b = btn_pr;
 472:Drivers/lvgl/lvgl/src/widgets/lv_btnmatrix.c ****                     res = lv_event_send(obj, LV_EVENT_VALUE_CHANGED, &b);
 473:Drivers/lvgl/lvgl/src/widgets/lv_btnmatrix.c ****                     if(res != LV_RES_OK) return;
 474:Drivers/lvgl/lvgl/src/widgets/lv_btnmatrix.c ****                 }
 475:Drivers/lvgl/lvgl/src/widgets/lv_btnmatrix.c ****             }
 476:Drivers/lvgl/lvgl/src/widgets/lv_btnmatrix.c ****         }
 477:Drivers/lvgl/lvgl/src/widgets/lv_btnmatrix.c ****     }
 478:Drivers/lvgl/lvgl/src/widgets/lv_btnmatrix.c ****     else if(code == LV_EVENT_RELEASED) {
 479:Drivers/lvgl/lvgl/src/widgets/lv_btnmatrix.c ****         if(btnm->btn_id_sel != LV_BTNMATRIX_BTN_NONE) {
 480:Drivers/lvgl/lvgl/src/widgets/lv_btnmatrix.c ****             /*Toggle the button if enabled*/
 481:Drivers/lvgl/lvgl/src/widgets/lv_btnmatrix.c ****             if(button_is_checkable(btnm->ctrl_bits[btnm->btn_id_sel]) &&
 482:Drivers/lvgl/lvgl/src/widgets/lv_btnmatrix.c ****                !button_is_inactive(btnm->ctrl_bits[btnm->btn_id_sel])) {
 483:Drivers/lvgl/lvgl/src/widgets/lv_btnmatrix.c ****                 if(button_get_checked(btnm->ctrl_bits[btnm->btn_id_sel]) && !btnm->one_check) {
 484:Drivers/lvgl/lvgl/src/widgets/lv_btnmatrix.c ****                     btnm->ctrl_bits[btnm->btn_id_sel] &= (~LV_BTNMATRIX_CTRL_CHECKED);
 485:Drivers/lvgl/lvgl/src/widgets/lv_btnmatrix.c ****                 }
 486:Drivers/lvgl/lvgl/src/widgets/lv_btnmatrix.c ****                 else {
 487:Drivers/lvgl/lvgl/src/widgets/lv_btnmatrix.c ****                     btnm->ctrl_bits[btnm->btn_id_sel] |= LV_BTNMATRIX_CTRL_CHECKED;
 488:Drivers/lvgl/lvgl/src/widgets/lv_btnmatrix.c ****                 }
 489:Drivers/lvgl/lvgl/src/widgets/lv_btnmatrix.c ****                 if(btnm->one_check) make_one_button_checked(obj, btnm->btn_id_sel);
ARM GAS  /tmp/ccpV5owi.s 			page 10


 490:Drivers/lvgl/lvgl/src/widgets/lv_btnmatrix.c ****             }
 491:Drivers/lvgl/lvgl/src/widgets/lv_btnmatrix.c **** 
 492:Drivers/lvgl/lvgl/src/widgets/lv_btnmatrix.c **** 
 493:Drivers/lvgl/lvgl/src/widgets/lv_btnmatrix.c ****             if((button_is_click_trig(btnm->ctrl_bits[btnm->btn_id_sel]) == true ||
 494:Drivers/lvgl/lvgl/src/widgets/lv_btnmatrix.c ****                 button_is_popover(btnm->ctrl_bits[btnm->btn_id_sel]) == true) &&
 495:Drivers/lvgl/lvgl/src/widgets/lv_btnmatrix.c ****                button_is_inactive(btnm->ctrl_bits[btnm->btn_id_sel]) == false &&
 496:Drivers/lvgl/lvgl/src/widgets/lv_btnmatrix.c ****                button_is_hidden(btnm->ctrl_bits[btnm->btn_id_sel]) == false) {
 497:Drivers/lvgl/lvgl/src/widgets/lv_btnmatrix.c ****                 uint32_t b = btnm->btn_id_sel;
 498:Drivers/lvgl/lvgl/src/widgets/lv_btnmatrix.c ****                 res        = lv_event_send(obj, LV_EVENT_VALUE_CHANGED, &b);
 499:Drivers/lvgl/lvgl/src/widgets/lv_btnmatrix.c ****                 if(res != LV_RES_OK) return;
 500:Drivers/lvgl/lvgl/src/widgets/lv_btnmatrix.c ****             }
 501:Drivers/lvgl/lvgl/src/widgets/lv_btnmatrix.c ****         }
 502:Drivers/lvgl/lvgl/src/widgets/lv_btnmatrix.c **** 
 503:Drivers/lvgl/lvgl/src/widgets/lv_btnmatrix.c ****         /*Invalidate to old pressed area*/;
 504:Drivers/lvgl/lvgl/src/widgets/lv_btnmatrix.c ****         invalidate_button_area(obj, btnm->btn_id_sel);
 505:Drivers/lvgl/lvgl/src/widgets/lv_btnmatrix.c **** 
 506:Drivers/lvgl/lvgl/src/widgets/lv_btnmatrix.c ****     }
 507:Drivers/lvgl/lvgl/src/widgets/lv_btnmatrix.c ****     else if(code == LV_EVENT_LONG_PRESSED_REPEAT) {
 508:Drivers/lvgl/lvgl/src/widgets/lv_btnmatrix.c ****         if(btnm->btn_id_sel != LV_BTNMATRIX_BTN_NONE) {
 509:Drivers/lvgl/lvgl/src/widgets/lv_btnmatrix.c ****             if(button_is_repeat_disabled(btnm->ctrl_bits[btnm->btn_id_sel]) == false &&
 510:Drivers/lvgl/lvgl/src/widgets/lv_btnmatrix.c ****                button_is_inactive(btnm->ctrl_bits[btnm->btn_id_sel]) == false &&
 511:Drivers/lvgl/lvgl/src/widgets/lv_btnmatrix.c ****                button_is_hidden(btnm->ctrl_bits[btnm->btn_id_sel]) == false) {
 512:Drivers/lvgl/lvgl/src/widgets/lv_btnmatrix.c ****                 uint32_t b = btnm->btn_id_sel;
 513:Drivers/lvgl/lvgl/src/widgets/lv_btnmatrix.c ****                 res        = lv_event_send(obj, LV_EVENT_VALUE_CHANGED, &b);
 514:Drivers/lvgl/lvgl/src/widgets/lv_btnmatrix.c ****                 if(res != LV_RES_OK) return;
 515:Drivers/lvgl/lvgl/src/widgets/lv_btnmatrix.c ****             }
 516:Drivers/lvgl/lvgl/src/widgets/lv_btnmatrix.c ****         }
 517:Drivers/lvgl/lvgl/src/widgets/lv_btnmatrix.c ****     }
 518:Drivers/lvgl/lvgl/src/widgets/lv_btnmatrix.c ****     else if(code == LV_EVENT_PRESS_LOST) {
 519:Drivers/lvgl/lvgl/src/widgets/lv_btnmatrix.c ****         invalidate_button_area(obj, btnm->btn_id_sel);
 520:Drivers/lvgl/lvgl/src/widgets/lv_btnmatrix.c ****         btnm->btn_id_sel = LV_BTNMATRIX_BTN_NONE;
 521:Drivers/lvgl/lvgl/src/widgets/lv_btnmatrix.c ****     }
 522:Drivers/lvgl/lvgl/src/widgets/lv_btnmatrix.c ****     else if(code == LV_EVENT_FOCUSED) {
 523:Drivers/lvgl/lvgl/src/widgets/lv_btnmatrix.c ****         lv_indev_t * indev = lv_event_get_param(e);
 524:Drivers/lvgl/lvgl/src/widgets/lv_btnmatrix.c ****         lv_indev_type_t indev_type = lv_indev_get_type(indev);
 525:Drivers/lvgl/lvgl/src/widgets/lv_btnmatrix.c **** 
 526:Drivers/lvgl/lvgl/src/widgets/lv_btnmatrix.c ****         /*If not focused by an input device assume the last input device*/
 527:Drivers/lvgl/lvgl/src/widgets/lv_btnmatrix.c ****         if(indev == NULL) {
 528:Drivers/lvgl/lvgl/src/widgets/lv_btnmatrix.c ****             indev = lv_indev_get_next(NULL);
 529:Drivers/lvgl/lvgl/src/widgets/lv_btnmatrix.c ****             indev_type = lv_indev_get_type(indev);
 530:Drivers/lvgl/lvgl/src/widgets/lv_btnmatrix.c ****         }
 531:Drivers/lvgl/lvgl/src/widgets/lv_btnmatrix.c **** 
 532:Drivers/lvgl/lvgl/src/widgets/lv_btnmatrix.c ****         bool editing = lv_group_get_editing(lv_obj_get_group(obj));
 533:Drivers/lvgl/lvgl/src/widgets/lv_btnmatrix.c ****         /*Focus the first button if there is not selected button*/
 534:Drivers/lvgl/lvgl/src/widgets/lv_btnmatrix.c ****         if(btnm->btn_id_sel == LV_BTNMATRIX_BTN_NONE) {
 535:Drivers/lvgl/lvgl/src/widgets/lv_btnmatrix.c ****             if(indev_type == LV_INDEV_TYPE_KEYPAD || (indev_type == LV_INDEV_TYPE_ENCODER && editin
 536:Drivers/lvgl/lvgl/src/widgets/lv_btnmatrix.c ****                 uint32_t b = 0;
 537:Drivers/lvgl/lvgl/src/widgets/lv_btnmatrix.c ****                 if(btnm->one_check) {
 538:Drivers/lvgl/lvgl/src/widgets/lv_btnmatrix.c ****                     while(button_is_hidden(btnm->ctrl_bits[b]) || button_is_inactive(btnm->ctrl_bit
 539:Drivers/lvgl/lvgl/src/widgets/lv_btnmatrix.c ****                           button_is_checked(btnm->ctrl_bits[b]) == false) b++;
 540:Drivers/lvgl/lvgl/src/widgets/lv_btnmatrix.c ****                 }
 541:Drivers/lvgl/lvgl/src/widgets/lv_btnmatrix.c ****                 else {
 542:Drivers/lvgl/lvgl/src/widgets/lv_btnmatrix.c ****                     while(button_is_hidden(btnm->ctrl_bits[b]) || button_is_inactive(btnm->ctrl_bit
 543:Drivers/lvgl/lvgl/src/widgets/lv_btnmatrix.c ****                 }
 544:Drivers/lvgl/lvgl/src/widgets/lv_btnmatrix.c **** 
 545:Drivers/lvgl/lvgl/src/widgets/lv_btnmatrix.c ****                 btnm->btn_id_sel = b;
 546:Drivers/lvgl/lvgl/src/widgets/lv_btnmatrix.c ****             }
ARM GAS  /tmp/ccpV5owi.s 			page 11


 547:Drivers/lvgl/lvgl/src/widgets/lv_btnmatrix.c ****             else {
 548:Drivers/lvgl/lvgl/src/widgets/lv_btnmatrix.c ****                 btnm->btn_id_sel = LV_BTNMATRIX_BTN_NONE;
 549:Drivers/lvgl/lvgl/src/widgets/lv_btnmatrix.c ****             }
 550:Drivers/lvgl/lvgl/src/widgets/lv_btnmatrix.c ****         }
 551:Drivers/lvgl/lvgl/src/widgets/lv_btnmatrix.c ****     }
 552:Drivers/lvgl/lvgl/src/widgets/lv_btnmatrix.c ****     else if(code == LV_EVENT_DEFOCUSED || code == LV_EVENT_LEAVE) {
 553:Drivers/lvgl/lvgl/src/widgets/lv_btnmatrix.c ****         if(btnm->btn_id_sel != LV_BTNMATRIX_BTN_NONE) invalidate_button_area(obj, btnm->btn_id_sel)
 554:Drivers/lvgl/lvgl/src/widgets/lv_btnmatrix.c ****         btnm->btn_id_sel = LV_BTNMATRIX_BTN_NONE;
 555:Drivers/lvgl/lvgl/src/widgets/lv_btnmatrix.c ****     }
 556:Drivers/lvgl/lvgl/src/widgets/lv_btnmatrix.c ****     else if(code == LV_EVENT_KEY) {
 557:Drivers/lvgl/lvgl/src/widgets/lv_btnmatrix.c **** 
 558:Drivers/lvgl/lvgl/src/widgets/lv_btnmatrix.c ****         invalidate_button_area(obj, btnm->btn_id_sel);
 559:Drivers/lvgl/lvgl/src/widgets/lv_btnmatrix.c **** 
 560:Drivers/lvgl/lvgl/src/widgets/lv_btnmatrix.c ****         char c = *((char *)lv_event_get_param(e));
 561:Drivers/lvgl/lvgl/src/widgets/lv_btnmatrix.c ****         if(c == LV_KEY_RIGHT) {
 562:Drivers/lvgl/lvgl/src/widgets/lv_btnmatrix.c ****             if(btnm->btn_id_sel == LV_BTNMATRIX_BTN_NONE)  btnm->btn_id_sel = 0;
 563:Drivers/lvgl/lvgl/src/widgets/lv_btnmatrix.c ****             else btnm->btn_id_sel++;
 564:Drivers/lvgl/lvgl/src/widgets/lv_btnmatrix.c ****             if(btnm->btn_id_sel >= btnm->btn_cnt) btnm->btn_id_sel = 0;
 565:Drivers/lvgl/lvgl/src/widgets/lv_btnmatrix.c **** 
 566:Drivers/lvgl/lvgl/src/widgets/lv_btnmatrix.c ****             while(button_is_hidden(btnm->ctrl_bits[btnm->btn_id_sel]) || button_is_inactive(btnm->c
 567:Drivers/lvgl/lvgl/src/widgets/lv_btnmatrix.c ****                 btnm->btn_id_sel++;
 568:Drivers/lvgl/lvgl/src/widgets/lv_btnmatrix.c ****                 if(btnm->btn_id_sel >= btnm->btn_cnt) btnm->btn_id_sel = 0;
 569:Drivers/lvgl/lvgl/src/widgets/lv_btnmatrix.c ****             }
 570:Drivers/lvgl/lvgl/src/widgets/lv_btnmatrix.c ****         }
 571:Drivers/lvgl/lvgl/src/widgets/lv_btnmatrix.c ****         else if(c == LV_KEY_LEFT) {
 572:Drivers/lvgl/lvgl/src/widgets/lv_btnmatrix.c ****             if(btnm->btn_id_sel == LV_BTNMATRIX_BTN_NONE) btnm->btn_id_sel = 0;
 573:Drivers/lvgl/lvgl/src/widgets/lv_btnmatrix.c **** 
 574:Drivers/lvgl/lvgl/src/widgets/lv_btnmatrix.c ****             if(btnm->btn_id_sel == 0) btnm->btn_id_sel = btnm->btn_cnt - 1;
 575:Drivers/lvgl/lvgl/src/widgets/lv_btnmatrix.c ****             else if(btnm->btn_id_sel > 0) btnm->btn_id_sel--;
 576:Drivers/lvgl/lvgl/src/widgets/lv_btnmatrix.c **** 
 577:Drivers/lvgl/lvgl/src/widgets/lv_btnmatrix.c ****             while(button_is_hidden(btnm->ctrl_bits[btnm->btn_id_sel]) || button_is_inactive(btnm->c
 578:Drivers/lvgl/lvgl/src/widgets/lv_btnmatrix.c ****                 if(btnm->btn_id_sel > 0) btnm->btn_id_sel--;
 579:Drivers/lvgl/lvgl/src/widgets/lv_btnmatrix.c ****                 else btnm->btn_id_sel = btnm->btn_cnt - 1;
 580:Drivers/lvgl/lvgl/src/widgets/lv_btnmatrix.c ****             }
 581:Drivers/lvgl/lvgl/src/widgets/lv_btnmatrix.c ****         }
 582:Drivers/lvgl/lvgl/src/widgets/lv_btnmatrix.c ****         else if(c == LV_KEY_DOWN) {
 583:Drivers/lvgl/lvgl/src/widgets/lv_btnmatrix.c ****             lv_coord_t col_gap = lv_obj_get_style_pad_column(obj, LV_PART_MAIN);
 584:Drivers/lvgl/lvgl/src/widgets/lv_btnmatrix.c ****             /*Find the area below the current*/
 585:Drivers/lvgl/lvgl/src/widgets/lv_btnmatrix.c ****             if(btnm->btn_id_sel == LV_BTNMATRIX_BTN_NONE) {
 586:Drivers/lvgl/lvgl/src/widgets/lv_btnmatrix.c ****                 btnm->btn_id_sel = 0;
 587:Drivers/lvgl/lvgl/src/widgets/lv_btnmatrix.c ****                 while(button_is_hidden(btnm->ctrl_bits[btnm->btn_id_sel]) || button_is_inactive(btn
 588:Drivers/lvgl/lvgl/src/widgets/lv_btnmatrix.c ****                     btnm->btn_id_sel++;
 589:Drivers/lvgl/lvgl/src/widgets/lv_btnmatrix.c ****                     if(btnm->btn_id_sel >= btnm->btn_cnt) btnm->btn_id_sel = 0;
 590:Drivers/lvgl/lvgl/src/widgets/lv_btnmatrix.c ****                 }
 591:Drivers/lvgl/lvgl/src/widgets/lv_btnmatrix.c ****             }
 592:Drivers/lvgl/lvgl/src/widgets/lv_btnmatrix.c ****             else {
 593:Drivers/lvgl/lvgl/src/widgets/lv_btnmatrix.c ****                 uint16_t area_below;
 594:Drivers/lvgl/lvgl/src/widgets/lv_btnmatrix.c ****                 lv_coord_t pr_center =
 595:Drivers/lvgl/lvgl/src/widgets/lv_btnmatrix.c ****                     btnm->button_areas[btnm->btn_id_sel].x1 + (lv_area_get_width(&btnm->button_area
 596:Drivers/lvgl/lvgl/src/widgets/lv_btnmatrix.c **** 
 597:Drivers/lvgl/lvgl/src/widgets/lv_btnmatrix.c ****                 for(area_below = btnm->btn_id_sel; area_below < btnm->btn_cnt; area_below++) {
 598:Drivers/lvgl/lvgl/src/widgets/lv_btnmatrix.c ****                     if(btnm->button_areas[area_below].y1 > btnm->button_areas[btnm->btn_id_sel].y1 
 599:Drivers/lvgl/lvgl/src/widgets/lv_btnmatrix.c ****                        pr_center >= btnm->button_areas[area_below].x1 &&
 600:Drivers/lvgl/lvgl/src/widgets/lv_btnmatrix.c ****                        pr_center <= btnm->button_areas[area_below].x2 + col_gap &&
 601:Drivers/lvgl/lvgl/src/widgets/lv_btnmatrix.c ****                        button_is_inactive(btnm->ctrl_bits[area_below]) == false &&
 602:Drivers/lvgl/lvgl/src/widgets/lv_btnmatrix.c ****                        button_is_hidden(btnm->ctrl_bits[area_below]) == false) {
 603:Drivers/lvgl/lvgl/src/widgets/lv_btnmatrix.c ****                         break;
ARM GAS  /tmp/ccpV5owi.s 			page 12


 604:Drivers/lvgl/lvgl/src/widgets/lv_btnmatrix.c ****                     }
 605:Drivers/lvgl/lvgl/src/widgets/lv_btnmatrix.c ****                 }
 606:Drivers/lvgl/lvgl/src/widgets/lv_btnmatrix.c **** 
 607:Drivers/lvgl/lvgl/src/widgets/lv_btnmatrix.c ****                 if(area_below < btnm->btn_cnt) btnm->btn_id_sel = area_below;
 608:Drivers/lvgl/lvgl/src/widgets/lv_btnmatrix.c ****             }
 609:Drivers/lvgl/lvgl/src/widgets/lv_btnmatrix.c ****         }
 610:Drivers/lvgl/lvgl/src/widgets/lv_btnmatrix.c ****         else if(c == LV_KEY_UP) {
 611:Drivers/lvgl/lvgl/src/widgets/lv_btnmatrix.c ****             lv_coord_t col_gap = lv_obj_get_style_pad_column(obj, LV_PART_MAIN);
 612:Drivers/lvgl/lvgl/src/widgets/lv_btnmatrix.c ****             /*Find the area below the current*/
 613:Drivers/lvgl/lvgl/src/widgets/lv_btnmatrix.c ****             if(btnm->btn_id_sel == LV_BTNMATRIX_BTN_NONE) {
 614:Drivers/lvgl/lvgl/src/widgets/lv_btnmatrix.c ****                 btnm->btn_id_sel = 0;
 615:Drivers/lvgl/lvgl/src/widgets/lv_btnmatrix.c ****                 while(button_is_hidden(btnm->ctrl_bits[btnm->btn_id_sel]) || button_is_inactive(btn
 616:Drivers/lvgl/lvgl/src/widgets/lv_btnmatrix.c ****                     btnm->btn_id_sel++;
 617:Drivers/lvgl/lvgl/src/widgets/lv_btnmatrix.c ****                     if(btnm->btn_id_sel >= btnm->btn_cnt) btnm->btn_id_sel = 0;
 618:Drivers/lvgl/lvgl/src/widgets/lv_btnmatrix.c ****                 }
 619:Drivers/lvgl/lvgl/src/widgets/lv_btnmatrix.c ****             }
 620:Drivers/lvgl/lvgl/src/widgets/lv_btnmatrix.c ****             else {
 621:Drivers/lvgl/lvgl/src/widgets/lv_btnmatrix.c ****                 int16_t area_above;
 622:Drivers/lvgl/lvgl/src/widgets/lv_btnmatrix.c ****                 lv_coord_t pr_center =
 623:Drivers/lvgl/lvgl/src/widgets/lv_btnmatrix.c ****                     btnm->button_areas[btnm->btn_id_sel].x1 + (lv_area_get_width(&btnm->button_area
 624:Drivers/lvgl/lvgl/src/widgets/lv_btnmatrix.c **** 
 625:Drivers/lvgl/lvgl/src/widgets/lv_btnmatrix.c ****                 for(area_above = btnm->btn_id_sel; area_above >= 0; area_above--) {
 626:Drivers/lvgl/lvgl/src/widgets/lv_btnmatrix.c ****                     if(btnm->button_areas[area_above].y1 < btnm->button_areas[btnm->btn_id_sel].y1 
 627:Drivers/lvgl/lvgl/src/widgets/lv_btnmatrix.c ****                        pr_center >= btnm->button_areas[area_above].x1 - col_gap &&
 628:Drivers/lvgl/lvgl/src/widgets/lv_btnmatrix.c ****                        pr_center <= btnm->button_areas[area_above].x2 &&
 629:Drivers/lvgl/lvgl/src/widgets/lv_btnmatrix.c ****                        button_is_inactive(btnm->ctrl_bits[area_above]) == false &&
 630:Drivers/lvgl/lvgl/src/widgets/lv_btnmatrix.c ****                        button_is_hidden(btnm->ctrl_bits[area_above]) == false) {
 631:Drivers/lvgl/lvgl/src/widgets/lv_btnmatrix.c ****                         break;
 632:Drivers/lvgl/lvgl/src/widgets/lv_btnmatrix.c ****                     }
 633:Drivers/lvgl/lvgl/src/widgets/lv_btnmatrix.c ****                 }
 634:Drivers/lvgl/lvgl/src/widgets/lv_btnmatrix.c ****                 if(area_above >= 0) btnm->btn_id_sel = area_above;
 635:Drivers/lvgl/lvgl/src/widgets/lv_btnmatrix.c ****             }
 636:Drivers/lvgl/lvgl/src/widgets/lv_btnmatrix.c ****         }
 637:Drivers/lvgl/lvgl/src/widgets/lv_btnmatrix.c **** 
 638:Drivers/lvgl/lvgl/src/widgets/lv_btnmatrix.c ****         invalidate_button_area(obj, btnm->btn_id_sel);
 639:Drivers/lvgl/lvgl/src/widgets/lv_btnmatrix.c ****     }
 640:Drivers/lvgl/lvgl/src/widgets/lv_btnmatrix.c ****     else if(code == LV_EVENT_DRAW_MAIN) {
 641:Drivers/lvgl/lvgl/src/widgets/lv_btnmatrix.c ****         draw_main(e);
 642:Drivers/lvgl/lvgl/src/widgets/lv_btnmatrix.c ****     }
 643:Drivers/lvgl/lvgl/src/widgets/lv_btnmatrix.c **** 
 644:Drivers/lvgl/lvgl/src/widgets/lv_btnmatrix.c **** }
 645:Drivers/lvgl/lvgl/src/widgets/lv_btnmatrix.c **** 
 646:Drivers/lvgl/lvgl/src/widgets/lv_btnmatrix.c **** static void draw_main(lv_event_t * e)
 647:Drivers/lvgl/lvgl/src/widgets/lv_btnmatrix.c **** {
 648:Drivers/lvgl/lvgl/src/widgets/lv_btnmatrix.c ****     lv_obj_t * obj = lv_event_get_target(e);
 649:Drivers/lvgl/lvgl/src/widgets/lv_btnmatrix.c ****     lv_btnmatrix_t * btnm = (lv_btnmatrix_t *)obj;
 650:Drivers/lvgl/lvgl/src/widgets/lv_btnmatrix.c ****     if(btnm->btn_cnt == 0) return;
 651:Drivers/lvgl/lvgl/src/widgets/lv_btnmatrix.c **** 
 652:Drivers/lvgl/lvgl/src/widgets/lv_btnmatrix.c ****     lv_draw_ctx_t * draw_ctx = lv_event_get_draw_ctx(e);
 653:Drivers/lvgl/lvgl/src/widgets/lv_btnmatrix.c ****     obj->skip_trans = 1;
 654:Drivers/lvgl/lvgl/src/widgets/lv_btnmatrix.c **** 
 655:Drivers/lvgl/lvgl/src/widgets/lv_btnmatrix.c ****     lv_area_t area_obj;
 656:Drivers/lvgl/lvgl/src/widgets/lv_btnmatrix.c ****     lv_obj_get_coords(obj, &area_obj);
 657:Drivers/lvgl/lvgl/src/widgets/lv_btnmatrix.c **** 
 658:Drivers/lvgl/lvgl/src/widgets/lv_btnmatrix.c ****     lv_area_t btn_area;
 659:Drivers/lvgl/lvgl/src/widgets/lv_btnmatrix.c **** 
 660:Drivers/lvgl/lvgl/src/widgets/lv_btnmatrix.c ****     uint16_t btn_i = 0;
ARM GAS  /tmp/ccpV5owi.s 			page 13


 661:Drivers/lvgl/lvgl/src/widgets/lv_btnmatrix.c ****     uint16_t txt_i = 0;
 662:Drivers/lvgl/lvgl/src/widgets/lv_btnmatrix.c **** 
 663:Drivers/lvgl/lvgl/src/widgets/lv_btnmatrix.c ****     lv_draw_rect_dsc_t draw_rect_dsc_act;
 664:Drivers/lvgl/lvgl/src/widgets/lv_btnmatrix.c ****     lv_draw_label_dsc_t draw_label_dsc_act;
 665:Drivers/lvgl/lvgl/src/widgets/lv_btnmatrix.c **** 
 666:Drivers/lvgl/lvgl/src/widgets/lv_btnmatrix.c ****     lv_draw_rect_dsc_t draw_rect_dsc_def;
 667:Drivers/lvgl/lvgl/src/widgets/lv_btnmatrix.c ****     lv_draw_label_dsc_t draw_label_dsc_def;
 668:Drivers/lvgl/lvgl/src/widgets/lv_btnmatrix.c **** 
 669:Drivers/lvgl/lvgl/src/widgets/lv_btnmatrix.c ****     lv_state_t state_ori = obj->state;
 670:Drivers/lvgl/lvgl/src/widgets/lv_btnmatrix.c ****     obj->state = LV_STATE_DEFAULT;
 671:Drivers/lvgl/lvgl/src/widgets/lv_btnmatrix.c ****     obj->skip_trans = 1;
 672:Drivers/lvgl/lvgl/src/widgets/lv_btnmatrix.c ****     lv_draw_rect_dsc_init(&draw_rect_dsc_def);
 673:Drivers/lvgl/lvgl/src/widgets/lv_btnmatrix.c ****     lv_draw_label_dsc_init(&draw_label_dsc_def);
 674:Drivers/lvgl/lvgl/src/widgets/lv_btnmatrix.c ****     lv_obj_init_draw_rect_dsc(obj, LV_PART_ITEMS, &draw_rect_dsc_def);
 675:Drivers/lvgl/lvgl/src/widgets/lv_btnmatrix.c ****     lv_obj_init_draw_label_dsc(obj, LV_PART_ITEMS, &draw_label_dsc_def);
 676:Drivers/lvgl/lvgl/src/widgets/lv_btnmatrix.c ****     obj->skip_trans = 0;
 677:Drivers/lvgl/lvgl/src/widgets/lv_btnmatrix.c ****     obj->state = state_ori;
 678:Drivers/lvgl/lvgl/src/widgets/lv_btnmatrix.c **** 
 679:Drivers/lvgl/lvgl/src/widgets/lv_btnmatrix.c ****     lv_coord_t ptop = lv_obj_get_style_pad_top(obj, LV_PART_MAIN);
 680:Drivers/lvgl/lvgl/src/widgets/lv_btnmatrix.c ****     lv_coord_t pbottom = lv_obj_get_style_pad_bottom(obj, LV_PART_MAIN);
 681:Drivers/lvgl/lvgl/src/widgets/lv_btnmatrix.c ****     lv_coord_t pleft = lv_obj_get_style_pad_left(obj, LV_PART_MAIN);
 682:Drivers/lvgl/lvgl/src/widgets/lv_btnmatrix.c ****     lv_coord_t pright = lv_obj_get_style_pad_right(obj, LV_PART_MAIN);
 683:Drivers/lvgl/lvgl/src/widgets/lv_btnmatrix.c **** 
 684:Drivers/lvgl/lvgl/src/widgets/lv_btnmatrix.c **** #if LV_USE_ARABIC_PERSIAN_CHARS
 685:Drivers/lvgl/lvgl/src/widgets/lv_btnmatrix.c ****     const size_t txt_ap_size = 256 ;
 686:Drivers/lvgl/lvgl/src/widgets/lv_btnmatrix.c ****     char * txt_ap = lv_mem_buf_get(txt_ap_size);
 687:Drivers/lvgl/lvgl/src/widgets/lv_btnmatrix.c **** #endif
 688:Drivers/lvgl/lvgl/src/widgets/lv_btnmatrix.c **** 
 689:Drivers/lvgl/lvgl/src/widgets/lv_btnmatrix.c ****     lv_obj_draw_part_dsc_t part_draw_dsc;
 690:Drivers/lvgl/lvgl/src/widgets/lv_btnmatrix.c ****     lv_obj_draw_dsc_init(&part_draw_dsc, draw_ctx);
 691:Drivers/lvgl/lvgl/src/widgets/lv_btnmatrix.c ****     part_draw_dsc.part = LV_PART_ITEMS;
 692:Drivers/lvgl/lvgl/src/widgets/lv_btnmatrix.c ****     part_draw_dsc.class_p = MY_CLASS;
 693:Drivers/lvgl/lvgl/src/widgets/lv_btnmatrix.c ****     part_draw_dsc.type = LV_BTNMATRIX_DRAW_PART_BTN;
 694:Drivers/lvgl/lvgl/src/widgets/lv_btnmatrix.c ****     part_draw_dsc.rect_dsc = &draw_rect_dsc_act;
 695:Drivers/lvgl/lvgl/src/widgets/lv_btnmatrix.c ****     part_draw_dsc.label_dsc = &draw_label_dsc_act;
 696:Drivers/lvgl/lvgl/src/widgets/lv_btnmatrix.c **** 
 697:Drivers/lvgl/lvgl/src/widgets/lv_btnmatrix.c ****     for(btn_i = 0; btn_i < btnm->btn_cnt; btn_i++, txt_i++) {
 698:Drivers/lvgl/lvgl/src/widgets/lv_btnmatrix.c ****         /*Search the next valid text in the map*/
 699:Drivers/lvgl/lvgl/src/widgets/lv_btnmatrix.c ****         while(strcmp(btnm->map_p[txt_i], "\n") == 0) {
 700:Drivers/lvgl/lvgl/src/widgets/lv_btnmatrix.c ****             txt_i++;
 701:Drivers/lvgl/lvgl/src/widgets/lv_btnmatrix.c ****         }
 702:Drivers/lvgl/lvgl/src/widgets/lv_btnmatrix.c **** 
 703:Drivers/lvgl/lvgl/src/widgets/lv_btnmatrix.c ****         /*Skip hidden buttons*/
 704:Drivers/lvgl/lvgl/src/widgets/lv_btnmatrix.c ****         if(button_is_hidden(btnm->ctrl_bits[btn_i])) continue;
 705:Drivers/lvgl/lvgl/src/widgets/lv_btnmatrix.c **** 
 706:Drivers/lvgl/lvgl/src/widgets/lv_btnmatrix.c ****         /*Get the state of the button*/
 707:Drivers/lvgl/lvgl/src/widgets/lv_btnmatrix.c ****         lv_state_t btn_state = LV_STATE_DEFAULT;
 708:Drivers/lvgl/lvgl/src/widgets/lv_btnmatrix.c ****         if(button_get_checked(btnm->ctrl_bits[btn_i])) btn_state |= LV_STATE_CHECKED;
 709:Drivers/lvgl/lvgl/src/widgets/lv_btnmatrix.c **** 
 710:Drivers/lvgl/lvgl/src/widgets/lv_btnmatrix.c ****         if(button_is_inactive(btnm->ctrl_bits[btn_i])) btn_state |= LV_STATE_DISABLED;
 711:Drivers/lvgl/lvgl/src/widgets/lv_btnmatrix.c ****         else if(btn_i == btnm->btn_id_sel) {
 712:Drivers/lvgl/lvgl/src/widgets/lv_btnmatrix.c ****             if(state_ori & LV_STATE_PRESSED) btn_state |= LV_STATE_PRESSED;
 713:Drivers/lvgl/lvgl/src/widgets/lv_btnmatrix.c ****             if(state_ori & LV_STATE_FOCUSED) btn_state |= LV_STATE_FOCUSED;
 714:Drivers/lvgl/lvgl/src/widgets/lv_btnmatrix.c ****             if(state_ori & LV_STATE_FOCUS_KEY) btn_state |= LV_STATE_FOCUS_KEY;
 715:Drivers/lvgl/lvgl/src/widgets/lv_btnmatrix.c ****             if(state_ori & LV_STATE_EDITED) btn_state |= LV_STATE_EDITED;
 716:Drivers/lvgl/lvgl/src/widgets/lv_btnmatrix.c ****         }
 717:Drivers/lvgl/lvgl/src/widgets/lv_btnmatrix.c **** 
ARM GAS  /tmp/ccpV5owi.s 			page 14


 718:Drivers/lvgl/lvgl/src/widgets/lv_btnmatrix.c ****         /*Get the button's area*/
 719:Drivers/lvgl/lvgl/src/widgets/lv_btnmatrix.c ****         lv_area_copy(&btn_area, &btnm->button_areas[btn_i]);
 720:Drivers/lvgl/lvgl/src/widgets/lv_btnmatrix.c ****         btn_area.x1 += area_obj.x1;
 721:Drivers/lvgl/lvgl/src/widgets/lv_btnmatrix.c ****         btn_area.y1 += area_obj.y1;
 722:Drivers/lvgl/lvgl/src/widgets/lv_btnmatrix.c ****         btn_area.x2 += area_obj.x1;
 723:Drivers/lvgl/lvgl/src/widgets/lv_btnmatrix.c ****         btn_area.y2 += area_obj.y1;
 724:Drivers/lvgl/lvgl/src/widgets/lv_btnmatrix.c **** 
 725:Drivers/lvgl/lvgl/src/widgets/lv_btnmatrix.c ****         /*Set up the draw descriptors*/
 726:Drivers/lvgl/lvgl/src/widgets/lv_btnmatrix.c ****         if(btn_state == LV_STATE_DEFAULT) {
 727:Drivers/lvgl/lvgl/src/widgets/lv_btnmatrix.c ****             lv_memcpy(&draw_rect_dsc_act, &draw_rect_dsc_def, sizeof(lv_draw_rect_dsc_t));
 728:Drivers/lvgl/lvgl/src/widgets/lv_btnmatrix.c ****             lv_memcpy(&draw_label_dsc_act, &draw_label_dsc_def, sizeof(lv_draw_label_dsc_t));
 729:Drivers/lvgl/lvgl/src/widgets/lv_btnmatrix.c ****         }
 730:Drivers/lvgl/lvgl/src/widgets/lv_btnmatrix.c ****         /*In other cases get the styles directly without caching them*/
 731:Drivers/lvgl/lvgl/src/widgets/lv_btnmatrix.c ****         else {
 732:Drivers/lvgl/lvgl/src/widgets/lv_btnmatrix.c ****             obj->state = btn_state;
 733:Drivers/lvgl/lvgl/src/widgets/lv_btnmatrix.c ****             obj->skip_trans = 1;
 734:Drivers/lvgl/lvgl/src/widgets/lv_btnmatrix.c ****             lv_draw_rect_dsc_init(&draw_rect_dsc_act);
 735:Drivers/lvgl/lvgl/src/widgets/lv_btnmatrix.c ****             lv_draw_label_dsc_init(&draw_label_dsc_act);
 736:Drivers/lvgl/lvgl/src/widgets/lv_btnmatrix.c ****             lv_obj_init_draw_rect_dsc(obj, LV_PART_ITEMS, &draw_rect_dsc_act);
 737:Drivers/lvgl/lvgl/src/widgets/lv_btnmatrix.c ****             lv_obj_init_draw_label_dsc(obj, LV_PART_ITEMS, &draw_label_dsc_act);
 738:Drivers/lvgl/lvgl/src/widgets/lv_btnmatrix.c ****             obj->state = state_ori;
 739:Drivers/lvgl/lvgl/src/widgets/lv_btnmatrix.c ****             obj->skip_trans = 0;
 740:Drivers/lvgl/lvgl/src/widgets/lv_btnmatrix.c ****         }
 741:Drivers/lvgl/lvgl/src/widgets/lv_btnmatrix.c **** 
 742:Drivers/lvgl/lvgl/src/widgets/lv_btnmatrix.c ****         bool recolor = button_is_recolor(btnm->ctrl_bits[btn_i]);
 743:Drivers/lvgl/lvgl/src/widgets/lv_btnmatrix.c ****         if(recolor) draw_label_dsc_act.flag |= LV_TEXT_FLAG_RECOLOR;
 744:Drivers/lvgl/lvgl/src/widgets/lv_btnmatrix.c ****         else draw_label_dsc_act.flag &= ~LV_TEXT_FLAG_RECOLOR;
 745:Drivers/lvgl/lvgl/src/widgets/lv_btnmatrix.c **** 
 746:Drivers/lvgl/lvgl/src/widgets/lv_btnmatrix.c **** 
 747:Drivers/lvgl/lvgl/src/widgets/lv_btnmatrix.c ****         part_draw_dsc.draw_area = &btn_area;
 748:Drivers/lvgl/lvgl/src/widgets/lv_btnmatrix.c ****         part_draw_dsc.id = btn_i;
 749:Drivers/lvgl/lvgl/src/widgets/lv_btnmatrix.c ****         lv_event_send(obj, LV_EVENT_DRAW_PART_BEGIN, &part_draw_dsc);
 750:Drivers/lvgl/lvgl/src/widgets/lv_btnmatrix.c **** 
 751:Drivers/lvgl/lvgl/src/widgets/lv_btnmatrix.c ****         /*Remove borders on the edges if `LV_BORDER_SIDE_INTERNAL`*/
 752:Drivers/lvgl/lvgl/src/widgets/lv_btnmatrix.c ****         if(draw_rect_dsc_act.border_side & LV_BORDER_SIDE_INTERNAL) {
 753:Drivers/lvgl/lvgl/src/widgets/lv_btnmatrix.c ****             draw_rect_dsc_act.border_side = LV_BORDER_SIDE_FULL;
 754:Drivers/lvgl/lvgl/src/widgets/lv_btnmatrix.c ****             if(btn_area.x1 == obj->coords.x1 + pleft) draw_rect_dsc_act.border_side &= ~LV_BORDER_S
 755:Drivers/lvgl/lvgl/src/widgets/lv_btnmatrix.c ****             if(btn_area.x2 == obj->coords.x2 - pright) draw_rect_dsc_act.border_side &= ~LV_BORDER_
 756:Drivers/lvgl/lvgl/src/widgets/lv_btnmatrix.c ****             if(btn_area.y1 == obj->coords.y1 + ptop) draw_rect_dsc_act.border_side &= ~LV_BORDER_SI
 757:Drivers/lvgl/lvgl/src/widgets/lv_btnmatrix.c ****             if(btn_area.y2 == obj->coords.y2 - pbottom) draw_rect_dsc_act.border_side &= ~LV_BORDER
 758:Drivers/lvgl/lvgl/src/widgets/lv_btnmatrix.c ****         }
 759:Drivers/lvgl/lvgl/src/widgets/lv_btnmatrix.c **** 
 760:Drivers/lvgl/lvgl/src/widgets/lv_btnmatrix.c ****         lv_coord_t btn_height = lv_area_get_height(&btn_area);
 761:Drivers/lvgl/lvgl/src/widgets/lv_btnmatrix.c **** 
 762:Drivers/lvgl/lvgl/src/widgets/lv_btnmatrix.c ****         if((btn_state & LV_STATE_PRESSED) && (btnm->ctrl_bits[btn_i] & LV_BTNMATRIX_CTRL_POPOVER)) 
 763:Drivers/lvgl/lvgl/src/widgets/lv_btnmatrix.c ****             /*Push up the upper boundary of the btn area to create the popover*/
 764:Drivers/lvgl/lvgl/src/widgets/lv_btnmatrix.c ****             btn_area.y1 -= btn_height;
 765:Drivers/lvgl/lvgl/src/widgets/lv_btnmatrix.c ****         }
 766:Drivers/lvgl/lvgl/src/widgets/lv_btnmatrix.c **** 
 767:Drivers/lvgl/lvgl/src/widgets/lv_btnmatrix.c ****         /*Draw the background*/
 768:Drivers/lvgl/lvgl/src/widgets/lv_btnmatrix.c ****         lv_draw_rect(draw_ctx, &draw_rect_dsc_act, &btn_area);
 769:Drivers/lvgl/lvgl/src/widgets/lv_btnmatrix.c **** 
 770:Drivers/lvgl/lvgl/src/widgets/lv_btnmatrix.c ****         /*Calculate the size of the text*/
 771:Drivers/lvgl/lvgl/src/widgets/lv_btnmatrix.c ****         const lv_font_t * font = draw_label_dsc_act.font;
 772:Drivers/lvgl/lvgl/src/widgets/lv_btnmatrix.c ****         lv_coord_t letter_space = draw_label_dsc_act.letter_space;
 773:Drivers/lvgl/lvgl/src/widgets/lv_btnmatrix.c ****         lv_coord_t line_space = draw_label_dsc_act.line_space;
 774:Drivers/lvgl/lvgl/src/widgets/lv_btnmatrix.c ****         const char * txt = btnm->map_p[txt_i];
ARM GAS  /tmp/ccpV5owi.s 			page 15


 775:Drivers/lvgl/lvgl/src/widgets/lv_btnmatrix.c **** 
 776:Drivers/lvgl/lvgl/src/widgets/lv_btnmatrix.c **** #if LV_USE_ARABIC_PERSIAN_CHARS
 777:Drivers/lvgl/lvgl/src/widgets/lv_btnmatrix.c ****         /*Get the size of the Arabic text and process it*/
 778:Drivers/lvgl/lvgl/src/widgets/lv_btnmatrix.c ****         size_t len_ap = _lv_txt_ap_calc_bytes_cnt(txt);
 779:Drivers/lvgl/lvgl/src/widgets/lv_btnmatrix.c ****         if(len_ap < txt_ap_size) {
 780:Drivers/lvgl/lvgl/src/widgets/lv_btnmatrix.c ****             _lv_txt_ap_proc(txt, txt_ap);
 781:Drivers/lvgl/lvgl/src/widgets/lv_btnmatrix.c ****             txt = txt_ap;
 782:Drivers/lvgl/lvgl/src/widgets/lv_btnmatrix.c ****         }
 783:Drivers/lvgl/lvgl/src/widgets/lv_btnmatrix.c **** #endif
 784:Drivers/lvgl/lvgl/src/widgets/lv_btnmatrix.c ****         lv_point_t txt_size;
 785:Drivers/lvgl/lvgl/src/widgets/lv_btnmatrix.c ****         lv_txt_get_size(&txt_size, txt, font, letter_space,
 786:Drivers/lvgl/lvgl/src/widgets/lv_btnmatrix.c ****                         line_space, lv_area_get_width(&area_obj), draw_label_dsc_act.flag);
 787:Drivers/lvgl/lvgl/src/widgets/lv_btnmatrix.c **** 
 788:Drivers/lvgl/lvgl/src/widgets/lv_btnmatrix.c ****         btn_area.x1 += (lv_area_get_width(&btn_area) - txt_size.x) / 2;
 789:Drivers/lvgl/lvgl/src/widgets/lv_btnmatrix.c ****         btn_area.y1 += (lv_area_get_height(&btn_area) - txt_size.y) / 2;
 790:Drivers/lvgl/lvgl/src/widgets/lv_btnmatrix.c ****         btn_area.x2 = btn_area.x1 + txt_size.x;
 791:Drivers/lvgl/lvgl/src/widgets/lv_btnmatrix.c ****         btn_area.y2 = btn_area.y1 + txt_size.y;
 792:Drivers/lvgl/lvgl/src/widgets/lv_btnmatrix.c **** 
 793:Drivers/lvgl/lvgl/src/widgets/lv_btnmatrix.c ****         if((btn_state & LV_STATE_PRESSED) && (btnm->ctrl_bits[btn_i] & LV_BTNMATRIX_CTRL_POPOVER)) 
 794:Drivers/lvgl/lvgl/src/widgets/lv_btnmatrix.c ****             /*Push up the button text into the popover*/
 795:Drivers/lvgl/lvgl/src/widgets/lv_btnmatrix.c ****             btn_area.y1 -= btn_height / 2;
 796:Drivers/lvgl/lvgl/src/widgets/lv_btnmatrix.c ****             btn_area.y2 -= btn_height / 2;
 797:Drivers/lvgl/lvgl/src/widgets/lv_btnmatrix.c ****         }
 798:Drivers/lvgl/lvgl/src/widgets/lv_btnmatrix.c **** 
 799:Drivers/lvgl/lvgl/src/widgets/lv_btnmatrix.c ****         /*Draw the text*/
 800:Drivers/lvgl/lvgl/src/widgets/lv_btnmatrix.c ****         lv_draw_label(draw_ctx, &draw_label_dsc_act, &btn_area, txt, NULL);
 801:Drivers/lvgl/lvgl/src/widgets/lv_btnmatrix.c **** 
 802:Drivers/lvgl/lvgl/src/widgets/lv_btnmatrix.c ****         lv_event_send(obj, LV_EVENT_DRAW_PART_END, &part_draw_dsc);
 803:Drivers/lvgl/lvgl/src/widgets/lv_btnmatrix.c ****     }
 804:Drivers/lvgl/lvgl/src/widgets/lv_btnmatrix.c **** 
 805:Drivers/lvgl/lvgl/src/widgets/lv_btnmatrix.c ****     obj->skip_trans = 0;
 806:Drivers/lvgl/lvgl/src/widgets/lv_btnmatrix.c **** #if LV_USE_ARABIC_PERSIAN_CHARS
 807:Drivers/lvgl/lvgl/src/widgets/lv_btnmatrix.c ****     lv_mem_buf_release(txt_ap);
 808:Drivers/lvgl/lvgl/src/widgets/lv_btnmatrix.c **** #endif
 809:Drivers/lvgl/lvgl/src/widgets/lv_btnmatrix.c **** }
 810:Drivers/lvgl/lvgl/src/widgets/lv_btnmatrix.c **** /**
 811:Drivers/lvgl/lvgl/src/widgets/lv_btnmatrix.c ****  * Create the required number of buttons and control bytes according to a map
 812:Drivers/lvgl/lvgl/src/widgets/lv_btnmatrix.c ****  * @param obj pointer to button matrix object
 813:Drivers/lvgl/lvgl/src/widgets/lv_btnmatrix.c ****  * @param map_p pointer to a string array
 814:Drivers/lvgl/lvgl/src/widgets/lv_btnmatrix.c ****  */
 815:Drivers/lvgl/lvgl/src/widgets/lv_btnmatrix.c **** static void allocate_btn_areas_and_controls(const lv_obj_t * obj, const char ** map)
 816:Drivers/lvgl/lvgl/src/widgets/lv_btnmatrix.c **** {
 817:Drivers/lvgl/lvgl/src/widgets/lv_btnmatrix.c ****     lv_btnmatrix_t * btnm = (lv_btnmatrix_t *)obj;
 818:Drivers/lvgl/lvgl/src/widgets/lv_btnmatrix.c ****     btnm->row_cnt = 1;
 819:Drivers/lvgl/lvgl/src/widgets/lv_btnmatrix.c ****     /*Count the buttons in the map*/
 820:Drivers/lvgl/lvgl/src/widgets/lv_btnmatrix.c ****     uint16_t btn_cnt = 0;
 821:Drivers/lvgl/lvgl/src/widgets/lv_btnmatrix.c ****     uint16_t i       = 0;
 822:Drivers/lvgl/lvgl/src/widgets/lv_btnmatrix.c ****     while(map[i] && map[i][0] != '\0') {
 823:Drivers/lvgl/lvgl/src/widgets/lv_btnmatrix.c ****         if(strcmp(map[i], "\n") != 0) { /*Do not count line breaks*/
 824:Drivers/lvgl/lvgl/src/widgets/lv_btnmatrix.c ****             btn_cnt++;
 825:Drivers/lvgl/lvgl/src/widgets/lv_btnmatrix.c ****         }
 826:Drivers/lvgl/lvgl/src/widgets/lv_btnmatrix.c ****         else {
 827:Drivers/lvgl/lvgl/src/widgets/lv_btnmatrix.c ****             btnm->row_cnt++;
 828:Drivers/lvgl/lvgl/src/widgets/lv_btnmatrix.c ****         }
 829:Drivers/lvgl/lvgl/src/widgets/lv_btnmatrix.c ****         i++;
 830:Drivers/lvgl/lvgl/src/widgets/lv_btnmatrix.c ****     }
 831:Drivers/lvgl/lvgl/src/widgets/lv_btnmatrix.c **** 
ARM GAS  /tmp/ccpV5owi.s 			page 16


 832:Drivers/lvgl/lvgl/src/widgets/lv_btnmatrix.c ****     /*Do not allocate memory for the same amount of buttons*/
 833:Drivers/lvgl/lvgl/src/widgets/lv_btnmatrix.c ****     if(btn_cnt == btnm->btn_cnt) return;
 834:Drivers/lvgl/lvgl/src/widgets/lv_btnmatrix.c **** 
 835:Drivers/lvgl/lvgl/src/widgets/lv_btnmatrix.c ****     if(btnm->button_areas != NULL) {
 836:Drivers/lvgl/lvgl/src/widgets/lv_btnmatrix.c ****         lv_mem_free(btnm->button_areas);
 837:Drivers/lvgl/lvgl/src/widgets/lv_btnmatrix.c ****         btnm->button_areas = NULL;
 838:Drivers/lvgl/lvgl/src/widgets/lv_btnmatrix.c ****     }
 839:Drivers/lvgl/lvgl/src/widgets/lv_btnmatrix.c ****     if(btnm->ctrl_bits != NULL) {
 840:Drivers/lvgl/lvgl/src/widgets/lv_btnmatrix.c ****         lv_mem_free(btnm->ctrl_bits);
 841:Drivers/lvgl/lvgl/src/widgets/lv_btnmatrix.c ****         btnm->ctrl_bits = NULL;
 842:Drivers/lvgl/lvgl/src/widgets/lv_btnmatrix.c ****     }
 843:Drivers/lvgl/lvgl/src/widgets/lv_btnmatrix.c **** 
 844:Drivers/lvgl/lvgl/src/widgets/lv_btnmatrix.c ****     btnm->button_areas = lv_mem_alloc(sizeof(lv_area_t) * btn_cnt);
 845:Drivers/lvgl/lvgl/src/widgets/lv_btnmatrix.c ****     LV_ASSERT_MALLOC(btnm->button_areas);
 846:Drivers/lvgl/lvgl/src/widgets/lv_btnmatrix.c ****     btnm->ctrl_bits = lv_mem_alloc(sizeof(lv_btnmatrix_ctrl_t) * btn_cnt);
 847:Drivers/lvgl/lvgl/src/widgets/lv_btnmatrix.c ****     LV_ASSERT_MALLOC(btnm->ctrl_bits);
 848:Drivers/lvgl/lvgl/src/widgets/lv_btnmatrix.c ****     if(btnm->button_areas == NULL || btnm->ctrl_bits == NULL) btn_cnt = 0;
 849:Drivers/lvgl/lvgl/src/widgets/lv_btnmatrix.c **** 
 850:Drivers/lvgl/lvgl/src/widgets/lv_btnmatrix.c ****     lv_memset_00(btnm->ctrl_bits, sizeof(lv_btnmatrix_ctrl_t) * btn_cnt);
 851:Drivers/lvgl/lvgl/src/widgets/lv_btnmatrix.c **** 
 852:Drivers/lvgl/lvgl/src/widgets/lv_btnmatrix.c ****     btnm->btn_cnt = btn_cnt;
 853:Drivers/lvgl/lvgl/src/widgets/lv_btnmatrix.c **** }
 854:Drivers/lvgl/lvgl/src/widgets/lv_btnmatrix.c **** 
 855:Drivers/lvgl/lvgl/src/widgets/lv_btnmatrix.c **** /**
 856:Drivers/lvgl/lvgl/src/widgets/lv_btnmatrix.c ****  * Get the width of a button in units (default is 1).
 857:Drivers/lvgl/lvgl/src/widgets/lv_btnmatrix.c ****  * @param ctrl_bits least significant 3 bits used (1..7 valid values)
 858:Drivers/lvgl/lvgl/src/widgets/lv_btnmatrix.c ****  * @return the width of the button in units
 859:Drivers/lvgl/lvgl/src/widgets/lv_btnmatrix.c ****  */
 860:Drivers/lvgl/lvgl/src/widgets/lv_btnmatrix.c **** static uint8_t get_button_width(lv_btnmatrix_ctrl_t ctrl_bits)
 861:Drivers/lvgl/lvgl/src/widgets/lv_btnmatrix.c **** {
  26              		.loc 1 861 0
  27              		.cfi_startproc
  28              		@ args = 0, pretend = 0, frame = 0
  29              		@ frame_needed = 0, uses_anonymous_args = 0
  30              		@ link register save eliminated.
  31              	.LVL0:
 862:Drivers/lvgl/lvgl/src/widgets/lv_btnmatrix.c ****     uint8_t w = ctrl_bits & LV_BTNMATRIX_WIDTH_MASK;
 863:Drivers/lvgl/lvgl/src/widgets/lv_btnmatrix.c ****     return w != 0 ? w : 1;
  32              		.loc 1 863 0
  33 0000 10F00700 		ands	r0, r0, #7
  34              	.LVL1:
  35 0004 00D1     		bne	.L2
  36 0006 0120     		movs	r0, #1
  37              	.L2:
 864:Drivers/lvgl/lvgl/src/widgets/lv_btnmatrix.c **** }
  38              		.loc 1 864 0 discriminator 4
  39 0008 7047     		bx	lr
  40              		.cfi_endproc
  41              	.LFE179:
  43              		.section	.text.button_is_hidden,"ax",%progbits
  44              		.align	1
  45              		.syntax unified
  46              		.thumb
  47              		.thumb_func
  48              		.fpu fpv5-d16
  50              	button_is_hidden:
  51              	.LFB180:
ARM GAS  /tmp/ccpV5owi.s 			page 17


 865:Drivers/lvgl/lvgl/src/widgets/lv_btnmatrix.c **** 
 866:Drivers/lvgl/lvgl/src/widgets/lv_btnmatrix.c **** static bool button_is_hidden(lv_btnmatrix_ctrl_t ctrl_bits)
 867:Drivers/lvgl/lvgl/src/widgets/lv_btnmatrix.c **** {
  52              		.loc 1 867 0
  53              		.cfi_startproc
  54              		@ args = 0, pretend = 0, frame = 0
  55              		@ frame_needed = 0, uses_anonymous_args = 0
  56              		@ link register save eliminated.
  57              	.LVL2:
 868:Drivers/lvgl/lvgl/src/widgets/lv_btnmatrix.c ****     return (ctrl_bits & LV_BTNMATRIX_CTRL_HIDDEN) ? true : false;
 869:Drivers/lvgl/lvgl/src/widgets/lv_btnmatrix.c **** }
  58              		.loc 1 869 0
  59 0000 C0F30010 		ubfx	r0, r0, #4, #1
  60              	.LVL3:
  61 0004 7047     		bx	lr
  62              		.cfi_endproc
  63              	.LFE180:
  65              		.section	.text.button_is_checked,"ax",%progbits
  66              		.align	1
  67              		.syntax unified
  68              		.thumb
  69              		.thumb_func
  70              		.fpu fpv5-d16
  72              	button_is_checked:
  73              	.LFB181:
 870:Drivers/lvgl/lvgl/src/widgets/lv_btnmatrix.c **** 
 871:Drivers/lvgl/lvgl/src/widgets/lv_btnmatrix.c **** static bool button_is_checked(lv_btnmatrix_ctrl_t ctrl_bits)
 872:Drivers/lvgl/lvgl/src/widgets/lv_btnmatrix.c **** {
  74              		.loc 1 872 0
  75              		.cfi_startproc
  76              		@ args = 0, pretend = 0, frame = 0
  77              		@ frame_needed = 0, uses_anonymous_args = 0
  78              		@ link register save eliminated.
  79              	.LVL4:
 873:Drivers/lvgl/lvgl/src/widgets/lv_btnmatrix.c ****     return (ctrl_bits & LV_BTNMATRIX_CTRL_CHECKED) ? true : false;
 874:Drivers/lvgl/lvgl/src/widgets/lv_btnmatrix.c **** }
  80              		.loc 1 874 0
  81 0000 C0F30020 		ubfx	r0, r0, #8, #1
  82              	.LVL5:
  83 0004 7047     		bx	lr
  84              		.cfi_endproc
  85              	.LFE181:
  87              		.section	.text.button_is_repeat_disabled,"ax",%progbits
  88              		.align	1
  89              		.syntax unified
  90              		.thumb
  91              		.thumb_func
  92              		.fpu fpv5-d16
  94              	button_is_repeat_disabled:
  95              	.LFB182:
 875:Drivers/lvgl/lvgl/src/widgets/lv_btnmatrix.c **** 
 876:Drivers/lvgl/lvgl/src/widgets/lv_btnmatrix.c **** static bool button_is_repeat_disabled(lv_btnmatrix_ctrl_t ctrl_bits)
 877:Drivers/lvgl/lvgl/src/widgets/lv_btnmatrix.c **** {
  96              		.loc 1 877 0
  97              		.cfi_startproc
  98              		@ args = 0, pretend = 0, frame = 0
  99              		@ frame_needed = 0, uses_anonymous_args = 0
ARM GAS  /tmp/ccpV5owi.s 			page 18


 100              		@ link register save eliminated.
 101              	.LVL6:
 878:Drivers/lvgl/lvgl/src/widgets/lv_btnmatrix.c ****     return (ctrl_bits & LV_BTNMATRIX_CTRL_NO_REPEAT) ? true : false;
 879:Drivers/lvgl/lvgl/src/widgets/lv_btnmatrix.c **** }
 102              		.loc 1 879 0
 103 0000 C0F34010 		ubfx	r0, r0, #5, #1
 104              	.LVL7:
 105 0004 7047     		bx	lr
 106              		.cfi_endproc
 107              	.LFE182:
 109              		.section	.text.button_is_inactive,"ax",%progbits
 110              		.align	1
 111              		.syntax unified
 112              		.thumb
 113              		.thumb_func
 114              		.fpu fpv5-d16
 116              	button_is_inactive:
 117              	.LFB183:
 880:Drivers/lvgl/lvgl/src/widgets/lv_btnmatrix.c **** 
 881:Drivers/lvgl/lvgl/src/widgets/lv_btnmatrix.c **** static bool button_is_inactive(lv_btnmatrix_ctrl_t ctrl_bits)
 882:Drivers/lvgl/lvgl/src/widgets/lv_btnmatrix.c **** {
 118              		.loc 1 882 0
 119              		.cfi_startproc
 120              		@ args = 0, pretend = 0, frame = 0
 121              		@ frame_needed = 0, uses_anonymous_args = 0
 122              		@ link register save eliminated.
 123              	.LVL8:
 883:Drivers/lvgl/lvgl/src/widgets/lv_btnmatrix.c ****     return (ctrl_bits & LV_BTNMATRIX_CTRL_DISABLED) ? true : false;
 884:Drivers/lvgl/lvgl/src/widgets/lv_btnmatrix.c **** }
 124              		.loc 1 884 0
 125 0000 C0F38010 		ubfx	r0, r0, #6, #1
 126              	.LVL9:
 127 0004 7047     		bx	lr
 128              		.cfi_endproc
 129              	.LFE183:
 131              		.section	.text.button_is_click_trig,"ax",%progbits
 132              		.align	1
 133              		.syntax unified
 134              		.thumb
 135              		.thumb_func
 136              		.fpu fpv5-d16
 138              	button_is_click_trig:
 139              	.LFB184:
 885:Drivers/lvgl/lvgl/src/widgets/lv_btnmatrix.c **** 
 886:Drivers/lvgl/lvgl/src/widgets/lv_btnmatrix.c **** static bool button_is_click_trig(lv_btnmatrix_ctrl_t ctrl_bits)
 887:Drivers/lvgl/lvgl/src/widgets/lv_btnmatrix.c **** {
 140              		.loc 1 887 0
 141              		.cfi_startproc
 142              		@ args = 0, pretend = 0, frame = 0
 143              		@ frame_needed = 0, uses_anonymous_args = 0
 144              		@ link register save eliminated.
 145              	.LVL10:
 888:Drivers/lvgl/lvgl/src/widgets/lv_btnmatrix.c ****     return (ctrl_bits & LV_BTNMATRIX_CTRL_CLICK_TRIG) ? true : false;
 889:Drivers/lvgl/lvgl/src/widgets/lv_btnmatrix.c **** }
 146              		.loc 1 889 0
 147 0000 C0F34020 		ubfx	r0, r0, #9, #1
 148              	.LVL11:
ARM GAS  /tmp/ccpV5owi.s 			page 19


 149 0004 7047     		bx	lr
 150              		.cfi_endproc
 151              	.LFE184:
 153              		.section	.text.button_is_popover,"ax",%progbits
 154              		.align	1
 155              		.syntax unified
 156              		.thumb
 157              		.thumb_func
 158              		.fpu fpv5-d16
 160              	button_is_popover:
 161              	.LFB185:
 890:Drivers/lvgl/lvgl/src/widgets/lv_btnmatrix.c **** 
 891:Drivers/lvgl/lvgl/src/widgets/lv_btnmatrix.c **** static bool button_is_popover(lv_btnmatrix_ctrl_t ctrl_bits)
 892:Drivers/lvgl/lvgl/src/widgets/lv_btnmatrix.c **** {
 162              		.loc 1 892 0
 163              		.cfi_startproc
 164              		@ args = 0, pretend = 0, frame = 0
 165              		@ frame_needed = 0, uses_anonymous_args = 0
 166              		@ link register save eliminated.
 167              	.LVL12:
 893:Drivers/lvgl/lvgl/src/widgets/lv_btnmatrix.c ****     return (ctrl_bits & LV_BTNMATRIX_CTRL_POPOVER) ? true : false;
 894:Drivers/lvgl/lvgl/src/widgets/lv_btnmatrix.c **** }
 168              		.loc 1 894 0
 169 0000 C0F38020 		ubfx	r0, r0, #10, #1
 170              	.LVL13:
 171 0004 7047     		bx	lr
 172              		.cfi_endproc
 173              	.LFE185:
 175              		.section	.text.button_is_checkable,"ax",%progbits
 176              		.align	1
 177              		.syntax unified
 178              		.thumb
 179              		.thumb_func
 180              		.fpu fpv5-d16
 182              	button_is_checkable:
 183              	.LFB186:
 895:Drivers/lvgl/lvgl/src/widgets/lv_btnmatrix.c **** 
 896:Drivers/lvgl/lvgl/src/widgets/lv_btnmatrix.c **** static bool button_is_checkable(lv_btnmatrix_ctrl_t ctrl_bits)
 897:Drivers/lvgl/lvgl/src/widgets/lv_btnmatrix.c **** {
 184              		.loc 1 897 0
 185              		.cfi_startproc
 186              		@ args = 0, pretend = 0, frame = 0
 187              		@ frame_needed = 0, uses_anonymous_args = 0
 188              		@ link register save eliminated.
 189              	.LVL14:
 898:Drivers/lvgl/lvgl/src/widgets/lv_btnmatrix.c ****     return (ctrl_bits & LV_BTNMATRIX_CTRL_CHECKABLE) ? true : false;
 899:Drivers/lvgl/lvgl/src/widgets/lv_btnmatrix.c **** }
 190              		.loc 1 899 0
 191 0000 C0F3C010 		ubfx	r0, r0, #7, #1
 192              	.LVL15:
 193 0004 7047     		bx	lr
 194              		.cfi_endproc
 195              	.LFE186:
 197              		.section	.text.button_get_checked,"ax",%progbits
 198              		.align	1
 199              		.syntax unified
 200              		.thumb
ARM GAS  /tmp/ccpV5owi.s 			page 20


 201              		.thumb_func
 202              		.fpu fpv5-d16
 204              	button_get_checked:
 205              	.LFB187:
 900:Drivers/lvgl/lvgl/src/widgets/lv_btnmatrix.c **** 
 901:Drivers/lvgl/lvgl/src/widgets/lv_btnmatrix.c **** static bool button_get_checked(lv_btnmatrix_ctrl_t ctrl_bits)
 902:Drivers/lvgl/lvgl/src/widgets/lv_btnmatrix.c **** {
 206              		.loc 1 902 0
 207              		.cfi_startproc
 208              		@ args = 0, pretend = 0, frame = 0
 209              		@ frame_needed = 0, uses_anonymous_args = 0
 210              		@ link register save eliminated.
 211              	.LVL16:
 903:Drivers/lvgl/lvgl/src/widgets/lv_btnmatrix.c ****     return (ctrl_bits & LV_BTNMATRIX_CTRL_CHECKED) ? true : false;
 904:Drivers/lvgl/lvgl/src/widgets/lv_btnmatrix.c **** }
 212              		.loc 1 904 0
 213 0000 C0F30020 		ubfx	r0, r0, #8, #1
 214              	.LVL17:
 215 0004 7047     		bx	lr
 216              		.cfi_endproc
 217              	.LFE187:
 219              		.section	.text.button_is_recolor,"ax",%progbits
 220              		.align	1
 221              		.syntax unified
 222              		.thumb
 223              		.thumb_func
 224              		.fpu fpv5-d16
 226              	button_is_recolor:
 227              	.LFB188:
 905:Drivers/lvgl/lvgl/src/widgets/lv_btnmatrix.c **** 
 906:Drivers/lvgl/lvgl/src/widgets/lv_btnmatrix.c **** static bool button_is_recolor(lv_btnmatrix_ctrl_t ctrl_bits)
 907:Drivers/lvgl/lvgl/src/widgets/lv_btnmatrix.c **** {
 228              		.loc 1 907 0
 229              		.cfi_startproc
 230              		@ args = 0, pretend = 0, frame = 0
 231              		@ frame_needed = 0, uses_anonymous_args = 0
 232              		@ link register save eliminated.
 233              	.LVL18:
 908:Drivers/lvgl/lvgl/src/widgets/lv_btnmatrix.c ****     return (ctrl_bits & LV_BTNMATRIX_CTRL_RECOLOR) ? true : false;
 909:Drivers/lvgl/lvgl/src/widgets/lv_btnmatrix.c **** }
 234              		.loc 1 909 0
 235 0000 C0F3C020 		ubfx	r0, r0, #11, #1
 236              	.LVL19:
 237 0004 7047     		bx	lr
 238              		.cfi_endproc
 239              	.LFE188:
 241              		.section	.text.has_popovers_in_top_row,"ax",%progbits
 242              		.align	1
 243              		.syntax unified
 244              		.thumb
 245              		.thumb_func
 246              		.fpu fpv5-d16
 248              	has_popovers_in_top_row:
 249              	.LFB192:
 910:Drivers/lvgl/lvgl/src/widgets/lv_btnmatrix.c **** /**
 911:Drivers/lvgl/lvgl/src/widgets/lv_btnmatrix.c ****  * Gives the button id of a button under a given point
 912:Drivers/lvgl/lvgl/src/widgets/lv_btnmatrix.c ****  * @param obj pointer to a button matrix object
ARM GAS  /tmp/ccpV5owi.s 			page 21


 913:Drivers/lvgl/lvgl/src/widgets/lv_btnmatrix.c ****  * @param p a point with absolute coordinates
 914:Drivers/lvgl/lvgl/src/widgets/lv_btnmatrix.c ****  * @return the id of the button or LV_BTNMATRIX_BTN_NONE.
 915:Drivers/lvgl/lvgl/src/widgets/lv_btnmatrix.c ****  */
 916:Drivers/lvgl/lvgl/src/widgets/lv_btnmatrix.c **** static uint16_t get_button_from_point(lv_obj_t * obj, lv_point_t * p)
 917:Drivers/lvgl/lvgl/src/widgets/lv_btnmatrix.c **** {
 918:Drivers/lvgl/lvgl/src/widgets/lv_btnmatrix.c ****     lv_area_t obj_cords;
 919:Drivers/lvgl/lvgl/src/widgets/lv_btnmatrix.c ****     lv_area_t btn_area;
 920:Drivers/lvgl/lvgl/src/widgets/lv_btnmatrix.c ****     lv_btnmatrix_t * btnm = (lv_btnmatrix_t *)obj;;
 921:Drivers/lvgl/lvgl/src/widgets/lv_btnmatrix.c ****     uint16_t i;
 922:Drivers/lvgl/lvgl/src/widgets/lv_btnmatrix.c ****     lv_obj_get_coords(obj, &obj_cords);
 923:Drivers/lvgl/lvgl/src/widgets/lv_btnmatrix.c **** 
 924:Drivers/lvgl/lvgl/src/widgets/lv_btnmatrix.c ****     lv_coord_t w = lv_obj_get_width(obj);
 925:Drivers/lvgl/lvgl/src/widgets/lv_btnmatrix.c ****     lv_coord_t h = lv_obj_get_height(obj);
 926:Drivers/lvgl/lvgl/src/widgets/lv_btnmatrix.c ****     lv_coord_t pleft = lv_obj_get_style_pad_left(obj, LV_PART_MAIN);
 927:Drivers/lvgl/lvgl/src/widgets/lv_btnmatrix.c ****     lv_coord_t pright = lv_obj_get_style_pad_right(obj, LV_PART_MAIN);
 928:Drivers/lvgl/lvgl/src/widgets/lv_btnmatrix.c ****     lv_coord_t ptop = lv_obj_get_style_pad_top(obj, LV_PART_MAIN);
 929:Drivers/lvgl/lvgl/src/widgets/lv_btnmatrix.c ****     lv_coord_t pbottom = lv_obj_get_style_pad_bottom(obj, LV_PART_MAIN);
 930:Drivers/lvgl/lvgl/src/widgets/lv_btnmatrix.c ****     lv_coord_t prow = lv_obj_get_style_pad_row(obj, LV_PART_MAIN);
 931:Drivers/lvgl/lvgl/src/widgets/lv_btnmatrix.c ****     lv_coord_t pcol = lv_obj_get_style_pad_column(obj, LV_PART_MAIN);
 932:Drivers/lvgl/lvgl/src/widgets/lv_btnmatrix.c **** 
 933:Drivers/lvgl/lvgl/src/widgets/lv_btnmatrix.c ****     /*Get the half gap. Button look larger with this value. (+1 for rounding error)*/
 934:Drivers/lvgl/lvgl/src/widgets/lv_btnmatrix.c ****     prow = (prow / 2) + 1 + (prow & 1);
 935:Drivers/lvgl/lvgl/src/widgets/lv_btnmatrix.c ****     pcol = (pcol / 2) + 1 + (pcol & 1);
 936:Drivers/lvgl/lvgl/src/widgets/lv_btnmatrix.c **** 
 937:Drivers/lvgl/lvgl/src/widgets/lv_btnmatrix.c ****     prow = LV_MIN(prow, BTN_EXTRA_CLICK_AREA_MAX);
 938:Drivers/lvgl/lvgl/src/widgets/lv_btnmatrix.c ****     pcol = LV_MIN(pcol, BTN_EXTRA_CLICK_AREA_MAX);
 939:Drivers/lvgl/lvgl/src/widgets/lv_btnmatrix.c ****     pright = LV_MIN(pright, BTN_EXTRA_CLICK_AREA_MAX);
 940:Drivers/lvgl/lvgl/src/widgets/lv_btnmatrix.c ****     ptop = LV_MIN(ptop, BTN_EXTRA_CLICK_AREA_MAX);
 941:Drivers/lvgl/lvgl/src/widgets/lv_btnmatrix.c ****     pbottom = LV_MIN(pbottom, BTN_EXTRA_CLICK_AREA_MAX);
 942:Drivers/lvgl/lvgl/src/widgets/lv_btnmatrix.c **** 
 943:Drivers/lvgl/lvgl/src/widgets/lv_btnmatrix.c ****     for(i = 0; i < btnm->btn_cnt; i++) {
 944:Drivers/lvgl/lvgl/src/widgets/lv_btnmatrix.c ****         lv_area_copy(&btn_area, &btnm->button_areas[i]);
 945:Drivers/lvgl/lvgl/src/widgets/lv_btnmatrix.c ****         if(btn_area.x1 <= pleft) btn_area.x1 += obj_cords.x1 - LV_MIN(pleft, BTN_EXTRA_CLICK_AREA_M
 946:Drivers/lvgl/lvgl/src/widgets/lv_btnmatrix.c ****         else btn_area.x1 += obj_cords.x1 - pcol;
 947:Drivers/lvgl/lvgl/src/widgets/lv_btnmatrix.c **** 
 948:Drivers/lvgl/lvgl/src/widgets/lv_btnmatrix.c ****         if(btn_area.y1 <= ptop) btn_area.y1 += obj_cords.y1 - LV_MIN(ptop, BTN_EXTRA_CLICK_AREA_MAX
 949:Drivers/lvgl/lvgl/src/widgets/lv_btnmatrix.c ****         else btn_area.y1 += obj_cords.y1 - prow;
 950:Drivers/lvgl/lvgl/src/widgets/lv_btnmatrix.c **** 
 951:Drivers/lvgl/lvgl/src/widgets/lv_btnmatrix.c ****         if(btn_area.x2 >= w - pright - 2) btn_area.x2 += obj_cords.x1 + LV_MIN(pright,
 952:Drivers/lvgl/lvgl/src/widgets/lv_btnmatrix.c ****                                                                                    BTN_EXTRA_CLICK_
 953:Drivers/lvgl/lvgl/src/widgets/lv_btnmatrix.c ****         else btn_area.x2 += obj_cords.x1 + pcol;
 954:Drivers/lvgl/lvgl/src/widgets/lv_btnmatrix.c **** 
 955:Drivers/lvgl/lvgl/src/widgets/lv_btnmatrix.c ****         if(btn_area.y2 >= h - pbottom - 2) btn_area.y2 += obj_cords.y1 + LV_MIN(pbottom,
 956:Drivers/lvgl/lvgl/src/widgets/lv_btnmatrix.c ****                                                                                     BTN_EXTRA_CLICK
 957:Drivers/lvgl/lvgl/src/widgets/lv_btnmatrix.c ****         else btn_area.y2 += obj_cords.y1 + prow;
 958:Drivers/lvgl/lvgl/src/widgets/lv_btnmatrix.c **** 
 959:Drivers/lvgl/lvgl/src/widgets/lv_btnmatrix.c ****         if(_lv_area_is_point_on(&btn_area, p, 0) != false) {
 960:Drivers/lvgl/lvgl/src/widgets/lv_btnmatrix.c ****             break;
 961:Drivers/lvgl/lvgl/src/widgets/lv_btnmatrix.c ****         }
 962:Drivers/lvgl/lvgl/src/widgets/lv_btnmatrix.c ****     }
 963:Drivers/lvgl/lvgl/src/widgets/lv_btnmatrix.c **** 
 964:Drivers/lvgl/lvgl/src/widgets/lv_btnmatrix.c ****     if(i == btnm->btn_cnt) i = LV_BTNMATRIX_BTN_NONE;
 965:Drivers/lvgl/lvgl/src/widgets/lv_btnmatrix.c **** 
 966:Drivers/lvgl/lvgl/src/widgets/lv_btnmatrix.c ****     return i;
 967:Drivers/lvgl/lvgl/src/widgets/lv_btnmatrix.c **** }
 968:Drivers/lvgl/lvgl/src/widgets/lv_btnmatrix.c **** 
 969:Drivers/lvgl/lvgl/src/widgets/lv_btnmatrix.c **** static void invalidate_button_area(const lv_obj_t * obj, uint16_t btn_idx)
ARM GAS  /tmp/ccpV5owi.s 			page 22


 970:Drivers/lvgl/lvgl/src/widgets/lv_btnmatrix.c **** {
 971:Drivers/lvgl/lvgl/src/widgets/lv_btnmatrix.c ****     if(btn_idx == LV_BTNMATRIX_BTN_NONE) return;
 972:Drivers/lvgl/lvgl/src/widgets/lv_btnmatrix.c **** 
 973:Drivers/lvgl/lvgl/src/widgets/lv_btnmatrix.c ****     lv_area_t btn_area;
 974:Drivers/lvgl/lvgl/src/widgets/lv_btnmatrix.c ****     lv_area_t obj_area;
 975:Drivers/lvgl/lvgl/src/widgets/lv_btnmatrix.c **** 
 976:Drivers/lvgl/lvgl/src/widgets/lv_btnmatrix.c ****     lv_btnmatrix_t * btnm = (lv_btnmatrix_t *)obj;;
 977:Drivers/lvgl/lvgl/src/widgets/lv_btnmatrix.c ****     if(btn_idx >= btnm->btn_cnt) return;
 978:Drivers/lvgl/lvgl/src/widgets/lv_btnmatrix.c **** 
 979:Drivers/lvgl/lvgl/src/widgets/lv_btnmatrix.c ****     lv_area_copy(&btn_area, &btnm->button_areas[btn_idx]);
 980:Drivers/lvgl/lvgl/src/widgets/lv_btnmatrix.c ****     lv_obj_get_coords(obj, &obj_area);
 981:Drivers/lvgl/lvgl/src/widgets/lv_btnmatrix.c **** 
 982:Drivers/lvgl/lvgl/src/widgets/lv_btnmatrix.c ****     /*The buttons might have outline and shadow so make the invalidation larger with the gaps betwe
 983:Drivers/lvgl/lvgl/src/widgets/lv_btnmatrix.c ****      *It assumes that the outline or shadow is smaller than the gaps*/
 984:Drivers/lvgl/lvgl/src/widgets/lv_btnmatrix.c ****     lv_coord_t row_gap = lv_obj_get_style_pad_row(obj, LV_PART_MAIN);
 985:Drivers/lvgl/lvgl/src/widgets/lv_btnmatrix.c ****     lv_coord_t col_gap = lv_obj_get_style_pad_column(obj, LV_PART_MAIN);
 986:Drivers/lvgl/lvgl/src/widgets/lv_btnmatrix.c **** 
 987:Drivers/lvgl/lvgl/src/widgets/lv_btnmatrix.c ****     /*Be sure to have a minimal extra space if row/col_gap is small*/
 988:Drivers/lvgl/lvgl/src/widgets/lv_btnmatrix.c ****     lv_coord_t dpi = lv_disp_get_dpi(lv_obj_get_disp(obj));
 989:Drivers/lvgl/lvgl/src/widgets/lv_btnmatrix.c ****     row_gap = LV_MAX(row_gap, dpi / 10);
 990:Drivers/lvgl/lvgl/src/widgets/lv_btnmatrix.c ****     col_gap = LV_MAX(col_gap, dpi / 10);
 991:Drivers/lvgl/lvgl/src/widgets/lv_btnmatrix.c **** 
 992:Drivers/lvgl/lvgl/src/widgets/lv_btnmatrix.c ****     /*Convert relative coordinates to absolute*/
 993:Drivers/lvgl/lvgl/src/widgets/lv_btnmatrix.c ****     btn_area.x1 += obj_area.x1 - row_gap;
 994:Drivers/lvgl/lvgl/src/widgets/lv_btnmatrix.c ****     btn_area.y1 += obj_area.y1 - col_gap;
 995:Drivers/lvgl/lvgl/src/widgets/lv_btnmatrix.c ****     btn_area.x2 += obj_area.x1 + row_gap;
 996:Drivers/lvgl/lvgl/src/widgets/lv_btnmatrix.c ****     btn_area.y2 += obj_area.y1 + col_gap;
 997:Drivers/lvgl/lvgl/src/widgets/lv_btnmatrix.c **** 
 998:Drivers/lvgl/lvgl/src/widgets/lv_btnmatrix.c ****     if((btn_idx == btnm->btn_id_sel) && (btnm->ctrl_bits[btn_idx] & LV_BTNMATRIX_CTRL_POPOVER)) {
 999:Drivers/lvgl/lvgl/src/widgets/lv_btnmatrix.c ****         /*Push up the upper boundary of the btn area to also invalidate the popover*/
1000:Drivers/lvgl/lvgl/src/widgets/lv_btnmatrix.c ****         btn_area.y1 -= lv_area_get_height(&btn_area);
1001:Drivers/lvgl/lvgl/src/widgets/lv_btnmatrix.c ****     }
1002:Drivers/lvgl/lvgl/src/widgets/lv_btnmatrix.c **** 
1003:Drivers/lvgl/lvgl/src/widgets/lv_btnmatrix.c ****     lv_obj_invalidate_area(obj, &btn_area);
1004:Drivers/lvgl/lvgl/src/widgets/lv_btnmatrix.c **** }
1005:Drivers/lvgl/lvgl/src/widgets/lv_btnmatrix.c **** 
1006:Drivers/lvgl/lvgl/src/widgets/lv_btnmatrix.c **** /**
1007:Drivers/lvgl/lvgl/src/widgets/lv_btnmatrix.c ****  * Enforces a single button being toggled on the button matrix.
1008:Drivers/lvgl/lvgl/src/widgets/lv_btnmatrix.c ****  * It simply clears the toggle flag on other buttons.
1009:Drivers/lvgl/lvgl/src/widgets/lv_btnmatrix.c ****  * @param obj Button matrix object
1010:Drivers/lvgl/lvgl/src/widgets/lv_btnmatrix.c ****  * @param btn_idx Button that should remain toggled
1011:Drivers/lvgl/lvgl/src/widgets/lv_btnmatrix.c ****  */
1012:Drivers/lvgl/lvgl/src/widgets/lv_btnmatrix.c **** static void make_one_button_checked(lv_obj_t * obj, uint16_t btn_idx)
1013:Drivers/lvgl/lvgl/src/widgets/lv_btnmatrix.c **** {
1014:Drivers/lvgl/lvgl/src/widgets/lv_btnmatrix.c ****     /*Save whether the button was toggled*/
1015:Drivers/lvgl/lvgl/src/widgets/lv_btnmatrix.c ****     bool was_toggled = lv_btnmatrix_has_btn_ctrl(obj, btn_idx, LV_BTNMATRIX_CTRL_CHECKED);
1016:Drivers/lvgl/lvgl/src/widgets/lv_btnmatrix.c **** 
1017:Drivers/lvgl/lvgl/src/widgets/lv_btnmatrix.c ****     lv_btnmatrix_clear_btn_ctrl_all(obj, LV_BTNMATRIX_CTRL_CHECKED);
1018:Drivers/lvgl/lvgl/src/widgets/lv_btnmatrix.c **** 
1019:Drivers/lvgl/lvgl/src/widgets/lv_btnmatrix.c ****     if(was_toggled) lv_btnmatrix_set_btn_ctrl(obj, btn_idx, LV_BTNMATRIX_CTRL_CHECKED);
1020:Drivers/lvgl/lvgl/src/widgets/lv_btnmatrix.c **** }
1021:Drivers/lvgl/lvgl/src/widgets/lv_btnmatrix.c **** 
1022:Drivers/lvgl/lvgl/src/widgets/lv_btnmatrix.c **** /**
1023:Drivers/lvgl/lvgl/src/widgets/lv_btnmatrix.c ****  * Check if any of the buttons in the first row has the LV_BTNMATRIX_CTRL_POPOVER control flag set.
1024:Drivers/lvgl/lvgl/src/widgets/lv_btnmatrix.c ****  * @param obj Button matrix object
1025:Drivers/lvgl/lvgl/src/widgets/lv_btnmatrix.c ****  * @return true if at least one button has the flag, false otherwise
1026:Drivers/lvgl/lvgl/src/widgets/lv_btnmatrix.c ****  */
ARM GAS  /tmp/ccpV5owi.s 			page 23


1027:Drivers/lvgl/lvgl/src/widgets/lv_btnmatrix.c **** static bool has_popovers_in_top_row(lv_obj_t * obj)
1028:Drivers/lvgl/lvgl/src/widgets/lv_btnmatrix.c **** {
 250              		.loc 1 1028 0
 251              		.cfi_startproc
 252              		@ args = 0, pretend = 0, frame = 0
 253              		@ frame_needed = 0, uses_anonymous_args = 0
 254              	.LVL20:
1029:Drivers/lvgl/lvgl/src/widgets/lv_btnmatrix.c ****     lv_btnmatrix_t * btnm = (lv_btnmatrix_t *)obj;
1030:Drivers/lvgl/lvgl/src/widgets/lv_btnmatrix.c **** 
1031:Drivers/lvgl/lvgl/src/widgets/lv_btnmatrix.c ****     if(btnm->row_cnt <= 0) {
 255              		.loc 1 1031 0
 256 0000 438E     		ldrh	r3, [r0, #50]
 257 0002 D3B1     		cbz	r3, .L17
1028:Drivers/lvgl/lvgl/src/widgets/lv_btnmatrix.c ****     lv_btnmatrix_t * btnm = (lv_btnmatrix_t *)obj;
 258              		.loc 1 1028 0
 259 0004 2DE9F041 		push	{r4, r5, r6, r7, r8, lr}
 260              	.LCFI0:
 261              		.cfi_def_cfa_offset 24
 262              		.cfi_offset 4, -24
 263              		.cfi_offset 5, -20
 264              		.cfi_offset 6, -16
 265              		.cfi_offset 7, -12
 266              		.cfi_offset 8, -8
 267              		.cfi_offset 14, -4
 268 0008 0746     		mov	r7, r0
1032:Drivers/lvgl/lvgl/src/widgets/lv_btnmatrix.c ****         return false;
1033:Drivers/lvgl/lvgl/src/widgets/lv_btnmatrix.c ****     }
1034:Drivers/lvgl/lvgl/src/widgets/lv_btnmatrix.c **** 
1035:Drivers/lvgl/lvgl/src/widgets/lv_btnmatrix.c ****     const char ** map_row = btnm->map_p;
 269              		.loc 1 1035 0
 270 000a D0F82480 		ldr	r8, [r0, #36]
 271              	.LVL21:
1036:Drivers/lvgl/lvgl/src/widgets/lv_btnmatrix.c ****     uint16_t btn_cnt = 0;
 272              		.loc 1 1036 0
 273 000e 0024     		movs	r4, #0
 274              	.LVL22:
 275              	.L15:
1037:Drivers/lvgl/lvgl/src/widgets/lv_btnmatrix.c **** 
1038:Drivers/lvgl/lvgl/src/widgets/lv_btnmatrix.c ****     while(map_row[btn_cnt] && strcmp(map_row[btn_cnt], "\n") != 0 && map_row[btn_cnt][0] != '\0') {
 276              		.loc 1 1038 0
 277 0010 2646     		mov	r6, r4
 278 0012 58F82450 		ldr	r5, [r8, r4, lsl #2]
 279 0016 9DB1     		cbz	r5, .L18
 280              		.loc 1 1038 0 is_stmt 0 discriminator 1
 281 0018 0C49     		ldr	r1, .L24
 282 001a 2846     		mov	r0, r5
 283 001c FFF7FEFF 		bl	strcmp
 284              	.LVL23:
 285 0020 90B1     		cbz	r0, .L19
 286              		.loc 1 1038 0 discriminator 2
 287 0022 2B78     		ldrb	r3, [r5]	@ zero_extendqisi2
 288 0024 6BB1     		cbz	r3, .L14
1039:Drivers/lvgl/lvgl/src/widgets/lv_btnmatrix.c ****         if(button_is_popover(btnm->ctrl_bits[btn_cnt])) {
 289              		.loc 1 1039 0 is_stmt 1
 290 0026 FB6A     		ldr	r3, [r7, #44]
 291 0028 33F81600 		ldrh	r0, [r3, r6, lsl #1]
 292 002c FFF7FEFF 		bl	button_is_popover
ARM GAS  /tmp/ccpV5owi.s 			page 24


 293              	.LVL24:
 294 0030 0346     		mov	r3, r0
 295 0032 30B9     		cbnz	r0, .L14
1040:Drivers/lvgl/lvgl/src/widgets/lv_btnmatrix.c ****             return true;
1041:Drivers/lvgl/lvgl/src/widgets/lv_btnmatrix.c ****         }
1042:Drivers/lvgl/lvgl/src/widgets/lv_btnmatrix.c ****         btn_cnt++;
 296              		.loc 1 1042 0
 297 0034 0134     		adds	r4, r4, #1
 298              	.LVL25:
 299 0036 A4B2     		uxth	r4, r4
 300              	.LVL26:
 301 0038 EAE7     		b	.L15
 302              	.LVL27:
 303              	.L17:
 304              	.LCFI1:
 305              		.cfi_def_cfa_offset 0
 306              		.cfi_restore 4
 307              		.cfi_restore 5
 308              		.cfi_restore 6
 309              		.cfi_restore 7
 310              		.cfi_restore 8
 311              		.cfi_restore 14
1032:Drivers/lvgl/lvgl/src/widgets/lv_btnmatrix.c ****     }
 312              		.loc 1 1032 0
 313 003a 0023     		movs	r3, #0
1043:Drivers/lvgl/lvgl/src/widgets/lv_btnmatrix.c ****     }
1044:Drivers/lvgl/lvgl/src/widgets/lv_btnmatrix.c **** 
1045:Drivers/lvgl/lvgl/src/widgets/lv_btnmatrix.c ****     return false;
1046:Drivers/lvgl/lvgl/src/widgets/lv_btnmatrix.c **** }
 314              		.loc 1 1046 0
 315 003c 1846     		mov	r0, r3
 316              	.LVL28:
 317 003e 7047     		bx	lr
 318              	.LVL29:
 319              	.L18:
 320              	.LCFI2:
 321              		.cfi_def_cfa_offset 24
 322              		.cfi_offset 4, -24
 323              		.cfi_offset 5, -20
 324              		.cfi_offset 6, -16
 325              		.cfi_offset 7, -12
 326              		.cfi_offset 8, -8
 327              		.cfi_offset 14, -4
1045:Drivers/lvgl/lvgl/src/widgets/lv_btnmatrix.c **** }
 328              		.loc 1 1045 0
 329 0040 0023     		movs	r3, #0
 330              	.L14:
 331              		.loc 1 1046 0
 332 0042 1846     		mov	r0, r3
 333 0044 BDE8F081 		pop	{r4, r5, r6, r7, r8, pc}
 334              	.LVL30:
 335              	.L19:
1045:Drivers/lvgl/lvgl/src/widgets/lv_btnmatrix.c **** }
 336              		.loc 1 1045 0
 337 0048 0023     		movs	r3, #0
 338 004a FAE7     		b	.L14
 339              	.L25:
ARM GAS  /tmp/ccpV5owi.s 			page 25


 340              		.align	2
 341              	.L24:
 342 004c 00000000 		.word	.LC0
 343              		.cfi_endproc
 344              	.LFE192:
 346              		.section	.text.get_button_from_point,"ax",%progbits
 347              		.align	1
 348              		.syntax unified
 349              		.thumb
 350              		.thumb_func
 351              		.fpu fpv5-d16
 353              	get_button_from_point:
 354              	.LFB189:
 917:Drivers/lvgl/lvgl/src/widgets/lv_btnmatrix.c ****     lv_area_t obj_cords;
 355              		.loc 1 917 0
 356              		.cfi_startproc
 357              		@ args = 0, pretend = 0, frame = 32
 358              		@ frame_needed = 0, uses_anonymous_args = 0
 359              	.LVL31:
 360 0000 2DE9F04F 		push	{r4, r5, r6, r7, r8, r9, r10, fp, lr}
 361              	.LCFI3:
 362              		.cfi_def_cfa_offset 36
 363              		.cfi_offset 4, -36
 364              		.cfi_offset 5, -32
 365              		.cfi_offset 6, -28
 366              		.cfi_offset 7, -24
 367              		.cfi_offset 8, -20
 368              		.cfi_offset 9, -16
 369              		.cfi_offset 10, -12
 370              		.cfi_offset 11, -8
 371              		.cfi_offset 14, -4
 372 0004 89B0     		sub	sp, sp, #36
 373              	.LCFI4:
 374              		.cfi_def_cfa_offset 72
 375 0006 0546     		mov	r5, r0
 376 0008 0391     		str	r1, [sp, #12]
 377              	.LVL32:
 922:Drivers/lvgl/lvgl/src/widgets/lv_btnmatrix.c **** 
 378              		.loc 1 922 0
 379 000a 06A9     		add	r1, sp, #24
 380              	.LVL33:
 381 000c FFF7FEFF 		bl	lv_obj_get_coords
 382              	.LVL34:
 924:Drivers/lvgl/lvgl/src/widgets/lv_btnmatrix.c ****     lv_coord_t h = lv_obj_get_height(obj);
 383              		.loc 1 924 0
 384 0010 2846     		mov	r0, r5
 385 0012 FFF7FEFF 		bl	lv_obj_get_width
 386              	.LVL35:
 387 0016 0190     		str	r0, [sp, #4]
 388              	.LVL36:
 925:Drivers/lvgl/lvgl/src/widgets/lv_btnmatrix.c ****     lv_coord_t pleft = lv_obj_get_style_pad_left(obj, LV_PART_MAIN);
 389              		.loc 1 925 0
 390 0018 2846     		mov	r0, r5
 391 001a FFF7FEFF 		bl	lv_obj_get_height
 392              	.LVL37:
 393 001e 0290     		str	r0, [sp, #8]
 394              	.LVL38:
ARM GAS  /tmp/ccpV5owi.s 			page 26


 395              	.LBB79:
 396              	.LBB80:
 397              		.file 2 "Drivers/lvgl/lvgl/src/widgets/../core/lv_obj_style_gen.h"
   1:Drivers/lvgl/lvgl/src/widgets/../core/lv_obj_style_gen.h **** static inline lv_coord_t lv_obj_get_style_width(const struct _lv_obj_t * obj, uint32_t part)
   2:Drivers/lvgl/lvgl/src/widgets/../core/lv_obj_style_gen.h **** {
   3:Drivers/lvgl/lvgl/src/widgets/../core/lv_obj_style_gen.h ****     lv_style_value_t v = lv_obj_get_style_prop(obj, part, LV_STYLE_WIDTH);
   4:Drivers/lvgl/lvgl/src/widgets/../core/lv_obj_style_gen.h ****     return (lv_coord_t)v.num;
   5:Drivers/lvgl/lvgl/src/widgets/../core/lv_obj_style_gen.h **** }
   6:Drivers/lvgl/lvgl/src/widgets/../core/lv_obj_style_gen.h **** 
   7:Drivers/lvgl/lvgl/src/widgets/../core/lv_obj_style_gen.h **** static inline lv_coord_t lv_obj_get_style_min_width(const struct _lv_obj_t * obj, uint32_t part)
   8:Drivers/lvgl/lvgl/src/widgets/../core/lv_obj_style_gen.h **** {
   9:Drivers/lvgl/lvgl/src/widgets/../core/lv_obj_style_gen.h ****     lv_style_value_t v = lv_obj_get_style_prop(obj, part, LV_STYLE_MIN_WIDTH);
  10:Drivers/lvgl/lvgl/src/widgets/../core/lv_obj_style_gen.h ****     return (lv_coord_t)v.num;
  11:Drivers/lvgl/lvgl/src/widgets/../core/lv_obj_style_gen.h **** }
  12:Drivers/lvgl/lvgl/src/widgets/../core/lv_obj_style_gen.h **** 
  13:Drivers/lvgl/lvgl/src/widgets/../core/lv_obj_style_gen.h **** static inline lv_coord_t lv_obj_get_style_max_width(const struct _lv_obj_t * obj, uint32_t part)
  14:Drivers/lvgl/lvgl/src/widgets/../core/lv_obj_style_gen.h **** {
  15:Drivers/lvgl/lvgl/src/widgets/../core/lv_obj_style_gen.h ****     lv_style_value_t v = lv_obj_get_style_prop(obj, part, LV_STYLE_MAX_WIDTH);
  16:Drivers/lvgl/lvgl/src/widgets/../core/lv_obj_style_gen.h ****     return (lv_coord_t)v.num;
  17:Drivers/lvgl/lvgl/src/widgets/../core/lv_obj_style_gen.h **** }
  18:Drivers/lvgl/lvgl/src/widgets/../core/lv_obj_style_gen.h **** 
  19:Drivers/lvgl/lvgl/src/widgets/../core/lv_obj_style_gen.h **** static inline lv_coord_t lv_obj_get_style_height(const struct _lv_obj_t * obj, uint32_t part)
  20:Drivers/lvgl/lvgl/src/widgets/../core/lv_obj_style_gen.h **** {
  21:Drivers/lvgl/lvgl/src/widgets/../core/lv_obj_style_gen.h ****     lv_style_value_t v = lv_obj_get_style_prop(obj, part, LV_STYLE_HEIGHT);
  22:Drivers/lvgl/lvgl/src/widgets/../core/lv_obj_style_gen.h ****     return (lv_coord_t)v.num;
  23:Drivers/lvgl/lvgl/src/widgets/../core/lv_obj_style_gen.h **** }
  24:Drivers/lvgl/lvgl/src/widgets/../core/lv_obj_style_gen.h **** 
  25:Drivers/lvgl/lvgl/src/widgets/../core/lv_obj_style_gen.h **** static inline lv_coord_t lv_obj_get_style_min_height(const struct _lv_obj_t * obj, uint32_t part)
  26:Drivers/lvgl/lvgl/src/widgets/../core/lv_obj_style_gen.h **** {
  27:Drivers/lvgl/lvgl/src/widgets/../core/lv_obj_style_gen.h ****     lv_style_value_t v = lv_obj_get_style_prop(obj, part, LV_STYLE_MIN_HEIGHT);
  28:Drivers/lvgl/lvgl/src/widgets/../core/lv_obj_style_gen.h ****     return (lv_coord_t)v.num;
  29:Drivers/lvgl/lvgl/src/widgets/../core/lv_obj_style_gen.h **** }
  30:Drivers/lvgl/lvgl/src/widgets/../core/lv_obj_style_gen.h **** 
  31:Drivers/lvgl/lvgl/src/widgets/../core/lv_obj_style_gen.h **** static inline lv_coord_t lv_obj_get_style_max_height(const struct _lv_obj_t * obj, uint32_t part)
  32:Drivers/lvgl/lvgl/src/widgets/../core/lv_obj_style_gen.h **** {
  33:Drivers/lvgl/lvgl/src/widgets/../core/lv_obj_style_gen.h ****     lv_style_value_t v = lv_obj_get_style_prop(obj, part, LV_STYLE_MAX_HEIGHT);
  34:Drivers/lvgl/lvgl/src/widgets/../core/lv_obj_style_gen.h ****     return (lv_coord_t)v.num;
  35:Drivers/lvgl/lvgl/src/widgets/../core/lv_obj_style_gen.h **** }
  36:Drivers/lvgl/lvgl/src/widgets/../core/lv_obj_style_gen.h **** 
  37:Drivers/lvgl/lvgl/src/widgets/../core/lv_obj_style_gen.h **** static inline lv_coord_t lv_obj_get_style_x(const struct _lv_obj_t * obj, uint32_t part)
  38:Drivers/lvgl/lvgl/src/widgets/../core/lv_obj_style_gen.h **** {
  39:Drivers/lvgl/lvgl/src/widgets/../core/lv_obj_style_gen.h ****     lv_style_value_t v = lv_obj_get_style_prop(obj, part, LV_STYLE_X);
  40:Drivers/lvgl/lvgl/src/widgets/../core/lv_obj_style_gen.h ****     return (lv_coord_t)v.num;
  41:Drivers/lvgl/lvgl/src/widgets/../core/lv_obj_style_gen.h **** }
  42:Drivers/lvgl/lvgl/src/widgets/../core/lv_obj_style_gen.h **** 
  43:Drivers/lvgl/lvgl/src/widgets/../core/lv_obj_style_gen.h **** static inline lv_coord_t lv_obj_get_style_y(const struct _lv_obj_t * obj, uint32_t part)
  44:Drivers/lvgl/lvgl/src/widgets/../core/lv_obj_style_gen.h **** {
  45:Drivers/lvgl/lvgl/src/widgets/../core/lv_obj_style_gen.h ****     lv_style_value_t v = lv_obj_get_style_prop(obj, part, LV_STYLE_Y);
  46:Drivers/lvgl/lvgl/src/widgets/../core/lv_obj_style_gen.h ****     return (lv_coord_t)v.num;
  47:Drivers/lvgl/lvgl/src/widgets/../core/lv_obj_style_gen.h **** }
  48:Drivers/lvgl/lvgl/src/widgets/../core/lv_obj_style_gen.h **** 
  49:Drivers/lvgl/lvgl/src/widgets/../core/lv_obj_style_gen.h **** static inline lv_align_t lv_obj_get_style_align(const struct _lv_obj_t * obj, uint32_t part)
  50:Drivers/lvgl/lvgl/src/widgets/../core/lv_obj_style_gen.h **** {
  51:Drivers/lvgl/lvgl/src/widgets/../core/lv_obj_style_gen.h ****     lv_style_value_t v = lv_obj_get_style_prop(obj, part, LV_STYLE_ALIGN);
  52:Drivers/lvgl/lvgl/src/widgets/../core/lv_obj_style_gen.h ****     return (lv_align_t)v.num;
  53:Drivers/lvgl/lvgl/src/widgets/../core/lv_obj_style_gen.h **** }
  54:Drivers/lvgl/lvgl/src/widgets/../core/lv_obj_style_gen.h **** 
ARM GAS  /tmp/ccpV5owi.s 			page 27


  55:Drivers/lvgl/lvgl/src/widgets/../core/lv_obj_style_gen.h **** static inline lv_coord_t lv_obj_get_style_transform_width(const struct _lv_obj_t * obj, uint32_t pa
  56:Drivers/lvgl/lvgl/src/widgets/../core/lv_obj_style_gen.h **** {
  57:Drivers/lvgl/lvgl/src/widgets/../core/lv_obj_style_gen.h ****     lv_style_value_t v = lv_obj_get_style_prop(obj, part, LV_STYLE_TRANSFORM_WIDTH);
  58:Drivers/lvgl/lvgl/src/widgets/../core/lv_obj_style_gen.h ****     return (lv_coord_t)v.num;
  59:Drivers/lvgl/lvgl/src/widgets/../core/lv_obj_style_gen.h **** }
  60:Drivers/lvgl/lvgl/src/widgets/../core/lv_obj_style_gen.h **** 
  61:Drivers/lvgl/lvgl/src/widgets/../core/lv_obj_style_gen.h **** static inline lv_coord_t lv_obj_get_style_transform_height(const struct _lv_obj_t * obj, uint32_t p
  62:Drivers/lvgl/lvgl/src/widgets/../core/lv_obj_style_gen.h **** {
  63:Drivers/lvgl/lvgl/src/widgets/../core/lv_obj_style_gen.h ****     lv_style_value_t v = lv_obj_get_style_prop(obj, part, LV_STYLE_TRANSFORM_HEIGHT);
  64:Drivers/lvgl/lvgl/src/widgets/../core/lv_obj_style_gen.h ****     return (lv_coord_t)v.num;
  65:Drivers/lvgl/lvgl/src/widgets/../core/lv_obj_style_gen.h **** }
  66:Drivers/lvgl/lvgl/src/widgets/../core/lv_obj_style_gen.h **** 
  67:Drivers/lvgl/lvgl/src/widgets/../core/lv_obj_style_gen.h **** static inline lv_coord_t lv_obj_get_style_translate_x(const struct _lv_obj_t * obj, uint32_t part)
  68:Drivers/lvgl/lvgl/src/widgets/../core/lv_obj_style_gen.h **** {
  69:Drivers/lvgl/lvgl/src/widgets/../core/lv_obj_style_gen.h ****     lv_style_value_t v = lv_obj_get_style_prop(obj, part, LV_STYLE_TRANSLATE_X);
  70:Drivers/lvgl/lvgl/src/widgets/../core/lv_obj_style_gen.h ****     return (lv_coord_t)v.num;
  71:Drivers/lvgl/lvgl/src/widgets/../core/lv_obj_style_gen.h **** }
  72:Drivers/lvgl/lvgl/src/widgets/../core/lv_obj_style_gen.h **** 
  73:Drivers/lvgl/lvgl/src/widgets/../core/lv_obj_style_gen.h **** static inline lv_coord_t lv_obj_get_style_translate_y(const struct _lv_obj_t * obj, uint32_t part)
  74:Drivers/lvgl/lvgl/src/widgets/../core/lv_obj_style_gen.h **** {
  75:Drivers/lvgl/lvgl/src/widgets/../core/lv_obj_style_gen.h ****     lv_style_value_t v = lv_obj_get_style_prop(obj, part, LV_STYLE_TRANSLATE_Y);
  76:Drivers/lvgl/lvgl/src/widgets/../core/lv_obj_style_gen.h ****     return (lv_coord_t)v.num;
  77:Drivers/lvgl/lvgl/src/widgets/../core/lv_obj_style_gen.h **** }
  78:Drivers/lvgl/lvgl/src/widgets/../core/lv_obj_style_gen.h **** 
  79:Drivers/lvgl/lvgl/src/widgets/../core/lv_obj_style_gen.h **** static inline lv_coord_t lv_obj_get_style_transform_zoom(const struct _lv_obj_t * obj, uint32_t par
  80:Drivers/lvgl/lvgl/src/widgets/../core/lv_obj_style_gen.h **** {
  81:Drivers/lvgl/lvgl/src/widgets/../core/lv_obj_style_gen.h ****     lv_style_value_t v = lv_obj_get_style_prop(obj, part, LV_STYLE_TRANSFORM_ZOOM);
  82:Drivers/lvgl/lvgl/src/widgets/../core/lv_obj_style_gen.h ****     return (lv_coord_t)v.num;
  83:Drivers/lvgl/lvgl/src/widgets/../core/lv_obj_style_gen.h **** }
  84:Drivers/lvgl/lvgl/src/widgets/../core/lv_obj_style_gen.h **** 
  85:Drivers/lvgl/lvgl/src/widgets/../core/lv_obj_style_gen.h **** static inline lv_coord_t lv_obj_get_style_transform_angle(const struct _lv_obj_t * obj, uint32_t pa
  86:Drivers/lvgl/lvgl/src/widgets/../core/lv_obj_style_gen.h **** {
  87:Drivers/lvgl/lvgl/src/widgets/../core/lv_obj_style_gen.h ****     lv_style_value_t v = lv_obj_get_style_prop(obj, part, LV_STYLE_TRANSFORM_ANGLE);
  88:Drivers/lvgl/lvgl/src/widgets/../core/lv_obj_style_gen.h ****     return (lv_coord_t)v.num;
  89:Drivers/lvgl/lvgl/src/widgets/../core/lv_obj_style_gen.h **** }
  90:Drivers/lvgl/lvgl/src/widgets/../core/lv_obj_style_gen.h **** 
  91:Drivers/lvgl/lvgl/src/widgets/../core/lv_obj_style_gen.h **** static inline lv_coord_t lv_obj_get_style_transform_pivot_x(const struct _lv_obj_t * obj, uint32_t 
  92:Drivers/lvgl/lvgl/src/widgets/../core/lv_obj_style_gen.h **** {
  93:Drivers/lvgl/lvgl/src/widgets/../core/lv_obj_style_gen.h ****     lv_style_value_t v = lv_obj_get_style_prop(obj, part, LV_STYLE_TRANSFORM_PIVOT_X);
  94:Drivers/lvgl/lvgl/src/widgets/../core/lv_obj_style_gen.h ****     return (lv_coord_t)v.num;
  95:Drivers/lvgl/lvgl/src/widgets/../core/lv_obj_style_gen.h **** }
  96:Drivers/lvgl/lvgl/src/widgets/../core/lv_obj_style_gen.h **** 
  97:Drivers/lvgl/lvgl/src/widgets/../core/lv_obj_style_gen.h **** static inline lv_coord_t lv_obj_get_style_transform_pivot_y(const struct _lv_obj_t * obj, uint32_t 
  98:Drivers/lvgl/lvgl/src/widgets/../core/lv_obj_style_gen.h **** {
  99:Drivers/lvgl/lvgl/src/widgets/../core/lv_obj_style_gen.h ****     lv_style_value_t v = lv_obj_get_style_prop(obj, part, LV_STYLE_TRANSFORM_PIVOT_Y);
 100:Drivers/lvgl/lvgl/src/widgets/../core/lv_obj_style_gen.h ****     return (lv_coord_t)v.num;
 101:Drivers/lvgl/lvgl/src/widgets/../core/lv_obj_style_gen.h **** }
 102:Drivers/lvgl/lvgl/src/widgets/../core/lv_obj_style_gen.h **** 
 103:Drivers/lvgl/lvgl/src/widgets/../core/lv_obj_style_gen.h **** static inline lv_coord_t lv_obj_get_style_pad_top(const struct _lv_obj_t * obj, uint32_t part)
 104:Drivers/lvgl/lvgl/src/widgets/../core/lv_obj_style_gen.h **** {
 105:Drivers/lvgl/lvgl/src/widgets/../core/lv_obj_style_gen.h ****     lv_style_value_t v = lv_obj_get_style_prop(obj, part, LV_STYLE_PAD_TOP);
 106:Drivers/lvgl/lvgl/src/widgets/../core/lv_obj_style_gen.h ****     return (lv_coord_t)v.num;
 107:Drivers/lvgl/lvgl/src/widgets/../core/lv_obj_style_gen.h **** }
 108:Drivers/lvgl/lvgl/src/widgets/../core/lv_obj_style_gen.h **** 
 109:Drivers/lvgl/lvgl/src/widgets/../core/lv_obj_style_gen.h **** static inline lv_coord_t lv_obj_get_style_pad_bottom(const struct _lv_obj_t * obj, uint32_t part)
 110:Drivers/lvgl/lvgl/src/widgets/../core/lv_obj_style_gen.h **** {
 111:Drivers/lvgl/lvgl/src/widgets/../core/lv_obj_style_gen.h ****     lv_style_value_t v = lv_obj_get_style_prop(obj, part, LV_STYLE_PAD_BOTTOM);
ARM GAS  /tmp/ccpV5owi.s 			page 28


 112:Drivers/lvgl/lvgl/src/widgets/../core/lv_obj_style_gen.h ****     return (lv_coord_t)v.num;
 113:Drivers/lvgl/lvgl/src/widgets/../core/lv_obj_style_gen.h **** }
 114:Drivers/lvgl/lvgl/src/widgets/../core/lv_obj_style_gen.h **** 
 115:Drivers/lvgl/lvgl/src/widgets/../core/lv_obj_style_gen.h **** static inline lv_coord_t lv_obj_get_style_pad_left(const struct _lv_obj_t * obj, uint32_t part)
 116:Drivers/lvgl/lvgl/src/widgets/../core/lv_obj_style_gen.h **** {
 117:Drivers/lvgl/lvgl/src/widgets/../core/lv_obj_style_gen.h ****     lv_style_value_t v = lv_obj_get_style_prop(obj, part, LV_STYLE_PAD_LEFT);
 398              		.loc 2 117 0
 399 0020 1222     		movs	r2, #18
 400 0022 0021     		movs	r1, #0
 401 0024 2846     		mov	r0, r5
 402 0026 FFF7FEFF 		bl	lv_obj_get_style_prop
 403              	.LVL39:
 118:Drivers/lvgl/lvgl/src/widgets/../core/lv_obj_style_gen.h ****     return (lv_coord_t)v.num;
 404              		.loc 2 118 0
 405 002a 0FFA80FB 		sxth	fp, r0
 406              	.LVL40:
 407              	.LBE80:
 408              	.LBE79:
 409              	.LBB81:
 410              	.LBB82:
 119:Drivers/lvgl/lvgl/src/widgets/../core/lv_obj_style_gen.h **** }
 120:Drivers/lvgl/lvgl/src/widgets/../core/lv_obj_style_gen.h **** 
 121:Drivers/lvgl/lvgl/src/widgets/../core/lv_obj_style_gen.h **** static inline lv_coord_t lv_obj_get_style_pad_right(const struct _lv_obj_t * obj, uint32_t part)
 122:Drivers/lvgl/lvgl/src/widgets/../core/lv_obj_style_gen.h **** {
 123:Drivers/lvgl/lvgl/src/widgets/../core/lv_obj_style_gen.h ****     lv_style_value_t v = lv_obj_get_style_prop(obj, part, LV_STYLE_PAD_RIGHT);
 411              		.loc 2 123 0
 412 002e 1322     		movs	r2, #19
 413 0030 0021     		movs	r1, #0
 414 0032 2846     		mov	r0, r5
 415 0034 FFF7FEFF 		bl	lv_obj_get_style_prop
 416              	.LVL41:
 124:Drivers/lvgl/lvgl/src/widgets/../core/lv_obj_style_gen.h ****     return (lv_coord_t)v.num;
 417              		.loc 2 124 0
 418 0038 0FFA80FA 		sxth	r10, r0
 419              	.LVL42:
 420              	.LBE82:
 421              	.LBE81:
 422              	.LBB83:
 423              	.LBB84:
 105:Drivers/lvgl/lvgl/src/widgets/../core/lv_obj_style_gen.h ****     return (lv_coord_t)v.num;
 424              		.loc 2 105 0
 425 003c 1022     		movs	r2, #16
 426 003e 0021     		movs	r1, #0
 427 0040 2846     		mov	r0, r5
 428 0042 FFF7FEFF 		bl	lv_obj_get_style_prop
 429              	.LVL43:
 106:Drivers/lvgl/lvgl/src/widgets/../core/lv_obj_style_gen.h **** }
 430              		.loc 2 106 0
 431 0046 0FFA80F9 		sxth	r9, r0
 432              	.LVL44:
 433              	.LBE84:
 434              	.LBE83:
 435              	.LBB85:
 436              	.LBB86:
 111:Drivers/lvgl/lvgl/src/widgets/../core/lv_obj_style_gen.h ****     return (lv_coord_t)v.num;
 437              		.loc 2 111 0
 438 004a 1122     		movs	r2, #17
ARM GAS  /tmp/ccpV5owi.s 			page 29


 439 004c 0021     		movs	r1, #0
 440 004e 2846     		mov	r0, r5
 441 0050 FFF7FEFF 		bl	lv_obj_get_style_prop
 442              	.LVL45:
 112:Drivers/lvgl/lvgl/src/widgets/../core/lv_obj_style_gen.h **** }
 443              		.loc 2 112 0
 444 0054 0FFA80F8 		sxth	r8, r0
 445              	.LVL46:
 446              	.LBE86:
 447              	.LBE85:
 448              	.LBB87:
 449              	.LBB88:
 125:Drivers/lvgl/lvgl/src/widgets/../core/lv_obj_style_gen.h **** }
 126:Drivers/lvgl/lvgl/src/widgets/../core/lv_obj_style_gen.h **** 
 127:Drivers/lvgl/lvgl/src/widgets/../core/lv_obj_style_gen.h **** static inline lv_coord_t lv_obj_get_style_pad_row(const struct _lv_obj_t * obj, uint32_t part)
 128:Drivers/lvgl/lvgl/src/widgets/../core/lv_obj_style_gen.h **** {
 129:Drivers/lvgl/lvgl/src/widgets/../core/lv_obj_style_gen.h ****     lv_style_value_t v = lv_obj_get_style_prop(obj, part, LV_STYLE_PAD_ROW);
 450              		.loc 2 129 0
 451 0058 1422     		movs	r2, #20
 452 005a 0021     		movs	r1, #0
 453 005c 2846     		mov	r0, r5
 454 005e FFF7FEFF 		bl	lv_obj_get_style_prop
 455              	.LVL47:
 456 0062 0746     		mov	r7, r0
 457              	.LVL48:
 130:Drivers/lvgl/lvgl/src/widgets/../core/lv_obj_style_gen.h ****     return (lv_coord_t)v.num;
 458              		.loc 2 130 0
 459 0064 06B2     		sxth	r6, r0
 460              	.LVL49:
 461              	.LBE88:
 462              	.LBE87:
 463              	.LBB89:
 464              	.LBB90:
 131:Drivers/lvgl/lvgl/src/widgets/../core/lv_obj_style_gen.h **** }
 132:Drivers/lvgl/lvgl/src/widgets/../core/lv_obj_style_gen.h **** 
 133:Drivers/lvgl/lvgl/src/widgets/../core/lv_obj_style_gen.h **** static inline lv_coord_t lv_obj_get_style_pad_column(const struct _lv_obj_t * obj, uint32_t part)
 134:Drivers/lvgl/lvgl/src/widgets/../core/lv_obj_style_gen.h **** {
 135:Drivers/lvgl/lvgl/src/widgets/../core/lv_obj_style_gen.h ****     lv_style_value_t v = lv_obj_get_style_prop(obj, part, LV_STYLE_PAD_COLUMN);
 465              		.loc 2 135 0
 466 0066 1522     		movs	r2, #21
 467 0068 0021     		movs	r1, #0
 468 006a 2846     		mov	r0, r5
 469 006c FFF7FEFF 		bl	lv_obj_get_style_prop
 470              	.LVL50:
 136:Drivers/lvgl/lvgl/src/widgets/../core/lv_obj_style_gen.h ****     return (lv_coord_t)v.num;
 471              		.loc 2 136 0
 472 0070 03B2     		sxth	r3, r0
 473              	.LVL51:
 474              	.LBE90:
 475              	.LBE89:
 934:Drivers/lvgl/lvgl/src/widgets/lv_btnmatrix.c ****     pcol = (pcol / 2) + 1 + (pcol & 1);
 476              		.loc 1 934 0
 477 0072 07F00107 		and	r7, r7, #1
 478              	.LVL52:
 479 0076 3446     		mov	r4, r6
 480 0078 002E     		cmp	r6, #0
 481 007a 23DB     		blt	.L43
ARM GAS  /tmp/ccpV5owi.s 			page 30


 482              	.L27:
 483 007c 07EB6407 		add	r7, r7, r4, asr #1
 484 0080 0137     		adds	r7, r7, #1
 485 0082 3FB2     		sxth	r7, r7
 486              	.LVL53:
 935:Drivers/lvgl/lvgl/src/widgets/lv_btnmatrix.c **** 
 487              		.loc 1 935 0
 488 0084 00F00106 		and	r6, r0, #1
 489 0088 1846     		mov	r0, r3
 490 008a 002B     		cmp	r3, #0
 491 008c 1CDB     		blt	.L44
 492              	.L28:
 493 008e 06EB6006 		add	r6, r6, r0, asr #1
 494 0092 0136     		adds	r6, r6, #1
 495 0094 36B2     		sxth	r6, r6
 496              	.LVL54:
 937:Drivers/lvgl/lvgl/src/widgets/lv_btnmatrix.c ****     pcol = LV_MIN(pcol, BTN_EXTRA_CLICK_AREA_MAX);
 497              		.loc 1 937 0
 498 0096 0D2F     		cmp	r7, #13
 499 0098 A8BF     		it	ge
 500 009a 0D27     		movge	r7, #13
 501              	.LVL55:
 938:Drivers/lvgl/lvgl/src/widgets/lv_btnmatrix.c ****     pright = LV_MIN(pright, BTN_EXTRA_CLICK_AREA_MAX);
 502              		.loc 1 938 0
 503 009c 0D2E     		cmp	r6, #13
 504 009e A8BF     		it	ge
 505 00a0 0D26     		movge	r6, #13
 506              	.LVL56:
 939:Drivers/lvgl/lvgl/src/widgets/lv_btnmatrix.c ****     ptop = LV_MIN(ptop, BTN_EXTRA_CLICK_AREA_MAX);
 507              		.loc 1 939 0
 508 00a2 BAF10D0F 		cmp	r10, #13
 509 00a6 A8BF     		it	ge
 510 00a8 4FF00D0A 		movge	r10, #13
 511              	.LVL57:
 940:Drivers/lvgl/lvgl/src/widgets/lv_btnmatrix.c ****     pbottom = LV_MIN(pbottom, BTN_EXTRA_CLICK_AREA_MAX);
 512              		.loc 1 940 0
 513 00ac B9F10D0F 		cmp	r9, #13
 514 00b0 A8BF     		it	ge
 515 00b2 4FF00D09 		movge	r9, #13
 516              	.LVL58:
 941:Drivers/lvgl/lvgl/src/widgets/lv_btnmatrix.c **** 
 517              		.loc 1 941 0
 518 00b6 B8F10D0F 		cmp	r8, #13
 519 00ba A8BF     		it	ge
 520 00bc 4FF00D08 		movge	r8, #13
 521              	.LVL59:
 943:Drivers/lvgl/lvgl/src/widgets/lv_btnmatrix.c ****         lv_area_copy(&btn_area, &btnm->button_areas[i]);
 522              		.loc 1 943 0
 523 00c0 0024     		movs	r4, #0
 524 00c2 2BE0     		b	.L29
 525              	.LVL60:
 526              	.L43:
 934:Drivers/lvgl/lvgl/src/widgets/lv_btnmatrix.c ****     pcol = (pcol / 2) + 1 + (pcol & 1);
 527              		.loc 1 934 0
 528 00c4 741C     		adds	r4, r6, #1
 529 00c6 D9E7     		b	.L27
 530              	.LVL61:
ARM GAS  /tmp/ccpV5owi.s 			page 31


 531              	.L44:
 935:Drivers/lvgl/lvgl/src/widgets/lv_btnmatrix.c **** 
 532              		.loc 1 935 0
 533 00c8 581C     		adds	r0, r3, #1
 534 00ca E0E7     		b	.L28
 535              	.LVL62:
 536              	.L30:
 946:Drivers/lvgl/lvgl/src/widgets/lv_btnmatrix.c **** 
 537              		.loc 1 946 0
 538 00cc BDF81830 		ldrh	r3, [sp, #24]
 539 00d0 9B1B     		subs	r3, r3, r6
 540 00d2 1CFA83FC 		uxtah	ip, ip, r3
 541 00d6 ADF810C0 		strh	ip, [sp, #16]	@ movhi
 542 00da 45E0     		b	.L31
 543              	.L32:
 949:Drivers/lvgl/lvgl/src/widgets/lv_btnmatrix.c **** 
 544              		.loc 1 949 0
 545 00dc BDF81A30 		ldrh	r3, [sp, #26]
 546 00e0 DB1B     		subs	r3, r3, r7
 547 00e2 10FA83F0 		uxtah	r0, r0, r3
 548 00e6 ADF81200 		strh	r0, [sp, #18]	@ movhi
 549 00ea 4FE0     		b	.L33
 550              	.L34:
 953:Drivers/lvgl/lvgl/src/widgets/lv_btnmatrix.c **** 
 551              		.loc 1 953 0
 552 00ec BDF81830 		ldrh	r3, [sp, #24]
 553 00f0 3344     		add	r3, r3, r6
 554 00f2 12FA83F2 		uxtah	r2, r2, r3
 555 00f6 ADF81420 		strh	r2, [sp, #20]	@ movhi
 556 00fa 59E0     		b	.L35
 557              	.L36:
 957:Drivers/lvgl/lvgl/src/widgets/lv_btnmatrix.c **** 
 558              		.loc 1 957 0
 559 00fc BDF81A30 		ldrh	r3, [sp, #26]
 560 0100 3B44     		add	r3, r3, r7
 561 0102 11FA83F1 		uxtah	r1, r1, r3
 562 0106 ADF81610 		strh	r1, [sp, #22]	@ movhi
 563              	.L37:
 959:Drivers/lvgl/lvgl/src/widgets/lv_btnmatrix.c ****             break;
 564              		.loc 1 959 0
 565 010a 0022     		movs	r2, #0
 566 010c 0399     		ldr	r1, [sp, #12]
 567 010e 04A8     		add	r0, sp, #16
 568 0110 FFF7FEFF 		bl	_lv_area_is_point_on
 569              	.LVL63:
 570 0114 0028     		cmp	r0, #0
 571 0116 5ED1     		bne	.L38
 943:Drivers/lvgl/lvgl/src/widgets/lv_btnmatrix.c ****         lv_area_copy(&btn_area, &btnm->button_areas[i]);
 572              		.loc 1 943 0 discriminator 2
 573 0118 0134     		adds	r4, r4, #1
 574              	.LVL64:
 575 011a A4B2     		uxth	r4, r4
 576              	.LVL65:
 577              	.L29:
 943:Drivers/lvgl/lvgl/src/widgets/lv_btnmatrix.c ****         lv_area_copy(&btn_area, &btnm->button_areas[i]);
 578              		.loc 1 943 0 is_stmt 0 discriminator 1
 579 011c 2B8E     		ldrh	r3, [r5, #48]
ARM GAS  /tmp/ccpV5owi.s 			page 32


 580 011e A342     		cmp	r3, r4
 581 0120 59D9     		bls	.L38
 944:Drivers/lvgl/lvgl/src/widgets/lv_btnmatrix.c ****         if(btn_area.x1 <= pleft) btn_area.x1 += obj_cords.x1 - LV_MIN(pleft, BTN_EXTRA_CLICK_AREA_M
 582              		.loc 1 944 0 is_stmt 1
 583 0122 AA6A     		ldr	r2, [r5, #40]
 584 0124 02EBC403 		add	r3, r2, r4, lsl #3
 585              	.LVL66:
 586              	.LBB91:
 587              	.LBB92:
 588              		.file 3 "Drivers/lvgl/lvgl/src/widgets/../core/../misc/../font/../misc/lv_area.h"
   1:Drivers/lvgl/lvgl/src/widgets/../core/../misc/../font/../misc/lv_area.h **** /**
   2:Drivers/lvgl/lvgl/src/widgets/../core/../misc/../font/../misc/lv_area.h ****  * @file lv_area.h
   3:Drivers/lvgl/lvgl/src/widgets/../core/../misc/../font/../misc/lv_area.h ****  *
   4:Drivers/lvgl/lvgl/src/widgets/../core/../misc/../font/../misc/lv_area.h ****  */
   5:Drivers/lvgl/lvgl/src/widgets/../core/../misc/../font/../misc/lv_area.h **** 
   6:Drivers/lvgl/lvgl/src/widgets/../core/../misc/../font/../misc/lv_area.h **** #ifndef LV_AREA_H
   7:Drivers/lvgl/lvgl/src/widgets/../core/../misc/../font/../misc/lv_area.h **** #define LV_AREA_H
   8:Drivers/lvgl/lvgl/src/widgets/../core/../misc/../font/../misc/lv_area.h **** 
   9:Drivers/lvgl/lvgl/src/widgets/../core/../misc/../font/../misc/lv_area.h **** #ifdef __cplusplus
  10:Drivers/lvgl/lvgl/src/widgets/../core/../misc/../font/../misc/lv_area.h **** extern "C" {
  11:Drivers/lvgl/lvgl/src/widgets/../core/../misc/../font/../misc/lv_area.h **** #endif
  12:Drivers/lvgl/lvgl/src/widgets/../core/../misc/../font/../misc/lv_area.h **** 
  13:Drivers/lvgl/lvgl/src/widgets/../core/../misc/../font/../misc/lv_area.h **** /*********************
  14:Drivers/lvgl/lvgl/src/widgets/../core/../misc/../font/../misc/lv_area.h ****  *      INCLUDES
  15:Drivers/lvgl/lvgl/src/widgets/../core/../misc/../font/../misc/lv_area.h ****  *********************/
  16:Drivers/lvgl/lvgl/src/widgets/../core/../misc/../font/../misc/lv_area.h **** #include "../lv_conf_internal.h"
  17:Drivers/lvgl/lvgl/src/widgets/../core/../misc/../font/../misc/lv_area.h **** #include <stdbool.h>
  18:Drivers/lvgl/lvgl/src/widgets/../core/../misc/../font/../misc/lv_area.h **** #include <stdint.h>
  19:Drivers/lvgl/lvgl/src/widgets/../core/../misc/../font/../misc/lv_area.h **** 
  20:Drivers/lvgl/lvgl/src/widgets/../core/../misc/../font/../misc/lv_area.h **** /*********************
  21:Drivers/lvgl/lvgl/src/widgets/../core/../misc/../font/../misc/lv_area.h ****  *      DEFINES
  22:Drivers/lvgl/lvgl/src/widgets/../core/../misc/../font/../misc/lv_area.h ****  *********************/
  23:Drivers/lvgl/lvgl/src/widgets/../core/../misc/../font/../misc/lv_area.h **** 
  24:Drivers/lvgl/lvgl/src/widgets/../core/../misc/../font/../misc/lv_area.h **** #if LV_USE_LARGE_COORD
  25:Drivers/lvgl/lvgl/src/widgets/../core/../misc/../font/../misc/lv_area.h **** typedef int32_t lv_coord_t;
  26:Drivers/lvgl/lvgl/src/widgets/../core/../misc/../font/../misc/lv_area.h **** #else
  27:Drivers/lvgl/lvgl/src/widgets/../core/../misc/../font/../misc/lv_area.h **** typedef int16_t lv_coord_t;
  28:Drivers/lvgl/lvgl/src/widgets/../core/../misc/../font/../misc/lv_area.h **** #endif
  29:Drivers/lvgl/lvgl/src/widgets/../core/../misc/../font/../misc/lv_area.h **** 
  30:Drivers/lvgl/lvgl/src/widgets/../core/../misc/../font/../misc/lv_area.h **** /**********************
  31:Drivers/lvgl/lvgl/src/widgets/../core/../misc/../font/../misc/lv_area.h ****  *      TYPEDEFS
  32:Drivers/lvgl/lvgl/src/widgets/../core/../misc/../font/../misc/lv_area.h ****  **********************/
  33:Drivers/lvgl/lvgl/src/widgets/../core/../misc/../font/../misc/lv_area.h **** 
  34:Drivers/lvgl/lvgl/src/widgets/../core/../misc/../font/../misc/lv_area.h **** /**
  35:Drivers/lvgl/lvgl/src/widgets/../core/../misc/../font/../misc/lv_area.h ****  * Represents a point on the screen.
  36:Drivers/lvgl/lvgl/src/widgets/../core/../misc/../font/../misc/lv_area.h ****  */
  37:Drivers/lvgl/lvgl/src/widgets/../core/../misc/../font/../misc/lv_area.h **** typedef struct {
  38:Drivers/lvgl/lvgl/src/widgets/../core/../misc/../font/../misc/lv_area.h ****     lv_coord_t x;
  39:Drivers/lvgl/lvgl/src/widgets/../core/../misc/../font/../misc/lv_area.h ****     lv_coord_t y;
  40:Drivers/lvgl/lvgl/src/widgets/../core/../misc/../font/../misc/lv_area.h **** } lv_point_t;
  41:Drivers/lvgl/lvgl/src/widgets/../core/../misc/../font/../misc/lv_area.h **** 
  42:Drivers/lvgl/lvgl/src/widgets/../core/../misc/../font/../misc/lv_area.h **** /** Represents an area of the screen.*/
  43:Drivers/lvgl/lvgl/src/widgets/../core/../misc/../font/../misc/lv_area.h **** typedef struct {
  44:Drivers/lvgl/lvgl/src/widgets/../core/../misc/../font/../misc/lv_area.h ****     lv_coord_t x1;
  45:Drivers/lvgl/lvgl/src/widgets/../core/../misc/../font/../misc/lv_area.h ****     lv_coord_t y1;
  46:Drivers/lvgl/lvgl/src/widgets/../core/../misc/../font/../misc/lv_area.h ****     lv_coord_t x2;
  47:Drivers/lvgl/lvgl/src/widgets/../core/../misc/../font/../misc/lv_area.h ****     lv_coord_t y2;
ARM GAS  /tmp/ccpV5owi.s 			page 33


  48:Drivers/lvgl/lvgl/src/widgets/../core/../misc/../font/../misc/lv_area.h **** } lv_area_t;
  49:Drivers/lvgl/lvgl/src/widgets/../core/../misc/../font/../misc/lv_area.h **** 
  50:Drivers/lvgl/lvgl/src/widgets/../core/../misc/../font/../misc/lv_area.h **** /** Alignments*/
  51:Drivers/lvgl/lvgl/src/widgets/../core/../misc/../font/../misc/lv_area.h **** enum {
  52:Drivers/lvgl/lvgl/src/widgets/../core/../misc/../font/../misc/lv_area.h ****     LV_ALIGN_DEFAULT = 0,
  53:Drivers/lvgl/lvgl/src/widgets/../core/../misc/../font/../misc/lv_area.h ****     LV_ALIGN_TOP_LEFT,
  54:Drivers/lvgl/lvgl/src/widgets/../core/../misc/../font/../misc/lv_area.h ****     LV_ALIGN_TOP_MID,
  55:Drivers/lvgl/lvgl/src/widgets/../core/../misc/../font/../misc/lv_area.h ****     LV_ALIGN_TOP_RIGHT,
  56:Drivers/lvgl/lvgl/src/widgets/../core/../misc/../font/../misc/lv_area.h ****     LV_ALIGN_BOTTOM_LEFT,
  57:Drivers/lvgl/lvgl/src/widgets/../core/../misc/../font/../misc/lv_area.h ****     LV_ALIGN_BOTTOM_MID,
  58:Drivers/lvgl/lvgl/src/widgets/../core/../misc/../font/../misc/lv_area.h ****     LV_ALIGN_BOTTOM_RIGHT,
  59:Drivers/lvgl/lvgl/src/widgets/../core/../misc/../font/../misc/lv_area.h ****     LV_ALIGN_LEFT_MID,
  60:Drivers/lvgl/lvgl/src/widgets/../core/../misc/../font/../misc/lv_area.h ****     LV_ALIGN_RIGHT_MID,
  61:Drivers/lvgl/lvgl/src/widgets/../core/../misc/../font/../misc/lv_area.h ****     LV_ALIGN_CENTER,
  62:Drivers/lvgl/lvgl/src/widgets/../core/../misc/../font/../misc/lv_area.h **** 
  63:Drivers/lvgl/lvgl/src/widgets/../core/../misc/../font/../misc/lv_area.h ****     LV_ALIGN_OUT_TOP_LEFT,
  64:Drivers/lvgl/lvgl/src/widgets/../core/../misc/../font/../misc/lv_area.h ****     LV_ALIGN_OUT_TOP_MID,
  65:Drivers/lvgl/lvgl/src/widgets/../core/../misc/../font/../misc/lv_area.h ****     LV_ALIGN_OUT_TOP_RIGHT,
  66:Drivers/lvgl/lvgl/src/widgets/../core/../misc/../font/../misc/lv_area.h ****     LV_ALIGN_OUT_BOTTOM_LEFT,
  67:Drivers/lvgl/lvgl/src/widgets/../core/../misc/../font/../misc/lv_area.h ****     LV_ALIGN_OUT_BOTTOM_MID,
  68:Drivers/lvgl/lvgl/src/widgets/../core/../misc/../font/../misc/lv_area.h ****     LV_ALIGN_OUT_BOTTOM_RIGHT,
  69:Drivers/lvgl/lvgl/src/widgets/../core/../misc/../font/../misc/lv_area.h ****     LV_ALIGN_OUT_LEFT_TOP,
  70:Drivers/lvgl/lvgl/src/widgets/../core/../misc/../font/../misc/lv_area.h ****     LV_ALIGN_OUT_LEFT_MID,
  71:Drivers/lvgl/lvgl/src/widgets/../core/../misc/../font/../misc/lv_area.h ****     LV_ALIGN_OUT_LEFT_BOTTOM,
  72:Drivers/lvgl/lvgl/src/widgets/../core/../misc/../font/../misc/lv_area.h ****     LV_ALIGN_OUT_RIGHT_TOP,
  73:Drivers/lvgl/lvgl/src/widgets/../core/../misc/../font/../misc/lv_area.h ****     LV_ALIGN_OUT_RIGHT_MID,
  74:Drivers/lvgl/lvgl/src/widgets/../core/../misc/../font/../misc/lv_area.h ****     LV_ALIGN_OUT_RIGHT_BOTTOM,
  75:Drivers/lvgl/lvgl/src/widgets/../core/../misc/../font/../misc/lv_area.h **** };
  76:Drivers/lvgl/lvgl/src/widgets/../core/../misc/../font/../misc/lv_area.h **** typedef uint8_t lv_align_t;
  77:Drivers/lvgl/lvgl/src/widgets/../core/../misc/../font/../misc/lv_area.h **** 
  78:Drivers/lvgl/lvgl/src/widgets/../core/../misc/../font/../misc/lv_area.h **** enum {
  79:Drivers/lvgl/lvgl/src/widgets/../core/../misc/../font/../misc/lv_area.h ****     LV_DIR_NONE     = 0x00,
  80:Drivers/lvgl/lvgl/src/widgets/../core/../misc/../font/../misc/lv_area.h ****     LV_DIR_LEFT     = (1 << 0),
  81:Drivers/lvgl/lvgl/src/widgets/../core/../misc/../font/../misc/lv_area.h ****     LV_DIR_RIGHT    = (1 << 1),
  82:Drivers/lvgl/lvgl/src/widgets/../core/../misc/../font/../misc/lv_area.h ****     LV_DIR_TOP      = (1 << 2),
  83:Drivers/lvgl/lvgl/src/widgets/../core/../misc/../font/../misc/lv_area.h ****     LV_DIR_BOTTOM   = (1 << 3),
  84:Drivers/lvgl/lvgl/src/widgets/../core/../misc/../font/../misc/lv_area.h ****     LV_DIR_HOR      = LV_DIR_LEFT | LV_DIR_RIGHT,
  85:Drivers/lvgl/lvgl/src/widgets/../core/../misc/../font/../misc/lv_area.h ****     LV_DIR_VER      = LV_DIR_TOP | LV_DIR_BOTTOM,
  86:Drivers/lvgl/lvgl/src/widgets/../core/../misc/../font/../misc/lv_area.h ****     LV_DIR_ALL      = LV_DIR_HOR | LV_DIR_VER,
  87:Drivers/lvgl/lvgl/src/widgets/../core/../misc/../font/../misc/lv_area.h **** };
  88:Drivers/lvgl/lvgl/src/widgets/../core/../misc/../font/../misc/lv_area.h **** 
  89:Drivers/lvgl/lvgl/src/widgets/../core/../misc/../font/../misc/lv_area.h **** typedef uint8_t lv_dir_t;
  90:Drivers/lvgl/lvgl/src/widgets/../core/../misc/../font/../misc/lv_area.h **** 
  91:Drivers/lvgl/lvgl/src/widgets/../core/../misc/../font/../misc/lv_area.h **** /**********************
  92:Drivers/lvgl/lvgl/src/widgets/../core/../misc/../font/../misc/lv_area.h ****  * GLOBAL PROTOTYPES
  93:Drivers/lvgl/lvgl/src/widgets/../core/../misc/../font/../misc/lv_area.h ****  **********************/
  94:Drivers/lvgl/lvgl/src/widgets/../core/../misc/../font/../misc/lv_area.h **** 
  95:Drivers/lvgl/lvgl/src/widgets/../core/../misc/../font/../misc/lv_area.h **** /**
  96:Drivers/lvgl/lvgl/src/widgets/../core/../misc/../font/../misc/lv_area.h ****  * Initialize an area
  97:Drivers/lvgl/lvgl/src/widgets/../core/../misc/../font/../misc/lv_area.h ****  * @param area_p pointer to an area
  98:Drivers/lvgl/lvgl/src/widgets/../core/../misc/../font/../misc/lv_area.h ****  * @param x1 left coordinate of the area
  99:Drivers/lvgl/lvgl/src/widgets/../core/../misc/../font/../misc/lv_area.h ****  * @param y1 top coordinate of the area
 100:Drivers/lvgl/lvgl/src/widgets/../core/../misc/../font/../misc/lv_area.h ****  * @param x2 right coordinate of the area
 101:Drivers/lvgl/lvgl/src/widgets/../core/../misc/../font/../misc/lv_area.h ****  * @param y2 bottom coordinate of the area
 102:Drivers/lvgl/lvgl/src/widgets/../core/../misc/../font/../misc/lv_area.h ****  */
 103:Drivers/lvgl/lvgl/src/widgets/../core/../misc/../font/../misc/lv_area.h **** void lv_area_set(lv_area_t * area_p, lv_coord_t x1, lv_coord_t y1, lv_coord_t x2, lv_coord_t y2);
 104:Drivers/lvgl/lvgl/src/widgets/../core/../misc/../font/../misc/lv_area.h **** 
ARM GAS  /tmp/ccpV5owi.s 			page 34


 105:Drivers/lvgl/lvgl/src/widgets/../core/../misc/../font/../misc/lv_area.h **** /**
 106:Drivers/lvgl/lvgl/src/widgets/../core/../misc/../font/../misc/lv_area.h ****  * Copy an area
 107:Drivers/lvgl/lvgl/src/widgets/../core/../misc/../font/../misc/lv_area.h ****  * @param dest pointer to the destination area
 108:Drivers/lvgl/lvgl/src/widgets/../core/../misc/../font/../misc/lv_area.h ****  * @param src pointer to the source area
 109:Drivers/lvgl/lvgl/src/widgets/../core/../misc/../font/../misc/lv_area.h ****  */
 110:Drivers/lvgl/lvgl/src/widgets/../core/../misc/../font/../misc/lv_area.h **** inline static void lv_area_copy(lv_area_t * dest, const lv_area_t * src)
 111:Drivers/lvgl/lvgl/src/widgets/../core/../misc/../font/../misc/lv_area.h **** {
 112:Drivers/lvgl/lvgl/src/widgets/../core/../misc/../font/../misc/lv_area.h ****     dest->x1 = src->x1;
 589              		.loc 3 112 0
 590 0128 32F934C0 		ldrsh	ip, [r2, r4, lsl #3]
 591 012c ADF810C0 		strh	ip, [sp, #16]	@ movhi
 113:Drivers/lvgl/lvgl/src/widgets/../core/../misc/../font/../misc/lv_area.h ****     dest->y1 = src->y1;
 592              		.loc 3 113 0
 593 0130 B3F90200 		ldrsh	r0, [r3, #2]
 594 0134 ADF81200 		strh	r0, [sp, #18]	@ movhi
 114:Drivers/lvgl/lvgl/src/widgets/../core/../misc/../font/../misc/lv_area.h ****     dest->x2 = src->x2;
 595              		.loc 3 114 0
 596 0138 B3F90420 		ldrsh	r2, [r3, #4]
 597 013c ADF81420 		strh	r2, [sp, #20]	@ movhi
 115:Drivers/lvgl/lvgl/src/widgets/../core/../misc/../font/../misc/lv_area.h ****     dest->y2 = src->y2;
 598              		.loc 3 115 0
 599 0140 B3F90610 		ldrsh	r1, [r3, #6]
 600              	.LVL67:
 601              	.LBE92:
 602              	.LBE91:
 945:Drivers/lvgl/lvgl/src/widgets/lv_btnmatrix.c ****         else btn_area.x1 += obj_cords.x1 - pcol;
 603              		.loc 1 945 0
 604 0144 E345     		cmp	fp, ip
 605 0146 C1DB     		blt	.L30
 945:Drivers/lvgl/lvgl/src/widgets/lv_btnmatrix.c ****         else btn_area.x1 += obj_cords.x1 - pcol;
 606              		.loc 1 945 0 is_stmt 0 discriminator 1
 607 0148 BDF81830 		ldrh	r3, [sp, #24]
 608 014c DE46     		mov	lr, fp
 609 014e BBF10D0F 		cmp	fp, #13
 610 0152 A8BF     		it	ge
 611 0154 4FF00D0E 		movge	lr, #13
 612 0158 1FFA8EFE 		uxth	lr, lr
 613 015c A3EB0E03 		sub	r3, r3, lr
 614 0160 1CFA83FC 		uxtah	ip, ip, r3
 615 0164 ADF810C0 		strh	ip, [sp, #16]	@ movhi
 616              	.L31:
 948:Drivers/lvgl/lvgl/src/widgets/lv_btnmatrix.c ****         else btn_area.y1 += obj_cords.y1 - prow;
 617              		.loc 1 948 0 is_stmt 1
 618 0168 8145     		cmp	r9, r0
 619 016a B7DB     		blt	.L32
 948:Drivers/lvgl/lvgl/src/widgets/lv_btnmatrix.c ****         else btn_area.y1 += obj_cords.y1 - prow;
 620              		.loc 1 948 0 is_stmt 0 discriminator 1
 621 016c BDF81A30 		ldrh	r3, [sp, #26]
 622 0170 CC46     		mov	ip, r9
 623 0172 B9F10D0F 		cmp	r9, #13
 624 0176 A8BF     		it	ge
 625 0178 4FF00D0C 		movge	ip, #13
 626 017c 1FFA8CFC 		uxth	ip, ip
 627 0180 A3EB0C03 		sub	r3, r3, ip
 628 0184 10FA83F0 		uxtah	r0, r0, r3
 629 0188 ADF81200 		strh	r0, [sp, #18]	@ movhi
 630              	.L33:
ARM GAS  /tmp/ccpV5owi.s 			page 35


 951:Drivers/lvgl/lvgl/src/widgets/lv_btnmatrix.c ****                                                                                    BTN_EXTRA_CLICK_
 631              		.loc 1 951 0 is_stmt 1
 632 018c 019B     		ldr	r3, [sp, #4]
 633 018e A3EB0A03 		sub	r3, r3, r10
 634 0192 023B     		subs	r3, r3, #2
 635 0194 9A42     		cmp	r2, r3
 636 0196 A9DB     		blt	.L34
 951:Drivers/lvgl/lvgl/src/widgets/lv_btnmatrix.c ****                                                                                    BTN_EXTRA_CLICK_
 637              		.loc 1 951 0 is_stmt 0 discriminator 1
 638 0198 BDF81800 		ldrh	r0, [sp, #24]
 639 019c 5346     		mov	r3, r10
 640 019e 0D2B     		cmp	r3, #13
 641 01a0 A8BF     		it	ge
 642 01a2 0D23     		movge	r3, #13
 643 01a4 10FA83F3 		uxtah	r3, r0, r3
 644 01a8 12FA83F2 		uxtah	r2, r2, r3
 645 01ac ADF81420 		strh	r2, [sp, #20]	@ movhi
 646              	.L35:
 955:Drivers/lvgl/lvgl/src/widgets/lv_btnmatrix.c ****                                                                                     BTN_EXTRA_CLICK
 647              		.loc 1 955 0 is_stmt 1
 648 01b0 029B     		ldr	r3, [sp, #8]
 649 01b2 A3EB0803 		sub	r3, r3, r8
 650 01b6 023B     		subs	r3, r3, #2
 651 01b8 9942     		cmp	r1, r3
 652 01ba 9FDB     		blt	.L36
 955:Drivers/lvgl/lvgl/src/widgets/lv_btnmatrix.c ****                                                                                     BTN_EXTRA_CLICK
 653              		.loc 1 955 0 is_stmt 0 discriminator 1
 654 01bc BDF81A20 		ldrh	r2, [sp, #26]
 655 01c0 4346     		mov	r3, r8
 656 01c2 0D2B     		cmp	r3, #13
 657 01c4 A8BF     		it	ge
 658 01c6 0D23     		movge	r3, #13
 659 01c8 12FA83F3 		uxtah	r3, r2, r3
 660 01cc 11FA83F1 		uxtah	r1, r1, r3
 661 01d0 ADF81610 		strh	r1, [sp, #22]	@ movhi
 662 01d4 99E7     		b	.L37
 663              	.L38:
 964:Drivers/lvgl/lvgl/src/widgets/lv_btnmatrix.c **** 
 664              		.loc 1 964 0 is_stmt 1
 665 01d6 2B8E     		ldrh	r3, [r5, #48]
 666 01d8 A342     		cmp	r3, r4
 667 01da 03D0     		beq	.L45
 668              	.LVL68:
 669              	.L40:
 967:Drivers/lvgl/lvgl/src/widgets/lv_btnmatrix.c **** 
 670              		.loc 1 967 0
 671 01dc 2046     		mov	r0, r4
 672 01de 09B0     		add	sp, sp, #36
 673              	.LCFI5:
 674              		.cfi_remember_state
 675              		.cfi_def_cfa_offset 36
 676              		@ sp needed
 677 01e0 BDE8F08F 		pop	{r4, r5, r6, r7, r8, r9, r10, fp, pc}
 678              	.LVL69:
 679              	.L45:
 680              	.LCFI6:
 681              		.cfi_restore_state
ARM GAS  /tmp/ccpV5owi.s 			page 36


 964:Drivers/lvgl/lvgl/src/widgets/lv_btnmatrix.c **** 
 682              		.loc 1 964 0
 683 01e4 4FF6FF74 		movw	r4, #65535
 684              	.LVL70:
 685 01e8 F8E7     		b	.L40
 686              		.cfi_endproc
 687              	.LFE189:
 689              		.section	.text.invalidate_button_area,"ax",%progbits
 690              		.align	1
 691              		.syntax unified
 692              		.thumb
 693              		.thumb_func
 694              		.fpu fpv5-d16
 696              	invalidate_button_area:
 697              	.LFB190:
 970:Drivers/lvgl/lvgl/src/widgets/lv_btnmatrix.c ****     if(btn_idx == LV_BTNMATRIX_BTN_NONE) return;
 698              		.loc 1 970 0
 699              		.cfi_startproc
 700              		@ args = 0, pretend = 0, frame = 16
 701              		@ frame_needed = 0, uses_anonymous_args = 0
 702              	.LVL71:
 971:Drivers/lvgl/lvgl/src/widgets/lv_btnmatrix.c **** 
 703              		.loc 1 971 0
 704 0000 4FF6FF73 		movw	r3, #65535
 705 0004 9942     		cmp	r1, r3
 706 0006 02D0     		beq	.L51
 707              	.LVL72:
 977:Drivers/lvgl/lvgl/src/widgets/lv_btnmatrix.c **** 
 708              		.loc 1 977 0
 709 0008 038E     		ldrh	r3, [r0, #48]
 710 000a 8B42     		cmp	r3, r1
 711 000c 00D8     		bhi	.L54
 712              	.LVL73:
 713              	.L51:
 714 000e 7047     		bx	lr
 715              	.LVL74:
 716              	.L54:
 970:Drivers/lvgl/lvgl/src/widgets/lv_btnmatrix.c ****     if(btn_idx == LV_BTNMATRIX_BTN_NONE) return;
 717              		.loc 1 970 0
 718 0010 F0B5     		push	{r4, r5, r6, r7, lr}
 719              	.LCFI7:
 720              		.cfi_def_cfa_offset 20
 721              		.cfi_offset 4, -20
 722              		.cfi_offset 5, -16
 723              		.cfi_offset 6, -12
 724              		.cfi_offset 7, -8
 725              		.cfi_offset 14, -4
 726 0012 85B0     		sub	sp, sp, #20
 727              	.LCFI8:
 728              		.cfi_def_cfa_offset 40
 729 0014 0D46     		mov	r5, r1
 730 0016 0446     		mov	r4, r0
 979:Drivers/lvgl/lvgl/src/widgets/lv_btnmatrix.c ****     lv_obj_get_coords(obj, &obj_area);
 731              		.loc 1 979 0
 732 0018 826A     		ldr	r2, [r0, #40]
 733 001a 02EBC103 		add	r3, r2, r1, lsl #3
 734              	.LVL75:
ARM GAS  /tmp/ccpV5owi.s 			page 37


 735              	.LBB93:
 736              	.LBB94:
 112:Drivers/lvgl/lvgl/src/widgets/../core/../misc/../font/../misc/lv_area.h ****     dest->y1 = src->y1;
 737              		.loc 3 112 0
 738 001e 32F93120 		ldrsh	r2, [r2, r1, lsl #3]
 739 0022 ADF80820 		strh	r2, [sp, #8]	@ movhi
 113:Drivers/lvgl/lvgl/src/widgets/../core/../misc/../font/../misc/lv_area.h ****     dest->x2 = src->x2;
 740              		.loc 3 113 0
 741 0026 B3F90220 		ldrsh	r2, [r3, #2]
 742 002a ADF80A20 		strh	r2, [sp, #10]	@ movhi
 114:Drivers/lvgl/lvgl/src/widgets/../core/../misc/../font/../misc/lv_area.h ****     dest->y2 = src->y2;
 743              		.loc 3 114 0
 744 002e B3F90420 		ldrsh	r2, [r3, #4]
 745 0032 ADF80C20 		strh	r2, [sp, #12]	@ movhi
 746              		.loc 3 115 0
 747 0036 B3F90630 		ldrsh	r3, [r3, #6]
 748              	.LVL76:
 749 003a ADF80E30 		strh	r3, [sp, #14]	@ movhi
 750              	.LVL77:
 751              	.LBE94:
 752              	.LBE93:
 980:Drivers/lvgl/lvgl/src/widgets/lv_btnmatrix.c **** 
 753              		.loc 1 980 0
 754 003e 6946     		mov	r1, sp
 755              	.LVL78:
 756 0040 FFF7FEFF 		bl	lv_obj_get_coords
 757              	.LVL79:
 758              	.LBB95:
 759              	.LBB96:
 129:Drivers/lvgl/lvgl/src/widgets/../core/lv_obj_style_gen.h ****     return (lv_coord_t)v.num;
 760              		.loc 2 129 0
 761 0044 1422     		movs	r2, #20
 762 0046 0021     		movs	r1, #0
 763 0048 2046     		mov	r0, r4
 764 004a FFF7FEFF 		bl	lv_obj_get_style_prop
 765              	.LVL80:
 130:Drivers/lvgl/lvgl/src/widgets/../core/lv_obj_style_gen.h **** }
 766              		.loc 2 130 0
 767 004e 06B2     		sxth	r6, r0
 768              	.LVL81:
 769              	.LBE96:
 770              	.LBE95:
 771              	.LBB97:
 772              	.LBB98:
 135:Drivers/lvgl/lvgl/src/widgets/../core/lv_obj_style_gen.h ****     return (lv_coord_t)v.num;
 773              		.loc 2 135 0
 774 0050 1522     		movs	r2, #21
 775 0052 0021     		movs	r1, #0
 776 0054 2046     		mov	r0, r4
 777 0056 FFF7FEFF 		bl	lv_obj_get_style_prop
 778              	.LVL82:
 779              		.loc 2 136 0
 780 005a 07B2     		sxth	r7, r0
 781              	.LVL83:
 782              	.LBE98:
 783              	.LBE97:
 988:Drivers/lvgl/lvgl/src/widgets/lv_btnmatrix.c ****     row_gap = LV_MAX(row_gap, dpi / 10);
ARM GAS  /tmp/ccpV5owi.s 			page 38


 784              		.loc 1 988 0
 785 005c 2046     		mov	r0, r4
 786 005e FFF7FEFF 		bl	lv_obj_get_disp
 787              	.LVL84:
 788 0062 FFF7FEFF 		bl	lv_disp_get_dpi
 789              	.LVL85:
 989:Drivers/lvgl/lvgl/src/widgets/lv_btnmatrix.c ****     col_gap = LV_MAX(col_gap, dpi / 10);
 790              		.loc 1 989 0
 791 0066 244A     		ldr	r2, .L56
 792 0068 82FB0032 		smull	r3, r2, r2, r0
 793 006c C317     		asrs	r3, r0, #31
 794 006e C3EBA203 		rsb	r3, r3, r2, asr #2
 795 0072 1BB2     		sxth	r3, r3
 796 0074 9E42     		cmp	r6, r3
 797 0076 B8BF     		it	lt
 798 0078 1E46     		movlt	r6, r3
 799              	.LVL86:
 990:Drivers/lvgl/lvgl/src/widgets/lv_btnmatrix.c **** 
 800              		.loc 1 990 0
 801 007a BB42     		cmp	r3, r7
 802 007c B8BF     		it	lt
 803 007e 3B46     		movlt	r3, r7
 804              	.LVL87:
 993:Drivers/lvgl/lvgl/src/widgets/lv_btnmatrix.c ****     btn_area.y1 += obj_area.y1 - col_gap;
 805              		.loc 1 993 0
 806 0080 BDF80010 		ldrh	r1, [sp]
 807 0084 B6B2     		uxth	r6, r6
 808 0086 8A1B     		subs	r2, r1, r6
 809 0088 BDF80800 		ldrh	r0, [sp, #8]
 810              	.LVL88:
 811 008c 10FA82F2 		uxtah	r2, r0, r2
 812 0090 ADF80820 		strh	r2, [sp, #8]	@ movhi
 994:Drivers/lvgl/lvgl/src/widgets/lv_btnmatrix.c ****     btn_area.x2 += obj_area.x1 + row_gap;
 813              		.loc 1 994 0
 814 0094 BDF80220 		ldrh	r2, [sp, #2]
 815 0098 9BB2     		uxth	r3, r3
 816 009a D01A     		subs	r0, r2, r3
 817 009c BDF80A70 		ldrh	r7, [sp, #10]
 818 00a0 17FA80F0 		uxtah	r0, r7, r0
 819 00a4 80B2     		uxth	r0, r0
 820 00a6 ADF80A00 		strh	r0, [sp, #10]	@ movhi
 995:Drivers/lvgl/lvgl/src/widgets/lv_btnmatrix.c ****     btn_area.y2 += obj_area.y1 + col_gap;
 821              		.loc 1 995 0
 822 00aa 3144     		add	r1, r1, r6
 823 00ac BDF80C60 		ldrh	r6, [sp, #12]
 824              	.LVL89:
 825 00b0 16FA81F1 		uxtah	r1, r6, r1
 826 00b4 ADF80C10 		strh	r1, [sp, #12]	@ movhi
 996:Drivers/lvgl/lvgl/src/widgets/lv_btnmatrix.c **** 
 827              		.loc 1 996 0
 828 00b8 1344     		add	r3, r3, r2
 829              	.LVL90:
 830 00ba BDF80E20 		ldrh	r2, [sp, #14]
 831 00be 12FA83F3 		uxtah	r3, r2, r3
 832 00c2 9BB2     		uxth	r3, r3
 833 00c4 ADF80E30 		strh	r3, [sp, #14]	@ movhi
 998:Drivers/lvgl/lvgl/src/widgets/lv_btnmatrix.c ****         /*Push up the upper boundary of the btn area to also invalidate the popover*/
ARM GAS  /tmp/ccpV5owi.s 			page 39


 834              		.loc 1 998 0
 835 00c8 A28E     		ldrh	r2, [r4, #52]
 836 00ca AA42     		cmp	r2, r5
 837 00cc 05D0     		beq	.L55
 838              	.L48:
1003:Drivers/lvgl/lvgl/src/widgets/lv_btnmatrix.c **** }
 839              		.loc 1 1003 0
 840 00ce 02A9     		add	r1, sp, #8
 841 00d0 2046     		mov	r0, r4
 842 00d2 FFF7FEFF 		bl	lv_obj_invalidate_area
 843              	.LVL91:
1004:Drivers/lvgl/lvgl/src/widgets/lv_btnmatrix.c **** 
 844              		.loc 1 1004 0
 845 00d6 05B0     		add	sp, sp, #20
 846              	.LCFI9:
 847              		.cfi_remember_state
 848              		.cfi_def_cfa_offset 20
 849              		@ sp needed
 850 00d8 F0BD     		pop	{r4, r5, r6, r7, pc}
 851              	.LVL92:
 852              	.L55:
 853              	.LCFI10:
 854              		.cfi_restore_state
 998:Drivers/lvgl/lvgl/src/widgets/lv_btnmatrix.c ****         /*Push up the upper boundary of the btn area to also invalidate the popover*/
 855              		.loc 1 998 0 discriminator 1
 856 00da E26A     		ldr	r2, [r4, #44]
 857 00dc 32F81520 		ldrh	r2, [r2, r5, lsl #1]
 858 00e0 12F4806F 		tst	r2, #1024
 859 00e4 F3D0     		beq	.L48
 860              	.LVL93:
 861              	.LBB99:
 862              	.LBB100:
 116:Drivers/lvgl/lvgl/src/widgets/../core/../misc/../font/../misc/lv_area.h **** }
 117:Drivers/lvgl/lvgl/src/widgets/../core/../misc/../font/../misc/lv_area.h **** 
 118:Drivers/lvgl/lvgl/src/widgets/../core/../misc/../font/../misc/lv_area.h **** /**
 119:Drivers/lvgl/lvgl/src/widgets/../core/../misc/../font/../misc/lv_area.h ****  * Get the width of an area
 120:Drivers/lvgl/lvgl/src/widgets/../core/../misc/../font/../misc/lv_area.h ****  * @param area_p pointer to an area
 121:Drivers/lvgl/lvgl/src/widgets/../core/../misc/../font/../misc/lv_area.h ****  * @return the width of the area (if x1 == x2 -> width = 1)
 122:Drivers/lvgl/lvgl/src/widgets/../core/../misc/../font/../misc/lv_area.h ****  */
 123:Drivers/lvgl/lvgl/src/widgets/../core/../misc/../font/../misc/lv_area.h **** static inline lv_coord_t lv_area_get_width(const lv_area_t * area_p)
 124:Drivers/lvgl/lvgl/src/widgets/../core/../misc/../font/../misc/lv_area.h **** {
 125:Drivers/lvgl/lvgl/src/widgets/../core/../misc/../font/../misc/lv_area.h ****     return (lv_coord_t)(area_p->x2 - area_p->x1 + 1);
 126:Drivers/lvgl/lvgl/src/widgets/../core/../misc/../font/../misc/lv_area.h **** }
 127:Drivers/lvgl/lvgl/src/widgets/../core/../misc/../font/../misc/lv_area.h **** 
 128:Drivers/lvgl/lvgl/src/widgets/../core/../misc/../font/../misc/lv_area.h **** /**
 129:Drivers/lvgl/lvgl/src/widgets/../core/../misc/../font/../misc/lv_area.h ****  * Get the height of an area
 130:Drivers/lvgl/lvgl/src/widgets/../core/../misc/../font/../misc/lv_area.h ****  * @param area_p pointer to an area
 131:Drivers/lvgl/lvgl/src/widgets/../core/../misc/../font/../misc/lv_area.h ****  * @return the height of the area (if y1 == y2 -> height = 1)
 132:Drivers/lvgl/lvgl/src/widgets/../core/../misc/../font/../misc/lv_area.h ****  */
 133:Drivers/lvgl/lvgl/src/widgets/../core/../misc/../font/../misc/lv_area.h **** static inline lv_coord_t lv_area_get_height(const lv_area_t * area_p)
 134:Drivers/lvgl/lvgl/src/widgets/../core/../misc/../font/../misc/lv_area.h **** {
 135:Drivers/lvgl/lvgl/src/widgets/../core/../misc/../font/../misc/lv_area.h ****     return (lv_coord_t)(area_p->y2 - area_p->y1 + 1);
 863              		.loc 3 135 0
 864 00e6 1B1A     		subs	r3, r3, r0
 865 00e8 9BB2     		uxth	r3, r3
 866 00ea 0133     		adds	r3, r3, #1
 867 00ec 9BB2     		uxth	r3, r3
ARM GAS  /tmp/ccpV5owi.s 			page 40


 868              	.LVL94:
 869              	.LBE100:
 870              	.LBE99:
1000:Drivers/lvgl/lvgl/src/widgets/lv_btnmatrix.c ****     }
 871              		.loc 1 1000 0
 872 00ee C31A     		subs	r3, r0, r3
 873 00f0 ADF80A30 		strh	r3, [sp, #10]	@ movhi
 874 00f4 EBE7     		b	.L48
 875              	.L57:
 876 00f6 00BF     		.align	2
 877              	.L56:
 878 00f8 67666666 		.word	1717986919
 879              		.cfi_endproc
 880              	.LFE190:
 882              		.section	.text.draw_main,"ax",%progbits
 883              		.align	1
 884              		.syntax unified
 885              		.thumb
 886              		.thumb_func
 887              		.fpu fpv5-d16
 889              	draw_main:
 890              	.LFB177:
 647:Drivers/lvgl/lvgl/src/widgets/lv_btnmatrix.c ****     lv_obj_t * obj = lv_event_get_target(e);
 891              		.loc 1 647 0
 892              		.cfi_startproc
 893              		@ args = 0, pretend = 0, frame = 296
 894              		@ frame_needed = 0, uses_anonymous_args = 0
 895              	.LVL95:
 896 0000 2DE9F04F 		push	{r4, r5, r6, r7, r8, r9, r10, fp, lr}
 897              	.LCFI11:
 898              		.cfi_def_cfa_offset 36
 899              		.cfi_offset 4, -36
 900              		.cfi_offset 5, -32
 901              		.cfi_offset 6, -28
 902              		.cfi_offset 7, -24
 903              		.cfi_offset 8, -20
 904              		.cfi_offset 9, -16
 905              		.cfi_offset 10, -12
 906              		.cfi_offset 11, -8
 907              		.cfi_offset 14, -4
 908 0004 CFB0     		sub	sp, sp, #316
 909              	.LCFI12:
 910              		.cfi_def_cfa_offset 352
 911 0006 0446     		mov	r4, r0
 648:Drivers/lvgl/lvgl/src/widgets/lv_btnmatrix.c ****     lv_btnmatrix_t * btnm = (lv_btnmatrix_t *)obj;
 912              		.loc 1 648 0
 913 0008 FFF7FEFF 		bl	lv_event_get_target
 914              	.LVL96:
 650:Drivers/lvgl/lvgl/src/widgets/lv_btnmatrix.c **** 
 915              		.loc 1 650 0
 916 000c 038E     		ldrh	r3, [r0, #48]
 917 000e 13B9     		cbnz	r3, .L88
 918              	.LVL97:
 919              	.L58:
 809:Drivers/lvgl/lvgl/src/widgets/lv_btnmatrix.c **** /**
 920              		.loc 1 809 0
 921 0010 4FB0     		add	sp, sp, #316
ARM GAS  /tmp/ccpV5owi.s 			page 41


 922              	.LCFI13:
 923              		.cfi_remember_state
 924              		.cfi_def_cfa_offset 36
 925              		@ sp needed
 926 0012 BDE8F08F 		pop	{r4, r5, r6, r7, r8, r9, r10, fp, pc}
 927              	.LVL98:
 928              	.L88:
 929              	.LCFI14:
 930              		.cfi_restore_state
 931 0016 0546     		mov	r5, r0
 652:Drivers/lvgl/lvgl/src/widgets/lv_btnmatrix.c ****     obj->skip_trans = 1;
 932              		.loc 1 652 0
 933 0018 2046     		mov	r0, r4
 934              	.LVL99:
 935 001a FFF7FEFF 		bl	lv_event_get_draw_ctx
 936              	.LVL100:
 937 001e 0746     		mov	r7, r0
 938 0020 0490     		str	r0, [sp, #16]
 939              	.LVL101:
 653:Drivers/lvgl/lvgl/src/widgets/lv_btnmatrix.c **** 
 940              		.loc 1 653 0
 941 0022 95F82230 		ldrb	r3, [r5, #34]	@ zero_extendqisi2
 942 0026 43F00403 		orr	r3, r3, #4
 943 002a 85F82230 		strb	r3, [r5, #34]
 656:Drivers/lvgl/lvgl/src/widgets/lv_btnmatrix.c **** 
 944              		.loc 1 656 0
 945 002e 4CA9     		add	r1, sp, #304
 946 0030 2846     		mov	r0, r5
 947              	.LVL102:
 948 0032 FFF7FEFF 		bl	lv_obj_get_coords
 949              	.LVL103:
 669:Drivers/lvgl/lvgl/src/widgets/lv_btnmatrix.c ****     obj->state = LV_STATE_DEFAULT;
 950              		.loc 1 669 0
 951 0036 2C8C     		ldrh	r4, [r5, #32]
 952              	.LVL104:
 953 0038 0594     		str	r4, [sp, #20]
 954              	.LVL105:
 670:Drivers/lvgl/lvgl/src/widgets/lv_btnmatrix.c ****     obj->skip_trans = 1;
 955              		.loc 1 670 0
 956 003a 0026     		movs	r6, #0
 957 003c 2E84     		strh	r6, [r5, #32]	@ movhi
 671:Drivers/lvgl/lvgl/src/widgets/lv_btnmatrix.c ****     lv_draw_rect_dsc_init(&draw_rect_dsc_def);
 958              		.loc 1 671 0
 959 003e 95F82230 		ldrb	r3, [r5, #34]	@ zero_extendqisi2
 960 0042 43F00403 		orr	r3, r3, #4
 961 0046 85F82230 		strb	r3, [r5, #34]
 672:Drivers/lvgl/lvgl/src/widgets/lv_btnmatrix.c ****     lv_draw_label_dsc_init(&draw_label_dsc_def);
 962              		.loc 1 672 0
 963 004a 26A8     		add	r0, sp, #152
 964 004c FFF7FEFF 		bl	lv_draw_rect_dsc_init
 965              	.LVL106:
 673:Drivers/lvgl/lvgl/src/widgets/lv_btnmatrix.c ****     lv_obj_init_draw_rect_dsc(obj, LV_PART_ITEMS, &draw_rect_dsc_def);
 966              		.loc 1 673 0
 967 0050 1EA8     		add	r0, sp, #120
 968 0052 FFF7FEFF 		bl	lv_draw_label_dsc_init
 969              	.LVL107:
 674:Drivers/lvgl/lvgl/src/widgets/lv_btnmatrix.c ****     lv_obj_init_draw_label_dsc(obj, LV_PART_ITEMS, &draw_label_dsc_def);
ARM GAS  /tmp/ccpV5owi.s 			page 42


 970              		.loc 1 674 0
 971 0056 26AA     		add	r2, sp, #152
 972 0058 4FF4A021 		mov	r1, #327680
 973 005c 2846     		mov	r0, r5
 974 005e FFF7FEFF 		bl	lv_obj_init_draw_rect_dsc
 975              	.LVL108:
 675:Drivers/lvgl/lvgl/src/widgets/lv_btnmatrix.c ****     obj->skip_trans = 0;
 976              		.loc 1 675 0
 977 0062 1EAA     		add	r2, sp, #120
 978 0064 4FF4A021 		mov	r1, #327680
 979 0068 2846     		mov	r0, r5
 980 006a FFF7FEFF 		bl	lv_obj_init_draw_label_dsc
 981              	.LVL109:
 676:Drivers/lvgl/lvgl/src/widgets/lv_btnmatrix.c ****     obj->state = state_ori;
 982              		.loc 1 676 0
 983 006e 95F82230 		ldrb	r3, [r5, #34]	@ zero_extendqisi2
 984 0072 66F38203 		bfi	r3, r6, #2, #1
 985 0076 85F82230 		strb	r3, [r5, #34]
 677:Drivers/lvgl/lvgl/src/widgets/lv_btnmatrix.c **** 
 986              		.loc 1 677 0
 987 007a 2C84     		strh	r4, [r5, #32]	@ movhi
 988              	.LVL110:
 989              	.LBB101:
 990              	.LBB102:
 105:Drivers/lvgl/lvgl/src/widgets/../core/lv_obj_style_gen.h ****     return (lv_coord_t)v.num;
 991              		.loc 2 105 0
 992 007c 1022     		movs	r2, #16
 993 007e 3146     		mov	r1, r6
 994 0080 2846     		mov	r0, r5
 995 0082 FFF7FEFF 		bl	lv_obj_get_style_prop
 996              	.LVL111:
 106:Drivers/lvgl/lvgl/src/widgets/../core/lv_obj_style_gen.h **** }
 997              		.loc 2 106 0
 998 0086 03B2     		sxth	r3, r0
 999 0088 0693     		str	r3, [sp, #24]
 1000              	.LVL112:
 1001              	.LBE102:
 1002              	.LBE101:
 1003              	.LBB103:
 1004              	.LBB104:
 111:Drivers/lvgl/lvgl/src/widgets/../core/lv_obj_style_gen.h ****     return (lv_coord_t)v.num;
 1005              		.loc 2 111 0
 1006 008a 1122     		movs	r2, #17
 1007 008c 3146     		mov	r1, r6
 1008 008e 2846     		mov	r0, r5
 1009 0090 FFF7FEFF 		bl	lv_obj_get_style_prop
 1010              	.LVL113:
 112:Drivers/lvgl/lvgl/src/widgets/../core/lv_obj_style_gen.h **** }
 1011              		.loc 2 112 0
 1012 0094 03B2     		sxth	r3, r0
 1013 0096 0793     		str	r3, [sp, #28]
 1014              	.LVL114:
 1015              	.LBE104:
 1016              	.LBE103:
 1017              	.LBB105:
 1018              	.LBB106:
 117:Drivers/lvgl/lvgl/src/widgets/../core/lv_obj_style_gen.h ****     return (lv_coord_t)v.num;
ARM GAS  /tmp/ccpV5owi.s 			page 43


 1019              		.loc 2 117 0
 1020 0098 1222     		movs	r2, #18
 1021 009a 3146     		mov	r1, r6
 1022 009c 2846     		mov	r0, r5
 1023 009e FFF7FEFF 		bl	lv_obj_get_style_prop
 1024              	.LVL115:
 118:Drivers/lvgl/lvgl/src/widgets/../core/lv_obj_style_gen.h **** }
 1025              		.loc 2 118 0
 1026 00a2 03B2     		sxth	r3, r0
 1027 00a4 0893     		str	r3, [sp, #32]
 1028              	.LVL116:
 1029              	.LBE106:
 1030              	.LBE105:
 1031              	.LBB107:
 1032              	.LBB108:
 123:Drivers/lvgl/lvgl/src/widgets/../core/lv_obj_style_gen.h ****     return (lv_coord_t)v.num;
 1033              		.loc 2 123 0
 1034 00a6 1322     		movs	r2, #19
 1035 00a8 3146     		mov	r1, r6
 1036 00aa 2846     		mov	r0, r5
 1037 00ac FFF7FEFF 		bl	lv_obj_get_style_prop
 1038              	.LVL117:
 124:Drivers/lvgl/lvgl/src/widgets/../core/lv_obj_style_gen.h **** }
 1039              		.loc 2 124 0
 1040 00b0 03B2     		sxth	r3, r0
 1041 00b2 0993     		str	r3, [sp, #36]
 1042              	.LVL118:
 1043              	.LBE108:
 1044              	.LBE107:
 690:Drivers/lvgl/lvgl/src/widgets/lv_btnmatrix.c ****     part_draw_dsc.part = LV_PART_ITEMS;
 1045              		.loc 1 690 0
 1046 00b4 3946     		mov	r1, r7
 1047 00b6 0CA8     		add	r0, sp, #48
 1048 00b8 FFF7FEFF 		bl	lv_obj_draw_dsc_init
 1049              	.LVL119:
 691:Drivers/lvgl/lvgl/src/widgets/lv_btnmatrix.c ****     part_draw_dsc.class_p = MY_CLASS;
 1050              		.loc 1 691 0
 1051 00bc 4FF4A023 		mov	r3, #327680
 1052 00c0 1993     		str	r3, [sp, #100]
 692:Drivers/lvgl/lvgl/src/widgets/lv_btnmatrix.c ****     part_draw_dsc.type = LV_BTNMATRIX_DRAW_PART_BTN;
 1053              		.loc 1 692 0
 1054 00c2 CF4B     		ldr	r3, .L96
 1055 00c4 0D93     		str	r3, [sp, #52]
 693:Drivers/lvgl/lvgl/src/widgets/lv_btnmatrix.c ****     part_draw_dsc.rect_dsc = &draw_rect_dsc_act;
 1056              		.loc 1 693 0
 1057 00c6 0E96     		str	r6, [sp, #56]
 694:Drivers/lvgl/lvgl/src/widgets/lv_btnmatrix.c ****     part_draw_dsc.label_dsc = &draw_label_dsc_act;
 1058              		.loc 1 694 0
 1059 00c8 3CAB     		add	r3, sp, #240
 1060 00ca 1093     		str	r3, [sp, #64]
 695:Drivers/lvgl/lvgl/src/widgets/lv_btnmatrix.c **** 
 1061              		.loc 1 695 0
 1062 00cc 34AB     		add	r3, sp, #208
 1063 00ce 1193     		str	r3, [sp, #68]
 661:Drivers/lvgl/lvgl/src/widgets/lv_btnmatrix.c **** 
 1064              		.loc 1 661 0
 1065 00d0 3446     		mov	r4, r6
ARM GAS  /tmp/ccpV5owi.s 			page 44


 1066              	.LVL120:
 697:Drivers/lvgl/lvgl/src/widgets/lv_btnmatrix.c ****         /*Search the next valid text in the map*/
 1067              		.loc 1 697 0
 1068 00d2 20E1     		b	.L60
 1069              	.LVL121:
 1070              	.L61:
 1071              	.LBB109:
 700:Drivers/lvgl/lvgl/src/widgets/lv_btnmatrix.c ****         }
 1072              		.loc 1 700 0
 1073 00d4 0134     		adds	r4, r4, #1
 1074              	.LVL122:
 1075 00d6 A4B2     		uxth	r4, r4
 1076              	.LVL123:
 1077              	.L83:
 699:Drivers/lvgl/lvgl/src/widgets/lv_btnmatrix.c ****             txt_i++;
 1078              		.loc 1 699 0
 1079 00d8 6B6A     		ldr	r3, [r5, #36]
 1080 00da A700     		lsls	r7, r4, #2
 1081 00dc C949     		ldr	r1, .L96+4
 1082 00de 53F82400 		ldr	r0, [r3, r4, lsl #2]
 1083 00e2 FFF7FEFF 		bl	strcmp
 1084              	.LVL124:
 1085 00e6 0028     		cmp	r0, #0
 1086 00e8 F4D0     		beq	.L61
 704:Drivers/lvgl/lvgl/src/widgets/lv_btnmatrix.c **** 
 1087              		.loc 1 704 0
 1088 00ea EB6A     		ldr	r3, [r5, #44]
 1089 00ec B246     		mov	r10, r6
 1090 00ee 4FEA460B 		lsl	fp, r6, #1
 1091 00f2 33F81690 		ldrh	r9, [r3, r6, lsl #1]
 1092 00f6 4846     		mov	r0, r9
 1093 00f8 FFF7FEFF 		bl	button_is_hidden
 1094              	.LVL125:
 1095 00fc 0028     		cmp	r0, #0
 1096 00fe 40F00681 		bne	.L63
 1097              	.LVL126:
 708:Drivers/lvgl/lvgl/src/widgets/lv_btnmatrix.c **** 
 1098              		.loc 1 708 0
 1099 0102 4846     		mov	r0, r9
 1100 0104 FFF7FEFF 		bl	button_get_checked
 1101              	.LVL127:
 1102 0108 0028     		cmp	r0, #0
 1103 010a 40F00F81 		bne	.L85
 707:Drivers/lvgl/lvgl/src/widgets/lv_btnmatrix.c ****         if(button_get_checked(btnm->ctrl_bits[btn_i])) btn_state |= LV_STATE_CHECKED;
 1104              		.loc 1 707 0
 1105 010e 4FF00008 		mov	r8, #0
 1106              	.L64:
 1107              	.LVL128:
 710:Drivers/lvgl/lvgl/src/widgets/lv_btnmatrix.c ****         else if(btn_i == btnm->btn_id_sel) {
 1108              		.loc 1 710 0
 1109 0112 4846     		mov	r0, r9
 1110 0114 FFF7FEFF 		bl	button_is_inactive
 1111              	.LVL129:
 1112 0118 0028     		cmp	r0, #0
 1113 011a 00F00A81 		beq	.L65
 710:Drivers/lvgl/lvgl/src/widgets/lv_btnmatrix.c ****         else if(btn_i == btnm->btn_id_sel) {
 1114              		.loc 1 710 0 is_stmt 0 discriminator 1
ARM GAS  /tmp/ccpV5owi.s 			page 45


 1115 011e 48F08008 		orr	r8, r8, #128
 1116              	.LVL130:
 1117              	.L66:
 719:Drivers/lvgl/lvgl/src/widgets/lv_btnmatrix.c ****         btn_area.x1 += area_obj.x1;
 1118              		.loc 1 719 0 is_stmt 1
 1119 0122 AB6A     		ldr	r3, [r5, #40]
 1120 0124 03EBCA02 		add	r2, r3, r10, lsl #3
 1121              	.LVL131:
 1122              	.LBB110:
 1123              	.LBB111:
 112:Drivers/lvgl/lvgl/src/widgets/../core/../misc/../font/../misc/lv_area.h ****     dest->y1 = src->y1;
 1124              		.loc 3 112 0
 1125 0128 33F93A30 		ldrsh	r3, [r3, r10, lsl #3]
 113:Drivers/lvgl/lvgl/src/widgets/../core/../misc/../font/../misc/lv_area.h ****     dest->x2 = src->x2;
 1126              		.loc 3 113 0
 1127 012c B2F90210 		ldrsh	r1, [r2, #2]
 114:Drivers/lvgl/lvgl/src/widgets/../core/../misc/../font/../misc/lv_area.h ****     dest->y2 = src->y2;
 1128              		.loc 3 114 0
 1129 0130 B2F904C0 		ldrsh	ip, [r2, #4]
 115:Drivers/lvgl/lvgl/src/widgets/../core/../misc/../font/../misc/lv_area.h **** }
 1130              		.loc 3 115 0
 1131 0134 B2F90600 		ldrsh	r0, [r2, #6]
 1132              	.LVL132:
 1133              	.LBE111:
 1134              	.LBE110:
 720:Drivers/lvgl/lvgl/src/widgets/lv_btnmatrix.c ****         btn_area.y1 += area_obj.y1;
 1135              		.loc 1 720 0
 1136 0138 BDF83021 		ldrh	r2, [sp, #304]
 1137 013c 1344     		add	r3, r3, r2
 1138 013e ADF82831 		strh	r3, [sp, #296]	@ movhi
 721:Drivers/lvgl/lvgl/src/widgets/lv_btnmatrix.c ****         btn_area.x2 += area_obj.x1;
 1139              		.loc 1 721 0
 1140 0142 BDF83231 		ldrh	r3, [sp, #306]
 1141 0146 1944     		add	r1, r1, r3
 1142 0148 ADF82A11 		strh	r1, [sp, #298]	@ movhi
 722:Drivers/lvgl/lvgl/src/widgets/lv_btnmatrix.c ****         btn_area.y2 += area_obj.y1;
 1143              		.loc 1 722 0
 1144 014c 6244     		add	r2, r2, ip
 1145 014e ADF82C21 		strh	r2, [sp, #300]	@ movhi
 723:Drivers/lvgl/lvgl/src/widgets/lv_btnmatrix.c **** 
 1146              		.loc 1 723 0
 1147 0152 0344     		add	r3, r3, r0
 1148 0154 ADF82E31 		strh	r3, [sp, #302]	@ movhi
 726:Drivers/lvgl/lvgl/src/widgets/lv_btnmatrix.c ****             lv_memcpy(&draw_rect_dsc_act, &draw_rect_dsc_def, sizeof(lv_draw_rect_dsc_t));
 1149              		.loc 1 726 0
 1150 0158 B8F1000F 		cmp	r8, #0
 1151 015c 40F00781 		bne	.L70
 727:Drivers/lvgl/lvgl/src/widgets/lv_btnmatrix.c ****             lv_memcpy(&draw_label_dsc_act, &draw_label_dsc_def, sizeof(lv_draw_label_dsc_t));
 1152              		.loc 1 727 0
 1153 0160 3822     		movs	r2, #56
 1154 0162 26A9     		add	r1, sp, #152
 1155 0164 3CA8     		add	r0, sp, #240
 1156 0166 FFF7FEFF 		bl	lv_memcpy
 1157              	.LVL133:
 728:Drivers/lvgl/lvgl/src/widgets/lv_btnmatrix.c ****         }
 1158              		.loc 1 728 0
 1159 016a 2022     		movs	r2, #32
ARM GAS  /tmp/ccpV5owi.s 			page 46


 1160 016c 1EA9     		add	r1, sp, #120
 1161 016e 34A8     		add	r0, sp, #208
 1162 0170 FFF7FEFF 		bl	lv_memcpy
 1163              	.LVL134:
 1164              	.L71:
 742:Drivers/lvgl/lvgl/src/widgets/lv_btnmatrix.c ****         if(recolor) draw_label_dsc_act.flag |= LV_TEXT_FLAG_RECOLOR;
 1165              		.loc 1 742 0
 1166 0174 EB6A     		ldr	r3, [r5, #44]
 1167 0176 33F80B00 		ldrh	r0, [r3, fp]
 1168 017a FFF7FEFF 		bl	button_is_recolor
 1169              	.LVL135:
 743:Drivers/lvgl/lvgl/src/widgets/lv_btnmatrix.c ****         else draw_label_dsc_act.flag &= ~LV_TEXT_FLAG_RECOLOR;
 1170              		.loc 1 743 0
 1171 017e 0028     		cmp	r0, #0
 1172 0180 00F01981 		beq	.L72
 743:Drivers/lvgl/lvgl/src/widgets/lv_btnmatrix.c ****         else draw_label_dsc_act.flag &= ~LV_TEXT_FLAG_RECOLOR;
 1173              		.loc 1 743 0 is_stmt 0 discriminator 1
 1174 0184 9DF8ED30 		ldrb	r3, [sp, #237]	@ zero_extendqisi2
 1175 0188 43F00103 		orr	r3, r3, #1
 1176 018c 8DF8ED30 		strb	r3, [sp, #237]
 1177              	.L73:
 747:Drivers/lvgl/lvgl/src/widgets/lv_btnmatrix.c ****         part_draw_dsc.id = btn_i;
 1178              		.loc 1 747 0 is_stmt 1
 1179 0190 4AAB     		add	r3, sp, #296
 1180 0192 0F93     		str	r3, [sp, #60]
 748:Drivers/lvgl/lvgl/src/widgets/lv_btnmatrix.c ****         lv_event_send(obj, LV_EVENT_DRAW_PART_BEGIN, &part_draw_dsc);
 1181              		.loc 1 748 0
 1182 0194 CDF868A0 		str	r10, [sp, #104]
 749:Drivers/lvgl/lvgl/src/widgets/lv_btnmatrix.c **** 
 1183              		.loc 1 749 0
 1184 0198 0CAA     		add	r2, sp, #48
 1185 019a 1A21     		movs	r1, #26
 1186 019c 2846     		mov	r0, r5
 1187              	.LVL136:
 1188 019e FFF7FEFF 		bl	lv_event_send
 1189              	.LVL137:
 752:Drivers/lvgl/lvgl/src/widgets/lv_btnmatrix.c ****             draw_rect_dsc_act.border_side = LV_BORDER_SIDE_FULL;
 1190              		.loc 1 752 0
 1191 01a2 9DF81331 		ldrb	r3, [sp, #275]	@ zero_extendqisi2
 1192 01a6 13F0200F 		tst	r3, #32
 1193 01aa 2AD0     		beq	.L74
 753:Drivers/lvgl/lvgl/src/widgets/lv_btnmatrix.c ****             if(btn_area.x1 == obj->coords.x1 + pleft) draw_rect_dsc_act.border_side &= ~LV_BORDER_S
 1194              		.loc 1 753 0
 1195 01ac 9DF81331 		ldrb	r3, [sp, #275]	@ zero_extendqisi2
 1196 01b0 0F22     		movs	r2, #15
 1197 01b2 62F34503 		bfi	r3, r2, #1, #5
 1198 01b6 8DF81331 		strb	r3, [sp, #275]
 754:Drivers/lvgl/lvgl/src/widgets/lv_btnmatrix.c ****             if(btn_area.x2 == obj->coords.x2 - pright) draw_rect_dsc_act.border_side &= ~LV_BORDER_
 1199              		.loc 1 754 0
 1200 01ba BDF92821 		ldrsh	r2, [sp, #296]
 1201 01be B5F91430 		ldrsh	r3, [r5, #20]
 1202 01c2 0899     		ldr	r1, [sp, #32]
 1203 01c4 0B44     		add	r3, r3, r1
 1204 01c6 9A42     		cmp	r2, r3
 1205 01c8 00F0FC80 		beq	.L89
 1206              	.L75:
 755:Drivers/lvgl/lvgl/src/widgets/lv_btnmatrix.c ****             if(btn_area.y1 == obj->coords.y1 + ptop) draw_rect_dsc_act.border_side &= ~LV_BORDER_SI
ARM GAS  /tmp/ccpV5owi.s 			page 47


 1207              		.loc 1 755 0
 1208 01cc BDF92C21 		ldrsh	r2, [sp, #300]
 1209 01d0 B5F91830 		ldrsh	r3, [r5, #24]
 1210 01d4 0999     		ldr	r1, [sp, #36]
 1211 01d6 5B1A     		subs	r3, r3, r1
 1212 01d8 9A42     		cmp	r2, r3
 1213 01da 00F0FB80 		beq	.L90
 1214              	.L76:
 756:Drivers/lvgl/lvgl/src/widgets/lv_btnmatrix.c ****             if(btn_area.y2 == obj->coords.y2 - pbottom) draw_rect_dsc_act.border_side &= ~LV_BORDER
 1215              		.loc 1 756 0
 1216 01de BDF92A21 		ldrsh	r2, [sp, #298]
 1217 01e2 B5F91630 		ldrsh	r3, [r5, #22]
 1218 01e6 0699     		ldr	r1, [sp, #24]
 1219 01e8 0B44     		add	r3, r3, r1
 1220 01ea 9A42     		cmp	r2, r3
 1221 01ec 00F0FD80 		beq	.L91
 1222              	.L77:
 757:Drivers/lvgl/lvgl/src/widgets/lv_btnmatrix.c ****         }
 1223              		.loc 1 757 0
 1224 01f0 BDF92E21 		ldrsh	r2, [sp, #302]
 1225 01f4 B5F91A30 		ldrsh	r3, [r5, #26]
 1226 01f8 0799     		ldr	r1, [sp, #28]
 1227 01fa 5B1A     		subs	r3, r3, r1
 1228 01fc 9A42     		cmp	r2, r3
 1229 01fe 00F00381 		beq	.L92
 1230              	.L74:
 1231              	.LVL138:
 1232              	.LBB112:
 1233              	.LBB113:
 1234              		.loc 3 135 0
 1235 0202 BDF82E31 		ldrh	r3, [sp, #302]
 1236 0206 BDF82A21 		ldrh	r2, [sp, #298]
 1237 020a 9B1A     		subs	r3, r3, r2
 1238 020c 9BB2     		uxth	r3, r3
 1239 020e 0133     		adds	r3, r3, #1
 1240 0210 9BB2     		uxth	r3, r3
 1241 0212 0FFA83F9 		sxth	r9, r3
 1242              	.LVL139:
 1243              	.LBE113:
 1244              	.LBE112:
 762:Drivers/lvgl/lvgl/src/widgets/lv_btnmatrix.c ****             /*Push up the upper boundary of the btn area to create the popover*/
 1245              		.loc 1 762 0
 1246 0216 18F02008 		ands	r8, r8, #32
 1247              	.LVL140:
 1248 021a 08D0     		beq	.L78
 762:Drivers/lvgl/lvgl/src/widgets/lv_btnmatrix.c ****             /*Push up the upper boundary of the btn area to create the popover*/
 1249              		.loc 1 762 0 is_stmt 0 discriminator 1
 1250 021c E96A     		ldr	r1, [r5, #44]
 1251 021e 31F80B10 		ldrh	r1, [r1, fp]
 1252 0222 11F4806F 		tst	r1, #1024
 1253 0226 02D0     		beq	.L78
 764:Drivers/lvgl/lvgl/src/widgets/lv_btnmatrix.c ****         }
 1254              		.loc 1 764 0 is_stmt 1
 1255 0228 D31A     		subs	r3, r2, r3
 1256 022a ADF82A31 		strh	r3, [sp, #298]	@ movhi
 1257              	.L78:
 768:Drivers/lvgl/lvgl/src/widgets/lv_btnmatrix.c **** 
ARM GAS  /tmp/ccpV5owi.s 			page 48


 1258              		.loc 1 768 0
 1259 022e 4AAA     		add	r2, sp, #296
 1260 0230 3CA9     		add	r1, sp, #240
 1261 0232 0498     		ldr	r0, [sp, #16]
 1262 0234 FFF7FEFF 		bl	lv_draw_rect
 1263              	.LVL141:
 772:Drivers/lvgl/lvgl/src/widgets/lv_btnmatrix.c ****         lv_coord_t line_space = draw_label_dsc_act.line_space;
 1264              		.loc 1 772 0
 1265 0238 BDF9E430 		ldrsh	r3, [sp, #228]
 1266              	.LVL142:
 773:Drivers/lvgl/lvgl/src/widgets/lv_btnmatrix.c ****         const char * txt = btnm->map_p[txt_i];
 1267              		.loc 1 773 0
 1268 023c BDF9E210 		ldrsh	r1, [sp, #226]
 1269              	.LVL143:
 774:Drivers/lvgl/lvgl/src/widgets/lv_btnmatrix.c **** 
 1270              		.loc 1 774 0
 1271 0240 6A6A     		ldr	r2, [r5, #36]
 1272 0242 D759     		ldr	r7, [r2, r7]
 1273              	.LVL144:
 1274              	.LBB114:
 1275              	.LBB115:
 125:Drivers/lvgl/lvgl/src/widgets/../core/../misc/../font/../misc/lv_area.h **** }
 1276              		.loc 3 125 0
 1277 0244 BDF83421 		ldrh	r2, [sp, #308]
 1278 0248 BDF83001 		ldrh	r0, [sp, #304]
 1279 024c 121A     		subs	r2, r2, r0
 1280 024e 92B2     		uxth	r2, r2
 1281 0250 0132     		adds	r2, r2, #1
 1282 0252 12B2     		sxth	r2, r2
 1283              	.LVL145:
 1284              	.LBE115:
 1285              	.LBE114:
 785:Drivers/lvgl/lvgl/src/widgets/lv_btnmatrix.c ****                         line_space, lv_area_get_width(&area_obj), draw_label_dsc_act.flag);
 1286              		.loc 1 785 0
 1287 0254 9DF8ED00 		ldrb	r0, [sp, #237]	@ zero_extendqisi2
 1288 0258 0290     		str	r0, [sp, #8]
 1289 025a 0192     		str	r2, [sp, #4]
 1290 025c 0091     		str	r1, [sp]
 1291 025e 349A     		ldr	r2, [sp, #208]
 1292 0260 3946     		mov	r1, r7
 1293              	.LVL146:
 1294 0262 0BA8     		add	r0, sp, #44
 1295 0264 FFF7FEFF 		bl	lv_txt_get_size
 1296              	.LVL147:
 1297              	.LBB116:
 1298              	.LBB117:
 125:Drivers/lvgl/lvgl/src/widgets/../core/../misc/../font/../misc/lv_area.h **** }
 1299              		.loc 3 125 0
 1300 0268 BDF82C31 		ldrh	r3, [sp, #300]
 1301 026c BDF82811 		ldrh	r1, [sp, #296]
 1302 0270 5B1A     		subs	r3, r3, r1
 1303 0272 9BB2     		uxth	r3, r3
 1304 0274 0133     		adds	r3, r3, #1
 1305 0276 1BB2     		sxth	r3, r3
 1306              	.LVL148:
 1307              	.LBE117:
 1308              	.LBE116:
ARM GAS  /tmp/ccpV5owi.s 			page 49


 788:Drivers/lvgl/lvgl/src/widgets/lv_btnmatrix.c ****         btn_area.y1 += (lv_area_get_height(&btn_area) - txt_size.y) / 2;
 1309              		.loc 1 788 0
 1310 0278 BDF92C00 		ldrsh	r0, [sp, #44]
 1311 027c 1B1A     		subs	r3, r3, r0
 1312 027e 00F1CE80 		bmi	.L93
 1313              	.L79:
 1314 0282 01EB6303 		add	r3, r1, r3, asr #1
 1315 0286 99B2     		uxth	r1, r3
 1316 0288 ADF82811 		strh	r1, [sp, #296]	@ movhi
 1317              	.LVL149:
 1318              	.LBB118:
 1319              	.LBB119:
 1320              		.loc 3 135 0
 1321 028c BDF82E31 		ldrh	r3, [sp, #302]
 1322 0290 BDF82A21 		ldrh	r2, [sp, #298]
 1323 0294 9B1A     		subs	r3, r3, r2
 1324 0296 9BB2     		uxth	r3, r3
 1325 0298 0133     		adds	r3, r3, #1
 1326 029a 1BB2     		sxth	r3, r3
 1327              	.LVL150:
 1328              	.LBE119:
 1329              	.LBE118:
 789:Drivers/lvgl/lvgl/src/widgets/lv_btnmatrix.c ****         btn_area.x2 = btn_area.x1 + txt_size.x;
 1330              		.loc 1 789 0
 1331 029c BDF92EC0 		ldrsh	ip, [sp, #46]
 1332 02a0 B3EB0C03 		subs	r3, r3, ip
 1333 02a4 00F1BD80 		bmi	.L94
 1334              	.L80:
 1335 02a8 02EB6303 		add	r3, r2, r3, asr #1
 1336 02ac 9BB2     		uxth	r3, r3
 1337 02ae ADF82A31 		strh	r3, [sp, #298]	@ movhi
 790:Drivers/lvgl/lvgl/src/widgets/lv_btnmatrix.c ****         btn_area.y2 = btn_area.y1 + txt_size.y;
 1338              		.loc 1 790 0
 1339 02b2 11FA80F1 		uxtah	r1, r1, r0
 1340 02b6 ADF82C11 		strh	r1, [sp, #300]	@ movhi
 791:Drivers/lvgl/lvgl/src/widgets/lv_btnmatrix.c **** 
 1341              		.loc 1 791 0
 1342 02ba 13FA8CFC 		uxtah	ip, r3, ip
 1343 02be 1FFA8CFC 		uxth	ip, ip
 1344 02c2 ADF82EC1 		strh	ip, [sp, #302]	@ movhi
 793:Drivers/lvgl/lvgl/src/widgets/lv_btnmatrix.c ****             /*Push up the button text into the popover*/
 1345              		.loc 1 793 0
 1346 02c6 B8F1000F 		cmp	r8, #0
 1347 02ca 13D0     		beq	.L81
 793:Drivers/lvgl/lvgl/src/widgets/lv_btnmatrix.c ****             /*Push up the button text into the popover*/
 1348              		.loc 1 793 0 is_stmt 0 discriminator 1
 1349 02cc EA6A     		ldr	r2, [r5, #44]
 1350 02ce 32F80B20 		ldrh	r2, [r2, fp]
 1351 02d2 12F4806F 		tst	r2, #1024
 1352 02d6 0DD0     		beq	.L81
 795:Drivers/lvgl/lvgl/src/widgets/lv_btnmatrix.c ****             btn_area.y2 -= btn_height / 2;
 1353              		.loc 1 795 0 is_stmt 1
 1354 02d8 4A46     		mov	r2, r9
 1355 02da B9F1000F 		cmp	r9, #0
 1356 02de C0F2A280 		blt	.L95
 1357              	.L82:
 1358 02e2 C2F34F02 		ubfx	r2, r2, #1, #16
ARM GAS  /tmp/ccpV5owi.s 			page 50


 1359 02e6 9B1A     		subs	r3, r3, r2
 1360 02e8 ADF82A31 		strh	r3, [sp, #298]	@ movhi
 796:Drivers/lvgl/lvgl/src/widgets/lv_btnmatrix.c ****         }
 1361              		.loc 1 796 0
 1362 02ec ACEB020C 		sub	ip, ip, r2
 1363 02f0 ADF82EC1 		strh	ip, [sp, #302]	@ movhi
 1364              	.L81:
 800:Drivers/lvgl/lvgl/src/widgets/lv_btnmatrix.c **** 
 1365              		.loc 1 800 0
 1366 02f4 0023     		movs	r3, #0
 1367 02f6 0093     		str	r3, [sp]
 1368 02f8 3B46     		mov	r3, r7
 1369 02fa 4AAA     		add	r2, sp, #296
 1370 02fc 34A9     		add	r1, sp, #208
 1371 02fe 0498     		ldr	r0, [sp, #16]
 1372 0300 FFF7FEFF 		bl	lv_draw_label
 1373              	.LVL151:
 802:Drivers/lvgl/lvgl/src/widgets/lv_btnmatrix.c ****     }
 1374              		.loc 1 802 0
 1375 0304 0CAA     		add	r2, sp, #48
 1376 0306 1B21     		movs	r1, #27
 1377 0308 2846     		mov	r0, r5
 1378 030a FFF7FEFF 		bl	lv_event_send
 1379              	.LVL152:
 1380              	.L63:
 1381              	.LBE109:
 697:Drivers/lvgl/lvgl/src/widgets/lv_btnmatrix.c ****         /*Search the next valid text in the map*/
 1382              		.loc 1 697 0 discriminator 2
 1383 030e 0136     		adds	r6, r6, #1
 1384              	.LVL153:
 1385 0310 B6B2     		uxth	r6, r6
 1386              	.LVL154:
 1387 0312 0134     		adds	r4, r4, #1
 1388              	.LVL155:
 1389 0314 A4B2     		uxth	r4, r4
 1390              	.LVL156:
 1391              	.L60:
 697:Drivers/lvgl/lvgl/src/widgets/lv_btnmatrix.c ****         /*Search the next valid text in the map*/
 1392              		.loc 1 697 0 is_stmt 0 discriminator 1
 1393 0316 2B8E     		ldrh	r3, [r5, #48]
 1394 0318 B342     		cmp	r3, r6
 1395 031a 3FF6DDAE 		bhi	.L83
 805:Drivers/lvgl/lvgl/src/widgets/lv_btnmatrix.c **** #if LV_USE_ARABIC_PERSIAN_CHARS
 1396              		.loc 1 805 0 is_stmt 1
 1397 031e 95F82230 		ldrb	r3, [r5, #34]	@ zero_extendqisi2
 1398 0322 6FF38203 		bfc	r3, #2, #1
 1399 0326 85F82230 		strb	r3, [r5, #34]
 1400 032a 71E6     		b	.L58
 1401              	.LVL157:
 1402              	.L85:
 1403              	.LBB120:
 708:Drivers/lvgl/lvgl/src/widgets/lv_btnmatrix.c **** 
 1404              		.loc 1 708 0
 1405 032c 4FF00108 		mov	r8, #1
 1406 0330 EFE6     		b	.L64
 1407              	.LVL158:
 1408              	.L65:
ARM GAS  /tmp/ccpV5owi.s 			page 51


 711:Drivers/lvgl/lvgl/src/widgets/lv_btnmatrix.c ****             if(state_ori & LV_STATE_PRESSED) btn_state |= LV_STATE_PRESSED;
 1409              		.loc 1 711 0
 1410 0332 AB8E     		ldrh	r3, [r5, #52]
 1411 0334 B342     		cmp	r3, r6
 1412 0336 7FF4F4AE 		bne	.L66
 712:Drivers/lvgl/lvgl/src/widgets/lv_btnmatrix.c ****             if(state_ori & LV_STATE_FOCUSED) btn_state |= LV_STATE_FOCUSED;
 1413              		.loc 1 712 0
 1414 033a 059B     		ldr	r3, [sp, #20]
 1415 033c 13F0200F 		tst	r3, #32
 1416 0340 01D0     		beq	.L67
 712:Drivers/lvgl/lvgl/src/widgets/lv_btnmatrix.c ****             if(state_ori & LV_STATE_FOCUSED) btn_state |= LV_STATE_FOCUSED;
 1417              		.loc 1 712 0 is_stmt 0 discriminator 1
 1418 0342 48F02008 		orr	r8, r8, #32
 1419              	.LVL159:
 1420              	.L67:
 713:Drivers/lvgl/lvgl/src/widgets/lv_btnmatrix.c ****             if(state_ori & LV_STATE_FOCUS_KEY) btn_state |= LV_STATE_FOCUS_KEY;
 1421              		.loc 1 713 0 is_stmt 1
 1422 0346 059B     		ldr	r3, [sp, #20]
 1423 0348 13F0020F 		tst	r3, #2
 1424 034c 01D0     		beq	.L68
 713:Drivers/lvgl/lvgl/src/widgets/lv_btnmatrix.c ****             if(state_ori & LV_STATE_FOCUS_KEY) btn_state |= LV_STATE_FOCUS_KEY;
 1425              		.loc 1 713 0 is_stmt 0 discriminator 1
 1426 034e 48F00208 		orr	r8, r8, #2
 1427              	.LVL160:
 1428              	.L68:
 714:Drivers/lvgl/lvgl/src/widgets/lv_btnmatrix.c ****             if(state_ori & LV_STATE_EDITED) btn_state |= LV_STATE_EDITED;
 1429              		.loc 1 714 0 is_stmt 1
 1430 0352 059B     		ldr	r3, [sp, #20]
 1431 0354 13F0040F 		tst	r3, #4
 1432 0358 01D0     		beq	.L69
 714:Drivers/lvgl/lvgl/src/widgets/lv_btnmatrix.c ****             if(state_ori & LV_STATE_EDITED) btn_state |= LV_STATE_EDITED;
 1433              		.loc 1 714 0 is_stmt 0 discriminator 1
 1434 035a 48F00408 		orr	r8, r8, #4
 1435              	.LVL161:
 1436              	.L69:
 715:Drivers/lvgl/lvgl/src/widgets/lv_btnmatrix.c ****         }
 1437              		.loc 1 715 0 is_stmt 1
 1438 035e 059B     		ldr	r3, [sp, #20]
 1439 0360 13F0080F 		tst	r3, #8
 1440 0364 3FF4DDAE 		beq	.L66
 715:Drivers/lvgl/lvgl/src/widgets/lv_btnmatrix.c ****         }
 1441              		.loc 1 715 0 is_stmt 0 discriminator 1
 1442 0368 48F00808 		orr	r8, r8, #8
 1443              	.LVL162:
 1444 036c D9E6     		b	.L66
 1445              	.L70:
 732:Drivers/lvgl/lvgl/src/widgets/lv_btnmatrix.c ****             obj->skip_trans = 1;
 1446              		.loc 1 732 0 is_stmt 1
 1447 036e A5F82080 		strh	r8, [r5, #32]	@ movhi
 733:Drivers/lvgl/lvgl/src/widgets/lv_btnmatrix.c ****             lv_draw_rect_dsc_init(&draw_rect_dsc_act);
 1448              		.loc 1 733 0
 1449 0372 95F82230 		ldrb	r3, [r5, #34]	@ zero_extendqisi2
 1450 0376 43F00403 		orr	r3, r3, #4
 1451 037a 85F82230 		strb	r3, [r5, #34]
 734:Drivers/lvgl/lvgl/src/widgets/lv_btnmatrix.c ****             lv_draw_label_dsc_init(&draw_label_dsc_act);
 1452              		.loc 1 734 0
 1453 037e 3CA8     		add	r0, sp, #240
ARM GAS  /tmp/ccpV5owi.s 			page 52


 1454 0380 FFF7FEFF 		bl	lv_draw_rect_dsc_init
 1455              	.LVL163:
 735:Drivers/lvgl/lvgl/src/widgets/lv_btnmatrix.c ****             lv_obj_init_draw_rect_dsc(obj, LV_PART_ITEMS, &draw_rect_dsc_act);
 1456              		.loc 1 735 0
 1457 0384 34A8     		add	r0, sp, #208
 1458 0386 FFF7FEFF 		bl	lv_draw_label_dsc_init
 1459              	.LVL164:
 736:Drivers/lvgl/lvgl/src/widgets/lv_btnmatrix.c ****             lv_obj_init_draw_label_dsc(obj, LV_PART_ITEMS, &draw_label_dsc_act);
 1460              		.loc 1 736 0
 1461 038a 3CAA     		add	r2, sp, #240
 1462 038c 4FF4A021 		mov	r1, #327680
 1463 0390 2846     		mov	r0, r5
 1464 0392 FFF7FEFF 		bl	lv_obj_init_draw_rect_dsc
 1465              	.LVL165:
 737:Drivers/lvgl/lvgl/src/widgets/lv_btnmatrix.c ****             obj->state = state_ori;
 1466              		.loc 1 737 0
 1467 0396 34AA     		add	r2, sp, #208
 1468 0398 4FF4A021 		mov	r1, #327680
 1469 039c 2846     		mov	r0, r5
 1470 039e FFF7FEFF 		bl	lv_obj_init_draw_label_dsc
 1471              	.LVL166:
 738:Drivers/lvgl/lvgl/src/widgets/lv_btnmatrix.c ****             obj->skip_trans = 0;
 1472              		.loc 1 738 0
 1473 03a2 BDF81430 		ldrh	r3, [sp, #20]
 1474 03a6 2B84     		strh	r3, [r5, #32]	@ movhi
 739:Drivers/lvgl/lvgl/src/widgets/lv_btnmatrix.c ****         }
 1475              		.loc 1 739 0
 1476 03a8 95F82230 		ldrb	r3, [r5, #34]	@ zero_extendqisi2
 1477 03ac 6FF38203 		bfc	r3, #2, #1
 1478 03b0 85F82230 		strb	r3, [r5, #34]
 1479 03b4 DEE6     		b	.L71
 1480              	.LVL167:
 1481              	.L72:
 744:Drivers/lvgl/lvgl/src/widgets/lv_btnmatrix.c **** 
 1482              		.loc 1 744 0
 1483 03b6 9DF8ED30 		ldrb	r3, [sp, #237]	@ zero_extendqisi2
 1484 03ba 23F00103 		bic	r3, r3, #1
 1485 03be 8DF8ED30 		strb	r3, [sp, #237]
 1486 03c2 E5E6     		b	.L73
 1487              	.LVL168:
 1488              	.L89:
 754:Drivers/lvgl/lvgl/src/widgets/lv_btnmatrix.c ****             if(btn_area.x2 == obj->coords.x2 - pright) draw_rect_dsc_act.border_side &= ~LV_BORDER_
 1489              		.loc 1 754 0 discriminator 1
 1490 03c4 9DF81331 		ldrb	r3, [sp, #275]	@ zero_extendqisi2
 1491 03c8 0B22     		movs	r2, #11
 1492 03ca 62F34503 		bfi	r3, r2, #1, #5
 1493 03ce 8DF81331 		strb	r3, [sp, #275]
 1494 03d2 FBE6     		b	.L75
 1495              	.L90:
 755:Drivers/lvgl/lvgl/src/widgets/lv_btnmatrix.c ****             if(btn_area.y1 == obj->coords.y1 + ptop) draw_rect_dsc_act.border_side &= ~LV_BORDER_SI
 1496              		.loc 1 755 0 discriminator 1
 1497 03d4 9DF81331 		ldrb	r3, [sp, #275]	@ zero_extendqisi2
 1498 03d8 C3F34402 		ubfx	r2, r3, #1, #5
 1499 03dc 02F01702 		and	r2, r2, #23
 1500 03e0 62F34503 		bfi	r3, r2, #1, #5
 1501 03e4 8DF81331 		strb	r3, [sp, #275]
 1502 03e8 F9E6     		b	.L76
ARM GAS  /tmp/ccpV5owi.s 			page 53


 1503              	.L91:
 756:Drivers/lvgl/lvgl/src/widgets/lv_btnmatrix.c ****             if(btn_area.y2 == obj->coords.y2 - pbottom) draw_rect_dsc_act.border_side &= ~LV_BORDER
 1504              		.loc 1 756 0 discriminator 1
 1505 03ea 9DF81331 		ldrb	r3, [sp, #275]	@ zero_extendqisi2
 1506 03ee C3F34402 		ubfx	r2, r3, #1, #5
 1507 03f2 02F01D02 		and	r2, r2, #29
 1508 03f6 62F34503 		bfi	r3, r2, #1, #5
 1509 03fa 8DF81331 		strb	r3, [sp, #275]
 1510 03fe F7E6     		b	.L77
 1511              	.L97:
 1512              		.align	2
 1513              	.L96:
 1514 0400 00000000 		.word	.LANCHOR0
 1515 0404 00000000 		.word	.LC0
 1516              	.L92:
 757:Drivers/lvgl/lvgl/src/widgets/lv_btnmatrix.c ****         }
 1517              		.loc 1 757 0 discriminator 1
 1518 0408 9DF81331 		ldrb	r3, [sp, #275]	@ zero_extendqisi2
 1519 040c C3F34402 		ubfx	r2, r3, #1, #5
 1520 0410 02F01E02 		and	r2, r2, #30
 1521 0414 62F34503 		bfi	r3, r2, #1, #5
 1522 0418 8DF81331 		strb	r3, [sp, #275]
 1523 041c F1E6     		b	.L74
 1524              	.LVL169:
 1525              	.L93:
 788:Drivers/lvgl/lvgl/src/widgets/lv_btnmatrix.c ****         btn_area.y1 += (lv_area_get_height(&btn_area) - txt_size.y) / 2;
 1526              		.loc 1 788 0
 1527 041e 0133     		adds	r3, r3, #1
 1528 0420 2FE7     		b	.L79
 1529              	.L94:
 789:Drivers/lvgl/lvgl/src/widgets/lv_btnmatrix.c ****         btn_area.x2 = btn_area.x1 + txt_size.x;
 1530              		.loc 1 789 0
 1531 0422 0133     		adds	r3, r3, #1
 1532 0424 40E7     		b	.L80
 1533              	.L95:
 795:Drivers/lvgl/lvgl/src/widgets/lv_btnmatrix.c ****             btn_area.y2 -= btn_height / 2;
 1534              		.loc 1 795 0
 1535 0426 09F10102 		add	r2, r9, #1
 1536 042a 5AE7     		b	.L82
 1537              	.LBE120:
 1538              		.cfi_endproc
 1539              	.LFE177:
 1541              		.section	.text.lv_btnmatrix_destructor,"ax",%progbits
 1542              		.align	1
 1543              		.syntax unified
 1544              		.thumb
 1545              		.thumb_func
 1546              		.fpu fpv5-d16
 1548              	lv_btnmatrix_destructor:
 1549              	.LFB175:
 375:Drivers/lvgl/lvgl/src/widgets/lv_btnmatrix.c ****     LV_TRACE_OBJ_CREATE("begin");
 1550              		.loc 1 375 0
 1551              		.cfi_startproc
 1552              		@ args = 0, pretend = 0, frame = 0
 1553              		@ frame_needed = 0, uses_anonymous_args = 0
 1554              	.LVL170:
 1555 0000 10B5     		push	{r4, lr}
ARM GAS  /tmp/ccpV5owi.s 			page 54


 1556              	.LCFI15:
 1557              		.cfi_def_cfa_offset 8
 1558              		.cfi_offset 4, -8
 1559              		.cfi_offset 14, -4
 1560 0002 0C46     		mov	r4, r1
 1561              	.LVL171:
 379:Drivers/lvgl/lvgl/src/widgets/lv_btnmatrix.c ****     lv_mem_free(btnm->ctrl_bits);
 1562              		.loc 1 379 0
 1563 0004 886A     		ldr	r0, [r1, #40]
 1564              	.LVL172:
 1565 0006 FFF7FEFF 		bl	lv_mem_free
 1566              	.LVL173:
 380:Drivers/lvgl/lvgl/src/widgets/lv_btnmatrix.c ****     btnm->button_areas = NULL;
 1567              		.loc 1 380 0
 1568 000a E06A     		ldr	r0, [r4, #44]
 1569 000c FFF7FEFF 		bl	lv_mem_free
 1570              	.LVL174:
 381:Drivers/lvgl/lvgl/src/widgets/lv_btnmatrix.c ****     btnm->ctrl_bits = NULL;
 1571              		.loc 1 381 0
 1572 0010 0023     		movs	r3, #0
 1573 0012 A362     		str	r3, [r4, #40]
 382:Drivers/lvgl/lvgl/src/widgets/lv_btnmatrix.c ****     LV_TRACE_OBJ_CREATE("finished");
 1574              		.loc 1 382 0
 1575 0014 E362     		str	r3, [r4, #44]
 384:Drivers/lvgl/lvgl/src/widgets/lv_btnmatrix.c **** 
 1576              		.loc 1 384 0
 1577 0016 10BD     		pop	{r4, pc}
 1578              		.cfi_endproc
 1579              	.LFE175:
 1581              		.section	.text.allocate_btn_areas_and_controls,"ax",%progbits
 1582              		.align	1
 1583              		.syntax unified
 1584              		.thumb
 1585              		.thumb_func
 1586              		.fpu fpv5-d16
 1588              	allocate_btn_areas_and_controls:
 1589              	.LFB178:
 816:Drivers/lvgl/lvgl/src/widgets/lv_btnmatrix.c ****     lv_btnmatrix_t * btnm = (lv_btnmatrix_t *)obj;
 1590              		.loc 1 816 0
 1591              		.cfi_startproc
 1592              		@ args = 0, pretend = 0, frame = 0
 1593              		@ frame_needed = 0, uses_anonymous_args = 0
 1594              	.LVL175:
 1595 0000 F8B5     		push	{r3, r4, r5, r6, r7, lr}
 1596              	.LCFI16:
 1597              		.cfi_def_cfa_offset 24
 1598              		.cfi_offset 3, -24
 1599              		.cfi_offset 4, -20
 1600              		.cfi_offset 5, -16
 1601              		.cfi_offset 6, -12
 1602              		.cfi_offset 7, -8
 1603              		.cfi_offset 14, -4
 1604 0002 0446     		mov	r4, r0
 1605 0004 0F46     		mov	r7, r1
 1606              	.LVL176:
 818:Drivers/lvgl/lvgl/src/widgets/lv_btnmatrix.c ****     /*Count the buttons in the map*/
 1607              		.loc 1 818 0
ARM GAS  /tmp/ccpV5owi.s 			page 55


 1608 0006 0123     		movs	r3, #1
 1609 0008 4386     		strh	r3, [r0, #50]	@ movhi
 1610              	.LVL177:
 821:Drivers/lvgl/lvgl/src/widgets/lv_btnmatrix.c ****     while(map[i] && map[i][0] != '\0') {
 1611              		.loc 1 821 0
 1612 000a 0026     		movs	r6, #0
 820:Drivers/lvgl/lvgl/src/widgets/lv_btnmatrix.c ****     uint16_t i       = 0;
 1613              		.loc 1 820 0
 1614 000c 3546     		mov	r5, r6
 822:Drivers/lvgl/lvgl/src/widgets/lv_btnmatrix.c ****         if(strcmp(map[i], "\n") != 0) { /*Do not count line breaks*/
 1615              		.loc 1 822 0
 1616 000e 04E0     		b	.L101
 1617              	.LVL178:
 1618              	.L102:
 827:Drivers/lvgl/lvgl/src/widgets/lv_btnmatrix.c ****         }
 1619              		.loc 1 827 0
 1620 0010 638E     		ldrh	r3, [r4, #50]
 1621 0012 0133     		adds	r3, r3, #1
 1622 0014 6386     		strh	r3, [r4, #50]	@ movhi
 1623              	.L103:
 829:Drivers/lvgl/lvgl/src/widgets/lv_btnmatrix.c ****     }
 1624              		.loc 1 829 0
 1625 0016 0136     		adds	r6, r6, #1
 1626              	.LVL179:
 1627 0018 B6B2     		uxth	r6, r6
 1628              	.LVL180:
 1629              	.L101:
 822:Drivers/lvgl/lvgl/src/widgets/lv_btnmatrix.c ****         if(strcmp(map[i], "\n") != 0) { /*Do not count line breaks*/
 1630              		.loc 1 822 0
 1631 001a 57F82600 		ldr	r0, [r7, r6, lsl #2]
 1632 001e 48B1     		cbz	r0, .L104
 822:Drivers/lvgl/lvgl/src/widgets/lv_btnmatrix.c ****         if(strcmp(map[i], "\n") != 0) { /*Do not count line breaks*/
 1633              		.loc 1 822 0 is_stmt 0 discriminator 1
 1634 0020 0378     		ldrb	r3, [r0]	@ zero_extendqisi2
 1635 0022 3BB1     		cbz	r3, .L104
 823:Drivers/lvgl/lvgl/src/widgets/lv_btnmatrix.c ****             btn_cnt++;
 1636              		.loc 1 823 0 is_stmt 1
 1637 0024 1549     		ldr	r1, .L117
 1638 0026 FFF7FEFF 		bl	strcmp
 1639              	.LVL181:
 1640 002a 0028     		cmp	r0, #0
 1641 002c F0D0     		beq	.L102
 824:Drivers/lvgl/lvgl/src/widgets/lv_btnmatrix.c ****         }
 1642              		.loc 1 824 0
 1643 002e 0135     		adds	r5, r5, #1
 1644              	.LVL182:
 1645 0030 ADB2     		uxth	r5, r5
 1646              	.LVL183:
 1647 0032 F0E7     		b	.L103
 1648              	.L104:
 833:Drivers/lvgl/lvgl/src/widgets/lv_btnmatrix.c **** 
 1649              		.loc 1 833 0
 1650 0034 238E     		ldrh	r3, [r4, #48]
 1651 0036 AB42     		cmp	r3, r5
 1652 0038 1CD0     		beq	.L100
 835:Drivers/lvgl/lvgl/src/widgets/lv_btnmatrix.c ****         lv_mem_free(btnm->button_areas);
 1653              		.loc 1 835 0
ARM GAS  /tmp/ccpV5owi.s 			page 56


 1654 003a A06A     		ldr	r0, [r4, #40]
 1655 003c 18B1     		cbz	r0, .L107
 836:Drivers/lvgl/lvgl/src/widgets/lv_btnmatrix.c ****         btnm->button_areas = NULL;
 1656              		.loc 1 836 0
 1657 003e FFF7FEFF 		bl	lv_mem_free
 1658              	.LVL184:
 837:Drivers/lvgl/lvgl/src/widgets/lv_btnmatrix.c ****     }
 1659              		.loc 1 837 0
 1660 0042 0023     		movs	r3, #0
 1661 0044 A362     		str	r3, [r4, #40]
 1662              	.L107:
 839:Drivers/lvgl/lvgl/src/widgets/lv_btnmatrix.c ****         lv_mem_free(btnm->ctrl_bits);
 1663              		.loc 1 839 0
 1664 0046 E06A     		ldr	r0, [r4, #44]
 1665 0048 18B1     		cbz	r0, .L108
 840:Drivers/lvgl/lvgl/src/widgets/lv_btnmatrix.c ****         btnm->ctrl_bits = NULL;
 1666              		.loc 1 840 0
 1667 004a FFF7FEFF 		bl	lv_mem_free
 1668              	.LVL185:
 841:Drivers/lvgl/lvgl/src/widgets/lv_btnmatrix.c ****     }
 1669              		.loc 1 841 0
 1670 004e 0023     		movs	r3, #0
 1671 0050 E362     		str	r3, [r4, #44]
 1672              	.L108:
 844:Drivers/lvgl/lvgl/src/widgets/lv_btnmatrix.c ****     LV_ASSERT_MALLOC(btnm->button_areas);
 1673              		.loc 1 844 0
 1674 0052 E800     		lsls	r0, r5, #3
 1675 0054 FFF7FEFF 		bl	lv_mem_alloc
 1676              	.LVL186:
 1677 0058 A062     		str	r0, [r4, #40]
 845:Drivers/lvgl/lvgl/src/widgets/lv_btnmatrix.c ****     btnm->ctrl_bits = lv_mem_alloc(sizeof(lv_btnmatrix_ctrl_t) * btn_cnt);
 1678              		.loc 1 845 0
 1679 005a 00B9     		cbnz	r0, .L109
 1680              	.L110:
 1681 005c FEE7     		b	.L110
 1682              	.L109:
 846:Drivers/lvgl/lvgl/src/widgets/lv_btnmatrix.c ****     LV_ASSERT_MALLOC(btnm->ctrl_bits);
 1683              		.loc 1 846 0
 1684 005e 6800     		lsls	r0, r5, #1
 1685 0060 FFF7FEFF 		bl	lv_mem_alloc
 1686              	.LVL187:
 1687 0064 E062     		str	r0, [r4, #44]
 847:Drivers/lvgl/lvgl/src/widgets/lv_btnmatrix.c ****     if(btnm->button_areas == NULL || btnm->ctrl_bits == NULL) btn_cnt = 0;
 1688              		.loc 1 847 0
 1689 0066 30B1     		cbz	r0, .L112
 848:Drivers/lvgl/lvgl/src/widgets/lv_btnmatrix.c **** 
 1690              		.loc 1 848 0
 1691 0068 A36A     		ldr	r3, [r4, #40]
 1692 006a 2BB1     		cbz	r3, .L116
 1693              	.LVL188:
 1694              	.L113:
 850:Drivers/lvgl/lvgl/src/widgets/lv_btnmatrix.c **** 
 1695              		.loc 1 850 0
 1696 006c 6900     		lsls	r1, r5, #1
 1697 006e FFF7FEFF 		bl	lv_memset_00
 1698              	.LVL189:
 852:Drivers/lvgl/lvgl/src/widgets/lv_btnmatrix.c **** }
ARM GAS  /tmp/ccpV5owi.s 			page 57


 1699              		.loc 1 852 0
 1700 0072 2586     		strh	r5, [r4, #48]	@ movhi
 1701              	.L100:
 853:Drivers/lvgl/lvgl/src/widgets/lv_btnmatrix.c **** 
 1702              		.loc 1 853 0
 1703 0074 F8BD     		pop	{r3, r4, r5, r6, r7, pc}
 1704              	.LVL190:
 1705              	.L112:
 1706 0076 FEE7     		b	.L112
 1707              	.L116:
 848:Drivers/lvgl/lvgl/src/widgets/lv_btnmatrix.c **** 
 1708              		.loc 1 848 0
 1709 0078 0025     		movs	r5, #0
 1710              	.LVL191:
 1711 007a F7E7     		b	.L113
 1712              	.L118:
 1713              		.align	2
 1714              	.L117:
 1715 007c 00000000 		.word	.LC0
 1716              		.cfi_endproc
 1717              	.LFE178:
 1719              		.section	.text.lv_btnmatrix_create,"ax",%progbits
 1720              		.align	1
 1721              		.global	lv_btnmatrix_create
 1722              		.syntax unified
 1723              		.thumb
 1724              		.thumb_func
 1725              		.fpu fpv5-d16
 1727              	lv_btnmatrix_create:
 1728              	.LFB159:
  82:Drivers/lvgl/lvgl/src/widgets/lv_btnmatrix.c ****     LV_LOG_INFO("begin");
 1729              		.loc 1 82 0
 1730              		.cfi_startproc
 1731              		@ args = 0, pretend = 0, frame = 0
 1732              		@ frame_needed = 0, uses_anonymous_args = 0
 1733              	.LVL192:
 1734 0000 10B5     		push	{r4, lr}
 1735              	.LCFI17:
 1736              		.cfi_def_cfa_offset 8
 1737              		.cfi_offset 4, -8
 1738              		.cfi_offset 14, -4
  84:Drivers/lvgl/lvgl/src/widgets/lv_btnmatrix.c ****     lv_obj_class_init_obj(obj);
 1739              		.loc 1 84 0
 1740 0002 0146     		mov	r1, r0
 1741 0004 0348     		ldr	r0, .L121
 1742              	.LVL193:
 1743 0006 FFF7FEFF 		bl	lv_obj_class_create_obj
 1744              	.LVL194:
 1745 000a 0446     		mov	r4, r0
 1746              	.LVL195:
  85:Drivers/lvgl/lvgl/src/widgets/lv_btnmatrix.c ****     return obj;
 1747              		.loc 1 85 0
 1748 000c FFF7FEFF 		bl	lv_obj_class_init_obj
 1749              	.LVL196:
  87:Drivers/lvgl/lvgl/src/widgets/lv_btnmatrix.c **** 
 1750              		.loc 1 87 0
 1751 0010 2046     		mov	r0, r4
ARM GAS  /tmp/ccpV5owi.s 			page 58


 1752 0012 10BD     		pop	{r4, pc}
 1753              	.LVL197:
 1754              	.L122:
 1755              		.align	2
 1756              	.L121:
 1757 0014 00000000 		.word	.LANCHOR0
 1758              		.cfi_endproc
 1759              	.LFE159:
 1761              		.section	.text.lv_btnmatrix_set_map,"ax",%progbits
 1762              		.align	1
 1763              		.global	lv_btnmatrix_set_map
 1764              		.syntax unified
 1765              		.thumb
 1766              		.thumb_func
 1767              		.fpu fpv5-d16
 1769              	lv_btnmatrix_set_map:
 1770              	.LFB160:
  94:Drivers/lvgl/lvgl/src/widgets/lv_btnmatrix.c ****     LV_ASSERT_OBJ(obj, MY_CLASS);
 1771              		.loc 1 94 0
 1772              		.cfi_startproc
 1773              		@ args = 0, pretend = 0, frame = 56
 1774              		@ frame_needed = 0, uses_anonymous_args = 0
 1775              	.LVL198:
  96:Drivers/lvgl/lvgl/src/widgets/lv_btnmatrix.c **** 
 1776              		.loc 1 96 0
 1777 0000 0029     		cmp	r1, #0
 1778 0002 00F0E480 		beq	.L138
  94:Drivers/lvgl/lvgl/src/widgets/lv_btnmatrix.c ****     LV_ASSERT_OBJ(obj, MY_CLASS);
 1779              		.loc 1 94 0
 1780 0006 2DE9F04F 		push	{r4, r5, r6, r7, r8, r9, r10, fp, lr}
 1781              	.LCFI18:
 1782              		.cfi_def_cfa_offset 36
 1783              		.cfi_offset 4, -36
 1784              		.cfi_offset 5, -32
 1785              		.cfi_offset 6, -28
 1786              		.cfi_offset 7, -24
 1787              		.cfi_offset 8, -20
 1788              		.cfi_offset 9, -16
 1789              		.cfi_offset 10, -12
 1790              		.cfi_offset 11, -8
 1791              		.cfi_offset 14, -4
 1792 000a 91B0     		sub	sp, sp, #68
 1793              	.LCFI19:
 1794              		.cfi_def_cfa_offset 104
 1795 000c 8346     		mov	fp, r0
 1796 000e 0D46     		mov	r5, r1
 1797              	.LVL199:
 101:Drivers/lvgl/lvgl/src/widgets/lv_btnmatrix.c ****     btnm->map_p = map;
 1798              		.loc 1 101 0
 1799 0010 FFF7FEFF 		bl	allocate_btn_areas_and_controls
 1800              	.LVL200:
 102:Drivers/lvgl/lvgl/src/widgets/lv_btnmatrix.c **** 
 1801              		.loc 1 102 0
 1802 0014 CBF82450 		str	r5, [fp, #36]
 1803              	.LVL201:
 1804              	.LBB121:
 1805              	.LBB122:
ARM GAS  /tmp/ccpV5owi.s 			page 59


 137:Drivers/lvgl/lvgl/src/widgets/../core/lv_obj_style_gen.h **** }
 138:Drivers/lvgl/lvgl/src/widgets/../core/lv_obj_style_gen.h **** 
 139:Drivers/lvgl/lvgl/src/widgets/../core/lv_obj_style_gen.h **** static inline lv_color_t lv_obj_get_style_bg_color(const struct _lv_obj_t * obj, uint32_t part)
 140:Drivers/lvgl/lvgl/src/widgets/../core/lv_obj_style_gen.h **** {
 141:Drivers/lvgl/lvgl/src/widgets/../core/lv_obj_style_gen.h ****     lv_style_value_t v = lv_obj_get_style_prop(obj, part, LV_STYLE_BG_COLOR);
 142:Drivers/lvgl/lvgl/src/widgets/../core/lv_obj_style_gen.h ****     return v.color;
 143:Drivers/lvgl/lvgl/src/widgets/../core/lv_obj_style_gen.h **** }
 144:Drivers/lvgl/lvgl/src/widgets/../core/lv_obj_style_gen.h **** 
 145:Drivers/lvgl/lvgl/src/widgets/../core/lv_obj_style_gen.h **** static inline lv_color_t lv_obj_get_style_bg_color_filtered(const struct _lv_obj_t * obj, uint32_t 
 146:Drivers/lvgl/lvgl/src/widgets/../core/lv_obj_style_gen.h **** {
 147:Drivers/lvgl/lvgl/src/widgets/../core/lv_obj_style_gen.h ****     lv_style_value_t v = _lv_obj_style_apply_color_filter(obj, part, lv_obj_get_style_prop(obj, par
 148:Drivers/lvgl/lvgl/src/widgets/../core/lv_obj_style_gen.h ****     return v.color;
 149:Drivers/lvgl/lvgl/src/widgets/../core/lv_obj_style_gen.h **** }
 150:Drivers/lvgl/lvgl/src/widgets/../core/lv_obj_style_gen.h **** 
 151:Drivers/lvgl/lvgl/src/widgets/../core/lv_obj_style_gen.h **** static inline lv_opa_t lv_obj_get_style_bg_opa(const struct _lv_obj_t * obj, uint32_t part)
 152:Drivers/lvgl/lvgl/src/widgets/../core/lv_obj_style_gen.h **** {
 153:Drivers/lvgl/lvgl/src/widgets/../core/lv_obj_style_gen.h ****     lv_style_value_t v = lv_obj_get_style_prop(obj, part, LV_STYLE_BG_OPA);
 154:Drivers/lvgl/lvgl/src/widgets/../core/lv_obj_style_gen.h ****     return (lv_opa_t)v.num;
 155:Drivers/lvgl/lvgl/src/widgets/../core/lv_obj_style_gen.h **** }
 156:Drivers/lvgl/lvgl/src/widgets/../core/lv_obj_style_gen.h **** 
 157:Drivers/lvgl/lvgl/src/widgets/../core/lv_obj_style_gen.h **** static inline lv_color_t lv_obj_get_style_bg_grad_color(const struct _lv_obj_t * obj, uint32_t part
 158:Drivers/lvgl/lvgl/src/widgets/../core/lv_obj_style_gen.h **** {
 159:Drivers/lvgl/lvgl/src/widgets/../core/lv_obj_style_gen.h ****     lv_style_value_t v = lv_obj_get_style_prop(obj, part, LV_STYLE_BG_GRAD_COLOR);
 160:Drivers/lvgl/lvgl/src/widgets/../core/lv_obj_style_gen.h ****     return v.color;
 161:Drivers/lvgl/lvgl/src/widgets/../core/lv_obj_style_gen.h **** }
 162:Drivers/lvgl/lvgl/src/widgets/../core/lv_obj_style_gen.h **** 
 163:Drivers/lvgl/lvgl/src/widgets/../core/lv_obj_style_gen.h **** static inline lv_color_t lv_obj_get_style_bg_grad_color_filtered(const struct _lv_obj_t * obj, uint
 164:Drivers/lvgl/lvgl/src/widgets/../core/lv_obj_style_gen.h **** {
 165:Drivers/lvgl/lvgl/src/widgets/../core/lv_obj_style_gen.h ****     lv_style_value_t v = _lv_obj_style_apply_color_filter(obj, part, lv_obj_get_style_prop(obj, par
 166:Drivers/lvgl/lvgl/src/widgets/../core/lv_obj_style_gen.h ****     return v.color;
 167:Drivers/lvgl/lvgl/src/widgets/../core/lv_obj_style_gen.h **** }
 168:Drivers/lvgl/lvgl/src/widgets/../core/lv_obj_style_gen.h **** 
 169:Drivers/lvgl/lvgl/src/widgets/../core/lv_obj_style_gen.h **** static inline lv_grad_dir_t lv_obj_get_style_bg_grad_dir(const struct _lv_obj_t * obj, uint32_t par
 170:Drivers/lvgl/lvgl/src/widgets/../core/lv_obj_style_gen.h **** {
 171:Drivers/lvgl/lvgl/src/widgets/../core/lv_obj_style_gen.h ****     lv_style_value_t v = lv_obj_get_style_prop(obj, part, LV_STYLE_BG_GRAD_DIR);
 172:Drivers/lvgl/lvgl/src/widgets/../core/lv_obj_style_gen.h ****     return (lv_grad_dir_t)v.num;
 173:Drivers/lvgl/lvgl/src/widgets/../core/lv_obj_style_gen.h **** }
 174:Drivers/lvgl/lvgl/src/widgets/../core/lv_obj_style_gen.h **** 
 175:Drivers/lvgl/lvgl/src/widgets/../core/lv_obj_style_gen.h **** static inline lv_coord_t lv_obj_get_style_bg_main_stop(const struct _lv_obj_t * obj, uint32_t part)
 176:Drivers/lvgl/lvgl/src/widgets/../core/lv_obj_style_gen.h **** {
 177:Drivers/lvgl/lvgl/src/widgets/../core/lv_obj_style_gen.h ****     lv_style_value_t v = lv_obj_get_style_prop(obj, part, LV_STYLE_BG_MAIN_STOP);
 178:Drivers/lvgl/lvgl/src/widgets/../core/lv_obj_style_gen.h ****     return (lv_coord_t)v.num;
 179:Drivers/lvgl/lvgl/src/widgets/../core/lv_obj_style_gen.h **** }
 180:Drivers/lvgl/lvgl/src/widgets/../core/lv_obj_style_gen.h **** 
 181:Drivers/lvgl/lvgl/src/widgets/../core/lv_obj_style_gen.h **** static inline lv_coord_t lv_obj_get_style_bg_grad_stop(const struct _lv_obj_t * obj, uint32_t part)
 182:Drivers/lvgl/lvgl/src/widgets/../core/lv_obj_style_gen.h **** {
 183:Drivers/lvgl/lvgl/src/widgets/../core/lv_obj_style_gen.h ****     lv_style_value_t v = lv_obj_get_style_prop(obj, part, LV_STYLE_BG_GRAD_STOP);
 184:Drivers/lvgl/lvgl/src/widgets/../core/lv_obj_style_gen.h ****     return (lv_coord_t)v.num;
 185:Drivers/lvgl/lvgl/src/widgets/../core/lv_obj_style_gen.h **** }
 186:Drivers/lvgl/lvgl/src/widgets/../core/lv_obj_style_gen.h **** 
 187:Drivers/lvgl/lvgl/src/widgets/../core/lv_obj_style_gen.h **** static inline const lv_grad_dsc_t * lv_obj_get_style_bg_grad(const struct _lv_obj_t * obj, uint32_t
 188:Drivers/lvgl/lvgl/src/widgets/../core/lv_obj_style_gen.h **** {
 189:Drivers/lvgl/lvgl/src/widgets/../core/lv_obj_style_gen.h ****     lv_style_value_t v = lv_obj_get_style_prop(obj, part, LV_STYLE_BG_GRAD);
 190:Drivers/lvgl/lvgl/src/widgets/../core/lv_obj_style_gen.h ****     return (const lv_grad_dsc_t *)v.ptr;
 191:Drivers/lvgl/lvgl/src/widgets/../core/lv_obj_style_gen.h **** }
 192:Drivers/lvgl/lvgl/src/widgets/../core/lv_obj_style_gen.h **** 
 193:Drivers/lvgl/lvgl/src/widgets/../core/lv_obj_style_gen.h **** static inline lv_dither_mode_t lv_obj_get_style_bg_dither_mode(const struct _lv_obj_t * obj, uint32
ARM GAS  /tmp/ccpV5owi.s 			page 60


 194:Drivers/lvgl/lvgl/src/widgets/../core/lv_obj_style_gen.h **** {
 195:Drivers/lvgl/lvgl/src/widgets/../core/lv_obj_style_gen.h ****     lv_style_value_t v = lv_obj_get_style_prop(obj, part, LV_STYLE_BG_DITHER_MODE);
 196:Drivers/lvgl/lvgl/src/widgets/../core/lv_obj_style_gen.h ****     return (lv_dither_mode_t)v.num;
 197:Drivers/lvgl/lvgl/src/widgets/../core/lv_obj_style_gen.h **** }
 198:Drivers/lvgl/lvgl/src/widgets/../core/lv_obj_style_gen.h **** 
 199:Drivers/lvgl/lvgl/src/widgets/../core/lv_obj_style_gen.h **** static inline const void * lv_obj_get_style_bg_img_src(const struct _lv_obj_t * obj, uint32_t part)
 200:Drivers/lvgl/lvgl/src/widgets/../core/lv_obj_style_gen.h **** {
 201:Drivers/lvgl/lvgl/src/widgets/../core/lv_obj_style_gen.h ****     lv_style_value_t v = lv_obj_get_style_prop(obj, part, LV_STYLE_BG_IMG_SRC);
 202:Drivers/lvgl/lvgl/src/widgets/../core/lv_obj_style_gen.h ****     return (const void *)v.ptr;
 203:Drivers/lvgl/lvgl/src/widgets/../core/lv_obj_style_gen.h **** }
 204:Drivers/lvgl/lvgl/src/widgets/../core/lv_obj_style_gen.h **** 
 205:Drivers/lvgl/lvgl/src/widgets/../core/lv_obj_style_gen.h **** static inline lv_opa_t lv_obj_get_style_bg_img_opa(const struct _lv_obj_t * obj, uint32_t part)
 206:Drivers/lvgl/lvgl/src/widgets/../core/lv_obj_style_gen.h **** {
 207:Drivers/lvgl/lvgl/src/widgets/../core/lv_obj_style_gen.h ****     lv_style_value_t v = lv_obj_get_style_prop(obj, part, LV_STYLE_BG_IMG_OPA);
 208:Drivers/lvgl/lvgl/src/widgets/../core/lv_obj_style_gen.h ****     return (lv_opa_t)v.num;
 209:Drivers/lvgl/lvgl/src/widgets/../core/lv_obj_style_gen.h **** }
 210:Drivers/lvgl/lvgl/src/widgets/../core/lv_obj_style_gen.h **** 
 211:Drivers/lvgl/lvgl/src/widgets/../core/lv_obj_style_gen.h **** static inline lv_color_t lv_obj_get_style_bg_img_recolor(const struct _lv_obj_t * obj, uint32_t par
 212:Drivers/lvgl/lvgl/src/widgets/../core/lv_obj_style_gen.h **** {
 213:Drivers/lvgl/lvgl/src/widgets/../core/lv_obj_style_gen.h ****     lv_style_value_t v = lv_obj_get_style_prop(obj, part, LV_STYLE_BG_IMG_RECOLOR);
 214:Drivers/lvgl/lvgl/src/widgets/../core/lv_obj_style_gen.h ****     return v.color;
 215:Drivers/lvgl/lvgl/src/widgets/../core/lv_obj_style_gen.h **** }
 216:Drivers/lvgl/lvgl/src/widgets/../core/lv_obj_style_gen.h **** 
 217:Drivers/lvgl/lvgl/src/widgets/../core/lv_obj_style_gen.h **** static inline lv_color_t lv_obj_get_style_bg_img_recolor_filtered(const struct _lv_obj_t * obj, uin
 218:Drivers/lvgl/lvgl/src/widgets/../core/lv_obj_style_gen.h **** {
 219:Drivers/lvgl/lvgl/src/widgets/../core/lv_obj_style_gen.h ****     lv_style_value_t v = _lv_obj_style_apply_color_filter(obj, part, lv_obj_get_style_prop(obj, par
 220:Drivers/lvgl/lvgl/src/widgets/../core/lv_obj_style_gen.h ****     return v.color;
 221:Drivers/lvgl/lvgl/src/widgets/../core/lv_obj_style_gen.h **** }
 222:Drivers/lvgl/lvgl/src/widgets/../core/lv_obj_style_gen.h **** 
 223:Drivers/lvgl/lvgl/src/widgets/../core/lv_obj_style_gen.h **** static inline lv_opa_t lv_obj_get_style_bg_img_recolor_opa(const struct _lv_obj_t * obj, uint32_t p
 224:Drivers/lvgl/lvgl/src/widgets/../core/lv_obj_style_gen.h **** {
 225:Drivers/lvgl/lvgl/src/widgets/../core/lv_obj_style_gen.h ****     lv_style_value_t v = lv_obj_get_style_prop(obj, part, LV_STYLE_BG_IMG_RECOLOR_OPA);
 226:Drivers/lvgl/lvgl/src/widgets/../core/lv_obj_style_gen.h ****     return (lv_opa_t)v.num;
 227:Drivers/lvgl/lvgl/src/widgets/../core/lv_obj_style_gen.h **** }
 228:Drivers/lvgl/lvgl/src/widgets/../core/lv_obj_style_gen.h **** 
 229:Drivers/lvgl/lvgl/src/widgets/../core/lv_obj_style_gen.h **** static inline bool lv_obj_get_style_bg_img_tiled(const struct _lv_obj_t * obj, uint32_t part)
 230:Drivers/lvgl/lvgl/src/widgets/../core/lv_obj_style_gen.h **** {
 231:Drivers/lvgl/lvgl/src/widgets/../core/lv_obj_style_gen.h ****     lv_style_value_t v = lv_obj_get_style_prop(obj, part, LV_STYLE_BG_IMG_TILED);
 232:Drivers/lvgl/lvgl/src/widgets/../core/lv_obj_style_gen.h ****     return (bool)v.num;
 233:Drivers/lvgl/lvgl/src/widgets/../core/lv_obj_style_gen.h **** }
 234:Drivers/lvgl/lvgl/src/widgets/../core/lv_obj_style_gen.h **** 
 235:Drivers/lvgl/lvgl/src/widgets/../core/lv_obj_style_gen.h **** static inline lv_color_t lv_obj_get_style_border_color(const struct _lv_obj_t * obj, uint32_t part)
 236:Drivers/lvgl/lvgl/src/widgets/../core/lv_obj_style_gen.h **** {
 237:Drivers/lvgl/lvgl/src/widgets/../core/lv_obj_style_gen.h ****     lv_style_value_t v = lv_obj_get_style_prop(obj, part, LV_STYLE_BORDER_COLOR);
 238:Drivers/lvgl/lvgl/src/widgets/../core/lv_obj_style_gen.h ****     return v.color;
 239:Drivers/lvgl/lvgl/src/widgets/../core/lv_obj_style_gen.h **** }
 240:Drivers/lvgl/lvgl/src/widgets/../core/lv_obj_style_gen.h **** 
 241:Drivers/lvgl/lvgl/src/widgets/../core/lv_obj_style_gen.h **** static inline lv_color_t lv_obj_get_style_border_color_filtered(const struct _lv_obj_t * obj, uint3
 242:Drivers/lvgl/lvgl/src/widgets/../core/lv_obj_style_gen.h **** {
 243:Drivers/lvgl/lvgl/src/widgets/../core/lv_obj_style_gen.h ****     lv_style_value_t v = _lv_obj_style_apply_color_filter(obj, part, lv_obj_get_style_prop(obj, par
 244:Drivers/lvgl/lvgl/src/widgets/../core/lv_obj_style_gen.h ****     return v.color;
 245:Drivers/lvgl/lvgl/src/widgets/../core/lv_obj_style_gen.h **** }
 246:Drivers/lvgl/lvgl/src/widgets/../core/lv_obj_style_gen.h **** 
 247:Drivers/lvgl/lvgl/src/widgets/../core/lv_obj_style_gen.h **** static inline lv_opa_t lv_obj_get_style_border_opa(const struct _lv_obj_t * obj, uint32_t part)
 248:Drivers/lvgl/lvgl/src/widgets/../core/lv_obj_style_gen.h **** {
 249:Drivers/lvgl/lvgl/src/widgets/../core/lv_obj_style_gen.h ****     lv_style_value_t v = lv_obj_get_style_prop(obj, part, LV_STYLE_BORDER_OPA);
 250:Drivers/lvgl/lvgl/src/widgets/../core/lv_obj_style_gen.h ****     return (lv_opa_t)v.num;
ARM GAS  /tmp/ccpV5owi.s 			page 61


 251:Drivers/lvgl/lvgl/src/widgets/../core/lv_obj_style_gen.h **** }
 252:Drivers/lvgl/lvgl/src/widgets/../core/lv_obj_style_gen.h **** 
 253:Drivers/lvgl/lvgl/src/widgets/../core/lv_obj_style_gen.h **** static inline lv_coord_t lv_obj_get_style_border_width(const struct _lv_obj_t * obj, uint32_t part)
 254:Drivers/lvgl/lvgl/src/widgets/../core/lv_obj_style_gen.h **** {
 255:Drivers/lvgl/lvgl/src/widgets/../core/lv_obj_style_gen.h ****     lv_style_value_t v = lv_obj_get_style_prop(obj, part, LV_STYLE_BORDER_WIDTH);
 256:Drivers/lvgl/lvgl/src/widgets/../core/lv_obj_style_gen.h ****     return (lv_coord_t)v.num;
 257:Drivers/lvgl/lvgl/src/widgets/../core/lv_obj_style_gen.h **** }
 258:Drivers/lvgl/lvgl/src/widgets/../core/lv_obj_style_gen.h **** 
 259:Drivers/lvgl/lvgl/src/widgets/../core/lv_obj_style_gen.h **** static inline lv_border_side_t lv_obj_get_style_border_side(const struct _lv_obj_t * obj, uint32_t 
 260:Drivers/lvgl/lvgl/src/widgets/../core/lv_obj_style_gen.h **** {
 261:Drivers/lvgl/lvgl/src/widgets/../core/lv_obj_style_gen.h ****     lv_style_value_t v = lv_obj_get_style_prop(obj, part, LV_STYLE_BORDER_SIDE);
 262:Drivers/lvgl/lvgl/src/widgets/../core/lv_obj_style_gen.h ****     return (lv_border_side_t)v.num;
 263:Drivers/lvgl/lvgl/src/widgets/../core/lv_obj_style_gen.h **** }
 264:Drivers/lvgl/lvgl/src/widgets/../core/lv_obj_style_gen.h **** 
 265:Drivers/lvgl/lvgl/src/widgets/../core/lv_obj_style_gen.h **** static inline bool lv_obj_get_style_border_post(const struct _lv_obj_t * obj, uint32_t part)
 266:Drivers/lvgl/lvgl/src/widgets/../core/lv_obj_style_gen.h **** {
 267:Drivers/lvgl/lvgl/src/widgets/../core/lv_obj_style_gen.h ****     lv_style_value_t v = lv_obj_get_style_prop(obj, part, LV_STYLE_BORDER_POST);
 268:Drivers/lvgl/lvgl/src/widgets/../core/lv_obj_style_gen.h ****     return (bool)v.num;
 269:Drivers/lvgl/lvgl/src/widgets/../core/lv_obj_style_gen.h **** }
 270:Drivers/lvgl/lvgl/src/widgets/../core/lv_obj_style_gen.h **** 
 271:Drivers/lvgl/lvgl/src/widgets/../core/lv_obj_style_gen.h **** static inline lv_coord_t lv_obj_get_style_outline_width(const struct _lv_obj_t * obj, uint32_t part
 272:Drivers/lvgl/lvgl/src/widgets/../core/lv_obj_style_gen.h **** {
 273:Drivers/lvgl/lvgl/src/widgets/../core/lv_obj_style_gen.h ****     lv_style_value_t v = lv_obj_get_style_prop(obj, part, LV_STYLE_OUTLINE_WIDTH);
 274:Drivers/lvgl/lvgl/src/widgets/../core/lv_obj_style_gen.h ****     return (lv_coord_t)v.num;
 275:Drivers/lvgl/lvgl/src/widgets/../core/lv_obj_style_gen.h **** }
 276:Drivers/lvgl/lvgl/src/widgets/../core/lv_obj_style_gen.h **** 
 277:Drivers/lvgl/lvgl/src/widgets/../core/lv_obj_style_gen.h **** static inline lv_color_t lv_obj_get_style_outline_color(const struct _lv_obj_t * obj, uint32_t part
 278:Drivers/lvgl/lvgl/src/widgets/../core/lv_obj_style_gen.h **** {
 279:Drivers/lvgl/lvgl/src/widgets/../core/lv_obj_style_gen.h ****     lv_style_value_t v = lv_obj_get_style_prop(obj, part, LV_STYLE_OUTLINE_COLOR);
 280:Drivers/lvgl/lvgl/src/widgets/../core/lv_obj_style_gen.h ****     return v.color;
 281:Drivers/lvgl/lvgl/src/widgets/../core/lv_obj_style_gen.h **** }
 282:Drivers/lvgl/lvgl/src/widgets/../core/lv_obj_style_gen.h **** 
 283:Drivers/lvgl/lvgl/src/widgets/../core/lv_obj_style_gen.h **** static inline lv_color_t lv_obj_get_style_outline_color_filtered(const struct _lv_obj_t * obj, uint
 284:Drivers/lvgl/lvgl/src/widgets/../core/lv_obj_style_gen.h **** {
 285:Drivers/lvgl/lvgl/src/widgets/../core/lv_obj_style_gen.h ****     lv_style_value_t v = _lv_obj_style_apply_color_filter(obj, part, lv_obj_get_style_prop(obj, par
 286:Drivers/lvgl/lvgl/src/widgets/../core/lv_obj_style_gen.h ****     return v.color;
 287:Drivers/lvgl/lvgl/src/widgets/../core/lv_obj_style_gen.h **** }
 288:Drivers/lvgl/lvgl/src/widgets/../core/lv_obj_style_gen.h **** 
 289:Drivers/lvgl/lvgl/src/widgets/../core/lv_obj_style_gen.h **** static inline lv_opa_t lv_obj_get_style_outline_opa(const struct _lv_obj_t * obj, uint32_t part)
 290:Drivers/lvgl/lvgl/src/widgets/../core/lv_obj_style_gen.h **** {
 291:Drivers/lvgl/lvgl/src/widgets/../core/lv_obj_style_gen.h ****     lv_style_value_t v = lv_obj_get_style_prop(obj, part, LV_STYLE_OUTLINE_OPA);
 292:Drivers/lvgl/lvgl/src/widgets/../core/lv_obj_style_gen.h ****     return (lv_opa_t)v.num;
 293:Drivers/lvgl/lvgl/src/widgets/../core/lv_obj_style_gen.h **** }
 294:Drivers/lvgl/lvgl/src/widgets/../core/lv_obj_style_gen.h **** 
 295:Drivers/lvgl/lvgl/src/widgets/../core/lv_obj_style_gen.h **** static inline lv_coord_t lv_obj_get_style_outline_pad(const struct _lv_obj_t * obj, uint32_t part)
 296:Drivers/lvgl/lvgl/src/widgets/../core/lv_obj_style_gen.h **** {
 297:Drivers/lvgl/lvgl/src/widgets/../core/lv_obj_style_gen.h ****     lv_style_value_t v = lv_obj_get_style_prop(obj, part, LV_STYLE_OUTLINE_PAD);
 298:Drivers/lvgl/lvgl/src/widgets/../core/lv_obj_style_gen.h ****     return (lv_coord_t)v.num;
 299:Drivers/lvgl/lvgl/src/widgets/../core/lv_obj_style_gen.h **** }
 300:Drivers/lvgl/lvgl/src/widgets/../core/lv_obj_style_gen.h **** 
 301:Drivers/lvgl/lvgl/src/widgets/../core/lv_obj_style_gen.h **** static inline lv_coord_t lv_obj_get_style_shadow_width(const struct _lv_obj_t * obj, uint32_t part)
 302:Drivers/lvgl/lvgl/src/widgets/../core/lv_obj_style_gen.h **** {
 303:Drivers/lvgl/lvgl/src/widgets/../core/lv_obj_style_gen.h ****     lv_style_value_t v = lv_obj_get_style_prop(obj, part, LV_STYLE_SHADOW_WIDTH);
 304:Drivers/lvgl/lvgl/src/widgets/../core/lv_obj_style_gen.h ****     return (lv_coord_t)v.num;
 305:Drivers/lvgl/lvgl/src/widgets/../core/lv_obj_style_gen.h **** }
 306:Drivers/lvgl/lvgl/src/widgets/../core/lv_obj_style_gen.h **** 
 307:Drivers/lvgl/lvgl/src/widgets/../core/lv_obj_style_gen.h **** static inline lv_coord_t lv_obj_get_style_shadow_ofs_x(const struct _lv_obj_t * obj, uint32_t part)
ARM GAS  /tmp/ccpV5owi.s 			page 62


 308:Drivers/lvgl/lvgl/src/widgets/../core/lv_obj_style_gen.h **** {
 309:Drivers/lvgl/lvgl/src/widgets/../core/lv_obj_style_gen.h ****     lv_style_value_t v = lv_obj_get_style_prop(obj, part, LV_STYLE_SHADOW_OFS_X);
 310:Drivers/lvgl/lvgl/src/widgets/../core/lv_obj_style_gen.h ****     return (lv_coord_t)v.num;
 311:Drivers/lvgl/lvgl/src/widgets/../core/lv_obj_style_gen.h **** }
 312:Drivers/lvgl/lvgl/src/widgets/../core/lv_obj_style_gen.h **** 
 313:Drivers/lvgl/lvgl/src/widgets/../core/lv_obj_style_gen.h **** static inline lv_coord_t lv_obj_get_style_shadow_ofs_y(const struct _lv_obj_t * obj, uint32_t part)
 314:Drivers/lvgl/lvgl/src/widgets/../core/lv_obj_style_gen.h **** {
 315:Drivers/lvgl/lvgl/src/widgets/../core/lv_obj_style_gen.h ****     lv_style_value_t v = lv_obj_get_style_prop(obj, part, LV_STYLE_SHADOW_OFS_Y);
 316:Drivers/lvgl/lvgl/src/widgets/../core/lv_obj_style_gen.h ****     return (lv_coord_t)v.num;
 317:Drivers/lvgl/lvgl/src/widgets/../core/lv_obj_style_gen.h **** }
 318:Drivers/lvgl/lvgl/src/widgets/../core/lv_obj_style_gen.h **** 
 319:Drivers/lvgl/lvgl/src/widgets/../core/lv_obj_style_gen.h **** static inline lv_coord_t lv_obj_get_style_shadow_spread(const struct _lv_obj_t * obj, uint32_t part
 320:Drivers/lvgl/lvgl/src/widgets/../core/lv_obj_style_gen.h **** {
 321:Drivers/lvgl/lvgl/src/widgets/../core/lv_obj_style_gen.h ****     lv_style_value_t v = lv_obj_get_style_prop(obj, part, LV_STYLE_SHADOW_SPREAD);
 322:Drivers/lvgl/lvgl/src/widgets/../core/lv_obj_style_gen.h ****     return (lv_coord_t)v.num;
 323:Drivers/lvgl/lvgl/src/widgets/../core/lv_obj_style_gen.h **** }
 324:Drivers/lvgl/lvgl/src/widgets/../core/lv_obj_style_gen.h **** 
 325:Drivers/lvgl/lvgl/src/widgets/../core/lv_obj_style_gen.h **** static inline lv_color_t lv_obj_get_style_shadow_color(const struct _lv_obj_t * obj, uint32_t part)
 326:Drivers/lvgl/lvgl/src/widgets/../core/lv_obj_style_gen.h **** {
 327:Drivers/lvgl/lvgl/src/widgets/../core/lv_obj_style_gen.h ****     lv_style_value_t v = lv_obj_get_style_prop(obj, part, LV_STYLE_SHADOW_COLOR);
 328:Drivers/lvgl/lvgl/src/widgets/../core/lv_obj_style_gen.h ****     return v.color;
 329:Drivers/lvgl/lvgl/src/widgets/../core/lv_obj_style_gen.h **** }
 330:Drivers/lvgl/lvgl/src/widgets/../core/lv_obj_style_gen.h **** 
 331:Drivers/lvgl/lvgl/src/widgets/../core/lv_obj_style_gen.h **** static inline lv_color_t lv_obj_get_style_shadow_color_filtered(const struct _lv_obj_t * obj, uint3
 332:Drivers/lvgl/lvgl/src/widgets/../core/lv_obj_style_gen.h **** {
 333:Drivers/lvgl/lvgl/src/widgets/../core/lv_obj_style_gen.h ****     lv_style_value_t v = _lv_obj_style_apply_color_filter(obj, part, lv_obj_get_style_prop(obj, par
 334:Drivers/lvgl/lvgl/src/widgets/../core/lv_obj_style_gen.h ****     return v.color;
 335:Drivers/lvgl/lvgl/src/widgets/../core/lv_obj_style_gen.h **** }
 336:Drivers/lvgl/lvgl/src/widgets/../core/lv_obj_style_gen.h **** 
 337:Drivers/lvgl/lvgl/src/widgets/../core/lv_obj_style_gen.h **** static inline lv_opa_t lv_obj_get_style_shadow_opa(const struct _lv_obj_t * obj, uint32_t part)
 338:Drivers/lvgl/lvgl/src/widgets/../core/lv_obj_style_gen.h **** {
 339:Drivers/lvgl/lvgl/src/widgets/../core/lv_obj_style_gen.h ****     lv_style_value_t v = lv_obj_get_style_prop(obj, part, LV_STYLE_SHADOW_OPA);
 340:Drivers/lvgl/lvgl/src/widgets/../core/lv_obj_style_gen.h ****     return (lv_opa_t)v.num;
 341:Drivers/lvgl/lvgl/src/widgets/../core/lv_obj_style_gen.h **** }
 342:Drivers/lvgl/lvgl/src/widgets/../core/lv_obj_style_gen.h **** 
 343:Drivers/lvgl/lvgl/src/widgets/../core/lv_obj_style_gen.h **** static inline lv_opa_t lv_obj_get_style_img_opa(const struct _lv_obj_t * obj, uint32_t part)
 344:Drivers/lvgl/lvgl/src/widgets/../core/lv_obj_style_gen.h **** {
 345:Drivers/lvgl/lvgl/src/widgets/../core/lv_obj_style_gen.h ****     lv_style_value_t v = lv_obj_get_style_prop(obj, part, LV_STYLE_IMG_OPA);
 346:Drivers/lvgl/lvgl/src/widgets/../core/lv_obj_style_gen.h ****     return (lv_opa_t)v.num;
 347:Drivers/lvgl/lvgl/src/widgets/../core/lv_obj_style_gen.h **** }
 348:Drivers/lvgl/lvgl/src/widgets/../core/lv_obj_style_gen.h **** 
 349:Drivers/lvgl/lvgl/src/widgets/../core/lv_obj_style_gen.h **** static inline lv_color_t lv_obj_get_style_img_recolor(const struct _lv_obj_t * obj, uint32_t part)
 350:Drivers/lvgl/lvgl/src/widgets/../core/lv_obj_style_gen.h **** {
 351:Drivers/lvgl/lvgl/src/widgets/../core/lv_obj_style_gen.h ****     lv_style_value_t v = lv_obj_get_style_prop(obj, part, LV_STYLE_IMG_RECOLOR);
 352:Drivers/lvgl/lvgl/src/widgets/../core/lv_obj_style_gen.h ****     return v.color;
 353:Drivers/lvgl/lvgl/src/widgets/../core/lv_obj_style_gen.h **** }
 354:Drivers/lvgl/lvgl/src/widgets/../core/lv_obj_style_gen.h **** 
 355:Drivers/lvgl/lvgl/src/widgets/../core/lv_obj_style_gen.h **** static inline lv_color_t lv_obj_get_style_img_recolor_filtered(const struct _lv_obj_t * obj, uint32
 356:Drivers/lvgl/lvgl/src/widgets/../core/lv_obj_style_gen.h **** {
 357:Drivers/lvgl/lvgl/src/widgets/../core/lv_obj_style_gen.h ****     lv_style_value_t v = _lv_obj_style_apply_color_filter(obj, part, lv_obj_get_style_prop(obj, par
 358:Drivers/lvgl/lvgl/src/widgets/../core/lv_obj_style_gen.h ****     return v.color;
 359:Drivers/lvgl/lvgl/src/widgets/../core/lv_obj_style_gen.h **** }
 360:Drivers/lvgl/lvgl/src/widgets/../core/lv_obj_style_gen.h **** 
 361:Drivers/lvgl/lvgl/src/widgets/../core/lv_obj_style_gen.h **** static inline lv_opa_t lv_obj_get_style_img_recolor_opa(const struct _lv_obj_t * obj, uint32_t part
 362:Drivers/lvgl/lvgl/src/widgets/../core/lv_obj_style_gen.h **** {
 363:Drivers/lvgl/lvgl/src/widgets/../core/lv_obj_style_gen.h ****     lv_style_value_t v = lv_obj_get_style_prop(obj, part, LV_STYLE_IMG_RECOLOR_OPA);
 364:Drivers/lvgl/lvgl/src/widgets/../core/lv_obj_style_gen.h ****     return (lv_opa_t)v.num;
ARM GAS  /tmp/ccpV5owi.s 			page 63


 365:Drivers/lvgl/lvgl/src/widgets/../core/lv_obj_style_gen.h **** }
 366:Drivers/lvgl/lvgl/src/widgets/../core/lv_obj_style_gen.h **** 
 367:Drivers/lvgl/lvgl/src/widgets/../core/lv_obj_style_gen.h **** static inline lv_coord_t lv_obj_get_style_line_width(const struct _lv_obj_t * obj, uint32_t part)
 368:Drivers/lvgl/lvgl/src/widgets/../core/lv_obj_style_gen.h **** {
 369:Drivers/lvgl/lvgl/src/widgets/../core/lv_obj_style_gen.h ****     lv_style_value_t v = lv_obj_get_style_prop(obj, part, LV_STYLE_LINE_WIDTH);
 370:Drivers/lvgl/lvgl/src/widgets/../core/lv_obj_style_gen.h ****     return (lv_coord_t)v.num;
 371:Drivers/lvgl/lvgl/src/widgets/../core/lv_obj_style_gen.h **** }
 372:Drivers/lvgl/lvgl/src/widgets/../core/lv_obj_style_gen.h **** 
 373:Drivers/lvgl/lvgl/src/widgets/../core/lv_obj_style_gen.h **** static inline lv_coord_t lv_obj_get_style_line_dash_width(const struct _lv_obj_t * obj, uint32_t pa
 374:Drivers/lvgl/lvgl/src/widgets/../core/lv_obj_style_gen.h **** {
 375:Drivers/lvgl/lvgl/src/widgets/../core/lv_obj_style_gen.h ****     lv_style_value_t v = lv_obj_get_style_prop(obj, part, LV_STYLE_LINE_DASH_WIDTH);
 376:Drivers/lvgl/lvgl/src/widgets/../core/lv_obj_style_gen.h ****     return (lv_coord_t)v.num;
 377:Drivers/lvgl/lvgl/src/widgets/../core/lv_obj_style_gen.h **** }
 378:Drivers/lvgl/lvgl/src/widgets/../core/lv_obj_style_gen.h **** 
 379:Drivers/lvgl/lvgl/src/widgets/../core/lv_obj_style_gen.h **** static inline lv_coord_t lv_obj_get_style_line_dash_gap(const struct _lv_obj_t * obj, uint32_t part
 380:Drivers/lvgl/lvgl/src/widgets/../core/lv_obj_style_gen.h **** {
 381:Drivers/lvgl/lvgl/src/widgets/../core/lv_obj_style_gen.h ****     lv_style_value_t v = lv_obj_get_style_prop(obj, part, LV_STYLE_LINE_DASH_GAP);
 382:Drivers/lvgl/lvgl/src/widgets/../core/lv_obj_style_gen.h ****     return (lv_coord_t)v.num;
 383:Drivers/lvgl/lvgl/src/widgets/../core/lv_obj_style_gen.h **** }
 384:Drivers/lvgl/lvgl/src/widgets/../core/lv_obj_style_gen.h **** 
 385:Drivers/lvgl/lvgl/src/widgets/../core/lv_obj_style_gen.h **** static inline bool lv_obj_get_style_line_rounded(const struct _lv_obj_t * obj, uint32_t part)
 386:Drivers/lvgl/lvgl/src/widgets/../core/lv_obj_style_gen.h **** {
 387:Drivers/lvgl/lvgl/src/widgets/../core/lv_obj_style_gen.h ****     lv_style_value_t v = lv_obj_get_style_prop(obj, part, LV_STYLE_LINE_ROUNDED);
 388:Drivers/lvgl/lvgl/src/widgets/../core/lv_obj_style_gen.h ****     return (bool)v.num;
 389:Drivers/lvgl/lvgl/src/widgets/../core/lv_obj_style_gen.h **** }
 390:Drivers/lvgl/lvgl/src/widgets/../core/lv_obj_style_gen.h **** 
 391:Drivers/lvgl/lvgl/src/widgets/../core/lv_obj_style_gen.h **** static inline lv_color_t lv_obj_get_style_line_color(const struct _lv_obj_t * obj, uint32_t part)
 392:Drivers/lvgl/lvgl/src/widgets/../core/lv_obj_style_gen.h **** {
 393:Drivers/lvgl/lvgl/src/widgets/../core/lv_obj_style_gen.h ****     lv_style_value_t v = lv_obj_get_style_prop(obj, part, LV_STYLE_LINE_COLOR);
 394:Drivers/lvgl/lvgl/src/widgets/../core/lv_obj_style_gen.h ****     return v.color;
 395:Drivers/lvgl/lvgl/src/widgets/../core/lv_obj_style_gen.h **** }
 396:Drivers/lvgl/lvgl/src/widgets/../core/lv_obj_style_gen.h **** 
 397:Drivers/lvgl/lvgl/src/widgets/../core/lv_obj_style_gen.h **** static inline lv_color_t lv_obj_get_style_line_color_filtered(const struct _lv_obj_t * obj, uint32_
 398:Drivers/lvgl/lvgl/src/widgets/../core/lv_obj_style_gen.h **** {
 399:Drivers/lvgl/lvgl/src/widgets/../core/lv_obj_style_gen.h ****     lv_style_value_t v = _lv_obj_style_apply_color_filter(obj, part, lv_obj_get_style_prop(obj, par
 400:Drivers/lvgl/lvgl/src/widgets/../core/lv_obj_style_gen.h ****     return v.color;
 401:Drivers/lvgl/lvgl/src/widgets/../core/lv_obj_style_gen.h **** }
 402:Drivers/lvgl/lvgl/src/widgets/../core/lv_obj_style_gen.h **** 
 403:Drivers/lvgl/lvgl/src/widgets/../core/lv_obj_style_gen.h **** static inline lv_opa_t lv_obj_get_style_line_opa(const struct _lv_obj_t * obj, uint32_t part)
 404:Drivers/lvgl/lvgl/src/widgets/../core/lv_obj_style_gen.h **** {
 405:Drivers/lvgl/lvgl/src/widgets/../core/lv_obj_style_gen.h ****     lv_style_value_t v = lv_obj_get_style_prop(obj, part, LV_STYLE_LINE_OPA);
 406:Drivers/lvgl/lvgl/src/widgets/../core/lv_obj_style_gen.h ****     return (lv_opa_t)v.num;
 407:Drivers/lvgl/lvgl/src/widgets/../core/lv_obj_style_gen.h **** }
 408:Drivers/lvgl/lvgl/src/widgets/../core/lv_obj_style_gen.h **** 
 409:Drivers/lvgl/lvgl/src/widgets/../core/lv_obj_style_gen.h **** static inline lv_coord_t lv_obj_get_style_arc_width(const struct _lv_obj_t * obj, uint32_t part)
 410:Drivers/lvgl/lvgl/src/widgets/../core/lv_obj_style_gen.h **** {
 411:Drivers/lvgl/lvgl/src/widgets/../core/lv_obj_style_gen.h ****     lv_style_value_t v = lv_obj_get_style_prop(obj, part, LV_STYLE_ARC_WIDTH);
 412:Drivers/lvgl/lvgl/src/widgets/../core/lv_obj_style_gen.h ****     return (lv_coord_t)v.num;
 413:Drivers/lvgl/lvgl/src/widgets/../core/lv_obj_style_gen.h **** }
 414:Drivers/lvgl/lvgl/src/widgets/../core/lv_obj_style_gen.h **** 
 415:Drivers/lvgl/lvgl/src/widgets/../core/lv_obj_style_gen.h **** static inline bool lv_obj_get_style_arc_rounded(const struct _lv_obj_t * obj, uint32_t part)
 416:Drivers/lvgl/lvgl/src/widgets/../core/lv_obj_style_gen.h **** {
 417:Drivers/lvgl/lvgl/src/widgets/../core/lv_obj_style_gen.h ****     lv_style_value_t v = lv_obj_get_style_prop(obj, part, LV_STYLE_ARC_ROUNDED);
 418:Drivers/lvgl/lvgl/src/widgets/../core/lv_obj_style_gen.h ****     return (bool)v.num;
 419:Drivers/lvgl/lvgl/src/widgets/../core/lv_obj_style_gen.h **** }
 420:Drivers/lvgl/lvgl/src/widgets/../core/lv_obj_style_gen.h **** 
 421:Drivers/lvgl/lvgl/src/widgets/../core/lv_obj_style_gen.h **** static inline lv_color_t lv_obj_get_style_arc_color(const struct _lv_obj_t * obj, uint32_t part)
ARM GAS  /tmp/ccpV5owi.s 			page 64


 422:Drivers/lvgl/lvgl/src/widgets/../core/lv_obj_style_gen.h **** {
 423:Drivers/lvgl/lvgl/src/widgets/../core/lv_obj_style_gen.h ****     lv_style_value_t v = lv_obj_get_style_prop(obj, part, LV_STYLE_ARC_COLOR);
 424:Drivers/lvgl/lvgl/src/widgets/../core/lv_obj_style_gen.h ****     return v.color;
 425:Drivers/lvgl/lvgl/src/widgets/../core/lv_obj_style_gen.h **** }
 426:Drivers/lvgl/lvgl/src/widgets/../core/lv_obj_style_gen.h **** 
 427:Drivers/lvgl/lvgl/src/widgets/../core/lv_obj_style_gen.h **** static inline lv_color_t lv_obj_get_style_arc_color_filtered(const struct _lv_obj_t * obj, uint32_t
 428:Drivers/lvgl/lvgl/src/widgets/../core/lv_obj_style_gen.h **** {
 429:Drivers/lvgl/lvgl/src/widgets/../core/lv_obj_style_gen.h ****     lv_style_value_t v = _lv_obj_style_apply_color_filter(obj, part, lv_obj_get_style_prop(obj, par
 430:Drivers/lvgl/lvgl/src/widgets/../core/lv_obj_style_gen.h ****     return v.color;
 431:Drivers/lvgl/lvgl/src/widgets/../core/lv_obj_style_gen.h **** }
 432:Drivers/lvgl/lvgl/src/widgets/../core/lv_obj_style_gen.h **** 
 433:Drivers/lvgl/lvgl/src/widgets/../core/lv_obj_style_gen.h **** static inline lv_opa_t lv_obj_get_style_arc_opa(const struct _lv_obj_t * obj, uint32_t part)
 434:Drivers/lvgl/lvgl/src/widgets/../core/lv_obj_style_gen.h **** {
 435:Drivers/lvgl/lvgl/src/widgets/../core/lv_obj_style_gen.h ****     lv_style_value_t v = lv_obj_get_style_prop(obj, part, LV_STYLE_ARC_OPA);
 436:Drivers/lvgl/lvgl/src/widgets/../core/lv_obj_style_gen.h ****     return (lv_opa_t)v.num;
 437:Drivers/lvgl/lvgl/src/widgets/../core/lv_obj_style_gen.h **** }
 438:Drivers/lvgl/lvgl/src/widgets/../core/lv_obj_style_gen.h **** 
 439:Drivers/lvgl/lvgl/src/widgets/../core/lv_obj_style_gen.h **** static inline const void * lv_obj_get_style_arc_img_src(const struct _lv_obj_t * obj, uint32_t part
 440:Drivers/lvgl/lvgl/src/widgets/../core/lv_obj_style_gen.h **** {
 441:Drivers/lvgl/lvgl/src/widgets/../core/lv_obj_style_gen.h ****     lv_style_value_t v = lv_obj_get_style_prop(obj, part, LV_STYLE_ARC_IMG_SRC);
 442:Drivers/lvgl/lvgl/src/widgets/../core/lv_obj_style_gen.h ****     return (const void *)v.ptr;
 443:Drivers/lvgl/lvgl/src/widgets/../core/lv_obj_style_gen.h **** }
 444:Drivers/lvgl/lvgl/src/widgets/../core/lv_obj_style_gen.h **** 
 445:Drivers/lvgl/lvgl/src/widgets/../core/lv_obj_style_gen.h **** static inline lv_color_t lv_obj_get_style_text_color(const struct _lv_obj_t * obj, uint32_t part)
 446:Drivers/lvgl/lvgl/src/widgets/../core/lv_obj_style_gen.h **** {
 447:Drivers/lvgl/lvgl/src/widgets/../core/lv_obj_style_gen.h ****     lv_style_value_t v = lv_obj_get_style_prop(obj, part, LV_STYLE_TEXT_COLOR);
 448:Drivers/lvgl/lvgl/src/widgets/../core/lv_obj_style_gen.h ****     return v.color;
 449:Drivers/lvgl/lvgl/src/widgets/../core/lv_obj_style_gen.h **** }
 450:Drivers/lvgl/lvgl/src/widgets/../core/lv_obj_style_gen.h **** 
 451:Drivers/lvgl/lvgl/src/widgets/../core/lv_obj_style_gen.h **** static inline lv_color_t lv_obj_get_style_text_color_filtered(const struct _lv_obj_t * obj, uint32_
 452:Drivers/lvgl/lvgl/src/widgets/../core/lv_obj_style_gen.h **** {
 453:Drivers/lvgl/lvgl/src/widgets/../core/lv_obj_style_gen.h ****     lv_style_value_t v = _lv_obj_style_apply_color_filter(obj, part, lv_obj_get_style_prop(obj, par
 454:Drivers/lvgl/lvgl/src/widgets/../core/lv_obj_style_gen.h ****     return v.color;
 455:Drivers/lvgl/lvgl/src/widgets/../core/lv_obj_style_gen.h **** }
 456:Drivers/lvgl/lvgl/src/widgets/../core/lv_obj_style_gen.h **** 
 457:Drivers/lvgl/lvgl/src/widgets/../core/lv_obj_style_gen.h **** static inline lv_opa_t lv_obj_get_style_text_opa(const struct _lv_obj_t * obj, uint32_t part)
 458:Drivers/lvgl/lvgl/src/widgets/../core/lv_obj_style_gen.h **** {
 459:Drivers/lvgl/lvgl/src/widgets/../core/lv_obj_style_gen.h ****     lv_style_value_t v = lv_obj_get_style_prop(obj, part, LV_STYLE_TEXT_OPA);
 460:Drivers/lvgl/lvgl/src/widgets/../core/lv_obj_style_gen.h ****     return (lv_opa_t)v.num;
 461:Drivers/lvgl/lvgl/src/widgets/../core/lv_obj_style_gen.h **** }
 462:Drivers/lvgl/lvgl/src/widgets/../core/lv_obj_style_gen.h **** 
 463:Drivers/lvgl/lvgl/src/widgets/../core/lv_obj_style_gen.h **** static inline const lv_font_t * lv_obj_get_style_text_font(const struct _lv_obj_t * obj, uint32_t p
 464:Drivers/lvgl/lvgl/src/widgets/../core/lv_obj_style_gen.h **** {
 465:Drivers/lvgl/lvgl/src/widgets/../core/lv_obj_style_gen.h ****     lv_style_value_t v = lv_obj_get_style_prop(obj, part, LV_STYLE_TEXT_FONT);
 466:Drivers/lvgl/lvgl/src/widgets/../core/lv_obj_style_gen.h ****     return (const lv_font_t *)v.ptr;
 467:Drivers/lvgl/lvgl/src/widgets/../core/lv_obj_style_gen.h **** }
 468:Drivers/lvgl/lvgl/src/widgets/../core/lv_obj_style_gen.h **** 
 469:Drivers/lvgl/lvgl/src/widgets/../core/lv_obj_style_gen.h **** static inline lv_coord_t lv_obj_get_style_text_letter_space(const struct _lv_obj_t * obj, uint32_t 
 470:Drivers/lvgl/lvgl/src/widgets/../core/lv_obj_style_gen.h **** {
 471:Drivers/lvgl/lvgl/src/widgets/../core/lv_obj_style_gen.h ****     lv_style_value_t v = lv_obj_get_style_prop(obj, part, LV_STYLE_TEXT_LETTER_SPACE);
 472:Drivers/lvgl/lvgl/src/widgets/../core/lv_obj_style_gen.h ****     return (lv_coord_t)v.num;
 473:Drivers/lvgl/lvgl/src/widgets/../core/lv_obj_style_gen.h **** }
 474:Drivers/lvgl/lvgl/src/widgets/../core/lv_obj_style_gen.h **** 
 475:Drivers/lvgl/lvgl/src/widgets/../core/lv_obj_style_gen.h **** static inline lv_coord_t lv_obj_get_style_text_line_space(const struct _lv_obj_t * obj, uint32_t pa
 476:Drivers/lvgl/lvgl/src/widgets/../core/lv_obj_style_gen.h **** {
 477:Drivers/lvgl/lvgl/src/widgets/../core/lv_obj_style_gen.h ****     lv_style_value_t v = lv_obj_get_style_prop(obj, part, LV_STYLE_TEXT_LINE_SPACE);
 478:Drivers/lvgl/lvgl/src/widgets/../core/lv_obj_style_gen.h ****     return (lv_coord_t)v.num;
ARM GAS  /tmp/ccpV5owi.s 			page 65


 479:Drivers/lvgl/lvgl/src/widgets/../core/lv_obj_style_gen.h **** }
 480:Drivers/lvgl/lvgl/src/widgets/../core/lv_obj_style_gen.h **** 
 481:Drivers/lvgl/lvgl/src/widgets/../core/lv_obj_style_gen.h **** static inline lv_text_decor_t lv_obj_get_style_text_decor(const struct _lv_obj_t * obj, uint32_t pa
 482:Drivers/lvgl/lvgl/src/widgets/../core/lv_obj_style_gen.h **** {
 483:Drivers/lvgl/lvgl/src/widgets/../core/lv_obj_style_gen.h ****     lv_style_value_t v = lv_obj_get_style_prop(obj, part, LV_STYLE_TEXT_DECOR);
 484:Drivers/lvgl/lvgl/src/widgets/../core/lv_obj_style_gen.h ****     return (lv_text_decor_t)v.num;
 485:Drivers/lvgl/lvgl/src/widgets/../core/lv_obj_style_gen.h **** }
 486:Drivers/lvgl/lvgl/src/widgets/../core/lv_obj_style_gen.h **** 
 487:Drivers/lvgl/lvgl/src/widgets/../core/lv_obj_style_gen.h **** static inline lv_text_align_t lv_obj_get_style_text_align(const struct _lv_obj_t * obj, uint32_t pa
 488:Drivers/lvgl/lvgl/src/widgets/../core/lv_obj_style_gen.h **** {
 489:Drivers/lvgl/lvgl/src/widgets/../core/lv_obj_style_gen.h ****     lv_style_value_t v = lv_obj_get_style_prop(obj, part, LV_STYLE_TEXT_ALIGN);
 490:Drivers/lvgl/lvgl/src/widgets/../core/lv_obj_style_gen.h ****     return (lv_text_align_t)v.num;
 491:Drivers/lvgl/lvgl/src/widgets/../core/lv_obj_style_gen.h **** }
 492:Drivers/lvgl/lvgl/src/widgets/../core/lv_obj_style_gen.h **** 
 493:Drivers/lvgl/lvgl/src/widgets/../core/lv_obj_style_gen.h **** static inline lv_coord_t lv_obj_get_style_radius(const struct _lv_obj_t * obj, uint32_t part)
 494:Drivers/lvgl/lvgl/src/widgets/../core/lv_obj_style_gen.h **** {
 495:Drivers/lvgl/lvgl/src/widgets/../core/lv_obj_style_gen.h ****     lv_style_value_t v = lv_obj_get_style_prop(obj, part, LV_STYLE_RADIUS);
 496:Drivers/lvgl/lvgl/src/widgets/../core/lv_obj_style_gen.h ****     return (lv_coord_t)v.num;
 497:Drivers/lvgl/lvgl/src/widgets/../core/lv_obj_style_gen.h **** }
 498:Drivers/lvgl/lvgl/src/widgets/../core/lv_obj_style_gen.h **** 
 499:Drivers/lvgl/lvgl/src/widgets/../core/lv_obj_style_gen.h **** static inline bool lv_obj_get_style_clip_corner(const struct _lv_obj_t * obj, uint32_t part)
 500:Drivers/lvgl/lvgl/src/widgets/../core/lv_obj_style_gen.h **** {
 501:Drivers/lvgl/lvgl/src/widgets/../core/lv_obj_style_gen.h ****     lv_style_value_t v = lv_obj_get_style_prop(obj, part, LV_STYLE_CLIP_CORNER);
 502:Drivers/lvgl/lvgl/src/widgets/../core/lv_obj_style_gen.h ****     return (bool)v.num;
 503:Drivers/lvgl/lvgl/src/widgets/../core/lv_obj_style_gen.h **** }
 504:Drivers/lvgl/lvgl/src/widgets/../core/lv_obj_style_gen.h **** 
 505:Drivers/lvgl/lvgl/src/widgets/../core/lv_obj_style_gen.h **** static inline lv_opa_t lv_obj_get_style_opa(const struct _lv_obj_t * obj, uint32_t part)
 506:Drivers/lvgl/lvgl/src/widgets/../core/lv_obj_style_gen.h **** {
 507:Drivers/lvgl/lvgl/src/widgets/../core/lv_obj_style_gen.h ****     lv_style_value_t v = lv_obj_get_style_prop(obj, part, LV_STYLE_OPA);
 508:Drivers/lvgl/lvgl/src/widgets/../core/lv_obj_style_gen.h ****     return (lv_opa_t)v.num;
 509:Drivers/lvgl/lvgl/src/widgets/../core/lv_obj_style_gen.h **** }
 510:Drivers/lvgl/lvgl/src/widgets/../core/lv_obj_style_gen.h **** 
 511:Drivers/lvgl/lvgl/src/widgets/../core/lv_obj_style_gen.h **** static inline const lv_color_filter_dsc_t * lv_obj_get_style_color_filter_dsc(const struct _lv_obj_
 512:Drivers/lvgl/lvgl/src/widgets/../core/lv_obj_style_gen.h **** {
 513:Drivers/lvgl/lvgl/src/widgets/../core/lv_obj_style_gen.h ****     lv_style_value_t v = lv_obj_get_style_prop(obj, part, LV_STYLE_COLOR_FILTER_DSC);
 514:Drivers/lvgl/lvgl/src/widgets/../core/lv_obj_style_gen.h ****     return (const lv_color_filter_dsc_t *)v.ptr;
 515:Drivers/lvgl/lvgl/src/widgets/../core/lv_obj_style_gen.h **** }
 516:Drivers/lvgl/lvgl/src/widgets/../core/lv_obj_style_gen.h **** 
 517:Drivers/lvgl/lvgl/src/widgets/../core/lv_obj_style_gen.h **** static inline lv_opa_t lv_obj_get_style_color_filter_opa(const struct _lv_obj_t * obj, uint32_t par
 518:Drivers/lvgl/lvgl/src/widgets/../core/lv_obj_style_gen.h **** {
 519:Drivers/lvgl/lvgl/src/widgets/../core/lv_obj_style_gen.h ****     lv_style_value_t v = lv_obj_get_style_prop(obj, part, LV_STYLE_COLOR_FILTER_OPA);
 520:Drivers/lvgl/lvgl/src/widgets/../core/lv_obj_style_gen.h ****     return (lv_opa_t)v.num;
 521:Drivers/lvgl/lvgl/src/widgets/../core/lv_obj_style_gen.h **** }
 522:Drivers/lvgl/lvgl/src/widgets/../core/lv_obj_style_gen.h **** 
 523:Drivers/lvgl/lvgl/src/widgets/../core/lv_obj_style_gen.h **** static inline const lv_anim_t * lv_obj_get_style_anim(const struct _lv_obj_t * obj, uint32_t part)
 524:Drivers/lvgl/lvgl/src/widgets/../core/lv_obj_style_gen.h **** {
 525:Drivers/lvgl/lvgl/src/widgets/../core/lv_obj_style_gen.h ****     lv_style_value_t v = lv_obj_get_style_prop(obj, part, LV_STYLE_ANIM);
 526:Drivers/lvgl/lvgl/src/widgets/../core/lv_obj_style_gen.h ****     return (const lv_anim_t *)v.ptr;
 527:Drivers/lvgl/lvgl/src/widgets/../core/lv_obj_style_gen.h **** }
 528:Drivers/lvgl/lvgl/src/widgets/../core/lv_obj_style_gen.h **** 
 529:Drivers/lvgl/lvgl/src/widgets/../core/lv_obj_style_gen.h **** static inline uint32_t lv_obj_get_style_anim_time(const struct _lv_obj_t * obj, uint32_t part)
 530:Drivers/lvgl/lvgl/src/widgets/../core/lv_obj_style_gen.h **** {
 531:Drivers/lvgl/lvgl/src/widgets/../core/lv_obj_style_gen.h ****     lv_style_value_t v = lv_obj_get_style_prop(obj, part, LV_STYLE_ANIM_TIME);
