ARM GAS  /tmp/cc1pAxfI.s 			page 1


   1              		.cpu cortex-m7
   2              		.eabi_attribute 28, 1
   3              		.eabi_attribute 20, 1
   4              		.eabi_attribute 21, 1
   5              		.eabi_attribute 23, 3
   6              		.eabi_attribute 24, 1
   7              		.eabi_attribute 25, 1
   8              		.eabi_attribute 26, 1
   9              		.eabi_attribute 30, 1
  10              		.eabi_attribute 34, 1
  11              		.eabi_attribute 18, 4
  12              		.file	"lv_calendar_header_arrow.c"
  13              		.text
  14              	.Ltext0:
  15              		.cfi_sections	.debug_frame
  16              		.section	.text.my_constructor,"ax",%progbits
  17              		.align	1
  18              		.syntax unified
  19              		.thumb
  20              		.thumb_func
  21              		.fpu fpv5-d16
  23              	my_constructor:
  24              	.LFB165:
  25              		.file 1 "Drivers/lvgl/lvgl/src/extra/widgets/calendar/lv_calendar_header_arrow.c"
   1:Drivers/lvgl/lvgl/src/extra/widgets/calendar/lv_calendar_header_arrow.c **** /**
   2:Drivers/lvgl/lvgl/src/extra/widgets/calendar/lv_calendar_header_arrow.c ****  * @file lv_calendar_header_arrow.c
   3:Drivers/lvgl/lvgl/src/extra/widgets/calendar/lv_calendar_header_arrow.c ****  *
   4:Drivers/lvgl/lvgl/src/extra/widgets/calendar/lv_calendar_header_arrow.c ****  */
   5:Drivers/lvgl/lvgl/src/extra/widgets/calendar/lv_calendar_header_arrow.c **** 
   6:Drivers/lvgl/lvgl/src/extra/widgets/calendar/lv_calendar_header_arrow.c **** /*********************
   7:Drivers/lvgl/lvgl/src/extra/widgets/calendar/lv_calendar_header_arrow.c ****  *      INCLUDES
   8:Drivers/lvgl/lvgl/src/extra/widgets/calendar/lv_calendar_header_arrow.c ****  *********************/
   9:Drivers/lvgl/lvgl/src/extra/widgets/calendar/lv_calendar_header_arrow.c **** #include "lv_calendar_header_arrow.h"
  10:Drivers/lvgl/lvgl/src/extra/widgets/calendar/lv_calendar_header_arrow.c **** #if LV_USE_CALENDAR_HEADER_ARROW
  11:Drivers/lvgl/lvgl/src/extra/widgets/calendar/lv_calendar_header_arrow.c **** 
  12:Drivers/lvgl/lvgl/src/extra/widgets/calendar/lv_calendar_header_arrow.c **** #include "lv_calendar.h"
  13:Drivers/lvgl/lvgl/src/extra/widgets/calendar/lv_calendar_header_arrow.c **** #include "../../../widgets/lv_btn.h"
  14:Drivers/lvgl/lvgl/src/extra/widgets/calendar/lv_calendar_header_arrow.c **** #include "../../../widgets/lv_label.h"
  15:Drivers/lvgl/lvgl/src/extra/widgets/calendar/lv_calendar_header_arrow.c **** #include "../../layouts/flex/lv_flex.h"
  16:Drivers/lvgl/lvgl/src/extra/widgets/calendar/lv_calendar_header_arrow.c **** 
  17:Drivers/lvgl/lvgl/src/extra/widgets/calendar/lv_calendar_header_arrow.c **** /*********************
  18:Drivers/lvgl/lvgl/src/extra/widgets/calendar/lv_calendar_header_arrow.c ****  *      DEFINES
  19:Drivers/lvgl/lvgl/src/extra/widgets/calendar/lv_calendar_header_arrow.c ****  *********************/
  20:Drivers/lvgl/lvgl/src/extra/widgets/calendar/lv_calendar_header_arrow.c **** 
  21:Drivers/lvgl/lvgl/src/extra/widgets/calendar/lv_calendar_header_arrow.c **** /**********************
  22:Drivers/lvgl/lvgl/src/extra/widgets/calendar/lv_calendar_header_arrow.c ****  *      TYPEDEFS
  23:Drivers/lvgl/lvgl/src/extra/widgets/calendar/lv_calendar_header_arrow.c ****  **********************/
  24:Drivers/lvgl/lvgl/src/extra/widgets/calendar/lv_calendar_header_arrow.c **** 
  25:Drivers/lvgl/lvgl/src/extra/widgets/calendar/lv_calendar_header_arrow.c **** /**********************
  26:Drivers/lvgl/lvgl/src/extra/widgets/calendar/lv_calendar_header_arrow.c ****  *  STATIC PROTOTYPES
  27:Drivers/lvgl/lvgl/src/extra/widgets/calendar/lv_calendar_header_arrow.c ****  **********************/
  28:Drivers/lvgl/lvgl/src/extra/widgets/calendar/lv_calendar_header_arrow.c **** static void my_constructor(const lv_obj_class_t * class_p, lv_obj_t * obj);
  29:Drivers/lvgl/lvgl/src/extra/widgets/calendar/lv_calendar_header_arrow.c **** static void month_event_cb(lv_event_t * e);
  30:Drivers/lvgl/lvgl/src/extra/widgets/calendar/lv_calendar_header_arrow.c **** static void value_changed_event_cb(lv_event_t * e);
  31:Drivers/lvgl/lvgl/src/extra/widgets/calendar/lv_calendar_header_arrow.c **** 
  32:Drivers/lvgl/lvgl/src/extra/widgets/calendar/lv_calendar_header_arrow.c **** /**********************
  33:Drivers/lvgl/lvgl/src/extra/widgets/calendar/lv_calendar_header_arrow.c ****  *  STATIC VARIABLES
ARM GAS  /tmp/cc1pAxfI.s 			page 2


  34:Drivers/lvgl/lvgl/src/extra/widgets/calendar/lv_calendar_header_arrow.c ****  **********************/
  35:Drivers/lvgl/lvgl/src/extra/widgets/calendar/lv_calendar_header_arrow.c **** const lv_obj_class_t lv_calendar_header_arrow_class = {
  36:Drivers/lvgl/lvgl/src/extra/widgets/calendar/lv_calendar_header_arrow.c ****     .base_class = &lv_obj_class,
  37:Drivers/lvgl/lvgl/src/extra/widgets/calendar/lv_calendar_header_arrow.c ****     .constructor_cb = my_constructor,
  38:Drivers/lvgl/lvgl/src/extra/widgets/calendar/lv_calendar_header_arrow.c ****     .width_def = LV_PCT(100),
  39:Drivers/lvgl/lvgl/src/extra/widgets/calendar/lv_calendar_header_arrow.c ****     .height_def = LV_DPI_DEF / 3
  40:Drivers/lvgl/lvgl/src/extra/widgets/calendar/lv_calendar_header_arrow.c **** };
  41:Drivers/lvgl/lvgl/src/extra/widgets/calendar/lv_calendar_header_arrow.c **** 
  42:Drivers/lvgl/lvgl/src/extra/widgets/calendar/lv_calendar_header_arrow.c **** static const char * month_names_def[12] = LV_CALENDAR_DEFAULT_MONTH_NAMES;
  43:Drivers/lvgl/lvgl/src/extra/widgets/calendar/lv_calendar_header_arrow.c **** 
  44:Drivers/lvgl/lvgl/src/extra/widgets/calendar/lv_calendar_header_arrow.c **** /**********************
  45:Drivers/lvgl/lvgl/src/extra/widgets/calendar/lv_calendar_header_arrow.c ****  *      MACROS
  46:Drivers/lvgl/lvgl/src/extra/widgets/calendar/lv_calendar_header_arrow.c ****  **********************/
  47:Drivers/lvgl/lvgl/src/extra/widgets/calendar/lv_calendar_header_arrow.c **** 
  48:Drivers/lvgl/lvgl/src/extra/widgets/calendar/lv_calendar_header_arrow.c **** /**********************
  49:Drivers/lvgl/lvgl/src/extra/widgets/calendar/lv_calendar_header_arrow.c ****  *   GLOBAL FUNCTIONS
  50:Drivers/lvgl/lvgl/src/extra/widgets/calendar/lv_calendar_header_arrow.c ****  **********************/
  51:Drivers/lvgl/lvgl/src/extra/widgets/calendar/lv_calendar_header_arrow.c **** 
  52:Drivers/lvgl/lvgl/src/extra/widgets/calendar/lv_calendar_header_arrow.c **** lv_obj_t * lv_calendar_header_arrow_create(lv_obj_t * parent)
  53:Drivers/lvgl/lvgl/src/extra/widgets/calendar/lv_calendar_header_arrow.c **** {
  54:Drivers/lvgl/lvgl/src/extra/widgets/calendar/lv_calendar_header_arrow.c ****     lv_obj_t * obj = lv_obj_class_create_obj(&lv_calendar_header_arrow_class, parent);
  55:Drivers/lvgl/lvgl/src/extra/widgets/calendar/lv_calendar_header_arrow.c ****     lv_obj_class_init_obj(obj);
  56:Drivers/lvgl/lvgl/src/extra/widgets/calendar/lv_calendar_header_arrow.c ****     return obj;
  57:Drivers/lvgl/lvgl/src/extra/widgets/calendar/lv_calendar_header_arrow.c **** }
  58:Drivers/lvgl/lvgl/src/extra/widgets/calendar/lv_calendar_header_arrow.c **** 
  59:Drivers/lvgl/lvgl/src/extra/widgets/calendar/lv_calendar_header_arrow.c **** /**********************
  60:Drivers/lvgl/lvgl/src/extra/widgets/calendar/lv_calendar_header_arrow.c ****  *  STATIC FUNCTIONS
  61:Drivers/lvgl/lvgl/src/extra/widgets/calendar/lv_calendar_header_arrow.c ****  **********************/
  62:Drivers/lvgl/lvgl/src/extra/widgets/calendar/lv_calendar_header_arrow.c **** 
  63:Drivers/lvgl/lvgl/src/extra/widgets/calendar/lv_calendar_header_arrow.c **** static void my_constructor(const lv_obj_class_t * class_p, lv_obj_t * obj)
  64:Drivers/lvgl/lvgl/src/extra/widgets/calendar/lv_calendar_header_arrow.c **** {
  26              		.loc 1 64 0
  27              		.cfi_startproc
  28              		@ args = 0, pretend = 0, frame = 0
  29              		@ frame_needed = 0, uses_anonymous_args = 0
  30              	.LVL0:
  31 0000 F8B5     		push	{r3, r4, r5, r6, r7, lr}
  32              	.LCFI0:
  33              		.cfi_def_cfa_offset 24
  34              		.cfi_offset 3, -24
  35              		.cfi_offset 4, -20
  36              		.cfi_offset 5, -16
  37              		.cfi_offset 6, -12
  38              		.cfi_offset 7, -8
  39              		.cfi_offset 14, -4
  40 0002 0C46     		mov	r4, r1
  65:Drivers/lvgl/lvgl/src/extra/widgets/calendar/lv_calendar_header_arrow.c ****     LV_TRACE_OBJ_CREATE("begin");
  66:Drivers/lvgl/lvgl/src/extra/widgets/calendar/lv_calendar_header_arrow.c **** 
  67:Drivers/lvgl/lvgl/src/extra/widgets/calendar/lv_calendar_header_arrow.c ****     LV_UNUSED(class_p);
  68:Drivers/lvgl/lvgl/src/extra/widgets/calendar/lv_calendar_header_arrow.c **** 
  69:Drivers/lvgl/lvgl/src/extra/widgets/calendar/lv_calendar_header_arrow.c ****     lv_obj_move_to_index(obj, 0);
  41              		.loc 1 69 0
  42 0004 0021     		movs	r1, #0
  43              	.LVL1:
  44 0006 2046     		mov	r0, r4
  45              	.LVL2:
  46 0008 FFF7FEFF 		bl	lv_obj_move_to_index
ARM GAS  /tmp/cc1pAxfI.s 			page 3


  47              	.LVL3:
  70:Drivers/lvgl/lvgl/src/extra/widgets/calendar/lv_calendar_header_arrow.c **** 
  71:Drivers/lvgl/lvgl/src/extra/widgets/calendar/lv_calendar_header_arrow.c ****     lv_obj_set_flex_flow(obj, LV_FLEX_FLOW_ROW);
  48              		.loc 1 71 0
  49 000c 0021     		movs	r1, #0
  50 000e 2046     		mov	r0, r4
  51 0010 FFF7FEFF 		bl	lv_obj_set_flex_flow
  52              	.LVL4:
  72:Drivers/lvgl/lvgl/src/extra/widgets/calendar/lv_calendar_header_arrow.c ****     lv_obj_set_flex_align(obj, LV_FLEX_ALIGN_START, LV_FLEX_ALIGN_CENTER, LV_FLEX_ALIGN_START);
  53              		.loc 1 72 0
  54 0014 0023     		movs	r3, #0
  55 0016 0222     		movs	r2, #2
  56 0018 1946     		mov	r1, r3
  57 001a 2046     		mov	r0, r4
  58 001c FFF7FEFF 		bl	lv_obj_set_flex_align
  59              	.LVL5:
  73:Drivers/lvgl/lvgl/src/extra/widgets/calendar/lv_calendar_header_arrow.c **** 
  74:Drivers/lvgl/lvgl/src/extra/widgets/calendar/lv_calendar_header_arrow.c ****     lv_obj_t * mo_prev = lv_btn_create(obj);
  60              		.loc 1 74 0
  61 0020 2046     		mov	r0, r4
  62 0022 FFF7FEFF 		bl	lv_btn_create
  63              	.LVL6:
  64 0026 0546     		mov	r5, r0
  65              	.LVL7:
  75:Drivers/lvgl/lvgl/src/extra/widgets/calendar/lv_calendar_header_arrow.c ****     lv_obj_set_style_bg_img_src(mo_prev, LV_SYMBOL_LEFT, 0);
  66              		.loc 1 75 0
  67 0028 0022     		movs	r2, #0
  68 002a 2849     		ldr	r1, .L3
  69 002c FFF7FEFF 		bl	lv_obj_set_style_bg_img_src
  70              	.LVL8:
  76:Drivers/lvgl/lvgl/src/extra/widgets/calendar/lv_calendar_header_arrow.c ****     lv_obj_set_height(mo_prev, lv_pct(100));
  71              		.loc 1 76 0
  72 0030 42F26401 		movw	r1, #8292
  73 0034 2846     		mov	r0, r5
  74 0036 FFF7FEFF 		bl	lv_obj_set_height
  75              	.LVL9:
  77:Drivers/lvgl/lvgl/src/extra/widgets/calendar/lv_calendar_header_arrow.c ****     lv_obj_update_layout(mo_prev);
  76              		.loc 1 77 0
  77 003a 2846     		mov	r0, r5
  78 003c FFF7FEFF 		bl	lv_obj_update_layout
  79              	.LVL10:
  78:Drivers/lvgl/lvgl/src/extra/widgets/calendar/lv_calendar_header_arrow.c ****     lv_coord_t btn_size = lv_obj_get_height(mo_prev);
  80              		.loc 1 78 0
  81 0040 2846     		mov	r0, r5
  82 0042 FFF7FEFF 		bl	lv_obj_get_height
  83              	.LVL11:
  84 0046 0646     		mov	r6, r0
  85              	.LVL12:
  79:Drivers/lvgl/lvgl/src/extra/widgets/calendar/lv_calendar_header_arrow.c ****     lv_obj_set_width(mo_prev, btn_size);
  86              		.loc 1 79 0
  87 0048 0146     		mov	r1, r0
  88 004a 2846     		mov	r0, r5
  89              	.LVL13:
  90 004c FFF7FEFF 		bl	lv_obj_set_width
  91              	.LVL14:
  80:Drivers/lvgl/lvgl/src/extra/widgets/calendar/lv_calendar_header_arrow.c **** 
  81:Drivers/lvgl/lvgl/src/extra/widgets/calendar/lv_calendar_header_arrow.c ****     lv_obj_add_event_cb(mo_prev, month_event_cb, LV_EVENT_CLICKED, NULL);
ARM GAS  /tmp/cc1pAxfI.s 			page 4


  92              		.loc 1 81 0
  93 0050 1F4F     		ldr	r7, .L3+4
  94 0052 0023     		movs	r3, #0
  95 0054 0722     		movs	r2, #7
  96 0056 3946     		mov	r1, r7
  97 0058 2846     		mov	r0, r5
  98 005a FFF7FEFF 		bl	lv_obj_add_event_cb
  99              	.LVL15:
  82:Drivers/lvgl/lvgl/src/extra/widgets/calendar/lv_calendar_header_arrow.c ****     lv_obj_clear_flag(mo_prev, LV_OBJ_FLAG_CLICK_FOCUSABLE);
 100              		.loc 1 82 0
 101 005e 0421     		movs	r1, #4
 102 0060 2846     		mov	r0, r5
 103 0062 FFF7FEFF 		bl	lv_obj_clear_flag
 104              	.LVL16:
  83:Drivers/lvgl/lvgl/src/extra/widgets/calendar/lv_calendar_header_arrow.c **** 
  84:Drivers/lvgl/lvgl/src/extra/widgets/calendar/lv_calendar_header_arrow.c ****     lv_obj_t * label = lv_label_create(obj);
 105              		.loc 1 84 0
 106 0066 2046     		mov	r0, r4
 107 0068 FFF7FEFF 		bl	lv_label_create
 108              	.LVL17:
 109 006c 0546     		mov	r5, r0
 110              	.LVL18:
  85:Drivers/lvgl/lvgl/src/extra/widgets/calendar/lv_calendar_header_arrow.c ****     lv_label_set_long_mode(label, LV_LABEL_LONG_SCROLL_CIRCULAR);
 111              		.loc 1 85 0
 112 006e 0321     		movs	r1, #3
 113 0070 FFF7FEFF 		bl	lv_label_set_long_mode
 114              	.LVL19:
  86:Drivers/lvgl/lvgl/src/extra/widgets/calendar/lv_calendar_header_arrow.c ****     lv_obj_set_style_text_align(label, LV_TEXT_ALIGN_CENTER, 0);
 115              		.loc 1 86 0
 116 0074 0022     		movs	r2, #0
 117 0076 0221     		movs	r1, #2
 118 0078 2846     		mov	r0, r5
 119 007a FFF7FEFF 		bl	lv_obj_set_style_text_align
 120              	.LVL20:
  87:Drivers/lvgl/lvgl/src/extra/widgets/calendar/lv_calendar_header_arrow.c ****     lv_obj_set_flex_grow(label, 1);
 121              		.loc 1 87 0
 122 007e 0121     		movs	r1, #1
 123 0080 2846     		mov	r0, r5
 124 0082 FFF7FEFF 		bl	lv_obj_set_flex_grow
 125              	.LVL21:
  88:Drivers/lvgl/lvgl/src/extra/widgets/calendar/lv_calendar_header_arrow.c **** 
  89:Drivers/lvgl/lvgl/src/extra/widgets/calendar/lv_calendar_header_arrow.c ****     lv_obj_t * mo_next = lv_btn_create(obj);
 126              		.loc 1 89 0
 127 0086 2046     		mov	r0, r4
 128 0088 FFF7FEFF 		bl	lv_btn_create
 129              	.LVL22:
 130 008c 0546     		mov	r5, r0
 131              	.LVL23:
  90:Drivers/lvgl/lvgl/src/extra/widgets/calendar/lv_calendar_header_arrow.c ****     lv_obj_set_style_bg_img_src(mo_next, LV_SYMBOL_RIGHT, 0);
 132              		.loc 1 90 0
 133 008e 0022     		movs	r2, #0
 134 0090 1049     		ldr	r1, .L3+8
 135 0092 FFF7FEFF 		bl	lv_obj_set_style_bg_img_src
 136              	.LVL24:
  91:Drivers/lvgl/lvgl/src/extra/widgets/calendar/lv_calendar_header_arrow.c ****     lv_obj_set_size(mo_next, btn_size, btn_size);
 137              		.loc 1 91 0
 138 0096 3246     		mov	r2, r6
ARM GAS  /tmp/cc1pAxfI.s 			page 5


 139 0098 3146     		mov	r1, r6
 140 009a 2846     		mov	r0, r5
 141 009c FFF7FEFF 		bl	lv_obj_set_size
 142              	.LVL25:
  92:Drivers/lvgl/lvgl/src/extra/widgets/calendar/lv_calendar_header_arrow.c **** 
  93:Drivers/lvgl/lvgl/src/extra/widgets/calendar/lv_calendar_header_arrow.c ****     lv_obj_add_event_cb(mo_next, month_event_cb, LV_EVENT_CLICKED, NULL);
 143              		.loc 1 93 0
 144 00a0 0023     		movs	r3, #0
 145 00a2 0722     		movs	r2, #7
 146 00a4 3946     		mov	r1, r7
 147 00a6 2846     		mov	r0, r5
 148 00a8 FFF7FEFF 		bl	lv_obj_add_event_cb
 149              	.LVL26:
  94:Drivers/lvgl/lvgl/src/extra/widgets/calendar/lv_calendar_header_arrow.c ****     lv_obj_clear_flag(mo_next, LV_OBJ_FLAG_CLICK_FOCUSABLE);
 150              		.loc 1 94 0
 151 00ac 0421     		movs	r1, #4
 152 00ae 2846     		mov	r0, r5
 153 00b0 FFF7FEFF 		bl	lv_obj_clear_flag
 154              	.LVL27:
  95:Drivers/lvgl/lvgl/src/extra/widgets/calendar/lv_calendar_header_arrow.c **** 
  96:Drivers/lvgl/lvgl/src/extra/widgets/calendar/lv_calendar_header_arrow.c ****     lv_obj_add_event_cb(obj, value_changed_event_cb, LV_EVENT_VALUE_CHANGED, NULL);
 155              		.loc 1 96 0
 156 00b4 0023     		movs	r3, #0
 157 00b6 1C22     		movs	r2, #28
 158 00b8 0749     		ldr	r1, .L3+12
 159 00ba 2046     		mov	r0, r4
 160 00bc FFF7FEFF 		bl	lv_obj_add_event_cb
 161              	.LVL28:
  97:Drivers/lvgl/lvgl/src/extra/widgets/calendar/lv_calendar_header_arrow.c ****     /*Refresh the drop downs*/
  98:Drivers/lvgl/lvgl/src/extra/widgets/calendar/lv_calendar_header_arrow.c ****     lv_event_send(obj, LV_EVENT_VALUE_CHANGED, NULL);
 162              		.loc 1 98 0
 163 00c0 0022     		movs	r2, #0
 164 00c2 1C21     		movs	r1, #28
 165 00c4 2046     		mov	r0, r4
 166 00c6 FFF7FEFF 		bl	lv_event_send
 167              	.LVL29:
  99:Drivers/lvgl/lvgl/src/extra/widgets/calendar/lv_calendar_header_arrow.c **** }
 168              		.loc 1 99 0
 169 00ca F8BD     		pop	{r3, r4, r5, r6, r7, pc}
 170              	.LVL30:
 171              	.L4:
 172              		.align	2
 173              	.L3:
 174 00cc 00000000 		.word	.LC0
 175 00d0 00000000 		.word	month_event_cb
 176 00d4 04000000 		.word	.LC1
 177 00d8 00000000 		.word	value_changed_event_cb
 178              		.cfi_endproc
 179              	.LFE165:
 181              		.section	.text.value_changed_event_cb,"ax",%progbits
 182              		.align	1
 183              		.syntax unified
 184              		.thumb
 185              		.thumb_func
 186              		.fpu fpv5-d16
 188              	value_changed_event_cb:
 189              	.LFB167:
ARM GAS  /tmp/cc1pAxfI.s 			page 6


 100:Drivers/lvgl/lvgl/src/extra/widgets/calendar/lv_calendar_header_arrow.c **** 
 101:Drivers/lvgl/lvgl/src/extra/widgets/calendar/lv_calendar_header_arrow.c **** static void month_event_cb(lv_event_t * e)
 102:Drivers/lvgl/lvgl/src/extra/widgets/calendar/lv_calendar_header_arrow.c **** {
 103:Drivers/lvgl/lvgl/src/extra/widgets/calendar/lv_calendar_header_arrow.c ****     lv_obj_t * btn = lv_event_get_target(e);
 104:Drivers/lvgl/lvgl/src/extra/widgets/calendar/lv_calendar_header_arrow.c **** 
 105:Drivers/lvgl/lvgl/src/extra/widgets/calendar/lv_calendar_header_arrow.c ****     lv_obj_t * header = lv_obj_get_parent(btn);
 106:Drivers/lvgl/lvgl/src/extra/widgets/calendar/lv_calendar_header_arrow.c ****     lv_obj_t * calendar = lv_obj_get_parent(header);
 107:Drivers/lvgl/lvgl/src/extra/widgets/calendar/lv_calendar_header_arrow.c **** 
 108:Drivers/lvgl/lvgl/src/extra/widgets/calendar/lv_calendar_header_arrow.c ****     const lv_calendar_date_t * d;
 109:Drivers/lvgl/lvgl/src/extra/widgets/calendar/lv_calendar_header_arrow.c ****     d = lv_calendar_get_showed_date(calendar);
 110:Drivers/lvgl/lvgl/src/extra/widgets/calendar/lv_calendar_header_arrow.c ****     lv_calendar_date_t newd = *d;
 111:Drivers/lvgl/lvgl/src/extra/widgets/calendar/lv_calendar_header_arrow.c **** 
 112:Drivers/lvgl/lvgl/src/extra/widgets/calendar/lv_calendar_header_arrow.c ****     /*The last child is the right button*/
 113:Drivers/lvgl/lvgl/src/extra/widgets/calendar/lv_calendar_header_arrow.c ****     if(lv_obj_get_child(header, 0) == btn) {
 114:Drivers/lvgl/lvgl/src/extra/widgets/calendar/lv_calendar_header_arrow.c ****         if(newd.month == 1) {
 115:Drivers/lvgl/lvgl/src/extra/widgets/calendar/lv_calendar_header_arrow.c ****             newd.month = 12;
 116:Drivers/lvgl/lvgl/src/extra/widgets/calendar/lv_calendar_header_arrow.c ****             newd.year --;
 117:Drivers/lvgl/lvgl/src/extra/widgets/calendar/lv_calendar_header_arrow.c ****         }
 118:Drivers/lvgl/lvgl/src/extra/widgets/calendar/lv_calendar_header_arrow.c ****         else {
 119:Drivers/lvgl/lvgl/src/extra/widgets/calendar/lv_calendar_header_arrow.c ****             newd.month --;
 120:Drivers/lvgl/lvgl/src/extra/widgets/calendar/lv_calendar_header_arrow.c ****         }
 121:Drivers/lvgl/lvgl/src/extra/widgets/calendar/lv_calendar_header_arrow.c ****     }
 122:Drivers/lvgl/lvgl/src/extra/widgets/calendar/lv_calendar_header_arrow.c ****     else {
 123:Drivers/lvgl/lvgl/src/extra/widgets/calendar/lv_calendar_header_arrow.c ****         if(newd.month == 12) {
 124:Drivers/lvgl/lvgl/src/extra/widgets/calendar/lv_calendar_header_arrow.c ****             newd.month = 1;
 125:Drivers/lvgl/lvgl/src/extra/widgets/calendar/lv_calendar_header_arrow.c ****             newd.year ++;
 126:Drivers/lvgl/lvgl/src/extra/widgets/calendar/lv_calendar_header_arrow.c ****         }
 127:Drivers/lvgl/lvgl/src/extra/widgets/calendar/lv_calendar_header_arrow.c ****         else {
 128:Drivers/lvgl/lvgl/src/extra/widgets/calendar/lv_calendar_header_arrow.c ****             newd.month ++;
 129:Drivers/lvgl/lvgl/src/extra/widgets/calendar/lv_calendar_header_arrow.c ****         }
 130:Drivers/lvgl/lvgl/src/extra/widgets/calendar/lv_calendar_header_arrow.c ****     }
 131:Drivers/lvgl/lvgl/src/extra/widgets/calendar/lv_calendar_header_arrow.c **** 
 132:Drivers/lvgl/lvgl/src/extra/widgets/calendar/lv_calendar_header_arrow.c ****     lv_calendar_set_showed_date(calendar, newd.year, newd.month);
 133:Drivers/lvgl/lvgl/src/extra/widgets/calendar/lv_calendar_header_arrow.c **** 
 134:Drivers/lvgl/lvgl/src/extra/widgets/calendar/lv_calendar_header_arrow.c ****     lv_obj_t * label = lv_obj_get_child(header, 1);
 135:Drivers/lvgl/lvgl/src/extra/widgets/calendar/lv_calendar_header_arrow.c ****     lv_label_set_text_fmt(label, "%d %s", newd.year, month_names_def[newd.month - 1]);
 136:Drivers/lvgl/lvgl/src/extra/widgets/calendar/lv_calendar_header_arrow.c **** }
 137:Drivers/lvgl/lvgl/src/extra/widgets/calendar/lv_calendar_header_arrow.c **** 
 138:Drivers/lvgl/lvgl/src/extra/widgets/calendar/lv_calendar_header_arrow.c **** static void value_changed_event_cb(lv_event_t * e)
 139:Drivers/lvgl/lvgl/src/extra/widgets/calendar/lv_calendar_header_arrow.c **** {
 190              		.loc 1 139 0
 191              		.cfi_startproc
 192              		@ args = 0, pretend = 0, frame = 0
 193              		@ frame_needed = 0, uses_anonymous_args = 0
 194              	.LVL31:
 195 0000 38B5     		push	{r3, r4, r5, lr}
 196              	.LCFI1:
 197              		.cfi_def_cfa_offset 16
 198              		.cfi_offset 3, -16
 199              		.cfi_offset 4, -12
 200              		.cfi_offset 5, -8
 201              		.cfi_offset 14, -4
 140:Drivers/lvgl/lvgl/src/extra/widgets/calendar/lv_calendar_header_arrow.c ****     lv_obj_t * header = lv_event_get_target(e);
 202              		.loc 1 140 0
 203 0002 FFF7FEFF 		bl	lv_event_get_target
 204              	.LVL32:
 205 0006 0546     		mov	r5, r0
ARM GAS  /tmp/cc1pAxfI.s 			page 7


 206              	.LVL33:
 141:Drivers/lvgl/lvgl/src/extra/widgets/calendar/lv_calendar_header_arrow.c ****     lv_obj_t * calendar = lv_obj_get_parent(header);
 207              		.loc 1 141 0
 208 0008 FFF7FEFF 		bl	lv_obj_get_parent
 209              	.LVL34:
 142:Drivers/lvgl/lvgl/src/extra/widgets/calendar/lv_calendar_header_arrow.c **** 
 143:Drivers/lvgl/lvgl/src/extra/widgets/calendar/lv_calendar_header_arrow.c ****     const lv_calendar_date_t * cur_date = lv_calendar_get_showed_date(calendar);
 210              		.loc 1 143 0
 211 000c FFF7FEFF 		bl	lv_calendar_get_showed_date
 212              	.LVL35:
 213 0010 0446     		mov	r4, r0
 214              	.LVL36:
 144:Drivers/lvgl/lvgl/src/extra/widgets/calendar/lv_calendar_header_arrow.c ****     lv_obj_t * label = lv_obj_get_child(header, 1);
 215              		.loc 1 144 0
 216 0012 0121     		movs	r1, #1
 217 0014 2846     		mov	r0, r5
 218              	.LVL37:
 219 0016 FFF7FEFF 		bl	lv_obj_get_child
 220              	.LVL38:
 145:Drivers/lvgl/lvgl/src/extra/widgets/calendar/lv_calendar_header_arrow.c ****     lv_label_set_text_fmt(label, "%d %s", cur_date->year, month_names_def[cur_date->month - 1]);
 221              		.loc 1 145 0
 222 001a 94F90230 		ldrsb	r3, [r4, #2]
 223 001e 013B     		subs	r3, r3, #1
 224 0020 034A     		ldr	r2, .L7
 225 0022 52F82330 		ldr	r3, [r2, r3, lsl #2]
 226 0026 2288     		ldrh	r2, [r4]
 227 0028 0249     		ldr	r1, .L7+4
 228 002a FFF7FEFF 		bl	lv_label_set_text_fmt
 229              	.LVL39:
 146:Drivers/lvgl/lvgl/src/extra/widgets/calendar/lv_calendar_header_arrow.c **** }
 230              		.loc 1 146 0
 231 002e 38BD     		pop	{r3, r4, r5, pc}
 232              	.LVL40:
 233              	.L8:
 234              		.align	2
 235              	.L7:
 236 0030 00000000 		.word	.LANCHOR0
 237 0034 00000000 		.word	.LC2
 238              		.cfi_endproc
 239              	.LFE167:
 241              		.section	.text.month_event_cb,"ax",%progbits
 242              		.align	1
 243              		.syntax unified
 244              		.thumb
 245              		.thumb_func
 246              		.fpu fpv5-d16
 248              	month_event_cb:
 249              	.LFB166:
 102:Drivers/lvgl/lvgl/src/extra/widgets/calendar/lv_calendar_header_arrow.c ****     lv_obj_t * btn = lv_event_get_target(e);
 250              		.loc 1 102 0
 251              		.cfi_startproc
 252              		@ args = 0, pretend = 0, frame = 8
 253              		@ frame_needed = 0, uses_anonymous_args = 0
 254              	.LVL41:
 255 0000 F0B5     		push	{r4, r5, r6, r7, lr}
 256              	.LCFI2:
 257              		.cfi_def_cfa_offset 20
ARM GAS  /tmp/cc1pAxfI.s 			page 8


 258              		.cfi_offset 4, -20
 259              		.cfi_offset 5, -16
 260              		.cfi_offset 6, -12
 261              		.cfi_offset 7, -8
 262              		.cfi_offset 14, -4
 263 0002 83B0     		sub	sp, sp, #12
 264              	.LCFI3:
 265              		.cfi_def_cfa_offset 32
 103:Drivers/lvgl/lvgl/src/extra/widgets/calendar/lv_calendar_header_arrow.c **** 
 266              		.loc 1 103 0
 267 0004 FFF7FEFF 		bl	lv_event_get_target
 268              	.LVL42:
 269 0008 0446     		mov	r4, r0
 270              	.LVL43:
 105:Drivers/lvgl/lvgl/src/extra/widgets/calendar/lv_calendar_header_arrow.c ****     lv_obj_t * calendar = lv_obj_get_parent(header);
 271              		.loc 1 105 0
 272 000a FFF7FEFF 		bl	lv_obj_get_parent
 273              	.LVL44:
 274 000e 0646     		mov	r6, r0
 275              	.LVL45:
 106:Drivers/lvgl/lvgl/src/extra/widgets/calendar/lv_calendar_header_arrow.c **** 
 276              		.loc 1 106 0
 277 0010 FFF7FEFF 		bl	lv_obj_get_parent
 278              	.LVL46:
 279 0014 0746     		mov	r7, r0
 280              	.LVL47:
 109:Drivers/lvgl/lvgl/src/extra/widgets/calendar/lv_calendar_header_arrow.c ****     lv_calendar_date_t newd = *d;
 281              		.loc 1 109 0
 282 0016 FFF7FEFF 		bl	lv_calendar_get_showed_date
 283              	.LVL48:
 110:Drivers/lvgl/lvgl/src/extra/widgets/calendar/lv_calendar_header_arrow.c **** 
 284              		.loc 1 110 0
 285 001a 0068     		ldr	r0, [r0]	@ unaligned
 286              	.LVL49:
 287 001c 0190     		str	r0, [sp, #4]
 113:Drivers/lvgl/lvgl/src/extra/widgets/calendar/lv_calendar_header_arrow.c ****         if(newd.month == 1) {
 288              		.loc 1 113 0
 289 001e 0021     		movs	r1, #0
 290 0020 3046     		mov	r0, r6
 291 0022 FFF7FEFF 		bl	lv_obj_get_child
 292              	.LVL50:
 293 0026 8442     		cmp	r4, r0
 294 0028 1DD0     		beq	.L15
 123:Drivers/lvgl/lvgl/src/extra/widgets/calendar/lv_calendar_header_arrow.c ****             newd.month = 1;
 295              		.loc 1 123 0
 296 002a 9DF90630 		ldrsb	r3, [sp, #6]
 297 002e 0C2B     		cmp	r3, #12
 298 0030 2AD0     		beq	.L16
 128:Drivers/lvgl/lvgl/src/extra/widgets/calendar/lv_calendar_header_arrow.c ****         }
 299              		.loc 1 128 0
 300 0032 0133     		adds	r3, r3, #1
 301 0034 8DF80630 		strb	r3, [sp, #6]
 302              	.L12:
 132:Drivers/lvgl/lvgl/src/extra/widgets/calendar/lv_calendar_header_arrow.c **** 
 303              		.loc 1 132 0
 304 0038 BDF80450 		ldrh	r5, [sp, #4]
 305 003c 9DF90640 		ldrsb	r4, [sp, #6]
ARM GAS  /tmp/cc1pAxfI.s 			page 9


 306              	.LVL51:
 307 0040 2246     		mov	r2, r4
 308 0042 2946     		mov	r1, r5
 309 0044 3846     		mov	r0, r7
 310 0046 FFF7FEFF 		bl	lv_calendar_set_showed_date
 311              	.LVL52:
 134:Drivers/lvgl/lvgl/src/extra/widgets/calendar/lv_calendar_header_arrow.c ****     lv_label_set_text_fmt(label, "%d %s", newd.year, month_names_def[newd.month - 1]);
 312              		.loc 1 134 0
 313 004a 0121     		movs	r1, #1
 314 004c 3046     		mov	r0, r6
 315 004e FFF7FEFF 		bl	lv_obj_get_child
 316              	.LVL53:
 135:Drivers/lvgl/lvgl/src/extra/widgets/calendar/lv_calendar_header_arrow.c **** }
 317              		.loc 1 135 0
 318 0052 013C     		subs	r4, r4, #1
 319 0054 114B     		ldr	r3, .L18
 320 0056 53F82430 		ldr	r3, [r3, r4, lsl #2]
 321 005a 2A46     		mov	r2, r5
 322 005c 1049     		ldr	r1, .L18+4
 323 005e FFF7FEFF 		bl	lv_label_set_text_fmt
 324              	.LVL54:
 136:Drivers/lvgl/lvgl/src/extra/widgets/calendar/lv_calendar_header_arrow.c **** 
 325              		.loc 1 136 0
 326 0062 03B0     		add	sp, sp, #12
 327              	.LCFI4:
 328              		.cfi_remember_state
 329              		.cfi_def_cfa_offset 20
 330              		@ sp needed
 331 0064 F0BD     		pop	{r4, r5, r6, r7, pc}
 332              	.LVL55:
 333              	.L15:
 334              	.LCFI5:
 335              		.cfi_restore_state
 114:Drivers/lvgl/lvgl/src/extra/widgets/calendar/lv_calendar_header_arrow.c ****             newd.month = 12;
 336              		.loc 1 114 0
 337 0066 9DF90630 		ldrsb	r3, [sp, #6]
 338 006a 012B     		cmp	r3, #1
 339 006c 03D0     		beq	.L17
 119:Drivers/lvgl/lvgl/src/extra/widgets/calendar/lv_calendar_header_arrow.c ****         }
 340              		.loc 1 119 0
 341 006e 013B     		subs	r3, r3, #1
 342 0070 8DF80630 		strb	r3, [sp, #6]
 343 0074 E0E7     		b	.L12
 344              	.L17:
 115:Drivers/lvgl/lvgl/src/extra/widgets/calendar/lv_calendar_header_arrow.c ****             newd.year --;
 345              		.loc 1 115 0
 346 0076 0C23     		movs	r3, #12
 347 0078 8DF80630 		strb	r3, [sp, #6]
 116:Drivers/lvgl/lvgl/src/extra/widgets/calendar/lv_calendar_header_arrow.c ****         }
 348              		.loc 1 116 0
 349 007c BDF80430 		ldrh	r3, [sp, #4]
 350 0080 013B     		subs	r3, r3, #1
 351 0082 ADF80430 		strh	r3, [sp, #4]	@ movhi
 352 0086 D7E7     		b	.L12
 353              	.L16:
 124:Drivers/lvgl/lvgl/src/extra/widgets/calendar/lv_calendar_header_arrow.c ****             newd.year ++;
 354              		.loc 1 124 0
ARM GAS  /tmp/cc1pAxfI.s 			page 10


 355 0088 0123     		movs	r3, #1
 356 008a 8DF80630 		strb	r3, [sp, #6]
 125:Drivers/lvgl/lvgl/src/extra/widgets/calendar/lv_calendar_header_arrow.c ****         }
 357              		.loc 1 125 0
 358 008e BDF80430 		ldrh	r3, [sp, #4]
 359 0092 0133     		adds	r3, r3, #1
 360 0094 ADF80430 		strh	r3, [sp, #4]	@ movhi
 361 0098 CEE7     		b	.L12
 362              	.L19:
 363 009a 00BF     		.align	2
 364              	.L18:
 365 009c 00000000 		.word	.LANCHOR0
 366 00a0 00000000 		.word	.LC2
 367              		.cfi_endproc
 368              	.LFE166:
 370              		.section	.text.lv_calendar_header_arrow_create,"ax",%progbits
 371              		.align	1
 372              		.global	lv_calendar_header_arrow_create
 373              		.syntax unified
 374              		.thumb
 375              		.thumb_func
 376              		.fpu fpv5-d16
 378              	lv_calendar_header_arrow_create:
 379              	.LFB164:
  53:Drivers/lvgl/lvgl/src/extra/widgets/calendar/lv_calendar_header_arrow.c ****     lv_obj_t * obj = lv_obj_class_create_obj(&lv_calendar_header_arrow_class, parent);
 380              		.loc 1 53 0
 381              		.cfi_startproc
 382              		@ args = 0, pretend = 0, frame = 0
 383              		@ frame_needed = 0, uses_anonymous_args = 0
 384              	.LVL56:
 385 0000 10B5     		push	{r4, lr}
 386              	.LCFI6:
 387              		.cfi_def_cfa_offset 8
 388              		.cfi_offset 4, -8
 389              		.cfi_offset 14, -4
  54:Drivers/lvgl/lvgl/src/extra/widgets/calendar/lv_calendar_header_arrow.c ****     lv_obj_class_init_obj(obj);
 390              		.loc 1 54 0
 391 0002 0146     		mov	r1, r0
 392 0004 0348     		ldr	r0, .L22
 393              	.LVL57:
 394 0006 FFF7FEFF 		bl	lv_obj_class_create_obj
 395              	.LVL58:
 396 000a 0446     		mov	r4, r0
 397              	.LVL59:
  55:Drivers/lvgl/lvgl/src/extra/widgets/calendar/lv_calendar_header_arrow.c ****     return obj;
 398              		.loc 1 55 0
 399 000c FFF7FEFF 		bl	lv_obj_class_init_obj
 400              	.LVL60:
  57:Drivers/lvgl/lvgl/src/extra/widgets/calendar/lv_calendar_header_arrow.c **** 
 401              		.loc 1 57 0
 402 0010 2046     		mov	r0, r4
 403 0012 10BD     		pop	{r4, pc}
 404              	.LVL61:
 405              	.L23:
 406              		.align	2
 407              	.L22:
 408 0014 00000000 		.word	.LANCHOR1
ARM GAS  /tmp/cc1pAxfI.s 			page 11


 409              		.cfi_endproc
 410              	.LFE164:
 412              		.global	lv_calendar_header_arrow_class
 413              		.section	.rodata.lv_calendar_header_arrow_class,"a",%progbits
 414              		.align	2
 415              		.set	.LANCHOR1,. + 0
 418              	lv_calendar_header_arrow_class:
 419 0000 00000000 		.word	lv_obj_class
 420 0004 00000000 		.word	my_constructor
 421 0008 00000000 		.space	12
 421      00000000 
 421      00000000 
 422 0014 6420     		.short	8292
 423 0016 2B00     		.short	43
 424 0018 00000000 		.space	4
 425              		.section	.rodata.month_names_def,"a",%progbits
 426              		.align	2
 427              		.set	.LANCHOR0,. + 0
 430              	month_names_def:
 431 0000 00000000 		.word	.LC3
 432 0004 08000000 		.word	.LC4
 433 0008 14000000 		.word	.LC5
 434 000c 1C000000 		.word	.LC6
 435 0010 24000000 		.word	.LC7
 436 0014 28000000 		.word	.LC8
 437 0018 30000000 		.word	.LC9
 438 001c 38000000 		.word	.LC10
 439 0020 40000000 		.word	.LC11
 440 0024 4C000000 		.word	.LC12
 441 0028 54000000 		.word	.LC13
 442 002c 60000000 		.word	.LC14
 443              		.section	.rodata.my_constructor.str1.4,"aMS",%progbits,1
 444              		.align	2
 445              	.LC0:
 446 0000 EF819300 		.ascii	"\357\201\223\000"
 447              	.LC1:
 448 0004 EF819400 		.ascii	"\357\201\224\000"
 449              		.section	.rodata.str1.4,"aMS",%progbits,1
 450              		.align	2
 451              	.LC3:
 452 0000 4A616E75 		.ascii	"January\000"
 452      61727900 
 453              	.LC4:
 454 0008 46656272 		.ascii	"February\000"
 454      75617279 
 454      00
 455 0011 000000   		.space	3
 456              	.LC5:
 457 0014 4D617263 		.ascii	"March\000"
 457      6800
 458 001a 0000     		.space	2
 459              	.LC6:
 460 001c 41707269 		.ascii	"April\000"
 460      6C00
 461 0022 0000     		.space	2
 462              	.LC7:
 463 0024 4D617900 		.ascii	"May\000"
ARM GAS  /tmp/cc1pAxfI.s 			page 12


 464              	.LC8:
 465 0028 4A756E65 		.ascii	"June\000"
 465      00
 466 002d 000000   		.space	3
 467              	.LC9:
 468 0030 4A756C79 		.ascii	"July\000"
 468      00
 469 0035 000000   		.space	3
 470              	.LC10:
 471 0038 41756775 		.ascii	"August\000"
 471      737400
 472 003f 00       		.space	1
 473              	.LC11:
 474 0040 53657074 		.ascii	"September\000"
 474      656D6265 
 474      7200
 475 004a 0000     		.space	2
 476              	.LC12:
 477 004c 4F63746F 		.ascii	"October\000"
 477      62657200 
 478              	.LC13:
 479 0054 4E6F7665 		.ascii	"November\000"
 479      6D626572 
 479      00
 480 005d 000000   		.space	3
 481              	.LC14:
 482 0060 44656365 		.ascii	"December\000"
 482      6D626572 
 482      00
 483              		.section	.rodata.value_changed_event_cb.str1.4,"aMS",%progbits,1
 484              		.align	2
 485              	.LC2:
 486 0000 25642025 		.ascii	"%d %s\000"
 486      7300
 487              		.text
 488              	.Letext0:
 489              		.file 2 "/opt/gcc-arm-none-eabi-7-2017-q4-major/arm-none-eabi/include/machine/_default_types.h"
 490              		.file 3 "/opt/gcc-arm-none-eabi-7-2017-q4-major/arm-none-eabi/include/sys/_stdint.h"
 491              		.file 4 "Drivers/lvgl/lvgl/src/extra/widgets/calendar/../../../core/../misc/../font/../misc/lv_are
 492              		.file 5 "Drivers/lvgl/lvgl/src/extra/widgets/calendar/../../../core/../misc/../font/lv_font.h"
 493              		.file 6 "/opt/gcc-arm-none-eabi-7-2017-q4-major/arm-none-eabi/include/sys/lock.h"
 494              		.file 7 "/opt/gcc-arm-none-eabi-7-2017-q4-major/arm-none-eabi/include/sys/_types.h"
 495              		.file 8 "/opt/gcc-arm-none-eabi-7-2017-q4-major/lib/gcc/arm-none-eabi/7.2.1/include/stddef.h"
 496              		.file 9 "/opt/gcc-arm-none-eabi-7-2017-q4-major/arm-none-eabi/include/sys/reent.h"
 497              		.file 10 "Drivers/lvgl/lvgl/src/extra/widgets/calendar/../../../core/../misc/lv_color.h"
 498              		.file 11 "Drivers/lvgl/lvgl/src/extra/widgets/calendar/../../../core/../misc/lv_txt.h"
 499              		.file 12 "Drivers/lvgl/lvgl/src/extra/widgets/calendar/../../../core/../misc/lv_style.h"
 500              		.file 13 "Drivers/lvgl/lvgl/src/extra/widgets/calendar/../../../core/lv_obj.h"
 501              		.file 14 "Drivers/lvgl/lvgl/src/extra/widgets/calendar/../../../core/../hal/../misc/lv_ll.h"
 502              		.file 15 "Drivers/lvgl/lvgl/src/extra/widgets/calendar/../../../core/lv_group.h"
 503              		.file 16 "Drivers/lvgl/lvgl/src/extra/widgets/calendar/../../../core/lv_obj_scroll.h"
 504              		.file 17 "Drivers/lvgl/lvgl/src/extra/widgets/calendar/../../../core/lv_obj_style.h"
 505              		.file 18 "Drivers/lvgl/lvgl/src/extra/widgets/calendar/../../../core/lv_obj_class.h"
 506              		.file 19 "Drivers/lvgl/lvgl/src/extra/widgets/calendar/../../../core/lv_event.h"
 507              		.file 20 "Drivers/lvgl/lvgl/src/extra/widgets/calendar/lv_calendar_header_arrow.h"
 508              		.file 21 "Drivers/lvgl/lvgl/src/extra/widgets/calendar/../../../widgets/lv_btnmatrix.h"
 509              		.file 22 "Drivers/lvgl/lvgl/src/extra/widgets/calendar/lv_calendar.h"
ARM GAS  /tmp/cc1pAxfI.s 			page 13


 510              		.file 23 "Drivers/lvgl/lvgl/src/extra/widgets/calendar/../../../widgets/lv_btn.h"
 511              		.file 24 "Drivers/lvgl/lvgl/src/extra/widgets/calendar/../../../widgets/lv_label.h"
 512              		.file 25 "Drivers/lvgl/lvgl/src/extra/widgets/calendar/../../layouts/flex/lv_flex.h"
 513              		.file 26 "Drivers/lvgl/lvgl/src/extra/widgets/calendar/../../../core/lv_obj_tree.h"
 514              		.file 27 "Drivers/lvgl/lvgl/src/extra/widgets/calendar/../../../core/lv_obj_style_gen.h"
 515              		.file 28 "Drivers/lvgl/lvgl/src/extra/widgets/calendar/../../../core/../hal/../draw/sw/../../core/
ARM GAS  /tmp/cc1pAxfI.s 			page 14

