ARM GAS  /tmp/ccbjN9K1.s 			page 1


   1              		.cpu cortex-m7
   2              		.eabi_attribute 28, 1
   3              		.eabi_attribute 20, 1
   4              		.eabi_attribute 21, 1
   5              		.eabi_attribute 23, 3
   6              		.eabi_attribute 24, 1
   7              		.eabi_attribute 25, 1
   8              		.eabi_attribute 26, 1
   9              		.eabi_attribute 30, 1
  10              		.eabi_attribute 34, 1
  11              		.eabi_attribute 18, 4
  12              		.file	"lv_colorwheel.c"
  13              		.text
  14              	.Ltext0:
  15              		.cfi_sections	.debug_frame
  16              		.section	.text.fast_hsv2rgb,"ax",%progbits
  17              		.align	1
  18              		.syntax unified
  19              		.thumb
  20              		.thumb_func
  21              		.fpu fpv5-d16
  23              	fast_hsv2rgb:
  24              	.LFB220:
  25              		.file 1 "Drivers/lvgl/lvgl/src/extra/widgets/colorwheel/lv_colorwheel.c"
   1:Drivers/lvgl/lvgl/src/extra/widgets/colorwheel/lv_colorwheel.c **** /**
   2:Drivers/lvgl/lvgl/src/extra/widgets/colorwheel/lv_colorwheel.c ****  * @file lv_colorwheel.c
   3:Drivers/lvgl/lvgl/src/extra/widgets/colorwheel/lv_colorwheel.c ****  *
   4:Drivers/lvgl/lvgl/src/extra/widgets/colorwheel/lv_colorwheel.c ****  * Based on the work of @AloyseTech and @paulpv.
   5:Drivers/lvgl/lvgl/src/extra/widgets/colorwheel/lv_colorwheel.c ****  */
   6:Drivers/lvgl/lvgl/src/extra/widgets/colorwheel/lv_colorwheel.c **** 
   7:Drivers/lvgl/lvgl/src/extra/widgets/colorwheel/lv_colorwheel.c **** /*********************
   8:Drivers/lvgl/lvgl/src/extra/widgets/colorwheel/lv_colorwheel.c ****  *      INCLUDES
   9:Drivers/lvgl/lvgl/src/extra/widgets/colorwheel/lv_colorwheel.c ****  *********************/
  10:Drivers/lvgl/lvgl/src/extra/widgets/colorwheel/lv_colorwheel.c **** #include "lv_colorwheel.h"
  11:Drivers/lvgl/lvgl/src/extra/widgets/colorwheel/lv_colorwheel.c **** #if LV_USE_COLORWHEEL
  12:Drivers/lvgl/lvgl/src/extra/widgets/colorwheel/lv_colorwheel.c **** 
  13:Drivers/lvgl/lvgl/src/extra/widgets/colorwheel/lv_colorwheel.c **** #include "../../../misc/lv_assert.h"
  14:Drivers/lvgl/lvgl/src/extra/widgets/colorwheel/lv_colorwheel.c **** 
  15:Drivers/lvgl/lvgl/src/extra/widgets/colorwheel/lv_colorwheel.c **** /*********************
  16:Drivers/lvgl/lvgl/src/extra/widgets/colorwheel/lv_colorwheel.c ****  *      DEFINES
  17:Drivers/lvgl/lvgl/src/extra/widgets/colorwheel/lv_colorwheel.c ****  *********************/
  18:Drivers/lvgl/lvgl/src/extra/widgets/colorwheel/lv_colorwheel.c **** #define MY_CLASS &lv_colorwheel_class
  19:Drivers/lvgl/lvgl/src/extra/widgets/colorwheel/lv_colorwheel.c **** 
  20:Drivers/lvgl/lvgl/src/extra/widgets/colorwheel/lv_colorwheel.c **** #define LV_CPICKER_DEF_QF 3
  21:Drivers/lvgl/lvgl/src/extra/widgets/colorwheel/lv_colorwheel.c **** 
  22:Drivers/lvgl/lvgl/src/extra/widgets/colorwheel/lv_colorwheel.c **** /**
  23:Drivers/lvgl/lvgl/src/extra/widgets/colorwheel/lv_colorwheel.c ****  * The OUTER_MASK_WIDTH define is required to assist with the placing of a mask over the outer ring
  24:Drivers/lvgl/lvgl/src/extra/widgets/colorwheel/lv_colorwheel.c ****  * multicoloured radial lines are calculated for the outer ring of the widget their lengths are jit
  25:Drivers/lvgl/lvgl/src/extra/widgets/colorwheel/lv_colorwheel.c ****  * integer based arithmetic. From tests the maximum delta was found to be 2 so the current value is
  26:Drivers/lvgl/lvgl/src/extra/widgets/colorwheel/lv_colorwheel.c ****  * appropriate masking.
  27:Drivers/lvgl/lvgl/src/extra/widgets/colorwheel/lv_colorwheel.c ****  */
  28:Drivers/lvgl/lvgl/src/extra/widgets/colorwheel/lv_colorwheel.c **** #define OUTER_MASK_WIDTH 3
  29:Drivers/lvgl/lvgl/src/extra/widgets/colorwheel/lv_colorwheel.c **** 
  30:Drivers/lvgl/lvgl/src/extra/widgets/colorwheel/lv_colorwheel.c **** /**********************
  31:Drivers/lvgl/lvgl/src/extra/widgets/colorwheel/lv_colorwheel.c ****  *      TYPEDEFS
  32:Drivers/lvgl/lvgl/src/extra/widgets/colorwheel/lv_colorwheel.c ****  **********************/
  33:Drivers/lvgl/lvgl/src/extra/widgets/colorwheel/lv_colorwheel.c **** 
ARM GAS  /tmp/ccbjN9K1.s 			page 2


  34:Drivers/lvgl/lvgl/src/extra/widgets/colorwheel/lv_colorwheel.c **** /**********************
  35:Drivers/lvgl/lvgl/src/extra/widgets/colorwheel/lv_colorwheel.c ****  *  STATIC PROTOTYPES
  36:Drivers/lvgl/lvgl/src/extra/widgets/colorwheel/lv_colorwheel.c ****  **********************/
  37:Drivers/lvgl/lvgl/src/extra/widgets/colorwheel/lv_colorwheel.c **** static void lv_colorwheel_constructor(const lv_obj_class_t * class_p, lv_obj_t * obj);
  38:Drivers/lvgl/lvgl/src/extra/widgets/colorwheel/lv_colorwheel.c **** static void lv_colorwheel_event(const lv_obj_class_t * class_p, lv_event_t * e);
  39:Drivers/lvgl/lvgl/src/extra/widgets/colorwheel/lv_colorwheel.c **** 
  40:Drivers/lvgl/lvgl/src/extra/widgets/colorwheel/lv_colorwheel.c **** static void draw_disc_grad(lv_event_t * e);
  41:Drivers/lvgl/lvgl/src/extra/widgets/colorwheel/lv_colorwheel.c **** static void draw_knob(lv_event_t * e);
  42:Drivers/lvgl/lvgl/src/extra/widgets/colorwheel/lv_colorwheel.c **** static void invalidate_knob(lv_obj_t * obj);
  43:Drivers/lvgl/lvgl/src/extra/widgets/colorwheel/lv_colorwheel.c **** static lv_area_t get_knob_area(lv_obj_t * obj);
  44:Drivers/lvgl/lvgl/src/extra/widgets/colorwheel/lv_colorwheel.c **** 
  45:Drivers/lvgl/lvgl/src/extra/widgets/colorwheel/lv_colorwheel.c **** static void next_color_mode(lv_obj_t * obj);
  46:Drivers/lvgl/lvgl/src/extra/widgets/colorwheel/lv_colorwheel.c **** static lv_res_t double_click_reset(lv_obj_t * obj);
  47:Drivers/lvgl/lvgl/src/extra/widgets/colorwheel/lv_colorwheel.c **** static void refr_knob_pos(lv_obj_t * obj);
  48:Drivers/lvgl/lvgl/src/extra/widgets/colorwheel/lv_colorwheel.c **** static lv_color_t angle_to_mode_color_fast(lv_obj_t * obj, uint16_t angle);
  49:Drivers/lvgl/lvgl/src/extra/widgets/colorwheel/lv_colorwheel.c **** static uint16_t get_angle(lv_obj_t * obj);
  50:Drivers/lvgl/lvgl/src/extra/widgets/colorwheel/lv_colorwheel.c **** 
  51:Drivers/lvgl/lvgl/src/extra/widgets/colorwheel/lv_colorwheel.c **** /**********************
  52:Drivers/lvgl/lvgl/src/extra/widgets/colorwheel/lv_colorwheel.c ****  *  STATIC VARIABLES
  53:Drivers/lvgl/lvgl/src/extra/widgets/colorwheel/lv_colorwheel.c ****  **********************/
  54:Drivers/lvgl/lvgl/src/extra/widgets/colorwheel/lv_colorwheel.c **** const lv_obj_class_t lv_colorwheel_class = {.instance_size = sizeof(lv_colorwheel_t), .base_class =
  55:Drivers/lvgl/lvgl/src/extra/widgets/colorwheel/lv_colorwheel.c ****                                             .constructor_cb = lv_colorwheel_constructor,
  56:Drivers/lvgl/lvgl/src/extra/widgets/colorwheel/lv_colorwheel.c ****                                             .event_cb = lv_colorwheel_event,
  57:Drivers/lvgl/lvgl/src/extra/widgets/colorwheel/lv_colorwheel.c ****                                             .width_def = LV_DPI_DEF * 2,
  58:Drivers/lvgl/lvgl/src/extra/widgets/colorwheel/lv_colorwheel.c ****                                             .height_def = LV_DPI_DEF * 2,
  59:Drivers/lvgl/lvgl/src/extra/widgets/colorwheel/lv_colorwheel.c ****                                             .editable = LV_OBJ_CLASS_EDITABLE_TRUE,
  60:Drivers/lvgl/lvgl/src/extra/widgets/colorwheel/lv_colorwheel.c ****                                            };
  61:Drivers/lvgl/lvgl/src/extra/widgets/colorwheel/lv_colorwheel.c **** 
  62:Drivers/lvgl/lvgl/src/extra/widgets/colorwheel/lv_colorwheel.c **** static bool create_knob_recolor;
  63:Drivers/lvgl/lvgl/src/extra/widgets/colorwheel/lv_colorwheel.c **** 
  64:Drivers/lvgl/lvgl/src/extra/widgets/colorwheel/lv_colorwheel.c **** /**********************
  65:Drivers/lvgl/lvgl/src/extra/widgets/colorwheel/lv_colorwheel.c ****  *      MACROS
  66:Drivers/lvgl/lvgl/src/extra/widgets/colorwheel/lv_colorwheel.c ****  **********************/
  67:Drivers/lvgl/lvgl/src/extra/widgets/colorwheel/lv_colorwheel.c **** 
  68:Drivers/lvgl/lvgl/src/extra/widgets/colorwheel/lv_colorwheel.c **** /**********************
  69:Drivers/lvgl/lvgl/src/extra/widgets/colorwheel/lv_colorwheel.c ****  *   GLOBAL FUNCTIONS
  70:Drivers/lvgl/lvgl/src/extra/widgets/colorwheel/lv_colorwheel.c ****  **********************/
  71:Drivers/lvgl/lvgl/src/extra/widgets/colorwheel/lv_colorwheel.c **** 
  72:Drivers/lvgl/lvgl/src/extra/widgets/colorwheel/lv_colorwheel.c **** /**
  73:Drivers/lvgl/lvgl/src/extra/widgets/colorwheel/lv_colorwheel.c ****  * Create a color_picker object
  74:Drivers/lvgl/lvgl/src/extra/widgets/colorwheel/lv_colorwheel.c ****  * @param parent pointer to an object, it will be the parent of the new color_picker
  75:Drivers/lvgl/lvgl/src/extra/widgets/colorwheel/lv_colorwheel.c ****  * @return pointer to the created color_picker
  76:Drivers/lvgl/lvgl/src/extra/widgets/colorwheel/lv_colorwheel.c ****  */
  77:Drivers/lvgl/lvgl/src/extra/widgets/colorwheel/lv_colorwheel.c **** lv_obj_t * lv_colorwheel_create(lv_obj_t * parent, bool knob_recolor)
  78:Drivers/lvgl/lvgl/src/extra/widgets/colorwheel/lv_colorwheel.c **** {
  79:Drivers/lvgl/lvgl/src/extra/widgets/colorwheel/lv_colorwheel.c ****     LV_LOG_INFO("begin");
  80:Drivers/lvgl/lvgl/src/extra/widgets/colorwheel/lv_colorwheel.c ****     create_knob_recolor = knob_recolor;
  81:Drivers/lvgl/lvgl/src/extra/widgets/colorwheel/lv_colorwheel.c **** 
  82:Drivers/lvgl/lvgl/src/extra/widgets/colorwheel/lv_colorwheel.c ****     lv_obj_t * obj = lv_obj_class_create_obj(MY_CLASS, parent);
  83:Drivers/lvgl/lvgl/src/extra/widgets/colorwheel/lv_colorwheel.c ****     lv_obj_class_init_obj(obj);
  84:Drivers/lvgl/lvgl/src/extra/widgets/colorwheel/lv_colorwheel.c ****     return obj;
  85:Drivers/lvgl/lvgl/src/extra/widgets/colorwheel/lv_colorwheel.c **** }
  86:Drivers/lvgl/lvgl/src/extra/widgets/colorwheel/lv_colorwheel.c **** 
  87:Drivers/lvgl/lvgl/src/extra/widgets/colorwheel/lv_colorwheel.c **** /*=====================
  88:Drivers/lvgl/lvgl/src/extra/widgets/colorwheel/lv_colorwheel.c ****  * Setter functions
  89:Drivers/lvgl/lvgl/src/extra/widgets/colorwheel/lv_colorwheel.c ****  *====================*/
  90:Drivers/lvgl/lvgl/src/extra/widgets/colorwheel/lv_colorwheel.c **** 
ARM GAS  /tmp/ccbjN9K1.s 			page 3


  91:Drivers/lvgl/lvgl/src/extra/widgets/colorwheel/lv_colorwheel.c **** /**
  92:Drivers/lvgl/lvgl/src/extra/widgets/colorwheel/lv_colorwheel.c ****  * Set the current hsv of a color wheel.
  93:Drivers/lvgl/lvgl/src/extra/widgets/colorwheel/lv_colorwheel.c ****  * @param colorwheel pointer to color wheel object
  94:Drivers/lvgl/lvgl/src/extra/widgets/colorwheel/lv_colorwheel.c ****  * @param color current selected hsv
  95:Drivers/lvgl/lvgl/src/extra/widgets/colorwheel/lv_colorwheel.c ****  * @return true if changed, otherwise false
  96:Drivers/lvgl/lvgl/src/extra/widgets/colorwheel/lv_colorwheel.c ****  */
  97:Drivers/lvgl/lvgl/src/extra/widgets/colorwheel/lv_colorwheel.c **** bool lv_colorwheel_set_hsv(lv_obj_t * obj, lv_color_hsv_t hsv)
  98:Drivers/lvgl/lvgl/src/extra/widgets/colorwheel/lv_colorwheel.c **** {
  99:Drivers/lvgl/lvgl/src/extra/widgets/colorwheel/lv_colorwheel.c ****     if(hsv.h > 360) hsv.h %= 360;
 100:Drivers/lvgl/lvgl/src/extra/widgets/colorwheel/lv_colorwheel.c ****     if(hsv.s > 100) hsv.s = 100;
 101:Drivers/lvgl/lvgl/src/extra/widgets/colorwheel/lv_colorwheel.c ****     if(hsv.v > 100) hsv.v = 100;
 102:Drivers/lvgl/lvgl/src/extra/widgets/colorwheel/lv_colorwheel.c **** 
 103:Drivers/lvgl/lvgl/src/extra/widgets/colorwheel/lv_colorwheel.c ****     LV_ASSERT_OBJ(obj, MY_CLASS);
 104:Drivers/lvgl/lvgl/src/extra/widgets/colorwheel/lv_colorwheel.c ****     lv_colorwheel_t * colorwheel = (lv_colorwheel_t *)obj;
 105:Drivers/lvgl/lvgl/src/extra/widgets/colorwheel/lv_colorwheel.c **** 
 106:Drivers/lvgl/lvgl/src/extra/widgets/colorwheel/lv_colorwheel.c ****     if(colorwheel->hsv.h == hsv.h && colorwheel->hsv.s == hsv.s && colorwheel->hsv.v == hsv.v) retu
 107:Drivers/lvgl/lvgl/src/extra/widgets/colorwheel/lv_colorwheel.c **** 
 108:Drivers/lvgl/lvgl/src/extra/widgets/colorwheel/lv_colorwheel.c ****     colorwheel->hsv = hsv;
 109:Drivers/lvgl/lvgl/src/extra/widgets/colorwheel/lv_colorwheel.c **** 
 110:Drivers/lvgl/lvgl/src/extra/widgets/colorwheel/lv_colorwheel.c ****     refr_knob_pos(obj);
 111:Drivers/lvgl/lvgl/src/extra/widgets/colorwheel/lv_colorwheel.c **** 
 112:Drivers/lvgl/lvgl/src/extra/widgets/colorwheel/lv_colorwheel.c ****     lv_obj_invalidate(obj);
 113:Drivers/lvgl/lvgl/src/extra/widgets/colorwheel/lv_colorwheel.c **** 
 114:Drivers/lvgl/lvgl/src/extra/widgets/colorwheel/lv_colorwheel.c ****     return true;
 115:Drivers/lvgl/lvgl/src/extra/widgets/colorwheel/lv_colorwheel.c **** }
 116:Drivers/lvgl/lvgl/src/extra/widgets/colorwheel/lv_colorwheel.c **** 
 117:Drivers/lvgl/lvgl/src/extra/widgets/colorwheel/lv_colorwheel.c **** /**
 118:Drivers/lvgl/lvgl/src/extra/widgets/colorwheel/lv_colorwheel.c ****  * Set the current color of a color wheel.
 119:Drivers/lvgl/lvgl/src/extra/widgets/colorwheel/lv_colorwheel.c ****  * @param colorwheel pointer to color wheel object
 120:Drivers/lvgl/lvgl/src/extra/widgets/colorwheel/lv_colorwheel.c ****  * @param color current selected color
 121:Drivers/lvgl/lvgl/src/extra/widgets/colorwheel/lv_colorwheel.c ****  * @return true if changed, otherwise false
 122:Drivers/lvgl/lvgl/src/extra/widgets/colorwheel/lv_colorwheel.c ****  */
 123:Drivers/lvgl/lvgl/src/extra/widgets/colorwheel/lv_colorwheel.c **** bool lv_colorwheel_set_rgb(lv_obj_t * obj, lv_color_t color)
 124:Drivers/lvgl/lvgl/src/extra/widgets/colorwheel/lv_colorwheel.c **** {
 125:Drivers/lvgl/lvgl/src/extra/widgets/colorwheel/lv_colorwheel.c ****     lv_color32_t c32;
 126:Drivers/lvgl/lvgl/src/extra/widgets/colorwheel/lv_colorwheel.c ****     c32.full = lv_color_to32(color);
 127:Drivers/lvgl/lvgl/src/extra/widgets/colorwheel/lv_colorwheel.c **** 
 128:Drivers/lvgl/lvgl/src/extra/widgets/colorwheel/lv_colorwheel.c ****     return lv_colorwheel_set_hsv(obj,  lv_color_rgb_to_hsv(c32.ch.red, c32.ch.green, c32.ch.blue));
 129:Drivers/lvgl/lvgl/src/extra/widgets/colorwheel/lv_colorwheel.c **** }
 130:Drivers/lvgl/lvgl/src/extra/widgets/colorwheel/lv_colorwheel.c **** 
 131:Drivers/lvgl/lvgl/src/extra/widgets/colorwheel/lv_colorwheel.c **** /**
 132:Drivers/lvgl/lvgl/src/extra/widgets/colorwheel/lv_colorwheel.c ****  * Set the current color mode.
 133:Drivers/lvgl/lvgl/src/extra/widgets/colorwheel/lv_colorwheel.c ****  * @param colorwheel pointer to color wheel object
 134:Drivers/lvgl/lvgl/src/extra/widgets/colorwheel/lv_colorwheel.c ****  * @param mode color mode (hue/sat/val)
 135:Drivers/lvgl/lvgl/src/extra/widgets/colorwheel/lv_colorwheel.c ****  */
 136:Drivers/lvgl/lvgl/src/extra/widgets/colorwheel/lv_colorwheel.c **** void lv_colorwheel_set_mode(lv_obj_t * obj, lv_colorwheel_mode_t mode)
 137:Drivers/lvgl/lvgl/src/extra/widgets/colorwheel/lv_colorwheel.c **** {
 138:Drivers/lvgl/lvgl/src/extra/widgets/colorwheel/lv_colorwheel.c ****     LV_ASSERT_OBJ(obj, MY_CLASS);
 139:Drivers/lvgl/lvgl/src/extra/widgets/colorwheel/lv_colorwheel.c ****     lv_colorwheel_t * colorwheel = (lv_colorwheel_t *)obj;
 140:Drivers/lvgl/lvgl/src/extra/widgets/colorwheel/lv_colorwheel.c **** 
 141:Drivers/lvgl/lvgl/src/extra/widgets/colorwheel/lv_colorwheel.c ****     colorwheel->mode = mode;
 142:Drivers/lvgl/lvgl/src/extra/widgets/colorwheel/lv_colorwheel.c ****     refr_knob_pos(obj);
 143:Drivers/lvgl/lvgl/src/extra/widgets/colorwheel/lv_colorwheel.c ****     lv_obj_invalidate(obj);
 144:Drivers/lvgl/lvgl/src/extra/widgets/colorwheel/lv_colorwheel.c **** }
 145:Drivers/lvgl/lvgl/src/extra/widgets/colorwheel/lv_colorwheel.c **** 
 146:Drivers/lvgl/lvgl/src/extra/widgets/colorwheel/lv_colorwheel.c **** /**
 147:Drivers/lvgl/lvgl/src/extra/widgets/colorwheel/lv_colorwheel.c ****  * Set if the color mode is changed on long press on center
ARM GAS  /tmp/ccbjN9K1.s 			page 4


 148:Drivers/lvgl/lvgl/src/extra/widgets/colorwheel/lv_colorwheel.c ****  * @param colorwheel pointer to color wheel object
 149:Drivers/lvgl/lvgl/src/extra/widgets/colorwheel/lv_colorwheel.c ****  * @param fixed color mode cannot be changed on long press
 150:Drivers/lvgl/lvgl/src/extra/widgets/colorwheel/lv_colorwheel.c ****  */
 151:Drivers/lvgl/lvgl/src/extra/widgets/colorwheel/lv_colorwheel.c **** void lv_colorwheel_set_mode_fixed(lv_obj_t * obj, bool fixed)
 152:Drivers/lvgl/lvgl/src/extra/widgets/colorwheel/lv_colorwheel.c **** {
 153:Drivers/lvgl/lvgl/src/extra/widgets/colorwheel/lv_colorwheel.c ****     LV_ASSERT_OBJ(obj, MY_CLASS);
 154:Drivers/lvgl/lvgl/src/extra/widgets/colorwheel/lv_colorwheel.c ****     lv_colorwheel_t * colorwheel = (lv_colorwheel_t *)obj;
 155:Drivers/lvgl/lvgl/src/extra/widgets/colorwheel/lv_colorwheel.c **** 
 156:Drivers/lvgl/lvgl/src/extra/widgets/colorwheel/lv_colorwheel.c ****     colorwheel->mode_fixed = fixed;
 157:Drivers/lvgl/lvgl/src/extra/widgets/colorwheel/lv_colorwheel.c **** }
 158:Drivers/lvgl/lvgl/src/extra/widgets/colorwheel/lv_colorwheel.c **** 
 159:Drivers/lvgl/lvgl/src/extra/widgets/colorwheel/lv_colorwheel.c **** /*=====================
 160:Drivers/lvgl/lvgl/src/extra/widgets/colorwheel/lv_colorwheel.c ****  * Getter functions
 161:Drivers/lvgl/lvgl/src/extra/widgets/colorwheel/lv_colorwheel.c ****  *====================*/
 162:Drivers/lvgl/lvgl/src/extra/widgets/colorwheel/lv_colorwheel.c **** 
 163:Drivers/lvgl/lvgl/src/extra/widgets/colorwheel/lv_colorwheel.c **** 
 164:Drivers/lvgl/lvgl/src/extra/widgets/colorwheel/lv_colorwheel.c **** /**
 165:Drivers/lvgl/lvgl/src/extra/widgets/colorwheel/lv_colorwheel.c ****  * Get the current selected hsv of a color wheel.
 166:Drivers/lvgl/lvgl/src/extra/widgets/colorwheel/lv_colorwheel.c ****  * @param colorwheel pointer to color wheel object
 167:Drivers/lvgl/lvgl/src/extra/widgets/colorwheel/lv_colorwheel.c ****  * @return current selected hsv
 168:Drivers/lvgl/lvgl/src/extra/widgets/colorwheel/lv_colorwheel.c ****  */
 169:Drivers/lvgl/lvgl/src/extra/widgets/colorwheel/lv_colorwheel.c **** lv_color_hsv_t lv_colorwheel_get_hsv(lv_obj_t * obj)
 170:Drivers/lvgl/lvgl/src/extra/widgets/colorwheel/lv_colorwheel.c **** {
 171:Drivers/lvgl/lvgl/src/extra/widgets/colorwheel/lv_colorwheel.c ****     LV_ASSERT_OBJ(obj, MY_CLASS);
 172:Drivers/lvgl/lvgl/src/extra/widgets/colorwheel/lv_colorwheel.c ****     lv_colorwheel_t * colorwheel = (lv_colorwheel_t *)obj;
 173:Drivers/lvgl/lvgl/src/extra/widgets/colorwheel/lv_colorwheel.c **** 
 174:Drivers/lvgl/lvgl/src/extra/widgets/colorwheel/lv_colorwheel.c ****     return colorwheel->hsv;
 175:Drivers/lvgl/lvgl/src/extra/widgets/colorwheel/lv_colorwheel.c **** }
 176:Drivers/lvgl/lvgl/src/extra/widgets/colorwheel/lv_colorwheel.c **** 
 177:Drivers/lvgl/lvgl/src/extra/widgets/colorwheel/lv_colorwheel.c **** /**
 178:Drivers/lvgl/lvgl/src/extra/widgets/colorwheel/lv_colorwheel.c ****  * Get the current selected color of a color wheel.
 179:Drivers/lvgl/lvgl/src/extra/widgets/colorwheel/lv_colorwheel.c ****  * @param colorwheel pointer to color wheel object
 180:Drivers/lvgl/lvgl/src/extra/widgets/colorwheel/lv_colorwheel.c ****  * @return color current selected color
 181:Drivers/lvgl/lvgl/src/extra/widgets/colorwheel/lv_colorwheel.c ****  */
 182:Drivers/lvgl/lvgl/src/extra/widgets/colorwheel/lv_colorwheel.c **** lv_color_t lv_colorwheel_get_rgb(lv_obj_t * obj)
 183:Drivers/lvgl/lvgl/src/extra/widgets/colorwheel/lv_colorwheel.c **** {
 184:Drivers/lvgl/lvgl/src/extra/widgets/colorwheel/lv_colorwheel.c ****     LV_ASSERT_OBJ(obj, MY_CLASS);
 185:Drivers/lvgl/lvgl/src/extra/widgets/colorwheel/lv_colorwheel.c ****     lv_colorwheel_t * colorwheel = (lv_colorwheel_t *)obj;
 186:Drivers/lvgl/lvgl/src/extra/widgets/colorwheel/lv_colorwheel.c **** 
 187:Drivers/lvgl/lvgl/src/extra/widgets/colorwheel/lv_colorwheel.c ****     return lv_color_hsv_to_rgb(colorwheel->hsv.h, colorwheel->hsv.s, colorwheel->hsv.v);
 188:Drivers/lvgl/lvgl/src/extra/widgets/colorwheel/lv_colorwheel.c **** }
 189:Drivers/lvgl/lvgl/src/extra/widgets/colorwheel/lv_colorwheel.c **** 
 190:Drivers/lvgl/lvgl/src/extra/widgets/colorwheel/lv_colorwheel.c **** /**
 191:Drivers/lvgl/lvgl/src/extra/widgets/colorwheel/lv_colorwheel.c ****  * Get the current color mode.
 192:Drivers/lvgl/lvgl/src/extra/widgets/colorwheel/lv_colorwheel.c ****  * @param colorwheel pointer to color wheel object
 193:Drivers/lvgl/lvgl/src/extra/widgets/colorwheel/lv_colorwheel.c ****  * @return color mode (hue/sat/val)
 194:Drivers/lvgl/lvgl/src/extra/widgets/colorwheel/lv_colorwheel.c ****  */
 195:Drivers/lvgl/lvgl/src/extra/widgets/colorwheel/lv_colorwheel.c **** lv_colorwheel_mode_t lv_colorwheel_get_color_mode(lv_obj_t * obj)
 196:Drivers/lvgl/lvgl/src/extra/widgets/colorwheel/lv_colorwheel.c **** {
 197:Drivers/lvgl/lvgl/src/extra/widgets/colorwheel/lv_colorwheel.c ****     LV_ASSERT_OBJ(obj, MY_CLASS);
 198:Drivers/lvgl/lvgl/src/extra/widgets/colorwheel/lv_colorwheel.c ****     lv_colorwheel_t * colorwheel = (lv_colorwheel_t *)obj;
 199:Drivers/lvgl/lvgl/src/extra/widgets/colorwheel/lv_colorwheel.c **** 
 200:Drivers/lvgl/lvgl/src/extra/widgets/colorwheel/lv_colorwheel.c ****     return colorwheel->mode;
 201:Drivers/lvgl/lvgl/src/extra/widgets/colorwheel/lv_colorwheel.c **** }
 202:Drivers/lvgl/lvgl/src/extra/widgets/colorwheel/lv_colorwheel.c **** 
 203:Drivers/lvgl/lvgl/src/extra/widgets/colorwheel/lv_colorwheel.c **** /**
 204:Drivers/lvgl/lvgl/src/extra/widgets/colorwheel/lv_colorwheel.c ****  * Get if the color mode is changed on long press on center
ARM GAS  /tmp/ccbjN9K1.s 			page 5


 205:Drivers/lvgl/lvgl/src/extra/widgets/colorwheel/lv_colorwheel.c ****  * @param colorwheel pointer to color wheel object
 206:Drivers/lvgl/lvgl/src/extra/widgets/colorwheel/lv_colorwheel.c ****  * @return mode cannot be changed on long press
 207:Drivers/lvgl/lvgl/src/extra/widgets/colorwheel/lv_colorwheel.c ****  */
 208:Drivers/lvgl/lvgl/src/extra/widgets/colorwheel/lv_colorwheel.c **** bool lv_colorwheel_get_color_mode_fixed(lv_obj_t * obj)
 209:Drivers/lvgl/lvgl/src/extra/widgets/colorwheel/lv_colorwheel.c **** {
 210:Drivers/lvgl/lvgl/src/extra/widgets/colorwheel/lv_colorwheel.c ****     LV_ASSERT_OBJ(obj, MY_CLASS);
 211:Drivers/lvgl/lvgl/src/extra/widgets/colorwheel/lv_colorwheel.c ****     lv_colorwheel_t * colorwheel = (lv_colorwheel_t *)obj;
 212:Drivers/lvgl/lvgl/src/extra/widgets/colorwheel/lv_colorwheel.c **** 
 213:Drivers/lvgl/lvgl/src/extra/widgets/colorwheel/lv_colorwheel.c ****     return colorwheel->mode_fixed;
 214:Drivers/lvgl/lvgl/src/extra/widgets/colorwheel/lv_colorwheel.c **** }
 215:Drivers/lvgl/lvgl/src/extra/widgets/colorwheel/lv_colorwheel.c **** 
 216:Drivers/lvgl/lvgl/src/extra/widgets/colorwheel/lv_colorwheel.c **** /*=====================
 217:Drivers/lvgl/lvgl/src/extra/widgets/colorwheel/lv_colorwheel.c ****  * Other functions
 218:Drivers/lvgl/lvgl/src/extra/widgets/colorwheel/lv_colorwheel.c ****  *====================*/
 219:Drivers/lvgl/lvgl/src/extra/widgets/colorwheel/lv_colorwheel.c **** 
 220:Drivers/lvgl/lvgl/src/extra/widgets/colorwheel/lv_colorwheel.c **** /**********************
 221:Drivers/lvgl/lvgl/src/extra/widgets/colorwheel/lv_colorwheel.c ****  *   STATIC FUNCTIONS
 222:Drivers/lvgl/lvgl/src/extra/widgets/colorwheel/lv_colorwheel.c ****  **********************/
 223:Drivers/lvgl/lvgl/src/extra/widgets/colorwheel/lv_colorwheel.c **** 
 224:Drivers/lvgl/lvgl/src/extra/widgets/colorwheel/lv_colorwheel.c **** static void lv_colorwheel_constructor(const lv_obj_class_t * class_p, lv_obj_t * obj)
 225:Drivers/lvgl/lvgl/src/extra/widgets/colorwheel/lv_colorwheel.c **** {
 226:Drivers/lvgl/lvgl/src/extra/widgets/colorwheel/lv_colorwheel.c ****     LV_UNUSED(class_p);
 227:Drivers/lvgl/lvgl/src/extra/widgets/colorwheel/lv_colorwheel.c ****     lv_colorwheel_t * colorwheel = (lv_colorwheel_t *)obj;
 228:Drivers/lvgl/lvgl/src/extra/widgets/colorwheel/lv_colorwheel.c ****     colorwheel->hsv.h = 0;
 229:Drivers/lvgl/lvgl/src/extra/widgets/colorwheel/lv_colorwheel.c ****     colorwheel->hsv.s = 100;
 230:Drivers/lvgl/lvgl/src/extra/widgets/colorwheel/lv_colorwheel.c ****     colorwheel->hsv.v = 100;
 231:Drivers/lvgl/lvgl/src/extra/widgets/colorwheel/lv_colorwheel.c ****     colorwheel->mode = LV_COLORWHEEL_MODE_HUE;
 232:Drivers/lvgl/lvgl/src/extra/widgets/colorwheel/lv_colorwheel.c ****     colorwheel->mode_fixed = 0;
 233:Drivers/lvgl/lvgl/src/extra/widgets/colorwheel/lv_colorwheel.c ****     colorwheel->last_click_time = 0;
 234:Drivers/lvgl/lvgl/src/extra/widgets/colorwheel/lv_colorwheel.c ****     colorwheel->last_change_time = 0;
 235:Drivers/lvgl/lvgl/src/extra/widgets/colorwheel/lv_colorwheel.c ****     colorwheel->knob.recolor = create_knob_recolor;
 236:Drivers/lvgl/lvgl/src/extra/widgets/colorwheel/lv_colorwheel.c **** 
 237:Drivers/lvgl/lvgl/src/extra/widgets/colorwheel/lv_colorwheel.c ****     lv_obj_add_flag(obj, LV_OBJ_FLAG_ADV_HITTEST);
 238:Drivers/lvgl/lvgl/src/extra/widgets/colorwheel/lv_colorwheel.c ****     lv_obj_clear_flag(obj, LV_OBJ_FLAG_SCROLL_CHAIN);
 239:Drivers/lvgl/lvgl/src/extra/widgets/colorwheel/lv_colorwheel.c ****     refr_knob_pos(obj);
 240:Drivers/lvgl/lvgl/src/extra/widgets/colorwheel/lv_colorwheel.c **** }
 241:Drivers/lvgl/lvgl/src/extra/widgets/colorwheel/lv_colorwheel.c **** 
 242:Drivers/lvgl/lvgl/src/extra/widgets/colorwheel/lv_colorwheel.c **** static void draw_disc_grad(lv_event_t * e)
 243:Drivers/lvgl/lvgl/src/extra/widgets/colorwheel/lv_colorwheel.c **** {
 244:Drivers/lvgl/lvgl/src/extra/widgets/colorwheel/lv_colorwheel.c ****     lv_obj_t * obj = lv_event_get_target(e);
 245:Drivers/lvgl/lvgl/src/extra/widgets/colorwheel/lv_colorwheel.c ****     lv_draw_ctx_t * draw_ctx = lv_event_get_draw_ctx(e);
 246:Drivers/lvgl/lvgl/src/extra/widgets/colorwheel/lv_colorwheel.c ****     lv_coord_t w = lv_obj_get_width(obj);
 247:Drivers/lvgl/lvgl/src/extra/widgets/colorwheel/lv_colorwheel.c ****     lv_coord_t h = lv_obj_get_height(obj);
 248:Drivers/lvgl/lvgl/src/extra/widgets/colorwheel/lv_colorwheel.c ****     lv_coord_t cx = obj->coords.x1 + w / 2;
 249:Drivers/lvgl/lvgl/src/extra/widgets/colorwheel/lv_colorwheel.c ****     lv_coord_t cy = obj->coords.y1 + h / 2;
 250:Drivers/lvgl/lvgl/src/extra/widgets/colorwheel/lv_colorwheel.c ****     lv_coord_t r = w / 2;
 251:Drivers/lvgl/lvgl/src/extra/widgets/colorwheel/lv_colorwheel.c **** 
 252:Drivers/lvgl/lvgl/src/extra/widgets/colorwheel/lv_colorwheel.c ****     lv_draw_line_dsc_t line_dsc;
 253:Drivers/lvgl/lvgl/src/extra/widgets/colorwheel/lv_colorwheel.c ****     lv_draw_line_dsc_init(&line_dsc);
 254:Drivers/lvgl/lvgl/src/extra/widgets/colorwheel/lv_colorwheel.c ****     lv_obj_init_draw_line_dsc(obj, LV_PART_MAIN, &line_dsc);
 255:Drivers/lvgl/lvgl/src/extra/widgets/colorwheel/lv_colorwheel.c **** 
 256:Drivers/lvgl/lvgl/src/extra/widgets/colorwheel/lv_colorwheel.c ****     line_dsc.width = (r * 628 / (256 / LV_CPICKER_DEF_QF)) / 100;
 257:Drivers/lvgl/lvgl/src/extra/widgets/colorwheel/lv_colorwheel.c ****     line_dsc.width += 2;
 258:Drivers/lvgl/lvgl/src/extra/widgets/colorwheel/lv_colorwheel.c ****     uint16_t i;
 259:Drivers/lvgl/lvgl/src/extra/widgets/colorwheel/lv_colorwheel.c ****     uint32_t a = 0;
 260:Drivers/lvgl/lvgl/src/extra/widgets/colorwheel/lv_colorwheel.c ****     lv_coord_t cir_w = lv_obj_get_style_arc_width(obj, LV_PART_MAIN);
 261:Drivers/lvgl/lvgl/src/extra/widgets/colorwheel/lv_colorwheel.c **** 
ARM GAS  /tmp/ccbjN9K1.s 			page 6


 262:Drivers/lvgl/lvgl/src/extra/widgets/colorwheel/lv_colorwheel.c **** #if LV_DRAW_COMPLEX
 263:Drivers/lvgl/lvgl/src/extra/widgets/colorwheel/lv_colorwheel.c ****     /*Mask outer and inner ring of widget to tidy up ragged edges of lines while drawing outer ring
 264:Drivers/lvgl/lvgl/src/extra/widgets/colorwheel/lv_colorwheel.c ****     lv_draw_mask_radius_param_t mask_out_param;
 265:Drivers/lvgl/lvgl/src/extra/widgets/colorwheel/lv_colorwheel.c ****     lv_draw_mask_radius_init(&mask_out_param, &obj->coords, LV_RADIUS_CIRCLE, false);
 266:Drivers/lvgl/lvgl/src/extra/widgets/colorwheel/lv_colorwheel.c ****     int16_t mask_out_id = lv_draw_mask_add(&mask_out_param, 0);
 267:Drivers/lvgl/lvgl/src/extra/widgets/colorwheel/lv_colorwheel.c **** 
 268:Drivers/lvgl/lvgl/src/extra/widgets/colorwheel/lv_colorwheel.c ****     lv_area_t mask_area;
 269:Drivers/lvgl/lvgl/src/extra/widgets/colorwheel/lv_colorwheel.c ****     lv_area_copy(&mask_area, &obj->coords);
 270:Drivers/lvgl/lvgl/src/extra/widgets/colorwheel/lv_colorwheel.c ****     mask_area.x1 += cir_w;
 271:Drivers/lvgl/lvgl/src/extra/widgets/colorwheel/lv_colorwheel.c ****     mask_area.x2 -= cir_w;
 272:Drivers/lvgl/lvgl/src/extra/widgets/colorwheel/lv_colorwheel.c ****     mask_area.y1 += cir_w;
 273:Drivers/lvgl/lvgl/src/extra/widgets/colorwheel/lv_colorwheel.c ****     mask_area.y2 -= cir_w;
 274:Drivers/lvgl/lvgl/src/extra/widgets/colorwheel/lv_colorwheel.c ****     lv_draw_mask_radius_param_t mask_in_param;
 275:Drivers/lvgl/lvgl/src/extra/widgets/colorwheel/lv_colorwheel.c ****     lv_draw_mask_radius_init(&mask_in_param, &mask_area, LV_RADIUS_CIRCLE, true);
 276:Drivers/lvgl/lvgl/src/extra/widgets/colorwheel/lv_colorwheel.c ****     int16_t mask_in_id = lv_draw_mask_add(&mask_in_param, 0);
 277:Drivers/lvgl/lvgl/src/extra/widgets/colorwheel/lv_colorwheel.c **** 
 278:Drivers/lvgl/lvgl/src/extra/widgets/colorwheel/lv_colorwheel.c ****     /*The inner and outer line ends will be masked out.
 279:Drivers/lvgl/lvgl/src/extra/widgets/colorwheel/lv_colorwheel.c ****      *So make lines a little bit longer because the masking makes a more even result*/
 280:Drivers/lvgl/lvgl/src/extra/widgets/colorwheel/lv_colorwheel.c ****     lv_coord_t cir_w_extra = line_dsc.width;
 281:Drivers/lvgl/lvgl/src/extra/widgets/colorwheel/lv_colorwheel.c **** #else
 282:Drivers/lvgl/lvgl/src/extra/widgets/colorwheel/lv_colorwheel.c ****     lv_coord_t cir_w_extra = 0;
 283:Drivers/lvgl/lvgl/src/extra/widgets/colorwheel/lv_colorwheel.c **** #endif
 284:Drivers/lvgl/lvgl/src/extra/widgets/colorwheel/lv_colorwheel.c **** 
 285:Drivers/lvgl/lvgl/src/extra/widgets/colorwheel/lv_colorwheel.c ****     for(i = 0; i <= 256; i += LV_CPICKER_DEF_QF, a += 360 * LV_CPICKER_DEF_QF) {
 286:Drivers/lvgl/lvgl/src/extra/widgets/colorwheel/lv_colorwheel.c ****         line_dsc.color = angle_to_mode_color_fast(obj, i);
 287:Drivers/lvgl/lvgl/src/extra/widgets/colorwheel/lv_colorwheel.c ****         uint16_t angle_trigo = (uint16_t)(a >> 8); /*i * 360 / 256 is the scale to apply, but we ca
 288:Drivers/lvgl/lvgl/src/extra/widgets/colorwheel/lv_colorwheel.c **** 
 289:Drivers/lvgl/lvgl/src/extra/widgets/colorwheel/lv_colorwheel.c ****         lv_point_t p[2];
 290:Drivers/lvgl/lvgl/src/extra/widgets/colorwheel/lv_colorwheel.c ****         p[0].x = cx + ((r + cir_w_extra) * lv_trigo_sin(angle_trigo) >> LV_TRIGO_SHIFT);
 291:Drivers/lvgl/lvgl/src/extra/widgets/colorwheel/lv_colorwheel.c ****         p[0].y = cy + ((r + cir_w_extra) * lv_trigo_cos(angle_trigo) >> LV_TRIGO_SHIFT);
 292:Drivers/lvgl/lvgl/src/extra/widgets/colorwheel/lv_colorwheel.c ****         p[1].x = cx + ((r - cir_w - cir_w_extra) * lv_trigo_sin(angle_trigo) >> LV_TRIGO_SHIFT);
 293:Drivers/lvgl/lvgl/src/extra/widgets/colorwheel/lv_colorwheel.c ****         p[1].y = cy + ((r - cir_w - cir_w_extra) * lv_trigo_cos(angle_trigo) >> LV_TRIGO_SHIFT);
 294:Drivers/lvgl/lvgl/src/extra/widgets/colorwheel/lv_colorwheel.c **** 
 295:Drivers/lvgl/lvgl/src/extra/widgets/colorwheel/lv_colorwheel.c ****         lv_draw_line(draw_ctx, &line_dsc, &p[0], &p[1]);
 296:Drivers/lvgl/lvgl/src/extra/widgets/colorwheel/lv_colorwheel.c ****     }
 297:Drivers/lvgl/lvgl/src/extra/widgets/colorwheel/lv_colorwheel.c **** 
 298:Drivers/lvgl/lvgl/src/extra/widgets/colorwheel/lv_colorwheel.c **** #if LV_DRAW_COMPLEX
 299:Drivers/lvgl/lvgl/src/extra/widgets/colorwheel/lv_colorwheel.c ****     lv_draw_mask_free_param(&mask_out_param);
 300:Drivers/lvgl/lvgl/src/extra/widgets/colorwheel/lv_colorwheel.c ****     lv_draw_mask_free_param(&mask_in_param);
 301:Drivers/lvgl/lvgl/src/extra/widgets/colorwheel/lv_colorwheel.c ****     lv_draw_mask_remove_id(mask_out_id);
 302:Drivers/lvgl/lvgl/src/extra/widgets/colorwheel/lv_colorwheel.c ****     lv_draw_mask_remove_id(mask_in_id);
 303:Drivers/lvgl/lvgl/src/extra/widgets/colorwheel/lv_colorwheel.c **** #endif
 304:Drivers/lvgl/lvgl/src/extra/widgets/colorwheel/lv_colorwheel.c **** }
 305:Drivers/lvgl/lvgl/src/extra/widgets/colorwheel/lv_colorwheel.c **** 
 306:Drivers/lvgl/lvgl/src/extra/widgets/colorwheel/lv_colorwheel.c **** static void draw_knob(lv_event_t * e)
 307:Drivers/lvgl/lvgl/src/extra/widgets/colorwheel/lv_colorwheel.c **** {
 308:Drivers/lvgl/lvgl/src/extra/widgets/colorwheel/lv_colorwheel.c ****     lv_obj_t * obj = lv_event_get_target(e);
 309:Drivers/lvgl/lvgl/src/extra/widgets/colorwheel/lv_colorwheel.c ****     lv_draw_ctx_t * draw_ctx = lv_event_get_draw_ctx(e);
 310:Drivers/lvgl/lvgl/src/extra/widgets/colorwheel/lv_colorwheel.c ****     lv_colorwheel_t * colorwheel = (lv_colorwheel_t *)obj;
 311:Drivers/lvgl/lvgl/src/extra/widgets/colorwheel/lv_colorwheel.c **** 
 312:Drivers/lvgl/lvgl/src/extra/widgets/colorwheel/lv_colorwheel.c ****     lv_draw_rect_dsc_t cir_dsc;
 313:Drivers/lvgl/lvgl/src/extra/widgets/colorwheel/lv_colorwheel.c ****     lv_draw_rect_dsc_init(&cir_dsc);
 314:Drivers/lvgl/lvgl/src/extra/widgets/colorwheel/lv_colorwheel.c ****     lv_obj_init_draw_rect_dsc(obj, LV_PART_KNOB, &cir_dsc);
 315:Drivers/lvgl/lvgl/src/extra/widgets/colorwheel/lv_colorwheel.c **** 
 316:Drivers/lvgl/lvgl/src/extra/widgets/colorwheel/lv_colorwheel.c ****     cir_dsc.radius = LV_RADIUS_CIRCLE;
 317:Drivers/lvgl/lvgl/src/extra/widgets/colorwheel/lv_colorwheel.c **** 
 318:Drivers/lvgl/lvgl/src/extra/widgets/colorwheel/lv_colorwheel.c ****     if(colorwheel->knob.recolor) {
ARM GAS  /tmp/ccbjN9K1.s 			page 7


 319:Drivers/lvgl/lvgl/src/extra/widgets/colorwheel/lv_colorwheel.c ****         cir_dsc.bg_color = lv_colorwheel_get_rgb(obj);
 320:Drivers/lvgl/lvgl/src/extra/widgets/colorwheel/lv_colorwheel.c ****     }
 321:Drivers/lvgl/lvgl/src/extra/widgets/colorwheel/lv_colorwheel.c **** 
 322:Drivers/lvgl/lvgl/src/extra/widgets/colorwheel/lv_colorwheel.c ****     lv_area_t knob_area = get_knob_area(obj);
 323:Drivers/lvgl/lvgl/src/extra/widgets/colorwheel/lv_colorwheel.c **** 
 324:Drivers/lvgl/lvgl/src/extra/widgets/colorwheel/lv_colorwheel.c ****     lv_draw_rect(draw_ctx, &cir_dsc, &knob_area);
 325:Drivers/lvgl/lvgl/src/extra/widgets/colorwheel/lv_colorwheel.c **** }
 326:Drivers/lvgl/lvgl/src/extra/widgets/colorwheel/lv_colorwheel.c **** 
 327:Drivers/lvgl/lvgl/src/extra/widgets/colorwheel/lv_colorwheel.c **** static void invalidate_knob(lv_obj_t * obj)
 328:Drivers/lvgl/lvgl/src/extra/widgets/colorwheel/lv_colorwheel.c **** {
 329:Drivers/lvgl/lvgl/src/extra/widgets/colorwheel/lv_colorwheel.c ****     lv_area_t knob_area = get_knob_area(obj);
 330:Drivers/lvgl/lvgl/src/extra/widgets/colorwheel/lv_colorwheel.c **** 
 331:Drivers/lvgl/lvgl/src/extra/widgets/colorwheel/lv_colorwheel.c ****     lv_obj_invalidate_area(obj, &knob_area);
 332:Drivers/lvgl/lvgl/src/extra/widgets/colorwheel/lv_colorwheel.c **** }
 333:Drivers/lvgl/lvgl/src/extra/widgets/colorwheel/lv_colorwheel.c **** 
 334:Drivers/lvgl/lvgl/src/extra/widgets/colorwheel/lv_colorwheel.c **** static lv_area_t get_knob_area(lv_obj_t * obj)
 335:Drivers/lvgl/lvgl/src/extra/widgets/colorwheel/lv_colorwheel.c **** {
 336:Drivers/lvgl/lvgl/src/extra/widgets/colorwheel/lv_colorwheel.c ****     lv_colorwheel_t * colorwheel = (lv_colorwheel_t *)obj;
 337:Drivers/lvgl/lvgl/src/extra/widgets/colorwheel/lv_colorwheel.c **** 
 338:Drivers/lvgl/lvgl/src/extra/widgets/colorwheel/lv_colorwheel.c ****     /*Get knob's radius*/
 339:Drivers/lvgl/lvgl/src/extra/widgets/colorwheel/lv_colorwheel.c ****     uint16_t r = 0;
 340:Drivers/lvgl/lvgl/src/extra/widgets/colorwheel/lv_colorwheel.c ****     r = lv_obj_get_style_arc_width(obj, LV_PART_MAIN) / 2;
 341:Drivers/lvgl/lvgl/src/extra/widgets/colorwheel/lv_colorwheel.c **** 
 342:Drivers/lvgl/lvgl/src/extra/widgets/colorwheel/lv_colorwheel.c ****     lv_coord_t left = lv_obj_get_style_pad_left(obj, LV_PART_KNOB);
 343:Drivers/lvgl/lvgl/src/extra/widgets/colorwheel/lv_colorwheel.c ****     lv_coord_t right = lv_obj_get_style_pad_right(obj, LV_PART_KNOB);
 344:Drivers/lvgl/lvgl/src/extra/widgets/colorwheel/lv_colorwheel.c ****     lv_coord_t top = lv_obj_get_style_pad_top(obj, LV_PART_KNOB);
 345:Drivers/lvgl/lvgl/src/extra/widgets/colorwheel/lv_colorwheel.c ****     lv_coord_t bottom = lv_obj_get_style_pad_bottom(obj, LV_PART_KNOB);
 346:Drivers/lvgl/lvgl/src/extra/widgets/colorwheel/lv_colorwheel.c **** 
 347:Drivers/lvgl/lvgl/src/extra/widgets/colorwheel/lv_colorwheel.c ****     lv_area_t knob_area;
 348:Drivers/lvgl/lvgl/src/extra/widgets/colorwheel/lv_colorwheel.c ****     knob_area.x1 = obj->coords.x1 + colorwheel->knob.pos.x - r - left;
 349:Drivers/lvgl/lvgl/src/extra/widgets/colorwheel/lv_colorwheel.c ****     knob_area.y1 = obj->coords.y1 + colorwheel->knob.pos.y - r - right;
 350:Drivers/lvgl/lvgl/src/extra/widgets/colorwheel/lv_colorwheel.c ****     knob_area.x2 = obj->coords.x1 + colorwheel->knob.pos.x + r + top;
 351:Drivers/lvgl/lvgl/src/extra/widgets/colorwheel/lv_colorwheel.c ****     knob_area.y2 = obj->coords.y1 + colorwheel->knob.pos.y + r + bottom;
 352:Drivers/lvgl/lvgl/src/extra/widgets/colorwheel/lv_colorwheel.c **** 
 353:Drivers/lvgl/lvgl/src/extra/widgets/colorwheel/lv_colorwheel.c ****     return knob_area;
 354:Drivers/lvgl/lvgl/src/extra/widgets/colorwheel/lv_colorwheel.c **** }
 355:Drivers/lvgl/lvgl/src/extra/widgets/colorwheel/lv_colorwheel.c **** 
 356:Drivers/lvgl/lvgl/src/extra/widgets/colorwheel/lv_colorwheel.c **** static void lv_colorwheel_event(const lv_obj_class_t * class_p, lv_event_t * e)
 357:Drivers/lvgl/lvgl/src/extra/widgets/colorwheel/lv_colorwheel.c **** {
 358:Drivers/lvgl/lvgl/src/extra/widgets/colorwheel/lv_colorwheel.c ****     LV_UNUSED(class_p);
 359:Drivers/lvgl/lvgl/src/extra/widgets/colorwheel/lv_colorwheel.c **** 
 360:Drivers/lvgl/lvgl/src/extra/widgets/colorwheel/lv_colorwheel.c ****     /*Call the ancestor's event handler*/
 361:Drivers/lvgl/lvgl/src/extra/widgets/colorwheel/lv_colorwheel.c ****     lv_res_t res = lv_obj_event_base(MY_CLASS, e);
 362:Drivers/lvgl/lvgl/src/extra/widgets/colorwheel/lv_colorwheel.c **** 
 363:Drivers/lvgl/lvgl/src/extra/widgets/colorwheel/lv_colorwheel.c ****     if(res != LV_RES_OK) return;
 364:Drivers/lvgl/lvgl/src/extra/widgets/colorwheel/lv_colorwheel.c **** 
 365:Drivers/lvgl/lvgl/src/extra/widgets/colorwheel/lv_colorwheel.c ****     lv_event_code_t code = lv_event_get_code(e);
 366:Drivers/lvgl/lvgl/src/extra/widgets/colorwheel/lv_colorwheel.c ****     lv_obj_t * obj = lv_event_get_target(e);
 367:Drivers/lvgl/lvgl/src/extra/widgets/colorwheel/lv_colorwheel.c ****     lv_colorwheel_t * colorwheel = (lv_colorwheel_t *)obj;
 368:Drivers/lvgl/lvgl/src/extra/widgets/colorwheel/lv_colorwheel.c **** 
 369:Drivers/lvgl/lvgl/src/extra/widgets/colorwheel/lv_colorwheel.c ****     if(code == LV_EVENT_REFR_EXT_DRAW_SIZE) {
 370:Drivers/lvgl/lvgl/src/extra/widgets/colorwheel/lv_colorwheel.c ****         lv_coord_t left = lv_obj_get_style_pad_left(obj, LV_PART_KNOB);
 371:Drivers/lvgl/lvgl/src/extra/widgets/colorwheel/lv_colorwheel.c ****         lv_coord_t right = lv_obj_get_style_pad_right(obj, LV_PART_KNOB);
 372:Drivers/lvgl/lvgl/src/extra/widgets/colorwheel/lv_colorwheel.c ****         lv_coord_t top = lv_obj_get_style_pad_top(obj, LV_PART_KNOB);
 373:Drivers/lvgl/lvgl/src/extra/widgets/colorwheel/lv_colorwheel.c ****         lv_coord_t bottom = lv_obj_get_style_pad_bottom(obj, LV_PART_KNOB);
 374:Drivers/lvgl/lvgl/src/extra/widgets/colorwheel/lv_colorwheel.c **** 
 375:Drivers/lvgl/lvgl/src/extra/widgets/colorwheel/lv_colorwheel.c ****         lv_coord_t knob_pad = LV_MAX4(left, right, top, bottom) + 2;
ARM GAS  /tmp/ccbjN9K1.s 			page 8


 376:Drivers/lvgl/lvgl/src/extra/widgets/colorwheel/lv_colorwheel.c ****         lv_coord_t * s = lv_event_get_param(e);
 377:Drivers/lvgl/lvgl/src/extra/widgets/colorwheel/lv_colorwheel.c ****         *s = LV_MAX(*s, knob_pad);
 378:Drivers/lvgl/lvgl/src/extra/widgets/colorwheel/lv_colorwheel.c ****     }
 379:Drivers/lvgl/lvgl/src/extra/widgets/colorwheel/lv_colorwheel.c ****     else if(code == LV_EVENT_SIZE_CHANGED) {
 380:Drivers/lvgl/lvgl/src/extra/widgets/colorwheel/lv_colorwheel.c ****         void * param = lv_event_get_param(e);
 381:Drivers/lvgl/lvgl/src/extra/widgets/colorwheel/lv_colorwheel.c ****         /*Refresh extended draw area to make knob visible*/
 382:Drivers/lvgl/lvgl/src/extra/widgets/colorwheel/lv_colorwheel.c ****         if(lv_obj_get_width(obj) != lv_area_get_width(param) ||
 383:Drivers/lvgl/lvgl/src/extra/widgets/colorwheel/lv_colorwheel.c ****            lv_obj_get_height(obj) != lv_area_get_height(param)) {
 384:Drivers/lvgl/lvgl/src/extra/widgets/colorwheel/lv_colorwheel.c ****             refr_knob_pos(obj);
 385:Drivers/lvgl/lvgl/src/extra/widgets/colorwheel/lv_colorwheel.c ****         }
 386:Drivers/lvgl/lvgl/src/extra/widgets/colorwheel/lv_colorwheel.c ****     }
 387:Drivers/lvgl/lvgl/src/extra/widgets/colorwheel/lv_colorwheel.c ****     else if(code == LV_EVENT_STYLE_CHANGED) {
 388:Drivers/lvgl/lvgl/src/extra/widgets/colorwheel/lv_colorwheel.c ****         /*Refresh extended draw area to make knob visible*/
 389:Drivers/lvgl/lvgl/src/extra/widgets/colorwheel/lv_colorwheel.c ****         refr_knob_pos(obj);
 390:Drivers/lvgl/lvgl/src/extra/widgets/colorwheel/lv_colorwheel.c ****     }
 391:Drivers/lvgl/lvgl/src/extra/widgets/colorwheel/lv_colorwheel.c ****     else if(code == LV_EVENT_KEY) {
 392:Drivers/lvgl/lvgl/src/extra/widgets/colorwheel/lv_colorwheel.c ****         uint32_t c = *((uint32_t *)lv_event_get_param(e)); /*uint32_t because can be UTF-8*/
 393:Drivers/lvgl/lvgl/src/extra/widgets/colorwheel/lv_colorwheel.c **** 
 394:Drivers/lvgl/lvgl/src/extra/widgets/colorwheel/lv_colorwheel.c ****         if(c == LV_KEY_RIGHT || c == LV_KEY_UP) {
 395:Drivers/lvgl/lvgl/src/extra/widgets/colorwheel/lv_colorwheel.c ****             lv_color_hsv_t hsv_cur;
 396:Drivers/lvgl/lvgl/src/extra/widgets/colorwheel/lv_colorwheel.c ****             hsv_cur = colorwheel->hsv;
 397:Drivers/lvgl/lvgl/src/extra/widgets/colorwheel/lv_colorwheel.c **** 
 398:Drivers/lvgl/lvgl/src/extra/widgets/colorwheel/lv_colorwheel.c ****             switch(colorwheel->mode) {
 399:Drivers/lvgl/lvgl/src/extra/widgets/colorwheel/lv_colorwheel.c ****                 case LV_COLORWHEEL_MODE_HUE:
 400:Drivers/lvgl/lvgl/src/extra/widgets/colorwheel/lv_colorwheel.c ****                     hsv_cur.h = (colorwheel->hsv.h + 1) % 360;
 401:Drivers/lvgl/lvgl/src/extra/widgets/colorwheel/lv_colorwheel.c ****                     break;
 402:Drivers/lvgl/lvgl/src/extra/widgets/colorwheel/lv_colorwheel.c ****                 case LV_COLORWHEEL_MODE_SATURATION:
 403:Drivers/lvgl/lvgl/src/extra/widgets/colorwheel/lv_colorwheel.c ****                     hsv_cur.s = (colorwheel->hsv.s + 1) % 100;
 404:Drivers/lvgl/lvgl/src/extra/widgets/colorwheel/lv_colorwheel.c ****                     break;
 405:Drivers/lvgl/lvgl/src/extra/widgets/colorwheel/lv_colorwheel.c ****                 case LV_COLORWHEEL_MODE_VALUE:
 406:Drivers/lvgl/lvgl/src/extra/widgets/colorwheel/lv_colorwheel.c ****                     hsv_cur.v = (colorwheel->hsv.v + 1) % 100;
 407:Drivers/lvgl/lvgl/src/extra/widgets/colorwheel/lv_colorwheel.c ****                     break;
 408:Drivers/lvgl/lvgl/src/extra/widgets/colorwheel/lv_colorwheel.c ****             }
 409:Drivers/lvgl/lvgl/src/extra/widgets/colorwheel/lv_colorwheel.c **** 
 410:Drivers/lvgl/lvgl/src/extra/widgets/colorwheel/lv_colorwheel.c ****             if(lv_colorwheel_set_hsv(obj, hsv_cur)) {
 411:Drivers/lvgl/lvgl/src/extra/widgets/colorwheel/lv_colorwheel.c ****                 res = lv_event_send(obj, LV_EVENT_VALUE_CHANGED, NULL);
 412:Drivers/lvgl/lvgl/src/extra/widgets/colorwheel/lv_colorwheel.c ****                 if(res != LV_RES_OK) return;
 413:Drivers/lvgl/lvgl/src/extra/widgets/colorwheel/lv_colorwheel.c ****             }
 414:Drivers/lvgl/lvgl/src/extra/widgets/colorwheel/lv_colorwheel.c ****         }
 415:Drivers/lvgl/lvgl/src/extra/widgets/colorwheel/lv_colorwheel.c ****         else if(c == LV_KEY_LEFT || c == LV_KEY_DOWN) {
 416:Drivers/lvgl/lvgl/src/extra/widgets/colorwheel/lv_colorwheel.c ****             lv_color_hsv_t hsv_cur;
 417:Drivers/lvgl/lvgl/src/extra/widgets/colorwheel/lv_colorwheel.c ****             hsv_cur = colorwheel->hsv;
 418:Drivers/lvgl/lvgl/src/extra/widgets/colorwheel/lv_colorwheel.c **** 
 419:Drivers/lvgl/lvgl/src/extra/widgets/colorwheel/lv_colorwheel.c ****             switch(colorwheel->mode) {
 420:Drivers/lvgl/lvgl/src/extra/widgets/colorwheel/lv_colorwheel.c ****                 case LV_COLORWHEEL_MODE_HUE:
 421:Drivers/lvgl/lvgl/src/extra/widgets/colorwheel/lv_colorwheel.c ****                     hsv_cur.h = colorwheel->hsv.h > 0 ? (colorwheel->hsv.h - 1) : 360;
 422:Drivers/lvgl/lvgl/src/extra/widgets/colorwheel/lv_colorwheel.c ****                     break;
 423:Drivers/lvgl/lvgl/src/extra/widgets/colorwheel/lv_colorwheel.c ****                 case LV_COLORWHEEL_MODE_SATURATION:
 424:Drivers/lvgl/lvgl/src/extra/widgets/colorwheel/lv_colorwheel.c ****                     hsv_cur.s = colorwheel->hsv.s > 0 ? (colorwheel->hsv.s - 1) : 100;
 425:Drivers/lvgl/lvgl/src/extra/widgets/colorwheel/lv_colorwheel.c ****                     break;
 426:Drivers/lvgl/lvgl/src/extra/widgets/colorwheel/lv_colorwheel.c ****                 case LV_COLORWHEEL_MODE_VALUE:
 427:Drivers/lvgl/lvgl/src/extra/widgets/colorwheel/lv_colorwheel.c ****                     hsv_cur.v = colorwheel->hsv.v > 0 ? (colorwheel->hsv.v - 1) : 100;
 428:Drivers/lvgl/lvgl/src/extra/widgets/colorwheel/lv_colorwheel.c ****                     break;
 429:Drivers/lvgl/lvgl/src/extra/widgets/colorwheel/lv_colorwheel.c ****             }
 430:Drivers/lvgl/lvgl/src/extra/widgets/colorwheel/lv_colorwheel.c **** 
 431:Drivers/lvgl/lvgl/src/extra/widgets/colorwheel/lv_colorwheel.c ****             if(lv_colorwheel_set_hsv(obj, hsv_cur)) {
 432:Drivers/lvgl/lvgl/src/extra/widgets/colorwheel/lv_colorwheel.c ****                 res = lv_event_send(obj, LV_EVENT_VALUE_CHANGED, NULL);
ARM GAS  /tmp/ccbjN9K1.s 			page 9


 433:Drivers/lvgl/lvgl/src/extra/widgets/colorwheel/lv_colorwheel.c ****                 if(res != LV_RES_OK) return;
 434:Drivers/lvgl/lvgl/src/extra/widgets/colorwheel/lv_colorwheel.c ****             }
 435:Drivers/lvgl/lvgl/src/extra/widgets/colorwheel/lv_colorwheel.c ****         }
 436:Drivers/lvgl/lvgl/src/extra/widgets/colorwheel/lv_colorwheel.c ****     }
 437:Drivers/lvgl/lvgl/src/extra/widgets/colorwheel/lv_colorwheel.c ****     else if(code == LV_EVENT_PRESSED) {
 438:Drivers/lvgl/lvgl/src/extra/widgets/colorwheel/lv_colorwheel.c ****         colorwheel->last_change_time = lv_tick_get();
 439:Drivers/lvgl/lvgl/src/extra/widgets/colorwheel/lv_colorwheel.c ****         lv_indev_get_point(lv_indev_get_act(), &colorwheel->last_press_point);
 440:Drivers/lvgl/lvgl/src/extra/widgets/colorwheel/lv_colorwheel.c ****         res = double_click_reset(obj);
 441:Drivers/lvgl/lvgl/src/extra/widgets/colorwheel/lv_colorwheel.c ****         if(res != LV_RES_OK) return;
 442:Drivers/lvgl/lvgl/src/extra/widgets/colorwheel/lv_colorwheel.c ****     }
 443:Drivers/lvgl/lvgl/src/extra/widgets/colorwheel/lv_colorwheel.c ****     else if(code == LV_EVENT_PRESSING) {
 444:Drivers/lvgl/lvgl/src/extra/widgets/colorwheel/lv_colorwheel.c ****         lv_indev_t * indev = lv_indev_get_act();
 445:Drivers/lvgl/lvgl/src/extra/widgets/colorwheel/lv_colorwheel.c ****         if(indev == NULL) return;
 446:Drivers/lvgl/lvgl/src/extra/widgets/colorwheel/lv_colorwheel.c **** 
 447:Drivers/lvgl/lvgl/src/extra/widgets/colorwheel/lv_colorwheel.c ****         lv_indev_type_t indev_type = lv_indev_get_type(indev);
 448:Drivers/lvgl/lvgl/src/extra/widgets/colorwheel/lv_colorwheel.c ****         lv_point_t p;
 449:Drivers/lvgl/lvgl/src/extra/widgets/colorwheel/lv_colorwheel.c ****         if(indev_type == LV_INDEV_TYPE_ENCODER || indev_type == LV_INDEV_TYPE_KEYPAD) {
 450:Drivers/lvgl/lvgl/src/extra/widgets/colorwheel/lv_colorwheel.c ****             p.x = obj->coords.x1 + lv_obj_get_width(obj) / 2;
 451:Drivers/lvgl/lvgl/src/extra/widgets/colorwheel/lv_colorwheel.c ****             p.y = obj->coords.y1 + lv_obj_get_height(obj) / 2;
 452:Drivers/lvgl/lvgl/src/extra/widgets/colorwheel/lv_colorwheel.c ****         }
 453:Drivers/lvgl/lvgl/src/extra/widgets/colorwheel/lv_colorwheel.c ****         else {
 454:Drivers/lvgl/lvgl/src/extra/widgets/colorwheel/lv_colorwheel.c ****             lv_indev_get_point(indev, &p);
 455:Drivers/lvgl/lvgl/src/extra/widgets/colorwheel/lv_colorwheel.c ****         }
 456:Drivers/lvgl/lvgl/src/extra/widgets/colorwheel/lv_colorwheel.c **** 
 457:Drivers/lvgl/lvgl/src/extra/widgets/colorwheel/lv_colorwheel.c ****         lv_coord_t drag_limit = indev->driver->scroll_limit;
 458:Drivers/lvgl/lvgl/src/extra/widgets/colorwheel/lv_colorwheel.c ****         if((LV_ABS(p.x - colorwheel->last_press_point.x) > drag_limit) ||
 459:Drivers/lvgl/lvgl/src/extra/widgets/colorwheel/lv_colorwheel.c ****            (LV_ABS(p.y - colorwheel->last_press_point.y) > drag_limit)) {
 460:Drivers/lvgl/lvgl/src/extra/widgets/colorwheel/lv_colorwheel.c ****             colorwheel->last_change_time = lv_tick_get();
 461:Drivers/lvgl/lvgl/src/extra/widgets/colorwheel/lv_colorwheel.c ****             colorwheel->last_press_point.x = p.x;
 462:Drivers/lvgl/lvgl/src/extra/widgets/colorwheel/lv_colorwheel.c ****             colorwheel->last_press_point.y = p.y;
 463:Drivers/lvgl/lvgl/src/extra/widgets/colorwheel/lv_colorwheel.c ****         }
 464:Drivers/lvgl/lvgl/src/extra/widgets/colorwheel/lv_colorwheel.c **** 
 465:Drivers/lvgl/lvgl/src/extra/widgets/colorwheel/lv_colorwheel.c ****         p.x -= obj->coords.x1;
 466:Drivers/lvgl/lvgl/src/extra/widgets/colorwheel/lv_colorwheel.c ****         p.y -= obj->coords.y1;
 467:Drivers/lvgl/lvgl/src/extra/widgets/colorwheel/lv_colorwheel.c **** 
 468:Drivers/lvgl/lvgl/src/extra/widgets/colorwheel/lv_colorwheel.c ****         /*Ignore pressing in the inner area*/
 469:Drivers/lvgl/lvgl/src/extra/widgets/colorwheel/lv_colorwheel.c ****         uint16_t w = lv_obj_get_width(obj);
 470:Drivers/lvgl/lvgl/src/extra/widgets/colorwheel/lv_colorwheel.c **** 
 471:Drivers/lvgl/lvgl/src/extra/widgets/colorwheel/lv_colorwheel.c ****         int16_t angle = 0;
 472:Drivers/lvgl/lvgl/src/extra/widgets/colorwheel/lv_colorwheel.c ****         lv_coord_t cir_w = lv_obj_get_style_arc_width(obj, LV_PART_MAIN);
 473:Drivers/lvgl/lvgl/src/extra/widgets/colorwheel/lv_colorwheel.c **** 
 474:Drivers/lvgl/lvgl/src/extra/widgets/colorwheel/lv_colorwheel.c ****         lv_coord_t r_in = w / 2;
 475:Drivers/lvgl/lvgl/src/extra/widgets/colorwheel/lv_colorwheel.c ****         p.x -= r_in;
 476:Drivers/lvgl/lvgl/src/extra/widgets/colorwheel/lv_colorwheel.c ****         p.y -= r_in;
 477:Drivers/lvgl/lvgl/src/extra/widgets/colorwheel/lv_colorwheel.c ****         bool on_ring = true;
 478:Drivers/lvgl/lvgl/src/extra/widgets/colorwheel/lv_colorwheel.c ****         r_in -= cir_w;
 479:Drivers/lvgl/lvgl/src/extra/widgets/colorwheel/lv_colorwheel.c ****         if(r_in > LV_DPI_DEF / 2) {
 480:Drivers/lvgl/lvgl/src/extra/widgets/colorwheel/lv_colorwheel.c ****             lv_coord_t inner = cir_w / 2;
 481:Drivers/lvgl/lvgl/src/extra/widgets/colorwheel/lv_colorwheel.c ****             r_in -= inner;
 482:Drivers/lvgl/lvgl/src/extra/widgets/colorwheel/lv_colorwheel.c **** 
 483:Drivers/lvgl/lvgl/src/extra/widgets/colorwheel/lv_colorwheel.c ****             if(r_in < LV_DPI_DEF / 2) r_in = LV_DPI_DEF / 2;
 484:Drivers/lvgl/lvgl/src/extra/widgets/colorwheel/lv_colorwheel.c ****         }
 485:Drivers/lvgl/lvgl/src/extra/widgets/colorwheel/lv_colorwheel.c **** 
 486:Drivers/lvgl/lvgl/src/extra/widgets/colorwheel/lv_colorwheel.c ****         if(p.x * p.x + p.y * p.y < r_in * r_in) {
 487:Drivers/lvgl/lvgl/src/extra/widgets/colorwheel/lv_colorwheel.c ****             on_ring = false;
 488:Drivers/lvgl/lvgl/src/extra/widgets/colorwheel/lv_colorwheel.c ****         }
 489:Drivers/lvgl/lvgl/src/extra/widgets/colorwheel/lv_colorwheel.c **** 
ARM GAS  /tmp/ccbjN9K1.s 			page 10


 490:Drivers/lvgl/lvgl/src/extra/widgets/colorwheel/lv_colorwheel.c ****         /*If the inner area is being pressed, go to the next color mode on long press*/
 491:Drivers/lvgl/lvgl/src/extra/widgets/colorwheel/lv_colorwheel.c ****         uint32_t diff = lv_tick_elaps(colorwheel->last_change_time);
 492:Drivers/lvgl/lvgl/src/extra/widgets/colorwheel/lv_colorwheel.c ****         if(!on_ring && diff > indev->driver->long_press_time && !colorwheel->mode_fixed) {
 493:Drivers/lvgl/lvgl/src/extra/widgets/colorwheel/lv_colorwheel.c ****             next_color_mode(obj);
 494:Drivers/lvgl/lvgl/src/extra/widgets/colorwheel/lv_colorwheel.c ****             lv_indev_wait_release(lv_indev_get_act());
 495:Drivers/lvgl/lvgl/src/extra/widgets/colorwheel/lv_colorwheel.c ****             return;
 496:Drivers/lvgl/lvgl/src/extra/widgets/colorwheel/lv_colorwheel.c ****         }
 497:Drivers/lvgl/lvgl/src/extra/widgets/colorwheel/lv_colorwheel.c **** 
 498:Drivers/lvgl/lvgl/src/extra/widgets/colorwheel/lv_colorwheel.c ****         /*Set the angle only if pressed on the ring*/
 499:Drivers/lvgl/lvgl/src/extra/widgets/colorwheel/lv_colorwheel.c ****         if(!on_ring) return;
 500:Drivers/lvgl/lvgl/src/extra/widgets/colorwheel/lv_colorwheel.c **** 
 501:Drivers/lvgl/lvgl/src/extra/widgets/colorwheel/lv_colorwheel.c ****         angle = lv_atan2(p.x, p.y) % 360;
 502:Drivers/lvgl/lvgl/src/extra/widgets/colorwheel/lv_colorwheel.c **** 
 503:Drivers/lvgl/lvgl/src/extra/widgets/colorwheel/lv_colorwheel.c ****         lv_color_hsv_t hsv_cur;
 504:Drivers/lvgl/lvgl/src/extra/widgets/colorwheel/lv_colorwheel.c ****         hsv_cur = colorwheel->hsv;
 505:Drivers/lvgl/lvgl/src/extra/widgets/colorwheel/lv_colorwheel.c **** 
 506:Drivers/lvgl/lvgl/src/extra/widgets/colorwheel/lv_colorwheel.c ****         switch(colorwheel->mode) {
 507:Drivers/lvgl/lvgl/src/extra/widgets/colorwheel/lv_colorwheel.c ****             case LV_COLORWHEEL_MODE_HUE:
 508:Drivers/lvgl/lvgl/src/extra/widgets/colorwheel/lv_colorwheel.c ****                 hsv_cur.h = angle;
 509:Drivers/lvgl/lvgl/src/extra/widgets/colorwheel/lv_colorwheel.c ****                 break;
 510:Drivers/lvgl/lvgl/src/extra/widgets/colorwheel/lv_colorwheel.c ****             case LV_COLORWHEEL_MODE_SATURATION:
 511:Drivers/lvgl/lvgl/src/extra/widgets/colorwheel/lv_colorwheel.c ****                 hsv_cur.s = (angle * 100) / 360;
 512:Drivers/lvgl/lvgl/src/extra/widgets/colorwheel/lv_colorwheel.c ****                 break;
 513:Drivers/lvgl/lvgl/src/extra/widgets/colorwheel/lv_colorwheel.c ****             case LV_COLORWHEEL_MODE_VALUE:
 514:Drivers/lvgl/lvgl/src/extra/widgets/colorwheel/lv_colorwheel.c ****                 hsv_cur.v = (angle * 100) / 360;
 515:Drivers/lvgl/lvgl/src/extra/widgets/colorwheel/lv_colorwheel.c ****                 break;
 516:Drivers/lvgl/lvgl/src/extra/widgets/colorwheel/lv_colorwheel.c ****         }
 517:Drivers/lvgl/lvgl/src/extra/widgets/colorwheel/lv_colorwheel.c **** 
 518:Drivers/lvgl/lvgl/src/extra/widgets/colorwheel/lv_colorwheel.c ****         if(lv_colorwheel_set_hsv(obj, hsv_cur)) {
 519:Drivers/lvgl/lvgl/src/extra/widgets/colorwheel/lv_colorwheel.c ****             res = lv_event_send(obj, LV_EVENT_VALUE_CHANGED, NULL);
 520:Drivers/lvgl/lvgl/src/extra/widgets/colorwheel/lv_colorwheel.c ****             if(res != LV_RES_OK) return;
 521:Drivers/lvgl/lvgl/src/extra/widgets/colorwheel/lv_colorwheel.c ****         }
 522:Drivers/lvgl/lvgl/src/extra/widgets/colorwheel/lv_colorwheel.c ****     }
 523:Drivers/lvgl/lvgl/src/extra/widgets/colorwheel/lv_colorwheel.c ****     else if(code == LV_EVENT_HIT_TEST) {
 524:Drivers/lvgl/lvgl/src/extra/widgets/colorwheel/lv_colorwheel.c ****         lv_hit_test_info_t * info = lv_event_get_param(e);;
 525:Drivers/lvgl/lvgl/src/extra/widgets/colorwheel/lv_colorwheel.c **** 
 526:Drivers/lvgl/lvgl/src/extra/widgets/colorwheel/lv_colorwheel.c ****         /*Valid clicks can be only in the circle*/
 527:Drivers/lvgl/lvgl/src/extra/widgets/colorwheel/lv_colorwheel.c ****         info->res = _lv_area_is_point_on(&obj->coords, info->point, LV_RADIUS_CIRCLE);
 528:Drivers/lvgl/lvgl/src/extra/widgets/colorwheel/lv_colorwheel.c ****     }
 529:Drivers/lvgl/lvgl/src/extra/widgets/colorwheel/lv_colorwheel.c ****     else if(code == LV_EVENT_DRAW_MAIN) {
 530:Drivers/lvgl/lvgl/src/extra/widgets/colorwheel/lv_colorwheel.c ****         draw_disc_grad(e);
 531:Drivers/lvgl/lvgl/src/extra/widgets/colorwheel/lv_colorwheel.c ****         draw_knob(e);
 532:Drivers/lvgl/lvgl/src/extra/widgets/colorwheel/lv_colorwheel.c ****     }
 533:Drivers/lvgl/lvgl/src/extra/widgets/colorwheel/lv_colorwheel.c ****     else if(code == LV_EVENT_COVER_CHECK) {
 534:Drivers/lvgl/lvgl/src/extra/widgets/colorwheel/lv_colorwheel.c ****         lv_cover_check_info_t * info = lv_event_get_param(e);
 535:Drivers/lvgl/lvgl/src/extra/widgets/colorwheel/lv_colorwheel.c ****         if(info->res != LV_COVER_RES_MASKED) info->res = LV_COVER_RES_NOT_COVER;
 536:Drivers/lvgl/lvgl/src/extra/widgets/colorwheel/lv_colorwheel.c ****     }
 537:Drivers/lvgl/lvgl/src/extra/widgets/colorwheel/lv_colorwheel.c **** }
 538:Drivers/lvgl/lvgl/src/extra/widgets/colorwheel/lv_colorwheel.c **** 
 539:Drivers/lvgl/lvgl/src/extra/widgets/colorwheel/lv_colorwheel.c **** 
 540:Drivers/lvgl/lvgl/src/extra/widgets/colorwheel/lv_colorwheel.c **** 
 541:Drivers/lvgl/lvgl/src/extra/widgets/colorwheel/lv_colorwheel.c **** static void next_color_mode(lv_obj_t * obj)
 542:Drivers/lvgl/lvgl/src/extra/widgets/colorwheel/lv_colorwheel.c **** {
 543:Drivers/lvgl/lvgl/src/extra/widgets/colorwheel/lv_colorwheel.c ****     lv_colorwheel_t * colorwheel = (lv_colorwheel_t *)obj;
 544:Drivers/lvgl/lvgl/src/extra/widgets/colorwheel/lv_colorwheel.c ****     colorwheel->mode = (colorwheel->mode + 1) % 3;
 545:Drivers/lvgl/lvgl/src/extra/widgets/colorwheel/lv_colorwheel.c ****     refr_knob_pos(obj);
 546:Drivers/lvgl/lvgl/src/extra/widgets/colorwheel/lv_colorwheel.c ****     lv_obj_invalidate(obj);
ARM GAS  /tmp/ccbjN9K1.s 			page 11


 547:Drivers/lvgl/lvgl/src/extra/widgets/colorwheel/lv_colorwheel.c **** }
 548:Drivers/lvgl/lvgl/src/extra/widgets/colorwheel/lv_colorwheel.c **** 
 549:Drivers/lvgl/lvgl/src/extra/widgets/colorwheel/lv_colorwheel.c **** static void refr_knob_pos(lv_obj_t * obj)
 550:Drivers/lvgl/lvgl/src/extra/widgets/colorwheel/lv_colorwheel.c **** {
 551:Drivers/lvgl/lvgl/src/extra/widgets/colorwheel/lv_colorwheel.c ****     invalidate_knob(obj);
 552:Drivers/lvgl/lvgl/src/extra/widgets/colorwheel/lv_colorwheel.c **** 
 553:Drivers/lvgl/lvgl/src/extra/widgets/colorwheel/lv_colorwheel.c ****     lv_colorwheel_t * colorwheel = (lv_colorwheel_t *)obj;
 554:Drivers/lvgl/lvgl/src/extra/widgets/colorwheel/lv_colorwheel.c ****     lv_coord_t w = lv_obj_get_width(obj);
 555:Drivers/lvgl/lvgl/src/extra/widgets/colorwheel/lv_colorwheel.c **** 
 556:Drivers/lvgl/lvgl/src/extra/widgets/colorwheel/lv_colorwheel.c ****     lv_coord_t scale_w = lv_obj_get_style_arc_width(obj, LV_PART_MAIN);
 557:Drivers/lvgl/lvgl/src/extra/widgets/colorwheel/lv_colorwheel.c ****     lv_coord_t r = (w - scale_w) / 2;
 558:Drivers/lvgl/lvgl/src/extra/widgets/colorwheel/lv_colorwheel.c ****     uint16_t angle = get_angle(obj);
 559:Drivers/lvgl/lvgl/src/extra/widgets/colorwheel/lv_colorwheel.c ****     colorwheel->knob.pos.x = (((int32_t)r * lv_trigo_sin(angle)) >> LV_TRIGO_SHIFT);
 560:Drivers/lvgl/lvgl/src/extra/widgets/colorwheel/lv_colorwheel.c ****     colorwheel->knob.pos.y = (((int32_t)r * lv_trigo_cos(angle)) >> LV_TRIGO_SHIFT);
 561:Drivers/lvgl/lvgl/src/extra/widgets/colorwheel/lv_colorwheel.c ****     colorwheel->knob.pos.x = colorwheel->knob.pos.x + w / 2;
 562:Drivers/lvgl/lvgl/src/extra/widgets/colorwheel/lv_colorwheel.c ****     colorwheel->knob.pos.y = colorwheel->knob.pos.y + w / 2;
 563:Drivers/lvgl/lvgl/src/extra/widgets/colorwheel/lv_colorwheel.c **** 
 564:Drivers/lvgl/lvgl/src/extra/widgets/colorwheel/lv_colorwheel.c ****     invalidate_knob(obj);
 565:Drivers/lvgl/lvgl/src/extra/widgets/colorwheel/lv_colorwheel.c **** }
 566:Drivers/lvgl/lvgl/src/extra/widgets/colorwheel/lv_colorwheel.c **** 
 567:Drivers/lvgl/lvgl/src/extra/widgets/colorwheel/lv_colorwheel.c **** static lv_res_t double_click_reset(lv_obj_t * obj)
 568:Drivers/lvgl/lvgl/src/extra/widgets/colorwheel/lv_colorwheel.c **** {
 569:Drivers/lvgl/lvgl/src/extra/widgets/colorwheel/lv_colorwheel.c ****     lv_colorwheel_t * colorwheel = (lv_colorwheel_t *)obj;
 570:Drivers/lvgl/lvgl/src/extra/widgets/colorwheel/lv_colorwheel.c ****     lv_indev_t * indev = lv_indev_get_act();
 571:Drivers/lvgl/lvgl/src/extra/widgets/colorwheel/lv_colorwheel.c ****     /*Double clicked? Use long press time as double click time out*/
 572:Drivers/lvgl/lvgl/src/extra/widgets/colorwheel/lv_colorwheel.c ****     if(lv_tick_elaps(colorwheel->last_click_time) < indev->driver->long_press_time) {
 573:Drivers/lvgl/lvgl/src/extra/widgets/colorwheel/lv_colorwheel.c ****         lv_color_hsv_t hsv_cur;
 574:Drivers/lvgl/lvgl/src/extra/widgets/colorwheel/lv_colorwheel.c ****         hsv_cur = colorwheel->hsv;
 575:Drivers/lvgl/lvgl/src/extra/widgets/colorwheel/lv_colorwheel.c **** 
 576:Drivers/lvgl/lvgl/src/extra/widgets/colorwheel/lv_colorwheel.c ****         switch(colorwheel->mode) {
 577:Drivers/lvgl/lvgl/src/extra/widgets/colorwheel/lv_colorwheel.c ****             case LV_COLORWHEEL_MODE_HUE:
 578:Drivers/lvgl/lvgl/src/extra/widgets/colorwheel/lv_colorwheel.c ****                 hsv_cur.h = 0;
 579:Drivers/lvgl/lvgl/src/extra/widgets/colorwheel/lv_colorwheel.c ****                 break;
 580:Drivers/lvgl/lvgl/src/extra/widgets/colorwheel/lv_colorwheel.c ****             case LV_COLORWHEEL_MODE_SATURATION:
 581:Drivers/lvgl/lvgl/src/extra/widgets/colorwheel/lv_colorwheel.c ****                 hsv_cur.s = 100;
 582:Drivers/lvgl/lvgl/src/extra/widgets/colorwheel/lv_colorwheel.c ****                 break;
 583:Drivers/lvgl/lvgl/src/extra/widgets/colorwheel/lv_colorwheel.c ****             case LV_COLORWHEEL_MODE_VALUE:
 584:Drivers/lvgl/lvgl/src/extra/widgets/colorwheel/lv_colorwheel.c ****                 hsv_cur.v = 100;
 585:Drivers/lvgl/lvgl/src/extra/widgets/colorwheel/lv_colorwheel.c ****                 break;
 586:Drivers/lvgl/lvgl/src/extra/widgets/colorwheel/lv_colorwheel.c ****         }
 587:Drivers/lvgl/lvgl/src/extra/widgets/colorwheel/lv_colorwheel.c **** 
 588:Drivers/lvgl/lvgl/src/extra/widgets/colorwheel/lv_colorwheel.c ****         lv_indev_wait_release(indev);
 589:Drivers/lvgl/lvgl/src/extra/widgets/colorwheel/lv_colorwheel.c **** 
 590:Drivers/lvgl/lvgl/src/extra/widgets/colorwheel/lv_colorwheel.c ****         if(lv_colorwheel_set_hsv(obj, hsv_cur)) {
 591:Drivers/lvgl/lvgl/src/extra/widgets/colorwheel/lv_colorwheel.c ****             lv_res_t res = lv_event_send(obj, LV_EVENT_VALUE_CHANGED, NULL);
 592:Drivers/lvgl/lvgl/src/extra/widgets/colorwheel/lv_colorwheel.c ****             if(res != LV_RES_OK) return res;
 593:Drivers/lvgl/lvgl/src/extra/widgets/colorwheel/lv_colorwheel.c ****         }
 594:Drivers/lvgl/lvgl/src/extra/widgets/colorwheel/lv_colorwheel.c ****     }
 595:Drivers/lvgl/lvgl/src/extra/widgets/colorwheel/lv_colorwheel.c ****     colorwheel->last_click_time = lv_tick_get();
 596:Drivers/lvgl/lvgl/src/extra/widgets/colorwheel/lv_colorwheel.c **** 
 597:Drivers/lvgl/lvgl/src/extra/widgets/colorwheel/lv_colorwheel.c ****     return LV_RES_OK;
 598:Drivers/lvgl/lvgl/src/extra/widgets/colorwheel/lv_colorwheel.c **** }
 599:Drivers/lvgl/lvgl/src/extra/widgets/colorwheel/lv_colorwheel.c **** 
 600:Drivers/lvgl/lvgl/src/extra/widgets/colorwheel/lv_colorwheel.c **** #define SWAPPTR(A, B) do { uint8_t * t = A; A = B; B = t; } while(0)
 601:Drivers/lvgl/lvgl/src/extra/widgets/colorwheel/lv_colorwheel.c **** #define HSV_PTR_SWAP(sextant,r,g,b)     if((sextant) & 2) { SWAPPTR((r), (b)); } if((sextant) & 4) 
 602:Drivers/lvgl/lvgl/src/extra/widgets/colorwheel/lv_colorwheel.c ****         if(!((sextant) & 1)) { SWAPPTR((r), (g)); } } else { if((sextant) & 1) { SWAPPTR((r), (g));
 603:Drivers/lvgl/lvgl/src/extra/widgets/colorwheel/lv_colorwheel.c **** 
ARM GAS  /tmp/ccbjN9K1.s 			page 12


 604:Drivers/lvgl/lvgl/src/extra/widgets/colorwheel/lv_colorwheel.c **** /**
 605:Drivers/lvgl/lvgl/src/extra/widgets/colorwheel/lv_colorwheel.c ****  * Based on the idea from https://www.vagrearg.org/content/hsvrgb
 606:Drivers/lvgl/lvgl/src/extra/widgets/colorwheel/lv_colorwheel.c ****  * Here we want to compute an approximate RGB value from a HSV input color space. We don't want to 
 607:Drivers/lvgl/lvgl/src/extra/widgets/colorwheel/lv_colorwheel.c ****  * (for that, there's lv_color_hsv_to_rgb), but we want to be fast.
 608:Drivers/lvgl/lvgl/src/extra/widgets/colorwheel/lv_colorwheel.c ****  *
 609:Drivers/lvgl/lvgl/src/extra/widgets/colorwheel/lv_colorwheel.c ****  * Few tricks are used here: Hue is in range [0; 6 * 256] (so that the sextant is in the high byte 
 610:Drivers/lvgl/lvgl/src/extra/widgets/colorwheel/lv_colorwheel.c ****  * both s and v are in [0; 255] range (very convenient to avoid divisions).
 611:Drivers/lvgl/lvgl/src/extra/widgets/colorwheel/lv_colorwheel.c ****  *
 612:Drivers/lvgl/lvgl/src/extra/widgets/colorwheel/lv_colorwheel.c ****  * We fold all symmetry by swapping the R, G, B pointers so that the code is the same for all sexta
 613:Drivers/lvgl/lvgl/src/extra/widgets/colorwheel/lv_colorwheel.c ****  * We replace division by 255 by a division by 256, a.k.a a shift right by 8 bits.
 614:Drivers/lvgl/lvgl/src/extra/widgets/colorwheel/lv_colorwheel.c ****  * This is wrong, but since this is only used to compute the pixels on the screen and not the final
 615:Drivers/lvgl/lvgl/src/extra/widgets/colorwheel/lv_colorwheel.c ****  */
 616:Drivers/lvgl/lvgl/src/extra/widgets/colorwheel/lv_colorwheel.c **** static void fast_hsv2rgb(uint16_t h, uint8_t s, uint8_t v, uint8_t * r, uint8_t * g, uint8_t * b)
 617:Drivers/lvgl/lvgl/src/extra/widgets/colorwheel/lv_colorwheel.c **** {
  26              		.loc 1 617 0
  27              		.cfi_startproc
  28              		@ args = 8, pretend = 0, frame = 0
  29              		@ frame_needed = 0, uses_anonymous_args = 0
  30              		@ link register save eliminated.
  31              	.LVL0:
  32 0000 F0B4     		push	{r4, r5, r6, r7}
  33              	.LCFI0:
  34              		.cfi_def_cfa_offset 16
  35              		.cfi_offset 4, -16
  36              		.cfi_offset 5, -12
  37              		.cfi_offset 6, -8
  38              		.cfi_offset 7, -4
  39 0002 049C     		ldr	r4, [sp, #16]
  40 0004 059F     		ldr	r7, [sp, #20]
 618:Drivers/lvgl/lvgl/src/extra/widgets/colorwheel/lv_colorwheel.c ****     if(!s) {
  41              		.loc 1 618 0
  42 0006 29B3     		cbz	r1, .L12
  43 0008 0D46     		mov	r5, r1
 619:Drivers/lvgl/lvgl/src/extra/widgets/colorwheel/lv_colorwheel.c ****         *r = *g = *b = v;
 620:Drivers/lvgl/lvgl/src/extra/widgets/colorwheel/lv_colorwheel.c ****         return;
 621:Drivers/lvgl/lvgl/src/extra/widgets/colorwheel/lv_colorwheel.c ****     }
 622:Drivers/lvgl/lvgl/src/extra/widgets/colorwheel/lv_colorwheel.c **** 
 623:Drivers/lvgl/lvgl/src/extra/widgets/colorwheel/lv_colorwheel.c ****     uint8_t sextant = h >> 8;
  44              		.loc 1 623 0
  45 000a 060A     		lsrs	r6, r0, #8
  46              	.LVL1:
 624:Drivers/lvgl/lvgl/src/extra/widgets/colorwheel/lv_colorwheel.c ****     HSV_PTR_SWAP(sextant, r, g, b); /*Swap pointers so the conversion code is the same*/
  47              		.loc 1 624 0
  48 000c 16F0020F 		tst	r6, #2
  49 0010 02D1     		bne	.L4
  50 0012 3946     		mov	r1, r7
  51              	.LVL2:
  52 0014 1F46     		mov	r7, r3
  53 0016 0B46     		mov	r3, r1
  54              	.LVL3:
  55              	.L4:
  56              		.loc 1 624 0 is_stmt 0 discriminator 3
  57 0018 16F0040F 		tst	r6, #4
  58 001c 02D1     		bne	.L5
  59              		.loc 1 624 0
  60 001e 1946     		mov	r1, r3
  61 0020 2346     		mov	r3, r4
ARM GAS  /tmp/ccbjN9K1.s 			page 13


  62              	.LVL4:
  63 0022 0C46     		mov	r4, r1
  64              	.LVL5:
  65              	.L5:
  66              		.loc 1 624 0 discriminator 6
  67 0024 16F0060F 		tst	r6, #6
  68 0028 18D1     		bne	.L6
  69              		.loc 1 624 0 discriminator 7
  70 002a 16F0010F 		tst	r6, #1
  71 002e 02D0     		beq	.L7
  72              		.loc 1 624 0
  73 0030 1946     		mov	r1, r3
  74 0032 3B46     		mov	r3, r7
  75              	.LVL6:
  76 0034 0F46     		mov	r7, r1
  77              	.LVL7:
  78              	.L7:
 625:Drivers/lvgl/lvgl/src/extra/widgets/colorwheel/lv_colorwheel.c **** 
 626:Drivers/lvgl/lvgl/src/extra/widgets/colorwheel/lv_colorwheel.c ****     *g = v;
  79              		.loc 1 626 0 is_stmt 1
  80 0036 3A70     		strb	r2, [r7]
 627:Drivers/lvgl/lvgl/src/extra/widgets/colorwheel/lv_colorwheel.c **** 
 628:Drivers/lvgl/lvgl/src/extra/widgets/colorwheel/lv_colorwheel.c ****     uint8_t bb = ~s;
  81              		.loc 1 628 0
  82 0038 E943     		mvns	r1, r5
 629:Drivers/lvgl/lvgl/src/extra/widgets/colorwheel/lv_colorwheel.c ****     uint16_t ww = v * bb; /*Don't try to be precise, but instead, be fast*/
  83              		.loc 1 629 0
  84 003a 92B2     		uxth	r2, r2
  85              	.LVL8:
  86 003c C9B2     		uxtb	r1, r1
  87 003e 02FB01F1 		mul	r1, r2, r1
  88              	.LVL9:
 630:Drivers/lvgl/lvgl/src/extra/widgets/colorwheel/lv_colorwheel.c ****     *b = ww >> 8;
  89              		.loc 1 630 0
  90 0042 090A     		lsrs	r1, r1, #8
  91              	.LVL10:
  92 0044 2170     		strb	r1, [r4]
  93              	.LVL11:
 631:Drivers/lvgl/lvgl/src/extra/widgets/colorwheel/lv_colorwheel.c **** 
 632:Drivers/lvgl/lvgl/src/extra/widgets/colorwheel/lv_colorwheel.c ****     uint8_t h_frac = h & 0xff;
  94              		.loc 1 632 0
  95 0046 C1B2     		uxtb	r1, r0
  96              	.LVL12:
 633:Drivers/lvgl/lvgl/src/extra/widgets/colorwheel/lv_colorwheel.c **** 
 634:Drivers/lvgl/lvgl/src/extra/widgets/colorwheel/lv_colorwheel.c ****     if(!(sextant & 1)) {
  97              		.loc 1 634 0
  98 0048 16F0010F 		tst	r6, #1
  99 004c 12D1     		bne	.L8
 635:Drivers/lvgl/lvgl/src/extra/widgets/colorwheel/lv_colorwheel.c ****         /*Up slope*/
 636:Drivers/lvgl/lvgl/src/extra/widgets/colorwheel/lv_colorwheel.c ****         ww = !h_frac ? ((uint16_t)s << 8) : (s * (uint8_t)(-h_frac)); /*Skip multiply if not requir
 100              		.loc 1 636 0
 101 004e 61B9     		cbnz	r1, .L9
 102              		.loc 1 636 0 is_stmt 0 discriminator 1
 103 0050 2902     		lsls	r1, r5, #8
 104              	.LVL13:
 105 0052 12E0     		b	.L10
 106              	.LVL14:
ARM GAS  /tmp/ccbjN9K1.s 			page 14


 107              	.L12:
 619:Drivers/lvgl/lvgl/src/extra/widgets/colorwheel/lv_colorwheel.c ****         return;
 108              		.loc 1 619 0 is_stmt 1
 109 0054 3A70     		strb	r2, [r7]
 110 0056 2270     		strb	r2, [r4]
 111 0058 1A70     		strb	r2, [r3]
 620:Drivers/lvgl/lvgl/src/extra/widgets/colorwheel/lv_colorwheel.c ****     }
 112              		.loc 1 620 0
 113 005a 15E0     		b	.L1
 114              	.LVL15:
 115              	.L6:
 624:Drivers/lvgl/lvgl/src/extra/widgets/colorwheel/lv_colorwheel.c **** 
 116              		.loc 1 624 0 discriminator 8
 117 005c 16F0010F 		tst	r6, #1
 118 0060 E9D1     		bne	.L7
 624:Drivers/lvgl/lvgl/src/extra/widgets/colorwheel/lv_colorwheel.c **** 
 119              		.loc 1 624 0 is_stmt 0
 120 0062 1946     		mov	r1, r3
 121 0064 3B46     		mov	r3, r7
 122              	.LVL16:
 123 0066 0F46     		mov	r7, r1
 124              	.LVL17:
 125 0068 E5E7     		b	.L7
 126              	.LVL18:
 127              	.L9:
 128              		.loc 1 636 0 is_stmt 1 discriminator 2
 129 006a 4942     		negs	r1, r1
 130              	.LVL19:
 131 006c C9B2     		uxtb	r1, r1
 132              	.LVL20:
 133 006e 05FB01F1 		mul	r1, r5, r1
 134 0072 02E0     		b	.L10
 135              	.LVL21:
 136              	.L8:
 637:Drivers/lvgl/lvgl/src/extra/widgets/colorwheel/lv_colorwheel.c ****     }
 638:Drivers/lvgl/lvgl/src/extra/widgets/colorwheel/lv_colorwheel.c ****     else {
 639:Drivers/lvgl/lvgl/src/extra/widgets/colorwheel/lv_colorwheel.c ****         /*Down slope*/
 640:Drivers/lvgl/lvgl/src/extra/widgets/colorwheel/lv_colorwheel.c ****         ww = s * h_frac;
 137              		.loc 1 640 0
 138 0074 C1B2     		uxtb	r1, r0
 139              	.LVL22:
 140 0076 01FB05F1 		mul	r1, r1, r5
 141              	.LVL23:
 142              	.L10:
 641:Drivers/lvgl/lvgl/src/extra/widgets/colorwheel/lv_colorwheel.c ****     }
 642:Drivers/lvgl/lvgl/src/extra/widgets/colorwheel/lv_colorwheel.c ****     bb = ww >> 8;
 643:Drivers/lvgl/lvgl/src/extra/widgets/colorwheel/lv_colorwheel.c ****     bb = ~bb;
 143              		.loc 1 643 0
 144 007a 6FEA1121 		mvn	r1, r1, lsr #8
 145              	.LVL24:
 644:Drivers/lvgl/lvgl/src/extra/widgets/colorwheel/lv_colorwheel.c ****     ww = v * bb;
 146              		.loc 1 644 0
 147 007e C9B2     		uxtb	r1, r1
 148 0080 02FB01F1 		mul	r1, r2, r1
 149              	.LVL25:
 645:Drivers/lvgl/lvgl/src/extra/widgets/colorwheel/lv_colorwheel.c ****     *r = ww >> 8;
 150              		.loc 1 645 0
ARM GAS  /tmp/ccbjN9K1.s 			page 15


 151 0084 090A     		lsrs	r1, r1, #8
 152              	.LVL26:
 153 0086 1970     		strb	r1, [r3]
 154              	.LVL27:
 155              	.L1:
 646:Drivers/lvgl/lvgl/src/extra/widgets/colorwheel/lv_colorwheel.c **** }
 156              		.loc 1 646 0
 157 0088 F0BC     		pop	{r4, r5, r6, r7}
 158              	.LCFI1:
 159              		.cfi_restore 7
 160              		.cfi_restore 6
 161              		.cfi_restore 5
 162              		.cfi_restore 4
 163              		.cfi_def_cfa_offset 0
 164 008a 7047     		bx	lr
 165              		.cfi_endproc
 166              	.LFE220:
 168              		.section	.text.angle_to_mode_color_fast,"ax",%progbits
 169              		.align	1
 170              		.syntax unified
 171              		.thumb
 172              		.thumb_func
 173              		.fpu fpv5-d16
 175              	angle_to_mode_color_fast:
 176              	.LFB221:
 647:Drivers/lvgl/lvgl/src/extra/widgets/colorwheel/lv_colorwheel.c **** 
 648:Drivers/lvgl/lvgl/src/extra/widgets/colorwheel/lv_colorwheel.c **** static lv_color_t angle_to_mode_color_fast(lv_obj_t * obj, uint16_t angle)
 649:Drivers/lvgl/lvgl/src/extra/widgets/colorwheel/lv_colorwheel.c **** {
 177              		.loc 1 649 0
 178              		.cfi_startproc
 179              		@ args = 0, pretend = 0, frame = 8
 180              		@ frame_needed = 0, uses_anonymous_args = 0
 181              	.LVL28:
 182 0000 30B5     		push	{r4, r5, lr}
 183              	.LCFI2:
 184              		.cfi_def_cfa_offset 12
 185              		.cfi_offset 4, -12
 186              		.cfi_offset 5, -8
 187              		.cfi_offset 14, -4
 188 0002 85B0     		sub	sp, sp, #20
 189              	.LCFI3:
 190              		.cfi_def_cfa_offset 32
 191              	.LVL29:
 650:Drivers/lvgl/lvgl/src/extra/widgets/colorwheel/lv_colorwheel.c ****     lv_colorwheel_t * ext = (lv_colorwheel_t *)obj;
 651:Drivers/lvgl/lvgl/src/extra/widgets/colorwheel/lv_colorwheel.c ****     uint8_t r = 0, g = 0, b = 0;
 192              		.loc 1 651 0
 193 0004 0023     		movs	r3, #0
 194 0006 8DF80F30 		strb	r3, [sp, #15]
 195 000a 8DF80E30 		strb	r3, [sp, #14]
 196 000e 8DF80D30 		strb	r3, [sp, #13]
 652:Drivers/lvgl/lvgl/src/extra/widgets/colorwheel/lv_colorwheel.c ****     static uint16_t h = 0;
 653:Drivers/lvgl/lvgl/src/extra/widgets/colorwheel/lv_colorwheel.c ****     static uint8_t s = 0, v = 0, m = 255;
 654:Drivers/lvgl/lvgl/src/extra/widgets/colorwheel/lv_colorwheel.c ****     static uint16_t angle_saved = 0xffff;
 655:Drivers/lvgl/lvgl/src/extra/widgets/colorwheel/lv_colorwheel.c **** 
 656:Drivers/lvgl/lvgl/src/extra/widgets/colorwheel/lv_colorwheel.c ****     /*If the angle is different recalculate scaling*/
 657:Drivers/lvgl/lvgl/src/extra/widgets/colorwheel/lv_colorwheel.c ****     if(angle_saved != angle) m = 255;
 197              		.loc 1 657 0
ARM GAS  /tmp/ccbjN9K1.s 			page 16


 198 0012 5A4B     		ldr	r3, .L23
 199 0014 1B88     		ldrh	r3, [r3]
 200 0016 8B42     		cmp	r3, r1
 201 0018 02D0     		beq	.L14
 202              		.loc 1 657 0 is_stmt 0 discriminator 1
 203 001a 594B     		ldr	r3, .L23+4
 204 001c FF22     		movs	r2, #255
 205 001e 1A70     		strb	r2, [r3]
 206              	.L14:
 658:Drivers/lvgl/lvgl/src/extra/widgets/colorwheel/lv_colorwheel.c ****     angle_saved = angle;
 207              		.loc 1 658 0 is_stmt 1
 208 0020 564B     		ldr	r3, .L23
 209 0022 1980     		strh	r1, [r3]	@ movhi
 659:Drivers/lvgl/lvgl/src/extra/widgets/colorwheel/lv_colorwheel.c **** 
 660:Drivers/lvgl/lvgl/src/extra/widgets/colorwheel/lv_colorwheel.c ****     switch(ext->mode) {
 210              		.loc 1 660 0
 211 0024 90F83C30 		ldrb	r3, [r0, #60]	@ zero_extendqisi2
 212 0028 C3F30103 		ubfx	r3, r3, #0, #2
 213 002c DAB2     		uxtb	r2, r3
 214 002e 012A     		cmp	r2, #1
 215 0030 46D0     		beq	.L16
 216 0032 022A     		cmp	r2, #2
 217 0034 72D0     		beq	.L17
 661:Drivers/lvgl/lvgl/src/extra/widgets/colorwheel/lv_colorwheel.c ****         default:
 662:Drivers/lvgl/lvgl/src/extra/widgets/colorwheel/lv_colorwheel.c ****         case LV_COLORWHEEL_MODE_HUE:
 663:Drivers/lvgl/lvgl/src/extra/widgets/colorwheel/lv_colorwheel.c ****             /*Don't recompute costly scaling if it does not change*/
 664:Drivers/lvgl/lvgl/src/extra/widgets/colorwheel/lv_colorwheel.c ****             if(m != ext->mode) {
 218              		.loc 1 664 0
 219 0036 524C     		ldr	r4, .L23+4
 220 0038 2478     		ldrb	r4, [r4]	@ zero_extendqisi2
 221 003a A242     		cmp	r2, r4
 222 003c 1AD0     		beq	.L18
 665:Drivers/lvgl/lvgl/src/extra/widgets/colorwheel/lv_colorwheel.c ****                 s = (uint8_t)(((uint16_t)ext->hsv.s * 51) / 20);
 223              		.loc 1 665 0
 224 003e 90F82620 		ldrb	r2, [r0, #38]	@ zero_extendqisi2
 225 0042 02EB4202 		add	r2, r2, r2, lsl #1
 226 0046 02EB0214 		add	r4, r2, r2, lsl #4
 227 004a 4E4D     		ldr	r5, .L23+8
 228 004c 85FB0424 		smull	r2, r4, r5, r4
 229 0050 C4F3C704 		ubfx	r4, r4, #3, #8
 230 0054 4C4A     		ldr	r2, .L23+12
 231 0056 1470     		strb	r4, [r2]
 666:Drivers/lvgl/lvgl/src/extra/widgets/colorwheel/lv_colorwheel.c ****                 v = (uint8_t)(((uint16_t)ext->hsv.v * 51) / 20);
 232              		.loc 1 666 0
 233 0058 90F82720 		ldrb	r2, [r0, #39]	@ zero_extendqisi2
 234 005c 02EB4202 		add	r2, r2, r2, lsl #1
 235 0060 02EB0212 		add	r2, r2, r2, lsl #4
 236 0064 85FB0202 		smull	r0, r2, r5, r2
 237              	.LVL30:
 238 0068 C2F3C702 		ubfx	r2, r2, #3, #8
 239 006c 4748     		ldr	r0, .L23+16
 240 006e 0270     		strb	r2, [r0]
 667:Drivers/lvgl/lvgl/src/extra/widgets/colorwheel/lv_colorwheel.c ****                 m = ext->mode;
 241              		.loc 1 667 0
 242 0070 434A     		ldr	r2, .L23+4
 243 0072 1370     		strb	r3, [r2]
 244              	.L18:
ARM GAS  /tmp/ccbjN9K1.s 			page 17


 668:Drivers/lvgl/lvgl/src/extra/widgets/colorwheel/lv_colorwheel.c ****             }
 669:Drivers/lvgl/lvgl/src/extra/widgets/colorwheel/lv_colorwheel.c ****             fast_hsv2rgb(angle * 6, s, v, &r, &g,
 245              		.loc 1 669 0
 246 0074 454B     		ldr	r3, .L23+16
 247 0076 1A78     		ldrb	r2, [r3]	@ zero_extendqisi2
 248 0078 434B     		ldr	r3, .L23+12
 249 007a 1C78     		ldrb	r4, [r3]	@ zero_extendqisi2
 250 007c 01EB4100 		add	r0, r1, r1, lsl #1
 251 0080 4000     		lsls	r0, r0, #1
 252 0082 80B2     		uxth	r0, r0
 253 0084 0DF10D03 		add	r3, sp, #13
 254 0088 0193     		str	r3, [sp, #4]
 255 008a 0DF10E03 		add	r3, sp, #14
 256 008e 0093     		str	r3, [sp]
 257 0090 0DF10F03 		add	r3, sp, #15
 258 0094 2146     		mov	r1, r4
 259              	.LVL31:
 260 0096 FFF7FEFF 		bl	fast_hsv2rgb
 261              	.LVL32:
 262              	.L19:
 670:Drivers/lvgl/lvgl/src/extra/widgets/colorwheel/lv_colorwheel.c ****                          &b); /*A smart compiler will replace x * 6 by (x << 2) + (x << 1) if it's 
 671:Drivers/lvgl/lvgl/src/extra/widgets/colorwheel/lv_colorwheel.c ****             break;
 672:Drivers/lvgl/lvgl/src/extra/widgets/colorwheel/lv_colorwheel.c ****         case LV_COLORWHEEL_MODE_SATURATION:
 673:Drivers/lvgl/lvgl/src/extra/widgets/colorwheel/lv_colorwheel.c ****             /*Don't recompute costly scaling if it does not change*/
 674:Drivers/lvgl/lvgl/src/extra/widgets/colorwheel/lv_colorwheel.c ****             if(m != ext->mode) {
 675:Drivers/lvgl/lvgl/src/extra/widgets/colorwheel/lv_colorwheel.c ****                 h = (uint16_t)(((uint32_t)ext->hsv.h * 6 * 256) / 360);
 676:Drivers/lvgl/lvgl/src/extra/widgets/colorwheel/lv_colorwheel.c ****                 v = (uint8_t)(((uint16_t)ext->hsv.v * 51) / 20);
 677:Drivers/lvgl/lvgl/src/extra/widgets/colorwheel/lv_colorwheel.c ****                 m = ext->mode;
 678:Drivers/lvgl/lvgl/src/extra/widgets/colorwheel/lv_colorwheel.c ****             }
 679:Drivers/lvgl/lvgl/src/extra/widgets/colorwheel/lv_colorwheel.c ****             fast_hsv2rgb(h, angle, v, &r, &g, &b);
 680:Drivers/lvgl/lvgl/src/extra/widgets/colorwheel/lv_colorwheel.c ****             break;
 681:Drivers/lvgl/lvgl/src/extra/widgets/colorwheel/lv_colorwheel.c ****         case LV_COLORWHEEL_MODE_VALUE:
 682:Drivers/lvgl/lvgl/src/extra/widgets/colorwheel/lv_colorwheel.c ****             /*Don't recompute costly scaling if it does not change*/
 683:Drivers/lvgl/lvgl/src/extra/widgets/colorwheel/lv_colorwheel.c ****             if(m != ext->mode) {
 684:Drivers/lvgl/lvgl/src/extra/widgets/colorwheel/lv_colorwheel.c ****                 h = (uint16_t)(((uint32_t)ext->hsv.h * 6 * 256) / 360);
 685:Drivers/lvgl/lvgl/src/extra/widgets/colorwheel/lv_colorwheel.c ****                 s = (uint8_t)(((uint16_t)ext->hsv.s * 51) / 20);
 686:Drivers/lvgl/lvgl/src/extra/widgets/colorwheel/lv_colorwheel.c ****                 m = ext->mode;
 687:Drivers/lvgl/lvgl/src/extra/widgets/colorwheel/lv_colorwheel.c ****             }
 688:Drivers/lvgl/lvgl/src/extra/widgets/colorwheel/lv_colorwheel.c ****             fast_hsv2rgb(h, s, angle, &r, &g, &b);
 689:Drivers/lvgl/lvgl/src/extra/widgets/colorwheel/lv_colorwheel.c ****             break;
 690:Drivers/lvgl/lvgl/src/extra/widgets/colorwheel/lv_colorwheel.c ****     }
 691:Drivers/lvgl/lvgl/src/extra/widgets/colorwheel/lv_colorwheel.c ****     return lv_color_make(r, g, b);
 263              		.loc 1 691 0
 264 009a 9DF80F30 		ldrb	r3, [sp, #15]	@ zero_extendqisi2
 265 009e 9DF80E20 		ldrb	r2, [sp, #14]	@ zero_extendqisi2
 266 00a2 9DF80D10 		ldrb	r1, [sp, #13]	@ zero_extendqisi2
 267              	.LVL33:
 268              	.LBB52:
 269              	.LBB53:
 270              		.file 2 "Drivers/lvgl/lvgl/src/extra/widgets/colorwheel/../../../../src/hal/../draw/../misc/lv_col
   1:Drivers/lvgl/lvgl/src/extra/widgets/colorwheel/../../../../src/hal/../draw/../misc/lv_color.h **** /**
   2:Drivers/lvgl/lvgl/src/extra/widgets/colorwheel/../../../../src/hal/../draw/../misc/lv_color.h ****  * @file lv_color.h
   3:Drivers/lvgl/lvgl/src/extra/widgets/colorwheel/../../../../src/hal/../draw/../misc/lv_color.h ****  *
   4:Drivers/lvgl/lvgl/src/extra/widgets/colorwheel/../../../../src/hal/../draw/../misc/lv_color.h ****  */
   5:Drivers/lvgl/lvgl/src/extra/widgets/colorwheel/../../../../src/hal/../draw/../misc/lv_color.h **** 
   6:Drivers/lvgl/lvgl/src/extra/widgets/colorwheel/../../../../src/hal/../draw/../misc/lv_color.h **** #ifndef LV_COLOR_H
   7:Drivers/lvgl/lvgl/src/extra/widgets/colorwheel/../../../../src/hal/../draw/../misc/lv_color.h **** #define LV_COLOR_H
ARM GAS  /tmp/ccbjN9K1.s 			page 18


   8:Drivers/lvgl/lvgl/src/extra/widgets/colorwheel/../../../../src/hal/../draw/../misc/lv_color.h **** 
   9:Drivers/lvgl/lvgl/src/extra/widgets/colorwheel/../../../../src/hal/../draw/../misc/lv_color.h **** #ifdef __cplusplus
  10:Drivers/lvgl/lvgl/src/extra/widgets/colorwheel/../../../../src/hal/../draw/../misc/lv_color.h **** extern "C" {
  11:Drivers/lvgl/lvgl/src/extra/widgets/colorwheel/../../../../src/hal/../draw/../misc/lv_color.h **** #endif
  12:Drivers/lvgl/lvgl/src/extra/widgets/colorwheel/../../../../src/hal/../draw/../misc/lv_color.h **** 
  13:Drivers/lvgl/lvgl/src/extra/widgets/colorwheel/../../../../src/hal/../draw/../misc/lv_color.h **** /*********************
  14:Drivers/lvgl/lvgl/src/extra/widgets/colorwheel/../../../../src/hal/../draw/../misc/lv_color.h ****  *      INCLUDES
  15:Drivers/lvgl/lvgl/src/extra/widgets/colorwheel/../../../../src/hal/../draw/../misc/lv_color.h ****  *********************/
  16:Drivers/lvgl/lvgl/src/extra/widgets/colorwheel/../../../../src/hal/../draw/../misc/lv_color.h **** #include "../lv_conf_internal.h"
  17:Drivers/lvgl/lvgl/src/extra/widgets/colorwheel/../../../../src/hal/../draw/../misc/lv_color.h **** #include "lv_assert.h"
  18:Drivers/lvgl/lvgl/src/extra/widgets/colorwheel/../../../../src/hal/../draw/../misc/lv_color.h **** #include "lv_math.h"
  19:Drivers/lvgl/lvgl/src/extra/widgets/colorwheel/../../../../src/hal/../draw/../misc/lv_color.h **** #include "lv_types.h"
  20:Drivers/lvgl/lvgl/src/extra/widgets/colorwheel/../../../../src/hal/../draw/../misc/lv_color.h **** 
  21:Drivers/lvgl/lvgl/src/extra/widgets/colorwheel/../../../../src/hal/../draw/../misc/lv_color.h **** /*Error checking*/
  22:Drivers/lvgl/lvgl/src/extra/widgets/colorwheel/../../../../src/hal/../draw/../misc/lv_color.h **** #if LV_COLOR_DEPTH == 24
  23:Drivers/lvgl/lvgl/src/extra/widgets/colorwheel/../../../../src/hal/../draw/../misc/lv_color.h **** #error "LV_COLOR_DEPTH 24 is deprecated. Use LV_COLOR_DEPTH 32 instead (lv_conf.h)"
  24:Drivers/lvgl/lvgl/src/extra/widgets/colorwheel/../../../../src/hal/../draw/../misc/lv_color.h **** #endif
  25:Drivers/lvgl/lvgl/src/extra/widgets/colorwheel/../../../../src/hal/../draw/../misc/lv_color.h **** 
  26:Drivers/lvgl/lvgl/src/extra/widgets/colorwheel/../../../../src/hal/../draw/../misc/lv_color.h **** #if LV_COLOR_DEPTH != 16 && LV_COLOR_16_SWAP != 0
  27:Drivers/lvgl/lvgl/src/extra/widgets/colorwheel/../../../../src/hal/../draw/../misc/lv_color.h **** #error "LV_COLOR_16_SWAP requires LV_COLOR_DEPTH == 16. Set it in lv_conf.h"
  28:Drivers/lvgl/lvgl/src/extra/widgets/colorwheel/../../../../src/hal/../draw/../misc/lv_color.h **** #endif
  29:Drivers/lvgl/lvgl/src/extra/widgets/colorwheel/../../../../src/hal/../draw/../misc/lv_color.h **** 
  30:Drivers/lvgl/lvgl/src/extra/widgets/colorwheel/../../../../src/hal/../draw/../misc/lv_color.h **** #include <stdint.h>
  31:Drivers/lvgl/lvgl/src/extra/widgets/colorwheel/../../../../src/hal/../draw/../misc/lv_color.h **** 
  32:Drivers/lvgl/lvgl/src/extra/widgets/colorwheel/../../../../src/hal/../draw/../misc/lv_color.h **** /*********************
  33:Drivers/lvgl/lvgl/src/extra/widgets/colorwheel/../../../../src/hal/../draw/../misc/lv_color.h ****  *      DEFINES
  34:Drivers/lvgl/lvgl/src/extra/widgets/colorwheel/../../../../src/hal/../draw/../misc/lv_color.h ****  *********************/
  35:Drivers/lvgl/lvgl/src/extra/widgets/colorwheel/../../../../src/hal/../draw/../misc/lv_color.h **** LV_EXPORT_CONST_INT(LV_COLOR_DEPTH);
  36:Drivers/lvgl/lvgl/src/extra/widgets/colorwheel/../../../../src/hal/../draw/../misc/lv_color.h **** LV_EXPORT_CONST_INT(LV_COLOR_16_SWAP);
  37:Drivers/lvgl/lvgl/src/extra/widgets/colorwheel/../../../../src/hal/../draw/../misc/lv_color.h **** 
  38:Drivers/lvgl/lvgl/src/extra/widgets/colorwheel/../../../../src/hal/../draw/../misc/lv_color.h **** /**
  39:Drivers/lvgl/lvgl/src/extra/widgets/colorwheel/../../../../src/hal/../draw/../misc/lv_color.h ****  * Opacity percentages.
  40:Drivers/lvgl/lvgl/src/extra/widgets/colorwheel/../../../../src/hal/../draw/../misc/lv_color.h ****  */
  41:Drivers/lvgl/lvgl/src/extra/widgets/colorwheel/../../../../src/hal/../draw/../misc/lv_color.h **** enum {
  42:Drivers/lvgl/lvgl/src/extra/widgets/colorwheel/../../../../src/hal/../draw/../misc/lv_color.h ****     LV_OPA_TRANSP = 0,
  43:Drivers/lvgl/lvgl/src/extra/widgets/colorwheel/../../../../src/hal/../draw/../misc/lv_color.h ****     LV_OPA_0      = 0,
  44:Drivers/lvgl/lvgl/src/extra/widgets/colorwheel/../../../../src/hal/../draw/../misc/lv_color.h ****     LV_OPA_10     = 25,
  45:Drivers/lvgl/lvgl/src/extra/widgets/colorwheel/../../../../src/hal/../draw/../misc/lv_color.h ****     LV_OPA_20     = 51,
  46:Drivers/lvgl/lvgl/src/extra/widgets/colorwheel/../../../../src/hal/../draw/../misc/lv_color.h ****     LV_OPA_30     = 76,
  47:Drivers/lvgl/lvgl/src/extra/widgets/colorwheel/../../../../src/hal/../draw/../misc/lv_color.h ****     LV_OPA_40     = 102,
  48:Drivers/lvgl/lvgl/src/extra/widgets/colorwheel/../../../../src/hal/../draw/../misc/lv_color.h ****     LV_OPA_50     = 127,
  49:Drivers/lvgl/lvgl/src/extra/widgets/colorwheel/../../../../src/hal/../draw/../misc/lv_color.h ****     LV_OPA_60     = 153,
  50:Drivers/lvgl/lvgl/src/extra/widgets/colorwheel/../../../../src/hal/../draw/../misc/lv_color.h ****     LV_OPA_70     = 178,
  51:Drivers/lvgl/lvgl/src/extra/widgets/colorwheel/../../../../src/hal/../draw/../misc/lv_color.h ****     LV_OPA_80     = 204,
  52:Drivers/lvgl/lvgl/src/extra/widgets/colorwheel/../../../../src/hal/../draw/../misc/lv_color.h ****     LV_OPA_90     = 229,
  53:Drivers/lvgl/lvgl/src/extra/widgets/colorwheel/../../../../src/hal/../draw/../misc/lv_color.h ****     LV_OPA_100    = 255,
  54:Drivers/lvgl/lvgl/src/extra/widgets/colorwheel/../../../../src/hal/../draw/../misc/lv_color.h ****     LV_OPA_COVER  = 255,
  55:Drivers/lvgl/lvgl/src/extra/widgets/colorwheel/../../../../src/hal/../draw/../misc/lv_color.h **** };
  56:Drivers/lvgl/lvgl/src/extra/widgets/colorwheel/../../../../src/hal/../draw/../misc/lv_color.h **** 
  57:Drivers/lvgl/lvgl/src/extra/widgets/colorwheel/../../../../src/hal/../draw/../misc/lv_color.h **** #define LV_OPA_MIN 2    /*Opacities below this will be transparent*/
  58:Drivers/lvgl/lvgl/src/extra/widgets/colorwheel/../../../../src/hal/../draw/../misc/lv_color.h **** #define LV_OPA_MAX 253  /*Opacities above this will fully cover*/
  59:Drivers/lvgl/lvgl/src/extra/widgets/colorwheel/../../../../src/hal/../draw/../misc/lv_color.h **** 
  60:Drivers/lvgl/lvgl/src/extra/widgets/colorwheel/../../../../src/hal/../draw/../misc/lv_color.h **** #if LV_COLOR_DEPTH == 1
  61:Drivers/lvgl/lvgl/src/extra/widgets/colorwheel/../../../../src/hal/../draw/../misc/lv_color.h **** #define LV_COLOR_SIZE 8
  62:Drivers/lvgl/lvgl/src/extra/widgets/colorwheel/../../../../src/hal/../draw/../misc/lv_color.h **** #elif LV_COLOR_DEPTH == 8
  63:Drivers/lvgl/lvgl/src/extra/widgets/colorwheel/../../../../src/hal/../draw/../misc/lv_color.h **** #define LV_COLOR_SIZE 8
  64:Drivers/lvgl/lvgl/src/extra/widgets/colorwheel/../../../../src/hal/../draw/../misc/lv_color.h **** #elif LV_COLOR_DEPTH == 16
ARM GAS  /tmp/ccbjN9K1.s 			page 19


  65:Drivers/lvgl/lvgl/src/extra/widgets/colorwheel/../../../../src/hal/../draw/../misc/lv_color.h **** #define LV_COLOR_SIZE 16
  66:Drivers/lvgl/lvgl/src/extra/widgets/colorwheel/../../../../src/hal/../draw/../misc/lv_color.h **** #elif LV_COLOR_DEPTH == 32
  67:Drivers/lvgl/lvgl/src/extra/widgets/colorwheel/../../../../src/hal/../draw/../misc/lv_color.h **** #define LV_COLOR_SIZE 32
  68:Drivers/lvgl/lvgl/src/extra/widgets/colorwheel/../../../../src/hal/../draw/../misc/lv_color.h **** #else
  69:Drivers/lvgl/lvgl/src/extra/widgets/colorwheel/../../../../src/hal/../draw/../misc/lv_color.h **** #error "Invalid LV_COLOR_DEPTH in lv_conf.h! Set it to 1, 8, 16 or 32!"
  70:Drivers/lvgl/lvgl/src/extra/widgets/colorwheel/../../../../src/hal/../draw/../misc/lv_color.h **** #endif
  71:Drivers/lvgl/lvgl/src/extra/widgets/colorwheel/../../../../src/hal/../draw/../misc/lv_color.h **** 
  72:Drivers/lvgl/lvgl/src/extra/widgets/colorwheel/../../../../src/hal/../draw/../misc/lv_color.h **** #if defined(__cplusplus) && !defined(_LV_COLOR_HAS_MODERN_CPP)
  73:Drivers/lvgl/lvgl/src/extra/widgets/colorwheel/../../../../src/hal/../draw/../misc/lv_color.h **** /**
  74:Drivers/lvgl/lvgl/src/extra/widgets/colorwheel/../../../../src/hal/../draw/../misc/lv_color.h **** * MSVC compiler's definition of the __cplusplus indicating 199711L regardless to C++ standard versi
  75:Drivers/lvgl/lvgl/src/extra/widgets/colorwheel/../../../../src/hal/../draw/../misc/lv_color.h **** * see https://devblogs.microsoft.com/cppblog/msvc-now-correctly-reports-cplusplus
  76:Drivers/lvgl/lvgl/src/extra/widgets/colorwheel/../../../../src/hal/../draw/../misc/lv_color.h **** * so we use _MSC_VER macro instead of __cplusplus
  77:Drivers/lvgl/lvgl/src/extra/widgets/colorwheel/../../../../src/hal/../draw/../misc/lv_color.h **** */
  78:Drivers/lvgl/lvgl/src/extra/widgets/colorwheel/../../../../src/hal/../draw/../misc/lv_color.h **** #ifdef _MSC_VER
  79:Drivers/lvgl/lvgl/src/extra/widgets/colorwheel/../../../../src/hal/../draw/../misc/lv_color.h **** #if _MSC_VER >= 1900 /*Visual Studio 2015*/
  80:Drivers/lvgl/lvgl/src/extra/widgets/colorwheel/../../../../src/hal/../draw/../misc/lv_color.h **** #define _LV_COLOR_HAS_MODERN_CPP 1
  81:Drivers/lvgl/lvgl/src/extra/widgets/colorwheel/../../../../src/hal/../draw/../misc/lv_color.h **** #endif
  82:Drivers/lvgl/lvgl/src/extra/widgets/colorwheel/../../../../src/hal/../draw/../misc/lv_color.h **** #else
  83:Drivers/lvgl/lvgl/src/extra/widgets/colorwheel/../../../../src/hal/../draw/../misc/lv_color.h **** #if __cplusplus >= 201103L
  84:Drivers/lvgl/lvgl/src/extra/widgets/colorwheel/../../../../src/hal/../draw/../misc/lv_color.h **** #define _LV_COLOR_HAS_MODERN_CPP 1
  85:Drivers/lvgl/lvgl/src/extra/widgets/colorwheel/../../../../src/hal/../draw/../misc/lv_color.h **** #endif
  86:Drivers/lvgl/lvgl/src/extra/widgets/colorwheel/../../../../src/hal/../draw/../misc/lv_color.h **** #endif
  87:Drivers/lvgl/lvgl/src/extra/widgets/colorwheel/../../../../src/hal/../draw/../misc/lv_color.h **** #endif /*__cplusplus*/
  88:Drivers/lvgl/lvgl/src/extra/widgets/colorwheel/../../../../src/hal/../draw/../misc/lv_color.h **** 
  89:Drivers/lvgl/lvgl/src/extra/widgets/colorwheel/../../../../src/hal/../draw/../misc/lv_color.h **** #ifndef _LV_COLOR_HAS_MODERN_CPP
  90:Drivers/lvgl/lvgl/src/extra/widgets/colorwheel/../../../../src/hal/../draw/../misc/lv_color.h **** #define _LV_COLOR_HAS_MODERN_CPP 0
  91:Drivers/lvgl/lvgl/src/extra/widgets/colorwheel/../../../../src/hal/../draw/../misc/lv_color.h **** #endif
  92:Drivers/lvgl/lvgl/src/extra/widgets/colorwheel/../../../../src/hal/../draw/../misc/lv_color.h **** 
  93:Drivers/lvgl/lvgl/src/extra/widgets/colorwheel/../../../../src/hal/../draw/../misc/lv_color.h **** #if _LV_COLOR_HAS_MODERN_CPP
  94:Drivers/lvgl/lvgl/src/extra/widgets/colorwheel/../../../../src/hal/../draw/../misc/lv_color.h **** /*Fix msvc compiler error C4576 inside C++ code*/
  95:Drivers/lvgl/lvgl/src/extra/widgets/colorwheel/../../../../src/hal/../draw/../misc/lv_color.h **** #define _LV_COLOR_MAKE_TYPE_HELPER lv_color_t
  96:Drivers/lvgl/lvgl/src/extra/widgets/colorwheel/../../../../src/hal/../draw/../misc/lv_color.h **** #else
  97:Drivers/lvgl/lvgl/src/extra/widgets/colorwheel/../../../../src/hal/../draw/../misc/lv_color.h **** #define _LV_COLOR_MAKE_TYPE_HELPER (lv_color_t)
  98:Drivers/lvgl/lvgl/src/extra/widgets/colorwheel/../../../../src/hal/../draw/../misc/lv_color.h **** #endif
  99:Drivers/lvgl/lvgl/src/extra/widgets/colorwheel/../../../../src/hal/../draw/../misc/lv_color.h **** 
 100:Drivers/lvgl/lvgl/src/extra/widgets/colorwheel/../../../../src/hal/../draw/../misc/lv_color.h **** /*---------------------------------------
 101:Drivers/lvgl/lvgl/src/extra/widgets/colorwheel/../../../../src/hal/../draw/../misc/lv_color.h ****  * Macros for all existing color depths
 102:Drivers/lvgl/lvgl/src/extra/widgets/colorwheel/../../../../src/hal/../draw/../misc/lv_color.h ****  * to set/get values of the color channels
 103:Drivers/lvgl/lvgl/src/extra/widgets/colorwheel/../../../../src/hal/../draw/../misc/lv_color.h ****  *------------------------------------------*/
 104:Drivers/lvgl/lvgl/src/extra/widgets/colorwheel/../../../../src/hal/../draw/../misc/lv_color.h **** # define LV_COLOR_SET_R1(c, v) (c).ch.red = (uint8_t)((v) & 0x1)
 105:Drivers/lvgl/lvgl/src/extra/widgets/colorwheel/../../../../src/hal/../draw/../misc/lv_color.h **** # define LV_COLOR_SET_G1(c, v) (c).ch.green = (uint8_t)((v) & 0x1)
 106:Drivers/lvgl/lvgl/src/extra/widgets/colorwheel/../../../../src/hal/../draw/../misc/lv_color.h **** # define LV_COLOR_SET_B1(c, v) (c).ch.blue = (uint8_t)((v) & 0x1)
 107:Drivers/lvgl/lvgl/src/extra/widgets/colorwheel/../../../../src/hal/../draw/../misc/lv_color.h **** # define LV_COLOR_SET_A1(c, v) do {} while(0)
 108:Drivers/lvgl/lvgl/src/extra/widgets/colorwheel/../../../../src/hal/../draw/../misc/lv_color.h **** 
 109:Drivers/lvgl/lvgl/src/extra/widgets/colorwheel/../../../../src/hal/../draw/../misc/lv_color.h **** # define LV_COLOR_GET_R1(c) (c).ch.red
 110:Drivers/lvgl/lvgl/src/extra/widgets/colorwheel/../../../../src/hal/../draw/../misc/lv_color.h **** # define LV_COLOR_GET_G1(c) (c).ch.green
 111:Drivers/lvgl/lvgl/src/extra/widgets/colorwheel/../../../../src/hal/../draw/../misc/lv_color.h **** # define LV_COLOR_GET_B1(c) (c).ch.blue
 112:Drivers/lvgl/lvgl/src/extra/widgets/colorwheel/../../../../src/hal/../draw/../misc/lv_color.h **** # define LV_COLOR_GET_A1(c) 0xFF
 113:Drivers/lvgl/lvgl/src/extra/widgets/colorwheel/../../../../src/hal/../draw/../misc/lv_color.h **** 
 114:Drivers/lvgl/lvgl/src/extra/widgets/colorwheel/../../../../src/hal/../draw/../misc/lv_color.h **** # define _LV_COLOR_ZERO_INITIALIZER1 {0x00}
 115:Drivers/lvgl/lvgl/src/extra/widgets/colorwheel/../../../../src/hal/../draw/../misc/lv_color.h **** # define LV_COLOR_MAKE1(r8, g8, b8)  {(uint8_t)((b8 >> 7) | (g8 >> 7) | (r8 >> 7))}
 116:Drivers/lvgl/lvgl/src/extra/widgets/colorwheel/../../../../src/hal/../draw/../misc/lv_color.h **** 
 117:Drivers/lvgl/lvgl/src/extra/widgets/colorwheel/../../../../src/hal/../draw/../misc/lv_color.h **** # define LV_COLOR_SET_R8(c, v) (c).ch.red = (uint8_t)((v) & 0x7U)
 118:Drivers/lvgl/lvgl/src/extra/widgets/colorwheel/../../../../src/hal/../draw/../misc/lv_color.h **** # define LV_COLOR_SET_G8(c, v) (c).ch.green = (uint8_t)((v) & 0x7U)
 119:Drivers/lvgl/lvgl/src/extra/widgets/colorwheel/../../../../src/hal/../draw/../misc/lv_color.h **** # define LV_COLOR_SET_B8(c, v) (c).ch.blue = (uint8_t)((v) & 0x3U)
 120:Drivers/lvgl/lvgl/src/extra/widgets/colorwheel/../../../../src/hal/../draw/../misc/lv_color.h **** # define LV_COLOR_SET_A8(c, v) do {} while(0)
 121:Drivers/lvgl/lvgl/src/extra/widgets/colorwheel/../../../../src/hal/../draw/../misc/lv_color.h **** 
ARM GAS  /tmp/ccbjN9K1.s 			page 20


 122:Drivers/lvgl/lvgl/src/extra/widgets/colorwheel/../../../../src/hal/../draw/../misc/lv_color.h **** # define LV_COLOR_GET_R8(c) (c).ch.red
 123:Drivers/lvgl/lvgl/src/extra/widgets/colorwheel/../../../../src/hal/../draw/../misc/lv_color.h **** # define LV_COLOR_GET_G8(c) (c).ch.green
 124:Drivers/lvgl/lvgl/src/extra/widgets/colorwheel/../../../../src/hal/../draw/../misc/lv_color.h **** # define LV_COLOR_GET_B8(c) (c).ch.blue
 125:Drivers/lvgl/lvgl/src/extra/widgets/colorwheel/../../../../src/hal/../draw/../misc/lv_color.h **** # define LV_COLOR_GET_A8(c) 0xFF
 126:Drivers/lvgl/lvgl/src/extra/widgets/colorwheel/../../../../src/hal/../draw/../misc/lv_color.h **** 
 127:Drivers/lvgl/lvgl/src/extra/widgets/colorwheel/../../../../src/hal/../draw/../misc/lv_color.h **** # define _LV_COLOR_ZERO_INITIALIZER8 {{0x00, 0x00, 0x00}}
 128:Drivers/lvgl/lvgl/src/extra/widgets/colorwheel/../../../../src/hal/../draw/../misc/lv_color.h **** # define LV_COLOR_MAKE8(r8, g8, b8) {{(uint8_t)((b8 >> 6) & 0x3U), (uint8_t)((g8 >> 5) & 0x7U), (ui
 129:Drivers/lvgl/lvgl/src/extra/widgets/colorwheel/../../../../src/hal/../draw/../misc/lv_color.h **** 
 130:Drivers/lvgl/lvgl/src/extra/widgets/colorwheel/../../../../src/hal/../draw/../misc/lv_color.h **** # define LV_COLOR_SET_R16(c, v) (c).ch.red = (uint8_t)((v) & 0x1FU)
 131:Drivers/lvgl/lvgl/src/extra/widgets/colorwheel/../../../../src/hal/../draw/../misc/lv_color.h **** #if LV_COLOR_16_SWAP == 0
 132:Drivers/lvgl/lvgl/src/extra/widgets/colorwheel/../../../../src/hal/../draw/../misc/lv_color.h **** # define LV_COLOR_SET_G16(c, v) (c).ch.green = (uint8_t)((v) & 0x3FU)
 133:Drivers/lvgl/lvgl/src/extra/widgets/colorwheel/../../../../src/hal/../draw/../misc/lv_color.h **** #else
 134:Drivers/lvgl/lvgl/src/extra/widgets/colorwheel/../../../../src/hal/../draw/../misc/lv_color.h **** # define LV_COLOR_SET_G16(c, v) {(c).ch.green_h = (uint8_t)(((v) >> 3) & 0x7); (c).ch.green_l = (ui
 135:Drivers/lvgl/lvgl/src/extra/widgets/colorwheel/../../../../src/hal/../draw/../misc/lv_color.h **** #endif
 136:Drivers/lvgl/lvgl/src/extra/widgets/colorwheel/../../../../src/hal/../draw/../misc/lv_color.h **** # define LV_COLOR_SET_B16(c, v) (c).ch.blue = (uint8_t)((v) & 0x1FU)
 137:Drivers/lvgl/lvgl/src/extra/widgets/colorwheel/../../../../src/hal/../draw/../misc/lv_color.h **** # define LV_COLOR_SET_A16(c, v) do {} while(0)
 138:Drivers/lvgl/lvgl/src/extra/widgets/colorwheel/../../../../src/hal/../draw/../misc/lv_color.h **** 
 139:Drivers/lvgl/lvgl/src/extra/widgets/colorwheel/../../../../src/hal/../draw/../misc/lv_color.h **** # define LV_COLOR_GET_R16(c) (c).ch.red
 140:Drivers/lvgl/lvgl/src/extra/widgets/colorwheel/../../../../src/hal/../draw/../misc/lv_color.h **** #if LV_COLOR_16_SWAP == 0
 141:Drivers/lvgl/lvgl/src/extra/widgets/colorwheel/../../../../src/hal/../draw/../misc/lv_color.h **** # define LV_COLOR_GET_G16(c) (c).ch.green
 142:Drivers/lvgl/lvgl/src/extra/widgets/colorwheel/../../../../src/hal/../draw/../misc/lv_color.h **** #else
 143:Drivers/lvgl/lvgl/src/extra/widgets/colorwheel/../../../../src/hal/../draw/../misc/lv_color.h **** # define LV_COLOR_GET_G16(c) (((c).ch.green_h << 3) + (c).ch.green_l)
 144:Drivers/lvgl/lvgl/src/extra/widgets/colorwheel/../../../../src/hal/../draw/../misc/lv_color.h **** #endif
 145:Drivers/lvgl/lvgl/src/extra/widgets/colorwheel/../../../../src/hal/../draw/../misc/lv_color.h **** # define LV_COLOR_GET_B16(c) (c).ch.blue
 146:Drivers/lvgl/lvgl/src/extra/widgets/colorwheel/../../../../src/hal/../draw/../misc/lv_color.h **** # define LV_COLOR_GET_A16(c) 0xFF
 147:Drivers/lvgl/lvgl/src/extra/widgets/colorwheel/../../../../src/hal/../draw/../misc/lv_color.h **** 
 148:Drivers/lvgl/lvgl/src/extra/widgets/colorwheel/../../../../src/hal/../draw/../misc/lv_color.h **** #if LV_COLOR_16_SWAP == 0
 149:Drivers/lvgl/lvgl/src/extra/widgets/colorwheel/../../../../src/hal/../draw/../misc/lv_color.h **** # define _LV_COLOR_ZERO_INITIALIZER16  {{0x00, 0x00, 0x00}}
 150:Drivers/lvgl/lvgl/src/extra/widgets/colorwheel/../../../../src/hal/../draw/../misc/lv_color.h **** # define LV_COLOR_MAKE16(r8, g8, b8) {{(uint8_t)((b8 >> 3) & 0x1FU), (uint8_t)((g8 >> 2) & 0x3FU), 
 151:Drivers/lvgl/lvgl/src/extra/widgets/colorwheel/../../../../src/hal/../draw/../misc/lv_color.h **** #else
 152:Drivers/lvgl/lvgl/src/extra/widgets/colorwheel/../../../../src/hal/../draw/../misc/lv_color.h **** # define _LV_COLOR_ZERO_INITIALIZER16 {{0x00, 0x00, 0x00, 0x00}}
 153:Drivers/lvgl/lvgl/src/extra/widgets/colorwheel/../../../../src/hal/../draw/../misc/lv_color.h **** # define LV_COLOR_MAKE16(r8, g8, b8) {{(uint8_t)((g8 >> 5) & 0x7U), (uint8_t)((r8 >> 3) & 0x1FU), (
 154:Drivers/lvgl/lvgl/src/extra/widgets/colorwheel/../../../../src/hal/../draw/../misc/lv_color.h **** #endif
 155:Drivers/lvgl/lvgl/src/extra/widgets/colorwheel/../../../../src/hal/../draw/../misc/lv_color.h **** 
 156:Drivers/lvgl/lvgl/src/extra/widgets/colorwheel/../../../../src/hal/../draw/../misc/lv_color.h **** # define LV_COLOR_SET_R32(c, v) (c).ch.red = (uint8_t)((v) & 0xFF)
 157:Drivers/lvgl/lvgl/src/extra/widgets/colorwheel/../../../../src/hal/../draw/../misc/lv_color.h **** # define LV_COLOR_SET_G32(c, v) (c).ch.green = (uint8_t)((v) & 0xFF)
 158:Drivers/lvgl/lvgl/src/extra/widgets/colorwheel/../../../../src/hal/../draw/../misc/lv_color.h **** # define LV_COLOR_SET_B32(c, v) (c).ch.blue = (uint8_t)((v) & 0xFF)
 159:Drivers/lvgl/lvgl/src/extra/widgets/colorwheel/../../../../src/hal/../draw/../misc/lv_color.h **** # define LV_COLOR_SET_A32(c, v) (c).ch.alpha = (uint8_t)((v) & 0xFF)
 160:Drivers/lvgl/lvgl/src/extra/widgets/colorwheel/../../../../src/hal/../draw/../misc/lv_color.h **** 
 161:Drivers/lvgl/lvgl/src/extra/widgets/colorwheel/../../../../src/hal/../draw/../misc/lv_color.h **** # define LV_COLOR_GET_R32(c) (c).ch.red
 162:Drivers/lvgl/lvgl/src/extra/widgets/colorwheel/../../../../src/hal/../draw/../misc/lv_color.h **** # define LV_COLOR_GET_G32(c) (c).ch.green
 163:Drivers/lvgl/lvgl/src/extra/widgets/colorwheel/../../../../src/hal/../draw/../misc/lv_color.h **** # define LV_COLOR_GET_B32(c) (c).ch.blue
 164:Drivers/lvgl/lvgl/src/extra/widgets/colorwheel/../../../../src/hal/../draw/../misc/lv_color.h **** # define LV_COLOR_GET_A32(c) (c).ch.alpha
 165:Drivers/lvgl/lvgl/src/extra/widgets/colorwheel/../../../../src/hal/../draw/../misc/lv_color.h **** 
 166:Drivers/lvgl/lvgl/src/extra/widgets/colorwheel/../../../../src/hal/../draw/../misc/lv_color.h **** # define _LV_COLOR_ZERO_INITIALIZER32  {{0x00, 0x00, 0x00, 0x00}}
 167:Drivers/lvgl/lvgl/src/extra/widgets/colorwheel/../../../../src/hal/../draw/../misc/lv_color.h **** # define LV_COLOR_MAKE32(r8, g8, b8) {{b8, g8, r8, 0xff}} /*Fix 0xff alpha*/
 168:Drivers/lvgl/lvgl/src/extra/widgets/colorwheel/../../../../src/hal/../draw/../misc/lv_color.h **** 
 169:Drivers/lvgl/lvgl/src/extra/widgets/colorwheel/../../../../src/hal/../draw/../misc/lv_color.h **** /*---------------------------------------
 170:Drivers/lvgl/lvgl/src/extra/widgets/colorwheel/../../../../src/hal/../draw/../misc/lv_color.h ****  * Macros for the current color depth
 171:Drivers/lvgl/lvgl/src/extra/widgets/colorwheel/../../../../src/hal/../draw/../misc/lv_color.h ****  * to set/get values of the color channels
 172:Drivers/lvgl/lvgl/src/extra/widgets/colorwheel/../../../../src/hal/../draw/../misc/lv_color.h ****  *------------------------------------------*/
 173:Drivers/lvgl/lvgl/src/extra/widgets/colorwheel/../../../../src/hal/../draw/../misc/lv_color.h **** #define LV_COLOR_SET_R(c, v) LV_CONCAT(LV_COLOR_SET_R, LV_COLOR_DEPTH)(c, v)
 174:Drivers/lvgl/lvgl/src/extra/widgets/colorwheel/../../../../src/hal/../draw/../misc/lv_color.h **** #define LV_COLOR_SET_G(c, v) LV_CONCAT(LV_COLOR_SET_G, LV_COLOR_DEPTH)(c, v)
 175:Drivers/lvgl/lvgl/src/extra/widgets/colorwheel/../../../../src/hal/../draw/../misc/lv_color.h **** #define LV_COLOR_SET_B(c, v) LV_CONCAT(LV_COLOR_SET_B, LV_COLOR_DEPTH)(c, v)
 176:Drivers/lvgl/lvgl/src/extra/widgets/colorwheel/../../../../src/hal/../draw/../misc/lv_color.h **** #define LV_COLOR_SET_A(c, v) LV_CONCAT(LV_COLOR_SET_A, LV_COLOR_DEPTH)(c, v)
 177:Drivers/lvgl/lvgl/src/extra/widgets/colorwheel/../../../../src/hal/../draw/../misc/lv_color.h **** 
 178:Drivers/lvgl/lvgl/src/extra/widgets/colorwheel/../../../../src/hal/../draw/../misc/lv_color.h **** #define LV_COLOR_GET_R(c) LV_CONCAT(LV_COLOR_GET_R, LV_COLOR_DEPTH)(c)
ARM GAS  /tmp/ccbjN9K1.s 			page 21


 179:Drivers/lvgl/lvgl/src/extra/widgets/colorwheel/../../../../src/hal/../draw/../misc/lv_color.h **** #define LV_COLOR_GET_G(c) LV_CONCAT(LV_COLOR_GET_G, LV_COLOR_DEPTH)(c)
 180:Drivers/lvgl/lvgl/src/extra/widgets/colorwheel/../../../../src/hal/../draw/../misc/lv_color.h **** #define LV_COLOR_GET_B(c) LV_CONCAT(LV_COLOR_GET_B, LV_COLOR_DEPTH)(c)
 181:Drivers/lvgl/lvgl/src/extra/widgets/colorwheel/../../../../src/hal/../draw/../misc/lv_color.h **** #define LV_COLOR_GET_A(c) LV_CONCAT(LV_COLOR_GET_A, LV_COLOR_DEPTH)(c)
 182:Drivers/lvgl/lvgl/src/extra/widgets/colorwheel/../../../../src/hal/../draw/../misc/lv_color.h **** 
 183:Drivers/lvgl/lvgl/src/extra/widgets/colorwheel/../../../../src/hal/../draw/../misc/lv_color.h **** #define _LV_COLOR_ZERO_INITIALIZER LV_CONCAT(_LV_COLOR_ZERO_INITIALIZER, LV_COLOR_DEPTH)
 184:Drivers/lvgl/lvgl/src/extra/widgets/colorwheel/../../../../src/hal/../draw/../misc/lv_color.h **** #define LV_COLOR_MAKE(r8, g8, b8) LV_CONCAT(LV_COLOR_MAKE, LV_COLOR_DEPTH)(r8, g8, b8)
 185:Drivers/lvgl/lvgl/src/extra/widgets/colorwheel/../../../../src/hal/../draw/../misc/lv_color.h **** 
 186:Drivers/lvgl/lvgl/src/extra/widgets/colorwheel/../../../../src/hal/../draw/../misc/lv_color.h **** /**********************
 187:Drivers/lvgl/lvgl/src/extra/widgets/colorwheel/../../../../src/hal/../draw/../misc/lv_color.h ****  *      TYPEDEFS
 188:Drivers/lvgl/lvgl/src/extra/widgets/colorwheel/../../../../src/hal/../draw/../misc/lv_color.h ****  **********************/
 189:Drivers/lvgl/lvgl/src/extra/widgets/colorwheel/../../../../src/hal/../draw/../misc/lv_color.h **** 
 190:Drivers/lvgl/lvgl/src/extra/widgets/colorwheel/../../../../src/hal/../draw/../misc/lv_color.h **** typedef union {
 191:Drivers/lvgl/lvgl/src/extra/widgets/colorwheel/../../../../src/hal/../draw/../misc/lv_color.h ****     uint8_t full; /*must be declared first to set all bits of byte via initializer list*/
 192:Drivers/lvgl/lvgl/src/extra/widgets/colorwheel/../../../../src/hal/../draw/../misc/lv_color.h ****     union {
 193:Drivers/lvgl/lvgl/src/extra/widgets/colorwheel/../../../../src/hal/../draw/../misc/lv_color.h ****         uint8_t blue : 1;
 194:Drivers/lvgl/lvgl/src/extra/widgets/colorwheel/../../../../src/hal/../draw/../misc/lv_color.h ****         uint8_t green : 1;
 195:Drivers/lvgl/lvgl/src/extra/widgets/colorwheel/../../../../src/hal/../draw/../misc/lv_color.h ****         uint8_t red : 1;
 196:Drivers/lvgl/lvgl/src/extra/widgets/colorwheel/../../../../src/hal/../draw/../misc/lv_color.h ****     } ch;
 197:Drivers/lvgl/lvgl/src/extra/widgets/colorwheel/../../../../src/hal/../draw/../misc/lv_color.h **** } lv_color1_t;
 198:Drivers/lvgl/lvgl/src/extra/widgets/colorwheel/../../../../src/hal/../draw/../misc/lv_color.h **** 
 199:Drivers/lvgl/lvgl/src/extra/widgets/colorwheel/../../../../src/hal/../draw/../misc/lv_color.h **** typedef union {
 200:Drivers/lvgl/lvgl/src/extra/widgets/colorwheel/../../../../src/hal/../draw/../misc/lv_color.h ****     struct {
 201:Drivers/lvgl/lvgl/src/extra/widgets/colorwheel/../../../../src/hal/../draw/../misc/lv_color.h ****         uint8_t blue : 2;
 202:Drivers/lvgl/lvgl/src/extra/widgets/colorwheel/../../../../src/hal/../draw/../misc/lv_color.h ****         uint8_t green : 3;
 203:Drivers/lvgl/lvgl/src/extra/widgets/colorwheel/../../../../src/hal/../draw/../misc/lv_color.h ****         uint8_t red : 3;
 204:Drivers/lvgl/lvgl/src/extra/widgets/colorwheel/../../../../src/hal/../draw/../misc/lv_color.h ****     } ch;
 205:Drivers/lvgl/lvgl/src/extra/widgets/colorwheel/../../../../src/hal/../draw/../misc/lv_color.h ****     uint8_t full;
 206:Drivers/lvgl/lvgl/src/extra/widgets/colorwheel/../../../../src/hal/../draw/../misc/lv_color.h **** } lv_color8_t;
 207:Drivers/lvgl/lvgl/src/extra/widgets/colorwheel/../../../../src/hal/../draw/../misc/lv_color.h **** 
 208:Drivers/lvgl/lvgl/src/extra/widgets/colorwheel/../../../../src/hal/../draw/../misc/lv_color.h **** typedef union {
 209:Drivers/lvgl/lvgl/src/extra/widgets/colorwheel/../../../../src/hal/../draw/../misc/lv_color.h ****     struct {
 210:Drivers/lvgl/lvgl/src/extra/widgets/colorwheel/../../../../src/hal/../draw/../misc/lv_color.h **** #if LV_COLOR_16_SWAP == 0
 211:Drivers/lvgl/lvgl/src/extra/widgets/colorwheel/../../../../src/hal/../draw/../misc/lv_color.h ****         uint16_t blue : 5;
 212:Drivers/lvgl/lvgl/src/extra/widgets/colorwheel/../../../../src/hal/../draw/../misc/lv_color.h ****         uint16_t green : 6;
 213:Drivers/lvgl/lvgl/src/extra/widgets/colorwheel/../../../../src/hal/../draw/../misc/lv_color.h ****         uint16_t red : 5;
 214:Drivers/lvgl/lvgl/src/extra/widgets/colorwheel/../../../../src/hal/../draw/../misc/lv_color.h **** #else
 215:Drivers/lvgl/lvgl/src/extra/widgets/colorwheel/../../../../src/hal/../draw/../misc/lv_color.h ****         uint16_t green_h : 3;
 216:Drivers/lvgl/lvgl/src/extra/widgets/colorwheel/../../../../src/hal/../draw/../misc/lv_color.h ****         uint16_t red : 5;
 217:Drivers/lvgl/lvgl/src/extra/widgets/colorwheel/../../../../src/hal/../draw/../misc/lv_color.h ****         uint16_t blue : 5;
 218:Drivers/lvgl/lvgl/src/extra/widgets/colorwheel/../../../../src/hal/../draw/../misc/lv_color.h ****         uint16_t green_l : 3;
 219:Drivers/lvgl/lvgl/src/extra/widgets/colorwheel/../../../../src/hal/../draw/../misc/lv_color.h **** #endif
 220:Drivers/lvgl/lvgl/src/extra/widgets/colorwheel/../../../../src/hal/../draw/../misc/lv_color.h ****     } ch;
 221:Drivers/lvgl/lvgl/src/extra/widgets/colorwheel/../../../../src/hal/../draw/../misc/lv_color.h ****     uint16_t full;
 222:Drivers/lvgl/lvgl/src/extra/widgets/colorwheel/../../../../src/hal/../draw/../misc/lv_color.h **** } lv_color16_t;
 223:Drivers/lvgl/lvgl/src/extra/widgets/colorwheel/../../../../src/hal/../draw/../misc/lv_color.h **** 
 224:Drivers/lvgl/lvgl/src/extra/widgets/colorwheel/../../../../src/hal/../draw/../misc/lv_color.h **** typedef union {
 225:Drivers/lvgl/lvgl/src/extra/widgets/colorwheel/../../../../src/hal/../draw/../misc/lv_color.h ****     struct {
 226:Drivers/lvgl/lvgl/src/extra/widgets/colorwheel/../../../../src/hal/../draw/../misc/lv_color.h ****         uint8_t blue;
 227:Drivers/lvgl/lvgl/src/extra/widgets/colorwheel/../../../../src/hal/../draw/../misc/lv_color.h ****         uint8_t green;
 228:Drivers/lvgl/lvgl/src/extra/widgets/colorwheel/../../../../src/hal/../draw/../misc/lv_color.h ****         uint8_t red;
 229:Drivers/lvgl/lvgl/src/extra/widgets/colorwheel/../../../../src/hal/../draw/../misc/lv_color.h ****         uint8_t alpha;
 230:Drivers/lvgl/lvgl/src/extra/widgets/colorwheel/../../../../src/hal/../draw/../misc/lv_color.h ****     } ch;
 231:Drivers/lvgl/lvgl/src/extra/widgets/colorwheel/../../../../src/hal/../draw/../misc/lv_color.h ****     uint32_t full;
 232:Drivers/lvgl/lvgl/src/extra/widgets/colorwheel/../../../../src/hal/../draw/../misc/lv_color.h **** } lv_color32_t;
 233:Drivers/lvgl/lvgl/src/extra/widgets/colorwheel/../../../../src/hal/../draw/../misc/lv_color.h **** 
 234:Drivers/lvgl/lvgl/src/extra/widgets/colorwheel/../../../../src/hal/../draw/../misc/lv_color.h **** typedef LV_CONCAT3(uint, LV_COLOR_SIZE, _t) lv_color_int_t;
 235:Drivers/lvgl/lvgl/src/extra/widgets/colorwheel/../../../../src/hal/../draw/../misc/lv_color.h **** typedef LV_CONCAT3(lv_color, LV_COLOR_DEPTH, _t) lv_color_t;
ARM GAS  /tmp/ccbjN9K1.s 			page 22


 236:Drivers/lvgl/lvgl/src/extra/widgets/colorwheel/../../../../src/hal/../draw/../misc/lv_color.h **** 
 237:Drivers/lvgl/lvgl/src/extra/widgets/colorwheel/../../../../src/hal/../draw/../misc/lv_color.h **** typedef struct {
 238:Drivers/lvgl/lvgl/src/extra/widgets/colorwheel/../../../../src/hal/../draw/../misc/lv_color.h ****     uint16_t h;
 239:Drivers/lvgl/lvgl/src/extra/widgets/colorwheel/../../../../src/hal/../draw/../misc/lv_color.h ****     uint8_t s;
 240:Drivers/lvgl/lvgl/src/extra/widgets/colorwheel/../../../../src/hal/../draw/../misc/lv_color.h ****     uint8_t v;
 241:Drivers/lvgl/lvgl/src/extra/widgets/colorwheel/../../../../src/hal/../draw/../misc/lv_color.h **** } lv_color_hsv_t;
 242:Drivers/lvgl/lvgl/src/extra/widgets/colorwheel/../../../../src/hal/../draw/../misc/lv_color.h **** 
 243:Drivers/lvgl/lvgl/src/extra/widgets/colorwheel/../../../../src/hal/../draw/../misc/lv_color.h **** //! @cond Doxygen_Suppress
 244:Drivers/lvgl/lvgl/src/extra/widgets/colorwheel/../../../../src/hal/../draw/../misc/lv_color.h **** /*No idea where the guard is required but else throws warnings in the docs*/
 245:Drivers/lvgl/lvgl/src/extra/widgets/colorwheel/../../../../src/hal/../draw/../misc/lv_color.h **** typedef uint8_t lv_opa_t;
 246:Drivers/lvgl/lvgl/src/extra/widgets/colorwheel/../../../../src/hal/../draw/../misc/lv_color.h **** //! @endcond
 247:Drivers/lvgl/lvgl/src/extra/widgets/colorwheel/../../../../src/hal/../draw/../misc/lv_color.h **** 
 248:Drivers/lvgl/lvgl/src/extra/widgets/colorwheel/../../../../src/hal/../draw/../misc/lv_color.h **** struct _lv_color_filter_dsc_t;
 249:Drivers/lvgl/lvgl/src/extra/widgets/colorwheel/../../../../src/hal/../draw/../misc/lv_color.h **** 
 250:Drivers/lvgl/lvgl/src/extra/widgets/colorwheel/../../../../src/hal/../draw/../misc/lv_color.h **** typedef lv_color_t (*lv_color_filter_cb_t)(const struct _lv_color_filter_dsc_t *, lv_color_t, lv_op
 251:Drivers/lvgl/lvgl/src/extra/widgets/colorwheel/../../../../src/hal/../draw/../misc/lv_color.h **** 
 252:Drivers/lvgl/lvgl/src/extra/widgets/colorwheel/../../../../src/hal/../draw/../misc/lv_color.h **** typedef struct _lv_color_filter_dsc_t {
 253:Drivers/lvgl/lvgl/src/extra/widgets/colorwheel/../../../../src/hal/../draw/../misc/lv_color.h ****     lv_color_filter_cb_t filter_cb;
 254:Drivers/lvgl/lvgl/src/extra/widgets/colorwheel/../../../../src/hal/../draw/../misc/lv_color.h ****     void * user_data;
 255:Drivers/lvgl/lvgl/src/extra/widgets/colorwheel/../../../../src/hal/../draw/../misc/lv_color.h **** } lv_color_filter_dsc_t;
 256:Drivers/lvgl/lvgl/src/extra/widgets/colorwheel/../../../../src/hal/../draw/../misc/lv_color.h **** 
 257:Drivers/lvgl/lvgl/src/extra/widgets/colorwheel/../../../../src/hal/../draw/../misc/lv_color.h **** 
 258:Drivers/lvgl/lvgl/src/extra/widgets/colorwheel/../../../../src/hal/../draw/../misc/lv_color.h **** typedef enum {
 259:Drivers/lvgl/lvgl/src/extra/widgets/colorwheel/../../../../src/hal/../draw/../misc/lv_color.h ****     LV_PALETTE_RED,
 260:Drivers/lvgl/lvgl/src/extra/widgets/colorwheel/../../../../src/hal/../draw/../misc/lv_color.h ****     LV_PALETTE_PINK,
 261:Drivers/lvgl/lvgl/src/extra/widgets/colorwheel/../../../../src/hal/../draw/../misc/lv_color.h ****     LV_PALETTE_PURPLE,
 262:Drivers/lvgl/lvgl/src/extra/widgets/colorwheel/../../../../src/hal/../draw/../misc/lv_color.h ****     LV_PALETTE_DEEP_PURPLE,
 263:Drivers/lvgl/lvgl/src/extra/widgets/colorwheel/../../../../src/hal/../draw/../misc/lv_color.h ****     LV_PALETTE_INDIGO,
 264:Drivers/lvgl/lvgl/src/extra/widgets/colorwheel/../../../../src/hal/../draw/../misc/lv_color.h ****     LV_PALETTE_BLUE,
 265:Drivers/lvgl/lvgl/src/extra/widgets/colorwheel/../../../../src/hal/../draw/../misc/lv_color.h ****     LV_PALETTE_LIGHT_BLUE,
 266:Drivers/lvgl/lvgl/src/extra/widgets/colorwheel/../../../../src/hal/../draw/../misc/lv_color.h ****     LV_PALETTE_CYAN,
 267:Drivers/lvgl/lvgl/src/extra/widgets/colorwheel/../../../../src/hal/../draw/../misc/lv_color.h ****     LV_PALETTE_TEAL,
 268:Drivers/lvgl/lvgl/src/extra/widgets/colorwheel/../../../../src/hal/../draw/../misc/lv_color.h ****     LV_PALETTE_GREEN,
 269:Drivers/lvgl/lvgl/src/extra/widgets/colorwheel/../../../../src/hal/../draw/../misc/lv_color.h ****     LV_PALETTE_LIGHT_GREEN,
 270:Drivers/lvgl/lvgl/src/extra/widgets/colorwheel/../../../../src/hal/../draw/../misc/lv_color.h ****     LV_PALETTE_LIME,
 271:Drivers/lvgl/lvgl/src/extra/widgets/colorwheel/../../../../src/hal/../draw/../misc/lv_color.h ****     LV_PALETTE_YELLOW,
 272:Drivers/lvgl/lvgl/src/extra/widgets/colorwheel/../../../../src/hal/../draw/../misc/lv_color.h ****     LV_PALETTE_AMBER,
 273:Drivers/lvgl/lvgl/src/extra/widgets/colorwheel/../../../../src/hal/../draw/../misc/lv_color.h ****     LV_PALETTE_ORANGE,
 274:Drivers/lvgl/lvgl/src/extra/widgets/colorwheel/../../../../src/hal/../draw/../misc/lv_color.h ****     LV_PALETTE_DEEP_ORANGE,
 275:Drivers/lvgl/lvgl/src/extra/widgets/colorwheel/../../../../src/hal/../draw/../misc/lv_color.h ****     LV_PALETTE_BROWN,
 276:Drivers/lvgl/lvgl/src/extra/widgets/colorwheel/../../../../src/hal/../draw/../misc/lv_color.h ****     LV_PALETTE_BLUE_GREY,
 277:Drivers/lvgl/lvgl/src/extra/widgets/colorwheel/../../../../src/hal/../draw/../misc/lv_color.h ****     LV_PALETTE_GREY,
 278:Drivers/lvgl/lvgl/src/extra/widgets/colorwheel/../../../../src/hal/../draw/../misc/lv_color.h ****     _LV_PALETTE_LAST,
 279:Drivers/lvgl/lvgl/src/extra/widgets/colorwheel/../../../../src/hal/../draw/../misc/lv_color.h ****     LV_PALETTE_NONE = 0xff,
 280:Drivers/lvgl/lvgl/src/extra/widgets/colorwheel/../../../../src/hal/../draw/../misc/lv_color.h **** } lv_palette_t;
 281:Drivers/lvgl/lvgl/src/extra/widgets/colorwheel/../../../../src/hal/../draw/../misc/lv_color.h **** 
 282:Drivers/lvgl/lvgl/src/extra/widgets/colorwheel/../../../../src/hal/../draw/../misc/lv_color.h **** /**********************
 283:Drivers/lvgl/lvgl/src/extra/widgets/colorwheel/../../../../src/hal/../draw/../misc/lv_color.h ****  * GLOBAL PROTOTYPES
 284:Drivers/lvgl/lvgl/src/extra/widgets/colorwheel/../../../../src/hal/../draw/../misc/lv_color.h ****  **********************/
 285:Drivers/lvgl/lvgl/src/extra/widgets/colorwheel/../../../../src/hal/../draw/../misc/lv_color.h **** 
 286:Drivers/lvgl/lvgl/src/extra/widgets/colorwheel/../../../../src/hal/../draw/../misc/lv_color.h **** /*In color conversations:
 287:Drivers/lvgl/lvgl/src/extra/widgets/colorwheel/../../../../src/hal/../draw/../misc/lv_color.h ****  * - When converting to bigger color type the LSB weight of 1 LSB is calculated
 288:Drivers/lvgl/lvgl/src/extra/widgets/colorwheel/../../../../src/hal/../draw/../misc/lv_color.h ****  *   E.g. 16 bit Red has 5 bits
 289:Drivers/lvgl/lvgl/src/extra/widgets/colorwheel/../../../../src/hal/../draw/../misc/lv_color.h ****  *         8 bit Red has 3 bits
 290:Drivers/lvgl/lvgl/src/extra/widgets/colorwheel/../../../../src/hal/../draw/../misc/lv_color.h ****  *        ----------------------
 291:Drivers/lvgl/lvgl/src/extra/widgets/colorwheel/../../../../src/hal/../draw/../misc/lv_color.h ****  *        8 bit red LSB = (2^5 - 1) / (2^3 - 1) = 31 / 7 = 4
 292:Drivers/lvgl/lvgl/src/extra/widgets/colorwheel/../../../../src/hal/../draw/../misc/lv_color.h ****  *
ARM GAS  /tmp/ccbjN9K1.s 			page 23


 293:Drivers/lvgl/lvgl/src/extra/widgets/colorwheel/../../../../src/hal/../draw/../misc/lv_color.h ****  * - When calculating to smaller color type simply shift out the LSBs
 294:Drivers/lvgl/lvgl/src/extra/widgets/colorwheel/../../../../src/hal/../draw/../misc/lv_color.h ****  *   E.g.  8 bit Red has 3 bits
 295:Drivers/lvgl/lvgl/src/extra/widgets/colorwheel/../../../../src/hal/../draw/../misc/lv_color.h ****  *        16 bit Red has 5 bits
 296:Drivers/lvgl/lvgl/src/extra/widgets/colorwheel/../../../../src/hal/../draw/../misc/lv_color.h ****  *        ----------------------
 297:Drivers/lvgl/lvgl/src/extra/widgets/colorwheel/../../../../src/hal/../draw/../misc/lv_color.h ****  *         Shift right with 5 - 3 = 2
 298:Drivers/lvgl/lvgl/src/extra/widgets/colorwheel/../../../../src/hal/../draw/../misc/lv_color.h ****  */
 299:Drivers/lvgl/lvgl/src/extra/widgets/colorwheel/../../../../src/hal/../draw/../misc/lv_color.h **** static inline uint8_t lv_color_to1(lv_color_t color)
 300:Drivers/lvgl/lvgl/src/extra/widgets/colorwheel/../../../../src/hal/../draw/../misc/lv_color.h **** {
 301:Drivers/lvgl/lvgl/src/extra/widgets/colorwheel/../../../../src/hal/../draw/../misc/lv_color.h **** #if LV_COLOR_DEPTH == 1
 302:Drivers/lvgl/lvgl/src/extra/widgets/colorwheel/../../../../src/hal/../draw/../misc/lv_color.h ****     return color.full;
 303:Drivers/lvgl/lvgl/src/extra/widgets/colorwheel/../../../../src/hal/../draw/../misc/lv_color.h **** #elif LV_COLOR_DEPTH == 8
 304:Drivers/lvgl/lvgl/src/extra/widgets/colorwheel/../../../../src/hal/../draw/../misc/lv_color.h ****     if((LV_COLOR_GET_R(color) & 0x4) || (LV_COLOR_GET_G(color) & 0x4) || (LV_COLOR_GET_B(color) & 0
 305:Drivers/lvgl/lvgl/src/extra/widgets/colorwheel/../../../../src/hal/../draw/../misc/lv_color.h ****         return 1;
 306:Drivers/lvgl/lvgl/src/extra/widgets/colorwheel/../../../../src/hal/../draw/../misc/lv_color.h ****     }
 307:Drivers/lvgl/lvgl/src/extra/widgets/colorwheel/../../../../src/hal/../draw/../misc/lv_color.h ****     else {
 308:Drivers/lvgl/lvgl/src/extra/widgets/colorwheel/../../../../src/hal/../draw/../misc/lv_color.h ****         return 0;
 309:Drivers/lvgl/lvgl/src/extra/widgets/colorwheel/../../../../src/hal/../draw/../misc/lv_color.h ****     }
 310:Drivers/lvgl/lvgl/src/extra/widgets/colorwheel/../../../../src/hal/../draw/../misc/lv_color.h **** #elif LV_COLOR_DEPTH == 16
 311:Drivers/lvgl/lvgl/src/extra/widgets/colorwheel/../../../../src/hal/../draw/../misc/lv_color.h ****     if((LV_COLOR_GET_R(color) & 0x10) || (LV_COLOR_GET_G(color) & 0x20) || (LV_COLOR_GET_B(color) &
 312:Drivers/lvgl/lvgl/src/extra/widgets/colorwheel/../../../../src/hal/../draw/../misc/lv_color.h ****         return 1;
 313:Drivers/lvgl/lvgl/src/extra/widgets/colorwheel/../../../../src/hal/../draw/../misc/lv_color.h ****     }
 314:Drivers/lvgl/lvgl/src/extra/widgets/colorwheel/../../../../src/hal/../draw/../misc/lv_color.h ****     else {
 315:Drivers/lvgl/lvgl/src/extra/widgets/colorwheel/../../../../src/hal/../draw/../misc/lv_color.h ****         return 0;
 316:Drivers/lvgl/lvgl/src/extra/widgets/colorwheel/../../../../src/hal/../draw/../misc/lv_color.h ****     }
 317:Drivers/lvgl/lvgl/src/extra/widgets/colorwheel/../../../../src/hal/../draw/../misc/lv_color.h **** #elif LV_COLOR_DEPTH == 32
 318:Drivers/lvgl/lvgl/src/extra/widgets/colorwheel/../../../../src/hal/../draw/../misc/lv_color.h ****     if((LV_COLOR_GET_R(color) & 0x80) || (LV_COLOR_GET_G(color) & 0x80) || (LV_COLOR_GET_B(color) &
 319:Drivers/lvgl/lvgl/src/extra/widgets/colorwheel/../../../../src/hal/../draw/../misc/lv_color.h ****         return 1;
 320:Drivers/lvgl/lvgl/src/extra/widgets/colorwheel/../../../../src/hal/../draw/../misc/lv_color.h ****     }
 321:Drivers/lvgl/lvgl/src/extra/widgets/colorwheel/../../../../src/hal/../draw/../misc/lv_color.h ****     else {
 322:Drivers/lvgl/lvgl/src/extra/widgets/colorwheel/../../../../src/hal/../draw/../misc/lv_color.h ****         return 0;
 323:Drivers/lvgl/lvgl/src/extra/widgets/colorwheel/../../../../src/hal/../draw/../misc/lv_color.h ****     }
 324:Drivers/lvgl/lvgl/src/extra/widgets/colorwheel/../../../../src/hal/../draw/../misc/lv_color.h **** #endif
 325:Drivers/lvgl/lvgl/src/extra/widgets/colorwheel/../../../../src/hal/../draw/../misc/lv_color.h **** }
 326:Drivers/lvgl/lvgl/src/extra/widgets/colorwheel/../../../../src/hal/../draw/../misc/lv_color.h **** 
 327:Drivers/lvgl/lvgl/src/extra/widgets/colorwheel/../../../../src/hal/../draw/../misc/lv_color.h **** static inline uint8_t lv_color_to8(lv_color_t color)
 328:Drivers/lvgl/lvgl/src/extra/widgets/colorwheel/../../../../src/hal/../draw/../misc/lv_color.h **** {
 329:Drivers/lvgl/lvgl/src/extra/widgets/colorwheel/../../../../src/hal/../draw/../misc/lv_color.h **** #if LV_COLOR_DEPTH == 1
 330:Drivers/lvgl/lvgl/src/extra/widgets/colorwheel/../../../../src/hal/../draw/../misc/lv_color.h ****     if(color.full == 0)
 331:Drivers/lvgl/lvgl/src/extra/widgets/colorwheel/../../../../src/hal/../draw/../misc/lv_color.h ****         return 0;
 332:Drivers/lvgl/lvgl/src/extra/widgets/colorwheel/../../../../src/hal/../draw/../misc/lv_color.h ****     else
 333:Drivers/lvgl/lvgl/src/extra/widgets/colorwheel/../../../../src/hal/../draw/../misc/lv_color.h ****         return 0xFF;
 334:Drivers/lvgl/lvgl/src/extra/widgets/colorwheel/../../../../src/hal/../draw/../misc/lv_color.h **** #elif LV_COLOR_DEPTH == 8
 335:Drivers/lvgl/lvgl/src/extra/widgets/colorwheel/../../../../src/hal/../draw/../misc/lv_color.h ****     return color.full;
 336:Drivers/lvgl/lvgl/src/extra/widgets/colorwheel/../../../../src/hal/../draw/../misc/lv_color.h **** #elif LV_COLOR_DEPTH == 16
 337:Drivers/lvgl/lvgl/src/extra/widgets/colorwheel/../../../../src/hal/../draw/../misc/lv_color.h ****     lv_color8_t ret;
 338:Drivers/lvgl/lvgl/src/extra/widgets/colorwheel/../../../../src/hal/../draw/../misc/lv_color.h ****     LV_COLOR_SET_R8(ret, LV_COLOR_GET_R(color) >> 2); /*5 - 3  = 2*/
 339:Drivers/lvgl/lvgl/src/extra/widgets/colorwheel/../../../../src/hal/../draw/../misc/lv_color.h ****     LV_COLOR_SET_G8(ret, LV_COLOR_GET_G(color) >> 3); /*6 - 3  = 3*/
 340:Drivers/lvgl/lvgl/src/extra/widgets/colorwheel/../../../../src/hal/../draw/../misc/lv_color.h ****     LV_COLOR_SET_B8(ret, LV_COLOR_GET_B(color) >> 3); /*5 - 2  = 3*/
 341:Drivers/lvgl/lvgl/src/extra/widgets/colorwheel/../../../../src/hal/../draw/../misc/lv_color.h ****     return ret.full;
 342:Drivers/lvgl/lvgl/src/extra/widgets/colorwheel/../../../../src/hal/../draw/../misc/lv_color.h **** #elif LV_COLOR_DEPTH == 32
 343:Drivers/lvgl/lvgl/src/extra/widgets/colorwheel/../../../../src/hal/../draw/../misc/lv_color.h ****     lv_color8_t ret;
 344:Drivers/lvgl/lvgl/src/extra/widgets/colorwheel/../../../../src/hal/../draw/../misc/lv_color.h ****     LV_COLOR_SET_R8(ret, LV_COLOR_GET_R(color) >> 5); /*8 - 3  = 5*/
 345:Drivers/lvgl/lvgl/src/extra/widgets/colorwheel/../../../../src/hal/../draw/../misc/lv_color.h ****     LV_COLOR_SET_G8(ret, LV_COLOR_GET_G(color) >> 5); /*8 - 3  = 5*/
 346:Drivers/lvgl/lvgl/src/extra/widgets/colorwheel/../../../../src/hal/../draw/../misc/lv_color.h ****     LV_COLOR_SET_B8(ret, LV_COLOR_GET_B(color) >> 6); /*8 - 2  = 6*/
 347:Drivers/lvgl/lvgl/src/extra/widgets/colorwheel/../../../../src/hal/../draw/../misc/lv_color.h ****     return ret.full;
 348:Drivers/lvgl/lvgl/src/extra/widgets/colorwheel/../../../../src/hal/../draw/../misc/lv_color.h **** #endif
 349:Drivers/lvgl/lvgl/src/extra/widgets/colorwheel/../../../../src/hal/../draw/../misc/lv_color.h **** }
ARM GAS  /tmp/ccbjN9K1.s 			page 24


 350:Drivers/lvgl/lvgl/src/extra/widgets/colorwheel/../../../../src/hal/../draw/../misc/lv_color.h **** 
 351:Drivers/lvgl/lvgl/src/extra/widgets/colorwheel/../../../../src/hal/../draw/../misc/lv_color.h **** static inline uint16_t lv_color_to16(lv_color_t color)
 352:Drivers/lvgl/lvgl/src/extra/widgets/colorwheel/../../../../src/hal/../draw/../misc/lv_color.h **** {
 353:Drivers/lvgl/lvgl/src/extra/widgets/colorwheel/../../../../src/hal/../draw/../misc/lv_color.h **** #if LV_COLOR_DEPTH == 1
 354:Drivers/lvgl/lvgl/src/extra/widgets/colorwheel/../../../../src/hal/../draw/../misc/lv_color.h ****     if(color.full == 0)
 355:Drivers/lvgl/lvgl/src/extra/widgets/colorwheel/../../../../src/hal/../draw/../misc/lv_color.h ****         return 0;
 356:Drivers/lvgl/lvgl/src/extra/widgets/colorwheel/../../../../src/hal/../draw/../misc/lv_color.h ****     else
 357:Drivers/lvgl/lvgl/src/extra/widgets/colorwheel/../../../../src/hal/../draw/../misc/lv_color.h ****         return 0xFFFF;
 358:Drivers/lvgl/lvgl/src/extra/widgets/colorwheel/../../../../src/hal/../draw/../misc/lv_color.h **** #elif LV_COLOR_DEPTH == 8
 359:Drivers/lvgl/lvgl/src/extra/widgets/colorwheel/../../../../src/hal/../draw/../misc/lv_color.h ****     lv_color16_t ret;
 360:Drivers/lvgl/lvgl/src/extra/widgets/colorwheel/../../../../src/hal/../draw/../misc/lv_color.h ****     LV_COLOR_SET_R16(ret, LV_COLOR_GET_R(color) * 4);  /*(2^5 - 1)/(2^3 - 1) = 31/7 = 4*/
 361:Drivers/lvgl/lvgl/src/extra/widgets/colorwheel/../../../../src/hal/../draw/../misc/lv_color.h ****     LV_COLOR_SET_G16(ret, LV_COLOR_GET_G(color) * 9);  /*(2^6 - 1)/(2^3 - 1) = 63/7 = 9*/
 362:Drivers/lvgl/lvgl/src/extra/widgets/colorwheel/../../../../src/hal/../draw/../misc/lv_color.h ****     LV_COLOR_SET_B16(ret, LV_COLOR_GET_B(color) * 10); /*(2^5 - 1)/(2^2 - 1) = 31/3 = 10*/
 363:Drivers/lvgl/lvgl/src/extra/widgets/colorwheel/../../../../src/hal/../draw/../misc/lv_color.h ****     return ret.full;
 364:Drivers/lvgl/lvgl/src/extra/widgets/colorwheel/../../../../src/hal/../draw/../misc/lv_color.h **** #elif LV_COLOR_DEPTH == 16
 365:Drivers/lvgl/lvgl/src/extra/widgets/colorwheel/../../../../src/hal/../draw/../misc/lv_color.h ****     return color.full;
 366:Drivers/lvgl/lvgl/src/extra/widgets/colorwheel/../../../../src/hal/../draw/../misc/lv_color.h **** #elif LV_COLOR_DEPTH == 32
 367:Drivers/lvgl/lvgl/src/extra/widgets/colorwheel/../../../../src/hal/../draw/../misc/lv_color.h ****     lv_color16_t ret;
 368:Drivers/lvgl/lvgl/src/extra/widgets/colorwheel/../../../../src/hal/../draw/../misc/lv_color.h ****     LV_COLOR_SET_R16(ret, LV_COLOR_GET_R(color) >> 3); /*8 - 5  = 3*/
 369:Drivers/lvgl/lvgl/src/extra/widgets/colorwheel/../../../../src/hal/../draw/../misc/lv_color.h ****     LV_COLOR_SET_G16(ret, LV_COLOR_GET_G(color) >> 2); /*8 - 6  = 2*/
 370:Drivers/lvgl/lvgl/src/extra/widgets/colorwheel/../../../../src/hal/../draw/../misc/lv_color.h ****     LV_COLOR_SET_B16(ret, LV_COLOR_GET_B(color) >> 3); /*8 - 5  = 3*/
 371:Drivers/lvgl/lvgl/src/extra/widgets/colorwheel/../../../../src/hal/../draw/../misc/lv_color.h ****     return ret.full;
 372:Drivers/lvgl/lvgl/src/extra/widgets/colorwheel/../../../../src/hal/../draw/../misc/lv_color.h **** #endif
 373:Drivers/lvgl/lvgl/src/extra/widgets/colorwheel/../../../../src/hal/../draw/../misc/lv_color.h **** }
 374:Drivers/lvgl/lvgl/src/extra/widgets/colorwheel/../../../../src/hal/../draw/../misc/lv_color.h **** 
 375:Drivers/lvgl/lvgl/src/extra/widgets/colorwheel/../../../../src/hal/../draw/../misc/lv_color.h **** static inline uint32_t lv_color_to32(lv_color_t color)
 376:Drivers/lvgl/lvgl/src/extra/widgets/colorwheel/../../../../src/hal/../draw/../misc/lv_color.h **** {
 377:Drivers/lvgl/lvgl/src/extra/widgets/colorwheel/../../../../src/hal/../draw/../misc/lv_color.h **** #if LV_COLOR_DEPTH == 1
 378:Drivers/lvgl/lvgl/src/extra/widgets/colorwheel/../../../../src/hal/../draw/../misc/lv_color.h ****     if(color.full == 0)
 379:Drivers/lvgl/lvgl/src/extra/widgets/colorwheel/../../../../src/hal/../draw/../misc/lv_color.h ****         return 0xFF000000;
 380:Drivers/lvgl/lvgl/src/extra/widgets/colorwheel/../../../../src/hal/../draw/../misc/lv_color.h ****     else
 381:Drivers/lvgl/lvgl/src/extra/widgets/colorwheel/../../../../src/hal/../draw/../misc/lv_color.h ****         return 0xFFFFFFFF;
 382:Drivers/lvgl/lvgl/src/extra/widgets/colorwheel/../../../../src/hal/../draw/../misc/lv_color.h **** #elif LV_COLOR_DEPTH == 8
 383:Drivers/lvgl/lvgl/src/extra/widgets/colorwheel/../../../../src/hal/../draw/../misc/lv_color.h ****     lv_color32_t ret;
 384:Drivers/lvgl/lvgl/src/extra/widgets/colorwheel/../../../../src/hal/../draw/../misc/lv_color.h ****     LV_COLOR_SET_R32(ret, LV_COLOR_GET_R(color) * 36); /*(2^8 - 1)/(2^3 - 1) = 255/7 = 36*/
 385:Drivers/lvgl/lvgl/src/extra/widgets/colorwheel/../../../../src/hal/../draw/../misc/lv_color.h ****     LV_COLOR_SET_G32(ret, LV_COLOR_GET_G(color) * 36); /*(2^8 - 1)/(2^3 - 1) = 255/7 = 36*/
 386:Drivers/lvgl/lvgl/src/extra/widgets/colorwheel/../../../../src/hal/../draw/../misc/lv_color.h ****     LV_COLOR_SET_B32(ret, LV_COLOR_GET_B(color) * 85); /*(2^8 - 1)/(2^2 - 1) = 255/3 = 85*/
 387:Drivers/lvgl/lvgl/src/extra/widgets/colorwheel/../../../../src/hal/../draw/../misc/lv_color.h ****     LV_COLOR_SET_A32(ret, 0xFF);
 388:Drivers/lvgl/lvgl/src/extra/widgets/colorwheel/../../../../src/hal/../draw/../misc/lv_color.h ****     return ret.full;
 389:Drivers/lvgl/lvgl/src/extra/widgets/colorwheel/../../../../src/hal/../draw/../misc/lv_color.h **** #elif LV_COLOR_DEPTH == 16
 390:Drivers/lvgl/lvgl/src/extra/widgets/colorwheel/../../../../src/hal/../draw/../misc/lv_color.h ****     /**
 391:Drivers/lvgl/lvgl/src/extra/widgets/colorwheel/../../../../src/hal/../draw/../misc/lv_color.h ****      * The floating point math for conversion is:
 392:Drivers/lvgl/lvgl/src/extra/widgets/colorwheel/../../../../src/hal/../draw/../misc/lv_color.h ****      *  valueto = valuefrom * ( (2^bitsto - 1) / (float)(2^bitsfrom - 1) )
 393:Drivers/lvgl/lvgl/src/extra/widgets/colorwheel/../../../../src/hal/../draw/../misc/lv_color.h ****      * The faster integer math for conversion is:
 394:Drivers/lvgl/lvgl/src/extra/widgets/colorwheel/../../../../src/hal/../draw/../misc/lv_color.h ****      *  valueto = ( valuefrom * multiplier + adder ) >> divisor
 395:Drivers/lvgl/lvgl/src/extra/widgets/colorwheel/../../../../src/hal/../draw/../misc/lv_color.h ****      *   multiplier = FLOOR( ( (2^bitsto - 1) << divisor ) / (float)(2^bitsfrom - 1) )
 396:Drivers/lvgl/lvgl/src/extra/widgets/colorwheel/../../../../src/hal/../draw/../misc/lv_color.h ****      *
 397:Drivers/lvgl/lvgl/src/extra/widgets/colorwheel/../../../../src/hal/../draw/../misc/lv_color.h ****      * Find the first divisor where ( adder >> divisor ) <= 0
 398:Drivers/lvgl/lvgl/src/extra/widgets/colorwheel/../../../../src/hal/../draw/../misc/lv_color.h ****      *
 399:Drivers/lvgl/lvgl/src/extra/widgets/colorwheel/../../../../src/hal/../draw/../misc/lv_color.h ****      * 5-bit to 8-bit: ( 31 * multiplier + adder ) >> divisor = 255
 400:Drivers/lvgl/lvgl/src/extra/widgets/colorwheel/../../../../src/hal/../draw/../misc/lv_color.h ****      * divisor  multiplier  adder  min (0)  max (31)
 401:Drivers/lvgl/lvgl/src/extra/widgets/colorwheel/../../../../src/hal/../draw/../misc/lv_color.h ****      *       0           8      7        7       255
 402:Drivers/lvgl/lvgl/src/extra/widgets/colorwheel/../../../../src/hal/../draw/../misc/lv_color.h ****      *       1          16     14        7       255
 403:Drivers/lvgl/lvgl/src/extra/widgets/colorwheel/../../../../src/hal/../draw/../misc/lv_color.h ****      *       2          32     28        7       255
 404:Drivers/lvgl/lvgl/src/extra/widgets/colorwheel/../../../../src/hal/../draw/../misc/lv_color.h ****      *       3          65     25        3       255
 405:Drivers/lvgl/lvgl/src/extra/widgets/colorwheel/../../../../src/hal/../draw/../misc/lv_color.h ****      *       4         131     19        1       255
 406:Drivers/lvgl/lvgl/src/extra/widgets/colorwheel/../../../../src/hal/../draw/../misc/lv_color.h ****      *       5         263      7        0       255
ARM GAS  /tmp/ccbjN9K1.s 			page 25


 407:Drivers/lvgl/lvgl/src/extra/widgets/colorwheel/../../../../src/hal/../draw/../misc/lv_color.h ****      *
 408:Drivers/lvgl/lvgl/src/extra/widgets/colorwheel/../../../../src/hal/../draw/../misc/lv_color.h ****      * 6-bit to 8-bit: 255 = ( 63 * multiplier + adder ) >> divisor
 409:Drivers/lvgl/lvgl/src/extra/widgets/colorwheel/../../../../src/hal/../draw/../misc/lv_color.h ****      * divisor  multiplier  adder  min (0)  max (63)
 410:Drivers/lvgl/lvgl/src/extra/widgets/colorwheel/../../../../src/hal/../draw/../misc/lv_color.h ****      *       0           4      3        3       255
 411:Drivers/lvgl/lvgl/src/extra/widgets/colorwheel/../../../../src/hal/../draw/../misc/lv_color.h ****      *       1           8      6        3       255
 412:Drivers/lvgl/lvgl/src/extra/widgets/colorwheel/../../../../src/hal/../draw/../misc/lv_color.h ****      *       2          16     12        3       255
 413:Drivers/lvgl/lvgl/src/extra/widgets/colorwheel/../../../../src/hal/../draw/../misc/lv_color.h ****      *       3          32     24        3       255
 414:Drivers/lvgl/lvgl/src/extra/widgets/colorwheel/../../../../src/hal/../draw/../misc/lv_color.h ****      *       4          64     48        3       255
 415:Drivers/lvgl/lvgl/src/extra/widgets/colorwheel/../../../../src/hal/../draw/../misc/lv_color.h ****      *       5         129     33        1       255
 416:Drivers/lvgl/lvgl/src/extra/widgets/colorwheel/../../../../src/hal/../draw/../misc/lv_color.h ****      *       6         259      3        0       255
 417:Drivers/lvgl/lvgl/src/extra/widgets/colorwheel/../../../../src/hal/../draw/../misc/lv_color.h ****      */
 418:Drivers/lvgl/lvgl/src/extra/widgets/colorwheel/../../../../src/hal/../draw/../misc/lv_color.h **** 
 419:Drivers/lvgl/lvgl/src/extra/widgets/colorwheel/../../../../src/hal/../draw/../misc/lv_color.h ****     lv_color32_t ret;
 420:Drivers/lvgl/lvgl/src/extra/widgets/colorwheel/../../../../src/hal/../draw/../misc/lv_color.h ****     LV_COLOR_SET_R32(ret, (LV_COLOR_GET_R(color) * 263 + 7) >> 5);
 421:Drivers/lvgl/lvgl/src/extra/widgets/colorwheel/../../../../src/hal/../draw/../misc/lv_color.h ****     LV_COLOR_SET_G32(ret, (LV_COLOR_GET_G(color) * 259 + 3) >> 6);
 422:Drivers/lvgl/lvgl/src/extra/widgets/colorwheel/../../../../src/hal/../draw/../misc/lv_color.h ****     LV_COLOR_SET_B32(ret, (LV_COLOR_GET_B(color) * 263 + 7) >> 5);
 423:Drivers/lvgl/lvgl/src/extra/widgets/colorwheel/../../../../src/hal/../draw/../misc/lv_color.h ****     LV_COLOR_SET_A32(ret, 0xFF);
 424:Drivers/lvgl/lvgl/src/extra/widgets/colorwheel/../../../../src/hal/../draw/../misc/lv_color.h ****     return ret.full;
 425:Drivers/lvgl/lvgl/src/extra/widgets/colorwheel/../../../../src/hal/../draw/../misc/lv_color.h **** #elif LV_COLOR_DEPTH == 32
 426:Drivers/lvgl/lvgl/src/extra/widgets/colorwheel/../../../../src/hal/../draw/../misc/lv_color.h ****     return color.full;
 427:Drivers/lvgl/lvgl/src/extra/widgets/colorwheel/../../../../src/hal/../draw/../misc/lv_color.h **** #endif
 428:Drivers/lvgl/lvgl/src/extra/widgets/colorwheel/../../../../src/hal/../draw/../misc/lv_color.h **** }
 429:Drivers/lvgl/lvgl/src/extra/widgets/colorwheel/../../../../src/hal/../draw/../misc/lv_color.h **** 
 430:Drivers/lvgl/lvgl/src/extra/widgets/colorwheel/../../../../src/hal/../draw/../misc/lv_color.h **** //! @cond Doxygen_Suppress
 431:Drivers/lvgl/lvgl/src/extra/widgets/colorwheel/../../../../src/hal/../draw/../misc/lv_color.h **** 
 432:Drivers/lvgl/lvgl/src/extra/widgets/colorwheel/../../../../src/hal/../draw/../misc/lv_color.h **** /**
 433:Drivers/lvgl/lvgl/src/extra/widgets/colorwheel/../../../../src/hal/../draw/../misc/lv_color.h ****  * Mix two colors with a given ratio.
 434:Drivers/lvgl/lvgl/src/extra/widgets/colorwheel/../../../../src/hal/../draw/../misc/lv_color.h ****  * @param c1 the first color to mix (usually the foreground)
 435:Drivers/lvgl/lvgl/src/extra/widgets/colorwheel/../../../../src/hal/../draw/../misc/lv_color.h ****  * @param c2 the second color to mix (usually the background)
 436:Drivers/lvgl/lvgl/src/extra/widgets/colorwheel/../../../../src/hal/../draw/../misc/lv_color.h ****  * @param mix The ratio of the colors. 0: full `c2`, 255: full `c1`, 127: half `c1` and half`c2`
 437:Drivers/lvgl/lvgl/src/extra/widgets/colorwheel/../../../../src/hal/../draw/../misc/lv_color.h ****  * @return the mixed color
 438:Drivers/lvgl/lvgl/src/extra/widgets/colorwheel/../../../../src/hal/../draw/../misc/lv_color.h ****  */
 439:Drivers/lvgl/lvgl/src/extra/widgets/colorwheel/../../../../src/hal/../draw/../misc/lv_color.h **** LV_ATTRIBUTE_FAST_MEM static inline lv_color_t lv_color_mix(lv_color_t c1, lv_color_t c2, uint8_t m
 440:Drivers/lvgl/lvgl/src/extra/widgets/colorwheel/../../../../src/hal/../draw/../misc/lv_color.h **** {
 441:Drivers/lvgl/lvgl/src/extra/widgets/colorwheel/../../../../src/hal/../draw/../misc/lv_color.h ****     lv_color_t ret;
 442:Drivers/lvgl/lvgl/src/extra/widgets/colorwheel/../../../../src/hal/../draw/../misc/lv_color.h **** 
 443:Drivers/lvgl/lvgl/src/extra/widgets/colorwheel/../../../../src/hal/../draw/../misc/lv_color.h **** #if LV_COLOR_DEPTH == 16 && LV_COLOR_MIX_ROUND_OFS == 0
 444:Drivers/lvgl/lvgl/src/extra/widgets/colorwheel/../../../../src/hal/../draw/../misc/lv_color.h **** #if LV_COLOR_16_SWAP == 1
 445:Drivers/lvgl/lvgl/src/extra/widgets/colorwheel/../../../../src/hal/../draw/../misc/lv_color.h ****     c1.full = c1.full << 8 | c1.full >> 8;
 446:Drivers/lvgl/lvgl/src/extra/widgets/colorwheel/../../../../src/hal/../draw/../misc/lv_color.h ****     c2.full = c2.full << 8 | c2.full >> 8;
 447:Drivers/lvgl/lvgl/src/extra/widgets/colorwheel/../../../../src/hal/../draw/../misc/lv_color.h **** #endif
 448:Drivers/lvgl/lvgl/src/extra/widgets/colorwheel/../../../../src/hal/../draw/../misc/lv_color.h ****     /*Source: https://stackoverflow.com/a/50012418/1999969*/
 449:Drivers/lvgl/lvgl/src/extra/widgets/colorwheel/../../../../src/hal/../draw/../misc/lv_color.h ****     mix = (uint32_t)((uint32_t)mix + 4) >> 3;
 450:Drivers/lvgl/lvgl/src/extra/widgets/colorwheel/../../../../src/hal/../draw/../misc/lv_color.h ****     uint32_t bg = (uint32_t)((uint32_t)c2.full | ((uint32_t)c2.full << 16)) &
 451:Drivers/lvgl/lvgl/src/extra/widgets/colorwheel/../../../../src/hal/../draw/../misc/lv_color.h ****                   0x7E0F81F; /*0b00000111111000001111100000011111*/
 452:Drivers/lvgl/lvgl/src/extra/widgets/colorwheel/../../../../src/hal/../draw/../misc/lv_color.h ****     uint32_t fg = (uint32_t)((uint32_t)c1.full | ((uint32_t)c1.full << 16)) & 0x7E0F81F;
 453:Drivers/lvgl/lvgl/src/extra/widgets/colorwheel/../../../../src/hal/../draw/../misc/lv_color.h ****     uint32_t result = ((((fg - bg) * mix) >> 5) + bg) & 0x7E0F81F;
 454:Drivers/lvgl/lvgl/src/extra/widgets/colorwheel/../../../../src/hal/../draw/../misc/lv_color.h ****     ret.full = (uint16_t)((result >> 16) | result);
 455:Drivers/lvgl/lvgl/src/extra/widgets/colorwheel/../../../../src/hal/../draw/../misc/lv_color.h **** #if LV_COLOR_16_SWAP == 1
 456:Drivers/lvgl/lvgl/src/extra/widgets/colorwheel/../../../../src/hal/../draw/../misc/lv_color.h ****     ret.full = ret.full << 8 | ret.full >> 8;
 457:Drivers/lvgl/lvgl/src/extra/widgets/colorwheel/../../../../src/hal/../draw/../misc/lv_color.h **** #endif
 458:Drivers/lvgl/lvgl/src/extra/widgets/colorwheel/../../../../src/hal/../draw/../misc/lv_color.h **** #elif LV_COLOR_DEPTH != 1
 459:Drivers/lvgl/lvgl/src/extra/widgets/colorwheel/../../../../src/hal/../draw/../misc/lv_color.h ****     /*LV_COLOR_DEPTH == 8, 16 or 32*/
 460:Drivers/lvgl/lvgl/src/extra/widgets/colorwheel/../../../../src/hal/../draw/../misc/lv_color.h ****     LV_COLOR_SET_R(ret, LV_UDIV255((uint16_t)LV_COLOR_GET_R(c1) * mix + LV_COLOR_GET_R(c2) *
 461:Drivers/lvgl/lvgl/src/extra/widgets/colorwheel/../../../../src/hal/../draw/../misc/lv_color.h ****                                    (255 - mix) + LV_COLOR_MIX_ROUND_OFS));
 462:Drivers/lvgl/lvgl/src/extra/widgets/colorwheel/../../../../src/hal/../draw/../misc/lv_color.h ****     LV_COLOR_SET_G(ret, LV_UDIV255((uint16_t)LV_COLOR_GET_G(c1) * mix + LV_COLOR_GET_G(c2) *
 463:Drivers/lvgl/lvgl/src/extra/widgets/colorwheel/../../../../src/hal/../draw/../misc/lv_color.h ****                                    (255 - mix) + LV_COLOR_MIX_ROUND_OFS));
ARM GAS  /tmp/ccbjN9K1.s 			page 26


 464:Drivers/lvgl/lvgl/src/extra/widgets/colorwheel/../../../../src/hal/../draw/../misc/lv_color.h ****     LV_COLOR_SET_B(ret, LV_UDIV255((uint16_t)LV_COLOR_GET_B(c1) * mix + LV_COLOR_GET_B(c2) *
 465:Drivers/lvgl/lvgl/src/extra/widgets/colorwheel/../../../../src/hal/../draw/../misc/lv_color.h ****                                    (255 - mix) + LV_COLOR_MIX_ROUND_OFS));
 466:Drivers/lvgl/lvgl/src/extra/widgets/colorwheel/../../../../src/hal/../draw/../misc/lv_color.h ****     LV_COLOR_SET_A(ret, 0xFF);
 467:Drivers/lvgl/lvgl/src/extra/widgets/colorwheel/../../../../src/hal/../draw/../misc/lv_color.h **** #else
 468:Drivers/lvgl/lvgl/src/extra/widgets/colorwheel/../../../../src/hal/../draw/../misc/lv_color.h ****     /*LV_COLOR_DEPTH == 1*/
 469:Drivers/lvgl/lvgl/src/extra/widgets/colorwheel/../../../../src/hal/../draw/../misc/lv_color.h ****     ret.full = mix > LV_OPA_50 ? c1.full : c2.full;
 470:Drivers/lvgl/lvgl/src/extra/widgets/colorwheel/../../../../src/hal/../draw/../misc/lv_color.h **** #endif
 471:Drivers/lvgl/lvgl/src/extra/widgets/colorwheel/../../../../src/hal/../draw/../misc/lv_color.h **** 
 472:Drivers/lvgl/lvgl/src/extra/widgets/colorwheel/../../../../src/hal/../draw/../misc/lv_color.h ****     return ret;
 473:Drivers/lvgl/lvgl/src/extra/widgets/colorwheel/../../../../src/hal/../draw/../misc/lv_color.h **** }
 474:Drivers/lvgl/lvgl/src/extra/widgets/colorwheel/../../../../src/hal/../draw/../misc/lv_color.h **** 
 475:Drivers/lvgl/lvgl/src/extra/widgets/colorwheel/../../../../src/hal/../draw/../misc/lv_color.h **** LV_ATTRIBUTE_FAST_MEM static inline void lv_color_premult(lv_color_t c, uint8_t mix, uint16_t * out
 476:Drivers/lvgl/lvgl/src/extra/widgets/colorwheel/../../../../src/hal/../draw/../misc/lv_color.h **** {
 477:Drivers/lvgl/lvgl/src/extra/widgets/colorwheel/../../../../src/hal/../draw/../misc/lv_color.h **** #if LV_COLOR_DEPTH != 1
 478:Drivers/lvgl/lvgl/src/extra/widgets/colorwheel/../../../../src/hal/../draw/../misc/lv_color.h ****     out[0] = (uint16_t)LV_COLOR_GET_R(c) * mix;
 479:Drivers/lvgl/lvgl/src/extra/widgets/colorwheel/../../../../src/hal/../draw/../misc/lv_color.h ****     out[1] = (uint16_t)LV_COLOR_GET_G(c) * mix;
 480:Drivers/lvgl/lvgl/src/extra/widgets/colorwheel/../../../../src/hal/../draw/../misc/lv_color.h ****     out[2] = (uint16_t)LV_COLOR_GET_B(c) * mix;
 481:Drivers/lvgl/lvgl/src/extra/widgets/colorwheel/../../../../src/hal/../draw/../misc/lv_color.h **** #else
 482:Drivers/lvgl/lvgl/src/extra/widgets/colorwheel/../../../../src/hal/../draw/../misc/lv_color.h ****     (void) mix;
 483:Drivers/lvgl/lvgl/src/extra/widgets/colorwheel/../../../../src/hal/../draw/../misc/lv_color.h ****     /*Pre-multiplication can't be used with 1 bpp*/
 484:Drivers/lvgl/lvgl/src/extra/widgets/colorwheel/../../../../src/hal/../draw/../misc/lv_color.h ****     out[0] = LV_COLOR_GET_R(c);
 485:Drivers/lvgl/lvgl/src/extra/widgets/colorwheel/../../../../src/hal/../draw/../misc/lv_color.h ****     out[1] = LV_COLOR_GET_G(c);
 486:Drivers/lvgl/lvgl/src/extra/widgets/colorwheel/../../../../src/hal/../draw/../misc/lv_color.h ****     out[2] = LV_COLOR_GET_B(c);
 487:Drivers/lvgl/lvgl/src/extra/widgets/colorwheel/../../../../src/hal/../draw/../misc/lv_color.h **** #endif
 488:Drivers/lvgl/lvgl/src/extra/widgets/colorwheel/../../../../src/hal/../draw/../misc/lv_color.h **** 
 489:Drivers/lvgl/lvgl/src/extra/widgets/colorwheel/../../../../src/hal/../draw/../misc/lv_color.h **** }
 490:Drivers/lvgl/lvgl/src/extra/widgets/colorwheel/../../../../src/hal/../draw/../misc/lv_color.h **** 
 491:Drivers/lvgl/lvgl/src/extra/widgets/colorwheel/../../../../src/hal/../draw/../misc/lv_color.h **** /**
 492:Drivers/lvgl/lvgl/src/extra/widgets/colorwheel/../../../../src/hal/../draw/../misc/lv_color.h ****  * Mix two colors with a given ratio. It runs faster then `lv_color_mix` but requires some pre comp
 493:Drivers/lvgl/lvgl/src/extra/widgets/colorwheel/../../../../src/hal/../draw/../misc/lv_color.h ****  * @param premult_c1 The first color. Should be preprocessed with `lv_color_premult(c1)`
 494:Drivers/lvgl/lvgl/src/extra/widgets/colorwheel/../../../../src/hal/../draw/../misc/lv_color.h ****  * @param c2 The second color. As it is no pre computation required on it
 495:Drivers/lvgl/lvgl/src/extra/widgets/colorwheel/../../../../src/hal/../draw/../misc/lv_color.h ****  * @param mix The ratio of the colors. 0: full `c1`, 255: full `c2`, 127: half `c1` and half `c2`.
 496:Drivers/lvgl/lvgl/src/extra/widgets/colorwheel/../../../../src/hal/../draw/../misc/lv_color.h ****  *            Should be modified like mix = `255 - mix`
 497:Drivers/lvgl/lvgl/src/extra/widgets/colorwheel/../../../../src/hal/../draw/../misc/lv_color.h ****  * @return the mixed color
 498:Drivers/lvgl/lvgl/src/extra/widgets/colorwheel/../../../../src/hal/../draw/../misc/lv_color.h ****  * @note 255 won't give clearly `c1`.
 499:Drivers/lvgl/lvgl/src/extra/widgets/colorwheel/../../../../src/hal/../draw/../misc/lv_color.h ****  */
 500:Drivers/lvgl/lvgl/src/extra/widgets/colorwheel/../../../../src/hal/../draw/../misc/lv_color.h **** LV_ATTRIBUTE_FAST_MEM static inline lv_color_t lv_color_mix_premult(uint16_t * premult_c1, lv_color
 501:Drivers/lvgl/lvgl/src/extra/widgets/colorwheel/../../../../src/hal/../draw/../misc/lv_color.h **** {
 502:Drivers/lvgl/lvgl/src/extra/widgets/colorwheel/../../../../src/hal/../draw/../misc/lv_color.h ****     lv_color_t ret;
 503:Drivers/lvgl/lvgl/src/extra/widgets/colorwheel/../../../../src/hal/../draw/../misc/lv_color.h **** #if LV_COLOR_DEPTH != 1
 504:Drivers/lvgl/lvgl/src/extra/widgets/colorwheel/../../../../src/hal/../draw/../misc/lv_color.h ****     /*LV_COLOR_DEPTH == 8 or 32*/
 505:Drivers/lvgl/lvgl/src/extra/widgets/colorwheel/../../../../src/hal/../draw/../misc/lv_color.h ****     LV_COLOR_SET_R(ret, LV_UDIV255(premult_c1[0] + LV_COLOR_GET_R(c2) * mix + LV_COLOR_MIX_ROUND_OF
 506:Drivers/lvgl/lvgl/src/extra/widgets/colorwheel/../../../../src/hal/../draw/../misc/lv_color.h ****     LV_COLOR_SET_G(ret, LV_UDIV255(premult_c1[1] + LV_COLOR_GET_G(c2) * mix + LV_COLOR_MIX_ROUND_OF
 507:Drivers/lvgl/lvgl/src/extra/widgets/colorwheel/../../../../src/hal/../draw/../misc/lv_color.h ****     LV_COLOR_SET_B(ret, LV_UDIV255(premult_c1[2] + LV_COLOR_GET_B(c2) * mix + LV_COLOR_MIX_ROUND_OF
 508:Drivers/lvgl/lvgl/src/extra/widgets/colorwheel/../../../../src/hal/../draw/../misc/lv_color.h ****     LV_COLOR_SET_A(ret, 0xFF);
 509:Drivers/lvgl/lvgl/src/extra/widgets/colorwheel/../../../../src/hal/../draw/../misc/lv_color.h **** #else
 510:Drivers/lvgl/lvgl/src/extra/widgets/colorwheel/../../../../src/hal/../draw/../misc/lv_color.h ****     /*LV_COLOR_DEPTH == 1*/
 511:Drivers/lvgl/lvgl/src/extra/widgets/colorwheel/../../../../src/hal/../draw/../misc/lv_color.h ****     /*Restore color1*/
 512:Drivers/lvgl/lvgl/src/extra/widgets/colorwheel/../../../../src/hal/../draw/../misc/lv_color.h ****     lv_color_t c1;
 513:Drivers/lvgl/lvgl/src/extra/widgets/colorwheel/../../../../src/hal/../draw/../misc/lv_color.h ****     LV_COLOR_SET_R(c1, premult_c1[0]);
 514:Drivers/lvgl/lvgl/src/extra/widgets/colorwheel/../../../../src/hal/../draw/../misc/lv_color.h ****     LV_COLOR_SET_G(c1, premult_c1[1]);
 515:Drivers/lvgl/lvgl/src/extra/widgets/colorwheel/../../../../src/hal/../draw/../misc/lv_color.h ****     LV_COLOR_SET_B(c1, premult_c1[2]);
 516:Drivers/lvgl/lvgl/src/extra/widgets/colorwheel/../../../../src/hal/../draw/../misc/lv_color.h ****     ret.full = mix > LV_OPA_50 ? c2.full : c1.full;
 517:Drivers/lvgl/lvgl/src/extra/widgets/colorwheel/../../../../src/hal/../draw/../misc/lv_color.h **** #endif
 518:Drivers/lvgl/lvgl/src/extra/widgets/colorwheel/../../../../src/hal/../draw/../misc/lv_color.h **** 
 519:Drivers/lvgl/lvgl/src/extra/widgets/colorwheel/../../../../src/hal/../draw/../misc/lv_color.h ****     return ret;
 520:Drivers/lvgl/lvgl/src/extra/widgets/colorwheel/../../../../src/hal/../draw/../misc/lv_color.h **** }
ARM GAS  /tmp/ccbjN9K1.s 			page 27


 521:Drivers/lvgl/lvgl/src/extra/widgets/colorwheel/../../../../src/hal/../draw/../misc/lv_color.h **** 
 522:Drivers/lvgl/lvgl/src/extra/widgets/colorwheel/../../../../src/hal/../draw/../misc/lv_color.h **** /**
 523:Drivers/lvgl/lvgl/src/extra/widgets/colorwheel/../../../../src/hal/../draw/../misc/lv_color.h ****  * Mix two colors. Both color can have alpha value.
 524:Drivers/lvgl/lvgl/src/extra/widgets/colorwheel/../../../../src/hal/../draw/../misc/lv_color.h ****  * @param bg_color background color
 525:Drivers/lvgl/lvgl/src/extra/widgets/colorwheel/../../../../src/hal/../draw/../misc/lv_color.h ****  * @param bg_opa alpha of the background color
 526:Drivers/lvgl/lvgl/src/extra/widgets/colorwheel/../../../../src/hal/../draw/../misc/lv_color.h ****  * @param fg_color foreground color
 527:Drivers/lvgl/lvgl/src/extra/widgets/colorwheel/../../../../src/hal/../draw/../misc/lv_color.h ****  * @param fg_opa alpha of the foreground color
 528:Drivers/lvgl/lvgl/src/extra/widgets/colorwheel/../../../../src/hal/../draw/../misc/lv_color.h ****  * @param res_color the result color
 529:Drivers/lvgl/lvgl/src/extra/widgets/colorwheel/../../../../src/hal/../draw/../misc/lv_color.h ****  * @param res_opa the result opacity
 530:Drivers/lvgl/lvgl/src/extra/widgets/colorwheel/../../../../src/hal/../draw/../misc/lv_color.h ****  */
 531:Drivers/lvgl/lvgl/src/extra/widgets/colorwheel/../../../../src/hal/../draw/../misc/lv_color.h **** LV_ATTRIBUTE_FAST_MEM static inline void lv_color_mix_with_alpha(lv_color_t bg_color, lv_opa_t bg_o
 532:Drivers/lvgl/lvgl/src/extra/widgets/colorwheel/../../../../src/hal/../draw/../misc/lv_color.h ****                                                                  lv_color_t fg_color, lv_opa_t fg_o
 533:Drivers/lvgl/lvgl/src/extra/widgets/colorwheel/../../../../src/hal/../draw/../misc/lv_color.h ****                                                                  lv_color_t * res_color, lv_opa_t *
 534:Drivers/lvgl/lvgl/src/extra/widgets/colorwheel/../../../../src/hal/../draw/../misc/lv_color.h **** {
 535:Drivers/lvgl/lvgl/src/extra/widgets/colorwheel/../../../../src/hal/../draw/../misc/lv_color.h ****     /*Pick the foreground if it's fully opaque or the Background is fully transparent*/
 536:Drivers/lvgl/lvgl/src/extra/widgets/colorwheel/../../../../src/hal/../draw/../misc/lv_color.h ****     if(fg_opa >= LV_OPA_MAX || bg_opa <= LV_OPA_MIN) {
 537:Drivers/lvgl/lvgl/src/extra/widgets/colorwheel/../../../../src/hal/../draw/../misc/lv_color.h ****         res_color->full = fg_color.full;
 538:Drivers/lvgl/lvgl/src/extra/widgets/colorwheel/../../../../src/hal/../draw/../misc/lv_color.h ****         *res_opa = fg_opa;
 539:Drivers/lvgl/lvgl/src/extra/widgets/colorwheel/../../../../src/hal/../draw/../misc/lv_color.h ****     }
 540:Drivers/lvgl/lvgl/src/extra/widgets/colorwheel/../../../../src/hal/../draw/../misc/lv_color.h ****     /*Transparent foreground: use the Background*/
 541:Drivers/lvgl/lvgl/src/extra/widgets/colorwheel/../../../../src/hal/../draw/../misc/lv_color.h ****     else if(fg_opa <= LV_OPA_MIN) {
 542:Drivers/lvgl/lvgl/src/extra/widgets/colorwheel/../../../../src/hal/../draw/../misc/lv_color.h ****         res_color->full = bg_color.full;
 543:Drivers/lvgl/lvgl/src/extra/widgets/colorwheel/../../../../src/hal/../draw/../misc/lv_color.h ****         *res_opa = bg_opa;
 544:Drivers/lvgl/lvgl/src/extra/widgets/colorwheel/../../../../src/hal/../draw/../misc/lv_color.h ****     }
 545:Drivers/lvgl/lvgl/src/extra/widgets/colorwheel/../../../../src/hal/../draw/../misc/lv_color.h ****     /*Opaque background: use simple mix*/
 546:Drivers/lvgl/lvgl/src/extra/widgets/colorwheel/../../../../src/hal/../draw/../misc/lv_color.h ****     else if(bg_opa >= LV_OPA_MAX) {
 547:Drivers/lvgl/lvgl/src/extra/widgets/colorwheel/../../../../src/hal/../draw/../misc/lv_color.h ****         *res_color = lv_color_mix(fg_color, bg_color, fg_opa);
 548:Drivers/lvgl/lvgl/src/extra/widgets/colorwheel/../../../../src/hal/../draw/../misc/lv_color.h ****         *res_opa = LV_OPA_COVER;
 549:Drivers/lvgl/lvgl/src/extra/widgets/colorwheel/../../../../src/hal/../draw/../misc/lv_color.h ****     }
 550:Drivers/lvgl/lvgl/src/extra/widgets/colorwheel/../../../../src/hal/../draw/../misc/lv_color.h ****     /*Both colors have alpha. Expensive calculation need to be applied*/
 551:Drivers/lvgl/lvgl/src/extra/widgets/colorwheel/../../../../src/hal/../draw/../misc/lv_color.h ****     else {
 552:Drivers/lvgl/lvgl/src/extra/widgets/colorwheel/../../../../src/hal/../draw/../misc/lv_color.h ****         /*Save the parameters and the result. If they will be asked again don't compute again*/
 553:Drivers/lvgl/lvgl/src/extra/widgets/colorwheel/../../../../src/hal/../draw/../misc/lv_color.h ****         static lv_opa_t fg_opa_save     = 0;
 554:Drivers/lvgl/lvgl/src/extra/widgets/colorwheel/../../../../src/hal/../draw/../misc/lv_color.h ****         static lv_opa_t bg_opa_save     = 0;
 555:Drivers/lvgl/lvgl/src/extra/widgets/colorwheel/../../../../src/hal/../draw/../misc/lv_color.h ****         static lv_color_t fg_color_save = _LV_COLOR_ZERO_INITIALIZER;
 556:Drivers/lvgl/lvgl/src/extra/widgets/colorwheel/../../../../src/hal/../draw/../misc/lv_color.h ****         static lv_color_t bg_color_save = _LV_COLOR_ZERO_INITIALIZER;
 557:Drivers/lvgl/lvgl/src/extra/widgets/colorwheel/../../../../src/hal/../draw/../misc/lv_color.h ****         static lv_color_t res_color_saved = _LV_COLOR_ZERO_INITIALIZER;
 558:Drivers/lvgl/lvgl/src/extra/widgets/colorwheel/../../../../src/hal/../draw/../misc/lv_color.h ****         static lv_opa_t res_opa_saved = 0;
 559:Drivers/lvgl/lvgl/src/extra/widgets/colorwheel/../../../../src/hal/../draw/../misc/lv_color.h **** 
 560:Drivers/lvgl/lvgl/src/extra/widgets/colorwheel/../../../../src/hal/../draw/../misc/lv_color.h ****         if(fg_opa != fg_opa_save || bg_opa != bg_opa_save || fg_color.full != fg_color_save.full ||
 561:Drivers/lvgl/lvgl/src/extra/widgets/colorwheel/../../../../src/hal/../draw/../misc/lv_color.h ****            bg_color.full != bg_color_save.full) {
 562:Drivers/lvgl/lvgl/src/extra/widgets/colorwheel/../../../../src/hal/../draw/../misc/lv_color.h ****             fg_opa_save        = fg_opa;
 563:Drivers/lvgl/lvgl/src/extra/widgets/colorwheel/../../../../src/hal/../draw/../misc/lv_color.h ****             bg_opa_save        = bg_opa;
 564:Drivers/lvgl/lvgl/src/extra/widgets/colorwheel/../../../../src/hal/../draw/../misc/lv_color.h ****             fg_color_save.full = fg_color.full;
 565:Drivers/lvgl/lvgl/src/extra/widgets/colorwheel/../../../../src/hal/../draw/../misc/lv_color.h ****             bg_color_save.full = bg_color.full;
 566:Drivers/lvgl/lvgl/src/extra/widgets/colorwheel/../../../../src/hal/../draw/../misc/lv_color.h ****             /*Info:
 567:Drivers/lvgl/lvgl/src/extra/widgets/colorwheel/../../../../src/hal/../draw/../misc/lv_color.h ****              * https://en.wikipedia.org/wiki/Alpha_compositing#Analytical_derivation_of_the_over_op
 568:Drivers/lvgl/lvgl/src/extra/widgets/colorwheel/../../../../src/hal/../draw/../misc/lv_color.h ****             res_opa_saved = 255 - ((uint16_t)((uint16_t)(255 - fg_opa) * (255 - bg_opa)) >> 8);
 569:Drivers/lvgl/lvgl/src/extra/widgets/colorwheel/../../../../src/hal/../draw/../misc/lv_color.h ****             LV_ASSERT(res_opa_saved != 0);
 570:Drivers/lvgl/lvgl/src/extra/widgets/colorwheel/../../../../src/hal/../draw/../misc/lv_color.h ****             lv_opa_t ratio = (uint16_t)((uint16_t)fg_opa * 255) / res_opa_saved;
 571:Drivers/lvgl/lvgl/src/extra/widgets/colorwheel/../../../../src/hal/../draw/../misc/lv_color.h ****             res_color_saved = lv_color_mix(fg_color, bg_color, ratio);
 572:Drivers/lvgl/lvgl/src/extra/widgets/colorwheel/../../../../src/hal/../draw/../misc/lv_color.h **** 
 573:Drivers/lvgl/lvgl/src/extra/widgets/colorwheel/../../../../src/hal/../draw/../misc/lv_color.h ****         }
 574:Drivers/lvgl/lvgl/src/extra/widgets/colorwheel/../../../../src/hal/../draw/../misc/lv_color.h **** 
 575:Drivers/lvgl/lvgl/src/extra/widgets/colorwheel/../../../../src/hal/../draw/../misc/lv_color.h ****         res_color->full = res_color_saved.full;
 576:Drivers/lvgl/lvgl/src/extra/widgets/colorwheel/../../../../src/hal/../draw/../misc/lv_color.h ****         *res_opa = res_opa_saved;
 577:Drivers/lvgl/lvgl/src/extra/widgets/colorwheel/../../../../src/hal/../draw/../misc/lv_color.h ****     }
ARM GAS  /tmp/ccbjN9K1.s 			page 28


 578:Drivers/lvgl/lvgl/src/extra/widgets/colorwheel/../../../../src/hal/../draw/../misc/lv_color.h **** }
 579:Drivers/lvgl/lvgl/src/extra/widgets/colorwheel/../../../../src/hal/../draw/../misc/lv_color.h **** 
 580:Drivers/lvgl/lvgl/src/extra/widgets/colorwheel/../../../../src/hal/../draw/../misc/lv_color.h **** //! @endcond
 581:Drivers/lvgl/lvgl/src/extra/widgets/colorwheel/../../../../src/hal/../draw/../misc/lv_color.h **** 
 582:Drivers/lvgl/lvgl/src/extra/widgets/colorwheel/../../../../src/hal/../draw/../misc/lv_color.h **** /**
 583:Drivers/lvgl/lvgl/src/extra/widgets/colorwheel/../../../../src/hal/../draw/../misc/lv_color.h ****  * Get the brightness of a color
 584:Drivers/lvgl/lvgl/src/extra/widgets/colorwheel/../../../../src/hal/../draw/../misc/lv_color.h ****  * @param color a color
 585:Drivers/lvgl/lvgl/src/extra/widgets/colorwheel/../../../../src/hal/../draw/../misc/lv_color.h ****  * @return the brightness [0..255]
 586:Drivers/lvgl/lvgl/src/extra/widgets/colorwheel/../../../../src/hal/../draw/../misc/lv_color.h ****  */
 587:Drivers/lvgl/lvgl/src/extra/widgets/colorwheel/../../../../src/hal/../draw/../misc/lv_color.h **** static inline uint8_t lv_color_brightness(lv_color_t color)
 588:Drivers/lvgl/lvgl/src/extra/widgets/colorwheel/../../../../src/hal/../draw/../misc/lv_color.h **** {
 589:Drivers/lvgl/lvgl/src/extra/widgets/colorwheel/../../../../src/hal/../draw/../misc/lv_color.h ****     lv_color32_t c32;
 590:Drivers/lvgl/lvgl/src/extra/widgets/colorwheel/../../../../src/hal/../draw/../misc/lv_color.h ****     c32.full        = lv_color_to32(color);
 591:Drivers/lvgl/lvgl/src/extra/widgets/colorwheel/../../../../src/hal/../draw/../misc/lv_color.h ****     uint16_t bright = (uint16_t)(3u * LV_COLOR_GET_R32(c32) + LV_COLOR_GET_B32(c32) + 4u * LV_COLOR
 592:Drivers/lvgl/lvgl/src/extra/widgets/colorwheel/../../../../src/hal/../draw/../misc/lv_color.h ****     return (uint8_t)(bright >> 3);
 593:Drivers/lvgl/lvgl/src/extra/widgets/colorwheel/../../../../src/hal/../draw/../misc/lv_color.h **** }
 594:Drivers/lvgl/lvgl/src/extra/widgets/colorwheel/../../../../src/hal/../draw/../misc/lv_color.h **** 
 595:Drivers/lvgl/lvgl/src/extra/widgets/colorwheel/../../../../src/hal/../draw/../misc/lv_color.h **** static inline lv_color_t lv_color_make(uint8_t r, uint8_t g, uint8_t b)
 596:Drivers/lvgl/lvgl/src/extra/widgets/colorwheel/../../../../src/hal/../draw/../misc/lv_color.h **** {
 597:Drivers/lvgl/lvgl/src/extra/widgets/colorwheel/../../../../src/hal/../draw/../misc/lv_color.h ****     return _LV_COLOR_MAKE_TYPE_HELPER LV_COLOR_MAKE(r, g, b);
 271              		.loc 2 597 0
 272 00a6 C908     		lsrs	r1, r1, #3
 273              	.LVL34:
 274 00a8 9208     		lsrs	r2, r2, #2
 275              	.LVL35:
 276 00aa DB08     		lsrs	r3, r3, #3
 277              	.LVL36:
 278 00ac 4FF00000 		mov	r0, #0	@ movhi
 279 00b0 61F30400 		bfi	r0, r1, #0, #5
 280 00b4 62F34A10 		bfi	r0, r2, #5, #6
 281 00b8 63F3CF20 		bfi	r0, r3, #11, #5
 282              	.LVL37:
 283              	.LBE53:
 284              	.LBE52:
 692:Drivers/lvgl/lvgl/src/extra/widgets/colorwheel/lv_colorwheel.c **** }
 285              		.loc 1 692 0
 286 00bc 05B0     		add	sp, sp, #20
 287              	.LCFI4:
 288              		.cfi_remember_state
 289              		.cfi_def_cfa_offset 12
 290              		@ sp needed
 291 00be 30BD     		pop	{r4, r5, pc}
 292              	.LVL38:
 293              	.L16:
 294              	.LCFI5:
 295              		.cfi_restore_state
 674:Drivers/lvgl/lvgl/src/extra/widgets/colorwheel/lv_colorwheel.c ****                 h = (uint16_t)(((uint32_t)ext->hsv.h * 6 * 256) / 360);
 296              		.loc 1 674 0
 297 00c0 2F4C     		ldr	r4, .L23+4
 298 00c2 2478     		ldrb	r4, [r4]	@ zero_extendqisi2
 299 00c4 A242     		cmp	r2, r4
 300 00c6 19D0     		beq	.L20
 675:Drivers/lvgl/lvgl/src/extra/widgets/colorwheel/lv_colorwheel.c ****                 v = (uint8_t)(((uint16_t)ext->hsv.v * 51) / 20);
 301              		.loc 1 675 0
 302 00c8 828C     		ldrh	r2, [r0, #36]
 303 00ca 02EB4202 		add	r2, r2, r2, lsl #1
 304 00ce 9201     		lsls	r2, r2, #6
ARM GAS  /tmp/ccbjN9K1.s 			page 29


 305 00d0 2F4C     		ldr	r4, .L23+20
 306 00d2 A4FB0242 		umull	r4, r2, r4, r2
 307 00d6 C2F38F02 		ubfx	r2, r2, #2, #16
 308 00da 2E4C     		ldr	r4, .L23+24
 309 00dc 2280     		strh	r2, [r4]	@ movhi
 676:Drivers/lvgl/lvgl/src/extra/widgets/colorwheel/lv_colorwheel.c ****                 m = ext->mode;
 310              		.loc 1 676 0
 311 00de 90F82720 		ldrb	r2, [r0, #39]	@ zero_extendqisi2
 312 00e2 02EB4202 		add	r2, r2, r2, lsl #1
 313 00e6 02EB0212 		add	r2, r2, r2, lsl #4
 314 00ea 2648     		ldr	r0, .L23+8
 315              	.LVL39:
 316 00ec 80FB0202 		smull	r0, r2, r0, r2
 317 00f0 C2F3C702 		ubfx	r2, r2, #3, #8
 318 00f4 2548     		ldr	r0, .L23+16
 319 00f6 0270     		strb	r2, [r0]
 677:Drivers/lvgl/lvgl/src/extra/widgets/colorwheel/lv_colorwheel.c ****             }
 320              		.loc 1 677 0
 321 00f8 214A     		ldr	r2, .L23+4
 322 00fa 1370     		strb	r3, [r2]
 323              	.L20:
 679:Drivers/lvgl/lvgl/src/extra/widgets/colorwheel/lv_colorwheel.c ****             break;
 324              		.loc 1 679 0
 325 00fc 234B     		ldr	r3, .L23+16
 326 00fe 1A78     		ldrb	r2, [r3]	@ zero_extendqisi2
 327 0100 244B     		ldr	r3, .L23+24
 328 0102 1888     		ldrh	r0, [r3]
 329 0104 0DF10D03 		add	r3, sp, #13
 330 0108 0193     		str	r3, [sp, #4]
 331 010a 0DF10E03 		add	r3, sp, #14
 332 010e 0093     		str	r3, [sp]
 333 0110 0DF10F03 		add	r3, sp, #15
 334 0114 C9B2     		uxtb	r1, r1
 335              	.LVL40:
 336 0116 FFF7FEFF 		bl	fast_hsv2rgb
 337              	.LVL41:
 680:Drivers/lvgl/lvgl/src/extra/widgets/colorwheel/lv_colorwheel.c ****         case LV_COLORWHEEL_MODE_VALUE:
 338              		.loc 1 680 0
 339 011a BEE7     		b	.L19
 340              	.LVL42:
 341              	.L17:
 683:Drivers/lvgl/lvgl/src/extra/widgets/colorwheel/lv_colorwheel.c ****                 h = (uint16_t)(((uint32_t)ext->hsv.h * 6 * 256) / 360);
 342              		.loc 1 683 0
 343 011c 184C     		ldr	r4, .L23+4
 344 011e 2478     		ldrb	r4, [r4]	@ zero_extendqisi2
 345 0120 A242     		cmp	r2, r4
 346 0122 19D0     		beq	.L21
 684:Drivers/lvgl/lvgl/src/extra/widgets/colorwheel/lv_colorwheel.c ****                 s = (uint8_t)(((uint16_t)ext->hsv.s * 51) / 20);
 347              		.loc 1 684 0
 348 0124 828C     		ldrh	r2, [r0, #36]
 349 0126 02EB4202 		add	r2, r2, r2, lsl #1
 350 012a 9201     		lsls	r2, r2, #6
 351 012c 184C     		ldr	r4, .L23+20
 352 012e A4FB0242 		umull	r4, r2, r4, r2
 353 0132 C2F38F02 		ubfx	r2, r2, #2, #16
 354 0136 174C     		ldr	r4, .L23+24
 355 0138 2280     		strh	r2, [r4]	@ movhi
ARM GAS  /tmp/ccbjN9K1.s 			page 30


 685:Drivers/lvgl/lvgl/src/extra/widgets/colorwheel/lv_colorwheel.c ****                 m = ext->mode;
 356              		.loc 1 685 0
 357 013a 90F82620 		ldrb	r2, [r0, #38]	@ zero_extendqisi2
 358 013e 02EB4202 		add	r2, r2, r2, lsl #1
 359 0142 02EB0212 		add	r2, r2, r2, lsl #4
 360 0146 0F48     		ldr	r0, .L23+8
 361              	.LVL43:
 362 0148 80FB0202 		smull	r0, r2, r0, r2
 363 014c C2F3C702 		ubfx	r2, r2, #3, #8
 364 0150 0D48     		ldr	r0, .L23+12
 365 0152 0270     		strb	r2, [r0]
 686:Drivers/lvgl/lvgl/src/extra/widgets/colorwheel/lv_colorwheel.c ****             }
 366              		.loc 1 686 0
 367 0154 0A4A     		ldr	r2, .L23+4
 368 0156 1370     		strb	r3, [r2]
 369              	.L21:
 688:Drivers/lvgl/lvgl/src/extra/widgets/colorwheel/lv_colorwheel.c ****             break;
 370              		.loc 1 688 0
 371 0158 0B4B     		ldr	r3, .L23+12
 372 015a 1C78     		ldrb	r4, [r3]	@ zero_extendqisi2
 373 015c 0D4B     		ldr	r3, .L23+24
 374 015e 1888     		ldrh	r0, [r3]
 375 0160 0DF10D03 		add	r3, sp, #13
 376 0164 0193     		str	r3, [sp, #4]
 377 0166 0DF10E03 		add	r3, sp, #14
 378 016a 0093     		str	r3, [sp]
 379 016c 0DF10F03 		add	r3, sp, #15
 380 0170 CAB2     		uxtb	r2, r1
 381 0172 2146     		mov	r1, r4
 382              	.LVL44:
 383 0174 FFF7FEFF 		bl	fast_hsv2rgb
 384              	.LVL45:
 689:Drivers/lvgl/lvgl/src/extra/widgets/colorwheel/lv_colorwheel.c ****     }
 385              		.loc 1 689 0
 386 0178 8FE7     		b	.L19
 387              	.L24:
 388 017a 00BF     		.align	2
 389              	.L23:
 390 017c 00000000 		.word	.LANCHOR0
 391 0180 00000000 		.word	.LANCHOR1
 392 0184 67666666 		.word	1717986919
 393 0188 00000000 		.word	.LANCHOR2
 394 018c 00000000 		.word	.LANCHOR3
 395 0190 176CC116 		.word	381774871
 396 0194 00000000 		.word	.LANCHOR4
 397              		.cfi_endproc
 398              	.LFE221:
 400              		.section	.text.get_angle,"ax",%progbits
 401              		.align	1
 402              		.syntax unified
 403              		.thumb
 404              		.thumb_func
 405              		.fpu fpv5-d16
 407              	get_angle:
 408              	.LFB222:
 693:Drivers/lvgl/lvgl/src/extra/widgets/colorwheel/lv_colorwheel.c **** 
 694:Drivers/lvgl/lvgl/src/extra/widgets/colorwheel/lv_colorwheel.c **** static uint16_t get_angle(lv_obj_t * obj)
ARM GAS  /tmp/ccbjN9K1.s 			page 31


 695:Drivers/lvgl/lvgl/src/extra/widgets/colorwheel/lv_colorwheel.c **** {
 409              		.loc 1 695 0
 410              		.cfi_startproc
 411              		@ args = 0, pretend = 0, frame = 0
 412              		@ frame_needed = 0, uses_anonymous_args = 0
 413              		@ link register save eliminated.
 414              	.LVL46:
 696:Drivers/lvgl/lvgl/src/extra/widgets/colorwheel/lv_colorwheel.c ****     lv_colorwheel_t * colorwheel = (lv_colorwheel_t *)obj;
 697:Drivers/lvgl/lvgl/src/extra/widgets/colorwheel/lv_colorwheel.c ****     uint16_t angle;
 698:Drivers/lvgl/lvgl/src/extra/widgets/colorwheel/lv_colorwheel.c ****     switch(colorwheel->mode) {
 415              		.loc 1 698 0
 416 0000 90F83C30 		ldrb	r3, [r0, #60]	@ zero_extendqisi2
 417 0004 03F00303 		and	r3, r3, #3
 418 0008 012B     		cmp	r3, #1
 419 000a 03D0     		beq	.L27
 420 000c 022B     		cmp	r3, #2
 421 000e 0CD0     		beq	.L28
 699:Drivers/lvgl/lvgl/src/extra/widgets/colorwheel/lv_colorwheel.c ****         default:
 700:Drivers/lvgl/lvgl/src/extra/widgets/colorwheel/lv_colorwheel.c ****         case LV_COLORWHEEL_MODE_HUE:
 701:Drivers/lvgl/lvgl/src/extra/widgets/colorwheel/lv_colorwheel.c ****             angle = colorwheel->hsv.h;
 422              		.loc 1 701 0
 423 0010 808C     		ldrh	r0, [r0, #36]
 424              	.LVL47:
 702:Drivers/lvgl/lvgl/src/extra/widgets/colorwheel/lv_colorwheel.c ****             break;
 425              		.loc 1 702 0
 426 0012 7047     		bx	lr
 427              	.LVL48:
 428              	.L27:
 703:Drivers/lvgl/lvgl/src/extra/widgets/colorwheel/lv_colorwheel.c ****         case LV_COLORWHEEL_MODE_SATURATION:
 704:Drivers/lvgl/lvgl/src/extra/widgets/colorwheel/lv_colorwheel.c ****             angle = (colorwheel->hsv.s * 360) / 100;
 429              		.loc 1 704 0
 430 0014 90F82630 		ldrb	r3, [r0, #38]	@ zero_extendqisi2
 431 0018 4FF4B470 		mov	r0, #360
 432              	.LVL49:
 433 001c 00FB03F0 		mul	r0, r0, r3
 434 0020 074B     		ldr	r3, .L30
 435 0022 83FB0030 		smull	r3, r0, r3, r0
 436 0026 4009     		lsrs	r0, r0, #5
 437              	.LVL50:
 705:Drivers/lvgl/lvgl/src/extra/widgets/colorwheel/lv_colorwheel.c ****             break;
 438              		.loc 1 705 0
 439 0028 7047     		bx	lr
 440              	.LVL51:
 441              	.L28:
 706:Drivers/lvgl/lvgl/src/extra/widgets/colorwheel/lv_colorwheel.c ****         case LV_COLORWHEEL_MODE_VALUE:
 707:Drivers/lvgl/lvgl/src/extra/widgets/colorwheel/lv_colorwheel.c ****             angle = (colorwheel->hsv.v * 360) / 100 ;
 442              		.loc 1 707 0
 443 002a 90F82730 		ldrb	r3, [r0, #39]	@ zero_extendqisi2
 444 002e 4FF4B470 		mov	r0, #360
 445              	.LVL52:
 446 0032 00FB03F0 		mul	r0, r0, r3
 447 0036 024B     		ldr	r3, .L30
 448 0038 83FB0030 		smull	r3, r0, r3, r0
 449 003c 4009     		lsrs	r0, r0, #5
 450              	.LVL53:
 708:Drivers/lvgl/lvgl/src/extra/widgets/colorwheel/lv_colorwheel.c ****             break;
 709:Drivers/lvgl/lvgl/src/extra/widgets/colorwheel/lv_colorwheel.c ****     }
ARM GAS  /tmp/ccbjN9K1.s 			page 32


 710:Drivers/lvgl/lvgl/src/extra/widgets/colorwheel/lv_colorwheel.c ****     return angle;
 711:Drivers/lvgl/lvgl/src/extra/widgets/colorwheel/lv_colorwheel.c **** }
 451              		.loc 1 711 0
 452 003e 7047     		bx	lr
 453              	.L31:
 454              		.align	2
 455              	.L30:
 456 0040 1F85EB51 		.word	1374389535
 457              		.cfi_endproc
 458              	.LFE222:
 460              		.section	.text.get_knob_area,"ax",%progbits
 461              		.align	1
 462              		.syntax unified
 463              		.thumb
 464              		.thumb_func
 465              		.fpu fpv5-d16
 467              	get_knob_area:
 468              	.LFB215:
 335:Drivers/lvgl/lvgl/src/extra/widgets/colorwheel/lv_colorwheel.c ****     lv_colorwheel_t * colorwheel = (lv_colorwheel_t *)obj;
 469              		.loc 1 335 0
 470              		.cfi_startproc
 471              		@ args = 0, pretend = 0, frame = 0
 472              		@ frame_needed = 0, uses_anonymous_args = 0
 473              	.LVL54:
 474 0000 2DE9F843 		push	{r3, r4, r5, r6, r7, r8, r9, lr}
 475              	.LCFI6:
 476              		.cfi_def_cfa_offset 32
 477              		.cfi_offset 3, -32
 478              		.cfi_offset 4, -28
 479              		.cfi_offset 5, -24
 480              		.cfi_offset 6, -20
 481              		.cfi_offset 7, -16
 482              		.cfi_offset 8, -12
 483              		.cfi_offset 9, -8
 484              		.cfi_offset 14, -4
 485 0004 0446     		mov	r4, r0
 486 0006 8846     		mov	r8, r1
 487              	.LVL55:
 488              	.LBB54:
 489              	.LBB55:
 490              		.file 3 "Drivers/lvgl/lvgl/src/extra/widgets/colorwheel/../../../../src/core/lv_obj_style_gen.h"
   1:Drivers/lvgl/lvgl/src/extra/widgets/colorwheel/../../../../src/core/lv_obj_style_gen.h **** static inline lv_coord_t lv_obj_get_style_width(const struct _lv_obj_t * obj, uint32_t part)
   2:Drivers/lvgl/lvgl/src/extra/widgets/colorwheel/../../../../src/core/lv_obj_style_gen.h **** {
   3:Drivers/lvgl/lvgl/src/extra/widgets/colorwheel/../../../../src/core/lv_obj_style_gen.h ****     lv_style_value_t v = lv_obj_get_style_prop(obj, part, LV_STYLE_WIDTH);
   4:Drivers/lvgl/lvgl/src/extra/widgets/colorwheel/../../../../src/core/lv_obj_style_gen.h ****     return (lv_coord_t)v.num;
   5:Drivers/lvgl/lvgl/src/extra/widgets/colorwheel/../../../../src/core/lv_obj_style_gen.h **** }
   6:Drivers/lvgl/lvgl/src/extra/widgets/colorwheel/../../../../src/core/lv_obj_style_gen.h **** 
   7:Drivers/lvgl/lvgl/src/extra/widgets/colorwheel/../../../../src/core/lv_obj_style_gen.h **** static inline lv_coord_t lv_obj_get_style_min_width(const struct _lv_obj_t * obj, uint32_t part)
   8:Drivers/lvgl/lvgl/src/extra/widgets/colorwheel/../../../../src/core/lv_obj_style_gen.h **** {
   9:Drivers/lvgl/lvgl/src/extra/widgets/colorwheel/../../../../src/core/lv_obj_style_gen.h ****     lv_style_value_t v = lv_obj_get_style_prop(obj, part, LV_STYLE_MIN_WIDTH);
  10:Drivers/lvgl/lvgl/src/extra/widgets/colorwheel/../../../../src/core/lv_obj_style_gen.h ****     return (lv_coord_t)v.num;
  11:Drivers/lvgl/lvgl/src/extra/widgets/colorwheel/../../../../src/core/lv_obj_style_gen.h **** }
  12:Drivers/lvgl/lvgl/src/extra/widgets/colorwheel/../../../../src/core/lv_obj_style_gen.h **** 
  13:Drivers/lvgl/lvgl/src/extra/widgets/colorwheel/../../../../src/core/lv_obj_style_gen.h **** static inline lv_coord_t lv_obj_get_style_max_width(const struct _lv_obj_t * obj, uint32_t part)
  14:Drivers/lvgl/lvgl/src/extra/widgets/colorwheel/../../../../src/core/lv_obj_style_gen.h **** {
  15:Drivers/lvgl/lvgl/src/extra/widgets/colorwheel/../../../../src/core/lv_obj_style_gen.h ****     lv_style_value_t v = lv_obj_get_style_prop(obj, part, LV_STYLE_MAX_WIDTH);
  16:Drivers/lvgl/lvgl/src/extra/widgets/colorwheel/../../../../src/core/lv_obj_style_gen.h ****     return (lv_coord_t)v.num;
ARM GAS  /tmp/ccbjN9K1.s 			page 33


  17:Drivers/lvgl/lvgl/src/extra/widgets/colorwheel/../../../../src/core/lv_obj_style_gen.h **** }
  18:Drivers/lvgl/lvgl/src/extra/widgets/colorwheel/../../../../src/core/lv_obj_style_gen.h **** 
  19:Drivers/lvgl/lvgl/src/extra/widgets/colorwheel/../../../../src/core/lv_obj_style_gen.h **** static inline lv_coord_t lv_obj_get_style_height(const struct _lv_obj_t * obj, uint32_t part)
  20:Drivers/lvgl/lvgl/src/extra/widgets/colorwheel/../../../../src/core/lv_obj_style_gen.h **** {
  21:Drivers/lvgl/lvgl/src/extra/widgets/colorwheel/../../../../src/core/lv_obj_style_gen.h ****     lv_style_value_t v = lv_obj_get_style_prop(obj, part, LV_STYLE_HEIGHT);
  22:Drivers/lvgl/lvgl/src/extra/widgets/colorwheel/../../../../src/core/lv_obj_style_gen.h ****     return (lv_coord_t)v.num;
  23:Drivers/lvgl/lvgl/src/extra/widgets/colorwheel/../../../../src/core/lv_obj_style_gen.h **** }
  24:Drivers/lvgl/lvgl/src/extra/widgets/colorwheel/../../../../src/core/lv_obj_style_gen.h **** 
  25:Drivers/lvgl/lvgl/src/extra/widgets/colorwheel/../../../../src/core/lv_obj_style_gen.h **** static inline lv_coord_t lv_obj_get_style_min_height(const struct _lv_obj_t * obj, uint32_t part)
  26:Drivers/lvgl/lvgl/src/extra/widgets/colorwheel/../../../../src/core/lv_obj_style_gen.h **** {
  27:Drivers/lvgl/lvgl/src/extra/widgets/colorwheel/../../../../src/core/lv_obj_style_gen.h ****     lv_style_value_t v = lv_obj_get_style_prop(obj, part, LV_STYLE_MIN_HEIGHT);
  28:Drivers/lvgl/lvgl/src/extra/widgets/colorwheel/../../../../src/core/lv_obj_style_gen.h ****     return (lv_coord_t)v.num;
  29:Drivers/lvgl/lvgl/src/extra/widgets/colorwheel/../../../../src/core/lv_obj_style_gen.h **** }
  30:Drivers/lvgl/lvgl/src/extra/widgets/colorwheel/../../../../src/core/lv_obj_style_gen.h **** 
  31:Drivers/lvgl/lvgl/src/extra/widgets/colorwheel/../../../../src/core/lv_obj_style_gen.h **** static inline lv_coord_t lv_obj_get_style_max_height(const struct _lv_obj_t * obj, uint32_t part)
  32:Drivers/lvgl/lvgl/src/extra/widgets/colorwheel/../../../../src/core/lv_obj_style_gen.h **** {
  33:Drivers/lvgl/lvgl/src/extra/widgets/colorwheel/../../../../src/core/lv_obj_style_gen.h ****     lv_style_value_t v = lv_obj_get_style_prop(obj, part, LV_STYLE_MAX_HEIGHT);
  34:Drivers/lvgl/lvgl/src/extra/widgets/colorwheel/../../../../src/core/lv_obj_style_gen.h ****     return (lv_coord_t)v.num;
  35:Drivers/lvgl/lvgl/src/extra/widgets/colorwheel/../../../../src/core/lv_obj_style_gen.h **** }
  36:Drivers/lvgl/lvgl/src/extra/widgets/colorwheel/../../../../src/core/lv_obj_style_gen.h **** 
  37:Drivers/lvgl/lvgl/src/extra/widgets/colorwheel/../../../../src/core/lv_obj_style_gen.h **** static inline lv_coord_t lv_obj_get_style_x(const struct _lv_obj_t * obj, uint32_t part)
  38:Drivers/lvgl/lvgl/src/extra/widgets/colorwheel/../../../../src/core/lv_obj_style_gen.h **** {
  39:Drivers/lvgl/lvgl/src/extra/widgets/colorwheel/../../../../src/core/lv_obj_style_gen.h ****     lv_style_value_t v = lv_obj_get_style_prop(obj, part, LV_STYLE_X);
  40:Drivers/lvgl/lvgl/src/extra/widgets/colorwheel/../../../../src/core/lv_obj_style_gen.h ****     return (lv_coord_t)v.num;
  41:Drivers/lvgl/lvgl/src/extra/widgets/colorwheel/../../../../src/core/lv_obj_style_gen.h **** }
  42:Drivers/lvgl/lvgl/src/extra/widgets/colorwheel/../../../../src/core/lv_obj_style_gen.h **** 
  43:Drivers/lvgl/lvgl/src/extra/widgets/colorwheel/../../../../src/core/lv_obj_style_gen.h **** static inline lv_coord_t lv_obj_get_style_y(const struct _lv_obj_t * obj, uint32_t part)
  44:Drivers/lvgl/lvgl/src/extra/widgets/colorwheel/../../../../src/core/lv_obj_style_gen.h **** {
  45:Drivers/lvgl/lvgl/src/extra/widgets/colorwheel/../../../../src/core/lv_obj_style_gen.h ****     lv_style_value_t v = lv_obj_get_style_prop(obj, part, LV_STYLE_Y);
  46:Drivers/lvgl/lvgl/src/extra/widgets/colorwheel/../../../../src/core/lv_obj_style_gen.h ****     return (lv_coord_t)v.num;
  47:Drivers/lvgl/lvgl/src/extra/widgets/colorwheel/../../../../src/core/lv_obj_style_gen.h **** }
  48:Drivers/lvgl/lvgl/src/extra/widgets/colorwheel/../../../../src/core/lv_obj_style_gen.h **** 
  49:Drivers/lvgl/lvgl/src/extra/widgets/colorwheel/../../../../src/core/lv_obj_style_gen.h **** static inline lv_align_t lv_obj_get_style_align(const struct _lv_obj_t * obj, uint32_t part)
  50:Drivers/lvgl/lvgl/src/extra/widgets/colorwheel/../../../../src/core/lv_obj_style_gen.h **** {
  51:Drivers/lvgl/lvgl/src/extra/widgets/colorwheel/../../../../src/core/lv_obj_style_gen.h ****     lv_style_value_t v = lv_obj_get_style_prop(obj, part, LV_STYLE_ALIGN);
  52:Drivers/lvgl/lvgl/src/extra/widgets/colorwheel/../../../../src/core/lv_obj_style_gen.h ****     return (lv_align_t)v.num;
  53:Drivers/lvgl/lvgl/src/extra/widgets/colorwheel/../../../../src/core/lv_obj_style_gen.h **** }
  54:Drivers/lvgl/lvgl/src/extra/widgets/colorwheel/../../../../src/core/lv_obj_style_gen.h **** 
  55:Drivers/lvgl/lvgl/src/extra/widgets/colorwheel/../../../../src/core/lv_obj_style_gen.h **** static inline lv_coord_t lv_obj_get_style_transform_width(const struct _lv_obj_t * obj, uint32_t pa
  56:Drivers/lvgl/lvgl/src/extra/widgets/colorwheel/../../../../src/core/lv_obj_style_gen.h **** {
  57:Drivers/lvgl/lvgl/src/extra/widgets/colorwheel/../../../../src/core/lv_obj_style_gen.h ****     lv_style_value_t v = lv_obj_get_style_prop(obj, part, LV_STYLE_TRANSFORM_WIDTH);
  58:Drivers/lvgl/lvgl/src/extra/widgets/colorwheel/../../../../src/core/lv_obj_style_gen.h ****     return (lv_coord_t)v.num;
  59:Drivers/lvgl/lvgl/src/extra/widgets/colorwheel/../../../../src/core/lv_obj_style_gen.h **** }
  60:Drivers/lvgl/lvgl/src/extra/widgets/colorwheel/../../../../src/core/lv_obj_style_gen.h **** 
  61:Drivers/lvgl/lvgl/src/extra/widgets/colorwheel/../../../../src/core/lv_obj_style_gen.h **** static inline lv_coord_t lv_obj_get_style_transform_height(const struct _lv_obj_t * obj, uint32_t p
  62:Drivers/lvgl/lvgl/src/extra/widgets/colorwheel/../../../../src/core/lv_obj_style_gen.h **** {
  63:Drivers/lvgl/lvgl/src/extra/widgets/colorwheel/../../../../src/core/lv_obj_style_gen.h ****     lv_style_value_t v = lv_obj_get_style_prop(obj, part, LV_STYLE_TRANSFORM_HEIGHT);
  64:Drivers/lvgl/lvgl/src/extra/widgets/colorwheel/../../../../src/core/lv_obj_style_gen.h ****     return (lv_coord_t)v.num;
  65:Drivers/lvgl/lvgl/src/extra/widgets/colorwheel/../../../../src/core/lv_obj_style_gen.h **** }
  66:Drivers/lvgl/lvgl/src/extra/widgets/colorwheel/../../../../src/core/lv_obj_style_gen.h **** 
  67:Drivers/lvgl/lvgl/src/extra/widgets/colorwheel/../../../../src/core/lv_obj_style_gen.h **** static inline lv_coord_t lv_obj_get_style_translate_x(const struct _lv_obj_t * obj, uint32_t part)
  68:Drivers/lvgl/lvgl/src/extra/widgets/colorwheel/../../../../src/core/lv_obj_style_gen.h **** {
  69:Drivers/lvgl/lvgl/src/extra/widgets/colorwheel/../../../../src/core/lv_obj_style_gen.h ****     lv_style_value_t v = lv_obj_get_style_prop(obj, part, LV_STYLE_TRANSLATE_X);
  70:Drivers/lvgl/lvgl/src/extra/widgets/colorwheel/../../../../src/core/lv_obj_style_gen.h ****     return (lv_coord_t)v.num;
  71:Drivers/lvgl/lvgl/src/extra/widgets/colorwheel/../../../../src/core/lv_obj_style_gen.h **** }
  72:Drivers/lvgl/lvgl/src/extra/widgets/colorwheel/../../../../src/core/lv_obj_style_gen.h **** 
  73:Drivers/lvgl/lvgl/src/extra/widgets/colorwheel/../../../../src/core/lv_obj_style_gen.h **** static inline lv_coord_t lv_obj_get_style_translate_y(const struct _lv_obj_t * obj, uint32_t part)
ARM GAS  /tmp/ccbjN9K1.s 			page 34


  74:Drivers/lvgl/lvgl/src/extra/widgets/colorwheel/../../../../src/core/lv_obj_style_gen.h **** {
  75:Drivers/lvgl/lvgl/src/extra/widgets/colorwheel/../../../../src/core/lv_obj_style_gen.h ****     lv_style_value_t v = lv_obj_get_style_prop(obj, part, LV_STYLE_TRANSLATE_Y);
  76:Drivers/lvgl/lvgl/src/extra/widgets/colorwheel/../../../../src/core/lv_obj_style_gen.h ****     return (lv_coord_t)v.num;
  77:Drivers/lvgl/lvgl/src/extra/widgets/colorwheel/../../../../src/core/lv_obj_style_gen.h **** }
  78:Drivers/lvgl/lvgl/src/extra/widgets/colorwheel/../../../../src/core/lv_obj_style_gen.h **** 
  79:Drivers/lvgl/lvgl/src/extra/widgets/colorwheel/../../../../src/core/lv_obj_style_gen.h **** static inline lv_coord_t lv_obj_get_style_transform_zoom(const struct _lv_obj_t * obj, uint32_t par
  80:Drivers/lvgl/lvgl/src/extra/widgets/colorwheel/../../../../src/core/lv_obj_style_gen.h **** {
  81:Drivers/lvgl/lvgl/src/extra/widgets/colorwheel/../../../../src/core/lv_obj_style_gen.h ****     lv_style_value_t v = lv_obj_get_style_prop(obj, part, LV_STYLE_TRANSFORM_ZOOM);
  82:Drivers/lvgl/lvgl/src/extra/widgets/colorwheel/../../../../src/core/lv_obj_style_gen.h ****     return (lv_coord_t)v.num;
  83:Drivers/lvgl/lvgl/src/extra/widgets/colorwheel/../../../../src/core/lv_obj_style_gen.h **** }
  84:Drivers/lvgl/lvgl/src/extra/widgets/colorwheel/../../../../src/core/lv_obj_style_gen.h **** 
  85:Drivers/lvgl/lvgl/src/extra/widgets/colorwheel/../../../../src/core/lv_obj_style_gen.h **** static inline lv_coord_t lv_obj_get_style_transform_angle(const struct _lv_obj_t * obj, uint32_t pa
  86:Drivers/lvgl/lvgl/src/extra/widgets/colorwheel/../../../../src/core/lv_obj_style_gen.h **** {
  87:Drivers/lvgl/lvgl/src/extra/widgets/colorwheel/../../../../src/core/lv_obj_style_gen.h ****     lv_style_value_t v = lv_obj_get_style_prop(obj, part, LV_STYLE_TRANSFORM_ANGLE);
  88:Drivers/lvgl/lvgl/src/extra/widgets/colorwheel/../../../../src/core/lv_obj_style_gen.h ****     return (lv_coord_t)v.num;
  89:Drivers/lvgl/lvgl/src/extra/widgets/colorwheel/../../../../src/core/lv_obj_style_gen.h **** }
  90:Drivers/lvgl/lvgl/src/extra/widgets/colorwheel/../../../../src/core/lv_obj_style_gen.h **** 
  91:Drivers/lvgl/lvgl/src/extra/widgets/colorwheel/../../../../src/core/lv_obj_style_gen.h **** static inline lv_coord_t lv_obj_get_style_transform_pivot_x(const struct _lv_obj_t * obj, uint32_t 
  92:Drivers/lvgl/lvgl/src/extra/widgets/colorwheel/../../../../src/core/lv_obj_style_gen.h **** {
  93:Drivers/lvgl/lvgl/src/extra/widgets/colorwheel/../../../../src/core/lv_obj_style_gen.h ****     lv_style_value_t v = lv_obj_get_style_prop(obj, part, LV_STYLE_TRANSFORM_PIVOT_X);
  94:Drivers/lvgl/lvgl/src/extra/widgets/colorwheel/../../../../src/core/lv_obj_style_gen.h ****     return (lv_coord_t)v.num;
  95:Drivers/lvgl/lvgl/src/extra/widgets/colorwheel/../../../../src/core/lv_obj_style_gen.h **** }
  96:Drivers/lvgl/lvgl/src/extra/widgets/colorwheel/../../../../src/core/lv_obj_style_gen.h **** 
  97:Drivers/lvgl/lvgl/src/extra/widgets/colorwheel/../../../../src/core/lv_obj_style_gen.h **** static inline lv_coord_t lv_obj_get_style_transform_pivot_y(const struct _lv_obj_t * obj, uint32_t 
  98:Drivers/lvgl/lvgl/src/extra/widgets/colorwheel/../../../../src/core/lv_obj_style_gen.h **** {
  99:Drivers/lvgl/lvgl/src/extra/widgets/colorwheel/../../../../src/core/lv_obj_style_gen.h ****     lv_style_value_t v = lv_obj_get_style_prop(obj, part, LV_STYLE_TRANSFORM_PIVOT_Y);
 100:Drivers/lvgl/lvgl/src/extra/widgets/colorwheel/../../../../src/core/lv_obj_style_gen.h ****     return (lv_coord_t)v.num;
 101:Drivers/lvgl/lvgl/src/extra/widgets/colorwheel/../../../../src/core/lv_obj_style_gen.h **** }
 102:Drivers/lvgl/lvgl/src/extra/widgets/colorwheel/../../../../src/core/lv_obj_style_gen.h **** 
 103:Drivers/lvgl/lvgl/src/extra/widgets/colorwheel/../../../../src/core/lv_obj_style_gen.h **** static inline lv_coord_t lv_obj_get_style_pad_top(const struct _lv_obj_t * obj, uint32_t part)
 104:Drivers/lvgl/lvgl/src/extra/widgets/colorwheel/../../../../src/core/lv_obj_style_gen.h **** {
 105:Drivers/lvgl/lvgl/src/extra/widgets/colorwheel/../../../../src/core/lv_obj_style_gen.h ****     lv_style_value_t v = lv_obj_get_style_prop(obj, part, LV_STYLE_PAD_TOP);
 106:Drivers/lvgl/lvgl/src/extra/widgets/colorwheel/../../../../src/core/lv_obj_style_gen.h ****     return (lv_coord_t)v.num;
 107:Drivers/lvgl/lvgl/src/extra/widgets/colorwheel/../../../../src/core/lv_obj_style_gen.h **** }
 108:Drivers/lvgl/lvgl/src/extra/widgets/colorwheel/../../../../src/core/lv_obj_style_gen.h **** 
 109:Drivers/lvgl/lvgl/src/extra/widgets/colorwheel/../../../../src/core/lv_obj_style_gen.h **** static inline lv_coord_t lv_obj_get_style_pad_bottom(const struct _lv_obj_t * obj, uint32_t part)
 110:Drivers/lvgl/lvgl/src/extra/widgets/colorwheel/../../../../src/core/lv_obj_style_gen.h **** {
 111:Drivers/lvgl/lvgl/src/extra/widgets/colorwheel/../../../../src/core/lv_obj_style_gen.h ****     lv_style_value_t v = lv_obj_get_style_prop(obj, part, LV_STYLE_PAD_BOTTOM);
 112:Drivers/lvgl/lvgl/src/extra/widgets/colorwheel/../../../../src/core/lv_obj_style_gen.h ****     return (lv_coord_t)v.num;
 113:Drivers/lvgl/lvgl/src/extra/widgets/colorwheel/../../../../src/core/lv_obj_style_gen.h **** }
 114:Drivers/lvgl/lvgl/src/extra/widgets/colorwheel/../../../../src/core/lv_obj_style_gen.h **** 
 115:Drivers/lvgl/lvgl/src/extra/widgets/colorwheel/../../../../src/core/lv_obj_style_gen.h **** static inline lv_coord_t lv_obj_get_style_pad_left(const struct _lv_obj_t * obj, uint32_t part)
 116:Drivers/lvgl/lvgl/src/extra/widgets/colorwheel/../../../../src/core/lv_obj_style_gen.h **** {
 117:Drivers/lvgl/lvgl/src/extra/widgets/colorwheel/../../../../src/core/lv_obj_style_gen.h ****     lv_style_value_t v = lv_obj_get_style_prop(obj, part, LV_STYLE_PAD_LEFT);
 118:Drivers/lvgl/lvgl/src/extra/widgets/colorwheel/../../../../src/core/lv_obj_style_gen.h ****     return (lv_coord_t)v.num;
 119:Drivers/lvgl/lvgl/src/extra/widgets/colorwheel/../../../../src/core/lv_obj_style_gen.h **** }
 120:Drivers/lvgl/lvgl/src/extra/widgets/colorwheel/../../../../src/core/lv_obj_style_gen.h **** 
 121:Drivers/lvgl/lvgl/src/extra/widgets/colorwheel/../../../../src/core/lv_obj_style_gen.h **** static inline lv_coord_t lv_obj_get_style_pad_right(const struct _lv_obj_t * obj, uint32_t part)
 122:Drivers/lvgl/lvgl/src/extra/widgets/colorwheel/../../../../src/core/lv_obj_style_gen.h **** {
 123:Drivers/lvgl/lvgl/src/extra/widgets/colorwheel/../../../../src/core/lv_obj_style_gen.h ****     lv_style_value_t v = lv_obj_get_style_prop(obj, part, LV_STYLE_PAD_RIGHT);
 124:Drivers/lvgl/lvgl/src/extra/widgets/colorwheel/../../../../src/core/lv_obj_style_gen.h ****     return (lv_coord_t)v.num;
 125:Drivers/lvgl/lvgl/src/extra/widgets/colorwheel/../../../../src/core/lv_obj_style_gen.h **** }
 126:Drivers/lvgl/lvgl/src/extra/widgets/colorwheel/../../../../src/core/lv_obj_style_gen.h **** 
 127:Drivers/lvgl/lvgl/src/extra/widgets/colorwheel/../../../../src/core/lv_obj_style_gen.h **** static inline lv_coord_t lv_obj_get_style_pad_row(const struct _lv_obj_t * obj, uint32_t part)
 128:Drivers/lvgl/lvgl/src/extra/widgets/colorwheel/../../../../src/core/lv_obj_style_gen.h **** {
 129:Drivers/lvgl/lvgl/src/extra/widgets/colorwheel/../../../../src/core/lv_obj_style_gen.h ****     lv_style_value_t v = lv_obj_get_style_prop(obj, part, LV_STYLE_PAD_ROW);
 130:Drivers/lvgl/lvgl/src/extra/widgets/colorwheel/../../../../src/core/lv_obj_style_gen.h ****     return (lv_coord_t)v.num;
ARM GAS  /tmp/ccbjN9K1.s 			page 35


 131:Drivers/lvgl/lvgl/src/extra/widgets/colorwheel/../../../../src/core/lv_obj_style_gen.h **** }
 132:Drivers/lvgl/lvgl/src/extra/widgets/colorwheel/../../../../src/core/lv_obj_style_gen.h **** 
 133:Drivers/lvgl/lvgl/src/extra/widgets/colorwheel/../../../../src/core/lv_obj_style_gen.h **** static inline lv_coord_t lv_obj_get_style_pad_column(const struct _lv_obj_t * obj, uint32_t part)
 134:Drivers/lvgl/lvgl/src/extra/widgets/colorwheel/../../../../src/core/lv_obj_style_gen.h **** {
 135:Drivers/lvgl/lvgl/src/extra/widgets/colorwheel/../../../../src/core/lv_obj_style_gen.h ****     lv_style_value_t v = lv_obj_get_style_prop(obj, part, LV_STYLE_PAD_COLUMN);
 136:Drivers/lvgl/lvgl/src/extra/widgets/colorwheel/../../../../src/core/lv_obj_style_gen.h ****     return (lv_coord_t)v.num;
 137:Drivers/lvgl/lvgl/src/extra/widgets/colorwheel/../../../../src/core/lv_obj_style_gen.h **** }
 138:Drivers/lvgl/lvgl/src/extra/widgets/colorwheel/../../../../src/core/lv_obj_style_gen.h **** 
 139:Drivers/lvgl/lvgl/src/extra/widgets/colorwheel/../../../../src/core/lv_obj_style_gen.h **** static inline lv_color_t lv_obj_get_style_bg_color(const struct _lv_obj_t * obj, uint32_t part)
 140:Drivers/lvgl/lvgl/src/extra/widgets/colorwheel/../../../../src/core/lv_obj_style_gen.h **** {
 141:Drivers/lvgl/lvgl/src/extra/widgets/colorwheel/../../../../src/core/lv_obj_style_gen.h ****     lv_style_value_t v = lv_obj_get_style_prop(obj, part, LV_STYLE_BG_COLOR);
 142:Drivers/lvgl/lvgl/src/extra/widgets/colorwheel/../../../../src/core/lv_obj_style_gen.h ****     return v.color;
 143:Drivers/lvgl/lvgl/src/extra/widgets/colorwheel/../../../../src/core/lv_obj_style_gen.h **** }
 144:Drivers/lvgl/lvgl/src/extra/widgets/colorwheel/../../../../src/core/lv_obj_style_gen.h **** 
 145:Drivers/lvgl/lvgl/src/extra/widgets/colorwheel/../../../../src/core/lv_obj_style_gen.h **** static inline lv_color_t lv_obj_get_style_bg_color_filtered(const struct _lv_obj_t * obj, uint32_t 
 146:Drivers/lvgl/lvgl/src/extra/widgets/colorwheel/../../../../src/core/lv_obj_style_gen.h **** {
 147:Drivers/lvgl/lvgl/src/extra/widgets/colorwheel/../../../../src/core/lv_obj_style_gen.h ****     lv_style_value_t v = _lv_obj_style_apply_color_filter(obj, part, lv_obj_get_style_prop(obj, par
 148:Drivers/lvgl/lvgl/src/extra/widgets/colorwheel/../../../../src/core/lv_obj_style_gen.h ****     return v.color;
 149:Drivers/lvgl/lvgl/src/extra/widgets/colorwheel/../../../../src/core/lv_obj_style_gen.h **** }
 150:Drivers/lvgl/lvgl/src/extra/widgets/colorwheel/../../../../src/core/lv_obj_style_gen.h **** 
 151:Drivers/lvgl/lvgl/src/extra/widgets/colorwheel/../../../../src/core/lv_obj_style_gen.h **** static inline lv_opa_t lv_obj_get_style_bg_opa(const struct _lv_obj_t * obj, uint32_t part)
 152:Drivers/lvgl/lvgl/src/extra/widgets/colorwheel/../../../../src/core/lv_obj_style_gen.h **** {
 153:Drivers/lvgl/lvgl/src/extra/widgets/colorwheel/../../../../src/core/lv_obj_style_gen.h ****     lv_style_value_t v = lv_obj_get_style_prop(obj, part, LV_STYLE_BG_OPA);
 154:Drivers/lvgl/lvgl/src/extra/widgets/colorwheel/../../../../src/core/lv_obj_style_gen.h ****     return (lv_opa_t)v.num;
 155:Drivers/lvgl/lvgl/src/extra/widgets/colorwheel/../../../../src/core/lv_obj_style_gen.h **** }
 156:Drivers/lvgl/lvgl/src/extra/widgets/colorwheel/../../../../src/core/lv_obj_style_gen.h **** 
 157:Drivers/lvgl/lvgl/src/extra/widgets/colorwheel/../../../../src/core/lv_obj_style_gen.h **** static inline lv_color_t lv_obj_get_style_bg_grad_color(const struct _lv_obj_t * obj, uint32_t part
 158:Drivers/lvgl/lvgl/src/extra/widgets/colorwheel/../../../../src/core/lv_obj_style_gen.h **** {
 159:Drivers/lvgl/lvgl/src/extra/widgets/colorwheel/../../../../src/core/lv_obj_style_gen.h ****     lv_style_value_t v = lv_obj_get_style_prop(obj, part, LV_STYLE_BG_GRAD_COLOR);
 160:Drivers/lvgl/lvgl/src/extra/widgets/colorwheel/../../../../src/core/lv_obj_style_gen.h ****     return v.color;
 161:Drivers/lvgl/lvgl/src/extra/widgets/colorwheel/../../../../src/core/lv_obj_style_gen.h **** }
 162:Drivers/lvgl/lvgl/src/extra/widgets/colorwheel/../../../../src/core/lv_obj_style_gen.h **** 
 163:Drivers/lvgl/lvgl/src/extra/widgets/colorwheel/../../../../src/core/lv_obj_style_gen.h **** static inline lv_color_t lv_obj_get_style_bg_grad_color_filtered(const struct _lv_obj_t * obj, uint
 164:Drivers/lvgl/lvgl/src/extra/widgets/colorwheel/../../../../src/core/lv_obj_style_gen.h **** {
 165:Drivers/lvgl/lvgl/src/extra/widgets/colorwheel/../../../../src/core/lv_obj_style_gen.h ****     lv_style_value_t v = _lv_obj_style_apply_color_filter(obj, part, lv_obj_get_style_prop(obj, par
 166:Drivers/lvgl/lvgl/src/extra/widgets/colorwheel/../../../../src/core/lv_obj_style_gen.h ****     return v.color;
 167:Drivers/lvgl/lvgl/src/extra/widgets/colorwheel/../../../../src/core/lv_obj_style_gen.h **** }
 168:Drivers/lvgl/lvgl/src/extra/widgets/colorwheel/../../../../src/core/lv_obj_style_gen.h **** 
 169:Drivers/lvgl/lvgl/src/extra/widgets/colorwheel/../../../../src/core/lv_obj_style_gen.h **** static inline lv_grad_dir_t lv_obj_get_style_bg_grad_dir(const struct _lv_obj_t * obj, uint32_t par
 170:Drivers/lvgl/lvgl/src/extra/widgets/colorwheel/../../../../src/core/lv_obj_style_gen.h **** {
 171:Drivers/lvgl/lvgl/src/extra/widgets/colorwheel/../../../../src/core/lv_obj_style_gen.h ****     lv_style_value_t v = lv_obj_get_style_prop(obj, part, LV_STYLE_BG_GRAD_DIR);
 172:Drivers/lvgl/lvgl/src/extra/widgets/colorwheel/../../../../src/core/lv_obj_style_gen.h ****     return (lv_grad_dir_t)v.num;
 173:Drivers/lvgl/lvgl/src/extra/widgets/colorwheel/../../../../src/core/lv_obj_style_gen.h **** }
 174:Drivers/lvgl/lvgl/src/extra/widgets/colorwheel/../../../../src/core/lv_obj_style_gen.h **** 
 175:Drivers/lvgl/lvgl/src/extra/widgets/colorwheel/../../../../src/core/lv_obj_style_gen.h **** static inline lv_coord_t lv_obj_get_style_bg_main_stop(const struct _lv_obj_t * obj, uint32_t part)
 176:Drivers/lvgl/lvgl/src/extra/widgets/colorwheel/../../../../src/core/lv_obj_style_gen.h **** {
 177:Drivers/lvgl/lvgl/src/extra/widgets/colorwheel/../../../../src/core/lv_obj_style_gen.h ****     lv_style_value_t v = lv_obj_get_style_prop(obj, part, LV_STYLE_BG_MAIN_STOP);
 178:Drivers/lvgl/lvgl/src/extra/widgets/colorwheel/../../../../src/core/lv_obj_style_gen.h ****     return (lv_coord_t)v.num;
 179:Drivers/lvgl/lvgl/src/extra/widgets/colorwheel/../../../../src/core/lv_obj_style_gen.h **** }
 180:Drivers/lvgl/lvgl/src/extra/widgets/colorwheel/../../../../src/core/lv_obj_style_gen.h **** 
 181:Drivers/lvgl/lvgl/src/extra/widgets/colorwheel/../../../../src/core/lv_obj_style_gen.h **** static inline lv_coord_t lv_obj_get_style_bg_grad_stop(const struct _lv_obj_t * obj, uint32_t part)
 182:Drivers/lvgl/lvgl/src/extra/widgets/colorwheel/../../../../src/core/lv_obj_style_gen.h **** {
 183:Drivers/lvgl/lvgl/src/extra/widgets/colorwheel/../../../../src/core/lv_obj_style_gen.h ****     lv_style_value_t v = lv_obj_get_style_prop(obj, part, LV_STYLE_BG_GRAD_STOP);
 184:Drivers/lvgl/lvgl/src/extra/widgets/colorwheel/../../../../src/core/lv_obj_style_gen.h ****     return (lv_coord_t)v.num;
 185:Drivers/lvgl/lvgl/src/extra/widgets/colorwheel/../../../../src/core/lv_obj_style_gen.h **** }
 186:Drivers/lvgl/lvgl/src/extra/widgets/colorwheel/../../../../src/core/lv_obj_style_gen.h **** 
 187:Drivers/lvgl/lvgl/src/extra/widgets/colorwheel/../../../../src/core/lv_obj_style_gen.h **** static inline const lv_grad_dsc_t * lv_obj_get_style_bg_grad(const struct _lv_obj_t * obj, uint32_t
ARM GAS  /tmp/ccbjN9K1.s 			page 36


 188:Drivers/lvgl/lvgl/src/extra/widgets/colorwheel/../../../../src/core/lv_obj_style_gen.h **** {
 189:Drivers/lvgl/lvgl/src/extra/widgets/colorwheel/../../../../src/core/lv_obj_style_gen.h ****     lv_style_value_t v = lv_obj_get_style_prop(obj, part, LV_STYLE_BG_GRAD);
 190:Drivers/lvgl/lvgl/src/extra/widgets/colorwheel/../../../../src/core/lv_obj_style_gen.h ****     return (const lv_grad_dsc_t *)v.ptr;
 191:Drivers/lvgl/lvgl/src/extra/widgets/colorwheel/../../../../src/core/lv_obj_style_gen.h **** }
 192:Drivers/lvgl/lvgl/src/extra/widgets/colorwheel/../../../../src/core/lv_obj_style_gen.h **** 
 193:Drivers/lvgl/lvgl/src/extra/widgets/colorwheel/../../../../src/core/lv_obj_style_gen.h **** static inline lv_dither_mode_t lv_obj_get_style_bg_dither_mode(const struct _lv_obj_t * obj, uint32
 194:Drivers/lvgl/lvgl/src/extra/widgets/colorwheel/../../../../src/core/lv_obj_style_gen.h **** {
 195:Drivers/lvgl/lvgl/src/extra/widgets/colorwheel/../../../../src/core/lv_obj_style_gen.h ****     lv_style_value_t v = lv_obj_get_style_prop(obj, part, LV_STYLE_BG_DITHER_MODE);
 196:Drivers/lvgl/lvgl/src/extra/widgets/colorwheel/../../../../src/core/lv_obj_style_gen.h ****     return (lv_dither_mode_t)v.num;
 197:Drivers/lvgl/lvgl/src/extra/widgets/colorwheel/../../../../src/core/lv_obj_style_gen.h **** }
 198:Drivers/lvgl/lvgl/src/extra/widgets/colorwheel/../../../../src/core/lv_obj_style_gen.h **** 
 199:Drivers/lvgl/lvgl/src/extra/widgets/colorwheel/../../../../src/core/lv_obj_style_gen.h **** static inline const void * lv_obj_get_style_bg_img_src(const struct _lv_obj_t * obj, uint32_t part)
 200:Drivers/lvgl/lvgl/src/extra/widgets/colorwheel/../../../../src/core/lv_obj_style_gen.h **** {
 201:Drivers/lvgl/lvgl/src/extra/widgets/colorwheel/../../../../src/core/lv_obj_style_gen.h ****     lv_style_value_t v = lv_obj_get_style_prop(obj, part, LV_STYLE_BG_IMG_SRC);
 202:Drivers/lvgl/lvgl/src/extra/widgets/colorwheel/../../../../src/core/lv_obj_style_gen.h ****     return (const void *)v.ptr;
 203:Drivers/lvgl/lvgl/src/extra/widgets/colorwheel/../../../../src/core/lv_obj_style_gen.h **** }
 204:Drivers/lvgl/lvgl/src/extra/widgets/colorwheel/../../../../src/core/lv_obj_style_gen.h **** 
 205:Drivers/lvgl/lvgl/src/extra/widgets/colorwheel/../../../../src/core/lv_obj_style_gen.h **** static inline lv_opa_t lv_obj_get_style_bg_img_opa(const struct _lv_obj_t * obj, uint32_t part)
 206:Drivers/lvgl/lvgl/src/extra/widgets/colorwheel/../../../../src/core/lv_obj_style_gen.h **** {
 207:Drivers/lvgl/lvgl/src/extra/widgets/colorwheel/../../../../src/core/lv_obj_style_gen.h ****     lv_style_value_t v = lv_obj_get_style_prop(obj, part, LV_STYLE_BG_IMG_OPA);
 208:Drivers/lvgl/lvgl/src/extra/widgets/colorwheel/../../../../src/core/lv_obj_style_gen.h ****     return (lv_opa_t)v.num;
 209:Drivers/lvgl/lvgl/src/extra/widgets/colorwheel/../../../../src/core/lv_obj_style_gen.h **** }
 210:Drivers/lvgl/lvgl/src/extra/widgets/colorwheel/../../../../src/core/lv_obj_style_gen.h **** 
 211:Drivers/lvgl/lvgl/src/extra/widgets/colorwheel/../../../../src/core/lv_obj_style_gen.h **** static inline lv_color_t lv_obj_get_style_bg_img_recolor(const struct _lv_obj_t * obj, uint32_t par
 212:Drivers/lvgl/lvgl/src/extra/widgets/colorwheel/../../../../src/core/lv_obj_style_gen.h **** {
 213:Drivers/lvgl/lvgl/src/extra/widgets/colorwheel/../../../../src/core/lv_obj_style_gen.h ****     lv_style_value_t v = lv_obj_get_style_prop(obj, part, LV_STYLE_BG_IMG_RECOLOR);
 214:Drivers/lvgl/lvgl/src/extra/widgets/colorwheel/../../../../src/core/lv_obj_style_gen.h ****     return v.color;
 215:Drivers/lvgl/lvgl/src/extra/widgets/colorwheel/../../../../src/core/lv_obj_style_gen.h **** }
 216:Drivers/lvgl/lvgl/src/extra/widgets/colorwheel/../../../../src/core/lv_obj_style_gen.h **** 
 217:Drivers/lvgl/lvgl/src/extra/widgets/colorwheel/../../../../src/core/lv_obj_style_gen.h **** static inline lv_color_t lv_obj_get_style_bg_img_recolor_filtered(const struct _lv_obj_t * obj, uin
 218:Drivers/lvgl/lvgl/src/extra/widgets/colorwheel/../../../../src/core/lv_obj_style_gen.h **** {
 219:Drivers/lvgl/lvgl/src/extra/widgets/colorwheel/../../../../src/core/lv_obj_style_gen.h ****     lv_style_value_t v = _lv_obj_style_apply_color_filter(obj, part, lv_obj_get_style_prop(obj, par
 220:Drivers/lvgl/lvgl/src/extra/widgets/colorwheel/../../../../src/core/lv_obj_style_gen.h ****     return v.color;
 221:Drivers/lvgl/lvgl/src/extra/widgets/colorwheel/../../../../src/core/lv_obj_style_gen.h **** }
 222:Drivers/lvgl/lvgl/src/extra/widgets/colorwheel/../../../../src/core/lv_obj_style_gen.h **** 
 223:Drivers/lvgl/lvgl/src/extra/widgets/colorwheel/../../../../src/core/lv_obj_style_gen.h **** static inline lv_opa_t lv_obj_get_style_bg_img_recolor_opa(const struct _lv_obj_t * obj, uint32_t p
 224:Drivers/lvgl/lvgl/src/extra/widgets/colorwheel/../../../../src/core/lv_obj_style_gen.h **** {
 225:Drivers/lvgl/lvgl/src/extra/widgets/colorwheel/../../../../src/core/lv_obj_style_gen.h ****     lv_style_value_t v = lv_obj_get_style_prop(obj, part, LV_STYLE_BG_IMG_RECOLOR_OPA);
 226:Drivers/lvgl/lvgl/src/extra/widgets/colorwheel/../../../../src/core/lv_obj_style_gen.h ****     return (lv_opa_t)v.num;
 227:Drivers/lvgl/lvgl/src/extra/widgets/colorwheel/../../../../src/core/lv_obj_style_gen.h **** }
 228:Drivers/lvgl/lvgl/src/extra/widgets/colorwheel/../../../../src/core/lv_obj_style_gen.h **** 
 229:Drivers/lvgl/lvgl/src/extra/widgets/colorwheel/../../../../src/core/lv_obj_style_gen.h **** static inline bool lv_obj_get_style_bg_img_tiled(const struct _lv_obj_t * obj, uint32_t part)
 230:Drivers/lvgl/lvgl/src/extra/widgets/colorwheel/../../../../src/core/lv_obj_style_gen.h **** {
 231:Drivers/lvgl/lvgl/src/extra/widgets/colorwheel/../../../../src/core/lv_obj_style_gen.h ****     lv_style_value_t v = lv_obj_get_style_prop(obj, part, LV_STYLE_BG_IMG_TILED);
 232:Drivers/lvgl/lvgl/src/extra/widgets/colorwheel/../../../../src/core/lv_obj_style_gen.h ****     return (bool)v.num;
 233:Drivers/lvgl/lvgl/src/extra/widgets/colorwheel/../../../../src/core/lv_obj_style_gen.h **** }
 234:Drivers/lvgl/lvgl/src/extra/widgets/colorwheel/../../../../src/core/lv_obj_style_gen.h **** 
 235:Drivers/lvgl/lvgl/src/extra/widgets/colorwheel/../../../../src/core/lv_obj_style_gen.h **** static inline lv_color_t lv_obj_get_style_border_color(const struct _lv_obj_t * obj, uint32_t part)
 236:Drivers/lvgl/lvgl/src/extra/widgets/colorwheel/../../../../src/core/lv_obj_style_gen.h **** {
 237:Drivers/lvgl/lvgl/src/extra/widgets/colorwheel/../../../../src/core/lv_obj_style_gen.h ****     lv_style_value_t v = lv_obj_get_style_prop(obj, part, LV_STYLE_BORDER_COLOR);
 238:Drivers/lvgl/lvgl/src/extra/widgets/colorwheel/../../../../src/core/lv_obj_style_gen.h ****     return v.color;
 239:Drivers/lvgl/lvgl/src/extra/widgets/colorwheel/../../../../src/core/lv_obj_style_gen.h **** }
 240:Drivers/lvgl/lvgl/src/extra/widgets/colorwheel/../../../../src/core/lv_obj_style_gen.h **** 
 241:Drivers/lvgl/lvgl/src/extra/widgets/colorwheel/../../../../src/core/lv_obj_style_gen.h **** static inline lv_color_t lv_obj_get_style_border_color_filtered(const struct _lv_obj_t * obj, uint3
 242:Drivers/lvgl/lvgl/src/extra/widgets/colorwheel/../../../../src/core/lv_obj_style_gen.h **** {
 243:Drivers/lvgl/lvgl/src/extra/widgets/colorwheel/../../../../src/core/lv_obj_style_gen.h ****     lv_style_value_t v = _lv_obj_style_apply_color_filter(obj, part, lv_obj_get_style_prop(obj, par
 244:Drivers/lvgl/lvgl/src/extra/widgets/colorwheel/../../../../src/core/lv_obj_style_gen.h ****     return v.color;
ARM GAS  /tmp/ccbjN9K1.s 			page 37


 245:Drivers/lvgl/lvgl/src/extra/widgets/colorwheel/../../../../src/core/lv_obj_style_gen.h **** }
 246:Drivers/lvgl/lvgl/src/extra/widgets/colorwheel/../../../../src/core/lv_obj_style_gen.h **** 
 247:Drivers/lvgl/lvgl/src/extra/widgets/colorwheel/../../../../src/core/lv_obj_style_gen.h **** static inline lv_opa_t lv_obj_get_style_border_opa(const struct _lv_obj_t * obj, uint32_t part)
 248:Drivers/lvgl/lvgl/src/extra/widgets/colorwheel/../../../../src/core/lv_obj_style_gen.h **** {
 249:Drivers/lvgl/lvgl/src/extra/widgets/colorwheel/../../../../src/core/lv_obj_style_gen.h ****     lv_style_value_t v = lv_obj_get_style_prop(obj, part, LV_STYLE_BORDER_OPA);
 250:Drivers/lvgl/lvgl/src/extra/widgets/colorwheel/../../../../src/core/lv_obj_style_gen.h ****     return (lv_opa_t)v.num;
 251:Drivers/lvgl/lvgl/src/extra/widgets/colorwheel/../../../../src/core/lv_obj_style_gen.h **** }
 252:Drivers/lvgl/lvgl/src/extra/widgets/colorwheel/../../../../src/core/lv_obj_style_gen.h **** 
 253:Drivers/lvgl/lvgl/src/extra/widgets/colorwheel/../../../../src/core/lv_obj_style_gen.h **** static inline lv_coord_t lv_obj_get_style_border_width(const struct _lv_obj_t * obj, uint32_t part)
 254:Drivers/lvgl/lvgl/src/extra/widgets/colorwheel/../../../../src/core/lv_obj_style_gen.h **** {
 255:Drivers/lvgl/lvgl/src/extra/widgets/colorwheel/../../../../src/core/lv_obj_style_gen.h ****     lv_style_value_t v = lv_obj_get_style_prop(obj, part, LV_STYLE_BORDER_WIDTH);
 256:Drivers/lvgl/lvgl/src/extra/widgets/colorwheel/../../../../src/core/lv_obj_style_gen.h ****     return (lv_coord_t)v.num;
 257:Drivers/lvgl/lvgl/src/extra/widgets/colorwheel/../../../../src/core/lv_obj_style_gen.h **** }
 258:Drivers/lvgl/lvgl/src/extra/widgets/colorwheel/../../../../src/core/lv_obj_style_gen.h **** 
 259:Drivers/lvgl/lvgl/src/extra/widgets/colorwheel/../../../../src/core/lv_obj_style_gen.h **** static inline lv_border_side_t lv_obj_get_style_border_side(const struct _lv_obj_t * obj, uint32_t 
 260:Drivers/lvgl/lvgl/src/extra/widgets/colorwheel/../../../../src/core/lv_obj_style_gen.h **** {
 261:Drivers/lvgl/lvgl/src/extra/widgets/colorwheel/../../../../src/core/lv_obj_style_gen.h ****     lv_style_value_t v = lv_obj_get_style_prop(obj, part, LV_STYLE_BORDER_SIDE);
 262:Drivers/lvgl/lvgl/src/extra/widgets/colorwheel/../../../../src/core/lv_obj_style_gen.h ****     return (lv_border_side_t)v.num;
 263:Drivers/lvgl/lvgl/src/extra/widgets/colorwheel/../../../../src/core/lv_obj_style_gen.h **** }
 264:Drivers/lvgl/lvgl/src/extra/widgets/colorwheel/../../../../src/core/lv_obj_style_gen.h **** 
 265:Drivers/lvgl/lvgl/src/extra/widgets/colorwheel/../../../../src/core/lv_obj_style_gen.h **** static inline bool lv_obj_get_style_border_post(const struct _lv_obj_t * obj, uint32_t part)
 266:Drivers/lvgl/lvgl/src/extra/widgets/colorwheel/../../../../src/core/lv_obj_style_gen.h **** {
 267:Drivers/lvgl/lvgl/src/extra/widgets/colorwheel/../../../../src/core/lv_obj_style_gen.h ****     lv_style_value_t v = lv_obj_get_style_prop(obj, part, LV_STYLE_BORDER_POST);
 268:Drivers/lvgl/lvgl/src/extra/widgets/colorwheel/../../../../src/core/lv_obj_style_gen.h ****     return (bool)v.num;
 269:Drivers/lvgl/lvgl/src/extra/widgets/colorwheel/../../../../src/core/lv_obj_style_gen.h **** }
 270:Drivers/lvgl/lvgl/src/extra/widgets/colorwheel/../../../../src/core/lv_obj_style_gen.h **** 
 271:Drivers/lvgl/lvgl/src/extra/widgets/colorwheel/../../../../src/core/lv_obj_style_gen.h **** static inline lv_coord_t lv_obj_get_style_outline_width(const struct _lv_obj_t * obj, uint32_t part
 272:Drivers/lvgl/lvgl/src/extra/widgets/colorwheel/../../../../src/core/lv_obj_style_gen.h **** {
 273:Drivers/lvgl/lvgl/src/extra/widgets/colorwheel/../../../../src/core/lv_obj_style_gen.h ****     lv_style_value_t v = lv_obj_get_style_prop(obj, part, LV_STYLE_OUTLINE_WIDTH);
 274:Drivers/lvgl/lvgl/src/extra/widgets/colorwheel/../../../../src/core/lv_obj_style_gen.h ****     return (lv_coord_t)v.num;
 275:Drivers/lvgl/lvgl/src/extra/widgets/colorwheel/../../../../src/core/lv_obj_style_gen.h **** }
 276:Drivers/lvgl/lvgl/src/extra/widgets/colorwheel/../../../../src/core/lv_obj_style_gen.h **** 
 277:Drivers/lvgl/lvgl/src/extra/widgets/colorwheel/../../../../src/core/lv_obj_style_gen.h **** static inline lv_color_t lv_obj_get_style_outline_color(const struct _lv_obj_t * obj, uint32_t part
 278:Drivers/lvgl/lvgl/src/extra/widgets/colorwheel/../../../../src/core/lv_obj_style_gen.h **** {
 279:Drivers/lvgl/lvgl/src/extra/widgets/colorwheel/../../../../src/core/lv_obj_style_gen.h ****     lv_style_value_t v = lv_obj_get_style_prop(obj, part, LV_STYLE_OUTLINE_COLOR);
 280:Drivers/lvgl/lvgl/src/extra/widgets/colorwheel/../../../../src/core/lv_obj_style_gen.h ****     return v.color;
 281:Drivers/lvgl/lvgl/src/extra/widgets/colorwheel/../../../../src/core/lv_obj_style_gen.h **** }
 282:Drivers/lvgl/lvgl/src/extra/widgets/colorwheel/../../../../src/core/lv_obj_style_gen.h **** 
 283:Drivers/lvgl/lvgl/src/extra/widgets/colorwheel/../../../../src/core/lv_obj_style_gen.h **** static inline lv_color_t lv_obj_get_style_outline_color_filtered(const struct _lv_obj_t * obj, uint
 284:Drivers/lvgl/lvgl/src/extra/widgets/colorwheel/../../../../src/core/lv_obj_style_gen.h **** {
 285:Drivers/lvgl/lvgl/src/extra/widgets/colorwheel/../../../../src/core/lv_obj_style_gen.h ****     lv_style_value_t v = _lv_obj_style_apply_color_filter(obj, part, lv_obj_get_style_prop(obj, par
 286:Drivers/lvgl/lvgl/src/extra/widgets/colorwheel/../../../../src/core/lv_obj_style_gen.h ****     return v.color;
 287:Drivers/lvgl/lvgl/src/extra/widgets/colorwheel/../../../../src/core/lv_obj_style_gen.h **** }
 288:Drivers/lvgl/lvgl/src/extra/widgets/colorwheel/../../../../src/core/lv_obj_style_gen.h **** 
 289:Drivers/lvgl/lvgl/src/extra/widgets/colorwheel/../../../../src/core/lv_obj_style_gen.h **** static inline lv_opa_t lv_obj_get_style_outline_opa(const struct _lv_obj_t * obj, uint32_t part)
 290:Drivers/lvgl/lvgl/src/extra/widgets/colorwheel/../../../../src/core/lv_obj_style_gen.h **** {
 291:Drivers/lvgl/lvgl/src/extra/widgets/colorwheel/../../../../src/core/lv_obj_style_gen.h ****     lv_style_value_t v = lv_obj_get_style_prop(obj, part, LV_STYLE_OUTLINE_OPA);
 292:Drivers/lvgl/lvgl/src/extra/widgets/colorwheel/../../../../src/core/lv_obj_style_gen.h ****     return (lv_opa_t)v.num;
 293:Drivers/lvgl/lvgl/src/extra/widgets/colorwheel/../../../../src/core/lv_obj_style_gen.h **** }
 294:Drivers/lvgl/lvgl/src/extra/widgets/colorwheel/../../../../src/core/lv_obj_style_gen.h **** 
 295:Drivers/lvgl/lvgl/src/extra/widgets/colorwheel/../../../../src/core/lv_obj_style_gen.h **** static inline lv_coord_t lv_obj_get_style_outline_pad(const struct _lv_obj_t * obj, uint32_t part)
 296:Drivers/lvgl/lvgl/src/extra/widgets/colorwheel/../../../../src/core/lv_obj_style_gen.h **** {
 297:Drivers/lvgl/lvgl/src/extra/widgets/colorwheel/../../../../src/core/lv_obj_style_gen.h ****     lv_style_value_t v = lv_obj_get_style_prop(obj, part, LV_STYLE_OUTLINE_PAD);
 298:Drivers/lvgl/lvgl/src/extra/widgets/colorwheel/../../../../src/core/lv_obj_style_gen.h ****     return (lv_coord_t)v.num;
 299:Drivers/lvgl/lvgl/src/extra/widgets/colorwheel/../../../../src/core/lv_obj_style_gen.h **** }
 300:Drivers/lvgl/lvgl/src/extra/widgets/colorwheel/../../../../src/core/lv_obj_style_gen.h **** 
 301:Drivers/lvgl/lvgl/src/extra/widgets/colorwheel/../../../../src/core/lv_obj_style_gen.h **** static inline lv_coord_t lv_obj_get_style_shadow_width(const struct _lv_obj_t * obj, uint32_t part)
ARM GAS  /tmp/ccbjN9K1.s 			page 38


 302:Drivers/lvgl/lvgl/src/extra/widgets/colorwheel/../../../../src/core/lv_obj_style_gen.h **** {
 303:Drivers/lvgl/lvgl/src/extra/widgets/colorwheel/../../../../src/core/lv_obj_style_gen.h ****     lv_style_value_t v = lv_obj_get_style_prop(obj, part, LV_STYLE_SHADOW_WIDTH);
 304:Drivers/lvgl/lvgl/src/extra/widgets/colorwheel/../../../../src/core/lv_obj_style_gen.h ****     return (lv_coord_t)v.num;
 305:Drivers/lvgl/lvgl/src/extra/widgets/colorwheel/../../../../src/core/lv_obj_style_gen.h **** }
 306:Drivers/lvgl/lvgl/src/extra/widgets/colorwheel/../../../../src/core/lv_obj_style_gen.h **** 
 307:Drivers/lvgl/lvgl/src/extra/widgets/colorwheel/../../../../src/core/lv_obj_style_gen.h **** static inline lv_coord_t lv_obj_get_style_shadow_ofs_x(const struct _lv_obj_t * obj, uint32_t part)
 308:Drivers/lvgl/lvgl/src/extra/widgets/colorwheel/../../../../src/core/lv_obj_style_gen.h **** {
 309:Drivers/lvgl/lvgl/src/extra/widgets/colorwheel/../../../../src/core/lv_obj_style_gen.h ****     lv_style_value_t v = lv_obj_get_style_prop(obj, part, LV_STYLE_SHADOW_OFS_X);
 310:Drivers/lvgl/lvgl/src/extra/widgets/colorwheel/../../../../src/core/lv_obj_style_gen.h ****     return (lv_coord_t)v.num;
 311:Drivers/lvgl/lvgl/src/extra/widgets/colorwheel/../../../../src/core/lv_obj_style_gen.h **** }
 312:Drivers/lvgl/lvgl/src/extra/widgets/colorwheel/../../../../src/core/lv_obj_style_gen.h **** 
 313:Drivers/lvgl/lvgl/src/extra/widgets/colorwheel/../../../../src/core/lv_obj_style_gen.h **** static inline lv_coord_t lv_obj_get_style_shadow_ofs_y(const struct _lv_obj_t * obj, uint32_t part)
 314:Drivers/lvgl/lvgl/src/extra/widgets/colorwheel/../../../../src/core/lv_obj_style_gen.h **** {
 315:Drivers/lvgl/lvgl/src/extra/widgets/colorwheel/../../../../src/core/lv_obj_style_gen.h ****     lv_style_value_t v = lv_obj_get_style_prop(obj, part, LV_STYLE_SHADOW_OFS_Y);
 316:Drivers/lvgl/lvgl/src/extra/widgets/colorwheel/../../../../src/core/lv_obj_style_gen.h ****     return (lv_coord_t)v.num;
 317:Drivers/lvgl/lvgl/src/extra/widgets/colorwheel/../../../../src/core/lv_obj_style_gen.h **** }
 318:Drivers/lvgl/lvgl/src/extra/widgets/colorwheel/../../../../src/core/lv_obj_style_gen.h **** 
 319:Drivers/lvgl/lvgl/src/extra/widgets/colorwheel/../../../../src/core/lv_obj_style_gen.h **** static inline lv_coord_t lv_obj_get_style_shadow_spread(const struct _lv_obj_t * obj, uint32_t part
 320:Drivers/lvgl/lvgl/src/extra/widgets/colorwheel/../../../../src/core/lv_obj_style_gen.h **** {
 321:Drivers/lvgl/lvgl/src/extra/widgets/colorwheel/../../../../src/core/lv_obj_style_gen.h ****     lv_style_value_t v = lv_obj_get_style_prop(obj, part, LV_STYLE_SHADOW_SPREAD);
 322:Drivers/lvgl/lvgl/src/extra/widgets/colorwheel/../../../../src/core/lv_obj_style_gen.h ****     return (lv_coord_t)v.num;
 323:Drivers/lvgl/lvgl/src/extra/widgets/colorwheel/../../../../src/core/lv_obj_style_gen.h **** }
 324:Drivers/lvgl/lvgl/src/extra/widgets/colorwheel/../../../../src/core/lv_obj_style_gen.h **** 
 325:Drivers/lvgl/lvgl/src/extra/widgets/colorwheel/../../../../src/core/lv_obj_style_gen.h **** static inline lv_color_t lv_obj_get_style_shadow_color(const struct _lv_obj_t * obj, uint32_t part)
 326:Drivers/lvgl/lvgl/src/extra/widgets/colorwheel/../../../../src/core/lv_obj_style_gen.h **** {
 327:Drivers/lvgl/lvgl/src/extra/widgets/colorwheel/../../../../src/core/lv_obj_style_gen.h ****     lv_style_value_t v = lv_obj_get_style_prop(obj, part, LV_STYLE_SHADOW_COLOR);
 328:Drivers/lvgl/lvgl/src/extra/widgets/colorwheel/../../../../src/core/lv_obj_style_gen.h ****     return v.color;
 329:Drivers/lvgl/lvgl/src/extra/widgets/colorwheel/../../../../src/core/lv_obj_style_gen.h **** }
 330:Drivers/lvgl/lvgl/src/extra/widgets/colorwheel/../../../../src/core/lv_obj_style_gen.h **** 
 331:Drivers/lvgl/lvgl/src/extra/widgets/colorwheel/../../../../src/core/lv_obj_style_gen.h **** static inline lv_color_t lv_obj_get_style_shadow_color_filtered(const struct _lv_obj_t * obj, uint3
 332:Drivers/lvgl/lvgl/src/extra/widgets/colorwheel/../../../../src/core/lv_obj_style_gen.h **** {
 333:Drivers/lvgl/lvgl/src/extra/widgets/colorwheel/../../../../src/core/lv_obj_style_gen.h ****     lv_style_value_t v = _lv_obj_style_apply_color_filter(obj, part, lv_obj_get_style_prop(obj, par
 334:Drivers/lvgl/lvgl/src/extra/widgets/colorwheel/../../../../src/core/lv_obj_style_gen.h ****     return v.color;
 335:Drivers/lvgl/lvgl/src/extra/widgets/colorwheel/../../../../src/core/lv_obj_style_gen.h **** }
 336:Drivers/lvgl/lvgl/src/extra/widgets/colorwheel/../../../../src/core/lv_obj_style_gen.h **** 
 337:Drivers/lvgl/lvgl/src/extra/widgets/colorwheel/../../../../src/core/lv_obj_style_gen.h **** static inline lv_opa_t lv_obj_get_style_shadow_opa(const struct _lv_obj_t * obj, uint32_t part)
 338:Drivers/lvgl/lvgl/src/extra/widgets/colorwheel/../../../../src/core/lv_obj_style_gen.h **** {
 339:Drivers/lvgl/lvgl/src/extra/widgets/colorwheel/../../../../src/core/lv_obj_style_gen.h ****     lv_style_value_t v = lv_obj_get_style_prop(obj, part, LV_STYLE_SHADOW_OPA);
 340:Drivers/lvgl/lvgl/src/extra/widgets/colorwheel/../../../../src/core/lv_obj_style_gen.h ****     return (lv_opa_t)v.num;
 341:Drivers/lvgl/lvgl/src/extra/widgets/colorwheel/../../../../src/core/lv_obj_style_gen.h **** }
 342:Drivers/lvgl/lvgl/src/extra/widgets/colorwheel/../../../../src/core/lv_obj_style_gen.h **** 
 343:Drivers/lvgl/lvgl/src/extra/widgets/colorwheel/../../../../src/core/lv_obj_style_gen.h **** static inline lv_opa_t lv_obj_get_style_img_opa(const struct _lv_obj_t * obj, uint32_t part)
 344:Drivers/lvgl/lvgl/src/extra/widgets/colorwheel/../../../../src/core/lv_obj_style_gen.h **** {
 345:Drivers/lvgl/lvgl/src/extra/widgets/colorwheel/../../../../src/core/lv_obj_style_gen.h ****     lv_style_value_t v = lv_obj_get_style_prop(obj, part, LV_STYLE_IMG_OPA);
 346:Drivers/lvgl/lvgl/src/extra/widgets/colorwheel/../../../../src/core/lv_obj_style_gen.h ****     return (lv_opa_t)v.num;
 347:Drivers/lvgl/lvgl/src/extra/widgets/colorwheel/../../../../src/core/lv_obj_style_gen.h **** }
 348:Drivers/lvgl/lvgl/src/extra/widgets/colorwheel/../../../../src/core/lv_obj_style_gen.h **** 
 349:Drivers/lvgl/lvgl/src/extra/widgets/colorwheel/../../../../src/core/lv_obj_style_gen.h **** static inline lv_color_t lv_obj_get_style_img_recolor(const struct _lv_obj_t * obj, uint32_t part)
 350:Drivers/lvgl/lvgl/src/extra/widgets/colorwheel/../../../../src/core/lv_obj_style_gen.h **** {
 351:Drivers/lvgl/lvgl/src/extra/widgets/colorwheel/../../../../src/core/lv_obj_style_gen.h ****     lv_style_value_t v = lv_obj_get_style_prop(obj, part, LV_STYLE_IMG_RECOLOR);
 352:Drivers/lvgl/lvgl/src/extra/widgets/colorwheel/../../../../src/core/lv_obj_style_gen.h ****     return v.color;
 353:Drivers/lvgl/lvgl/src/extra/widgets/colorwheel/../../../../src/core/lv_obj_style_gen.h **** }
 354:Drivers/lvgl/lvgl/src/extra/widgets/colorwheel/../../../../src/core/lv_obj_style_gen.h **** 
 355:Drivers/lvgl/lvgl/src/extra/widgets/colorwheel/../../../../src/core/lv_obj_style_gen.h **** static inline lv_color_t lv_obj_get_style_img_recolor_filtered(const struct _lv_obj_t * obj, uint32
 356:Drivers/lvgl/lvgl/src/extra/widgets/colorwheel/../../../../src/core/lv_obj_style_gen.h **** {
 357:Drivers/lvgl/lvgl/src/extra/widgets/colorwheel/../../../../src/core/lv_obj_style_gen.h ****     lv_style_value_t v = _lv_obj_style_apply_color_filter(obj, part, lv_obj_get_style_prop(obj, par
 358:Drivers/lvgl/lvgl/src/extra/widgets/colorwheel/../../../../src/core/lv_obj_style_gen.h ****     return v.color;
ARM GAS  /tmp/ccbjN9K1.s 			page 39


 359:Drivers/lvgl/lvgl/src/extra/widgets/colorwheel/../../../../src/core/lv_obj_style_gen.h **** }
 360:Drivers/lvgl/lvgl/src/extra/widgets/colorwheel/../../../../src/core/lv_obj_style_gen.h **** 
 361:Drivers/lvgl/lvgl/src/extra/widgets/colorwheel/../../../../src/core/lv_obj_style_gen.h **** static inline lv_opa_t lv_obj_get_style_img_recolor_opa(const struct _lv_obj_t * obj, uint32_t part
 362:Drivers/lvgl/lvgl/src/extra/widgets/colorwheel/../../../../src/core/lv_obj_style_gen.h **** {
 363:Drivers/lvgl/lvgl/src/extra/widgets/colorwheel/../../../../src/core/lv_obj_style_gen.h ****     lv_style_value_t v = lv_obj_get_style_prop(obj, part, LV_STYLE_IMG_RECOLOR_OPA);
 364:Drivers/lvgl/lvgl/src/extra/widgets/colorwheel/../../../../src/core/lv_obj_style_gen.h ****     return (lv_opa_t)v.num;
 365:Drivers/lvgl/lvgl/src/extra/widgets/colorwheel/../../../../src/core/lv_obj_style_gen.h **** }
 366:Drivers/lvgl/lvgl/src/extra/widgets/colorwheel/../../../../src/core/lv_obj_style_gen.h **** 
 367:Drivers/lvgl/lvgl/src/extra/widgets/colorwheel/../../../../src/core/lv_obj_style_gen.h **** static inline lv_coord_t lv_obj_get_style_line_width(const struct _lv_obj_t * obj, uint32_t part)
 368:Drivers/lvgl/lvgl/src/extra/widgets/colorwheel/../../../../src/core/lv_obj_style_gen.h **** {
 369:Drivers/lvgl/lvgl/src/extra/widgets/colorwheel/../../../../src/core/lv_obj_style_gen.h ****     lv_style_value_t v = lv_obj_get_style_prop(obj, part, LV_STYLE_LINE_WIDTH);
 370:Drivers/lvgl/lvgl/src/extra/widgets/colorwheel/../../../../src/core/lv_obj_style_gen.h ****     return (lv_coord_t)v.num;
 371:Drivers/lvgl/lvgl/src/extra/widgets/colorwheel/../../../../src/core/lv_obj_style_gen.h **** }
 372:Drivers/lvgl/lvgl/src/extra/widgets/colorwheel/../../../../src/core/lv_obj_style_gen.h **** 
 373:Drivers/lvgl/lvgl/src/extra/widgets/colorwheel/../../../../src/core/lv_obj_style_gen.h **** static inline lv_coord_t lv_obj_get_style_line_dash_width(const struct _lv_obj_t * obj, uint32_t pa
 374:Drivers/lvgl/lvgl/src/extra/widgets/colorwheel/../../../../src/core/lv_obj_style_gen.h **** {
 375:Drivers/lvgl/lvgl/src/extra/widgets/colorwheel/../../../../src/core/lv_obj_style_gen.h ****     lv_style_value_t v = lv_obj_get_style_prop(obj, part, LV_STYLE_LINE_DASH_WIDTH);
 376:Drivers/lvgl/lvgl/src/extra/widgets/colorwheel/../../../../src/core/lv_obj_style_gen.h ****     return (lv_coord_t)v.num;
 377:Drivers/lvgl/lvgl/src/extra/widgets/colorwheel/../../../../src/core/lv_obj_style_gen.h **** }
 378:Drivers/lvgl/lvgl/src/extra/widgets/colorwheel/../../../../src/core/lv_obj_style_gen.h **** 
 379:Drivers/lvgl/lvgl/src/extra/widgets/colorwheel/../../../../src/core/lv_obj_style_gen.h **** static inline lv_coord_t lv_obj_get_style_line_dash_gap(const struct _lv_obj_t * obj, uint32_t part
 380:Drivers/lvgl/lvgl/src/extra/widgets/colorwheel/../../../../src/core/lv_obj_style_gen.h **** {
 381:Drivers/lvgl/lvgl/src/extra/widgets/colorwheel/../../../../src/core/lv_obj_style_gen.h ****     lv_style_value_t v = lv_obj_get_style_prop(obj, part, LV_STYLE_LINE_DASH_GAP);
 382:Drivers/lvgl/lvgl/src/extra/widgets/colorwheel/../../../../src/core/lv_obj_style_gen.h ****     return (lv_coord_t)v.num;
 383:Drivers/lvgl/lvgl/src/extra/widgets/colorwheel/../../../../src/core/lv_obj_style_gen.h **** }
 384:Drivers/lvgl/lvgl/src/extra/widgets/colorwheel/../../../../src/core/lv_obj_style_gen.h **** 
 385:Drivers/lvgl/lvgl/src/extra/widgets/colorwheel/../../../../src/core/lv_obj_style_gen.h **** static inline bool lv_obj_get_style_line_rounded(const struct _lv_obj_t * obj, uint32_t part)
 386:Drivers/lvgl/lvgl/src/extra/widgets/colorwheel/../../../../src/core/lv_obj_style_gen.h **** {
 387:Drivers/lvgl/lvgl/src/extra/widgets/colorwheel/../../../../src/core/lv_obj_style_gen.h ****     lv_style_value_t v = lv_obj_get_style_prop(obj, part, LV_STYLE_LINE_ROUNDED);
 388:Drivers/lvgl/lvgl/src/extra/widgets/colorwheel/../../../../src/core/lv_obj_style_gen.h ****     return (bool)v.num;
 389:Drivers/lvgl/lvgl/src/extra/widgets/colorwheel/../../../../src/core/lv_obj_style_gen.h **** }
 390:Drivers/lvgl/lvgl/src/extra/widgets/colorwheel/../../../../src/core/lv_obj_style_gen.h **** 
 391:Drivers/lvgl/lvgl/src/extra/widgets/colorwheel/../../../../src/core/lv_obj_style_gen.h **** static inline lv_color_t lv_obj_get_style_line_color(const struct _lv_obj_t * obj, uint32_t part)
 392:Drivers/lvgl/lvgl/src/extra/widgets/colorwheel/../../../../src/core/lv_obj_style_gen.h **** {
 393:Drivers/lvgl/lvgl/src/extra/widgets/colorwheel/../../../../src/core/lv_obj_style_gen.h ****     lv_style_value_t v = lv_obj_get_style_prop(obj, part, LV_STYLE_LINE_COLOR);
 394:Drivers/lvgl/lvgl/src/extra/widgets/colorwheel/../../../../src/core/lv_obj_style_gen.h ****     return v.color;
 395:Drivers/lvgl/lvgl/src/extra/widgets/colorwheel/../../../../src/core/lv_obj_style_gen.h **** }
 396:Drivers/lvgl/lvgl/src/extra/widgets/colorwheel/../../../../src/core/lv_obj_style_gen.h **** 
 397:Drivers/lvgl/lvgl/src/extra/widgets/colorwheel/../../../../src/core/lv_obj_style_gen.h **** static inline lv_color_t lv_obj_get_style_line_color_filtered(const struct _lv_obj_t * obj, uint32_
 398:Drivers/lvgl/lvgl/src/extra/widgets/colorwheel/../../../../src/core/lv_obj_style_gen.h **** {
 399:Drivers/lvgl/lvgl/src/extra/widgets/colorwheel/../../../../src/core/lv_obj_style_gen.h ****     lv_style_value_t v = _lv_obj_style_apply_color_filter(obj, part, lv_obj_get_style_prop(obj, par
 400:Drivers/lvgl/lvgl/src/extra/widgets/colorwheel/../../../../src/core/lv_obj_style_gen.h ****     return v.color;
 401:Drivers/lvgl/lvgl/src/extra/widgets/colorwheel/../../../../src/core/lv_obj_style_gen.h **** }
 402:Drivers/lvgl/lvgl/src/extra/widgets/colorwheel/../../../../src/core/lv_obj_style_gen.h **** 
 403:Drivers/lvgl/lvgl/src/extra/widgets/colorwheel/../../../../src/core/lv_obj_style_gen.h **** static inline lv_opa_t lv_obj_get_style_line_opa(const struct _lv_obj_t * obj, uint32_t part)
 404:Drivers/lvgl/lvgl/src/extra/widgets/colorwheel/../../../../src/core/lv_obj_style_gen.h **** {
 405:Drivers/lvgl/lvgl/src/extra/widgets/colorwheel/../../../../src/core/lv_obj_style_gen.h ****     lv_style_value_t v = lv_obj_get_style_prop(obj, part, LV_STYLE_LINE_OPA);
 406:Drivers/lvgl/lvgl/src/extra/widgets/colorwheel/../../../../src/core/lv_obj_style_gen.h ****     return (lv_opa_t)v.num;
 407:Drivers/lvgl/lvgl/src/extra/widgets/colorwheel/../../../../src/core/lv_obj_style_gen.h **** }
 408:Drivers/lvgl/lvgl/src/extra/widgets/colorwheel/../../../../src/core/lv_obj_style_gen.h **** 
 409:Drivers/lvgl/lvgl/src/extra/widgets/colorwheel/../../../../src/core/lv_obj_style_gen.h **** static inline lv_coord_t lv_obj_get_style_arc_width(const struct _lv_obj_t * obj, uint32_t part)
 410:Drivers/lvgl/lvgl/src/extra/widgets/colorwheel/../../../../src/core/lv_obj_style_gen.h **** {
 411:Drivers/lvgl/lvgl/src/extra/widgets/colorwheel/../../../../src/core/lv_obj_style_gen.h ****     lv_style_value_t v = lv_obj_get_style_prop(obj, part, LV_STYLE_ARC_WIDTH);
 491              		.loc 3 411 0
 492 0008 5022     		movs	r2, #80
 493 000a 0021     		movs	r1, #0
 494              	.LVL56:
ARM GAS  /tmp/ccbjN9K1.s 			page 40


 495 000c 4046     		mov	r0, r8
 496              	.LVL57:
 497 000e FFF7FEFF 		bl	lv_obj_get_style_prop
 498              	.LVL58:
 412:Drivers/lvgl/lvgl/src/extra/widgets/colorwheel/../../../../src/core/lv_obj_style_gen.h ****     return (lv_coord_t)v.num;
 499              		.loc 3 412 0
 500 0012 00B2     		sxth	r0, r0
 501              	.LVL59:
 502              	.LBE55:
 503              	.LBE54:
 340:Drivers/lvgl/lvgl/src/extra/widgets/colorwheel/lv_colorwheel.c **** 
 504              		.loc 1 340 0
 505 0014 0028     		cmp	r0, #0
 506 0016 3CDB     		blt	.L35
 507              	.L33:
 508 0018 C0F34F05 		ubfx	r5, r0, #1, #16
 509              	.LVL60:
 510              	.LBB56:
 511              	.LBB57:
 117:Drivers/lvgl/lvgl/src/extra/widgets/colorwheel/../../../../src/core/lv_obj_style_gen.h ****     return (lv_coord_t)v.num;
 512              		.loc 3 117 0
 513 001c 1222     		movs	r2, #18
 514 001e 4FF44031 		mov	r1, #196608
 515 0022 4046     		mov	r0, r8
 516 0024 FFF7FEFF 		bl	lv_obj_get_style_prop
 517              	.LVL61:
 518 0028 8146     		mov	r9, r0
 519              	.LVL62:
 520              	.LBE57:
 521              	.LBE56:
 522              	.LBB58:
 523              	.LBB59:
 123:Drivers/lvgl/lvgl/src/extra/widgets/colorwheel/../../../../src/core/lv_obj_style_gen.h ****     return (lv_coord_t)v.num;
 524              		.loc 3 123 0
 525 002a 1322     		movs	r2, #19
 526 002c 4FF44031 		mov	r1, #196608
 527 0030 4046     		mov	r0, r8
 528 0032 FFF7FEFF 		bl	lv_obj_get_style_prop
 529              	.LVL63:
 530 0036 0746     		mov	r7, r0
 531              	.LVL64:
 532              	.LBE59:
 533              	.LBE58:
 534              	.LBB60:
 535              	.LBB61:
 105:Drivers/lvgl/lvgl/src/extra/widgets/colorwheel/../../../../src/core/lv_obj_style_gen.h ****     return (lv_coord_t)v.num;
 536              		.loc 3 105 0
 537 0038 1022     		movs	r2, #16
 538 003a 4FF44031 		mov	r1, #196608
 539 003e 4046     		mov	r0, r8
 540 0040 FFF7FEFF 		bl	lv_obj_get_style_prop
 541              	.LVL65:
 542 0044 0646     		mov	r6, r0
 543              	.LVL66:
 544              	.LBE61:
 545              	.LBE60:
 546              	.LBB62:
ARM GAS  /tmp/ccbjN9K1.s 			page 41


 547              	.LBB63:
 111:Drivers/lvgl/lvgl/src/extra/widgets/colorwheel/../../../../src/core/lv_obj_style_gen.h ****     return (lv_coord_t)v.num;
 548              		.loc 3 111 0
 549 0046 1122     		movs	r2, #17
 550 0048 4FF44031 		mov	r1, #196608
 551 004c 4046     		mov	r0, r8
 552 004e FFF7FEFF 		bl	lv_obj_get_style_prop
 553              	.LVL67:
 554              	.LBE63:
 555              	.LBE62:
 348:Drivers/lvgl/lvgl/src/extra/widgets/colorwheel/lv_colorwheel.c ****     knob_area.y1 = obj->coords.y1 + colorwheel->knob.pos.y - r - right;
 556              		.loc 1 348 0
 557 0052 B8F81420 		ldrh	r2, [r8, #20]
 558 0056 B8F82830 		ldrh	r3, [r8, #40]
 559 005a 1A44     		add	r2, r2, r3
 560 005c 92B2     		uxth	r2, r2
 561 005e 531B     		subs	r3, r2, r5
 562 0060 9BB2     		uxth	r3, r3
 563              	.LVL68:
 564 0062 A3EB0903 		sub	r3, r3, r9
 565 0066 2380     		strh	r3, [r4]	@ movhi
 349:Drivers/lvgl/lvgl/src/extra/widgets/colorwheel/lv_colorwheel.c ****     knob_area.x2 = obj->coords.x1 + colorwheel->knob.pos.x + r + top;
 566              		.loc 1 349 0
 567 0068 B8F81630 		ldrh	r3, [r8, #22]
 568 006c B8F82A10 		ldrh	r1, [r8, #42]
 569 0070 0B44     		add	r3, r3, r1
 570 0072 9BB2     		uxth	r3, r3
 571 0074 591B     		subs	r1, r3, r5
 572 0076 89B2     		uxth	r1, r1
 573              	.LVL69:
 574 0078 CF1B     		subs	r7, r1, r7
 575              	.LVL70:
 576 007a 6780     		strh	r7, [r4, #2]	@ movhi
 350:Drivers/lvgl/lvgl/src/extra/widgets/colorwheel/lv_colorwheel.c ****     knob_area.y2 = obj->coords.y1 + colorwheel->knob.pos.y + r + bottom;
 577              		.loc 1 350 0
 578 007c 2A44     		add	r2, r2, r5
 579              	.LVL71:
 580 007e 16FA82F2 		uxtah	r2, r6, r2
 581 0082 A280     		strh	r2, [r4, #4]	@ movhi
 351:Drivers/lvgl/lvgl/src/extra/widgets/colorwheel/lv_colorwheel.c **** 
 582              		.loc 1 351 0
 583 0084 2B44     		add	r3, r3, r5
 584 0086 10FA83F3 		uxtah	r3, r0, r3
 585 008a E380     		strh	r3, [r4, #6]	@ movhi
 354:Drivers/lvgl/lvgl/src/extra/widgets/colorwheel/lv_colorwheel.c **** 
 586              		.loc 1 354 0
 587 008c 2046     		mov	r0, r4
 588 008e BDE8F883 		pop	{r3, r4, r5, r6, r7, r8, r9, pc}
 589              	.LVL72:
 590              	.L35:
 340:Drivers/lvgl/lvgl/src/extra/widgets/colorwheel/lv_colorwheel.c **** 
 591              		.loc 1 340 0
 592 0092 0130     		adds	r0, r0, #1
 593 0094 C0E7     		b	.L33
 594              		.cfi_endproc
 595              	.LFE215:
 597              		.section	.text.invalidate_knob,"ax",%progbits
ARM GAS  /tmp/ccbjN9K1.s 			page 42


 598              		.align	1
 599              		.syntax unified
 600              		.thumb
 601              		.thumb_func
 602              		.fpu fpv5-d16
 604              	invalidate_knob:
 605              	.LFB214:
 328:Drivers/lvgl/lvgl/src/extra/widgets/colorwheel/lv_colorwheel.c ****     lv_area_t knob_area = get_knob_area(obj);
 606              		.loc 1 328 0
 607              		.cfi_startproc
 608              		@ args = 0, pretend = 0, frame = 8
 609              		@ frame_needed = 0, uses_anonymous_args = 0
 610              	.LVL73:
 611 0000 10B5     		push	{r4, lr}
 612              	.LCFI7:
 613              		.cfi_def_cfa_offset 8
 614              		.cfi_offset 4, -8
 615              		.cfi_offset 14, -4
 616 0002 82B0     		sub	sp, sp, #8
 617              	.LCFI8:
 618              		.cfi_def_cfa_offset 16
 619 0004 0446     		mov	r4, r0
 329:Drivers/lvgl/lvgl/src/extra/widgets/colorwheel/lv_colorwheel.c **** 
 620              		.loc 1 329 0
 621 0006 0146     		mov	r1, r0
 622 0008 6846     		mov	r0, sp
 623              	.LVL74:
 624 000a FFF7FEFF 		bl	get_knob_area
 625              	.LVL75:
 331:Drivers/lvgl/lvgl/src/extra/widgets/colorwheel/lv_colorwheel.c **** }
 626              		.loc 1 331 0
 627 000e 6946     		mov	r1, sp
 628 0010 2046     		mov	r0, r4
 629 0012 FFF7FEFF 		bl	lv_obj_invalidate_area
 630              	.LVL76:
 332:Drivers/lvgl/lvgl/src/extra/widgets/colorwheel/lv_colorwheel.c **** 
 631              		.loc 1 332 0
 632 0016 02B0     		add	sp, sp, #8
 633              	.LCFI9:
 634              		.cfi_def_cfa_offset 8
 635              		@ sp needed
 636 0018 10BD     		pop	{r4, pc}
 637              		.cfi_endproc
 638              	.LFE214:
 640              		.section	.text.refr_knob_pos,"ax",%progbits
 641              		.align	1
 642              		.syntax unified
 643              		.thumb
 644              		.thumb_func
 645              		.fpu fpv5-d16
 647              	refr_knob_pos:
 648              	.LFB218:
 550:Drivers/lvgl/lvgl/src/extra/widgets/colorwheel/lv_colorwheel.c ****     invalidate_knob(obj);
 649              		.loc 1 550 0
 650              		.cfi_startproc
 651              		@ args = 0, pretend = 0, frame = 0
 652              		@ frame_needed = 0, uses_anonymous_args = 0
ARM GAS  /tmp/ccbjN9K1.s 			page 43


 653              	.LVL77:
 654 0000 F8B5     		push	{r3, r4, r5, r6, r7, lr}
 655              	.LCFI10:
 656              		.cfi_def_cfa_offset 24
 657              		.cfi_offset 3, -24
 658              		.cfi_offset 4, -20
 659              		.cfi_offset 5, -16
 660              		.cfi_offset 6, -12
 661              		.cfi_offset 7, -8
 662              		.cfi_offset 14, -4
 663 0002 0546     		mov	r5, r0
 551:Drivers/lvgl/lvgl/src/extra/widgets/colorwheel/lv_colorwheel.c **** 
 664              		.loc 1 551 0
 665 0004 FFF7FEFF 		bl	invalidate_knob
 666              	.LVL78:
 554:Drivers/lvgl/lvgl/src/extra/widgets/colorwheel/lv_colorwheel.c **** 
 667              		.loc 1 554 0
 668 0008 2846     		mov	r0, r5
 669 000a FFF7FEFF 		bl	lv_obj_get_width
 670              	.LVL79:
 671 000e 0646     		mov	r6, r0
 672              	.LVL80:
 673              	.LBB64:
 674              	.LBB65:
 411:Drivers/lvgl/lvgl/src/extra/widgets/colorwheel/../../../../src/core/lv_obj_style_gen.h ****     return (lv_coord_t)v.num;
 675              		.loc 3 411 0
 676 0010 5022     		movs	r2, #80
 677 0012 0021     		movs	r1, #0
 678 0014 2846     		mov	r0, r5
 679 0016 FFF7FEFF 		bl	lv_obj_get_style_prop
 680              	.LVL81:
 681              		.loc 3 412 0
 682 001a 00B2     		sxth	r0, r0
 683              	.LVL82:
 684              	.LBE65:
 685              	.LBE64:
 557:Drivers/lvgl/lvgl/src/extra/widgets/colorwheel/lv_colorwheel.c ****     uint16_t angle = get_angle(obj);
 686              		.loc 1 557 0
 687 001c 301A     		subs	r0, r6, r0
 688 001e 24D4     		bmi	.L42
 689              	.L39:
 690 0020 40F34F04 		sbfx	r4, r0, #1, #16
 691              	.LVL83:
 558:Drivers/lvgl/lvgl/src/extra/widgets/colorwheel/lv_colorwheel.c ****     colorwheel->knob.pos.x = (((int32_t)r * lv_trigo_sin(angle)) >> LV_TRIGO_SHIFT);
 692              		.loc 1 558 0
 693 0024 2846     		mov	r0, r5
 694 0026 FFF7FEFF 		bl	get_angle
 695              	.LVL84:
 696 002a 0746     		mov	r7, r0
 697              	.LVL85:
 559:Drivers/lvgl/lvgl/src/extra/widgets/colorwheel/lv_colorwheel.c ****     colorwheel->knob.pos.y = (((int32_t)r * lv_trigo_cos(angle)) >> LV_TRIGO_SHIFT);
 698              		.loc 1 559 0
 699 002c 00B2     		sxth	r0, r0
 700 002e FFF7FEFF 		bl	lv_trigo_sin
 701              	.LVL86:
 702 0032 00FB04F0 		mul	r0, r0, r4
 703 0036 C013     		asrs	r0, r0, #15
ARM GAS  /tmp/ccbjN9K1.s 			page 44


 704 0038 2885     		strh	r0, [r5, #40]	@ movhi
 705              	.LVL87:
 706              	.LBB66:
 707              	.LBB67:
 708              		.file 4 "Drivers/lvgl/lvgl/src/extra/widgets/colorwheel/../../../../src/misc/lv_math.h"
   1:Drivers/lvgl/lvgl/src/extra/widgets/colorwheel/../../../../src/misc/lv_math.h **** /**
   2:Drivers/lvgl/lvgl/src/extra/widgets/colorwheel/../../../../src/misc/lv_math.h ****  * @file lv_math.h
   3:Drivers/lvgl/lvgl/src/extra/widgets/colorwheel/../../../../src/misc/lv_math.h ****  *
   4:Drivers/lvgl/lvgl/src/extra/widgets/colorwheel/../../../../src/misc/lv_math.h ****  */
   5:Drivers/lvgl/lvgl/src/extra/widgets/colorwheel/../../../../src/misc/lv_math.h **** 
   6:Drivers/lvgl/lvgl/src/extra/widgets/colorwheel/../../../../src/misc/lv_math.h **** #ifndef LV_MATH_H
   7:Drivers/lvgl/lvgl/src/extra/widgets/colorwheel/../../../../src/misc/lv_math.h **** #define LV_MATH_H
   8:Drivers/lvgl/lvgl/src/extra/widgets/colorwheel/../../../../src/misc/lv_math.h **** 
   9:Drivers/lvgl/lvgl/src/extra/widgets/colorwheel/../../../../src/misc/lv_math.h **** #ifdef __cplusplus
  10:Drivers/lvgl/lvgl/src/extra/widgets/colorwheel/../../../../src/misc/lv_math.h **** extern "C" {
  11:Drivers/lvgl/lvgl/src/extra/widgets/colorwheel/../../../../src/misc/lv_math.h **** #endif
  12:Drivers/lvgl/lvgl/src/extra/widgets/colorwheel/../../../../src/misc/lv_math.h **** 
  13:Drivers/lvgl/lvgl/src/extra/widgets/colorwheel/../../../../src/misc/lv_math.h **** /*********************
  14:Drivers/lvgl/lvgl/src/extra/widgets/colorwheel/../../../../src/misc/lv_math.h ****  *      INCLUDES
  15:Drivers/lvgl/lvgl/src/extra/widgets/colorwheel/../../../../src/misc/lv_math.h ****  *********************/
  16:Drivers/lvgl/lvgl/src/extra/widgets/colorwheel/../../../../src/misc/lv_math.h **** #include "../lv_conf_internal.h"
  17:Drivers/lvgl/lvgl/src/extra/widgets/colorwheel/../../../../src/misc/lv_math.h **** #include <stdint.h>
  18:Drivers/lvgl/lvgl/src/extra/widgets/colorwheel/../../../../src/misc/lv_math.h **** 
  19:Drivers/lvgl/lvgl/src/extra/widgets/colorwheel/../../../../src/misc/lv_math.h **** /*********************
  20:Drivers/lvgl/lvgl/src/extra/widgets/colorwheel/../../../../src/misc/lv_math.h ****  *      DEFINES
  21:Drivers/lvgl/lvgl/src/extra/widgets/colorwheel/../../../../src/misc/lv_math.h ****  *********************/
  22:Drivers/lvgl/lvgl/src/extra/widgets/colorwheel/../../../../src/misc/lv_math.h **** #define LV_TRIGO_SIN_MAX 32767
  23:Drivers/lvgl/lvgl/src/extra/widgets/colorwheel/../../../../src/misc/lv_math.h **** #define LV_TRIGO_SHIFT 15 /**<  >> LV_TRIGO_SHIFT to normalize*/
  24:Drivers/lvgl/lvgl/src/extra/widgets/colorwheel/../../../../src/misc/lv_math.h **** 
  25:Drivers/lvgl/lvgl/src/extra/widgets/colorwheel/../../../../src/misc/lv_math.h **** #define LV_BEZIER_VAL_MAX 1024 /**< Max time in Bezier functions (not [0..1] to use integers)*/
  26:Drivers/lvgl/lvgl/src/extra/widgets/colorwheel/../../../../src/misc/lv_math.h **** #define LV_BEZIER_VAL_SHIFT 10 /**< log2(LV_BEZIER_VAL_MAX): used to normalize up scaled values*/
  27:Drivers/lvgl/lvgl/src/extra/widgets/colorwheel/../../../../src/misc/lv_math.h **** 
  28:Drivers/lvgl/lvgl/src/extra/widgets/colorwheel/../../../../src/misc/lv_math.h **** /**********************
  29:Drivers/lvgl/lvgl/src/extra/widgets/colorwheel/../../../../src/misc/lv_math.h ****  *      TYPEDEFS
  30:Drivers/lvgl/lvgl/src/extra/widgets/colorwheel/../../../../src/misc/lv_math.h ****  **********************/
  31:Drivers/lvgl/lvgl/src/extra/widgets/colorwheel/../../../../src/misc/lv_math.h **** 
  32:Drivers/lvgl/lvgl/src/extra/widgets/colorwheel/../../../../src/misc/lv_math.h **** typedef struct {
  33:Drivers/lvgl/lvgl/src/extra/widgets/colorwheel/../../../../src/misc/lv_math.h ****     uint16_t i;
  34:Drivers/lvgl/lvgl/src/extra/widgets/colorwheel/../../../../src/misc/lv_math.h ****     uint16_t f;
  35:Drivers/lvgl/lvgl/src/extra/widgets/colorwheel/../../../../src/misc/lv_math.h **** } lv_sqrt_res_t;
  36:Drivers/lvgl/lvgl/src/extra/widgets/colorwheel/../../../../src/misc/lv_math.h **** 
  37:Drivers/lvgl/lvgl/src/extra/widgets/colorwheel/../../../../src/misc/lv_math.h **** /**********************
  38:Drivers/lvgl/lvgl/src/extra/widgets/colorwheel/../../../../src/misc/lv_math.h ****  * GLOBAL PROTOTYPES
  39:Drivers/lvgl/lvgl/src/extra/widgets/colorwheel/../../../../src/misc/lv_math.h ****  **********************/
  40:Drivers/lvgl/lvgl/src/extra/widgets/colorwheel/../../../../src/misc/lv_math.h **** 
  41:Drivers/lvgl/lvgl/src/extra/widgets/colorwheel/../../../../src/misc/lv_math.h **** //! @cond Doxygen_Suppress
  42:Drivers/lvgl/lvgl/src/extra/widgets/colorwheel/../../../../src/misc/lv_math.h **** /**
  43:Drivers/lvgl/lvgl/src/extra/widgets/colorwheel/../../../../src/misc/lv_math.h ****  * Return with sinus of an angle
  44:Drivers/lvgl/lvgl/src/extra/widgets/colorwheel/../../../../src/misc/lv_math.h ****  * @param angle
  45:Drivers/lvgl/lvgl/src/extra/widgets/colorwheel/../../../../src/misc/lv_math.h ****  * @return sinus of 'angle'. sin(-90) = -32767, sin(90) = 32767
  46:Drivers/lvgl/lvgl/src/extra/widgets/colorwheel/../../../../src/misc/lv_math.h ****  */
  47:Drivers/lvgl/lvgl/src/extra/widgets/colorwheel/../../../../src/misc/lv_math.h **** LV_ATTRIBUTE_FAST_MEM int16_t lv_trigo_sin(int16_t angle);
  48:Drivers/lvgl/lvgl/src/extra/widgets/colorwheel/../../../../src/misc/lv_math.h **** 
  49:Drivers/lvgl/lvgl/src/extra/widgets/colorwheel/../../../../src/misc/lv_math.h **** static inline LV_ATTRIBUTE_FAST_MEM int16_t lv_trigo_cos(int16_t angle)
  50:Drivers/lvgl/lvgl/src/extra/widgets/colorwheel/../../../../src/misc/lv_math.h **** {
  51:Drivers/lvgl/lvgl/src/extra/widgets/colorwheel/../../../../src/misc/lv_math.h ****     return lv_trigo_sin(angle + 90);
 709              		.loc 4 51 0
ARM GAS  /tmp/ccbjN9K1.s 			page 45


 710 003a 07F15A00 		add	r0, r7, #90
 711 003e 00B2     		sxth	r0, r0
 712 0040 FFF7FEFF 		bl	lv_trigo_sin
 713              	.LVL88:
 714              	.LBE67:
 715              	.LBE66:
 560:Drivers/lvgl/lvgl/src/extra/widgets/colorwheel/lv_colorwheel.c ****     colorwheel->knob.pos.x = colorwheel->knob.pos.x + w / 2;
 716              		.loc 1 560 0
 717 0044 00FB04F0 		mul	r0, r0, r4
 718 0048 40F3CF30 		sbfx	r0, r0, #15, #16
 561:Drivers/lvgl/lvgl/src/extra/widgets/colorwheel/lv_colorwheel.c ****     colorwheel->knob.pos.y = colorwheel->knob.pos.y + w / 2;
 719              		.loc 1 561 0
 720 004c 2B8D     		ldrh	r3, [r5, #40]
 721 004e 3446     		mov	r4, r6
 722              	.LVL89:
 723 0050 002E     		cmp	r6, #0
 724 0052 0CDB     		blt	.L43
 725              	.L40:
 726 0054 C4F34F04 		ubfx	r4, r4, #1, #16
 727 0058 2344     		add	r3, r3, r4
 728 005a 2B85     		strh	r3, [r5, #40]	@ movhi
 562:Drivers/lvgl/lvgl/src/extra/widgets/colorwheel/lv_colorwheel.c **** 
 729              		.loc 1 562 0
 730 005c 14FA80F0 		uxtah	r0, r4, r0
 731 0060 6885     		strh	r0, [r5, #42]	@ movhi
 564:Drivers/lvgl/lvgl/src/extra/widgets/colorwheel/lv_colorwheel.c **** }
 732              		.loc 1 564 0
 733 0062 2846     		mov	r0, r5
 734 0064 FFF7FEFF 		bl	invalidate_knob
 735              	.LVL90:
 565:Drivers/lvgl/lvgl/src/extra/widgets/colorwheel/lv_colorwheel.c **** 
 736              		.loc 1 565 0
 737 0068 F8BD     		pop	{r3, r4, r5, r6, r7, pc}
 738              	.LVL91:
 739              	.L42:
 557:Drivers/lvgl/lvgl/src/extra/widgets/colorwheel/lv_colorwheel.c ****     uint16_t angle = get_angle(obj);
 740              		.loc 1 557 0
 741 006a 0130     		adds	r0, r0, #1
 742 006c D8E7     		b	.L39
 743              	.L43:
 561:Drivers/lvgl/lvgl/src/extra/widgets/colorwheel/lv_colorwheel.c ****     colorwheel->knob.pos.y = colorwheel->knob.pos.y + w / 2;
 744              		.loc 1 561 0
 745 006e 741C     		adds	r4, r6, #1
 746 0070 F0E7     		b	.L40
 747              		.cfi_endproc
 748              	.LFE218:
 750              		.section	.text.next_color_mode,"ax",%progbits
 751              		.align	1
 752              		.syntax unified
 753              		.thumb
 754              		.thumb_func
 755              		.fpu fpv5-d16
 757              	next_color_mode:
 758              	.LFB217:
 542:Drivers/lvgl/lvgl/src/extra/widgets/colorwheel/lv_colorwheel.c ****     lv_colorwheel_t * colorwheel = (lv_colorwheel_t *)obj;
 759              		.loc 1 542 0
 760              		.cfi_startproc
ARM GAS  /tmp/ccbjN9K1.s 			page 46


 761              		@ args = 0, pretend = 0, frame = 0
 762              		@ frame_needed = 0, uses_anonymous_args = 0
 763              	.LVL92:
 764 0000 10B5     		push	{r4, lr}
 765              	.LCFI11:
 766              		.cfi_def_cfa_offset 8
 767              		.cfi_offset 4, -8
 768              		.cfi_offset 14, -4
 769 0002 0446     		mov	r4, r0
 770              	.LVL93:
 544:Drivers/lvgl/lvgl/src/extra/widgets/colorwheel/lv_colorwheel.c ****     refr_knob_pos(obj);
 771              		.loc 1 544 0
 772 0004 90F83C10 		ldrb	r1, [r0, #60]	@ zero_extendqisi2
 773 0008 01F00303 		and	r3, r1, #3
 774 000c 0133     		adds	r3, r3, #1
 775 000e 0322     		movs	r2, #3
 776 0010 93FBF2F2 		sdiv	r2, r3, r2
 777 0014 02EB4202 		add	r2, r2, r2, lsl #1
 778 0018 9B1A     		subs	r3, r3, r2
 779 001a 0A46     		mov	r2, r1
 780 001c 63F30102 		bfi	r2, r3, #0, #2
 781 0020 80F83C20 		strb	r2, [r0, #60]
 545:Drivers/lvgl/lvgl/src/extra/widgets/colorwheel/lv_colorwheel.c ****     lv_obj_invalidate(obj);
 782              		.loc 1 545 0
 783 0024 FFF7FEFF 		bl	refr_knob_pos
 784              	.LVL94:
 546:Drivers/lvgl/lvgl/src/extra/widgets/colorwheel/lv_colorwheel.c **** }
 785              		.loc 1 546 0
 786 0028 2046     		mov	r0, r4
 787 002a FFF7FEFF 		bl	lv_obj_invalidate
 788              	.LVL95:
 547:Drivers/lvgl/lvgl/src/extra/widgets/colorwheel/lv_colorwheel.c **** 
 789              		.loc 1 547 0
 790 002e 10BD     		pop	{r4, pc}
 791              		.cfi_endproc
 792              	.LFE217:
 794              		.section	.text.draw_disc_grad,"ax",%progbits
 795              		.align	1
 796              		.syntax unified
 797              		.thumb
 798              		.thumb_func
 799              		.fpu fpv5-d16
 801              	draw_disc_grad:
 802              	.LFB212:
 243:Drivers/lvgl/lvgl/src/extra/widgets/colorwheel/lv_colorwheel.c ****     lv_obj_t * obj = lv_event_get_target(e);
 803              		.loc 1 243 0
 804              		.cfi_startproc
 805              		@ args = 0, pretend = 0, frame = 104
 806              		@ frame_needed = 0, uses_anonymous_args = 0
 807              	.LVL96:
 808 0000 2DE9F04F 		push	{r4, r5, r6, r7, r8, r9, r10, fp, lr}
 809              	.LCFI12:
 810              		.cfi_def_cfa_offset 36
 811              		.cfi_offset 4, -36
 812              		.cfi_offset 5, -32
 813              		.cfi_offset 6, -28
 814              		.cfi_offset 7, -24
ARM GAS  /tmp/ccbjN9K1.s 			page 47


 815              		.cfi_offset 8, -20
 816              		.cfi_offset 9, -16
 817              		.cfi_offset 10, -12
 818              		.cfi_offset 11, -8
 819              		.cfi_offset 14, -4
 820 0004 9BB0     		sub	sp, sp, #108
 821              	.LCFI13:
 822              		.cfi_def_cfa_offset 144
 823 0006 0446     		mov	r4, r0
 244:Drivers/lvgl/lvgl/src/extra/widgets/colorwheel/lv_colorwheel.c ****     lv_draw_ctx_t * draw_ctx = lv_event_get_draw_ctx(e);
 824              		.loc 1 244 0
 825 0008 FFF7FEFF 		bl	lv_event_get_target
 826              	.LVL97:
 827 000c 0546     		mov	r5, r0
 828 000e 0190     		str	r0, [sp, #4]
 829              	.LVL98:
 245:Drivers/lvgl/lvgl/src/extra/widgets/colorwheel/lv_colorwheel.c ****     lv_coord_t w = lv_obj_get_width(obj);
 830              		.loc 1 245 0
 831 0010 2046     		mov	r0, r4
 832              	.LVL99:
 833 0012 FFF7FEFF 		bl	lv_event_get_draw_ctx
 834              	.LVL100:
 835 0016 0290     		str	r0, [sp, #8]
 836              	.LVL101:
 246:Drivers/lvgl/lvgl/src/extra/widgets/colorwheel/lv_colorwheel.c ****     lv_coord_t h = lv_obj_get_height(obj);
 837              		.loc 1 246 0
 838 0018 2C46     		mov	r4, r5
 839              	.LVL102:
 840 001a 2846     		mov	r0, r5
 841              	.LVL103:
 842 001c FFF7FEFF 		bl	lv_obj_get_width
 843              	.LVL104:
 844 0020 0546     		mov	r5, r0
 845              	.LVL105:
 247:Drivers/lvgl/lvgl/src/extra/widgets/colorwheel/lv_colorwheel.c ****     lv_coord_t cx = obj->coords.x1 + w / 2;
 846              		.loc 1 247 0
 847 0022 2046     		mov	r0, r4
 848 0024 FFF7FEFF 		bl	lv_obj_get_height
 849              	.LVL106:
 248:Drivers/lvgl/lvgl/src/extra/widgets/colorwheel/lv_colorwheel.c ****     lv_coord_t cy = obj->coords.y1 + h / 2;
 850              		.loc 1 248 0
 851 0028 B4F814A0 		ldrh	r10, [r4, #20]
 852 002c 2B46     		mov	r3, r5
 853 002e 002D     		cmp	r5, #0
 854 0030 63DB     		blt	.L52
 855              	.L47:
 856 0032 43F34F04 		sbfx	r4, r3, #1, #16
 857              	.LVL107:
 858 0036 A244     		add	r10, r10, r4
 859 0038 1FFA8AFA 		uxth	r10, r10
 860              	.LVL108:
 249:Drivers/lvgl/lvgl/src/extra/widgets/colorwheel/lv_colorwheel.c ****     lv_coord_t r = w / 2;
 861              		.loc 1 249 0
 862 003c 019B     		ldr	r3, [sp, #4]
 863 003e B3F81690 		ldrh	r9, [r3, #22]
 864 0042 0346     		mov	r3, r0
 865 0044 0028     		cmp	r0, #0
ARM GAS  /tmp/ccbjN9K1.s 			page 48


 866 0046 5ADB     		blt	.L53
 867              	.L48:
 868 0048 09EB6309 		add	r9, r9, r3, asr #1
 869 004c 1FFA89F9 		uxth	r9, r9
 870              	.LVL109:
 253:Drivers/lvgl/lvgl/src/extra/widgets/colorwheel/lv_colorwheel.c ****     lv_obj_init_draw_line_dsc(obj, LV_PART_MAIN, &line_dsc);
 871              		.loc 1 253 0
 872 0050 17A8     		add	r0, sp, #92
 873              	.LVL110:
 874 0052 FFF7FEFF 		bl	lv_draw_line_dsc_init
 875              	.LVL111:
 254:Drivers/lvgl/lvgl/src/extra/widgets/colorwheel/lv_colorwheel.c **** 
 876              		.loc 1 254 0
 877 0056 17AA     		add	r2, sp, #92
 878 0058 0021     		movs	r1, #0
 879 005a 019D     		ldr	r5, [sp, #4]
 880              	.LVL112:
 881 005c 2846     		mov	r0, r5
 882 005e FFF7FEFF 		bl	lv_obj_init_draw_line_dsc
 883              	.LVL113:
 256:Drivers/lvgl/lvgl/src/extra/widgets/colorwheel/lv_colorwheel.c ****     line_dsc.width += 2;
 884              		.loc 1 256 0
 885 0062 0094     		str	r4, [sp]
 886 0064 4FF41D73 		mov	r3, #628
 887 0068 03FB04F3 		mul	r3, r3, r4
 888 006c 4F4A     		ldr	r2, .L54
 889 006e 82FB0312 		smull	r1, r2, r2, r3
 890 0072 DB17     		asrs	r3, r3, #31
 891 0074 C3EB2233 		rsb	r3, r3, r2, asr #12
 892 0078 1BB2     		sxth	r3, r3
 257:Drivers/lvgl/lvgl/src/extra/widgets/colorwheel/lv_colorwheel.c ****     uint16_t i;
 893              		.loc 1 257 0
 894 007a 0233     		adds	r3, r3, #2
 895 007c ADF85E30 		strh	r3, [sp, #94]	@ movhi
 896              	.LVL114:
 897              	.LBB68:
 898              	.LBB69:
 411:Drivers/lvgl/lvgl/src/extra/widgets/colorwheel/../../../../src/core/lv_obj_style_gen.h ****     return (lv_coord_t)v.num;
 899              		.loc 3 411 0
 900 0080 5022     		movs	r2, #80
 901 0082 0021     		movs	r1, #0
 902 0084 2846     		mov	r0, r5
 903 0086 FFF7FEFF 		bl	lv_obj_get_style_prop
 904              	.LVL115:
 905 008a 0446     		mov	r4, r0
 906              	.LVL116:
 907              		.loc 3 412 0
 908 008c 03B2     		sxth	r3, r0
 909 008e 0393     		str	r3, [sp, #12]
 910              	.LVL117:
 911              	.LBE69:
 912              	.LBE68:
 265:Drivers/lvgl/lvgl/src/extra/widgets/colorwheel/lv_colorwheel.c ****     int16_t mask_out_id = lv_draw_mask_add(&mask_out_param, 0);
 913              		.loc 1 265 0
 914 0090 0023     		movs	r3, #0
 915 0092 47F6FF72 		movw	r2, #32767
 916 0096 2946     		mov	r1, r5
ARM GAS  /tmp/ccbjN9K1.s 			page 49


 917 0098 1431     		adds	r1, r1, #20
 918 009a 11A8     		add	r0, sp, #68
 919 009c FFF7FEFF 		bl	lv_draw_mask_radius_init
 920              	.LVL118:
 266:Drivers/lvgl/lvgl/src/extra/widgets/colorwheel/lv_colorwheel.c **** 
 921              		.loc 1 266 0
 922 00a0 0021     		movs	r1, #0
 923 00a2 11A8     		add	r0, sp, #68
 924 00a4 FFF7FEFF 		bl	lv_draw_mask_add
 925              	.LVL119:
 926 00a8 0490     		str	r0, [sp, #16]
 927              	.LVL120:
 928              	.LBB70:
 929              	.LBB71:
 930              		.file 5 "Drivers/lvgl/lvgl/src/extra/widgets/colorwheel/../../../../src/hal/../draw/../misc/../fon
   1:Drivers/lvgl/lvgl/src/extra/widgets/colorwheel/../../../../src/hal/../draw/../misc/../font/../misc/lv_area.h **** /**
   2:Drivers/lvgl/lvgl/src/extra/widgets/colorwheel/../../../../src/hal/../draw/../misc/../font/../misc/lv_area.h ****  * @file lv_area.h
   3:Drivers/lvgl/lvgl/src/extra/widgets/colorwheel/../../../../src/hal/../draw/../misc/../font/../misc/lv_area.h ****  *
   4:Drivers/lvgl/lvgl/src/extra/widgets/colorwheel/../../../../src/hal/../draw/../misc/../font/../misc/lv_area.h ****  */
   5:Drivers/lvgl/lvgl/src/extra/widgets/colorwheel/../../../../src/hal/../draw/../misc/../font/../misc/lv_area.h **** 
   6:Drivers/lvgl/lvgl/src/extra/widgets/colorwheel/../../../../src/hal/../draw/../misc/../font/../misc/lv_area.h **** #ifndef LV_AREA_H
   7:Drivers/lvgl/lvgl/src/extra/widgets/colorwheel/../../../../src/hal/../draw/../misc/../font/../misc/lv_area.h **** #define LV_AREA_H
   8:Drivers/lvgl/lvgl/src/extra/widgets/colorwheel/../../../../src/hal/../draw/../misc/../font/../misc/lv_area.h **** 
   9:Drivers/lvgl/lvgl/src/extra/widgets/colorwheel/../../../../src/hal/../draw/../misc/../font/../misc/lv_area.h **** #ifdef __cplusplus
  10:Drivers/lvgl/lvgl/src/extra/widgets/colorwheel/../../../../src/hal/../draw/../misc/../font/../misc/lv_area.h **** extern "C" {
  11:Drivers/lvgl/lvgl/src/extra/widgets/colorwheel/../../../../src/hal/../draw/../misc/../font/../misc/lv_area.h **** #endif
  12:Drivers/lvgl/lvgl/src/extra/widgets/colorwheel/../../../../src/hal/../draw/../misc/../font/../misc/lv_area.h **** 
  13:Drivers/lvgl/lvgl/src/extra/widgets/colorwheel/../../../../src/hal/../draw/../misc/../font/../misc/lv_area.h **** /*********************
  14:Drivers/lvgl/lvgl/src/extra/widgets/colorwheel/../../../../src/hal/../draw/../misc/../font/../misc/lv_area.h ****  *      INCLUDES
  15:Drivers/lvgl/lvgl/src/extra/widgets/colorwheel/../../../../src/hal/../draw/../misc/../font/../misc/lv_area.h ****  *********************/
  16:Drivers/lvgl/lvgl/src/extra/widgets/colorwheel/../../../../src/hal/../draw/../misc/../font/../misc/lv_area.h **** #include "../lv_conf_internal.h"
  17:Drivers/lvgl/lvgl/src/extra/widgets/colorwheel/../../../../src/hal/../draw/../misc/../font/../misc/lv_area.h **** #include <stdbool.h>
  18:Drivers/lvgl/lvgl/src/extra/widgets/colorwheel/../../../../src/hal/../draw/../misc/../font/../misc/lv_area.h **** #include <stdint.h>
  19:Drivers/lvgl/lvgl/src/extra/widgets/colorwheel/../../../../src/hal/../draw/../misc/../font/../misc/lv_area.h **** 
  20:Drivers/lvgl/lvgl/src/extra/widgets/colorwheel/../../../../src/hal/../draw/../misc/../font/../misc/lv_area.h **** /*********************
  21:Drivers/lvgl/lvgl/src/extra/widgets/colorwheel/../../../../src/hal/../draw/../misc/../font/../misc/lv_area.h ****  *      DEFINES
  22:Drivers/lvgl/lvgl/src/extra/widgets/colorwheel/../../../../src/hal/../draw/../misc/../font/../misc/lv_area.h ****  *********************/
  23:Drivers/lvgl/lvgl/src/extra/widgets/colorwheel/../../../../src/hal/../draw/../misc/../font/../misc/lv_area.h **** 
  24:Drivers/lvgl/lvgl/src/extra/widgets/colorwheel/../../../../src/hal/../draw/../misc/../font/../misc/lv_area.h **** #if LV_USE_LARGE_COORD
  25:Drivers/lvgl/lvgl/src/extra/widgets/colorwheel/../../../../src/hal/../draw/../misc/../font/../misc/lv_area.h **** typedef int32_t lv_coord_t;
  26:Drivers/lvgl/lvgl/src/extra/widgets/colorwheel/../../../../src/hal/../draw/../misc/../font/../misc/lv_area.h **** #else
  27:Drivers/lvgl/lvgl/src/extra/widgets/colorwheel/../../../../src/hal/../draw/../misc/../font/../misc/lv_area.h **** typedef int16_t lv_coord_t;
  28:Drivers/lvgl/lvgl/src/extra/widgets/colorwheel/../../../../src/hal/../draw/../misc/../font/../misc/lv_area.h **** #endif
  29:Drivers/lvgl/lvgl/src/extra/widgets/colorwheel/../../../../src/hal/../draw/../misc/../font/../misc/lv_area.h **** 
  30:Drivers/lvgl/lvgl/src/extra/widgets/colorwheel/../../../../src/hal/../draw/../misc/../font/../misc/lv_area.h **** /**********************
  31:Drivers/lvgl/lvgl/src/extra/widgets/colorwheel/../../../../src/hal/../draw/../misc/../font/../misc/lv_area.h ****  *      TYPEDEFS
  32:Drivers/lvgl/lvgl/src/extra/widgets/colorwheel/../../../../src/hal/../draw/../misc/../font/../misc/lv_area.h ****  **********************/
  33:Drivers/lvgl/lvgl/src/extra/widgets/colorwheel/../../../../src/hal/../draw/../misc/../font/../misc/lv_area.h **** 
  34:Drivers/lvgl/lvgl/src/extra/widgets/colorwheel/../../../../src/hal/../draw/../misc/../font/../misc/lv_area.h **** /**
  35:Drivers/lvgl/lvgl/src/extra/widgets/colorwheel/../../../../src/hal/../draw/../misc/../font/../misc/lv_area.h ****  * Represents a point on the screen.
  36:Drivers/lvgl/lvgl/src/extra/widgets/colorwheel/../../../../src/hal/../draw/../misc/../font/../misc/lv_area.h ****  */
  37:Drivers/lvgl/lvgl/src/extra/widgets/colorwheel/../../../../src/hal/../draw/../misc/../font/../misc/lv_area.h **** typedef struct {
  38:Drivers/lvgl/lvgl/src/extra/widgets/colorwheel/../../../../src/hal/../draw/../misc/../font/../misc/lv_area.h ****     lv_coord_t x;
  39:Drivers/lvgl/lvgl/src/extra/widgets/colorwheel/../../../../src/hal/../draw/../misc/../font/../misc/lv_area.h ****     lv_coord_t y;
  40:Drivers/lvgl/lvgl/src/extra/widgets/colorwheel/../../../../src/hal/../draw/../misc/../font/../misc/lv_area.h **** } lv_point_t;
  41:Drivers/lvgl/lvgl/src/extra/widgets/colorwheel/../../../../src/hal/../draw/../misc/../font/../misc/lv_area.h **** 
  42:Drivers/lvgl/lvgl/src/extra/widgets/colorwheel/../../../../src/hal/../draw/../misc/../font/../misc/lv_area.h **** /** Represents an area of the screen.*/
ARM GAS  /tmp/ccbjN9K1.s 			page 50


  43:Drivers/lvgl/lvgl/src/extra/widgets/colorwheel/../../../../src/hal/../draw/../misc/../font/../misc/lv_area.h **** typedef struct {
  44:Drivers/lvgl/lvgl/src/extra/widgets/colorwheel/../../../../src/hal/../draw/../misc/../font/../misc/lv_area.h ****     lv_coord_t x1;
  45:Drivers/lvgl/lvgl/src/extra/widgets/colorwheel/../../../../src/hal/../draw/../misc/../font/../misc/lv_area.h ****     lv_coord_t y1;
  46:Drivers/lvgl/lvgl/src/extra/widgets/colorwheel/../../../../src/hal/../draw/../misc/../font/../misc/lv_area.h ****     lv_coord_t x2;
  47:Drivers/lvgl/lvgl/src/extra/widgets/colorwheel/../../../../src/hal/../draw/../misc/../font/../misc/lv_area.h ****     lv_coord_t y2;
  48:Drivers/lvgl/lvgl/src/extra/widgets/colorwheel/../../../../src/hal/../draw/../misc/../font/../misc/lv_area.h **** } lv_area_t;
  49:Drivers/lvgl/lvgl/src/extra/widgets/colorwheel/../../../../src/hal/../draw/../misc/../font/../misc/lv_area.h **** 
  50:Drivers/lvgl/lvgl/src/extra/widgets/colorwheel/../../../../src/hal/../draw/../misc/../font/../misc/lv_area.h **** /** Alignments*/
  51:Drivers/lvgl/lvgl/src/extra/widgets/colorwheel/../../../../src/hal/../draw/../misc/../font/../misc/lv_area.h **** enum {
  52:Drivers/lvgl/lvgl/src/extra/widgets/colorwheel/../../../../src/hal/../draw/../misc/../font/../misc/lv_area.h ****     LV_ALIGN_DEFAULT = 0,
  53:Drivers/lvgl/lvgl/src/extra/widgets/colorwheel/../../../../src/hal/../draw/../misc/../font/../misc/lv_area.h ****     LV_ALIGN_TOP_LEFT,
  54:Drivers/lvgl/lvgl/src/extra/widgets/colorwheel/../../../../src/hal/../draw/../misc/../font/../misc/lv_area.h ****     LV_ALIGN_TOP_MID,
  55:Drivers/lvgl/lvgl/src/extra/widgets/colorwheel/../../../../src/hal/../draw/../misc/../font/../misc/lv_area.h ****     LV_ALIGN_TOP_RIGHT,
  56:Drivers/lvgl/lvgl/src/extra/widgets/colorwheel/../../../../src/hal/../draw/../misc/../font/../misc/lv_area.h ****     LV_ALIGN_BOTTOM_LEFT,
  57:Drivers/lvgl/lvgl/src/extra/widgets/colorwheel/../../../../src/hal/../draw/../misc/../font/../misc/lv_area.h ****     LV_ALIGN_BOTTOM_MID,
  58:Drivers/lvgl/lvgl/src/extra/widgets/colorwheel/../../../../src/hal/../draw/../misc/../font/../misc/lv_area.h ****     LV_ALIGN_BOTTOM_RIGHT,
  59:Drivers/lvgl/lvgl/src/extra/widgets/colorwheel/../../../../src/hal/../draw/../misc/../font/../misc/lv_area.h ****     LV_ALIGN_LEFT_MID,
  60:Drivers/lvgl/lvgl/src/extra/widgets/colorwheel/../../../../src/hal/../draw/../misc/../font/../misc/lv_area.h ****     LV_ALIGN_RIGHT_MID,
  61:Drivers/lvgl/lvgl/src/extra/widgets/colorwheel/../../../../src/hal/../draw/../misc/../font/../misc/lv_area.h ****     LV_ALIGN_CENTER,
  62:Drivers/lvgl/lvgl/src/extra/widgets/colorwheel/../../../../src/hal/../draw/../misc/../font/../misc/lv_area.h **** 
  63:Drivers/lvgl/lvgl/src/extra/widgets/colorwheel/../../../../src/hal/../draw/../misc/../font/../misc/lv_area.h ****     LV_ALIGN_OUT_TOP_LEFT,
  64:Drivers/lvgl/lvgl/src/extra/widgets/colorwheel/../../../../src/hal/../draw/../misc/../font/../misc/lv_area.h ****     LV_ALIGN_OUT_TOP_MID,
  65:Drivers/lvgl/lvgl/src/extra/widgets/colorwheel/../../../../src/hal/../draw/../misc/../font/../misc/lv_area.h ****     LV_ALIGN_OUT_TOP_RIGHT,
  66:Drivers/lvgl/lvgl/src/extra/widgets/colorwheel/../../../../src/hal/../draw/../misc/../font/../misc/lv_area.h ****     LV_ALIGN_OUT_BOTTOM_LEFT,
  67:Drivers/lvgl/lvgl/src/extra/widgets/colorwheel/../../../../src/hal/../draw/../misc/../font/../misc/lv_area.h ****     LV_ALIGN_OUT_BOTTOM_MID,
  68:Drivers/lvgl/lvgl/src/extra/widgets/colorwheel/../../../../src/hal/../draw/../misc/../font/../misc/lv_area.h ****     LV_ALIGN_OUT_BOTTOM_RIGHT,
  69:Drivers/lvgl/lvgl/src/extra/widgets/colorwheel/../../../../src/hal/../draw/../misc/../font/../misc/lv_area.h ****     LV_ALIGN_OUT_LEFT_TOP,
  70:Drivers/lvgl/lvgl/src/extra/widgets/colorwheel/../../../../src/hal/../draw/../misc/../font/../misc/lv_area.h ****     LV_ALIGN_OUT_LEFT_MID,
  71:Drivers/lvgl/lvgl/src/extra/widgets/colorwheel/../../../../src/hal/../draw/../misc/../font/../misc/lv_area.h ****     LV_ALIGN_OUT_LEFT_BOTTOM,
  72:Drivers/lvgl/lvgl/src/extra/widgets/colorwheel/../../../../src/hal/../draw/../misc/../font/../misc/lv_area.h ****     LV_ALIGN_OUT_RIGHT_TOP,
  73:Drivers/lvgl/lvgl/src/extra/widgets/colorwheel/../../../../src/hal/../draw/../misc/../font/../misc/lv_area.h ****     LV_ALIGN_OUT_RIGHT_MID,
  74:Drivers/lvgl/lvgl/src/extra/widgets/colorwheel/../../../../src/hal/../draw/../misc/../font/../misc/lv_area.h ****     LV_ALIGN_OUT_RIGHT_BOTTOM,
  75:Drivers/lvgl/lvgl/src/extra/widgets/colorwheel/../../../../src/hal/../draw/../misc/../font/../misc/lv_area.h **** };
  76:Drivers/lvgl/lvgl/src/extra/widgets/colorwheel/../../../../src/hal/../draw/../misc/../font/../misc/lv_area.h **** typedef uint8_t lv_align_t;
  77:Drivers/lvgl/lvgl/src/extra/widgets/colorwheel/../../../../src/hal/../draw/../misc/../font/../misc/lv_area.h **** 
  78:Drivers/lvgl/lvgl/src/extra/widgets/colorwheel/../../../../src/hal/../draw/../misc/../font/../misc/lv_area.h **** enum {
  79:Drivers/lvgl/lvgl/src/extra/widgets/colorwheel/../../../../src/hal/../draw/../misc/../font/../misc/lv_area.h ****     LV_DIR_NONE     = 0x00,
  80:Drivers/lvgl/lvgl/src/extra/widgets/colorwheel/../../../../src/hal/../draw/../misc/../font/../misc/lv_area.h ****     LV_DIR_LEFT     = (1 << 0),
  81:Drivers/lvgl/lvgl/src/extra/widgets/colorwheel/../../../../src/hal/../draw/../misc/../font/../misc/lv_area.h ****     LV_DIR_RIGHT    = (1 << 1),
  82:Drivers/lvgl/lvgl/src/extra/widgets/colorwheel/../../../../src/hal/../draw/../misc/../font/../misc/lv_area.h ****     LV_DIR_TOP      = (1 << 2),
  83:Drivers/lvgl/lvgl/src/extra/widgets/colorwheel/../../../../src/hal/../draw/../misc/../font/../misc/lv_area.h ****     LV_DIR_BOTTOM   = (1 << 3),
  84:Drivers/lvgl/lvgl/src/extra/widgets/colorwheel/../../../../src/hal/../draw/../misc/../font/../misc/lv_area.h ****     LV_DIR_HOR      = LV_DIR_LEFT | LV_DIR_RIGHT,
  85:Drivers/lvgl/lvgl/src/extra/widgets/colorwheel/../../../../src/hal/../draw/../misc/../font/../misc/lv_area.h ****     LV_DIR_VER      = LV_DIR_TOP | LV_DIR_BOTTOM,
  86:Drivers/lvgl/lvgl/src/extra/widgets/colorwheel/../../../../src/hal/../draw/../misc/../font/../misc/lv_area.h ****     LV_DIR_ALL      = LV_DIR_HOR | LV_DIR_VER,
  87:Drivers/lvgl/lvgl/src/extra/widgets/colorwheel/../../../../src/hal/../draw/../misc/../font/../misc/lv_area.h **** };
  88:Drivers/lvgl/lvgl/src/extra/widgets/colorwheel/../../../../src/hal/../draw/../misc/../font/../misc/lv_area.h **** 
  89:Drivers/lvgl/lvgl/src/extra/widgets/colorwheel/../../../../src/hal/../draw/../misc/../font/../misc/lv_area.h **** typedef uint8_t lv_dir_t;
  90:Drivers/lvgl/lvgl/src/extra/widgets/colorwheel/../../../../src/hal/../draw/../misc/../font/../misc/lv_area.h **** 
  91:Drivers/lvgl/lvgl/src/extra/widgets/colorwheel/../../../../src/hal/../draw/../misc/../font/../misc/lv_area.h **** /**********************
  92:Drivers/lvgl/lvgl/src/extra/widgets/colorwheel/../../../../src/hal/../draw/../misc/../font/../misc/lv_area.h ****  * GLOBAL PROTOTYPES
  93:Drivers/lvgl/lvgl/src/extra/widgets/colorwheel/../../../../src/hal/../draw/../misc/../font/../misc/lv_area.h ****  **********************/
  94:Drivers/lvgl/lvgl/src/extra/widgets/colorwheel/../../../../src/hal/../draw/../misc/../font/../misc/lv_area.h **** 
  95:Drivers/lvgl/lvgl/src/extra/widgets/colorwheel/../../../../src/hal/../draw/../misc/../font/../misc/lv_area.h **** /**
  96:Drivers/lvgl/lvgl/src/extra/widgets/colorwheel/../../../../src/hal/../draw/../misc/../font/../misc/lv_area.h ****  * Initialize an area
  97:Drivers/lvgl/lvgl/src/extra/widgets/colorwheel/../../../../src/hal/../draw/../misc/../font/../misc/lv_area.h ****  * @param area_p pointer to an area
  98:Drivers/lvgl/lvgl/src/extra/widgets/colorwheel/../../../../src/hal/../draw/../misc/../font/../misc/lv_area.h ****  * @param x1 left coordinate of the area
  99:Drivers/lvgl/lvgl/src/extra/widgets/colorwheel/../../../../src/hal/../draw/../misc/../font/../misc/lv_area.h ****  * @param y1 top coordinate of the area
ARM GAS  /tmp/ccbjN9K1.s 			page 51


 100:Drivers/lvgl/lvgl/src/extra/widgets/colorwheel/../../../../src/hal/../draw/../misc/../font/../misc/lv_area.h ****  * @param x2 right coordinate of the area
 101:Drivers/lvgl/lvgl/src/extra/widgets/colorwheel/../../../../src/hal/../draw/../misc/../font/../misc/lv_area.h ****  * @param y2 bottom coordinate of the area
 102:Drivers/lvgl/lvgl/src/extra/widgets/colorwheel/../../../../src/hal/../draw/../misc/../font/../misc/lv_area.h ****  */
 103:Drivers/lvgl/lvgl/src/extra/widgets/colorwheel/../../../../src/hal/../draw/../misc/../font/../misc/lv_area.h **** void lv_area_set(lv_area_t * area_p, lv_coord_t x1, lv_coord_t y1, lv_coord_t x2, lv_coord_t y2);
 104:Drivers/lvgl/lvgl/src/extra/widgets/colorwheel/../../../../src/hal/../draw/../misc/../font/../misc/lv_area.h **** 
 105:Drivers/lvgl/lvgl/src/extra/widgets/colorwheel/../../../../src/hal/../draw/../misc/../font/../misc/lv_area.h **** /**
 106:Drivers/lvgl/lvgl/src/extra/widgets/colorwheel/../../../../src/hal/../draw/../misc/../font/../misc/lv_area.h ****  * Copy an area
 107:Drivers/lvgl/lvgl/src/extra/widgets/colorwheel/../../../../src/hal/../draw/../misc/../font/../misc/lv_area.h ****  * @param dest pointer to the destination area
 108:Drivers/lvgl/lvgl/src/extra/widgets/colorwheel/../../../../src/hal/../draw/../misc/../font/../misc/lv_area.h ****  * @param src pointer to the source area
 109:Drivers/lvgl/lvgl/src/extra/widgets/colorwheel/../../../../src/hal/../draw/../misc/../font/../misc/lv_area.h ****  */
 110:Drivers/lvgl/lvgl/src/extra/widgets/colorwheel/../../../../src/hal/../draw/../misc/../font/../misc/lv_area.h **** inline static void lv_area_copy(lv_area_t * dest, const lv_area_t * src)
 111:Drivers/lvgl/lvgl/src/extra/widgets/colorwheel/../../../../src/hal/../draw/../misc/../font/../misc/lv_area.h **** {
 112:Drivers/lvgl/lvgl/src/extra/widgets/colorwheel/../../../../src/hal/../draw/../misc/../font/../misc/lv_area.h ****     dest->x1 = src->x1;
 931              		.loc 5 112 0
 932 00aa 2B46     		mov	r3, r5
 933 00ac B5F91450 		ldrsh	r5, [r5, #20]
 934              	.LVL121:
 113:Drivers/lvgl/lvgl/src/extra/widgets/colorwheel/../../../../src/hal/../draw/../misc/../font/../misc/lv_area.h ****     dest->y1 = src->y1;
 935              		.loc 5 113 0
 936 00b0 B3F91610 		ldrsh	r1, [r3, #22]
 114:Drivers/lvgl/lvgl/src/extra/widgets/colorwheel/../../../../src/hal/../draw/../misc/../font/../misc/lv_area.h ****     dest->x2 = src->x2;
 937              		.loc 5 114 0
 938 00b4 B3F91800 		ldrsh	r0, [r3, #24]
 115:Drivers/lvgl/lvgl/src/extra/widgets/colorwheel/../../../../src/hal/../draw/../misc/../font/../misc/lv_area.h ****     dest->y2 = src->y2;
 939              		.loc 5 115 0
 940 00b8 B3F91A20 		ldrsh	r2, [r3, #26]
 941              	.LVL122:
 942              	.LBE71:
 943              	.LBE70:
 270:Drivers/lvgl/lvgl/src/extra/widgets/colorwheel/lv_colorwheel.c ****     mask_area.x2 -= cir_w;
 944              		.loc 1 270 0
 945 00bc A3B2     		uxth	r3, r4
 946 00be 5C19     		adds	r4, r3, r5
 947 00c0 ADF83C40 		strh	r4, [sp, #60]	@ movhi
 271:Drivers/lvgl/lvgl/src/extra/widgets/colorwheel/lv_colorwheel.c ****     mask_area.y1 += cir_w;
 948              		.loc 1 271 0
 949 00c4 C01A     		subs	r0, r0, r3
 950 00c6 ADF84000 		strh	r0, [sp, #64]	@ movhi
 272:Drivers/lvgl/lvgl/src/extra/widgets/colorwheel/lv_colorwheel.c ****     mask_area.y2 -= cir_w;
 951              		.loc 1 272 0
 952 00ca 1944     		add	r1, r1, r3
 953 00cc ADF83E10 		strh	r1, [sp, #62]	@ movhi
 273:Drivers/lvgl/lvgl/src/extra/widgets/colorwheel/lv_colorwheel.c ****     lv_draw_mask_radius_param_t mask_in_param;
 954              		.loc 1 273 0
 955 00d0 D31A     		subs	r3, r2, r3
 956 00d2 ADF84230 		strh	r3, [sp, #66]	@ movhi
 275:Drivers/lvgl/lvgl/src/extra/widgets/colorwheel/lv_colorwheel.c ****     int16_t mask_in_id = lv_draw_mask_add(&mask_in_param, 0);
 957              		.loc 1 275 0
 958 00d6 0123     		movs	r3, #1
 959 00d8 47F6FF72 		movw	r2, #32767
 960 00dc 0FA9     		add	r1, sp, #60
 961 00de 09A8     		add	r0, sp, #36
 962 00e0 FFF7FEFF 		bl	lv_draw_mask_radius_init
 963              	.LVL123:
 276:Drivers/lvgl/lvgl/src/extra/widgets/colorwheel/lv_colorwheel.c **** 
 964              		.loc 1 276 0
 965 00e4 0021     		movs	r1, #0
ARM GAS  /tmp/ccbjN9K1.s 			page 52


 966 00e6 09A8     		add	r0, sp, #36
 967 00e8 FFF7FEFF 		bl	lv_draw_mask_add
 968              	.LVL124:
 969 00ec 0590     		str	r0, [sp, #20]
 970              	.LVL125:
 280:Drivers/lvgl/lvgl/src/extra/widgets/colorwheel/lv_colorwheel.c **** #else
 971              		.loc 1 280 0
 972 00ee BDF95EB0 		ldrsh	fp, [sp, #94]
 973              	.LVL126:
 259:Drivers/lvgl/lvgl/src/extra/widgets/colorwheel/lv_colorwheel.c ****     lv_coord_t cir_w = lv_obj_get_style_arc_width(obj, LV_PART_MAIN);
 974              		.loc 1 259 0
 975 00f2 4FF00008 		mov	r8, #0
 285:Drivers/lvgl/lvgl/src/extra/widgets/colorwheel/lv_colorwheel.c ****         line_dsc.color = angle_to_mode_color_fast(obj, i);
 976              		.loc 1 285 0
 977 00f6 4646     		mov	r6, r8
 978 00f8 45E0     		b	.L49
 979              	.LVL127:
 980              	.L52:
 248:Drivers/lvgl/lvgl/src/extra/widgets/colorwheel/lv_colorwheel.c ****     lv_coord_t cy = obj->coords.y1 + h / 2;
 981              		.loc 1 248 0
 982 00fa 6B1C     		adds	r3, r5, #1
 983 00fc 99E7     		b	.L47
 984              	.LVL128:
 985              	.L53:
 249:Drivers/lvgl/lvgl/src/extra/widgets/colorwheel/lv_colorwheel.c ****     lv_coord_t r = w / 2;
 986              		.loc 1 249 0
 987 00fe 431C     		adds	r3, r0, #1
 988 0100 A2E7     		b	.L48
 989              	.LVL129:
 990              	.L50:
 991              	.LBB72:
 286:Drivers/lvgl/lvgl/src/extra/widgets/colorwheel/lv_colorwheel.c ****         uint16_t angle_trigo = (uint16_t)(a >> 8); /*i * 360 / 256 is the scale to apply, but we ca
 992              		.loc 1 286 0 discriminator 3
 993 0102 3146     		mov	r1, r6
 994 0104 0198     		ldr	r0, [sp, #4]
 995 0106 FFF7FEFF 		bl	angle_to_mode_color_fast
 996              	.LVL130:
 997 010a ADF85C00 		strh	r0, [sp, #92]	@ movhi
 287:Drivers/lvgl/lvgl/src/extra/widgets/colorwheel/lv_colorwheel.c **** 
 998              		.loc 1 287 0 discriminator 3
 999 010e 4FEA1827 		lsr	r7, r8, #8
 1000 0112 BDB2     		uxth	r5, r7
 1001              	.LVL131:
 290:Drivers/lvgl/lvgl/src/extra/widgets/colorwheel/lv_colorwheel.c ****         p[0].y = cy + ((r + cir_w_extra) * lv_trigo_cos(angle_trigo) >> LV_TRIGO_SHIFT);
 1002              		.loc 1 290 0 discriminator 3
 1003 0114 009B     		ldr	r3, [sp]
 1004 0116 03EB0B04 		add	r4, r3, fp
 1005 011a 3FB2     		sxth	r7, r7
 1006 011c 3846     		mov	r0, r7
 1007 011e FFF7FEFF 		bl	lv_trigo_sin
 1008              	.LVL132:
 1009 0122 00FB04F0 		mul	r0, r0, r4
 1010 0126 0AEBE030 		add	r0, r10, r0, asr #15
 1011 012a ADF81C00 		strh	r0, [sp, #28]	@ movhi
 1012              	.LVL133:
 1013              	.LBB73:
 1014              	.LBB74:
ARM GAS  /tmp/ccbjN9K1.s 			page 53


 1015              		.loc 4 51 0 discriminator 3
 1016 012e 5A35     		adds	r5, r5, #90
 1017              	.LVL134:
 1018 0130 2DB2     		sxth	r5, r5
 1019              	.LVL135:
 1020 0132 2846     		mov	r0, r5
 1021 0134 FFF7FEFF 		bl	lv_trigo_sin
 1022              	.LVL136:
 1023              	.LBE74:
 1024              	.LBE73:
 291:Drivers/lvgl/lvgl/src/extra/widgets/colorwheel/lv_colorwheel.c ****         p[1].x = cx + ((r - cir_w - cir_w_extra) * lv_trigo_sin(angle_trigo) >> LV_TRIGO_SHIFT);
 1025              		.loc 1 291 0 discriminator 3
 1026 0138 00FB04F0 		mul	r0, r0, r4
 1027 013c 09EBE030 		add	r0, r9, r0, asr #15
 1028 0140 ADF81E00 		strh	r0, [sp, #30]	@ movhi
 292:Drivers/lvgl/lvgl/src/extra/widgets/colorwheel/lv_colorwheel.c ****         p[1].y = cy + ((r - cir_w - cir_w_extra) * lv_trigo_cos(angle_trigo) >> LV_TRIGO_SHIFT);
 1029              		.loc 1 292 0 discriminator 3
 1030 0144 009B     		ldr	r3, [sp]
 1031 0146 039A     		ldr	r2, [sp, #12]
 1032 0148 9C1A     		subs	r4, r3, r2
 1033 014a A4EB0B04 		sub	r4, r4, fp
 1034 014e 3846     		mov	r0, r7
 1035 0150 FFF7FEFF 		bl	lv_trigo_sin
 1036              	.LVL137:
 1037 0154 00FB04F0 		mul	r0, r0, r4
 1038 0158 0AEBE030 		add	r0, r10, r0, asr #15
 1039 015c ADF82000 		strh	r0, [sp, #32]	@ movhi
 1040              	.LVL138:
 1041              	.LBB75:
 1042              	.LBB76:
 1043              		.loc 4 51 0 discriminator 3
 1044 0160 2846     		mov	r0, r5
 1045 0162 FFF7FEFF 		bl	lv_trigo_sin
 1046              	.LVL139:
 1047              	.LBE76:
 1048              	.LBE75:
 293:Drivers/lvgl/lvgl/src/extra/widgets/colorwheel/lv_colorwheel.c **** 
 1049              		.loc 1 293 0 discriminator 3
 1050 0166 00FB04F0 		mul	r0, r0, r4
 1051 016a 09EBE030 		add	r0, r9, r0, asr #15
 1052 016e ADF82200 		strh	r0, [sp, #34]	@ movhi
 295:Drivers/lvgl/lvgl/src/extra/widgets/colorwheel/lv_colorwheel.c ****     }
 1053              		.loc 1 295 0 discriminator 3
 1054 0172 08AB     		add	r3, sp, #32
 1055 0174 07AA     		add	r2, sp, #28
 1056 0176 17A9     		add	r1, sp, #92
 1057 0178 0298     		ldr	r0, [sp, #8]
 1058 017a FFF7FEFF 		bl	lv_draw_line
 1059              	.LVL140:
 1060              	.LBE72:
 285:Drivers/lvgl/lvgl/src/extra/widgets/colorwheel/lv_colorwheel.c ****         line_dsc.color = angle_to_mode_color_fast(obj, i);
 1061              		.loc 1 285 0 discriminator 3
 1062 017e 0336     		adds	r6, r6, #3
 1063              	.LVL141:
 1064 0180 B6B2     		uxth	r6, r6
 1065              	.LVL142:
 1066 0182 08F58768 		add	r8, r8, #1080
ARM GAS  /tmp/ccbjN9K1.s 			page 54


 1067              	.LVL143:
 1068              	.L49:
 285:Drivers/lvgl/lvgl/src/extra/widgets/colorwheel/lv_colorwheel.c ****         line_dsc.color = angle_to_mode_color_fast(obj, i);
 1069              		.loc 1 285 0 is_stmt 0 discriminator 1
 1070 0186 B6F5807F 		cmp	r6, #256
 1071 018a BAD9     		bls	.L50
 299:Drivers/lvgl/lvgl/src/extra/widgets/colorwheel/lv_colorwheel.c ****     lv_draw_mask_free_param(&mask_in_param);
 1072              		.loc 1 299 0 is_stmt 1
 1073 018c 11A8     		add	r0, sp, #68
 1074 018e FFF7FEFF 		bl	lv_draw_mask_free_param
 1075              	.LVL144:
 300:Drivers/lvgl/lvgl/src/extra/widgets/colorwheel/lv_colorwheel.c ****     lv_draw_mask_remove_id(mask_out_id);
 1076              		.loc 1 300 0
 1077 0192 09A8     		add	r0, sp, #36
 1078 0194 FFF7FEFF 		bl	lv_draw_mask_free_param
 1079              	.LVL145:
 301:Drivers/lvgl/lvgl/src/extra/widgets/colorwheel/lv_colorwheel.c ****     lv_draw_mask_remove_id(mask_in_id);
 1080              		.loc 1 301 0
 1081 0198 0498     		ldr	r0, [sp, #16]
 1082 019a FFF7FEFF 		bl	lv_draw_mask_remove_id
 1083              	.LVL146:
 302:Drivers/lvgl/lvgl/src/extra/widgets/colorwheel/lv_colorwheel.c **** #endif
 1084              		.loc 1 302 0
 1085 019e 0598     		ldr	r0, [sp, #20]
 1086 01a0 FFF7FEFF 		bl	lv_draw_mask_remove_id
 1087              	.LVL147:
 304:Drivers/lvgl/lvgl/src/extra/widgets/colorwheel/lv_colorwheel.c **** 
 1088              		.loc 1 304 0
 1089 01a4 1BB0     		add	sp, sp, #108
 1090              	.LCFI14:
 1091              		.cfi_def_cfa_offset 36
 1092              		@ sp needed
 1093 01a6 BDE8F08F 		pop	{r4, r5, r6, r7, r8, r9, r10, fp, pc}
 1094              	.LVL148:
 1095              	.L55:
 1096 01aa 00BF     		.align	2
 1097              	.L54:
 1098 01ac 53A45C7B 		.word	2069668947
 1099              		.cfi_endproc
 1100              	.LFE212:
 1102              		.section	.text.lv_colorwheel_constructor,"ax",%progbits
 1103              		.align	1
 1104              		.syntax unified
 1105              		.thumb
 1106              		.thumb_func
 1107              		.fpu fpv5-d16
 1109              	lv_colorwheel_constructor:
 1110              	.LFB211:
 225:Drivers/lvgl/lvgl/src/extra/widgets/colorwheel/lv_colorwheel.c ****     LV_UNUSED(class_p);
 1111              		.loc 1 225 0
 1112              		.cfi_startproc
 1113              		@ args = 0, pretend = 0, frame = 0
 1114              		@ frame_needed = 0, uses_anonymous_args = 0
 1115              	.LVL149:
 1116 0000 10B5     		push	{r4, lr}
 1117              	.LCFI15:
 1118              		.cfi_def_cfa_offset 8
ARM GAS  /tmp/ccbjN9K1.s 			page 55


 1119              		.cfi_offset 4, -8
 1120              		.cfi_offset 14, -4
 1121 0002 0C46     		mov	r4, r1
 1122              	.LVL150:
 228:Drivers/lvgl/lvgl/src/extra/widgets/colorwheel/lv_colorwheel.c ****     colorwheel->hsv.s = 100;
 1123              		.loc 1 228 0
 1124 0004 0023     		movs	r3, #0
 1125 0006 8B84     		strh	r3, [r1, #36]	@ movhi
 229:Drivers/lvgl/lvgl/src/extra/widgets/colorwheel/lv_colorwheel.c ****     colorwheel->hsv.v = 100;
 1126              		.loc 1 229 0
 1127 0008 6422     		movs	r2, #100
 1128 000a 81F82620 		strb	r2, [r1, #38]
 230:Drivers/lvgl/lvgl/src/extra/widgets/colorwheel/lv_colorwheel.c ****     colorwheel->mode = LV_COLORWHEEL_MODE_HUE;
 1129              		.loc 1 230 0
 1130 000e 81F82720 		strb	r2, [r1, #39]
 231:Drivers/lvgl/lvgl/src/extra/widgets/colorwheel/lv_colorwheel.c ****     colorwheel->mode_fixed = 0;
 1131              		.loc 1 231 0
 1132 0012 91F83C20 		ldrb	r2, [r1, #60]	@ zero_extendqisi2
 232:Drivers/lvgl/lvgl/src/extra/widgets/colorwheel/lv_colorwheel.c ****     colorwheel->last_click_time = 0;
 1133              		.loc 1 232 0
 1134 0016 02F0FC02 		and	r2, r2, #252
 1135 001a 63F38202 		bfi	r2, r3, #2, #1
 1136 001e 81F83C20 		strb	r2, [r1, #60]
 233:Drivers/lvgl/lvgl/src/extra/widgets/colorwheel/lv_colorwheel.c ****     colorwheel->last_change_time = 0;
 1137              		.loc 1 233 0
 1138 0022 0B63     		str	r3, [r1, #48]
 234:Drivers/lvgl/lvgl/src/extra/widgets/colorwheel/lv_colorwheel.c ****     colorwheel->knob.recolor = create_knob_recolor;
 1139              		.loc 1 234 0
 1140 0024 4B63     		str	r3, [r1, #52]
 235:Drivers/lvgl/lvgl/src/extra/widgets/colorwheel/lv_colorwheel.c **** 
 1141              		.loc 1 235 0
 1142 0026 91F82C30 		ldrb	r3, [r1, #44]	@ zero_extendqisi2
 1143 002a 0A4A     		ldr	r2, .L58
 1144 002c 1278     		ldrb	r2, [r2]	@ zero_extendqisi2
 1145 002e 62F30003 		bfi	r3, r2, #0, #1
 1146 0032 81F82C30 		strb	r3, [r1, #44]
 237:Drivers/lvgl/lvgl/src/extra/widgets/colorwheel/lv_colorwheel.c ****     lv_obj_clear_flag(obj, LV_OBJ_FLAG_SCROLL_CHAIN);
 1147              		.loc 1 237 0
 1148 0036 4FF48031 		mov	r1, #65536
 1149              	.LVL151:
 1150 003a 2046     		mov	r0, r4
 1151              	.LVL152:
 1152 003c FFF7FEFF 		bl	lv_obj_add_flag
 1153              	.LVL153:
 238:Drivers/lvgl/lvgl/src/extra/widgets/colorwheel/lv_colorwheel.c ****     refr_knob_pos(obj);
 1154              		.loc 1 238 0
 1155 0040 4FF44071 		mov	r1, #768
 1156 0044 2046     		mov	r0, r4
 1157 0046 FFF7FEFF 		bl	lv_obj_clear_flag
 1158              	.LVL154:
 239:Drivers/lvgl/lvgl/src/extra/widgets/colorwheel/lv_colorwheel.c **** }
 1159              		.loc 1 239 0
 1160 004a 2046     		mov	r0, r4
 1161 004c FFF7FEFF 		bl	refr_knob_pos
 1162              	.LVL155:
 240:Drivers/lvgl/lvgl/src/extra/widgets/colorwheel/lv_colorwheel.c **** 
 1163              		.loc 1 240 0
ARM GAS  /tmp/ccbjN9K1.s 			page 56


 1164 0050 10BD     		pop	{r4, pc}
 1165              	.LVL156:
 1166              	.L59:
 1167 0052 00BF     		.align	2
 1168              	.L58:
 1169 0054 00000000 		.word	.LANCHOR5
 1170              		.cfi_endproc
 1171              	.LFE211:
 1173              		.section	.text.lv_colorwheel_create,"ax",%progbits
 1174              		.align	1
 1175              		.global	lv_colorwheel_create
 1176              		.syntax unified
 1177              		.thumb
 1178              		.thumb_func
 1179              		.fpu fpv5-d16
 1181              	lv_colorwheel_create:
 1182              	.LFB202:
  78:Drivers/lvgl/lvgl/src/extra/widgets/colorwheel/lv_colorwheel.c ****     LV_LOG_INFO("begin");
 1183              		.loc 1 78 0
 1184              		.cfi_startproc
 1185              		@ args = 0, pretend = 0, frame = 0
 1186              		@ frame_needed = 0, uses_anonymous_args = 0
 1187              	.LVL157:
 1188 0000 10B5     		push	{r4, lr}
 1189              	.LCFI16:
 1190              		.cfi_def_cfa_offset 8
 1191              		.cfi_offset 4, -8
 1192              		.cfi_offset 14, -4
  80:Drivers/lvgl/lvgl/src/extra/widgets/colorwheel/lv_colorwheel.c **** 
 1193              		.loc 1 80 0
 1194 0002 054B     		ldr	r3, .L62
 1195 0004 1970     		strb	r1, [r3]
  82:Drivers/lvgl/lvgl/src/extra/widgets/colorwheel/lv_colorwheel.c ****     lv_obj_class_init_obj(obj);
 1196              		.loc 1 82 0
 1197 0006 0146     		mov	r1, r0
 1198              	.LVL158:
 1199 0008 0448     		ldr	r0, .L62+4
 1200              	.LVL159:
 1201 000a FFF7FEFF 		bl	lv_obj_class_create_obj
 1202              	.LVL160:
 1203 000e 0446     		mov	r4, r0
 1204              	.LVL161:
  83:Drivers/lvgl/lvgl/src/extra/widgets/colorwheel/lv_colorwheel.c ****     return obj;
 1205              		.loc 1 83 0
 1206 0010 FFF7FEFF 		bl	lv_obj_class_init_obj
 1207              	.LVL162:
  85:Drivers/lvgl/lvgl/src/extra/widgets/colorwheel/lv_colorwheel.c **** 
 1208              		.loc 1 85 0
 1209 0014 2046     		mov	r0, r4
 1210 0016 10BD     		pop	{r4, pc}
 1211              	.LVL163:
 1212              	.L63:
 1213              		.align	2
 1214              	.L62:
 1215 0018 00000000 		.word	.LANCHOR5
 1216 001c 00000000 		.word	.LANCHOR6
 1217              		.cfi_endproc
ARM GAS  /tmp/ccbjN9K1.s 			page 57


 1218              	.LFE202:
 1220              		.section	.text.lv_colorwheel_set_hsv,"ax",%progbits
 1221              		.align	1
 1222              		.global	lv_colorwheel_set_hsv
 1223              		.syntax unified
 1224              		.thumb
 1225              		.thumb_func
 1226              		.fpu fpv5-d16
 1228              	lv_colorwheel_set_hsv:
 1229              	.LFB203:
  98:Drivers/lvgl/lvgl/src/extra/widgets/colorwheel/lv_colorwheel.c ****     if(hsv.h > 360) hsv.h %= 360;
 1230              		.loc 1 98 0
 1231              		.cfi_startproc
 1232              		@ args = 0, pretend = 0, frame = 8
 1233              		@ frame_needed = 0, uses_anonymous_args = 0
 1234              	.LVL164:
 1235 0000 10B5     		push	{r4, lr}
 1236              	.LCFI17:
 1237              		.cfi_def_cfa_offset 8
 1238              		.cfi_offset 4, -8
 1239              		.cfi_offset 14, -4
 1240 0002 82B0     		sub	sp, sp, #8
 1241              	.LCFI18:
 1242              		.cfi_def_cfa_offset 16
 1243 0004 0191     		str	r1, [sp, #4]
  99:Drivers/lvgl/lvgl/src/extra/widgets/colorwheel/lv_colorwheel.c ****     if(hsv.s > 100) hsv.s = 100;
 1244              		.loc 1 99 0
 1245 0006 89B2     		uxth	r1, r1
 1246 0008 B1F5B47F 		cmp	r1, #360
 1247 000c 0AD9     		bls	.L65
  99:Drivers/lvgl/lvgl/src/extra/widgets/colorwheel/lv_colorwheel.c ****     if(hsv.s > 100) hsv.s = 100;
 1248              		.loc 1 99 0 is_stmt 0 discriminator 1
 1249 000e CB08     		lsrs	r3, r1, #3
 1250 0010 174A     		ldr	r2, .L72
 1251 0012 A2FB0323 		umull	r2, r3, r2, r3
 1252 0016 9B08     		lsrs	r3, r3, #2
 1253 0018 4FF4B472 		mov	r2, #360
 1254 001c 02FB1311 		mls	r1, r2, r3, r1
 1255 0020 ADF80410 		strh	r1, [sp, #4]	@ movhi
 1256              	.L65:
 100:Drivers/lvgl/lvgl/src/extra/widgets/colorwheel/lv_colorwheel.c ****     if(hsv.v > 100) hsv.v = 100;
 1257              		.loc 1 100 0 is_stmt 1
 1258 0024 9DF80630 		ldrb	r3, [sp, #6]	@ zero_extendqisi2
 1259 0028 642B     		cmp	r3, #100
 1260 002a 02D9     		bls	.L66
 100:Drivers/lvgl/lvgl/src/extra/widgets/colorwheel/lv_colorwheel.c ****     if(hsv.v > 100) hsv.v = 100;
 1261              		.loc 1 100 0 is_stmt 0 discriminator 1
 1262 002c 6423     		movs	r3, #100
 1263 002e 8DF80630 		strb	r3, [sp, #6]
 1264              	.L66:
 101:Drivers/lvgl/lvgl/src/extra/widgets/colorwheel/lv_colorwheel.c **** 
 1265              		.loc 1 101 0 is_stmt 1
 1266 0032 9DF80730 		ldrb	r3, [sp, #7]	@ zero_extendqisi2
 1267 0036 642B     		cmp	r3, #100
 1268 0038 02D9     		bls	.L67
 101:Drivers/lvgl/lvgl/src/extra/widgets/colorwheel/lv_colorwheel.c **** 
 1269              		.loc 1 101 0 is_stmt 0 discriminator 1
ARM GAS  /tmp/ccbjN9K1.s 			page 58


 1270 003a 6423     		movs	r3, #100
 1271 003c 8DF80730 		strb	r3, [sp, #7]
 1272              	.L67:
 1273              	.LVL165:
 106:Drivers/lvgl/lvgl/src/extra/widgets/colorwheel/lv_colorwheel.c **** 
 1274              		.loc 1 106 0 is_stmt 1
 1275 0040 828C     		ldrh	r2, [r0, #36]
 1276 0042 BDF80430 		ldrh	r3, [sp, #4]
 1277 0046 9A42     		cmp	r2, r3
 1278 0048 04D1     		bne	.L68
 106:Drivers/lvgl/lvgl/src/extra/widgets/colorwheel/lv_colorwheel.c **** 
 1279              		.loc 1 106 0 is_stmt 0 discriminator 1
 1280 004a C28C     		ldrh	r2, [r0, #38]
 1281 004c BDF80630 		ldrh	r3, [sp, #6]
 1282 0050 9A42     		cmp	r2, r3
 1283 0052 0AD0     		beq	.L70
 1284              	.L68:
 1285 0054 0446     		mov	r4, r0
 108:Drivers/lvgl/lvgl/src/extra/widgets/colorwheel/lv_colorwheel.c **** 
 1286              		.loc 1 108 0 is_stmt 1
 1287 0056 019B     		ldr	r3, [sp, #4]
 1288 0058 4362     		str	r3, [r0, #36]
 110:Drivers/lvgl/lvgl/src/extra/widgets/colorwheel/lv_colorwheel.c **** 
 1289              		.loc 1 110 0
 1290 005a FFF7FEFF 		bl	refr_knob_pos
 1291              	.LVL166:
 112:Drivers/lvgl/lvgl/src/extra/widgets/colorwheel/lv_colorwheel.c **** 
 1292              		.loc 1 112 0
 1293 005e 2046     		mov	r0, r4
 1294 0060 FFF7FEFF 		bl	lv_obj_invalidate
 1295              	.LVL167:
 114:Drivers/lvgl/lvgl/src/extra/widgets/colorwheel/lv_colorwheel.c **** }
 1296              		.loc 1 114 0
 1297 0064 0120     		movs	r0, #1
 1298              	.LVL168:
 1299              	.L69:
 115:Drivers/lvgl/lvgl/src/extra/widgets/colorwheel/lv_colorwheel.c **** 
 1300              		.loc 1 115 0
 1301 0066 02B0     		add	sp, sp, #8
 1302              	.LCFI19:
 1303              		.cfi_remember_state
 1304              		.cfi_def_cfa_offset 8
 1305              		@ sp needed
 1306 0068 10BD     		pop	{r4, pc}
 1307              	.LVL169:
 1308              	.L70:
 1309              	.LCFI20:
 1310              		.cfi_restore_state
 106:Drivers/lvgl/lvgl/src/extra/widgets/colorwheel/lv_colorwheel.c **** 
 1311              		.loc 1 106 0
 1312 006a 0020     		movs	r0, #0
 1313              	.LVL170:
 1314 006c FBE7     		b	.L69
 1315              	.L73:
 1316 006e 00BF     		.align	2
 1317              	.L72:
 1318 0070 176CC116 		.word	381774871
ARM GAS  /tmp/ccbjN9K1.s 			page 59


 1319              		.cfi_endproc
 1320              	.LFE203:
 1322              		.section	.text.double_click_reset,"ax",%progbits
 1323              		.align	1
 1324              		.syntax unified
 1325              		.thumb
 1326              		.thumb_func
 1327              		.fpu fpv5-d16
 1329              	double_click_reset:
 1330              	.LFB219:
 568:Drivers/lvgl/lvgl/src/extra/widgets/colorwheel/lv_colorwheel.c ****     lv_colorwheel_t * colorwheel = (lv_colorwheel_t *)obj;
 1331              		.loc 1 568 0
 1332              		.cfi_startproc
 1333              		@ args = 0, pretend = 0, frame = 8
 1334              		@ frame_needed = 0, uses_anonymous_args = 0
 1335              	.LVL171:
 1336 0000 30B5     		push	{r4, r5, lr}
 1337              	.LCFI21:
 1338              		.cfi_def_cfa_offset 12
 1339              		.cfi_offset 4, -12
 1340              		.cfi_offset 5, -8
 1341              		.cfi_offset 14, -4
 1342 0002 83B0     		sub	sp, sp, #12
 1343              	.LCFI22:
 1344              		.cfi_def_cfa_offset 24
 1345 0004 0446     		mov	r4, r0
 1346              	.LVL172:
 570:Drivers/lvgl/lvgl/src/extra/widgets/colorwheel/lv_colorwheel.c ****     /*Double clicked? Use long press time as double click time out*/
 1347              		.loc 1 570 0
 1348 0006 FFF7FEFF 		bl	lv_indev_get_act
 1349              	.LVL173:
 1350 000a 0546     		mov	r5, r0
 1351              	.LVL174:
 572:Drivers/lvgl/lvgl/src/extra/widgets/colorwheel/lv_colorwheel.c ****         lv_color_hsv_t hsv_cur;
 1352              		.loc 1 572 0
 1353 000c 206B     		ldr	r0, [r4, #48]
 1354              	.LVL175:
 1355 000e FFF7FEFF 		bl	lv_tick_elaps
 1356              	.LVL176:
 1357 0012 2B68     		ldr	r3, [r5]
 1358 0014 9B8B     		ldrh	r3, [r3, #28]
 1359 0016 9842     		cmp	r0, r3
 1360 0018 12D2     		bcs	.L75
 1361              	.LBB77:
 574:Drivers/lvgl/lvgl/src/extra/widgets/colorwheel/lv_colorwheel.c **** 
 1362              		.loc 1 574 0
 1363 001a 636A     		ldr	r3, [r4, #36]
 1364 001c 0193     		str	r3, [sp, #4]
 576:Drivers/lvgl/lvgl/src/extra/widgets/colorwheel/lv_colorwheel.c ****             case LV_COLORWHEEL_MODE_HUE:
 1365              		.loc 1 576 0
 1366 001e 94F83C30 		ldrb	r3, [r4, #60]	@ zero_extendqisi2
 1367 0022 03F00303 		and	r3, r3, #3
 1368 0026 012B     		cmp	r3, #1
 1369 0028 14D0     		beq	.L77
 1370 002a 7BB1     		cbz	r3, .L78
 1371 002c 022B     		cmp	r3, #2
 1372 002e 15D0     		beq	.L79
ARM GAS  /tmp/ccbjN9K1.s 			page 60


 1373              	.L76:
 588:Drivers/lvgl/lvgl/src/extra/widgets/colorwheel/lv_colorwheel.c **** 
 1374              		.loc 1 588 0
 1375 0030 2846     		mov	r0, r5
 1376 0032 FFF7FEFF 		bl	lv_indev_wait_release
 1377              	.LVL177:
 590:Drivers/lvgl/lvgl/src/extra/widgets/colorwheel/lv_colorwheel.c ****             lv_res_t res = lv_event_send(obj, LV_EVENT_VALUE_CHANGED, NULL);
 1378              		.loc 1 590 0
 1379 0036 0199     		ldr	r1, [sp, #4]
 1380 0038 2046     		mov	r0, r4
 1381 003a FFF7FEFF 		bl	lv_colorwheel_set_hsv
 1382              	.LVL178:
 1383 003e 88B9     		cbnz	r0, .L83
 1384              	.L75:
 1385              	.LBE77:
 595:Drivers/lvgl/lvgl/src/extra/widgets/colorwheel/lv_colorwheel.c **** 
 1386              		.loc 1 595 0
 1387 0040 FFF7FEFF 		bl	lv_tick_get
 1388              	.LVL179:
 1389 0044 2063     		str	r0, [r4, #48]
 597:Drivers/lvgl/lvgl/src/extra/widgets/colorwheel/lv_colorwheel.c **** }
 1390              		.loc 1 597 0
 1391 0046 0120     		movs	r0, #1
 1392              	.L81:
 598:Drivers/lvgl/lvgl/src/extra/widgets/colorwheel/lv_colorwheel.c **** 
 1393              		.loc 1 598 0
 1394 0048 03B0     		add	sp, sp, #12
 1395              	.LCFI23:
 1396              		.cfi_remember_state
 1397              		.cfi_def_cfa_offset 12
 1398              		@ sp needed
 1399 004a 30BD     		pop	{r4, r5, pc}
 1400              	.LVL180:
 1401              	.L78:
 1402              	.LCFI24:
 1403              		.cfi_restore_state
 1404              	.LBB79:
 578:Drivers/lvgl/lvgl/src/extra/widgets/colorwheel/lv_colorwheel.c ****                 break;
 1405              		.loc 1 578 0
 1406 004c 0023     		movs	r3, #0
 1407 004e ADF80430 		strh	r3, [sp, #4]	@ movhi
 579:Drivers/lvgl/lvgl/src/extra/widgets/colorwheel/lv_colorwheel.c ****             case LV_COLORWHEEL_MODE_SATURATION:
 1408              		.loc 1 579 0
 1409 0052 EDE7     		b	.L76
 1410              	.L77:
 581:Drivers/lvgl/lvgl/src/extra/widgets/colorwheel/lv_colorwheel.c ****                 break;
 1411              		.loc 1 581 0
 1412 0054 6423     		movs	r3, #100
 1413 0056 8DF80630 		strb	r3, [sp, #6]
 582:Drivers/lvgl/lvgl/src/extra/widgets/colorwheel/lv_colorwheel.c ****             case LV_COLORWHEEL_MODE_VALUE:
 1414              		.loc 1 582 0
 1415 005a E9E7     		b	.L76
 1416              	.L79:
 584:Drivers/lvgl/lvgl/src/extra/widgets/colorwheel/lv_colorwheel.c ****                 break;
 1417              		.loc 1 584 0
 1418 005c 6423     		movs	r3, #100
 1419 005e 8DF80730 		strb	r3, [sp, #7]
ARM GAS  /tmp/ccbjN9K1.s 			page 61


 585:Drivers/lvgl/lvgl/src/extra/widgets/colorwheel/lv_colorwheel.c ****         }
 1420              		.loc 1 585 0
 1421 0062 E5E7     		b	.L76
 1422              	.L83:
 1423              	.LBB78:
 591:Drivers/lvgl/lvgl/src/extra/widgets/colorwheel/lv_colorwheel.c ****             if(res != LV_RES_OK) return res;
 1424              		.loc 1 591 0
 1425 0064 0022     		movs	r2, #0
 1426 0066 1C21     		movs	r1, #28
 1427 0068 2046     		mov	r0, r4
 1428 006a FFF7FEFF 		bl	lv_event_send
 1429              	.LVL181:
 592:Drivers/lvgl/lvgl/src/extra/widgets/colorwheel/lv_colorwheel.c ****         }
 1430              		.loc 1 592 0
 1431 006e 0128     		cmp	r0, #1
 1432 0070 EAD1     		bne	.L81
 1433 0072 E5E7     		b	.L75
 1434              	.LBE78:
 1435              	.LBE79:
 1436              		.cfi_endproc
 1437              	.LFE219:
 1439              		.section	.text.lv_colorwheel_set_rgb,"ax",%progbits
 1440              		.align	1
 1441              		.global	lv_colorwheel_set_rgb
 1442              		.syntax unified
 1443              		.thumb
 1444              		.thumb_func
 1445              		.fpu fpv5-d16
 1447              	lv_colorwheel_set_rgb:
 1448              	.LFB204:
 124:Drivers/lvgl/lvgl/src/extra/widgets/colorwheel/lv_colorwheel.c ****     lv_color32_t c32;
 1449              		.loc 1 124 0
 1450              		.cfi_startproc
 1451              		@ args = 0, pretend = 0, frame = 8
 1452              		@ frame_needed = 0, uses_anonymous_args = 0
 1453              	.LVL182:
 1454 0000 10B5     		push	{r4, lr}
 1455              	.LCFI25:
 1456              		.cfi_def_cfa_offset 8
 1457              		.cfi_offset 4, -8
 1458              		.cfi_offset 14, -4
 1459 0002 82B0     		sub	sp, sp, #8
 1460              	.LCFI26:
 1461              		.cfi_def_cfa_offset 16
 1462 0004 0446     		mov	r4, r0
 1463              	.LBB80:
 1464              	.LBB81:
 420:Drivers/lvgl/lvgl/src/extra/widgets/colorwheel/../../../../src/hal/../draw/../misc/lv_color.h ****     LV_COLOR_SET_G32(ret, (LV_COLOR_GET_G(color) * 259 + 3) >> 6);
 1465              		.loc 2 420 0
 1466 0006 C1F3C423 		ubfx	r3, r1, #11, #5
 1467 000a 03EB4312 		add	r2, r3, r3, lsl #5
 1468 000e C3EBC203 		rsb	r3, r3, r2, lsl #3
 1469 0012 0733     		adds	r3, r3, #7
 1470 0014 C3F34713 		ubfx	r3, r3, #5, #8
 1471 0018 0020     		movs	r0, #0
 1472              	.LVL183:
 1473 001a 63F31740 		bfi	r0, r3, #16, #8
ARM GAS  /tmp/ccbjN9K1.s 			page 62


 1474              	.LVL184:
 421:Drivers/lvgl/lvgl/src/extra/widgets/colorwheel/../../../../src/hal/../draw/../misc/lv_color.h ****     LV_COLOR_SET_B32(ret, (LV_COLOR_GET_B(color) * 263 + 7) >> 5);
 1475              		.loc 2 421 0
 1476 001e C1F34513 		ubfx	r3, r1, #5, #6
 1477 0022 03EBC312 		add	r2, r3, r3, lsl #7
 1478 0026 03EB4203 		add	r3, r3, r2, lsl #1
 1479 002a 0333     		adds	r3, r3, #3
 1480 002c C3F38713 		ubfx	r3, r3, #6, #8
 1481 0030 63F30F20 		bfi	r0, r3, #8, #8
 422:Drivers/lvgl/lvgl/src/extra/widgets/colorwheel/../../../../src/hal/../draw/../misc/lv_color.h ****     LV_COLOR_SET_A32(ret, 0xFF);
 1482              		.loc 2 422 0
 1483 0034 01F01F01 		and	r1, r1, #31
 1484              	.LVL185:
 1485 0038 01EB4113 		add	r3, r1, r1, lsl #5
 1486 003c C1EBC301 		rsb	r1, r1, r3, lsl #3
 1487 0040 0731     		adds	r1, r1, #7
 1488 0042 C1F34711 		ubfx	r1, r1, #5, #8
 1489 0046 61F30700 		bfi	r0, r1, #0, #8
 423:Drivers/lvgl/lvgl/src/extra/widgets/colorwheel/../../../../src/hal/../draw/../misc/lv_color.h ****     return ret.full;
 1490              		.loc 2 423 0
 1491 004a 40F07F40 		orr	r0, r0, #-16777216
 1492              	.LVL186:
 1493              	.LBE81:
 1494              	.LBE80:
 128:Drivers/lvgl/lvgl/src/extra/widgets/colorwheel/lv_colorwheel.c **** }
 1495              		.loc 1 128 0
 1496 004e C2B2     		uxtb	r2, r0
 1497 0050 C0F30721 		ubfx	r1, r0, #8, #8
 1498 0054 C0F30740 		ubfx	r0, r0, #16, #8
 1499 0058 FFF7FEFF 		bl	lv_color_rgb_to_hsv
 1500              	.LVL187:
 1501 005c 0146     		mov	r1, r0
 1502 005e 2046     		mov	r0, r4
 1503 0060 FFF7FEFF 		bl	lv_colorwheel_set_hsv
 1504              	.LVL188:
 129:Drivers/lvgl/lvgl/src/extra/widgets/colorwheel/lv_colorwheel.c **** 
 1505              		.loc 1 129 0
 1506 0064 02B0     		add	sp, sp, #8
 1507              	.LCFI27:
 1508              		.cfi_def_cfa_offset 8
 1509              		@ sp needed
 1510 0066 10BD     		pop	{r4, pc}
 1511              		.cfi_endproc
 1512              	.LFE204:
 1514              		.section	.text.lv_colorwheel_set_mode,"ax",%progbits
 1515              		.align	1
 1516              		.global	lv_colorwheel_set_mode
 1517              		.syntax unified
 1518              		.thumb
 1519              		.thumb_func
 1520              		.fpu fpv5-d16
 1522              	lv_colorwheel_set_mode:
 1523              	.LFB205:
 137:Drivers/lvgl/lvgl/src/extra/widgets/colorwheel/lv_colorwheel.c ****     LV_ASSERT_OBJ(obj, MY_CLASS);
 1524              		.loc 1 137 0
 1525              		.cfi_startproc
 1526              		@ args = 0, pretend = 0, frame = 0
ARM GAS  /tmp/ccbjN9K1.s 			page 63


 1527              		@ frame_needed = 0, uses_anonymous_args = 0
 1528              	.LVL189:
 1529 0000 10B5     		push	{r4, lr}
 1530              	.LCFI28:
 1531              		.cfi_def_cfa_offset 8
 1532              		.cfi_offset 4, -8
 1533              		.cfi_offset 14, -4
 1534 0002 0446     		mov	r4, r0
 1535              	.LVL190:
 141:Drivers/lvgl/lvgl/src/extra/widgets/colorwheel/lv_colorwheel.c ****     refr_knob_pos(obj);
 1536              		.loc 1 141 0
 1537 0004 90F83C30 		ldrb	r3, [r0, #60]	@ zero_extendqisi2
 1538 0008 61F30103 		bfi	r3, r1, #0, #2
 1539 000c 80F83C30 		strb	r3, [r0, #60]
 142:Drivers/lvgl/lvgl/src/extra/widgets/colorwheel/lv_colorwheel.c ****     lv_obj_invalidate(obj);
 1540              		.loc 1 142 0
 1541 0010 FFF7FEFF 		bl	refr_knob_pos
 1542              	.LVL191:
 143:Drivers/lvgl/lvgl/src/extra/widgets/colorwheel/lv_colorwheel.c **** }
 1543              		.loc 1 143 0
 1544 0014 2046     		mov	r0, r4
 1545 0016 FFF7FEFF 		bl	lv_obj_invalidate
 1546              	.LVL192:
 144:Drivers/lvgl/lvgl/src/extra/widgets/colorwheel/lv_colorwheel.c **** 
 1547              		.loc 1 144 0
 1548 001a 10BD     		pop	{r4, pc}
 1549              		.cfi_endproc
 1550              	.LFE205:
 1552              		.section	.text.lv_colorwheel_set_mode_fixed,"ax",%progbits
 1553              		.align	1
 1554              		.global	lv_colorwheel_set_mode_fixed
 1555              		.syntax unified
 1556              		.thumb
 1557              		.thumb_func
 1558              		.fpu fpv5-d16
 1560              	lv_colorwheel_set_mode_fixed:
 1561              	.LFB206:
 152:Drivers/lvgl/lvgl/src/extra/widgets/colorwheel/lv_colorwheel.c ****     LV_ASSERT_OBJ(obj, MY_CLASS);
 1562              		.loc 1 152 0
 1563              		.cfi_startproc
 1564              		@ args = 0, pretend = 0, frame = 0
 1565              		@ frame_needed = 0, uses_anonymous_args = 0
 1566              		@ link register save eliminated.
 1567              	.LVL193:
 156:Drivers/lvgl/lvgl/src/extra/widgets/colorwheel/lv_colorwheel.c **** }
 1568              		.loc 1 156 0
 1569 0000 90F83C30 		ldrb	r3, [r0, #60]	@ zero_extendqisi2
 1570 0004 61F38203 		bfi	r3, r1, #2, #1
 1571 0008 80F83C30 		strb	r3, [r0, #60]
 157:Drivers/lvgl/lvgl/src/extra/widgets/colorwheel/lv_colorwheel.c **** 
 1572              		.loc 1 157 0
 1573 000c 7047     		bx	lr
 1574              		.cfi_endproc
 1575              	.LFE206:
 1577              		.section	.text.lv_colorwheel_get_hsv,"ax",%progbits
 1578              		.align	1
 1579              		.global	lv_colorwheel_get_hsv
ARM GAS  /tmp/ccbjN9K1.s 			page 64


 1580              		.syntax unified
 1581              		.thumb
 1582              		.thumb_func
 1583              		.fpu fpv5-d16
 1585              	lv_colorwheel_get_hsv:
 1586              	.LFB207:
 170:Drivers/lvgl/lvgl/src/extra/widgets/colorwheel/lv_colorwheel.c ****     LV_ASSERT_OBJ(obj, MY_CLASS);
 1587              		.loc 1 170 0
 1588              		.cfi_startproc
 1589              		@ args = 0, pretend = 0, frame = 8
 1590              		@ frame_needed = 0, uses_anonymous_args = 0
 1591              		@ link register save eliminated.
 1592              	.LVL194:
 1593 0000 82B0     		sub	sp, sp, #8
 1594              	.LCFI29:
 1595              		.cfi_def_cfa_offset 8
 1596              	.LVL195:
 174:Drivers/lvgl/lvgl/src/extra/widgets/colorwheel/lv_colorwheel.c **** }
 1597              		.loc 1 174 0
 1598 0002 436A     		ldr	r3, [r0, #36]
 1599 0004 0020     		movs	r0, #0
 1600              	.LVL196:
 1601 0006 9AB2     		uxth	r2, r3
 1602 0008 62F30F00 		bfi	r0, r2, #0, #16
 1603 000c 1B0C     		lsrs	r3, r3, #16
 1604 000e 63F31F40 		bfi	r0, r3, #16, #16
 175:Drivers/lvgl/lvgl/src/extra/widgets/colorwheel/lv_colorwheel.c **** 
 1605              		.loc 1 175 0
 1606 0012 02B0     		add	sp, sp, #8
 1607              	.LCFI30:
 1608              		.cfi_def_cfa_offset 0
 1609              		@ sp needed
 1610 0014 7047     		bx	lr
 1611              		.cfi_endproc
 1612              	.LFE207:
 1614              		.section	.text.lv_colorwheel_get_rgb,"ax",%progbits
 1615              		.align	1
 1616              		.global	lv_colorwheel_get_rgb
 1617              		.syntax unified
 1618              		.thumb
 1619              		.thumb_func
 1620              		.fpu fpv5-d16
 1622              	lv_colorwheel_get_rgb:
 1623              	.LFB208:
 183:Drivers/lvgl/lvgl/src/extra/widgets/colorwheel/lv_colorwheel.c ****     LV_ASSERT_OBJ(obj, MY_CLASS);
 1624              		.loc 1 183 0
 1625              		.cfi_startproc
 1626              		@ args = 0, pretend = 0, frame = 0
 1627              		@ frame_needed = 0, uses_anonymous_args = 0
 1628              	.LVL197:
 1629 0000 08B5     		push	{r3, lr}
 1630              	.LCFI31:
 1631              		.cfi_def_cfa_offset 8
 1632              		.cfi_offset 3, -8
 1633              		.cfi_offset 14, -4
 1634              	.LVL198:
 187:Drivers/lvgl/lvgl/src/extra/widgets/colorwheel/lv_colorwheel.c **** }
ARM GAS  /tmp/ccbjN9K1.s 			page 65


 1635              		.loc 1 187 0
 1636 0002 90F82720 		ldrb	r2, [r0, #39]	@ zero_extendqisi2
 1637 0006 90F82610 		ldrb	r1, [r0, #38]	@ zero_extendqisi2
 1638 000a 808C     		ldrh	r0, [r0, #36]
 1639              	.LVL199:
 1640 000c FFF7FEFF 		bl	lv_color_hsv_to_rgb
 1641              	.LVL200:
 188:Drivers/lvgl/lvgl/src/extra/widgets/colorwheel/lv_colorwheel.c **** 
 1642              		.loc 1 188 0
 1643 0010 08BD     		pop	{r3, pc}
 1644              		.cfi_endproc
 1645              	.LFE208:
 1647              		.section	.text.draw_knob,"ax",%progbits
 1648              		.align	1
 1649              		.syntax unified
 1650              		.thumb
 1651              		.thumb_func
 1652              		.fpu fpv5-d16
 1654              	draw_knob:
 1655              	.LFB213:
 307:Drivers/lvgl/lvgl/src/extra/widgets/colorwheel/lv_colorwheel.c ****     lv_obj_t * obj = lv_event_get_target(e);
 1656              		.loc 1 307 0
 1657              		.cfi_startproc
 1658              		@ args = 0, pretend = 0, frame = 64
 1659              		@ frame_needed = 0, uses_anonymous_args = 0
 1660              	.LVL201:
 1661 0000 30B5     		push	{r4, r5, lr}
 1662              	.LCFI32:
 1663              		.cfi_def_cfa_offset 12
 1664              		.cfi_offset 4, -12
 1665              		.cfi_offset 5, -8
 1666              		.cfi_offset 14, -4
 1667 0002 91B0     		sub	sp, sp, #68
 1668              	.LCFI33:
 1669              		.cfi_def_cfa_offset 80
 1670 0004 0546     		mov	r5, r0
 308:Drivers/lvgl/lvgl/src/extra/widgets/colorwheel/lv_colorwheel.c ****     lv_draw_ctx_t * draw_ctx = lv_event_get_draw_ctx(e);
 1671              		.loc 1 308 0
 1672 0006 FFF7FEFF 		bl	lv_event_get_target
 1673              	.LVL202:
 1674 000a 0446     		mov	r4, r0
 1675              	.LVL203:
 309:Drivers/lvgl/lvgl/src/extra/widgets/colorwheel/lv_colorwheel.c ****     lv_colorwheel_t * colorwheel = (lv_colorwheel_t *)obj;
 1676              		.loc 1 309 0
 1677 000c 2846     		mov	r0, r5
 1678              	.LVL204:
 1679 000e FFF7FEFF 		bl	lv_event_get_draw_ctx
 1680              	.LVL205:
 1681 0012 0546     		mov	r5, r0
 1682              	.LVL206:
 313:Drivers/lvgl/lvgl/src/extra/widgets/colorwheel/lv_colorwheel.c ****     lv_obj_init_draw_rect_dsc(obj, LV_PART_KNOB, &cir_dsc);
 1683              		.loc 1 313 0
 1684 0014 02A8     		add	r0, sp, #8
 1685              	.LVL207:
 1686 0016 FFF7FEFF 		bl	lv_draw_rect_dsc_init
 1687              	.LVL208:
 314:Drivers/lvgl/lvgl/src/extra/widgets/colorwheel/lv_colorwheel.c **** 
ARM GAS  /tmp/ccbjN9K1.s 			page 66


 1688              		.loc 1 314 0
 1689 001a 02AA     		add	r2, sp, #8
 1690 001c 4FF44031 		mov	r1, #196608
 1691 0020 2046     		mov	r0, r4
 1692 0022 FFF7FEFF 		bl	lv_obj_init_draw_rect_dsc
 1693              	.LVL209:
 316:Drivers/lvgl/lvgl/src/extra/widgets/colorwheel/lv_colorwheel.c **** 
 1694              		.loc 1 316 0
 1695 0026 47F6FF73 		movw	r3, #32767
 1696 002a ADF80830 		strh	r3, [sp, #8]	@ movhi
 318:Drivers/lvgl/lvgl/src/extra/widgets/colorwheel/lv_colorwheel.c ****         cir_dsc.bg_color = lv_colorwheel_get_rgb(obj);
 1697              		.loc 1 318 0
 1698 002e 94F82C30 		ldrb	r3, [r4, #44]	@ zero_extendqisi2
 1699 0032 13F0010F 		tst	r3, #1
 1700 0036 0AD1     		bne	.L96
 1701              	.L94:
 322:Drivers/lvgl/lvgl/src/extra/widgets/colorwheel/lv_colorwheel.c **** 
 1702              		.loc 1 322 0
 1703 0038 2146     		mov	r1, r4
 1704 003a 6846     		mov	r0, sp
 1705 003c FFF7FEFF 		bl	get_knob_area
 1706              	.LVL210:
 324:Drivers/lvgl/lvgl/src/extra/widgets/colorwheel/lv_colorwheel.c **** }
 1707              		.loc 1 324 0
 1708 0040 6A46     		mov	r2, sp
 1709 0042 02A9     		add	r1, sp, #8
 1710 0044 2846     		mov	r0, r5
 1711 0046 FFF7FEFF 		bl	lv_draw_rect
 1712              	.LVL211:
 325:Drivers/lvgl/lvgl/src/extra/widgets/colorwheel/lv_colorwheel.c **** 
 1713              		.loc 1 325 0
 1714 004a 11B0     		add	sp, sp, #68
 1715              	.LCFI34:
 1716              		.cfi_remember_state
 1717              		.cfi_def_cfa_offset 12
 1718              		@ sp needed
 1719 004c 30BD     		pop	{r4, r5, pc}
 1720              	.LVL212:
 1721              	.L96:
 1722              	.LCFI35:
 1723              		.cfi_restore_state
 319:Drivers/lvgl/lvgl/src/extra/widgets/colorwheel/lv_colorwheel.c ****     }
 1724              		.loc 1 319 0
 1725 004e 2046     		mov	r0, r4
 1726 0050 FFF7FEFF 		bl	lv_colorwheel_get_rgb
 1727              	.LVL213:
 1728 0054 ADF80C00 		strh	r0, [sp, #12]	@ movhi
 1729 0058 EEE7     		b	.L94
 1730              		.cfi_endproc
 1731              	.LFE213:
 1733              		.section	.text.lv_colorwheel_event,"ax",%progbits
 1734              		.align	1
 1735              		.syntax unified
 1736              		.thumb
 1737              		.thumb_func
 1738              		.fpu fpv5-d16
 1740              	lv_colorwheel_event:
ARM GAS  /tmp/ccbjN9K1.s 			page 67


 1741              	.LFB216:
 357:Drivers/lvgl/lvgl/src/extra/widgets/colorwheel/lv_colorwheel.c ****     LV_UNUSED(class_p);
 1742              		.loc 1 357 0
 1743              		.cfi_startproc
 1744              		@ args = 0, pretend = 0, frame = 8
 1745              		@ frame_needed = 0, uses_anonymous_args = 0
 1746              	.LVL214:
 1747 0000 2DE9F043 		push	{r4, r5, r6, r7, r8, r9, lr}
 1748              	.LCFI36:
 1749              		.cfi_def_cfa_offset 28
 1750              		.cfi_offset 4, -28
 1751              		.cfi_offset 5, -24
 1752              		.cfi_offset 6, -20
 1753              		.cfi_offset 7, -16
 1754              		.cfi_offset 8, -12
 1755              		.cfi_offset 9, -8
 1756              		.cfi_offset 14, -4
 1757 0004 83B0     		sub	sp, sp, #12
 1758              	.LCFI37:
 1759              		.cfi_def_cfa_offset 40
 1760 0006 0C46     		mov	r4, r1
 361:Drivers/lvgl/lvgl/src/extra/widgets/colorwheel/lv_colorwheel.c **** 
 1761              		.loc 1 361 0
 1762 0008 8948     		ldr	r0, .L160
 1763              	.LVL215:
 1764 000a FFF7FEFF 		bl	lv_obj_event_base
 1765              	.LVL216:
 363:Drivers/lvgl/lvgl/src/extra/widgets/colorwheel/lv_colorwheel.c **** 
 1766              		.loc 1 363 0
 1767 000e 0128     		cmp	r0, #1
 1768 0010 02D0     		beq	.L146
 1769              	.LVL217:
 1770              	.L97:
 537:Drivers/lvgl/lvgl/src/extra/widgets/colorwheel/lv_colorwheel.c **** 
 1771              		.loc 1 537 0
 1772 0012 03B0     		add	sp, sp, #12
 1773              	.LCFI38:
 1774              		.cfi_remember_state
 1775              		.cfi_def_cfa_offset 28
 1776              		@ sp needed
 1777 0014 BDE8F083 		pop	{r4, r5, r6, r7, r8, r9, pc}
 1778              	.LVL218:
 1779              	.L146:
 1780              	.LCFI39:
 1781              		.cfi_restore_state
 365:Drivers/lvgl/lvgl/src/extra/widgets/colorwheel/lv_colorwheel.c ****     lv_obj_t * obj = lv_event_get_target(e);
 1782              		.loc 1 365 0
 1783 0018 2046     		mov	r0, r4
 1784              	.LVL219:
 1785 001a FFF7FEFF 		bl	lv_event_get_code
 1786              	.LVL220:
 1787 001e 0546     		mov	r5, r0
 1788              	.LVL221:
 366:Drivers/lvgl/lvgl/src/extra/widgets/colorwheel/lv_colorwheel.c ****     lv_colorwheel_t * colorwheel = (lv_colorwheel_t *)obj;
 1789              		.loc 1 366 0
 1790 0020 2046     		mov	r0, r4
 1791 0022 FFF7FEFF 		bl	lv_event_get_target
ARM GAS  /tmp/ccbjN9K1.s 			page 68


 1792              	.LVL222:
 1793 0026 0646     		mov	r6, r0
 1794              	.LVL223:
 369:Drivers/lvgl/lvgl/src/extra/widgets/colorwheel/lv_colorwheel.c ****         lv_coord_t left = lv_obj_get_style_pad_left(obj, LV_PART_KNOB);
 1795              		.loc 1 369 0
 1796 0028 132D     		cmp	r5, #19
 1797 002a 1CD0     		beq	.L147
 379:Drivers/lvgl/lvgl/src/extra/widgets/colorwheel/lv_colorwheel.c ****         void * param = lv_event_get_param(e);
 1798              		.loc 1 379 0
 1799 002c 292D     		cmp	r5, #41
 1800 002e 4DD0     		beq	.L148
 387:Drivers/lvgl/lvgl/src/extra/widgets/colorwheel/lv_colorwheel.c ****         /*Refresh extended draw area to make knob visible*/
 1801              		.loc 1 387 0
 1802 0030 2A2D     		cmp	r5, #42
 1803 0032 6AD0     		beq	.L149
 391:Drivers/lvgl/lvgl/src/extra/widgets/colorwheel/lv_colorwheel.c ****         uint32_t c = *((uint32_t *)lv_event_get_param(e)); /*uint32_t because can be UTF-8*/
 1804              		.loc 1 391 0
 1805 0034 0D2D     		cmp	r5, #13
 1806 0036 6BD0     		beq	.L150
 437:Drivers/lvgl/lvgl/src/extra/widgets/colorwheel/lv_colorwheel.c ****         colorwheel->last_change_time = lv_tick_get();
 1807              		.loc 1 437 0
 1808 0038 012D     		cmp	r5, #1
 1809 003a 00F0EC80 		beq	.L151
 443:Drivers/lvgl/lvgl/src/extra/widgets/colorwheel/lv_colorwheel.c ****         lv_indev_t * indev = lv_indev_get_act();
 1810              		.loc 1 443 0
 1811 003e 022D     		cmp	r5, #2
 1812 0040 00F0FC80 		beq	.L152
 523:Drivers/lvgl/lvgl/src/extra/widgets/colorwheel/lv_colorwheel.c ****         lv_hit_test_info_t * info = lv_event_get_param(e);;
 1813              		.loc 1 523 0
 1814 0044 112D     		cmp	r5, #17
 1815 0046 00F0DC81 		beq	.L153
 529:Drivers/lvgl/lvgl/src/extra/widgets/colorwheel/lv_colorwheel.c ****         draw_disc_grad(e);
 1816              		.loc 1 529 0
 1817 004a 152D     		cmp	r5, #21
 1818 004c 00F0E681 		beq	.L154
 533:Drivers/lvgl/lvgl/src/extra/widgets/colorwheel/lv_colorwheel.c ****         lv_cover_check_info_t * info = lv_event_get_param(e);
 1819              		.loc 1 533 0
 1820 0050 122D     		cmp	r5, #18
 1821 0052 DED1     		bne	.L97
 1822              	.LBB82:
 534:Drivers/lvgl/lvgl/src/extra/widgets/colorwheel/lv_colorwheel.c ****         if(info->res != LV_COVER_RES_MASKED) info->res = LV_COVER_RES_NOT_COVER;
 1823              		.loc 1 534 0
 1824 0054 2046     		mov	r0, r4
 1825              	.LVL224:
 1826 0056 FFF7FEFF 		bl	lv_event_get_param
 1827              	.LVL225:
 535:Drivers/lvgl/lvgl/src/extra/widgets/colorwheel/lv_colorwheel.c ****     }
 1828              		.loc 1 535 0
 1829 005a 0378     		ldrb	r3, [r0]	@ zero_extendqisi2
 1830 005c 022B     		cmp	r3, #2
 1831 005e D8D0     		beq	.L97
 535:Drivers/lvgl/lvgl/src/extra/widgets/colorwheel/lv_colorwheel.c ****     }
 1832              		.loc 1 535 0 is_stmt 0 discriminator 1
 1833 0060 0123     		movs	r3, #1
 1834 0062 0370     		strb	r3, [r0]
 1835 0064 D5E7     		b	.L97
 1836              	.LVL226:
ARM GAS  /tmp/ccbjN9K1.s 			page 69


 1837              	.L147:
 1838              	.LBE82:
 1839              	.LBB83:
 1840              	.LBB84:
 1841              	.LBB85:
 117:Drivers/lvgl/lvgl/src/extra/widgets/colorwheel/../../../../src/core/lv_obj_style_gen.h ****     return (lv_coord_t)v.num;
 1842              		.loc 3 117 0 is_stmt 1
 1843 0066 1222     		movs	r2, #18
 1844 0068 4FF44031 		mov	r1, #196608
 1845 006c FFF7FEFF 		bl	lv_obj_get_style_prop
 1846              	.LVL227:
 118:Drivers/lvgl/lvgl/src/extra/widgets/colorwheel/../../../../src/core/lv_obj_style_gen.h **** }
 1847              		.loc 3 118 0
 1848 0070 0FFA80F8 		sxth	r8, r0
 1849              	.LVL228:
 1850              	.LBE85:
 1851              	.LBE84:
 1852              	.LBB86:
 1853              	.LBB87:
 123:Drivers/lvgl/lvgl/src/extra/widgets/colorwheel/../../../../src/core/lv_obj_style_gen.h ****     return (lv_coord_t)v.num;
 1854              		.loc 3 123 0
 1855 0074 1322     		movs	r2, #19
 1856 0076 4FF44031 		mov	r1, #196608
 1857 007a 3046     		mov	r0, r6
 1858 007c FFF7FEFF 		bl	lv_obj_get_style_prop
 1859              	.LVL229:
 124:Drivers/lvgl/lvgl/src/extra/widgets/colorwheel/../../../../src/core/lv_obj_style_gen.h **** }
 1860              		.loc 3 124 0
 1861 0080 07B2     		sxth	r7, r0
 1862              	.LVL230:
 1863              	.LBE87:
 1864              	.LBE86:
 1865              	.LBB88:
 1866              	.LBB89:
 105:Drivers/lvgl/lvgl/src/extra/widgets/colorwheel/../../../../src/core/lv_obj_style_gen.h ****     return (lv_coord_t)v.num;
 1867              		.loc 3 105 0
 1868 0082 1022     		movs	r2, #16
 1869 0084 4FF44031 		mov	r1, #196608
 1870 0088 3046     		mov	r0, r6
 1871 008a FFF7FEFF 		bl	lv_obj_get_style_prop
 1872              	.LVL231:
 106:Drivers/lvgl/lvgl/src/extra/widgets/colorwheel/../../../../src/core/lv_obj_style_gen.h **** }
 1873              		.loc 3 106 0
 1874 008e 0FFA80F9 		sxth	r9, r0
 1875              	.LVL232:
 1876              	.LBE89:
 1877              	.LBE88:
 1878              	.LBB90:
 1879              	.LBB91:
 111:Drivers/lvgl/lvgl/src/extra/widgets/colorwheel/../../../../src/core/lv_obj_style_gen.h ****     return (lv_coord_t)v.num;
 1880              		.loc 3 111 0
 1881 0092 1122     		movs	r2, #17
 1882 0094 4FF44031 		mov	r1, #196608
 1883 0098 3046     		mov	r0, r6
 1884 009a FFF7FEFF 		bl	lv_obj_get_style_prop
 1885              	.LVL233:
 112:Drivers/lvgl/lvgl/src/extra/widgets/colorwheel/../../../../src/core/lv_obj_style_gen.h **** }
ARM GAS  /tmp/ccbjN9K1.s 			page 70


 1886              		.loc 3 112 0
 1887 009e 05B2     		sxth	r5, r0
 1888              	.LVL234:
 1889              	.LBE91:
 1890              	.LBE90:
 375:Drivers/lvgl/lvgl/src/extra/widgets/colorwheel/lv_colorwheel.c ****         lv_coord_t * s = lv_event_get_param(e);
 1891              		.loc 1 375 0
 1892 00a0 4D45     		cmp	r5, r9
 1893 00a2 B8BF     		it	lt
 1894 00a4 4D46     		movlt	r5, r9
 1895 00a6 4745     		cmp	r7, r8
 1896 00a8 B8BF     		it	lt
 1897 00aa 4746     		movlt	r7, r8
 1898 00ac BD42     		cmp	r5, r7
 1899 00ae B8BF     		it	lt
 1900 00b0 3D46     		movlt	r5, r7
 1901 00b2 ADB2     		uxth	r5, r5
 1902 00b4 0235     		adds	r5, r5, #2
 1903 00b6 2DB2     		sxth	r5, r5
 1904              	.LVL235:
 376:Drivers/lvgl/lvgl/src/extra/widgets/colorwheel/lv_colorwheel.c ****         *s = LV_MAX(*s, knob_pad);
 1905              		.loc 1 376 0
 1906 00b8 2046     		mov	r0, r4
 1907 00ba FFF7FEFF 		bl	lv_event_get_param
 1908              	.LVL236:
 377:Drivers/lvgl/lvgl/src/extra/widgets/colorwheel/lv_colorwheel.c ****     }
 1909              		.loc 1 377 0
 1910 00be B0F90030 		ldrsh	r3, [r0]
 1911 00c2 9D42     		cmp	r5, r3
 1912 00c4 B8BF     		it	lt
 1913 00c6 1D46     		movlt	r5, r3
 1914              	.LVL237:
 1915 00c8 0580     		strh	r5, [r0]	@ movhi
 1916              	.LBE83:
 1917 00ca A2E7     		b	.L97
 1918              	.LVL238:
 1919              	.L148:
 1920              	.LBB92:
 380:Drivers/lvgl/lvgl/src/extra/widgets/colorwheel/lv_colorwheel.c ****         /*Refresh extended draw area to make knob visible*/
 1921              		.loc 1 380 0
 1922 00cc 2046     		mov	r0, r4
 1923              	.LVL239:
 1924 00ce FFF7FEFF 		bl	lv_event_get_param
 1925              	.LVL240:
 1926 00d2 0446     		mov	r4, r0
 1927              	.LVL241:
 382:Drivers/lvgl/lvgl/src/extra/widgets/colorwheel/lv_colorwheel.c ****            lv_obj_get_height(obj) != lv_area_get_height(param)) {
 1928              		.loc 1 382 0
 1929 00d4 3046     		mov	r0, r6
 1930              	.LVL242:
 1931 00d6 FFF7FEFF 		bl	lv_obj_get_width
 1932              	.LVL243:
 1933              	.LBB93:
 1934              	.LBB94:
 116:Drivers/lvgl/lvgl/src/extra/widgets/colorwheel/../../../../src/hal/../draw/../misc/../font/../misc/lv_area.h **** }
 117:Drivers/lvgl/lvgl/src/extra/widgets/colorwheel/../../../../src/hal/../draw/../misc/../font/../misc/lv_area.h **** 
 118:Drivers/lvgl/lvgl/src/extra/widgets/colorwheel/../../../../src/hal/../draw/../misc/../font/../misc/lv_area.h **** /**
ARM GAS  /tmp/ccbjN9K1.s 			page 71


 119:Drivers/lvgl/lvgl/src/extra/widgets/colorwheel/../../../../src/hal/../draw/../misc/../font/../misc/lv_area.h ****  * Get the width of an area
 120:Drivers/lvgl/lvgl/src/extra/widgets/colorwheel/../../../../src/hal/../draw/../misc/../font/../misc/lv_area.h ****  * @param area_p pointer to an area
 121:Drivers/lvgl/lvgl/src/extra/widgets/colorwheel/../../../../src/hal/../draw/../misc/../font/../misc/lv_area.h ****  * @return the width of the area (if x1 == x2 -> width = 1)
 122:Drivers/lvgl/lvgl/src/extra/widgets/colorwheel/../../../../src/hal/../draw/../misc/../font/../misc/lv_area.h ****  */
 123:Drivers/lvgl/lvgl/src/extra/widgets/colorwheel/../../../../src/hal/../draw/../misc/../font/../misc/lv_area.h **** static inline lv_coord_t lv_area_get_width(const lv_area_t * area_p)
 124:Drivers/lvgl/lvgl/src/extra/widgets/colorwheel/../../../../src/hal/../draw/../misc/../font/../misc/lv_area.h **** {
 125:Drivers/lvgl/lvgl/src/extra/widgets/colorwheel/../../../../src/hal/../draw/../misc/../font/../misc/lv_area.h ****     return (lv_coord_t)(area_p->x2 - area_p->x1 + 1);
 1935              		.loc 5 125 0
 1936 00da A388     		ldrh	r3, [r4, #4]
 1937 00dc 2288     		ldrh	r2, [r4]
 1938 00de 9B1A     		subs	r3, r3, r2
 1939 00e0 9BB2     		uxth	r3, r3
 1940 00e2 0133     		adds	r3, r3, #1
 1941 00e4 1BB2     		sxth	r3, r3
 1942              	.LVL244:
 1943              	.LBE94:
 1944              	.LBE93:
 382:Drivers/lvgl/lvgl/src/extra/widgets/colorwheel/lv_colorwheel.c ****            lv_obj_get_height(obj) != lv_area_get_height(param)) {
 1945              		.loc 1 382 0
 1946 00e6 9842     		cmp	r0, r3
 1947 00e8 03D0     		beq	.L155
 1948              	.L101:
 384:Drivers/lvgl/lvgl/src/extra/widgets/colorwheel/lv_colorwheel.c ****         }
 1949              		.loc 1 384 0
 1950 00ea 3046     		mov	r0, r6
 1951 00ec FFF7FEFF 		bl	refr_knob_pos
 1952              	.LVL245:
 1953 00f0 8FE7     		b	.L97
 1954              	.L155:
 383:Drivers/lvgl/lvgl/src/extra/widgets/colorwheel/lv_colorwheel.c ****             refr_knob_pos(obj);
 1955              		.loc 1 383 0 discriminator 1
 1956 00f2 3046     		mov	r0, r6
 1957 00f4 FFF7FEFF 		bl	lv_obj_get_height
 1958              	.LVL246:
 1959              	.LBB95:
 1960              	.LBB96:
 126:Drivers/lvgl/lvgl/src/extra/widgets/colorwheel/../../../../src/hal/../draw/../misc/../font/../misc/lv_area.h **** }
 127:Drivers/lvgl/lvgl/src/extra/widgets/colorwheel/../../../../src/hal/../draw/../misc/../font/../misc/lv_area.h **** 
 128:Drivers/lvgl/lvgl/src/extra/widgets/colorwheel/../../../../src/hal/../draw/../misc/../font/../misc/lv_area.h **** /**
 129:Drivers/lvgl/lvgl/src/extra/widgets/colorwheel/../../../../src/hal/../draw/../misc/../font/../misc/lv_area.h ****  * Get the height of an area
 130:Drivers/lvgl/lvgl/src/extra/widgets/colorwheel/../../../../src/hal/../draw/../misc/../font/../misc/lv_area.h ****  * @param area_p pointer to an area
 131:Drivers/lvgl/lvgl/src/extra/widgets/colorwheel/../../../../src/hal/../draw/../misc/../font/../misc/lv_area.h ****  * @return the height of the area (if y1 == y2 -> height = 1)
 132:Drivers/lvgl/lvgl/src/extra/widgets/colorwheel/../../../../src/hal/../draw/../misc/../font/../misc/lv_area.h ****  */
 133:Drivers/lvgl/lvgl/src/extra/widgets/colorwheel/../../../../src/hal/../draw/../misc/../font/../misc/lv_area.h **** static inline lv_coord_t lv_area_get_height(const lv_area_t * area_p)
 134:Drivers/lvgl/lvgl/src/extra/widgets/colorwheel/../../../../src/hal/../draw/../misc/../font/../misc/lv_area.h **** {
 135:Drivers/lvgl/lvgl/src/extra/widgets/colorwheel/../../../../src/hal/../draw/../misc/../font/../misc/lv_area.h ****     return (lv_coord_t)(area_p->y2 - area_p->y1 + 1);
 1961              		.loc 5 135 0 discriminator 1
 1962 00f8 E388     		ldrh	r3, [r4, #6]
 1963 00fa 6288     		ldrh	r2, [r4, #2]
 1964 00fc 9B1A     		subs	r3, r3, r2
 1965 00fe 9BB2     		uxth	r3, r3
 1966 0100 0133     		adds	r3, r3, #1
 1967 0102 1BB2     		sxth	r3, r3
 1968              	.LVL247:
 1969              	.LBE96:
 1970              	.LBE95:
 382:Drivers/lvgl/lvgl/src/extra/widgets/colorwheel/lv_colorwheel.c ****            lv_obj_get_height(obj) != lv_area_get_height(param)) {
ARM GAS  /tmp/ccbjN9K1.s 			page 72


 1971              		.loc 1 382 0 discriminator 1
 1972 0104 9842     		cmp	r0, r3
 1973 0106 F0D1     		bne	.L101
 1974 0108 83E7     		b	.L97
 1975              	.LVL248:
 1976              	.L149:
 1977              	.LBE92:
 389:Drivers/lvgl/lvgl/src/extra/widgets/colorwheel/lv_colorwheel.c ****     }
 1978              		.loc 1 389 0
 1979 010a FFF7FEFF 		bl	refr_knob_pos
 1980              	.LVL249:
 1981 010e 80E7     		b	.L97
 1982              	.LVL250:
 1983              	.L150:
 1984              	.LBB97:
 392:Drivers/lvgl/lvgl/src/extra/widgets/colorwheel/lv_colorwheel.c **** 
 1985              		.loc 1 392 0
 1986 0110 2046     		mov	r0, r4
 1987              	.LVL251:
 1988 0112 FFF7FEFF 		bl	lv_event_get_param
 1989              	.LVL252:
 1990 0116 0368     		ldr	r3, [r0]
 1991              	.LVL253:
 394:Drivers/lvgl/lvgl/src/extra/widgets/colorwheel/lv_colorwheel.c ****             lv_color_hsv_t hsv_cur;
 1992              		.loc 1 394 0
 1993 0118 112B     		cmp	r3, #17
 1994 011a 18BF     		it	ne
 1995 011c 132B     		cmpne	r3, #19
 1996 011e 3FD1     		bne	.L104
 1997              	.LBB98:
 396:Drivers/lvgl/lvgl/src/extra/widgets/colorwheel/lv_colorwheel.c **** 
 1998              		.loc 1 396 0
 1999 0120 736A     		ldr	r3, [r6, #36]
 2000              	.LVL254:
 2001 0122 0193     		str	r3, [sp, #4]
 2002              	.LVL255:
 398:Drivers/lvgl/lvgl/src/extra/widgets/colorwheel/lv_colorwheel.c ****                 case LV_COLORWHEEL_MODE_HUE:
 2003              		.loc 1 398 0
 2004 0124 96F83C30 		ldrb	r3, [r6, #60]	@ zero_extendqisi2
 2005 0128 03F00303 		and	r3, r3, #3
 2006 012c 012B     		cmp	r3, #1
 2007 012e 1DD0     		beq	.L106
 2008 0130 73B1     		cbz	r3, .L107
 2009 0132 022B     		cmp	r3, #2
 2010 0134 27D0     		beq	.L108
 2011              	.L105:
 410:Drivers/lvgl/lvgl/src/extra/widgets/colorwheel/lv_colorwheel.c ****                 res = lv_event_send(obj, LV_EVENT_VALUE_CHANGED, NULL);
 2012              		.loc 1 410 0
 2013 0136 0199     		ldr	r1, [sp, #4]
 2014 0138 3046     		mov	r0, r6
 2015 013a FFF7FEFF 		bl	lv_colorwheel_set_hsv
 2016              	.LVL256:
 2017 013e 0028     		cmp	r0, #0
 2018 0140 3FF467AF 		beq	.L97
 411:Drivers/lvgl/lvgl/src/extra/widgets/colorwheel/lv_colorwheel.c ****                 if(res != LV_RES_OK) return;
 2019              		.loc 1 411 0
 2020 0144 0022     		movs	r2, #0
ARM GAS  /tmp/ccbjN9K1.s 			page 73


 2021 0146 1C21     		movs	r1, #28
 2022 0148 3046     		mov	r0, r6
 2023 014a FFF7FEFF 		bl	lv_event_send
 2024              	.LVL257:
 2025 014e 60E7     		b	.L97
 2026              	.LVL258:
 2027              	.L107:
 400:Drivers/lvgl/lvgl/src/extra/widgets/colorwheel/lv_colorwheel.c ****                     break;
 2028              		.loc 1 400 0
 2029 0150 B28C     		ldrh	r2, [r6, #36]
 2030 0152 0132     		adds	r2, r2, #1
 2031 0154 374B     		ldr	r3, .L160+4
 2032 0156 83FB0213 		smull	r1, r3, r3, r2
 2033 015a 1344     		add	r3, r3, r2
 2034 015c 1B12     		asrs	r3, r3, #8
 2035 015e 4FF4B471 		mov	r1, #360
 2036 0162 01FB1323 		mls	r3, r1, r3, r2
 2037 0166 ADF80430 		strh	r3, [sp, #4]	@ movhi
 401:Drivers/lvgl/lvgl/src/extra/widgets/colorwheel/lv_colorwheel.c ****                 case LV_COLORWHEEL_MODE_SATURATION:
 2038              		.loc 1 401 0
 2039 016a E4E7     		b	.L105
 2040              	.L106:
 403:Drivers/lvgl/lvgl/src/extra/widgets/colorwheel/lv_colorwheel.c ****                     break;
 2041              		.loc 1 403 0
 2042 016c 96F82620 		ldrb	r2, [r6, #38]	@ zero_extendqisi2
 2043 0170 0132     		adds	r2, r2, #1
 2044 0172 314B     		ldr	r3, .L160+8
 2045 0174 83FB0213 		smull	r1, r3, r3, r2
 2046 0178 5B11     		asrs	r3, r3, #5
 2047 017a 6421     		movs	r1, #100
 2048 017c 01FB1323 		mls	r3, r1, r3, r2
 2049 0180 8DF80630 		strb	r3, [sp, #6]
 404:Drivers/lvgl/lvgl/src/extra/widgets/colorwheel/lv_colorwheel.c ****                 case LV_COLORWHEEL_MODE_VALUE:
 2050              		.loc 1 404 0
 2051 0184 D7E7     		b	.L105
 2052              	.L108:
 406:Drivers/lvgl/lvgl/src/extra/widgets/colorwheel/lv_colorwheel.c ****                     break;
 2053              		.loc 1 406 0
 2054 0186 96F82720 		ldrb	r2, [r6, #39]	@ zero_extendqisi2
 2055 018a 0132     		adds	r2, r2, #1
 2056 018c 2A4B     		ldr	r3, .L160+8
 2057 018e 83FB0213 		smull	r1, r3, r3, r2
 2058 0192 5B11     		asrs	r3, r3, #5
 2059 0194 6421     		movs	r1, #100
 2060 0196 01FB1323 		mls	r3, r1, r3, r2
 2061 019a 8DF80730 		strb	r3, [sp, #7]
 407:Drivers/lvgl/lvgl/src/extra/widgets/colorwheel/lv_colorwheel.c ****             }
 2062              		.loc 1 407 0
 2063 019e CAE7     		b	.L105
 2064              	.LVL259:
 2065              	.L104:
 2066              	.LBE98:
 415:Drivers/lvgl/lvgl/src/extra/widgets/colorwheel/lv_colorwheel.c ****             lv_color_hsv_t hsv_cur;
 2067              		.loc 1 415 0
 2068 01a0 122B     		cmp	r3, #18
 2069 01a2 18BF     		it	ne
 2070 01a4 142B     		cmpne	r3, #20
ARM GAS  /tmp/ccbjN9K1.s 			page 74


 2071 01a6 7FF434AF 		bne	.L97
 2072              	.LBB99:
 417:Drivers/lvgl/lvgl/src/extra/widgets/colorwheel/lv_colorwheel.c **** 
 2073              		.loc 1 417 0
 2074 01aa 736A     		ldr	r3, [r6, #36]
 2075              	.LVL260:
 2076 01ac 0193     		str	r3, [sp, #4]
 2077              	.LVL261:
 419:Drivers/lvgl/lvgl/src/extra/widgets/colorwheel/lv_colorwheel.c ****                 case LV_COLORWHEEL_MODE_HUE:
 2078              		.loc 1 419 0
 2079 01ae 96F83C30 		ldrb	r3, [r6, #60]	@ zero_extendqisi2
 2080 01b2 03F00303 		and	r3, r3, #3
 2081 01b6 012B     		cmp	r3, #1
 2082 01b8 19D0     		beq	.L112
 2083 01ba 73B1     		cbz	r3, .L113
 2084 01bc 022B     		cmp	r3, #2
 2085 01be 20D0     		beq	.L114
 2086              	.L111:
 431:Drivers/lvgl/lvgl/src/extra/widgets/colorwheel/lv_colorwheel.c ****                 res = lv_event_send(obj, LV_EVENT_VALUE_CHANGED, NULL);
 2087              		.loc 1 431 0
 2088 01c0 0199     		ldr	r1, [sp, #4]
 2089 01c2 3046     		mov	r0, r6
 2090 01c4 FFF7FEFF 		bl	lv_colorwheel_set_hsv
 2091              	.LVL262:
 2092 01c8 0028     		cmp	r0, #0
 2093 01ca 3FF422AF 		beq	.L97
 432:Drivers/lvgl/lvgl/src/extra/widgets/colorwheel/lv_colorwheel.c ****                 if(res != LV_RES_OK) return;
 2094              		.loc 1 432 0
 2095 01ce 0022     		movs	r2, #0
 2096 01d0 1C21     		movs	r1, #28
 2097 01d2 3046     		mov	r0, r6
 2098 01d4 FFF7FEFF 		bl	lv_event_send
 2099              	.LVL263:
 2100 01d8 1BE7     		b	.L97
 2101              	.LVL264:
 2102              	.L113:
 421:Drivers/lvgl/lvgl/src/extra/widgets/colorwheel/lv_colorwheel.c ****                     break;
 2103              		.loc 1 421 0
 2104 01da B38C     		ldrh	r3, [r6, #36]
 2105 01dc 13B1     		cbz	r3, .L140
 421:Drivers/lvgl/lvgl/src/extra/widgets/colorwheel/lv_colorwheel.c ****                     break;
 2106              		.loc 1 421 0 is_stmt 0 discriminator 1
 2107 01de 013B     		subs	r3, r3, #1
 2108 01e0 9BB2     		uxth	r3, r3
 2109 01e2 01E0     		b	.L115
 2110              	.L140:
 421:Drivers/lvgl/lvgl/src/extra/widgets/colorwheel/lv_colorwheel.c ****                     break;
 2111              		.loc 1 421 0
 2112 01e4 4FF4B473 		mov	r3, #360
 2113              	.L115:
 421:Drivers/lvgl/lvgl/src/extra/widgets/colorwheel/lv_colorwheel.c ****                     break;
 2114              		.loc 1 421 0 discriminator 4
 2115 01e8 ADF80430 		strh	r3, [sp, #4]	@ movhi
 422:Drivers/lvgl/lvgl/src/extra/widgets/colorwheel/lv_colorwheel.c ****                 case LV_COLORWHEEL_MODE_SATURATION:
 2116              		.loc 1 422 0 is_stmt 1 discriminator 4
 2117 01ec E8E7     		b	.L111
 2118              	.L112:
ARM GAS  /tmp/ccbjN9K1.s 			page 75


 424:Drivers/lvgl/lvgl/src/extra/widgets/colorwheel/lv_colorwheel.c ****                     break;
 2119              		.loc 1 424 0
 2120 01ee 96F82630 		ldrb	r3, [r6, #38]	@ zero_extendqisi2
 2121 01f2 13B1     		cbz	r3, .L141
 424:Drivers/lvgl/lvgl/src/extra/widgets/colorwheel/lv_colorwheel.c ****                     break;
 2122              		.loc 1 424 0 is_stmt 0 discriminator 1
 2123 01f4 013B     		subs	r3, r3, #1
 2124 01f6 DBB2     		uxtb	r3, r3
 2125 01f8 00E0     		b	.L116
 2126              	.L141:
 424:Drivers/lvgl/lvgl/src/extra/widgets/colorwheel/lv_colorwheel.c ****                     break;
 2127              		.loc 1 424 0
 2128 01fa 6423     		movs	r3, #100
 2129              	.L116:
 424:Drivers/lvgl/lvgl/src/extra/widgets/colorwheel/lv_colorwheel.c ****                     break;
 2130              		.loc 1 424 0 discriminator 4
 2131 01fc 8DF80630 		strb	r3, [sp, #6]
 425:Drivers/lvgl/lvgl/src/extra/widgets/colorwheel/lv_colorwheel.c ****                 case LV_COLORWHEEL_MODE_VALUE:
 2132              		.loc 1 425 0 is_stmt 1 discriminator 4
 2133 0200 DEE7     		b	.L111
 2134              	.L114:
 427:Drivers/lvgl/lvgl/src/extra/widgets/colorwheel/lv_colorwheel.c ****                     break;
 2135              		.loc 1 427 0
 2136 0202 96F82730 		ldrb	r3, [r6, #39]	@ zero_extendqisi2
 2137 0206 13B1     		cbz	r3, .L142
 427:Drivers/lvgl/lvgl/src/extra/widgets/colorwheel/lv_colorwheel.c ****                     break;
 2138              		.loc 1 427 0 is_stmt 0 discriminator 1
 2139 0208 013B     		subs	r3, r3, #1
 2140 020a DBB2     		uxtb	r3, r3
 2141 020c 00E0     		b	.L117
 2142              	.L142:
 427:Drivers/lvgl/lvgl/src/extra/widgets/colorwheel/lv_colorwheel.c ****                     break;
 2143              		.loc 1 427 0
 2144 020e 6423     		movs	r3, #100
 2145              	.L117:
 427:Drivers/lvgl/lvgl/src/extra/widgets/colorwheel/lv_colorwheel.c ****                     break;
 2146              		.loc 1 427 0 discriminator 4
 2147 0210 8DF80730 		strb	r3, [sp, #7]
 428:Drivers/lvgl/lvgl/src/extra/widgets/colorwheel/lv_colorwheel.c ****             }
 2148              		.loc 1 428 0 is_stmt 1 discriminator 4
 2149 0214 D4E7     		b	.L111
 2150              	.LVL265:
 2151              	.L151:
 2152              	.LBE99:
 2153              	.LBE97:
 438:Drivers/lvgl/lvgl/src/extra/widgets/colorwheel/lv_colorwheel.c ****         lv_indev_get_point(lv_indev_get_act(), &colorwheel->last_press_point);
 2154              		.loc 1 438 0
 2155 0216 FFF7FEFF 		bl	lv_tick_get
 2156              	.LVL266:
 2157 021a 7063     		str	r0, [r6, #52]
 439:Drivers/lvgl/lvgl/src/extra/widgets/colorwheel/lv_colorwheel.c ****         res = double_click_reset(obj);
 2158              		.loc 1 439 0
 2159 021c FFF7FEFF 		bl	lv_indev_get_act
 2160              	.LVL267:
 2161 0220 06F13801 		add	r1, r6, #56
 2162 0224 FFF7FEFF 		bl	lv_indev_get_point
 2163              	.LVL268:
ARM GAS  /tmp/ccbjN9K1.s 			page 76


 440:Drivers/lvgl/lvgl/src/extra/widgets/colorwheel/lv_colorwheel.c ****         if(res != LV_RES_OK) return;
 2164              		.loc 1 440 0
 2165 0228 3046     		mov	r0, r6
 2166 022a FFF7FEFF 		bl	double_click_reset
 2167              	.LVL269:
 2168 022e F0E6     		b	.L97
 2169              	.L161:
 2170              		.align	2
 2171              	.L160:
 2172 0230 00000000 		.word	.LANCHOR6
 2173 0234 B7600BB6 		.word	-1240768329
 2174 0238 1F85EB51 		.word	1374389535
 2175              	.LVL270:
 2176              	.L152:
 2177              	.LBB100:
 444:Drivers/lvgl/lvgl/src/extra/widgets/colorwheel/lv_colorwheel.c ****         if(indev == NULL) return;
 2178              		.loc 1 444 0
 2179 023c FFF7FEFF 		bl	lv_indev_get_act
 2180              	.LVL271:
 445:Drivers/lvgl/lvgl/src/extra/widgets/colorwheel/lv_colorwheel.c **** 
 2181              		.loc 1 445 0
 2182 0240 0546     		mov	r5, r0
 2183              	.LVL272:
 2184 0242 0028     		cmp	r0, #0
 2185 0244 3FF4E5AE 		beq	.L97
 447:Drivers/lvgl/lvgl/src/extra/widgets/colorwheel/lv_colorwheel.c ****         lv_point_t p;
 2186              		.loc 1 447 0
 2187 0248 FFF7FEFF 		bl	lv_indev_get_type
 2188              	.LVL273:
 449:Drivers/lvgl/lvgl/src/extra/widgets/colorwheel/lv_colorwheel.c ****             p.x = obj->coords.x1 + lv_obj_get_width(obj) / 2;
 2189              		.loc 1 449 0
 2190 024c 0228     		cmp	r0, #2
 2191 024e 18BF     		it	ne
 2192 0250 0428     		cmpne	r0, #4
 2193 0252 40F0AE80 		bne	.L123
 450:Drivers/lvgl/lvgl/src/extra/widgets/colorwheel/lv_colorwheel.c ****             p.y = obj->coords.y1 + lv_obj_get_height(obj) / 2;
 2194              		.loc 1 450 0
 2195 0256 B48A     		ldrh	r4, [r6, #20]
 2196              	.LVL274:
 2197 0258 3046     		mov	r0, r6
 2198              	.LVL275:
 2199 025a FFF7FEFF 		bl	lv_obj_get_width
 2200              	.LVL276:
 2201 025e 0346     		mov	r3, r0
 2202 0260 0028     		cmp	r0, #0
 2203 0262 C0F2A280 		blt	.L156
 2204              	.L124:
 2205 0266 04EB6304 		add	r4, r4, r3, asr #1
 2206 026a ADF80040 		strh	r4, [sp]	@ movhi
 451:Drivers/lvgl/lvgl/src/extra/widgets/colorwheel/lv_colorwheel.c ****         }
 2207              		.loc 1 451 0
 2208 026e F48A     		ldrh	r4, [r6, #22]
 2209 0270 3046     		mov	r0, r6
 2210 0272 FFF7FEFF 		bl	lv_obj_get_height
 2211              	.LVL277:
 2212 0276 0346     		mov	r3, r0
 2213 0278 0028     		cmp	r0, #0
ARM GAS  /tmp/ccbjN9K1.s 			page 77


 2214 027a C0F29880 		blt	.L157
 2215              	.L125:
 2216 027e 04EB6304 		add	r4, r4, r3, asr #1
 2217 0282 ADF80240 		strh	r4, [sp, #2]	@ movhi
 2218              	.L126:
 457:Drivers/lvgl/lvgl/src/extra/widgets/colorwheel/lv_colorwheel.c ****         if((LV_ABS(p.x - colorwheel->last_press_point.x) > drag_limit) ||
 2219              		.loc 1 457 0
 2220 0286 2B68     		ldr	r3, [r5]
 2221 0288 1A7E     		ldrb	r2, [r3, #24]	@ zero_extendqisi2
 2222              	.LVL278:
 458:Drivers/lvgl/lvgl/src/extra/widgets/colorwheel/lv_colorwheel.c ****            (LV_ABS(p.y - colorwheel->last_press_point.y) > drag_limit)) {
 2223              		.loc 1 458 0
 2224 028a BDF90030 		ldrsh	r3, [sp]
 2225 028e B6F93810 		ldrsh	r1, [r6, #56]
 2226 0292 5B1A     		subs	r3, r3, r1
 2227 0294 002B     		cmp	r3, #0
 2228 0296 B8BF     		it	lt
 2229 0298 5B42     		rsblt	r3, r3, #0
 2230 029a 9342     		cmp	r3, r2
 2231 029c 09DC     		bgt	.L127
 459:Drivers/lvgl/lvgl/src/extra/widgets/colorwheel/lv_colorwheel.c ****             colorwheel->last_change_time = lv_tick_get();
 2232              		.loc 1 459 0 discriminator 1
 2233 029e BDF90230 		ldrsh	r3, [sp, #2]
 2234 02a2 B6F93A10 		ldrsh	r1, [r6, #58]
 2235 02a6 5B1A     		subs	r3, r3, r1
 2236 02a8 002B     		cmp	r3, #0
 2237 02aa B8BF     		it	lt
 2238 02ac 5B42     		rsblt	r3, r3, #0
 458:Drivers/lvgl/lvgl/src/extra/widgets/colorwheel/lv_colorwheel.c ****            (LV_ABS(p.y - colorwheel->last_press_point.y) > drag_limit)) {
 2239              		.loc 1 458 0 discriminator 1
 2240 02ae 9A42     		cmp	r2, r3
 2241 02b0 08DA     		bge	.L128
 2242              	.L127:
 460:Drivers/lvgl/lvgl/src/extra/widgets/colorwheel/lv_colorwheel.c ****             colorwheel->last_press_point.x = p.x;
 2243              		.loc 1 460 0
 2244 02b2 FFF7FEFF 		bl	lv_tick_get
 2245              	.LVL279:
 2246 02b6 7063     		str	r0, [r6, #52]
 461:Drivers/lvgl/lvgl/src/extra/widgets/colorwheel/lv_colorwheel.c ****             colorwheel->last_press_point.y = p.y;
 2247              		.loc 1 461 0
 2248 02b8 BDF90030 		ldrsh	r3, [sp]
 2249 02bc 3387     		strh	r3, [r6, #56]	@ movhi
 462:Drivers/lvgl/lvgl/src/extra/widgets/colorwheel/lv_colorwheel.c ****         }
 2250              		.loc 1 462 0
 2251 02be BDF90230 		ldrsh	r3, [sp, #2]
 2252 02c2 7387     		strh	r3, [r6, #58]	@ movhi
 2253              	.L128:
 465:Drivers/lvgl/lvgl/src/extra/widgets/colorwheel/lv_colorwheel.c ****         p.y -= obj->coords.y1;
 2254              		.loc 1 465 0
 2255 02c4 B28A     		ldrh	r2, [r6, #20]
 2256 02c6 BDF80030 		ldrh	r3, [sp]
 2257 02ca 9B1A     		subs	r3, r3, r2
 2258 02cc ADF80030 		strh	r3, [sp]	@ movhi
 466:Drivers/lvgl/lvgl/src/extra/widgets/colorwheel/lv_colorwheel.c **** 
 2259              		.loc 1 466 0
 2260 02d0 F28A     		ldrh	r2, [r6, #22]
 2261 02d2 BDF80230 		ldrh	r3, [sp, #2]
ARM GAS  /tmp/ccbjN9K1.s 			page 78


 2262 02d6 9B1A     		subs	r3, r3, r2
 2263 02d8 ADF80230 		strh	r3, [sp, #2]	@ movhi
 469:Drivers/lvgl/lvgl/src/extra/widgets/colorwheel/lv_colorwheel.c **** 
 2264              		.loc 1 469 0
 2265 02dc 3046     		mov	r0, r6
 2266 02de FFF7FEFF 		bl	lv_obj_get_width
 2267              	.LVL280:
 2268 02e2 84B2     		uxth	r4, r0
 2269              	.LVL281:
 2270              	.LBB101:
 2271              	.LBB102:
 411:Drivers/lvgl/lvgl/src/extra/widgets/colorwheel/../../../../src/core/lv_obj_style_gen.h ****     return (lv_coord_t)v.num;
 2272              		.loc 3 411 0
 2273 02e4 5022     		movs	r2, #80
 2274 02e6 0021     		movs	r1, #0
 2275 02e8 3046     		mov	r0, r6
 2276 02ea FFF7FEFF 		bl	lv_obj_get_style_prop
 2277              	.LVL282:
 2278              		.loc 3 412 0
 2279 02ee 07B2     		sxth	r7, r0
 2280              	.LVL283:
 2281              	.LBE102:
 2282              	.LBE101:
 474:Drivers/lvgl/lvgl/src/extra/widgets/colorwheel/lv_colorwheel.c ****         p.x -= r_in;
 2283              		.loc 1 474 0
 2284 02f0 6308     		lsrs	r3, r4, #1
 2285              	.LVL284:
 475:Drivers/lvgl/lvgl/src/extra/widgets/colorwheel/lv_colorwheel.c ****         p.y -= r_in;
 2286              		.loc 1 475 0
 2287 02f2 BDF80020 		ldrh	r2, [sp]
 2288 02f6 D21A     		subs	r2, r2, r3
 2289 02f8 12B2     		sxth	r2, r2
 2290 02fa ADF80020 		strh	r2, [sp]	@ movhi
 476:Drivers/lvgl/lvgl/src/extra/widgets/colorwheel/lv_colorwheel.c ****         bool on_ring = true;
 2291              		.loc 1 476 0
 2292 02fe BDF80210 		ldrh	r1, [sp, #2]
 2293 0302 C91A     		subs	r1, r1, r3
 2294 0304 09B2     		sxth	r1, r1
 2295 0306 ADF80210 		strh	r1, [sp, #2]	@ movhi
 2296              	.LVL285:
 478:Drivers/lvgl/lvgl/src/extra/widgets/colorwheel/lv_colorwheel.c ****         if(r_in > LV_DPI_DEF / 2) {
 2297              		.loc 1 478 0
 2298 030a 1B1A     		subs	r3, r3, r0
 2299              	.LVL286:
 2300 030c 9BB2     		uxth	r3, r3
 2301 030e 18B2     		sxth	r0, r3
 2302              	.LVL287:
 479:Drivers/lvgl/lvgl/src/extra/widgets/colorwheel/lv_colorwheel.c ****             lv_coord_t inner = cir_w / 2;
 2303              		.loc 1 479 0
 2304 0310 4128     		cmp	r0, #65
 2305 0312 08DD     		ble	.L129
 2306              	.LBB103:
 480:Drivers/lvgl/lvgl/src/extra/widgets/colorwheel/lv_colorwheel.c ****             r_in -= inner;
 2307              		.loc 1 480 0
 2308 0314 3846     		mov	r0, r7
 2309              	.LVL288:
 2310 0316 002F     		cmp	r7, #0
ARM GAS  /tmp/ccbjN9K1.s 			page 79


 2311 0318 50DB     		blt	.L158
 2312              	.L130:
 2313              	.LVL289:
 481:Drivers/lvgl/lvgl/src/extra/widgets/colorwheel/lv_colorwheel.c **** 
 2314              		.loc 1 481 0
 2315 031a A3EB6003 		sub	r3, r3, r0, asr #1
 2316              	.LVL290:
 2317 031e 18B2     		sxth	r0, r3
 2318              	.LVL291:
 483:Drivers/lvgl/lvgl/src/extra/widgets/colorwheel/lv_colorwheel.c ****         }
 2319              		.loc 1 483 0
 2320 0320 4028     		cmp	r0, #64
 2321 0322 00DC     		bgt	.L129
 2322 0324 4120     		movs	r0, #65
 2323              	.LVL292:
 2324              	.L129:
 2325              	.LBE103:
 486:Drivers/lvgl/lvgl/src/extra/widgets/colorwheel/lv_colorwheel.c ****             on_ring = false;
 2326              		.loc 1 486 0
 2327 0326 01FB01F1 		mul	r1, r1, r1
 2328 032a 02FB0212 		mla	r2, r2, r2, r1
 2329 032e 00FB00F3 		mul	r3, r0, r0
 2330 0332 9A42     		cmp	r2, r3
 2331 0334 44DB     		blt	.L144
 477:Drivers/lvgl/lvgl/src/extra/widgets/colorwheel/lv_colorwheel.c ****         r_in -= cir_w;
 2332              		.loc 1 477 0
 2333 0336 0124     		movs	r4, #1
 2334              	.LVL293:
 2335              	.L131:
 491:Drivers/lvgl/lvgl/src/extra/widgets/colorwheel/lv_colorwheel.c ****         if(!on_ring && diff > indev->driver->long_press_time && !colorwheel->mode_fixed) {
 2336              		.loc 1 491 0
 2337 0338 706B     		ldr	r0, [r6, #52]
 2338              	.LVL294:
 2339 033a FFF7FEFF 		bl	lv_tick_elaps
 2340              	.LVL295:
 492:Drivers/lvgl/lvgl/src/extra/widgets/colorwheel/lv_colorwheel.c ****             next_color_mode(obj);
 2341              		.loc 1 492 0
 2342 033e 44B9     		cbnz	r4, .L132
 492:Drivers/lvgl/lvgl/src/extra/widgets/colorwheel/lv_colorwheel.c ****             next_color_mode(obj);
 2343              		.loc 1 492 0 is_stmt 0 discriminator 1
 2344 0340 2B68     		ldr	r3, [r5]
 2345 0342 9B8B     		ldrh	r3, [r3, #28]
 2346 0344 8342     		cmp	r3, r0
 2347 0346 04D2     		bcs	.L132
 492:Drivers/lvgl/lvgl/src/extra/widgets/colorwheel/lv_colorwheel.c ****             next_color_mode(obj);
 2348              		.loc 1 492 0 discriminator 2
 2349 0348 96F83C30 		ldrb	r3, [r6, #60]	@ zero_extendqisi2
 2350 034c 13F0040F 		tst	r3, #4
 2351 0350 38D0     		beq	.L159
 2352              	.L132:
 499:Drivers/lvgl/lvgl/src/extra/widgets/colorwheel/lv_colorwheel.c **** 
 2353              		.loc 1 499 0 is_stmt 1
 2354 0352 002C     		cmp	r4, #0
 2355 0354 3FF45DAE 		beq	.L97
 501:Drivers/lvgl/lvgl/src/extra/widgets/colorwheel/lv_colorwheel.c **** 
 2356              		.loc 1 501 0
 2357 0358 BDF90210 		ldrsh	r1, [sp, #2]
ARM GAS  /tmp/ccbjN9K1.s 			page 80


 2358 035c BDF90000 		ldrsh	r0, [sp]
 2359              	.LVL296:
 2360 0360 FFF7FEFF 		bl	lv_atan2
 2361              	.LVL297:
 2362 0364 C308     		lsrs	r3, r0, #3
 2363 0366 314A     		ldr	r2, .L162
 2364 0368 A2FB0323 		umull	r2, r3, r2, r3
 2365 036c 9B08     		lsrs	r3, r3, #2
 2366 036e 4FF4B472 		mov	r2, #360
 2367 0372 02FB1303 		mls	r3, r2, r3, r0
 2368 0376 9BB2     		uxth	r3, r3
 2369 0378 19B2     		sxth	r1, r3
 2370              	.LVL298:
 504:Drivers/lvgl/lvgl/src/extra/widgets/colorwheel/lv_colorwheel.c **** 
 2371              		.loc 1 504 0
 2372 037a 726A     		ldr	r2, [r6, #36]
 2373 037c 0192     		str	r2, [sp, #4]
 506:Drivers/lvgl/lvgl/src/extra/widgets/colorwheel/lv_colorwheel.c ****             case LV_COLORWHEEL_MODE_HUE:
 2374              		.loc 1 506 0
 2375 037e 96F83C20 		ldrb	r2, [r6, #60]	@ zero_extendqisi2
 2376 0382 02F00302 		and	r2, r2, #3
 2377 0386 012A     		cmp	r2, #1
 2378 0388 27D0     		beq	.L134
 2379 038a 1AB3     		cbz	r2, .L135
 2380 038c 022A     		cmp	r2, #2
 2381 038e 2ED0     		beq	.L136
 2382              	.L133:
 518:Drivers/lvgl/lvgl/src/extra/widgets/colorwheel/lv_colorwheel.c ****             res = lv_event_send(obj, LV_EVENT_VALUE_CHANGED, NULL);
 2383              		.loc 1 518 0
 2384 0390 0199     		ldr	r1, [sp, #4]
 2385              	.LVL299:
 2386 0392 3046     		mov	r0, r6
 2387              	.LVL300:
 2388 0394 FFF7FEFF 		bl	lv_colorwheel_set_hsv
 2389              	.LVL301:
 2390 0398 0028     		cmp	r0, #0
 2391 039a 3FF43AAE 		beq	.L97
 519:Drivers/lvgl/lvgl/src/extra/widgets/colorwheel/lv_colorwheel.c ****             if(res != LV_RES_OK) return;
 2392              		.loc 1 519 0
 2393 039e 0022     		movs	r2, #0
 2394 03a0 1C21     		movs	r1, #28
 2395 03a2 3046     		mov	r0, r6
 2396 03a4 FFF7FEFF 		bl	lv_event_send
 2397              	.LVL302:
 2398 03a8 33E6     		b	.L97
 2399              	.LVL303:
 2400              	.L156:
 450:Drivers/lvgl/lvgl/src/extra/widgets/colorwheel/lv_colorwheel.c ****             p.y = obj->coords.y1 + lv_obj_get_height(obj) / 2;
 2401              		.loc 1 450 0
 2402 03aa 431C     		adds	r3, r0, #1
 2403 03ac 5BE7     		b	.L124
 2404              	.L157:
 451:Drivers/lvgl/lvgl/src/extra/widgets/colorwheel/lv_colorwheel.c ****         }
 2405              		.loc 1 451 0
 2406 03ae 431C     		adds	r3, r0, #1
 2407 03b0 65E7     		b	.L125
 2408              	.LVL304:
ARM GAS  /tmp/ccbjN9K1.s 			page 81


 2409              	.L123:
 454:Drivers/lvgl/lvgl/src/extra/widgets/colorwheel/lv_colorwheel.c ****         }
 2410              		.loc 1 454 0
 2411 03b2 6946     		mov	r1, sp
 2412 03b4 2846     		mov	r0, r5
 2413              	.LVL305:
 2414 03b6 FFF7FEFF 		bl	lv_indev_get_point
 2415              	.LVL306:
 2416 03ba 64E7     		b	.L126
 2417              	.LVL307:
 2418              	.L158:
 2419              	.LBB104:
 480:Drivers/lvgl/lvgl/src/extra/widgets/colorwheel/lv_colorwheel.c ****             r_in -= inner;
 2420              		.loc 1 480 0
 2421 03bc 781C     		adds	r0, r7, #1
 2422 03be ACE7     		b	.L130
 2423              	.LVL308:
 2424              	.L144:
 2425              	.LBE104:
 487:Drivers/lvgl/lvgl/src/extra/widgets/colorwheel/lv_colorwheel.c ****         }
 2426              		.loc 1 487 0
 2427 03c0 0024     		movs	r4, #0
 2428              	.LVL309:
 2429 03c2 B9E7     		b	.L131
 2430              	.LVL310:
 2431              	.L159:
 493:Drivers/lvgl/lvgl/src/extra/widgets/colorwheel/lv_colorwheel.c ****             lv_indev_wait_release(lv_indev_get_act());
 2432              		.loc 1 493 0
 2433 03c4 3046     		mov	r0, r6
 2434              	.LVL311:
 2435 03c6 FFF7FEFF 		bl	next_color_mode
 2436              	.LVL312:
 494:Drivers/lvgl/lvgl/src/extra/widgets/colorwheel/lv_colorwheel.c ****             return;
 2437              		.loc 1 494 0
 2438 03ca FFF7FEFF 		bl	lv_indev_get_act
 2439              	.LVL313:
 2440 03ce FFF7FEFF 		bl	lv_indev_wait_release
 2441              	.LVL314:
 495:Drivers/lvgl/lvgl/src/extra/widgets/colorwheel/lv_colorwheel.c ****         }
 2442              		.loc 1 495 0
 2443 03d2 1EE6     		b	.L97
 2444              	.LVL315:
 2445              	.L135:
 508:Drivers/lvgl/lvgl/src/extra/widgets/colorwheel/lv_colorwheel.c ****                 break;
 2446              		.loc 1 508 0
 2447 03d4 ADF80430 		strh	r3, [sp, #4]	@ movhi
 509:Drivers/lvgl/lvgl/src/extra/widgets/colorwheel/lv_colorwheel.c ****             case LV_COLORWHEEL_MODE_SATURATION:
 2448              		.loc 1 509 0
 2449 03d8 DAE7     		b	.L133
 2450              	.L134:
 511:Drivers/lvgl/lvgl/src/extra/widgets/colorwheel/lv_colorwheel.c ****                 break;
 2451              		.loc 1 511 0
 2452 03da 6423     		movs	r3, #100
 2453 03dc 03FB01F3 		mul	r3, r3, r1
 2454 03e0 4FF4B472 		mov	r2, #360
 2455 03e4 93FBF2F3 		sdiv	r3, r3, r2
 2456 03e8 8DF80630 		strb	r3, [sp, #6]
ARM GAS  /tmp/ccbjN9K1.s 			page 82


 512:Drivers/lvgl/lvgl/src/extra/widgets/colorwheel/lv_colorwheel.c ****             case LV_COLORWHEEL_MODE_VALUE:
 2457              		.loc 1 512 0
 2458 03ec D0E7     		b	.L133
 2459              	.L136:
 514:Drivers/lvgl/lvgl/src/extra/widgets/colorwheel/lv_colorwheel.c ****                 break;
 2460              		.loc 1 514 0
 2461 03ee 6423     		movs	r3, #100
 2462 03f0 03FB01F3 		mul	r3, r3, r1
 2463 03f4 4FF4B472 		mov	r2, #360
 2464 03f8 93FBF2F3 		sdiv	r3, r3, r2
 2465 03fc 8DF80730 		strb	r3, [sp, #7]
 515:Drivers/lvgl/lvgl/src/extra/widgets/colorwheel/lv_colorwheel.c ****         }
 2466              		.loc 1 515 0
 2467 0400 C6E7     		b	.L133
 2468              	.LVL316:
 2469              	.L153:
 2470              	.LBE100:
 2471              	.LBB105:
 524:Drivers/lvgl/lvgl/src/extra/widgets/colorwheel/lv_colorwheel.c **** 
 2472              		.loc 1 524 0
 2473 0402 2046     		mov	r0, r4
 2474              	.LVL317:
 2475 0404 FFF7FEFF 		bl	lv_event_get_param
 2476              	.LVL318:
 2477 0408 0446     		mov	r4, r0
 2478              	.LVL319:
 527:Drivers/lvgl/lvgl/src/extra/widgets/colorwheel/lv_colorwheel.c ****     }
 2479              		.loc 1 527 0
 2480 040a 47F6FF72 		movw	r2, #32767
 2481 040e 0168     		ldr	r1, [r0]
 2482 0410 06F11400 		add	r0, r6, #20
 2483              	.LVL320:
 2484 0414 FFF7FEFF 		bl	_lv_area_is_point_on
 2485              	.LVL321:
 2486 0418 2071     		strb	r0, [r4, #4]
 2487              	.LBE105:
 2488 041a FAE5     		b	.L97
 2489              	.LVL322:
 2490              	.L154:
 530:Drivers/lvgl/lvgl/src/extra/widgets/colorwheel/lv_colorwheel.c ****         draw_knob(e);
 2491              		.loc 1 530 0
 2492 041c 2046     		mov	r0, r4
 2493              	.LVL323:
 2494 041e FFF7FEFF 		bl	draw_disc_grad
 2495              	.LVL324:
 531:Drivers/lvgl/lvgl/src/extra/widgets/colorwheel/lv_colorwheel.c ****     }
 2496              		.loc 1 531 0
 2497 0422 2046     		mov	r0, r4
 2498 0424 FFF7FEFF 		bl	draw_knob
 2499              	.LVL325:
 2500 0428 F3E5     		b	.L97
 2501              	.L163:
 2502 042a 00BF     		.align	2
 2503              	.L162:
 2504 042c 176CC116 		.word	381774871
 2505              		.cfi_endproc
 2506              	.LFE216:
ARM GAS  /tmp/ccbjN9K1.s 			page 83


 2508              		.section	.text.lv_colorwheel_get_color_mode,"ax",%progbits
 2509              		.align	1
 2510              		.global	lv_colorwheel_get_color_mode
 2511              		.syntax unified
 2512              		.thumb
 2513              		.thumb_func
 2514              		.fpu fpv5-d16
 2516              	lv_colorwheel_get_color_mode:
 2517              	.LFB209:
 196:Drivers/lvgl/lvgl/src/extra/widgets/colorwheel/lv_colorwheel.c ****     LV_ASSERT_OBJ(obj, MY_CLASS);
 2518              		.loc 1 196 0
 2519              		.cfi_startproc
 2520              		@ args = 0, pretend = 0, frame = 0
 2521              		@ frame_needed = 0, uses_anonymous_args = 0
 2522              		@ link register save eliminated.
 2523              	.LVL326:
 200:Drivers/lvgl/lvgl/src/extra/widgets/colorwheel/lv_colorwheel.c **** }
 2524              		.loc 1 200 0
 2525 0000 90F83C00 		ldrb	r0, [r0, #60]	@ zero_extendqisi2
 2526              	.LVL327:
 201:Drivers/lvgl/lvgl/src/extra/widgets/colorwheel/lv_colorwheel.c **** 
 2527              		.loc 1 201 0
 2528 0004 00F00300 		and	r0, r0, #3
 2529 0008 7047     		bx	lr
 2530              		.cfi_endproc
 2531              	.LFE209:
 2533              		.section	.text.lv_colorwheel_get_color_mode_fixed,"ax",%progbits
 2534              		.align	1
 2535              		.global	lv_colorwheel_get_color_mode_fixed
 2536              		.syntax unified
 2537              		.thumb
 2538              		.thumb_func
 2539              		.fpu fpv5-d16
 2541              	lv_colorwheel_get_color_mode_fixed:
 2542              	.LFB210:
 209:Drivers/lvgl/lvgl/src/extra/widgets/colorwheel/lv_colorwheel.c ****     LV_ASSERT_OBJ(obj, MY_CLASS);
 2543              		.loc 1 209 0
 2544              		.cfi_startproc
 2545              		@ args = 0, pretend = 0, frame = 0
 2546              		@ frame_needed = 0, uses_anonymous_args = 0
 2547              		@ link register save eliminated.
 2548              	.LVL328:
 213:Drivers/lvgl/lvgl/src/extra/widgets/colorwheel/lv_colorwheel.c **** }
 2549              		.loc 1 213 0
 2550 0000 90F83C00 		ldrb	r0, [r0, #60]	@ zero_extendqisi2
 2551              	.LVL329:
 214:Drivers/lvgl/lvgl/src/extra/widgets/colorwheel/lv_colorwheel.c **** 
 2552              		.loc 1 214 0
 2553 0004 C0F38000 		ubfx	r0, r0, #2, #1
 2554 0008 7047     		bx	lr
 2555              		.cfi_endproc
 2556              	.LFE210:
 2558              		.global	lv_colorwheel_class
 2559              		.section	.bss.create_knob_recolor,"aw",%nobits
 2560              		.set	.LANCHOR5,. + 0
 2563              	create_knob_recolor:
 2564 0000 00       		.space	1
ARM GAS  /tmp/ccbjN9K1.s 			page 84


 2565              		.section	.bss.h.12716,"aw",%nobits
 2566              		.align	1
 2567              		.set	.LANCHOR4,. + 0
 2570              	h.12716:
 2571 0000 0000     		.space	2
 2572              		.section	.bss.s.12717,"aw",%nobits
 2573              		.set	.LANCHOR2,. + 0
 2576              	s.12717:
 2577 0000 00       		.space	1
 2578              		.section	.bss.v.12718,"aw",%nobits
 2579              		.set	.LANCHOR3,. + 0
 2582              	v.12718:
 2583 0000 00       		.space	1
 2584              		.section	.data.angle_saved.12720,"aw",%progbits
 2585              		.align	1
 2586              		.set	.LANCHOR0,. + 0
 2589              	angle_saved.12720:
 2590 0000 FFFF     		.short	-1
 2591              		.section	.data.m.12719,"aw",%progbits
 2592              		.set	.LANCHOR1,. + 0
 2595              	m.12719:
 2596 0000 FF       		.byte	-1
 2597              		.section	.rodata.lv_colorwheel_class,"a",%progbits
 2598              		.align	2
 2599              		.set	.LANCHOR6,. + 0
 2602              	lv_colorwheel_class:
 2603 0000 00000000 		.word	lv_obj_class
 2604 0004 00000000 		.word	lv_colorwheel_constructor
 2605 0008 00000000 		.space	8
 2605      00000000 
 2606 0010 00000000 		.word	lv_colorwheel_event
 2607 0014 0401     		.short	260
 2608 0016 0401     		.short	260
 2609 0018 01       		.byte	1
 2610 0019 04       		.byte	4
 2611 001a 00       		.byte	0
 2612 001b 00       		.space	1
 2613              		.text
 2614              	.Letext0:
 2615              		.file 6 "/opt/gcc-arm-none-eabi-7-2017-q4-major/arm-none-eabi/include/machine/_default_types.h"
 2616              		.file 7 "/opt/gcc-arm-none-eabi-7-2017-q4-major/arm-none-eabi/include/sys/_stdint.h"
 2617              		.file 8 "Drivers/lvgl/lvgl/src/extra/widgets/colorwheel/../../../../src/misc/lv_types.h"
 2618              		.file 9 "Drivers/lvgl/lvgl/src/extra/widgets/colorwheel/../../../../src/misc/lv_timer.h"
 2619              		.file 10 "/opt/gcc-arm-none-eabi-7-2017-q4-major/lib/gcc/arm-none-eabi/7.2.1/include/stddef.h"
 2620              		.file 11 "/opt/gcc-arm-none-eabi-7-2017-q4-major/arm-none-eabi/include/sys/lock.h"
 2621              		.file 12 "/opt/gcc-arm-none-eabi-7-2017-q4-major/arm-none-eabi/include/sys/_types.h"
 2622              		.file 13 "/opt/gcc-arm-none-eabi-7-2017-q4-major/arm-none-eabi/include/sys/reent.h"
 2623              		.file 14 "Drivers/lvgl/lvgl/src/extra/widgets/colorwheel/../../../../src/hal/../draw/../misc/../fo
 2624              		.file 15 "Drivers/lvgl/lvgl/src/extra/widgets/colorwheel/../../../../src/hal/../draw/../misc/lv_tx
 2625              		.file 16 "Drivers/lvgl/lvgl/src/extra/widgets/colorwheel/../../../../src/hal/../draw/../misc/lv_bi
 2626              		.file 17 "Drivers/lvgl/lvgl/src/extra/widgets/colorwheel/../../../../src/hal/../draw/../misc/lv_st
 2627              		.file 18 "Drivers/lvgl/lvgl/src/extra/widgets/colorwheel/../../../../src/hal/../draw/lv_img_buf.h"
 2628              		.file 19 "Drivers/lvgl/lvgl/src/extra/widgets/colorwheel/../../../../src/core/lv_obj.h"
 2629              		.file 20 "Drivers/lvgl/lvgl/src/extra/widgets/colorwheel/../../../../src/hal/../draw/lv_draw_rect.
 2630              		.file 21 "Drivers/lvgl/lvgl/src/extra/widgets/colorwheel/../../../../src/hal/../draw/lv_draw_label
 2631              		.file 22 "Drivers/lvgl/lvgl/src/extra/widgets/colorwheel/../../../../src/hal/../draw/lv_draw_img.h
 2632              		.file 23 "Drivers/lvgl/lvgl/src/extra/widgets/colorwheel/../../../../src/hal/../draw/lv_draw_line.
ARM GAS  /tmp/ccbjN9K1.s 			page 85


 2633              		.file 24 "Drivers/lvgl/lvgl/src/extra/widgets/colorwheel/../../../../src/hal/../draw/lv_draw_arc.h
 2634              		.file 25 "Drivers/lvgl/lvgl/src/extra/widgets/colorwheel/../../../../src/hal/../draw/lv_draw_mask.
 2635              		.file 26 "Drivers/lvgl/lvgl/src/extra/widgets/colorwheel/../../../../src/hal/../draw/lv_draw_layer
 2636              		.file 27 "Drivers/lvgl/lvgl/src/extra/widgets/colorwheel/../../../../src/hal/../draw/lv_draw.h"
 2637              		.file 28 "Drivers/lvgl/lvgl/src/extra/widgets/colorwheel/../../../../src/hal/../misc/lv_ll.h"
 2638              		.file 29 "Drivers/lvgl/lvgl/src/extra/widgets/colorwheel/../../../../src/hal/lv_hal_disp.h"
 2639              		.file 30 "Drivers/lvgl/lvgl/src/extra/widgets/colorwheel/../../../../src/core/lv_theme.h"
 2640              		.file 31 "Drivers/lvgl/lvgl/src/extra/widgets/colorwheel/../../../../src/hal/lv_hal_indev.h"
 2641              		.file 32 "Drivers/lvgl/lvgl/src/extra/widgets/colorwheel/../../../../src/core/lv_group.h"
 2642              		.file 33 "Drivers/lvgl/lvgl/src/extra/widgets/colorwheel/../../../../src/core/lv_obj_scroll.h"
 2643              		.file 34 "Drivers/lvgl/lvgl/src/extra/widgets/colorwheel/../../../../src/core/lv_obj_style.h"
 2644              		.file 35 "Drivers/lvgl/lvgl/src/extra/widgets/colorwheel/../../../../src/core/lv_obj_draw.h"
 2645              		.file 36 "Drivers/lvgl/lvgl/src/extra/widgets/colorwheel/../../../../src/core/lv_obj_class.h"
 2646              		.file 37 "Drivers/lvgl/lvgl/src/extra/widgets/colorwheel/../../../../src/core/lv_event.h"
 2647              		.file 38 "Drivers/lvgl/lvgl/src/extra/widgets/colorwheel/../../../../src/widgets/lv_arc.h"
 2648              		.file 39 "Drivers/lvgl/lvgl/src/extra/widgets/colorwheel/../../../../src/widgets/lv_btn.h"
 2649              		.file 40 "Drivers/lvgl/lvgl/src/extra/widgets/colorwheel/../../../../src/widgets/lv_img.h"
 2650              		.file 41 "Drivers/lvgl/lvgl/src/extra/widgets/colorwheel/../../../../src/widgets/lv_label.h"
 2651              		.file 42 "Drivers/lvgl/lvgl/src/extra/widgets/colorwheel/../../../../src/widgets/lv_line.h"
 2652              		.file 43 "Drivers/lvgl/lvgl/src/extra/widgets/colorwheel/../../../../src/widgets/lv_table.h"
 2653              		.file 44 "Drivers/lvgl/lvgl/src/extra/widgets/colorwheel/../../../../src/widgets/lv_checkbox.h"
 2654              		.file 45 "Drivers/lvgl/lvgl/src/extra/widgets/colorwheel/../../../../src/widgets/lv_bar.h"
 2655              		.file 46 "Drivers/lvgl/lvgl/src/extra/widgets/colorwheel/../../../../src/widgets/lv_slider.h"
 2656              		.file 47 "Drivers/lvgl/lvgl/src/extra/widgets/colorwheel/../../../../src/widgets/lv_btnmatrix.h"
 2657              		.file 48 "Drivers/lvgl/lvgl/src/extra/widgets/colorwheel/../../../../src/widgets/lv_dropdown.h"
 2658              		.file 49 "Drivers/lvgl/lvgl/src/extra/widgets/colorwheel/../../../../src/widgets/lv_roller.h"
 2659              		.file 50 "Drivers/lvgl/lvgl/src/extra/widgets/colorwheel/../../../../src/widgets/lv_textarea.h"
 2660              		.file 51 "Drivers/lvgl/lvgl/src/extra/widgets/colorwheel/../../../../src/widgets/lv_canvas.h"
 2661              		.file 52 "Drivers/lvgl/lvgl/src/extra/widgets/colorwheel/../../../../src/widgets/lv_switch.h"
 2662              		.file 53 "Drivers/lvgl/lvgl/src/extra/widgets/colorwheel/../../../../src/extra/layouts/flex/lv_fle
 2663              		.file 54 "Drivers/lvgl/lvgl/src/extra/widgets/colorwheel/../../../../src/extra/layouts/grid/lv_gri
 2664              		.file 55 "Drivers/lvgl/lvgl/src/extra/widgets/colorwheel/../../../../src/extra/widgets/animimg/lv_
 2665              		.file 56 "Drivers/lvgl/lvgl/src/extra/widgets/colorwheel/../../../../src/extra/widgets/calendar/lv
 2666              		.file 57 "Drivers/lvgl/lvgl/src/extra/widgets/colorwheel/../../../../src/extra/widgets/calendar/lv
 2667              		.file 58 "Drivers/lvgl/lvgl/src/extra/widgets/colorwheel/../../../../src/extra/widgets/calendar/lv
 2668              		.file 59 "Drivers/lvgl/lvgl/src/extra/widgets/colorwheel/../../../../src/extra/widgets/chart/lv_ch
 2669              		.file 60 "Drivers/lvgl/lvgl/src/extra/widgets/colorwheel/../../../../src/extra/widgets/keyboard/lv
 2670              		.file 61 "Drivers/lvgl/lvgl/src/extra/widgets/colorwheel/../../../../src/extra/widgets/list/lv_lis
 2671              		.file 62 "Drivers/lvgl/lvgl/src/extra/widgets/colorwheel/../../../../src/extra/widgets/menu/lv_men
 2672              		.file 63 "Drivers/lvgl/lvgl/src/extra/widgets/colorwheel/../../../../src/extra/widgets/msgbox/lv_m
 2673              		.file 64 "Drivers/lvgl/lvgl/src/extra/widgets/colorwheel/../../../../src/extra/widgets/meter/lv_me
 2674              		.file 65 "Drivers/lvgl/lvgl/src/extra/widgets/colorwheel/../../../../src/extra/widgets/spinbox/lv_
 2675              		.file 66 "Drivers/lvgl/lvgl/src/extra/widgets/colorwheel/../../../../src/extra/widgets/spinner/lv_
 2676              		.file 67 "Drivers/lvgl/lvgl/src/extra/widgets/colorwheel/../../../../src/extra/widgets/tabview/lv_
 2677              		.file 68 "Drivers/lvgl/lvgl/src/extra/widgets/colorwheel/../../../../src/extra/widgets/tileview/lv
 2678              		.file 69 "Drivers/lvgl/lvgl/src/extra/widgets/colorwheel/../../../../src/extra/widgets/win/lv_win.
 2679              		.file 70 "Drivers/lvgl/lvgl/src/extra/widgets/colorwheel/../../../../src/extra/widgets/led/lv_led.
 2680              		.file 71 "Drivers/lvgl/lvgl/src/extra/widgets/colorwheel/../../../../src/extra/widgets/imgbtn/lv_i
 2681              		.file 72 "Drivers/lvgl/lvgl/src/extra/widgets/colorwheel/../../../../src/extra/widgets/span/lv_spa
 2682              		.file 73 "Drivers/lvgl/lvgl/src/extra/widgets/colorwheel/lv_colorwheel.h"
 2683              		.file 74 "Drivers/lvgl/lvgl/src/extra/widgets/colorwheel/../../../../src/core/lv_indev.h"
 2684              		.file 75 "Drivers/lvgl/lvgl/src/extra/widgets/colorwheel/../../../../src/misc/../hal/lv_hal_tick.h
 2685              		.file 76 "Drivers/lvgl/lvgl/src/extra/widgets/colorwheel/../../../../src/hal/../draw/sw/../../core
ARM GAS  /tmp/ccbjN9K1.s 			page 86


DEFINED SYMBOLS
                            *ABS*:0000000000000000 lv_colorwheel.c
     /tmp/ccbjN9K1.s:17     .text.fast_hsv2rgb:0000000000000000 $t
     /tmp/ccbjN9K1.s:23     .text.fast_hsv2rgb:0000000000000000 fast_hsv2rgb
     /tmp/ccbjN9K1.s:169    .text.angle_to_mode_color_fast:0000000000000000 $t
     /tmp/ccbjN9K1.s:175    .text.angle_to_mode_color_fast:0000000000000000 angle_to_mode_color_fast
     /tmp/ccbjN9K1.s:390    .text.angle_to_mode_color_fast:000000000000017c $d
     /tmp/ccbjN9K1.s:401    .text.get_angle:0000000000000000 $t
     /tmp/ccbjN9K1.s:407    .text.get_angle:0000000000000000 get_angle
     /tmp/ccbjN9K1.s:456    .text.get_angle:0000000000000040 $d
     /tmp/ccbjN9K1.s:461    .text.get_knob_area:0000000000000000 $t
     /tmp/ccbjN9K1.s:467    .text.get_knob_area:0000000000000000 get_knob_area
     /tmp/ccbjN9K1.s:598    .text.invalidate_knob:0000000000000000 $t
     /tmp/ccbjN9K1.s:604    .text.invalidate_knob:0000000000000000 invalidate_knob
     /tmp/ccbjN9K1.s:641    .text.refr_knob_pos:0000000000000000 $t
     /tmp/ccbjN9K1.s:647    .text.refr_knob_pos:0000000000000000 refr_knob_pos
     /tmp/ccbjN9K1.s:751    .text.next_color_mode:0000000000000000 $t
     /tmp/ccbjN9K1.s:757    .text.next_color_mode:0000000000000000 next_color_mode
     /tmp/ccbjN9K1.s:795    .text.draw_disc_grad:0000000000000000 $t
     /tmp/ccbjN9K1.s:801    .text.draw_disc_grad:0000000000000000 draw_disc_grad
     /tmp/ccbjN9K1.s:1098   .text.draw_disc_grad:00000000000001ac $d
     /tmp/ccbjN9K1.s:1103   .text.lv_colorwheel_constructor:0000000000000000 $t
     /tmp/ccbjN9K1.s:1109   .text.lv_colorwheel_constructor:0000000000000000 lv_colorwheel_constructor
     /tmp/ccbjN9K1.s:1169   .text.lv_colorwheel_constructor:0000000000000054 $d
     /tmp/ccbjN9K1.s:1174   .text.lv_colorwheel_create:0000000000000000 $t
     /tmp/ccbjN9K1.s:1181   .text.lv_colorwheel_create:0000000000000000 lv_colorwheel_create
     /tmp/ccbjN9K1.s:1215   .text.lv_colorwheel_create:0000000000000018 $d
     /tmp/ccbjN9K1.s:1221   .text.lv_colorwheel_set_hsv:0000000000000000 $t
     /tmp/ccbjN9K1.s:1228   .text.lv_colorwheel_set_hsv:0000000000000000 lv_colorwheel_set_hsv
     /tmp/ccbjN9K1.s:1318   .text.lv_colorwheel_set_hsv:0000000000000070 $d
     /tmp/ccbjN9K1.s:1323   .text.double_click_reset:0000000000000000 $t
     /tmp/ccbjN9K1.s:1329   .text.double_click_reset:0000000000000000 double_click_reset
     /tmp/ccbjN9K1.s:1440   .text.lv_colorwheel_set_rgb:0000000000000000 $t
     /tmp/ccbjN9K1.s:1447   .text.lv_colorwheel_set_rgb:0000000000000000 lv_colorwheel_set_rgb
     /tmp/ccbjN9K1.s:1515   .text.lv_colorwheel_set_mode:0000000000000000 $t
     /tmp/ccbjN9K1.s:1522   .text.lv_colorwheel_set_mode:0000000000000000 lv_colorwheel_set_mode
     /tmp/ccbjN9K1.s:1553   .text.lv_colorwheel_set_mode_fixed:0000000000000000 $t
     /tmp/ccbjN9K1.s:1560   .text.lv_colorwheel_set_mode_fixed:0000000000000000 lv_colorwheel_set_mode_fixed
     /tmp/ccbjN9K1.s:1578   .text.lv_colorwheel_get_hsv:0000000000000000 $t
     /tmp/ccbjN9K1.s:1585   .text.lv_colorwheel_get_hsv:0000000000000000 lv_colorwheel_get_hsv
     /tmp/ccbjN9K1.s:1615   .text.lv_colorwheel_get_rgb:0000000000000000 $t
     /tmp/ccbjN9K1.s:1622   .text.lv_colorwheel_get_rgb:0000000000000000 lv_colorwheel_get_rgb
     /tmp/ccbjN9K1.s:1648   .text.draw_knob:0000000000000000 $t
     /tmp/ccbjN9K1.s:1654   .text.draw_knob:0000000000000000 draw_knob
     /tmp/ccbjN9K1.s:1734   .text.lv_colorwheel_event:0000000000000000 $t
     /tmp/ccbjN9K1.s:1740   .text.lv_colorwheel_event:0000000000000000 lv_colorwheel_event
     /tmp/ccbjN9K1.s:2172   .text.lv_colorwheel_event:0000000000000230 $d
     /tmp/ccbjN9K1.s:2179   .text.lv_colorwheel_event:000000000000023c $t
     /tmp/ccbjN9K1.s:2504   .text.lv_colorwheel_event:000000000000042c $d
     /tmp/ccbjN9K1.s:2509   .text.lv_colorwheel_get_color_mode:0000000000000000 $t
     /tmp/ccbjN9K1.s:2516   .text.lv_colorwheel_get_color_mode:0000000000000000 lv_colorwheel_get_color_mode
     /tmp/ccbjN9K1.s:2534   .text.lv_colorwheel_get_color_mode_fixed:0000000000000000 $t
     /tmp/ccbjN9K1.s:2541   .text.lv_colorwheel_get_color_mode_fixed:0000000000000000 lv_colorwheel_get_color_mode_fixed
     /tmp/ccbjN9K1.s:2602   .rodata.lv_colorwheel_class:0000000000000000 lv_colorwheel_class
     /tmp/ccbjN9K1.s:2563   .bss.create_knob_recolor:0000000000000000 create_knob_recolor
     /tmp/ccbjN9K1.s:2564   .bss.create_knob_recolor:0000000000000000 $d
     /tmp/ccbjN9K1.s:2566   .bss.h.12716:0000000000000000 $d
ARM GAS  /tmp/ccbjN9K1.s 			page 87


     /tmp/ccbjN9K1.s:2570   .bss.h.12716:0000000000000000 h.12716
     /tmp/ccbjN9K1.s:2576   .bss.s.12717:0000000000000000 s.12717
     /tmp/ccbjN9K1.s:2577   .bss.s.12717:0000000000000000 $d
     /tmp/ccbjN9K1.s:2582   .bss.v.12718:0000000000000000 v.12718
     /tmp/ccbjN9K1.s:2583   .bss.v.12718:0000000000000000 $d
     /tmp/ccbjN9K1.s:2585   .data.angle_saved.12720:0000000000000000 $d
     /tmp/ccbjN9K1.s:2589   .data.angle_saved.12720:0000000000000000 angle_saved.12720
     /tmp/ccbjN9K1.s:2595   .data.m.12719:0000000000000000 m.12719
     /tmp/ccbjN9K1.s:2598   .rodata.lv_colorwheel_class:0000000000000000 $d

UNDEFINED SYMBOLS
lv_obj_get_style_prop
lv_obj_invalidate_area
lv_obj_get_width
lv_trigo_sin
lv_obj_invalidate
lv_event_get_target
lv_event_get_draw_ctx
lv_obj_get_height
lv_draw_line_dsc_init
lv_obj_init_draw_line_dsc
lv_draw_mask_radius_init
lv_draw_mask_add
lv_draw_line
lv_draw_mask_free_param
lv_draw_mask_remove_id
lv_obj_add_flag
lv_obj_clear_flag
lv_obj_class_create_obj
lv_obj_class_init_obj
lv_indev_get_act
lv_tick_elaps
lv_indev_wait_release
lv_tick_get
lv_event_send
lv_color_rgb_to_hsv
lv_color_hsv_to_rgb
lv_draw_rect_dsc_init
lv_obj_init_draw_rect_dsc
lv_draw_rect
lv_obj_event_base
lv_event_get_code
lv_event_get_param
lv_indev_get_point
lv_indev_get_type
lv_atan2
_lv_area_is_point_on
lv_obj_class
