ARM GAS  /tmp/cc17zSpC.s 			page 1


   1              		.cpu cortex-m7
   2              		.eabi_attribute 28, 1
   3              		.eabi_attribute 20, 1
   4              		.eabi_attribute 21, 1
   5              		.eabi_attribute 23, 3
   6              		.eabi_attribute 24, 1
   7              		.eabi_attribute 25, 1
   8              		.eabi_attribute 26, 1
   9              		.eabi_attribute 30, 1
  10              		.eabi_attribute 34, 1
  11              		.eabi_attribute 18, 4
  12              		.file	"lv_calendar_header_dropdown.c"
  13              		.text
  14              	.Ltext0:
  15              		.cfi_sections	.debug_frame
  16              		.section	.text.my_constructor,"ax",%progbits
  17              		.align	1
  18              		.syntax unified
  19              		.thumb
  20              		.thumb_func
  21              		.fpu fpv5-d16
  23              	my_constructor:
  24              	.LFB165:
  25              		.file 1 "Drivers/lvgl/lvgl/src/extra/widgets/calendar/lv_calendar_header_dropdown.c"
   1:Drivers/lvgl/lvgl/src/extra/widgets/calendar/lv_calendar_header_dropdown.c **** /**
   2:Drivers/lvgl/lvgl/src/extra/widgets/calendar/lv_calendar_header_dropdown.c ****  * @file lv_calendar_obj_dropdown.c
   3:Drivers/lvgl/lvgl/src/extra/widgets/calendar/lv_calendar_header_dropdown.c ****  *
   4:Drivers/lvgl/lvgl/src/extra/widgets/calendar/lv_calendar_header_dropdown.c ****  */
   5:Drivers/lvgl/lvgl/src/extra/widgets/calendar/lv_calendar_header_dropdown.c **** 
   6:Drivers/lvgl/lvgl/src/extra/widgets/calendar/lv_calendar_header_dropdown.c **** /*********************
   7:Drivers/lvgl/lvgl/src/extra/widgets/calendar/lv_calendar_header_dropdown.c ****  *      INCLUDES
   8:Drivers/lvgl/lvgl/src/extra/widgets/calendar/lv_calendar_header_dropdown.c ****  *********************/
   9:Drivers/lvgl/lvgl/src/extra/widgets/calendar/lv_calendar_header_dropdown.c **** #include "lv_calendar_header_dropdown.h"
  10:Drivers/lvgl/lvgl/src/extra/widgets/calendar/lv_calendar_header_dropdown.c **** #if LV_USE_CALENDAR_HEADER_DROPDOWN
  11:Drivers/lvgl/lvgl/src/extra/widgets/calendar/lv_calendar_header_dropdown.c **** 
  12:Drivers/lvgl/lvgl/src/extra/widgets/calendar/lv_calendar_header_dropdown.c **** #include "lv_calendar.h"
  13:Drivers/lvgl/lvgl/src/extra/widgets/calendar/lv_calendar_header_dropdown.c **** #include "../../../widgets/lv_dropdown.h"
  14:Drivers/lvgl/lvgl/src/extra/widgets/calendar/lv_calendar_header_dropdown.c **** #include "../../layouts/flex/lv_flex.h"
  15:Drivers/lvgl/lvgl/src/extra/widgets/calendar/lv_calendar_header_dropdown.c **** 
  16:Drivers/lvgl/lvgl/src/extra/widgets/calendar/lv_calendar_header_dropdown.c **** /*********************
  17:Drivers/lvgl/lvgl/src/extra/widgets/calendar/lv_calendar_header_dropdown.c ****  *      DEFINES
  18:Drivers/lvgl/lvgl/src/extra/widgets/calendar/lv_calendar_header_dropdown.c ****  *********************/
  19:Drivers/lvgl/lvgl/src/extra/widgets/calendar/lv_calendar_header_dropdown.c **** 
  20:Drivers/lvgl/lvgl/src/extra/widgets/calendar/lv_calendar_header_dropdown.c **** /**********************
  21:Drivers/lvgl/lvgl/src/extra/widgets/calendar/lv_calendar_header_dropdown.c ****  *      TYPEDEFS
  22:Drivers/lvgl/lvgl/src/extra/widgets/calendar/lv_calendar_header_dropdown.c ****  **********************/
  23:Drivers/lvgl/lvgl/src/extra/widgets/calendar/lv_calendar_header_dropdown.c **** 
  24:Drivers/lvgl/lvgl/src/extra/widgets/calendar/lv_calendar_header_dropdown.c **** /**********************
  25:Drivers/lvgl/lvgl/src/extra/widgets/calendar/lv_calendar_header_dropdown.c ****  *  STATIC PROTOTYPES
  26:Drivers/lvgl/lvgl/src/extra/widgets/calendar/lv_calendar_header_dropdown.c ****  **********************/
  27:Drivers/lvgl/lvgl/src/extra/widgets/calendar/lv_calendar_header_dropdown.c **** static void my_constructor(const lv_obj_class_t * class_p, lv_obj_t * obj);
  28:Drivers/lvgl/lvgl/src/extra/widgets/calendar/lv_calendar_header_dropdown.c **** static void year_event_cb(lv_event_t * e);
  29:Drivers/lvgl/lvgl/src/extra/widgets/calendar/lv_calendar_header_dropdown.c **** static void month_event_cb(lv_event_t * e);
  30:Drivers/lvgl/lvgl/src/extra/widgets/calendar/lv_calendar_header_dropdown.c **** static void value_changed_event_cb(lv_event_t * e);
  31:Drivers/lvgl/lvgl/src/extra/widgets/calendar/lv_calendar_header_dropdown.c **** 
  32:Drivers/lvgl/lvgl/src/extra/widgets/calendar/lv_calendar_header_dropdown.c **** /**********************
  33:Drivers/lvgl/lvgl/src/extra/widgets/calendar/lv_calendar_header_dropdown.c ****  *  STATIC VARIABLES
ARM GAS  /tmp/cc17zSpC.s 			page 2


  34:Drivers/lvgl/lvgl/src/extra/widgets/calendar/lv_calendar_header_dropdown.c ****  **********************/
  35:Drivers/lvgl/lvgl/src/extra/widgets/calendar/lv_calendar_header_dropdown.c **** const lv_obj_class_t lv_calendar_header_dropdown_class = {
  36:Drivers/lvgl/lvgl/src/extra/widgets/calendar/lv_calendar_header_dropdown.c ****     .base_class = &lv_obj_class,
  37:Drivers/lvgl/lvgl/src/extra/widgets/calendar/lv_calendar_header_dropdown.c ****     .width_def = LV_PCT(100),
  38:Drivers/lvgl/lvgl/src/extra/widgets/calendar/lv_calendar_header_dropdown.c ****     .height_def = LV_SIZE_CONTENT,
  39:Drivers/lvgl/lvgl/src/extra/widgets/calendar/lv_calendar_header_dropdown.c ****     .constructor_cb = my_constructor
  40:Drivers/lvgl/lvgl/src/extra/widgets/calendar/lv_calendar_header_dropdown.c **** };
  41:Drivers/lvgl/lvgl/src/extra/widgets/calendar/lv_calendar_header_dropdown.c **** 
  42:Drivers/lvgl/lvgl/src/extra/widgets/calendar/lv_calendar_header_dropdown.c **** static const char * month_list = "01\n02\n03\n04\n05\n06\n07\n08\n09\n10\n11\n12";
  43:Drivers/lvgl/lvgl/src/extra/widgets/calendar/lv_calendar_header_dropdown.c **** static const char * year_list = {
  44:Drivers/lvgl/lvgl/src/extra/widgets/calendar/lv_calendar_header_dropdown.c ****     "2023\n2022\n2021\n"
  45:Drivers/lvgl/lvgl/src/extra/widgets/calendar/lv_calendar_header_dropdown.c ****     "2020\n2019\n2018\n2017\n2016\n2015\n2014\n2013\n2012\n2011\n2010\n2009\n2008\n2007\n2006\n2005
  46:Drivers/lvgl/lvgl/src/extra/widgets/calendar/lv_calendar_header_dropdown.c ****     "2000\n1999\n1998\n1997\n1996\n1995\n1994\n1993\n1992\n1991\n1990\n1989\n1988\n1987\n1986\n1985
  47:Drivers/lvgl/lvgl/src/extra/widgets/calendar/lv_calendar_header_dropdown.c ****     "1980\n1979\n1978\n1977\n1976\n1975\n1974\n1973\n1972\n1971\n1970\n1969\n1968\n1967\n1966\n1965
  48:Drivers/lvgl/lvgl/src/extra/widgets/calendar/lv_calendar_header_dropdown.c ****     "1960\n1959\n1958\n1957\n1956\n1955\n1954\n1953\n1952\n1951\n1950\n1949\n1948\n1947\n1946\n1945
  49:Drivers/lvgl/lvgl/src/extra/widgets/calendar/lv_calendar_header_dropdown.c ****     "1940\n1939\n1938\n1937\n1936\n1935\n1934\n1933\n1932\n1931\n1930\n1929\n1928\n1927\n1926\n1925
  50:Drivers/lvgl/lvgl/src/extra/widgets/calendar/lv_calendar_header_dropdown.c ****     "1920\n1919\n1918\n1917\n1916\n1915\n1914\n1913\n1912\n1911\n1910\n1909\n1908\n1907\n1906\n1905
  51:Drivers/lvgl/lvgl/src/extra/widgets/calendar/lv_calendar_header_dropdown.c **** };
  52:Drivers/lvgl/lvgl/src/extra/widgets/calendar/lv_calendar_header_dropdown.c **** 
  53:Drivers/lvgl/lvgl/src/extra/widgets/calendar/lv_calendar_header_dropdown.c **** /**********************
  54:Drivers/lvgl/lvgl/src/extra/widgets/calendar/lv_calendar_header_dropdown.c ****  *      MACROS
  55:Drivers/lvgl/lvgl/src/extra/widgets/calendar/lv_calendar_header_dropdown.c ****  **********************/
  56:Drivers/lvgl/lvgl/src/extra/widgets/calendar/lv_calendar_header_dropdown.c **** 
  57:Drivers/lvgl/lvgl/src/extra/widgets/calendar/lv_calendar_header_dropdown.c **** /**********************
  58:Drivers/lvgl/lvgl/src/extra/widgets/calendar/lv_calendar_header_dropdown.c ****  *   GLOBAL FUNCTIONS
  59:Drivers/lvgl/lvgl/src/extra/widgets/calendar/lv_calendar_header_dropdown.c ****  **********************/
  60:Drivers/lvgl/lvgl/src/extra/widgets/calendar/lv_calendar_header_dropdown.c **** 
  61:Drivers/lvgl/lvgl/src/extra/widgets/calendar/lv_calendar_header_dropdown.c **** lv_obj_t * lv_calendar_header_dropdown_create(lv_obj_t * parent)
  62:Drivers/lvgl/lvgl/src/extra/widgets/calendar/lv_calendar_header_dropdown.c **** {
  63:Drivers/lvgl/lvgl/src/extra/widgets/calendar/lv_calendar_header_dropdown.c ****     lv_obj_t * obj = lv_obj_class_create_obj(&lv_calendar_header_dropdown_class, parent);
  64:Drivers/lvgl/lvgl/src/extra/widgets/calendar/lv_calendar_header_dropdown.c ****     lv_obj_class_init_obj(obj);
  65:Drivers/lvgl/lvgl/src/extra/widgets/calendar/lv_calendar_header_dropdown.c **** 
  66:Drivers/lvgl/lvgl/src/extra/widgets/calendar/lv_calendar_header_dropdown.c ****     return obj;
  67:Drivers/lvgl/lvgl/src/extra/widgets/calendar/lv_calendar_header_dropdown.c **** }
  68:Drivers/lvgl/lvgl/src/extra/widgets/calendar/lv_calendar_header_dropdown.c **** 
  69:Drivers/lvgl/lvgl/src/extra/widgets/calendar/lv_calendar_header_dropdown.c **** /**********************
  70:Drivers/lvgl/lvgl/src/extra/widgets/calendar/lv_calendar_header_dropdown.c ****  *  STATIC FUNCTIONS
  71:Drivers/lvgl/lvgl/src/extra/widgets/calendar/lv_calendar_header_dropdown.c ****  **********************/
  72:Drivers/lvgl/lvgl/src/extra/widgets/calendar/lv_calendar_header_dropdown.c **** 
  73:Drivers/lvgl/lvgl/src/extra/widgets/calendar/lv_calendar_header_dropdown.c **** static void my_constructor(const lv_obj_class_t * class_p, lv_obj_t * obj)
  74:Drivers/lvgl/lvgl/src/extra/widgets/calendar/lv_calendar_header_dropdown.c **** {
  26              		.loc 1 74 0
  27              		.cfi_startproc
  28              		@ args = 0, pretend = 0, frame = 0
  29              		@ frame_needed = 0, uses_anonymous_args = 0
  30              	.LVL0:
  31 0000 70B5     		push	{r4, r5, r6, lr}
  32              	.LCFI0:
  33              		.cfi_def_cfa_offset 16
  34              		.cfi_offset 4, -16
  35              		.cfi_offset 5, -12
  36              		.cfi_offset 6, -8
  37              		.cfi_offset 14, -4
  38 0002 0C46     		mov	r4, r1
  75:Drivers/lvgl/lvgl/src/extra/widgets/calendar/lv_calendar_header_dropdown.c ****     LV_TRACE_OBJ_CREATE("begin");
  76:Drivers/lvgl/lvgl/src/extra/widgets/calendar/lv_calendar_header_dropdown.c **** 
  77:Drivers/lvgl/lvgl/src/extra/widgets/calendar/lv_calendar_header_dropdown.c ****     LV_UNUSED(class_p);
ARM GAS  /tmp/cc17zSpC.s 			page 3


  78:Drivers/lvgl/lvgl/src/extra/widgets/calendar/lv_calendar_header_dropdown.c **** 
  79:Drivers/lvgl/lvgl/src/extra/widgets/calendar/lv_calendar_header_dropdown.c ****     lv_obj_t * calendar = lv_obj_get_parent(obj);
  39              		.loc 1 79 0
  40 0004 0846     		mov	r0, r1
  41              	.LVL1:
  42 0006 FFF7FEFF 		bl	lv_obj_get_parent
  43              	.LVL2:
  44 000a 0646     		mov	r6, r0
  45              	.LVL3:
  80:Drivers/lvgl/lvgl/src/extra/widgets/calendar/lv_calendar_header_dropdown.c ****     lv_obj_move_to_index(obj, 0);
  46              		.loc 1 80 0
  47 000c 0021     		movs	r1, #0
  48 000e 2046     		mov	r0, r4
  49              	.LVL4:
  50 0010 FFF7FEFF 		bl	lv_obj_move_to_index
  51              	.LVL5:
  81:Drivers/lvgl/lvgl/src/extra/widgets/calendar/lv_calendar_header_dropdown.c ****     lv_obj_set_flex_flow(obj, LV_FLEX_FLOW_ROW);
  52              		.loc 1 81 0
  53 0014 0021     		movs	r1, #0
  54 0016 2046     		mov	r0, r4
  55 0018 FFF7FEFF 		bl	lv_obj_set_flex_flow
  56              	.LVL6:
  82:Drivers/lvgl/lvgl/src/extra/widgets/calendar/lv_calendar_header_dropdown.c **** 
  83:Drivers/lvgl/lvgl/src/extra/widgets/calendar/lv_calendar_header_dropdown.c ****     lv_obj_t * year_dd = lv_dropdown_create(obj);
  57              		.loc 1 83 0
  58 001c 2046     		mov	r0, r4
  59 001e FFF7FEFF 		bl	lv_dropdown_create
  60              	.LVL7:
  61 0022 0546     		mov	r5, r0
  62              	.LVL8:
  84:Drivers/lvgl/lvgl/src/extra/widgets/calendar/lv_calendar_header_dropdown.c ****     lv_dropdown_set_options(year_dd, year_list);
  63              		.loc 1 84 0
  64 0024 1449     		ldr	r1, .L3
  65 0026 FFF7FEFF 		bl	lv_dropdown_set_options
  66              	.LVL9:
  85:Drivers/lvgl/lvgl/src/extra/widgets/calendar/lv_calendar_header_dropdown.c ****     lv_obj_add_event_cb(year_dd, year_event_cb, LV_EVENT_VALUE_CHANGED, calendar);
  67              		.loc 1 85 0
  68 002a 3346     		mov	r3, r6
  69 002c 1C22     		movs	r2, #28
  70 002e 1349     		ldr	r1, .L3+4
  71 0030 2846     		mov	r0, r5
  72 0032 FFF7FEFF 		bl	lv_obj_add_event_cb
  73              	.LVL10:
  86:Drivers/lvgl/lvgl/src/extra/widgets/calendar/lv_calendar_header_dropdown.c ****     lv_obj_set_flex_grow(year_dd, 1);
  74              		.loc 1 86 0
  75 0036 0121     		movs	r1, #1
  76 0038 2846     		mov	r0, r5
  77 003a FFF7FEFF 		bl	lv_obj_set_flex_grow
  78              	.LVL11:
  87:Drivers/lvgl/lvgl/src/extra/widgets/calendar/lv_calendar_header_dropdown.c **** 
  88:Drivers/lvgl/lvgl/src/extra/widgets/calendar/lv_calendar_header_dropdown.c ****     lv_obj_t * month_dd = lv_dropdown_create(obj);
  79              		.loc 1 88 0
  80 003e 2046     		mov	r0, r4
  81 0040 FFF7FEFF 		bl	lv_dropdown_create
  82              	.LVL12:
  83 0044 0546     		mov	r5, r0
  84              	.LVL13:
ARM GAS  /tmp/cc17zSpC.s 			page 4


  89:Drivers/lvgl/lvgl/src/extra/widgets/calendar/lv_calendar_header_dropdown.c ****     lv_dropdown_set_options(month_dd, month_list);
  85              		.loc 1 89 0
  86 0046 0E49     		ldr	r1, .L3+8
  87 0048 FFF7FEFF 		bl	lv_dropdown_set_options
  88              	.LVL14:
  90:Drivers/lvgl/lvgl/src/extra/widgets/calendar/lv_calendar_header_dropdown.c ****     lv_obj_add_event_cb(month_dd, month_event_cb, LV_EVENT_VALUE_CHANGED, calendar);
  89              		.loc 1 90 0
  90 004c 3346     		mov	r3, r6
  91 004e 1C22     		movs	r2, #28
  92 0050 0C49     		ldr	r1, .L3+12
  93 0052 2846     		mov	r0, r5
  94 0054 FFF7FEFF 		bl	lv_obj_add_event_cb
  95              	.LVL15:
  91:Drivers/lvgl/lvgl/src/extra/widgets/calendar/lv_calendar_header_dropdown.c ****     lv_obj_set_flex_grow(month_dd, 1);
  96              		.loc 1 91 0
  97 0058 0121     		movs	r1, #1
  98 005a 2846     		mov	r0, r5
  99 005c FFF7FEFF 		bl	lv_obj_set_flex_grow
 100              	.LVL16:
  92:Drivers/lvgl/lvgl/src/extra/widgets/calendar/lv_calendar_header_dropdown.c **** 
  93:Drivers/lvgl/lvgl/src/extra/widgets/calendar/lv_calendar_header_dropdown.c ****     lv_obj_add_event_cb(obj, value_changed_event_cb, LV_EVENT_VALUE_CHANGED, NULL);
 101              		.loc 1 93 0
 102 0060 0023     		movs	r3, #0
 103 0062 1C22     		movs	r2, #28
 104 0064 0849     		ldr	r1, .L3+16
 105 0066 2046     		mov	r0, r4
 106 0068 FFF7FEFF 		bl	lv_obj_add_event_cb
 107              	.LVL17:
  94:Drivers/lvgl/lvgl/src/extra/widgets/calendar/lv_calendar_header_dropdown.c ****     /*Refresh the drop downs*/
  95:Drivers/lvgl/lvgl/src/extra/widgets/calendar/lv_calendar_header_dropdown.c ****     lv_event_send(obj, LV_EVENT_VALUE_CHANGED, NULL);
 108              		.loc 1 95 0
 109 006c 0022     		movs	r2, #0
 110 006e 1C21     		movs	r1, #28
 111 0070 2046     		mov	r0, r4
 112 0072 FFF7FEFF 		bl	lv_event_send
 113              	.LVL18:
  96:Drivers/lvgl/lvgl/src/extra/widgets/calendar/lv_calendar_header_dropdown.c **** }
 114              		.loc 1 96 0
 115 0076 70BD     		pop	{r4, r5, r6, pc}
 116              	.LVL19:
 117              	.L4:
 118              		.align	2
 119              	.L3:
 120 0078 00000000 		.word	.LC0
 121 007c 00000000 		.word	year_event_cb
 122 0080 68020000 		.word	.LC1
 123 0084 00000000 		.word	month_event_cb
 124 0088 00000000 		.word	value_changed_event_cb
 125              		.cfi_endproc
 126              	.LFE165:
 128              		.section	.text.value_changed_event_cb,"ax",%progbits
 129              		.align	1
 130              		.syntax unified
 131              		.thumb
 132              		.thumb_func
 133              		.fpu fpv5-d16
 135              	value_changed_event_cb:
ARM GAS  /tmp/cc17zSpC.s 			page 5


 136              	.LFB168:
  97:Drivers/lvgl/lvgl/src/extra/widgets/calendar/lv_calendar_header_dropdown.c **** 
  98:Drivers/lvgl/lvgl/src/extra/widgets/calendar/lv_calendar_header_dropdown.c **** static void month_event_cb(lv_event_t * e)
  99:Drivers/lvgl/lvgl/src/extra/widgets/calendar/lv_calendar_header_dropdown.c **** {
 100:Drivers/lvgl/lvgl/src/extra/widgets/calendar/lv_calendar_header_dropdown.c ****     lv_obj_t * dropdown = lv_event_get_target(e);
 101:Drivers/lvgl/lvgl/src/extra/widgets/calendar/lv_calendar_header_dropdown.c ****     lv_obj_t * calendar = lv_event_get_user_data(e);
 102:Drivers/lvgl/lvgl/src/extra/widgets/calendar/lv_calendar_header_dropdown.c **** 
 103:Drivers/lvgl/lvgl/src/extra/widgets/calendar/lv_calendar_header_dropdown.c ****     uint16_t sel = lv_dropdown_get_selected(dropdown);
 104:Drivers/lvgl/lvgl/src/extra/widgets/calendar/lv_calendar_header_dropdown.c **** 
 105:Drivers/lvgl/lvgl/src/extra/widgets/calendar/lv_calendar_header_dropdown.c ****     const lv_calendar_date_t * d;
 106:Drivers/lvgl/lvgl/src/extra/widgets/calendar/lv_calendar_header_dropdown.c ****     d = lv_calendar_get_showed_date(calendar);
 107:Drivers/lvgl/lvgl/src/extra/widgets/calendar/lv_calendar_header_dropdown.c ****     lv_calendar_date_t newd = *d;
 108:Drivers/lvgl/lvgl/src/extra/widgets/calendar/lv_calendar_header_dropdown.c ****     newd.month = sel + 1;
 109:Drivers/lvgl/lvgl/src/extra/widgets/calendar/lv_calendar_header_dropdown.c **** 
 110:Drivers/lvgl/lvgl/src/extra/widgets/calendar/lv_calendar_header_dropdown.c ****     lv_calendar_set_showed_date(calendar, newd.year, newd.month);
 111:Drivers/lvgl/lvgl/src/extra/widgets/calendar/lv_calendar_header_dropdown.c **** }
 112:Drivers/lvgl/lvgl/src/extra/widgets/calendar/lv_calendar_header_dropdown.c **** 
 113:Drivers/lvgl/lvgl/src/extra/widgets/calendar/lv_calendar_header_dropdown.c **** static void year_event_cb(lv_event_t * e)
 114:Drivers/lvgl/lvgl/src/extra/widgets/calendar/lv_calendar_header_dropdown.c **** {
 115:Drivers/lvgl/lvgl/src/extra/widgets/calendar/lv_calendar_header_dropdown.c ****     lv_obj_t * dropdown = lv_event_get_target(e);
 116:Drivers/lvgl/lvgl/src/extra/widgets/calendar/lv_calendar_header_dropdown.c ****     lv_obj_t * calendar = lv_event_get_user_data(e);
 117:Drivers/lvgl/lvgl/src/extra/widgets/calendar/lv_calendar_header_dropdown.c **** 
 118:Drivers/lvgl/lvgl/src/extra/widgets/calendar/lv_calendar_header_dropdown.c ****     uint16_t sel = lv_dropdown_get_selected(dropdown);
 119:Drivers/lvgl/lvgl/src/extra/widgets/calendar/lv_calendar_header_dropdown.c **** 
 120:Drivers/lvgl/lvgl/src/extra/widgets/calendar/lv_calendar_header_dropdown.c ****     const lv_calendar_date_t * d;
 121:Drivers/lvgl/lvgl/src/extra/widgets/calendar/lv_calendar_header_dropdown.c ****     d = lv_calendar_get_showed_date(calendar);
 122:Drivers/lvgl/lvgl/src/extra/widgets/calendar/lv_calendar_header_dropdown.c ****     lv_calendar_date_t newd = *d;
 123:Drivers/lvgl/lvgl/src/extra/widgets/calendar/lv_calendar_header_dropdown.c ****     newd.year = 2023 - sel;
 124:Drivers/lvgl/lvgl/src/extra/widgets/calendar/lv_calendar_header_dropdown.c **** 
 125:Drivers/lvgl/lvgl/src/extra/widgets/calendar/lv_calendar_header_dropdown.c ****     lv_calendar_set_showed_date(calendar, newd.year, newd.month);
 126:Drivers/lvgl/lvgl/src/extra/widgets/calendar/lv_calendar_header_dropdown.c **** }
 127:Drivers/lvgl/lvgl/src/extra/widgets/calendar/lv_calendar_header_dropdown.c **** 
 128:Drivers/lvgl/lvgl/src/extra/widgets/calendar/lv_calendar_header_dropdown.c **** static void value_changed_event_cb(lv_event_t * e)
 129:Drivers/lvgl/lvgl/src/extra/widgets/calendar/lv_calendar_header_dropdown.c **** {
 137              		.loc 1 129 0
 138              		.cfi_startproc
 139              		@ args = 0, pretend = 0, frame = 0
 140              		@ frame_needed = 0, uses_anonymous_args = 0
 141              	.LVL20:
 142 0000 38B5     		push	{r3, r4, r5, lr}
 143              	.LCFI1:
 144              		.cfi_def_cfa_offset 16
 145              		.cfi_offset 3, -16
 146              		.cfi_offset 4, -12
 147              		.cfi_offset 5, -8
 148              		.cfi_offset 14, -4
 130:Drivers/lvgl/lvgl/src/extra/widgets/calendar/lv_calendar_header_dropdown.c ****     lv_obj_t * header = lv_event_get_target(e);
 149              		.loc 1 130 0
 150 0002 FFF7FEFF 		bl	lv_event_get_target
 151              	.LVL21:
 152 0006 0546     		mov	r5, r0
 153              	.LVL22:
 131:Drivers/lvgl/lvgl/src/extra/widgets/calendar/lv_calendar_header_dropdown.c ****     lv_obj_t * calendar = lv_obj_get_parent(header);
 154              		.loc 1 131 0
 155 0008 FFF7FEFF 		bl	lv_obj_get_parent
 156              	.LVL23:
 132:Drivers/lvgl/lvgl/src/extra/widgets/calendar/lv_calendar_header_dropdown.c ****     const lv_calendar_date_t * cur_date = lv_calendar_get_showed_date(calendar);
ARM GAS  /tmp/cc17zSpC.s 			page 6


 157              		.loc 1 132 0
 158 000c FFF7FEFF 		bl	lv_calendar_get_showed_date
 159              	.LVL24:
 160 0010 0446     		mov	r4, r0
 161              	.LVL25:
 133:Drivers/lvgl/lvgl/src/extra/widgets/calendar/lv_calendar_header_dropdown.c **** 
 134:Drivers/lvgl/lvgl/src/extra/widgets/calendar/lv_calendar_header_dropdown.c ****     lv_obj_t * year_dd = lv_obj_get_child(header, 0);
 162              		.loc 1 134 0
 163 0012 0021     		movs	r1, #0
 164 0014 2846     		mov	r0, r5
 165              	.LVL26:
 166 0016 FFF7FEFF 		bl	lv_obj_get_child
 167              	.LVL27:
 135:Drivers/lvgl/lvgl/src/extra/widgets/calendar/lv_calendar_header_dropdown.c ****     lv_dropdown_set_selected(year_dd, 2023 - cur_date->year);
 168              		.loc 1 135 0
 169 001a 2388     		ldrh	r3, [r4]
 170 001c 40F2E771 		movw	r1, #2023
 171 0020 C91A     		subs	r1, r1, r3
 172 0022 89B2     		uxth	r1, r1
 173 0024 FFF7FEFF 		bl	lv_dropdown_set_selected
 174              	.LVL28:
 136:Drivers/lvgl/lvgl/src/extra/widgets/calendar/lv_calendar_header_dropdown.c **** 
 137:Drivers/lvgl/lvgl/src/extra/widgets/calendar/lv_calendar_header_dropdown.c ****     lv_obj_t * month_dd = lv_obj_get_child(header, 1);
 175              		.loc 1 137 0
 176 0028 0121     		movs	r1, #1
 177 002a 2846     		mov	r0, r5
 178 002c FFF7FEFF 		bl	lv_obj_get_child
 179              	.LVL29:
 138:Drivers/lvgl/lvgl/src/extra/widgets/calendar/lv_calendar_header_dropdown.c ****     lv_dropdown_set_selected(month_dd, cur_date->month - 1);
 180              		.loc 1 138 0
 181 0030 94F90210 		ldrsb	r1, [r4, #2]
 182 0034 89B2     		uxth	r1, r1
 183 0036 0139     		subs	r1, r1, #1
 184 0038 89B2     		uxth	r1, r1
 185 003a FFF7FEFF 		bl	lv_dropdown_set_selected
 186              	.LVL30:
 139:Drivers/lvgl/lvgl/src/extra/widgets/calendar/lv_calendar_header_dropdown.c **** }
 187              		.loc 1 139 0
 188 003e 38BD     		pop	{r3, r4, r5, pc}
 189              		.cfi_endproc
 190              	.LFE168:
 192              		.section	.text.month_event_cb,"ax",%progbits
 193              		.align	1
 194              		.syntax unified
 195              		.thumb
 196              		.thumb_func
 197              		.fpu fpv5-d16
 199              	month_event_cb:
 200              	.LFB166:
  99:Drivers/lvgl/lvgl/src/extra/widgets/calendar/lv_calendar_header_dropdown.c ****     lv_obj_t * dropdown = lv_event_get_target(e);
 201              		.loc 1 99 0
 202              		.cfi_startproc
 203              		@ args = 0, pretend = 0, frame = 8
 204              		@ frame_needed = 0, uses_anonymous_args = 0
 205              	.LVL31:
 206 0000 30B5     		push	{r4, r5, lr}
 207              	.LCFI2:
ARM GAS  /tmp/cc17zSpC.s 			page 7


 208              		.cfi_def_cfa_offset 12
 209              		.cfi_offset 4, -12
 210              		.cfi_offset 5, -8
 211              		.cfi_offset 14, -4
 212 0002 83B0     		sub	sp, sp, #12
 213              	.LCFI3:
 214              		.cfi_def_cfa_offset 24
 215 0004 0546     		mov	r5, r0
 100:Drivers/lvgl/lvgl/src/extra/widgets/calendar/lv_calendar_header_dropdown.c ****     lv_obj_t * calendar = lv_event_get_user_data(e);
 216              		.loc 1 100 0
 217 0006 FFF7FEFF 		bl	lv_event_get_target
 218              	.LVL32:
 219 000a 0446     		mov	r4, r0
 220              	.LVL33:
 101:Drivers/lvgl/lvgl/src/extra/widgets/calendar/lv_calendar_header_dropdown.c **** 
 221              		.loc 1 101 0
 222 000c 2846     		mov	r0, r5
 223              	.LVL34:
 224 000e FFF7FEFF 		bl	lv_event_get_user_data
 225              	.LVL35:
 226 0012 0546     		mov	r5, r0
 227              	.LVL36:
 103:Drivers/lvgl/lvgl/src/extra/widgets/calendar/lv_calendar_header_dropdown.c **** 
 228              		.loc 1 103 0
 229 0014 2046     		mov	r0, r4
 230              	.LVL37:
 231 0016 FFF7FEFF 		bl	lv_dropdown_get_selected
 232              	.LVL38:
 233 001a 0446     		mov	r4, r0
 234              	.LVL39:
 106:Drivers/lvgl/lvgl/src/extra/widgets/calendar/lv_calendar_header_dropdown.c ****     lv_calendar_date_t newd = *d;
 235              		.loc 1 106 0
 236 001c 2846     		mov	r0, r5
 237 001e FFF7FEFF 		bl	lv_calendar_get_showed_date
 238              	.LVL40:
 107:Drivers/lvgl/lvgl/src/extra/widgets/calendar/lv_calendar_header_dropdown.c ****     newd.month = sel + 1;
 239              		.loc 1 107 0
 240 0022 0068     		ldr	r0, [r0]	@ unaligned
 241              	.LVL41:
 108:Drivers/lvgl/lvgl/src/extra/widgets/calendar/lv_calendar_header_dropdown.c **** 
 242              		.loc 1 108 0
 243 0024 621C     		adds	r2, r4, #1
 110:Drivers/lvgl/lvgl/src/extra/widgets/calendar/lv_calendar_header_dropdown.c **** }
 244              		.loc 1 110 0
 245 0026 52B2     		sxtb	r2, r2
 246 0028 81B2     		uxth	r1, r0
 247 002a 2846     		mov	r0, r5
 248 002c FFF7FEFF 		bl	lv_calendar_set_showed_date
 249              	.LVL42:
 111:Drivers/lvgl/lvgl/src/extra/widgets/calendar/lv_calendar_header_dropdown.c **** 
 250              		.loc 1 111 0
 251 0030 03B0     		add	sp, sp, #12
 252              	.LCFI4:
 253              		.cfi_def_cfa_offset 12
 254              		@ sp needed
 255 0032 30BD     		pop	{r4, r5, pc}
 256              		.cfi_endproc
ARM GAS  /tmp/cc17zSpC.s 			page 8


 257              	.LFE166:
 259              		.section	.text.year_event_cb,"ax",%progbits
 260              		.align	1
 261              		.syntax unified
 262              		.thumb
 263              		.thumb_func
 264              		.fpu fpv5-d16
 266              	year_event_cb:
 267              	.LFB167:
 114:Drivers/lvgl/lvgl/src/extra/widgets/calendar/lv_calendar_header_dropdown.c ****     lv_obj_t * dropdown = lv_event_get_target(e);
 268              		.loc 1 114 0
 269              		.cfi_startproc
 270              		@ args = 0, pretend = 0, frame = 8
 271              		@ frame_needed = 0, uses_anonymous_args = 0
 272              	.LVL43:
 273 0000 30B5     		push	{r4, r5, lr}
 274              	.LCFI5:
 275              		.cfi_def_cfa_offset 12
 276              		.cfi_offset 4, -12
 277              		.cfi_offset 5, -8
 278              		.cfi_offset 14, -4
 279 0002 83B0     		sub	sp, sp, #12
 280              	.LCFI6:
 281              		.cfi_def_cfa_offset 24
 282 0004 0446     		mov	r4, r0
 115:Drivers/lvgl/lvgl/src/extra/widgets/calendar/lv_calendar_header_dropdown.c ****     lv_obj_t * calendar = lv_event_get_user_data(e);
 283              		.loc 1 115 0
 284 0006 FFF7FEFF 		bl	lv_event_get_target
 285              	.LVL44:
 286 000a 0546     		mov	r5, r0
 287              	.LVL45:
 116:Drivers/lvgl/lvgl/src/extra/widgets/calendar/lv_calendar_header_dropdown.c **** 
 288              		.loc 1 116 0
 289 000c 2046     		mov	r0, r4
 290              	.LVL46:
 291 000e FFF7FEFF 		bl	lv_event_get_user_data
 292              	.LVL47:
 293 0012 0446     		mov	r4, r0
 294              	.LVL48:
 118:Drivers/lvgl/lvgl/src/extra/widgets/calendar/lv_calendar_header_dropdown.c **** 
 295              		.loc 1 118 0
 296 0014 2846     		mov	r0, r5
 297              	.LVL49:
 298 0016 FFF7FEFF 		bl	lv_dropdown_get_selected
 299              	.LVL50:
 300 001a 0546     		mov	r5, r0
 301              	.LVL51:
 121:Drivers/lvgl/lvgl/src/extra/widgets/calendar/lv_calendar_header_dropdown.c ****     lv_calendar_date_t newd = *d;
 302              		.loc 1 121 0
 303 001c 2046     		mov	r0, r4
 304 001e FFF7FEFF 		bl	lv_calendar_get_showed_date
 305              	.LVL52:
 122:Drivers/lvgl/lvgl/src/extra/widgets/calendar/lv_calendar_header_dropdown.c ****     newd.year = 2023 - sel;
 306              		.loc 1 122 0
 307 0022 0268     		ldr	r2, [r0]	@ unaligned
 123:Drivers/lvgl/lvgl/src/extra/widgets/calendar/lv_calendar_header_dropdown.c **** 
 308              		.loc 1 123 0
ARM GAS  /tmp/cc17zSpC.s 			page 9


 309 0024 40F2E771 		movw	r1, #2023
 310 0028 491B     		subs	r1, r1, r5
 125:Drivers/lvgl/lvgl/src/extra/widgets/calendar/lv_calendar_header_dropdown.c **** }
 311              		.loc 1 125 0
 312 002a 42F30742 		sbfx	r2, r2, #16, #8
 313 002e 89B2     		uxth	r1, r1
 314 0030 2046     		mov	r0, r4
 315              	.LVL53:
 316 0032 FFF7FEFF 		bl	lv_calendar_set_showed_date
 317              	.LVL54:
 126:Drivers/lvgl/lvgl/src/extra/widgets/calendar/lv_calendar_header_dropdown.c **** 
 318              		.loc 1 126 0
 319 0036 03B0     		add	sp, sp, #12
 320              	.LCFI7:
 321              		.cfi_def_cfa_offset 12
 322              		@ sp needed
 323 0038 30BD     		pop	{r4, r5, pc}
 324              		.cfi_endproc
 325              	.LFE167:
 327              		.section	.text.lv_calendar_header_dropdown_create,"ax",%progbits
 328              		.align	1
 329              		.global	lv_calendar_header_dropdown_create
 330              		.syntax unified
 331              		.thumb
 332              		.thumb_func
 333              		.fpu fpv5-d16
 335              	lv_calendar_header_dropdown_create:
 336              	.LFB164:
  62:Drivers/lvgl/lvgl/src/extra/widgets/calendar/lv_calendar_header_dropdown.c ****     lv_obj_t * obj = lv_obj_class_create_obj(&lv_calendar_header_dropdown_class, parent);
 337              		.loc 1 62 0
 338              		.cfi_startproc
 339              		@ args = 0, pretend = 0, frame = 0
 340              		@ frame_needed = 0, uses_anonymous_args = 0
 341              	.LVL55:
 342 0000 10B5     		push	{r4, lr}
 343              	.LCFI8:
 344              		.cfi_def_cfa_offset 8
 345              		.cfi_offset 4, -8
 346              		.cfi_offset 14, -4
  63:Drivers/lvgl/lvgl/src/extra/widgets/calendar/lv_calendar_header_dropdown.c ****     lv_obj_class_init_obj(obj);
 347              		.loc 1 63 0
 348 0002 0146     		mov	r1, r0
 349 0004 0348     		ldr	r0, .L13
 350              	.LVL56:
 351 0006 FFF7FEFF 		bl	lv_obj_class_create_obj
 352              	.LVL57:
 353 000a 0446     		mov	r4, r0
 354              	.LVL58:
  64:Drivers/lvgl/lvgl/src/extra/widgets/calendar/lv_calendar_header_dropdown.c **** 
 355              		.loc 1 64 0
 356 000c FFF7FEFF 		bl	lv_obj_class_init_obj
 357              	.LVL59:
  67:Drivers/lvgl/lvgl/src/extra/widgets/calendar/lv_calendar_header_dropdown.c **** 
 358              		.loc 1 67 0
 359 0010 2046     		mov	r0, r4
 360 0012 10BD     		pop	{r4, pc}
 361              	.LVL60:
ARM GAS  /tmp/cc17zSpC.s 			page 10


 362              	.L14:
 363              		.align	2
 364              	.L13:
 365 0014 00000000 		.word	.LANCHOR0
 366              		.cfi_endproc
 367              	.LFE164:
 369              		.global	lv_calendar_header_dropdown_class
 370              		.section	.rodata.lv_calendar_header_dropdown_class,"a",%progbits
 371              		.align	2
 372              		.set	.LANCHOR0,. + 0
 375              	lv_calendar_header_dropdown_class:
 376 0000 00000000 		.word	lv_obj_class
 377 0004 00000000 		.word	my_constructor
 378 0008 00000000 		.space	12
 378      00000000 
 378      00000000 
 379 0014 6420     		.short	8292
 380 0016 D127     		.short	10193
 381 0018 00000000 		.space	4
 382              		.section	.rodata.my_constructor.str1.4,"aMS",%progbits,1
 383              		.align	2
 384              	.LC0:
 385 0000 32303233 		.ascii	"2023\0122022\0122021\0122020\0122019\0122018\012201"
 385      0A323032 
 385      320A3230 
 385      32310A32 
 385      3032300A 
 386 0021 370A3230 		.ascii	"7\0122016\0122015\0122014\0122013\0122012\0122011\012"
 386      31360A32 
 386      3031350A 
 386      32303134 
 386      0A323031 
 387 0041 32303130 		.ascii	"2010\0122009\0122008\0122007\0122006\0122005\012200"
 387      0A323030 
 387      390A3230 
 387      30380A32 
 387      3030370A 
 388 0062 340A3230 		.ascii	"4\0122003\0122002\0122001\0122000\0121999\0121998\012"
 388      30330A32 
 388      3030320A 
 388      32303031 
 388      0A323030 
 389 0082 31393937 		.ascii	"1997\0121996\0121995\0121994\0121993\0121992\012199"
 389      0A313939 
 389      360A3139 
 389      39350A31 
 389      3939340A 
 390 00a3 310A3139 		.ascii	"1\0121990\0121989\0121988\0121987\0121986\0121985\012"
 390      39300A31 
 390      3938390A 
 390      31393838 
 390      0A313938 
 391 00c3 31393834 		.ascii	"1984\0121983\0121982\0121981\0121980\0121979\012197"
 391      0A313938 
 391      330A3139 
 391      38320A31 
 391      3938310A 
ARM GAS  /tmp/cc17zSpC.s 			page 11


 392 00e4 380A3139 		.ascii	"8\0121977\0121976\0121975\0121974\0121973\0121972\012"
 392      37370A31 
 392      3937360A 
 392      31393735 
 392      0A313937 
 393 0104 31393731 		.ascii	"1971\0121970\0121969\0121968\0121967\0121966\012196"
 393      0A313937 
 393      300A3139 
 393      36390A31 
 393      3936380A 
 394 0125 350A3139 		.ascii	"5\0121964\0121963\0121962\0121961\0121960\0121959\012"
 394      36340A31 
 394      3936330A 
 394      31393632 
 394      0A313936 
 395 0145 31393538 		.ascii	"1958\0121957\0121956\0121955\0121954\0121953\012195"
 395      0A313935 
 395      370A3139 
 395      35360A31 
 395      3935350A 
 396 0166 320A3139 		.ascii	"2\0121951\0121950\0121949\0121948\0121947\0121946\012"
 396      35310A31 
 396      3935300A 
 396      31393439 
 396      0A313934 
 397 0186 31393435 		.ascii	"1945\0121944\0121943\0121942\0121941\0121940\012193"
 397      0A313934 
 397      340A3139 
 397      34330A31 
 397      3934320A 
 398 01a7 390A3139 		.ascii	"9\0121938\0121937\0121936\0121935\0121934\0121933\012"
 398      33380A31 
 398      3933370A 
 398      31393336 
 398      0A313933 
 399 01c7 31393332 		.ascii	"1932\0121931\0121930\0121929\0121928\0121927\012192"
 399      0A313933 
 399      310A3139 
 399      33300A31 
 399      3932390A 
 400 01e8 360A3139 		.ascii	"6\0121925\0121924\0121923\0121922\0121921\0121920\012"
 400      32350A31 
 400      3932340A 
 400      31393233 
 400      0A313932 
 401 0208 31393139 		.ascii	"1919\0121918\0121917\0121916\0121915\0121914\012191"
 401      0A313931 
 401      380A3139 
 401      31370A31 
 401      3931360A 
 402 0229 330A3139 		.ascii	"3\0121912\0121911\0121910\0121909\0121908\0121907\012"
 402      31320A31 
 402      3931310A 
 402      31393130 
 402      0A313930 
 403 0249 31393036 		.ascii	"1906\0121905\0121904\0121903\0121902\0121901\000"
 403      0A313930 
ARM GAS  /tmp/cc17zSpC.s 			page 12


 403      350A3139 
 403      30340A31 
 403      3930330A 
 404 0267 00       		.space	1
 405              	.LC1:
 406 0268 30310A30 		.ascii	"01\01202\01203\01204\01205\01206\01207\01208\01209\012"
 406      320A3033 
 406      0A30340A 
 406      30350A30 
 406      360A3037 
 407 0283 31300A31 		.ascii	"10\01211\01212\000"
 407      310A3132 
 407      00
 408              		.text
 409              	.Letext0:
 410              		.file 2 "/opt/gcc-arm-none-eabi-7-2017-q4-major/arm-none-eabi/include/machine/_default_types.h"
 411              		.file 3 "/opt/gcc-arm-none-eabi-7-2017-q4-major/arm-none-eabi/include/sys/_stdint.h"
 412              		.file 4 "Drivers/lvgl/lvgl/src/extra/widgets/calendar/../../../core/../misc/../font/../misc/lv_are
 413              		.file 5 "Drivers/lvgl/lvgl/src/extra/widgets/calendar/../../../core/../misc/../font/lv_font.h"
 414              		.file 6 "/opt/gcc-arm-none-eabi-7-2017-q4-major/arm-none-eabi/include/sys/lock.h"
 415              		.file 7 "/opt/gcc-arm-none-eabi-7-2017-q4-major/arm-none-eabi/include/sys/_types.h"
 416              		.file 8 "/opt/gcc-arm-none-eabi-7-2017-q4-major/lib/gcc/arm-none-eabi/7.2.1/include/stddef.h"
 417              		.file 9 "/opt/gcc-arm-none-eabi-7-2017-q4-major/arm-none-eabi/include/sys/reent.h"
 418              		.file 10 "Drivers/lvgl/lvgl/src/extra/widgets/calendar/../../../core/../misc/lv_color.h"
 419              		.file 11 "Drivers/lvgl/lvgl/src/extra/widgets/calendar/../../../core/../misc/lv_txt.h"
 420              		.file 12 "Drivers/lvgl/lvgl/src/extra/widgets/calendar/../../../core/../misc/lv_style.h"
 421              		.file 13 "Drivers/lvgl/lvgl/src/extra/widgets/calendar/../../../core/lv_obj.h"
 422              		.file 14 "Drivers/lvgl/lvgl/src/extra/widgets/calendar/../../../core/../hal/../misc/lv_ll.h"
 423              		.file 15 "Drivers/lvgl/lvgl/src/extra/widgets/calendar/../../../core/lv_group.h"
 424              		.file 16 "Drivers/lvgl/lvgl/src/extra/widgets/calendar/../../../core/lv_obj_scroll.h"
 425              		.file 17 "Drivers/lvgl/lvgl/src/extra/widgets/calendar/../../../core/lv_obj_style.h"
 426              		.file 18 "Drivers/lvgl/lvgl/src/extra/widgets/calendar/../../../core/lv_obj_class.h"
 427              		.file 19 "Drivers/lvgl/lvgl/src/extra/widgets/calendar/../../../core/lv_event.h"
 428              		.file 20 "Drivers/lvgl/lvgl/src/extra/widgets/calendar/lv_calendar_header_dropdown.h"
 429              		.file 21 "Drivers/lvgl/lvgl/src/extra/widgets/calendar/../../../widgets/lv_btnmatrix.h"
 430              		.file 22 "Drivers/lvgl/lvgl/src/extra/widgets/calendar/lv_calendar.h"
 431              		.file 23 "Drivers/lvgl/lvgl/src/extra/widgets/calendar/../../../widgets/../widgets/lv_label.h"
 432              		.file 24 "Drivers/lvgl/lvgl/src/extra/widgets/calendar/../../../widgets/lv_dropdown.h"
 433              		.file 25 "Drivers/lvgl/lvgl/src/extra/widgets/calendar/../../layouts/flex/lv_flex.h"
 434              		.file 26 "Drivers/lvgl/lvgl/src/extra/widgets/calendar/../../../core/lv_obj_tree.h"
ARM GAS  /tmp/cc17zSpC.s 			page 13

