ARM GAS  /tmp/ccV6ypnB.s 			page 1


   1              		.cpu cortex-m7
   2              		.eabi_attribute 28, 1
   3              		.eabi_attribute 20, 1
   4              		.eabi_attribute 21, 1
   5              		.eabi_attribute 23, 3
   6              		.eabi_attribute 24, 1
   7              		.eabi_attribute 25, 1
   8              		.eabi_attribute 26, 1
   9              		.eabi_attribute 30, 1
  10              		.eabi_attribute 34, 1
  11              		.eabi_attribute 18, 4
  12              		.file	"lv_draw_sw_rect.c"
  13              		.text
  14              	.Ltext0:
  15              		.cfi_sections	.debug_frame
  16              		.section	.text.draw_border_simple,"ax",%progbits
  17              		.align	1
  18              		.syntax unified
  19              		.thumb
  20              		.thumb_func
  21              		.fpu fpv5-d16
  23              	draw_border_simple:
  24              	.LFB169:
  25              		.file 1 "Drivers/lvgl/lvgl/src/draw/sw/lv_draw_sw_rect.c"
   1:Drivers/lvgl/lvgl/src/draw/sw/lv_draw_sw_rect.c **** /**
   2:Drivers/lvgl/lvgl/src/draw/sw/lv_draw_sw_rect.c ****  * @file lv_draw_rect.c
   3:Drivers/lvgl/lvgl/src/draw/sw/lv_draw_sw_rect.c ****  *
   4:Drivers/lvgl/lvgl/src/draw/sw/lv_draw_sw_rect.c ****  */
   5:Drivers/lvgl/lvgl/src/draw/sw/lv_draw_sw_rect.c **** 
   6:Drivers/lvgl/lvgl/src/draw/sw/lv_draw_sw_rect.c **** /*********************
   7:Drivers/lvgl/lvgl/src/draw/sw/lv_draw_sw_rect.c ****  *      INCLUDES
   8:Drivers/lvgl/lvgl/src/draw/sw/lv_draw_sw_rect.c ****  *********************/
   9:Drivers/lvgl/lvgl/src/draw/sw/lv_draw_sw_rect.c **** #include "lv_draw_sw.h"
  10:Drivers/lvgl/lvgl/src/draw/sw/lv_draw_sw_rect.c **** #include "../../misc/lv_math.h"
  11:Drivers/lvgl/lvgl/src/draw/sw/lv_draw_sw_rect.c **** #include "../../misc/lv_txt_ap.h"
  12:Drivers/lvgl/lvgl/src/draw/sw/lv_draw_sw_rect.c **** #include "../../core/lv_refr.h"
  13:Drivers/lvgl/lvgl/src/draw/sw/lv_draw_sw_rect.c **** #include "../../misc/lv_assert.h"
  14:Drivers/lvgl/lvgl/src/draw/sw/lv_draw_sw_rect.c **** #include "lv_draw_sw_dither.h"
  15:Drivers/lvgl/lvgl/src/draw/sw/lv_draw_sw_rect.c **** 
  16:Drivers/lvgl/lvgl/src/draw/sw/lv_draw_sw_rect.c **** /*********************
  17:Drivers/lvgl/lvgl/src/draw/sw/lv_draw_sw_rect.c ****  *      DEFINES
  18:Drivers/lvgl/lvgl/src/draw/sw/lv_draw_sw_rect.c ****  *********************/
  19:Drivers/lvgl/lvgl/src/draw/sw/lv_draw_sw_rect.c **** #define SHADOW_UPSCALE_SHIFT    6
  20:Drivers/lvgl/lvgl/src/draw/sw/lv_draw_sw_rect.c **** #define SHADOW_ENHANCE          1
  21:Drivers/lvgl/lvgl/src/draw/sw/lv_draw_sw_rect.c **** #define SPLIT_LIMIT             50
  22:Drivers/lvgl/lvgl/src/draw/sw/lv_draw_sw_rect.c **** 
  23:Drivers/lvgl/lvgl/src/draw/sw/lv_draw_sw_rect.c **** 
  24:Drivers/lvgl/lvgl/src/draw/sw/lv_draw_sw_rect.c **** /**********************
  25:Drivers/lvgl/lvgl/src/draw/sw/lv_draw_sw_rect.c ****  *      TYPEDEFS
  26:Drivers/lvgl/lvgl/src/draw/sw/lv_draw_sw_rect.c ****  **********************/
  27:Drivers/lvgl/lvgl/src/draw/sw/lv_draw_sw_rect.c **** 
  28:Drivers/lvgl/lvgl/src/draw/sw/lv_draw_sw_rect.c **** /**********************
  29:Drivers/lvgl/lvgl/src/draw/sw/lv_draw_sw_rect.c ****  *  STATIC PROTOTYPES
  30:Drivers/lvgl/lvgl/src/draw/sw/lv_draw_sw_rect.c ****  **********************/
  31:Drivers/lvgl/lvgl/src/draw/sw/lv_draw_sw_rect.c **** static void draw_bg(lv_draw_ctx_t * draw_ctx, const lv_draw_rect_dsc_t * dsc, const lv_area_t * coo
  32:Drivers/lvgl/lvgl/src/draw/sw/lv_draw_sw_rect.c **** static void draw_bg_img(lv_draw_ctx_t * draw_ctx, const lv_draw_rect_dsc_t * dsc, const lv_area_t *
  33:Drivers/lvgl/lvgl/src/draw/sw/lv_draw_sw_rect.c **** static void draw_border(lv_draw_ctx_t * draw_ctx, const lv_draw_rect_dsc_t * dsc, const lv_area_t *
ARM GAS  /tmp/ccV6ypnB.s 			page 2


  34:Drivers/lvgl/lvgl/src/draw/sw/lv_draw_sw_rect.c **** 
  35:Drivers/lvgl/lvgl/src/draw/sw/lv_draw_sw_rect.c **** static void draw_outline(lv_draw_ctx_t * draw_ctx, const lv_draw_rect_dsc_t * dsc, const lv_area_t 
  36:Drivers/lvgl/lvgl/src/draw/sw/lv_draw_sw_rect.c **** 
  37:Drivers/lvgl/lvgl/src/draw/sw/lv_draw_sw_rect.c **** #if LV_DRAW_COMPLEX
  38:Drivers/lvgl/lvgl/src/draw/sw/lv_draw_sw_rect.c **** LV_ATTRIBUTE_FAST_MEM static void draw_shadow(lv_draw_ctx_t * draw_ctx, const lv_draw_rect_dsc_t * 
  39:Drivers/lvgl/lvgl/src/draw/sw/lv_draw_sw_rect.c ****                                               const lv_area_t * coords);
  40:Drivers/lvgl/lvgl/src/draw/sw/lv_draw_sw_rect.c **** LV_ATTRIBUTE_FAST_MEM static void shadow_draw_corner_buf(const lv_area_t * coords, uint16_t * sh_bu
  41:Drivers/lvgl/lvgl/src/draw/sw/lv_draw_sw_rect.c ****                                                          lv_coord_t r);
  42:Drivers/lvgl/lvgl/src/draw/sw/lv_draw_sw_rect.c **** LV_ATTRIBUTE_FAST_MEM static void shadow_blur_corner(lv_coord_t size, lv_coord_t sw, uint16_t * sh_
  43:Drivers/lvgl/lvgl/src/draw/sw/lv_draw_sw_rect.c **** #endif
  44:Drivers/lvgl/lvgl/src/draw/sw/lv_draw_sw_rect.c **** 
  45:Drivers/lvgl/lvgl/src/draw/sw/lv_draw_sw_rect.c **** void draw_border_generic(lv_draw_ctx_t * draw_ctx, const lv_area_t * outer_area, const lv_area_t * 
  46:Drivers/lvgl/lvgl/src/draw/sw/lv_draw_sw_rect.c ****                          lv_coord_t rout, lv_coord_t rin, lv_color_t color, lv_opa_t opa, lv_blend_
  47:Drivers/lvgl/lvgl/src/draw/sw/lv_draw_sw_rect.c **** 
  48:Drivers/lvgl/lvgl/src/draw/sw/lv_draw_sw_rect.c **** static void draw_border_simple(lv_draw_ctx_t * draw_ctx, const lv_area_t * outer_area, const lv_are
  49:Drivers/lvgl/lvgl/src/draw/sw/lv_draw_sw_rect.c ****                                lv_color_t color, lv_opa_t opa);
  50:Drivers/lvgl/lvgl/src/draw/sw/lv_draw_sw_rect.c **** 
  51:Drivers/lvgl/lvgl/src/draw/sw/lv_draw_sw_rect.c **** 
  52:Drivers/lvgl/lvgl/src/draw/sw/lv_draw_sw_rect.c **** /**********************
  53:Drivers/lvgl/lvgl/src/draw/sw/lv_draw_sw_rect.c ****  *  STATIC VARIABLES
  54:Drivers/lvgl/lvgl/src/draw/sw/lv_draw_sw_rect.c ****  **********************/
  55:Drivers/lvgl/lvgl/src/draw/sw/lv_draw_sw_rect.c **** #if defined(LV_SHADOW_CACHE_SIZE) && LV_SHADOW_CACHE_SIZE > 0
  56:Drivers/lvgl/lvgl/src/draw/sw/lv_draw_sw_rect.c ****     static uint8_t sh_cache[LV_SHADOW_CACHE_SIZE * LV_SHADOW_CACHE_SIZE];
  57:Drivers/lvgl/lvgl/src/draw/sw/lv_draw_sw_rect.c ****     static int32_t sh_cache_size = -1;
  58:Drivers/lvgl/lvgl/src/draw/sw/lv_draw_sw_rect.c ****     static int32_t sh_cache_r = -1;
  59:Drivers/lvgl/lvgl/src/draw/sw/lv_draw_sw_rect.c **** #endif
  60:Drivers/lvgl/lvgl/src/draw/sw/lv_draw_sw_rect.c **** 
  61:Drivers/lvgl/lvgl/src/draw/sw/lv_draw_sw_rect.c **** /**********************
  62:Drivers/lvgl/lvgl/src/draw/sw/lv_draw_sw_rect.c ****  *      MACROS
  63:Drivers/lvgl/lvgl/src/draw/sw/lv_draw_sw_rect.c ****  **********************/
  64:Drivers/lvgl/lvgl/src/draw/sw/lv_draw_sw_rect.c **** 
  65:Drivers/lvgl/lvgl/src/draw/sw/lv_draw_sw_rect.c **** /**********************
  66:Drivers/lvgl/lvgl/src/draw/sw/lv_draw_sw_rect.c ****  *   GLOBAL FUNCTIONS
  67:Drivers/lvgl/lvgl/src/draw/sw/lv_draw_sw_rect.c ****  **********************/
  68:Drivers/lvgl/lvgl/src/draw/sw/lv_draw_sw_rect.c **** 
  69:Drivers/lvgl/lvgl/src/draw/sw/lv_draw_sw_rect.c **** void lv_draw_sw_rect(lv_draw_ctx_t * draw_ctx, const lv_draw_rect_dsc_t * dsc, const lv_area_t * co
  70:Drivers/lvgl/lvgl/src/draw/sw/lv_draw_sw_rect.c **** {
  71:Drivers/lvgl/lvgl/src/draw/sw/lv_draw_sw_rect.c **** #if LV_DRAW_COMPLEX
  72:Drivers/lvgl/lvgl/src/draw/sw/lv_draw_sw_rect.c ****     draw_shadow(draw_ctx, dsc, coords);
  73:Drivers/lvgl/lvgl/src/draw/sw/lv_draw_sw_rect.c **** #endif
  74:Drivers/lvgl/lvgl/src/draw/sw/lv_draw_sw_rect.c **** 
  75:Drivers/lvgl/lvgl/src/draw/sw/lv_draw_sw_rect.c ****     draw_bg(draw_ctx, dsc, coords);
  76:Drivers/lvgl/lvgl/src/draw/sw/lv_draw_sw_rect.c ****     draw_bg_img(draw_ctx, dsc, coords);
  77:Drivers/lvgl/lvgl/src/draw/sw/lv_draw_sw_rect.c **** 
  78:Drivers/lvgl/lvgl/src/draw/sw/lv_draw_sw_rect.c ****     draw_border(draw_ctx, dsc, coords);
  79:Drivers/lvgl/lvgl/src/draw/sw/lv_draw_sw_rect.c **** 
  80:Drivers/lvgl/lvgl/src/draw/sw/lv_draw_sw_rect.c ****     draw_outline(draw_ctx, dsc, coords);
  81:Drivers/lvgl/lvgl/src/draw/sw/lv_draw_sw_rect.c **** 
  82:Drivers/lvgl/lvgl/src/draw/sw/lv_draw_sw_rect.c ****     LV_ASSERT_MEM_INTEGRITY();
  83:Drivers/lvgl/lvgl/src/draw/sw/lv_draw_sw_rect.c **** }
  84:Drivers/lvgl/lvgl/src/draw/sw/lv_draw_sw_rect.c **** 
  85:Drivers/lvgl/lvgl/src/draw/sw/lv_draw_sw_rect.c **** void lv_draw_sw_bg(lv_draw_ctx_t * draw_ctx, const lv_draw_rect_dsc_t * dsc, const lv_area_t * coor
  86:Drivers/lvgl/lvgl/src/draw/sw/lv_draw_sw_rect.c **** {
  87:Drivers/lvgl/lvgl/src/draw/sw/lv_draw_sw_rect.c **** #if LV_COLOR_SCREEN_TRANSP && LV_COLOR_DEPTH == 32
  88:Drivers/lvgl/lvgl/src/draw/sw/lv_draw_sw_rect.c ****     lv_memset_00(draw_ctx->buf, lv_area_get_size(draw_ctx->buf_area) * sizeof(lv_color_t));
  89:Drivers/lvgl/lvgl/src/draw/sw/lv_draw_sw_rect.c **** #endif
  90:Drivers/lvgl/lvgl/src/draw/sw/lv_draw_sw_rect.c **** 
ARM GAS  /tmp/ccV6ypnB.s 			page 3


  91:Drivers/lvgl/lvgl/src/draw/sw/lv_draw_sw_rect.c ****     draw_bg(draw_ctx, dsc, coords);
  92:Drivers/lvgl/lvgl/src/draw/sw/lv_draw_sw_rect.c ****     draw_bg_img(draw_ctx, dsc, coords);
  93:Drivers/lvgl/lvgl/src/draw/sw/lv_draw_sw_rect.c **** }
  94:Drivers/lvgl/lvgl/src/draw/sw/lv_draw_sw_rect.c **** 
  95:Drivers/lvgl/lvgl/src/draw/sw/lv_draw_sw_rect.c **** 
  96:Drivers/lvgl/lvgl/src/draw/sw/lv_draw_sw_rect.c **** /**********************
  97:Drivers/lvgl/lvgl/src/draw/sw/lv_draw_sw_rect.c ****  *   STATIC FUNCTIONS
  98:Drivers/lvgl/lvgl/src/draw/sw/lv_draw_sw_rect.c ****  **********************/
  99:Drivers/lvgl/lvgl/src/draw/sw/lv_draw_sw_rect.c **** 
 100:Drivers/lvgl/lvgl/src/draw/sw/lv_draw_sw_rect.c **** static void draw_bg(lv_draw_ctx_t * draw_ctx, const lv_draw_rect_dsc_t * dsc, const lv_area_t * coo
 101:Drivers/lvgl/lvgl/src/draw/sw/lv_draw_sw_rect.c **** {
 102:Drivers/lvgl/lvgl/src/draw/sw/lv_draw_sw_rect.c ****     if(dsc->bg_opa <= LV_OPA_MIN) return;
 103:Drivers/lvgl/lvgl/src/draw/sw/lv_draw_sw_rect.c **** 
 104:Drivers/lvgl/lvgl/src/draw/sw/lv_draw_sw_rect.c ****     lv_area_t bg_coords;
 105:Drivers/lvgl/lvgl/src/draw/sw/lv_draw_sw_rect.c ****     lv_area_copy(&bg_coords, coords);
 106:Drivers/lvgl/lvgl/src/draw/sw/lv_draw_sw_rect.c **** 
 107:Drivers/lvgl/lvgl/src/draw/sw/lv_draw_sw_rect.c ****     /*If the border fully covers make the bg area 1px smaller to avoid artifacts on the corners*/
 108:Drivers/lvgl/lvgl/src/draw/sw/lv_draw_sw_rect.c ****     if(dsc->border_width > 1 && dsc->border_opa >= LV_OPA_MAX && dsc->radius != 0) {
 109:Drivers/lvgl/lvgl/src/draw/sw/lv_draw_sw_rect.c ****         bg_coords.x1 += (dsc->border_side & LV_BORDER_SIDE_LEFT) ? 1 : 0;
 110:Drivers/lvgl/lvgl/src/draw/sw/lv_draw_sw_rect.c ****         bg_coords.y1 += (dsc->border_side & LV_BORDER_SIDE_TOP) ? 1 : 0;
 111:Drivers/lvgl/lvgl/src/draw/sw/lv_draw_sw_rect.c ****         bg_coords.x2 -= (dsc->border_side & LV_BORDER_SIDE_RIGHT) ? 1 : 0;
 112:Drivers/lvgl/lvgl/src/draw/sw/lv_draw_sw_rect.c ****         bg_coords.y2 -= (dsc->border_side & LV_BORDER_SIDE_BOTTOM) ? 1 : 0;
 113:Drivers/lvgl/lvgl/src/draw/sw/lv_draw_sw_rect.c ****     }
 114:Drivers/lvgl/lvgl/src/draw/sw/lv_draw_sw_rect.c **** 
 115:Drivers/lvgl/lvgl/src/draw/sw/lv_draw_sw_rect.c ****     lv_area_t clipped_coords;
 116:Drivers/lvgl/lvgl/src/draw/sw/lv_draw_sw_rect.c ****     if(!_lv_area_intersect(&clipped_coords, &bg_coords, draw_ctx->clip_area)) return;
 117:Drivers/lvgl/lvgl/src/draw/sw/lv_draw_sw_rect.c **** 
 118:Drivers/lvgl/lvgl/src/draw/sw/lv_draw_sw_rect.c ****     lv_grad_dir_t grad_dir = dsc->bg_grad.dir;
 119:Drivers/lvgl/lvgl/src/draw/sw/lv_draw_sw_rect.c ****     lv_color_t bg_color    = grad_dir == LV_GRAD_DIR_NONE ? dsc->bg_color : dsc->bg_grad.stops[0].c
 120:Drivers/lvgl/lvgl/src/draw/sw/lv_draw_sw_rect.c ****     if(bg_color.full == dsc->bg_grad.stops[1].color.full) grad_dir = LV_GRAD_DIR_NONE;
 121:Drivers/lvgl/lvgl/src/draw/sw/lv_draw_sw_rect.c **** 
 122:Drivers/lvgl/lvgl/src/draw/sw/lv_draw_sw_rect.c ****     bool mask_any = lv_draw_mask_is_any(&bg_coords);
 123:Drivers/lvgl/lvgl/src/draw/sw/lv_draw_sw_rect.c ****     lv_draw_sw_blend_dsc_t blend_dsc = {0};
 124:Drivers/lvgl/lvgl/src/draw/sw/lv_draw_sw_rect.c ****     blend_dsc.blend_mode = dsc->blend_mode;
 125:Drivers/lvgl/lvgl/src/draw/sw/lv_draw_sw_rect.c ****     blend_dsc.color = bg_color;
 126:Drivers/lvgl/lvgl/src/draw/sw/lv_draw_sw_rect.c **** 
 127:Drivers/lvgl/lvgl/src/draw/sw/lv_draw_sw_rect.c ****     /*Most simple case: just a plain rectangle*/
 128:Drivers/lvgl/lvgl/src/draw/sw/lv_draw_sw_rect.c ****     if(!mask_any && dsc->radius == 0 && (grad_dir == LV_GRAD_DIR_NONE)) {
 129:Drivers/lvgl/lvgl/src/draw/sw/lv_draw_sw_rect.c ****         blend_dsc.blend_area = &bg_coords;
 130:Drivers/lvgl/lvgl/src/draw/sw/lv_draw_sw_rect.c ****         blend_dsc.opa = dsc->bg_opa;
 131:Drivers/lvgl/lvgl/src/draw/sw/lv_draw_sw_rect.c ****         lv_draw_sw_blend(draw_ctx, &blend_dsc);
 132:Drivers/lvgl/lvgl/src/draw/sw/lv_draw_sw_rect.c ****         return;
 133:Drivers/lvgl/lvgl/src/draw/sw/lv_draw_sw_rect.c ****     }
 134:Drivers/lvgl/lvgl/src/draw/sw/lv_draw_sw_rect.c **** 
 135:Drivers/lvgl/lvgl/src/draw/sw/lv_draw_sw_rect.c ****     /*Complex case: there is gradient, mask, or radius*/
 136:Drivers/lvgl/lvgl/src/draw/sw/lv_draw_sw_rect.c **** #if LV_DRAW_COMPLEX == 0
 137:Drivers/lvgl/lvgl/src/draw/sw/lv_draw_sw_rect.c ****     LV_LOG_WARN("Can't draw complex rectangle because LV_DRAW_COMPLEX = 0");
 138:Drivers/lvgl/lvgl/src/draw/sw/lv_draw_sw_rect.c **** #else
 139:Drivers/lvgl/lvgl/src/draw/sw/lv_draw_sw_rect.c ****     lv_opa_t opa = dsc->bg_opa >= LV_OPA_MAX ? LV_OPA_COVER : dsc->bg_opa;
 140:Drivers/lvgl/lvgl/src/draw/sw/lv_draw_sw_rect.c **** 
 141:Drivers/lvgl/lvgl/src/draw/sw/lv_draw_sw_rect.c ****     /*Get the real radius. Can't be larger than the half of the shortest side */
 142:Drivers/lvgl/lvgl/src/draw/sw/lv_draw_sw_rect.c ****     lv_coord_t coords_bg_w = lv_area_get_width(&bg_coords);
 143:Drivers/lvgl/lvgl/src/draw/sw/lv_draw_sw_rect.c ****     lv_coord_t coords_bg_h = lv_area_get_height(&bg_coords);
 144:Drivers/lvgl/lvgl/src/draw/sw/lv_draw_sw_rect.c ****     int32_t short_side = LV_MIN(coords_bg_w, coords_bg_h);
 145:Drivers/lvgl/lvgl/src/draw/sw/lv_draw_sw_rect.c ****     int32_t rout = LV_MIN(dsc->radius, short_side >> 1);
 146:Drivers/lvgl/lvgl/src/draw/sw/lv_draw_sw_rect.c **** 
 147:Drivers/lvgl/lvgl/src/draw/sw/lv_draw_sw_rect.c ****     /*Add a radius mask if there is radius*/
ARM GAS  /tmp/ccV6ypnB.s 			page 4


 148:Drivers/lvgl/lvgl/src/draw/sw/lv_draw_sw_rect.c ****     int32_t clipped_w = lv_area_get_width(&clipped_coords);
 149:Drivers/lvgl/lvgl/src/draw/sw/lv_draw_sw_rect.c ****     int16_t mask_rout_id = LV_MASK_ID_INV;
 150:Drivers/lvgl/lvgl/src/draw/sw/lv_draw_sw_rect.c ****     lv_opa_t * mask_buf = NULL;
 151:Drivers/lvgl/lvgl/src/draw/sw/lv_draw_sw_rect.c ****     lv_draw_mask_radius_param_t mask_rout_param;
 152:Drivers/lvgl/lvgl/src/draw/sw/lv_draw_sw_rect.c ****     if(rout > 0 || mask_any) {
 153:Drivers/lvgl/lvgl/src/draw/sw/lv_draw_sw_rect.c ****         mask_buf = lv_mem_buf_get(clipped_w);
 154:Drivers/lvgl/lvgl/src/draw/sw/lv_draw_sw_rect.c ****         lv_draw_mask_radius_init(&mask_rout_param, &bg_coords, rout, false);
 155:Drivers/lvgl/lvgl/src/draw/sw/lv_draw_sw_rect.c ****         mask_rout_id = lv_draw_mask_add(&mask_rout_param, NULL);
 156:Drivers/lvgl/lvgl/src/draw/sw/lv_draw_sw_rect.c ****     }
 157:Drivers/lvgl/lvgl/src/draw/sw/lv_draw_sw_rect.c **** 
 158:Drivers/lvgl/lvgl/src/draw/sw/lv_draw_sw_rect.c ****     int32_t h;
 159:Drivers/lvgl/lvgl/src/draw/sw/lv_draw_sw_rect.c **** 
 160:Drivers/lvgl/lvgl/src/draw/sw/lv_draw_sw_rect.c ****     lv_area_t blend_area;
 161:Drivers/lvgl/lvgl/src/draw/sw/lv_draw_sw_rect.c ****     blend_area.x1 = clipped_coords.x1;
 162:Drivers/lvgl/lvgl/src/draw/sw/lv_draw_sw_rect.c ****     blend_area.x2 = clipped_coords.x2;
 163:Drivers/lvgl/lvgl/src/draw/sw/lv_draw_sw_rect.c **** 
 164:Drivers/lvgl/lvgl/src/draw/sw/lv_draw_sw_rect.c ****     blend_dsc.mask_buf = mask_buf;
 165:Drivers/lvgl/lvgl/src/draw/sw/lv_draw_sw_rect.c ****     blend_dsc.blend_area = &blend_area;
 166:Drivers/lvgl/lvgl/src/draw/sw/lv_draw_sw_rect.c ****     blend_dsc.mask_area = &blend_area;
 167:Drivers/lvgl/lvgl/src/draw/sw/lv_draw_sw_rect.c ****     blend_dsc.opa = LV_OPA_COVER;
 168:Drivers/lvgl/lvgl/src/draw/sw/lv_draw_sw_rect.c **** 
 169:Drivers/lvgl/lvgl/src/draw/sw/lv_draw_sw_rect.c **** 
 170:Drivers/lvgl/lvgl/src/draw/sw/lv_draw_sw_rect.c ****     /*Get gradient if appropriate*/
 171:Drivers/lvgl/lvgl/src/draw/sw/lv_draw_sw_rect.c ****     lv_grad_t * grad = lv_gradient_get(&dsc->bg_grad, coords_bg_w, coords_bg_h);
 172:Drivers/lvgl/lvgl/src/draw/sw/lv_draw_sw_rect.c ****     if(grad && grad_dir == LV_GRAD_DIR_HOR) {
 173:Drivers/lvgl/lvgl/src/draw/sw/lv_draw_sw_rect.c ****         blend_dsc.src_buf = grad->map + clipped_coords.x1 - bg_coords.x1;
 174:Drivers/lvgl/lvgl/src/draw/sw/lv_draw_sw_rect.c ****     }
 175:Drivers/lvgl/lvgl/src/draw/sw/lv_draw_sw_rect.c **** 
 176:Drivers/lvgl/lvgl/src/draw/sw/lv_draw_sw_rect.c **** #if _DITHER_GRADIENT
 177:Drivers/lvgl/lvgl/src/draw/sw/lv_draw_sw_rect.c ****     lv_dither_mode_t dither_mode = dsc->bg_grad.dither;
 178:Drivers/lvgl/lvgl/src/draw/sw/lv_draw_sw_rect.c ****     lv_dither_func_t dither_func = &lv_dither_none;
 179:Drivers/lvgl/lvgl/src/draw/sw/lv_draw_sw_rect.c ****     lv_coord_t grad_size = coords_bg_w;
 180:Drivers/lvgl/lvgl/src/draw/sw/lv_draw_sw_rect.c ****     if(grad_dir == LV_GRAD_DIR_VER && dither_mode != LV_DITHER_NONE) {
 181:Drivers/lvgl/lvgl/src/draw/sw/lv_draw_sw_rect.c ****         /* When dithering, we are still using a map that's changing from line to line*/
 182:Drivers/lvgl/lvgl/src/draw/sw/lv_draw_sw_rect.c ****         blend_dsc.src_buf = grad->map;
 183:Drivers/lvgl/lvgl/src/draw/sw/lv_draw_sw_rect.c ****     }
 184:Drivers/lvgl/lvgl/src/draw/sw/lv_draw_sw_rect.c **** 
 185:Drivers/lvgl/lvgl/src/draw/sw/lv_draw_sw_rect.c ****     if(grad && dither_mode == LV_DITHER_NONE) {
 186:Drivers/lvgl/lvgl/src/draw/sw/lv_draw_sw_rect.c ****         grad->filled = 0; /*Should we force refilling it each draw call ?*/
 187:Drivers/lvgl/lvgl/src/draw/sw/lv_draw_sw_rect.c ****         if(grad_dir == LV_GRAD_DIR_VER)
 188:Drivers/lvgl/lvgl/src/draw/sw/lv_draw_sw_rect.c ****             grad_size = coords_bg_h;
 189:Drivers/lvgl/lvgl/src/draw/sw/lv_draw_sw_rect.c ****     }
 190:Drivers/lvgl/lvgl/src/draw/sw/lv_draw_sw_rect.c ****     else
 191:Drivers/lvgl/lvgl/src/draw/sw/lv_draw_sw_rect.c **** #if LV_DITHER_ERROR_DIFFUSION
 192:Drivers/lvgl/lvgl/src/draw/sw/lv_draw_sw_rect.c ****         if(dither_mode == LV_DITHER_ORDERED)
 193:Drivers/lvgl/lvgl/src/draw/sw/lv_draw_sw_rect.c **** #endif
 194:Drivers/lvgl/lvgl/src/draw/sw/lv_draw_sw_rect.c ****             switch(grad_dir) {
 195:Drivers/lvgl/lvgl/src/draw/sw/lv_draw_sw_rect.c ****                 case LV_GRAD_DIR_HOR:
 196:Drivers/lvgl/lvgl/src/draw/sw/lv_draw_sw_rect.c ****                     dither_func = lv_dither_ordered_hor;
 197:Drivers/lvgl/lvgl/src/draw/sw/lv_draw_sw_rect.c ****                     break;
 198:Drivers/lvgl/lvgl/src/draw/sw/lv_draw_sw_rect.c ****                 case LV_GRAD_DIR_VER:
 199:Drivers/lvgl/lvgl/src/draw/sw/lv_draw_sw_rect.c ****                     dither_func = lv_dither_ordered_ver;
 200:Drivers/lvgl/lvgl/src/draw/sw/lv_draw_sw_rect.c ****                     break;
 201:Drivers/lvgl/lvgl/src/draw/sw/lv_draw_sw_rect.c ****                 default:
 202:Drivers/lvgl/lvgl/src/draw/sw/lv_draw_sw_rect.c ****                     dither_func = NULL;
 203:Drivers/lvgl/lvgl/src/draw/sw/lv_draw_sw_rect.c ****             }
 204:Drivers/lvgl/lvgl/src/draw/sw/lv_draw_sw_rect.c **** 
ARM GAS  /tmp/ccV6ypnB.s 			page 5


 205:Drivers/lvgl/lvgl/src/draw/sw/lv_draw_sw_rect.c **** #if LV_DITHER_ERROR_DIFFUSION
 206:Drivers/lvgl/lvgl/src/draw/sw/lv_draw_sw_rect.c ****         else if(dither_mode == LV_DITHER_ERR_DIFF)
 207:Drivers/lvgl/lvgl/src/draw/sw/lv_draw_sw_rect.c ****             switch(grad_dir) {
 208:Drivers/lvgl/lvgl/src/draw/sw/lv_draw_sw_rect.c ****                 case LV_GRAD_DIR_HOR:
 209:Drivers/lvgl/lvgl/src/draw/sw/lv_draw_sw_rect.c ****                     dither_func = lv_dither_err_diff_hor;
 210:Drivers/lvgl/lvgl/src/draw/sw/lv_draw_sw_rect.c ****                     break;
 211:Drivers/lvgl/lvgl/src/draw/sw/lv_draw_sw_rect.c ****                 case LV_GRAD_DIR_VER:
 212:Drivers/lvgl/lvgl/src/draw/sw/lv_draw_sw_rect.c ****                     dither_func = lv_dither_err_diff_ver;
 213:Drivers/lvgl/lvgl/src/draw/sw/lv_draw_sw_rect.c ****                     break;
 214:Drivers/lvgl/lvgl/src/draw/sw/lv_draw_sw_rect.c ****                 default:
 215:Drivers/lvgl/lvgl/src/draw/sw/lv_draw_sw_rect.c ****                     dither_func = NULL;
 216:Drivers/lvgl/lvgl/src/draw/sw/lv_draw_sw_rect.c ****             }
 217:Drivers/lvgl/lvgl/src/draw/sw/lv_draw_sw_rect.c **** #endif
 218:Drivers/lvgl/lvgl/src/draw/sw/lv_draw_sw_rect.c **** #endif
 219:Drivers/lvgl/lvgl/src/draw/sw/lv_draw_sw_rect.c **** 
 220:Drivers/lvgl/lvgl/src/draw/sw/lv_draw_sw_rect.c ****     /*There is another mask too. Draw line by line. */
 221:Drivers/lvgl/lvgl/src/draw/sw/lv_draw_sw_rect.c ****     if(mask_any) {
 222:Drivers/lvgl/lvgl/src/draw/sw/lv_draw_sw_rect.c ****         for(h = clipped_coords.y1; h <= clipped_coords.y2; h++) {
 223:Drivers/lvgl/lvgl/src/draw/sw/lv_draw_sw_rect.c ****             blend_area.y1 = h;
 224:Drivers/lvgl/lvgl/src/draw/sw/lv_draw_sw_rect.c ****             blend_area.y2 = h;
 225:Drivers/lvgl/lvgl/src/draw/sw/lv_draw_sw_rect.c **** 
 226:Drivers/lvgl/lvgl/src/draw/sw/lv_draw_sw_rect.c ****             /* Initialize the mask to opa instead of 0xFF and blend with LV_OPA_COVER.
 227:Drivers/lvgl/lvgl/src/draw/sw/lv_draw_sw_rect.c ****              * It saves calculating the final opa in lv_draw_sw_blend*/
 228:Drivers/lvgl/lvgl/src/draw/sw/lv_draw_sw_rect.c ****             lv_memset(mask_buf, opa, clipped_w);
 229:Drivers/lvgl/lvgl/src/draw/sw/lv_draw_sw_rect.c ****             blend_dsc.mask_res = lv_draw_mask_apply(mask_buf, clipped_coords.x1, h, clipped_w);
 230:Drivers/lvgl/lvgl/src/draw/sw/lv_draw_sw_rect.c ****             if(blend_dsc.mask_res == LV_DRAW_MASK_RES_FULL_COVER) blend_dsc.mask_res = LV_DRAW_MASK
 231:Drivers/lvgl/lvgl/src/draw/sw/lv_draw_sw_rect.c **** 
 232:Drivers/lvgl/lvgl/src/draw/sw/lv_draw_sw_rect.c **** #if _DITHER_GRADIENT
 233:Drivers/lvgl/lvgl/src/draw/sw/lv_draw_sw_rect.c ****             if(dither_func) dither_func(grad, blend_area.x1,  h - bg_coords.y1, grad_size);
 234:Drivers/lvgl/lvgl/src/draw/sw/lv_draw_sw_rect.c **** #endif
 235:Drivers/lvgl/lvgl/src/draw/sw/lv_draw_sw_rect.c ****             if(grad_dir == LV_GRAD_DIR_VER) blend_dsc.color = grad->map[h - bg_coords.y1];
 236:Drivers/lvgl/lvgl/src/draw/sw/lv_draw_sw_rect.c ****             lv_draw_sw_blend(draw_ctx, &blend_dsc);
 237:Drivers/lvgl/lvgl/src/draw/sw/lv_draw_sw_rect.c ****         }
 238:Drivers/lvgl/lvgl/src/draw/sw/lv_draw_sw_rect.c ****         goto bg_clean_up;
 239:Drivers/lvgl/lvgl/src/draw/sw/lv_draw_sw_rect.c ****     }
 240:Drivers/lvgl/lvgl/src/draw/sw/lv_draw_sw_rect.c **** 
 241:Drivers/lvgl/lvgl/src/draw/sw/lv_draw_sw_rect.c **** 
 242:Drivers/lvgl/lvgl/src/draw/sw/lv_draw_sw_rect.c ****     /* Draw the top of the rectangle line by line and mirror it to the bottom. */
 243:Drivers/lvgl/lvgl/src/draw/sw/lv_draw_sw_rect.c ****     for(h = 0; h < rout; h++) {
 244:Drivers/lvgl/lvgl/src/draw/sw/lv_draw_sw_rect.c ****         lv_coord_t top_y = bg_coords.y1 + h;
 245:Drivers/lvgl/lvgl/src/draw/sw/lv_draw_sw_rect.c ****         lv_coord_t bottom_y = bg_coords.y2 - h;
 246:Drivers/lvgl/lvgl/src/draw/sw/lv_draw_sw_rect.c ****         if(top_y < clipped_coords.y1 && bottom_y > clipped_coords.y2) continue;   /*This line is cl
 247:Drivers/lvgl/lvgl/src/draw/sw/lv_draw_sw_rect.c **** 
 248:Drivers/lvgl/lvgl/src/draw/sw/lv_draw_sw_rect.c ****         /* Initialize the mask to opa instead of 0xFF and blend with LV_OPA_COVER.
 249:Drivers/lvgl/lvgl/src/draw/sw/lv_draw_sw_rect.c ****          * It saves calculating the final opa in lv_draw_sw_blend*/
 250:Drivers/lvgl/lvgl/src/draw/sw/lv_draw_sw_rect.c ****         lv_memset(mask_buf, opa, clipped_w);
 251:Drivers/lvgl/lvgl/src/draw/sw/lv_draw_sw_rect.c ****         blend_dsc.mask_res = lv_draw_mask_apply(mask_buf, blend_area.x1, top_y, clipped_w);
 252:Drivers/lvgl/lvgl/src/draw/sw/lv_draw_sw_rect.c ****         if(blend_dsc.mask_res == LV_DRAW_MASK_RES_FULL_COVER) blend_dsc.mask_res = LV_DRAW_MASK_RES
 253:Drivers/lvgl/lvgl/src/draw/sw/lv_draw_sw_rect.c **** 
 254:Drivers/lvgl/lvgl/src/draw/sw/lv_draw_sw_rect.c ****         if(top_y >= clipped_coords.y1) {
 255:Drivers/lvgl/lvgl/src/draw/sw/lv_draw_sw_rect.c ****             blend_area.y1 = top_y;
 256:Drivers/lvgl/lvgl/src/draw/sw/lv_draw_sw_rect.c ****             blend_area.y2 = top_y;
 257:Drivers/lvgl/lvgl/src/draw/sw/lv_draw_sw_rect.c **** 
 258:Drivers/lvgl/lvgl/src/draw/sw/lv_draw_sw_rect.c **** #if _DITHER_GRADIENT
 259:Drivers/lvgl/lvgl/src/draw/sw/lv_draw_sw_rect.c ****             if(dither_func) dither_func(grad, blend_area.x1,  top_y - bg_coords.y1, grad_size);
 260:Drivers/lvgl/lvgl/src/draw/sw/lv_draw_sw_rect.c **** #endif
 261:Drivers/lvgl/lvgl/src/draw/sw/lv_draw_sw_rect.c ****             if(grad_dir == LV_GRAD_DIR_VER) blend_dsc.color = grad->map[top_y - bg_coords.y1];
ARM GAS  /tmp/ccV6ypnB.s 			page 6


 262:Drivers/lvgl/lvgl/src/draw/sw/lv_draw_sw_rect.c ****             lv_draw_sw_blend(draw_ctx, &blend_dsc);
 263:Drivers/lvgl/lvgl/src/draw/sw/lv_draw_sw_rect.c ****         }
 264:Drivers/lvgl/lvgl/src/draw/sw/lv_draw_sw_rect.c **** 
 265:Drivers/lvgl/lvgl/src/draw/sw/lv_draw_sw_rect.c ****         if(bottom_y <= clipped_coords.y2) {
 266:Drivers/lvgl/lvgl/src/draw/sw/lv_draw_sw_rect.c ****             blend_area.y1 = bottom_y;
 267:Drivers/lvgl/lvgl/src/draw/sw/lv_draw_sw_rect.c ****             blend_area.y2 = bottom_y;
 268:Drivers/lvgl/lvgl/src/draw/sw/lv_draw_sw_rect.c **** 
 269:Drivers/lvgl/lvgl/src/draw/sw/lv_draw_sw_rect.c **** #if _DITHER_GRADIENT
 270:Drivers/lvgl/lvgl/src/draw/sw/lv_draw_sw_rect.c ****             if(dither_func) dither_func(grad, blend_area.x1,  bottom_y - bg_coords.y1, grad_size);
 271:Drivers/lvgl/lvgl/src/draw/sw/lv_draw_sw_rect.c **** #endif
 272:Drivers/lvgl/lvgl/src/draw/sw/lv_draw_sw_rect.c ****             if(grad_dir == LV_GRAD_DIR_VER) blend_dsc.color = grad->map[bottom_y - bg_coords.y1];
 273:Drivers/lvgl/lvgl/src/draw/sw/lv_draw_sw_rect.c ****             lv_draw_sw_blend(draw_ctx, &blend_dsc);
 274:Drivers/lvgl/lvgl/src/draw/sw/lv_draw_sw_rect.c ****         }
 275:Drivers/lvgl/lvgl/src/draw/sw/lv_draw_sw_rect.c ****     }
 276:Drivers/lvgl/lvgl/src/draw/sw/lv_draw_sw_rect.c **** 
 277:Drivers/lvgl/lvgl/src/draw/sw/lv_draw_sw_rect.c ****     /* Draw the center of the rectangle.*/
 278:Drivers/lvgl/lvgl/src/draw/sw/lv_draw_sw_rect.c **** 
 279:Drivers/lvgl/lvgl/src/draw/sw/lv_draw_sw_rect.c ****     /*If no other masks and no gradient, the center is a simple rectangle*/
 280:Drivers/lvgl/lvgl/src/draw/sw/lv_draw_sw_rect.c ****     lv_area_t center_coords;
 281:Drivers/lvgl/lvgl/src/draw/sw/lv_draw_sw_rect.c ****     center_coords.x1 = bg_coords.x1;
 282:Drivers/lvgl/lvgl/src/draw/sw/lv_draw_sw_rect.c ****     center_coords.x2 = bg_coords.x2;
 283:Drivers/lvgl/lvgl/src/draw/sw/lv_draw_sw_rect.c ****     center_coords.y1 = bg_coords.y1 + rout;
 284:Drivers/lvgl/lvgl/src/draw/sw/lv_draw_sw_rect.c ****     center_coords.y2 = bg_coords.y2 - rout;
 285:Drivers/lvgl/lvgl/src/draw/sw/lv_draw_sw_rect.c ****     bool mask_any_center = lv_draw_mask_is_any(&center_coords);
 286:Drivers/lvgl/lvgl/src/draw/sw/lv_draw_sw_rect.c ****     if(!mask_any_center && grad_dir == LV_GRAD_DIR_NONE) {
 287:Drivers/lvgl/lvgl/src/draw/sw/lv_draw_sw_rect.c ****         blend_area.y1 = bg_coords.y1 + rout;
 288:Drivers/lvgl/lvgl/src/draw/sw/lv_draw_sw_rect.c ****         blend_area.y2 = bg_coords.y2 - rout;
 289:Drivers/lvgl/lvgl/src/draw/sw/lv_draw_sw_rect.c ****         blend_dsc.opa = opa;
 290:Drivers/lvgl/lvgl/src/draw/sw/lv_draw_sw_rect.c ****         blend_dsc.mask_buf = NULL;
 291:Drivers/lvgl/lvgl/src/draw/sw/lv_draw_sw_rect.c ****         lv_draw_sw_blend(draw_ctx, &blend_dsc);
 292:Drivers/lvgl/lvgl/src/draw/sw/lv_draw_sw_rect.c ****     }
 293:Drivers/lvgl/lvgl/src/draw/sw/lv_draw_sw_rect.c ****     /*With gradient and/or mask draw line by line*/
 294:Drivers/lvgl/lvgl/src/draw/sw/lv_draw_sw_rect.c ****     else {
 295:Drivers/lvgl/lvgl/src/draw/sw/lv_draw_sw_rect.c ****         blend_dsc.opa = opa;
 296:Drivers/lvgl/lvgl/src/draw/sw/lv_draw_sw_rect.c ****         blend_dsc.mask_res = LV_DRAW_MASK_RES_FULL_COVER;
 297:Drivers/lvgl/lvgl/src/draw/sw/lv_draw_sw_rect.c ****         int32_t h_end = bg_coords.y2 - rout;
 298:Drivers/lvgl/lvgl/src/draw/sw/lv_draw_sw_rect.c ****         for(h = bg_coords.y1 + rout; h <= h_end; h++) {
 299:Drivers/lvgl/lvgl/src/draw/sw/lv_draw_sw_rect.c ****             /*If there is no other mask do not apply mask as in the center there is no radius to ma
 300:Drivers/lvgl/lvgl/src/draw/sw/lv_draw_sw_rect.c ****             if(mask_any_center) {
 301:Drivers/lvgl/lvgl/src/draw/sw/lv_draw_sw_rect.c ****                 lv_memset(mask_buf, opa, clipped_w);
 302:Drivers/lvgl/lvgl/src/draw/sw/lv_draw_sw_rect.c ****                 blend_dsc.mask_res = lv_draw_mask_apply(mask_buf, clipped_coords.x1, h, clipped_w);
 303:Drivers/lvgl/lvgl/src/draw/sw/lv_draw_sw_rect.c ****             }
 304:Drivers/lvgl/lvgl/src/draw/sw/lv_draw_sw_rect.c **** 
 305:Drivers/lvgl/lvgl/src/draw/sw/lv_draw_sw_rect.c ****             blend_area.y1 = h;
 306:Drivers/lvgl/lvgl/src/draw/sw/lv_draw_sw_rect.c ****             blend_area.y2 = h;
 307:Drivers/lvgl/lvgl/src/draw/sw/lv_draw_sw_rect.c **** 
 308:Drivers/lvgl/lvgl/src/draw/sw/lv_draw_sw_rect.c **** #if _DITHER_GRADIENT
 309:Drivers/lvgl/lvgl/src/draw/sw/lv_draw_sw_rect.c ****             if(dither_func) dither_func(grad, blend_area.x1,  h - bg_coords.y1, grad_size);
 310:Drivers/lvgl/lvgl/src/draw/sw/lv_draw_sw_rect.c **** #endif
 311:Drivers/lvgl/lvgl/src/draw/sw/lv_draw_sw_rect.c ****             if(grad_dir == LV_GRAD_DIR_VER) blend_dsc.color = grad->map[h - bg_coords.y1];
 312:Drivers/lvgl/lvgl/src/draw/sw/lv_draw_sw_rect.c ****             lv_draw_sw_blend(draw_ctx, &blend_dsc);
 313:Drivers/lvgl/lvgl/src/draw/sw/lv_draw_sw_rect.c ****         }
 314:Drivers/lvgl/lvgl/src/draw/sw/lv_draw_sw_rect.c ****     }
 315:Drivers/lvgl/lvgl/src/draw/sw/lv_draw_sw_rect.c **** 
 316:Drivers/lvgl/lvgl/src/draw/sw/lv_draw_sw_rect.c **** 
 317:Drivers/lvgl/lvgl/src/draw/sw/lv_draw_sw_rect.c **** bg_clean_up:
 318:Drivers/lvgl/lvgl/src/draw/sw/lv_draw_sw_rect.c ****     if(mask_buf) lv_mem_buf_release(mask_buf);
ARM GAS  /tmp/ccV6ypnB.s 			page 7


 319:Drivers/lvgl/lvgl/src/draw/sw/lv_draw_sw_rect.c ****     if(mask_rout_id != LV_MASK_ID_INV) {
 320:Drivers/lvgl/lvgl/src/draw/sw/lv_draw_sw_rect.c ****         lv_draw_mask_remove_id(mask_rout_id);
 321:Drivers/lvgl/lvgl/src/draw/sw/lv_draw_sw_rect.c ****         lv_draw_mask_free_param(&mask_rout_param);
 322:Drivers/lvgl/lvgl/src/draw/sw/lv_draw_sw_rect.c ****     }
 323:Drivers/lvgl/lvgl/src/draw/sw/lv_draw_sw_rect.c ****     if(grad) {
 324:Drivers/lvgl/lvgl/src/draw/sw/lv_draw_sw_rect.c ****         lv_gradient_cleanup(grad);
 325:Drivers/lvgl/lvgl/src/draw/sw/lv_draw_sw_rect.c ****     }
 326:Drivers/lvgl/lvgl/src/draw/sw/lv_draw_sw_rect.c **** 
 327:Drivers/lvgl/lvgl/src/draw/sw/lv_draw_sw_rect.c **** #endif
 328:Drivers/lvgl/lvgl/src/draw/sw/lv_draw_sw_rect.c **** }
 329:Drivers/lvgl/lvgl/src/draw/sw/lv_draw_sw_rect.c **** 
 330:Drivers/lvgl/lvgl/src/draw/sw/lv_draw_sw_rect.c **** static void draw_bg_img(lv_draw_ctx_t * draw_ctx, const lv_draw_rect_dsc_t * dsc, const lv_area_t *
 331:Drivers/lvgl/lvgl/src/draw/sw/lv_draw_sw_rect.c **** {
 332:Drivers/lvgl/lvgl/src/draw/sw/lv_draw_sw_rect.c ****     if(dsc->bg_img_src == NULL) return;
 333:Drivers/lvgl/lvgl/src/draw/sw/lv_draw_sw_rect.c ****     if(dsc->bg_img_opa <= LV_OPA_MIN) return;
 334:Drivers/lvgl/lvgl/src/draw/sw/lv_draw_sw_rect.c **** 
 335:Drivers/lvgl/lvgl/src/draw/sw/lv_draw_sw_rect.c ****     lv_area_t clip_area;
 336:Drivers/lvgl/lvgl/src/draw/sw/lv_draw_sw_rect.c ****     if(!_lv_area_intersect(&clip_area, coords, draw_ctx->clip_area)) {
 337:Drivers/lvgl/lvgl/src/draw/sw/lv_draw_sw_rect.c ****         return;
 338:Drivers/lvgl/lvgl/src/draw/sw/lv_draw_sw_rect.c ****     }
 339:Drivers/lvgl/lvgl/src/draw/sw/lv_draw_sw_rect.c **** 
 340:Drivers/lvgl/lvgl/src/draw/sw/lv_draw_sw_rect.c ****     const lv_area_t * clip_area_ori = draw_ctx->clip_area;
 341:Drivers/lvgl/lvgl/src/draw/sw/lv_draw_sw_rect.c ****     draw_ctx->clip_area = &clip_area;
 342:Drivers/lvgl/lvgl/src/draw/sw/lv_draw_sw_rect.c **** 
 343:Drivers/lvgl/lvgl/src/draw/sw/lv_draw_sw_rect.c ****     lv_img_src_t src_type = lv_img_src_get_type(dsc->bg_img_src);
 344:Drivers/lvgl/lvgl/src/draw/sw/lv_draw_sw_rect.c ****     if(src_type == LV_IMG_SRC_SYMBOL) {
 345:Drivers/lvgl/lvgl/src/draw/sw/lv_draw_sw_rect.c ****         lv_point_t size;
 346:Drivers/lvgl/lvgl/src/draw/sw/lv_draw_sw_rect.c ****         lv_txt_get_size(&size, dsc->bg_img_src, dsc->bg_img_symbol_font, 0, 0, LV_COORD_MAX, LV_TEX
 347:Drivers/lvgl/lvgl/src/draw/sw/lv_draw_sw_rect.c ****         lv_area_t a;
 348:Drivers/lvgl/lvgl/src/draw/sw/lv_draw_sw_rect.c ****         a.x1 = coords->x1 + lv_area_get_width(coords) / 2 - size.x / 2;
 349:Drivers/lvgl/lvgl/src/draw/sw/lv_draw_sw_rect.c ****         a.x2 = a.x1 + size.x - 1;
 350:Drivers/lvgl/lvgl/src/draw/sw/lv_draw_sw_rect.c ****         a.y1 = coords->y1 + lv_area_get_height(coords) / 2 - size.y / 2;
 351:Drivers/lvgl/lvgl/src/draw/sw/lv_draw_sw_rect.c ****         a.y2 = a.y1 + size.y - 1;
 352:Drivers/lvgl/lvgl/src/draw/sw/lv_draw_sw_rect.c **** 
 353:Drivers/lvgl/lvgl/src/draw/sw/lv_draw_sw_rect.c ****         lv_draw_label_dsc_t label_draw_dsc;
 354:Drivers/lvgl/lvgl/src/draw/sw/lv_draw_sw_rect.c ****         lv_draw_label_dsc_init(&label_draw_dsc);
 355:Drivers/lvgl/lvgl/src/draw/sw/lv_draw_sw_rect.c ****         label_draw_dsc.font = dsc->bg_img_symbol_font;
 356:Drivers/lvgl/lvgl/src/draw/sw/lv_draw_sw_rect.c ****         label_draw_dsc.color = dsc->bg_img_recolor;
 357:Drivers/lvgl/lvgl/src/draw/sw/lv_draw_sw_rect.c ****         label_draw_dsc.opa = dsc->bg_img_opa;
 358:Drivers/lvgl/lvgl/src/draw/sw/lv_draw_sw_rect.c ****         lv_draw_label(draw_ctx, &label_draw_dsc, &a, dsc->bg_img_src, NULL);
 359:Drivers/lvgl/lvgl/src/draw/sw/lv_draw_sw_rect.c ****     }
 360:Drivers/lvgl/lvgl/src/draw/sw/lv_draw_sw_rect.c ****     else {
 361:Drivers/lvgl/lvgl/src/draw/sw/lv_draw_sw_rect.c ****         lv_img_header_t header;
 362:Drivers/lvgl/lvgl/src/draw/sw/lv_draw_sw_rect.c ****         lv_res_t res = lv_img_decoder_get_info(dsc->bg_img_src, &header);
 363:Drivers/lvgl/lvgl/src/draw/sw/lv_draw_sw_rect.c ****         if(res == LV_RES_OK) {
 364:Drivers/lvgl/lvgl/src/draw/sw/lv_draw_sw_rect.c ****             lv_draw_img_dsc_t img_dsc;
 365:Drivers/lvgl/lvgl/src/draw/sw/lv_draw_sw_rect.c ****             lv_draw_img_dsc_init(&img_dsc);
 366:Drivers/lvgl/lvgl/src/draw/sw/lv_draw_sw_rect.c ****             img_dsc.blend_mode = dsc->blend_mode;
 367:Drivers/lvgl/lvgl/src/draw/sw/lv_draw_sw_rect.c ****             img_dsc.recolor = dsc->bg_img_recolor;
 368:Drivers/lvgl/lvgl/src/draw/sw/lv_draw_sw_rect.c ****             img_dsc.recolor_opa = dsc->bg_img_recolor_opa;
 369:Drivers/lvgl/lvgl/src/draw/sw/lv_draw_sw_rect.c ****             img_dsc.opa = dsc->bg_img_opa;
 370:Drivers/lvgl/lvgl/src/draw/sw/lv_draw_sw_rect.c **** 
 371:Drivers/lvgl/lvgl/src/draw/sw/lv_draw_sw_rect.c ****             /*Center align*/
 372:Drivers/lvgl/lvgl/src/draw/sw/lv_draw_sw_rect.c ****             if(dsc->bg_img_tiled == false) {
 373:Drivers/lvgl/lvgl/src/draw/sw/lv_draw_sw_rect.c ****                 lv_area_t area;
 374:Drivers/lvgl/lvgl/src/draw/sw/lv_draw_sw_rect.c ****                 area.x1 = coords->x1 + lv_area_get_width(coords) / 2 - header.w / 2;
 375:Drivers/lvgl/lvgl/src/draw/sw/lv_draw_sw_rect.c ****                 area.y1 = coords->y1 + lv_area_get_height(coords) / 2 - header.h / 2;
ARM GAS  /tmp/ccV6ypnB.s 			page 8


 376:Drivers/lvgl/lvgl/src/draw/sw/lv_draw_sw_rect.c ****                 area.x2 = area.x1 + header.w - 1;
 377:Drivers/lvgl/lvgl/src/draw/sw/lv_draw_sw_rect.c ****                 area.y2 = area.y1 + header.h - 1;
 378:Drivers/lvgl/lvgl/src/draw/sw/lv_draw_sw_rect.c **** 
 379:Drivers/lvgl/lvgl/src/draw/sw/lv_draw_sw_rect.c ****                 lv_draw_img(draw_ctx, &img_dsc, &area, dsc->bg_img_src);
 380:Drivers/lvgl/lvgl/src/draw/sw/lv_draw_sw_rect.c ****             }
 381:Drivers/lvgl/lvgl/src/draw/sw/lv_draw_sw_rect.c ****             else {
 382:Drivers/lvgl/lvgl/src/draw/sw/lv_draw_sw_rect.c ****                 lv_area_t area;
 383:Drivers/lvgl/lvgl/src/draw/sw/lv_draw_sw_rect.c ****                 area.y1 = coords->y1;
 384:Drivers/lvgl/lvgl/src/draw/sw/lv_draw_sw_rect.c ****                 area.y2 = area.y1 + header.h - 1;
 385:Drivers/lvgl/lvgl/src/draw/sw/lv_draw_sw_rect.c **** 
 386:Drivers/lvgl/lvgl/src/draw/sw/lv_draw_sw_rect.c ****                 for(; area.y1 <= coords->y2; area.y1 += header.h, area.y2 += header.h) {
 387:Drivers/lvgl/lvgl/src/draw/sw/lv_draw_sw_rect.c **** 
 388:Drivers/lvgl/lvgl/src/draw/sw/lv_draw_sw_rect.c ****                     area.x1 = coords->x1;
 389:Drivers/lvgl/lvgl/src/draw/sw/lv_draw_sw_rect.c ****                     area.x2 = area.x1 + header.w - 1;
 390:Drivers/lvgl/lvgl/src/draw/sw/lv_draw_sw_rect.c ****                     for(; area.x1 <= coords->x2; area.x1 += header.w, area.x2 += header.w) {
 391:Drivers/lvgl/lvgl/src/draw/sw/lv_draw_sw_rect.c ****                         lv_draw_img(draw_ctx, &img_dsc, &area, dsc->bg_img_src);
 392:Drivers/lvgl/lvgl/src/draw/sw/lv_draw_sw_rect.c ****                     }
 393:Drivers/lvgl/lvgl/src/draw/sw/lv_draw_sw_rect.c ****                 }
 394:Drivers/lvgl/lvgl/src/draw/sw/lv_draw_sw_rect.c ****             }
 395:Drivers/lvgl/lvgl/src/draw/sw/lv_draw_sw_rect.c ****         }
 396:Drivers/lvgl/lvgl/src/draw/sw/lv_draw_sw_rect.c ****         else {
 397:Drivers/lvgl/lvgl/src/draw/sw/lv_draw_sw_rect.c ****             LV_LOG_WARN("Couldn't read the background image");
 398:Drivers/lvgl/lvgl/src/draw/sw/lv_draw_sw_rect.c ****         }
 399:Drivers/lvgl/lvgl/src/draw/sw/lv_draw_sw_rect.c ****     }
 400:Drivers/lvgl/lvgl/src/draw/sw/lv_draw_sw_rect.c **** 
 401:Drivers/lvgl/lvgl/src/draw/sw/lv_draw_sw_rect.c ****     draw_ctx->clip_area = clip_area_ori;
 402:Drivers/lvgl/lvgl/src/draw/sw/lv_draw_sw_rect.c **** }
 403:Drivers/lvgl/lvgl/src/draw/sw/lv_draw_sw_rect.c **** 
 404:Drivers/lvgl/lvgl/src/draw/sw/lv_draw_sw_rect.c **** static void draw_border(lv_draw_ctx_t * draw_ctx, const lv_draw_rect_dsc_t * dsc, const lv_area_t *
 405:Drivers/lvgl/lvgl/src/draw/sw/lv_draw_sw_rect.c **** {
 406:Drivers/lvgl/lvgl/src/draw/sw/lv_draw_sw_rect.c ****     if(dsc->border_opa <= LV_OPA_MIN) return;
 407:Drivers/lvgl/lvgl/src/draw/sw/lv_draw_sw_rect.c ****     if(dsc->border_width == 0) return;
 408:Drivers/lvgl/lvgl/src/draw/sw/lv_draw_sw_rect.c ****     if(dsc->border_side == LV_BORDER_SIDE_NONE) return;
 409:Drivers/lvgl/lvgl/src/draw/sw/lv_draw_sw_rect.c ****     if(dsc->border_post) return;
 410:Drivers/lvgl/lvgl/src/draw/sw/lv_draw_sw_rect.c **** 
 411:Drivers/lvgl/lvgl/src/draw/sw/lv_draw_sw_rect.c ****     int32_t coords_w = lv_area_get_width(coords);
 412:Drivers/lvgl/lvgl/src/draw/sw/lv_draw_sw_rect.c ****     int32_t coords_h = lv_area_get_height(coords);
 413:Drivers/lvgl/lvgl/src/draw/sw/lv_draw_sw_rect.c ****     int32_t rout = dsc->radius;
 414:Drivers/lvgl/lvgl/src/draw/sw/lv_draw_sw_rect.c ****     int32_t short_side = LV_MIN(coords_w, coords_h);
 415:Drivers/lvgl/lvgl/src/draw/sw/lv_draw_sw_rect.c ****     if(rout > short_side >> 1) rout = short_side >> 1;
 416:Drivers/lvgl/lvgl/src/draw/sw/lv_draw_sw_rect.c **** 
 417:Drivers/lvgl/lvgl/src/draw/sw/lv_draw_sw_rect.c ****     /*Get the inner area*/
 418:Drivers/lvgl/lvgl/src/draw/sw/lv_draw_sw_rect.c ****     lv_area_t area_inner;
 419:Drivers/lvgl/lvgl/src/draw/sw/lv_draw_sw_rect.c ****     lv_area_copy(&area_inner, coords);
 420:Drivers/lvgl/lvgl/src/draw/sw/lv_draw_sw_rect.c ****     area_inner.x1 += ((dsc->border_side & LV_BORDER_SIDE_LEFT) ? dsc->border_width : - (dsc->border
 421:Drivers/lvgl/lvgl/src/draw/sw/lv_draw_sw_rect.c ****     area_inner.x2 -= ((dsc->border_side & LV_BORDER_SIDE_RIGHT) ? dsc->border_width : - (dsc->borde
 422:Drivers/lvgl/lvgl/src/draw/sw/lv_draw_sw_rect.c ****     area_inner.y1 += ((dsc->border_side & LV_BORDER_SIDE_TOP) ? dsc->border_width : - (dsc->border_
 423:Drivers/lvgl/lvgl/src/draw/sw/lv_draw_sw_rect.c ****     area_inner.y2 -= ((dsc->border_side & LV_BORDER_SIDE_BOTTOM) ? dsc->border_width : - (dsc->bord
 424:Drivers/lvgl/lvgl/src/draw/sw/lv_draw_sw_rect.c **** 
 425:Drivers/lvgl/lvgl/src/draw/sw/lv_draw_sw_rect.c ****     lv_coord_t rin = rout - dsc->border_width;
 426:Drivers/lvgl/lvgl/src/draw/sw/lv_draw_sw_rect.c ****     if(rin < 0) rin = 0;
 427:Drivers/lvgl/lvgl/src/draw/sw/lv_draw_sw_rect.c **** 
 428:Drivers/lvgl/lvgl/src/draw/sw/lv_draw_sw_rect.c ****     draw_border_generic(draw_ctx, coords, &area_inner, rout, rin, dsc->border_color, dsc->border_op
 429:Drivers/lvgl/lvgl/src/draw/sw/lv_draw_sw_rect.c **** 
 430:Drivers/lvgl/lvgl/src/draw/sw/lv_draw_sw_rect.c **** }
 431:Drivers/lvgl/lvgl/src/draw/sw/lv_draw_sw_rect.c **** 
 432:Drivers/lvgl/lvgl/src/draw/sw/lv_draw_sw_rect.c **** #if LV_DRAW_COMPLEX
ARM GAS  /tmp/ccV6ypnB.s 			page 9


 433:Drivers/lvgl/lvgl/src/draw/sw/lv_draw_sw_rect.c **** LV_ATTRIBUTE_FAST_MEM static void draw_shadow(lv_draw_ctx_t * draw_ctx, const lv_draw_rect_dsc_t * 
 434:Drivers/lvgl/lvgl/src/draw/sw/lv_draw_sw_rect.c ****                                               const lv_area_t * coords)
 435:Drivers/lvgl/lvgl/src/draw/sw/lv_draw_sw_rect.c **** {
 436:Drivers/lvgl/lvgl/src/draw/sw/lv_draw_sw_rect.c ****     /*Check whether the shadow is visible*/
 437:Drivers/lvgl/lvgl/src/draw/sw/lv_draw_sw_rect.c ****     if(dsc->shadow_width == 0) return;
 438:Drivers/lvgl/lvgl/src/draw/sw/lv_draw_sw_rect.c ****     if(dsc->shadow_opa <= LV_OPA_MIN) return;
 439:Drivers/lvgl/lvgl/src/draw/sw/lv_draw_sw_rect.c **** 
 440:Drivers/lvgl/lvgl/src/draw/sw/lv_draw_sw_rect.c ****     if(dsc->shadow_width == 1 && dsc->shadow_spread <= 0 &&
 441:Drivers/lvgl/lvgl/src/draw/sw/lv_draw_sw_rect.c ****        dsc->shadow_ofs_x == 0 && dsc->shadow_ofs_y == 0) {
 442:Drivers/lvgl/lvgl/src/draw/sw/lv_draw_sw_rect.c ****         return;
 443:Drivers/lvgl/lvgl/src/draw/sw/lv_draw_sw_rect.c ****     }
 444:Drivers/lvgl/lvgl/src/draw/sw/lv_draw_sw_rect.c **** 
 445:Drivers/lvgl/lvgl/src/draw/sw/lv_draw_sw_rect.c ****     /*Calculate the rectangle which is blurred to get the shadow in `shadow_area`*/
 446:Drivers/lvgl/lvgl/src/draw/sw/lv_draw_sw_rect.c ****     lv_area_t core_area;
 447:Drivers/lvgl/lvgl/src/draw/sw/lv_draw_sw_rect.c ****     core_area.x1 = coords->x1  + dsc->shadow_ofs_x - dsc->shadow_spread;
 448:Drivers/lvgl/lvgl/src/draw/sw/lv_draw_sw_rect.c ****     core_area.x2 = coords->x2  + dsc->shadow_ofs_x + dsc->shadow_spread;
 449:Drivers/lvgl/lvgl/src/draw/sw/lv_draw_sw_rect.c ****     core_area.y1 = coords->y1  + dsc->shadow_ofs_y - dsc->shadow_spread;
 450:Drivers/lvgl/lvgl/src/draw/sw/lv_draw_sw_rect.c ****     core_area.y2 = coords->y2  + dsc->shadow_ofs_y + dsc->shadow_spread;
 451:Drivers/lvgl/lvgl/src/draw/sw/lv_draw_sw_rect.c **** 
 452:Drivers/lvgl/lvgl/src/draw/sw/lv_draw_sw_rect.c ****     /*Calculate the bounding box of the shadow*/
 453:Drivers/lvgl/lvgl/src/draw/sw/lv_draw_sw_rect.c ****     lv_area_t shadow_area;
 454:Drivers/lvgl/lvgl/src/draw/sw/lv_draw_sw_rect.c ****     shadow_area.x1 = core_area.x1 - dsc->shadow_width / 2 - 1;
 455:Drivers/lvgl/lvgl/src/draw/sw/lv_draw_sw_rect.c ****     shadow_area.x2 = core_area.x2 + dsc->shadow_width / 2 + 1;
 456:Drivers/lvgl/lvgl/src/draw/sw/lv_draw_sw_rect.c ****     shadow_area.y1 = core_area.y1 - dsc->shadow_width / 2 - 1;
 457:Drivers/lvgl/lvgl/src/draw/sw/lv_draw_sw_rect.c ****     shadow_area.y2 = core_area.y2 + dsc->shadow_width / 2 + 1;
 458:Drivers/lvgl/lvgl/src/draw/sw/lv_draw_sw_rect.c **** 
 459:Drivers/lvgl/lvgl/src/draw/sw/lv_draw_sw_rect.c ****     lv_opa_t opa = dsc->shadow_opa;
 460:Drivers/lvgl/lvgl/src/draw/sw/lv_draw_sw_rect.c ****     if(opa > LV_OPA_MAX) opa = LV_OPA_COVER;
 461:Drivers/lvgl/lvgl/src/draw/sw/lv_draw_sw_rect.c **** 
 462:Drivers/lvgl/lvgl/src/draw/sw/lv_draw_sw_rect.c ****     /*Get clipped draw area which is the real draw area.
 463:Drivers/lvgl/lvgl/src/draw/sw/lv_draw_sw_rect.c ****      *It is always the same or inside `shadow_area`*/
 464:Drivers/lvgl/lvgl/src/draw/sw/lv_draw_sw_rect.c ****     lv_area_t draw_area;
 465:Drivers/lvgl/lvgl/src/draw/sw/lv_draw_sw_rect.c ****     if(!_lv_area_intersect(&draw_area, &shadow_area, draw_ctx->clip_area)) return;
 466:Drivers/lvgl/lvgl/src/draw/sw/lv_draw_sw_rect.c **** 
 467:Drivers/lvgl/lvgl/src/draw/sw/lv_draw_sw_rect.c ****     /*Consider 1 px smaller bg to be sure the edge will be covered by the shadow*/
 468:Drivers/lvgl/lvgl/src/draw/sw/lv_draw_sw_rect.c ****     lv_area_t bg_area;
 469:Drivers/lvgl/lvgl/src/draw/sw/lv_draw_sw_rect.c ****     lv_area_copy(&bg_area, coords);
 470:Drivers/lvgl/lvgl/src/draw/sw/lv_draw_sw_rect.c ****     lv_area_increase(&bg_area, -1, -1);
 471:Drivers/lvgl/lvgl/src/draw/sw/lv_draw_sw_rect.c **** 
 472:Drivers/lvgl/lvgl/src/draw/sw/lv_draw_sw_rect.c ****     /*Get the clamped radius*/
 473:Drivers/lvgl/lvgl/src/draw/sw/lv_draw_sw_rect.c ****     int32_t r_bg = dsc->radius;
 474:Drivers/lvgl/lvgl/src/draw/sw/lv_draw_sw_rect.c ****     lv_coord_t short_side = LV_MIN(lv_area_get_width(&bg_area), lv_area_get_height(&bg_area));
 475:Drivers/lvgl/lvgl/src/draw/sw/lv_draw_sw_rect.c ****     if(r_bg > short_side >> 1) r_bg = short_side >> 1;
 476:Drivers/lvgl/lvgl/src/draw/sw/lv_draw_sw_rect.c **** 
 477:Drivers/lvgl/lvgl/src/draw/sw/lv_draw_sw_rect.c ****     /*Get the clamped radius*/
 478:Drivers/lvgl/lvgl/src/draw/sw/lv_draw_sw_rect.c ****     int32_t r_sh = dsc->radius;
 479:Drivers/lvgl/lvgl/src/draw/sw/lv_draw_sw_rect.c ****     short_side = LV_MIN(lv_area_get_width(&core_area), lv_area_get_height(&core_area));
 480:Drivers/lvgl/lvgl/src/draw/sw/lv_draw_sw_rect.c ****     if(r_sh > short_side >> 1) r_sh = short_side >> 1;
 481:Drivers/lvgl/lvgl/src/draw/sw/lv_draw_sw_rect.c **** 
 482:Drivers/lvgl/lvgl/src/draw/sw/lv_draw_sw_rect.c **** 
 483:Drivers/lvgl/lvgl/src/draw/sw/lv_draw_sw_rect.c ****     /*Get how many pixels are affected by the blur on the corners*/
 484:Drivers/lvgl/lvgl/src/draw/sw/lv_draw_sw_rect.c ****     int32_t corner_size = dsc->shadow_width  + r_sh;
 485:Drivers/lvgl/lvgl/src/draw/sw/lv_draw_sw_rect.c **** 
 486:Drivers/lvgl/lvgl/src/draw/sw/lv_draw_sw_rect.c ****     lv_opa_t * sh_buf;
 487:Drivers/lvgl/lvgl/src/draw/sw/lv_draw_sw_rect.c **** 
 488:Drivers/lvgl/lvgl/src/draw/sw/lv_draw_sw_rect.c **** #if LV_SHADOW_CACHE_SIZE
 489:Drivers/lvgl/lvgl/src/draw/sw/lv_draw_sw_rect.c ****     if(sh_cache_size == corner_size && sh_cache_r == r_sh) {
ARM GAS  /tmp/ccV6ypnB.s 			page 10


 490:Drivers/lvgl/lvgl/src/draw/sw/lv_draw_sw_rect.c ****         /*Use the cache if available*/
 491:Drivers/lvgl/lvgl/src/draw/sw/lv_draw_sw_rect.c ****         sh_buf = lv_mem_buf_get(corner_size * corner_size);
 492:Drivers/lvgl/lvgl/src/draw/sw/lv_draw_sw_rect.c ****         lv_memcpy(sh_buf, sh_cache, corner_size * corner_size);
 493:Drivers/lvgl/lvgl/src/draw/sw/lv_draw_sw_rect.c ****     }
 494:Drivers/lvgl/lvgl/src/draw/sw/lv_draw_sw_rect.c ****     else {
 495:Drivers/lvgl/lvgl/src/draw/sw/lv_draw_sw_rect.c ****         /*A larger buffer is required for calculation*/
 496:Drivers/lvgl/lvgl/src/draw/sw/lv_draw_sw_rect.c ****         sh_buf = lv_mem_buf_get(corner_size * corner_size * sizeof(uint16_t));
 497:Drivers/lvgl/lvgl/src/draw/sw/lv_draw_sw_rect.c ****         shadow_draw_corner_buf(&core_area, (uint16_t *)sh_buf, dsc->shadow_width, r_sh);
 498:Drivers/lvgl/lvgl/src/draw/sw/lv_draw_sw_rect.c **** 
 499:Drivers/lvgl/lvgl/src/draw/sw/lv_draw_sw_rect.c ****         /*Cache the corner if it fits into the cache size*/
 500:Drivers/lvgl/lvgl/src/draw/sw/lv_draw_sw_rect.c ****         if((uint32_t)corner_size * corner_size < sizeof(sh_cache)) {
 501:Drivers/lvgl/lvgl/src/draw/sw/lv_draw_sw_rect.c ****             lv_memcpy(sh_cache, sh_buf, corner_size * corner_size);
 502:Drivers/lvgl/lvgl/src/draw/sw/lv_draw_sw_rect.c ****             sh_cache_size = corner_size;
 503:Drivers/lvgl/lvgl/src/draw/sw/lv_draw_sw_rect.c ****             sh_cache_r = r_sh;
 504:Drivers/lvgl/lvgl/src/draw/sw/lv_draw_sw_rect.c ****         }
 505:Drivers/lvgl/lvgl/src/draw/sw/lv_draw_sw_rect.c ****     }
 506:Drivers/lvgl/lvgl/src/draw/sw/lv_draw_sw_rect.c **** #else
 507:Drivers/lvgl/lvgl/src/draw/sw/lv_draw_sw_rect.c ****     sh_buf = lv_mem_buf_get(corner_size * corner_size * sizeof(uint16_t));
 508:Drivers/lvgl/lvgl/src/draw/sw/lv_draw_sw_rect.c ****     shadow_draw_corner_buf(&core_area, (uint16_t *)sh_buf, dsc->shadow_width, r_sh);
 509:Drivers/lvgl/lvgl/src/draw/sw/lv_draw_sw_rect.c **** #endif
 510:Drivers/lvgl/lvgl/src/draw/sw/lv_draw_sw_rect.c **** 
 511:Drivers/lvgl/lvgl/src/draw/sw/lv_draw_sw_rect.c ****     /*Skip a lot of masking if the background will cover the shadow that would be masked out*/
 512:Drivers/lvgl/lvgl/src/draw/sw/lv_draw_sw_rect.c ****     bool mask_any = lv_draw_mask_is_any(&shadow_area);
 513:Drivers/lvgl/lvgl/src/draw/sw/lv_draw_sw_rect.c ****     bool simple = true;
 514:Drivers/lvgl/lvgl/src/draw/sw/lv_draw_sw_rect.c ****     if(mask_any || dsc->bg_opa < LV_OPA_COVER || dsc->blend_mode != LV_BLEND_MODE_NORMAL) simple = 
 515:Drivers/lvgl/lvgl/src/draw/sw/lv_draw_sw_rect.c **** 
 516:Drivers/lvgl/lvgl/src/draw/sw/lv_draw_sw_rect.c ****     /*Create a radius mask to clip remove shadow on the bg area*/
 517:Drivers/lvgl/lvgl/src/draw/sw/lv_draw_sw_rect.c **** 
 518:Drivers/lvgl/lvgl/src/draw/sw/lv_draw_sw_rect.c ****     lv_draw_mask_radius_param_t mask_rout_param;
 519:Drivers/lvgl/lvgl/src/draw/sw/lv_draw_sw_rect.c ****     int16_t mask_rout_id = LV_MASK_ID_INV;
 520:Drivers/lvgl/lvgl/src/draw/sw/lv_draw_sw_rect.c ****     if(!simple) {
 521:Drivers/lvgl/lvgl/src/draw/sw/lv_draw_sw_rect.c ****         lv_draw_mask_radius_init(&mask_rout_param, &bg_area, r_bg, true);
 522:Drivers/lvgl/lvgl/src/draw/sw/lv_draw_sw_rect.c ****         mask_rout_id = lv_draw_mask_add(&mask_rout_param, NULL);
 523:Drivers/lvgl/lvgl/src/draw/sw/lv_draw_sw_rect.c ****     }
 524:Drivers/lvgl/lvgl/src/draw/sw/lv_draw_sw_rect.c ****     lv_opa_t * mask_buf = lv_mem_buf_get(lv_area_get_width(&shadow_area));
 525:Drivers/lvgl/lvgl/src/draw/sw/lv_draw_sw_rect.c ****     lv_area_t blend_area;
 526:Drivers/lvgl/lvgl/src/draw/sw/lv_draw_sw_rect.c ****     lv_area_t clip_area_sub;
 527:Drivers/lvgl/lvgl/src/draw/sw/lv_draw_sw_rect.c ****     lv_opa_t * sh_buf_tmp;
 528:Drivers/lvgl/lvgl/src/draw/sw/lv_draw_sw_rect.c ****     lv_coord_t y;
 529:Drivers/lvgl/lvgl/src/draw/sw/lv_draw_sw_rect.c ****     bool simple_sub;
 530:Drivers/lvgl/lvgl/src/draw/sw/lv_draw_sw_rect.c **** 
 531:Drivers/lvgl/lvgl/src/draw/sw/lv_draw_sw_rect.c ****     lv_draw_sw_blend_dsc_t blend_dsc;
 532:Drivers/lvgl/lvgl/src/draw/sw/lv_draw_sw_rect.c ****     lv_memset_00(&blend_dsc, sizeof(blend_dsc));
 533:Drivers/lvgl/lvgl/src/draw/sw/lv_draw_sw_rect.c ****     blend_dsc.blend_area = &blend_area;
 534:Drivers/lvgl/lvgl/src/draw/sw/lv_draw_sw_rect.c ****     blend_dsc.mask_area = &blend_area;
 535:Drivers/lvgl/lvgl/src/draw/sw/lv_draw_sw_rect.c ****     blend_dsc.mask_buf = mask_buf;
 536:Drivers/lvgl/lvgl/src/draw/sw/lv_draw_sw_rect.c ****     blend_dsc.color = dsc->shadow_color;
 537:Drivers/lvgl/lvgl/src/draw/sw/lv_draw_sw_rect.c ****     blend_dsc.opa = dsc->shadow_opa;
 538:Drivers/lvgl/lvgl/src/draw/sw/lv_draw_sw_rect.c ****     blend_dsc.blend_mode = dsc->blend_mode;
 539:Drivers/lvgl/lvgl/src/draw/sw/lv_draw_sw_rect.c **** 
 540:Drivers/lvgl/lvgl/src/draw/sw/lv_draw_sw_rect.c ****     lv_coord_t w_half = shadow_area.x1 + lv_area_get_width(&shadow_area) / 2;
 541:Drivers/lvgl/lvgl/src/draw/sw/lv_draw_sw_rect.c ****     lv_coord_t h_half = shadow_area.y1 + lv_area_get_height(&shadow_area) / 2;
 542:Drivers/lvgl/lvgl/src/draw/sw/lv_draw_sw_rect.c **** 
 543:Drivers/lvgl/lvgl/src/draw/sw/lv_draw_sw_rect.c ****     /*Draw the corners if they are on the current clip area and not fully covered by the bg*/
 544:Drivers/lvgl/lvgl/src/draw/sw/lv_draw_sw_rect.c **** 
 545:Drivers/lvgl/lvgl/src/draw/sw/lv_draw_sw_rect.c ****     /*Top right corner*/
 546:Drivers/lvgl/lvgl/src/draw/sw/lv_draw_sw_rect.c ****     blend_area.x2 = shadow_area.x2;
ARM GAS  /tmp/ccV6ypnB.s 			page 11


 547:Drivers/lvgl/lvgl/src/draw/sw/lv_draw_sw_rect.c ****     blend_area.x1 = shadow_area.x2 - corner_size + 1;
 548:Drivers/lvgl/lvgl/src/draw/sw/lv_draw_sw_rect.c ****     blend_area.y1 = shadow_area.y1;
 549:Drivers/lvgl/lvgl/src/draw/sw/lv_draw_sw_rect.c ****     blend_area.y2 = shadow_area.y1 + corner_size - 1;
 550:Drivers/lvgl/lvgl/src/draw/sw/lv_draw_sw_rect.c ****     /*Do not overdraw the other top corners*/
 551:Drivers/lvgl/lvgl/src/draw/sw/lv_draw_sw_rect.c ****     blend_area.x1 = LV_MAX(blend_area.x1, w_half);
 552:Drivers/lvgl/lvgl/src/draw/sw/lv_draw_sw_rect.c ****     blend_area.y2 = LV_MIN(blend_area.y2, h_half);
 553:Drivers/lvgl/lvgl/src/draw/sw/lv_draw_sw_rect.c **** 
 554:Drivers/lvgl/lvgl/src/draw/sw/lv_draw_sw_rect.c ****     if(_lv_area_intersect(&clip_area_sub, &blend_area, draw_ctx->clip_area) &&
 555:Drivers/lvgl/lvgl/src/draw/sw/lv_draw_sw_rect.c ****        !_lv_area_is_in(&clip_area_sub, &bg_area, r_bg)) {
 556:Drivers/lvgl/lvgl/src/draw/sw/lv_draw_sw_rect.c ****         lv_coord_t w = lv_area_get_width(&clip_area_sub);
 557:Drivers/lvgl/lvgl/src/draw/sw/lv_draw_sw_rect.c ****         sh_buf_tmp = sh_buf;
 558:Drivers/lvgl/lvgl/src/draw/sw/lv_draw_sw_rect.c ****         sh_buf_tmp += (clip_area_sub.y1 - shadow_area.y1) * corner_size;
 559:Drivers/lvgl/lvgl/src/draw/sw/lv_draw_sw_rect.c ****         sh_buf_tmp += clip_area_sub.x1 - (shadow_area.x2 - corner_size + 1);
 560:Drivers/lvgl/lvgl/src/draw/sw/lv_draw_sw_rect.c **** 
 561:Drivers/lvgl/lvgl/src/draw/sw/lv_draw_sw_rect.c ****         /*Do not mask if out of the bg*/
 562:Drivers/lvgl/lvgl/src/draw/sw/lv_draw_sw_rect.c ****         if(simple && _lv_area_is_out(&clip_area_sub, &bg_area, r_bg)) simple_sub = true;
 563:Drivers/lvgl/lvgl/src/draw/sw/lv_draw_sw_rect.c ****         else simple_sub = simple;
 564:Drivers/lvgl/lvgl/src/draw/sw/lv_draw_sw_rect.c ****         if(w > 0) {
 565:Drivers/lvgl/lvgl/src/draw/sw/lv_draw_sw_rect.c ****             blend_dsc.mask_buf = mask_buf;
 566:Drivers/lvgl/lvgl/src/draw/sw/lv_draw_sw_rect.c ****             blend_area.x1 = clip_area_sub.x1;
 567:Drivers/lvgl/lvgl/src/draw/sw/lv_draw_sw_rect.c ****             blend_area.x2 = clip_area_sub.x2;
 568:Drivers/lvgl/lvgl/src/draw/sw/lv_draw_sw_rect.c ****             blend_dsc.mask_res = LV_DRAW_MASK_RES_CHANGED;    /*In simple mode it won't be overwrit
 569:Drivers/lvgl/lvgl/src/draw/sw/lv_draw_sw_rect.c ****             for(y = clip_area_sub.y1; y <= clip_area_sub.y2; y++) {
 570:Drivers/lvgl/lvgl/src/draw/sw/lv_draw_sw_rect.c ****                 blend_area.y1 = y;
 571:Drivers/lvgl/lvgl/src/draw/sw/lv_draw_sw_rect.c ****                 blend_area.y2 = y;
 572:Drivers/lvgl/lvgl/src/draw/sw/lv_draw_sw_rect.c **** 
 573:Drivers/lvgl/lvgl/src/draw/sw/lv_draw_sw_rect.c ****                 if(!simple_sub) {
 574:Drivers/lvgl/lvgl/src/draw/sw/lv_draw_sw_rect.c ****                     lv_memcpy(mask_buf, sh_buf_tmp, corner_size);
 575:Drivers/lvgl/lvgl/src/draw/sw/lv_draw_sw_rect.c ****                     blend_dsc.mask_res = lv_draw_mask_apply(mask_buf, clip_area_sub.x1, y, w);
 576:Drivers/lvgl/lvgl/src/draw/sw/lv_draw_sw_rect.c ****                     if(blend_dsc.mask_res == LV_DRAW_MASK_RES_FULL_COVER) blend_dsc.mask_res = LV_D
 577:Drivers/lvgl/lvgl/src/draw/sw/lv_draw_sw_rect.c ****                 }
 578:Drivers/lvgl/lvgl/src/draw/sw/lv_draw_sw_rect.c ****                 else {
 579:Drivers/lvgl/lvgl/src/draw/sw/lv_draw_sw_rect.c ****                     blend_dsc.mask_buf = sh_buf_tmp;
 580:Drivers/lvgl/lvgl/src/draw/sw/lv_draw_sw_rect.c ****                 }
 581:Drivers/lvgl/lvgl/src/draw/sw/lv_draw_sw_rect.c ****                 lv_draw_sw_blend(draw_ctx, &blend_dsc);
 582:Drivers/lvgl/lvgl/src/draw/sw/lv_draw_sw_rect.c ****                 sh_buf_tmp += corner_size;
 583:Drivers/lvgl/lvgl/src/draw/sw/lv_draw_sw_rect.c ****             }
 584:Drivers/lvgl/lvgl/src/draw/sw/lv_draw_sw_rect.c ****         }
 585:Drivers/lvgl/lvgl/src/draw/sw/lv_draw_sw_rect.c ****     }
 586:Drivers/lvgl/lvgl/src/draw/sw/lv_draw_sw_rect.c **** 
 587:Drivers/lvgl/lvgl/src/draw/sw/lv_draw_sw_rect.c ****     /*Bottom right corner.
 588:Drivers/lvgl/lvgl/src/draw/sw/lv_draw_sw_rect.c ****      *Almost the same as top right just read the lines of `sh_buf` from then end*/
 589:Drivers/lvgl/lvgl/src/draw/sw/lv_draw_sw_rect.c ****     blend_area.x2 = shadow_area.x2;
 590:Drivers/lvgl/lvgl/src/draw/sw/lv_draw_sw_rect.c ****     blend_area.x1 = shadow_area.x2 - corner_size + 1;
 591:Drivers/lvgl/lvgl/src/draw/sw/lv_draw_sw_rect.c ****     blend_area.y1 = shadow_area.y2 - corner_size + 1;
 592:Drivers/lvgl/lvgl/src/draw/sw/lv_draw_sw_rect.c ****     blend_area.y2 = shadow_area.y2;
 593:Drivers/lvgl/lvgl/src/draw/sw/lv_draw_sw_rect.c ****     /*Do not overdraw the other corners*/
 594:Drivers/lvgl/lvgl/src/draw/sw/lv_draw_sw_rect.c ****     blend_area.x1 = LV_MAX(blend_area.x1, w_half);
 595:Drivers/lvgl/lvgl/src/draw/sw/lv_draw_sw_rect.c ****     blend_area.y1 = LV_MAX(blend_area.y1, h_half + 1);
 596:Drivers/lvgl/lvgl/src/draw/sw/lv_draw_sw_rect.c **** 
 597:Drivers/lvgl/lvgl/src/draw/sw/lv_draw_sw_rect.c ****     if(_lv_area_intersect(&clip_area_sub, &blend_area, draw_ctx->clip_area) &&
 598:Drivers/lvgl/lvgl/src/draw/sw/lv_draw_sw_rect.c ****        !_lv_area_is_in(&clip_area_sub, &bg_area, r_bg)) {
 599:Drivers/lvgl/lvgl/src/draw/sw/lv_draw_sw_rect.c ****         lv_coord_t w = lv_area_get_width(&clip_area_sub);
 600:Drivers/lvgl/lvgl/src/draw/sw/lv_draw_sw_rect.c ****         sh_buf_tmp = sh_buf;
 601:Drivers/lvgl/lvgl/src/draw/sw/lv_draw_sw_rect.c ****         sh_buf_tmp += (blend_area.y2 - clip_area_sub.y2) * corner_size;
 602:Drivers/lvgl/lvgl/src/draw/sw/lv_draw_sw_rect.c ****         sh_buf_tmp += clip_area_sub.x1 - (shadow_area.x2 - corner_size + 1);
 603:Drivers/lvgl/lvgl/src/draw/sw/lv_draw_sw_rect.c ****         /*Do not mask if out of the bg*/
ARM GAS  /tmp/ccV6ypnB.s 			page 12


 604:Drivers/lvgl/lvgl/src/draw/sw/lv_draw_sw_rect.c ****         if(simple && _lv_area_is_out(&clip_area_sub, &bg_area, r_bg)) simple_sub = true;
 605:Drivers/lvgl/lvgl/src/draw/sw/lv_draw_sw_rect.c ****         else simple_sub = simple;
 606:Drivers/lvgl/lvgl/src/draw/sw/lv_draw_sw_rect.c **** 
 607:Drivers/lvgl/lvgl/src/draw/sw/lv_draw_sw_rect.c ****         if(w > 0) {
 608:Drivers/lvgl/lvgl/src/draw/sw/lv_draw_sw_rect.c ****             blend_dsc.mask_buf = mask_buf;
 609:Drivers/lvgl/lvgl/src/draw/sw/lv_draw_sw_rect.c ****             blend_area.x1 = clip_area_sub.x1;
 610:Drivers/lvgl/lvgl/src/draw/sw/lv_draw_sw_rect.c ****             blend_area.x2 = clip_area_sub.x2;
 611:Drivers/lvgl/lvgl/src/draw/sw/lv_draw_sw_rect.c ****             blend_dsc.mask_res = LV_DRAW_MASK_RES_CHANGED;    /*In simple mode it won't be overwrit
 612:Drivers/lvgl/lvgl/src/draw/sw/lv_draw_sw_rect.c ****             for(y = clip_area_sub.y2; y >= clip_area_sub.y1; y--) {
 613:Drivers/lvgl/lvgl/src/draw/sw/lv_draw_sw_rect.c ****                 blend_area.y1 = y;
 614:Drivers/lvgl/lvgl/src/draw/sw/lv_draw_sw_rect.c ****                 blend_area.y2 = y;
 615:Drivers/lvgl/lvgl/src/draw/sw/lv_draw_sw_rect.c **** 
 616:Drivers/lvgl/lvgl/src/draw/sw/lv_draw_sw_rect.c ****                 if(!simple_sub) {
 617:Drivers/lvgl/lvgl/src/draw/sw/lv_draw_sw_rect.c ****                     lv_memcpy(mask_buf, sh_buf_tmp, corner_size);
 618:Drivers/lvgl/lvgl/src/draw/sw/lv_draw_sw_rect.c ****                     blend_dsc.mask_res = lv_draw_mask_apply(mask_buf, clip_area_sub.x1, y, w);
 619:Drivers/lvgl/lvgl/src/draw/sw/lv_draw_sw_rect.c ****                     if(blend_dsc.mask_res == LV_DRAW_MASK_RES_FULL_COVER) blend_dsc.mask_res = LV_D
 620:Drivers/lvgl/lvgl/src/draw/sw/lv_draw_sw_rect.c ****                 }
 621:Drivers/lvgl/lvgl/src/draw/sw/lv_draw_sw_rect.c ****                 else {
 622:Drivers/lvgl/lvgl/src/draw/sw/lv_draw_sw_rect.c ****                     blend_dsc.mask_buf = sh_buf_tmp;
 623:Drivers/lvgl/lvgl/src/draw/sw/lv_draw_sw_rect.c ****                 }
 624:Drivers/lvgl/lvgl/src/draw/sw/lv_draw_sw_rect.c ****                 lv_draw_sw_blend(draw_ctx, &blend_dsc);
 625:Drivers/lvgl/lvgl/src/draw/sw/lv_draw_sw_rect.c ****                 sh_buf_tmp += corner_size;
 626:Drivers/lvgl/lvgl/src/draw/sw/lv_draw_sw_rect.c ****             }
 627:Drivers/lvgl/lvgl/src/draw/sw/lv_draw_sw_rect.c ****         }
 628:Drivers/lvgl/lvgl/src/draw/sw/lv_draw_sw_rect.c ****     }
 629:Drivers/lvgl/lvgl/src/draw/sw/lv_draw_sw_rect.c **** 
 630:Drivers/lvgl/lvgl/src/draw/sw/lv_draw_sw_rect.c ****     /*Top side*/
 631:Drivers/lvgl/lvgl/src/draw/sw/lv_draw_sw_rect.c ****     blend_area.x1 = shadow_area.x1 + corner_size;
 632:Drivers/lvgl/lvgl/src/draw/sw/lv_draw_sw_rect.c ****     blend_area.x2 = shadow_area.x2 - corner_size;
 633:Drivers/lvgl/lvgl/src/draw/sw/lv_draw_sw_rect.c ****     blend_area.y1 = shadow_area.y1;
 634:Drivers/lvgl/lvgl/src/draw/sw/lv_draw_sw_rect.c ****     blend_area.y2 = shadow_area.y1 + corner_size - 1;
 635:Drivers/lvgl/lvgl/src/draw/sw/lv_draw_sw_rect.c ****     blend_area.y2 = LV_MIN(blend_area.y2, h_half);
 636:Drivers/lvgl/lvgl/src/draw/sw/lv_draw_sw_rect.c **** 
 637:Drivers/lvgl/lvgl/src/draw/sw/lv_draw_sw_rect.c ****     if(_lv_area_intersect(&clip_area_sub, &blend_area, draw_ctx->clip_area) &&
 638:Drivers/lvgl/lvgl/src/draw/sw/lv_draw_sw_rect.c ****        !_lv_area_is_in(&clip_area_sub, &bg_area, r_bg)) {
 639:Drivers/lvgl/lvgl/src/draw/sw/lv_draw_sw_rect.c ****         lv_coord_t w = lv_area_get_width(&clip_area_sub);
 640:Drivers/lvgl/lvgl/src/draw/sw/lv_draw_sw_rect.c ****         sh_buf_tmp = sh_buf;
 641:Drivers/lvgl/lvgl/src/draw/sw/lv_draw_sw_rect.c ****         sh_buf_tmp += (clip_area_sub.y1 - blend_area.y1) * corner_size;
 642:Drivers/lvgl/lvgl/src/draw/sw/lv_draw_sw_rect.c **** 
 643:Drivers/lvgl/lvgl/src/draw/sw/lv_draw_sw_rect.c ****         /*Do not mask if out of the bg*/
 644:Drivers/lvgl/lvgl/src/draw/sw/lv_draw_sw_rect.c ****         if(simple && _lv_area_is_out(&clip_area_sub, &bg_area, r_bg)) simple_sub = true;
 645:Drivers/lvgl/lvgl/src/draw/sw/lv_draw_sw_rect.c ****         else simple_sub = simple;
 646:Drivers/lvgl/lvgl/src/draw/sw/lv_draw_sw_rect.c **** 
 647:Drivers/lvgl/lvgl/src/draw/sw/lv_draw_sw_rect.c ****         if(w > 0) {
 648:Drivers/lvgl/lvgl/src/draw/sw/lv_draw_sw_rect.c ****             if(!simple_sub) {
 649:Drivers/lvgl/lvgl/src/draw/sw/lv_draw_sw_rect.c ****                 blend_dsc.mask_buf = mask_buf;
 650:Drivers/lvgl/lvgl/src/draw/sw/lv_draw_sw_rect.c ****             }
 651:Drivers/lvgl/lvgl/src/draw/sw/lv_draw_sw_rect.c ****             else {
 652:Drivers/lvgl/lvgl/src/draw/sw/lv_draw_sw_rect.c ****                 blend_dsc.mask_buf = NULL;
 653:Drivers/lvgl/lvgl/src/draw/sw/lv_draw_sw_rect.c ****             }
 654:Drivers/lvgl/lvgl/src/draw/sw/lv_draw_sw_rect.c ****             blend_area.x1 = clip_area_sub.x1;
 655:Drivers/lvgl/lvgl/src/draw/sw/lv_draw_sw_rect.c ****             blend_area.x2 = clip_area_sub.x2;
 656:Drivers/lvgl/lvgl/src/draw/sw/lv_draw_sw_rect.c **** 
 657:Drivers/lvgl/lvgl/src/draw/sw/lv_draw_sw_rect.c ****             for(y = clip_area_sub.y1; y <= clip_area_sub.y2; y++) {
 658:Drivers/lvgl/lvgl/src/draw/sw/lv_draw_sw_rect.c ****                 blend_area.y1 = y;
 659:Drivers/lvgl/lvgl/src/draw/sw/lv_draw_sw_rect.c ****                 blend_area.y2 = y;
 660:Drivers/lvgl/lvgl/src/draw/sw/lv_draw_sw_rect.c **** 
ARM GAS  /tmp/ccV6ypnB.s 			page 13


 661:Drivers/lvgl/lvgl/src/draw/sw/lv_draw_sw_rect.c ****                 if(!simple_sub) {
 662:Drivers/lvgl/lvgl/src/draw/sw/lv_draw_sw_rect.c ****                     lv_memset(mask_buf, sh_buf_tmp[0], w);
 663:Drivers/lvgl/lvgl/src/draw/sw/lv_draw_sw_rect.c ****                     blend_dsc.mask_res = lv_draw_mask_apply(mask_buf, clip_area_sub.x1, y, w);
 664:Drivers/lvgl/lvgl/src/draw/sw/lv_draw_sw_rect.c ****                     if(blend_dsc.mask_res == LV_DRAW_MASK_RES_FULL_COVER) blend_dsc.mask_res = LV_D
 665:Drivers/lvgl/lvgl/src/draw/sw/lv_draw_sw_rect.c ****                     lv_draw_sw_blend(draw_ctx, &blend_dsc);
 666:Drivers/lvgl/lvgl/src/draw/sw/lv_draw_sw_rect.c ****                 }
 667:Drivers/lvgl/lvgl/src/draw/sw/lv_draw_sw_rect.c ****                 else {
 668:Drivers/lvgl/lvgl/src/draw/sw/lv_draw_sw_rect.c ****                     blend_dsc.opa = opa == LV_OPA_COVER ? sh_buf_tmp[0] : (sh_buf_tmp[0] * dsc->sha
 669:Drivers/lvgl/lvgl/src/draw/sw/lv_draw_sw_rect.c ****                     lv_draw_sw_blend(draw_ctx, &blend_dsc);
 670:Drivers/lvgl/lvgl/src/draw/sw/lv_draw_sw_rect.c ****                 }
 671:Drivers/lvgl/lvgl/src/draw/sw/lv_draw_sw_rect.c ****                 sh_buf_tmp += corner_size;
 672:Drivers/lvgl/lvgl/src/draw/sw/lv_draw_sw_rect.c ****             }
 673:Drivers/lvgl/lvgl/src/draw/sw/lv_draw_sw_rect.c ****         }
 674:Drivers/lvgl/lvgl/src/draw/sw/lv_draw_sw_rect.c ****     }
 675:Drivers/lvgl/lvgl/src/draw/sw/lv_draw_sw_rect.c ****     blend_dsc.opa = dsc->shadow_opa;    /*Restore*/
 676:Drivers/lvgl/lvgl/src/draw/sw/lv_draw_sw_rect.c **** 
 677:Drivers/lvgl/lvgl/src/draw/sw/lv_draw_sw_rect.c ****     /*Bottom side*/
 678:Drivers/lvgl/lvgl/src/draw/sw/lv_draw_sw_rect.c ****     blend_area.x1 = shadow_area.x1 + corner_size;
 679:Drivers/lvgl/lvgl/src/draw/sw/lv_draw_sw_rect.c ****     blend_area.x2 = shadow_area.x2 - corner_size;
 680:Drivers/lvgl/lvgl/src/draw/sw/lv_draw_sw_rect.c ****     blend_area.y1 = shadow_area.y2 - corner_size + 1;
 681:Drivers/lvgl/lvgl/src/draw/sw/lv_draw_sw_rect.c ****     blend_area.y2 = shadow_area.y2;
 682:Drivers/lvgl/lvgl/src/draw/sw/lv_draw_sw_rect.c ****     blend_area.y1 = LV_MAX(blend_area.y1, h_half + 1);
 683:Drivers/lvgl/lvgl/src/draw/sw/lv_draw_sw_rect.c **** 
 684:Drivers/lvgl/lvgl/src/draw/sw/lv_draw_sw_rect.c **** 
 685:Drivers/lvgl/lvgl/src/draw/sw/lv_draw_sw_rect.c ****     if(_lv_area_intersect(&clip_area_sub, &blend_area, draw_ctx->clip_area) &&
 686:Drivers/lvgl/lvgl/src/draw/sw/lv_draw_sw_rect.c ****        !_lv_area_is_in(&clip_area_sub, &bg_area, r_bg)) {
 687:Drivers/lvgl/lvgl/src/draw/sw/lv_draw_sw_rect.c ****         lv_coord_t w = lv_area_get_width(&clip_area_sub);
 688:Drivers/lvgl/lvgl/src/draw/sw/lv_draw_sw_rect.c ****         sh_buf_tmp = sh_buf;
 689:Drivers/lvgl/lvgl/src/draw/sw/lv_draw_sw_rect.c ****         sh_buf_tmp += (blend_area.y2 - clip_area_sub.y2) * corner_size;
 690:Drivers/lvgl/lvgl/src/draw/sw/lv_draw_sw_rect.c ****         if(w > 0) {
 691:Drivers/lvgl/lvgl/src/draw/sw/lv_draw_sw_rect.c ****             /*Do not mask if out of the bg*/
 692:Drivers/lvgl/lvgl/src/draw/sw/lv_draw_sw_rect.c ****             if(simple && _lv_area_is_out(&clip_area_sub, &bg_area, r_bg)) simple_sub = true;
 693:Drivers/lvgl/lvgl/src/draw/sw/lv_draw_sw_rect.c ****             else simple_sub = simple;
 694:Drivers/lvgl/lvgl/src/draw/sw/lv_draw_sw_rect.c **** 
 695:Drivers/lvgl/lvgl/src/draw/sw/lv_draw_sw_rect.c ****             if(!simple_sub) {
 696:Drivers/lvgl/lvgl/src/draw/sw/lv_draw_sw_rect.c ****                 blend_dsc.mask_buf = mask_buf;
 697:Drivers/lvgl/lvgl/src/draw/sw/lv_draw_sw_rect.c ****             }
 698:Drivers/lvgl/lvgl/src/draw/sw/lv_draw_sw_rect.c ****             else {
 699:Drivers/lvgl/lvgl/src/draw/sw/lv_draw_sw_rect.c ****                 blend_dsc.mask_buf = NULL;
 700:Drivers/lvgl/lvgl/src/draw/sw/lv_draw_sw_rect.c ****             }
 701:Drivers/lvgl/lvgl/src/draw/sw/lv_draw_sw_rect.c ****             blend_area.x1 = clip_area_sub.x1;
 702:Drivers/lvgl/lvgl/src/draw/sw/lv_draw_sw_rect.c ****             blend_area.x2 = clip_area_sub.x2;
 703:Drivers/lvgl/lvgl/src/draw/sw/lv_draw_sw_rect.c **** 
 704:Drivers/lvgl/lvgl/src/draw/sw/lv_draw_sw_rect.c ****             for(y = clip_area_sub.y2; y >= clip_area_sub.y1; y--) {
 705:Drivers/lvgl/lvgl/src/draw/sw/lv_draw_sw_rect.c ****                 blend_area.y1 = y;
 706:Drivers/lvgl/lvgl/src/draw/sw/lv_draw_sw_rect.c ****                 blend_area.y2 = y;
 707:Drivers/lvgl/lvgl/src/draw/sw/lv_draw_sw_rect.c **** 
 708:Drivers/lvgl/lvgl/src/draw/sw/lv_draw_sw_rect.c ****                 /*Do not mask if out of the bg*/
 709:Drivers/lvgl/lvgl/src/draw/sw/lv_draw_sw_rect.c ****                 if(simple && _lv_area_is_out(&clip_area_sub, &bg_area, r_bg)) simple_sub = true;
 710:Drivers/lvgl/lvgl/src/draw/sw/lv_draw_sw_rect.c ****                 else simple_sub = simple;
 711:Drivers/lvgl/lvgl/src/draw/sw/lv_draw_sw_rect.c **** 
 712:Drivers/lvgl/lvgl/src/draw/sw/lv_draw_sw_rect.c ****                 if(!simple_sub) {
 713:Drivers/lvgl/lvgl/src/draw/sw/lv_draw_sw_rect.c ****                     lv_memset(mask_buf, sh_buf_tmp[0], w);
 714:Drivers/lvgl/lvgl/src/draw/sw/lv_draw_sw_rect.c ****                     blend_dsc.mask_res = lv_draw_mask_apply(mask_buf, clip_area_sub.x1, y, w);
 715:Drivers/lvgl/lvgl/src/draw/sw/lv_draw_sw_rect.c ****                     if(blend_dsc.mask_res == LV_DRAW_MASK_RES_FULL_COVER) blend_dsc.mask_res = LV_D
 716:Drivers/lvgl/lvgl/src/draw/sw/lv_draw_sw_rect.c ****                     lv_draw_sw_blend(draw_ctx, &blend_dsc);
 717:Drivers/lvgl/lvgl/src/draw/sw/lv_draw_sw_rect.c ****                 }
ARM GAS  /tmp/ccV6ypnB.s 			page 14


 718:Drivers/lvgl/lvgl/src/draw/sw/lv_draw_sw_rect.c ****                 else {
 719:Drivers/lvgl/lvgl/src/draw/sw/lv_draw_sw_rect.c ****                     blend_dsc.opa = opa == LV_OPA_COVER ? sh_buf_tmp[0] : (sh_buf_tmp[0] * dsc->sha
 720:Drivers/lvgl/lvgl/src/draw/sw/lv_draw_sw_rect.c ****                     lv_draw_sw_blend(draw_ctx, &blend_dsc);
 721:Drivers/lvgl/lvgl/src/draw/sw/lv_draw_sw_rect.c **** 
 722:Drivers/lvgl/lvgl/src/draw/sw/lv_draw_sw_rect.c ****                 }
 723:Drivers/lvgl/lvgl/src/draw/sw/lv_draw_sw_rect.c ****                 sh_buf_tmp += corner_size;
 724:Drivers/lvgl/lvgl/src/draw/sw/lv_draw_sw_rect.c ****             }
 725:Drivers/lvgl/lvgl/src/draw/sw/lv_draw_sw_rect.c ****         }
 726:Drivers/lvgl/lvgl/src/draw/sw/lv_draw_sw_rect.c ****     }
 727:Drivers/lvgl/lvgl/src/draw/sw/lv_draw_sw_rect.c **** 
 728:Drivers/lvgl/lvgl/src/draw/sw/lv_draw_sw_rect.c ****     blend_dsc.opa = dsc->shadow_opa;    /*Restore*/
 729:Drivers/lvgl/lvgl/src/draw/sw/lv_draw_sw_rect.c **** 
 730:Drivers/lvgl/lvgl/src/draw/sw/lv_draw_sw_rect.c ****     /*Right side*/
 731:Drivers/lvgl/lvgl/src/draw/sw/lv_draw_sw_rect.c ****     blend_area.x1 = shadow_area.x2 - corner_size + 1;
 732:Drivers/lvgl/lvgl/src/draw/sw/lv_draw_sw_rect.c ****     blend_area.x2 = shadow_area.x2;
 733:Drivers/lvgl/lvgl/src/draw/sw/lv_draw_sw_rect.c ****     blend_area.y1 = shadow_area.y1 + corner_size;
 734:Drivers/lvgl/lvgl/src/draw/sw/lv_draw_sw_rect.c ****     blend_area.y2 = shadow_area.y2 - corner_size;
 735:Drivers/lvgl/lvgl/src/draw/sw/lv_draw_sw_rect.c ****     /*Do not overdraw the other corners*/
 736:Drivers/lvgl/lvgl/src/draw/sw/lv_draw_sw_rect.c ****     blend_area.y1 = LV_MIN(blend_area.y1, h_half + 1);
 737:Drivers/lvgl/lvgl/src/draw/sw/lv_draw_sw_rect.c ****     blend_area.y2 = LV_MAX(blend_area.y2, h_half);
 738:Drivers/lvgl/lvgl/src/draw/sw/lv_draw_sw_rect.c ****     blend_area.x1 = LV_MAX(blend_area.x1, w_half);
 739:Drivers/lvgl/lvgl/src/draw/sw/lv_draw_sw_rect.c **** 
 740:Drivers/lvgl/lvgl/src/draw/sw/lv_draw_sw_rect.c ****     if(_lv_area_intersect(&clip_area_sub, &blend_area, draw_ctx->clip_area) &&
 741:Drivers/lvgl/lvgl/src/draw/sw/lv_draw_sw_rect.c ****        !_lv_area_is_in(&clip_area_sub, &bg_area, r_bg)) {
 742:Drivers/lvgl/lvgl/src/draw/sw/lv_draw_sw_rect.c ****         lv_coord_t w = lv_area_get_width(&clip_area_sub);
 743:Drivers/lvgl/lvgl/src/draw/sw/lv_draw_sw_rect.c ****         sh_buf_tmp = sh_buf;
 744:Drivers/lvgl/lvgl/src/draw/sw/lv_draw_sw_rect.c ****         sh_buf_tmp += (corner_size - 1) * corner_size;
 745:Drivers/lvgl/lvgl/src/draw/sw/lv_draw_sw_rect.c ****         sh_buf_tmp += clip_area_sub.x1 - (shadow_area.x2 - corner_size + 1);
 746:Drivers/lvgl/lvgl/src/draw/sw/lv_draw_sw_rect.c **** 
 747:Drivers/lvgl/lvgl/src/draw/sw/lv_draw_sw_rect.c ****         /*Do not mask if out of the bg*/
 748:Drivers/lvgl/lvgl/src/draw/sw/lv_draw_sw_rect.c ****         if(simple && _lv_area_is_out(&clip_area_sub, &bg_area, r_bg)) simple_sub = true;
 749:Drivers/lvgl/lvgl/src/draw/sw/lv_draw_sw_rect.c ****         else simple_sub = simple;
 750:Drivers/lvgl/lvgl/src/draw/sw/lv_draw_sw_rect.c ****         blend_dsc.mask_buf = simple_sub ? sh_buf_tmp : mask_buf;
 751:Drivers/lvgl/lvgl/src/draw/sw/lv_draw_sw_rect.c **** 
 752:Drivers/lvgl/lvgl/src/draw/sw/lv_draw_sw_rect.c ****         if(w > 0) {
 753:Drivers/lvgl/lvgl/src/draw/sw/lv_draw_sw_rect.c ****             blend_area.x1 = clip_area_sub.x1;
 754:Drivers/lvgl/lvgl/src/draw/sw/lv_draw_sw_rect.c ****             blend_area.x2 = clip_area_sub.x2;
 755:Drivers/lvgl/lvgl/src/draw/sw/lv_draw_sw_rect.c ****             blend_dsc.mask_res = LV_DRAW_MASK_RES_CHANGED;    /*In simple mode it won't be overwrit
 756:Drivers/lvgl/lvgl/src/draw/sw/lv_draw_sw_rect.c ****             for(y = clip_area_sub.y1; y <= clip_area_sub.y2; y++) {
 757:Drivers/lvgl/lvgl/src/draw/sw/lv_draw_sw_rect.c ****                 blend_area.y1 = y;
 758:Drivers/lvgl/lvgl/src/draw/sw/lv_draw_sw_rect.c ****                 blend_area.y2 = y;
 759:Drivers/lvgl/lvgl/src/draw/sw/lv_draw_sw_rect.c **** 
 760:Drivers/lvgl/lvgl/src/draw/sw/lv_draw_sw_rect.c ****                 if(!simple_sub) {
 761:Drivers/lvgl/lvgl/src/draw/sw/lv_draw_sw_rect.c ****                     lv_memcpy(mask_buf, sh_buf_tmp, w);
 762:Drivers/lvgl/lvgl/src/draw/sw/lv_draw_sw_rect.c ****                     blend_dsc.mask_res = lv_draw_mask_apply(mask_buf, clip_area_sub.x1, y, w);
 763:Drivers/lvgl/lvgl/src/draw/sw/lv_draw_sw_rect.c ****                     if(blend_dsc.mask_res == LV_DRAW_MASK_RES_FULL_COVER) blend_dsc.mask_res = LV_D
 764:Drivers/lvgl/lvgl/src/draw/sw/lv_draw_sw_rect.c ****                 }
 765:Drivers/lvgl/lvgl/src/draw/sw/lv_draw_sw_rect.c ****                 lv_draw_sw_blend(draw_ctx, &blend_dsc);
 766:Drivers/lvgl/lvgl/src/draw/sw/lv_draw_sw_rect.c ****             }
 767:Drivers/lvgl/lvgl/src/draw/sw/lv_draw_sw_rect.c ****         }
 768:Drivers/lvgl/lvgl/src/draw/sw/lv_draw_sw_rect.c ****     }
 769:Drivers/lvgl/lvgl/src/draw/sw/lv_draw_sw_rect.c **** 
 770:Drivers/lvgl/lvgl/src/draw/sw/lv_draw_sw_rect.c ****     /*Mirror the shadow corner buffer horizontally*/
 771:Drivers/lvgl/lvgl/src/draw/sw/lv_draw_sw_rect.c ****     sh_buf_tmp = sh_buf ;
 772:Drivers/lvgl/lvgl/src/draw/sw/lv_draw_sw_rect.c ****     for(y = 0; y < corner_size; y++) {
 773:Drivers/lvgl/lvgl/src/draw/sw/lv_draw_sw_rect.c ****         int32_t x;
 774:Drivers/lvgl/lvgl/src/draw/sw/lv_draw_sw_rect.c ****         lv_opa_t * start = sh_buf_tmp;
ARM GAS  /tmp/ccV6ypnB.s 			page 15


 775:Drivers/lvgl/lvgl/src/draw/sw/lv_draw_sw_rect.c ****         lv_opa_t * end = sh_buf_tmp + corner_size - 1;
 776:Drivers/lvgl/lvgl/src/draw/sw/lv_draw_sw_rect.c ****         for(x = 0; x < corner_size / 2; x++) {
 777:Drivers/lvgl/lvgl/src/draw/sw/lv_draw_sw_rect.c ****             lv_opa_t tmp = *start;
 778:Drivers/lvgl/lvgl/src/draw/sw/lv_draw_sw_rect.c ****             *start = *end;
 779:Drivers/lvgl/lvgl/src/draw/sw/lv_draw_sw_rect.c ****             *end = tmp;
 780:Drivers/lvgl/lvgl/src/draw/sw/lv_draw_sw_rect.c **** 
 781:Drivers/lvgl/lvgl/src/draw/sw/lv_draw_sw_rect.c ****             start++;
 782:Drivers/lvgl/lvgl/src/draw/sw/lv_draw_sw_rect.c ****             end--;
 783:Drivers/lvgl/lvgl/src/draw/sw/lv_draw_sw_rect.c ****         }
 784:Drivers/lvgl/lvgl/src/draw/sw/lv_draw_sw_rect.c ****         sh_buf_tmp += corner_size;
 785:Drivers/lvgl/lvgl/src/draw/sw/lv_draw_sw_rect.c ****     }
 786:Drivers/lvgl/lvgl/src/draw/sw/lv_draw_sw_rect.c **** 
 787:Drivers/lvgl/lvgl/src/draw/sw/lv_draw_sw_rect.c ****     /*Left side*/
 788:Drivers/lvgl/lvgl/src/draw/sw/lv_draw_sw_rect.c ****     blend_area.x1 = shadow_area.x1;
 789:Drivers/lvgl/lvgl/src/draw/sw/lv_draw_sw_rect.c ****     blend_area.x2 = shadow_area.x1 + corner_size - 1;
 790:Drivers/lvgl/lvgl/src/draw/sw/lv_draw_sw_rect.c ****     blend_area.y1 = shadow_area.y1 + corner_size;
 791:Drivers/lvgl/lvgl/src/draw/sw/lv_draw_sw_rect.c ****     blend_area.y2 = shadow_area.y2 - corner_size;
 792:Drivers/lvgl/lvgl/src/draw/sw/lv_draw_sw_rect.c ****     /*Do not overdraw the other corners*/
 793:Drivers/lvgl/lvgl/src/draw/sw/lv_draw_sw_rect.c ****     blend_area.y1 = LV_MIN(blend_area.y1, h_half + 1);
 794:Drivers/lvgl/lvgl/src/draw/sw/lv_draw_sw_rect.c ****     blend_area.y2 = LV_MAX(blend_area.y2, h_half);
 795:Drivers/lvgl/lvgl/src/draw/sw/lv_draw_sw_rect.c ****     blend_area.x2 = LV_MIN(blend_area.x2, w_half - 1);
 796:Drivers/lvgl/lvgl/src/draw/sw/lv_draw_sw_rect.c **** 
 797:Drivers/lvgl/lvgl/src/draw/sw/lv_draw_sw_rect.c ****     if(_lv_area_intersect(&clip_area_sub, &blend_area, draw_ctx->clip_area) &&
 798:Drivers/lvgl/lvgl/src/draw/sw/lv_draw_sw_rect.c ****        !_lv_area_is_in(&clip_area_sub, &bg_area, r_bg)) {
 799:Drivers/lvgl/lvgl/src/draw/sw/lv_draw_sw_rect.c ****         lv_coord_t w = lv_area_get_width(&clip_area_sub);
 800:Drivers/lvgl/lvgl/src/draw/sw/lv_draw_sw_rect.c ****         sh_buf_tmp = sh_buf;
 801:Drivers/lvgl/lvgl/src/draw/sw/lv_draw_sw_rect.c ****         sh_buf_tmp += (corner_size - 1) * corner_size;
 802:Drivers/lvgl/lvgl/src/draw/sw/lv_draw_sw_rect.c ****         sh_buf_tmp += clip_area_sub.x1 - blend_area.x1;
 803:Drivers/lvgl/lvgl/src/draw/sw/lv_draw_sw_rect.c **** 
 804:Drivers/lvgl/lvgl/src/draw/sw/lv_draw_sw_rect.c ****         /*Do not mask if out of the bg*/
 805:Drivers/lvgl/lvgl/src/draw/sw/lv_draw_sw_rect.c ****         if(simple && _lv_area_is_out(&clip_area_sub, &bg_area, r_bg)) simple_sub = true;
 806:Drivers/lvgl/lvgl/src/draw/sw/lv_draw_sw_rect.c ****         else simple_sub = simple;
 807:Drivers/lvgl/lvgl/src/draw/sw/lv_draw_sw_rect.c ****         blend_dsc.mask_buf = simple_sub ? sh_buf_tmp : mask_buf;
 808:Drivers/lvgl/lvgl/src/draw/sw/lv_draw_sw_rect.c ****         if(w > 0) {
 809:Drivers/lvgl/lvgl/src/draw/sw/lv_draw_sw_rect.c ****             blend_area.x1 = clip_area_sub.x1;
 810:Drivers/lvgl/lvgl/src/draw/sw/lv_draw_sw_rect.c ****             blend_area.x2 = clip_area_sub.x2;
 811:Drivers/lvgl/lvgl/src/draw/sw/lv_draw_sw_rect.c ****             blend_dsc.mask_res = LV_DRAW_MASK_RES_CHANGED;    /*In simple mode it won't be overwrit
 812:Drivers/lvgl/lvgl/src/draw/sw/lv_draw_sw_rect.c ****             for(y = clip_area_sub.y1; y <= clip_area_sub.y2; y++) {
 813:Drivers/lvgl/lvgl/src/draw/sw/lv_draw_sw_rect.c ****                 blend_area.y1 = y;
 814:Drivers/lvgl/lvgl/src/draw/sw/lv_draw_sw_rect.c ****                 blend_area.y2 = y;
 815:Drivers/lvgl/lvgl/src/draw/sw/lv_draw_sw_rect.c **** 
 816:Drivers/lvgl/lvgl/src/draw/sw/lv_draw_sw_rect.c ****                 if(!simple_sub) {
 817:Drivers/lvgl/lvgl/src/draw/sw/lv_draw_sw_rect.c ****                     lv_memcpy(mask_buf, sh_buf_tmp, w);
 818:Drivers/lvgl/lvgl/src/draw/sw/lv_draw_sw_rect.c ****                     blend_dsc.mask_res = lv_draw_mask_apply(mask_buf, clip_area_sub.x1, y, w);
 819:Drivers/lvgl/lvgl/src/draw/sw/lv_draw_sw_rect.c ****                     if(blend_dsc.mask_res == LV_DRAW_MASK_RES_FULL_COVER) blend_dsc.mask_res = LV_D
 820:Drivers/lvgl/lvgl/src/draw/sw/lv_draw_sw_rect.c ****                 }
 821:Drivers/lvgl/lvgl/src/draw/sw/lv_draw_sw_rect.c **** 
 822:Drivers/lvgl/lvgl/src/draw/sw/lv_draw_sw_rect.c ****                 lv_draw_sw_blend(draw_ctx, &blend_dsc);
 823:Drivers/lvgl/lvgl/src/draw/sw/lv_draw_sw_rect.c ****             }
 824:Drivers/lvgl/lvgl/src/draw/sw/lv_draw_sw_rect.c ****         }
 825:Drivers/lvgl/lvgl/src/draw/sw/lv_draw_sw_rect.c ****     }
 826:Drivers/lvgl/lvgl/src/draw/sw/lv_draw_sw_rect.c **** 
 827:Drivers/lvgl/lvgl/src/draw/sw/lv_draw_sw_rect.c ****     /*Top left corner*/
 828:Drivers/lvgl/lvgl/src/draw/sw/lv_draw_sw_rect.c ****     blend_area.x1 = shadow_area.x1;
 829:Drivers/lvgl/lvgl/src/draw/sw/lv_draw_sw_rect.c ****     blend_area.x2 = shadow_area.x1 + corner_size - 1;
 830:Drivers/lvgl/lvgl/src/draw/sw/lv_draw_sw_rect.c ****     blend_area.y1 = shadow_area.y1;
 831:Drivers/lvgl/lvgl/src/draw/sw/lv_draw_sw_rect.c ****     blend_area.y2 = shadow_area.y1 + corner_size - 1;
ARM GAS  /tmp/ccV6ypnB.s 			page 16


 832:Drivers/lvgl/lvgl/src/draw/sw/lv_draw_sw_rect.c ****     /*Do not overdraw the other corners*/
 833:Drivers/lvgl/lvgl/src/draw/sw/lv_draw_sw_rect.c ****     blend_area.x2 = LV_MIN(blend_area.x2, w_half - 1);
 834:Drivers/lvgl/lvgl/src/draw/sw/lv_draw_sw_rect.c ****     blend_area.y2 = LV_MIN(blend_area.y2, h_half);
 835:Drivers/lvgl/lvgl/src/draw/sw/lv_draw_sw_rect.c **** 
 836:Drivers/lvgl/lvgl/src/draw/sw/lv_draw_sw_rect.c ****     if(_lv_area_intersect(&clip_area_sub, &blend_area, draw_ctx->clip_area) &&
 837:Drivers/lvgl/lvgl/src/draw/sw/lv_draw_sw_rect.c ****        !_lv_area_is_in(&clip_area_sub, &bg_area, r_bg)) {
 838:Drivers/lvgl/lvgl/src/draw/sw/lv_draw_sw_rect.c ****         lv_coord_t w = lv_area_get_width(&clip_area_sub);
 839:Drivers/lvgl/lvgl/src/draw/sw/lv_draw_sw_rect.c ****         sh_buf_tmp = sh_buf;
 840:Drivers/lvgl/lvgl/src/draw/sw/lv_draw_sw_rect.c ****         sh_buf_tmp += (clip_area_sub.y1 - blend_area.y1) * corner_size;
 841:Drivers/lvgl/lvgl/src/draw/sw/lv_draw_sw_rect.c ****         sh_buf_tmp += clip_area_sub.x1 - blend_area.x1;
 842:Drivers/lvgl/lvgl/src/draw/sw/lv_draw_sw_rect.c **** 
 843:Drivers/lvgl/lvgl/src/draw/sw/lv_draw_sw_rect.c ****         /*Do not mask if out of the bg*/
 844:Drivers/lvgl/lvgl/src/draw/sw/lv_draw_sw_rect.c ****         if(simple && _lv_area_is_out(&clip_area_sub, &bg_area, r_bg)) simple_sub = true;
 845:Drivers/lvgl/lvgl/src/draw/sw/lv_draw_sw_rect.c ****         else simple_sub = simple;
 846:Drivers/lvgl/lvgl/src/draw/sw/lv_draw_sw_rect.c ****         blend_dsc.mask_buf = mask_buf;
 847:Drivers/lvgl/lvgl/src/draw/sw/lv_draw_sw_rect.c **** 
 848:Drivers/lvgl/lvgl/src/draw/sw/lv_draw_sw_rect.c ****         if(w > 0) {
 849:Drivers/lvgl/lvgl/src/draw/sw/lv_draw_sw_rect.c ****             blend_area.x1 = clip_area_sub.x1;
 850:Drivers/lvgl/lvgl/src/draw/sw/lv_draw_sw_rect.c ****             blend_area.x2 = clip_area_sub.x2;
 851:Drivers/lvgl/lvgl/src/draw/sw/lv_draw_sw_rect.c ****             blend_dsc.mask_res = LV_DRAW_MASK_RES_CHANGED;    /*In simple mode it won't be overwrit
 852:Drivers/lvgl/lvgl/src/draw/sw/lv_draw_sw_rect.c ****             for(y = clip_area_sub.y1; y <= clip_area_sub.y2; y++) {
 853:Drivers/lvgl/lvgl/src/draw/sw/lv_draw_sw_rect.c ****                 blend_area.y1 = y;
 854:Drivers/lvgl/lvgl/src/draw/sw/lv_draw_sw_rect.c ****                 blend_area.y2 = y;
 855:Drivers/lvgl/lvgl/src/draw/sw/lv_draw_sw_rect.c **** 
 856:Drivers/lvgl/lvgl/src/draw/sw/lv_draw_sw_rect.c ****                 if(!simple_sub) {
 857:Drivers/lvgl/lvgl/src/draw/sw/lv_draw_sw_rect.c ****                     lv_memcpy(mask_buf, sh_buf_tmp, corner_size);
 858:Drivers/lvgl/lvgl/src/draw/sw/lv_draw_sw_rect.c ****                     blend_dsc.mask_res = lv_draw_mask_apply(mask_buf, clip_area_sub.x1, y, w);
 859:Drivers/lvgl/lvgl/src/draw/sw/lv_draw_sw_rect.c ****                     if(blend_dsc.mask_res == LV_DRAW_MASK_RES_FULL_COVER) blend_dsc.mask_res = LV_D
 860:Drivers/lvgl/lvgl/src/draw/sw/lv_draw_sw_rect.c ****                 }
 861:Drivers/lvgl/lvgl/src/draw/sw/lv_draw_sw_rect.c ****                 else {
 862:Drivers/lvgl/lvgl/src/draw/sw/lv_draw_sw_rect.c ****                     blend_dsc.mask_buf = sh_buf_tmp;
 863:Drivers/lvgl/lvgl/src/draw/sw/lv_draw_sw_rect.c ****                 }
 864:Drivers/lvgl/lvgl/src/draw/sw/lv_draw_sw_rect.c **** 
 865:Drivers/lvgl/lvgl/src/draw/sw/lv_draw_sw_rect.c ****                 lv_draw_sw_blend(draw_ctx, &blend_dsc);
 866:Drivers/lvgl/lvgl/src/draw/sw/lv_draw_sw_rect.c ****                 sh_buf_tmp += corner_size;
 867:Drivers/lvgl/lvgl/src/draw/sw/lv_draw_sw_rect.c ****             }
 868:Drivers/lvgl/lvgl/src/draw/sw/lv_draw_sw_rect.c ****         }
 869:Drivers/lvgl/lvgl/src/draw/sw/lv_draw_sw_rect.c ****     }
 870:Drivers/lvgl/lvgl/src/draw/sw/lv_draw_sw_rect.c **** 
 871:Drivers/lvgl/lvgl/src/draw/sw/lv_draw_sw_rect.c ****     /*Bottom left corner.
 872:Drivers/lvgl/lvgl/src/draw/sw/lv_draw_sw_rect.c ****      *Almost the same as bottom right just read the lines of `sh_buf` from then end*/
 873:Drivers/lvgl/lvgl/src/draw/sw/lv_draw_sw_rect.c ****     blend_area.x1 = shadow_area.x1 ;
 874:Drivers/lvgl/lvgl/src/draw/sw/lv_draw_sw_rect.c ****     blend_area.x2 = shadow_area.x1 + corner_size - 1;
 875:Drivers/lvgl/lvgl/src/draw/sw/lv_draw_sw_rect.c ****     blend_area.y1 = shadow_area.y2 - corner_size + 1;
 876:Drivers/lvgl/lvgl/src/draw/sw/lv_draw_sw_rect.c ****     blend_area.y2 = shadow_area.y2;
 877:Drivers/lvgl/lvgl/src/draw/sw/lv_draw_sw_rect.c ****     /*Do not overdraw the other corners*/
 878:Drivers/lvgl/lvgl/src/draw/sw/lv_draw_sw_rect.c ****     blend_area.y1 = LV_MAX(blend_area.y1, h_half + 1);
 879:Drivers/lvgl/lvgl/src/draw/sw/lv_draw_sw_rect.c ****     blend_area.x2 = LV_MIN(blend_area.x2, w_half - 1);
 880:Drivers/lvgl/lvgl/src/draw/sw/lv_draw_sw_rect.c **** 
 881:Drivers/lvgl/lvgl/src/draw/sw/lv_draw_sw_rect.c ****     if(_lv_area_intersect(&clip_area_sub, &blend_area, draw_ctx->clip_area) &&
 882:Drivers/lvgl/lvgl/src/draw/sw/lv_draw_sw_rect.c ****        !_lv_area_is_in(&clip_area_sub, &bg_area, r_bg)) {
 883:Drivers/lvgl/lvgl/src/draw/sw/lv_draw_sw_rect.c ****         lv_coord_t w = lv_area_get_width(&clip_area_sub);
 884:Drivers/lvgl/lvgl/src/draw/sw/lv_draw_sw_rect.c ****         sh_buf_tmp = sh_buf;
 885:Drivers/lvgl/lvgl/src/draw/sw/lv_draw_sw_rect.c ****         sh_buf_tmp += (blend_area.y2 - clip_area_sub.y2) * corner_size;
 886:Drivers/lvgl/lvgl/src/draw/sw/lv_draw_sw_rect.c ****         sh_buf_tmp += clip_area_sub.x1 - blend_area.x1;
 887:Drivers/lvgl/lvgl/src/draw/sw/lv_draw_sw_rect.c **** 
 888:Drivers/lvgl/lvgl/src/draw/sw/lv_draw_sw_rect.c ****         /*Do not mask if out of the bg*/
ARM GAS  /tmp/ccV6ypnB.s 			page 17


 889:Drivers/lvgl/lvgl/src/draw/sw/lv_draw_sw_rect.c ****         if(simple && _lv_area_is_out(&clip_area_sub, &bg_area, r_bg)) simple_sub = true;
 890:Drivers/lvgl/lvgl/src/draw/sw/lv_draw_sw_rect.c ****         else simple_sub = simple;
 891:Drivers/lvgl/lvgl/src/draw/sw/lv_draw_sw_rect.c ****         blend_dsc.mask_buf = mask_buf;
 892:Drivers/lvgl/lvgl/src/draw/sw/lv_draw_sw_rect.c ****         if(w > 0) {
 893:Drivers/lvgl/lvgl/src/draw/sw/lv_draw_sw_rect.c ****             blend_area.x1 = clip_area_sub.x1;
 894:Drivers/lvgl/lvgl/src/draw/sw/lv_draw_sw_rect.c ****             blend_area.x2 = clip_area_sub.x2;
 895:Drivers/lvgl/lvgl/src/draw/sw/lv_draw_sw_rect.c ****             blend_dsc.mask_res = LV_DRAW_MASK_RES_CHANGED;    /*In simple mode it won't be overwrit
 896:Drivers/lvgl/lvgl/src/draw/sw/lv_draw_sw_rect.c ****             for(y = clip_area_sub.y2; y >= clip_area_sub.y1; y--) {
 897:Drivers/lvgl/lvgl/src/draw/sw/lv_draw_sw_rect.c ****                 blend_area.y1 = y;
 898:Drivers/lvgl/lvgl/src/draw/sw/lv_draw_sw_rect.c ****                 blend_area.y2 = y;
 899:Drivers/lvgl/lvgl/src/draw/sw/lv_draw_sw_rect.c **** 
 900:Drivers/lvgl/lvgl/src/draw/sw/lv_draw_sw_rect.c ****                 if(!simple_sub) {
 901:Drivers/lvgl/lvgl/src/draw/sw/lv_draw_sw_rect.c ****                     lv_memcpy(mask_buf, sh_buf_tmp, corner_size);
 902:Drivers/lvgl/lvgl/src/draw/sw/lv_draw_sw_rect.c ****                     blend_dsc.mask_res = lv_draw_mask_apply(mask_buf, clip_area_sub.x1, y, w);
 903:Drivers/lvgl/lvgl/src/draw/sw/lv_draw_sw_rect.c ****                     if(blend_dsc.mask_res == LV_DRAW_MASK_RES_FULL_COVER) blend_dsc.mask_res = LV_D
 904:Drivers/lvgl/lvgl/src/draw/sw/lv_draw_sw_rect.c ****                 }
 905:Drivers/lvgl/lvgl/src/draw/sw/lv_draw_sw_rect.c ****                 else {
 906:Drivers/lvgl/lvgl/src/draw/sw/lv_draw_sw_rect.c ****                     blend_dsc.mask_buf = sh_buf_tmp;
 907:Drivers/lvgl/lvgl/src/draw/sw/lv_draw_sw_rect.c ****                 }
 908:Drivers/lvgl/lvgl/src/draw/sw/lv_draw_sw_rect.c ****                 lv_draw_sw_blend(draw_ctx, &blend_dsc);
 909:Drivers/lvgl/lvgl/src/draw/sw/lv_draw_sw_rect.c ****                 sh_buf_tmp += corner_size;
 910:Drivers/lvgl/lvgl/src/draw/sw/lv_draw_sw_rect.c ****             }
 911:Drivers/lvgl/lvgl/src/draw/sw/lv_draw_sw_rect.c ****         }
 912:Drivers/lvgl/lvgl/src/draw/sw/lv_draw_sw_rect.c ****     }
 913:Drivers/lvgl/lvgl/src/draw/sw/lv_draw_sw_rect.c **** 
 914:Drivers/lvgl/lvgl/src/draw/sw/lv_draw_sw_rect.c ****     /*Draw the center rectangle.*/
 915:Drivers/lvgl/lvgl/src/draw/sw/lv_draw_sw_rect.c ****     blend_area.x1 = shadow_area.x1 + corner_size ;
 916:Drivers/lvgl/lvgl/src/draw/sw/lv_draw_sw_rect.c ****     blend_area.x2 = shadow_area.x2 - corner_size;
 917:Drivers/lvgl/lvgl/src/draw/sw/lv_draw_sw_rect.c ****     blend_area.y1 = shadow_area.y1 + corner_size;
 918:Drivers/lvgl/lvgl/src/draw/sw/lv_draw_sw_rect.c ****     blend_area.y2 = shadow_area.y2 - corner_size;
 919:Drivers/lvgl/lvgl/src/draw/sw/lv_draw_sw_rect.c ****     blend_dsc.mask_buf = mask_buf;
 920:Drivers/lvgl/lvgl/src/draw/sw/lv_draw_sw_rect.c **** 
 921:Drivers/lvgl/lvgl/src/draw/sw/lv_draw_sw_rect.c ****     if(_lv_area_intersect(&clip_area_sub, &blend_area, draw_ctx->clip_area) &&
 922:Drivers/lvgl/lvgl/src/draw/sw/lv_draw_sw_rect.c ****        !_lv_area_is_in(&clip_area_sub, &bg_area, r_bg)) {
 923:Drivers/lvgl/lvgl/src/draw/sw/lv_draw_sw_rect.c ****         lv_coord_t w = lv_area_get_width(&clip_area_sub);
 924:Drivers/lvgl/lvgl/src/draw/sw/lv_draw_sw_rect.c ****         if(w > 0) {
 925:Drivers/lvgl/lvgl/src/draw/sw/lv_draw_sw_rect.c ****             blend_area.x1 = clip_area_sub.x1;
 926:Drivers/lvgl/lvgl/src/draw/sw/lv_draw_sw_rect.c ****             blend_area.x2 = clip_area_sub.x2;
 927:Drivers/lvgl/lvgl/src/draw/sw/lv_draw_sw_rect.c ****             for(y = clip_area_sub.y1; y <= clip_area_sub.y2; y++) {
 928:Drivers/lvgl/lvgl/src/draw/sw/lv_draw_sw_rect.c ****                 blend_area.y1 = y;
 929:Drivers/lvgl/lvgl/src/draw/sw/lv_draw_sw_rect.c ****                 blend_area.y2 = y;
 930:Drivers/lvgl/lvgl/src/draw/sw/lv_draw_sw_rect.c **** 
 931:Drivers/lvgl/lvgl/src/draw/sw/lv_draw_sw_rect.c ****                 lv_memset_ff(mask_buf, w);
 932:Drivers/lvgl/lvgl/src/draw/sw/lv_draw_sw_rect.c ****                 blend_dsc.mask_res = lv_draw_mask_apply(mask_buf, clip_area_sub.x1, y, w);
 933:Drivers/lvgl/lvgl/src/draw/sw/lv_draw_sw_rect.c ****                 lv_draw_sw_blend(draw_ctx, &blend_dsc);
 934:Drivers/lvgl/lvgl/src/draw/sw/lv_draw_sw_rect.c ****             }
 935:Drivers/lvgl/lvgl/src/draw/sw/lv_draw_sw_rect.c ****         }
 936:Drivers/lvgl/lvgl/src/draw/sw/lv_draw_sw_rect.c ****     }
 937:Drivers/lvgl/lvgl/src/draw/sw/lv_draw_sw_rect.c **** 
 938:Drivers/lvgl/lvgl/src/draw/sw/lv_draw_sw_rect.c ****     if(!simple) {
 939:Drivers/lvgl/lvgl/src/draw/sw/lv_draw_sw_rect.c ****         lv_draw_mask_free_param(&mask_rout_param);
 940:Drivers/lvgl/lvgl/src/draw/sw/lv_draw_sw_rect.c ****         lv_draw_mask_remove_id(mask_rout_id);
 941:Drivers/lvgl/lvgl/src/draw/sw/lv_draw_sw_rect.c ****     }
 942:Drivers/lvgl/lvgl/src/draw/sw/lv_draw_sw_rect.c ****     lv_mem_buf_release(sh_buf);
 943:Drivers/lvgl/lvgl/src/draw/sw/lv_draw_sw_rect.c ****     lv_mem_buf_release(mask_buf);
 944:Drivers/lvgl/lvgl/src/draw/sw/lv_draw_sw_rect.c **** }
 945:Drivers/lvgl/lvgl/src/draw/sw/lv_draw_sw_rect.c **** 
ARM GAS  /tmp/ccV6ypnB.s 			page 18


 946:Drivers/lvgl/lvgl/src/draw/sw/lv_draw_sw_rect.c **** /**
 947:Drivers/lvgl/lvgl/src/draw/sw/lv_draw_sw_rect.c ****  * Calculate a blurred corner
 948:Drivers/lvgl/lvgl/src/draw/sw/lv_draw_sw_rect.c ****  * @param coords Coordinates of the shadow
 949:Drivers/lvgl/lvgl/src/draw/sw/lv_draw_sw_rect.c ****  * @param sh_buf a buffer to store the result. Its size should be `(sw + r)^2 * 2`
 950:Drivers/lvgl/lvgl/src/draw/sw/lv_draw_sw_rect.c ****  * @param sw shadow width
 951:Drivers/lvgl/lvgl/src/draw/sw/lv_draw_sw_rect.c ****  * @param r radius
 952:Drivers/lvgl/lvgl/src/draw/sw/lv_draw_sw_rect.c ****  */
 953:Drivers/lvgl/lvgl/src/draw/sw/lv_draw_sw_rect.c **** LV_ATTRIBUTE_FAST_MEM static void shadow_draw_corner_buf(const lv_area_t * coords, uint16_t * sh_bu
 954:Drivers/lvgl/lvgl/src/draw/sw/lv_draw_sw_rect.c ****                                                          lv_coord_t r)
 955:Drivers/lvgl/lvgl/src/draw/sw/lv_draw_sw_rect.c **** {
 956:Drivers/lvgl/lvgl/src/draw/sw/lv_draw_sw_rect.c ****     int32_t sw_ori = sw;
 957:Drivers/lvgl/lvgl/src/draw/sw/lv_draw_sw_rect.c ****     int32_t size = sw_ori  + r;
 958:Drivers/lvgl/lvgl/src/draw/sw/lv_draw_sw_rect.c **** 
 959:Drivers/lvgl/lvgl/src/draw/sw/lv_draw_sw_rect.c ****     lv_area_t sh_area;
 960:Drivers/lvgl/lvgl/src/draw/sw/lv_draw_sw_rect.c ****     lv_area_copy(&sh_area, coords);
 961:Drivers/lvgl/lvgl/src/draw/sw/lv_draw_sw_rect.c ****     sh_area.x2 = sw / 2 + r - 1  - ((sw & 1) ? 0 : 1);
 962:Drivers/lvgl/lvgl/src/draw/sw/lv_draw_sw_rect.c ****     sh_area.y1 = sw / 2 + 1;
 963:Drivers/lvgl/lvgl/src/draw/sw/lv_draw_sw_rect.c **** 
 964:Drivers/lvgl/lvgl/src/draw/sw/lv_draw_sw_rect.c ****     sh_area.x1 = sh_area.x2 - lv_area_get_width(coords);
 965:Drivers/lvgl/lvgl/src/draw/sw/lv_draw_sw_rect.c ****     sh_area.y2 = sh_area.y1 + lv_area_get_height(coords);
 966:Drivers/lvgl/lvgl/src/draw/sw/lv_draw_sw_rect.c **** 
 967:Drivers/lvgl/lvgl/src/draw/sw/lv_draw_sw_rect.c ****     lv_draw_mask_radius_param_t mask_param;
 968:Drivers/lvgl/lvgl/src/draw/sw/lv_draw_sw_rect.c ****     lv_draw_mask_radius_init(&mask_param, &sh_area, r, false);
 969:Drivers/lvgl/lvgl/src/draw/sw/lv_draw_sw_rect.c **** 
 970:Drivers/lvgl/lvgl/src/draw/sw/lv_draw_sw_rect.c **** #if SHADOW_ENHANCE
 971:Drivers/lvgl/lvgl/src/draw/sw/lv_draw_sw_rect.c ****     /*Set half shadow width width because blur will be repeated*/
 972:Drivers/lvgl/lvgl/src/draw/sw/lv_draw_sw_rect.c ****     if(sw_ori == 1) sw = 1;
 973:Drivers/lvgl/lvgl/src/draw/sw/lv_draw_sw_rect.c ****     else sw = sw_ori >> 1;
 974:Drivers/lvgl/lvgl/src/draw/sw/lv_draw_sw_rect.c **** #endif
 975:Drivers/lvgl/lvgl/src/draw/sw/lv_draw_sw_rect.c **** 
 976:Drivers/lvgl/lvgl/src/draw/sw/lv_draw_sw_rect.c ****     int32_t y;
 977:Drivers/lvgl/lvgl/src/draw/sw/lv_draw_sw_rect.c ****     lv_opa_t * mask_line = lv_mem_buf_get(size);
 978:Drivers/lvgl/lvgl/src/draw/sw/lv_draw_sw_rect.c ****     uint16_t * sh_ups_tmp_buf = (uint16_t *)sh_buf;
 979:Drivers/lvgl/lvgl/src/draw/sw/lv_draw_sw_rect.c ****     for(y = 0; y < size; y++) {
 980:Drivers/lvgl/lvgl/src/draw/sw/lv_draw_sw_rect.c ****         lv_memset_ff(mask_line, size);
 981:Drivers/lvgl/lvgl/src/draw/sw/lv_draw_sw_rect.c ****         lv_draw_mask_res_t mask_res = mask_param.dsc.cb(mask_line, 0, y, size, &mask_param);
 982:Drivers/lvgl/lvgl/src/draw/sw/lv_draw_sw_rect.c ****         if(mask_res == LV_DRAW_MASK_RES_TRANSP) {
 983:Drivers/lvgl/lvgl/src/draw/sw/lv_draw_sw_rect.c ****             lv_memset_00(sh_ups_tmp_buf, size * sizeof(sh_ups_tmp_buf[0]));
 984:Drivers/lvgl/lvgl/src/draw/sw/lv_draw_sw_rect.c ****         }
 985:Drivers/lvgl/lvgl/src/draw/sw/lv_draw_sw_rect.c ****         else {
 986:Drivers/lvgl/lvgl/src/draw/sw/lv_draw_sw_rect.c ****             int32_t i;
 987:Drivers/lvgl/lvgl/src/draw/sw/lv_draw_sw_rect.c ****             sh_ups_tmp_buf[0] = (mask_line[0] << SHADOW_UPSCALE_SHIFT) / sw;
 988:Drivers/lvgl/lvgl/src/draw/sw/lv_draw_sw_rect.c ****             for(i = 1; i < size; i++) {
 989:Drivers/lvgl/lvgl/src/draw/sw/lv_draw_sw_rect.c ****                 if(mask_line[i] == mask_line[i - 1]) sh_ups_tmp_buf[i] = sh_ups_tmp_buf[i - 1];
 990:Drivers/lvgl/lvgl/src/draw/sw/lv_draw_sw_rect.c ****                 else  sh_ups_tmp_buf[i] = (mask_line[i] << SHADOW_UPSCALE_SHIFT) / sw;
 991:Drivers/lvgl/lvgl/src/draw/sw/lv_draw_sw_rect.c ****             }
 992:Drivers/lvgl/lvgl/src/draw/sw/lv_draw_sw_rect.c ****         }
 993:Drivers/lvgl/lvgl/src/draw/sw/lv_draw_sw_rect.c **** 
 994:Drivers/lvgl/lvgl/src/draw/sw/lv_draw_sw_rect.c ****         sh_ups_tmp_buf += size;
 995:Drivers/lvgl/lvgl/src/draw/sw/lv_draw_sw_rect.c ****     }
 996:Drivers/lvgl/lvgl/src/draw/sw/lv_draw_sw_rect.c ****     lv_mem_buf_release(mask_line);
 997:Drivers/lvgl/lvgl/src/draw/sw/lv_draw_sw_rect.c **** 
 998:Drivers/lvgl/lvgl/src/draw/sw/lv_draw_sw_rect.c ****     lv_draw_mask_free_param(&mask_param);
 999:Drivers/lvgl/lvgl/src/draw/sw/lv_draw_sw_rect.c **** 
1000:Drivers/lvgl/lvgl/src/draw/sw/lv_draw_sw_rect.c ****     if(sw == 1) {
1001:Drivers/lvgl/lvgl/src/draw/sw/lv_draw_sw_rect.c ****         int32_t i;
1002:Drivers/lvgl/lvgl/src/draw/sw/lv_draw_sw_rect.c ****         lv_opa_t * res_buf = (lv_opa_t *)sh_buf;
ARM GAS  /tmp/ccV6ypnB.s 			page 19


1003:Drivers/lvgl/lvgl/src/draw/sw/lv_draw_sw_rect.c ****         for(i = 0; i < size * size; i++) {
1004:Drivers/lvgl/lvgl/src/draw/sw/lv_draw_sw_rect.c ****             res_buf[i] = (sh_buf[i] >> SHADOW_UPSCALE_SHIFT);
1005:Drivers/lvgl/lvgl/src/draw/sw/lv_draw_sw_rect.c ****         }
1006:Drivers/lvgl/lvgl/src/draw/sw/lv_draw_sw_rect.c ****         return;
1007:Drivers/lvgl/lvgl/src/draw/sw/lv_draw_sw_rect.c ****     }
1008:Drivers/lvgl/lvgl/src/draw/sw/lv_draw_sw_rect.c **** 
1009:Drivers/lvgl/lvgl/src/draw/sw/lv_draw_sw_rect.c ****     shadow_blur_corner(size, sw, sh_buf);
1010:Drivers/lvgl/lvgl/src/draw/sw/lv_draw_sw_rect.c **** 
1011:Drivers/lvgl/lvgl/src/draw/sw/lv_draw_sw_rect.c **** #if SHADOW_ENHANCE == 0
1012:Drivers/lvgl/lvgl/src/draw/sw/lv_draw_sw_rect.c ****     /*The result is required in lv_opa_t not uint16_t*/
1013:Drivers/lvgl/lvgl/src/draw/sw/lv_draw_sw_rect.c ****     uint32_t x;
1014:Drivers/lvgl/lvgl/src/draw/sw/lv_draw_sw_rect.c ****     lv_opa_t * res_buf = (lv_opa_t *)sh_buf;
1015:Drivers/lvgl/lvgl/src/draw/sw/lv_draw_sw_rect.c ****     for(x = 0; x < size * size; x++) {
1016:Drivers/lvgl/lvgl/src/draw/sw/lv_draw_sw_rect.c ****         res_buf[x] = sh_buf[x];
1017:Drivers/lvgl/lvgl/src/draw/sw/lv_draw_sw_rect.c ****     }
1018:Drivers/lvgl/lvgl/src/draw/sw/lv_draw_sw_rect.c **** #else
1019:Drivers/lvgl/lvgl/src/draw/sw/lv_draw_sw_rect.c ****     sw += sw_ori & 1;
1020:Drivers/lvgl/lvgl/src/draw/sw/lv_draw_sw_rect.c ****     if(sw > 1) {
1021:Drivers/lvgl/lvgl/src/draw/sw/lv_draw_sw_rect.c ****         uint32_t i;
1022:Drivers/lvgl/lvgl/src/draw/sw/lv_draw_sw_rect.c ****         uint32_t max_v_div = (LV_OPA_COVER << SHADOW_UPSCALE_SHIFT) / sw;
1023:Drivers/lvgl/lvgl/src/draw/sw/lv_draw_sw_rect.c ****         for(i = 0; i < (uint32_t)size * size; i++) {
1024:Drivers/lvgl/lvgl/src/draw/sw/lv_draw_sw_rect.c ****             if(sh_buf[i] == 0) continue;
1025:Drivers/lvgl/lvgl/src/draw/sw/lv_draw_sw_rect.c ****             else if(sh_buf[i] == LV_OPA_COVER) sh_buf[i] = max_v_div;
1026:Drivers/lvgl/lvgl/src/draw/sw/lv_draw_sw_rect.c ****             else  sh_buf[i] = (sh_buf[i] << SHADOW_UPSCALE_SHIFT) / sw;
1027:Drivers/lvgl/lvgl/src/draw/sw/lv_draw_sw_rect.c ****         }
1028:Drivers/lvgl/lvgl/src/draw/sw/lv_draw_sw_rect.c **** 
1029:Drivers/lvgl/lvgl/src/draw/sw/lv_draw_sw_rect.c ****         shadow_blur_corner(size, sw, sh_buf);
1030:Drivers/lvgl/lvgl/src/draw/sw/lv_draw_sw_rect.c ****     }
1031:Drivers/lvgl/lvgl/src/draw/sw/lv_draw_sw_rect.c ****     int32_t x;
1032:Drivers/lvgl/lvgl/src/draw/sw/lv_draw_sw_rect.c ****     lv_opa_t * res_buf = (lv_opa_t *)sh_buf;
1033:Drivers/lvgl/lvgl/src/draw/sw/lv_draw_sw_rect.c ****     for(x = 0; x < size * size; x++) {
1034:Drivers/lvgl/lvgl/src/draw/sw/lv_draw_sw_rect.c ****         res_buf[x] = sh_buf[x];
1035:Drivers/lvgl/lvgl/src/draw/sw/lv_draw_sw_rect.c ****     }
1036:Drivers/lvgl/lvgl/src/draw/sw/lv_draw_sw_rect.c **** #endif
1037:Drivers/lvgl/lvgl/src/draw/sw/lv_draw_sw_rect.c **** 
1038:Drivers/lvgl/lvgl/src/draw/sw/lv_draw_sw_rect.c **** }
1039:Drivers/lvgl/lvgl/src/draw/sw/lv_draw_sw_rect.c **** 
1040:Drivers/lvgl/lvgl/src/draw/sw/lv_draw_sw_rect.c **** LV_ATTRIBUTE_FAST_MEM static void shadow_blur_corner(lv_coord_t size, lv_coord_t sw, uint16_t * sh_
1041:Drivers/lvgl/lvgl/src/draw/sw/lv_draw_sw_rect.c **** {
1042:Drivers/lvgl/lvgl/src/draw/sw/lv_draw_sw_rect.c ****     int32_t s_left = sw >> 1;
1043:Drivers/lvgl/lvgl/src/draw/sw/lv_draw_sw_rect.c ****     int32_t s_right = (sw >> 1);
1044:Drivers/lvgl/lvgl/src/draw/sw/lv_draw_sw_rect.c ****     if((sw & 1) == 0) s_left--;
1045:Drivers/lvgl/lvgl/src/draw/sw/lv_draw_sw_rect.c **** 
1046:Drivers/lvgl/lvgl/src/draw/sw/lv_draw_sw_rect.c ****     /*Horizontal blur*/
1047:Drivers/lvgl/lvgl/src/draw/sw/lv_draw_sw_rect.c ****     uint16_t * sh_ups_blur_buf = lv_mem_buf_get(size * sizeof(uint16_t));
1048:Drivers/lvgl/lvgl/src/draw/sw/lv_draw_sw_rect.c **** 
1049:Drivers/lvgl/lvgl/src/draw/sw/lv_draw_sw_rect.c ****     int32_t x;
1050:Drivers/lvgl/lvgl/src/draw/sw/lv_draw_sw_rect.c ****     int32_t y;
1051:Drivers/lvgl/lvgl/src/draw/sw/lv_draw_sw_rect.c **** 
1052:Drivers/lvgl/lvgl/src/draw/sw/lv_draw_sw_rect.c ****     uint16_t * sh_ups_tmp_buf = sh_ups_buf;
1053:Drivers/lvgl/lvgl/src/draw/sw/lv_draw_sw_rect.c **** 
1054:Drivers/lvgl/lvgl/src/draw/sw/lv_draw_sw_rect.c ****     for(y = 0; y < size; y++) {
1055:Drivers/lvgl/lvgl/src/draw/sw/lv_draw_sw_rect.c ****         int32_t v = sh_ups_tmp_buf[size - 1] * sw;
1056:Drivers/lvgl/lvgl/src/draw/sw/lv_draw_sw_rect.c ****         for(x = size - 1; x >= 0; x--) {
1057:Drivers/lvgl/lvgl/src/draw/sw/lv_draw_sw_rect.c ****             sh_ups_blur_buf[x] = v;
1058:Drivers/lvgl/lvgl/src/draw/sw/lv_draw_sw_rect.c **** 
1059:Drivers/lvgl/lvgl/src/draw/sw/lv_draw_sw_rect.c ****             /*Forget the right pixel*/
ARM GAS  /tmp/ccV6ypnB.s 			page 20


1060:Drivers/lvgl/lvgl/src/draw/sw/lv_draw_sw_rect.c ****             uint32_t right_val = 0;
1061:Drivers/lvgl/lvgl/src/draw/sw/lv_draw_sw_rect.c ****             if(x + s_right < size) right_val = sh_ups_tmp_buf[x + s_right];
1062:Drivers/lvgl/lvgl/src/draw/sw/lv_draw_sw_rect.c ****             v -= right_val;
1063:Drivers/lvgl/lvgl/src/draw/sw/lv_draw_sw_rect.c **** 
1064:Drivers/lvgl/lvgl/src/draw/sw/lv_draw_sw_rect.c ****             /*Add the left pixel*/
1065:Drivers/lvgl/lvgl/src/draw/sw/lv_draw_sw_rect.c ****             uint32_t left_val;
1066:Drivers/lvgl/lvgl/src/draw/sw/lv_draw_sw_rect.c ****             if(x - s_left - 1 < 0) left_val = sh_ups_tmp_buf[0];
1067:Drivers/lvgl/lvgl/src/draw/sw/lv_draw_sw_rect.c ****             else left_val = sh_ups_tmp_buf[x - s_left - 1];
1068:Drivers/lvgl/lvgl/src/draw/sw/lv_draw_sw_rect.c ****             v += left_val;
1069:Drivers/lvgl/lvgl/src/draw/sw/lv_draw_sw_rect.c ****         }
1070:Drivers/lvgl/lvgl/src/draw/sw/lv_draw_sw_rect.c ****         lv_memcpy(sh_ups_tmp_buf, sh_ups_blur_buf, size * sizeof(uint16_t));
1071:Drivers/lvgl/lvgl/src/draw/sw/lv_draw_sw_rect.c ****         sh_ups_tmp_buf += size;
1072:Drivers/lvgl/lvgl/src/draw/sw/lv_draw_sw_rect.c ****     }
1073:Drivers/lvgl/lvgl/src/draw/sw/lv_draw_sw_rect.c **** 
1074:Drivers/lvgl/lvgl/src/draw/sw/lv_draw_sw_rect.c ****     /*Vertical blur*/
1075:Drivers/lvgl/lvgl/src/draw/sw/lv_draw_sw_rect.c ****     uint32_t i;
1076:Drivers/lvgl/lvgl/src/draw/sw/lv_draw_sw_rect.c ****     uint32_t max_v = LV_OPA_COVER << SHADOW_UPSCALE_SHIFT;
1077:Drivers/lvgl/lvgl/src/draw/sw/lv_draw_sw_rect.c ****     uint32_t max_v_div = max_v / sw;
1078:Drivers/lvgl/lvgl/src/draw/sw/lv_draw_sw_rect.c ****     for(i = 0; i < (uint32_t)size * size; i++) {
1079:Drivers/lvgl/lvgl/src/draw/sw/lv_draw_sw_rect.c ****         if(sh_ups_buf[i] == 0) continue;
1080:Drivers/lvgl/lvgl/src/draw/sw/lv_draw_sw_rect.c ****         else if(sh_ups_buf[i] == max_v) sh_ups_buf[i] = max_v_div;
1081:Drivers/lvgl/lvgl/src/draw/sw/lv_draw_sw_rect.c ****         else sh_ups_buf[i] = sh_ups_buf[i] / sw;
1082:Drivers/lvgl/lvgl/src/draw/sw/lv_draw_sw_rect.c ****     }
1083:Drivers/lvgl/lvgl/src/draw/sw/lv_draw_sw_rect.c **** 
1084:Drivers/lvgl/lvgl/src/draw/sw/lv_draw_sw_rect.c ****     for(x = 0; x < size; x++) {
1085:Drivers/lvgl/lvgl/src/draw/sw/lv_draw_sw_rect.c ****         sh_ups_tmp_buf = &sh_ups_buf[x];
1086:Drivers/lvgl/lvgl/src/draw/sw/lv_draw_sw_rect.c ****         int32_t v = sh_ups_tmp_buf[0] * sw;
1087:Drivers/lvgl/lvgl/src/draw/sw/lv_draw_sw_rect.c ****         for(y = 0; y < size ; y++, sh_ups_tmp_buf += size) {
1088:Drivers/lvgl/lvgl/src/draw/sw/lv_draw_sw_rect.c ****             sh_ups_blur_buf[y] = v < 0 ? 0 : (v >> SHADOW_UPSCALE_SHIFT);
1089:Drivers/lvgl/lvgl/src/draw/sw/lv_draw_sw_rect.c **** 
1090:Drivers/lvgl/lvgl/src/draw/sw/lv_draw_sw_rect.c ****             /*Forget the top pixel*/
1091:Drivers/lvgl/lvgl/src/draw/sw/lv_draw_sw_rect.c ****             uint32_t top_val;
1092:Drivers/lvgl/lvgl/src/draw/sw/lv_draw_sw_rect.c ****             if(y - s_right <= 0) top_val = sh_ups_tmp_buf[0];
1093:Drivers/lvgl/lvgl/src/draw/sw/lv_draw_sw_rect.c ****             else top_val = sh_ups_buf[(y - s_right) * size + x];
1094:Drivers/lvgl/lvgl/src/draw/sw/lv_draw_sw_rect.c ****             v -= top_val;
1095:Drivers/lvgl/lvgl/src/draw/sw/lv_draw_sw_rect.c **** 
1096:Drivers/lvgl/lvgl/src/draw/sw/lv_draw_sw_rect.c ****             /*Add the bottom pixel*/
1097:Drivers/lvgl/lvgl/src/draw/sw/lv_draw_sw_rect.c ****             uint32_t bottom_val;
1098:Drivers/lvgl/lvgl/src/draw/sw/lv_draw_sw_rect.c ****             if(y + s_left + 1 < size) bottom_val = sh_ups_buf[(y + s_left + 1) * size + x];
1099:Drivers/lvgl/lvgl/src/draw/sw/lv_draw_sw_rect.c ****             else bottom_val = sh_ups_buf[(size - 1) * size + x];
1100:Drivers/lvgl/lvgl/src/draw/sw/lv_draw_sw_rect.c ****             v += bottom_val;
1101:Drivers/lvgl/lvgl/src/draw/sw/lv_draw_sw_rect.c ****         }
1102:Drivers/lvgl/lvgl/src/draw/sw/lv_draw_sw_rect.c **** 
1103:Drivers/lvgl/lvgl/src/draw/sw/lv_draw_sw_rect.c ****         /*Write back the result into `sh_ups_buf`*/
1104:Drivers/lvgl/lvgl/src/draw/sw/lv_draw_sw_rect.c ****         sh_ups_tmp_buf = &sh_ups_buf[x];
1105:Drivers/lvgl/lvgl/src/draw/sw/lv_draw_sw_rect.c ****         for(y = 0; y < size; y++, sh_ups_tmp_buf += size) {
1106:Drivers/lvgl/lvgl/src/draw/sw/lv_draw_sw_rect.c ****             (*sh_ups_tmp_buf) = sh_ups_blur_buf[y];
1107:Drivers/lvgl/lvgl/src/draw/sw/lv_draw_sw_rect.c ****         }
1108:Drivers/lvgl/lvgl/src/draw/sw/lv_draw_sw_rect.c ****     }
1109:Drivers/lvgl/lvgl/src/draw/sw/lv_draw_sw_rect.c **** 
1110:Drivers/lvgl/lvgl/src/draw/sw/lv_draw_sw_rect.c ****     lv_mem_buf_release(sh_ups_blur_buf);
1111:Drivers/lvgl/lvgl/src/draw/sw/lv_draw_sw_rect.c **** }
1112:Drivers/lvgl/lvgl/src/draw/sw/lv_draw_sw_rect.c **** #endif
1113:Drivers/lvgl/lvgl/src/draw/sw/lv_draw_sw_rect.c **** 
1114:Drivers/lvgl/lvgl/src/draw/sw/lv_draw_sw_rect.c **** static void draw_outline(lv_draw_ctx_t * draw_ctx, const lv_draw_rect_dsc_t * dsc, const lv_area_t 
1115:Drivers/lvgl/lvgl/src/draw/sw/lv_draw_sw_rect.c **** {
1116:Drivers/lvgl/lvgl/src/draw/sw/lv_draw_sw_rect.c ****     if(dsc->outline_opa <= LV_OPA_MIN) return;
ARM GAS  /tmp/ccV6ypnB.s 			page 21


1117:Drivers/lvgl/lvgl/src/draw/sw/lv_draw_sw_rect.c ****     if(dsc->outline_width == 0) return;
1118:Drivers/lvgl/lvgl/src/draw/sw/lv_draw_sw_rect.c **** 
1119:Drivers/lvgl/lvgl/src/draw/sw/lv_draw_sw_rect.c ****     lv_opa_t opa = dsc->outline_opa;
1120:Drivers/lvgl/lvgl/src/draw/sw/lv_draw_sw_rect.c **** 
1121:Drivers/lvgl/lvgl/src/draw/sw/lv_draw_sw_rect.c ****     if(opa > LV_OPA_MAX) opa = LV_OPA_COVER;
1122:Drivers/lvgl/lvgl/src/draw/sw/lv_draw_sw_rect.c **** 
1123:Drivers/lvgl/lvgl/src/draw/sw/lv_draw_sw_rect.c ****     /*Get the inner radius*/
1124:Drivers/lvgl/lvgl/src/draw/sw/lv_draw_sw_rect.c ****     lv_area_t area_inner;
1125:Drivers/lvgl/lvgl/src/draw/sw/lv_draw_sw_rect.c ****     lv_area_copy(&area_inner, coords);
1126:Drivers/lvgl/lvgl/src/draw/sw/lv_draw_sw_rect.c **** 
1127:Drivers/lvgl/lvgl/src/draw/sw/lv_draw_sw_rect.c ****     /*Bring the outline closer to make sure there is no color bleeding with pad=0*/
1128:Drivers/lvgl/lvgl/src/draw/sw/lv_draw_sw_rect.c ****     lv_coord_t pad = dsc->outline_pad - 1;
1129:Drivers/lvgl/lvgl/src/draw/sw/lv_draw_sw_rect.c ****     area_inner.x1 -= pad;
1130:Drivers/lvgl/lvgl/src/draw/sw/lv_draw_sw_rect.c ****     area_inner.y1 -= pad;
1131:Drivers/lvgl/lvgl/src/draw/sw/lv_draw_sw_rect.c ****     area_inner.x2 += pad;
1132:Drivers/lvgl/lvgl/src/draw/sw/lv_draw_sw_rect.c ****     area_inner.y2 += pad;
1133:Drivers/lvgl/lvgl/src/draw/sw/lv_draw_sw_rect.c **** 
1134:Drivers/lvgl/lvgl/src/draw/sw/lv_draw_sw_rect.c ****     lv_area_t area_outer;
1135:Drivers/lvgl/lvgl/src/draw/sw/lv_draw_sw_rect.c ****     lv_area_copy(&area_outer, &area_inner);
1136:Drivers/lvgl/lvgl/src/draw/sw/lv_draw_sw_rect.c **** 
1137:Drivers/lvgl/lvgl/src/draw/sw/lv_draw_sw_rect.c ****     area_outer.x1 -= dsc->outline_width;
1138:Drivers/lvgl/lvgl/src/draw/sw/lv_draw_sw_rect.c ****     area_outer.x2 += dsc->outline_width;
1139:Drivers/lvgl/lvgl/src/draw/sw/lv_draw_sw_rect.c ****     area_outer.y1 -= dsc->outline_width;
1140:Drivers/lvgl/lvgl/src/draw/sw/lv_draw_sw_rect.c ****     area_outer.y2 += dsc->outline_width;
1141:Drivers/lvgl/lvgl/src/draw/sw/lv_draw_sw_rect.c **** 
1142:Drivers/lvgl/lvgl/src/draw/sw/lv_draw_sw_rect.c **** 
1143:Drivers/lvgl/lvgl/src/draw/sw/lv_draw_sw_rect.c ****     int32_t inner_w = lv_area_get_width(&area_inner);
1144:Drivers/lvgl/lvgl/src/draw/sw/lv_draw_sw_rect.c ****     int32_t inner_h = lv_area_get_height(&area_inner);
1145:Drivers/lvgl/lvgl/src/draw/sw/lv_draw_sw_rect.c ****     int32_t rin = dsc->radius;
1146:Drivers/lvgl/lvgl/src/draw/sw/lv_draw_sw_rect.c ****     int32_t short_side = LV_MIN(inner_w, inner_h);
1147:Drivers/lvgl/lvgl/src/draw/sw/lv_draw_sw_rect.c ****     if(rin > short_side >> 1) rin = short_side >> 1;
1148:Drivers/lvgl/lvgl/src/draw/sw/lv_draw_sw_rect.c **** 
1149:Drivers/lvgl/lvgl/src/draw/sw/lv_draw_sw_rect.c ****     lv_coord_t rout = rin + dsc->outline_width;
1150:Drivers/lvgl/lvgl/src/draw/sw/lv_draw_sw_rect.c **** 
1151:Drivers/lvgl/lvgl/src/draw/sw/lv_draw_sw_rect.c ****     draw_border_generic(draw_ctx, &area_outer, &area_inner, rout, rin, dsc->outline_color, dsc->out
1152:Drivers/lvgl/lvgl/src/draw/sw/lv_draw_sw_rect.c ****                         dsc->blend_mode);
1153:Drivers/lvgl/lvgl/src/draw/sw/lv_draw_sw_rect.c **** }
1154:Drivers/lvgl/lvgl/src/draw/sw/lv_draw_sw_rect.c **** 
1155:Drivers/lvgl/lvgl/src/draw/sw/lv_draw_sw_rect.c **** void draw_border_generic(lv_draw_ctx_t * draw_ctx, const lv_area_t * outer_area, const lv_area_t * 
1156:Drivers/lvgl/lvgl/src/draw/sw/lv_draw_sw_rect.c ****                          lv_coord_t rout, lv_coord_t rin, lv_color_t color, lv_opa_t opa, lv_blend_
1157:Drivers/lvgl/lvgl/src/draw/sw/lv_draw_sw_rect.c **** {
1158:Drivers/lvgl/lvgl/src/draw/sw/lv_draw_sw_rect.c ****     opa = opa >= LV_OPA_COVER ? LV_OPA_COVER : opa;
1159:Drivers/lvgl/lvgl/src/draw/sw/lv_draw_sw_rect.c **** 
1160:Drivers/lvgl/lvgl/src/draw/sw/lv_draw_sw_rect.c ****     bool mask_any = lv_draw_mask_is_any(outer_area);
1161:Drivers/lvgl/lvgl/src/draw/sw/lv_draw_sw_rect.c **** 
1162:Drivers/lvgl/lvgl/src/draw/sw/lv_draw_sw_rect.c **** #if LV_DRAW_COMPLEX
1163:Drivers/lvgl/lvgl/src/draw/sw/lv_draw_sw_rect.c **** 
1164:Drivers/lvgl/lvgl/src/draw/sw/lv_draw_sw_rect.c ****     if(!mask_any && rout == 0 && rin == 0) {
1165:Drivers/lvgl/lvgl/src/draw/sw/lv_draw_sw_rect.c ****         draw_border_simple(draw_ctx, outer_area, inner_area, color, opa);
1166:Drivers/lvgl/lvgl/src/draw/sw/lv_draw_sw_rect.c ****         return;
1167:Drivers/lvgl/lvgl/src/draw/sw/lv_draw_sw_rect.c ****     }
1168:Drivers/lvgl/lvgl/src/draw/sw/lv_draw_sw_rect.c **** 
1169:Drivers/lvgl/lvgl/src/draw/sw/lv_draw_sw_rect.c ****     /*Get clipped draw area which is the real draw area.
1170:Drivers/lvgl/lvgl/src/draw/sw/lv_draw_sw_rect.c ****      *It is always the same or inside `coords`*/
1171:Drivers/lvgl/lvgl/src/draw/sw/lv_draw_sw_rect.c ****     lv_area_t draw_area;
1172:Drivers/lvgl/lvgl/src/draw/sw/lv_draw_sw_rect.c ****     if(!_lv_area_intersect(&draw_area, outer_area, draw_ctx->clip_area)) return;
1173:Drivers/lvgl/lvgl/src/draw/sw/lv_draw_sw_rect.c ****     int32_t draw_area_w = lv_area_get_width(&draw_area);
ARM GAS  /tmp/ccV6ypnB.s 			page 22


1174:Drivers/lvgl/lvgl/src/draw/sw/lv_draw_sw_rect.c **** 
1175:Drivers/lvgl/lvgl/src/draw/sw/lv_draw_sw_rect.c ****     lv_draw_sw_blend_dsc_t blend_dsc;
1176:Drivers/lvgl/lvgl/src/draw/sw/lv_draw_sw_rect.c ****     lv_memset_00(&blend_dsc, sizeof(blend_dsc));
1177:Drivers/lvgl/lvgl/src/draw/sw/lv_draw_sw_rect.c ****     blend_dsc.mask_buf = lv_mem_buf_get(draw_area_w);;
1178:Drivers/lvgl/lvgl/src/draw/sw/lv_draw_sw_rect.c **** 
1179:Drivers/lvgl/lvgl/src/draw/sw/lv_draw_sw_rect.c **** 
1180:Drivers/lvgl/lvgl/src/draw/sw/lv_draw_sw_rect.c ****     /*Create mask for the outer area*/
1181:Drivers/lvgl/lvgl/src/draw/sw/lv_draw_sw_rect.c ****     int16_t mask_rout_id = LV_MASK_ID_INV;
1182:Drivers/lvgl/lvgl/src/draw/sw/lv_draw_sw_rect.c ****     lv_draw_mask_radius_param_t mask_rout_param;
1183:Drivers/lvgl/lvgl/src/draw/sw/lv_draw_sw_rect.c ****     if(rout > 0) {
1184:Drivers/lvgl/lvgl/src/draw/sw/lv_draw_sw_rect.c ****         lv_draw_mask_radius_init(&mask_rout_param, outer_area, rout, false);
1185:Drivers/lvgl/lvgl/src/draw/sw/lv_draw_sw_rect.c ****         mask_rout_id = lv_draw_mask_add(&mask_rout_param, NULL);
1186:Drivers/lvgl/lvgl/src/draw/sw/lv_draw_sw_rect.c ****     }
1187:Drivers/lvgl/lvgl/src/draw/sw/lv_draw_sw_rect.c **** 
1188:Drivers/lvgl/lvgl/src/draw/sw/lv_draw_sw_rect.c ****     /*Create mask for the inner mask*/
1189:Drivers/lvgl/lvgl/src/draw/sw/lv_draw_sw_rect.c ****     lv_draw_mask_radius_param_t mask_rin_param;
1190:Drivers/lvgl/lvgl/src/draw/sw/lv_draw_sw_rect.c ****     lv_draw_mask_radius_init(&mask_rin_param, inner_area, rin, true);
1191:Drivers/lvgl/lvgl/src/draw/sw/lv_draw_sw_rect.c ****     int16_t mask_rin_id = lv_draw_mask_add(&mask_rin_param, NULL);
1192:Drivers/lvgl/lvgl/src/draw/sw/lv_draw_sw_rect.c **** 
1193:Drivers/lvgl/lvgl/src/draw/sw/lv_draw_sw_rect.c ****     int32_t h;
1194:Drivers/lvgl/lvgl/src/draw/sw/lv_draw_sw_rect.c ****     lv_area_t blend_area;
1195:Drivers/lvgl/lvgl/src/draw/sw/lv_draw_sw_rect.c ****     blend_dsc.blend_area = &blend_area;
1196:Drivers/lvgl/lvgl/src/draw/sw/lv_draw_sw_rect.c ****     blend_dsc.mask_area = &blend_area;
1197:Drivers/lvgl/lvgl/src/draw/sw/lv_draw_sw_rect.c ****     blend_dsc.color = color;
1198:Drivers/lvgl/lvgl/src/draw/sw/lv_draw_sw_rect.c ****     blend_dsc.opa = opa;
1199:Drivers/lvgl/lvgl/src/draw/sw/lv_draw_sw_rect.c ****     blend_dsc.blend_mode = blend_mode;
1200:Drivers/lvgl/lvgl/src/draw/sw/lv_draw_sw_rect.c **** 
1201:Drivers/lvgl/lvgl/src/draw/sw/lv_draw_sw_rect.c ****     /*Calculate the x and y coordinates where the straight parts area*/
1202:Drivers/lvgl/lvgl/src/draw/sw/lv_draw_sw_rect.c ****     lv_area_t core_area;
1203:Drivers/lvgl/lvgl/src/draw/sw/lv_draw_sw_rect.c ****     core_area.x1 = LV_MAX(outer_area->x1 + rout, inner_area->x1);
1204:Drivers/lvgl/lvgl/src/draw/sw/lv_draw_sw_rect.c ****     core_area.x2 = LV_MIN(outer_area->x2 - rout, inner_area->x2);
1205:Drivers/lvgl/lvgl/src/draw/sw/lv_draw_sw_rect.c ****     core_area.y1 = LV_MAX(outer_area->y1 + rout, inner_area->y1);
1206:Drivers/lvgl/lvgl/src/draw/sw/lv_draw_sw_rect.c ****     core_area.y2 = LV_MIN(outer_area->y2 - rout, inner_area->y2);
1207:Drivers/lvgl/lvgl/src/draw/sw/lv_draw_sw_rect.c ****     lv_coord_t core_w = lv_area_get_width(&core_area);
1208:Drivers/lvgl/lvgl/src/draw/sw/lv_draw_sw_rect.c **** 
1209:Drivers/lvgl/lvgl/src/draw/sw/lv_draw_sw_rect.c ****     bool top_side = outer_area->y1 <= inner_area->y1 ? true : false;
1210:Drivers/lvgl/lvgl/src/draw/sw/lv_draw_sw_rect.c ****     bool bottom_side = outer_area->y2 >= inner_area->y2 ? true : false;
1211:Drivers/lvgl/lvgl/src/draw/sw/lv_draw_sw_rect.c **** 
1212:Drivers/lvgl/lvgl/src/draw/sw/lv_draw_sw_rect.c ****     /*If there is other masks, need to draw line by line*/
1213:Drivers/lvgl/lvgl/src/draw/sw/lv_draw_sw_rect.c ****     if(mask_any) {
1214:Drivers/lvgl/lvgl/src/draw/sw/lv_draw_sw_rect.c ****         blend_area.x1 = draw_area.x1;
1215:Drivers/lvgl/lvgl/src/draw/sw/lv_draw_sw_rect.c ****         blend_area.x2 = draw_area.x2;
1216:Drivers/lvgl/lvgl/src/draw/sw/lv_draw_sw_rect.c ****         for(h = draw_area.y1; h <= draw_area.y2; h++) {
1217:Drivers/lvgl/lvgl/src/draw/sw/lv_draw_sw_rect.c ****             if(!top_side && h < core_area.y1) continue;
1218:Drivers/lvgl/lvgl/src/draw/sw/lv_draw_sw_rect.c ****             if(!bottom_side && h > core_area.y2) break;
1219:Drivers/lvgl/lvgl/src/draw/sw/lv_draw_sw_rect.c **** 
1220:Drivers/lvgl/lvgl/src/draw/sw/lv_draw_sw_rect.c ****             blend_area.y1 = h;
1221:Drivers/lvgl/lvgl/src/draw/sw/lv_draw_sw_rect.c ****             blend_area.y2 = h;
1222:Drivers/lvgl/lvgl/src/draw/sw/lv_draw_sw_rect.c **** 
1223:Drivers/lvgl/lvgl/src/draw/sw/lv_draw_sw_rect.c ****             lv_memset_ff(blend_dsc.mask_buf, draw_area_w);
1224:Drivers/lvgl/lvgl/src/draw/sw/lv_draw_sw_rect.c ****             blend_dsc.mask_res = lv_draw_mask_apply(blend_dsc.mask_buf, draw_area.x1, h, draw_area_
1225:Drivers/lvgl/lvgl/src/draw/sw/lv_draw_sw_rect.c ****             lv_draw_sw_blend(draw_ctx, &blend_dsc);
1226:Drivers/lvgl/lvgl/src/draw/sw/lv_draw_sw_rect.c ****         }
1227:Drivers/lvgl/lvgl/src/draw/sw/lv_draw_sw_rect.c **** 
1228:Drivers/lvgl/lvgl/src/draw/sw/lv_draw_sw_rect.c ****         lv_draw_mask_free_param(&mask_rin_param);
1229:Drivers/lvgl/lvgl/src/draw/sw/lv_draw_sw_rect.c ****         lv_draw_mask_remove_id(mask_rin_id);
1230:Drivers/lvgl/lvgl/src/draw/sw/lv_draw_sw_rect.c ****         if(mask_rout_id != LV_MASK_ID_INV) {
ARM GAS  /tmp/ccV6ypnB.s 			page 23


1231:Drivers/lvgl/lvgl/src/draw/sw/lv_draw_sw_rect.c ****             lv_draw_mask_free_param(&mask_rout_param);
1232:Drivers/lvgl/lvgl/src/draw/sw/lv_draw_sw_rect.c ****             lv_draw_mask_remove_id(mask_rout_id);
1233:Drivers/lvgl/lvgl/src/draw/sw/lv_draw_sw_rect.c ****         }
1234:Drivers/lvgl/lvgl/src/draw/sw/lv_draw_sw_rect.c ****         lv_mem_buf_release(blend_dsc.mask_buf);
1235:Drivers/lvgl/lvgl/src/draw/sw/lv_draw_sw_rect.c ****         return;
1236:Drivers/lvgl/lvgl/src/draw/sw/lv_draw_sw_rect.c ****     }
1237:Drivers/lvgl/lvgl/src/draw/sw/lv_draw_sw_rect.c **** 
1238:Drivers/lvgl/lvgl/src/draw/sw/lv_draw_sw_rect.c ****     /*No masks*/
1239:Drivers/lvgl/lvgl/src/draw/sw/lv_draw_sw_rect.c ****     bool left_side = outer_area->x1 <= inner_area->x1 ? true : false;
1240:Drivers/lvgl/lvgl/src/draw/sw/lv_draw_sw_rect.c ****     bool right_side = outer_area->x2 >= inner_area->x2 ? true : false;
1241:Drivers/lvgl/lvgl/src/draw/sw/lv_draw_sw_rect.c **** 
1242:Drivers/lvgl/lvgl/src/draw/sw/lv_draw_sw_rect.c ****     bool split_hor = true;
1243:Drivers/lvgl/lvgl/src/draw/sw/lv_draw_sw_rect.c ****     if(left_side && right_side && top_side && bottom_side &&
1244:Drivers/lvgl/lvgl/src/draw/sw/lv_draw_sw_rect.c ****        core_w < SPLIT_LIMIT) {
1245:Drivers/lvgl/lvgl/src/draw/sw/lv_draw_sw_rect.c ****         split_hor = false;
1246:Drivers/lvgl/lvgl/src/draw/sw/lv_draw_sw_rect.c ****     }
1247:Drivers/lvgl/lvgl/src/draw/sw/lv_draw_sw_rect.c **** 
1248:Drivers/lvgl/lvgl/src/draw/sw/lv_draw_sw_rect.c ****     blend_dsc.mask_res = LV_DRAW_MASK_RES_FULL_COVER;
1249:Drivers/lvgl/lvgl/src/draw/sw/lv_draw_sw_rect.c ****     /*Draw the straight lines first if they are long enough*/
1250:Drivers/lvgl/lvgl/src/draw/sw/lv_draw_sw_rect.c ****     if(top_side && split_hor) {
1251:Drivers/lvgl/lvgl/src/draw/sw/lv_draw_sw_rect.c ****         blend_area.x1 = core_area.x1;
1252:Drivers/lvgl/lvgl/src/draw/sw/lv_draw_sw_rect.c ****         blend_area.x2 = core_area.x2;
1253:Drivers/lvgl/lvgl/src/draw/sw/lv_draw_sw_rect.c ****         blend_area.y1 = outer_area->y1;
1254:Drivers/lvgl/lvgl/src/draw/sw/lv_draw_sw_rect.c ****         blend_area.y2 = inner_area->y1 - 1;
1255:Drivers/lvgl/lvgl/src/draw/sw/lv_draw_sw_rect.c ****         lv_draw_sw_blend(draw_ctx, &blend_dsc);
1256:Drivers/lvgl/lvgl/src/draw/sw/lv_draw_sw_rect.c ****     }
1257:Drivers/lvgl/lvgl/src/draw/sw/lv_draw_sw_rect.c **** 
1258:Drivers/lvgl/lvgl/src/draw/sw/lv_draw_sw_rect.c ****     if(bottom_side && split_hor) {
1259:Drivers/lvgl/lvgl/src/draw/sw/lv_draw_sw_rect.c ****         blend_area.x1 = core_area.x1;
1260:Drivers/lvgl/lvgl/src/draw/sw/lv_draw_sw_rect.c ****         blend_area.x2 = core_area.x2;
1261:Drivers/lvgl/lvgl/src/draw/sw/lv_draw_sw_rect.c ****         blend_area.y1 = inner_area->y2 + 1;
1262:Drivers/lvgl/lvgl/src/draw/sw/lv_draw_sw_rect.c ****         blend_area.y2 = outer_area->y2;
1263:Drivers/lvgl/lvgl/src/draw/sw/lv_draw_sw_rect.c ****         lv_draw_sw_blend(draw_ctx, &blend_dsc);
1264:Drivers/lvgl/lvgl/src/draw/sw/lv_draw_sw_rect.c ****     }
1265:Drivers/lvgl/lvgl/src/draw/sw/lv_draw_sw_rect.c **** 
1266:Drivers/lvgl/lvgl/src/draw/sw/lv_draw_sw_rect.c ****     if(left_side) {
1267:Drivers/lvgl/lvgl/src/draw/sw/lv_draw_sw_rect.c ****         blend_area.x1 = outer_area->x1;
1268:Drivers/lvgl/lvgl/src/draw/sw/lv_draw_sw_rect.c ****         blend_area.x2 = inner_area->x1 - 1;
1269:Drivers/lvgl/lvgl/src/draw/sw/lv_draw_sw_rect.c ****         blend_area.y1 = core_area.y1;
1270:Drivers/lvgl/lvgl/src/draw/sw/lv_draw_sw_rect.c ****         blend_area.y2 = core_area.y2;
1271:Drivers/lvgl/lvgl/src/draw/sw/lv_draw_sw_rect.c ****         lv_draw_sw_blend(draw_ctx, &blend_dsc);
1272:Drivers/lvgl/lvgl/src/draw/sw/lv_draw_sw_rect.c ****     }
1273:Drivers/lvgl/lvgl/src/draw/sw/lv_draw_sw_rect.c **** 
1274:Drivers/lvgl/lvgl/src/draw/sw/lv_draw_sw_rect.c ****     if(right_side) {
1275:Drivers/lvgl/lvgl/src/draw/sw/lv_draw_sw_rect.c ****         blend_area.x1 = inner_area->x2 + 1;
1276:Drivers/lvgl/lvgl/src/draw/sw/lv_draw_sw_rect.c ****         blend_area.x2 = outer_area->x2;
1277:Drivers/lvgl/lvgl/src/draw/sw/lv_draw_sw_rect.c ****         blend_area.y1 = core_area.y1;
1278:Drivers/lvgl/lvgl/src/draw/sw/lv_draw_sw_rect.c ****         blend_area.y2 = core_area.y2;
1279:Drivers/lvgl/lvgl/src/draw/sw/lv_draw_sw_rect.c ****         lv_draw_sw_blend(draw_ctx, &blend_dsc);
1280:Drivers/lvgl/lvgl/src/draw/sw/lv_draw_sw_rect.c ****     }
1281:Drivers/lvgl/lvgl/src/draw/sw/lv_draw_sw_rect.c **** 
1282:Drivers/lvgl/lvgl/src/draw/sw/lv_draw_sw_rect.c ****     /*Draw the corners*/
1283:Drivers/lvgl/lvgl/src/draw/sw/lv_draw_sw_rect.c ****     lv_coord_t blend_w;
1284:Drivers/lvgl/lvgl/src/draw/sw/lv_draw_sw_rect.c **** 
1285:Drivers/lvgl/lvgl/src/draw/sw/lv_draw_sw_rect.c ****     /*Left and right corner together if they are close to each other*/
1286:Drivers/lvgl/lvgl/src/draw/sw/lv_draw_sw_rect.c ****     if(!split_hor) {
1287:Drivers/lvgl/lvgl/src/draw/sw/lv_draw_sw_rect.c ****         /*Calculate the top corner and mirror it to the bottom*/
ARM GAS  /tmp/ccV6ypnB.s 			page 24


1288:Drivers/lvgl/lvgl/src/draw/sw/lv_draw_sw_rect.c ****         blend_area.x1 = draw_area.x1;
1289:Drivers/lvgl/lvgl/src/draw/sw/lv_draw_sw_rect.c ****         blend_area.x2 = draw_area.x2;
1290:Drivers/lvgl/lvgl/src/draw/sw/lv_draw_sw_rect.c ****         lv_coord_t max_h = LV_MAX(rout, inner_area->y1 - outer_area->y1);
1291:Drivers/lvgl/lvgl/src/draw/sw/lv_draw_sw_rect.c ****         for(h = 0; h < max_h; h++) {
1292:Drivers/lvgl/lvgl/src/draw/sw/lv_draw_sw_rect.c ****             lv_coord_t top_y = outer_area->y1 + h;
1293:Drivers/lvgl/lvgl/src/draw/sw/lv_draw_sw_rect.c ****             lv_coord_t bottom_y = outer_area->y2 - h;
1294:Drivers/lvgl/lvgl/src/draw/sw/lv_draw_sw_rect.c ****             if(top_y < draw_area.y1 && bottom_y > draw_area.y2) continue;   /*This line is clipped 
1295:Drivers/lvgl/lvgl/src/draw/sw/lv_draw_sw_rect.c **** 
1296:Drivers/lvgl/lvgl/src/draw/sw/lv_draw_sw_rect.c ****             lv_memset_ff(blend_dsc.mask_buf, draw_area_w);
1297:Drivers/lvgl/lvgl/src/draw/sw/lv_draw_sw_rect.c ****             blend_dsc.mask_res = lv_draw_mask_apply(blend_dsc.mask_buf, blend_area.x1, top_y, draw_
1298:Drivers/lvgl/lvgl/src/draw/sw/lv_draw_sw_rect.c **** 
1299:Drivers/lvgl/lvgl/src/draw/sw/lv_draw_sw_rect.c ****             if(top_y >= draw_area.y1) {
1300:Drivers/lvgl/lvgl/src/draw/sw/lv_draw_sw_rect.c ****                 blend_area.y1 = top_y;
1301:Drivers/lvgl/lvgl/src/draw/sw/lv_draw_sw_rect.c ****                 blend_area.y2 = top_y;
1302:Drivers/lvgl/lvgl/src/draw/sw/lv_draw_sw_rect.c ****                 lv_draw_sw_blend(draw_ctx, &blend_dsc);
1303:Drivers/lvgl/lvgl/src/draw/sw/lv_draw_sw_rect.c ****             }
1304:Drivers/lvgl/lvgl/src/draw/sw/lv_draw_sw_rect.c **** 
1305:Drivers/lvgl/lvgl/src/draw/sw/lv_draw_sw_rect.c ****             if(bottom_y <= draw_area.y2) {
1306:Drivers/lvgl/lvgl/src/draw/sw/lv_draw_sw_rect.c ****                 blend_area.y1 = bottom_y;
1307:Drivers/lvgl/lvgl/src/draw/sw/lv_draw_sw_rect.c ****                 blend_area.y2 = bottom_y;
1308:Drivers/lvgl/lvgl/src/draw/sw/lv_draw_sw_rect.c ****                 lv_draw_sw_blend(draw_ctx, &blend_dsc);
1309:Drivers/lvgl/lvgl/src/draw/sw/lv_draw_sw_rect.c ****             }
1310:Drivers/lvgl/lvgl/src/draw/sw/lv_draw_sw_rect.c ****         }
1311:Drivers/lvgl/lvgl/src/draw/sw/lv_draw_sw_rect.c ****     }
1312:Drivers/lvgl/lvgl/src/draw/sw/lv_draw_sw_rect.c ****     else {
1313:Drivers/lvgl/lvgl/src/draw/sw/lv_draw_sw_rect.c ****         /*Left corners*/
1314:Drivers/lvgl/lvgl/src/draw/sw/lv_draw_sw_rect.c ****         blend_area.x1 = draw_area.x1;
1315:Drivers/lvgl/lvgl/src/draw/sw/lv_draw_sw_rect.c ****         blend_area.x2 = LV_MIN(draw_area.x2, core_area.x1 - 1);
1316:Drivers/lvgl/lvgl/src/draw/sw/lv_draw_sw_rect.c ****         blend_w = lv_area_get_width(&blend_area);
1317:Drivers/lvgl/lvgl/src/draw/sw/lv_draw_sw_rect.c ****         if(blend_w > 0) {
1318:Drivers/lvgl/lvgl/src/draw/sw/lv_draw_sw_rect.c ****             if(left_side || top_side) {
1319:Drivers/lvgl/lvgl/src/draw/sw/lv_draw_sw_rect.c ****                 for(h = draw_area.y1; h < core_area.y1; h++) {
1320:Drivers/lvgl/lvgl/src/draw/sw/lv_draw_sw_rect.c ****                     blend_area.y1 = h;
1321:Drivers/lvgl/lvgl/src/draw/sw/lv_draw_sw_rect.c ****                     blend_area.y2 = h;
1322:Drivers/lvgl/lvgl/src/draw/sw/lv_draw_sw_rect.c **** 
1323:Drivers/lvgl/lvgl/src/draw/sw/lv_draw_sw_rect.c ****                     lv_memset_ff(blend_dsc.mask_buf, blend_w);
1324:Drivers/lvgl/lvgl/src/draw/sw/lv_draw_sw_rect.c ****                     blend_dsc.mask_res = lv_draw_mask_apply(blend_dsc.mask_buf, blend_area.x1, h, b
1325:Drivers/lvgl/lvgl/src/draw/sw/lv_draw_sw_rect.c ****                     lv_draw_sw_blend(draw_ctx, &blend_dsc);
1326:Drivers/lvgl/lvgl/src/draw/sw/lv_draw_sw_rect.c ****                 }
1327:Drivers/lvgl/lvgl/src/draw/sw/lv_draw_sw_rect.c ****             }
1328:Drivers/lvgl/lvgl/src/draw/sw/lv_draw_sw_rect.c **** 
1329:Drivers/lvgl/lvgl/src/draw/sw/lv_draw_sw_rect.c ****             if(left_side || bottom_side) {
1330:Drivers/lvgl/lvgl/src/draw/sw/lv_draw_sw_rect.c ****                 for(h = core_area.y2 + 1; h <= draw_area.y2; h++) {
1331:Drivers/lvgl/lvgl/src/draw/sw/lv_draw_sw_rect.c ****                     blend_area.y1 = h;
1332:Drivers/lvgl/lvgl/src/draw/sw/lv_draw_sw_rect.c ****                     blend_area.y2 = h;
1333:Drivers/lvgl/lvgl/src/draw/sw/lv_draw_sw_rect.c **** 
1334:Drivers/lvgl/lvgl/src/draw/sw/lv_draw_sw_rect.c ****                     lv_memset_ff(blend_dsc.mask_buf, blend_w);
1335:Drivers/lvgl/lvgl/src/draw/sw/lv_draw_sw_rect.c ****                     blend_dsc.mask_res = lv_draw_mask_apply(blend_dsc.mask_buf, blend_area.x1, h, b
1336:Drivers/lvgl/lvgl/src/draw/sw/lv_draw_sw_rect.c ****                     lv_draw_sw_blend(draw_ctx, &blend_dsc);
1337:Drivers/lvgl/lvgl/src/draw/sw/lv_draw_sw_rect.c ****                 }
1338:Drivers/lvgl/lvgl/src/draw/sw/lv_draw_sw_rect.c ****             }
1339:Drivers/lvgl/lvgl/src/draw/sw/lv_draw_sw_rect.c ****         }
1340:Drivers/lvgl/lvgl/src/draw/sw/lv_draw_sw_rect.c **** 
1341:Drivers/lvgl/lvgl/src/draw/sw/lv_draw_sw_rect.c ****         /*Right corners*/
1342:Drivers/lvgl/lvgl/src/draw/sw/lv_draw_sw_rect.c ****         blend_area.x1 = LV_MAX(draw_area.x1, core_area.x2 + 1);
1343:Drivers/lvgl/lvgl/src/draw/sw/lv_draw_sw_rect.c ****         blend_area.x2 = draw_area.x2;
1344:Drivers/lvgl/lvgl/src/draw/sw/lv_draw_sw_rect.c ****         blend_w = lv_area_get_width(&blend_area);
ARM GAS  /tmp/ccV6ypnB.s 			page 25


1345:Drivers/lvgl/lvgl/src/draw/sw/lv_draw_sw_rect.c **** 
1346:Drivers/lvgl/lvgl/src/draw/sw/lv_draw_sw_rect.c ****         if(blend_w > 0) {
1347:Drivers/lvgl/lvgl/src/draw/sw/lv_draw_sw_rect.c ****             if(right_side || top_side) {
1348:Drivers/lvgl/lvgl/src/draw/sw/lv_draw_sw_rect.c ****                 for(h = draw_area.y1; h < core_area.y1; h++) {
1349:Drivers/lvgl/lvgl/src/draw/sw/lv_draw_sw_rect.c ****                     blend_area.y1 = h;
1350:Drivers/lvgl/lvgl/src/draw/sw/lv_draw_sw_rect.c ****                     blend_area.y2 = h;
1351:Drivers/lvgl/lvgl/src/draw/sw/lv_draw_sw_rect.c **** 
1352:Drivers/lvgl/lvgl/src/draw/sw/lv_draw_sw_rect.c ****                     lv_memset_ff(blend_dsc.mask_buf, blend_w);
1353:Drivers/lvgl/lvgl/src/draw/sw/lv_draw_sw_rect.c ****                     blend_dsc.mask_res = lv_draw_mask_apply(blend_dsc.mask_buf, blend_area.x1, h, b
1354:Drivers/lvgl/lvgl/src/draw/sw/lv_draw_sw_rect.c ****                     lv_draw_sw_blend(draw_ctx, &blend_dsc);
1355:Drivers/lvgl/lvgl/src/draw/sw/lv_draw_sw_rect.c ****                 }
1356:Drivers/lvgl/lvgl/src/draw/sw/lv_draw_sw_rect.c ****             }
1357:Drivers/lvgl/lvgl/src/draw/sw/lv_draw_sw_rect.c **** 
1358:Drivers/lvgl/lvgl/src/draw/sw/lv_draw_sw_rect.c ****             if(right_side || bottom_side) {
1359:Drivers/lvgl/lvgl/src/draw/sw/lv_draw_sw_rect.c ****                 for(h = core_area.y2 + 1; h <= draw_area.y2; h++) {
1360:Drivers/lvgl/lvgl/src/draw/sw/lv_draw_sw_rect.c ****                     blend_area.y1 = h;
1361:Drivers/lvgl/lvgl/src/draw/sw/lv_draw_sw_rect.c ****                     blend_area.y2 = h;
1362:Drivers/lvgl/lvgl/src/draw/sw/lv_draw_sw_rect.c **** 
1363:Drivers/lvgl/lvgl/src/draw/sw/lv_draw_sw_rect.c ****                     lv_memset_ff(blend_dsc.mask_buf, blend_w);
1364:Drivers/lvgl/lvgl/src/draw/sw/lv_draw_sw_rect.c ****                     blend_dsc.mask_res = lv_draw_mask_apply(blend_dsc.mask_buf, blend_area.x1, h, b
1365:Drivers/lvgl/lvgl/src/draw/sw/lv_draw_sw_rect.c ****                     lv_draw_sw_blend(draw_ctx, &blend_dsc);
1366:Drivers/lvgl/lvgl/src/draw/sw/lv_draw_sw_rect.c ****                 }
1367:Drivers/lvgl/lvgl/src/draw/sw/lv_draw_sw_rect.c ****             }
1368:Drivers/lvgl/lvgl/src/draw/sw/lv_draw_sw_rect.c ****         }
1369:Drivers/lvgl/lvgl/src/draw/sw/lv_draw_sw_rect.c ****     }
1370:Drivers/lvgl/lvgl/src/draw/sw/lv_draw_sw_rect.c **** 
1371:Drivers/lvgl/lvgl/src/draw/sw/lv_draw_sw_rect.c ****     lv_draw_mask_free_param(&mask_rin_param);
1372:Drivers/lvgl/lvgl/src/draw/sw/lv_draw_sw_rect.c ****     lv_draw_mask_remove_id(mask_rin_id);
1373:Drivers/lvgl/lvgl/src/draw/sw/lv_draw_sw_rect.c ****     lv_draw_mask_free_param(&mask_rout_param);
1374:Drivers/lvgl/lvgl/src/draw/sw/lv_draw_sw_rect.c ****     lv_draw_mask_remove_id(mask_rout_id);
1375:Drivers/lvgl/lvgl/src/draw/sw/lv_draw_sw_rect.c ****     lv_mem_buf_release(blend_dsc.mask_buf);
1376:Drivers/lvgl/lvgl/src/draw/sw/lv_draw_sw_rect.c **** 
1377:Drivers/lvgl/lvgl/src/draw/sw/lv_draw_sw_rect.c **** #else /*LV_DRAW_COMPLEX*/
1378:Drivers/lvgl/lvgl/src/draw/sw/lv_draw_sw_rect.c ****     LV_UNUSED(blend_mode);
1379:Drivers/lvgl/lvgl/src/draw/sw/lv_draw_sw_rect.c ****     LV_UNUSED(rout);
1380:Drivers/lvgl/lvgl/src/draw/sw/lv_draw_sw_rect.c ****     LV_UNUSED(rin);
1381:Drivers/lvgl/lvgl/src/draw/sw/lv_draw_sw_rect.c ****     if(!mask_any) {
1382:Drivers/lvgl/lvgl/src/draw/sw/lv_draw_sw_rect.c ****         draw_border_simple(draw_ctx, outer_area, inner_area, color, opa);
1383:Drivers/lvgl/lvgl/src/draw/sw/lv_draw_sw_rect.c ****         return;
1384:Drivers/lvgl/lvgl/src/draw/sw/lv_draw_sw_rect.c ****     }
1385:Drivers/lvgl/lvgl/src/draw/sw/lv_draw_sw_rect.c **** 
1386:Drivers/lvgl/lvgl/src/draw/sw/lv_draw_sw_rect.c **** #endif /*LV_DRAW_COMPLEX*/
1387:Drivers/lvgl/lvgl/src/draw/sw/lv_draw_sw_rect.c **** }
1388:Drivers/lvgl/lvgl/src/draw/sw/lv_draw_sw_rect.c **** static void draw_border_simple(lv_draw_ctx_t * draw_ctx, const lv_area_t * outer_area, const lv_are
1389:Drivers/lvgl/lvgl/src/draw/sw/lv_draw_sw_rect.c ****                                lv_color_t color, lv_opa_t opa)
1390:Drivers/lvgl/lvgl/src/draw/sw/lv_draw_sw_rect.c **** {
  26              		.loc 1 1390 0
  27              		.cfi_startproc
  28              		@ args = 4, pretend = 0, frame = 56
  29              		@ frame_needed = 0, uses_anonymous_args = 0
  30              	.LVL0:
  31 0000 2DE9F04F 		push	{r4, r5, r6, r7, r8, r9, r10, fp, lr}
  32              	.LCFI0:
  33              		.cfi_def_cfa_offset 36
  34              		.cfi_offset 4, -36
  35              		.cfi_offset 5, -32
  36              		.cfi_offset 6, -28
ARM GAS  /tmp/ccV6ypnB.s 			page 26


  37              		.cfi_offset 7, -24
  38              		.cfi_offset 8, -20
  39              		.cfi_offset 9, -16
  40              		.cfi_offset 10, -12
  41              		.cfi_offset 11, -8
  42              		.cfi_offset 14, -4
  43 0004 8FB0     		sub	sp, sp, #60
  44              	.LCFI1:
  45              		.cfi_def_cfa_offset 96
  46 0006 0190     		str	r0, [sp, #4]
  47 0008 0D46     		mov	r5, r1
  48 000a 1446     		mov	r4, r2
  49 000c 1E46     		mov	r6, r3	@ movhi
1391:Drivers/lvgl/lvgl/src/draw/sw/lv_draw_sw_rect.c ****     lv_area_t a;
1392:Drivers/lvgl/lvgl/src/draw/sw/lv_draw_sw_rect.c ****     lv_draw_sw_blend_dsc_t blend_dsc;
1393:Drivers/lvgl/lvgl/src/draw/sw/lv_draw_sw_rect.c ****     lv_memset_00(&blend_dsc, sizeof(lv_draw_sw_blend_dsc_t));
  50              		.loc 1 1393 0
  51 000e 1C21     		movs	r1, #28
  52              	.LVL1:
  53 0010 05A8     		add	r0, sp, #20
  54              	.LVL2:
  55 0012 FFF7FEFF 		bl	lv_memset_00
  56              	.LVL3:
1394:Drivers/lvgl/lvgl/src/draw/sw/lv_draw_sw_rect.c ****     blend_dsc.blend_area = &a;
  57              		.loc 1 1394 0
  58 0016 0CAB     		add	r3, sp, #48
  59 0018 0593     		str	r3, [sp, #20]
  60              	.LVL4:
1395:Drivers/lvgl/lvgl/src/draw/sw/lv_draw_sw_rect.c ****     blend_dsc.color = color;
  61              		.loc 1 1395 0
  62 001a ADF81C60 		strh	r6, [sp, #28]	@ movhi
1396:Drivers/lvgl/lvgl/src/draw/sw/lv_draw_sw_rect.c ****     blend_dsc.opa = opa;
  63              		.loc 1 1396 0
  64 001e 9DF86030 		ldrb	r3, [sp, #96]	@ zero_extendqisi2
  65 0022 8DF82C30 		strb	r3, [sp, #44]
1397:Drivers/lvgl/lvgl/src/draw/sw/lv_draw_sw_rect.c **** 
1398:Drivers/lvgl/lvgl/src/draw/sw/lv_draw_sw_rect.c ****     bool top_side = outer_area->y1 <= inner_area->y1 ? true : false;
  66              		.loc 1 1398 0
  67 0026 B5F90260 		ldrsh	r6, [r5, #2]
  68              	.LVL5:
  69 002a B4F902B0 		ldrsh	fp, [r4, #2]
  70              	.LVL6:
1399:Drivers/lvgl/lvgl/src/draw/sw/lv_draw_sw_rect.c ****     bool bottom_side = outer_area->y2 >= inner_area->y2 ? true : false;
  71              		.loc 1 1399 0
  72 002e B5F906A0 		ldrsh	r10, [r5, #6]
  73 0032 B4F90690 		ldrsh	r9, [r4, #6]
  74              	.LVL7:
1400:Drivers/lvgl/lvgl/src/draw/sw/lv_draw_sw_rect.c ****     bool left_side = outer_area->x1 <= inner_area->x1 ? true : false;
  75              		.loc 1 1400 0
  76 0036 B5F90080 		ldrsh	r8, [r5]
  77 003a B4F90030 		ldrsh	r3, [r4]
  78 003e 0293     		str	r3, [sp, #8]
  79              	.LVL8:
1401:Drivers/lvgl/lvgl/src/draw/sw/lv_draw_sw_rect.c ****     bool right_side = outer_area->x2 >= inner_area->x2 ? true : false;
  80              		.loc 1 1401 0
  81 0040 B5F90470 		ldrsh	r7, [r5, #4]
  82 0044 B4F90430 		ldrsh	r3, [r4, #4]
ARM GAS  /tmp/ccV6ypnB.s 			page 27


  83 0048 0393     		str	r3, [sp, #12]
  84              	.LVL9:
1402:Drivers/lvgl/lvgl/src/draw/sw/lv_draw_sw_rect.c **** 
1403:Drivers/lvgl/lvgl/src/draw/sw/lv_draw_sw_rect.c **** 
1404:Drivers/lvgl/lvgl/src/draw/sw/lv_draw_sw_rect.c ****     /*Top*/
1405:Drivers/lvgl/lvgl/src/draw/sw/lv_draw_sw_rect.c ****     a.x1 = outer_area->x1;
  85              		.loc 1 1405 0
  86 004a ADF83080 		strh	r8, [sp, #48]	@ movhi
1406:Drivers/lvgl/lvgl/src/draw/sw/lv_draw_sw_rect.c ****     a.x2 = outer_area->x2;
  87              		.loc 1 1406 0
  88 004e ADF83470 		strh	r7, [sp, #52]	@ movhi
1407:Drivers/lvgl/lvgl/src/draw/sw/lv_draw_sw_rect.c ****     a.y1 = outer_area->y1;
  89              		.loc 1 1407 0
  90 0052 ADF83260 		strh	r6, [sp, #50]	@ movhi
1408:Drivers/lvgl/lvgl/src/draw/sw/lv_draw_sw_rect.c ****     a.y2 = inner_area->y1 - 1;
  91              		.loc 1 1408 0
  92 0056 6388     		ldrh	r3, [r4, #2]
  93 0058 013B     		subs	r3, r3, #1
  94 005a ADF83630 		strh	r3, [sp, #54]	@ movhi
1409:Drivers/lvgl/lvgl/src/draw/sw/lv_draw_sw_rect.c ****     if(top_side) {
  95              		.loc 1 1409 0
  96 005e 5E45     		cmp	r6, fp
  97 0060 2EDD     		ble	.L11
  98              	.L2:
1410:Drivers/lvgl/lvgl/src/draw/sw/lv_draw_sw_rect.c ****         lv_draw_sw_blend(draw_ctx, &blend_dsc);
1411:Drivers/lvgl/lvgl/src/draw/sw/lv_draw_sw_rect.c ****     }
1412:Drivers/lvgl/lvgl/src/draw/sw/lv_draw_sw_rect.c **** 
1413:Drivers/lvgl/lvgl/src/draw/sw/lv_draw_sw_rect.c ****     /*Bottom*/
1414:Drivers/lvgl/lvgl/src/draw/sw/lv_draw_sw_rect.c ****     a.y1 = inner_area->y2 + 1;
  99              		.loc 1 1414 0
 100 0062 E388     		ldrh	r3, [r4, #6]
 101 0064 0133     		adds	r3, r3, #1
 102 0066 ADF83230 		strh	r3, [sp, #50]	@ movhi
1415:Drivers/lvgl/lvgl/src/draw/sw/lv_draw_sw_rect.c ****     a.y2 = outer_area->y2;
 103              		.loc 1 1415 0
 104 006a B5F90630 		ldrsh	r3, [r5, #6]
 105 006e ADF83630 		strh	r3, [sp, #54]	@ movhi
1416:Drivers/lvgl/lvgl/src/draw/sw/lv_draw_sw_rect.c ****     if(bottom_side) {
 106              		.loc 1 1416 0
 107 0072 CA45     		cmp	r10, r9
 108 0074 29DA     		bge	.L12
 109              	.L3:
1417:Drivers/lvgl/lvgl/src/draw/sw/lv_draw_sw_rect.c ****         lv_draw_sw_blend(draw_ctx, &blend_dsc);
1418:Drivers/lvgl/lvgl/src/draw/sw/lv_draw_sw_rect.c ****     }
1419:Drivers/lvgl/lvgl/src/draw/sw/lv_draw_sw_rect.c **** 
1420:Drivers/lvgl/lvgl/src/draw/sw/lv_draw_sw_rect.c ****     /*Left*/
1421:Drivers/lvgl/lvgl/src/draw/sw/lv_draw_sw_rect.c ****     a.x1 = outer_area->x1;
 110              		.loc 1 1421 0
 111 0076 B5F90030 		ldrsh	r3, [r5]
 112 007a ADF83030 		strh	r3, [sp, #48]	@ movhi
1422:Drivers/lvgl/lvgl/src/draw/sw/lv_draw_sw_rect.c ****     a.x2 = inner_area->x1 - 1;
 113              		.loc 1 1422 0
 114 007e 2388     		ldrh	r3, [r4]
 115 0080 013B     		subs	r3, r3, #1
 116 0082 ADF83430 		strh	r3, [sp, #52]	@ movhi
1423:Drivers/lvgl/lvgl/src/draw/sw/lv_draw_sw_rect.c ****     a.y1 = (top_side) ? inner_area->y1 : outer_area->y1;
 117              		.loc 1 1423 0
ARM GAS  /tmp/ccV6ypnB.s 			page 28


 118 0086 5E45     		cmp	r6, fp
 119 0088 24DC     		bgt	.L4
 120              		.loc 1 1423 0 is_stmt 0 discriminator 1
 121 008a B4F90230 		ldrsh	r3, [r4, #2]
 122              	.L5:
 123              		.loc 1 1423 0 discriminator 4
 124 008e ADF83230 		strh	r3, [sp, #50]	@ movhi
1424:Drivers/lvgl/lvgl/src/draw/sw/lv_draw_sw_rect.c ****     a.y2 = (bottom_side) ? inner_area->y2 : outer_area->y2;
 125              		.loc 1 1424 0 is_stmt 1 discriminator 4
 126 0092 CA45     		cmp	r10, r9
 127 0094 21DB     		blt	.L6
 128              		.loc 1 1424 0 is_stmt 0 discriminator 1
 129 0096 B4F90630 		ldrsh	r3, [r4, #6]
 130              	.L7:
 131              		.loc 1 1424 0 discriminator 4
 132 009a ADF83630 		strh	r3, [sp, #54]	@ movhi
1425:Drivers/lvgl/lvgl/src/draw/sw/lv_draw_sw_rect.c ****     if(left_side) {
 133              		.loc 1 1425 0 is_stmt 1 discriminator 4
 134 009e 029B     		ldr	r3, [sp, #8]
 135 00a0 9845     		cmp	r8, r3
 136 00a2 1DDD     		ble	.L13
 137              	.L8:
1426:Drivers/lvgl/lvgl/src/draw/sw/lv_draw_sw_rect.c ****         lv_draw_sw_blend(draw_ctx, &blend_dsc);
1427:Drivers/lvgl/lvgl/src/draw/sw/lv_draw_sw_rect.c ****     }
1428:Drivers/lvgl/lvgl/src/draw/sw/lv_draw_sw_rect.c **** 
1429:Drivers/lvgl/lvgl/src/draw/sw/lv_draw_sw_rect.c ****     /*Right*/
1430:Drivers/lvgl/lvgl/src/draw/sw/lv_draw_sw_rect.c ****     a.x1 = inner_area->x2 + 1;
 138              		.loc 1 1430 0
 139 00a4 A388     		ldrh	r3, [r4, #4]
 140 00a6 0133     		adds	r3, r3, #1
 141 00a8 ADF83030 		strh	r3, [sp, #48]	@ movhi
1431:Drivers/lvgl/lvgl/src/draw/sw/lv_draw_sw_rect.c ****     a.x2 = outer_area->x2;
 142              		.loc 1 1431 0
 143 00ac B5F90430 		ldrsh	r3, [r5, #4]
 144 00b0 ADF83430 		strh	r3, [sp, #52]	@ movhi
1432:Drivers/lvgl/lvgl/src/draw/sw/lv_draw_sw_rect.c ****     if(right_side) {
 145              		.loc 1 1432 0
 146 00b4 039B     		ldr	r3, [sp, #12]
 147 00b6 9F42     		cmp	r7, r3
 148 00b8 17DA     		bge	.L14
 149              	.L1:
1433:Drivers/lvgl/lvgl/src/draw/sw/lv_draw_sw_rect.c ****         lv_draw_sw_blend(draw_ctx, &blend_dsc);
1434:Drivers/lvgl/lvgl/src/draw/sw/lv_draw_sw_rect.c ****     }
1435:Drivers/lvgl/lvgl/src/draw/sw/lv_draw_sw_rect.c **** }
 150              		.loc 1 1435 0
 151 00ba 0FB0     		add	sp, sp, #60
 152              	.LCFI2:
 153              		.cfi_remember_state
 154              		.cfi_def_cfa_offset 36
 155              		@ sp needed
 156 00bc BDE8F08F 		pop	{r4, r5, r6, r7, r8, r9, r10, fp, pc}
 157              	.LVL10:
 158              	.L11:
 159              	.LCFI3:
 160              		.cfi_restore_state
1410:Drivers/lvgl/lvgl/src/draw/sw/lv_draw_sw_rect.c ****     }
 161              		.loc 1 1410 0
ARM GAS  /tmp/ccV6ypnB.s 			page 29


 162 00c0 05A9     		add	r1, sp, #20
 163 00c2 0198     		ldr	r0, [sp, #4]
 164 00c4 FFF7FEFF 		bl	lv_draw_sw_blend
 165              	.LVL11:
 166 00c8 CBE7     		b	.L2
 167              	.L12:
1417:Drivers/lvgl/lvgl/src/draw/sw/lv_draw_sw_rect.c ****     }
 168              		.loc 1 1417 0
 169 00ca 05A9     		add	r1, sp, #20
 170 00cc 0198     		ldr	r0, [sp, #4]
 171 00ce FFF7FEFF 		bl	lv_draw_sw_blend
 172              	.LVL12:
 173 00d2 D0E7     		b	.L3
 174              	.L4:
1423:Drivers/lvgl/lvgl/src/draw/sw/lv_draw_sw_rect.c ****     a.y2 = (bottom_side) ? inner_area->y2 : outer_area->y2;
 175              		.loc 1 1423 0 discriminator 2
 176 00d4 B5F90230 		ldrsh	r3, [r5, #2]
 177 00d8 D9E7     		b	.L5
 178              	.L6:
1424:Drivers/lvgl/lvgl/src/draw/sw/lv_draw_sw_rect.c ****     if(left_side) {
 179              		.loc 1 1424 0 discriminator 2
 180 00da B5F90630 		ldrsh	r3, [r5, #6]
 181 00de DCE7     		b	.L7
 182              	.L13:
1426:Drivers/lvgl/lvgl/src/draw/sw/lv_draw_sw_rect.c ****     }
 183              		.loc 1 1426 0
 184 00e0 05A9     		add	r1, sp, #20
 185 00e2 0198     		ldr	r0, [sp, #4]
 186 00e4 FFF7FEFF 		bl	lv_draw_sw_blend
 187              	.LVL13:
 188 00e8 DCE7     		b	.L8
 189              	.L14:
1433:Drivers/lvgl/lvgl/src/draw/sw/lv_draw_sw_rect.c ****     }
 190              		.loc 1 1433 0
 191 00ea 05A9     		add	r1, sp, #20
 192 00ec 0198     		ldr	r0, [sp, #4]
 193 00ee FFF7FEFF 		bl	lv_draw_sw_blend
 194              	.LVL14:
 195              		.loc 1 1435 0
 196 00f2 E2E7     		b	.L1
 197              		.cfi_endproc
 198              	.LFE169:
 200              		.section	.text.shadow_blur_corner,"ax",%progbits
 201              		.align	1
 202              		.syntax unified
 203              		.thumb
 204              		.thumb_func
 205              		.fpu fpv5-d16
 207              	shadow_blur_corner:
 208              	.LFB166:
1041:Drivers/lvgl/lvgl/src/draw/sw/lv_draw_sw_rect.c ****     int32_t s_left = sw >> 1;
 209              		.loc 1 1041 0
 210              		.cfi_startproc
 211              		@ args = 0, pretend = 0, frame = 16
 212              		@ frame_needed = 0, uses_anonymous_args = 0
 213              	.LVL15:
 214 0000 2DE9F04F 		push	{r4, r5, r6, r7, r8, r9, r10, fp, lr}
ARM GAS  /tmp/ccV6ypnB.s 			page 30


 215              	.LCFI4:
 216              		.cfi_def_cfa_offset 36
 217              		.cfi_offset 4, -36
 218              		.cfi_offset 5, -32
 219              		.cfi_offset 6, -28
 220              		.cfi_offset 7, -24
 221              		.cfi_offset 8, -20
 222              		.cfi_offset 9, -16
 223              		.cfi_offset 10, -12
 224              		.cfi_offset 11, -8
 225              		.cfi_offset 14, -4
 226 0004 85B0     		sub	sp, sp, #20
 227              	.LCFI5:
 228              		.cfi_def_cfa_offset 56
 229 0006 0290     		str	r0, [sp, #8]
 230 0008 0191     		str	r1, [sp, #4]
 231 000a 1646     		mov	r6, r2
1042:Drivers/lvgl/lvgl/src/draw/sw/lv_draw_sw_rect.c ****     int32_t s_right = (sw >> 1);
 232              		.loc 1 1042 0
 233 000c 4FEA6108 		asr	r8, r1, #1
 234              	.LVL16:
1044:Drivers/lvgl/lvgl/src/draw/sw/lv_draw_sw_rect.c **** 
 235              		.loc 1 1044 0
 236 0010 11F0010F 		tst	r1, #1
 237 0014 02D1     		bne	.L39
1044:Drivers/lvgl/lvgl/src/draw/sw/lv_draw_sw_rect.c **** 
 238              		.loc 1 1044 0 is_stmt 0 discriminator 1
 239 0016 08F1FF39 		add	r9, r8, #-1
 240              	.LVL17:
 241 001a 00E0     		b	.L16
 242              	.LVL18:
 243              	.L39:
1042:Drivers/lvgl/lvgl/src/draw/sw/lv_draw_sw_rect.c ****     int32_t s_right = (sw >> 1);
 244              		.loc 1 1042 0 is_stmt 1
 245 001c C146     		mov	r9, r8
 246              	.LVL19:
 247              	.L16:
1047:Drivers/lvgl/lvgl/src/draw/sw/lv_draw_sw_rect.c **** 
 248              		.loc 1 1047 0
 249 001e 029B     		ldr	r3, [sp, #8]
 250 0020 9A46     		mov	r10, r3
 251 0022 5D00     		lsls	r5, r3, #1
 252 0024 2846     		mov	r0, r5
 253              	.LVL20:
 254 0026 FFF7FEFF 		bl	lv_mem_buf_get
 255              	.LVL21:
 256 002a 0446     		mov	r4, r0
 257              	.LVL22:
1052:Drivers/lvgl/lvgl/src/draw/sw/lv_draw_sw_rect.c **** 
 258              		.loc 1 1052 0
 259 002c 3746     		mov	r7, r6
1054:Drivers/lvgl/lvgl/src/draw/sw/lv_draw_sw_rect.c ****         int32_t v = sh_ups_tmp_buf[size - 1] * sw;
 260              		.loc 1 1054 0
 261 002e 4FF0000B 		mov	fp, #0
 262 0032 0396     		str	r6, [sp, #12]
 263 0034 029E     		ldr	r6, [sp, #8]
 264              	.LVL23:
ARM GAS  /tmp/ccV6ypnB.s 			page 31


 265 0036 21E0     		b	.L17
 266              	.LVL24:
 267              	.L40:
 268              	.LBB112:
 269              	.LBB113:
1060:Drivers/lvgl/lvgl/src/draw/sw/lv_draw_sw_rect.c ****             if(x + s_right < size) right_val = sh_ups_tmp_buf[x + s_right];
 270              		.loc 1 1060 0
 271 0038 0022     		movs	r2, #0
 272              	.LVL25:
 273              	.L19:
1062:Drivers/lvgl/lvgl/src/draw/sw/lv_draw_sw_rect.c **** 
 274              		.loc 1 1062 0
 275 003a 9B1A     		subs	r3, r3, r2
 276              	.LVL26:
1066:Drivers/lvgl/lvgl/src/draw/sw/lv_draw_sw_rect.c ****             else left_val = sh_ups_tmp_buf[x - s_left - 1];
 277              		.loc 1 1066 0
 278 003c A0EB0902 		sub	r2, r0, r9
 279              	.LVL27:
 280 0040 012A     		cmp	r2, #1
 281 0042 11D4     		bmi	.L43
1067:Drivers/lvgl/lvgl/src/draw/sw/lv_draw_sw_rect.c ****             v += left_val;
 282              		.loc 1 1067 0
 283 0044 6FF0004C 		mvn	ip, #-2147483648
 284 0048 9444     		add	ip, ip, r2
 285 004a 37F81C20 		ldrh	r2, [r7, ip, lsl #1]
 286              	.LVL28:
 287              	.L21:
1068:Drivers/lvgl/lvgl/src/draw/sw/lv_draw_sw_rect.c ****         }
 288              		.loc 1 1068 0 discriminator 2
 289 004e 1344     		add	r3, r3, r2
 290              	.LVL29:
 291              	.LBE113:
1056:Drivers/lvgl/lvgl/src/draw/sw/lv_draw_sw_rect.c ****             sh_ups_blur_buf[x] = v;
 292              		.loc 1 1056 0 discriminator 2
 293 0050 0138     		subs	r0, r0, #1
 294              	.LVL30:
 295              	.L18:
1056:Drivers/lvgl/lvgl/src/draw/sw/lv_draw_sw_rect.c ****             sh_ups_blur_buf[x] = v;
 296              		.loc 1 1056 0 is_stmt 0 discriminator 1
 297 0052 0028     		cmp	r0, #0
 298 0054 0ADB     		blt	.L44
 299              	.LBB114:
1057:Drivers/lvgl/lvgl/src/draw/sw/lv_draw_sw_rect.c **** 
 300              		.loc 1 1057 0 is_stmt 1
 301 0056 24F81030 		strh	r3, [r4, r0, lsl #1]	@ movhi
 302              	.LVL31:
1061:Drivers/lvgl/lvgl/src/draw/sw/lv_draw_sw_rect.c ****             v -= right_val;
 303              		.loc 1 1061 0
 304 005a 00EB0802 		add	r2, r0, r8
 305 005e 8A42     		cmp	r2, r1
 306 0060 EADA     		bge	.L40
1061:Drivers/lvgl/lvgl/src/draw/sw/lv_draw_sw_rect.c ****             v -= right_val;
 307              		.loc 1 1061 0 is_stmt 0 discriminator 1
 308 0062 37F81220 		ldrh	r2, [r7, r2, lsl #1]
 309              	.LVL32:
 310 0066 E8E7     		b	.L19
 311              	.LVL33:
ARM GAS  /tmp/ccV6ypnB.s 			page 32


 312              	.L43:
1066:Drivers/lvgl/lvgl/src/draw/sw/lv_draw_sw_rect.c ****             else left_val = sh_ups_tmp_buf[x - s_left - 1];
 313              		.loc 1 1066 0 is_stmt 1 discriminator 1
 314 0068 3A88     		ldrh	r2, [r7]
 315              	.LVL34:
 316 006a F0E7     		b	.L21
 317              	.LVL35:
 318              	.L44:
 319              	.LBE114:
1070:Drivers/lvgl/lvgl/src/draw/sw/lv_draw_sw_rect.c ****         sh_ups_tmp_buf += size;
 320              		.loc 1 1070 0 discriminator 2
 321 006c 2A46     		mov	r2, r5
 322 006e 2146     		mov	r1, r4
 323 0070 3846     		mov	r0, r7
 324              	.LVL36:
 325 0072 FFF7FEFF 		bl	lv_memcpy
 326              	.LVL37:
1071:Drivers/lvgl/lvgl/src/draw/sw/lv_draw_sw_rect.c ****     }
 327              		.loc 1 1071 0 discriminator 2
 328 0076 2F44     		add	r7, r7, r5
 329              	.LVL38:
 330              	.LBE112:
1054:Drivers/lvgl/lvgl/src/draw/sw/lv_draw_sw_rect.c ****         int32_t v = sh_ups_tmp_buf[size - 1] * sw;
 331              		.loc 1 1054 0 discriminator 2
 332 0078 0BF1010B 		add	fp, fp, #1
 333              	.LVL39:
 334              	.L17:
1054:Drivers/lvgl/lvgl/src/draw/sw/lv_draw_sw_rect.c ****         int32_t v = sh_ups_tmp_buf[size - 1] * sw;
 335              		.loc 1 1054 0 is_stmt 0 discriminator 1
 336 007c 3146     		mov	r1, r6
 337 007e 5E45     		cmp	r6, fp
 338 0080 09DD     		ble	.L45
 339              	.LBB115:
1055:Drivers/lvgl/lvgl/src/draw/sw/lv_draw_sw_rect.c ****         for(x = size - 1; x >= 0; x--) {
 340              		.loc 1 1055 0 is_stmt 1
 341 0082 6FF00043 		mvn	r3, #-2147483648
 342 0086 5344     		add	r3, r3, r10
 343 0088 37F81330 		ldrh	r3, [r7, r3, lsl #1]
 344 008c 019A     		ldr	r2, [sp, #4]
 345 008e 02FB03F3 		mul	r3, r2, r3
 346              	.LVL40:
1056:Drivers/lvgl/lvgl/src/draw/sw/lv_draw_sw_rect.c ****             sh_ups_blur_buf[x] = v;
 347              		.loc 1 1056 0
 348 0092 701E     		subs	r0, r6, #1
 349              	.LVL41:
 350 0094 DDE7     		b	.L18
 351              	.LVL42:
 352              	.L45:
 353 0096 039E     		ldr	r6, [sp, #12]
 354              	.LVL43:
 355              	.LBE115:
1077:Drivers/lvgl/lvgl/src/draw/sw/lv_draw_sw_rect.c ****     for(i = 0; i < (uint32_t)size * size; i++) {
 356              		.loc 1 1077 0
 357 0098 4FF47F57 		mov	r7, #16320
 358              	.LVL44:
 359 009c 019A     		ldr	r2, [sp, #4]
 360 009e B7FBF2F7 		udiv	r7, r7, r2
ARM GAS  /tmp/ccV6ypnB.s 			page 33


 361              	.LVL45:
1078:Drivers/lvgl/lvgl/src/draw/sw/lv_draw_sw_rect.c ****         if(sh_ups_buf[i] == 0) continue;
 362              		.loc 1 1078 0
 363 00a2 0023     		movs	r3, #0
 364 00a4 9446     		mov	ip, r2
 365 00a6 01E0     		b	.L24
 366              	.LVL46:
 367              	.L47:
1080:Drivers/lvgl/lvgl/src/draw/sw/lv_draw_sw_rect.c ****         else sh_ups_buf[i] = sh_ups_buf[i] / sw;
 368              		.loc 1 1080 0 discriminator 1
 369 00a8 3752     		strh	r7, [r6, r0]	@ movhi
 370              	.L25:
1078:Drivers/lvgl/lvgl/src/draw/sw/lv_draw_sw_rect.c ****         if(sh_ups_buf[i] == 0) continue;
 371              		.loc 1 1078 0 discriminator 2
 372 00aa 0133     		adds	r3, r3, #1
 373              	.LVL47:
 374              	.L24:
1078:Drivers/lvgl/lvgl/src/draw/sw/lv_draw_sw_rect.c ****         if(sh_ups_buf[i] == 0) continue;
 375              		.loc 1 1078 0 is_stmt 0 discriminator 1
 376 00ac 0AFB0AF2 		mul	r2, r10, r10
 377 00b0 9A42     		cmp	r2, r3
 378 00b2 0BD9     		bls	.L46
1079:Drivers/lvgl/lvgl/src/draw/sw/lv_draw_sw_rect.c ****         else if(sh_ups_buf[i] == max_v) sh_ups_buf[i] = max_v_div;
 379              		.loc 1 1079 0 is_stmt 1
 380 00b4 5800     		lsls	r0, r3, #1
 381 00b6 36F81320 		ldrh	r2, [r6, r3, lsl #1]
 382 00ba 002A     		cmp	r2, #0
 383 00bc F5D0     		beq	.L25
1080:Drivers/lvgl/lvgl/src/draw/sw/lv_draw_sw_rect.c ****         else sh_ups_buf[i] = sh_ups_buf[i] / sw;
 384              		.loc 1 1080 0
 385 00be B2F57F5F 		cmp	r2, #16320
 386 00c2 F1D0     		beq	.L47
1081:Drivers/lvgl/lvgl/src/draw/sw/lv_draw_sw_rect.c ****     }
 387              		.loc 1 1081 0
 388 00c4 92FBFCF2 		sdiv	r2, r2, ip
 389 00c8 3252     		strh	r2, [r6, r0]	@ movhi
 390 00ca EEE7     		b	.L25
 391              	.L46:
1084:Drivers/lvgl/lvgl/src/draw/sw/lv_draw_sw_rect.c ****         sh_ups_tmp_buf = &sh_ups_buf[x];
 392              		.loc 1 1084 0
 393 00cc 4FF0000C 		mov	ip, #0
 394 00d0 DDF804A0 		ldr	r10, [sp, #4]
 395 00d4 32E0     		b	.L28
 396              	.LVL48:
 397              	.L41:
 398              	.LBB116:
 399              	.LBB117:
1088:Drivers/lvgl/lvgl/src/draw/sw/lv_draw_sw_rect.c **** 
 400              		.loc 1 1088 0
 401 00d6 0020     		movs	r0, #0
 402 00d8 10E0     		b	.L30
 403              	.L49:
1092:Drivers/lvgl/lvgl/src/draw/sw/lv_draw_sw_rect.c ****             else top_val = sh_ups_buf[(y - s_right) * size + x];
 404              		.loc 1 1092 0 discriminator 1
 405 00da BEF80000 		ldrh	r0, [lr]
 406              	.LVL49:
 407 00de 17E0     		b	.L32
ARM GAS  /tmp/ccV6ypnB.s 			page 34


 408              	.LVL50:
 409              	.L33:
1099:Drivers/lvgl/lvgl/src/draw/sw/lv_draw_sw_rect.c ****             v += bottom_val;
 410              		.loc 1 1099 0
 411 00e0 481E     		subs	r0, r1, #1
 412 00e2 00FB01C0 		mla	r0, r0, r1, ip
 413 00e6 36F81000 		ldrh	r0, [r6, r0, lsl #1]
 414              	.LVL51:
 415              	.L34:
1100:Drivers/lvgl/lvgl/src/draw/sw/lv_draw_sw_rect.c ****         }
 416              		.loc 1 1100 0 discriminator 2
 417 00ea 0244     		add	r2, r2, r0
 418              	.LVL52:
 419              	.LBE117:
1087:Drivers/lvgl/lvgl/src/draw/sw/lv_draw_sw_rect.c ****             sh_ups_blur_buf[y] = v < 0 ? 0 : (v >> SHADOW_UPSCALE_SHIFT);
 420              		.loc 1 1087 0 discriminator 2
 421 00ec 0133     		adds	r3, r3, #1
 422              	.LVL53:
 423 00ee AE44     		add	lr, lr, r5
 424              	.LVL54:
 425              	.L29:
1087:Drivers/lvgl/lvgl/src/draw/sw/lv_draw_sw_rect.c ****             sh_ups_blur_buf[y] = v < 0 ? 0 : (v >> SHADOW_UPSCALE_SHIFT);
 426              		.loc 1 1087 0 is_stmt 0 discriminator 1
 427 00f0 9942     		cmp	r1, r3
 428 00f2 18DD     		ble	.L48
 429              	.LBB118:
1088:Drivers/lvgl/lvgl/src/draw/sw/lv_draw_sw_rect.c **** 
 430              		.loc 1 1088 0 is_stmt 1
 431 00f4 002A     		cmp	r2, #0
 432 00f6 EEDB     		blt	.L41
1088:Drivers/lvgl/lvgl/src/draw/sw/lv_draw_sw_rect.c **** 
 433              		.loc 1 1088 0 is_stmt 0 discriminator 1
 434 00f8 C2F38F10 		ubfx	r0, r2, #6, #16
 435              	.L30:
1088:Drivers/lvgl/lvgl/src/draw/sw/lv_draw_sw_rect.c **** 
 436              		.loc 1 1088 0 discriminator 4
 437 00fc 24F81300 		strh	r0, [r4, r3, lsl #1]	@ movhi
1092:Drivers/lvgl/lvgl/src/draw/sw/lv_draw_sw_rect.c ****             else top_val = sh_ups_buf[(y - s_right) * size + x];
 438              		.loc 1 1092 0 is_stmt 1 discriminator 4
 439 0100 A3EB0800 		sub	r0, r3, r8
 440 0104 0028     		cmp	r0, #0
 441 0106 E8DD     		ble	.L49
1093:Drivers/lvgl/lvgl/src/draw/sw/lv_draw_sw_rect.c ****             v -= top_val;
 442              		.loc 1 1093 0
 443 0108 00FB01C0 		mla	r0, r0, r1, ip
 444 010c 36F81000 		ldrh	r0, [r6, r0, lsl #1]
 445              	.LVL55:
 446              	.L32:
1094:Drivers/lvgl/lvgl/src/draw/sw/lv_draw_sw_rect.c **** 
 447              		.loc 1 1094 0
 448 0110 121A     		subs	r2, r2, r0
 449              	.LVL56:
1098:Drivers/lvgl/lvgl/src/draw/sw/lv_draw_sw_rect.c ****             else bottom_val = sh_ups_buf[(size - 1) * size + x];
 450              		.loc 1 1098 0
 451 0112 09EB0300 		add	r0, r9, r3
 452              	.LVL57:
 453 0116 0130     		adds	r0, r0, #1
ARM GAS  /tmp/ccV6ypnB.s 			page 35


 454 0118 8142     		cmp	r1, r0
 455 011a E1DD     		ble	.L33
1098:Drivers/lvgl/lvgl/src/draw/sw/lv_draw_sw_rect.c ****             else bottom_val = sh_ups_buf[(size - 1) * size + x];
 456              		.loc 1 1098 0 is_stmt 0 discriminator 1
 457 011c 00FB01C0 		mla	r0, r0, r1, ip
 458 0120 36F81000 		ldrh	r0, [r6, r0, lsl #1]
 459              	.LVL58:
 460 0124 E1E7     		b	.L34
 461              	.LVL59:
 462              	.L48:
 463              	.LBE118:
1105:Drivers/lvgl/lvgl/src/draw/sw/lv_draw_sw_rect.c ****             (*sh_ups_tmp_buf) = sh_ups_blur_buf[y];
 464              		.loc 1 1105 0 is_stmt 1
 465 0126 0023     		movs	r3, #0
 466              	.LVL60:
 467 0128 04E0     		b	.L36
 468              	.LVL61:
 469              	.L37:
1106:Drivers/lvgl/lvgl/src/draw/sw/lv_draw_sw_rect.c ****         }
 470              		.loc 1 1106 0 discriminator 3
 471 012a 34F81320 		ldrh	r2, [r4, r3, lsl #1]
 472 012e 3A80     		strh	r2, [r7]	@ movhi
1105:Drivers/lvgl/lvgl/src/draw/sw/lv_draw_sw_rect.c ****             (*sh_ups_tmp_buf) = sh_ups_blur_buf[y];
 473              		.loc 1 1105 0 discriminator 3
 474 0130 0133     		adds	r3, r3, #1
 475              	.LVL62:
 476 0132 2F44     		add	r7, r7, r5
 477              	.LVL63:
 478              	.L36:
1105:Drivers/lvgl/lvgl/src/draw/sw/lv_draw_sw_rect.c ****             (*sh_ups_tmp_buf) = sh_ups_blur_buf[y];
 479              		.loc 1 1105 0 is_stmt 0 discriminator 1
 480 0134 9942     		cmp	r1, r3
 481 0136 F8DC     		bgt	.L37
 482              	.LBE116:
1084:Drivers/lvgl/lvgl/src/draw/sw/lv_draw_sw_rect.c ****         sh_ups_tmp_buf = &sh_ups_buf[x];
 483              		.loc 1 1084 0 is_stmt 1 discriminator 2
 484 0138 0CF1010C 		add	ip, ip, #1
 485              	.LVL64:
 486              	.L28:
1084:Drivers/lvgl/lvgl/src/draw/sw/lv_draw_sw_rect.c ****         sh_ups_tmp_buf = &sh_ups_buf[x];
 487              		.loc 1 1084 0 is_stmt 0 discriminator 1
 488 013c 6145     		cmp	r1, ip
 489 013e 08DD     		ble	.L50
 490              	.LBB119:
1085:Drivers/lvgl/lvgl/src/draw/sw/lv_draw_sw_rect.c ****         int32_t v = sh_ups_tmp_buf[0] * sw;
 491              		.loc 1 1085 0 is_stmt 1
 492 0140 06EB4C07 		add	r7, r6, ip, lsl #1
 493              	.LVL65:
1086:Drivers/lvgl/lvgl/src/draw/sw/lv_draw_sw_rect.c ****         for(y = 0; y < size ; y++, sh_ups_tmp_buf += size) {
 494              		.loc 1 1086 0
 495 0144 36F81C20 		ldrh	r2, [r6, ip, lsl #1]
 496 0148 0AFB02F2 		mul	r2, r10, r2
 497              	.LVL66:
1085:Drivers/lvgl/lvgl/src/draw/sw/lv_draw_sw_rect.c ****         int32_t v = sh_ups_tmp_buf[0] * sw;
 498              		.loc 1 1085 0
 499 014c BE46     		mov	lr, r7
1087:Drivers/lvgl/lvgl/src/draw/sw/lv_draw_sw_rect.c ****             sh_ups_blur_buf[y] = v < 0 ? 0 : (v >> SHADOW_UPSCALE_SHIFT);
ARM GAS  /tmp/ccV6ypnB.s 			page 36


 500              		.loc 1 1087 0
 501 014e 0023     		movs	r3, #0
 502 0150 CEE7     		b	.L29
 503              	.LVL67:
 504              	.L50:
 505              	.LBE119:
1110:Drivers/lvgl/lvgl/src/draw/sw/lv_draw_sw_rect.c **** }
 506              		.loc 1 1110 0
 507 0152 2046     		mov	r0, r4
 508 0154 FFF7FEFF 		bl	lv_mem_buf_release
 509              	.LVL68:
1111:Drivers/lvgl/lvgl/src/draw/sw/lv_draw_sw_rect.c **** #endif
 510              		.loc 1 1111 0
 511 0158 05B0     		add	sp, sp, #20
 512              	.LCFI6:
 513              		.cfi_def_cfa_offset 36
 514              		@ sp needed
 515 015a BDE8F08F 		pop	{r4, r5, r6, r7, r8, r9, r10, fp, pc}
 516              		.cfi_endproc
 517              	.LFE166:
 519              		.section	.text.shadow_draw_corner_buf,"ax",%progbits
 520              		.align	1
 521              		.syntax unified
 522              		.thumb
 523              		.thumb_func
 524              		.fpu fpv5-d16
 526              	shadow_draw_corner_buf:
 527              	.LFB165:
 955:Drivers/lvgl/lvgl/src/draw/sw/lv_draw_sw_rect.c ****     int32_t sw_ori = sw;
 528              		.loc 1 955 0
 529              		.cfi_startproc
 530              		@ args = 0, pretend = 0, frame = 40
 531              		@ frame_needed = 0, uses_anonymous_args = 0
 532              	.LVL69:
 533 0000 2DE9F04F 		push	{r4, r5, r6, r7, r8, r9, r10, fp, lr}
 534              	.LCFI7:
 535              		.cfi_def_cfa_offset 36
 536              		.cfi_offset 4, -36
 537              		.cfi_offset 5, -32
 538              		.cfi_offset 6, -28
 539              		.cfi_offset 7, -24
 540              		.cfi_offset 8, -20
 541              		.cfi_offset 9, -16
 542              		.cfi_offset 10, -12
 543              		.cfi_offset 11, -8
 544              		.cfi_offset 14, -4
 545 0004 8DB0     		sub	sp, sp, #52
 546              	.LCFI8:
 547              		.cfi_def_cfa_offset 88
 548 0006 8A46     		mov	r10, r1
 549 0008 9146     		mov	r9, r2
 550 000a 1A46     		mov	r2, r3
 551              	.LVL70:
 957:Drivers/lvgl/lvgl/src/draw/sw/lv_draw_sw_rect.c **** 
 552              		.loc 1 957 0
 553 000c 03EB0905 		add	r5, r3, r9
 554              	.LVL71:
ARM GAS  /tmp/ccV6ypnB.s 			page 37


 961:Drivers/lvgl/lvgl/src/draw/sw/lv_draw_sw_rect.c ****     sh_area.y1 = sw / 2 + 1;
 555              		.loc 1 961 0
 556 0010 4946     		mov	r1, r9
 557              	.LVL72:
 558 0012 B9F1000F 		cmp	r9, #0
 559 0016 36DB     		blt	.L78
 560              	.L52:
 561 0018 C1F34F01 		ubfx	r1, r1, #1, #16
 562 001c 8B18     		adds	r3, r1, r2
 563              	.LVL73:
 564 001e 9BB2     		uxth	r3, r3
 565 0020 19F00104 		ands	r4, r9, #1
 566 0024 0394     		str	r4, [sp, #12]
 567 0026 0CBF     		ite	eq
 568 0028 0124     		moveq	r4, #1
 569 002a 0024     		movne	r4, #0
 570 002c 1B1B     		subs	r3, r3, r4
 571 002e 013B     		subs	r3, r3, #1
 572 0030 9BB2     		uxth	r3, r3
 573 0032 ADF82C30 		strh	r3, [sp, #44]	@ movhi
 962:Drivers/lvgl/lvgl/src/draw/sw/lv_draw_sw_rect.c **** 
 574              		.loc 1 962 0
 575 0036 0131     		adds	r1, r1, #1
 576 0038 89B2     		uxth	r1, r1
 577 003a ADF82A10 		strh	r1, [sp, #42]	@ movhi
 578              	.LVL74:
 579              	.LBB120:
 580              	.LBB121:
 581              		.file 2 "Drivers/lvgl/lvgl/src/draw/sw/../../misc/lv_area.h"
   1:Drivers/lvgl/lvgl/src/draw/sw/../../misc/lv_area.h **** /**
   2:Drivers/lvgl/lvgl/src/draw/sw/../../misc/lv_area.h ****  * @file lv_area.h
   3:Drivers/lvgl/lvgl/src/draw/sw/../../misc/lv_area.h ****  *
   4:Drivers/lvgl/lvgl/src/draw/sw/../../misc/lv_area.h ****  */
   5:Drivers/lvgl/lvgl/src/draw/sw/../../misc/lv_area.h **** 
   6:Drivers/lvgl/lvgl/src/draw/sw/../../misc/lv_area.h **** #ifndef LV_AREA_H
   7:Drivers/lvgl/lvgl/src/draw/sw/../../misc/lv_area.h **** #define LV_AREA_H
   8:Drivers/lvgl/lvgl/src/draw/sw/../../misc/lv_area.h **** 
   9:Drivers/lvgl/lvgl/src/draw/sw/../../misc/lv_area.h **** #ifdef __cplusplus
  10:Drivers/lvgl/lvgl/src/draw/sw/../../misc/lv_area.h **** extern "C" {
  11:Drivers/lvgl/lvgl/src/draw/sw/../../misc/lv_area.h **** #endif
  12:Drivers/lvgl/lvgl/src/draw/sw/../../misc/lv_area.h **** 
  13:Drivers/lvgl/lvgl/src/draw/sw/../../misc/lv_area.h **** /*********************
  14:Drivers/lvgl/lvgl/src/draw/sw/../../misc/lv_area.h ****  *      INCLUDES
  15:Drivers/lvgl/lvgl/src/draw/sw/../../misc/lv_area.h ****  *********************/
  16:Drivers/lvgl/lvgl/src/draw/sw/../../misc/lv_area.h **** #include "../lv_conf_internal.h"
  17:Drivers/lvgl/lvgl/src/draw/sw/../../misc/lv_area.h **** #include <stdbool.h>
  18:Drivers/lvgl/lvgl/src/draw/sw/../../misc/lv_area.h **** #include <stdint.h>
  19:Drivers/lvgl/lvgl/src/draw/sw/../../misc/lv_area.h **** 
  20:Drivers/lvgl/lvgl/src/draw/sw/../../misc/lv_area.h **** /*********************
  21:Drivers/lvgl/lvgl/src/draw/sw/../../misc/lv_area.h ****  *      DEFINES
  22:Drivers/lvgl/lvgl/src/draw/sw/../../misc/lv_area.h ****  *********************/
  23:Drivers/lvgl/lvgl/src/draw/sw/../../misc/lv_area.h **** 
  24:Drivers/lvgl/lvgl/src/draw/sw/../../misc/lv_area.h **** #if LV_USE_LARGE_COORD
  25:Drivers/lvgl/lvgl/src/draw/sw/../../misc/lv_area.h **** typedef int32_t lv_coord_t;
  26:Drivers/lvgl/lvgl/src/draw/sw/../../misc/lv_area.h **** #else
  27:Drivers/lvgl/lvgl/src/draw/sw/../../misc/lv_area.h **** typedef int16_t lv_coord_t;
  28:Drivers/lvgl/lvgl/src/draw/sw/../../misc/lv_area.h **** #endif
ARM GAS  /tmp/ccV6ypnB.s 			page 38


  29:Drivers/lvgl/lvgl/src/draw/sw/../../misc/lv_area.h **** 
  30:Drivers/lvgl/lvgl/src/draw/sw/../../misc/lv_area.h **** /**********************
  31:Drivers/lvgl/lvgl/src/draw/sw/../../misc/lv_area.h ****  *      TYPEDEFS
  32:Drivers/lvgl/lvgl/src/draw/sw/../../misc/lv_area.h ****  **********************/
  33:Drivers/lvgl/lvgl/src/draw/sw/../../misc/lv_area.h **** 
  34:Drivers/lvgl/lvgl/src/draw/sw/../../misc/lv_area.h **** /**
  35:Drivers/lvgl/lvgl/src/draw/sw/../../misc/lv_area.h ****  * Represents a point on the screen.
  36:Drivers/lvgl/lvgl/src/draw/sw/../../misc/lv_area.h ****  */
  37:Drivers/lvgl/lvgl/src/draw/sw/../../misc/lv_area.h **** typedef struct {
  38:Drivers/lvgl/lvgl/src/draw/sw/../../misc/lv_area.h ****     lv_coord_t x;
  39:Drivers/lvgl/lvgl/src/draw/sw/../../misc/lv_area.h ****     lv_coord_t y;
  40:Drivers/lvgl/lvgl/src/draw/sw/../../misc/lv_area.h **** } lv_point_t;
  41:Drivers/lvgl/lvgl/src/draw/sw/../../misc/lv_area.h **** 
  42:Drivers/lvgl/lvgl/src/draw/sw/../../misc/lv_area.h **** /** Represents an area of the screen.*/
  43:Drivers/lvgl/lvgl/src/draw/sw/../../misc/lv_area.h **** typedef struct {
  44:Drivers/lvgl/lvgl/src/draw/sw/../../misc/lv_area.h ****     lv_coord_t x1;
  45:Drivers/lvgl/lvgl/src/draw/sw/../../misc/lv_area.h ****     lv_coord_t y1;
  46:Drivers/lvgl/lvgl/src/draw/sw/../../misc/lv_area.h ****     lv_coord_t x2;
  47:Drivers/lvgl/lvgl/src/draw/sw/../../misc/lv_area.h ****     lv_coord_t y2;
  48:Drivers/lvgl/lvgl/src/draw/sw/../../misc/lv_area.h **** } lv_area_t;
  49:Drivers/lvgl/lvgl/src/draw/sw/../../misc/lv_area.h **** 
  50:Drivers/lvgl/lvgl/src/draw/sw/../../misc/lv_area.h **** /** Alignments*/
  51:Drivers/lvgl/lvgl/src/draw/sw/../../misc/lv_area.h **** enum {
  52:Drivers/lvgl/lvgl/src/draw/sw/../../misc/lv_area.h ****     LV_ALIGN_DEFAULT = 0,
  53:Drivers/lvgl/lvgl/src/draw/sw/../../misc/lv_area.h ****     LV_ALIGN_TOP_LEFT,
  54:Drivers/lvgl/lvgl/src/draw/sw/../../misc/lv_area.h ****     LV_ALIGN_TOP_MID,
  55:Drivers/lvgl/lvgl/src/draw/sw/../../misc/lv_area.h ****     LV_ALIGN_TOP_RIGHT,
  56:Drivers/lvgl/lvgl/src/draw/sw/../../misc/lv_area.h ****     LV_ALIGN_BOTTOM_LEFT,
  57:Drivers/lvgl/lvgl/src/draw/sw/../../misc/lv_area.h ****     LV_ALIGN_BOTTOM_MID,
  58:Drivers/lvgl/lvgl/src/draw/sw/../../misc/lv_area.h ****     LV_ALIGN_BOTTOM_RIGHT,
  59:Drivers/lvgl/lvgl/src/draw/sw/../../misc/lv_area.h ****     LV_ALIGN_LEFT_MID,
  60:Drivers/lvgl/lvgl/src/draw/sw/../../misc/lv_area.h ****     LV_ALIGN_RIGHT_MID,
  61:Drivers/lvgl/lvgl/src/draw/sw/../../misc/lv_area.h ****     LV_ALIGN_CENTER,
  62:Drivers/lvgl/lvgl/src/draw/sw/../../misc/lv_area.h **** 
  63:Drivers/lvgl/lvgl/src/draw/sw/../../misc/lv_area.h ****     LV_ALIGN_OUT_TOP_LEFT,
  64:Drivers/lvgl/lvgl/src/draw/sw/../../misc/lv_area.h ****     LV_ALIGN_OUT_TOP_MID,
  65:Drivers/lvgl/lvgl/src/draw/sw/../../misc/lv_area.h ****     LV_ALIGN_OUT_TOP_RIGHT,
  66:Drivers/lvgl/lvgl/src/draw/sw/../../misc/lv_area.h ****     LV_ALIGN_OUT_BOTTOM_LEFT,
  67:Drivers/lvgl/lvgl/src/draw/sw/../../misc/lv_area.h ****     LV_ALIGN_OUT_BOTTOM_MID,
  68:Drivers/lvgl/lvgl/src/draw/sw/../../misc/lv_area.h ****     LV_ALIGN_OUT_BOTTOM_RIGHT,
  69:Drivers/lvgl/lvgl/src/draw/sw/../../misc/lv_area.h ****     LV_ALIGN_OUT_LEFT_TOP,
  70:Drivers/lvgl/lvgl/src/draw/sw/../../misc/lv_area.h ****     LV_ALIGN_OUT_LEFT_MID,
  71:Drivers/lvgl/lvgl/src/draw/sw/../../misc/lv_area.h ****     LV_ALIGN_OUT_LEFT_BOTTOM,
  72:Drivers/lvgl/lvgl/src/draw/sw/../../misc/lv_area.h ****     LV_ALIGN_OUT_RIGHT_TOP,
  73:Drivers/lvgl/lvgl/src/draw/sw/../../misc/lv_area.h ****     LV_ALIGN_OUT_RIGHT_MID,
  74:Drivers/lvgl/lvgl/src/draw/sw/../../misc/lv_area.h ****     LV_ALIGN_OUT_RIGHT_BOTTOM,
  75:Drivers/lvgl/lvgl/src/draw/sw/../../misc/lv_area.h **** };
  76:Drivers/lvgl/lvgl/src/draw/sw/../../misc/lv_area.h **** typedef uint8_t lv_align_t;
  77:Drivers/lvgl/lvgl/src/draw/sw/../../misc/lv_area.h **** 
  78:Drivers/lvgl/lvgl/src/draw/sw/../../misc/lv_area.h **** enum {
  79:Drivers/lvgl/lvgl/src/draw/sw/../../misc/lv_area.h ****     LV_DIR_NONE     = 0x00,
  80:Drivers/lvgl/lvgl/src/draw/sw/../../misc/lv_area.h ****     LV_DIR_LEFT     = (1 << 0),
  81:Drivers/lvgl/lvgl/src/draw/sw/../../misc/lv_area.h ****     LV_DIR_RIGHT    = (1 << 1),
  82:Drivers/lvgl/lvgl/src/draw/sw/../../misc/lv_area.h ****     LV_DIR_TOP      = (1 << 2),
  83:Drivers/lvgl/lvgl/src/draw/sw/../../misc/lv_area.h ****     LV_DIR_BOTTOM   = (1 << 3),
  84:Drivers/lvgl/lvgl/src/draw/sw/../../misc/lv_area.h ****     LV_DIR_HOR      = LV_DIR_LEFT | LV_DIR_RIGHT,
  85:Drivers/lvgl/lvgl/src/draw/sw/../../misc/lv_area.h ****     LV_DIR_VER      = LV_DIR_TOP | LV_DIR_BOTTOM,
ARM GAS  /tmp/ccV6ypnB.s 			page 39


  86:Drivers/lvgl/lvgl/src/draw/sw/../../misc/lv_area.h ****     LV_DIR_ALL      = LV_DIR_HOR | LV_DIR_VER,
  87:Drivers/lvgl/lvgl/src/draw/sw/../../misc/lv_area.h **** };
  88:Drivers/lvgl/lvgl/src/draw/sw/../../misc/lv_area.h **** 
  89:Drivers/lvgl/lvgl/src/draw/sw/../../misc/lv_area.h **** typedef uint8_t lv_dir_t;
  90:Drivers/lvgl/lvgl/src/draw/sw/../../misc/lv_area.h **** 
  91:Drivers/lvgl/lvgl/src/draw/sw/../../misc/lv_area.h **** /**********************
  92:Drivers/lvgl/lvgl/src/draw/sw/../../misc/lv_area.h ****  * GLOBAL PROTOTYPES
  93:Drivers/lvgl/lvgl/src/draw/sw/../../misc/lv_area.h ****  **********************/
  94:Drivers/lvgl/lvgl/src/draw/sw/../../misc/lv_area.h **** 
  95:Drivers/lvgl/lvgl/src/draw/sw/../../misc/lv_area.h **** /**
  96:Drivers/lvgl/lvgl/src/draw/sw/../../misc/lv_area.h ****  * Initialize an area
  97:Drivers/lvgl/lvgl/src/draw/sw/../../misc/lv_area.h ****  * @param area_p pointer to an area
  98:Drivers/lvgl/lvgl/src/draw/sw/../../misc/lv_area.h ****  * @param x1 left coordinate of the area
  99:Drivers/lvgl/lvgl/src/draw/sw/../../misc/lv_area.h ****  * @param y1 top coordinate of the area
 100:Drivers/lvgl/lvgl/src/draw/sw/../../misc/lv_area.h ****  * @param x2 right coordinate of the area
 101:Drivers/lvgl/lvgl/src/draw/sw/../../misc/lv_area.h ****  * @param y2 bottom coordinate of the area
 102:Drivers/lvgl/lvgl/src/draw/sw/../../misc/lv_area.h ****  */
 103:Drivers/lvgl/lvgl/src/draw/sw/../../misc/lv_area.h **** void lv_area_set(lv_area_t * area_p, lv_coord_t x1, lv_coord_t y1, lv_coord_t x2, lv_coord_t y2);
 104:Drivers/lvgl/lvgl/src/draw/sw/../../misc/lv_area.h **** 
 105:Drivers/lvgl/lvgl/src/draw/sw/../../misc/lv_area.h **** /**
 106:Drivers/lvgl/lvgl/src/draw/sw/../../misc/lv_area.h ****  * Copy an area
 107:Drivers/lvgl/lvgl/src/draw/sw/../../misc/lv_area.h ****  * @param dest pointer to the destination area
 108:Drivers/lvgl/lvgl/src/draw/sw/../../misc/lv_area.h ****  * @param src pointer to the source area
 109:Drivers/lvgl/lvgl/src/draw/sw/../../misc/lv_area.h ****  */
 110:Drivers/lvgl/lvgl/src/draw/sw/../../misc/lv_area.h **** inline static void lv_area_copy(lv_area_t * dest, const lv_area_t * src)
 111:Drivers/lvgl/lvgl/src/draw/sw/../../misc/lv_area.h **** {
 112:Drivers/lvgl/lvgl/src/draw/sw/../../misc/lv_area.h ****     dest->x1 = src->x1;
 113:Drivers/lvgl/lvgl/src/draw/sw/../../misc/lv_area.h ****     dest->y1 = src->y1;
 114:Drivers/lvgl/lvgl/src/draw/sw/../../misc/lv_area.h ****     dest->x2 = src->x2;
 115:Drivers/lvgl/lvgl/src/draw/sw/../../misc/lv_area.h ****     dest->y2 = src->y2;
 116:Drivers/lvgl/lvgl/src/draw/sw/../../misc/lv_area.h **** }
 117:Drivers/lvgl/lvgl/src/draw/sw/../../misc/lv_area.h **** 
 118:Drivers/lvgl/lvgl/src/draw/sw/../../misc/lv_area.h **** /**
 119:Drivers/lvgl/lvgl/src/draw/sw/../../misc/lv_area.h ****  * Get the width of an area
 120:Drivers/lvgl/lvgl/src/draw/sw/../../misc/lv_area.h ****  * @param area_p pointer to an area
 121:Drivers/lvgl/lvgl/src/draw/sw/../../misc/lv_area.h ****  * @return the width of the area (if x1 == x2 -> width = 1)
 122:Drivers/lvgl/lvgl/src/draw/sw/../../misc/lv_area.h ****  */
 123:Drivers/lvgl/lvgl/src/draw/sw/../../misc/lv_area.h **** static inline lv_coord_t lv_area_get_width(const lv_area_t * area_p)
 124:Drivers/lvgl/lvgl/src/draw/sw/../../misc/lv_area.h **** {
 125:Drivers/lvgl/lvgl/src/draw/sw/../../misc/lv_area.h ****     return (lv_coord_t)(area_p->x2 - area_p->x1 + 1);
 582              		.loc 2 125 0
 583 003e 8488     		ldrh	r4, [r0, #4]
 584 0040 0688     		ldrh	r6, [r0]
 585 0042 A41B     		subs	r4, r4, r6
 586 0044 A4B2     		uxth	r4, r4
 587 0046 0134     		adds	r4, r4, #1
 588 0048 A4B2     		uxth	r4, r4
 589              	.LVL75:
 590              	.LBE121:
 591              	.LBE120:
 964:Drivers/lvgl/lvgl/src/draw/sw/lv_draw_sw_rect.c ****     sh_area.y2 = sh_area.y1 + lv_area_get_height(coords);
 592              		.loc 1 964 0
 593 004a 1B1B     		subs	r3, r3, r4
 594 004c ADF82830 		strh	r3, [sp, #40]	@ movhi
 595              	.LVL76:
 596              	.LBB122:
 597              	.LBB123:
ARM GAS  /tmp/ccV6ypnB.s 			page 40


 126:Drivers/lvgl/lvgl/src/draw/sw/../../misc/lv_area.h **** }
 127:Drivers/lvgl/lvgl/src/draw/sw/../../misc/lv_area.h **** 
 128:Drivers/lvgl/lvgl/src/draw/sw/../../misc/lv_area.h **** /**
 129:Drivers/lvgl/lvgl/src/draw/sw/../../misc/lv_area.h ****  * Get the height of an area
 130:Drivers/lvgl/lvgl/src/draw/sw/../../misc/lv_area.h ****  * @param area_p pointer to an area
 131:Drivers/lvgl/lvgl/src/draw/sw/../../misc/lv_area.h ****  * @return the height of the area (if y1 == y2 -> height = 1)
 132:Drivers/lvgl/lvgl/src/draw/sw/../../misc/lv_area.h ****  */
 133:Drivers/lvgl/lvgl/src/draw/sw/../../misc/lv_area.h **** static inline lv_coord_t lv_area_get_height(const lv_area_t * area_p)
 134:Drivers/lvgl/lvgl/src/draw/sw/../../misc/lv_area.h **** {
 135:Drivers/lvgl/lvgl/src/draw/sw/../../misc/lv_area.h ****     return (lv_coord_t)(area_p->y2 - area_p->y1 + 1);
 598              		.loc 2 135 0
 599 0050 C388     		ldrh	r3, [r0, #6]
 600 0052 4088     		ldrh	r0, [r0, #2]
 601              	.LVL77:
 602 0054 1B1A     		subs	r3, r3, r0
 603 0056 9BB2     		uxth	r3, r3
 604 0058 0133     		adds	r3, r3, #1
 605              	.LVL78:
 606              	.LBE123:
 607              	.LBE122:
 965:Drivers/lvgl/lvgl/src/draw/sw/lv_draw_sw_rect.c **** 
 608              		.loc 1 965 0
 609 005a 11FA83F1 		uxtah	r1, r1, r3
 610 005e ADF82E10 		strh	r1, [sp, #46]	@ movhi
 968:Drivers/lvgl/lvgl/src/draw/sw/lv_draw_sw_rect.c **** 
 611              		.loc 1 968 0
 612 0062 0023     		movs	r3, #0
 613 0064 0AA9     		add	r1, sp, #40
 614 0066 04A8     		add	r0, sp, #16
 615 0068 FFF7FEFF 		bl	lv_draw_mask_radius_init
 616              	.LVL79:
 972:Drivers/lvgl/lvgl/src/draw/sw/lv_draw_sw_rect.c ****     else sw = sw_ori >> 1;
 617              		.loc 1 972 0
 618 006c B9F1010F 		cmp	r9, #1
 619 0070 0CD0     		beq	.L74
 973:Drivers/lvgl/lvgl/src/draw/sw/lv_draw_sw_rect.c **** #endif
 620              		.loc 1 973 0
 621 0072 4FEA6909 		asr	r9, r9, #1
 622              	.LVL80:
 623              	.L53:
 977:Drivers/lvgl/lvgl/src/draw/sw/lv_draw_sw_rect.c ****     uint16_t * sh_ups_tmp_buf = (uint16_t *)sh_buf;
 624              		.loc 1 977 0
 625 0076 A846     		mov	r8, r5
 626 0078 2846     		mov	r0, r5
 627 007a FFF7FEFF 		bl	lv_mem_buf_get
 628              	.LVL81:
 629 007e 0446     		mov	r4, r0
 630              	.LVL82:
 978:Drivers/lvgl/lvgl/src/draw/sw/lv_draw_sw_rect.c ****     for(y = 0; y < size; y++) {
 631              		.loc 1 978 0
 632 0080 5646     		mov	r6, r10
 979:Drivers/lvgl/lvgl/src/draw/sw/lv_draw_sw_rect.c ****         lv_memset_ff(mask_line, size);
 633              		.loc 1 979 0
 634 0082 0027     		movs	r7, #0
 635 0084 0DE0     		b	.L54
 636              	.LVL83:
 637              	.L78:
ARM GAS  /tmp/ccV6ypnB.s 			page 41


 961:Drivers/lvgl/lvgl/src/draw/sw/lv_draw_sw_rect.c ****     sh_area.y1 = sw / 2 + 1;
 638              		.loc 1 961 0
 639 0086 09F10101 		add	r1, r9, #1
 640              	.LVL84:
 641 008a C5E7     		b	.L52
 642              	.LVL85:
 643              	.L74:
 972:Drivers/lvgl/lvgl/src/draw/sw/lv_draw_sw_rect.c ****     else sw = sw_ori >> 1;
 644              		.loc 1 972 0
 645 008c 4FF00109 		mov	r9, #1
 646              	.LVL86:
 647 0090 F1E7     		b	.L53
 648              	.LVL87:
 649              	.L80:
 650              	.LBB124:
 983:Drivers/lvgl/lvgl/src/draw/sw/lv_draw_sw_rect.c ****         }
 651              		.loc 1 983 0
 652 0092 4FEA4801 		lsl	r1, r8, #1
 653 0096 3046     		mov	r0, r6
 654              	.LVL88:
 655 0098 FFF7FEFF 		bl	lv_memset_00
 656              	.LVL89:
 657              	.L56:
 994:Drivers/lvgl/lvgl/src/draw/sw/lv_draw_sw_rect.c ****     }
 658              		.loc 1 994 0 discriminator 2
 659 009c 06EB4806 		add	r6, r6, r8, lsl #1
 660              	.LVL90:
 661              	.LBE124:
 979:Drivers/lvgl/lvgl/src/draw/sw/lv_draw_sw_rect.c ****         lv_memset_ff(mask_line, size);
 662              		.loc 1 979 0 discriminator 2
 663 00a0 0137     		adds	r7, r7, #1
 664              	.LVL91:
 665              	.L54:
 979:Drivers/lvgl/lvgl/src/draw/sw/lv_draw_sw_rect.c ****         lv_memset_ff(mask_line, size);
 666              		.loc 1 979 0 is_stmt 0 discriminator 1
 667 00a2 AF42     		cmp	r7, r5
 668 00a4 2CDA     		bge	.L79
 669              	.LBB126:
 980:Drivers/lvgl/lvgl/src/draw/sw/lv_draw_sw_rect.c ****         lv_draw_mask_res_t mask_res = mask_param.dsc.cb(mask_line, 0, y, size, &mask_param);
 670              		.loc 1 980 0 is_stmt 1
 671 00a6 4146     		mov	r1, r8
 672 00a8 2046     		mov	r0, r4
 673 00aa FFF7FEFF 		bl	lv_memset_ff
 674              	.LVL92:
 981:Drivers/lvgl/lvgl/src/draw/sw/lv_draw_sw_rect.c ****         if(mask_res == LV_DRAW_MASK_RES_TRANSP) {
 675              		.loc 1 981 0
 676 00ae 0CAB     		add	r3, sp, #48
 677 00b0 53F820BD 		ldr	fp, [r3, #-32]!
 678 00b4 0093     		str	r3, [sp]
 679 00b6 2BB2     		sxth	r3, r5
 680 00b8 3AB2     		sxth	r2, r7
 681 00ba 0021     		movs	r1, #0
 682 00bc 2046     		mov	r0, r4
 683 00be D847     		blx	fp
 684              	.LVL93:
 982:Drivers/lvgl/lvgl/src/draw/sw/lv_draw_sw_rect.c ****             lv_memset_00(sh_ups_tmp_buf, size * sizeof(sh_ups_tmp_buf[0]));
 685              		.loc 1 982 0
ARM GAS  /tmp/ccV6ypnB.s 			page 42


 686 00c0 0028     		cmp	r0, #0
 687 00c2 E6D0     		beq	.L80
 688              	.LBB125:
 987:Drivers/lvgl/lvgl/src/draw/sw/lv_draw_sw_rect.c ****             for(i = 1; i < size; i++) {
 689              		.loc 1 987 0
 690 00c4 2378     		ldrb	r3, [r4]	@ zero_extendqisi2
 691 00c6 9B01     		lsls	r3, r3, #6
 692 00c8 4846     		mov	r0, r9
 693              	.LVL94:
 694 00ca 93FBF9F3 		sdiv	r3, r3, r9
 695 00ce 3380     		strh	r3, [r6]	@ movhi
 696              	.LVL95:
 988:Drivers/lvgl/lvgl/src/draw/sw/lv_draw_sw_rect.c ****                 if(mask_line[i] == mask_line[i - 1]) sh_ups_tmp_buf[i] = sh_ups_tmp_buf[i - 1];
 697              		.loc 1 988 0
 698 00d0 0123     		movs	r3, #1
 699 00d2 07E0     		b	.L57
 700              	.LVL96:
 701              	.L81:
 989:Drivers/lvgl/lvgl/src/draw/sw/lv_draw_sw_rect.c ****                 else  sh_ups_tmp_buf[i] = (mask_line[i] << SHADOW_UPSCALE_SHIFT) / sw;
 702              		.loc 1 989 0 discriminator 1
 703 00d4 6FF00042 		mvn	r2, #-2147483648
 704 00d8 1A44     		add	r2, r2, r3
 705 00da 36F81220 		ldrh	r2, [r6, r2, lsl #1]
 706 00de 26F81320 		strh	r2, [r6, r3, lsl #1]	@ movhi
 707              	.L59:
 988:Drivers/lvgl/lvgl/src/draw/sw/lv_draw_sw_rect.c ****                 if(mask_line[i] == mask_line[i - 1]) sh_ups_tmp_buf[i] = sh_ups_tmp_buf[i - 1];
 708              		.loc 1 988 0 discriminator 2
 709 00e2 0133     		adds	r3, r3, #1
 710              	.LVL97:
 711              	.L57:
 988:Drivers/lvgl/lvgl/src/draw/sw/lv_draw_sw_rect.c ****                 if(mask_line[i] == mask_line[i - 1]) sh_ups_tmp_buf[i] = sh_ups_tmp_buf[i - 1];
 712              		.loc 1 988 0 is_stmt 0 discriminator 1
 713 00e4 AB42     		cmp	r3, r5
 714 00e6 D9DA     		bge	.L56
 989:Drivers/lvgl/lvgl/src/draw/sw/lv_draw_sw_rect.c ****                 else  sh_ups_tmp_buf[i] = (mask_line[i] << SHADOW_UPSCALE_SHIFT) / sw;
 715              		.loc 1 989 0 is_stmt 1
 716 00e8 E25C     		ldrb	r2, [r4, r3]	@ zero_extendqisi2
 717 00ea E118     		adds	r1, r4, r3
 718 00ec 11F8011C 		ldrb	r1, [r1, #-1]	@ zero_extendqisi2
 719 00f0 8A42     		cmp	r2, r1
 720 00f2 EFD0     		beq	.L81
 990:Drivers/lvgl/lvgl/src/draw/sw/lv_draw_sw_rect.c ****             }
 721              		.loc 1 990 0
 722 00f4 9201     		lsls	r2, r2, #6
 723 00f6 92FBF0F2 		sdiv	r2, r2, r0
 724 00fa 26F81320 		strh	r2, [r6, r3, lsl #1]	@ movhi
 725 00fe F0E7     		b	.L59
 726              	.LVL98:
 727              	.L79:
 728              	.LBE125:
 729              	.LBE126:
 996:Drivers/lvgl/lvgl/src/draw/sw/lv_draw_sw_rect.c **** 
 730              		.loc 1 996 0
 731 0100 2046     		mov	r0, r4
 732 0102 FFF7FEFF 		bl	lv_mem_buf_release
 733              	.LVL99:
 998:Drivers/lvgl/lvgl/src/draw/sw/lv_draw_sw_rect.c **** 
ARM GAS  /tmp/ccV6ypnB.s 			page 43


 734              		.loc 1 998 0
 735 0106 04A8     		add	r0, sp, #16
 736 0108 FFF7FEFF 		bl	lv_draw_mask_free_param
 737              	.LVL100:
1000:Drivers/lvgl/lvgl/src/draw/sw/lv_draw_sw_rect.c ****         int32_t i;
 738              		.loc 1 1000 0
 739 010c B9F1010F 		cmp	r9, #1
 740 0110 0ED1     		bne	.L82
 741              	.LBB127:
1003:Drivers/lvgl/lvgl/src/draw/sw/lv_draw_sw_rect.c ****             res_buf[i] = (sh_buf[i] >> SHADOW_UPSCALE_SHIFT);
 742              		.loc 1 1003 0
 743 0112 0023     		movs	r3, #0
 744 0114 05E0     		b	.L62
 745              	.LVL101:
 746              	.L64:
1004:Drivers/lvgl/lvgl/src/draw/sw/lv_draw_sw_rect.c ****         }
 747              		.loc 1 1004 0 discriminator 3
 748 0116 3AF81320 		ldrh	r2, [r10, r3, lsl #1]
 749 011a 9209     		lsrs	r2, r2, #6
 750 011c 0AF80320 		strb	r2, [r10, r3]
1003:Drivers/lvgl/lvgl/src/draw/sw/lv_draw_sw_rect.c ****             res_buf[i] = (sh_buf[i] >> SHADOW_UPSCALE_SHIFT);
 751              		.loc 1 1003 0 discriminator 3
 752 0120 0133     		adds	r3, r3, #1
 753              	.LVL102:
 754              	.L62:
1003:Drivers/lvgl/lvgl/src/draw/sw/lv_draw_sw_rect.c ****             res_buf[i] = (sh_buf[i] >> SHADOW_UPSCALE_SHIFT);
 755              		.loc 1 1003 0 is_stmt 0 discriminator 1
 756 0122 05FB05F2 		mul	r2, r5, r5
 757 0126 9A42     		cmp	r2, r3
 758 0128 F5DC     		bgt	.L64
 759              	.LVL103:
 760              	.L51:
 761              	.LBE127:
1038:Drivers/lvgl/lvgl/src/draw/sw/lv_draw_sw_rect.c **** 
 762              		.loc 1 1038 0 is_stmt 1
 763 012a 0DB0     		add	sp, sp, #52
 764              	.LCFI9:
 765              		.cfi_remember_state
 766              		.cfi_def_cfa_offset 36
 767              		@ sp needed
 768 012c BDE8F08F 		pop	{r4, r5, r6, r7, r8, r9, r10, fp, pc}
 769              	.LVL104:
 770              	.L82:
 771              	.LCFI10:
 772              		.cfi_restore_state
1009:Drivers/lvgl/lvgl/src/draw/sw/lv_draw_sw_rect.c **** 
 773              		.loc 1 1009 0
 774 0130 2CB2     		sxth	r4, r5
 775              	.LVL105:
 776 0132 5246     		mov	r2, r10
 777 0134 4946     		mov	r1, r9
 778 0136 2046     		mov	r0, r4
 779 0138 FFF7FEFF 		bl	shadow_blur_corner
 780              	.LVL106:
1019:Drivers/lvgl/lvgl/src/draw/sw/lv_draw_sw_rect.c ****     if(sw > 1) {
 781              		.loc 1 1019 0
 782 013c 039B     		ldr	r3, [sp, #12]
ARM GAS  /tmp/ccV6ypnB.s 			page 44


 783 013e 4B44     		add	r3, r3, r9
 784 0140 1946     		mov	r1, r3
 785              	.LVL107:
1020:Drivers/lvgl/lvgl/src/draw/sw/lv_draw_sw_rect.c ****         uint32_t i;
 786              		.loc 1 1020 0
 787 0142 012B     		cmp	r3, #1
 788 0144 1EDD     		ble	.L66
 789              	.LBB128:
1022:Drivers/lvgl/lvgl/src/draw/sw/lv_draw_sw_rect.c ****         for(i = 0; i < (uint32_t)size * size; i++) {
 790              		.loc 1 1022 0
 791 0146 1F46     		mov	r7, r3
 792              	.LVL108:
 793 0148 4FF47F56 		mov	r6, #16320
 794              	.LVL109:
 795 014c 96FBF3F6 		sdiv	r6, r6, r3
 796              	.LVL110:
1023:Drivers/lvgl/lvgl/src/draw/sw/lv_draw_sw_rect.c ****             if(sh_buf[i] == 0) continue;
 797              		.loc 1 1023 0
 798 0150 0023     		movs	r3, #0
 799              	.LVL111:
 800 0152 02E0     		b	.L67
 801              	.LVL112:
 802              	.L84:
1025:Drivers/lvgl/lvgl/src/draw/sw/lv_draw_sw_rect.c ****             else  sh_buf[i] = (sh_buf[i] << SHADOW_UPSCALE_SHIFT) / sw;
 803              		.loc 1 1025 0 discriminator 1
 804 0154 2AF80060 		strh	r6, [r10, r0]	@ movhi
 805              	.L68:
1023:Drivers/lvgl/lvgl/src/draw/sw/lv_draw_sw_rect.c ****             if(sh_buf[i] == 0) continue;
 806              		.loc 1 1023 0 discriminator 2
 807 0158 0133     		adds	r3, r3, #1
 808              	.LVL113:
 809              	.L67:
1023:Drivers/lvgl/lvgl/src/draw/sw/lv_draw_sw_rect.c ****             if(sh_buf[i] == 0) continue;
 810              		.loc 1 1023 0 is_stmt 0 discriminator 1
 811 015a 08FB08F2 		mul	r2, r8, r8
 812 015e 9A42     		cmp	r2, r3
 813 0160 0CD9     		bls	.L83
1024:Drivers/lvgl/lvgl/src/draw/sw/lv_draw_sw_rect.c ****             else if(sh_buf[i] == LV_OPA_COVER) sh_buf[i] = max_v_div;
 814              		.loc 1 1024 0 is_stmt 1
 815 0162 5800     		lsls	r0, r3, #1
 816 0164 3AF81320 		ldrh	r2, [r10, r3, lsl #1]
 817 0168 002A     		cmp	r2, #0
 818 016a F5D0     		beq	.L68
1025:Drivers/lvgl/lvgl/src/draw/sw/lv_draw_sw_rect.c ****             else  sh_buf[i] = (sh_buf[i] << SHADOW_UPSCALE_SHIFT) / sw;
 819              		.loc 1 1025 0
 820 016c FF2A     		cmp	r2, #255
 821 016e F1D0     		beq	.L84
1026:Drivers/lvgl/lvgl/src/draw/sw/lv_draw_sw_rect.c ****         }
 822              		.loc 1 1026 0
 823 0170 9201     		lsls	r2, r2, #6
 824 0172 92FBF7F2 		sdiv	r2, r2, r7
 825 0176 2AF80020 		strh	r2, [r10, r0]	@ movhi
 826 017a EDE7     		b	.L68
 827              	.L83:
1029:Drivers/lvgl/lvgl/src/draw/sw/lv_draw_sw_rect.c ****     }
 828              		.loc 1 1029 0
 829 017c 5246     		mov	r2, r10
ARM GAS  /tmp/ccV6ypnB.s 			page 45


 830 017e 2046     		mov	r0, r4
 831 0180 FFF7FEFF 		bl	shadow_blur_corner
 832              	.LVL114:
 833              	.L66:
1023:Drivers/lvgl/lvgl/src/draw/sw/lv_draw_sw_rect.c ****             if(sh_buf[i] == 0) continue;
 834              		.loc 1 1023 0 discriminator 1
 835 0184 0023     		movs	r3, #0
 836 0186 04E0     		b	.L71
 837              	.LVL115:
 838              	.L72:
 839              	.LBE128:
1034:Drivers/lvgl/lvgl/src/draw/sw/lv_draw_sw_rect.c ****     }
 840              		.loc 1 1034 0 discriminator 3
 841 0188 3AF81320 		ldrh	r2, [r10, r3, lsl #1]
 842 018c 0AF80320 		strb	r2, [r10, r3]
1033:Drivers/lvgl/lvgl/src/draw/sw/lv_draw_sw_rect.c ****         res_buf[x] = sh_buf[x];
 843              		.loc 1 1033 0 discriminator 3
 844 0190 0133     		adds	r3, r3, #1
 845              	.LVL116:
 846              	.L71:
1033:Drivers/lvgl/lvgl/src/draw/sw/lv_draw_sw_rect.c ****         res_buf[x] = sh_buf[x];
 847              		.loc 1 1033 0 is_stmt 0 discriminator 1
 848 0192 05FB05F2 		mul	r2, r5, r5
 849 0196 9A42     		cmp	r2, r3
 850 0198 F6DC     		bgt	.L72
 851 019a C6E7     		b	.L51
 852              		.cfi_endproc
 853              	.LFE165:
 855              		.section	.text.draw_shadow,"ax",%progbits
 856              		.align	1
 857              		.syntax unified
 858              		.thumb
 859              		.thumb_func
 860              		.fpu fpv5-d16
 862              	draw_shadow:
 863              	.LFB164:
 435:Drivers/lvgl/lvgl/src/draw/sw/lv_draw_sw_rect.c ****     /*Check whether the shadow is visible*/
 864              		.loc 1 435 0 is_stmt 1
 865              		.cfi_startproc
 866              		@ args = 0, pretend = 0, frame = 144
 867              		@ frame_needed = 0, uses_anonymous_args = 0
 868              	.LVL117:
 869 0000 2DE9F04F 		push	{r4, r5, r6, r7, r8, r9, r10, fp, lr}
 870              	.LCFI11:
 871              		.cfi_def_cfa_offset 36
 872              		.cfi_offset 4, -36
 873              		.cfi_offset 5, -32
 874              		.cfi_offset 6, -28
 875              		.cfi_offset 7, -24
 876              		.cfi_offset 8, -20
 877              		.cfi_offset 9, -16
 878              		.cfi_offset 10, -12
 879              		.cfi_offset 11, -8
 880              		.cfi_offset 14, -4
 881 0004 A5B0     		sub	sp, sp, #148
 882              	.LCFI12:
 883              		.cfi_def_cfa_offset 184
ARM GAS  /tmp/ccV6ypnB.s 			page 46


 437:Drivers/lvgl/lvgl/src/draw/sw/lv_draw_sw_rect.c ****     if(dsc->shadow_opa <= LV_OPA_MIN) return;
 884              		.loc 1 437 0
 885 0006 B1F92E60 		ldrsh	r6, [r1, #46]
 886 000a 002E     		cmp	r6, #0
 887 000c 51D0     		beq	.L85
 438:Drivers/lvgl/lvgl/src/draw/sw/lv_draw_sw_rect.c **** 
 888              		.loc 1 438 0
 889 000e 91F83690 		ldrb	r9, [r1, #54]	@ zero_extendqisi2
 890 0012 B9F1020F 		cmp	r9, #2
 891 0016 4CD9     		bls	.L85
 440:Drivers/lvgl/lvgl/src/draw/sw/lv_draw_sw_rect.c ****        dsc->shadow_ofs_x == 0 && dsc->shadow_ofs_y == 0) {
 892              		.loc 1 440 0
 893 0018 012E     		cmp	r6, #1
 894 001a 4DD0     		beq	.L184
 895              	.L87:
 447:Drivers/lvgl/lvgl/src/draw/sw/lv_draw_sw_rect.c ****     core_area.x2 = coords->x2  + dsc->shadow_ofs_x + dsc->shadow_spread;
 896              		.loc 1 447 0
 897 001c 1488     		ldrh	r4, [r2]
 898 001e B1F830C0 		ldrh	ip, [r1, #48]
 899 0022 6444     		add	r4, r4, ip
 900 0024 A4B2     		uxth	r4, r4
 901 0026 8D8E     		ldrh	r5, [r1, #52]
 902 0028 641B     		subs	r4, r4, r5
 903 002a A4B2     		uxth	r4, r4
 904 002c ADF88840 		strh	r4, [sp, #136]	@ movhi
 448:Drivers/lvgl/lvgl/src/draw/sw/lv_draw_sw_rect.c ****     core_area.y1 = coords->y1  + dsc->shadow_ofs_y - dsc->shadow_spread;
 905              		.loc 1 448 0
 906 0030 9388     		ldrh	r3, [r2, #4]
 907 0032 9C44     		add	ip, ip, r3
 908 0034 15FA8CFC 		uxtah	ip, r5, ip
 909 0038 1FFA8CFC 		uxth	ip, ip
 910 003c ADF88CC0 		strh	ip, [sp, #140]	@ movhi
 449:Drivers/lvgl/lvgl/src/draw/sw/lv_draw_sw_rect.c ****     core_area.y2 = coords->y2  + dsc->shadow_ofs_y + dsc->shadow_spread;
 911              		.loc 1 449 0
 912 0040 5388     		ldrh	r3, [r2, #2]
 913 0042 4F8E     		ldrh	r7, [r1, #50]
 914 0044 3B44     		add	r3, r3, r7
 915 0046 9BB2     		uxth	r3, r3
 916 0048 5B1B     		subs	r3, r3, r5
 917 004a 9BB2     		uxth	r3, r3
 918 004c ADF88A30 		strh	r3, [sp, #138]	@ movhi
 450:Drivers/lvgl/lvgl/src/draw/sw/lv_draw_sw_rect.c **** 
 919              		.loc 1 450 0
 920 0050 B2F806E0 		ldrh	lr, [r2, #6]
 921 0054 7744     		add	r7, r7, lr
 922 0056 15FA87F7 		uxtah	r7, r5, r7
 923 005a BFB2     		uxth	r7, r7
 924 005c ADF88E70 		strh	r7, [sp, #142]	@ movhi
 454:Drivers/lvgl/lvgl/src/draw/sw/lv_draw_sw_rect.c ****     shadow_area.x2 = core_area.x2 + dsc->shadow_width / 2 + 1;
 925              		.loc 1 454 0
 926 0060 3546     		mov	r5, r6
 927 0062 002E     		cmp	r6, #0
 928 0064 30DB     		blt	.L185
 929              	.L88:
 930 0066 C5F34F05 		ubfx	r5, r5, #1, #16
 931 006a 661B     		subs	r6, r4, r5
 932 006c B6B2     		uxth	r6, r6
ARM GAS  /tmp/ccV6ypnB.s 			page 47


 933 006e 013E     		subs	r6, r6, #1
 934 0070 ADF88060 		strh	r6, [sp, #128]	@ movhi
 455:Drivers/lvgl/lvgl/src/draw/sw/lv_draw_sw_rect.c ****     shadow_area.y1 = core_area.y1 - dsc->shadow_width / 2 - 1;
 935              		.loc 1 455 0
 936 0074 0CEB0504 		add	r4, ip, r5
 937 0078 A4B2     		uxth	r4, r4
 938 007a 0134     		adds	r4, r4, #1
 939 007c ADF88440 		strh	r4, [sp, #132]	@ movhi
 456:Drivers/lvgl/lvgl/src/draw/sw/lv_draw_sw_rect.c ****     shadow_area.y2 = core_area.y2 + dsc->shadow_width / 2 + 1;
 940              		.loc 1 456 0
 941 0080 5C1B     		subs	r4, r3, r5
 942 0082 A4B2     		uxth	r4, r4
 943 0084 013C     		subs	r4, r4, #1
 944 0086 ADF88240 		strh	r4, [sp, #130]	@ movhi
 457:Drivers/lvgl/lvgl/src/draw/sw/lv_draw_sw_rect.c **** 
 945              		.loc 1 457 0
 946 008a 7B19     		adds	r3, r7, r5
 947 008c 9BB2     		uxth	r3, r3
 948 008e 0133     		adds	r3, r3, #1
 949 0090 ADF88630 		strh	r3, [sp, #134]	@ movhi
 950              	.LVL118:
 460:Drivers/lvgl/lvgl/src/draw/sw/lv_draw_sw_rect.c **** 
 951              		.loc 1 460 0
 952 0094 B9F1FD0F 		cmp	r9, #253
 953 0098 01D9     		bls	.L89
 954 009a 4FF0FF09 		mov	r9, #255
 955              	.LVL119:
 956              	.L89:
 957 009e 1446     		mov	r4, r2
 958 00a0 0D46     		mov	r5, r1
 959 00a2 0646     		mov	r6, r0
 960              	.LVL120:
 465:Drivers/lvgl/lvgl/src/draw/sw/lv_draw_sw_rect.c **** 
 961              		.loc 1 465 0
 962 00a4 8268     		ldr	r2, [r0, #8]
 963              	.LVL121:
 964 00a6 20A9     		add	r1, sp, #128
 965              	.LVL122:
 966 00a8 1EA8     		add	r0, sp, #120
 967              	.LVL123:
 968 00aa FFF7FEFF 		bl	_lv_area_intersect
 969              	.LVL124:
 970 00ae 0090     		str	r0, [sp]
 971 00b0 60B9     		cbnz	r0, .L186
 972              	.LVL125:
 973              	.L85:
 944:Drivers/lvgl/lvgl/src/draw/sw/lv_draw_sw_rect.c **** 
 974              		.loc 1 944 0
 975 00b2 25B0     		add	sp, sp, #148
 976              	.LCFI13:
 977              		.cfi_remember_state
 978              		.cfi_def_cfa_offset 36
 979              		@ sp needed
 980 00b4 BDE8F08F 		pop	{r4, r5, r6, r7, r8, r9, r10, fp, pc}
 981              	.LVL126:
 982              	.L184:
 983              	.LCFI14:
ARM GAS  /tmp/ccV6ypnB.s 			page 48


 984              		.cfi_restore_state
 440:Drivers/lvgl/lvgl/src/draw/sw/lv_draw_sw_rect.c ****        dsc->shadow_ofs_x == 0 && dsc->shadow_ofs_y == 0) {
 985              		.loc 1 440 0 discriminator 1
 986 00b8 B1F93430 		ldrsh	r3, [r1, #52]
 987 00bc 002B     		cmp	r3, #0
 988 00be ADDC     		bgt	.L87
 441:Drivers/lvgl/lvgl/src/draw/sw/lv_draw_sw_rect.c ****         return;
 989              		.loc 1 441 0
 990 00c0 0B6B     		ldr	r3, [r1, #48]
 991 00c2 002B     		cmp	r3, #0
 992 00c4 F5D0     		beq	.L85
 993 00c6 A9E7     		b	.L87
 994              	.L185:
 454:Drivers/lvgl/lvgl/src/draw/sw/lv_draw_sw_rect.c ****     shadow_area.x2 = core_area.x2 + dsc->shadow_width / 2 + 1;
 995              		.loc 1 454 0
 996 00c8 751C     		adds	r5, r6, #1
 997 00ca CCE7     		b	.L88
 998              	.LVL127:
 999              	.L186:
 1000              	.LBB129:
 1001              	.LBB130:
 112:Drivers/lvgl/lvgl/src/draw/sw/../../misc/lv_area.h ****     dest->y1 = src->y1;
 1002              		.loc 2 112 0
 1003 00cc B4F90030 		ldrsh	r3, [r4]
 1004 00d0 ADF87030 		strh	r3, [sp, #112]	@ movhi
 113:Drivers/lvgl/lvgl/src/draw/sw/../../misc/lv_area.h ****     dest->x2 = src->x2;
 1005              		.loc 2 113 0
 1006 00d4 B4F90230 		ldrsh	r3, [r4, #2]
 1007 00d8 ADF87230 		strh	r3, [sp, #114]	@ movhi
 114:Drivers/lvgl/lvgl/src/draw/sw/../../misc/lv_area.h ****     dest->y2 = src->y2;
 1008              		.loc 2 114 0
 1009 00dc B4F90430 		ldrsh	r3, [r4, #4]
 1010 00e0 ADF87430 		strh	r3, [sp, #116]	@ movhi
 115:Drivers/lvgl/lvgl/src/draw/sw/../../misc/lv_area.h **** }
 1011              		.loc 2 115 0
 1012 00e4 B4F90630 		ldrsh	r3, [r4, #6]
 1013 00e8 ADF87630 		strh	r3, [sp, #118]	@ movhi
 1014              	.LVL128:
 1015              	.LBE130:
 1016              	.LBE129:
 470:Drivers/lvgl/lvgl/src/draw/sw/lv_draw_sw_rect.c **** 
 1017              		.loc 1 470 0
 1018 00ec 4FF0FF32 		mov	r2, #-1
 1019 00f0 1146     		mov	r1, r2
 1020 00f2 1CA8     		add	r0, sp, #112
 1021 00f4 FFF7FEFF 		bl	lv_area_increase
 1022              	.LVL129:
 473:Drivers/lvgl/lvgl/src/draw/sw/lv_draw_sw_rect.c ****     lv_coord_t short_side = LV_MIN(lv_area_get_width(&bg_area), lv_area_get_height(&bg_area));
 1023              		.loc 1 473 0
 1024 00f8 B5F90020 		ldrsh	r2, [r5]
 1025              	.LVL130:
 1026              	.LBB131:
 1027              	.LBB132:
 125:Drivers/lvgl/lvgl/src/draw/sw/../../misc/lv_area.h **** }
 1028              		.loc 2 125 0
 1029 00fc BDF87410 		ldrh	r1, [sp, #116]
 1030 0100 BDF87030 		ldrh	r3, [sp, #112]
ARM GAS  /tmp/ccV6ypnB.s 			page 49


 1031 0104 C91A     		subs	r1, r1, r3
 1032 0106 89B2     		uxth	r1, r1
 1033 0108 0131     		adds	r1, r1, #1
 1034 010a 09B2     		sxth	r1, r1
 1035              	.LVL131:
 1036              	.LBE132:
 1037              	.LBE131:
 1038              	.LBB133:
 1039              	.LBB134:
 1040              		.loc 2 135 0
 1041 010c BDF87630 		ldrh	r3, [sp, #118]
 1042 0110 BDF87200 		ldrh	r0, [sp, #114]
 1043 0114 1B1A     		subs	r3, r3, r0
 1044 0116 9BB2     		uxth	r3, r3
 1045 0118 0133     		adds	r3, r3, #1
 1046 011a 1BB2     		sxth	r3, r3
 1047              	.LVL132:
 1048              	.LBE134:
 1049              	.LBE133:
 474:Drivers/lvgl/lvgl/src/draw/sw/lv_draw_sw_rect.c ****     if(r_bg > short_side >> 1) r_bg = short_side >> 1;
 1050              		.loc 1 474 0
 1051 011c 9942     		cmp	r1, r3
 1052 011e 00DA     		bge	.L90
 1053 0120 0B46     		mov	r3, r1
 1054              	.L90:
 1055              	.LVL133:
 475:Drivers/lvgl/lvgl/src/draw/sw/lv_draw_sw_rect.c **** 
 1056              		.loc 1 475 0 discriminator 4
 1057 0122 5B10     		asrs	r3, r3, #1
 1058              	.LVL134:
 1059 0124 0293     		str	r3, [sp, #8]
 1060 0126 9A42     		cmp	r2, r3
 1061 0128 00DC     		bgt	.L91
 473:Drivers/lvgl/lvgl/src/draw/sw/lv_draw_sw_rect.c ****     lv_coord_t short_side = LV_MIN(lv_area_get_width(&bg_area), lv_area_get_height(&bg_area));
 1062              		.loc 1 473 0
 1063 012a 0292     		str	r2, [sp, #8]
 1064              	.L91:
 1065              	.LVL135:
 1066              	.LBB135:
 1067              	.LBB136:
 125:Drivers/lvgl/lvgl/src/draw/sw/../../misc/lv_area.h **** }
 1068              		.loc 2 125 0
 1069 012c BDF88C30 		ldrh	r3, [sp, #140]
 1070 0130 BDF88810 		ldrh	r1, [sp, #136]
 1071 0134 5B1A     		subs	r3, r3, r1
 1072 0136 9BB2     		uxth	r3, r3
 1073 0138 0133     		adds	r3, r3, #1
 1074 013a 1BB2     		sxth	r3, r3
 1075              	.LVL136:
 1076              	.LBE136:
 1077              	.LBE135:
 1078              	.LBB137:
 1079              	.LBB138:
 1080              		.loc 2 135 0
 1081 013c BDF88E70 		ldrh	r7, [sp, #142]
 1082 0140 BDF88A10 		ldrh	r1, [sp, #138]
 1083 0144 7F1A     		subs	r7, r7, r1
ARM GAS  /tmp/ccV6ypnB.s 			page 50


 1084 0146 BFB2     		uxth	r7, r7
 1085 0148 0137     		adds	r7, r7, #1
 1086 014a 3FB2     		sxth	r7, r7
 1087              	.LVL137:
 1088              	.LBE138:
 1089              	.LBE137:
 479:Drivers/lvgl/lvgl/src/draw/sw/lv_draw_sw_rect.c ****     if(r_sh > short_side >> 1) r_sh = short_side >> 1;
 1090              		.loc 1 479 0
 1091 014c 9F42     		cmp	r7, r3
 1092 014e 00DD     		ble	.L92
 1093 0150 1F46     		mov	r7, r3
 1094              	.L92:
 1095              	.LVL138:
 480:Drivers/lvgl/lvgl/src/draw/sw/lv_draw_sw_rect.c **** 
 1096              		.loc 1 480 0 discriminator 4
 1097 0152 7F10     		asrs	r7, r7, #1
 1098              	.LVL139:
 1099 0154 BA42     		cmp	r2, r7
 1100 0156 00DC     		bgt	.L93
 478:Drivers/lvgl/lvgl/src/draw/sw/lv_draw_sw_rect.c ****     short_side = LV_MIN(lv_area_get_width(&core_area), lv_area_get_height(&core_area));
 1101              		.loc 1 478 0
 1102 0158 1746     		mov	r7, r2
 1103              	.L93:
 1104              	.LVL140:
 484:Drivers/lvgl/lvgl/src/draw/sw/lv_draw_sw_rect.c **** 
 1105              		.loc 1 484 0
 1106 015a B5F92E40 		ldrsh	r4, [r5, #46]
 1107              	.LVL141:
 1108 015e 3C44     		add	r4, r4, r7
 1109              	.LVL142:
 507:Drivers/lvgl/lvgl/src/draw/sw/lv_draw_sw_rect.c ****     shadow_draw_corner_buf(&core_area, (uint16_t *)sh_buf, dsc->shadow_width, r_sh);
 1110              		.loc 1 507 0
 1111 0160 04FB04F0 		mul	r0, r4, r4
 1112 0164 4000     		lsls	r0, r0, #1
 1113 0166 FFF7FEFF 		bl	lv_mem_buf_get
 1114              	.LVL143:
 1115 016a 0146     		mov	r1, r0
 1116 016c 0590     		str	r0, [sp, #20]
 1117              	.LVL144:
 508:Drivers/lvgl/lvgl/src/draw/sw/lv_draw_sw_rect.c **** #endif
 1118              		.loc 1 508 0
 1119 016e 3B46     		mov	r3, r7
 1120 0170 B5F92E20 		ldrsh	r2, [r5, #46]
 1121 0174 22A8     		add	r0, sp, #136
 1122              	.LVL145:
 1123 0176 FFF7FEFF 		bl	shadow_draw_corner_buf
 1124              	.LVL146:
 512:Drivers/lvgl/lvgl/src/draw/sw/lv_draw_sw_rect.c ****     bool simple = true;
 1125              		.loc 1 512 0
 1126 017a 20A8     		add	r0, sp, #128
 1127 017c FFF7FEFF 		bl	lv_draw_mask_is_any
 1128              	.LVL147:
 514:Drivers/lvgl/lvgl/src/draw/sw/lv_draw_sw_rect.c **** 
 1129              		.loc 1 514 0
 1130 0180 20B9     		cbnz	r0, .L94
 514:Drivers/lvgl/lvgl/src/draw/sw/lv_draw_sw_rect.c **** 
 1131              		.loc 1 514 0 is_stmt 0 discriminator 2
ARM GAS  /tmp/ccV6ypnB.s 			page 51


 1132 0182 6B88     		ldrh	r3, [r5, #2]
 1133 0184 B3F57F4F 		cmp	r3, #65280
 1134 0188 00F01081 		beq	.L168
 1135              	.L94:
 1136              	.LVL148:
 521:Drivers/lvgl/lvgl/src/draw/sw/lv_draw_sw_rect.c ****         mask_rout_id = lv_draw_mask_add(&mask_rout_param, NULL);
 1137              		.loc 1 521 0 is_stmt 1
 1138 018c 0123     		movs	r3, #1
 1139 018e 029A     		ldr	r2, [sp, #8]
 1140 0190 1CA9     		add	r1, sp, #112
 1141 0192 16A8     		add	r0, sp, #88
 1142              	.LVL149:
 1143 0194 FFF7FEFF 		bl	lv_draw_mask_radius_init
 1144              	.LVL150:
 522:Drivers/lvgl/lvgl/src/draw/sw/lv_draw_sw_rect.c ****     }
 1145              		.loc 1 522 0
 1146 0198 0021     		movs	r1, #0
 1147 019a 16A8     		add	r0, sp, #88
 1148 019c FFF7FEFF 		bl	lv_draw_mask_add
 1149              	.LVL151:
 1150 01a0 0690     		str	r0, [sp, #24]
 1151              	.LVL152:
 1152 01a2 0023     		movs	r3, #0
 1153 01a4 0093     		str	r3, [sp]
 1154              	.LVL153:
 1155              	.L95:
 1156              	.LBB139:
 1157              	.LBB140:
 125:Drivers/lvgl/lvgl/src/draw/sw/../../misc/lv_area.h **** }
 1158              		.loc 2 125 0
 1159 01a6 BDF88400 		ldrh	r0, [sp, #132]
 1160 01aa BDF88030 		ldrh	r3, [sp, #128]
 1161 01ae C01A     		subs	r0, r0, r3
 1162 01b0 80B2     		uxth	r0, r0
 1163 01b2 0130     		adds	r0, r0, #1
 1164              	.LVL154:
 1165              	.LBE140:
 1166              	.LBE139:
 524:Drivers/lvgl/lvgl/src/draw/sw/lv_draw_sw_rect.c ****     lv_area_t blend_area;
 1167              		.loc 1 524 0
 1168 01b4 00B2     		sxth	r0, r0
 1169 01b6 FFF7FEFF 		bl	lv_mem_buf_get
 1170              	.LVL155:
 1171 01ba 0746     		mov	r7, r0
 1172              	.LVL156:
 1173 01bc 0190     		str	r0, [sp, #4]
 1174              	.LVL157:
 532:Drivers/lvgl/lvgl/src/draw/sw/lv_draw_sw_rect.c ****     blend_dsc.blend_area = &blend_area;
 1175              		.loc 1 532 0
 1176 01be 1C21     		movs	r1, #28
 1177 01c0 0BA8     		add	r0, sp, #44
 1178              	.LVL158:
 1179 01c2 FFF7FEFF 		bl	lv_memset_00
 1180              	.LVL159:
 533:Drivers/lvgl/lvgl/src/draw/sw/lv_draw_sw_rect.c ****     blend_dsc.mask_area = &blend_area;
 1181              		.loc 1 533 0
 1182 01c6 14AB     		add	r3, sp, #80
ARM GAS  /tmp/ccV6ypnB.s 			page 52


 1183 01c8 0B93     		str	r3, [sp, #44]
 534:Drivers/lvgl/lvgl/src/draw/sw/lv_draw_sw_rect.c ****     blend_dsc.mask_buf = mask_buf;
 1184              		.loc 1 534 0
 1185 01ca 1093     		str	r3, [sp, #64]
 535:Drivers/lvgl/lvgl/src/draw/sw/lv_draw_sw_rect.c ****     blend_dsc.color = dsc->shadow_color;
 1186              		.loc 1 535 0
 1187 01cc 0E97     		str	r7, [sp, #56]
 536:Drivers/lvgl/lvgl/src/draw/sw/lv_draw_sw_rect.c ****     blend_dsc.opa = dsc->shadow_opa;
 1188              		.loc 1 536 0
 1189 01ce AB8D     		ldrh	r3, [r5, #44]
 1190 01d0 ADF83430 		strh	r3, [sp, #52]	@ movhi
 537:Drivers/lvgl/lvgl/src/draw/sw/lv_draw_sw_rect.c ****     blend_dsc.blend_mode = dsc->blend_mode;
 1191              		.loc 1 537 0
 1192 01d4 95F83630 		ldrb	r3, [r5, #54]	@ zero_extendqisi2
 1193 01d8 8DF84430 		strb	r3, [sp, #68]
 538:Drivers/lvgl/lvgl/src/draw/sw/lv_draw_sw_rect.c **** 
 1194              		.loc 1 538 0
 1195 01dc AB78     		ldrb	r3, [r5, #2]	@ zero_extendqisi2
 1196 01de 8DF84530 		strb	r3, [sp, #69]
 540:Drivers/lvgl/lvgl/src/draw/sw/lv_draw_sw_rect.c ****     lv_coord_t h_half = shadow_area.y1 + lv_area_get_height(&shadow_area) / 2;
 1197              		.loc 1 540 0
 1198 01e2 BDF88010 		ldrh	r1, [sp, #128]
 1199              	.LVL160:
 1200              	.LBB141:
 1201              	.LBB142:
 125:Drivers/lvgl/lvgl/src/draw/sw/../../misc/lv_area.h **** }
 1202              		.loc 2 125 0
 1203 01e6 BDF98400 		ldrsh	r0, [sp, #132]
 1204 01ea 82B2     		uxth	r2, r0
 1205 01ec 531A     		subs	r3, r2, r1
 1206 01ee 9BB2     		uxth	r3, r3
 1207 01f0 0133     		adds	r3, r3, #1
 1208 01f2 1BB2     		sxth	r3, r3
 1209              	.LVL161:
 1210              	.LBE142:
 1211              	.LBE141:
 540:Drivers/lvgl/lvgl/src/draw/sw/lv_draw_sw_rect.c ****     lv_coord_t h_half = shadow_area.y1 + lv_area_get_height(&shadow_area) / 2;
 1212              		.loc 1 540 0
 1213 01f4 002B     		cmp	r3, #0
 1214 01f6 C0F2DD80 		blt	.L187
 1215              	.L96:
 1216 01fa 01EB6303 		add	r3, r1, r3, asr #1
 1217 01fe 1BB2     		sxth	r3, r3
 1218 0200 0493     		str	r3, [sp, #16]
 1219              	.LVL162:
 541:Drivers/lvgl/lvgl/src/draw/sw/lv_draw_sw_rect.c **** 
 1220              		.loc 1 541 0
 1221 0202 BDF98210 		ldrsh	r1, [sp, #130]
 1222 0206 8BB2     		uxth	r3, r1
 1223              	.LVL163:
 1224              	.LBB143:
 1225              	.LBB144:
 1226              		.loc 2 135 0
 1227 0208 BDF88680 		ldrh	r8, [sp, #134]
 1228 020c A8EB0308 		sub	r8, r8, r3
 1229 0210 1FFA88F8 		uxth	r8, r8
 1230 0214 08F10108 		add	r8, r8, #1
ARM GAS  /tmp/ccV6ypnB.s 			page 53


 1231 0218 0FFA88F8 		sxth	r8, r8
 1232              	.LVL164:
 1233              	.LBE144:
 1234              	.LBE143:
 541:Drivers/lvgl/lvgl/src/draw/sw/lv_draw_sw_rect.c **** 
 1235              		.loc 1 541 0
 1236 021c B8F1000F 		cmp	r8, #0
 1237 0220 C0F2CA80 		blt	.L188
 1238              	.L97:
 1239 0224 03EB6808 		add	r8, r3, r8, asr #1
 1240 0228 0FFA88F8 		sxth	r8, r8
 1241              	.LVL165:
 546:Drivers/lvgl/lvgl/src/draw/sw/lv_draw_sw_rect.c ****     blend_area.x1 = shadow_area.x2 - corner_size + 1;
 1242              		.loc 1 546 0
 1243 022c ADF85400 		strh	r0, [sp, #84]	@ movhi
 547:Drivers/lvgl/lvgl/src/draw/sw/lv_draw_sw_rect.c ****     blend_area.y1 = shadow_area.y1;
 1244              		.loc 1 547 0
 1245 0230 A7B2     		uxth	r7, r4
 1246              	.LVL166:
 1247 0232 D21B     		subs	r2, r2, r7
 1248 0234 92B2     		uxth	r2, r2
 1249 0236 0132     		adds	r2, r2, #1
 1250 0238 12B2     		sxth	r2, r2
 548:Drivers/lvgl/lvgl/src/draw/sw/lv_draw_sw_rect.c ****     blend_area.y2 = shadow_area.y1 + corner_size - 1;
 1251              		.loc 1 548 0
 1252 023a ADF85210 		strh	r1, [sp, #82]	@ movhi
 549:Drivers/lvgl/lvgl/src/draw/sw/lv_draw_sw_rect.c ****     /*Do not overdraw the other top corners*/
 1253              		.loc 1 549 0
 1254 023e 3B44     		add	r3, r3, r7
 1255 0240 9BB2     		uxth	r3, r3
 1256 0242 013B     		subs	r3, r3, #1
 1257 0244 1BB2     		sxth	r3, r3
 551:Drivers/lvgl/lvgl/src/draw/sw/lv_draw_sw_rect.c ****     blend_area.y2 = LV_MIN(blend_area.y2, h_half);
 1258              		.loc 1 551 0
 1259 0246 0499     		ldr	r1, [sp, #16]
 1260 0248 8A42     		cmp	r2, r1
 1261 024a B8BF     		it	lt
 1262 024c 0A46     		movlt	r2, r1
 1263 024e ADF85020 		strh	r2, [sp, #80]	@ movhi
 552:Drivers/lvgl/lvgl/src/draw/sw/lv_draw_sw_rect.c **** 
 1264              		.loc 1 552 0
 1265 0252 4345     		cmp	r3, r8
 1266 0254 A8BF     		it	ge
 1267 0256 4346     		movge	r3, r8
 1268 0258 ADF85630 		strh	r3, [sp, #86]	@ movhi
 554:Drivers/lvgl/lvgl/src/draw/sw/lv_draw_sw_rect.c ****        !_lv_area_is_in(&clip_area_sub, &bg_area, r_bg)) {
 1269              		.loc 1 554 0
 1270 025c B268     		ldr	r2, [r6, #8]
 1271 025e 14A9     		add	r1, sp, #80
 1272 0260 12A8     		add	r0, sp, #72
 1273 0262 FFF7FEFF 		bl	_lv_area_intersect
 1274              	.LVL167:
 1275 0266 0028     		cmp	r0, #0
 1276 0268 40F0A980 		bne	.L189
 1277              	.LVL168:
 1278              	.L98:
 589:Drivers/lvgl/lvgl/src/draw/sw/lv_draw_sw_rect.c ****     blend_area.x1 = shadow_area.x2 - corner_size + 1;
ARM GAS  /tmp/ccV6ypnB.s 			page 54


 1279              		.loc 1 589 0
 1280 026c BDF98430 		ldrsh	r3, [sp, #132]
 1281 0270 ADF85430 		strh	r3, [sp, #84]	@ movhi
 590:Drivers/lvgl/lvgl/src/draw/sw/lv_draw_sw_rect.c ****     blend_area.y1 = shadow_area.y2 - corner_size + 1;
 1282              		.loc 1 590 0
 1283 0274 9BB2     		uxth	r3, r3
 1284 0276 DB1B     		subs	r3, r3, r7
 1285 0278 9BB2     		uxth	r3, r3
 1286 027a 0133     		adds	r3, r3, #1
 1287 027c 1BB2     		sxth	r3, r3
 591:Drivers/lvgl/lvgl/src/draw/sw/lv_draw_sw_rect.c ****     blend_area.y2 = shadow_area.y2;
 1288              		.loc 1 591 0
 1289 027e BDF98610 		ldrsh	r1, [sp, #134]
 1290 0282 8AB2     		uxth	r2, r1
 1291 0284 D21B     		subs	r2, r2, r7
 1292 0286 92B2     		uxth	r2, r2
 1293 0288 0132     		adds	r2, r2, #1
 1294 028a 12B2     		sxth	r2, r2
 592:Drivers/lvgl/lvgl/src/draw/sw/lv_draw_sw_rect.c ****     /*Do not overdraw the other corners*/
 1295              		.loc 1 592 0
 1296 028c ADF85610 		strh	r1, [sp, #86]	@ movhi
 594:Drivers/lvgl/lvgl/src/draw/sw/lv_draw_sw_rect.c ****     blend_area.y1 = LV_MAX(blend_area.y1, h_half + 1);
 1297              		.loc 1 594 0
 1298 0290 0499     		ldr	r1, [sp, #16]
 1299 0292 8B42     		cmp	r3, r1
 1300 0294 B8BF     		it	lt
 1301 0296 0B46     		movlt	r3, r1
 1302 0298 ADF85030 		strh	r3, [sp, #80]	@ movhi
 595:Drivers/lvgl/lvgl/src/draw/sw/lv_draw_sw_rect.c **** 
 1303              		.loc 1 595 0
 1304 029c 08F10103 		add	r3, r8, #1
 1305 02a0 0393     		str	r3, [sp, #12]
 1306 02a2 9342     		cmp	r3, r2
 1307 02a4 B8BF     		it	lt
 1308 02a6 1346     		movlt	r3, r2
 1309 02a8 ADF85230 		strh	r3, [sp, #82]	@ movhi
 597:Drivers/lvgl/lvgl/src/draw/sw/lv_draw_sw_rect.c ****        !_lv_area_is_in(&clip_area_sub, &bg_area, r_bg)) {
 1310              		.loc 1 597 0
 1311 02ac B268     		ldr	r2, [r6, #8]
 1312 02ae 14A9     		add	r1, sp, #80
 1313 02b0 12A8     		add	r0, sp, #72
 1314 02b2 FFF7FEFF 		bl	_lv_area_intersect
 1315              	.LVL169:
 1316 02b6 0028     		cmp	r0, #0
 1317 02b8 40F0FB80 		bne	.L190
 1318              	.L104:
 631:Drivers/lvgl/lvgl/src/draw/sw/lv_draw_sw_rect.c ****     blend_area.x2 = shadow_area.x2 - corner_size;
 1319              		.loc 1 631 0
 1320 02bc BDF88030 		ldrh	r3, [sp, #128]
 1321 02c0 3B44     		add	r3, r3, r7
 1322 02c2 ADF85030 		strh	r3, [sp, #80]	@ movhi
 632:Drivers/lvgl/lvgl/src/draw/sw/lv_draw_sw_rect.c ****     blend_area.y1 = shadow_area.y1;
 1323              		.loc 1 632 0
 1324 02c6 BDF88430 		ldrh	r3, [sp, #132]
 1325 02ca DB1B     		subs	r3, r3, r7
 1326 02cc ADF85430 		strh	r3, [sp, #84]	@ movhi
 633:Drivers/lvgl/lvgl/src/draw/sw/lv_draw_sw_rect.c ****     blend_area.y2 = shadow_area.y1 + corner_size - 1;
ARM GAS  /tmp/ccV6ypnB.s 			page 55


 1327              		.loc 1 633 0
 1328 02d0 BDF98230 		ldrsh	r3, [sp, #130]
 1329 02d4 ADF85230 		strh	r3, [sp, #82]	@ movhi
 634:Drivers/lvgl/lvgl/src/draw/sw/lv_draw_sw_rect.c ****     blend_area.y2 = LV_MIN(blend_area.y2, h_half);
 1330              		.loc 1 634 0
 1331 02d8 17FA83F3 		uxtah	r3, r7, r3
 1332 02dc 9BB2     		uxth	r3, r3
 1333 02de 013B     		subs	r3, r3, #1
 1334 02e0 1BB2     		sxth	r3, r3
 635:Drivers/lvgl/lvgl/src/draw/sw/lv_draw_sw_rect.c **** 
 1335              		.loc 1 635 0
 1336 02e2 4345     		cmp	r3, r8
 1337 02e4 A8BF     		it	ge
 1338 02e6 4346     		movge	r3, r8
 1339 02e8 ADF85630 		strh	r3, [sp, #86]	@ movhi
 637:Drivers/lvgl/lvgl/src/draw/sw/lv_draw_sw_rect.c ****        !_lv_area_is_in(&clip_area_sub, &bg_area, r_bg)) {
 1340              		.loc 1 637 0
 1341 02ec B268     		ldr	r2, [r6, #8]
 1342 02ee 14A9     		add	r1, sp, #80
 1343 02f0 12A8     		add	r0, sp, #72
 1344 02f2 FFF7FEFF 		bl	_lv_area_intersect
 1345              	.LVL170:
 1346 02f6 0028     		cmp	r0, #0
 1347 02f8 40F05581 		bne	.L191
 1348              	.L110:
 675:Drivers/lvgl/lvgl/src/draw/sw/lv_draw_sw_rect.c **** 
 1349              		.loc 1 675 0
 1350 02fc 95F83630 		ldrb	r3, [r5, #54]	@ zero_extendqisi2
 1351 0300 8DF84430 		strb	r3, [sp, #68]
 678:Drivers/lvgl/lvgl/src/draw/sw/lv_draw_sw_rect.c ****     blend_area.x2 = shadow_area.x2 - corner_size;
 1352              		.loc 1 678 0
 1353 0304 BDF88030 		ldrh	r3, [sp, #128]
 1354 0308 3B44     		add	r3, r3, r7
 1355 030a ADF85030 		strh	r3, [sp, #80]	@ movhi
 679:Drivers/lvgl/lvgl/src/draw/sw/lv_draw_sw_rect.c ****     blend_area.y1 = shadow_area.y2 - corner_size + 1;
 1356              		.loc 1 679 0
 1357 030e BDF88430 		ldrh	r3, [sp, #132]
 1358 0312 DB1B     		subs	r3, r3, r7
 1359 0314 ADF85430 		strh	r3, [sp, #84]	@ movhi
 680:Drivers/lvgl/lvgl/src/draw/sw/lv_draw_sw_rect.c ****     blend_area.y2 = shadow_area.y2;
 1360              		.loc 1 680 0
 1361 0318 BDF98620 		ldrsh	r2, [sp, #134]
 1362 031c 93B2     		uxth	r3, r2
 1363 031e DB1B     		subs	r3, r3, r7
 1364 0320 9BB2     		uxth	r3, r3
 1365 0322 0133     		adds	r3, r3, #1
 1366 0324 1BB2     		sxth	r3, r3
 681:Drivers/lvgl/lvgl/src/draw/sw/lv_draw_sw_rect.c ****     blend_area.y1 = LV_MAX(blend_area.y1, h_half + 1);
 1367              		.loc 1 681 0
 1368 0326 ADF85620 		strh	r2, [sp, #86]	@ movhi
 682:Drivers/lvgl/lvgl/src/draw/sw/lv_draw_sw_rect.c **** 
 1369              		.loc 1 682 0
 1370 032a 039A     		ldr	r2, [sp, #12]
 1371 032c 9342     		cmp	r3, r2
 1372 032e B8BF     		it	lt
 1373 0330 1346     		movlt	r3, r2
 1374 0332 ADF85230 		strh	r3, [sp, #82]	@ movhi
ARM GAS  /tmp/ccV6ypnB.s 			page 56


 685:Drivers/lvgl/lvgl/src/draw/sw/lv_draw_sw_rect.c ****        !_lv_area_is_in(&clip_area_sub, &bg_area, r_bg)) {
 1375              		.loc 1 685 0
 1376 0336 B268     		ldr	r2, [r6, #8]
 1377 0338 14A9     		add	r1, sp, #80
 1378 033a 12A8     		add	r0, sp, #72
 1379 033c FFF7FEFF 		bl	_lv_area_intersect
 1380              	.LVL171:
 1381 0340 0028     		cmp	r0, #0
 1382 0342 40F0B081 		bne	.L192
 1383              	.L121:
 728:Drivers/lvgl/lvgl/src/draw/sw/lv_draw_sw_rect.c **** 
 1384              		.loc 1 728 0
 1385 0346 95F83630 		ldrb	r3, [r5, #54]	@ zero_extendqisi2
 1386 034a 8DF84430 		strb	r3, [sp, #68]
 731:Drivers/lvgl/lvgl/src/draw/sw/lv_draw_sw_rect.c ****     blend_area.x2 = shadow_area.x2;
 1387              		.loc 1 731 0
 1388 034e BDF98420 		ldrsh	r2, [sp, #132]
 1389 0352 93B2     		uxth	r3, r2
 1390 0354 DB1B     		subs	r3, r3, r7
 1391 0356 9BB2     		uxth	r3, r3
 1392 0358 0133     		adds	r3, r3, #1
 1393 035a 1BB2     		sxth	r3, r3
 732:Drivers/lvgl/lvgl/src/draw/sw/lv_draw_sw_rect.c ****     blend_area.y1 = shadow_area.y1 + corner_size;
 1394              		.loc 1 732 0
 1395 035c ADF85420 		strh	r2, [sp, #84]	@ movhi
 733:Drivers/lvgl/lvgl/src/draw/sw/lv_draw_sw_rect.c ****     blend_area.y2 = shadow_area.y2 - corner_size;
 1396              		.loc 1 733 0
 1397 0360 BDF88210 		ldrh	r1, [sp, #130]
 1398 0364 3944     		add	r1, r1, r7
 1399 0366 09B2     		sxth	r1, r1
 734:Drivers/lvgl/lvgl/src/draw/sw/lv_draw_sw_rect.c ****     /*Do not overdraw the other corners*/
 1400              		.loc 1 734 0
 1401 0368 BDF88620 		ldrh	r2, [sp, #134]
 1402 036c D21B     		subs	r2, r2, r7
 1403 036e 12B2     		sxth	r2, r2
 736:Drivers/lvgl/lvgl/src/draw/sw/lv_draw_sw_rect.c ****     blend_area.y2 = LV_MAX(blend_area.y2, h_half);
 1404              		.loc 1 736 0
 1405 0370 0398     		ldr	r0, [sp, #12]
 1406 0372 8142     		cmp	r1, r0
 1407 0374 A8BF     		it	ge
 1408 0376 0146     		movge	r1, r0
 1409 0378 ADF85210 		strh	r1, [sp, #82]	@ movhi
 737:Drivers/lvgl/lvgl/src/draw/sw/lv_draw_sw_rect.c ****     blend_area.x1 = LV_MAX(blend_area.x1, w_half);
 1410              		.loc 1 737 0
 1411 037c 4245     		cmp	r2, r8
 1412 037e B8BF     		it	lt
 1413 0380 4246     		movlt	r2, r8
 1414 0382 ADF85620 		strh	r2, [sp, #86]	@ movhi
 738:Drivers/lvgl/lvgl/src/draw/sw/lv_draw_sw_rect.c **** 
 1415              		.loc 1 738 0
 1416 0386 049A     		ldr	r2, [sp, #16]
 1417 0388 9342     		cmp	r3, r2
 1418 038a B8BF     		it	lt
 1419 038c 1346     		movlt	r3, r2
 1420 038e 24A9     		add	r1, sp, #144
 1421 0390 21F8403D 		strh	r3, [r1, #-64]!	@ movhi
 740:Drivers/lvgl/lvgl/src/draw/sw/lv_draw_sw_rect.c ****        !_lv_area_is_in(&clip_area_sub, &bg_area, r_bg)) {
ARM GAS  /tmp/ccV6ypnB.s 			page 57


 1422              		.loc 1 740 0
 1423 0394 B268     		ldr	r2, [r6, #8]
 1424 0396 12A8     		add	r0, sp, #72
 1425 0398 FFF7FEFF 		bl	_lv_area_intersect
 1426              	.LVL172:
 1427 039c 0028     		cmp	r0, #0
 1428 039e 40F00682 		bne	.L193
 1429              	.LVL173:
 1430              	.L133:
 1431              	.LBB145:
 776:Drivers/lvgl/lvgl/src/draw/sw/lv_draw_sw_rect.c ****             lv_opa_t tmp = *start;
 1432              		.loc 1 776 0 discriminator 1
 1433 03a2 DDF814E0 		ldr	lr, [sp, #20]
 1434 03a6 4FF0000C 		mov	ip, #0
 1435 03aa 86E2     		b	.L142
 1436              	.LVL174:
 1437              	.L168:
 1438              	.LBE145:
 519:Drivers/lvgl/lvgl/src/draw/sw/lv_draw_sw_rect.c ****     if(!simple) {
 1439              		.loc 1 519 0
 1440 03ac 4FF0FF33 		mov	r3, #-1
 1441 03b0 0693     		str	r3, [sp, #24]
 1442 03b2 F8E6     		b	.L95
 1443              	.LVL175:
 1444              	.L187:
 540:Drivers/lvgl/lvgl/src/draw/sw/lv_draw_sw_rect.c ****     lv_coord_t h_half = shadow_area.y1 + lv_area_get_height(&shadow_area) / 2;
 1445              		.loc 1 540 0
 1446 03b4 0133     		adds	r3, r3, #1
 1447 03b6 20E7     		b	.L96
 1448              	.LVL176:
 1449              	.L188:
 541:Drivers/lvgl/lvgl/src/draw/sw/lv_draw_sw_rect.c **** 
 1450              		.loc 1 541 0
 1451 03b8 08F10108 		add	r8, r8, #1
 1452 03bc 32E7     		b	.L97
 1453              	.LVL177:
 1454              	.L189:
 555:Drivers/lvgl/lvgl/src/draw/sw/lv_draw_sw_rect.c ****         lv_coord_t w = lv_area_get_width(&clip_area_sub);
 1455              		.loc 1 555 0 discriminator 1
 1456 03be BDF908A0 		ldrsh	r10, [sp, #8]
 1457 03c2 5246     		mov	r2, r10
 1458 03c4 1CA9     		add	r1, sp, #112
 1459 03c6 12A8     		add	r0, sp, #72
 1460 03c8 FFF7FEFF 		bl	_lv_area_is_in
 1461              	.LVL178:
 554:Drivers/lvgl/lvgl/src/draw/sw/lv_draw_sw_rect.c ****        !_lv_area_is_in(&clip_area_sub, &bg_area, r_bg)) {
 1462              		.loc 1 554 0 discriminator 1
 1463 03cc 0028     		cmp	r0, #0
 1464 03ce 7FF44DAF 		bne	.L98
 1465              	.LVL179:
 1466              	.LBB147:
 1467              	.LBB148:
 1468              	.LBB149:
 125:Drivers/lvgl/lvgl/src/draw/sw/../../misc/lv_area.h **** }
 1469              		.loc 2 125 0
 1470 03d2 BDF84C30 		ldrh	r3, [sp, #76]
 1471 03d6 BDF94820 		ldrsh	r2, [sp, #72]
ARM GAS  /tmp/ccV6ypnB.s 			page 58


 1472 03da 91B2     		uxth	r1, r2
 1473 03dc 5B1A     		subs	r3, r3, r1
 1474 03de 9BB2     		uxth	r3, r3
 1475 03e0 0133     		adds	r3, r3, #1
 1476 03e2 1BB2     		sxth	r3, r3
 1477 03e4 0393     		str	r3, [sp, #12]
 1478              	.LVL180:
 1479              	.LBE149:
 1480              	.LBE148:
 558:Drivers/lvgl/lvgl/src/draw/sw/lv_draw_sw_rect.c ****         sh_buf_tmp += clip_area_sub.x1 - (shadow_area.x2 - corner_size + 1);
 1481              		.loc 1 558 0
 1482 03e6 BDF94AB0 		ldrsh	fp, [sp, #74]
 1483 03ea BDF98230 		ldrsh	r3, [sp, #130]
 1484 03ee ABEB030B 		sub	fp, fp, r3
 1485              	.LVL181:
 559:Drivers/lvgl/lvgl/src/draw/sw/lv_draw_sw_rect.c **** 
 1486              		.loc 1 559 0
 1487 03f2 BDF98430 		ldrsh	r3, [sp, #132]
 1488 03f6 1B1B     		subs	r3, r3, r4
 1489 03f8 0133     		adds	r3, r3, #1
 1490 03fa D31A     		subs	r3, r2, r3
 1491 03fc 04FB0B3B 		mla	fp, r4, fp, r3
 1492              	.LVL182:
 1493 0400 059B     		ldr	r3, [sp, #20]
 1494 0402 9B44     		add	fp, fp, r3
 1495              	.LVL183:
 562:Drivers/lvgl/lvgl/src/draw/sw/lv_draw_sw_rect.c ****         else simple_sub = simple;
 1496              		.loc 1 562 0
 1497 0404 009B     		ldr	r3, [sp]
 1498 0406 DBB9     		cbnz	r3, .L194
 1499 0408 009B     		ldr	r3, [sp]
 1500 040a 1A46     		mov	r2, r3
 1501              	.L99:
 1502              	.LVL184:
 564:Drivers/lvgl/lvgl/src/draw/sw/lv_draw_sw_rect.c ****             blend_dsc.mask_buf = mask_buf;
 1503              		.loc 1 564 0
 1504 040c 039B     		ldr	r3, [sp, #12]
 1505 040e 002B     		cmp	r3, #0
 1506 0410 7FF72CAF 		ble	.L98
 565:Drivers/lvgl/lvgl/src/draw/sw/lv_draw_sw_rect.c ****             blend_area.x1 = clip_area_sub.x1;
 1507              		.loc 1 565 0
 1508 0414 019B     		ldr	r3, [sp, #4]
 1509 0416 0E93     		str	r3, [sp, #56]
 566:Drivers/lvgl/lvgl/src/draw/sw/lv_draw_sw_rect.c ****             blend_area.x2 = clip_area_sub.x2;
 1510              		.loc 1 566 0
 1511 0418 BDF94830 		ldrsh	r3, [sp, #72]
 1512 041c ADF85030 		strh	r3, [sp, #80]	@ movhi
 567:Drivers/lvgl/lvgl/src/draw/sw/lv_draw_sw_rect.c ****             blend_dsc.mask_res = LV_DRAW_MASK_RES_CHANGED;    /*In simple mode it won't be overwrit
 1513              		.loc 1 567 0
 1514 0420 BDF94C30 		ldrsh	r3, [sp, #76]
 1515 0424 ADF85430 		strh	r3, [sp, #84]	@ movhi
 568:Drivers/lvgl/lvgl/src/draw/sw/lv_draw_sw_rect.c ****             for(y = clip_area_sub.y1; y <= clip_area_sub.y2; y++) {
 1516              		.loc 1 568 0
 1517 0428 0223     		movs	r3, #2
 1518 042a 8DF83C30 		strb	r3, [sp, #60]
 569:Drivers/lvgl/lvgl/src/draw/sw/lv_draw_sw_rect.c ****                 blend_area.y1 = y;
 1519              		.loc 1 569 0
ARM GAS  /tmp/ccV6ypnB.s 			page 59


 1520 042e BDF94AA0 		ldrsh	r10, [sp, #74]
 1521              	.LVL185:
 1522 0432 CDF81C90 		str	r9, [sp, #28]
 1523 0436 A146     		mov	r9, r4
 1524              	.LVL186:
 1525 0438 5C46     		mov	r4, fp
 1526              	.LVL187:
 1527 043a AB46     		mov	fp, r5
 1528              	.LVL188:
 1529 043c 1546     		mov	r5, r2
 1530              	.LVL189:
 1531 043e 23E0     		b	.L100
 1532              	.LVL190:
 1533              	.L194:
 562:Drivers/lvgl/lvgl/src/draw/sw/lv_draw_sw_rect.c ****         else simple_sub = simple;
 1534              		.loc 1 562 0 discriminator 1
 1535 0440 5246     		mov	r2, r10
 1536 0442 1CA9     		add	r1, sp, #112
 1537 0444 12A8     		add	r0, sp, #72
 1538 0446 FFF7FEFF 		bl	_lv_area_is_out
 1539              	.LVL191:
 1540 044a 0246     		mov	r2, r0
 1541 044c 0028     		cmp	r0, #0
 1542 044e DDD1     		bne	.L99
 1543 0450 009B     		ldr	r3, [sp]
 1544 0452 1A46     		mov	r2, r3
 1545 0454 DAE7     		b	.L99
 1546              	.LVL192:
 1547              	.L197:
 574:Drivers/lvgl/lvgl/src/draw/sw/lv_draw_sw_rect.c ****                     blend_dsc.mask_res = lv_draw_mask_apply(mask_buf, clip_area_sub.x1, y, w);
 1548              		.loc 1 574 0
 1549 0456 4A46     		mov	r2, r9
 1550 0458 2146     		mov	r1, r4
 1551 045a 0198     		ldr	r0, [sp, #4]
 1552 045c FFF7FEFF 		bl	lv_memcpy
 1553              	.LVL193:
 575:Drivers/lvgl/lvgl/src/draw/sw/lv_draw_sw_rect.c ****                     if(blend_dsc.mask_res == LV_DRAW_MASK_RES_FULL_COVER) blend_dsc.mask_res = LV_D
 1554              		.loc 1 575 0
 1555 0460 039B     		ldr	r3, [sp, #12]
 1556 0462 5246     		mov	r2, r10
 1557 0464 BDF94810 		ldrsh	r1, [sp, #72]
 1558 0468 0198     		ldr	r0, [sp, #4]
 1559 046a FFF7FEFF 		bl	lv_draw_mask_apply
 1560              	.LVL194:
 1561 046e 8DF83C00 		strb	r0, [sp, #60]
 576:Drivers/lvgl/lvgl/src/draw/sw/lv_draw_sw_rect.c ****                 }
 1562              		.loc 1 576 0
 1563 0472 0128     		cmp	r0, #1
 1564 0474 14D0     		beq	.L195
 1565              	.L102:
 581:Drivers/lvgl/lvgl/src/draw/sw/lv_draw_sw_rect.c ****                 sh_buf_tmp += corner_size;
 1566              		.loc 1 581 0 discriminator 2
 1567 0476 0BA9     		add	r1, sp, #44
 1568 0478 3046     		mov	r0, r6
 1569 047a FFF7FEFF 		bl	lv_draw_sw_blend
 1570              	.LVL195:
 582:Drivers/lvgl/lvgl/src/draw/sw/lv_draw_sw_rect.c ****             }
ARM GAS  /tmp/ccV6ypnB.s 			page 60


 1571              		.loc 1 582 0 discriminator 2
 1572 047e 4C44     		add	r4, r4, r9
 1573              	.LVL196:
 569:Drivers/lvgl/lvgl/src/draw/sw/lv_draw_sw_rect.c ****                 blend_area.y1 = y;
 1574              		.loc 1 569 0 discriminator 2
 1575 0480 0AF1010A 		add	r10, r10, #1
 1576              	.LVL197:
 1577 0484 0FFA8AFA 		sxth	r10, r10
 1578              	.LVL198:
 1579              	.L100:
 569:Drivers/lvgl/lvgl/src/draw/sw/lv_draw_sw_rect.c ****                 blend_area.y1 = y;
 1580              		.loc 1 569 0 is_stmt 0 discriminator 1
 1581 0488 BDF94E30 		ldrsh	r3, [sp, #78]
 1582 048c 5345     		cmp	r3, r10
 1583 048e 0BDB     		blt	.L196
 570:Drivers/lvgl/lvgl/src/draw/sw/lv_draw_sw_rect.c ****                 blend_area.y2 = y;
 1584              		.loc 1 570 0 is_stmt 1
 1585 0490 ADF852A0 		strh	r10, [sp, #82]	@ movhi
 571:Drivers/lvgl/lvgl/src/draw/sw/lv_draw_sw_rect.c **** 
 1586              		.loc 1 571 0
 1587 0494 ADF856A0 		strh	r10, [sp, #86]	@ movhi
 573:Drivers/lvgl/lvgl/src/draw/sw/lv_draw_sw_rect.c ****                     lv_memcpy(mask_buf, sh_buf_tmp, corner_size);
 1588              		.loc 1 573 0
 1589 0498 002D     		cmp	r5, #0
 1590 049a DCD0     		beq	.L197
 579:Drivers/lvgl/lvgl/src/draw/sw/lv_draw_sw_rect.c ****                 }
 1591              		.loc 1 579 0
 1592 049c 0E94     		str	r4, [sp, #56]
 1593 049e EAE7     		b	.L102
 1594              	.L195:
 576:Drivers/lvgl/lvgl/src/draw/sw/lv_draw_sw_rect.c ****                 }
 1595              		.loc 1 576 0 discriminator 1
 1596 04a0 0223     		movs	r3, #2
 1597 04a2 8DF83C30 		strb	r3, [sp, #60]
 1598 04a6 E6E7     		b	.L102
 1599              	.L196:
 1600 04a8 4C46     		mov	r4, r9
 1601              	.LVL199:
 1602 04aa DDF81C90 		ldr	r9, [sp, #28]
 1603              	.LVL200:
 1604 04ae 5D46     		mov	r5, fp
 1605 04b0 DCE6     		b	.L98
 1606              	.LVL201:
 1607              	.L190:
 1608              	.LBE147:
 598:Drivers/lvgl/lvgl/src/draw/sw/lv_draw_sw_rect.c ****         lv_coord_t w = lv_area_get_width(&clip_area_sub);
 1609              		.loc 1 598 0 discriminator 1
 1610 04b2 BDF908A0 		ldrsh	r10, [sp, #8]
 1611 04b6 5246     		mov	r2, r10
 1612 04b8 1CA9     		add	r1, sp, #112
 1613 04ba 12A8     		add	r0, sp, #72
 1614 04bc FFF7FEFF 		bl	_lv_area_is_in
 1615              	.LVL202:
 597:Drivers/lvgl/lvgl/src/draw/sw/lv_draw_sw_rect.c ****        !_lv_area_is_in(&clip_area_sub, &bg_area, r_bg)) {
 1616              		.loc 1 597 0 discriminator 1
 1617 04c0 0028     		cmp	r0, #0
 1618 04c2 7FF4FBAE 		bne	.L104
ARM GAS  /tmp/ccV6ypnB.s 			page 61


 1619              	.LVL203:
 1620              	.LBB150:
 1621              	.LBB151:
 1622              	.LBB152:
 125:Drivers/lvgl/lvgl/src/draw/sw/../../misc/lv_area.h **** }
 1623              		.loc 2 125 0
 1624 04c6 BDF84C30 		ldrh	r3, [sp, #76]
 1625 04ca BDF94820 		ldrsh	r2, [sp, #72]
 1626 04ce 91B2     		uxth	r1, r2
 1627 04d0 5B1A     		subs	r3, r3, r1
 1628 04d2 9BB2     		uxth	r3, r3
 1629 04d4 0133     		adds	r3, r3, #1
 1630 04d6 1BB2     		sxth	r3, r3
 1631 04d8 0793     		str	r3, [sp, #28]
 1632              	.LVL204:
 1633              	.LBE152:
 1634              	.LBE151:
 601:Drivers/lvgl/lvgl/src/draw/sw/lv_draw_sw_rect.c ****         sh_buf_tmp += clip_area_sub.x1 - (shadow_area.x2 - corner_size + 1);
 1635              		.loc 1 601 0
 1636 04da BDF956B0 		ldrsh	fp, [sp, #86]
 1637 04de BDF94E30 		ldrsh	r3, [sp, #78]
 1638 04e2 ABEB030B 		sub	fp, fp, r3
 1639              	.LVL205:
 602:Drivers/lvgl/lvgl/src/draw/sw/lv_draw_sw_rect.c ****         /*Do not mask if out of the bg*/
 1640              		.loc 1 602 0
 1641 04e6 BDF98430 		ldrsh	r3, [sp, #132]
 1642 04ea 1B1B     		subs	r3, r3, r4
 1643 04ec 0133     		adds	r3, r3, #1
 1644 04ee D31A     		subs	r3, r2, r3
 1645 04f0 04FB0B3B 		mla	fp, r4, fp, r3
 1646              	.LVL206:
 1647 04f4 059B     		ldr	r3, [sp, #20]
 1648 04f6 9B44     		add	fp, fp, r3
 1649              	.LVL207:
 604:Drivers/lvgl/lvgl/src/draw/sw/lv_draw_sw_rect.c ****         else simple_sub = simple;
 1650              		.loc 1 604 0
 1651 04f8 009B     		ldr	r3, [sp]
 1652 04fa DBB9     		cbnz	r3, .L198
 1653 04fc 009B     		ldr	r3, [sp]
 1654 04fe 1A46     		mov	r2, r3
 1655              	.L105:
 1656              	.LVL208:
 607:Drivers/lvgl/lvgl/src/draw/sw/lv_draw_sw_rect.c ****             blend_dsc.mask_buf = mask_buf;
 1657              		.loc 1 607 0
 1658 0500 079B     		ldr	r3, [sp, #28]
 1659 0502 002B     		cmp	r3, #0
 1660 0504 7FF7DAAE 		ble	.L104
 608:Drivers/lvgl/lvgl/src/draw/sw/lv_draw_sw_rect.c ****             blend_area.x1 = clip_area_sub.x1;
 1661              		.loc 1 608 0
 1662 0508 019B     		ldr	r3, [sp, #4]
 1663 050a 0E93     		str	r3, [sp, #56]
 609:Drivers/lvgl/lvgl/src/draw/sw/lv_draw_sw_rect.c ****             blend_area.x2 = clip_area_sub.x2;
 1664              		.loc 1 609 0
 1665 050c BDF94830 		ldrsh	r3, [sp, #72]
 1666 0510 ADF85030 		strh	r3, [sp, #80]	@ movhi
 610:Drivers/lvgl/lvgl/src/draw/sw/lv_draw_sw_rect.c ****             blend_dsc.mask_res = LV_DRAW_MASK_RES_CHANGED;    /*In simple mode it won't be overwrit
 1667              		.loc 1 610 0
ARM GAS  /tmp/ccV6ypnB.s 			page 62


 1668 0514 BDF94C30 		ldrsh	r3, [sp, #76]
 1669 0518 ADF85430 		strh	r3, [sp, #84]	@ movhi
 611:Drivers/lvgl/lvgl/src/draw/sw/lv_draw_sw_rect.c ****             for(y = clip_area_sub.y2; y >= clip_area_sub.y1; y--) {
 1670              		.loc 1 611 0
 1671 051c 0223     		movs	r3, #2
 1672 051e 8DF83C30 		strb	r3, [sp, #60]
 612:Drivers/lvgl/lvgl/src/draw/sw/lv_draw_sw_rect.c ****                 blend_area.y1 = y;
 1673              		.loc 1 612 0
 1674 0522 BDF94EA0 		ldrsh	r10, [sp, #78]
 1675              	.LVL209:
 1676 0526 CDF82090 		str	r9, [sp, #32]
 1677 052a A146     		mov	r9, r4
 1678 052c 5C46     		mov	r4, fp
 1679              	.LVL210:
 1680 052e AB46     		mov	fp, r5
 1681              	.LVL211:
 1682 0530 1546     		mov	r5, r2
 1683              	.LVL212:
 1684 0532 23E0     		b	.L106
 1685              	.LVL213:
 1686              	.L198:
 604:Drivers/lvgl/lvgl/src/draw/sw/lv_draw_sw_rect.c ****         else simple_sub = simple;
 1687              		.loc 1 604 0 discriminator 1
 1688 0534 5246     		mov	r2, r10
 1689 0536 1CA9     		add	r1, sp, #112
 1690 0538 12A8     		add	r0, sp, #72
 1691 053a FFF7FEFF 		bl	_lv_area_is_out
 1692              	.LVL214:
 1693 053e 0246     		mov	r2, r0
 1694 0540 0028     		cmp	r0, #0
 1695 0542 DDD1     		bne	.L105
 1696 0544 009B     		ldr	r3, [sp]
 1697 0546 1A46     		mov	r2, r3
 1698 0548 DAE7     		b	.L105
 1699              	.LVL215:
 1700              	.L201:
 617:Drivers/lvgl/lvgl/src/draw/sw/lv_draw_sw_rect.c ****                     blend_dsc.mask_res = lv_draw_mask_apply(mask_buf, clip_area_sub.x1, y, w);
 1701              		.loc 1 617 0
 1702 054a 4A46     		mov	r2, r9
 1703 054c 2146     		mov	r1, r4
 1704 054e 0198     		ldr	r0, [sp, #4]
 1705 0550 FFF7FEFF 		bl	lv_memcpy
 1706              	.LVL216:
 618:Drivers/lvgl/lvgl/src/draw/sw/lv_draw_sw_rect.c ****                     if(blend_dsc.mask_res == LV_DRAW_MASK_RES_FULL_COVER) blend_dsc.mask_res = LV_D
 1707              		.loc 1 618 0
 1708 0554 079B     		ldr	r3, [sp, #28]
 1709 0556 5246     		mov	r2, r10
 1710 0558 BDF94810 		ldrsh	r1, [sp, #72]
 1711 055c 0198     		ldr	r0, [sp, #4]
 1712 055e FFF7FEFF 		bl	lv_draw_mask_apply
 1713              	.LVL217:
 1714 0562 8DF83C00 		strb	r0, [sp, #60]
 619:Drivers/lvgl/lvgl/src/draw/sw/lv_draw_sw_rect.c ****                 }
 1715              		.loc 1 619 0
 1716 0566 0128     		cmp	r0, #1
 1717 0568 14D0     		beq	.L199
 1718              	.L108:
ARM GAS  /tmp/ccV6ypnB.s 			page 63


 624:Drivers/lvgl/lvgl/src/draw/sw/lv_draw_sw_rect.c ****                 sh_buf_tmp += corner_size;
 1719              		.loc 1 624 0 discriminator 2
 1720 056a 0BA9     		add	r1, sp, #44
 1721 056c 3046     		mov	r0, r6
 1722 056e FFF7FEFF 		bl	lv_draw_sw_blend
 1723              	.LVL218:
 625:Drivers/lvgl/lvgl/src/draw/sw/lv_draw_sw_rect.c ****             }
 1724              		.loc 1 625 0 discriminator 2
 1725 0572 4C44     		add	r4, r4, r9
 1726              	.LVL219:
 612:Drivers/lvgl/lvgl/src/draw/sw/lv_draw_sw_rect.c ****                 blend_area.y1 = y;
 1727              		.loc 1 612 0 discriminator 2
 1728 0574 0AF1FF3A 		add	r10, r10, #-1
 1729              	.LVL220:
 1730 0578 0FFA8AFA 		sxth	r10, r10
 1731              	.LVL221:
 1732              	.L106:
 612:Drivers/lvgl/lvgl/src/draw/sw/lv_draw_sw_rect.c ****                 blend_area.y1 = y;
 1733              		.loc 1 612 0 is_stmt 0 discriminator 1
 1734 057c BDF94A30 		ldrsh	r3, [sp, #74]
 1735 0580 5345     		cmp	r3, r10
 1736 0582 0BDC     		bgt	.L200
 613:Drivers/lvgl/lvgl/src/draw/sw/lv_draw_sw_rect.c ****                 blend_area.y2 = y;
 1737              		.loc 1 613 0 is_stmt 1
 1738 0584 ADF852A0 		strh	r10, [sp, #82]	@ movhi
 614:Drivers/lvgl/lvgl/src/draw/sw/lv_draw_sw_rect.c **** 
 1739              		.loc 1 614 0
 1740 0588 ADF856A0 		strh	r10, [sp, #86]	@ movhi
 616:Drivers/lvgl/lvgl/src/draw/sw/lv_draw_sw_rect.c ****                     lv_memcpy(mask_buf, sh_buf_tmp, corner_size);
 1741              		.loc 1 616 0
 1742 058c 002D     		cmp	r5, #0
 1743 058e DCD0     		beq	.L201
 622:Drivers/lvgl/lvgl/src/draw/sw/lv_draw_sw_rect.c ****                 }
 1744              		.loc 1 622 0
 1745 0590 0E94     		str	r4, [sp, #56]
 1746 0592 EAE7     		b	.L108
 1747              	.L199:
 619:Drivers/lvgl/lvgl/src/draw/sw/lv_draw_sw_rect.c ****                 }
 1748              		.loc 1 619 0 discriminator 1
 1749 0594 0223     		movs	r3, #2
 1750 0596 8DF83C30 		strb	r3, [sp, #60]
 1751 059a E6E7     		b	.L108
 1752              	.L200:
 1753 059c 4C46     		mov	r4, r9
 1754              	.LVL222:
 1755 059e DDF82090 		ldr	r9, [sp, #32]
 1756              	.LVL223:
 1757 05a2 5D46     		mov	r5, fp
 1758 05a4 8AE6     		b	.L104
 1759              	.LVL224:
 1760              	.L191:
 1761              	.LBE150:
 638:Drivers/lvgl/lvgl/src/draw/sw/lv_draw_sw_rect.c ****         lv_coord_t w = lv_area_get_width(&clip_area_sub);
 1762              		.loc 1 638 0 discriminator 1
 1763 05a6 BDF908A0 		ldrsh	r10, [sp, #8]
 1764 05aa 5246     		mov	r2, r10
 1765 05ac 1CA9     		add	r1, sp, #112
ARM GAS  /tmp/ccV6ypnB.s 			page 64


 1766 05ae 12A8     		add	r0, sp, #72
 1767 05b0 FFF7FEFF 		bl	_lv_area_is_in
 1768              	.LVL225:
 637:Drivers/lvgl/lvgl/src/draw/sw/lv_draw_sw_rect.c ****        !_lv_area_is_in(&clip_area_sub, &bg_area, r_bg)) {
 1769              		.loc 1 637 0 discriminator 1
 1770 05b4 0028     		cmp	r0, #0
 1771 05b6 7FF4A1AE 		bne	.L110
 1772              	.LVL226:
 1773              	.LBB153:
 1774              	.LBB154:
 1775              	.LBB155:
 125:Drivers/lvgl/lvgl/src/draw/sw/../../misc/lv_area.h **** }
 1776              		.loc 2 125 0
 1777 05ba BDF84C30 		ldrh	r3, [sp, #76]
 1778 05be BDF84820 		ldrh	r2, [sp, #72]
 1779 05c2 9B1A     		subs	r3, r3, r2
 1780 05c4 9BB2     		uxth	r3, r3
 1781 05c6 0133     		adds	r3, r3, #1
 1782 05c8 1BB2     		sxth	r3, r3
 1783 05ca 0793     		str	r3, [sp, #28]
 1784              	.LVL227:
 1785              	.LBE155:
 1786              	.LBE154:
 641:Drivers/lvgl/lvgl/src/draw/sw/lv_draw_sw_rect.c **** 
 1787              		.loc 1 641 0
 1788 05cc BDF94AB0 		ldrsh	fp, [sp, #74]
 1789 05d0 BDF95230 		ldrsh	r3, [sp, #82]
 1790 05d4 ABEB030B 		sub	fp, fp, r3
 1791 05d8 059B     		ldr	r3, [sp, #20]
 1792 05da 04FB0B3B 		mla	fp, r4, fp, r3
 1793              	.LVL228:
 644:Drivers/lvgl/lvgl/src/draw/sw/lv_draw_sw_rect.c ****         else simple_sub = simple;
 1794              		.loc 1 644 0
 1795 05de 009B     		ldr	r3, [sp]
 1796 05e0 ABB9     		cbnz	r3, .L202
 1797 05e2 009B     		ldr	r3, [sp]
 1798 05e4 1A46     		mov	r2, r3
 1799              	.L111:
 1800              	.LVL229:
 647:Drivers/lvgl/lvgl/src/draw/sw/lv_draw_sw_rect.c ****             if(!simple_sub) {
 1801              		.loc 1 647 0
 1802 05e6 079B     		ldr	r3, [sp, #28]
 1803 05e8 002B     		cmp	r3, #0
 1804 05ea 7FF787AE 		ble	.L110
 648:Drivers/lvgl/lvgl/src/draw/sw/lv_draw_sw_rect.c ****                 blend_dsc.mask_buf = mask_buf;
 1805              		.loc 1 648 0
 1806 05ee CAB9     		cbnz	r2, .L112
 649:Drivers/lvgl/lvgl/src/draw/sw/lv_draw_sw_rect.c ****             }
 1807              		.loc 1 649 0
 1808 05f0 019B     		ldr	r3, [sp, #4]
 1809 05f2 0E93     		str	r3, [sp, #56]
 1810              	.L113:
 654:Drivers/lvgl/lvgl/src/draw/sw/lv_draw_sw_rect.c ****             blend_area.x2 = clip_area_sub.x2;
 1811              		.loc 1 654 0
 1812 05f4 BDF94830 		ldrsh	r3, [sp, #72]
 1813 05f8 ADF85030 		strh	r3, [sp, #80]	@ movhi
 655:Drivers/lvgl/lvgl/src/draw/sw/lv_draw_sw_rect.c **** 
ARM GAS  /tmp/ccV6ypnB.s 			page 65


 1814              		.loc 1 655 0
 1815 05fc BDF94C30 		ldrsh	r3, [sp, #76]
 1816 0600 ADF85430 		strh	r3, [sp, #84]	@ movhi
 657:Drivers/lvgl/lvgl/src/draw/sw/lv_draw_sw_rect.c ****                 blend_area.y1 = y;
 1817              		.loc 1 657 0
 1818 0604 BDF94AA0 		ldrsh	r10, [sp, #74]
 1819              	.LVL230:
 1820 0608 0897     		str	r7, [sp, #32]
 1821 060a 1746     		mov	r7, r2
 1822 060c 34E0     		b	.L114
 1823              	.LVL231:
 1824              	.L202:
 644:Drivers/lvgl/lvgl/src/draw/sw/lv_draw_sw_rect.c ****         else simple_sub = simple;
 1825              		.loc 1 644 0 discriminator 1
 1826 060e 5246     		mov	r2, r10
 1827 0610 1CA9     		add	r1, sp, #112
 1828 0612 12A8     		add	r0, sp, #72
 1829 0614 FFF7FEFF 		bl	_lv_area_is_out
 1830              	.LVL232:
 1831 0618 0246     		mov	r2, r0
 1832 061a 0028     		cmp	r0, #0
 1833 061c E3D1     		bne	.L111
 1834 061e 009B     		ldr	r3, [sp]
 1835 0620 1A46     		mov	r2, r3
 1836 0622 E0E7     		b	.L111
 1837              	.LVL233:
 1838              	.L112:
 652:Drivers/lvgl/lvgl/src/draw/sw/lv_draw_sw_rect.c ****             }
 1839              		.loc 1 652 0
 1840 0624 0023     		movs	r3, #0
 1841 0626 0E93     		str	r3, [sp, #56]
 1842 0628 E4E7     		b	.L113
 1843              	.LVL234:
 1844              	.L205:
 662:Drivers/lvgl/lvgl/src/draw/sw/lv_draw_sw_rect.c ****                     blend_dsc.mask_res = lv_draw_mask_apply(mask_buf, clip_area_sub.x1, y, w);
 1845              		.loc 1 662 0
 1846 062a 079A     		ldr	r2, [sp, #28]
 1847 062c 9BF80010 		ldrb	r1, [fp]	@ zero_extendqisi2
 1848 0630 0198     		ldr	r0, [sp, #4]
 1849 0632 FFF7FEFF 		bl	lv_memset
 1850              	.LVL235:
 663:Drivers/lvgl/lvgl/src/draw/sw/lv_draw_sw_rect.c ****                     if(blend_dsc.mask_res == LV_DRAW_MASK_RES_FULL_COVER) blend_dsc.mask_res = LV_D
 1851              		.loc 1 663 0
 1852 0636 079B     		ldr	r3, [sp, #28]
 1853 0638 5246     		mov	r2, r10
 1854 063a BDF94810 		ldrsh	r1, [sp, #72]
 1855 063e 0198     		ldr	r0, [sp, #4]
 1856 0640 FFF7FEFF 		bl	lv_draw_mask_apply
 1857              	.LVL236:
 1858 0644 8DF83C00 		strb	r0, [sp, #60]
 664:Drivers/lvgl/lvgl/src/draw/sw/lv_draw_sw_rect.c ****                     lv_draw_sw_blend(draw_ctx, &blend_dsc);
 1859              		.loc 1 664 0
 1860 0648 0128     		cmp	r0, #1
 1861 064a 04D0     		beq	.L203
 1862              	.L116:
 665:Drivers/lvgl/lvgl/src/draw/sw/lv_draw_sw_rect.c ****                 }
 1863              		.loc 1 665 0
ARM GAS  /tmp/ccV6ypnB.s 			page 66


 1864 064c 0BA9     		add	r1, sp, #44
 1865 064e 3046     		mov	r0, r6
 1866 0650 FFF7FEFF 		bl	lv_draw_sw_blend
 1867              	.LVL237:
 1868 0654 0BE0     		b	.L117
 1869              	.L203:
 664:Drivers/lvgl/lvgl/src/draw/sw/lv_draw_sw_rect.c ****                     lv_draw_sw_blend(draw_ctx, &blend_dsc);
 1870              		.loc 1 664 0 discriminator 1
 1871 0656 0223     		movs	r3, #2
 1872 0658 8DF83C30 		strb	r3, [sp, #60]
 1873 065c F6E7     		b	.L116
 1874              	.L206:
 668:Drivers/lvgl/lvgl/src/draw/sw/lv_draw_sw_rect.c ****                     lv_draw_sw_blend(draw_ctx, &blend_dsc);
 1875              		.loc 1 668 0 discriminator 1
 1876 065e 9BF80030 		ldrb	r3, [fp]	@ zero_extendqisi2
 1877              	.L119:
 668:Drivers/lvgl/lvgl/src/draw/sw/lv_draw_sw_rect.c ****                     lv_draw_sw_blend(draw_ctx, &blend_dsc);
 1878              		.loc 1 668 0 is_stmt 0 discriminator 4
 1879 0662 8DF84430 		strb	r3, [sp, #68]
 669:Drivers/lvgl/lvgl/src/draw/sw/lv_draw_sw_rect.c ****                 }
 1880              		.loc 1 669 0 is_stmt 1 discriminator 4
 1881 0666 0BA9     		add	r1, sp, #44
 1882 0668 3046     		mov	r0, r6
 1883 066a FFF7FEFF 		bl	lv_draw_sw_blend
 1884              	.LVL238:
 1885              	.L117:
 671:Drivers/lvgl/lvgl/src/draw/sw/lv_draw_sw_rect.c ****             }
 1886              		.loc 1 671 0 discriminator 2
 1887 066e A344     		add	fp, fp, r4
 1888              	.LVL239:
 657:Drivers/lvgl/lvgl/src/draw/sw/lv_draw_sw_rect.c ****                 blend_area.y1 = y;
 1889              		.loc 1 657 0 discriminator 2
 1890 0670 0AF1010A 		add	r10, r10, #1
 1891              	.LVL240:
 1892 0674 0FFA8AFA 		sxth	r10, r10
 1893              	.LVL241:
 1894              	.L114:
 657:Drivers/lvgl/lvgl/src/draw/sw/lv_draw_sw_rect.c ****                 blend_area.y1 = y;
 1895              		.loc 1 657 0 is_stmt 0 discriminator 1
 1896 0678 BDF94E30 		ldrsh	r3, [sp, #78]
 1897 067c 5345     		cmp	r3, r10
 1898 067e 10DB     		blt	.L204
 658:Drivers/lvgl/lvgl/src/draw/sw/lv_draw_sw_rect.c ****                 blend_area.y2 = y;
 1899              		.loc 1 658 0 is_stmt 1
 1900 0680 ADF852A0 		strh	r10, [sp, #82]	@ movhi
 659:Drivers/lvgl/lvgl/src/draw/sw/lv_draw_sw_rect.c **** 
 1901              		.loc 1 659 0
 1902 0684 ADF856A0 		strh	r10, [sp, #86]	@ movhi
 661:Drivers/lvgl/lvgl/src/draw/sw/lv_draw_sw_rect.c ****                     lv_memset(mask_buf, sh_buf_tmp[0], w);
 1903              		.loc 1 661 0
 1904 0688 002F     		cmp	r7, #0
 1905 068a CED0     		beq	.L205
 668:Drivers/lvgl/lvgl/src/draw/sw/lv_draw_sw_rect.c ****                     lv_draw_sw_blend(draw_ctx, &blend_dsc);
 1906              		.loc 1 668 0
 1907 068c B9F1FF0F 		cmp	r9, #255
 1908 0690 E5D0     		beq	.L206
 668:Drivers/lvgl/lvgl/src/draw/sw/lv_draw_sw_rect.c ****                     lv_draw_sw_blend(draw_ctx, &blend_dsc);
ARM GAS  /tmp/ccV6ypnB.s 			page 67


 1909              		.loc 1 668 0 is_stmt 0 discriminator 2
 1910 0692 9BF80020 		ldrb	r2, [fp]	@ zero_extendqisi2
 1911 0696 95F83630 		ldrb	r3, [r5, #54]	@ zero_extendqisi2
 1912 069a 03FB02F3 		mul	r3, r3, r2
 1913 069e 1B0A     		lsrs	r3, r3, #8
 1914 06a0 DFE7     		b	.L119
 1915              	.L204:
 1916 06a2 089F     		ldr	r7, [sp, #32]
 1917 06a4 2AE6     		b	.L110
 1918              	.LVL242:
 1919              	.L192:
 1920              	.LBE153:
 686:Drivers/lvgl/lvgl/src/draw/sw/lv_draw_sw_rect.c ****         lv_coord_t w = lv_area_get_width(&clip_area_sub);
 1921              		.loc 1 686 0 is_stmt 1 discriminator 1
 1922 06a6 BDF90830 		ldrsh	r3, [sp, #8]
 1923 06aa 0793     		str	r3, [sp, #28]
 1924 06ac 1A46     		mov	r2, r3
 1925 06ae 1CA9     		add	r1, sp, #112
 1926 06b0 12A8     		add	r0, sp, #72
 1927 06b2 FFF7FEFF 		bl	_lv_area_is_in
 1928              	.LVL243:
 685:Drivers/lvgl/lvgl/src/draw/sw/lv_draw_sw_rect.c ****        !_lv_area_is_in(&clip_area_sub, &bg_area, r_bg)) {
 1929              		.loc 1 685 0 discriminator 1
 1930 06b6 0028     		cmp	r0, #0
 1931 06b8 7FF445AE 		bne	.L121
 1932              	.LVL244:
 1933              	.LBB156:
 1934              	.LBB157:
 1935              	.LBB158:
 125:Drivers/lvgl/lvgl/src/draw/sw/../../misc/lv_area.h **** }
 1936              		.loc 2 125 0
 1937 06bc BDF84C30 		ldrh	r3, [sp, #76]
 1938 06c0 BDF84820 		ldrh	r2, [sp, #72]
 1939 06c4 9B1A     		subs	r3, r3, r2
 1940 06c6 9BB2     		uxth	r3, r3
 1941 06c8 0133     		adds	r3, r3, #1
 1942 06ca 1AB2     		sxth	r2, r3
 1943 06cc 0892     		str	r2, [sp, #32]
 1944              	.LVL245:
 1945              	.LBE158:
 1946              	.LBE157:
 689:Drivers/lvgl/lvgl/src/draw/sw/lv_draw_sw_rect.c ****         if(w > 0) {
 1947              		.loc 1 689 0
 1948 06ce BDF956B0 		ldrsh	fp, [sp, #86]
 1949 06d2 BDF94E30 		ldrsh	r3, [sp, #78]
 1950 06d6 ABEB030B 		sub	fp, fp, r3
 1951 06da 059B     		ldr	r3, [sp, #20]
 1952 06dc 04FB0B3B 		mla	fp, r4, fp, r3
 1953              	.LVL246:
 690:Drivers/lvgl/lvgl/src/draw/sw/lv_draw_sw_rect.c ****             /*Do not mask if out of the bg*/
 1954              		.loc 1 690 0
 1955 06e0 002A     		cmp	r2, #0
 1956 06e2 7FF730AE 		ble	.L121
 692:Drivers/lvgl/lvgl/src/draw/sw/lv_draw_sw_rect.c ****             else simple_sub = simple;
 1957              		.loc 1 692 0
 1958 06e6 009B     		ldr	r3, [sp]
 1959 06e8 23B9     		cbnz	r3, .L207
ARM GAS  /tmp/ccV6ypnB.s 			page 68


 1960              	.L122:
 1961              	.LVL247:
 695:Drivers/lvgl/lvgl/src/draw/sw/lv_draw_sw_rect.c ****                 blend_dsc.mask_buf = mask_buf;
 1962              		.loc 1 695 0
 1963 06ea 009B     		ldr	r3, [sp]
 1964 06ec 4BB9     		cbnz	r3, .L123
 696:Drivers/lvgl/lvgl/src/draw/sw/lv_draw_sw_rect.c ****             }
 1965              		.loc 1 696 0
 1966 06ee 019B     		ldr	r3, [sp, #4]
 1967 06f0 0E93     		str	r3, [sp, #56]
 1968 06f2 08E0     		b	.L124
 1969              	.LVL248:
 1970              	.L207:
 692:Drivers/lvgl/lvgl/src/draw/sw/lv_draw_sw_rect.c ****             else simple_sub = simple;
 1971              		.loc 1 692 0 discriminator 1
 1972 06f4 079A     		ldr	r2, [sp, #28]
 1973 06f6 1CA9     		add	r1, sp, #112
 1974 06f8 12A8     		add	r0, sp, #72
 1975 06fa FFF7FEFF 		bl	_lv_area_is_out
 1976              	.LVL249:
 1977 06fe 0028     		cmp	r0, #0
 1978 0700 F3D0     		beq	.L122
 1979              	.L123:
 699:Drivers/lvgl/lvgl/src/draw/sw/lv_draw_sw_rect.c ****             }
 1980              		.loc 1 699 0
 1981 0702 0023     		movs	r3, #0
 1982 0704 0E93     		str	r3, [sp, #56]
 1983              	.L124:
 701:Drivers/lvgl/lvgl/src/draw/sw/lv_draw_sw_rect.c ****             blend_area.x2 = clip_area_sub.x2;
 1984              		.loc 1 701 0
 1985 0706 BDF94830 		ldrsh	r3, [sp, #72]
 1986 070a ADF85030 		strh	r3, [sp, #80]	@ movhi
 702:Drivers/lvgl/lvgl/src/draw/sw/lv_draw_sw_rect.c **** 
 1987              		.loc 1 702 0
 1988 070e BDF94C30 		ldrsh	r3, [sp, #76]
 1989 0712 ADF85430 		strh	r3, [sp, #84]	@ movhi
 704:Drivers/lvgl/lvgl/src/draw/sw/lv_draw_sw_rect.c ****                 blend_area.y1 = y;
 1990              		.loc 1 704 0
 1991 0716 BDF94EA0 		ldrsh	r10, [sp, #78]
 1992              	.LVL250:
 1993 071a 0997     		str	r7, [sp, #36]
 1994 071c 009F     		ldr	r7, [sp]
 1995 071e 2DE0     		b	.L125
 1996              	.L210:
 709:Drivers/lvgl/lvgl/src/draw/sw/lv_draw_sw_rect.c ****                 else simple_sub = simple;
 1997              		.loc 1 709 0 discriminator 1
 1998 0720 079A     		ldr	r2, [sp, #28]
 1999 0722 1CA9     		add	r1, sp, #112
 2000 0724 12A8     		add	r0, sp, #72
 2001 0726 FFF7FEFF 		bl	_lv_area_is_out
 2002              	.LVL251:
 2003 072a 98BB     		cbnz	r0, .L127
 2004 072c 30E0     		b	.L126
 2005              	.LVL252:
 2006              	.L211:
 713:Drivers/lvgl/lvgl/src/draw/sw/lv_draw_sw_rect.c ****                     blend_dsc.mask_res = lv_draw_mask_apply(mask_buf, clip_area_sub.x1, y, w);
 2007              		.loc 1 713 0
ARM GAS  /tmp/ccV6ypnB.s 			page 69


 2008 072e 089A     		ldr	r2, [sp, #32]
 2009 0730 9BF80010 		ldrb	r1, [fp]	@ zero_extendqisi2
 2010 0734 0198     		ldr	r0, [sp, #4]
 2011 0736 FFF7FEFF 		bl	lv_memset
 2012              	.LVL253:
 714:Drivers/lvgl/lvgl/src/draw/sw/lv_draw_sw_rect.c ****                     if(blend_dsc.mask_res == LV_DRAW_MASK_RES_FULL_COVER) blend_dsc.mask_res = LV_D
 2013              		.loc 1 714 0
 2014 073a 089B     		ldr	r3, [sp, #32]
 2015 073c 5246     		mov	r2, r10
 2016 073e BDF94810 		ldrsh	r1, [sp, #72]
 2017 0742 0198     		ldr	r0, [sp, #4]
 2018 0744 FFF7FEFF 		bl	lv_draw_mask_apply
 2019              	.LVL254:
 2020 0748 8DF83C00 		strb	r0, [sp, #60]
 715:Drivers/lvgl/lvgl/src/draw/sw/lv_draw_sw_rect.c ****                     lv_draw_sw_blend(draw_ctx, &blend_dsc);
 2021              		.loc 1 715 0
 2022 074c 0128     		cmp	r0, #1
 2023 074e 04D0     		beq	.L208
 2024              	.L128:
 716:Drivers/lvgl/lvgl/src/draw/sw/lv_draw_sw_rect.c ****                 }
 2025              		.loc 1 716 0
 2026 0750 0BA9     		add	r1, sp, #44
 2027 0752 3046     		mov	r0, r6
 2028 0754 FFF7FEFF 		bl	lv_draw_sw_blend
 2029              	.LVL255:
 2030 0758 0BE0     		b	.L129
 2031              	.L208:
 715:Drivers/lvgl/lvgl/src/draw/sw/lv_draw_sw_rect.c ****                     lv_draw_sw_blend(draw_ctx, &blend_dsc);
 2032              		.loc 1 715 0 discriminator 1
 2033 075a 0223     		movs	r3, #2
 2034 075c 8DF83C30 		strb	r3, [sp, #60]
 2035 0760 F6E7     		b	.L128
 2036              	.LVL256:
 2037              	.L212:
 719:Drivers/lvgl/lvgl/src/draw/sw/lv_draw_sw_rect.c ****                     lv_draw_sw_blend(draw_ctx, &blend_dsc);
 2038              		.loc 1 719 0 discriminator 1
 2039 0762 9BF80030 		ldrb	r3, [fp]	@ zero_extendqisi2
 2040              	.L131:
 719:Drivers/lvgl/lvgl/src/draw/sw/lv_draw_sw_rect.c ****                     lv_draw_sw_blend(draw_ctx, &blend_dsc);
 2041              		.loc 1 719 0 is_stmt 0 discriminator 4
 2042 0766 8DF84430 		strb	r3, [sp, #68]
 720:Drivers/lvgl/lvgl/src/draw/sw/lv_draw_sw_rect.c **** 
 2043              		.loc 1 720 0 is_stmt 1 discriminator 4
 2044 076a 0BA9     		add	r1, sp, #44
 2045 076c 3046     		mov	r0, r6
 2046 076e FFF7FEFF 		bl	lv_draw_sw_blend
 2047              	.LVL257:
 2048              	.L129:
 723:Drivers/lvgl/lvgl/src/draw/sw/lv_draw_sw_rect.c ****             }
 2049              		.loc 1 723 0 discriminator 2
 2050 0772 A344     		add	fp, fp, r4
 2051              	.LVL258:
 704:Drivers/lvgl/lvgl/src/draw/sw/lv_draw_sw_rect.c ****                 blend_area.y1 = y;
 2052              		.loc 1 704 0 discriminator 2
 2053 0774 0AF1FF3A 		add	r10, r10, #-1
 2054              	.LVL259:
 2055 0778 0FFA8AFA 		sxth	r10, r10
ARM GAS  /tmp/ccV6ypnB.s 			page 70


 2056              	.LVL260:
 2057              	.L125:
 704:Drivers/lvgl/lvgl/src/draw/sw/lv_draw_sw_rect.c ****                 blend_area.y1 = y;
 2058              		.loc 1 704 0 is_stmt 0 discriminator 1
 2059 077c BDF94A30 		ldrsh	r3, [sp, #74]
 2060 0780 5345     		cmp	r3, r10
 2061 0782 12DC     		bgt	.L209
 705:Drivers/lvgl/lvgl/src/draw/sw/lv_draw_sw_rect.c ****                 blend_area.y2 = y;
 2062              		.loc 1 705 0 is_stmt 1
 2063 0784 ADF852A0 		strh	r10, [sp, #82]	@ movhi
 706:Drivers/lvgl/lvgl/src/draw/sw/lv_draw_sw_rect.c **** 
 2064              		.loc 1 706 0
 2065 0788 ADF856A0 		strh	r10, [sp, #86]	@ movhi
 709:Drivers/lvgl/lvgl/src/draw/sw/lv_draw_sw_rect.c ****                 else simple_sub = simple;
 2066              		.loc 1 709 0
 2067 078c 002F     		cmp	r7, #0
 2068 078e C7D1     		bne	.L210
 2069              	.L126:
 2070              	.LVL261:
 712:Drivers/lvgl/lvgl/src/draw/sw/lv_draw_sw_rect.c ****                     lv_memset(mask_buf, sh_buf_tmp[0], w);
 2071              		.loc 1 712 0
 2072 0790 002F     		cmp	r7, #0
 2073 0792 CCD0     		beq	.L211
 2074              	.LVL262:
 2075              	.L127:
 719:Drivers/lvgl/lvgl/src/draw/sw/lv_draw_sw_rect.c ****                     lv_draw_sw_blend(draw_ctx, &blend_dsc);
 2076              		.loc 1 719 0
 2077 0794 B9F1FF0F 		cmp	r9, #255
 2078 0798 E3D0     		beq	.L212
 719:Drivers/lvgl/lvgl/src/draw/sw/lv_draw_sw_rect.c ****                     lv_draw_sw_blend(draw_ctx, &blend_dsc);
 2079              		.loc 1 719 0 is_stmt 0 discriminator 2
 2080 079a 9BF80020 		ldrb	r2, [fp]	@ zero_extendqisi2
 2081 079e 95F83630 		ldrb	r3, [r5, #54]	@ zero_extendqisi2
 2082 07a2 03FB02F3 		mul	r3, r3, r2
 2083 07a6 1B0A     		lsrs	r3, r3, #8
 2084 07a8 DDE7     		b	.L131
 2085              	.L209:
 2086 07aa 099F     		ldr	r7, [sp, #36]
 2087 07ac CBE5     		b	.L121
 2088              	.LVL263:
 2089              	.L193:
 2090              	.LBE156:
 741:Drivers/lvgl/lvgl/src/draw/sw/lv_draw_sw_rect.c ****         lv_coord_t w = lv_area_get_width(&clip_area_sub);
 2091              		.loc 1 741 0 is_stmt 1 discriminator 1
 2092 07ae BDF90850 		ldrsh	r5, [sp, #8]
 2093              	.LVL264:
 2094 07b2 2A46     		mov	r2, r5
 2095 07b4 1CA9     		add	r1, sp, #112
 2096 07b6 12A8     		add	r0, sp, #72
 2097 07b8 FFF7FEFF 		bl	_lv_area_is_in
 2098              	.LVL265:
 740:Drivers/lvgl/lvgl/src/draw/sw/lv_draw_sw_rect.c ****        !_lv_area_is_in(&clip_area_sub, &bg_area, r_bg)) {
 2099              		.loc 1 740 0 discriminator 1
 2100 07bc 0028     		cmp	r0, #0
 2101 07be 7FF4F0AD 		bne	.L133
 2102              	.LVL266:
 2103              	.LBB159:
ARM GAS  /tmp/ccV6ypnB.s 			page 71


 2104              	.LBB160:
 2105              	.LBB161:
 125:Drivers/lvgl/lvgl/src/draw/sw/../../misc/lv_area.h **** }
 2106              		.loc 2 125 0
 2107 07c2 BDF84CA0 		ldrh	r10, [sp, #76]
 2108 07c6 BDF94830 		ldrsh	r3, [sp, #72]
 2109 07ca 9AB2     		uxth	r2, r3
 2110 07cc AAEB020A 		sub	r10, r10, r2
 2111 07d0 1FFA8AFA 		uxth	r10, r10
 2112 07d4 0AF1010A 		add	r10, r10, #1
 2113 07d8 0FFA8AFA 		sxth	r10, r10
 2114              	.LVL267:
 2115              	.LBE161:
 2116              	.LBE160:
 744:Drivers/lvgl/lvgl/src/draw/sw/lv_draw_sw_rect.c ****         sh_buf_tmp += clip_area_sub.x1 - (shadow_area.x2 - corner_size + 1);
 2117              		.loc 1 744 0
 2118 07dc 04F1FF3B 		add	fp, r4, #-1
 2119              	.LVL268:
 745:Drivers/lvgl/lvgl/src/draw/sw/lv_draw_sw_rect.c **** 
 2120              		.loc 1 745 0
 2121 07e0 BDF98420 		ldrsh	r2, [sp, #132]
 2122 07e4 121B     		subs	r2, r2, r4
 2123 07e6 0132     		adds	r2, r2, #1
 2124 07e8 9B1A     		subs	r3, r3, r2
 2125 07ea 04FB0B3B 		mla	fp, r4, fp, r3
 2126 07ee 059B     		ldr	r3, [sp, #20]
 2127 07f0 9B44     		add	fp, fp, r3
 2128              	.LVL269:
 748:Drivers/lvgl/lvgl/src/draw/sw/lv_draw_sw_rect.c ****         else simple_sub = simple;
 2129              		.loc 1 748 0
 2130 07f2 009B     		ldr	r3, [sp]
 2131 07f4 CBB9     		cbnz	r3, .L213
 2132              	.L134:
 2133              	.LVL270:
 750:Drivers/lvgl/lvgl/src/draw/sw/lv_draw_sw_rect.c **** 
 2134              		.loc 1 750 0
 2135 07f6 009B     		ldr	r3, [sp]
 2136 07f8 0BB3     		cbz	r3, .L176
 2137 07fa 9946     		mov	r9, r3
 2138 07fc 5B46     		mov	r3, fp
 2139              	.LVL271:
 2140              	.L135:
 750:Drivers/lvgl/lvgl/src/draw/sw/lv_draw_sw_rect.c **** 
 2141              		.loc 1 750 0 is_stmt 0 discriminator 4
 2142 07fe 0E93     		str	r3, [sp, #56]
 752:Drivers/lvgl/lvgl/src/draw/sw/lv_draw_sw_rect.c ****             blend_area.x1 = clip_area_sub.x1;
 2143              		.loc 1 752 0 is_stmt 1 discriminator 4
 2144 0800 BAF1000F 		cmp	r10, #0
 2145 0804 7FF7CDAD 		ble	.L133
 753:Drivers/lvgl/lvgl/src/draw/sw/lv_draw_sw_rect.c ****             blend_area.x2 = clip_area_sub.x2;
 2146              		.loc 1 753 0
 2147 0808 BDF94830 		ldrsh	r3, [sp, #72]
 2148 080c ADF85030 		strh	r3, [sp, #80]	@ movhi
 754:Drivers/lvgl/lvgl/src/draw/sw/lv_draw_sw_rect.c ****             blend_dsc.mask_res = LV_DRAW_MASK_RES_CHANGED;    /*In simple mode it won't be overwrit
 2149              		.loc 1 754 0
 2150 0810 BDF94C30 		ldrsh	r3, [sp, #76]
 2151 0814 ADF85430 		strh	r3, [sp, #84]	@ movhi
ARM GAS  /tmp/ccV6ypnB.s 			page 72


 755:Drivers/lvgl/lvgl/src/draw/sw/lv_draw_sw_rect.c ****             for(y = clip_area_sub.y1; y <= clip_area_sub.y2; y++) {
 2152              		.loc 1 755 0
 2153 0818 0223     		movs	r3, #2
 2154 081a 8DF83C30 		strb	r3, [sp, #60]
 756:Drivers/lvgl/lvgl/src/draw/sw/lv_draw_sw_rect.c ****                 blend_area.y1 = y;
 2155              		.loc 1 756 0
 2156 081e BDF94A50 		ldrsh	r5, [sp, #74]
 2157              	.LVL272:
 2158 0822 2346     		mov	r3, r4
 2159 0824 4C46     		mov	r4, r9
 2160              	.LVL273:
 2161 0826 9946     		mov	r9, r3
 2162 0828 13E0     		b	.L136
 2163              	.LVL274:
 2164              	.L213:
 748:Drivers/lvgl/lvgl/src/draw/sw/lv_draw_sw_rect.c ****         else simple_sub = simple;
 2165              		.loc 1 748 0 discriminator 1
 2166 082a 2A46     		mov	r2, r5
 2167 082c 1CA9     		add	r1, sp, #112
 2168 082e 12A8     		add	r0, sp, #72
 2169 0830 FFF7FEFF 		bl	_lv_area_is_out
 2170              	.LVL275:
 2171 0834 8146     		mov	r9, r0
 2172 0836 0028     		cmp	r0, #0
 2173 0838 DDD0     		beq	.L134
 750:Drivers/lvgl/lvgl/src/draw/sw/lv_draw_sw_rect.c **** 
 2174              		.loc 1 750 0
 2175 083a 5B46     		mov	r3, fp
 2176 083c DFE7     		b	.L135
 2177              	.LVL276:
 2178              	.L176:
 2179 083e DDF80090 		ldr	r9, [sp]
 2180 0842 019B     		ldr	r3, [sp, #4]
 2181 0844 DBE7     		b	.L135
 2182              	.LVL277:
 2183              	.L137:
 765:Drivers/lvgl/lvgl/src/draw/sw/lv_draw_sw_rect.c ****             }
 2184              		.loc 1 765 0 discriminator 2
 2185 0846 0BA9     		add	r1, sp, #44
 2186 0848 3046     		mov	r0, r6
 2187 084a FFF7FEFF 		bl	lv_draw_sw_blend
 2188              	.LVL278:
 756:Drivers/lvgl/lvgl/src/draw/sw/lv_draw_sw_rect.c ****                 blend_area.y1 = y;
 2189              		.loc 1 756 0 discriminator 2
 2190 084e 0135     		adds	r5, r5, #1
 2191              	.LVL279:
 2192 0850 2DB2     		sxth	r5, r5
 2193              	.LVL280:
 2194              	.L136:
 756:Drivers/lvgl/lvgl/src/draw/sw/lv_draw_sw_rect.c ****                 blend_area.y1 = y;
 2195              		.loc 1 756 0 is_stmt 0 discriminator 1
 2196 0852 BDF94E30 		ldrsh	r3, [sp, #78]
 2197 0856 AB42     		cmp	r3, r5
 2198 0858 19DB     		blt	.L214
 757:Drivers/lvgl/lvgl/src/draw/sw/lv_draw_sw_rect.c ****                 blend_area.y2 = y;
 2199              		.loc 1 757 0 is_stmt 1
 2200 085a ADF85250 		strh	r5, [sp, #82]	@ movhi
ARM GAS  /tmp/ccV6ypnB.s 			page 73


 758:Drivers/lvgl/lvgl/src/draw/sw/lv_draw_sw_rect.c **** 
 2201              		.loc 1 758 0
 2202 085e ADF85650 		strh	r5, [sp, #86]	@ movhi
 760:Drivers/lvgl/lvgl/src/draw/sw/lv_draw_sw_rect.c ****                     lv_memcpy(mask_buf, sh_buf_tmp, w);
 2203              		.loc 1 760 0
 2204 0862 002C     		cmp	r4, #0
 2205 0864 EFD1     		bne	.L137
 761:Drivers/lvgl/lvgl/src/draw/sw/lv_draw_sw_rect.c ****                     blend_dsc.mask_res = lv_draw_mask_apply(mask_buf, clip_area_sub.x1, y, w);
 2206              		.loc 1 761 0
 2207 0866 5246     		mov	r2, r10
 2208 0868 5946     		mov	r1, fp
 2209 086a 0198     		ldr	r0, [sp, #4]
 2210 086c FFF7FEFF 		bl	lv_memcpy
 2211              	.LVL281:
 762:Drivers/lvgl/lvgl/src/draw/sw/lv_draw_sw_rect.c ****                     if(blend_dsc.mask_res == LV_DRAW_MASK_RES_FULL_COVER) blend_dsc.mask_res = LV_D
 2212              		.loc 1 762 0
 2213 0870 5346     		mov	r3, r10
 2214 0872 2A46     		mov	r2, r5
 2215 0874 BDF94810 		ldrsh	r1, [sp, #72]
 2216 0878 0198     		ldr	r0, [sp, #4]
 2217 087a FFF7FEFF 		bl	lv_draw_mask_apply
 2218              	.LVL282:
 2219 087e 8DF83C00 		strb	r0, [sp, #60]
 763:Drivers/lvgl/lvgl/src/draw/sw/lv_draw_sw_rect.c ****                 }
 2220              		.loc 1 763 0
 2221 0882 0128     		cmp	r0, #1
 2222 0884 DFD1     		bne	.L137
 763:Drivers/lvgl/lvgl/src/draw/sw/lv_draw_sw_rect.c ****                 }
 2223              		.loc 1 763 0 is_stmt 0 discriminator 1
 2224 0886 0223     		movs	r3, #2
 2225 0888 8DF83C30 		strb	r3, [sp, #60]
 2226 088c DBE7     		b	.L137
 2227              	.L214:
 2228 088e 4C46     		mov	r4, r9
 2229 0890 87E5     		b	.L133
 2230              	.LVL283:
 2231              	.L140:
 2232              	.LBE159:
 2233              	.LBB162:
 776:Drivers/lvgl/lvgl/src/draw/sw/lv_draw_sw_rect.c ****             lv_opa_t tmp = *start;
 2234              		.loc 1 776 0 is_stmt 1 discriminator 1
 2235 0892 B2EB600F 		cmp	r2, r0, asr #1
 2236 0896 0BDA     		bge	.L215
 2237              	.LBB146:
 777:Drivers/lvgl/lvgl/src/draw/sw/lv_draw_sw_rect.c ****             *start = *end;
 2238              		.loc 1 777 0 discriminator 3
 2239 0898 0878     		ldrb	r0, [r1]	@ zero_extendqisi2
 2240              	.LVL284:
 778:Drivers/lvgl/lvgl/src/draw/sw/lv_draw_sw_rect.c ****             *end = tmp;
 2241              		.loc 1 778 0 discriminator 3
 2242 089a 1D78     		ldrb	r5, [r3]	@ zero_extendqisi2
 2243 089c 01F8015B 		strb	r5, [r1], #1
 2244              	.LVL285:
 779:Drivers/lvgl/lvgl/src/draw/sw/lv_draw_sw_rect.c **** 
 2245              		.loc 1 779 0 discriminator 3
 2246 08a0 03F80109 		strb	r0, [r3], #-1
 2247              	.LVL286:
ARM GAS  /tmp/ccV6ypnB.s 			page 74


 2248              	.LBE146:
 776:Drivers/lvgl/lvgl/src/draw/sw/lv_draw_sw_rect.c ****             lv_opa_t tmp = *start;
 2249              		.loc 1 776 0 discriminator 3
 2250 08a4 0132     		adds	r2, r2, #1
 2251              	.LVL287:
 2252              	.L139:
 776:Drivers/lvgl/lvgl/src/draw/sw/lv_draw_sw_rect.c ****             lv_opa_t tmp = *start;
 2253              		.loc 1 776 0 is_stmt 0 discriminator 1
 2254 08a6 2046     		mov	r0, r4
 2255 08a8 002C     		cmp	r4, #0
 2256 08aa F2DA     		bge	.L140
 2257              	.LVL288:
 2258 08ac 601C     		adds	r0, r4, #1
 2259              	.LVL289:
 2260 08ae F0E7     		b	.L140
 2261              	.L215:
 784:Drivers/lvgl/lvgl/src/draw/sw/lv_draw_sw_rect.c ****     }
 2262              		.loc 1 784 0 is_stmt 1 discriminator 2
 2263 08b0 A644     		add	lr, lr, r4
 2264              	.LVL290:
 2265              	.LBE162:
 772:Drivers/lvgl/lvgl/src/draw/sw/lv_draw_sw_rect.c ****         int32_t x;
 2266              		.loc 1 772 0 discriminator 2
 2267 08b2 0CF1010C 		add	ip, ip, #1
 2268              	.LVL291:
 2269 08b6 0FFA8CFC 		sxth	ip, ip
 2270              	.LVL292:
 2271              	.L142:
 772:Drivers/lvgl/lvgl/src/draw/sw/lv_draw_sw_rect.c ****         int32_t x;
 2272              		.loc 1 772 0 is_stmt 0 discriminator 1
 2273 08ba A445     		cmp	ip, r4
 2274 08bc 04DA     		bge	.L216
 2275              	.LVL293:
 2276              	.LBB163:
 775:Drivers/lvgl/lvgl/src/draw/sw/lv_draw_sw_rect.c ****         for(x = 0; x < corner_size / 2; x++) {
 2277              		.loc 1 775 0 is_stmt 1
 2278 08be 631E     		subs	r3, r4, #1
 2279 08c0 7344     		add	r3, r3, lr
 2280              	.LVL294:
 774:Drivers/lvgl/lvgl/src/draw/sw/lv_draw_sw_rect.c ****         lv_opa_t * end = sh_buf_tmp + corner_size - 1;
 2281              		.loc 1 774 0
 2282 08c2 7146     		mov	r1, lr
 776:Drivers/lvgl/lvgl/src/draw/sw/lv_draw_sw_rect.c ****             lv_opa_t tmp = *start;
 2283              		.loc 1 776 0
 2284 08c4 0022     		movs	r2, #0
 2285 08c6 EEE7     		b	.L139
 2286              	.LVL295:
 2287              	.L216:
 2288              	.LBE163:
 788:Drivers/lvgl/lvgl/src/draw/sw/lv_draw_sw_rect.c ****     blend_area.x2 = shadow_area.x1 + corner_size - 1;
 2289              		.loc 1 788 0
 2290 08c8 BDF98030 		ldrsh	r3, [sp, #128]
 2291 08cc ADF85030 		strh	r3, [sp, #80]	@ movhi
 789:Drivers/lvgl/lvgl/src/draw/sw/lv_draw_sw_rect.c ****     blend_area.y1 = shadow_area.y1 + corner_size;
 2292              		.loc 1 789 0
 2293 08d0 17FA83F3 		uxtah	r3, r7, r3
 2294 08d4 9BB2     		uxth	r3, r3
ARM GAS  /tmp/ccV6ypnB.s 			page 75


 2295 08d6 013B     		subs	r3, r3, #1
 2296 08d8 1BB2     		sxth	r3, r3
 790:Drivers/lvgl/lvgl/src/draw/sw/lv_draw_sw_rect.c ****     blend_area.y2 = shadow_area.y2 - corner_size;
 2297              		.loc 1 790 0
 2298 08da BDF88210 		ldrh	r1, [sp, #130]
 2299 08de 3944     		add	r1, r1, r7
 2300 08e0 09B2     		sxth	r1, r1
 791:Drivers/lvgl/lvgl/src/draw/sw/lv_draw_sw_rect.c ****     /*Do not overdraw the other corners*/
 2301              		.loc 1 791 0
 2302 08e2 BDF88620 		ldrh	r2, [sp, #134]
 2303 08e6 D21B     		subs	r2, r2, r7
 2304 08e8 12B2     		sxth	r2, r2
 793:Drivers/lvgl/lvgl/src/draw/sw/lv_draw_sw_rect.c ****     blend_area.y2 = LV_MAX(blend_area.y2, h_half);
 2305              		.loc 1 793 0
 2306 08ea 0398     		ldr	r0, [sp, #12]
 2307 08ec 8142     		cmp	r1, r0
 2308 08ee A8BF     		it	ge
 2309 08f0 0146     		movge	r1, r0
 2310 08f2 ADF85210 		strh	r1, [sp, #82]	@ movhi
 794:Drivers/lvgl/lvgl/src/draw/sw/lv_draw_sw_rect.c ****     blend_area.x2 = LV_MIN(blend_area.x2, w_half - 1);
 2311              		.loc 1 794 0
 2312 08f6 4245     		cmp	r2, r8
 2313 08f8 B8BF     		it	lt
 2314 08fa 4246     		movlt	r2, r8
 2315 08fc ADF85620 		strh	r2, [sp, #86]	@ movhi
 795:Drivers/lvgl/lvgl/src/draw/sw/lv_draw_sw_rect.c **** 
 2316              		.loc 1 795 0
 2317 0900 049A     		ldr	r2, [sp, #16]
 2318 0902 551E     		subs	r5, r2, #1
 2319 0904 AB42     		cmp	r3, r5
 2320 0906 A8BF     		it	ge
 2321 0908 2B46     		movge	r3, r5
 2322 090a ADF85430 		strh	r3, [sp, #84]	@ movhi
 797:Drivers/lvgl/lvgl/src/draw/sw/lv_draw_sw_rect.c ****        !_lv_area_is_in(&clip_area_sub, &bg_area, r_bg)) {
 2323              		.loc 1 797 0
 2324 090e B268     		ldr	r2, [r6, #8]
 2325 0910 14A9     		add	r1, sp, #80
 2326 0912 12A8     		add	r0, sp, #72
 2327 0914 FFF7FEFF 		bl	_lv_area_intersect
 2328              	.LVL296:
 2329 0918 0028     		cmp	r0, #0
 2330 091a 72D1     		bne	.L217
 2331              	.LVL297:
 2332              	.L144:
 828:Drivers/lvgl/lvgl/src/draw/sw/lv_draw_sw_rect.c ****     blend_area.x2 = shadow_area.x1 + corner_size - 1;
 2333              		.loc 1 828 0
 2334 091c BDF98030 		ldrsh	r3, [sp, #128]
 2335 0920 ADF85030 		strh	r3, [sp, #80]	@ movhi
 829:Drivers/lvgl/lvgl/src/draw/sw/lv_draw_sw_rect.c ****     blend_area.y1 = shadow_area.y1;
 2336              		.loc 1 829 0
 2337 0924 17FA83F2 		uxtah	r2, r7, r3
 2338 0928 92B2     		uxth	r2, r2
 2339 092a 013A     		subs	r2, r2, #1
 2340 092c 12B2     		sxth	r2, r2
 830:Drivers/lvgl/lvgl/src/draw/sw/lv_draw_sw_rect.c ****     blend_area.y2 = shadow_area.y1 + corner_size - 1;
 2341              		.loc 1 830 0
 2342 092e BDF98230 		ldrsh	r3, [sp, #130]
ARM GAS  /tmp/ccV6ypnB.s 			page 76


 2343 0932 ADF85230 		strh	r3, [sp, #82]	@ movhi
 831:Drivers/lvgl/lvgl/src/draw/sw/lv_draw_sw_rect.c ****     /*Do not overdraw the other corners*/
 2344              		.loc 1 831 0
 2345 0936 17FA83F3 		uxtah	r3, r7, r3
 2346 093a 9BB2     		uxth	r3, r3
 2347 093c 013B     		subs	r3, r3, #1
 2348 093e 1BB2     		sxth	r3, r3
 833:Drivers/lvgl/lvgl/src/draw/sw/lv_draw_sw_rect.c ****     blend_area.y2 = LV_MIN(blend_area.y2, h_half);
 2349              		.loc 1 833 0
 2350 0940 AA42     		cmp	r2, r5
 2351 0942 A8BF     		it	ge
 2352 0944 2A46     		movge	r2, r5
 2353 0946 ADF85420 		strh	r2, [sp, #84]	@ movhi
 834:Drivers/lvgl/lvgl/src/draw/sw/lv_draw_sw_rect.c **** 
 2354              		.loc 1 834 0
 2355 094a 9845     		cmp	r8, r3
 2356 094c A8BF     		it	ge
 2357 094e 9846     		movge	r8, r3
 2358              	.LVL298:
 2359 0950 ADF85680 		strh	r8, [sp, #86]	@ movhi
 836:Drivers/lvgl/lvgl/src/draw/sw/lv_draw_sw_rect.c ****        !_lv_area_is_in(&clip_area_sub, &bg_area, r_bg)) {
 2360              		.loc 1 836 0
 2361 0954 B268     		ldr	r2, [r6, #8]
 2362 0956 14A9     		add	r1, sp, #80
 2363 0958 12A8     		add	r0, sp, #72
 2364 095a FFF7FEFF 		bl	_lv_area_intersect
 2365              	.LVL299:
 2366 095e 0028     		cmp	r0, #0
 2367 0960 40F0C080 		bne	.L218
 2368              	.L150:
 873:Drivers/lvgl/lvgl/src/draw/sw/lv_draw_sw_rect.c ****     blend_area.x2 = shadow_area.x1 + corner_size - 1;
 2369              		.loc 1 873 0
 2370 0964 BDF98030 		ldrsh	r3, [sp, #128]
 2371 0968 ADF85030 		strh	r3, [sp, #80]	@ movhi
 874:Drivers/lvgl/lvgl/src/draw/sw/lv_draw_sw_rect.c ****     blend_area.y1 = shadow_area.y2 - corner_size + 1;
 2372              		.loc 1 874 0
 2373 096c 17FA83F3 		uxtah	r3, r7, r3
 2374 0970 9BB2     		uxth	r3, r3
 2375 0972 013B     		subs	r3, r3, #1
 2376 0974 1BB2     		sxth	r3, r3
 875:Drivers/lvgl/lvgl/src/draw/sw/lv_draw_sw_rect.c ****     blend_area.y2 = shadow_area.y2;
 2377              		.loc 1 875 0
 2378 0976 BDF98610 		ldrsh	r1, [sp, #134]
 2379 097a 8AB2     		uxth	r2, r1
 2380 097c D21B     		subs	r2, r2, r7
 2381 097e 92B2     		uxth	r2, r2
 2382 0980 0132     		adds	r2, r2, #1
 2383 0982 12B2     		sxth	r2, r2
 876:Drivers/lvgl/lvgl/src/draw/sw/lv_draw_sw_rect.c ****     /*Do not overdraw the other corners*/
 2384              		.loc 1 876 0
 2385 0984 ADF85610 		strh	r1, [sp, #86]	@ movhi
 878:Drivers/lvgl/lvgl/src/draw/sw/lv_draw_sw_rect.c ****     blend_area.x2 = LV_MIN(blend_area.x2, w_half - 1);
 2386              		.loc 1 878 0
 2387 0988 0399     		ldr	r1, [sp, #12]
 2388 098a 9142     		cmp	r1, r2
 2389 098c B8BF     		it	lt
 2390 098e 1146     		movlt	r1, r2
ARM GAS  /tmp/ccV6ypnB.s 			page 77


 2391 0990 ADF85210 		strh	r1, [sp, #82]	@ movhi
 879:Drivers/lvgl/lvgl/src/draw/sw/lv_draw_sw_rect.c **** 
 2392              		.loc 1 879 0
 2393 0994 9D42     		cmp	r5, r3
 2394 0996 A8BF     		it	ge
 2395 0998 1D46     		movge	r5, r3
 2396 099a ADF85450 		strh	r5, [sp, #84]	@ movhi
 881:Drivers/lvgl/lvgl/src/draw/sw/lv_draw_sw_rect.c ****        !_lv_area_is_in(&clip_area_sub, &bg_area, r_bg)) {
 2397              		.loc 1 881 0
 2398 099e B268     		ldr	r2, [r6, #8]
 2399 09a0 14A9     		add	r1, sp, #80
 2400 09a2 12A8     		add	r0, sp, #72
 2401 09a4 FFF7FEFF 		bl	_lv_area_intersect
 2402              	.LVL300:
 2403 09a8 0028     		cmp	r0, #0
 2404 09aa 40F01481 		bne	.L219
 2405              	.LVL301:
 2406              	.L156:
 915:Drivers/lvgl/lvgl/src/draw/sw/lv_draw_sw_rect.c ****     blend_area.x2 = shadow_area.x2 - corner_size;
 2407              		.loc 1 915 0
 2408 09ae BDF88030 		ldrh	r3, [sp, #128]
 2409 09b2 3B44     		add	r3, r3, r7
 2410 09b4 ADF85030 		strh	r3, [sp, #80]	@ movhi
 916:Drivers/lvgl/lvgl/src/draw/sw/lv_draw_sw_rect.c ****     blend_area.y1 = shadow_area.y1 + corner_size;
 2411              		.loc 1 916 0
 2412 09b8 BDF88430 		ldrh	r3, [sp, #132]
 2413 09bc DB1B     		subs	r3, r3, r7
 2414 09be ADF85430 		strh	r3, [sp, #84]	@ movhi
 917:Drivers/lvgl/lvgl/src/draw/sw/lv_draw_sw_rect.c ****     blend_area.y2 = shadow_area.y2 - corner_size;
 2415              		.loc 1 917 0
 2416 09c2 BDF88230 		ldrh	r3, [sp, #130]
 2417 09c6 3B44     		add	r3, r3, r7
 2418 09c8 ADF85230 		strh	r3, [sp, #82]	@ movhi
 918:Drivers/lvgl/lvgl/src/draw/sw/lv_draw_sw_rect.c ****     blend_dsc.mask_buf = mask_buf;
 2419              		.loc 1 918 0
 2420 09cc BDF88630 		ldrh	r3, [sp, #134]
 2421 09d0 DF1B     		subs	r7, r3, r7
 2422 09d2 ADF85670 		strh	r7, [sp, #86]	@ movhi
 919:Drivers/lvgl/lvgl/src/draw/sw/lv_draw_sw_rect.c **** 
 2423              		.loc 1 919 0
 2424 09d6 019B     		ldr	r3, [sp, #4]
 2425 09d8 0E93     		str	r3, [sp, #56]
 921:Drivers/lvgl/lvgl/src/draw/sw/lv_draw_sw_rect.c ****        !_lv_area_is_in(&clip_area_sub, &bg_area, r_bg)) {
 2426              		.loc 1 921 0
 2427 09da B268     		ldr	r2, [r6, #8]
 2428 09dc 14A9     		add	r1, sp, #80
 2429 09de 12A8     		add	r0, sp, #72
 2430 09e0 FFF7FEFF 		bl	_lv_area_intersect
 2431              	.LVL302:
 2432 09e4 0028     		cmp	r0, #0
 2433 09e6 40F06E81 		bne	.L220
 2434              	.L162:
 938:Drivers/lvgl/lvgl/src/draw/sw/lv_draw_sw_rect.c ****         lv_draw_mask_free_param(&mask_rout_param);
 2435              		.loc 1 938 0
 2436 09ea 009B     		ldr	r3, [sp]
 2437 09ec 002B     		cmp	r3, #0
 2438 09ee 00F0A381 		beq	.L221
ARM GAS  /tmp/ccV6ypnB.s 			page 78


 2439              	.L165:
 942:Drivers/lvgl/lvgl/src/draw/sw/lv_draw_sw_rect.c ****     lv_mem_buf_release(mask_buf);
 2440              		.loc 1 942 0
 2441 09f2 0598     		ldr	r0, [sp, #20]
 2442 09f4 FFF7FEFF 		bl	lv_mem_buf_release
 2443              	.LVL303:
 943:Drivers/lvgl/lvgl/src/draw/sw/lv_draw_sw_rect.c **** }
 2444              		.loc 1 943 0
 2445 09f8 0198     		ldr	r0, [sp, #4]
 2446 09fa FFF7FEFF 		bl	lv_mem_buf_release
 2447              	.LVL304:
 2448 09fe FFF758BB 		b	.L85
 2449              	.LVL305:
 2450              	.L217:
 798:Drivers/lvgl/lvgl/src/draw/sw/lv_draw_sw_rect.c ****         lv_coord_t w = lv_area_get_width(&clip_area_sub);
 2451              		.loc 1 798 0 discriminator 1
 2452 0a02 BDF90890 		ldrsh	r9, [sp, #8]
 2453 0a06 4A46     		mov	r2, r9
 2454 0a08 1CA9     		add	r1, sp, #112
 2455 0a0a 12A8     		add	r0, sp, #72
 2456 0a0c FFF7FEFF 		bl	_lv_area_is_in
 2457              	.LVL306:
 797:Drivers/lvgl/lvgl/src/draw/sw/lv_draw_sw_rect.c ****        !_lv_area_is_in(&clip_area_sub, &bg_area, r_bg)) {
 2458              		.loc 1 797 0 discriminator 1
 2459 0a10 0028     		cmp	r0, #0
 2460 0a12 83D1     		bne	.L144
 2461              	.LVL307:
 2462              	.LBB164:
 2463              	.LBB165:
 2464              	.LBB166:
 125:Drivers/lvgl/lvgl/src/draw/sw/../../misc/lv_area.h **** }
 2465              		.loc 2 125 0
 2466 0a14 BDF84CB0 		ldrh	fp, [sp, #76]
 2467 0a18 BDF94820 		ldrsh	r2, [sp, #72]
 2468 0a1c 93B2     		uxth	r3, r2
 2469 0a1e ABEB030B 		sub	fp, fp, r3
 2470 0a22 1FFA8BFB 		uxth	fp, fp
 2471 0a26 0BF1010B 		add	fp, fp, #1
 2472 0a2a 0FFA8BFB 		sxth	fp, fp
 2473              	.LVL308:
 2474              	.LBE166:
 2475              	.LBE165:
 801:Drivers/lvgl/lvgl/src/draw/sw/lv_draw_sw_rect.c ****         sh_buf_tmp += clip_area_sub.x1 - blend_area.x1;
 2476              		.loc 1 801 0
 2477 0a2e 631E     		subs	r3, r4, #1
 2478              	.LVL309:
 802:Drivers/lvgl/lvgl/src/draw/sw/lv_draw_sw_rect.c **** 
 2479              		.loc 1 802 0
 2480 0a30 BDF95010 		ldrsh	r1, [sp, #80]
 2481 0a34 521A     		subs	r2, r2, r1
 2482 0a36 04FB0323 		mla	r3, r4, r3, r2
 2483 0a3a 059A     		ldr	r2, [sp, #20]
 2484 0a3c D318     		adds	r3, r2, r3
 2485 0a3e 0493     		str	r3, [sp, #16]
 2486              	.LVL310:
 805:Drivers/lvgl/lvgl/src/draw/sw/lv_draw_sw_rect.c ****         else simple_sub = simple;
 2487              		.loc 1 805 0
ARM GAS  /tmp/ccV6ypnB.s 			page 79


 2488 0a40 009B     		ldr	r3, [sp]
 2489              	.LVL311:
 2490 0a42 CBB9     		cbnz	r3, .L222
 2491              	.L145:
 2492              	.LVL312:
 807:Drivers/lvgl/lvgl/src/draw/sw/lv_draw_sw_rect.c ****         if(w > 0) {
 2493              		.loc 1 807 0
 2494 0a44 009B     		ldr	r3, [sp]
 2495 0a46 0BB3     		cbz	r3, .L178
 2496 0a48 9A46     		mov	r10, r3
 2497 0a4a 049B     		ldr	r3, [sp, #16]
 2498              	.LVL313:
 2499              	.L146:
 807:Drivers/lvgl/lvgl/src/draw/sw/lv_draw_sw_rect.c ****         if(w > 0) {
 2500              		.loc 1 807 0 is_stmt 0 discriminator 4
 2501 0a4c 0E93     		str	r3, [sp, #56]
 808:Drivers/lvgl/lvgl/src/draw/sw/lv_draw_sw_rect.c ****             blend_area.x1 = clip_area_sub.x1;
 2502              		.loc 1 808 0 is_stmt 1 discriminator 4
 2503 0a4e BBF1000F 		cmp	fp, #0
 2504 0a52 7FF763AF 		ble	.L144
 809:Drivers/lvgl/lvgl/src/draw/sw/lv_draw_sw_rect.c ****             blend_area.x2 = clip_area_sub.x2;
 2505              		.loc 1 809 0
 2506 0a56 BDF94830 		ldrsh	r3, [sp, #72]
 2507 0a5a ADF85030 		strh	r3, [sp, #80]	@ movhi
 810:Drivers/lvgl/lvgl/src/draw/sw/lv_draw_sw_rect.c ****             blend_dsc.mask_res = LV_DRAW_MASK_RES_CHANGED;    /*In simple mode it won't be overwrit
 2508              		.loc 1 810 0
 2509 0a5e BDF94C30 		ldrsh	r3, [sp, #76]
 2510 0a62 ADF85430 		strh	r3, [sp, #84]	@ movhi
 811:Drivers/lvgl/lvgl/src/draw/sw/lv_draw_sw_rect.c ****             for(y = clip_area_sub.y1; y <= clip_area_sub.y2; y++) {
 2511              		.loc 1 811 0
 2512 0a66 0223     		movs	r3, #2
 2513 0a68 8DF83C30 		strb	r3, [sp, #60]
 812:Drivers/lvgl/lvgl/src/draw/sw/lv_draw_sw_rect.c ****                 blend_area.y1 = y;
 2514              		.loc 1 812 0
 2515 0a6c BDF94A90 		ldrsh	r9, [sp, #74]
 2516              	.LVL314:
 2517 0a70 2346     		mov	r3, r4
 2518 0a72 5446     		mov	r4, r10
 2519              	.LVL315:
 2520 0a74 9A46     		mov	r10, r3
 2521 0a76 15E0     		b	.L147
 2522              	.LVL316:
 2523              	.L222:
 805:Drivers/lvgl/lvgl/src/draw/sw/lv_draw_sw_rect.c ****         else simple_sub = simple;
 2524              		.loc 1 805 0 discriminator 1
 2525 0a78 4A46     		mov	r2, r9
 2526 0a7a 1CA9     		add	r1, sp, #112
 2527 0a7c 12A8     		add	r0, sp, #72
 2528 0a7e FFF7FEFF 		bl	_lv_area_is_out
 2529              	.LVL317:
 2530 0a82 8246     		mov	r10, r0
 2531 0a84 0028     		cmp	r0, #0
 2532 0a86 DDD0     		beq	.L145
 807:Drivers/lvgl/lvgl/src/draw/sw/lv_draw_sw_rect.c ****         if(w > 0) {
 2533              		.loc 1 807 0
 2534 0a88 049B     		ldr	r3, [sp, #16]
 2535 0a8a DFE7     		b	.L146
ARM GAS  /tmp/ccV6ypnB.s 			page 80


 2536              	.LVL318:
 2537              	.L178:
 2538 0a8c DDF800A0 		ldr	r10, [sp]
 2539 0a90 019B     		ldr	r3, [sp, #4]
 2540 0a92 DBE7     		b	.L146
 2541              	.LVL319:
 2542              	.L148:
 822:Drivers/lvgl/lvgl/src/draw/sw/lv_draw_sw_rect.c ****             }
 2543              		.loc 1 822 0 discriminator 2
 2544 0a94 0BA9     		add	r1, sp, #44
 2545 0a96 3046     		mov	r0, r6
 2546 0a98 FFF7FEFF 		bl	lv_draw_sw_blend
 2547              	.LVL320:
 812:Drivers/lvgl/lvgl/src/draw/sw/lv_draw_sw_rect.c ****                 blend_area.y1 = y;
 2548              		.loc 1 812 0 discriminator 2
 2549 0a9c 09F10109 		add	r9, r9, #1
 2550              	.LVL321:
 2551 0aa0 0FFA89F9 		sxth	r9, r9
 2552              	.LVL322:
 2553              	.L147:
 812:Drivers/lvgl/lvgl/src/draw/sw/lv_draw_sw_rect.c ****                 blend_area.y1 = y;
 2554              		.loc 1 812 0 is_stmt 0 discriminator 1
 2555 0aa4 BDF94E30 		ldrsh	r3, [sp, #78]
 2556 0aa8 4B45     		cmp	r3, r9
 2557 0aaa 19DB     		blt	.L223
 813:Drivers/lvgl/lvgl/src/draw/sw/lv_draw_sw_rect.c ****                 blend_area.y2 = y;
 2558              		.loc 1 813 0 is_stmt 1
 2559 0aac ADF85290 		strh	r9, [sp, #82]	@ movhi
 814:Drivers/lvgl/lvgl/src/draw/sw/lv_draw_sw_rect.c **** 
 2560              		.loc 1 814 0
 2561 0ab0 ADF85690 		strh	r9, [sp, #86]	@ movhi
 816:Drivers/lvgl/lvgl/src/draw/sw/lv_draw_sw_rect.c ****                     lv_memcpy(mask_buf, sh_buf_tmp, w);
 2562              		.loc 1 816 0
 2563 0ab4 002C     		cmp	r4, #0
 2564 0ab6 EDD1     		bne	.L148
 817:Drivers/lvgl/lvgl/src/draw/sw/lv_draw_sw_rect.c ****                     blend_dsc.mask_res = lv_draw_mask_apply(mask_buf, clip_area_sub.x1, y, w);
 2565              		.loc 1 817 0
 2566 0ab8 5A46     		mov	r2, fp
 2567 0aba 0499     		ldr	r1, [sp, #16]
 2568 0abc 0198     		ldr	r0, [sp, #4]
 2569 0abe FFF7FEFF 		bl	lv_memcpy
 2570              	.LVL323:
 818:Drivers/lvgl/lvgl/src/draw/sw/lv_draw_sw_rect.c ****                     if(blend_dsc.mask_res == LV_DRAW_MASK_RES_FULL_COVER) blend_dsc.mask_res = LV_D
 2571              		.loc 1 818 0
 2572 0ac2 5B46     		mov	r3, fp
 2573 0ac4 4A46     		mov	r2, r9
 2574 0ac6 BDF94810 		ldrsh	r1, [sp, #72]
 2575 0aca 0198     		ldr	r0, [sp, #4]
 2576 0acc FFF7FEFF 		bl	lv_draw_mask_apply
 2577              	.LVL324:
 2578 0ad0 8DF83C00 		strb	r0, [sp, #60]
 819:Drivers/lvgl/lvgl/src/draw/sw/lv_draw_sw_rect.c ****                 }
 2579              		.loc 1 819 0
 2580 0ad4 0128     		cmp	r0, #1
 2581 0ad6 DDD1     		bne	.L148
 819:Drivers/lvgl/lvgl/src/draw/sw/lv_draw_sw_rect.c ****                 }
 2582              		.loc 1 819 0 is_stmt 0 discriminator 1
ARM GAS  /tmp/ccV6ypnB.s 			page 81


 2583 0ad8 0223     		movs	r3, #2
 2584 0ada 8DF83C30 		strb	r3, [sp, #60]
 2585 0ade D9E7     		b	.L148
 2586              	.L223:
 2587 0ae0 5446     		mov	r4, r10
 2588 0ae2 1BE7     		b	.L144
 2589              	.LVL325:
 2590              	.L218:
 2591              	.LBE164:
 837:Drivers/lvgl/lvgl/src/draw/sw/lv_draw_sw_rect.c ****         lv_coord_t w = lv_area_get_width(&clip_area_sub);
 2592              		.loc 1 837 0 is_stmt 1 discriminator 1
 2593 0ae4 BDF90880 		ldrsh	r8, [sp, #8]
 2594 0ae8 4246     		mov	r2, r8
 2595 0aea 1CA9     		add	r1, sp, #112
 2596 0aec 12A8     		add	r0, sp, #72
 2597 0aee FFF7FEFF 		bl	_lv_area_is_in
 2598              	.LVL326:
 836:Drivers/lvgl/lvgl/src/draw/sw/lv_draw_sw_rect.c ****        !_lv_area_is_in(&clip_area_sub, &bg_area, r_bg)) {
 2599              		.loc 1 836 0 discriminator 1
 2600 0af2 0028     		cmp	r0, #0
 2601 0af4 7FF436AF 		bne	.L150
 2602              	.LVL327:
 2603              	.LBB167:
 2604              	.LBB168:
 2605              	.LBB169:
 125:Drivers/lvgl/lvgl/src/draw/sw/../../misc/lv_area.h **** }
 2606              		.loc 2 125 0
 2607 0af8 BDF84CA0 		ldrh	r10, [sp, #76]
 2608 0afc BDF94830 		ldrsh	r3, [sp, #72]
 2609 0b00 9AB2     		uxth	r2, r3
 2610 0b02 AAEB020A 		sub	r10, r10, r2
 2611 0b06 1FFA8AFA 		uxth	r10, r10
 2612 0b0a 0AF1010A 		add	r10, r10, #1
 2613 0b0e 0FFA8AFA 		sxth	r10, r10
 2614              	.LVL328:
 2615              	.LBE169:
 2616              	.LBE168:
 840:Drivers/lvgl/lvgl/src/draw/sw/lv_draw_sw_rect.c ****         sh_buf_tmp += clip_area_sub.x1 - blend_area.x1;
 2617              		.loc 1 840 0
 2618 0b12 BDF94A90 		ldrsh	r9, [sp, #74]
 2619 0b16 BDF95220 		ldrsh	r2, [sp, #82]
 2620 0b1a A9EB0209 		sub	r9, r9, r2
 2621              	.LVL329:
 841:Drivers/lvgl/lvgl/src/draw/sw/lv_draw_sw_rect.c **** 
 2622              		.loc 1 841 0
 2623 0b1e BDF95020 		ldrsh	r2, [sp, #80]
 2624 0b22 9B1A     		subs	r3, r3, r2
 2625 0b24 04FB0939 		mla	r9, r4, r9, r3
 2626              	.LVL330:
 2627 0b28 059B     		ldr	r3, [sp, #20]
 2628 0b2a 9944     		add	r9, r9, r3
 2629              	.LVL331:
 844:Drivers/lvgl/lvgl/src/draw/sw/lv_draw_sw_rect.c ****         else simple_sub = simple;
 2630              		.loc 1 844 0
 2631 0b2c 009B     		ldr	r3, [sp]
 2632 0b2e DBB9     		cbnz	r3, .L224
 2633 0b30 DDF800B0 		ldr	fp, [sp]
ARM GAS  /tmp/ccV6ypnB.s 			page 82


 2634              	.L151:
 2635              	.LVL332:
 846:Drivers/lvgl/lvgl/src/draw/sw/lv_draw_sw_rect.c **** 
 2636              		.loc 1 846 0
 2637 0b34 019B     		ldr	r3, [sp, #4]
 2638 0b36 0E93     		str	r3, [sp, #56]
 848:Drivers/lvgl/lvgl/src/draw/sw/lv_draw_sw_rect.c ****             blend_area.x1 = clip_area_sub.x1;
 2639              		.loc 1 848 0
 2640 0b38 BAF1000F 		cmp	r10, #0
 2641 0b3c 7FF712AF 		ble	.L150
 849:Drivers/lvgl/lvgl/src/draw/sw/lv_draw_sw_rect.c ****             blend_area.x2 = clip_area_sub.x2;
 2642              		.loc 1 849 0
 2643 0b40 BDF94830 		ldrsh	r3, [sp, #72]
 2644 0b44 ADF85030 		strh	r3, [sp, #80]	@ movhi
 850:Drivers/lvgl/lvgl/src/draw/sw/lv_draw_sw_rect.c ****             blend_dsc.mask_res = LV_DRAW_MASK_RES_CHANGED;    /*In simple mode it won't be overwrit
 2645              		.loc 1 850 0
 2646 0b48 BDF94C30 		ldrsh	r3, [sp, #76]
 2647 0b4c ADF85430 		strh	r3, [sp, #84]	@ movhi
 851:Drivers/lvgl/lvgl/src/draw/sw/lv_draw_sw_rect.c ****             for(y = clip_area_sub.y1; y <= clip_area_sub.y2; y++) {
 2648              		.loc 1 851 0
 2649 0b50 0223     		movs	r3, #2
 2650 0b52 8DF83C30 		strb	r3, [sp, #60]
 852:Drivers/lvgl/lvgl/src/draw/sw/lv_draw_sw_rect.c ****                 blend_area.y1 = y;
 2651              		.loc 1 852 0
 2652 0b56 BDF94A80 		ldrsh	r8, [sp, #74]
 2653              	.LVL333:
 2654 0b5a 5A46     		mov	r2, fp
 2655 0b5c AB46     		mov	fp, r5
 2656              	.LVL334:
 2657 0b5e 2346     		mov	r3, r4
 2658 0b60 4C46     		mov	r4, r9
 2659              	.LVL335:
 2660 0b62 9946     		mov	r9, r3
 2661              	.LVL336:
 2662 0b64 1546     		mov	r5, r2
 2663 0b66 23E0     		b	.L152
 2664              	.LVL337:
 2665              	.L224:
 844:Drivers/lvgl/lvgl/src/draw/sw/lv_draw_sw_rect.c ****         else simple_sub = simple;
 2666              		.loc 1 844 0 discriminator 1
 2667 0b68 4246     		mov	r2, r8
 2668 0b6a 1CA9     		add	r1, sp, #112
 2669 0b6c 12A8     		add	r0, sp, #72
 2670 0b6e FFF7FEFF 		bl	_lv_area_is_out
 2671              	.LVL338:
 2672 0b72 8346     		mov	fp, r0
 2673 0b74 0028     		cmp	r0, #0
 2674 0b76 DDD1     		bne	.L151
 2675 0b78 DDF800B0 		ldr	fp, [sp]
 2676 0b7c DAE7     		b	.L151
 2677              	.LVL339:
 2678              	.L227:
 857:Drivers/lvgl/lvgl/src/draw/sw/lv_draw_sw_rect.c ****                     blend_dsc.mask_res = lv_draw_mask_apply(mask_buf, clip_area_sub.x1, y, w);
 2679              		.loc 1 857 0
 2680 0b7e 4A46     		mov	r2, r9
 2681 0b80 2146     		mov	r1, r4
 2682 0b82 0198     		ldr	r0, [sp, #4]
ARM GAS  /tmp/ccV6ypnB.s 			page 83


 2683 0b84 FFF7FEFF 		bl	lv_memcpy
 2684              	.LVL340:
 858:Drivers/lvgl/lvgl/src/draw/sw/lv_draw_sw_rect.c ****                     if(blend_dsc.mask_res == LV_DRAW_MASK_RES_FULL_COVER) blend_dsc.mask_res = LV_D
 2685              		.loc 1 858 0
 2686 0b88 5346     		mov	r3, r10
 2687 0b8a 4246     		mov	r2, r8
 2688 0b8c BDF94810 		ldrsh	r1, [sp, #72]
 2689 0b90 0198     		ldr	r0, [sp, #4]
 2690 0b92 FFF7FEFF 		bl	lv_draw_mask_apply
 2691              	.LVL341:
 2692 0b96 8DF83C00 		strb	r0, [sp, #60]
 859:Drivers/lvgl/lvgl/src/draw/sw/lv_draw_sw_rect.c ****                 }
 2693              		.loc 1 859 0
 2694 0b9a 0128     		cmp	r0, #1
 2695 0b9c 14D0     		beq	.L225
 2696              	.L154:
 865:Drivers/lvgl/lvgl/src/draw/sw/lv_draw_sw_rect.c ****                 sh_buf_tmp += corner_size;
 2697              		.loc 1 865 0 discriminator 2
 2698 0b9e 0BA9     		add	r1, sp, #44
 2699 0ba0 3046     		mov	r0, r6
 2700 0ba2 FFF7FEFF 		bl	lv_draw_sw_blend
 2701              	.LVL342:
 866:Drivers/lvgl/lvgl/src/draw/sw/lv_draw_sw_rect.c ****             }
 2702              		.loc 1 866 0 discriminator 2
 2703 0ba6 4C44     		add	r4, r4, r9
 2704              	.LVL343:
 852:Drivers/lvgl/lvgl/src/draw/sw/lv_draw_sw_rect.c ****                 blend_area.y1 = y;
 2705              		.loc 1 852 0 discriminator 2
 2706 0ba8 08F10108 		add	r8, r8, #1
 2707              	.LVL344:
 2708 0bac 0FFA88F8 		sxth	r8, r8
 2709              	.LVL345:
 2710              	.L152:
 852:Drivers/lvgl/lvgl/src/draw/sw/lv_draw_sw_rect.c ****                 blend_area.y1 = y;
 2711              		.loc 1 852 0 is_stmt 0 discriminator 1
 2712 0bb0 BDF94E30 		ldrsh	r3, [sp, #78]
 2713 0bb4 4345     		cmp	r3, r8
 2714 0bb6 0BDB     		blt	.L226
 853:Drivers/lvgl/lvgl/src/draw/sw/lv_draw_sw_rect.c ****                 blend_area.y2 = y;
 2715              		.loc 1 853 0 is_stmt 1
 2716 0bb8 ADF85280 		strh	r8, [sp, #82]	@ movhi
 854:Drivers/lvgl/lvgl/src/draw/sw/lv_draw_sw_rect.c **** 
 2717              		.loc 1 854 0
 2718 0bbc ADF85680 		strh	r8, [sp, #86]	@ movhi
 856:Drivers/lvgl/lvgl/src/draw/sw/lv_draw_sw_rect.c ****                     lv_memcpy(mask_buf, sh_buf_tmp, corner_size);
 2719              		.loc 1 856 0
 2720 0bc0 002D     		cmp	r5, #0
 2721 0bc2 DCD0     		beq	.L227
 862:Drivers/lvgl/lvgl/src/draw/sw/lv_draw_sw_rect.c ****                 }
 2722              		.loc 1 862 0
 2723 0bc4 0E94     		str	r4, [sp, #56]
 2724 0bc6 EAE7     		b	.L154
 2725              	.L225:
 859:Drivers/lvgl/lvgl/src/draw/sw/lv_draw_sw_rect.c ****                 }
 2726              		.loc 1 859 0 discriminator 1
 2727 0bc8 0223     		movs	r3, #2
 2728 0bca 8DF83C30 		strb	r3, [sp, #60]
ARM GAS  /tmp/ccV6ypnB.s 			page 84


 2729 0bce E6E7     		b	.L154
 2730              	.L226:
 2731 0bd0 5D46     		mov	r5, fp
 2732 0bd2 4C46     		mov	r4, r9
 2733              	.LVL346:
 2734 0bd4 C6E6     		b	.L150
 2735              	.LVL347:
 2736              	.L219:
 2737              	.LBE167:
 882:Drivers/lvgl/lvgl/src/draw/sw/lv_draw_sw_rect.c ****         lv_coord_t w = lv_area_get_width(&clip_area_sub);
 2738              		.loc 1 882 0 discriminator 1
 2739 0bd6 BDF90850 		ldrsh	r5, [sp, #8]
 2740 0bda 2A46     		mov	r2, r5
 2741 0bdc 1CA9     		add	r1, sp, #112
 2742 0bde 12A8     		add	r0, sp, #72
 2743 0be0 FFF7FEFF 		bl	_lv_area_is_in
 2744              	.LVL348:
 881:Drivers/lvgl/lvgl/src/draw/sw/lv_draw_sw_rect.c ****        !_lv_area_is_in(&clip_area_sub, &bg_area, r_bg)) {
 2745              		.loc 1 881 0 discriminator 1
 2746 0be4 0028     		cmp	r0, #0
 2747 0be6 7FF4E2AE 		bne	.L156
 2748              	.LVL349:
 2749              	.LBB170:
 2750              	.LBB171:
 2751              	.LBB172:
 125:Drivers/lvgl/lvgl/src/draw/sw/../../misc/lv_area.h **** }
 2752              		.loc 2 125 0
 2753 0bea BDF84C90 		ldrh	r9, [sp, #76]
 2754 0bee BDF94830 		ldrsh	r3, [sp, #72]
 2755 0bf2 9AB2     		uxth	r2, r3
 2756 0bf4 A9EB0209 		sub	r9, r9, r2
 2757 0bf8 1FFA89F9 		uxth	r9, r9
 2758 0bfc 09F10109 		add	r9, r9, #1
 2759 0c00 0FFA89F9 		sxth	r9, r9
 2760              	.LVL350:
 2761              	.LBE172:
 2762              	.LBE171:
 885:Drivers/lvgl/lvgl/src/draw/sw/lv_draw_sw_rect.c ****         sh_buf_tmp += clip_area_sub.x1 - blend_area.x1;
 2763              		.loc 1 885 0
 2764 0c04 BDF95680 		ldrsh	r8, [sp, #86]
 2765 0c08 BDF94E20 		ldrsh	r2, [sp, #78]
 2766 0c0c A8EB0208 		sub	r8, r8, r2
 2767              	.LVL351:
 886:Drivers/lvgl/lvgl/src/draw/sw/lv_draw_sw_rect.c **** 
 2768              		.loc 1 886 0
 2769 0c10 BDF95020 		ldrsh	r2, [sp, #80]
 2770 0c14 9B1A     		subs	r3, r3, r2
 2771 0c16 04FB0838 		mla	r8, r4, r8, r3
 2772              	.LVL352:
 2773 0c1a 059B     		ldr	r3, [sp, #20]
 2774 0c1c 9844     		add	r8, r8, r3
 2775              	.LVL353:
 889:Drivers/lvgl/lvgl/src/draw/sw/lv_draw_sw_rect.c ****         else simple_sub = simple;
 2776              		.loc 1 889 0
 2777 0c1e 009B     		ldr	r3, [sp]
 2778 0c20 DBB9     		cbnz	r3, .L228
 2779 0c22 DDF800A0 		ldr	r10, [sp]
ARM GAS  /tmp/ccV6ypnB.s 			page 85


 2780              	.L157:
 2781              	.LVL354:
 891:Drivers/lvgl/lvgl/src/draw/sw/lv_draw_sw_rect.c ****         if(w > 0) {
 2782              		.loc 1 891 0
 2783 0c26 019B     		ldr	r3, [sp, #4]
 2784 0c28 0E93     		str	r3, [sp, #56]
 892:Drivers/lvgl/lvgl/src/draw/sw/lv_draw_sw_rect.c ****             blend_area.x1 = clip_area_sub.x1;
 2785              		.loc 1 892 0
 2786 0c2a B9F1000F 		cmp	r9, #0
 2787 0c2e 7FF7BEAE 		ble	.L156
 893:Drivers/lvgl/lvgl/src/draw/sw/lv_draw_sw_rect.c ****             blend_area.x2 = clip_area_sub.x2;
 2788              		.loc 1 893 0
 2789 0c32 BDF94830 		ldrsh	r3, [sp, #72]
 2790 0c36 ADF85030 		strh	r3, [sp, #80]	@ movhi
 894:Drivers/lvgl/lvgl/src/draw/sw/lv_draw_sw_rect.c ****             blend_dsc.mask_res = LV_DRAW_MASK_RES_CHANGED;    /*In simple mode it won't be overwrit
 2791              		.loc 1 894 0
 2792 0c3a BDF94C30 		ldrsh	r3, [sp, #76]
 2793 0c3e ADF85430 		strh	r3, [sp, #84]	@ movhi
 895:Drivers/lvgl/lvgl/src/draw/sw/lv_draw_sw_rect.c ****             for(y = clip_area_sub.y2; y >= clip_area_sub.y1; y--) {
 2794              		.loc 1 895 0
 2795 0c42 0223     		movs	r3, #2
 2796 0c44 8DF83C30 		strb	r3, [sp, #60]
 896:Drivers/lvgl/lvgl/src/draw/sw/lv_draw_sw_rect.c ****                 blend_area.y1 = y;
 2797              		.loc 1 896 0
 2798 0c48 BDF94E50 		ldrsh	r5, [sp, #78]
 2799              	.LVL355:
 2800 0c4c 2246     		mov	r2, r4
 2801 0c4e 4446     		mov	r4, r8
 2802              	.LVL356:
 2803 0c50 3346     		mov	r3, r6
 2804 0c52 5646     		mov	r6, r10
 2805              	.LVL357:
 2806 0c54 9A46     		mov	r10, r3
 2807              	.LVL358:
 2808 0c56 9046     		mov	r8, r2
 2809              	.LVL359:
 2810 0c58 23E0     		b	.L158
 2811              	.LVL360:
 2812              	.L228:
 889:Drivers/lvgl/lvgl/src/draw/sw/lv_draw_sw_rect.c ****         else simple_sub = simple;
 2813              		.loc 1 889 0 discriminator 1
 2814 0c5a 2A46     		mov	r2, r5
 2815 0c5c 1CA9     		add	r1, sp, #112
 2816 0c5e 12A8     		add	r0, sp, #72
 2817 0c60 FFF7FEFF 		bl	_lv_area_is_out
 2818              	.LVL361:
 2819 0c64 8246     		mov	r10, r0
 2820 0c66 0028     		cmp	r0, #0
 2821 0c68 DDD1     		bne	.L157
 2822 0c6a DDF800A0 		ldr	r10, [sp]
 2823 0c6e DAE7     		b	.L157
 2824              	.LVL362:
 2825              	.L231:
 901:Drivers/lvgl/lvgl/src/draw/sw/lv_draw_sw_rect.c ****                     blend_dsc.mask_res = lv_draw_mask_apply(mask_buf, clip_area_sub.x1, y, w);
 2826              		.loc 1 901 0
 2827 0c70 4246     		mov	r2, r8
 2828 0c72 2146     		mov	r1, r4
ARM GAS  /tmp/ccV6ypnB.s 			page 86


 2829 0c74 DDF804B0 		ldr	fp, [sp, #4]
 2830 0c78 5846     		mov	r0, fp
 2831 0c7a FFF7FEFF 		bl	lv_memcpy
 2832              	.LVL363:
 902:Drivers/lvgl/lvgl/src/draw/sw/lv_draw_sw_rect.c ****                     if(blend_dsc.mask_res == LV_DRAW_MASK_RES_FULL_COVER) blend_dsc.mask_res = LV_D
 2833              		.loc 1 902 0
 2834 0c7e 4B46     		mov	r3, r9
 2835 0c80 2A46     		mov	r2, r5
 2836 0c82 BDF94810 		ldrsh	r1, [sp, #72]
 2837 0c86 5846     		mov	r0, fp
 2838 0c88 FFF7FEFF 		bl	lv_draw_mask_apply
 2839              	.LVL364:
 2840 0c8c 8DF83C00 		strb	r0, [sp, #60]
 903:Drivers/lvgl/lvgl/src/draw/sw/lv_draw_sw_rect.c ****                 }
 2841              		.loc 1 903 0
 2842 0c90 0128     		cmp	r0, #1
 2843 0c92 12D0     		beq	.L229
 2844              	.L160:
 908:Drivers/lvgl/lvgl/src/draw/sw/lv_draw_sw_rect.c ****                 sh_buf_tmp += corner_size;
 2845              		.loc 1 908 0 discriminator 2
 2846 0c94 0BA9     		add	r1, sp, #44
 2847 0c96 5046     		mov	r0, r10
 2848 0c98 FFF7FEFF 		bl	lv_draw_sw_blend
 2849              	.LVL365:
 909:Drivers/lvgl/lvgl/src/draw/sw/lv_draw_sw_rect.c ****             }
 2850              		.loc 1 909 0 discriminator 2
 2851 0c9c 4444     		add	r4, r4, r8
 2852              	.LVL366:
 896:Drivers/lvgl/lvgl/src/draw/sw/lv_draw_sw_rect.c ****                 blend_area.y1 = y;
 2853              		.loc 1 896 0 discriminator 2
 2854 0c9e 013D     		subs	r5, r5, #1
 2855              	.LVL367:
 2856 0ca0 2DB2     		sxth	r5, r5
 2857              	.LVL368:
 2858              	.L158:
 896:Drivers/lvgl/lvgl/src/draw/sw/lv_draw_sw_rect.c ****                 blend_area.y1 = y;
 2859              		.loc 1 896 0 is_stmt 0 discriminator 1
 2860 0ca2 BDF94A30 		ldrsh	r3, [sp, #74]
 2861 0ca6 AB42     		cmp	r3, r5
 2862 0ca8 0BDC     		bgt	.L230
 897:Drivers/lvgl/lvgl/src/draw/sw/lv_draw_sw_rect.c ****                 blend_area.y2 = y;
 2863              		.loc 1 897 0 is_stmt 1
 2864 0caa ADF85250 		strh	r5, [sp, #82]	@ movhi
 898:Drivers/lvgl/lvgl/src/draw/sw/lv_draw_sw_rect.c **** 
 2865              		.loc 1 898 0
 2866 0cae ADF85650 		strh	r5, [sp, #86]	@ movhi
 900:Drivers/lvgl/lvgl/src/draw/sw/lv_draw_sw_rect.c ****                     lv_memcpy(mask_buf, sh_buf_tmp, corner_size);
 2867              		.loc 1 900 0
 2868 0cb2 002E     		cmp	r6, #0
 2869 0cb4 DCD0     		beq	.L231
 906:Drivers/lvgl/lvgl/src/draw/sw/lv_draw_sw_rect.c ****                 }
 2870              		.loc 1 906 0
 2871 0cb6 0E94     		str	r4, [sp, #56]
 2872 0cb8 ECE7     		b	.L160
 2873              	.L229:
 903:Drivers/lvgl/lvgl/src/draw/sw/lv_draw_sw_rect.c ****                 }
 2874              		.loc 1 903 0 discriminator 1
ARM GAS  /tmp/ccV6ypnB.s 			page 87


 2875 0cba 0223     		movs	r3, #2
 2876 0cbc 8DF83C30 		strb	r3, [sp, #60]
 2877 0cc0 E8E7     		b	.L160
 2878              	.L230:
 2879 0cc2 5646     		mov	r6, r10
 2880 0cc4 73E6     		b	.L156
 2881              	.LVL369:
 2882              	.L220:
 2883              	.LBE170:
 922:Drivers/lvgl/lvgl/src/draw/sw/lv_draw_sw_rect.c ****         lv_coord_t w = lv_area_get_width(&clip_area_sub);
 2884              		.loc 1 922 0 discriminator 1
 2885 0cc6 029A     		ldr	r2, [sp, #8]
 2886 0cc8 1CA9     		add	r1, sp, #112
 2887 0cca 12A8     		add	r0, sp, #72
 2888 0ccc FFF7FEFF 		bl	_lv_area_is_in
 2889              	.LVL370:
 921:Drivers/lvgl/lvgl/src/draw/sw/lv_draw_sw_rect.c ****        !_lv_area_is_in(&clip_area_sub, &bg_area, r_bg)) {
 2890              		.loc 1 921 0 discriminator 1
 2891 0cd0 0028     		cmp	r0, #0
 2892 0cd2 7FF48AAE 		bne	.L162
 2893              	.LVL371:
 2894              	.LBB173:
 2895              	.LBB174:
 2896              	.LBB175:
 125:Drivers/lvgl/lvgl/src/draw/sw/../../misc/lv_area.h **** }
 2897              		.loc 2 125 0
 2898 0cd6 BDF94C30 		ldrsh	r3, [sp, #76]
 2899 0cda 9DB2     		uxth	r5, r3
 2900 0cdc BDF94820 		ldrsh	r2, [sp, #72]
 2901 0ce0 91B2     		uxth	r1, r2
 2902 0ce2 6D1A     		subs	r5, r5, r1
 2903 0ce4 ADB2     		uxth	r5, r5
 2904 0ce6 0135     		adds	r5, r5, #1
 2905 0ce8 2DB2     		sxth	r5, r5
 2906              	.LVL372:
 2907              	.LBE175:
 2908              	.LBE174:
 924:Drivers/lvgl/lvgl/src/draw/sw/lv_draw_sw_rect.c ****             blend_area.x1 = clip_area_sub.x1;
 2909              		.loc 1 924 0
 2910 0cea 002D     		cmp	r5, #0
 2911 0cec 7FF77DAE 		ble	.L162
 925:Drivers/lvgl/lvgl/src/draw/sw/lv_draw_sw_rect.c ****             blend_area.x2 = clip_area_sub.x2;
 2912              		.loc 1 925 0
 2913 0cf0 ADF85020 		strh	r2, [sp, #80]	@ movhi
 926:Drivers/lvgl/lvgl/src/draw/sw/lv_draw_sw_rect.c ****             for(y = clip_area_sub.y1; y <= clip_area_sub.y2; y++) {
 2914              		.loc 1 926 0
 2915 0cf4 ADF85430 		strh	r3, [sp, #84]	@ movhi
 927:Drivers/lvgl/lvgl/src/draw/sw/lv_draw_sw_rect.c ****                 blend_area.y1 = y;
 2916              		.loc 1 927 0
 2917 0cf8 BDF94A40 		ldrsh	r4, [sp, #74]
 2918              	.LVL373:
 2919 0cfc 17E0     		b	.L163
 2920              	.L164:
 928:Drivers/lvgl/lvgl/src/draw/sw/lv_draw_sw_rect.c ****                 blend_area.y2 = y;
 2921              		.loc 1 928 0 discriminator 3
 2922 0cfe ADF85240 		strh	r4, [sp, #82]	@ movhi
 929:Drivers/lvgl/lvgl/src/draw/sw/lv_draw_sw_rect.c **** 
ARM GAS  /tmp/ccV6ypnB.s 			page 88


 2923              		.loc 1 929 0 discriminator 3
 2924 0d02 ADF85640 		strh	r4, [sp, #86]	@ movhi
 931:Drivers/lvgl/lvgl/src/draw/sw/lv_draw_sw_rect.c ****                 blend_dsc.mask_res = lv_draw_mask_apply(mask_buf, clip_area_sub.x1, y, w);
 2925              		.loc 1 931 0 discriminator 3
 2926 0d06 2946     		mov	r1, r5
 2927 0d08 019F     		ldr	r7, [sp, #4]
 2928 0d0a 3846     		mov	r0, r7
 2929 0d0c FFF7FEFF 		bl	lv_memset_ff
 2930              	.LVL374:
 932:Drivers/lvgl/lvgl/src/draw/sw/lv_draw_sw_rect.c ****                 lv_draw_sw_blend(draw_ctx, &blend_dsc);
 2931              		.loc 1 932 0 discriminator 3
 2932 0d10 2B46     		mov	r3, r5
 2933 0d12 2246     		mov	r2, r4
 2934 0d14 BDF94810 		ldrsh	r1, [sp, #72]
 2935 0d18 3846     		mov	r0, r7
 2936 0d1a FFF7FEFF 		bl	lv_draw_mask_apply
 2937              	.LVL375:
 2938 0d1e 8DF83C00 		strb	r0, [sp, #60]
 933:Drivers/lvgl/lvgl/src/draw/sw/lv_draw_sw_rect.c ****             }
 2939              		.loc 1 933 0 discriminator 3
 2940 0d22 0BA9     		add	r1, sp, #44
 2941 0d24 3046     		mov	r0, r6
 2942 0d26 FFF7FEFF 		bl	lv_draw_sw_blend
 2943              	.LVL376:
 927:Drivers/lvgl/lvgl/src/draw/sw/lv_draw_sw_rect.c ****                 blend_area.y1 = y;
 2944              		.loc 1 927 0 discriminator 3
 2945 0d2a 0134     		adds	r4, r4, #1
 2946              	.LVL377:
 2947 0d2c 24B2     		sxth	r4, r4
 2948              	.LVL378:
 2949              	.L163:
 927:Drivers/lvgl/lvgl/src/draw/sw/lv_draw_sw_rect.c ****                 blend_area.y1 = y;
 2950              		.loc 1 927 0 is_stmt 0 discriminator 1
 2951 0d2e BDF94E30 		ldrsh	r3, [sp, #78]
 2952 0d32 A342     		cmp	r3, r4
 2953 0d34 E3DA     		bge	.L164
 2954 0d36 58E6     		b	.L162
 2955              	.LVL379:
 2956              	.L221:
 2957              	.LBE173:
 939:Drivers/lvgl/lvgl/src/draw/sw/lv_draw_sw_rect.c ****         lv_draw_mask_remove_id(mask_rout_id);
 2958              		.loc 1 939 0 is_stmt 1
 2959 0d38 16A8     		add	r0, sp, #88
 2960 0d3a FFF7FEFF 		bl	lv_draw_mask_free_param
 2961              	.LVL380:
 940:Drivers/lvgl/lvgl/src/draw/sw/lv_draw_sw_rect.c ****     }
 2962              		.loc 1 940 0
 2963 0d3e 0698     		ldr	r0, [sp, #24]
 2964 0d40 FFF7FEFF 		bl	lv_draw_mask_remove_id
 2965              	.LVL381:
 2966 0d44 55E6     		b	.L165
 2967              		.cfi_endproc
 2968              	.LFE164:
 2970              		.section	.text.draw_bg,"ax",%progbits
 2971              		.align	1
 2972              		.syntax unified
 2973              		.thumb
ARM GAS  /tmp/ccV6ypnB.s 			page 89


 2974              		.thumb_func
 2975              		.fpu fpv5-d16
 2977              	draw_bg:
 2978              	.LFB161:
 101:Drivers/lvgl/lvgl/src/draw/sw/lv_draw_sw_rect.c ****     if(dsc->bg_opa <= LV_OPA_MIN) return;
 2979              		.loc 1 101 0
 2980              		.cfi_startproc
 2981              		@ args = 0, pretend = 0, frame = 104
 2982              		@ frame_needed = 0, uses_anonymous_args = 0
 2983              	.LVL382:
 102:Drivers/lvgl/lvgl/src/draw/sw/lv_draw_sw_rect.c **** 
 2984              		.loc 1 102 0
 2985 0000 CB78     		ldrb	r3, [r1, #3]	@ zero_extendqisi2
 2986 0002 022B     		cmp	r3, #2
 2987 0004 40F20482 		bls	.L268
 101:Drivers/lvgl/lvgl/src/draw/sw/lv_draw_sw_rect.c ****     if(dsc->bg_opa <= LV_OPA_MIN) return;
 2988              		.loc 1 101 0
 2989 0008 2DE9F04F 		push	{r4, r5, r6, r7, r8, r9, r10, fp, lr}
 2990              	.LCFI15:
 2991              		.cfi_def_cfa_offset 36
 2992              		.cfi_offset 4, -36
 2993              		.cfi_offset 5, -32
 2994              		.cfi_offset 6, -28
 2995              		.cfi_offset 7, -24
 2996              		.cfi_offset 8, -20
 2997              		.cfi_offset 9, -16
 2998              		.cfi_offset 10, -12
 2999              		.cfi_offset 11, -8
 3000              		.cfi_offset 14, -4
 3001 000c 9BB0     		sub	sp, sp, #108
 3002              	.LCFI16:
 3003              		.cfi_def_cfa_offset 144
 3004              	.LVL383:
 3005              	.LBB176:
 3006              	.LBB177:
 112:Drivers/lvgl/lvgl/src/draw/sw/../../misc/lv_area.h ****     dest->y1 = src->y1;
 3007              		.loc 2 112 0
 3008 000e B2F90060 		ldrsh	r6, [r2]
 3009 0012 ADF86060 		strh	r6, [sp, #96]	@ movhi
 113:Drivers/lvgl/lvgl/src/draw/sw/../../misc/lv_area.h ****     dest->x2 = src->x2;
 3010              		.loc 2 113 0
 3011 0016 B2F90250 		ldrsh	r5, [r2, #2]
 3012 001a ADF86250 		strh	r5, [sp, #98]	@ movhi
 114:Drivers/lvgl/lvgl/src/draw/sw/../../misc/lv_area.h ****     dest->y2 = src->y2;
 3013              		.loc 2 114 0
 3014 001e B2F90440 		ldrsh	r4, [r2, #4]
 3015 0022 ADF86440 		strh	r4, [sp, #100]	@ movhi
 115:Drivers/lvgl/lvgl/src/draw/sw/../../misc/lv_area.h **** }
 3016              		.loc 2 115 0
 3017 0026 B2F90630 		ldrsh	r3, [r2, #6]
 3018 002a ADF86630 		strh	r3, [sp, #102]	@ movhi
 3019              	.LVL384:
 3020              	.LBE177:
 3021              	.LBE176:
 108:Drivers/lvgl/lvgl/src/draw/sw/lv_draw_sw_rect.c ****         bg_coords.x1 += (dsc->border_side & LV_BORDER_SIDE_LEFT) ? 1 : 0;
 3022              		.loc 1 108 0
 3023 002e B1F92020 		ldrsh	r2, [r1, #32]
ARM GAS  /tmp/ccV6ypnB.s 			page 90


 3024              	.LVL385:
 3025 0032 012A     		cmp	r2, #1
 3026 0034 1EDD     		ble	.L234
 108:Drivers/lvgl/lvgl/src/draw/sw/lv_draw_sw_rect.c ****         bg_coords.x1 += (dsc->border_side & LV_BORDER_SIDE_LEFT) ? 1 : 0;
 3027              		.loc 1 108 0 is_stmt 0 discriminator 1
 3028 0036 91F82220 		ldrb	r2, [r1, #34]	@ zero_extendqisi2
 3029 003a FC2A     		cmp	r2, #252
 3030 003c 1AD9     		bls	.L234
 108:Drivers/lvgl/lvgl/src/draw/sw/lv_draw_sw_rect.c ****         bg_coords.x1 += (dsc->border_side & LV_BORDER_SIDE_LEFT) ? 1 : 0;
 3031              		.loc 1 108 0 discriminator 2
 3032 003e B1F90020 		ldrsh	r2, [r1]
 3033 0042 BAB1     		cbz	r2, .L234
 109:Drivers/lvgl/lvgl/src/draw/sw/lv_draw_sw_rect.c ****         bg_coords.y1 += (dsc->border_side & LV_BORDER_SIDE_TOP) ? 1 : 0;
 3034              		.loc 1 109 0 is_stmt 1
 3035 0044 91F82320 		ldrb	r2, [r1, #35]	@ zero_extendqisi2
 3036 0048 C2F34402 		ubfx	r2, r2, #1, #5
 3037 004c C2F38007 		ubfx	r7, r2, #2, #1
 3038 0050 3E44     		add	r6, r6, r7
 3039 0052 ADF86060 		strh	r6, [sp, #96]	@ movhi
 110:Drivers/lvgl/lvgl/src/draw/sw/lv_draw_sw_rect.c ****         bg_coords.x2 -= (dsc->border_side & LV_BORDER_SIDE_RIGHT) ? 1 : 0;
 3040              		.loc 1 110 0
 3041 0056 C2F34006 		ubfx	r6, r2, #1, #1
 3042 005a 3544     		add	r5, r5, r6
 3043 005c ADF86250 		strh	r5, [sp, #98]	@ movhi
 111:Drivers/lvgl/lvgl/src/draw/sw/lv_draw_sw_rect.c ****         bg_coords.y2 -= (dsc->border_side & LV_BORDER_SIDE_BOTTOM) ? 1 : 0;
 3044              		.loc 1 111 0
 3045 0060 C2F3C005 		ubfx	r5, r2, #3, #1
 3046 0064 641B     		subs	r4, r4, r5
 3047 0066 ADF86440 		strh	r4, [sp, #100]	@ movhi
 112:Drivers/lvgl/lvgl/src/draw/sw/lv_draw_sw_rect.c ****     }
 3048              		.loc 1 112 0
 3049 006a 02F00102 		and	r2, r2, #1
 3050 006e 9B1A     		subs	r3, r3, r2
 3051 0070 ADF86630 		strh	r3, [sp, #102]	@ movhi
 3052              	.L234:
 3053 0074 0C46     		mov	r4, r1
 3054 0076 0190     		str	r0, [sp, #4]
 116:Drivers/lvgl/lvgl/src/draw/sw/lv_draw_sw_rect.c **** 
 3055              		.loc 1 116 0
 3056 0078 8268     		ldr	r2, [r0, #8]
 3057 007a 18A9     		add	r1, sp, #96
 3058              	.LVL386:
 3059 007c 16A8     		add	r0, sp, #88
 3060              	.LVL387:
 3061 007e FFF7FEFF 		bl	_lv_area_intersect
 3062              	.LVL388:
 3063 0082 0028     		cmp	r0, #0
 3064 0084 00F08B81 		beq	.L232
 118:Drivers/lvgl/lvgl/src/draw/sw/lv_draw_sw_rect.c ****     lv_color_t bg_color    = grad_dir == LV_GRAD_DIR_NONE ? dsc->bg_color : dsc->bg_grad.stops[0].c
 3065              		.loc 1 118 0
 3066 0088 94F80F80 		ldrb	r8, [r4, #15]	@ zero_extendqisi2
 3067              	.LVL389:
 119:Drivers/lvgl/lvgl/src/draw/sw/lv_draw_sw_rect.c ****     if(bg_color.full == dsc->bg_grad.stops[1].color.full) grad_dir = LV_GRAD_DIR_NONE;
 3068              		.loc 1 119 0
 3069 008c 18F00708 		ands	r8, r8, #7
 3070              	.LVL390:
 3071 0090 40F08980 		bne	.L235
ARM GAS  /tmp/ccV6ypnB.s 			page 91


 119:Drivers/lvgl/lvgl/src/draw/sw/lv_draw_sw_rect.c ****     if(bg_color.full == dsc->bg_grad.stops[1].color.full) grad_dir = LV_GRAD_DIR_NONE;
 3072              		.loc 1 119 0 is_stmt 0 discriminator 1
 3073 0094 A588     		ldrh	r5, [r4, #4]
 3074              	.L236:
 3075              	.LVL391:
 120:Drivers/lvgl/lvgl/src/draw/sw/lv_draw_sw_rect.c **** 
 3076              		.loc 1 120 0 is_stmt 1
 3077 0096 ABB2     		uxth	r3, r5
 3078 0098 6289     		ldrh	r2, [r4, #10]
 3079 009a 9342     		cmp	r3, r2
 3080 009c 00F08580 		beq	.L271
 3081              	.L237:
 3082              	.LVL392:
 122:Drivers/lvgl/lvgl/src/draw/sw/lv_draw_sw_rect.c ****     lv_draw_sw_blend_dsc_t blend_dsc = {0};
 3083              		.loc 1 122 0
 3084 00a0 18A8     		add	r0, sp, #96
 3085 00a2 FFF7FEFF 		bl	lv_draw_mask_is_any
 3086              	.LVL393:
 123:Drivers/lvgl/lvgl/src/draw/sw/lv_draw_sw_rect.c ****     blend_dsc.blend_mode = dsc->blend_mode;
 3087              		.loc 1 123 0
 3088 00a6 0023     		movs	r3, #0
 3089 00a8 0F93     		str	r3, [sp, #60]
 3090 00aa 1093     		str	r3, [sp, #64]
 3091 00ac 1193     		str	r3, [sp, #68]
 3092 00ae 1293     		str	r3, [sp, #72]
 3093 00b0 1393     		str	r3, [sp, #76]
 3094 00b2 1493     		str	r3, [sp, #80]
 3095 00b4 1593     		str	r3, [sp, #84]
 124:Drivers/lvgl/lvgl/src/draw/sw/lv_draw_sw_rect.c ****     blend_dsc.color = bg_color;
 3096              		.loc 1 124 0
 3097 00b6 A378     		ldrb	r3, [r4, #2]	@ zero_extendqisi2
 3098 00b8 8DF85530 		strb	r3, [sp, #85]
 125:Drivers/lvgl/lvgl/src/draw/sw/lv_draw_sw_rect.c **** 
 3099              		.loc 1 125 0
 3100 00bc ADF84450 		strh	r5, [sp, #68]	@ movhi
 128:Drivers/lvgl/lvgl/src/draw/sw/lv_draw_sw_rect.c ****         blend_dsc.blend_area = &bg_coords;
 3101              		.loc 1 128 0
 3102 00c0 8146     		mov	r9, r0
 3103 00c2 28B9     		cbnz	r0, .L238
 128:Drivers/lvgl/lvgl/src/draw/sw/lv_draw_sw_rect.c ****         blend_dsc.blend_area = &bg_coords;
 3104              		.loc 1 128 0 is_stmt 0 discriminator 1
 3105 00c4 B4F90030 		ldrsh	r3, [r4]
 3106 00c8 13B9     		cbnz	r3, .L238
 128:Drivers/lvgl/lvgl/src/draw/sw/lv_draw_sw_rect.c ****         blend_dsc.blend_area = &bg_coords;
 3107              		.loc 1 128 0 discriminator 2
 3108 00ca B8F1000F 		cmp	r8, #0
 3109 00ce 6FD0     		beq	.L272
 3110              	.L238:
 139:Drivers/lvgl/lvgl/src/draw/sw/lv_draw_sw_rect.c **** 
 3111              		.loc 1 139 0 is_stmt 1
 3112 00d0 E678     		ldrb	r6, [r4, #3]	@ zero_extendqisi2
 3113 00d2 FC2E     		cmp	r6, #252
 3114 00d4 00D9     		bls	.L239
 3115 00d6 FF26     		movs	r6, #255
 3116              	.L239:
 3117              	.LVL394:
 3118              	.LBB178:
ARM GAS  /tmp/ccV6ypnB.s 			page 92


 3119              	.LBB179:
 125:Drivers/lvgl/lvgl/src/draw/sw/../../misc/lv_area.h **** }
 3120              		.loc 2 125 0 discriminator 4
 3121 00d8 BDF86450 		ldrh	r5, [sp, #100]
 3122              	.LVL395:
 3123 00dc BDF86030 		ldrh	r3, [sp, #96]
 3124 00e0 ED1A     		subs	r5, r5, r3
 3125 00e2 ADB2     		uxth	r5, r5
 3126 00e4 0135     		adds	r5, r5, #1
 3127 00e6 2DB2     		sxth	r5, r5
 3128              	.LVL396:
 3129              	.LBE179:
 3130              	.LBE178:
 3131              	.LBB180:
 3132              	.LBB181:
 3133              		.loc 2 135 0 discriminator 4
 3134 00e8 BDF866B0 		ldrh	fp, [sp, #102]
 3135 00ec BDF86230 		ldrh	r3, [sp, #98]
 3136 00f0 ABEB030B 		sub	fp, fp, r3
 3137 00f4 1FFA8BFB 		uxth	fp, fp
 3138 00f8 0BF1010B 		add	fp, fp, #1
 3139 00fc 0FFA8BFB 		sxth	fp, fp
 3140              	.LVL397:
 3141              	.LBE181:
 3142              	.LBE180:
 144:Drivers/lvgl/lvgl/src/draw/sw/lv_draw_sw_rect.c ****     int32_t rout = LV_MIN(dsc->radius, short_side >> 1);
 3143              		.loc 1 144 0 discriminator 4
 3144 0100 DA46     		mov	r10, fp
 3145 0102 AB45     		cmp	fp, r5
 3146 0104 A8BF     		it	ge
 3147 0106 AA46     		movge	r10, r5
 3148              	.LVL398:
 145:Drivers/lvgl/lvgl/src/draw/sw/lv_draw_sw_rect.c **** 
 3149              		.loc 1 145 0 discriminator 4
 3150 0108 4FEA6A0A 		asr	r10, r10, #1
 3151              	.LVL399:
 3152 010c B4F90030 		ldrsh	r3, [r4]
 3153 0110 9A45     		cmp	r10, r3
 3154              	.LVL400:
 3155 0112 A8BF     		it	ge
 3156 0114 9A46     		movge	r10, r3
 3157              	.LVL401:
 3158              	.LBB182:
 3159              	.LBB183:
 125:Drivers/lvgl/lvgl/src/draw/sw/../../misc/lv_area.h **** }
 3160              		.loc 2 125 0 discriminator 4
 3161 0116 BDF85C30 		ldrh	r3, [sp, #92]
 3162 011a BDF85820 		ldrh	r2, [sp, #88]
 3163 011e 9B1A     		subs	r3, r3, r2
 3164 0120 9BB2     		uxth	r3, r3
 3165 0122 0133     		adds	r3, r3, #1
 3166 0124 1BB2     		sxth	r3, r3
 3167 0126 0293     		str	r3, [sp, #8]
 3168              	.LVL402:
 3169              	.LBE183:
 3170              	.LBE182:
 152:Drivers/lvgl/lvgl/src/draw/sw/lv_draw_sw_rect.c ****         mask_buf = lv_mem_buf_get(clipped_w);
ARM GAS  /tmp/ccV6ypnB.s 			page 93


 3171              		.loc 1 152 0 discriminator 4
 3172 0128 BAF1000F 		cmp	r10, #0
 3173 012c D4BF     		ite	le
 3174 012e 4B46     		movle	r3, r9
 3175 0130 49F00103 		orrgt	r3, r9, #1
 3176 0134 13F0FF0F 		tst	r3, #255
 3177 0138 44D1     		bne	.L273
 150:Drivers/lvgl/lvgl/src/draw/sw/lv_draw_sw_rect.c ****     lv_draw_mask_radius_param_t mask_rout_param;
 3178              		.loc 1 150 0
 3179 013a 0027     		movs	r7, #0
 149:Drivers/lvgl/lvgl/src/draw/sw/lv_draw_sw_rect.c ****     lv_opa_t * mask_buf = NULL;
 3180              		.loc 1 149 0
 3181 013c 4FF0FF33 		mov	r3, #-1
 3182 0140 0393     		str	r3, [sp, #12]
 3183              	.LVL403:
 3184              	.L240:
 161:Drivers/lvgl/lvgl/src/draw/sw/lv_draw_sw_rect.c ****     blend_area.x2 = clipped_coords.x2;
 3185              		.loc 1 161 0
 3186 0142 BDF95830 		ldrsh	r3, [sp, #88]
 3187 0146 ADF81C30 		strh	r3, [sp, #28]	@ movhi
 162:Drivers/lvgl/lvgl/src/draw/sw/lv_draw_sw_rect.c **** 
 3188              		.loc 1 162 0
 3189 014a BDF95C30 		ldrsh	r3, [sp, #92]
 3190 014e ADF82030 		strh	r3, [sp, #32]	@ movhi
 164:Drivers/lvgl/lvgl/src/draw/sw/lv_draw_sw_rect.c ****     blend_dsc.blend_area = &blend_area;
 3191              		.loc 1 164 0
 3192 0152 1297     		str	r7, [sp, #72]
 165:Drivers/lvgl/lvgl/src/draw/sw/lv_draw_sw_rect.c ****     blend_dsc.mask_area = &blend_area;
 3193              		.loc 1 165 0
 3194 0154 07AB     		add	r3, sp, #28
 3195 0156 0F93     		str	r3, [sp, #60]
 166:Drivers/lvgl/lvgl/src/draw/sw/lv_draw_sw_rect.c ****     blend_dsc.opa = LV_OPA_COVER;
 3196              		.loc 1 166 0
 3197 0158 1493     		str	r3, [sp, #80]
 167:Drivers/lvgl/lvgl/src/draw/sw/lv_draw_sw_rect.c **** 
 3198              		.loc 1 167 0
 3199 015a FF23     		movs	r3, #255
 3200 015c 8DF85430 		strb	r3, [sp, #84]
 171:Drivers/lvgl/lvgl/src/draw/sw/lv_draw_sw_rect.c ****     if(grad && grad_dir == LV_GRAD_DIR_HOR) {
 3201              		.loc 1 171 0
 3202 0160 5A46     		mov	r2, fp
 3203 0162 2946     		mov	r1, r5
 3204 0164 A01D     		adds	r0, r4, #6
 3205 0166 FFF7FEFF 		bl	lv_gradient_get
 3206              	.LVL404:
 172:Drivers/lvgl/lvgl/src/draw/sw/lv_draw_sw_rect.c ****         blend_dsc.src_buf = grad->map + clipped_coords.x1 - bg_coords.x1;
 3207              		.loc 1 172 0
 3208 016a 8346     		mov	fp, r0
 3209              	.LVL405:
 3210 016c B8F1020F 		cmp	r8, #2
 3211 0170 14BF     		ite	ne
 3212 0172 0023     		movne	r3, #0
 3213 0174 0123     		moveq	r3, #1
 3214 0176 0028     		cmp	r0, #0
 3215 0178 14BF     		ite	ne
 3216 017a 1846     		movne	r0, r3
 3217 017c 0020     		moveq	r0, #0
ARM GAS  /tmp/ccV6ypnB.s 			page 94


 3218              	.LVL406:
 3219 017e 48B1     		cbz	r0, .L241
 173:Drivers/lvgl/lvgl/src/draw/sw/lv_draw_sw_rect.c ****     }
 3220              		.loc 1 173 0
 3221 0180 DBF80830 		ldr	r3, [fp, #8]
 3222 0184 BDF95820 		ldrsh	r2, [sp, #88]
 3223 0188 BDF96010 		ldrsh	r1, [sp, #96]
 3224 018c 521A     		subs	r2, r2, r1
 3225 018e 03EB4203 		add	r3, r3, r2, lsl #1
 3226 0192 1093     		str	r3, [sp, #64]
 3227              	.L241:
 221:Drivers/lvgl/lvgl/src/draw/sw/lv_draw_sw_rect.c ****         for(h = clipped_coords.y1; h <= clipped_coords.y2; h++) {
 3228              		.loc 1 221 0
 3229 0194 B9F1000F 		cmp	r9, #0
 3230 0198 00F0B080 		beq	.L266
 222:Drivers/lvgl/lvgl/src/draw/sw/lv_draw_sw_rect.c ****             blend_area.y1 = h;
 3231              		.loc 1 222 0
 3232 019c BDF95A40 		ldrsh	r4, [sp, #90]
 3233              	.LVL407:
 3234 01a0 DDF80890 		ldr	r9, [sp, #8]
 3235 01a4 27E0     		b	.L243
 3236              	.LVL408:
 3237              	.L235:
 119:Drivers/lvgl/lvgl/src/draw/sw/lv_draw_sw_rect.c ****     if(bg_color.full == dsc->bg_grad.stops[1].color.full) grad_dir = LV_GRAD_DIR_NONE;
 3238              		.loc 1 119 0 discriminator 2
 3239 01a6 E588     		ldrh	r5, [r4, #6]
 3240 01a8 75E7     		b	.L236
 3241              	.LVL409:
 3242              	.L271:
 120:Drivers/lvgl/lvgl/src/draw/sw/lv_draw_sw_rect.c **** 
 3243              		.loc 1 120 0
 3244 01aa 4FF00008 		mov	r8, #0
 3245 01ae 77E7     		b	.L237
 3246              	.LVL410:
 3247              	.L272:
 129:Drivers/lvgl/lvgl/src/draw/sw/lv_draw_sw_rect.c ****         blend_dsc.opa = dsc->bg_opa;
 3248              		.loc 1 129 0
 3249 01b0 18AB     		add	r3, sp, #96
 3250 01b2 0F93     		str	r3, [sp, #60]
 130:Drivers/lvgl/lvgl/src/draw/sw/lv_draw_sw_rect.c ****         lv_draw_sw_blend(draw_ctx, &blend_dsc);
 3251              		.loc 1 130 0
 3252 01b4 E378     		ldrb	r3, [r4, #3]	@ zero_extendqisi2
 3253 01b6 8DF85430 		strb	r3, [sp, #84]
 131:Drivers/lvgl/lvgl/src/draw/sw/lv_draw_sw_rect.c ****         return;
 3254              		.loc 1 131 0
 3255 01ba 0FA9     		add	r1, sp, #60
 3256 01bc 0198     		ldr	r0, [sp, #4]
 3257              	.LVL411:
 3258 01be FFF7FEFF 		bl	lv_draw_sw_blend
 3259              	.LVL412:
 132:Drivers/lvgl/lvgl/src/draw/sw/lv_draw_sw_rect.c ****     }
 3260              		.loc 1 132 0
 3261 01c2 ECE0     		b	.L232
 3262              	.LVL413:
 3263              	.L273:
 153:Drivers/lvgl/lvgl/src/draw/sw/lv_draw_sw_rect.c ****         lv_draw_mask_radius_init(&mask_rout_param, &bg_coords, rout, false);
 3264              		.loc 1 153 0
ARM GAS  /tmp/ccV6ypnB.s 			page 95


 3265 01c4 0298     		ldr	r0, [sp, #8]
 3266              	.LVL414:
 3267 01c6 FFF7FEFF 		bl	lv_mem_buf_get
 3268              	.LVL415:
 3269 01ca 0746     		mov	r7, r0
 3270              	.LVL416:
 154:Drivers/lvgl/lvgl/src/draw/sw/lv_draw_sw_rect.c ****         mask_rout_id = lv_draw_mask_add(&mask_rout_param, NULL);
 3271              		.loc 1 154 0
 3272 01cc 0023     		movs	r3, #0
 3273 01ce 5246     		mov	r2, r10
 3274 01d0 18A9     		add	r1, sp, #96
 3275 01d2 09A8     		add	r0, sp, #36
 3276              	.LVL417:
 3277 01d4 FFF7FEFF 		bl	lv_draw_mask_radius_init
 3278              	.LVL418:
 155:Drivers/lvgl/lvgl/src/draw/sw/lv_draw_sw_rect.c ****     }
 3279              		.loc 1 155 0
 3280 01d8 0021     		movs	r1, #0
 3281 01da 09A8     		add	r0, sp, #36
 3282 01dc FFF7FEFF 		bl	lv_draw_mask_add
 3283              	.LVL419:
 3284 01e0 0390     		str	r0, [sp, #12]
 3285              	.LVL420:
 3286 01e2 AEE7     		b	.L240
 3287              	.LVL421:
 3288              	.L274:
 230:Drivers/lvgl/lvgl/src/draw/sw/lv_draw_sw_rect.c **** 
 3289              		.loc 1 230 0 discriminator 1
 3290 01e4 0223     		movs	r3, #2
 3291 01e6 8DF84C30 		strb	r3, [sp, #76]
 3292 01ea 1EE0     		b	.L244
 3293              	.L245:
 236:Drivers/lvgl/lvgl/src/draw/sw/lv_draw_sw_rect.c ****         }
 3294              		.loc 1 236 0 discriminator 2
 3295 01ec 0FA9     		add	r1, sp, #60
 3296 01ee 0198     		ldr	r0, [sp, #4]
 3297 01f0 FFF7FEFF 		bl	lv_draw_sw_blend
 3298              	.LVL422:
 222:Drivers/lvgl/lvgl/src/draw/sw/lv_draw_sw_rect.c ****             blend_area.y1 = h;
 3299              		.loc 1 222 0 discriminator 2
 3300 01f4 0134     		adds	r4, r4, #1
 3301              	.LVL423:
 3302              	.L243:
 222:Drivers/lvgl/lvgl/src/draw/sw/lv_draw_sw_rect.c ****             blend_area.y1 = h;
 3303              		.loc 1 222 0 is_stmt 0 discriminator 1
 3304 01f6 BDF95E30 		ldrsh	r3, [sp, #94]
 3305 01fa A342     		cmp	r3, r4
 3306 01fc C0F2C180 		blt	.L247
 223:Drivers/lvgl/lvgl/src/draw/sw/lv_draw_sw_rect.c ****             blend_area.y2 = h;
 3307              		.loc 1 223 0 is_stmt 1
 3308 0200 25B2     		sxth	r5, r4
 3309 0202 ADF81E50 		strh	r5, [sp, #30]	@ movhi
 224:Drivers/lvgl/lvgl/src/draw/sw/lv_draw_sw_rect.c **** 
 3310              		.loc 1 224 0
 3311 0206 ADF82250 		strh	r5, [sp, #34]	@ movhi
 228:Drivers/lvgl/lvgl/src/draw/sw/lv_draw_sw_rect.c ****             blend_dsc.mask_res = lv_draw_mask_apply(mask_buf, clipped_coords.x1, h, clipped_w);
 3312              		.loc 1 228 0
ARM GAS  /tmp/ccV6ypnB.s 			page 96


 3313 020a 4A46     		mov	r2, r9
 3314 020c 3146     		mov	r1, r6
 3315 020e 3846     		mov	r0, r7
 3316 0210 FFF7FEFF 		bl	lv_memset
 3317              	.LVL424:
 229:Drivers/lvgl/lvgl/src/draw/sw/lv_draw_sw_rect.c ****             if(blend_dsc.mask_res == LV_DRAW_MASK_RES_FULL_COVER) blend_dsc.mask_res = LV_DRAW_MASK
 3318              		.loc 1 229 0
 3319 0214 4B46     		mov	r3, r9
 3320 0216 2A46     		mov	r2, r5
 3321 0218 BDF95810 		ldrsh	r1, [sp, #88]
 3322 021c 3846     		mov	r0, r7
 3323 021e FFF7FEFF 		bl	lv_draw_mask_apply
 3324              	.LVL425:
 3325 0222 8DF84C00 		strb	r0, [sp, #76]
 230:Drivers/lvgl/lvgl/src/draw/sw/lv_draw_sw_rect.c **** 
 3326              		.loc 1 230 0
 3327 0226 0128     		cmp	r0, #1
 3328 0228 DCD0     		beq	.L274
 3329              	.L244:
 235:Drivers/lvgl/lvgl/src/draw/sw/lv_draw_sw_rect.c ****             lv_draw_sw_blend(draw_ctx, &blend_dsc);
 3330              		.loc 1 235 0
 3331 022a B8F1010F 		cmp	r8, #1
 3332 022e DDD1     		bne	.L245
 235:Drivers/lvgl/lvgl/src/draw/sw/lv_draw_sw_rect.c ****             lv_draw_sw_blend(draw_ctx, &blend_dsc);
 3333              		.loc 1 235 0 is_stmt 0 discriminator 1
 3334 0230 DBF80820 		ldr	r2, [fp, #8]
 3335 0234 BDF96230 		ldrsh	r3, [sp, #98]
 3336 0238 E31A     		subs	r3, r4, r3
 3337 023a 32F81330 		ldrh	r3, [r2, r3, lsl #1]
 3338 023e ADF84430 		strh	r3, [sp, #68]	@ movhi
 3339 0242 D3E7     		b	.L245
 3340              	.LVL426:
 3341              	.L276:
 3342              	.LBB184:
 252:Drivers/lvgl/lvgl/src/draw/sw/lv_draw_sw_rect.c **** 
 3343              		.loc 1 252 0 is_stmt 1 discriminator 1
 3344 0244 0223     		movs	r3, #2
 3345 0246 8DF84C30 		strb	r3, [sp, #76]
 3346 024a 33E0     		b	.L250
 3347              	.L277:
 261:Drivers/lvgl/lvgl/src/draw/sw/lv_draw_sw_rect.c ****             lv_draw_sw_blend(draw_ctx, &blend_dsc);
 3348              		.loc 1 261 0 discriminator 1
 3349 024c DBF80830 		ldr	r3, [fp, #8]
 3350 0250 BDF96220 		ldrsh	r2, [sp, #98]
 3351 0254 A41A     		subs	r4, r4, r2
 3352              	.LVL427:
 3353 0256 33F81430 		ldrh	r3, [r3, r4, lsl #1]
 3354 025a ADF84430 		strh	r3, [sp, #68]	@ movhi
 3355 025e 34E0     		b	.L252
 3356              	.LVL428:
 3357              	.L253:
 273:Drivers/lvgl/lvgl/src/draw/sw/lv_draw_sw_rect.c ****         }
 3358              		.loc 1 273 0
 3359 0260 0FA9     		add	r1, sp, #60
 3360 0262 0198     		ldr	r0, [sp, #4]
 3361 0264 FFF7FEFF 		bl	lv_draw_sw_blend
 3362              	.LVL429:
ARM GAS  /tmp/ccV6ypnB.s 			page 97


 3363              	.L249:
 3364              	.LBE184:
 243:Drivers/lvgl/lvgl/src/draw/sw/lv_draw_sw_rect.c ****         lv_coord_t top_y = bg_coords.y1 + h;
 3365              		.loc 1 243 0 discriminator 2
 3366 0268 09F10109 		add	r9, r9, #1
 3367              	.LVL430:
 3368              	.L242:
 243:Drivers/lvgl/lvgl/src/draw/sw/lv_draw_sw_rect.c ****         lv_coord_t top_y = bg_coords.y1 + h;
 3369              		.loc 1 243 0 is_stmt 0 discriminator 1
 3370 026c D145     		cmp	r9, r10
 3371 026e 48DA     		bge	.L275
 3372              	.LBB185:
 244:Drivers/lvgl/lvgl/src/draw/sw/lv_draw_sw_rect.c ****         lv_coord_t bottom_y = bg_coords.y2 - h;
 3373              		.loc 1 244 0 is_stmt 1
 3374 0270 BDF86240 		ldrh	r4, [sp, #98]
 3375 0274 1FFA89F3 		uxth	r3, r9
 3376 0278 1C44     		add	r4, r4, r3
 3377 027a 24B2     		sxth	r4, r4
 3378              	.LVL431:
 245:Drivers/lvgl/lvgl/src/draw/sw/lv_draw_sw_rect.c ****         if(top_y < clipped_coords.y1 && bottom_y > clipped_coords.y2) continue;   /*This line is cl
 3379              		.loc 1 245 0
 3380 027c BDF86650 		ldrh	r5, [sp, #102]
 3381 0280 ED1A     		subs	r5, r5, r3
 3382 0282 2DB2     		sxth	r5, r5
 3383              	.LVL432:
 246:Drivers/lvgl/lvgl/src/draw/sw/lv_draw_sw_rect.c **** 
 3384              		.loc 1 246 0
 3385 0284 BDF95A30 		ldrsh	r3, [sp, #90]
 3386 0288 A342     		cmp	r3, r4
 3387 028a 03DD     		ble	.L248
 246:Drivers/lvgl/lvgl/src/draw/sw/lv_draw_sw_rect.c **** 
 3388              		.loc 1 246 0 is_stmt 0 discriminator 1
 3389 028c BDF95E30 		ldrsh	r3, [sp, #94]
 3390 0290 AB42     		cmp	r3, r5
 3391 0292 E9DB     		blt	.L249
 3392              	.L248:
 250:Drivers/lvgl/lvgl/src/draw/sw/lv_draw_sw_rect.c ****         blend_dsc.mask_res = lv_draw_mask_apply(mask_buf, blend_area.x1, top_y, clipped_w);
 3393              		.loc 1 250 0 is_stmt 1
 3394 0294 029A     		ldr	r2, [sp, #8]
 3395 0296 3146     		mov	r1, r6
 3396 0298 3846     		mov	r0, r7
 3397 029a FFF7FEFF 		bl	lv_memset
 3398              	.LVL433:
 251:Drivers/lvgl/lvgl/src/draw/sw/lv_draw_sw_rect.c ****         if(blend_dsc.mask_res == LV_DRAW_MASK_RES_FULL_COVER) blend_dsc.mask_res = LV_DRAW_MASK_RES
 3399              		.loc 1 251 0
 3400 029e 029B     		ldr	r3, [sp, #8]
 3401 02a0 2246     		mov	r2, r4
 3402 02a2 BDF91C10 		ldrsh	r1, [sp, #28]
 3403 02a6 3846     		mov	r0, r7
 3404 02a8 FFF7FEFF 		bl	lv_draw_mask_apply
 3405              	.LVL434:
 3406 02ac 8DF84C00 		strb	r0, [sp, #76]
 252:Drivers/lvgl/lvgl/src/draw/sw/lv_draw_sw_rect.c **** 
 3407              		.loc 1 252 0
 3408 02b0 0128     		cmp	r0, #1
 3409 02b2 C7D0     		beq	.L276
 3410              	.L250:
ARM GAS  /tmp/ccV6ypnB.s 			page 98


 254:Drivers/lvgl/lvgl/src/draw/sw/lv_draw_sw_rect.c ****             blend_area.y1 = top_y;
 3411              		.loc 1 254 0
 3412 02b4 BDF95A30 		ldrsh	r3, [sp, #90]
 3413 02b8 A342     		cmp	r3, r4
 3414 02ba 0ADC     		bgt	.L251
 255:Drivers/lvgl/lvgl/src/draw/sw/lv_draw_sw_rect.c ****             blend_area.y2 = top_y;
 3415              		.loc 1 255 0
 3416 02bc ADF81E40 		strh	r4, [sp, #30]	@ movhi
 256:Drivers/lvgl/lvgl/src/draw/sw/lv_draw_sw_rect.c **** 
 3417              		.loc 1 256 0
 3418 02c0 ADF82240 		strh	r4, [sp, #34]	@ movhi
 261:Drivers/lvgl/lvgl/src/draw/sw/lv_draw_sw_rect.c ****             lv_draw_sw_blend(draw_ctx, &blend_dsc);
 3419              		.loc 1 261 0
 3420 02c4 B8F1010F 		cmp	r8, #1
 3421 02c8 C0D0     		beq	.L277
 3422              	.LVL435:
 3423              	.L252:
 262:Drivers/lvgl/lvgl/src/draw/sw/lv_draw_sw_rect.c ****         }
 3424              		.loc 1 262 0
 3425 02ca 0FA9     		add	r1, sp, #60
 3426 02cc 0198     		ldr	r0, [sp, #4]
 3427 02ce FFF7FEFF 		bl	lv_draw_sw_blend
 3428              	.LVL436:
 3429              	.L251:
 265:Drivers/lvgl/lvgl/src/draw/sw/lv_draw_sw_rect.c ****             blend_area.y1 = bottom_y;
 3430              		.loc 1 265 0
 3431 02d2 BDF95E30 		ldrsh	r3, [sp, #94]
 3432 02d6 AB42     		cmp	r3, r5
 3433 02d8 C6DB     		blt	.L249
 266:Drivers/lvgl/lvgl/src/draw/sw/lv_draw_sw_rect.c ****             blend_area.y2 = bottom_y;
 3434              		.loc 1 266 0
 3435 02da ADF81E50 		strh	r5, [sp, #30]	@ movhi
 267:Drivers/lvgl/lvgl/src/draw/sw/lv_draw_sw_rect.c **** 
 3436              		.loc 1 267 0
 3437 02de ADF82250 		strh	r5, [sp, #34]	@ movhi
 272:Drivers/lvgl/lvgl/src/draw/sw/lv_draw_sw_rect.c ****             lv_draw_sw_blend(draw_ctx, &blend_dsc);
 3438              		.loc 1 272 0
 3439 02e2 B8F1010F 		cmp	r8, #1
 3440 02e6 BBD1     		bne	.L253
 272:Drivers/lvgl/lvgl/src/draw/sw/lv_draw_sw_rect.c ****             lv_draw_sw_blend(draw_ctx, &blend_dsc);
 3441              		.loc 1 272 0 is_stmt 0 discriminator 1
 3442 02e8 DBF80830 		ldr	r3, [fp, #8]
 3443 02ec BDF96220 		ldrsh	r2, [sp, #98]
 3444 02f0 AD1A     		subs	r5, r5, r2
 3445              	.LVL437:
 3446 02f2 33F81530 		ldrh	r3, [r3, r5, lsl #1]
 3447 02f6 ADF84430 		strh	r3, [sp, #68]	@ movhi
 3448 02fa B1E7     		b	.L253
 3449              	.LVL438:
 3450              	.L266:
 3451              	.LBE185:
 243:Drivers/lvgl/lvgl/src/draw/sw/lv_draw_sw_rect.c ****         lv_coord_t top_y = bg_coords.y1 + h;
 3452              		.loc 1 243 0 is_stmt 1
 3453 02fc 4FF00009 		mov	r9, #0
 3454 0300 B4E7     		b	.L242
 3455              	.LVL439:
 3456              	.L275:
ARM GAS  /tmp/ccV6ypnB.s 			page 99


 281:Drivers/lvgl/lvgl/src/draw/sw/lv_draw_sw_rect.c ****     center_coords.x2 = bg_coords.x2;
 3457              		.loc 1 281 0
 3458 0302 BDF96030 		ldrsh	r3, [sp, #96]
 3459 0306 ADF81430 		strh	r3, [sp, #20]	@ movhi
 282:Drivers/lvgl/lvgl/src/draw/sw/lv_draw_sw_rect.c ****     center_coords.y1 = bg_coords.y1 + rout;
 3460              		.loc 1 282 0
 3461 030a BDF96430 		ldrsh	r3, [sp, #100]
 3462 030e ADF81830 		strh	r3, [sp, #24]	@ movhi
 283:Drivers/lvgl/lvgl/src/draw/sw/lv_draw_sw_rect.c ****     center_coords.y2 = bg_coords.y2 - rout;
 3463              		.loc 1 283 0
 3464 0312 BDF86230 		ldrh	r3, [sp, #98]
 3465 0316 1FFA8AF4 		uxth	r4, r10
 3466 031a 2344     		add	r3, r3, r4
 3467 031c ADF81630 		strh	r3, [sp, #22]	@ movhi
 284:Drivers/lvgl/lvgl/src/draw/sw/lv_draw_sw_rect.c ****     bool mask_any_center = lv_draw_mask_is_any(&center_coords);
 3468              		.loc 1 284 0
 3469 0320 BDF86630 		ldrh	r3, [sp, #102]
 3470 0324 1B1B     		subs	r3, r3, r4
 3471 0326 ADF81A30 		strh	r3, [sp, #26]	@ movhi
 285:Drivers/lvgl/lvgl/src/draw/sw/lv_draw_sw_rect.c ****     if(!mask_any_center && grad_dir == LV_GRAD_DIR_NONE) {
 3472              		.loc 1 285 0
 3473 032a 05A8     		add	r0, sp, #20
 3474 032c FFF7FEFF 		bl	lv_draw_mask_is_any
 3475              	.LVL440:
 3476 0330 0546     		mov	r5, r0
 3477              	.LVL441:
 286:Drivers/lvgl/lvgl/src/draw/sw/lv_draw_sw_rect.c ****         blend_area.y1 = bg_coords.y1 + rout;
 3478              		.loc 1 286 0
 3479 0332 80F00103 		eor	r3, r0, #1
 3480 0336 B8F1000F 		cmp	r8, #0
 3481 033a 14BF     		ite	ne
 3482 033c 0023     		movne	r3, #0
 3483 033e 03F00103 		andeq	r3, r3, #1
 3484 0342 63B9     		cbnz	r3, .L278
 3485              	.LBB186:
 295:Drivers/lvgl/lvgl/src/draw/sw/lv_draw_sw_rect.c ****         blend_dsc.mask_res = LV_DRAW_MASK_RES_FULL_COVER;
 3486              		.loc 1 295 0
 3487 0344 8DF85460 		strb	r6, [sp, #84]
 296:Drivers/lvgl/lvgl/src/draw/sw/lv_draw_sw_rect.c ****         int32_t h_end = bg_coords.y2 - rout;
 3488              		.loc 1 296 0
 3489 0348 0123     		movs	r3, #1
 3490 034a 8DF84C30 		strb	r3, [sp, #76]
 297:Drivers/lvgl/lvgl/src/draw/sw/lv_draw_sw_rect.c ****         for(h = bg_coords.y1 + rout; h <= h_end; h++) {
 3491              		.loc 1 297 0
 3492 034e BDF96640 		ldrsh	r4, [sp, #102]
 3493 0352 A4EB0A04 		sub	r4, r4, r10
 3494              	.LVL442:
 298:Drivers/lvgl/lvgl/src/draw/sw/lv_draw_sw_rect.c ****             /*If there is no other mask do not apply mask as in the center there is no radius to ma
 3495              		.loc 1 298 0
 3496 0356 BDF96230 		ldrsh	r3, [sp, #98]
 3497 035a 9A44     		add	r10, r10, r3
 3498              	.LVL443:
 3499 035c 3AE0     		b	.L256
 3500              	.LVL444:
 3501              	.L278:
 3502              	.LBE186:
 287:Drivers/lvgl/lvgl/src/draw/sw/lv_draw_sw_rect.c ****         blend_area.y2 = bg_coords.y2 - rout;
ARM GAS  /tmp/ccV6ypnB.s 			page 100


 3503              		.loc 1 287 0
 3504 035e BDF86230 		ldrh	r3, [sp, #98]
 3505 0362 2344     		add	r3, r3, r4
 3506 0364 ADF81E30 		strh	r3, [sp, #30]	@ movhi
 288:Drivers/lvgl/lvgl/src/draw/sw/lv_draw_sw_rect.c ****         blend_dsc.opa = opa;
 3507              		.loc 1 288 0
 3508 0368 BDF86630 		ldrh	r3, [sp, #102]
 3509 036c 1C1B     		subs	r4, r3, r4
 3510 036e ADF82240 		strh	r4, [sp, #34]	@ movhi
 289:Drivers/lvgl/lvgl/src/draw/sw/lv_draw_sw_rect.c ****         blend_dsc.mask_buf = NULL;
 3511              		.loc 1 289 0
 3512 0372 8DF85460 		strb	r6, [sp, #84]
 290:Drivers/lvgl/lvgl/src/draw/sw/lv_draw_sw_rect.c ****         lv_draw_sw_blend(draw_ctx, &blend_dsc);
 3513              		.loc 1 290 0
 3514 0376 0023     		movs	r3, #0
 3515 0378 1293     		str	r3, [sp, #72]
 291:Drivers/lvgl/lvgl/src/draw/sw/lv_draw_sw_rect.c ****     }
 3516              		.loc 1 291 0
 3517 037a 0FA9     		add	r1, sp, #60
 3518 037c 0198     		ldr	r0, [sp, #4]
 3519              	.LVL445:
 3520 037e FFF7FEFF 		bl	lv_draw_sw_blend
 3521              	.LVL446:
 3522              	.L247:
 318:Drivers/lvgl/lvgl/src/draw/sw/lv_draw_sw_rect.c ****     if(mask_rout_id != LV_MASK_ID_INV) {
 3523              		.loc 1 318 0
 3524 0382 17B1     		cbz	r7, .L260
 318:Drivers/lvgl/lvgl/src/draw/sw/lv_draw_sw_rect.c ****     if(mask_rout_id != LV_MASK_ID_INV) {
 3525              		.loc 1 318 0 is_stmt 0 discriminator 1
 3526 0384 3846     		mov	r0, r7
 3527 0386 FFF7FEFF 		bl	lv_mem_buf_release
 3528              	.LVL447:
 3529              	.L260:
 319:Drivers/lvgl/lvgl/src/draw/sw/lv_draw_sw_rect.c ****         lv_draw_mask_remove_id(mask_rout_id);
 3530              		.loc 1 319 0 is_stmt 1
 3531 038a 0398     		ldr	r0, [sp, #12]
 3532 038c B0F1FF3F 		cmp	r0, #-1
 3533 0390 38D1     		bne	.L279
 3534              	.L261:
 323:Drivers/lvgl/lvgl/src/draw/sw/lv_draw_sw_rect.c ****         lv_gradient_cleanup(grad);
 3535              		.loc 1 323 0
 3536 0392 BBF1000F 		cmp	fp, #0
 3537 0396 02D0     		beq	.L232
 324:Drivers/lvgl/lvgl/src/draw/sw/lv_draw_sw_rect.c ****     }
 3538              		.loc 1 324 0
 3539 0398 5846     		mov	r0, fp
 3540 039a FFF7FEFF 		bl	lv_gradient_cleanup
 3541              	.LVL448:
 3542              	.L232:
 328:Drivers/lvgl/lvgl/src/draw/sw/lv_draw_sw_rect.c **** 
 3543              		.loc 1 328 0
 3544 039e 1BB0     		add	sp, sp, #108
 3545              	.LCFI17:
 3546              		.cfi_remember_state
 3547              		.cfi_def_cfa_offset 36
 3548              		@ sp needed
 3549 03a0 BDE8F08F 		pop	{r4, r5, r6, r7, r8, r9, r10, fp, pc}
ARM GAS  /tmp/ccV6ypnB.s 			page 101


 3550              	.LVL449:
 3551              	.L280:
 3552              	.LCFI18:
 3553              		.cfi_restore_state
 3554              	.LBB187:
 301:Drivers/lvgl/lvgl/src/draw/sw/lv_draw_sw_rect.c ****                 blend_dsc.mask_res = lv_draw_mask_apply(mask_buf, clipped_coords.x1, h, clipped_w);
 3555              		.loc 1 301 0
 3556 03a4 DDF80890 		ldr	r9, [sp, #8]
 3557 03a8 4A46     		mov	r2, r9
 3558 03aa 3146     		mov	r1, r6
 3559 03ac 3846     		mov	r0, r7
 3560 03ae FFF7FEFF 		bl	lv_memset
 3561              	.LVL450:
 302:Drivers/lvgl/lvgl/src/draw/sw/lv_draw_sw_rect.c ****             }
 3562              		.loc 1 302 0
 3563 03b2 4B46     		mov	r3, r9
 3564 03b4 0FFA8AF2 		sxth	r2, r10
 3565 03b8 BDF95810 		ldrsh	r1, [sp, #88]
 3566 03bc 3846     		mov	r0, r7
 3567 03be FFF7FEFF 		bl	lv_draw_mask_apply
 3568              	.LVL451:
 3569 03c2 8DF84C00 		strb	r0, [sp, #76]
 3570 03c6 09E0     		b	.L257
 3571              	.L258:
 312:Drivers/lvgl/lvgl/src/draw/sw/lv_draw_sw_rect.c ****         }
 3572              		.loc 1 312 0 discriminator 2
 3573 03c8 0FA9     		add	r1, sp, #60
 3574 03ca 0198     		ldr	r0, [sp, #4]
 3575 03cc FFF7FEFF 		bl	lv_draw_sw_blend
 3576              	.LVL452:
 298:Drivers/lvgl/lvgl/src/draw/sw/lv_draw_sw_rect.c ****             /*If there is no other mask do not apply mask as in the center there is no radius to ma
 3577              		.loc 1 298 0 discriminator 2
 3578 03d0 0AF1010A 		add	r10, r10, #1
 3579              	.LVL453:
 3580              	.L256:
 298:Drivers/lvgl/lvgl/src/draw/sw/lv_draw_sw_rect.c ****             /*If there is no other mask do not apply mask as in the center there is no radius to ma
 3581              		.loc 1 298 0 is_stmt 0 discriminator 1
 3582 03d4 A245     		cmp	r10, r4
 3583 03d6 D4DC     		bgt	.L247
 300:Drivers/lvgl/lvgl/src/draw/sw/lv_draw_sw_rect.c ****                 lv_memset(mask_buf, opa, clipped_w);
 3584              		.loc 1 300 0 is_stmt 1
 3585 03d8 002D     		cmp	r5, #0
 3586 03da E3D1     		bne	.L280
 3587              	.L257:
 305:Drivers/lvgl/lvgl/src/draw/sw/lv_draw_sw_rect.c ****             blend_area.y2 = h;
 3588              		.loc 1 305 0
 3589 03dc 0FFA8AF3 		sxth	r3, r10
 3590 03e0 ADF81E30 		strh	r3, [sp, #30]	@ movhi
 306:Drivers/lvgl/lvgl/src/draw/sw/lv_draw_sw_rect.c **** 
 3591              		.loc 1 306 0
 3592 03e4 ADF82230 		strh	r3, [sp, #34]	@ movhi
 311:Drivers/lvgl/lvgl/src/draw/sw/lv_draw_sw_rect.c ****             lv_draw_sw_blend(draw_ctx, &blend_dsc);
 3593              		.loc 1 311 0
 3594 03e8 B8F1010F 		cmp	r8, #1
 3595 03ec ECD1     		bne	.L258
 311:Drivers/lvgl/lvgl/src/draw/sw/lv_draw_sw_rect.c ****             lv_draw_sw_blend(draw_ctx, &blend_dsc);
 3596              		.loc 1 311 0 is_stmt 0 discriminator 1
ARM GAS  /tmp/ccV6ypnB.s 			page 102


 3597 03ee DBF80820 		ldr	r2, [fp, #8]
 3598 03f2 BDF96230 		ldrsh	r3, [sp, #98]
 3599 03f6 AAEB0303 		sub	r3, r10, r3
 3600 03fa 32F81330 		ldrh	r3, [r2, r3, lsl #1]
 3601 03fe ADF84430 		strh	r3, [sp, #68]	@ movhi
 3602 0402 E1E7     		b	.L258
 3603              	.LVL454:
 3604              	.L279:
 3605              	.LBE187:
 320:Drivers/lvgl/lvgl/src/draw/sw/lv_draw_sw_rect.c ****         lv_draw_mask_free_param(&mask_rout_param);
 3606              		.loc 1 320 0 is_stmt 1
 3607 0404 FFF7FEFF 		bl	lv_draw_mask_remove_id
 3608              	.LVL455:
 321:Drivers/lvgl/lvgl/src/draw/sw/lv_draw_sw_rect.c ****     }
 3609              		.loc 1 321 0
 3610 0408 09A8     		add	r0, sp, #36
 3611 040a FFF7FEFF 		bl	lv_draw_mask_free_param
 3612              	.LVL456:
 3613 040e C0E7     		b	.L261
 3614              	.LVL457:
 3615              	.L268:
 3616              	.LCFI19:
 3617              		.cfi_def_cfa_offset 0
 3618              		.cfi_restore 4
 3619              		.cfi_restore 5
 3620              		.cfi_restore 6
 3621              		.cfi_restore 7
 3622              		.cfi_restore 8
 3623              		.cfi_restore 9
 3624              		.cfi_restore 10
 3625              		.cfi_restore 11
 3626              		.cfi_restore 14
 3627 0410 7047     		bx	lr
 3628              		.cfi_endproc
 3629              	.LFE161:
 3631              		.section	.text.draw_bg_img,"ax",%progbits
 3632              		.align	1
 3633              		.syntax unified
 3634              		.thumb
 3635              		.thumb_func
 3636              		.fpu fpv5-d16
 3638              	draw_bg_img:
 3639              	.LFB162:
 331:Drivers/lvgl/lvgl/src/draw/sw/lv_draw_sw_rect.c ****     if(dsc->bg_img_src == NULL) return;
 3640              		.loc 1 331 0
 3641              		.cfi_startproc
 3642              		@ args = 0, pretend = 0, frame = 56
 3643              		@ frame_needed = 0, uses_anonymous_args = 0
 3644              	.LVL458:
 332:Drivers/lvgl/lvgl/src/draw/sw/lv_draw_sw_rect.c ****     if(dsc->bg_img_opa <= LV_OPA_MIN) return;
 3645              		.loc 1 332 0
 3646 0000 0B69     		ldr	r3, [r1, #16]
 3647 0002 13B1     		cbz	r3, .L302
 333:Drivers/lvgl/lvgl/src/draw/sw/lv_draw_sw_rect.c **** 
 3648              		.loc 1 333 0
 3649 0004 8B7E     		ldrb	r3, [r1, #26]	@ zero_extendqisi2
 3650 0006 022B     		cmp	r3, #2
ARM GAS  /tmp/ccV6ypnB.s 			page 103


 3651 0008 00D8     		bhi	.L305
 3652              	.L302:
 3653 000a 7047     		bx	lr
 3654              	.L305:
 331:Drivers/lvgl/lvgl/src/draw/sw/lv_draw_sw_rect.c ****     if(dsc->bg_img_src == NULL) return;
 3655              		.loc 1 331 0
 3656 000c F0B5     		push	{r4, r5, r6, r7, lr}
 3657              	.LCFI20:
 3658              		.cfi_def_cfa_offset 20
 3659              		.cfi_offset 4, -20
 3660              		.cfi_offset 5, -16
 3661              		.cfi_offset 6, -12
 3662              		.cfi_offset 7, -8
 3663              		.cfi_offset 14, -4
 3664 000e 93B0     		sub	sp, sp, #76
 3665              	.LCFI21:
 3666              		.cfi_def_cfa_offset 96
 3667 0010 1646     		mov	r6, r2
 3668 0012 0C46     		mov	r4, r1
 3669 0014 0546     		mov	r5, r0
 336:Drivers/lvgl/lvgl/src/draw/sw/lv_draw_sw_rect.c ****         return;
 3670              		.loc 1 336 0
 3671 0016 8268     		ldr	r2, [r0, #8]
 3672              	.LVL459:
 3673 0018 3146     		mov	r1, r6
 3674              	.LVL460:
 3675 001a 10A8     		add	r0, sp, #64
 3676              	.LVL461:
 3677 001c FFF7FEFF 		bl	_lv_area_intersect
 3678              	.LVL462:
 3679 0020 08B9     		cbnz	r0, .L306
 3680              	.LVL463:
 3681              	.L281:
 402:Drivers/lvgl/lvgl/src/draw/sw/lv_draw_sw_rect.c **** 
 3682              		.loc 1 402 0
 3683 0022 13B0     		add	sp, sp, #76
 3684              	.LCFI22:
 3685              		.cfi_remember_state
 3686              		.cfi_def_cfa_offset 20
 3687              		@ sp needed
 3688 0024 F0BD     		pop	{r4, r5, r6, r7, pc}
 3689              	.LVL464:
 3690              	.L306:
 3691              	.LCFI23:
 3692              		.cfi_restore_state
 340:Drivers/lvgl/lvgl/src/draw/sw/lv_draw_sw_rect.c ****     draw_ctx->clip_area = &clip_area;
 3693              		.loc 1 340 0
 3694 0026 AF68     		ldr	r7, [r5, #8]
 3695              	.LVL465:
 341:Drivers/lvgl/lvgl/src/draw/sw/lv_draw_sw_rect.c **** 
 3696              		.loc 1 341 0
 3697 0028 10AB     		add	r3, sp, #64
 3698 002a AB60     		str	r3, [r5, #8]
 343:Drivers/lvgl/lvgl/src/draw/sw/lv_draw_sw_rect.c ****     if(src_type == LV_IMG_SRC_SYMBOL) {
 3699              		.loc 1 343 0
 3700 002c 2069     		ldr	r0, [r4, #16]
 3701 002e FFF7FEFF 		bl	lv_img_src_get_type
ARM GAS  /tmp/ccV6ypnB.s 			page 104


 3702              	.LVL466:
 344:Drivers/lvgl/lvgl/src/draw/sw/lv_draw_sw_rect.c ****         lv_point_t size;
 3703              		.loc 1 344 0
 3704 0032 0228     		cmp	r0, #2
 3705 0034 07D0     		beq	.L307
 3706              	.LBB188:
 362:Drivers/lvgl/lvgl/src/draw/sw/lv_draw_sw_rect.c ****         if(res == LV_RES_OK) {
 3707              		.loc 1 362 0
 3708 0036 05A9     		add	r1, sp, #20
 3709 0038 2069     		ldr	r0, [r4, #16]
 3710              	.LVL467:
 3711 003a FFF7FEFF 		bl	lv_img_decoder_get_info
 3712              	.LVL468:
 363:Drivers/lvgl/lvgl/src/draw/sw/lv_draw_sw_rect.c ****             lv_draw_img_dsc_t img_dsc;
 3713              		.loc 1 363 0
 3714 003e 0128     		cmp	r0, #1
 3715 0040 5ED0     		beq	.L308
 3716              	.LVL469:
 3717              	.L288:
 3718              	.LBE188:
 401:Drivers/lvgl/lvgl/src/draw/sw/lv_draw_sw_rect.c **** }
 3719              		.loc 1 401 0 discriminator 5
 3720 0042 AF60     		str	r7, [r5, #8]
 3721 0044 EDE7     		b	.L281
 3722              	.LVL470:
 3723              	.L307:
 3724              	.LBB198:
 346:Drivers/lvgl/lvgl/src/draw/sw/lv_draw_sw_rect.c ****         lv_area_t a;
 3725              		.loc 1 346 0
 3726 0046 0023     		movs	r3, #0
 3727 0048 0293     		str	r3, [sp, #8]
 3728 004a 41F6FF72 		movw	r2, #8191
 3729 004e 0192     		str	r2, [sp, #4]
 3730 0050 0093     		str	r3, [sp]
 3731 0052 6269     		ldr	r2, [r4, #20]
 3732 0054 2169     		ldr	r1, [r4, #16]
 3733 0056 05A8     		add	r0, sp, #20
 3734              	.LVL471:
 3735 0058 FFF7FEFF 		bl	lv_txt_get_size
 3736              	.LVL472:
 348:Drivers/lvgl/lvgl/src/draw/sw/lv_draw_sw_rect.c ****         a.x2 = a.x1 + size.x - 1;
 3737              		.loc 1 348 0
 3738 005c 3388     		ldrh	r3, [r6]
 3739              	.LVL473:
 3740              	.LBB199:
 3741              	.LBB200:
 125:Drivers/lvgl/lvgl/src/draw/sw/../../misc/lv_area.h **** }
 3742              		.loc 2 125 0
 3743 005e B288     		ldrh	r2, [r6, #4]
 3744 0060 D21A     		subs	r2, r2, r3
 3745 0062 92B2     		uxth	r2, r2
 3746 0064 0132     		adds	r2, r2, #1
 3747 0066 12B2     		sxth	r2, r2
 3748              	.LVL474:
 3749              	.LBE200:
 3750              	.LBE199:
 348:Drivers/lvgl/lvgl/src/draw/sw/lv_draw_sw_rect.c ****         a.x2 = a.x1 + size.x - 1;
ARM GAS  /tmp/ccV6ypnB.s 			page 105


 3751              		.loc 1 348 0
 3752 0068 002A     		cmp	r2, #0
 3753 006a 41DB     		blt	.L309
 3754              	.L284:
 3755 006c 03EB6203 		add	r3, r3, r2, asr #1
 3756 0070 9BB2     		uxth	r3, r3
 3757 0072 BDF91420 		ldrsh	r2, [sp, #20]
 3758 0076 1146     		mov	r1, r2
 3759 0078 002A     		cmp	r2, #0
 3760 007a 3BDB     		blt	.L310
 3761              	.L285:
 3762 007c A3EB6103 		sub	r3, r3, r1, asr #1
 3763 0080 9BB2     		uxth	r3, r3
 3764 0082 ADF81830 		strh	r3, [sp, #24]	@ movhi
 349:Drivers/lvgl/lvgl/src/draw/sw/lv_draw_sw_rect.c ****         a.y1 = coords->y1 + lv_area_get_height(coords) / 2 - size.y / 2;
 3765              		.loc 1 349 0
 3766 0086 13FA82F3 		uxtah	r3, r3, r2
 3767 008a 9BB2     		uxth	r3, r3
 3768 008c 013B     		subs	r3, r3, #1
 3769 008e ADF81C30 		strh	r3, [sp, #28]	@ movhi
 350:Drivers/lvgl/lvgl/src/draw/sw/lv_draw_sw_rect.c ****         a.y2 = a.y1 + size.y - 1;
 3770              		.loc 1 350 0
 3771 0092 7388     		ldrh	r3, [r6, #2]
 3772              	.LVL475:
 3773              	.LBB201:
 3774              	.LBB202:
 3775              		.loc 2 135 0
 3776 0094 F288     		ldrh	r2, [r6, #6]
 3777 0096 D21A     		subs	r2, r2, r3
 3778 0098 92B2     		uxth	r2, r2
 3779 009a 0132     		adds	r2, r2, #1
 3780 009c 12B2     		sxth	r2, r2
 3781              	.LVL476:
 3782              	.LBE202:
 3783              	.LBE201:
 350:Drivers/lvgl/lvgl/src/draw/sw/lv_draw_sw_rect.c ****         a.y2 = a.y1 + size.y - 1;
 3784              		.loc 1 350 0
 3785 009e 002A     		cmp	r2, #0
 3786 00a0 2ADB     		blt	.L311
 3787              	.L286:
 3788 00a2 03EB6203 		add	r3, r3, r2, asr #1
 3789 00a6 9BB2     		uxth	r3, r3
 3790 00a8 BDF91620 		ldrsh	r2, [sp, #22]
 3791 00ac 1146     		mov	r1, r2
 3792 00ae 002A     		cmp	r2, #0
 3793 00b0 24DB     		blt	.L312
 3794              	.L287:
 3795 00b2 A3EB6103 		sub	r3, r3, r1, asr #1
 3796 00b6 9BB2     		uxth	r3, r3
 3797 00b8 ADF81A30 		strh	r3, [sp, #26]	@ movhi
 351:Drivers/lvgl/lvgl/src/draw/sw/lv_draw_sw_rect.c **** 
 3798              		.loc 1 351 0
 3799 00bc 13FA82F3 		uxtah	r3, r3, r2
 3800 00c0 9BB2     		uxth	r3, r3
 3801 00c2 013B     		subs	r3, r3, #1
 3802 00c4 ADF81E30 		strh	r3, [sp, #30]	@ movhi
 354:Drivers/lvgl/lvgl/src/draw/sw/lv_draw_sw_rect.c ****         label_draw_dsc.font = dsc->bg_img_symbol_font;
ARM GAS  /tmp/ccV6ypnB.s 			page 106


 3803              		.loc 1 354 0
 3804 00c8 08A8     		add	r0, sp, #32
 3805 00ca FFF7FEFF 		bl	lv_draw_label_dsc_init
 3806              	.LVL477:
 355:Drivers/lvgl/lvgl/src/draw/sw/lv_draw_sw_rect.c ****         label_draw_dsc.color = dsc->bg_img_recolor;
 3807              		.loc 1 355 0
 3808 00ce 6369     		ldr	r3, [r4, #20]
 3809 00d0 0893     		str	r3, [sp, #32]
 356:Drivers/lvgl/lvgl/src/draw/sw/lv_draw_sw_rect.c ****         label_draw_dsc.opa = dsc->bg_img_opa;
 3810              		.loc 1 356 0
 3811 00d2 238B     		ldrh	r3, [r4, #24]
 3812 00d4 ADF82C30 		strh	r3, [sp, #44]	@ movhi
 357:Drivers/lvgl/lvgl/src/draw/sw/lv_draw_sw_rect.c ****         lv_draw_label(draw_ctx, &label_draw_dsc, &a, dsc->bg_img_src, NULL);
 3813              		.loc 1 357 0
 3814 00d8 A37E     		ldrb	r3, [r4, #26]	@ zero_extendqisi2
 3815 00da 8DF83A30 		strb	r3, [sp, #58]
 358:Drivers/lvgl/lvgl/src/draw/sw/lv_draw_sw_rect.c ****     }
 3816              		.loc 1 358 0
 3817 00de 2369     		ldr	r3, [r4, #16]
 3818 00e0 0022     		movs	r2, #0
 3819 00e2 0092     		str	r2, [sp]
 3820 00e4 06AA     		add	r2, sp, #24
 3821 00e6 08A9     		add	r1, sp, #32
 3822 00e8 2846     		mov	r0, r5
 3823 00ea FFF7FEFF 		bl	lv_draw_label
 3824              	.LVL478:
 3825              	.LBE198:
 3826 00ee A8E7     		b	.L288
 3827              	.L309:
 3828              	.LBB203:
 348:Drivers/lvgl/lvgl/src/draw/sw/lv_draw_sw_rect.c ****         a.x2 = a.x1 + size.x - 1;
 3829              		.loc 1 348 0
 3830 00f0 0132     		adds	r2, r2, #1
 3831 00f2 BBE7     		b	.L284
 3832              	.L310:
 3833 00f4 511C     		adds	r1, r2, #1
 3834 00f6 C1E7     		b	.L285
 3835              	.L311:
 350:Drivers/lvgl/lvgl/src/draw/sw/lv_draw_sw_rect.c ****         a.y2 = a.y1 + size.y - 1;
 3836              		.loc 1 350 0
 3837 00f8 0132     		adds	r2, r2, #1
 3838 00fa D2E7     		b	.L286
 3839              	.L312:
 3840 00fc 511C     		adds	r1, r2, #1
 3841 00fe D8E7     		b	.L287
 3842              	.LVL479:
 3843              	.L308:
 3844              	.LBE203:
 3845              	.LBB204:
 3846              	.LBB189:
 365:Drivers/lvgl/lvgl/src/draw/sw/lv_draw_sw_rect.c ****             img_dsc.blend_mode = dsc->blend_mode;
 3847              		.loc 1 365 0
 3848 0100 08A8     		add	r0, sp, #32
 3849              	.LVL480:
 3850 0102 FFF7FEFF 		bl	lv_draw_img_dsc_init
 3851              	.LVL481:
 366:Drivers/lvgl/lvgl/src/draw/sw/lv_draw_sw_rect.c ****             img_dsc.recolor = dsc->bg_img_recolor;
ARM GAS  /tmp/ccV6ypnB.s 			page 107


 3852              		.loc 1 366 0
 3853 0106 A278     		ldrb	r2, [r4, #2]	@ zero_extendqisi2
 3854 0108 9DF82C30 		ldrb	r3, [sp, #44]	@ zero_extendqisi2
 3855 010c 62F30303 		bfi	r3, r2, #0, #4
 3856 0110 8DF82C30 		strb	r3, [sp, #44]
 367:Drivers/lvgl/lvgl/src/draw/sw/lv_draw_sw_rect.c ****             img_dsc.recolor_opa = dsc->bg_img_recolor_opa;
 3857              		.loc 1 367 0
 3858 0114 238B     		ldrh	r3, [r4, #24]
 3859 0116 ADF82830 		strh	r3, [sp, #40]	@ movhi
 368:Drivers/lvgl/lvgl/src/draw/sw/lv_draw_sw_rect.c ****             img_dsc.opa = dsc->bg_img_opa;
 3860              		.loc 1 368 0
 3861 011a E37E     		ldrb	r3, [r4, #27]	@ zero_extendqisi2
 3862 011c 8DF82A30 		strb	r3, [sp, #42]
 369:Drivers/lvgl/lvgl/src/draw/sw/lv_draw_sw_rect.c **** 
 3863              		.loc 1 369 0
 3864 0120 A37E     		ldrb	r3, [r4, #26]	@ zero_extendqisi2
 3865 0122 8DF82B30 		strb	r3, [sp, #43]
 372:Drivers/lvgl/lvgl/src/draw/sw/lv_draw_sw_rect.c ****                 lv_area_t area;
 3866              		.loc 1 372 0
 3867 0126 237F     		ldrb	r3, [r4, #28]	@ zero_extendqisi2
 3868 0128 6BB1     		cbz	r3, .L313
 3869              	.LBB190:
 383:Drivers/lvgl/lvgl/src/draw/sw/lv_draw_sw_rect.c ****                 area.y2 = area.y1 + header.h - 1;
 3870              		.loc 1 383 0
 3871 012a B6F90230 		ldrsh	r3, [r6, #2]
 3872 012e ADF81A30 		strh	r3, [sp, #26]	@ movhi
 384:Drivers/lvgl/lvgl/src/draw/sw/lv_draw_sw_rect.c **** 
 3873              		.loc 1 384 0
 3874 0132 BDF81620 		ldrh	r2, [sp, #22]
 3875 0136 5209     		lsrs	r2, r2, #5
 3876 0138 12FA83F3 		uxtah	r3, r2, r3
 3877 013c 9BB2     		uxth	r3, r3
 3878 013e 013B     		subs	r3, r3, #1
 3879 0140 ADF81E30 		strh	r3, [sp, #30]	@ movhi
 386:Drivers/lvgl/lvgl/src/draw/sw/lv_draw_sw_rect.c **** 
 3880              		.loc 1 386 0
 3881 0144 62E0     		b	.L296
 3882              	.L313:
 3883              	.LBE190:
 3884              	.LBB191:
 374:Drivers/lvgl/lvgl/src/draw/sw/lv_draw_sw_rect.c ****                 area.y1 = coords->y1 + lv_area_get_height(coords) / 2 - header.h / 2;
 3885              		.loc 1 374 0
 3886 0146 3288     		ldrh	r2, [r6]
 3887              	.LVL482:
 3888              	.LBB192:
 3889              	.LBB193:
 125:Drivers/lvgl/lvgl/src/draw/sw/../../misc/lv_area.h **** }
 3890              		.loc 2 125 0
 3891 0148 B388     		ldrh	r3, [r6, #4]
 3892 014a 9B1A     		subs	r3, r3, r2
 3893 014c 9BB2     		uxth	r3, r3
 3894 014e 0133     		adds	r3, r3, #1
 3895 0150 1BB2     		sxth	r3, r3
 3896              	.LVL483:
 3897              	.LBE193:
 3898              	.LBE192:
 374:Drivers/lvgl/lvgl/src/draw/sw/lv_draw_sw_rect.c ****                 area.y1 = coords->y1 + lv_area_get_height(coords) / 2 - header.h / 2;
ARM GAS  /tmp/ccV6ypnB.s 			page 108


 3899              		.loc 1 374 0
 3900 0152 002B     		cmp	r3, #0
 3901 0154 30DB     		blt	.L314
 3902              	.L291:
 3903 0156 02EB6302 		add	r2, r2, r3, asr #1
 3904 015a 0598     		ldr	r0, [sp, #20]
 3905 015c C0F38A20 		ubfx	r0, r0, #10, #11
 3906 0160 4310     		asrs	r3, r0, #1
 3907 0162 5B42     		negs	r3, r3
 3908 0164 13FA82F2 		uxtah	r2, r3, r2
 3909 0168 92B2     		uxth	r2, r2
 3910 016a ADF81820 		strh	r2, [sp, #24]	@ movhi
 375:Drivers/lvgl/lvgl/src/draw/sw/lv_draw_sw_rect.c ****                 area.x2 = area.x1 + header.w - 1;
 3911              		.loc 1 375 0
 3912 016e 7388     		ldrh	r3, [r6, #2]
 3913              	.LVL484:
 3914              	.LBB194:
 3915              	.LBB195:
 3916              		.loc 2 135 0
 3917 0170 F188     		ldrh	r1, [r6, #6]
 3918 0172 C91A     		subs	r1, r1, r3
 3919 0174 89B2     		uxth	r1, r1
 3920 0176 0131     		adds	r1, r1, #1
 3921 0178 09B2     		sxth	r1, r1
 3922              	.LVL485:
 3923              	.LBE195:
 3924              	.LBE194:
 375:Drivers/lvgl/lvgl/src/draw/sw/lv_draw_sw_rect.c ****                 area.x2 = area.x1 + header.w - 1;
 3925              		.loc 1 375 0
 3926 017a 0029     		cmp	r1, #0
 3927 017c 1EDB     		blt	.L315
 3928              	.L293:
 3929 017e 03EB6103 		add	r3, r3, r1, asr #1
 3930 0182 BDF81610 		ldrh	r1, [sp, #22]
 3931 0186 4909     		lsrs	r1, r1, #5
 3932 0188 4E10     		asrs	r6, r1, #1
 3933              	.LVL486:
 3934 018a 7642     		negs	r6, r6
 3935 018c 16FA83F3 		uxtah	r3, r6, r3
 3936 0190 9BB2     		uxth	r3, r3
 3937 0192 ADF81A30 		strh	r3, [sp, #26]	@ movhi
 376:Drivers/lvgl/lvgl/src/draw/sw/lv_draw_sw_rect.c ****                 area.y2 = area.y1 + header.h - 1;
 3938              		.loc 1 376 0
 3939 0196 0244     		add	r2, r2, r0
 3940 0198 92B2     		uxth	r2, r2
 3941 019a 013A     		subs	r2, r2, #1
 3942 019c ADF81C20 		strh	r2, [sp, #28]	@ movhi
 377:Drivers/lvgl/lvgl/src/draw/sw/lv_draw_sw_rect.c **** 
 3943              		.loc 1 377 0
 3944 01a0 0B44     		add	r3, r3, r1
 3945 01a2 9BB2     		uxth	r3, r3
 3946 01a4 013B     		subs	r3, r3, #1
 3947 01a6 ADF81E30 		strh	r3, [sp, #30]	@ movhi
 379:Drivers/lvgl/lvgl/src/draw/sw/lv_draw_sw_rect.c ****             }
 3948              		.loc 1 379 0
 3949 01aa 2369     		ldr	r3, [r4, #16]
 3950 01ac 06AA     		add	r2, sp, #24
ARM GAS  /tmp/ccV6ypnB.s 			page 109


 3951 01ae 08A9     		add	r1, sp, #32
 3952 01b0 2846     		mov	r0, r5
 3953 01b2 FFF7FEFF 		bl	lv_draw_img
 3954              	.LVL487:
 3955              	.LBE191:
 3956 01b6 44E7     		b	.L288
 3957              	.LVL488:
 3958              	.L314:
 3959              	.LBB196:
 374:Drivers/lvgl/lvgl/src/draw/sw/lv_draw_sw_rect.c ****                 area.y1 = coords->y1 + lv_area_get_height(coords) / 2 - header.h / 2;
 3960              		.loc 1 374 0
 3961 01b8 0133     		adds	r3, r3, #1
 3962 01ba CCE7     		b	.L291
 3963              	.L315:
 375:Drivers/lvgl/lvgl/src/draw/sw/lv_draw_sw_rect.c ****                 area.x2 = area.x1 + header.w - 1;
 3964              		.loc 1 375 0
 3965 01bc 0131     		adds	r1, r1, #1
 3966 01be DEE7     		b	.L293
 3967              	.L298:
 3968              	.LBE196:
 3969              	.LBB197:
 391:Drivers/lvgl/lvgl/src/draw/sw/lv_draw_sw_rect.c ****                     }
 3970              		.loc 1 391 0 discriminator 2
 3971 01c0 2369     		ldr	r3, [r4, #16]
 3972 01c2 06AA     		add	r2, sp, #24
 3973 01c4 08A9     		add	r1, sp, #32
 3974 01c6 2846     		mov	r0, r5
 3975 01c8 FFF7FEFF 		bl	lv_draw_img
 3976              	.LVL489:
 390:Drivers/lvgl/lvgl/src/draw/sw/lv_draw_sw_rect.c ****                         lv_draw_img(draw_ctx, &img_dsc, &area, dsc->bg_img_src);
 3977              		.loc 1 390 0 discriminator 2
 3978 01cc 059B     		ldr	r3, [sp, #20]
 3979 01ce C3F38A23 		ubfx	r3, r3, #10, #11
 3980 01d2 BDF81820 		ldrh	r2, [sp, #24]
 3981 01d6 1A44     		add	r2, r2, r3
 3982 01d8 ADF81820 		strh	r2, [sp, #24]	@ movhi
 3983 01dc BDF81C20 		ldrh	r2, [sp, #28]
 3984 01e0 1344     		add	r3, r3, r2
 3985 01e2 ADF81C30 		strh	r3, [sp, #28]	@ movhi
 3986              	.L297:
 390:Drivers/lvgl/lvgl/src/draw/sw/lv_draw_sw_rect.c ****                         lv_draw_img(draw_ctx, &img_dsc, &area, dsc->bg_img_src);
 3987              		.loc 1 390 0 is_stmt 0 discriminator 1
 3988 01e6 BDF91820 		ldrsh	r2, [sp, #24]
 3989 01ea B6F90430 		ldrsh	r3, [r6, #4]
 3990 01ee 9A42     		cmp	r2, r3
 3991 01f0 E6DD     		ble	.L298
 386:Drivers/lvgl/lvgl/src/draw/sw/lv_draw_sw_rect.c **** 
 3992              		.loc 1 386 0 is_stmt 1
 3993 01f2 BDF81630 		ldrh	r3, [sp, #22]
 3994 01f6 5B09     		lsrs	r3, r3, #5
 3995 01f8 BDF81A20 		ldrh	r2, [sp, #26]
 3996 01fc 1A44     		add	r2, r2, r3
 3997 01fe ADF81A20 		strh	r2, [sp, #26]	@ movhi
 3998 0202 BDF81E20 		ldrh	r2, [sp, #30]
 3999 0206 1344     		add	r3, r3, r2
 4000 0208 ADF81E30 		strh	r3, [sp, #30]	@ movhi
 4001              	.L296:
ARM GAS  /tmp/ccV6ypnB.s 			page 110


 386:Drivers/lvgl/lvgl/src/draw/sw/lv_draw_sw_rect.c **** 
 4002              		.loc 1 386 0 is_stmt 0 discriminator 1
 4003 020c BDF91A20 		ldrsh	r2, [sp, #26]
 4004 0210 B6F90630 		ldrsh	r3, [r6, #6]
 4005 0214 9A42     		cmp	r2, r3
 4006 0216 3FF714AF 		bgt	.L288
 388:Drivers/lvgl/lvgl/src/draw/sw/lv_draw_sw_rect.c ****                     area.x2 = area.x1 + header.w - 1;
 4007              		.loc 1 388 0 is_stmt 1
 4008 021a B6F90030 		ldrsh	r3, [r6]
 4009 021e ADF81830 		strh	r3, [sp, #24]	@ movhi
 389:Drivers/lvgl/lvgl/src/draw/sw/lv_draw_sw_rect.c ****                     for(; area.x1 <= coords->x2; area.x1 += header.w, area.x2 += header.w) {
 4010              		.loc 1 389 0
 4011 0222 059A     		ldr	r2, [sp, #20]
 4012 0224 C2F38A22 		ubfx	r2, r2, #10, #11
 4013 0228 12FA83F3 		uxtah	r3, r2, r3
 4014 022c 9BB2     		uxth	r3, r3
 4015 022e 013B     		subs	r3, r3, #1
 4016 0230 ADF81C30 		strh	r3, [sp, #28]	@ movhi
 390:Drivers/lvgl/lvgl/src/draw/sw/lv_draw_sw_rect.c ****                         lv_draw_img(draw_ctx, &img_dsc, &area, dsc->bg_img_src);
 4017              		.loc 1 390 0
 4018 0234 D7E7     		b	.L297
 4019              	.LBE197:
 4020              	.LBE189:
 4021              	.LBE204:
 4022              		.cfi_endproc
 4023              	.LFE162:
 4025              		.section	.text.lv_draw_sw_bg,"ax",%progbits
 4026              		.align	1
 4027              		.global	lv_draw_sw_bg
 4028              		.syntax unified
 4029              		.thumb
 4030              		.thumb_func
 4031              		.fpu fpv5-d16
 4033              	lv_draw_sw_bg:
 4034              	.LFB160:
  86:Drivers/lvgl/lvgl/src/draw/sw/lv_draw_sw_rect.c **** #if LV_COLOR_SCREEN_TRANSP && LV_COLOR_DEPTH == 32
 4035              		.loc 1 86 0
 4036              		.cfi_startproc
 4037              		@ args = 0, pretend = 0, frame = 0
 4038              		@ frame_needed = 0, uses_anonymous_args = 0
 4039              	.LVL490:
 4040 0000 70B5     		push	{r4, r5, r6, lr}
 4041              	.LCFI24:
 4042              		.cfi_def_cfa_offset 16
 4043              		.cfi_offset 4, -16
 4044              		.cfi_offset 5, -12
 4045              		.cfi_offset 6, -8
 4046              		.cfi_offset 14, -4
 4047 0002 0446     		mov	r4, r0
 4048 0004 0D46     		mov	r5, r1
 4049 0006 1646     		mov	r6, r2
  91:Drivers/lvgl/lvgl/src/draw/sw/lv_draw_sw_rect.c ****     draw_bg_img(draw_ctx, dsc, coords);
 4050              		.loc 1 91 0
 4051 0008 FFF7FEFF 		bl	draw_bg
 4052              	.LVL491:
  92:Drivers/lvgl/lvgl/src/draw/sw/lv_draw_sw_rect.c **** }
 4053              		.loc 1 92 0
ARM GAS  /tmp/ccV6ypnB.s 			page 111


 4054 000c 3246     		mov	r2, r6
 4055 000e 2946     		mov	r1, r5
 4056 0010 2046     		mov	r0, r4
 4057 0012 FFF7FEFF 		bl	draw_bg_img
 4058              	.LVL492:
  93:Drivers/lvgl/lvgl/src/draw/sw/lv_draw_sw_rect.c **** 
 4059              		.loc 1 93 0
 4060 0016 70BD     		pop	{r4, r5, r6, pc}
 4061              		.cfi_endproc
 4062              	.LFE160:
 4064              		.section	.text.draw_border_generic,"ax",%progbits
 4065              		.align	1
 4066              		.global	draw_border_generic
 4067              		.syntax unified
 4068              		.thumb
 4069              		.thumb_func
 4070              		.fpu fpv5-d16
 4072              	draw_border_generic:
 4073              	.LFB168:
1157:Drivers/lvgl/lvgl/src/draw/sw/lv_draw_sw_rect.c ****     opa = opa >= LV_OPA_COVER ? LV_OPA_COVER : opa;
 4074              		.loc 1 1157 0
 4075              		.cfi_startproc
 4076              		@ args = 16, pretend = 0, frame = 160
 4077              		@ frame_needed = 0, uses_anonymous_args = 0
 4078              	.LVL493:
 4079 0000 2DE9F04F 		push	{r4, r5, r6, r7, r8, r9, r10, fp, lr}
 4080              	.LCFI25:
 4081              		.cfi_def_cfa_offset 36
 4082              		.cfi_offset 4, -36
 4083              		.cfi_offset 5, -32
 4084              		.cfi_offset 6, -28
 4085              		.cfi_offset 7, -24
 4086              		.cfi_offset 8, -20
 4087              		.cfi_offset 9, -16
 4088              		.cfi_offset 10, -12
 4089              		.cfi_offset 11, -8
 4090              		.cfi_offset 14, -4
 4091 0004 ABB0     		sub	sp, sp, #172
 4092              	.LCFI26:
 4093              		.cfi_def_cfa_offset 208
 4094 0006 0290     		str	r0, [sp, #8]
 4095 0008 0C46     		mov	r4, r1
 4096 000a 1646     		mov	r6, r2
 4097 000c 1D46     		mov	r5, r3
 4098 000e BDF9D080 		ldrsh	r8, [sp, #208]
 4099 0012 9DF8D890 		ldrb	r9, [sp, #216]	@ zero_extendqisi2
 4100              	.LVL494:
1160:Drivers/lvgl/lvgl/src/draw/sw/lv_draw_sw_rect.c **** 
 4101              		.loc 1 1160 0
 4102 0016 0846     		mov	r0, r1
 4103              	.LVL495:
 4104 0018 FFF7FEFF 		bl	lv_draw_mask_is_any
 4105              	.LVL496:
 4106 001c 0746     		mov	r7, r0
 4107              	.LVL497:
1164:Drivers/lvgl/lvgl/src/draw/sw/lv_draw_sw_rect.c ****         draw_border_simple(draw_ctx, outer_area, inner_area, color, opa);
 4108              		.loc 1 1164 0
ARM GAS  /tmp/ccV6ypnB.s 			page 112


 4109 001e 80F00103 		eor	r3, r0, #1
 4110 0022 002D     		cmp	r5, #0
 4111 0024 14BF     		ite	ne
 4112 0026 0023     		movne	r3, #0
 4113 0028 03F00103 		andeq	r3, r3, #1
 4114 002c 13B1     		cbz	r3, .L319
1164:Drivers/lvgl/lvgl/src/draw/sw/lv_draw_sw_rect.c ****         draw_border_simple(draw_ctx, outer_area, inner_area, color, opa);
 4115              		.loc 1 1164 0 is_stmt 0 discriminator 1
 4116 002e B8F1000F 		cmp	r8, #0
 4117 0032 0AD0     		beq	.L358
 4118              	.L319:
1172:Drivers/lvgl/lvgl/src/draw/sw/lv_draw_sw_rect.c ****     int32_t draw_area_w = lv_area_get_width(&draw_area);
 4119              		.loc 1 1172 0 is_stmt 1
 4120 0034 029B     		ldr	r3, [sp, #8]
 4121 0036 9A68     		ldr	r2, [r3, #8]
 4122 0038 2146     		mov	r1, r4
 4123 003a 28A8     		add	r0, sp, #160
 4124              	.LVL498:
 4125 003c FFF7FEFF 		bl	_lv_area_intersect
 4126              	.LVL499:
 4127 0040 0590     		str	r0, [sp, #20]
 4128 0042 60B9     		cbnz	r0, .L359
 4129              	.LVL500:
 4130              	.L318:
1387:Drivers/lvgl/lvgl/src/draw/sw/lv_draw_sw_rect.c **** static void draw_border_simple(lv_draw_ctx_t * draw_ctx, const lv_area_t * outer_area, const lv_are
 4131              		.loc 1 1387 0
 4132 0044 2BB0     		add	sp, sp, #172
 4133              	.LCFI27:
 4134              		.cfi_remember_state
 4135              		.cfi_def_cfa_offset 36
 4136              		@ sp needed
 4137 0046 BDE8F08F 		pop	{r4, r5, r6, r7, r8, r9, r10, fp, pc}
 4138              	.LVL501:
 4139              	.L358:
 4140              	.LCFI28:
 4141              		.cfi_restore_state
1165:Drivers/lvgl/lvgl/src/draw/sw/lv_draw_sw_rect.c ****         return;
 4142              		.loc 1 1165 0
 4143 004a CDF80090 		str	r9, [sp]
 4144 004e BDF8D430 		ldrh	r3, [sp, #212]
 4145 0052 3246     		mov	r2, r6
 4146 0054 2146     		mov	r1, r4
 4147 0056 0298     		ldr	r0, [sp, #8]
 4148              	.LVL502:
 4149 0058 FFF7FEFF 		bl	draw_border_simple
 4150              	.LVL503:
1166:Drivers/lvgl/lvgl/src/draw/sw/lv_draw_sw_rect.c ****     }
 4151              		.loc 1 1166 0
 4152 005c F2E7     		b	.L318
 4153              	.L359:
 4154              	.LVL504:
 4155              	.LBB205:
 4156              	.LBB206:
 125:Drivers/lvgl/lvgl/src/draw/sw/../../misc/lv_area.h **** }
 4157              		.loc 2 125 0
 4158 005e BDF8A430 		ldrh	r3, [sp, #164]
 4159 0062 BDF8A020 		ldrh	r2, [sp, #160]
ARM GAS  /tmp/ccV6ypnB.s 			page 113


 4160 0066 9B1A     		subs	r3, r3, r2
 4161 0068 9BB2     		uxth	r3, r3
 4162 006a 0133     		adds	r3, r3, #1
 4163 006c 18B2     		sxth	r0, r3
 4164 006e 0390     		str	r0, [sp, #12]
 4165              	.LVL505:
 4166              	.LBE206:
 4167              	.LBE205:
1176:Drivers/lvgl/lvgl/src/draw/sw/lv_draw_sw_rect.c ****     blend_dsc.mask_buf = lv_mem_buf_get(draw_area_w);;
 4168              		.loc 1 1176 0
 4169 0070 1C21     		movs	r1, #28
 4170 0072 21A8     		add	r0, sp, #132
 4171 0074 FFF7FEFF 		bl	lv_memset_00
 4172              	.LVL506:
1177:Drivers/lvgl/lvgl/src/draw/sw/lv_draw_sw_rect.c **** 
 4173              		.loc 1 1177 0
 4174 0078 0398     		ldr	r0, [sp, #12]
 4175 007a 0490     		str	r0, [sp, #16]
 4176 007c FFF7FEFF 		bl	lv_mem_buf_get
 4177              	.LVL507:
 4178 0080 2490     		str	r0, [sp, #144]
 4179              	.LVL508:
1183:Drivers/lvgl/lvgl/src/draw/sw/lv_draw_sw_rect.c ****         lv_draw_mask_radius_init(&mask_rout_param, outer_area, rout, false);
 4180              		.loc 1 1183 0
 4181 0082 002D     		cmp	r5, #0
 4182 0084 67DC     		bgt	.L360
1181:Drivers/lvgl/lvgl/src/draw/sw/lv_draw_sw_rect.c ****     lv_draw_mask_radius_param_t mask_rout_param;
 4183              		.loc 1 1181 0
 4184 0086 4FF0FF33 		mov	r3, #-1
 4185 008a 0C93     		str	r3, [sp, #48]
 4186              	.LVL509:
 4187              	.L321:
1190:Drivers/lvgl/lvgl/src/draw/sw/lv_draw_sw_rect.c ****     int16_t mask_rin_id = lv_draw_mask_add(&mask_rin_param, NULL);
 4188              		.loc 1 1190 0
 4189 008c 0123     		movs	r3, #1
 4190 008e 4246     		mov	r2, r8
 4191 0090 3146     		mov	r1, r6
 4192 0092 15A8     		add	r0, sp, #84
 4193 0094 FFF7FEFF 		bl	lv_draw_mask_radius_init
 4194              	.LVL510:
1191:Drivers/lvgl/lvgl/src/draw/sw/lv_draw_sw_rect.c **** 
 4195              		.loc 1 1191 0
 4196 0098 0021     		movs	r1, #0
 4197 009a 15A8     		add	r0, sp, #84
 4198 009c FFF7FEFF 		bl	lv_draw_mask_add
 4199              	.LVL511:
 4200 00a0 0D90     		str	r0, [sp, #52]
 4201              	.LVL512:
1195:Drivers/lvgl/lvgl/src/draw/sw/lv_draw_sw_rect.c ****     blend_dsc.mask_area = &blend_area;
 4202              		.loc 1 1195 0
 4203 00a2 13AB     		add	r3, sp, #76
 4204 00a4 2193     		str	r3, [sp, #132]
1196:Drivers/lvgl/lvgl/src/draw/sw/lv_draw_sw_rect.c ****     blend_dsc.color = color;
 4205              		.loc 1 1196 0
 4206 00a6 2693     		str	r3, [sp, #152]
1197:Drivers/lvgl/lvgl/src/draw/sw/lv_draw_sw_rect.c ****     blend_dsc.opa = opa;
 4207              		.loc 1 1197 0
ARM GAS  /tmp/ccV6ypnB.s 			page 114


 4208 00a8 BDF8D430 		ldrh	r3, [sp, #212]
 4209 00ac ADF88C30 		strh	r3, [sp, #140]	@ movhi
1198:Drivers/lvgl/lvgl/src/draw/sw/lv_draw_sw_rect.c ****     blend_dsc.blend_mode = blend_mode;
 4210              		.loc 1 1198 0
 4211 00b0 8DF89C90 		strb	r9, [sp, #156]
1199:Drivers/lvgl/lvgl/src/draw/sw/lv_draw_sw_rect.c **** 
 4212              		.loc 1 1199 0
 4213 00b4 9DF8DC30 		ldrb	r3, [sp, #220]	@ zero_extendqisi2
 4214 00b8 8DF89D30 		strb	r3, [sp, #157]
1203:Drivers/lvgl/lvgl/src/draw/sw/lv_draw_sw_rect.c ****     core_area.x2 = LV_MIN(outer_area->x2 - rout, inner_area->x2);
 4215              		.loc 1 1203 0
 4216 00bc B6F90020 		ldrsh	r2, [r6]
 4217 00c0 0892     		str	r2, [sp, #32]
 4218 00c2 B4F90030 		ldrsh	r3, [r4]
 4219 00c6 0993     		str	r3, [sp, #36]
 4220 00c8 2B44     		add	r3, r3, r5
 4221 00ca 9342     		cmp	r3, r2
 4222 00cc B8BF     		it	lt
 4223 00ce 1346     		movlt	r3, r2
 4224 00d0 1AB2     		sxth	r2, r3
 4225 00d2 0F92     		str	r2, [sp, #60]
1204:Drivers/lvgl/lvgl/src/draw/sw/lv_draw_sw_rect.c ****     core_area.y1 = LV_MAX(outer_area->y1 + rout, inner_area->y1);
 4226              		.loc 1 1204 0
 4227 00d4 B6F90410 		ldrsh	r1, [r6, #4]
 4228 00d8 0A91     		str	r1, [sp, #40]
 4229 00da B4F90430 		ldrsh	r3, [r4, #4]
 4230 00de 0B93     		str	r3, [sp, #44]
 4231 00e0 5B1B     		subs	r3, r3, r5
 4232 00e2 8B42     		cmp	r3, r1
 4233 00e4 A8BF     		it	ge
 4234 00e6 0B46     		movge	r3, r1
 4235 00e8 19B2     		sxth	r1, r3
 4236 00ea 1091     		str	r1, [sp, #64]
1205:Drivers/lvgl/lvgl/src/draw/sw/lv_draw_sw_rect.c ****     core_area.y2 = LV_MIN(outer_area->y2 - rout, inner_area->y2);
 4237              		.loc 1 1205 0
 4238 00ec B6F90280 		ldrsh	r8, [r6, #2]
 4239 00f0 B4F90290 		ldrsh	r9, [r4, #2]
 4240              	.LVL513:
 4241 00f4 05EB0903 		add	r3, r5, r9
 4242 00f8 4345     		cmp	r3, r8
 4243 00fa B8BF     		it	lt
 4244 00fc 4346     		movlt	r3, r8
 4245 00fe 18B2     		sxth	r0, r3
 4246 0100 1190     		str	r0, [sp, #68]
1206:Drivers/lvgl/lvgl/src/draw/sw/lv_draw_sw_rect.c ****     lv_coord_t core_w = lv_area_get_width(&core_area);
 4247              		.loc 1 1206 0
 4248 0102 B6F906A0 		ldrsh	r10, [r6, #6]
 4249 0106 B4F906B0 		ldrsh	fp, [r4, #6]
 4250 010a ABEB0503 		sub	r3, fp, r5
 4251 010e 5345     		cmp	r3, r10
 4252 0110 A8BF     		it	ge
 4253 0112 5346     		movge	r3, r10
 4254 0114 1BB2     		sxth	r3, r3
 4255 0116 0E93     		str	r3, [sp, #56]
 4256              	.LVL514:
 4257              	.LBB207:
 4258              	.LBB208:
ARM GAS  /tmp/ccV6ypnB.s 			page 115


 125:Drivers/lvgl/lvgl/src/draw/sw/../../misc/lv_area.h **** }
 4259              		.loc 2 125 0
 4260 0118 8BB2     		uxth	r3, r1
 4261 011a 92B2     		uxth	r2, r2
 4262 011c 9B1A     		subs	r3, r3, r2
 4263 011e 9BB2     		uxth	r3, r3
 4264 0120 0133     		adds	r3, r3, #1
 4265 0122 1BB2     		sxth	r3, r3
 4266              	.LVL515:
 4267              	.LBE208:
 4268              	.LBE207:
1209:Drivers/lvgl/lvgl/src/draw/sw/lv_draw_sw_rect.c ****     bool bottom_side = outer_area->y2 >= inner_area->y2 ? true : false;
 4269              		.loc 1 1209 0
 4270 0124 C845     		cmp	r8, r9
 4271 0126 B4BF     		ite	lt
 4272 0128 0022     		movlt	r2, #0
 4273 012a 0122     		movge	r2, #1
 4274 012c 0692     		str	r2, [sp, #24]
 4275              	.LVL516:
1210:Drivers/lvgl/lvgl/src/draw/sw/lv_draw_sw_rect.c **** 
 4276              		.loc 1 1210 0
 4277 012e DA45     		cmp	r10, fp
 4278 0130 CCBF     		ite	gt
 4279 0132 0022     		movgt	r2, #0
 4280 0134 0122     		movle	r2, #1
 4281 0136 0792     		str	r2, [sp, #28]
 4282              	.LVL517:
1213:Drivers/lvgl/lvgl/src/draw/sw/lv_draw_sw_rect.c ****         blend_area.x1 = draw_area.x1;
 4283              		.loc 1 1213 0
 4284 0138 002F     		cmp	r7, #0
 4285 013a 51D0     		beq	.L322
1214:Drivers/lvgl/lvgl/src/draw/sw/lv_draw_sw_rect.c ****         blend_area.x2 = draw_area.x2;
 4286              		.loc 1 1214 0
 4287 013c BDF9A030 		ldrsh	r3, [sp, #160]
 4288 0140 ADF84C30 		strh	r3, [sp, #76]	@ movhi
1215:Drivers/lvgl/lvgl/src/draw/sw/lv_draw_sw_rect.c ****         for(h = draw_area.y1; h <= draw_area.y2; h++) {
 4289              		.loc 1 1215 0
 4290 0144 BDF9A430 		ldrsh	r3, [sp, #164]
 4291 0148 ADF85030 		strh	r3, [sp, #80]	@ movhi
1216:Drivers/lvgl/lvgl/src/draw/sw/lv_draw_sw_rect.c ****             if(!top_side && h < core_area.y1) continue;
 4292              		.loc 1 1216 0
 4293 014c BDF9A240 		ldrsh	r4, [sp, #162]
 4294              	.LVL518:
 4295 0150 0746     		mov	r7, r0
 4296 0152 0E9E     		ldr	r6, [sp, #56]
 4297              	.LVL519:
 4298 0154 26E0     		b	.L323
 4299              	.LVL520:
 4300              	.L360:
1184:Drivers/lvgl/lvgl/src/draw/sw/lv_draw_sw_rect.c ****         mask_rout_id = lv_draw_mask_add(&mask_rout_param, NULL);
 4301              		.loc 1 1184 0
 4302 0156 0023     		movs	r3, #0
 4303 0158 2A46     		mov	r2, r5
 4304 015a 2146     		mov	r1, r4
 4305 015c 1BA8     		add	r0, sp, #108
 4306 015e FFF7FEFF 		bl	lv_draw_mask_radius_init
 4307              	.LVL521:
ARM GAS  /tmp/ccV6ypnB.s 			page 116


1185:Drivers/lvgl/lvgl/src/draw/sw/lv_draw_sw_rect.c ****     }
 4308              		.loc 1 1185 0
 4309 0162 0021     		movs	r1, #0
 4310 0164 1BA8     		add	r0, sp, #108
 4311 0166 FFF7FEFF 		bl	lv_draw_mask_add
 4312              	.LVL522:
 4313 016a 0C90     		str	r0, [sp, #48]
 4314              	.LVL523:
 4315 016c 8EE7     		b	.L321
 4316              	.LVL524:
 4317              	.L324:
1218:Drivers/lvgl/lvgl/src/draw/sw/lv_draw_sw_rect.c **** 
 4318              		.loc 1 1218 0
 4319 016e DA45     		cmp	r10, fp
 4320 0170 01DD     		ble	.L326
1218:Drivers/lvgl/lvgl/src/draw/sw/lv_draw_sw_rect.c **** 
 4321              		.loc 1 1218 0 is_stmt 0 discriminator 1
 4322 0172 A642     		cmp	r6, r4
 4323 0174 1FDB     		blt	.L327
 4324              	.L326:
1220:Drivers/lvgl/lvgl/src/draw/sw/lv_draw_sw_rect.c ****             blend_area.y2 = h;
 4325              		.loc 1 1220 0 is_stmt 1
 4326 0176 25B2     		sxth	r5, r4
 4327 0178 ADF84E50 		strh	r5, [sp, #78]	@ movhi
1221:Drivers/lvgl/lvgl/src/draw/sw/lv_draw_sw_rect.c **** 
 4328              		.loc 1 1221 0
 4329 017c ADF85250 		strh	r5, [sp, #82]	@ movhi
1223:Drivers/lvgl/lvgl/src/draw/sw/lv_draw_sw_rect.c ****             blend_dsc.mask_res = lv_draw_mask_apply(blend_dsc.mask_buf, draw_area.x1, h, draw_area_
 4330              		.loc 1 1223 0
 4331 0180 0499     		ldr	r1, [sp, #16]
 4332 0182 2498     		ldr	r0, [sp, #144]
 4333 0184 FFF7FEFF 		bl	lv_memset_ff
 4334              	.LVL525:
1224:Drivers/lvgl/lvgl/src/draw/sw/lv_draw_sw_rect.c ****             lv_draw_sw_blend(draw_ctx, &blend_dsc);
 4335              		.loc 1 1224 0
 4336 0188 039B     		ldr	r3, [sp, #12]
 4337 018a 2A46     		mov	r2, r5
 4338 018c BDF9A010 		ldrsh	r1, [sp, #160]
 4339 0190 2498     		ldr	r0, [sp, #144]
 4340 0192 FFF7FEFF 		bl	lv_draw_mask_apply
 4341              	.LVL526:
 4342 0196 8DF89400 		strb	r0, [sp, #148]
1225:Drivers/lvgl/lvgl/src/draw/sw/lv_draw_sw_rect.c ****         }
 4343              		.loc 1 1225 0
 4344 019a 21A9     		add	r1, sp, #132
 4345 019c 0298     		ldr	r0, [sp, #8]
 4346 019e FFF7FEFF 		bl	lv_draw_sw_blend
 4347              	.LVL527:
 4348              	.L325:
1216:Drivers/lvgl/lvgl/src/draw/sw/lv_draw_sw_rect.c ****             if(!top_side && h < core_area.y1) continue;
 4349              		.loc 1 1216 0 discriminator 2
 4350 01a2 0134     		adds	r4, r4, #1
 4351              	.LVL528:
 4352              	.L323:
1216:Drivers/lvgl/lvgl/src/draw/sw/lv_draw_sw_rect.c ****             if(!top_side && h < core_area.y1) continue;
 4353              		.loc 1 1216 0 is_stmt 0 discriminator 1
 4354 01a4 BDF9A630 		ldrsh	r3, [sp, #166]
ARM GAS  /tmp/ccV6ypnB.s 			page 117


 4355 01a8 A342     		cmp	r3, r4
 4356 01aa 04DB     		blt	.L327
1217:Drivers/lvgl/lvgl/src/draw/sw/lv_draw_sw_rect.c ****             if(!bottom_side && h > core_area.y2) break;
 4357              		.loc 1 1217 0 is_stmt 1
 4358 01ac C845     		cmp	r8, r9
 4359 01ae DEDA     		bge	.L324
1217:Drivers/lvgl/lvgl/src/draw/sw/lv_draw_sw_rect.c ****             if(!bottom_side && h > core_area.y2) break;
 4360              		.loc 1 1217 0 is_stmt 0 discriminator 1
 4361 01b0 A742     		cmp	r7, r4
 4362 01b2 DCDD     		ble	.L324
 4363 01b4 F5E7     		b	.L325
 4364              	.L327:
1228:Drivers/lvgl/lvgl/src/draw/sw/lv_draw_sw_rect.c ****         lv_draw_mask_remove_id(mask_rin_id);
 4365              		.loc 1 1228 0 is_stmt 1
 4366 01b6 15A8     		add	r0, sp, #84
 4367 01b8 FFF7FEFF 		bl	lv_draw_mask_free_param
 4368              	.LVL529:
1229:Drivers/lvgl/lvgl/src/draw/sw/lv_draw_sw_rect.c ****         if(mask_rout_id != LV_MASK_ID_INV) {
 4369              		.loc 1 1229 0
 4370 01bc 0D98     		ldr	r0, [sp, #52]
 4371 01be FFF7FEFF 		bl	lv_draw_mask_remove_id
 4372              	.LVL530:
1230:Drivers/lvgl/lvgl/src/draw/sw/lv_draw_sw_rect.c ****             lv_draw_mask_free_param(&mask_rout_param);
 4373              		.loc 1 1230 0
 4374 01c2 0C9C     		ldr	r4, [sp, #48]
 4375              	.LVL531:
 4376 01c4 B4F1FF3F 		cmp	r4, #-1
 4377 01c8 03D1     		bne	.L361
 4378              	.L329:
1234:Drivers/lvgl/lvgl/src/draw/sw/lv_draw_sw_rect.c ****         return;
 4379              		.loc 1 1234 0
 4380 01ca 2498     		ldr	r0, [sp, #144]
 4381 01cc FFF7FEFF 		bl	lv_mem_buf_release
 4382              	.LVL532:
1235:Drivers/lvgl/lvgl/src/draw/sw/lv_draw_sw_rect.c ****     }
 4383              		.loc 1 1235 0
 4384 01d0 38E7     		b	.L318
 4385              	.L361:
1231:Drivers/lvgl/lvgl/src/draw/sw/lv_draw_sw_rect.c ****             lv_draw_mask_remove_id(mask_rout_id);
 4386              		.loc 1 1231 0
 4387 01d2 1BA8     		add	r0, sp, #108
 4388 01d4 FFF7FEFF 		bl	lv_draw_mask_free_param
 4389              	.LVL533:
1232:Drivers/lvgl/lvgl/src/draw/sw/lv_draw_sw_rect.c ****         }
 4390              		.loc 1 1232 0
 4391 01d8 2046     		mov	r0, r4
 4392 01da FFF7FEFF 		bl	lv_draw_mask_remove_id
 4393              	.LVL534:
 4394 01de F4E7     		b	.L329
 4395              	.LVL535:
 4396              	.L322:
1239:Drivers/lvgl/lvgl/src/draw/sw/lv_draw_sw_rect.c ****     bool right_side = outer_area->x2 >= inner_area->x2 ? true : false;
 4397              		.loc 1 1239 0
 4398 01e0 089A     		ldr	r2, [sp, #32]
 4399 01e2 0999     		ldr	r1, [sp, #36]
 4400 01e4 8A42     		cmp	r2, r1
 4401 01e6 B4BF     		ite	lt
ARM GAS  /tmp/ccV6ypnB.s 			page 118


 4402 01e8 4FF00008 		movlt	r8, #0
 4403 01ec 4FF00108 		movge	r8, #1
 4404              	.LVL536:
1240:Drivers/lvgl/lvgl/src/draw/sw/lv_draw_sw_rect.c **** 
 4405              		.loc 1 1240 0
 4406 01f0 0A9A     		ldr	r2, [sp, #40]
 4407 01f2 0B99     		ldr	r1, [sp, #44]
 4408 01f4 8A42     		cmp	r2, r1
 4409 01f6 CCBF     		ite	gt
 4410 01f8 4FF00009 		movgt	r9, #0
 4411 01fc 4FF00109 		movle	r9, #1
 4412              	.LVL537:
1243:Drivers/lvgl/lvgl/src/draw/sw/lv_draw_sw_rect.c ****        core_w < SPLIT_LIMIT) {
 4413              		.loc 1 1243 0
 4414 0200 18EA0902 		ands	r2, r8, r9
 4415 0204 09D0     		beq	.L330
1243:Drivers/lvgl/lvgl/src/draw/sw/lv_draw_sw_rect.c ****        core_w < SPLIT_LIMIT) {
 4416              		.loc 1 1243 0 is_stmt 0 discriminator 1
 4417 0206 0699     		ldr	r1, [sp, #24]
 4418 0208 0798     		ldr	r0, [sp, #28]
 4419 020a 0140     		ands	r1, r1, r0
 4420 020c 0591     		str	r1, [sp, #20]
 4421 020e 03D0     		beq	.L355
1243:Drivers/lvgl/lvgl/src/draw/sw/lv_draw_sw_rect.c ****        core_w < SPLIT_LIMIT) {
 4422              		.loc 1 1243 0 discriminator 2
 4423 0210 312B     		cmp	r3, #49
 4424 0212 02DC     		bgt	.L330
1245:Drivers/lvgl/lvgl/src/draw/sw/lv_draw_sw_rect.c ****     }
 4425              		.loc 1 1245 0 is_stmt 1
 4426 0214 0597     		str	r7, [sp, #20]
 4427 0216 00E0     		b	.L330
 4428              	.L355:
1242:Drivers/lvgl/lvgl/src/draw/sw/lv_draw_sw_rect.c ****     if(left_side && right_side && top_side && bottom_side &&
 4429              		.loc 1 1242 0
 4430 0218 0592     		str	r2, [sp, #20]
 4431              	.L330:
 4432              	.LVL538:
1248:Drivers/lvgl/lvgl/src/draw/sw/lv_draw_sw_rect.c ****     /*Draw the straight lines first if they are long enough*/
 4433              		.loc 1 1248 0
 4434 021a 0123     		movs	r3, #1
 4435 021c 8DF89430 		strb	r3, [sp, #148]
1250:Drivers/lvgl/lvgl/src/draw/sw/lv_draw_sw_rect.c ****         blend_area.x1 = core_area.x1;
 4436              		.loc 1 1250 0
 4437 0220 059B     		ldr	r3, [sp, #20]
 4438 0222 069A     		ldr	r2, [sp, #24]
 4439 0224 1342     		tst	r3, r2
 4440 0226 23D1     		bne	.L362
 4441              	.LVL539:
 4442              	.L331:
1258:Drivers/lvgl/lvgl/src/draw/sw/lv_draw_sw_rect.c ****         blend_area.x1 = core_area.x1;
 4443              		.loc 1 1258 0
 4444 0228 059B     		ldr	r3, [sp, #20]
 4445 022a 079A     		ldr	r2, [sp, #28]
 4446 022c 1342     		tst	r3, r2
 4447 022e 34D1     		bne	.L363
 4448              	.L332:
1266:Drivers/lvgl/lvgl/src/draw/sw/lv_draw_sw_rect.c ****         blend_area.x1 = outer_area->x1;
ARM GAS  /tmp/ccV6ypnB.s 			page 119


 4449              		.loc 1 1266 0
 4450 0230 089B     		ldr	r3, [sp, #32]
 4451 0232 099A     		ldr	r2, [sp, #36]
 4452 0234 9342     		cmp	r3, r2
 4453 0236 45DA     		bge	.L364
 4454              	.L333:
1274:Drivers/lvgl/lvgl/src/draw/sw/lv_draw_sw_rect.c ****         blend_area.x1 = inner_area->x2 + 1;
 4455              		.loc 1 1274 0
 4456 0238 0A9B     		ldr	r3, [sp, #40]
 4457 023a 0B9A     		ldr	r2, [sp, #44]
 4458 023c 9342     		cmp	r3, r2
 4459 023e 56DD     		ble	.L365
 4460              	.L334:
1286:Drivers/lvgl/lvgl/src/draw/sw/lv_draw_sw_rect.c ****         /*Calculate the top corner and mirror it to the bottom*/
 4461              		.loc 1 1286 0
 4462 0240 059B     		ldr	r3, [sp, #20]
 4463 0242 002B     		cmp	r3, #0
 4464 0244 40F0A580 		bne	.L335
 4465              	.LBB209:
1288:Drivers/lvgl/lvgl/src/draw/sw/lv_draw_sw_rect.c ****         blend_area.x2 = draw_area.x2;
 4466              		.loc 1 1288 0
 4467 0248 BDF9A030 		ldrsh	r3, [sp, #160]
 4468 024c ADF84C30 		strh	r3, [sp, #76]	@ movhi
1289:Drivers/lvgl/lvgl/src/draw/sw/lv_draw_sw_rect.c ****         lv_coord_t max_h = LV_MAX(rout, inner_area->y1 - outer_area->y1);
 4469              		.loc 1 1289 0
 4470 0250 BDF9A430 		ldrsh	r3, [sp, #164]
 4471 0254 ADF85030 		strh	r3, [sp, #80]	@ movhi
1290:Drivers/lvgl/lvgl/src/draw/sw/lv_draw_sw_rect.c ****         for(h = 0; h < max_h; h++) {
 4472              		.loc 1 1290 0
 4473 0258 B6F90230 		ldrsh	r3, [r6, #2]
 4474 025c B4F90220 		ldrsh	r2, [r4, #2]
 4475 0260 9B1A     		subs	r3, r3, r2
 4476 0262 9D42     		cmp	r5, r3
 4477 0264 B8BF     		it	lt
 4478 0266 1D46     		movlt	r5, r3
 4479 0268 2DB2     		sxth	r5, r5
 4480              	.LVL540:
1291:Drivers/lvgl/lvgl/src/draw/sw/lv_draw_sw_rect.c ****             lv_coord_t top_y = outer_area->y1 + h;
 4481              		.loc 1 1291 0
 4482 026a 4FF00008 		mov	r8, #0
 4483              	.LVL541:
 4484 026e 6AE0     		b	.L336
 4485              	.LVL542:
 4486              	.L362:
 4487              	.LBE209:
1251:Drivers/lvgl/lvgl/src/draw/sw/lv_draw_sw_rect.c ****         blend_area.x2 = core_area.x2;
 4488              		.loc 1 1251 0
 4489 0270 BDF83C30 		ldrh	r3, [sp, #60]
 4490 0274 ADF84C30 		strh	r3, [sp, #76]	@ movhi
1252:Drivers/lvgl/lvgl/src/draw/sw/lv_draw_sw_rect.c ****         blend_area.y1 = outer_area->y1;
 4491              		.loc 1 1252 0
 4492 0278 BDF84030 		ldrh	r3, [sp, #64]
 4493 027c ADF85030 		strh	r3, [sp, #80]	@ movhi
1253:Drivers/lvgl/lvgl/src/draw/sw/lv_draw_sw_rect.c ****         blend_area.y2 = inner_area->y1 - 1;
 4494              		.loc 1 1253 0
 4495 0280 B4F90230 		ldrsh	r3, [r4, #2]
 4496 0284 ADF84E30 		strh	r3, [sp, #78]	@ movhi
ARM GAS  /tmp/ccV6ypnB.s 			page 120


1254:Drivers/lvgl/lvgl/src/draw/sw/lv_draw_sw_rect.c ****         lv_draw_sw_blend(draw_ctx, &blend_dsc);
 4497              		.loc 1 1254 0
 4498 0288 7388     		ldrh	r3, [r6, #2]
 4499 028a 013B     		subs	r3, r3, #1
 4500 028c ADF85230 		strh	r3, [sp, #82]	@ movhi
1255:Drivers/lvgl/lvgl/src/draw/sw/lv_draw_sw_rect.c ****     }
 4501              		.loc 1 1255 0
 4502 0290 21A9     		add	r1, sp, #132
 4503 0292 0298     		ldr	r0, [sp, #8]
 4504 0294 FFF7FEFF 		bl	lv_draw_sw_blend
 4505              	.LVL543:
 4506 0298 C6E7     		b	.L331
 4507              	.L363:
1259:Drivers/lvgl/lvgl/src/draw/sw/lv_draw_sw_rect.c ****         blend_area.x2 = core_area.x2;
 4508              		.loc 1 1259 0
 4509 029a BDF83C30 		ldrh	r3, [sp, #60]
 4510 029e ADF84C30 		strh	r3, [sp, #76]	@ movhi
1260:Drivers/lvgl/lvgl/src/draw/sw/lv_draw_sw_rect.c ****         blend_area.y1 = inner_area->y2 + 1;
 4511              		.loc 1 1260 0
 4512 02a2 BDF84030 		ldrh	r3, [sp, #64]
 4513 02a6 ADF85030 		strh	r3, [sp, #80]	@ movhi
1261:Drivers/lvgl/lvgl/src/draw/sw/lv_draw_sw_rect.c ****         blend_area.y2 = outer_area->y2;
 4514              		.loc 1 1261 0
 4515 02aa F388     		ldrh	r3, [r6, #6]
 4516 02ac 0133     		adds	r3, r3, #1
 4517 02ae ADF84E30 		strh	r3, [sp, #78]	@ movhi
1262:Drivers/lvgl/lvgl/src/draw/sw/lv_draw_sw_rect.c ****         lv_draw_sw_blend(draw_ctx, &blend_dsc);
 4518              		.loc 1 1262 0
 4519 02b2 B4F90630 		ldrsh	r3, [r4, #6]
 4520 02b6 ADF85230 		strh	r3, [sp, #82]	@ movhi
1263:Drivers/lvgl/lvgl/src/draw/sw/lv_draw_sw_rect.c ****     }
 4521              		.loc 1 1263 0
 4522 02ba 21A9     		add	r1, sp, #132
 4523 02bc 0298     		ldr	r0, [sp, #8]
 4524 02be FFF7FEFF 		bl	lv_draw_sw_blend
 4525              	.LVL544:
 4526 02c2 B5E7     		b	.L332
 4527              	.L364:
1267:Drivers/lvgl/lvgl/src/draw/sw/lv_draw_sw_rect.c ****         blend_area.x2 = inner_area->x1 - 1;
 4528              		.loc 1 1267 0
 4529 02c4 B4F90030 		ldrsh	r3, [r4]
 4530 02c8 ADF84C30 		strh	r3, [sp, #76]	@ movhi
1268:Drivers/lvgl/lvgl/src/draw/sw/lv_draw_sw_rect.c ****         blend_area.y1 = core_area.y1;
 4531              		.loc 1 1268 0
 4532 02cc 3388     		ldrh	r3, [r6]
 4533 02ce 013B     		subs	r3, r3, #1
 4534 02d0 ADF85030 		strh	r3, [sp, #80]	@ movhi
1269:Drivers/lvgl/lvgl/src/draw/sw/lv_draw_sw_rect.c ****         blend_area.y2 = core_area.y2;
 4535              		.loc 1 1269 0
 4536 02d4 BDF84430 		ldrh	r3, [sp, #68]
 4537 02d8 ADF84E30 		strh	r3, [sp, #78]	@ movhi
1270:Drivers/lvgl/lvgl/src/draw/sw/lv_draw_sw_rect.c ****         lv_draw_sw_blend(draw_ctx, &blend_dsc);
 4538              		.loc 1 1270 0
 4539 02dc BDF83830 		ldrh	r3, [sp, #56]
 4540 02e0 ADF85230 		strh	r3, [sp, #82]	@ movhi
1271:Drivers/lvgl/lvgl/src/draw/sw/lv_draw_sw_rect.c ****     }
 4541              		.loc 1 1271 0
ARM GAS  /tmp/ccV6ypnB.s 			page 121


 4542 02e4 21A9     		add	r1, sp, #132
 4543 02e6 0298     		ldr	r0, [sp, #8]
 4544 02e8 FFF7FEFF 		bl	lv_draw_sw_blend
 4545              	.LVL545:
 4546 02ec A4E7     		b	.L333
 4547              	.L365:
1275:Drivers/lvgl/lvgl/src/draw/sw/lv_draw_sw_rect.c ****         blend_area.x2 = outer_area->x2;
 4548              		.loc 1 1275 0
 4549 02ee B388     		ldrh	r3, [r6, #4]
 4550 02f0 0133     		adds	r3, r3, #1
 4551 02f2 ADF84C30 		strh	r3, [sp, #76]	@ movhi
1276:Drivers/lvgl/lvgl/src/draw/sw/lv_draw_sw_rect.c ****         blend_area.y1 = core_area.y1;
 4552              		.loc 1 1276 0
 4553 02f6 B4F90430 		ldrsh	r3, [r4, #4]
 4554 02fa ADF85030 		strh	r3, [sp, #80]	@ movhi
1277:Drivers/lvgl/lvgl/src/draw/sw/lv_draw_sw_rect.c ****         blend_area.y2 = core_area.y2;
 4555              		.loc 1 1277 0
 4556 02fe BDF84430 		ldrh	r3, [sp, #68]
 4557 0302 ADF84E30 		strh	r3, [sp, #78]	@ movhi
1278:Drivers/lvgl/lvgl/src/draw/sw/lv_draw_sw_rect.c ****         lv_draw_sw_blend(draw_ctx, &blend_dsc);
 4558              		.loc 1 1278 0
 4559 0306 BDF83830 		ldrh	r3, [sp, #56]
 4560 030a ADF85230 		strh	r3, [sp, #82]	@ movhi
1279:Drivers/lvgl/lvgl/src/draw/sw/lv_draw_sw_rect.c ****     }
 4561              		.loc 1 1279 0
 4562 030e 21A9     		add	r1, sp, #132
 4563 0310 0298     		ldr	r0, [sp, #8]
 4564 0312 FFF7FEFF 		bl	lv_draw_sw_blend
 4565              	.LVL546:
 4566 0316 93E7     		b	.L334
 4567              	.LVL547:
 4568              	.L337:
 4569              	.LBB212:
 4570              	.LBB210:
1296:Drivers/lvgl/lvgl/src/draw/sw/lv_draw_sw_rect.c ****             blend_dsc.mask_res = lv_draw_mask_apply(blend_dsc.mask_buf, blend_area.x1, top_y, draw_
 4571              		.loc 1 1296 0
 4572 0318 0499     		ldr	r1, [sp, #16]
 4573 031a 2498     		ldr	r0, [sp, #144]
 4574 031c FFF7FEFF 		bl	lv_memset_ff
 4575              	.LVL548:
1297:Drivers/lvgl/lvgl/src/draw/sw/lv_draw_sw_rect.c **** 
 4576              		.loc 1 1297 0
 4577 0320 039B     		ldr	r3, [sp, #12]
 4578 0322 3246     		mov	r2, r6
 4579 0324 BDF94C10 		ldrsh	r1, [sp, #76]
 4580 0328 2498     		ldr	r0, [sp, #144]
 4581 032a FFF7FEFF 		bl	lv_draw_mask_apply
 4582              	.LVL549:
 4583 032e 8DF89400 		strb	r0, [sp, #148]
1299:Drivers/lvgl/lvgl/src/draw/sw/lv_draw_sw_rect.c ****                 blend_area.y1 = top_y;
 4584              		.loc 1 1299 0
 4585 0332 BDF9A230 		ldrsh	r3, [sp, #162]
 4586 0336 B342     		cmp	r3, r6
 4587 0338 19DD     		ble	.L366
 4588              	.L339:
1305:Drivers/lvgl/lvgl/src/draw/sw/lv_draw_sw_rect.c ****                 blend_area.y1 = bottom_y;
 4589              		.loc 1 1305 0
ARM GAS  /tmp/ccV6ypnB.s 			page 122


 4590 033a BDF9A630 		ldrsh	r3, [sp, #166]
 4591 033e BB42     		cmp	r3, r7
 4592 0340 1EDA     		bge	.L367
 4593              	.L338:
 4594              	.LBE210:
1291:Drivers/lvgl/lvgl/src/draw/sw/lv_draw_sw_rect.c ****             lv_coord_t top_y = outer_area->y1 + h;
 4595              		.loc 1 1291 0 discriminator 2
 4596 0342 08F10108 		add	r8, r8, #1
 4597              	.LVL550:
 4598              	.L336:
1291:Drivers/lvgl/lvgl/src/draw/sw/lv_draw_sw_rect.c ****             lv_coord_t top_y = outer_area->y1 + h;
 4599              		.loc 1 1291 0 is_stmt 0 discriminator 1
 4600 0346 4545     		cmp	r5, r8
 4601 0348 40F3D580 		ble	.L341
 4602              	.LBB211:
1292:Drivers/lvgl/lvgl/src/draw/sw/lv_draw_sw_rect.c ****             lv_coord_t bottom_y = outer_area->y2 - h;
 4603              		.loc 1 1292 0 is_stmt 1
 4604 034c 6688     		ldrh	r6, [r4, #2]
 4605 034e 1FFA88F3 		uxth	r3, r8
 4606 0352 1E44     		add	r6, r6, r3
 4607 0354 36B2     		sxth	r6, r6
 4608              	.LVL551:
1293:Drivers/lvgl/lvgl/src/draw/sw/lv_draw_sw_rect.c ****             if(top_y < draw_area.y1 && bottom_y > draw_area.y2) continue;   /*This line is clipped 
 4609              		.loc 1 1293 0
 4610 0356 E788     		ldrh	r7, [r4, #6]
 4611 0358 FF1A     		subs	r7, r7, r3
 4612 035a 3FB2     		sxth	r7, r7
 4613              	.LVL552:
1294:Drivers/lvgl/lvgl/src/draw/sw/lv_draw_sw_rect.c **** 
 4614              		.loc 1 1294 0
 4615 035c BDF9A230 		ldrsh	r3, [sp, #162]
 4616 0360 B342     		cmp	r3, r6
 4617 0362 D9DD     		ble	.L337
1294:Drivers/lvgl/lvgl/src/draw/sw/lv_draw_sw_rect.c **** 
 4618              		.loc 1 1294 0 is_stmt 0 discriminator 1
 4619 0364 BDF9A630 		ldrsh	r3, [sp, #166]
 4620 0368 BB42     		cmp	r3, r7
 4621 036a D5DA     		bge	.L337
 4622 036c E9E7     		b	.L338
 4623              	.L366:
1300:Drivers/lvgl/lvgl/src/draw/sw/lv_draw_sw_rect.c ****                 blend_area.y2 = top_y;
 4624              		.loc 1 1300 0 is_stmt 1
 4625 036e ADF84E60 		strh	r6, [sp, #78]	@ movhi
1301:Drivers/lvgl/lvgl/src/draw/sw/lv_draw_sw_rect.c ****                 lv_draw_sw_blend(draw_ctx, &blend_dsc);
 4626              		.loc 1 1301 0
 4627 0372 ADF85260 		strh	r6, [sp, #82]	@ movhi
1302:Drivers/lvgl/lvgl/src/draw/sw/lv_draw_sw_rect.c ****             }
 4628              		.loc 1 1302 0
 4629 0376 21A9     		add	r1, sp, #132
 4630 0378 0298     		ldr	r0, [sp, #8]
 4631 037a FFF7FEFF 		bl	lv_draw_sw_blend
 4632              	.LVL553:
 4633 037e DCE7     		b	.L339
 4634              	.L367:
1306:Drivers/lvgl/lvgl/src/draw/sw/lv_draw_sw_rect.c ****                 blend_area.y2 = bottom_y;
 4635              		.loc 1 1306 0
 4636 0380 ADF84E70 		strh	r7, [sp, #78]	@ movhi
ARM GAS  /tmp/ccV6ypnB.s 			page 123


1307:Drivers/lvgl/lvgl/src/draw/sw/lv_draw_sw_rect.c ****                 lv_draw_sw_blend(draw_ctx, &blend_dsc);
 4637              		.loc 1 1307 0
 4638 0384 ADF85270 		strh	r7, [sp, #82]	@ movhi
1308:Drivers/lvgl/lvgl/src/draw/sw/lv_draw_sw_rect.c ****             }
 4639              		.loc 1 1308 0
 4640 0388 21A9     		add	r1, sp, #132
 4641 038a 0298     		ldr	r0, [sp, #8]
 4642 038c FFF7FEFF 		bl	lv_draw_sw_blend
 4643              	.LVL554:
 4644 0390 D7E7     		b	.L338
 4645              	.LVL555:
 4646              	.L335:
 4647              	.LBE211:
 4648              	.LBE212:
1314:Drivers/lvgl/lvgl/src/draw/sw/lv_draw_sw_rect.c ****         blend_area.x2 = LV_MIN(draw_area.x2, core_area.x1 - 1);
 4649              		.loc 1 1314 0
 4650 0392 BDF9A020 		ldrsh	r2, [sp, #160]
 4651 0396 ADF84C20 		strh	r2, [sp, #76]	@ movhi
1315:Drivers/lvgl/lvgl/src/draw/sw/lv_draw_sw_rect.c ****         blend_w = lv_area_get_width(&blend_area);
 4652              		.loc 1 1315 0
 4653 039a 0F9B     		ldr	r3, [sp, #60]
 4654 039c 013B     		subs	r3, r3, #1
 4655 039e BDF9A410 		ldrsh	r1, [sp, #164]
 4656 03a2 8B42     		cmp	r3, r1
 4657 03a4 A8BF     		it	ge
 4658 03a6 0B46     		movge	r3, r1
 4659 03a8 1BB2     		sxth	r3, r3
 4660 03aa ADF85030 		strh	r3, [sp, #80]	@ movhi
 4661              	.LVL556:
 4662              	.LBB213:
 4663              	.LBB214:
 125:Drivers/lvgl/lvgl/src/draw/sw/../../misc/lv_area.h **** }
 4664              		.loc 2 125 0
 4665 03ae 9CB2     		uxth	r4, r3
 4666              	.LVL557:
 4667 03b0 92B2     		uxth	r2, r2
 4668 03b2 A41A     		subs	r4, r4, r2
 4669 03b4 A4B2     		uxth	r4, r4
 4670 03b6 0134     		adds	r4, r4, #1
 4671 03b8 24B2     		sxth	r4, r4
 4672              	.LVL558:
 4673              	.LBE214:
 4674              	.LBE213:
1317:Drivers/lvgl/lvgl/src/draw/sw/lv_draw_sw_rect.c ****             if(left_side || top_side) {
 4675              		.loc 1 1317 0
 4676 03ba 002C     		cmp	r4, #0
 4677 03bc 42DD     		ble	.L342
1318:Drivers/lvgl/lvgl/src/draw/sw/lv_draw_sw_rect.c ****                 for(h = draw_area.y1; h < core_area.y1; h++) {
 4678              		.loc 1 1318 0
 4679 03be 069B     		ldr	r3, [sp, #24]
 4680 03c0 53EA0803 		orrs	r3, r3, r8
 4681 03c4 1CD0     		beq	.L343
1319:Drivers/lvgl/lvgl/src/draw/sw/lv_draw_sw_rect.c ****                     blend_area.y1 = h;
 4682              		.loc 1 1319 0
 4683 03c6 BDF9A250 		ldrsh	r5, [sp, #162]
 4684              	.LVL559:
 4685 03ca 119F     		ldr	r7, [sp, #68]
ARM GAS  /tmp/ccV6ypnB.s 			page 124


 4686 03cc 16E0     		b	.L344
 4687              	.LVL560:
 4688              	.L345:
1320:Drivers/lvgl/lvgl/src/draw/sw/lv_draw_sw_rect.c ****                     blend_area.y2 = h;
 4689              		.loc 1 1320 0 discriminator 3
 4690 03ce 2EB2     		sxth	r6, r5
 4691 03d0 ADF84E60 		strh	r6, [sp, #78]	@ movhi
1321:Drivers/lvgl/lvgl/src/draw/sw/lv_draw_sw_rect.c **** 
 4692              		.loc 1 1321 0 discriminator 3
 4693 03d4 ADF85260 		strh	r6, [sp, #82]	@ movhi
1323:Drivers/lvgl/lvgl/src/draw/sw/lv_draw_sw_rect.c ****                     blend_dsc.mask_res = lv_draw_mask_apply(blend_dsc.mask_buf, blend_area.x1, h, b
 4694              		.loc 1 1323 0 discriminator 3
 4695 03d8 2146     		mov	r1, r4
 4696 03da 2498     		ldr	r0, [sp, #144]
 4697 03dc FFF7FEFF 		bl	lv_memset_ff
 4698              	.LVL561:
1324:Drivers/lvgl/lvgl/src/draw/sw/lv_draw_sw_rect.c ****                     lv_draw_sw_blend(draw_ctx, &blend_dsc);
 4699              		.loc 1 1324 0 discriminator 3
 4700 03e0 2346     		mov	r3, r4
 4701 03e2 3246     		mov	r2, r6
 4702 03e4 BDF94C10 		ldrsh	r1, [sp, #76]
 4703 03e8 2498     		ldr	r0, [sp, #144]
 4704 03ea FFF7FEFF 		bl	lv_draw_mask_apply
 4705              	.LVL562:
 4706 03ee 8DF89400 		strb	r0, [sp, #148]
1325:Drivers/lvgl/lvgl/src/draw/sw/lv_draw_sw_rect.c ****                 }
 4707              		.loc 1 1325 0 discriminator 3
 4708 03f2 21A9     		add	r1, sp, #132
 4709 03f4 0298     		ldr	r0, [sp, #8]
 4710 03f6 FFF7FEFF 		bl	lv_draw_sw_blend
 4711              	.LVL563:
1319:Drivers/lvgl/lvgl/src/draw/sw/lv_draw_sw_rect.c ****                     blend_area.y1 = h;
 4712              		.loc 1 1319 0 discriminator 3
 4713 03fa 0135     		adds	r5, r5, #1
 4714              	.LVL564:
 4715              	.L344:
1319:Drivers/lvgl/lvgl/src/draw/sw/lv_draw_sw_rect.c ****                     blend_area.y1 = h;
 4716              		.loc 1 1319 0 is_stmt 0 discriminator 1
 4717 03fc AF42     		cmp	r7, r5
 4718 03fe E6DC     		bgt	.L345
 4719              	.LVL565:
 4720              	.L343:
1329:Drivers/lvgl/lvgl/src/draw/sw/lv_draw_sw_rect.c ****                 for(h = core_area.y2 + 1; h <= draw_area.y2; h++) {
 4721              		.loc 1 1329 0 is_stmt 1
 4722 0400 079B     		ldr	r3, [sp, #28]
 4723 0402 53EA0803 		orrs	r3, r3, r8
 4724 0406 1DD0     		beq	.L342
1330:Drivers/lvgl/lvgl/src/draw/sw/lv_draw_sw_rect.c ****                     blend_area.y1 = h;
 4725              		.loc 1 1330 0
 4726 0408 0E9B     		ldr	r3, [sp, #56]
 4727 040a 5D1C     		adds	r5, r3, #1
 4728              	.LVL566:
 4729 040c 16E0     		b	.L346
 4730              	.L347:
1331:Drivers/lvgl/lvgl/src/draw/sw/lv_draw_sw_rect.c ****                     blend_area.y2 = h;
 4731              		.loc 1 1331 0 discriminator 3
 4732 040e 2EB2     		sxth	r6, r5
ARM GAS  /tmp/ccV6ypnB.s 			page 125


 4733 0410 ADF84E60 		strh	r6, [sp, #78]	@ movhi
1332:Drivers/lvgl/lvgl/src/draw/sw/lv_draw_sw_rect.c **** 
 4734              		.loc 1 1332 0 discriminator 3
 4735 0414 ADF85260 		strh	r6, [sp, #82]	@ movhi
1334:Drivers/lvgl/lvgl/src/draw/sw/lv_draw_sw_rect.c ****                     blend_dsc.mask_res = lv_draw_mask_apply(blend_dsc.mask_buf, blend_area.x1, h, b
 4736              		.loc 1 1334 0 discriminator 3
 4737 0418 2146     		mov	r1, r4
 4738 041a 2498     		ldr	r0, [sp, #144]
 4739 041c FFF7FEFF 		bl	lv_memset_ff
 4740              	.LVL567:
1335:Drivers/lvgl/lvgl/src/draw/sw/lv_draw_sw_rect.c ****                     lv_draw_sw_blend(draw_ctx, &blend_dsc);
 4741              		.loc 1 1335 0 discriminator 3
 4742 0420 2346     		mov	r3, r4
 4743 0422 3246     		mov	r2, r6
 4744 0424 BDF94C10 		ldrsh	r1, [sp, #76]
 4745 0428 2498     		ldr	r0, [sp, #144]
 4746 042a FFF7FEFF 		bl	lv_draw_mask_apply
 4747              	.LVL568:
 4748 042e 8DF89400 		strb	r0, [sp, #148]
1336:Drivers/lvgl/lvgl/src/draw/sw/lv_draw_sw_rect.c ****                 }
 4749              		.loc 1 1336 0 discriminator 3
 4750 0432 21A9     		add	r1, sp, #132
 4751 0434 0298     		ldr	r0, [sp, #8]
 4752 0436 FFF7FEFF 		bl	lv_draw_sw_blend
 4753              	.LVL569:
1330:Drivers/lvgl/lvgl/src/draw/sw/lv_draw_sw_rect.c ****                     blend_area.y1 = h;
 4754              		.loc 1 1330 0 discriminator 3
 4755 043a 0135     		adds	r5, r5, #1
 4756              	.LVL570:
 4757              	.L346:
1330:Drivers/lvgl/lvgl/src/draw/sw/lv_draw_sw_rect.c ****                     blend_area.y1 = h;
 4758              		.loc 1 1330 0 is_stmt 0 discriminator 1
 4759 043c BDF9A630 		ldrsh	r3, [sp, #166]
 4760 0440 AB42     		cmp	r3, r5
 4761 0442 E4DA     		bge	.L347
 4762              	.LVL571:
 4763              	.L342:
1342:Drivers/lvgl/lvgl/src/draw/sw/lv_draw_sw_rect.c ****         blend_area.x2 = draw_area.x2;
 4764              		.loc 1 1342 0 is_stmt 1
 4765 0444 109B     		ldr	r3, [sp, #64]
 4766 0446 0133     		adds	r3, r3, #1
 4767 0448 BDF9A020 		ldrsh	r2, [sp, #160]
 4768 044c 9342     		cmp	r3, r2
 4769 044e B8BF     		it	lt
 4770 0450 1346     		movlt	r3, r2
 4771 0452 1BB2     		sxth	r3, r3
 4772 0454 ADF84C30 		strh	r3, [sp, #76]	@ movhi
1343:Drivers/lvgl/lvgl/src/draw/sw/lv_draw_sw_rect.c ****         blend_w = lv_area_get_width(&blend_area);
 4773              		.loc 1 1343 0
 4774 0458 BDF9A420 		ldrsh	r2, [sp, #164]
 4775 045c ADF85020 		strh	r2, [sp, #80]	@ movhi
 4776              	.LVL572:
 4777              	.LBB215:
 4778              	.LBB216:
 125:Drivers/lvgl/lvgl/src/draw/sw/../../misc/lv_area.h **** }
 4779              		.loc 2 125 0
 4780 0460 94B2     		uxth	r4, r2
ARM GAS  /tmp/ccV6ypnB.s 			page 126


 4781 0462 9BB2     		uxth	r3, r3
 4782 0464 E41A     		subs	r4, r4, r3
 4783 0466 A4B2     		uxth	r4, r4
 4784 0468 0134     		adds	r4, r4, #1
 4785 046a 24B2     		sxth	r4, r4
 4786              	.LVL573:
 4787              	.LBE216:
 4788              	.LBE215:
1346:Drivers/lvgl/lvgl/src/draw/sw/lv_draw_sw_rect.c ****             if(right_side || top_side) {
 4789              		.loc 1 1346 0
 4790 046c 002C     		cmp	r4, #0
 4791 046e 42DD     		ble	.L341
1347:Drivers/lvgl/lvgl/src/draw/sw/lv_draw_sw_rect.c ****                 for(h = draw_area.y1; h < core_area.y1; h++) {
 4792              		.loc 1 1347 0
 4793 0470 069B     		ldr	r3, [sp, #24]
 4794 0472 53EA0903 		orrs	r3, r3, r9
 4795 0476 1CD0     		beq	.L348
1348:Drivers/lvgl/lvgl/src/draw/sw/lv_draw_sw_rect.c ****                     blend_area.y1 = h;
 4796              		.loc 1 1348 0
 4797 0478 BDF9A250 		ldrsh	r5, [sp, #162]
 4798              	.LVL574:
 4799 047c 119F     		ldr	r7, [sp, #68]
 4800 047e 16E0     		b	.L349
 4801              	.L350:
1349:Drivers/lvgl/lvgl/src/draw/sw/lv_draw_sw_rect.c ****                     blend_area.y2 = h;
 4802              		.loc 1 1349 0 discriminator 3
 4803 0480 2EB2     		sxth	r6, r5
 4804 0482 ADF84E60 		strh	r6, [sp, #78]	@ movhi
1350:Drivers/lvgl/lvgl/src/draw/sw/lv_draw_sw_rect.c **** 
 4805              		.loc 1 1350 0 discriminator 3
 4806 0486 ADF85260 		strh	r6, [sp, #82]	@ movhi
1352:Drivers/lvgl/lvgl/src/draw/sw/lv_draw_sw_rect.c ****                     blend_dsc.mask_res = lv_draw_mask_apply(blend_dsc.mask_buf, blend_area.x1, h, b
 4807              		.loc 1 1352 0 discriminator 3
 4808 048a 2146     		mov	r1, r4
 4809 048c 2498     		ldr	r0, [sp, #144]
 4810 048e FFF7FEFF 		bl	lv_memset_ff
 4811              	.LVL575:
1353:Drivers/lvgl/lvgl/src/draw/sw/lv_draw_sw_rect.c ****                     lv_draw_sw_blend(draw_ctx, &blend_dsc);
 4812              		.loc 1 1353 0 discriminator 3
 4813 0492 2346     		mov	r3, r4
 4814 0494 3246     		mov	r2, r6
 4815 0496 BDF94C10 		ldrsh	r1, [sp, #76]
 4816 049a 2498     		ldr	r0, [sp, #144]
 4817 049c FFF7FEFF 		bl	lv_draw_mask_apply
 4818              	.LVL576:
 4819 04a0 8DF89400 		strb	r0, [sp, #148]
1354:Drivers/lvgl/lvgl/src/draw/sw/lv_draw_sw_rect.c ****                 }
 4820              		.loc 1 1354 0 discriminator 3
 4821 04a4 21A9     		add	r1, sp, #132
 4822 04a6 0298     		ldr	r0, [sp, #8]
 4823 04a8 FFF7FEFF 		bl	lv_draw_sw_blend
 4824              	.LVL577:
1348:Drivers/lvgl/lvgl/src/draw/sw/lv_draw_sw_rect.c ****                     blend_area.y1 = h;
 4825              		.loc 1 1348 0 discriminator 3
 4826 04ac 0135     		adds	r5, r5, #1
 4827              	.LVL578:
 4828              	.L349:
ARM GAS  /tmp/ccV6ypnB.s 			page 127


1348:Drivers/lvgl/lvgl/src/draw/sw/lv_draw_sw_rect.c ****                     blend_area.y1 = h;
 4829              		.loc 1 1348 0 is_stmt 0 discriminator 1
 4830 04ae AF42     		cmp	r7, r5
 4831 04b0 E6DC     		bgt	.L350
 4832              	.LVL579:
 4833              	.L348:
1358:Drivers/lvgl/lvgl/src/draw/sw/lv_draw_sw_rect.c ****                 for(h = core_area.y2 + 1; h <= draw_area.y2; h++) {
 4834              		.loc 1 1358 0 is_stmt 1
 4835 04b2 079B     		ldr	r3, [sp, #28]
 4836 04b4 53EA0903 		orrs	r3, r3, r9
 4837 04b8 1DD0     		beq	.L341
1359:Drivers/lvgl/lvgl/src/draw/sw/lv_draw_sw_rect.c ****                     blend_area.y1 = h;
 4838              		.loc 1 1359 0
 4839 04ba 0E9D     		ldr	r5, [sp, #56]
 4840 04bc 0135     		adds	r5, r5, #1
 4841              	.LVL580:
 4842 04be 16E0     		b	.L351
 4843              	.L352:
1360:Drivers/lvgl/lvgl/src/draw/sw/lv_draw_sw_rect.c ****                     blend_area.y2 = h;
 4844              		.loc 1 1360 0 discriminator 3
 4845 04c0 2EB2     		sxth	r6, r5
 4846 04c2 ADF84E60 		strh	r6, [sp, #78]	@ movhi
1361:Drivers/lvgl/lvgl/src/draw/sw/lv_draw_sw_rect.c **** 
 4847              		.loc 1 1361 0 discriminator 3
 4848 04c6 ADF85260 		strh	r6, [sp, #82]	@ movhi
1363:Drivers/lvgl/lvgl/src/draw/sw/lv_draw_sw_rect.c ****                     blend_dsc.mask_res = lv_draw_mask_apply(blend_dsc.mask_buf, blend_area.x1, h, b
 4849              		.loc 1 1363 0 discriminator 3
 4850 04ca 2146     		mov	r1, r4
 4851 04cc 2498     		ldr	r0, [sp, #144]
 4852 04ce FFF7FEFF 		bl	lv_memset_ff
 4853              	.LVL581:
1364:Drivers/lvgl/lvgl/src/draw/sw/lv_draw_sw_rect.c ****                     lv_draw_sw_blend(draw_ctx, &blend_dsc);
 4854              		.loc 1 1364 0 discriminator 3
 4855 04d2 2346     		mov	r3, r4
 4856 04d4 3246     		mov	r2, r6
 4857 04d6 BDF94C10 		ldrsh	r1, [sp, #76]
 4858 04da 2498     		ldr	r0, [sp, #144]
 4859 04dc FFF7FEFF 		bl	lv_draw_mask_apply
 4860              	.LVL582:
 4861 04e0 8DF89400 		strb	r0, [sp, #148]
1365:Drivers/lvgl/lvgl/src/draw/sw/lv_draw_sw_rect.c ****                 }
 4862              		.loc 1 1365 0 discriminator 3
 4863 04e4 21A9     		add	r1, sp, #132
 4864 04e6 0298     		ldr	r0, [sp, #8]
 4865 04e8 FFF7FEFF 		bl	lv_draw_sw_blend
 4866              	.LVL583:
1359:Drivers/lvgl/lvgl/src/draw/sw/lv_draw_sw_rect.c ****                     blend_area.y1 = h;
 4867              		.loc 1 1359 0 discriminator 3
 4868 04ec 0135     		adds	r5, r5, #1
 4869              	.LVL584:
 4870              	.L351:
1359:Drivers/lvgl/lvgl/src/draw/sw/lv_draw_sw_rect.c ****                     blend_area.y1 = h;
 4871              		.loc 1 1359 0 is_stmt 0 discriminator 1
 4872 04ee BDF9A630 		ldrsh	r3, [sp, #166]
 4873 04f2 AB42     		cmp	r3, r5
 4874 04f4 E4DA     		bge	.L352
 4875              	.LVL585:
ARM GAS  /tmp/ccV6ypnB.s 			page 128


 4876              	.L341:
1371:Drivers/lvgl/lvgl/src/draw/sw/lv_draw_sw_rect.c ****     lv_draw_mask_remove_id(mask_rin_id);
 4877              		.loc 1 1371 0 is_stmt 1 discriminator 1
 4878 04f6 15A8     		add	r0, sp, #84
 4879 04f8 FFF7FEFF 		bl	lv_draw_mask_free_param
 4880              	.LVL586:
1372:Drivers/lvgl/lvgl/src/draw/sw/lv_draw_sw_rect.c ****     lv_draw_mask_free_param(&mask_rout_param);
 4881              		.loc 1 1372 0 discriminator 1
 4882 04fc 0D98     		ldr	r0, [sp, #52]
 4883 04fe FFF7FEFF 		bl	lv_draw_mask_remove_id
 4884              	.LVL587:
1373:Drivers/lvgl/lvgl/src/draw/sw/lv_draw_sw_rect.c ****     lv_draw_mask_remove_id(mask_rout_id);
 4885              		.loc 1 1373 0 discriminator 1
 4886 0502 1BA8     		add	r0, sp, #108
 4887 0504 FFF7FEFF 		bl	lv_draw_mask_free_param
 4888              	.LVL588:
1374:Drivers/lvgl/lvgl/src/draw/sw/lv_draw_sw_rect.c ****     lv_mem_buf_release(blend_dsc.mask_buf);
 4889              		.loc 1 1374 0 discriminator 1
 4890 0508 0C98     		ldr	r0, [sp, #48]
 4891 050a FFF7FEFF 		bl	lv_draw_mask_remove_id
 4892              	.LVL589:
1375:Drivers/lvgl/lvgl/src/draw/sw/lv_draw_sw_rect.c **** 
 4893              		.loc 1 1375 0 discriminator 1
 4894 050e 2498     		ldr	r0, [sp, #144]
 4895 0510 FFF7FEFF 		bl	lv_mem_buf_release
 4896              	.LVL590:
 4897 0514 96E5     		b	.L318
 4898              		.cfi_endproc
 4899              	.LFE168:
 4901              		.section	.text.draw_border,"ax",%progbits
 4902              		.align	1
 4903              		.syntax unified
 4904              		.thumb
 4905              		.thumb_func
 4906              		.fpu fpv5-d16
 4908              	draw_border:
 4909              	.LFB163:
 405:Drivers/lvgl/lvgl/src/draw/sw/lv_draw_sw_rect.c ****     if(dsc->border_opa <= LV_OPA_MIN) return;
 4910              		.loc 1 405 0
 4911              		.cfi_startproc
 4912              		@ args = 0, pretend = 0, frame = 8
 4913              		@ frame_needed = 0, uses_anonymous_args = 0
 4914              	.LVL591:
 4915 0000 2DE9F043 		push	{r4, r5, r6, r7, r8, r9, lr}
 4916              	.LCFI29:
 4917              		.cfi_def_cfa_offset 28
 4918              		.cfi_offset 4, -28
 4919              		.cfi_offset 5, -24
 4920              		.cfi_offset 6, -20
 4921              		.cfi_offset 7, -16
 4922              		.cfi_offset 8, -12
 4923              		.cfi_offset 9, -8
 4924              		.cfi_offset 14, -4
 4925 0004 87B0     		sub	sp, sp, #28
 4926              	.LCFI30:
 4927              		.cfi_def_cfa_offset 56
 406:Drivers/lvgl/lvgl/src/draw/sw/lv_draw_sw_rect.c ****     if(dsc->border_width == 0) return;
ARM GAS  /tmp/ccV6ypnB.s 			page 129


 4928              		.loc 1 406 0
 4929 0006 91F82250 		ldrb	r5, [r1, #34]	@ zero_extendqisi2
 4930 000a 022D     		cmp	r5, #2
 4931 000c 5BD9     		bls	.L368
 407:Drivers/lvgl/lvgl/src/draw/sw/lv_draw_sw_rect.c ****     if(dsc->border_side == LV_BORDER_SIDE_NONE) return;
 4932              		.loc 1 407 0
 4933 000e B1F92040 		ldrsh	r4, [r1, #32]
 4934 0012 002C     		cmp	r4, #0
 4935 0014 57D0     		beq	.L368
 408:Drivers/lvgl/lvgl/src/draw/sw/lv_draw_sw_rect.c ****     if(dsc->border_post) return;
 4936              		.loc 1 408 0
 4937 0016 91F82330 		ldrb	r3, [r1, #35]	@ zero_extendqisi2
 4938 001a 13F03E0F 		tst	r3, #62
 4939 001e 52D0     		beq	.L368
 409:Drivers/lvgl/lvgl/src/draw/sw/lv_draw_sw_rect.c **** 
 4940              		.loc 1 409 0
 4941 0020 13F0010F 		tst	r3, #1
 4942 0024 4FD1     		bne	.L368
 4943              	.LVL592:
 4944              	.LBB217:
 4945              	.LBB218:
 125:Drivers/lvgl/lvgl/src/draw/sw/../../misc/lv_area.h **** }
 4946              		.loc 2 125 0
 4947 0026 B2F804C0 		ldrh	ip, [r2, #4]
 4948 002a B2F80080 		ldrh	r8, [r2]
 4949 002e ACEB0803 		sub	r3, ip, r8
 4950 0032 9BB2     		uxth	r3, r3
 4951 0034 0133     		adds	r3, r3, #1
 4952 0036 0FFA83F9 		sxth	r9, r3
 4953              	.LVL593:
 4954              	.LBE218:
 4955              	.LBE217:
 4956              	.LBB219:
 4957              	.LBB220:
 4958              		.loc 2 135 0
 4959 003a D788     		ldrh	r7, [r2, #6]
 4960 003c B2F802E0 		ldrh	lr, [r2, #2]
 4961 0040 A7EB0E06 		sub	r6, r7, lr
 4962 0044 B6B2     		uxth	r6, r6
 4963 0046 0136     		adds	r6, r6, #1
 4964 0048 33B2     		sxth	r3, r6
 4965              	.LVL594:
 4966              	.LBE220:
 4967              	.LBE219:
 413:Drivers/lvgl/lvgl/src/draw/sw/lv_draw_sw_rect.c ****     int32_t short_side = LV_MIN(coords_w, coords_h);
 4968              		.loc 1 413 0
 4969 004a B1F90060 		ldrsh	r6, [r1]
 4970              	.LVL595:
 414:Drivers/lvgl/lvgl/src/draw/sw/lv_draw_sw_rect.c ****     if(rout > short_side >> 1) rout = short_side >> 1;
 4971              		.loc 1 414 0
 4972 004e 4B45     		cmp	r3, r9
 4973 0050 A8BF     		it	ge
 4974 0052 4B46     		movge	r3, r9
 4975              	.LVL596:
 415:Drivers/lvgl/lvgl/src/draw/sw/lv_draw_sw_rect.c **** 
 4976              		.loc 1 415 0
 4977 0054 5B10     		asrs	r3, r3, #1
ARM GAS  /tmp/ccV6ypnB.s 			page 130


 4978              	.LVL597:
 4979 0056 B342     		cmp	r3, r6
 4980              	.LVL598:
 4981 0058 00DB     		blt	.L370
 413:Drivers/lvgl/lvgl/src/draw/sw/lv_draw_sw_rect.c ****     int32_t short_side = LV_MIN(coords_w, coords_h);
 4982              		.loc 1 413 0
 4983 005a 3346     		mov	r3, r6
 4984              	.L370:
 4985              	.LVL599:
 420:Drivers/lvgl/lvgl/src/draw/sw/lv_draw_sw_rect.c ****     area_inner.x2 -= ((dsc->border_side & LV_BORDER_SIDE_RIGHT) ? dsc->border_width : - (dsc->borde
 4986              		.loc 1 420 0
 4987 005c 91F82360 		ldrb	r6, [r1, #35]	@ zero_extendqisi2
 4988 0060 C6F34406 		ubfx	r6, r6, #1, #5
 4989 0064 16F0040F 		tst	r6, #4
 4990 0068 30D0     		beq	.L371
 420:Drivers/lvgl/lvgl/src/draw/sw/lv_draw_sw_rect.c ****     area_inner.x2 -= ((dsc->border_side & LV_BORDER_SIDE_RIGHT) ? dsc->border_width : - (dsc->borde
 4991              		.loc 1 420 0 is_stmt 0 discriminator 1
 4992 006a 1FFA84F9 		uxth	r9, r4
 4993              	.LVL600:
 4994              	.L372:
 420:Drivers/lvgl/lvgl/src/draw/sw/lv_draw_sw_rect.c ****     area_inner.x2 -= ((dsc->border_side & LV_BORDER_SIDE_RIGHT) ? dsc->border_width : - (dsc->borde
 4995              		.loc 1 420 0 discriminator 4
 4996 006e C844     		add	r8, r8, r9
 4997              	.LVL601:
 4998 0070 ADF81080 		strh	r8, [sp, #16]	@ movhi
 4999              	.LVL602:
 421:Drivers/lvgl/lvgl/src/draw/sw/lv_draw_sw_rect.c ****     area_inner.y1 += ((dsc->border_side & LV_BORDER_SIDE_TOP) ? dsc->border_width : - (dsc->border_
 5000              		.loc 1 421 0 is_stmt 1 discriminator 4
 5001 0074 16F0080F 		tst	r6, #8
 5002 0078 31D0     		beq	.L373
 421:Drivers/lvgl/lvgl/src/draw/sw/lv_draw_sw_rect.c ****     area_inner.y1 += ((dsc->border_side & LV_BORDER_SIDE_TOP) ? dsc->border_width : - (dsc->border_
 5003              		.loc 1 421 0 is_stmt 0 discriminator 1
 5004 007a 1FFA84F8 		uxth	r8, r4
 5005              	.L374:
 421:Drivers/lvgl/lvgl/src/draw/sw/lv_draw_sw_rect.c ****     area_inner.y1 += ((dsc->border_side & LV_BORDER_SIDE_TOP) ? dsc->border_width : - (dsc->border_
 5006              		.loc 1 421 0 discriminator 4
 5007 007e ACEB080C 		sub	ip, ip, r8
 5008 0082 ADF814C0 		strh	ip, [sp, #20]	@ movhi
 422:Drivers/lvgl/lvgl/src/draw/sw/lv_draw_sw_rect.c ****     area_inner.y2 -= ((dsc->border_side & LV_BORDER_SIDE_BOTTOM) ? dsc->border_width : - (dsc->bord
 5009              		.loc 1 422 0 is_stmt 1 discriminator 4
 5010 0086 16F0020F 		tst	r6, #2
 5011 008a 31D0     		beq	.L375
 422:Drivers/lvgl/lvgl/src/draw/sw/lv_draw_sw_rect.c ****     area_inner.y2 -= ((dsc->border_side & LV_BORDER_SIDE_BOTTOM) ? dsc->border_width : - (dsc->bord
 5012              		.loc 1 422 0 is_stmt 0 discriminator 1
 5013 008c 1FFA84FC 		uxth	ip, r4
 5014              	.L376:
 422:Drivers/lvgl/lvgl/src/draw/sw/lv_draw_sw_rect.c ****     area_inner.y2 -= ((dsc->border_side & LV_BORDER_SIDE_BOTTOM) ? dsc->border_width : - (dsc->bord
 5015              		.loc 1 422 0 discriminator 4
 5016 0090 E644     		add	lr, lr, ip
 5017              	.LVL603:
 5018 0092 ADF812E0 		strh	lr, [sp, #18]	@ movhi
 423:Drivers/lvgl/lvgl/src/draw/sw/lv_draw_sw_rect.c **** 
 5019              		.loc 1 423 0 is_stmt 1 discriminator 4
 5020 0096 16F0010F 		tst	r6, #1
 5021 009a 32D0     		beq	.L377
 423:Drivers/lvgl/lvgl/src/draw/sw/lv_draw_sw_rect.c **** 
 5022              		.loc 1 423 0 is_stmt 0 discriminator 1
ARM GAS  /tmp/ccV6ypnB.s 			page 131


 5023 009c A6B2     		uxth	r6, r4
 5024              	.L378:
 423:Drivers/lvgl/lvgl/src/draw/sw/lv_draw_sw_rect.c **** 
 5025              		.loc 1 423 0 discriminator 4
 5026 009e BF1B     		subs	r7, r7, r6
 5027 00a0 ADF81670 		strh	r7, [sp, #22]	@ movhi
 425:Drivers/lvgl/lvgl/src/draw/sw/lv_draw_sw_rect.c ****     if(rin < 0) rin = 0;
 5028              		.loc 1 425 0 is_stmt 1 discriminator 4
 5029 00a4 A6B2     		uxth	r6, r4
 5030 00a6 9E1B     		subs	r6, r3, r6
 5031 00a8 36B2     		sxth	r6, r6
 5032              	.LVL604:
 426:Drivers/lvgl/lvgl/src/draw/sw/lv_draw_sw_rect.c **** 
 5033              		.loc 1 426 0 discriminator 4
 5034 00aa 002E     		cmp	r6, #0
 5035 00ac 2FDB     		blt	.L383
 5036              	.LVL605:
 5037              	.L379:
 5038 00ae 1746     		mov	r7, r2
 5039              	.LVL606:
 428:Drivers/lvgl/lvgl/src/draw/sw/lv_draw_sw_rect.c **** 
 5040              		.loc 1 428 0
 5041 00b0 8A78     		ldrb	r2, [r1, #2]	@ zero_extendqisi2
 5042              	.LVL607:
 5043 00b2 0392     		str	r2, [sp, #12]
 5044 00b4 0295     		str	r5, [sp, #8]
 5045 00b6 CA8B     		ldrh	r2, [r1, #30]
 5046 00b8 ADF80420 		strh	r2, [sp, #4]	@ movhi
 5047 00bc 0096     		str	r6, [sp]
 5048 00be 04AA     		add	r2, sp, #16
 5049 00c0 3946     		mov	r1, r7
 5050              	.LVL608:
 5051 00c2 FFF7FEFF 		bl	draw_border_generic
 5052              	.LVL609:
 5053              	.L368:
 430:Drivers/lvgl/lvgl/src/draw/sw/lv_draw_sw_rect.c **** 
 5054              		.loc 1 430 0
 5055 00c6 07B0     		add	sp, sp, #28
 5056              	.LCFI31:
 5057              		.cfi_remember_state
 5058              		.cfi_def_cfa_offset 28
 5059              		@ sp needed
 5060 00c8 BDE8F083 		pop	{r4, r5, r6, r7, r8, r9, pc}
 5061              	.LVL610:
 5062              	.L371:
 5063              	.LCFI32:
 5064              		.cfi_restore_state
 420:Drivers/lvgl/lvgl/src/draw/sw/lv_draw_sw_rect.c ****     area_inner.x2 -= ((dsc->border_side & LV_BORDER_SIDE_RIGHT) ? dsc->border_width : - (dsc->borde
 5065              		.loc 1 420 0 discriminator 2
 5066 00cc 13FA84F9 		uxtah	r9, r3, r4
 5067              	.LVL611:
 5068 00d0 1FFA89F9 		uxth	r9, r9
 5069 00d4 C9F10009 		rsb	r9, r9, #0
 5070 00d8 1FFA89F9 		uxth	r9, r9
 5071 00dc C7E7     		b	.L372
 5072              	.LVL612:
 5073              	.L373:
ARM GAS  /tmp/ccV6ypnB.s 			page 132


 421:Drivers/lvgl/lvgl/src/draw/sw/lv_draw_sw_rect.c ****     area_inner.y1 += ((dsc->border_side & LV_BORDER_SIDE_TOP) ? dsc->border_width : - (dsc->border_
 5074              		.loc 1 421 0 discriminator 2
 5075 00de 13FA84F8 		uxtah	r8, r3, r4
 5076 00e2 1FFA88F8 		uxth	r8, r8
 5077 00e6 C8F10008 		rsb	r8, r8, #0
 5078 00ea 1FFA88F8 		uxth	r8, r8
 5079 00ee C6E7     		b	.L374
 5080              	.L375:
 422:Drivers/lvgl/lvgl/src/draw/sw/lv_draw_sw_rect.c ****     area_inner.y2 -= ((dsc->border_side & LV_BORDER_SIDE_BOTTOM) ? dsc->border_width : - (dsc->bord
 5081              		.loc 1 422 0 discriminator 2
 5082 00f0 13FA84FC 		uxtah	ip, r3, r4
 5083 00f4 1FFA8CFC 		uxth	ip, ip
 5084 00f8 CCF1000C 		rsb	ip, ip, #0
 5085 00fc 1FFA8CFC 		uxth	ip, ip
 5086 0100 C6E7     		b	.L376
 5087              	.LVL613:
 5088              	.L377:
 423:Drivers/lvgl/lvgl/src/draw/sw/lv_draw_sw_rect.c **** 
 5089              		.loc 1 423 0 discriminator 2
 5090 0102 13FA84F6 		uxtah	r6, r3, r4
 5091 0106 B6B2     		uxth	r6, r6
 5092 0108 7642     		negs	r6, r6
 5093 010a B6B2     		uxth	r6, r6
 5094 010c C7E7     		b	.L378
 5095              	.LVL614:
 5096              	.L383:
 426:Drivers/lvgl/lvgl/src/draw/sw/lv_draw_sw_rect.c **** 
 5097              		.loc 1 426 0
 5098 010e 0026     		movs	r6, #0
 5099              	.LVL615:
 5100 0110 CDE7     		b	.L379
 5101              		.cfi_endproc
 5102              	.LFE163:
 5104              		.section	.text.draw_outline,"ax",%progbits
 5105              		.align	1
 5106              		.syntax unified
 5107              		.thumb
 5108              		.thumb_func
 5109              		.fpu fpv5-d16
 5111              	draw_outline:
 5112              	.LFB167:
1115:Drivers/lvgl/lvgl/src/draw/sw/lv_draw_sw_rect.c ****     if(dsc->outline_opa <= LV_OPA_MIN) return;
 5113              		.loc 1 1115 0
 5114              		.cfi_startproc
 5115              		@ args = 0, pretend = 0, frame = 16
 5116              		@ frame_needed = 0, uses_anonymous_args = 0
 5117              	.LVL616:
 5118 0000 2DE9F041 		push	{r4, r5, r6, r7, r8, lr}
 5119              	.LCFI33:
 5120              		.cfi_def_cfa_offset 24
 5121              		.cfi_offset 4, -24
 5122              		.cfi_offset 5, -20
 5123              		.cfi_offset 6, -16
 5124              		.cfi_offset 7, -12
 5125              		.cfi_offset 8, -8
 5126              		.cfi_offset 14, -4
 5127 0004 88B0     		sub	sp, sp, #32
ARM GAS  /tmp/ccV6ypnB.s 			page 133


 5128              	.LCFI34:
 5129              		.cfi_def_cfa_offset 56
1116:Drivers/lvgl/lvgl/src/draw/sw/lv_draw_sw_rect.c ****     if(dsc->outline_width == 0) return;
 5130              		.loc 1 1116 0
 5131 0006 91F82A50 		ldrb	r5, [r1, #42]	@ zero_extendqisi2
 5132 000a 022D     		cmp	r5, #2
 5133 000c 4FD9     		bls	.L384
1117:Drivers/lvgl/lvgl/src/draw/sw/lv_draw_sw_rect.c **** 
 5134              		.loc 1 1117 0
 5135 000e B1F92660 		ldrsh	r6, [r1, #38]
 5136 0012 002E     		cmp	r6, #0
 5137 0014 4BD0     		beq	.L384
 5138              	.LVL617:
 5139              	.LBB221:
 5140              	.LBB222:
 112:Drivers/lvgl/lvgl/src/draw/sw/../../misc/lv_area.h ****     dest->y1 = src->y1;
 5141              		.loc 2 112 0
 5142 0016 B2F900E0 		ldrsh	lr, [r2]
 113:Drivers/lvgl/lvgl/src/draw/sw/../../misc/lv_area.h ****     dest->x2 = src->x2;
 5143              		.loc 2 113 0
 5144 001a B2F90240 		ldrsh	r4, [r2, #2]
 114:Drivers/lvgl/lvgl/src/draw/sw/../../misc/lv_area.h ****     dest->y2 = src->y2;
 5145              		.loc 2 114 0
 5146 001e B2F90470 		ldrsh	r7, [r2, #4]
 115:Drivers/lvgl/lvgl/src/draw/sw/../../misc/lv_area.h **** }
 5147              		.loc 2 115 0
 5148 0022 B2F90680 		ldrsh	r8, [r2, #6]
 5149              	.LVL618:
 5150              	.LBE222:
 5151              	.LBE221:
1128:Drivers/lvgl/lvgl/src/draw/sw/lv_draw_sw_rect.c ****     area_inner.x1 -= pad;
 5152              		.loc 1 1128 0
 5153 0026 0B8D     		ldrh	r3, [r1, #40]
 5154 0028 013B     		subs	r3, r3, #1
 5155 002a 9BB2     		uxth	r3, r3
 5156              	.LVL619:
1129:Drivers/lvgl/lvgl/src/draw/sw/lv_draw_sw_rect.c ****     area_inner.y1 -= pad;
 5157              		.loc 1 1129 0
 5158 002c AEEB0302 		sub	r2, lr, r3
 5159              	.LVL620:
 5160 0030 1FFA82FE 		uxth	lr, r2
 5161 0034 ADF818E0 		strh	lr, [sp, #24]	@ movhi
1130:Drivers/lvgl/lvgl/src/draw/sw/lv_draw_sw_rect.c ****     area_inner.x2 += pad;
 5162              		.loc 1 1130 0
 5163 0038 E41A     		subs	r4, r4, r3
 5164 003a 1FFA84FC 		uxth	ip, r4
 5165 003e ADF81AC0 		strh	ip, [sp, #26]	@ movhi
1131:Drivers/lvgl/lvgl/src/draw/sw/lv_draw_sw_rect.c ****     area_inner.y2 += pad;
 5166              		.loc 1 1131 0
 5167 0042 DA19     		adds	r2, r3, r7
 5168 0044 92B2     		uxth	r2, r2
 5169 0046 ADF81C20 		strh	r2, [sp, #28]	@ movhi
1132:Drivers/lvgl/lvgl/src/draw/sw/lv_draw_sw_rect.c **** 
 5170              		.loc 1 1132 0
 5171 004a 4344     		add	r3, r3, r8
 5172              	.LVL621:
 5173 004c 9CB2     		uxth	r4, r3
ARM GAS  /tmp/ccV6ypnB.s 			page 134


 5174 004e ADF81E40 		strh	r4, [sp, #30]	@ movhi
1137:Drivers/lvgl/lvgl/src/draw/sw/lv_draw_sw_rect.c ****     area_outer.x2 += dsc->outline_width;
 5175              		.loc 1 1137 0
 5176 0052 B6B2     		uxth	r6, r6
 5177 0054 AEEB0603 		sub	r3, lr, r6
 5178 0058 ADF81030 		strh	r3, [sp, #16]	@ movhi
1138:Drivers/lvgl/lvgl/src/draw/sw/lv_draw_sw_rect.c ****     area_outer.y1 -= dsc->outline_width;
 5179              		.loc 1 1138 0
 5180 005c 9319     		adds	r3, r2, r6
 5181 005e ADF81430 		strh	r3, [sp, #20]	@ movhi
1139:Drivers/lvgl/lvgl/src/draw/sw/lv_draw_sw_rect.c ****     area_outer.y2 += dsc->outline_width;
 5182              		.loc 1 1139 0
 5183 0062 ACEB0603 		sub	r3, ip, r6
 5184 0066 ADF81230 		strh	r3, [sp, #18]	@ movhi
1140:Drivers/lvgl/lvgl/src/draw/sw/lv_draw_sw_rect.c **** 
 5185              		.loc 1 1140 0
 5186 006a A319     		adds	r3, r4, r6
 5187 006c ADF81630 		strh	r3, [sp, #22]	@ movhi
 5188              	.LVL622:
 5189              	.LBB223:
 5190              	.LBB224:
 125:Drivers/lvgl/lvgl/src/draw/sw/../../misc/lv_area.h **** }
 5191              		.loc 2 125 0
 5192 0070 A2EB0E02 		sub	r2, r2, lr
 5193 0074 92B2     		uxth	r2, r2
 5194 0076 0132     		adds	r2, r2, #1
 5195 0078 12B2     		sxth	r2, r2
 5196              	.LVL623:
 5197              	.LBE224:
 5198              	.LBE223:
 5199              	.LBB225:
 5200              	.LBB226:
 5201              		.loc 2 135 0
 5202 007a A4EB0C04 		sub	r4, r4, ip
 5203 007e A4B2     		uxth	r4, r4
 5204 0080 0134     		adds	r4, r4, #1
 5205 0082 24B2     		sxth	r4, r4
 5206              	.LVL624:
 5207              	.LBE226:
 5208              	.LBE225:
1145:Drivers/lvgl/lvgl/src/draw/sw/lv_draw_sw_rect.c ****     int32_t short_side = LV_MIN(inner_w, inner_h);
 5209              		.loc 1 1145 0
 5210 0084 B1F90030 		ldrsh	r3, [r1]
 5211              	.LVL625:
1146:Drivers/lvgl/lvgl/src/draw/sw/lv_draw_sw_rect.c ****     if(rin > short_side >> 1) rin = short_side >> 1;
 5212              		.loc 1 1146 0
 5213 0088 A242     		cmp	r2, r4
 5214 008a A8BF     		it	ge
 5215 008c 2246     		movge	r2, r4
 5216              	.LVL626:
1147:Drivers/lvgl/lvgl/src/draw/sw/lv_draw_sw_rect.c **** 
 5217              		.loc 1 1147 0
 5218 008e 5210     		asrs	r2, r2, #1
 5219              	.LVL627:
 5220 0090 9A42     		cmp	r2, r3
 5221              	.LVL628:
 5222 0092 0FDA     		bge	.L389
ARM GAS  /tmp/ccV6ypnB.s 			page 135


 5223              	.L386:
 5224              	.LVL629:
1149:Drivers/lvgl/lvgl/src/draw/sw/lv_draw_sw_rect.c **** 
 5225              		.loc 1 1149 0
 5226 0094 B318     		adds	r3, r6, r2
 5227              	.LVL630:
1151:Drivers/lvgl/lvgl/src/draw/sw/lv_draw_sw_rect.c ****                         dsc->blend_mode);
 5228              		.loc 1 1151 0
 5229 0096 8C78     		ldrb	r4, [r1, #2]	@ zero_extendqisi2
 5230              	.LVL631:
 5231 0098 0394     		str	r4, [sp, #12]
 5232              	.LVL632:
 5233 009a 0295     		str	r5, [sp, #8]
 5234 009c 898C     		ldrh	r1, [r1, #36]
 5235              	.LVL633:
 5236 009e ADF80410 		strh	r1, [sp, #4]	@ movhi
 5237 00a2 0092     		str	r2, [sp]
 5238 00a4 1BB2     		sxth	r3, r3
 5239 00a6 06AA     		add	r2, sp, #24
 5240              	.LVL634:
 5241 00a8 04A9     		add	r1, sp, #16
 5242 00aa FFF7FEFF 		bl	draw_border_generic
 5243              	.LVL635:
 5244              	.L384:
1153:Drivers/lvgl/lvgl/src/draw/sw/lv_draw_sw_rect.c **** 
 5245              		.loc 1 1153 0
 5246 00ae 08B0     		add	sp, sp, #32
 5247              	.LCFI35:
 5248              		.cfi_remember_state
 5249              		.cfi_def_cfa_offset 24
 5250              		@ sp needed
 5251 00b0 BDE8F081 		pop	{r4, r5, r6, r7, r8, pc}
 5252              	.LVL636:
 5253              	.L389:
 5254              	.LCFI36:
 5255              		.cfi_restore_state
1145:Drivers/lvgl/lvgl/src/draw/sw/lv_draw_sw_rect.c ****     int32_t short_side = LV_MIN(inner_w, inner_h);
 5256              		.loc 1 1145 0
 5257 00b4 1A46     		mov	r2, r3
 5258 00b6 EDE7     		b	.L386
 5259              		.cfi_endproc
 5260              	.LFE167:
 5262              		.section	.text.lv_draw_sw_rect,"ax",%progbits
 5263              		.align	1
 5264              		.global	lv_draw_sw_rect
 5265              		.syntax unified
 5266              		.thumb
 5267              		.thumb_func
 5268              		.fpu fpv5-d16
 5270              	lv_draw_sw_rect:
 5271              	.LFB159:
  70:Drivers/lvgl/lvgl/src/draw/sw/lv_draw_sw_rect.c **** #if LV_DRAW_COMPLEX
 5272              		.loc 1 70 0
 5273              		.cfi_startproc
 5274              		@ args = 0, pretend = 0, frame = 0
 5275              		@ frame_needed = 0, uses_anonymous_args = 0
 5276              	.LVL637:
ARM GAS  /tmp/ccV6ypnB.s 			page 136


 5277 0000 70B5     		push	{r4, r5, r6, lr}
 5278              	.LCFI37:
 5279              		.cfi_def_cfa_offset 16
 5280              		.cfi_offset 4, -16
 5281              		.cfi_offset 5, -12
 5282              		.cfi_offset 6, -8
 5283              		.cfi_offset 14, -4
 5284 0002 0446     		mov	r4, r0
 5285 0004 0D46     		mov	r5, r1
 5286 0006 1646     		mov	r6, r2
  72:Drivers/lvgl/lvgl/src/draw/sw/lv_draw_sw_rect.c **** #endif
 5287              		.loc 1 72 0
 5288 0008 FFF7FEFF 		bl	draw_shadow
 5289              	.LVL638:
  75:Drivers/lvgl/lvgl/src/draw/sw/lv_draw_sw_rect.c ****     draw_bg_img(draw_ctx, dsc, coords);
 5290              		.loc 1 75 0
 5291 000c 3246     		mov	r2, r6
 5292 000e 2946     		mov	r1, r5
 5293 0010 2046     		mov	r0, r4
 5294 0012 FFF7FEFF 		bl	draw_bg
 5295              	.LVL639:
  76:Drivers/lvgl/lvgl/src/draw/sw/lv_draw_sw_rect.c **** 
 5296              		.loc 1 76 0
 5297 0016 3246     		mov	r2, r6
 5298 0018 2946     		mov	r1, r5
 5299 001a 2046     		mov	r0, r4
 5300 001c FFF7FEFF 		bl	draw_bg_img
 5301              	.LVL640:
  78:Drivers/lvgl/lvgl/src/draw/sw/lv_draw_sw_rect.c **** 
 5302              		.loc 1 78 0
 5303 0020 3246     		mov	r2, r6
 5304 0022 2946     		mov	r1, r5
 5305 0024 2046     		mov	r0, r4
 5306 0026 FFF7FEFF 		bl	draw_border
 5307              	.LVL641:
  80:Drivers/lvgl/lvgl/src/draw/sw/lv_draw_sw_rect.c **** 
 5308              		.loc 1 80 0
 5309 002a 3246     		mov	r2, r6
 5310 002c 2946     		mov	r1, r5
 5311 002e 2046     		mov	r0, r4
 5312 0030 FFF7FEFF 		bl	draw_outline
 5313              	.LVL642:
  83:Drivers/lvgl/lvgl/src/draw/sw/lv_draw_sw_rect.c **** 
 5314              		.loc 1 83 0
 5315 0034 70BD     		pop	{r4, r5, r6, pc}
 5316              		.cfi_endproc
 5317              	.LFE159:
 5319              		.text
 5320              	.Letext0:
 5321              		.file 3 "/opt/gcc-arm-none-eabi-7-2017-q4-major/arm-none-eabi/include/machine/_default_types.h"
 5322              		.file 4 "/opt/gcc-arm-none-eabi-7-2017-q4-major/arm-none-eabi/include/sys/_stdint.h"
 5323              		.file 5 "Drivers/lvgl/lvgl/src/draw/sw/../../misc/lv_types.h"
 5324              		.file 6 "/opt/gcc-arm-none-eabi-7-2017-q4-major/lib/gcc/arm-none-eabi/7.2.1/include/stddef.h"
 5325              		.file 7 "/opt/gcc-arm-none-eabi-7-2017-q4-major/arm-none-eabi/include/sys/lock.h"
 5326              		.file 8 "/opt/gcc-arm-none-eabi-7-2017-q4-major/arm-none-eabi/include/sys/_types.h"
 5327              		.file 9 "/opt/gcc-arm-none-eabi-7-2017-q4-major/arm-none-eabi/include/sys/reent.h"
 5328              		.file 10 "Drivers/lvgl/lvgl/src/draw/sw/../../misc/lv_color.h"
ARM GAS  /tmp/ccV6ypnB.s 			page 137


 5329              		.file 11 "Drivers/lvgl/lvgl/src/draw/sw/../../misc/../font/lv_font.h"
 5330              		.file 12 "Drivers/lvgl/lvgl/src/draw/sw/../../misc/lv_txt.h"
 5331              		.file 13 "Drivers/lvgl/lvgl/src/draw/sw/../../misc/lv_bidi.h"
 5332              		.file 14 "Drivers/lvgl/lvgl/src/draw/sw/../../misc/lv_style.h"
 5333              		.file 15 "Drivers/lvgl/lvgl/src/draw/sw/../lv_draw_mask.h"
 5334              		.file 16 "Drivers/lvgl/lvgl/src/draw/sw/lv_draw_sw_blend.h"
 5335              		.file 17 "Drivers/lvgl/lvgl/src/draw/sw/../lv_img_buf.h"
 5336              		.file 18 "Drivers/lvgl/lvgl/src/draw/sw/../lv_img_decoder.h"
 5337              		.file 19 "Drivers/lvgl/lvgl/src/draw/sw/../../core/lv_obj.h"
 5338              		.file 20 "Drivers/lvgl/lvgl/src/draw/sw/../sw/lv_draw_sw_gradient.h"
 5339              		.file 21 "Drivers/lvgl/lvgl/src/draw/sw/../lv_draw_rect.h"
 5340              		.file 22 "Drivers/lvgl/lvgl/src/draw/sw/../lv_draw_label.h"
 5341              		.file 23 "Drivers/lvgl/lvgl/src/draw/sw/../lv_draw_img.h"
 5342              		.file 24 "Drivers/lvgl/lvgl/src/draw/sw/../lv_draw_line.h"
 5343              		.file 25 "Drivers/lvgl/lvgl/src/draw/sw/../lv_draw_arc.h"
 5344              		.file 26 "Drivers/lvgl/lvgl/src/draw/sw/../lv_draw_layer.h"
 5345              		.file 27 "Drivers/lvgl/lvgl/src/draw/sw/../lv_draw.h"
 5346              		.file 28 "Drivers/lvgl/lvgl/src/draw/sw/../../core/lv_group.h"
 5347              		.file 29 "Drivers/lvgl/lvgl/src/draw/sw/../../hal/../misc/lv_ll.h"
 5348              		.file 30 "Drivers/lvgl/lvgl/src/draw/sw/../../core/lv_obj_scroll.h"
 5349              		.file 31 "Drivers/lvgl/lvgl/src/draw/sw/../../core/lv_obj_style.h"
 5350              		.file 32 "Drivers/lvgl/lvgl/src/draw/sw/../../core/lv_obj_class.h"
 5351              		.file 33 "Drivers/lvgl/lvgl/src/draw/sw/../../core/lv_event.h"
 5352              		.file 34 "Drivers/lvgl/lvgl/src/draw/sw/../../misc/lv_mem.h"
ARM GAS  /tmp/ccV6ypnB.s 			page 138


DEFINED SYMBOLS
                            *ABS*:0000000000000000 lv_draw_sw_rect.c
     /tmp/ccV6ypnB.s:17     .text.draw_border_simple:0000000000000000 $t
     /tmp/ccV6ypnB.s:23     .text.draw_border_simple:0000000000000000 draw_border_simple
     /tmp/ccV6ypnB.s:201    .text.shadow_blur_corner:0000000000000000 $t
     /tmp/ccV6ypnB.s:207    .text.shadow_blur_corner:0000000000000000 shadow_blur_corner
     /tmp/ccV6ypnB.s:520    .text.shadow_draw_corner_buf:0000000000000000 $t
     /tmp/ccV6ypnB.s:526    .text.shadow_draw_corner_buf:0000000000000000 shadow_draw_corner_buf
     /tmp/ccV6ypnB.s:856    .text.draw_shadow:0000000000000000 $t
     /tmp/ccV6ypnB.s:862    .text.draw_shadow:0000000000000000 draw_shadow
     /tmp/ccV6ypnB.s:2971   .text.draw_bg:0000000000000000 $t
     /tmp/ccV6ypnB.s:2977   .text.draw_bg:0000000000000000 draw_bg
     /tmp/ccV6ypnB.s:3632   .text.draw_bg_img:0000000000000000 $t
     /tmp/ccV6ypnB.s:3638   .text.draw_bg_img:0000000000000000 draw_bg_img
     /tmp/ccV6ypnB.s:4026   .text.lv_draw_sw_bg:0000000000000000 $t
     /tmp/ccV6ypnB.s:4033   .text.lv_draw_sw_bg:0000000000000000 lv_draw_sw_bg
     /tmp/ccV6ypnB.s:4065   .text.draw_border_generic:0000000000000000 $t
     /tmp/ccV6ypnB.s:4072   .text.draw_border_generic:0000000000000000 draw_border_generic
     /tmp/ccV6ypnB.s:4902   .text.draw_border:0000000000000000 $t
     /tmp/ccV6ypnB.s:4908   .text.draw_border:0000000000000000 draw_border
     /tmp/ccV6ypnB.s:5105   .text.draw_outline:0000000000000000 $t
     /tmp/ccV6ypnB.s:5111   .text.draw_outline:0000000000000000 draw_outline
     /tmp/ccV6ypnB.s:5263   .text.lv_draw_sw_rect:0000000000000000 $t
     /tmp/ccV6ypnB.s:5270   .text.lv_draw_sw_rect:0000000000000000 lv_draw_sw_rect

UNDEFINED SYMBOLS
lv_memset_00
lv_draw_sw_blend
lv_mem_buf_get
lv_memcpy
lv_mem_buf_release
lv_draw_mask_radius_init
lv_memset_ff
lv_draw_mask_free_param
_lv_area_intersect
lv_area_increase
lv_draw_mask_is_any
lv_draw_mask_add
_lv_area_is_in
_lv_area_is_out
lv_draw_mask_apply
lv_memset
lv_draw_mask_remove_id
lv_gradient_get
lv_gradient_cleanup
lv_img_src_get_type
lv_img_decoder_get_info
lv_txt_get_size
lv_draw_label_dsc_init
lv_draw_label
lv_draw_img_dsc_init
lv_draw_img
