ARM GAS  /tmp/cc9XNXn7.s 			page 1


   1              		.cpu cortex-m7
   2              		.eabi_attribute 28, 1
   3              		.eabi_attribute 20, 1
   4              		.eabi_attribute 21, 1
   5              		.eabi_attribute 23, 3
   6              		.eabi_attribute 24, 1
   7              		.eabi_attribute 25, 1
   8              		.eabi_attribute 26, 1
   9              		.eabi_attribute 30, 1
  10              		.eabi_attribute 34, 1
  11              		.eabi_attribute 18, 4
  12              		.file	"lv_demo_stress.c"
  13              		.text
  14              	.Ltext0:
  15              		.cfi_sections	.debug_frame
  16              		.section	.text.auto_del,"ax",%progbits
  17              		.align	1
  18              		.syntax unified
  19              		.thumb
  20              		.thumb_func
  21              		.fpu fpv5-d16
  23              	auto_del:
  24              	.LFB204:
  25              		.file 1 "Drivers/lvgl/lvgl/demos/stress/lv_demo_stress.c"
   1:Drivers/lvgl/lvgl/demos/stress/lv_demo_stress.c **** /**
   2:Drivers/lvgl/lvgl/demos/stress/lv_demo_stress.c ****  * @file lv_demo_stress.c
   3:Drivers/lvgl/lvgl/demos/stress/lv_demo_stress.c ****  *
   4:Drivers/lvgl/lvgl/demos/stress/lv_demo_stress.c ****  */
   5:Drivers/lvgl/lvgl/demos/stress/lv_demo_stress.c **** 
   6:Drivers/lvgl/lvgl/demos/stress/lv_demo_stress.c **** /*********************
   7:Drivers/lvgl/lvgl/demos/stress/lv_demo_stress.c ****  *      INCLUDES
   8:Drivers/lvgl/lvgl/demos/stress/lv_demo_stress.c ****  *********************/
   9:Drivers/lvgl/lvgl/demos/stress/lv_demo_stress.c **** #include "lv_demo_stress.h"
  10:Drivers/lvgl/lvgl/demos/stress/lv_demo_stress.c **** 
  11:Drivers/lvgl/lvgl/demos/stress/lv_demo_stress.c **** #if LV_USE_DEMO_STRESS
  12:Drivers/lvgl/lvgl/demos/stress/lv_demo_stress.c **** /*********************
  13:Drivers/lvgl/lvgl/demos/stress/lv_demo_stress.c ****  *      DEFINES
  14:Drivers/lvgl/lvgl/demos/stress/lv_demo_stress.c ****  *********************/
  15:Drivers/lvgl/lvgl/demos/stress/lv_demo_stress.c **** 
  16:Drivers/lvgl/lvgl/demos/stress/lv_demo_stress.c **** /**********************
  17:Drivers/lvgl/lvgl/demos/stress/lv_demo_stress.c ****  *      TYPEDEFS
  18:Drivers/lvgl/lvgl/demos/stress/lv_demo_stress.c ****  **********************/
  19:Drivers/lvgl/lvgl/demos/stress/lv_demo_stress.c **** 
  20:Drivers/lvgl/lvgl/demos/stress/lv_demo_stress.c **** /**********************
  21:Drivers/lvgl/lvgl/demos/stress/lv_demo_stress.c ****  *  STATIC PROTOTYPES
  22:Drivers/lvgl/lvgl/demos/stress/lv_demo_stress.c ****  **********************/
  23:Drivers/lvgl/lvgl/demos/stress/lv_demo_stress.c **** static void auto_del(lv_obj_t * obj, uint32_t delay);
  24:Drivers/lvgl/lvgl/demos/stress/lv_demo_stress.c **** static void msgbox_del(lv_timer_t * tmr);
  25:Drivers/lvgl/lvgl/demos/stress/lv_demo_stress.c **** static void set_y_anim(void * obj, int32_t v);
  26:Drivers/lvgl/lvgl/demos/stress/lv_demo_stress.c **** static void set_width_anim(void * obj, int32_t v);
  27:Drivers/lvgl/lvgl/demos/stress/lv_demo_stress.c **** static void arc_set_end_angle_anim(void * obj, int32_t v);
  28:Drivers/lvgl/lvgl/demos/stress/lv_demo_stress.c **** static void obj_test_task_cb(lv_timer_t * tmr);
  29:Drivers/lvgl/lvgl/demos/stress/lv_demo_stress.c **** 
  30:Drivers/lvgl/lvgl/demos/stress/lv_demo_stress.c **** /**********************
  31:Drivers/lvgl/lvgl/demos/stress/lv_demo_stress.c ****  *  STATIC VARIABLES
  32:Drivers/lvgl/lvgl/demos/stress/lv_demo_stress.c ****  **********************/
  33:Drivers/lvgl/lvgl/demos/stress/lv_demo_stress.c **** static lv_obj_t * main_page;
ARM GAS  /tmp/cc9XNXn7.s 			page 2


  34:Drivers/lvgl/lvgl/demos/stress/lv_demo_stress.c **** static lv_obj_t * ta;
  35:Drivers/lvgl/lvgl/demos/stress/lv_demo_stress.c **** static const char * mbox_btns[] = {"Ok", "Cancel", ""};
  36:Drivers/lvgl/lvgl/demos/stress/lv_demo_stress.c **** static uint32_t mem_free_start = 0;
  37:Drivers/lvgl/lvgl/demos/stress/lv_demo_stress.c **** /**********************
  38:Drivers/lvgl/lvgl/demos/stress/lv_demo_stress.c ****  *      MACROS
  39:Drivers/lvgl/lvgl/demos/stress/lv_demo_stress.c ****  **********************/
  40:Drivers/lvgl/lvgl/demos/stress/lv_demo_stress.c **** 
  41:Drivers/lvgl/lvgl/demos/stress/lv_demo_stress.c **** /**********************
  42:Drivers/lvgl/lvgl/demos/stress/lv_demo_stress.c ****  *   GLOBAL FUNCTIONS
  43:Drivers/lvgl/lvgl/demos/stress/lv_demo_stress.c ****  **********************/
  44:Drivers/lvgl/lvgl/demos/stress/lv_demo_stress.c **** 
  45:Drivers/lvgl/lvgl/demos/stress/lv_demo_stress.c **** void lv_demo_stress(void)
  46:Drivers/lvgl/lvgl/demos/stress/lv_demo_stress.c **** {
  47:Drivers/lvgl/lvgl/demos/stress/lv_demo_stress.c ****     LV_LOG_USER("Starting stress test. (< 100 bytes permanent memory leak is normal due to fragment
  48:Drivers/lvgl/lvgl/demos/stress/lv_demo_stress.c ****     lv_timer_create(obj_test_task_cb, LV_DEMO_STRESS_TIME_STEP, NULL);
  49:Drivers/lvgl/lvgl/demos/stress/lv_demo_stress.c **** }
  50:Drivers/lvgl/lvgl/demos/stress/lv_demo_stress.c **** 
  51:Drivers/lvgl/lvgl/demos/stress/lv_demo_stress.c **** /**********************
  52:Drivers/lvgl/lvgl/demos/stress/lv_demo_stress.c ****  *   STATIC FUNCTIONS
  53:Drivers/lvgl/lvgl/demos/stress/lv_demo_stress.c ****  **********************/
  54:Drivers/lvgl/lvgl/demos/stress/lv_demo_stress.c **** 
  55:Drivers/lvgl/lvgl/demos/stress/lv_demo_stress.c **** static void obj_test_task_cb(lv_timer_t * tmr)
  56:Drivers/lvgl/lvgl/demos/stress/lv_demo_stress.c **** {
  57:Drivers/lvgl/lvgl/demos/stress/lv_demo_stress.c ****     (void) tmr;    /*Unused*/
  58:Drivers/lvgl/lvgl/demos/stress/lv_demo_stress.c ****     static int16_t state = -1;
  59:Drivers/lvgl/lvgl/demos/stress/lv_demo_stress.c **** 
  60:Drivers/lvgl/lvgl/demos/stress/lv_demo_stress.c ****     lv_anim_t a;
  61:Drivers/lvgl/lvgl/demos/stress/lv_demo_stress.c ****     lv_obj_t * obj;
  62:Drivers/lvgl/lvgl/demos/stress/lv_demo_stress.c **** 
  63:Drivers/lvgl/lvgl/demos/stress/lv_demo_stress.c ****     //    printf("step start: %d\n", state);
  64:Drivers/lvgl/lvgl/demos/stress/lv_demo_stress.c **** 
  65:Drivers/lvgl/lvgl/demos/stress/lv_demo_stress.c ****     switch(state) {
  66:Drivers/lvgl/lvgl/demos/stress/lv_demo_stress.c ****         case -1: {
  67:Drivers/lvgl/lvgl/demos/stress/lv_demo_stress.c ****                 lv_res_t res = lv_mem_test();
  68:Drivers/lvgl/lvgl/demos/stress/lv_demo_stress.c ****                 if(res != LV_RES_OK) {
  69:Drivers/lvgl/lvgl/demos/stress/lv_demo_stress.c ****                     LV_LOG_ERROR("Memory integrity error");
  70:Drivers/lvgl/lvgl/demos/stress/lv_demo_stress.c ****                 }
  71:Drivers/lvgl/lvgl/demos/stress/lv_demo_stress.c **** 
  72:Drivers/lvgl/lvgl/demos/stress/lv_demo_stress.c ****                 lv_mem_monitor_t mon;
  73:Drivers/lvgl/lvgl/demos/stress/lv_demo_stress.c ****                 lv_mem_monitor(&mon);
  74:Drivers/lvgl/lvgl/demos/stress/lv_demo_stress.c **** 
  75:Drivers/lvgl/lvgl/demos/stress/lv_demo_stress.c ****                 if(mem_free_start == 0)  mem_free_start = mon.free_size;
  76:Drivers/lvgl/lvgl/demos/stress/lv_demo_stress.c **** 
  77:Drivers/lvgl/lvgl/demos/stress/lv_demo_stress.c ****                 LV_LOG_USER("mem leak since start: %d, frag: %3d %%",  mem_free_start - mon.free_si
  78:Drivers/lvgl/lvgl/demos/stress/lv_demo_stress.c ****             }
  79:Drivers/lvgl/lvgl/demos/stress/lv_demo_stress.c ****             break;
  80:Drivers/lvgl/lvgl/demos/stress/lv_demo_stress.c ****         case 0:
  81:Drivers/lvgl/lvgl/demos/stress/lv_demo_stress.c ****             /* Holder for all object types */
  82:Drivers/lvgl/lvgl/demos/stress/lv_demo_stress.c ****             main_page = lv_obj_create(lv_scr_act());
  83:Drivers/lvgl/lvgl/demos/stress/lv_demo_stress.c ****             lv_obj_set_size(main_page, LV_HOR_RES / 2, LV_VER_RES);
  84:Drivers/lvgl/lvgl/demos/stress/lv_demo_stress.c ****             lv_obj_set_flex_flow(main_page, LV_FLEX_FLOW_COLUMN);
  85:Drivers/lvgl/lvgl/demos/stress/lv_demo_stress.c **** 
  86:Drivers/lvgl/lvgl/demos/stress/lv_demo_stress.c **** 
  87:Drivers/lvgl/lvgl/demos/stress/lv_demo_stress.c ****             obj = lv_btn_create(main_page);
  88:Drivers/lvgl/lvgl/demos/stress/lv_demo_stress.c ****             lv_obj_set_size(obj, 100, 70);
  89:Drivers/lvgl/lvgl/demos/stress/lv_demo_stress.c ****             obj = lv_label_create(obj);
  90:Drivers/lvgl/lvgl/demos/stress/lv_demo_stress.c ****             lv_label_set_text(obj, "Multi line\n"LV_SYMBOL_OK LV_SYMBOL_CLOSE LV_SYMBOL_WIFI);
ARM GAS  /tmp/cc9XNXn7.s 			page 3


  91:Drivers/lvgl/lvgl/demos/stress/lv_demo_stress.c ****             break;
  92:Drivers/lvgl/lvgl/demos/stress/lv_demo_stress.c **** 
  93:Drivers/lvgl/lvgl/demos/stress/lv_demo_stress.c ****         case 1: {
  94:Drivers/lvgl/lvgl/demos/stress/lv_demo_stress.c ****                 obj = lv_tabview_create(lv_scr_act(), LV_DIR_TOP, 50);
  95:Drivers/lvgl/lvgl/demos/stress/lv_demo_stress.c ****                 lv_obj_set_size(obj, LV_HOR_RES / 2, LV_VER_RES / 2);
  96:Drivers/lvgl/lvgl/demos/stress/lv_demo_stress.c ****                 lv_obj_align(obj, LV_ALIGN_BOTTOM_RIGHT, 0, 0);
  97:Drivers/lvgl/lvgl/demos/stress/lv_demo_stress.c ****                 lv_obj_t * t = lv_tabview_add_tab(obj, "First");
  98:Drivers/lvgl/lvgl/demos/stress/lv_demo_stress.c **** 
  99:Drivers/lvgl/lvgl/demos/stress/lv_demo_stress.c ****                 t = lv_tabview_add_tab(obj, "Second");
 100:Drivers/lvgl/lvgl/demos/stress/lv_demo_stress.c ****                 lv_obj_t * c = lv_colorwheel_create(t, true);
 101:Drivers/lvgl/lvgl/demos/stress/lv_demo_stress.c ****                 lv_obj_set_size(c,  150, 150);
 102:Drivers/lvgl/lvgl/demos/stress/lv_demo_stress.c ****                 //                  c = lv_led_create(t, NULL);
 103:Drivers/lvgl/lvgl/demos/stress/lv_demo_stress.c ****                 //                  lv_obj_set_pos(c, 160, 20);
 104:Drivers/lvgl/lvgl/demos/stress/lv_demo_stress.c ****                 t = lv_tabview_add_tab(obj, LV_SYMBOL_EDIT " Edit");
 105:Drivers/lvgl/lvgl/demos/stress/lv_demo_stress.c ****                 t = lv_tabview_add_tab(obj, LV_SYMBOL_CLOSE);
 106:Drivers/lvgl/lvgl/demos/stress/lv_demo_stress.c **** 
 107:Drivers/lvgl/lvgl/demos/stress/lv_demo_stress.c ****                 lv_tabview_set_act(obj, 1, LV_ANIM_ON);
 108:Drivers/lvgl/lvgl/demos/stress/lv_demo_stress.c ****                 auto_del(obj, LV_DEMO_STRESS_TIME_STEP * 5 + 30);
 109:Drivers/lvgl/lvgl/demos/stress/lv_demo_stress.c ****             }
 110:Drivers/lvgl/lvgl/demos/stress/lv_demo_stress.c ****             break;
 111:Drivers/lvgl/lvgl/demos/stress/lv_demo_stress.c **** 
 112:Drivers/lvgl/lvgl/demos/stress/lv_demo_stress.c ****         case 2:
 113:Drivers/lvgl/lvgl/demos/stress/lv_demo_stress.c ****             obj = lv_btn_create(main_page);
 114:Drivers/lvgl/lvgl/demos/stress/lv_demo_stress.c ****             lv_obj_set_size(obj, 200, 70);
 115:Drivers/lvgl/lvgl/demos/stress/lv_demo_stress.c **** 
 116:Drivers/lvgl/lvgl/demos/stress/lv_demo_stress.c ****             /*Move to disabled state very slowly*/
 117:Drivers/lvgl/lvgl/demos/stress/lv_demo_stress.c ****             lv_obj_add_state(obj, LV_STATE_DISABLED);
 118:Drivers/lvgl/lvgl/demos/stress/lv_demo_stress.c **** 
 119:Drivers/lvgl/lvgl/demos/stress/lv_demo_stress.c ****             /*Add an infinite width change animation*/
 120:Drivers/lvgl/lvgl/demos/stress/lv_demo_stress.c ****             lv_anim_init(&a);
 121:Drivers/lvgl/lvgl/demos/stress/lv_demo_stress.c ****             lv_anim_set_var(&a, obj);
 122:Drivers/lvgl/lvgl/demos/stress/lv_demo_stress.c ****             lv_anim_set_time(&a, LV_DEMO_STRESS_TIME_STEP * 2);
 123:Drivers/lvgl/lvgl/demos/stress/lv_demo_stress.c ****             lv_anim_set_exec_cb(&a, set_width_anim);
 124:Drivers/lvgl/lvgl/demos/stress/lv_demo_stress.c ****             lv_anim_set_values(&a, 100, 200);
 125:Drivers/lvgl/lvgl/demos/stress/lv_demo_stress.c ****             lv_anim_set_playback_time(&a, LV_DEMO_STRESS_TIME_STEP * 2);
 126:Drivers/lvgl/lvgl/demos/stress/lv_demo_stress.c ****             lv_anim_set_repeat_count(&a, LV_ANIM_REPEAT_INFINITE);
 127:Drivers/lvgl/lvgl/demos/stress/lv_demo_stress.c ****             lv_anim_start(&a);
 128:Drivers/lvgl/lvgl/demos/stress/lv_demo_stress.c **** 
 129:Drivers/lvgl/lvgl/demos/stress/lv_demo_stress.c ****             /*Delete the object a few sec later*/
 130:Drivers/lvgl/lvgl/demos/stress/lv_demo_stress.c ****             auto_del(obj, LV_DEMO_STRESS_TIME_STEP * 10);
 131:Drivers/lvgl/lvgl/demos/stress/lv_demo_stress.c **** 
 132:Drivers/lvgl/lvgl/demos/stress/lv_demo_stress.c ****             obj = lv_label_create(obj);
 133:Drivers/lvgl/lvgl/demos/stress/lv_demo_stress.c ****             lv_label_set_text_fmt(obj, "Formatted:\n%d %s", 12, "Volt");
 134:Drivers/lvgl/lvgl/demos/stress/lv_demo_stress.c ****             break;
 135:Drivers/lvgl/lvgl/demos/stress/lv_demo_stress.c **** 
 136:Drivers/lvgl/lvgl/demos/stress/lv_demo_stress.c ****         case 3:
 137:Drivers/lvgl/lvgl/demos/stress/lv_demo_stress.c ****             ta = lv_textarea_create(lv_scr_act());
 138:Drivers/lvgl/lvgl/demos/stress/lv_demo_stress.c ****             lv_obj_align_to(ta, main_page, LV_ALIGN_OUT_RIGHT_TOP, 10, 10);
 139:Drivers/lvgl/lvgl/demos/stress/lv_demo_stress.c ****             lv_obj_set_size(ta, LV_HOR_RES / 3, LV_VER_RES / 4);
 140:Drivers/lvgl/lvgl/demos/stress/lv_demo_stress.c ****             lv_textarea_set_placeholder_text(ta, "The placeholder");
 141:Drivers/lvgl/lvgl/demos/stress/lv_demo_stress.c ****             break;
 142:Drivers/lvgl/lvgl/demos/stress/lv_demo_stress.c **** 
 143:Drivers/lvgl/lvgl/demos/stress/lv_demo_stress.c ****         case 4:
 144:Drivers/lvgl/lvgl/demos/stress/lv_demo_stress.c ****             obj = lv_btn_create(main_page);
 145:Drivers/lvgl/lvgl/demos/stress/lv_demo_stress.c ****             lv_obj_set_size(obj, 100, 70);
 146:Drivers/lvgl/lvgl/demos/stress/lv_demo_stress.c ****             lv_obj_set_style_bg_img_src(obj, LV_SYMBOL_DUMMY"Text from\nstyle", 0);
 147:Drivers/lvgl/lvgl/demos/stress/lv_demo_stress.c ****             lv_obj_del_async(obj);  /*Delete on next call of `lv_task_handler` (so not now)*/
ARM GAS  /tmp/cc9XNXn7.s 			page 4


 148:Drivers/lvgl/lvgl/demos/stress/lv_demo_stress.c **** 
 149:Drivers/lvgl/lvgl/demos/stress/lv_demo_stress.c ****             //            obj = lv_btn_create(main_page);
 150:Drivers/lvgl/lvgl/demos/stress/lv_demo_stress.c ****             //            lv_obj_set_size(obj, LV_SIZE_CONTENT, LV_SIZE_CONTENT);
 151:Drivers/lvgl/lvgl/demos/stress/lv_demo_stress.c ****             //            lv_obj_set_style_bg_img_src(obj, LV_SYMBOL_LEFT);
 152:Drivers/lvgl/lvgl/demos/stress/lv_demo_stress.c ****             //            lv_obj_set_style_bg_img_opa(obj, LV_OPA_50);
 153:Drivers/lvgl/lvgl/demos/stress/lv_demo_stress.c ****             //            lv_obj_set_style_bg_img_tiled(obj, true);
 154:Drivers/lvgl/lvgl/demos/stress/lv_demo_stress.c ****             //            lv_obj_scroll_to_view(obj, LV_ANIM_ON);
 155:Drivers/lvgl/lvgl/demos/stress/lv_demo_stress.c ****             break;
 156:Drivers/lvgl/lvgl/demos/stress/lv_demo_stress.c **** 
 157:Drivers/lvgl/lvgl/demos/stress/lv_demo_stress.c ****         case 5:
 158:Drivers/lvgl/lvgl/demos/stress/lv_demo_stress.c ****             lv_textarea_set_one_line(ta, true);
 159:Drivers/lvgl/lvgl/demos/stress/lv_demo_stress.c ****             break;
 160:Drivers/lvgl/lvgl/demos/stress/lv_demo_stress.c ****         case 6:
 161:Drivers/lvgl/lvgl/demos/stress/lv_demo_stress.c ****             lv_obj_set_flex_flow(main_page, LV_FLEX_FLOW_COLUMN_WRAP);
 162:Drivers/lvgl/lvgl/demos/stress/lv_demo_stress.c ****             break;
 163:Drivers/lvgl/lvgl/demos/stress/lv_demo_stress.c **** 
 164:Drivers/lvgl/lvgl/demos/stress/lv_demo_stress.c ****         case 7:
 165:Drivers/lvgl/lvgl/demos/stress/lv_demo_stress.c ****             obj = lv_bar_create(main_page);
 166:Drivers/lvgl/lvgl/demos/stress/lv_demo_stress.c ****             lv_bar_set_range(obj, -1000, 2000);
 167:Drivers/lvgl/lvgl/demos/stress/lv_demo_stress.c ****             lv_bar_set_value(obj, 1800, LV_ANIM_ON);
 168:Drivers/lvgl/lvgl/demos/stress/lv_demo_stress.c ****             lv_bar_set_start_value(obj, -500, LV_ANIM_ON);
 169:Drivers/lvgl/lvgl/demos/stress/lv_demo_stress.c **** 
 170:Drivers/lvgl/lvgl/demos/stress/lv_demo_stress.c ****             auto_del(obj, LV_DEMO_STRESS_TIME_STEP * 2 + 70);
 171:Drivers/lvgl/lvgl/demos/stress/lv_demo_stress.c **** 
 172:Drivers/lvgl/lvgl/demos/stress/lv_demo_stress.c ****             obj = lv_slider_create(main_page);
 173:Drivers/lvgl/lvgl/demos/stress/lv_demo_stress.c ****             lv_obj_set_style_anim_time(obj, LV_DEMO_STRESS_TIME_STEP * 8, 0);
 174:Drivers/lvgl/lvgl/demos/stress/lv_demo_stress.c ****             lv_slider_set_value(obj, 5000, LV_ANIM_ON);    /*Animate to out of range value*/
 175:Drivers/lvgl/lvgl/demos/stress/lv_demo_stress.c ****             auto_del(obj, LV_DEMO_STRESS_TIME_STEP * 5 + 22);
 176:Drivers/lvgl/lvgl/demos/stress/lv_demo_stress.c **** 
 177:Drivers/lvgl/lvgl/demos/stress/lv_demo_stress.c ****             obj = lv_switch_create(main_page);
 178:Drivers/lvgl/lvgl/demos/stress/lv_demo_stress.c **** 
 179:Drivers/lvgl/lvgl/demos/stress/lv_demo_stress.c ****             obj = lv_switch_create(main_page);
 180:Drivers/lvgl/lvgl/demos/stress/lv_demo_stress.c ****             lv_obj_add_state(obj, LV_STATE_CHECKED);
 181:Drivers/lvgl/lvgl/demos/stress/lv_demo_stress.c ****             auto_del(obj, 730);
 182:Drivers/lvgl/lvgl/demos/stress/lv_demo_stress.c ****             break;
 183:Drivers/lvgl/lvgl/demos/stress/lv_demo_stress.c **** 
 184:Drivers/lvgl/lvgl/demos/stress/lv_demo_stress.c ****         case 8:
 185:Drivers/lvgl/lvgl/demos/stress/lv_demo_stress.c ****             obj = lv_win_create(lv_scr_act(), 50);
 186:Drivers/lvgl/lvgl/demos/stress/lv_demo_stress.c ****             lv_obj_set_size(obj, LV_HOR_RES / 2, LV_VER_RES / 2);
 187:Drivers/lvgl/lvgl/demos/stress/lv_demo_stress.c ****             lv_obj_align(obj, LV_ALIGN_BOTTOM_RIGHT, 0, 0);
 188:Drivers/lvgl/lvgl/demos/stress/lv_demo_stress.c ****             lv_win_add_title(obj, "Window title");
 189:Drivers/lvgl/lvgl/demos/stress/lv_demo_stress.c ****             lv_win_add_btn(obj, LV_SYMBOL_CLOSE, 40);
 190:Drivers/lvgl/lvgl/demos/stress/lv_demo_stress.c ****             lv_win_add_btn(obj, LV_SYMBOL_DOWN, 40);
 191:Drivers/lvgl/lvgl/demos/stress/lv_demo_stress.c ****             auto_del(obj, LV_DEMO_STRESS_TIME_STEP * 3 + 5);
 192:Drivers/lvgl/lvgl/demos/stress/lv_demo_stress.c **** 
 193:Drivers/lvgl/lvgl/demos/stress/lv_demo_stress.c ****             obj = lv_calendar_create(lv_win_get_content(obj));
 194:Drivers/lvgl/lvgl/demos/stress/lv_demo_stress.c ****             break;
 195:Drivers/lvgl/lvgl/demos/stress/lv_demo_stress.c ****         case 9:
 196:Drivers/lvgl/lvgl/demos/stress/lv_demo_stress.c ****             lv_textarea_set_text(ta, "A very very long text which will should make the text area sc
 197:Drivers/lvgl/lvgl/demos/stress/lv_demo_stress.c ****                                  "Here area some dummy sentences to be sure the text area will be r
 198:Drivers/lvgl/lvgl/demos/stress/lv_demo_stress.c ****             break;
 199:Drivers/lvgl/lvgl/demos/stress/lv_demo_stress.c ****         case 10:
 200:Drivers/lvgl/lvgl/demos/stress/lv_demo_stress.c ****             obj = lv_keyboard_create(lv_scr_act());
 201:Drivers/lvgl/lvgl/demos/stress/lv_demo_stress.c ****             lv_keyboard_set_mode(obj, LV_KEYBOARD_MODE_TEXT_UPPER);
 202:Drivers/lvgl/lvgl/demos/stress/lv_demo_stress.c ****             lv_anim_init(&a);
 203:Drivers/lvgl/lvgl/demos/stress/lv_demo_stress.c ****             lv_anim_set_var(&a, obj);
 204:Drivers/lvgl/lvgl/demos/stress/lv_demo_stress.c ****             lv_anim_set_values(&a, LV_VER_RES, LV_VER_RES - lv_obj_get_height(obj));
ARM GAS  /tmp/cc9XNXn7.s 			page 5


 205:Drivers/lvgl/lvgl/demos/stress/lv_demo_stress.c ****             lv_anim_set_time(&a, LV_DEMO_STRESS_TIME_STEP + 3);
 206:Drivers/lvgl/lvgl/demos/stress/lv_demo_stress.c ****             lv_anim_set_exec_cb(&a, set_y_anim);
 207:Drivers/lvgl/lvgl/demos/stress/lv_demo_stress.c ****             lv_anim_start(&a);
 208:Drivers/lvgl/lvgl/demos/stress/lv_demo_stress.c **** 
 209:Drivers/lvgl/lvgl/demos/stress/lv_demo_stress.c ****             auto_del(obj, LV_DEMO_STRESS_TIME_STEP * 2 + 18);
 210:Drivers/lvgl/lvgl/demos/stress/lv_demo_stress.c ****             break;
 211:Drivers/lvgl/lvgl/demos/stress/lv_demo_stress.c **** 
 212:Drivers/lvgl/lvgl/demos/stress/lv_demo_stress.c ****         case 11:
 213:Drivers/lvgl/lvgl/demos/stress/lv_demo_stress.c ****             obj = lv_dropdown_create(main_page);
 214:Drivers/lvgl/lvgl/demos/stress/lv_demo_stress.c ****             lv_dropdown_set_options(obj, "Zero\nOne\nTwo\nThree\nFour\nFive\nSix\nSeven\nEight");
 215:Drivers/lvgl/lvgl/demos/stress/lv_demo_stress.c ****             lv_dropdown_open(obj);
 216:Drivers/lvgl/lvgl/demos/stress/lv_demo_stress.c ****             lv_dropdown_set_selected(obj, 2);
 217:Drivers/lvgl/lvgl/demos/stress/lv_demo_stress.c ****             auto_del(obj, LV_DEMO_STRESS_TIME_STEP * 3 + 11);
 218:Drivers/lvgl/lvgl/demos/stress/lv_demo_stress.c ****             break;
 219:Drivers/lvgl/lvgl/demos/stress/lv_demo_stress.c **** 
 220:Drivers/lvgl/lvgl/demos/stress/lv_demo_stress.c ****         case 12:
 221:Drivers/lvgl/lvgl/demos/stress/lv_demo_stress.c ****             obj = lv_roller_create(main_page);
 222:Drivers/lvgl/lvgl/demos/stress/lv_demo_stress.c ****             lv_roller_set_options(obj, "Zero\nOne\nTwo\nThree\nFour\nFive\nSix\nSeven\nEight", LV_R
 223:Drivers/lvgl/lvgl/demos/stress/lv_demo_stress.c ****             lv_roller_set_selected(obj, 2, LV_ANIM_ON);
 224:Drivers/lvgl/lvgl/demos/stress/lv_demo_stress.c ****             auto_del(obj, LV_DEMO_STRESS_TIME_STEP * 20 + 22);
 225:Drivers/lvgl/lvgl/demos/stress/lv_demo_stress.c ****             break;
 226:Drivers/lvgl/lvgl/demos/stress/lv_demo_stress.c **** 
 227:Drivers/lvgl/lvgl/demos/stress/lv_demo_stress.c ****         case 13:
 228:Drivers/lvgl/lvgl/demos/stress/lv_demo_stress.c ****             obj = lv_arc_create(main_page);
 229:Drivers/lvgl/lvgl/demos/stress/lv_demo_stress.c ****             lv_anim_init(&a);
 230:Drivers/lvgl/lvgl/demos/stress/lv_demo_stress.c ****             lv_anim_set_var(&a, obj);
 231:Drivers/lvgl/lvgl/demos/stress/lv_demo_stress.c ****             lv_anim_set_values(&a, 180, 400);
 232:Drivers/lvgl/lvgl/demos/stress/lv_demo_stress.c ****             lv_anim_set_time(&a, LV_DEMO_STRESS_TIME_STEP * 2);
 233:Drivers/lvgl/lvgl/demos/stress/lv_demo_stress.c ****             lv_anim_set_delay(&a, LV_DEMO_STRESS_TIME_STEP + 25);
 234:Drivers/lvgl/lvgl/demos/stress/lv_demo_stress.c ****             lv_anim_set_playback_time(&a, LV_DEMO_STRESS_TIME_STEP * 5);
 235:Drivers/lvgl/lvgl/demos/stress/lv_demo_stress.c ****             lv_anim_set_repeat_count(&a, 3);
 236:Drivers/lvgl/lvgl/demos/stress/lv_demo_stress.c ****             lv_anim_set_exec_cb(&a, arc_set_end_angle_anim);
 237:Drivers/lvgl/lvgl/demos/stress/lv_demo_stress.c ****             lv_anim_start(&a);
 238:Drivers/lvgl/lvgl/demos/stress/lv_demo_stress.c **** 
 239:Drivers/lvgl/lvgl/demos/stress/lv_demo_stress.c ****             obj = lv_meter_create(main_page);
 240:Drivers/lvgl/lvgl/demos/stress/lv_demo_stress.c ****             lv_obj_scroll_to_view(obj, LV_ANIM_ON);
 241:Drivers/lvgl/lvgl/demos/stress/lv_demo_stress.c ****             lv_meter_scale_t * scale = lv_meter_add_scale(obj);
 242:Drivers/lvgl/lvgl/demos/stress/lv_demo_stress.c ****             lv_meter_add_needle_line(obj, scale, 3, lv_palette_main(LV_PALETTE_RED), -10);
 243:Drivers/lvgl/lvgl/demos/stress/lv_demo_stress.c **** 
 244:Drivers/lvgl/lvgl/demos/stress/lv_demo_stress.c ****             auto_del(obj, LV_DEMO_STRESS_TIME_STEP * 6 + 30);
 245:Drivers/lvgl/lvgl/demos/stress/lv_demo_stress.c ****             break;
 246:Drivers/lvgl/lvgl/demos/stress/lv_demo_stress.c **** 
 247:Drivers/lvgl/lvgl/demos/stress/lv_demo_stress.c ****         case 14:
 248:Drivers/lvgl/lvgl/demos/stress/lv_demo_stress.c ****             obj = lv_msgbox_create(NULL, "Title", "Some text on the message box with average length
 249:Drivers/lvgl/lvgl/demos/stress/lv_demo_stress.c **** 
 250:Drivers/lvgl/lvgl/demos/stress/lv_demo_stress.c ****             lv_timer_t * msgbox_tmr = lv_timer_create(msgbox_del, LV_DEMO_STRESS_TIME_STEP * 5 + 30
 251:Drivers/lvgl/lvgl/demos/stress/lv_demo_stress.c ****             lv_timer_set_repeat_count(msgbox_tmr, 1);
 252:Drivers/lvgl/lvgl/demos/stress/lv_demo_stress.c ****             lv_obj_align(obj, LV_ALIGN_RIGHT_MID, -10, 0);
 253:Drivers/lvgl/lvgl/demos/stress/lv_demo_stress.c ****             break;
 254:Drivers/lvgl/lvgl/demos/stress/lv_demo_stress.c **** 
 255:Drivers/lvgl/lvgl/demos/stress/lv_demo_stress.c ****         case 15:
 256:Drivers/lvgl/lvgl/demos/stress/lv_demo_stress.c ****             lv_textarea_set_one_line(ta, false);
 257:Drivers/lvgl/lvgl/demos/stress/lv_demo_stress.c ****             break;
 258:Drivers/lvgl/lvgl/demos/stress/lv_demo_stress.c **** 
 259:Drivers/lvgl/lvgl/demos/stress/lv_demo_stress.c ****         case 16: {
 260:Drivers/lvgl/lvgl/demos/stress/lv_demo_stress.c ****                 lv_obj_t * tv = lv_tileview_create(lv_scr_act());
 261:Drivers/lvgl/lvgl/demos/stress/lv_demo_stress.c ****                 lv_obj_set_size(tv, 200, 200);
ARM GAS  /tmp/cc9XNXn7.s 			page 6


 262:Drivers/lvgl/lvgl/demos/stress/lv_demo_stress.c ****                 auto_del(tv, LV_DEMO_STRESS_TIME_STEP * 4 + 5);
 263:Drivers/lvgl/lvgl/demos/stress/lv_demo_stress.c **** 
 264:Drivers/lvgl/lvgl/demos/stress/lv_demo_stress.c ****                 obj = lv_tileview_add_tile(tv, 0, 0, LV_DIR_ALL);
 265:Drivers/lvgl/lvgl/demos/stress/lv_demo_stress.c ****                 obj = lv_label_create(obj);
 266:Drivers/lvgl/lvgl/demos/stress/lv_demo_stress.c ****                 lv_label_set_text(obj, "Tile: 0;0");
 267:Drivers/lvgl/lvgl/demos/stress/lv_demo_stress.c **** 
 268:Drivers/lvgl/lvgl/demos/stress/lv_demo_stress.c ****                 obj = lv_tileview_add_tile(tv, 0, 1, LV_DIR_ALL);
 269:Drivers/lvgl/lvgl/demos/stress/lv_demo_stress.c ****                 obj = lv_label_create(obj);
 270:Drivers/lvgl/lvgl/demos/stress/lv_demo_stress.c ****                 lv_label_set_text(obj, "Tile: 0;1");
 271:Drivers/lvgl/lvgl/demos/stress/lv_demo_stress.c **** 
 272:Drivers/lvgl/lvgl/demos/stress/lv_demo_stress.c ****                 obj = lv_tileview_add_tile(tv, 1, 1, LV_DIR_ALL);
 273:Drivers/lvgl/lvgl/demos/stress/lv_demo_stress.c ****                 obj = lv_label_create(obj);
 274:Drivers/lvgl/lvgl/demos/stress/lv_demo_stress.c ****                 lv_label_set_text(obj, "Tile: 1;1");
 275:Drivers/lvgl/lvgl/demos/stress/lv_demo_stress.c **** 
 276:Drivers/lvgl/lvgl/demos/stress/lv_demo_stress.c ****                 lv_obj_set_tile_id(tv, 1, 1, LV_ANIM_ON);
 277:Drivers/lvgl/lvgl/demos/stress/lv_demo_stress.c ****             }
 278:Drivers/lvgl/lvgl/demos/stress/lv_demo_stress.c ****             break;
 279:Drivers/lvgl/lvgl/demos/stress/lv_demo_stress.c **** 
 280:Drivers/lvgl/lvgl/demos/stress/lv_demo_stress.c ****         case 18:
 281:Drivers/lvgl/lvgl/demos/stress/lv_demo_stress.c ****             obj = lv_list_create(main_page);
 282:Drivers/lvgl/lvgl/demos/stress/lv_demo_stress.c ****             {
 283:Drivers/lvgl/lvgl/demos/stress/lv_demo_stress.c ****                 lv_obj_t * b;
 284:Drivers/lvgl/lvgl/demos/stress/lv_demo_stress.c ****                 b = lv_list_add_btn(obj, LV_SYMBOL_OK, "1. Some very long text to scroll");
 285:Drivers/lvgl/lvgl/demos/stress/lv_demo_stress.c ****                 auto_del(b, 10);
 286:Drivers/lvgl/lvgl/demos/stress/lv_demo_stress.c ****                 lv_list_add_btn(obj, LV_SYMBOL_OK, "2. Some very long text to scroll");
 287:Drivers/lvgl/lvgl/demos/stress/lv_demo_stress.c ****                 lv_list_add_btn(obj, LV_SYMBOL_OK, "3. Some very long text to scroll");
 288:Drivers/lvgl/lvgl/demos/stress/lv_demo_stress.c ****                 b = lv_list_add_btn(obj, LV_SYMBOL_OK, "4. Some very long text to scroll");
 289:Drivers/lvgl/lvgl/demos/stress/lv_demo_stress.c ****                 auto_del(b, LV_DEMO_STRESS_TIME_STEP);
 290:Drivers/lvgl/lvgl/demos/stress/lv_demo_stress.c ****                 b = lv_list_add_btn(obj, LV_SYMBOL_OK, "5. Some very long text to scroll");
 291:Drivers/lvgl/lvgl/demos/stress/lv_demo_stress.c ****                 auto_del(b, LV_DEMO_STRESS_TIME_STEP + 90);
 292:Drivers/lvgl/lvgl/demos/stress/lv_demo_stress.c ****                 b = lv_list_add_btn(obj, LV_SYMBOL_OK, "6. Some very long text to scroll");
 293:Drivers/lvgl/lvgl/demos/stress/lv_demo_stress.c ****                 auto_del(b, LV_DEMO_STRESS_TIME_STEP + 10);
 294:Drivers/lvgl/lvgl/demos/stress/lv_demo_stress.c ****                 lv_obj_scroll_to_view(lv_obj_get_child(obj, -1),  LV_ANIM_ON);
 295:Drivers/lvgl/lvgl/demos/stress/lv_demo_stress.c ****             }
 296:Drivers/lvgl/lvgl/demos/stress/lv_demo_stress.c ****             auto_del(obj, LV_DEMO_STRESS_TIME_STEP * 5 + 15);
 297:Drivers/lvgl/lvgl/demos/stress/lv_demo_stress.c **** 
 298:Drivers/lvgl/lvgl/demos/stress/lv_demo_stress.c ****             obj = lv_table_create(main_page);
 299:Drivers/lvgl/lvgl/demos/stress/lv_demo_stress.c ****             lv_table_set_cell_value(obj, 0, 0, "0,0");
 300:Drivers/lvgl/lvgl/demos/stress/lv_demo_stress.c ****             lv_table_set_cell_value_fmt(obj, 3, 0, "%d,%d", 5, 0);
 301:Drivers/lvgl/lvgl/demos/stress/lv_demo_stress.c ****             lv_table_set_row_cnt(obj, 5);
 302:Drivers/lvgl/lvgl/demos/stress/lv_demo_stress.c ****             lv_table_set_cell_value_fmt(obj, 1, 0, "%s", "1,0");
 303:Drivers/lvgl/lvgl/demos/stress/lv_demo_stress.c ****             lv_table_set_cell_value(obj, 1, 3, "1,3");
 304:Drivers/lvgl/lvgl/demos/stress/lv_demo_stress.c ****             break;
 305:Drivers/lvgl/lvgl/demos/stress/lv_demo_stress.c **** 
 306:Drivers/lvgl/lvgl/demos/stress/lv_demo_stress.c ****         case 19:
 307:Drivers/lvgl/lvgl/demos/stress/lv_demo_stress.c ****             lv_textarea_set_cursor_pos(ta, 10);
 308:Drivers/lvgl/lvgl/demos/stress/lv_demo_stress.c ****             lv_textarea_set_text(ta, "__INSERTED TEXT" LV_SYMBOL_EDIT"__");
 309:Drivers/lvgl/lvgl/demos/stress/lv_demo_stress.c ****             break;
 310:Drivers/lvgl/lvgl/demos/stress/lv_demo_stress.c **** 
 311:Drivers/lvgl/lvgl/demos/stress/lv_demo_stress.c ****         case 20:
 312:Drivers/lvgl/lvgl/demos/stress/lv_demo_stress.c ****             lv_obj_set_flex_flow(main_page, LV_FLEX_FLOW_ROW_WRAP);
 313:Drivers/lvgl/lvgl/demos/stress/lv_demo_stress.c ****             break;
 314:Drivers/lvgl/lvgl/demos/stress/lv_demo_stress.c **** 
 315:Drivers/lvgl/lvgl/demos/stress/lv_demo_stress.c ****         case 21:
 316:Drivers/lvgl/lvgl/demos/stress/lv_demo_stress.c ****             lv_textarea_set_cursor_pos(ta, 0);
 317:Drivers/lvgl/lvgl/demos/stress/lv_demo_stress.c ****             lv_textarea_add_char(ta, '0');
 318:Drivers/lvgl/lvgl/demos/stress/lv_demo_stress.c ****             lv_textarea_add_char(ta, '1');
ARM GAS  /tmp/cc9XNXn7.s 			page 7


 319:Drivers/lvgl/lvgl/demos/stress/lv_demo_stress.c ****             lv_textarea_add_char(ta, '2');
 320:Drivers/lvgl/lvgl/demos/stress/lv_demo_stress.c ****             lv_textarea_add_char(ta, '3');
 321:Drivers/lvgl/lvgl/demos/stress/lv_demo_stress.c ****             lv_textarea_add_char(ta, '4');
 322:Drivers/lvgl/lvgl/demos/stress/lv_demo_stress.c ****             lv_textarea_add_char(ta, '5');
 323:Drivers/lvgl/lvgl/demos/stress/lv_demo_stress.c ****             lv_textarea_add_char(ta, '6');
 324:Drivers/lvgl/lvgl/demos/stress/lv_demo_stress.c ****             lv_textarea_add_char(ta, '7');
 325:Drivers/lvgl/lvgl/demos/stress/lv_demo_stress.c ****             lv_textarea_add_char(ta, '8');
 326:Drivers/lvgl/lvgl/demos/stress/lv_demo_stress.c ****             lv_textarea_add_char(ta, '9');
 327:Drivers/lvgl/lvgl/demos/stress/lv_demo_stress.c ****             lv_textarea_add_char(ta, 'A');
 328:Drivers/lvgl/lvgl/demos/stress/lv_demo_stress.c ****             lv_textarea_add_char(ta, 'B');
 329:Drivers/lvgl/lvgl/demos/stress/lv_demo_stress.c ****             lv_textarea_add_char(ta, 'C');
 330:Drivers/lvgl/lvgl/demos/stress/lv_demo_stress.c ****             lv_textarea_add_char(ta, 'D');
 331:Drivers/lvgl/lvgl/demos/stress/lv_demo_stress.c ****             lv_textarea_add_char(ta, 'E');
 332:Drivers/lvgl/lvgl/demos/stress/lv_demo_stress.c ****             lv_textarea_add_char(ta, 'F');
 333:Drivers/lvgl/lvgl/demos/stress/lv_demo_stress.c ****             lv_textarea_add_text(ta, LV_SYMBOL_OK);
 334:Drivers/lvgl/lvgl/demos/stress/lv_demo_stress.c ****             lv_textarea_add_text(ta, LV_SYMBOL_CLOSE);
 335:Drivers/lvgl/lvgl/demos/stress/lv_demo_stress.c ****             lv_textarea_add_text(ta, LV_SYMBOL_COPY);
 336:Drivers/lvgl/lvgl/demos/stress/lv_demo_stress.c ****             lv_textarea_add_text(ta, LV_SYMBOL_SAVE);
 337:Drivers/lvgl/lvgl/demos/stress/lv_demo_stress.c ****             lv_textarea_add_text(ta, LV_SYMBOL_PASTE);
 338:Drivers/lvgl/lvgl/demos/stress/lv_demo_stress.c ****             break;
 339:Drivers/lvgl/lvgl/demos/stress/lv_demo_stress.c **** 
 340:Drivers/lvgl/lvgl/demos/stress/lv_demo_stress.c ****         case 22:
 341:Drivers/lvgl/lvgl/demos/stress/lv_demo_stress.c ****             obj = lv_spinbox_create(main_page);
 342:Drivers/lvgl/lvgl/demos/stress/lv_demo_stress.c ****             lv_spinbox_set_digit_format(obj, 6, 3);
 343:Drivers/lvgl/lvgl/demos/stress/lv_demo_stress.c ****             lv_spinbox_set_value(obj, 5678);
 344:Drivers/lvgl/lvgl/demos/stress/lv_demo_stress.c ****             lv_spinbox_set_step(obj, 10);
 345:Drivers/lvgl/lvgl/demos/stress/lv_demo_stress.c ****             lv_spinbox_increment(obj);
 346:Drivers/lvgl/lvgl/demos/stress/lv_demo_stress.c ****             lv_spinbox_increment(obj);
 347:Drivers/lvgl/lvgl/demos/stress/lv_demo_stress.c ****             lv_spinbox_increment(obj);
 348:Drivers/lvgl/lvgl/demos/stress/lv_demo_stress.c ****             lv_spinbox_set_step(obj, 100);
 349:Drivers/lvgl/lvgl/demos/stress/lv_demo_stress.c ****             lv_spinbox_increment(obj);
 350:Drivers/lvgl/lvgl/demos/stress/lv_demo_stress.c ****             lv_spinbox_increment(obj);
 351:Drivers/lvgl/lvgl/demos/stress/lv_demo_stress.c ****             lv_spinbox_set_step(obj, 1);
 352:Drivers/lvgl/lvgl/demos/stress/lv_demo_stress.c ****             lv_spinbox_increment(obj);
 353:Drivers/lvgl/lvgl/demos/stress/lv_demo_stress.c ****             lv_spinbox_increment(obj);
 354:Drivers/lvgl/lvgl/demos/stress/lv_demo_stress.c ****             auto_del(obj, LV_DEMO_STRESS_TIME_STEP * 2 + 15);
 355:Drivers/lvgl/lvgl/demos/stress/lv_demo_stress.c **** 
 356:Drivers/lvgl/lvgl/demos/stress/lv_demo_stress.c ****             lv_obj_scroll_by(main_page, 0, 20, LV_ANIM_ON);
 357:Drivers/lvgl/lvgl/demos/stress/lv_demo_stress.c **** 
 358:Drivers/lvgl/lvgl/demos/stress/lv_demo_stress.c ****             break;
 359:Drivers/lvgl/lvgl/demos/stress/lv_demo_stress.c **** 
 360:Drivers/lvgl/lvgl/demos/stress/lv_demo_stress.c ****         case 23:
 361:Drivers/lvgl/lvgl/demos/stress/lv_demo_stress.c ****             obj = lv_chart_create(main_page);
 362:Drivers/lvgl/lvgl/demos/stress/lv_demo_stress.c ****             {
 363:Drivers/lvgl/lvgl/demos/stress/lv_demo_stress.c ****                 lv_chart_series_t * s1 = lv_chart_add_series(obj, lv_palette_main(LV_PALETTE_RED), 
 364:Drivers/lvgl/lvgl/demos/stress/lv_demo_stress.c ****                 lv_chart_set_next_value(obj, s1, 36);
 365:Drivers/lvgl/lvgl/demos/stress/lv_demo_stress.c ****                 lv_chart_set_next_value(obj, s1, -29);
 366:Drivers/lvgl/lvgl/demos/stress/lv_demo_stress.c ****                 lv_chart_set_next_value(obj, s1, 51);
 367:Drivers/lvgl/lvgl/demos/stress/lv_demo_stress.c ****                 lv_chart_set_next_value(obj, s1, 107);
 368:Drivers/lvgl/lvgl/demos/stress/lv_demo_stress.c ****                 lv_chart_set_next_value(obj, s1, 70);
 369:Drivers/lvgl/lvgl/demos/stress/lv_demo_stress.c ****                 lv_chart_set_next_value(obj, s1, 36);
 370:Drivers/lvgl/lvgl/demos/stress/lv_demo_stress.c ****                 lv_chart_set_next_value(obj, s1, -2);
 371:Drivers/lvgl/lvgl/demos/stress/lv_demo_stress.c ****                 lv_chart_set_next_value(obj, s1, 63);
 372:Drivers/lvgl/lvgl/demos/stress/lv_demo_stress.c ****                 lv_chart_set_next_value(obj, s1, 48);
 373:Drivers/lvgl/lvgl/demos/stress/lv_demo_stress.c ****                 lv_chart_set_next_value(obj, s1, 72);
 374:Drivers/lvgl/lvgl/demos/stress/lv_demo_stress.c **** 
 375:Drivers/lvgl/lvgl/demos/stress/lv_demo_stress.c ****                 auto_del(obj, LV_DEMO_STRESS_TIME_STEP * 3);
ARM GAS  /tmp/cc9XNXn7.s 			page 8


 376:Drivers/lvgl/lvgl/demos/stress/lv_demo_stress.c ****             }
 377:Drivers/lvgl/lvgl/demos/stress/lv_demo_stress.c **** 
 378:Drivers/lvgl/lvgl/demos/stress/lv_demo_stress.c ****             lv_obj_scroll_by(main_page, 0, 20, LV_ANIM_ON);
 379:Drivers/lvgl/lvgl/demos/stress/lv_demo_stress.c ****             break;
 380:Drivers/lvgl/lvgl/demos/stress/lv_demo_stress.c **** 
 381:Drivers/lvgl/lvgl/demos/stress/lv_demo_stress.c ****         case 24:
 382:Drivers/lvgl/lvgl/demos/stress/lv_demo_stress.c ****             obj = lv_checkbox_create(main_page);
 383:Drivers/lvgl/lvgl/demos/stress/lv_demo_stress.c ****             lv_checkbox_set_text(obj, "An option to select");
 384:Drivers/lvgl/lvgl/demos/stress/lv_demo_stress.c ****             auto_del(obj, LV_DEMO_STRESS_TIME_STEP * 2 + 20);
 385:Drivers/lvgl/lvgl/demos/stress/lv_demo_stress.c **** 
 386:Drivers/lvgl/lvgl/demos/stress/lv_demo_stress.c ****             obj = lv_checkbox_create(main_page);
 387:Drivers/lvgl/lvgl/demos/stress/lv_demo_stress.c ****             lv_obj_add_state(obj, LV_STATE_CHECKED);
 388:Drivers/lvgl/lvgl/demos/stress/lv_demo_stress.c **** 
 389:Drivers/lvgl/lvgl/demos/stress/lv_demo_stress.c ****             obj = lv_checkbox_create(main_page);
 390:Drivers/lvgl/lvgl/demos/stress/lv_demo_stress.c ****             lv_obj_add_state(obj, LV_STATE_CHECKED | LV_STATE_DISABLED);
 391:Drivers/lvgl/lvgl/demos/stress/lv_demo_stress.c ****             auto_del(obj, LV_DEMO_STRESS_TIME_STEP * 1 + 60);
 392:Drivers/lvgl/lvgl/demos/stress/lv_demo_stress.c **** 
 393:Drivers/lvgl/lvgl/demos/stress/lv_demo_stress.c ****             lv_obj_scroll_by(main_page, 0, 20, LV_ANIM_ON);
 394:Drivers/lvgl/lvgl/demos/stress/lv_demo_stress.c **** 
 395:Drivers/lvgl/lvgl/demos/stress/lv_demo_stress.c ****             break;
 396:Drivers/lvgl/lvgl/demos/stress/lv_demo_stress.c **** 
 397:Drivers/lvgl/lvgl/demos/stress/lv_demo_stress.c ****         case 25:
 398:Drivers/lvgl/lvgl/demos/stress/lv_demo_stress.c ****             lv_textarea_set_cursor_pos(ta, 20);
 399:Drivers/lvgl/lvgl/demos/stress/lv_demo_stress.c ****             {
 400:Drivers/lvgl/lvgl/demos/stress/lv_demo_stress.c ****                 uint16_t i;
 401:Drivers/lvgl/lvgl/demos/stress/lv_demo_stress.c ****                 for(i = 0; i < 64; i++) {
 402:Drivers/lvgl/lvgl/demos/stress/lv_demo_stress.c ****                     lv_textarea_del_char_forward(ta);
 403:Drivers/lvgl/lvgl/demos/stress/lv_demo_stress.c ****                 }
 404:Drivers/lvgl/lvgl/demos/stress/lv_demo_stress.c ****             }
 405:Drivers/lvgl/lvgl/demos/stress/lv_demo_stress.c ****             break;
 406:Drivers/lvgl/lvgl/demos/stress/lv_demo_stress.c **** 
 407:Drivers/lvgl/lvgl/demos/stress/lv_demo_stress.c ****         case 26:
 408:Drivers/lvgl/lvgl/demos/stress/lv_demo_stress.c ****             lv_textarea_set_one_line(ta, true);
 409:Drivers/lvgl/lvgl/demos/stress/lv_demo_stress.c ****             break;
 410:Drivers/lvgl/lvgl/demos/stress/lv_demo_stress.c ****         case 29:
 411:Drivers/lvgl/lvgl/demos/stress/lv_demo_stress.c ****             lv_obj_clean(main_page);
 412:Drivers/lvgl/lvgl/demos/stress/lv_demo_stress.c ****             lv_obj_del(ta);
 413:Drivers/lvgl/lvgl/demos/stress/lv_demo_stress.c ****             ta = NULL;
 414:Drivers/lvgl/lvgl/demos/stress/lv_demo_stress.c ****             break;
 415:Drivers/lvgl/lvgl/demos/stress/lv_demo_stress.c ****         case 31:
 416:Drivers/lvgl/lvgl/demos/stress/lv_demo_stress.c ****             lv_obj_clean(lv_scr_act());
 417:Drivers/lvgl/lvgl/demos/stress/lv_demo_stress.c ****             main_page = NULL;
 418:Drivers/lvgl/lvgl/demos/stress/lv_demo_stress.c ****             state = -2;
 419:Drivers/lvgl/lvgl/demos/stress/lv_demo_stress.c ****             break;
 420:Drivers/lvgl/lvgl/demos/stress/lv_demo_stress.c ****         default:
 421:Drivers/lvgl/lvgl/demos/stress/lv_demo_stress.c ****             break;
 422:Drivers/lvgl/lvgl/demos/stress/lv_demo_stress.c ****     }
 423:Drivers/lvgl/lvgl/demos/stress/lv_demo_stress.c **** 
 424:Drivers/lvgl/lvgl/demos/stress/lv_demo_stress.c ****     //    printf("step end: %d\n", state);
 425:Drivers/lvgl/lvgl/demos/stress/lv_demo_stress.c ****     state++;
 426:Drivers/lvgl/lvgl/demos/stress/lv_demo_stress.c **** }
 427:Drivers/lvgl/lvgl/demos/stress/lv_demo_stress.c **** 
 428:Drivers/lvgl/lvgl/demos/stress/lv_demo_stress.c **** static void auto_del(lv_obj_t * obj, uint32_t delay)
 429:Drivers/lvgl/lvgl/demos/stress/lv_demo_stress.c **** {
  26              		.loc 1 429 0
  27              		.cfi_startproc
  28              		@ args = 0, pretend = 0, frame = 72
ARM GAS  /tmp/cc9XNXn7.s 			page 9


  29              		@ frame_needed = 0, uses_anonymous_args = 0
  30              	.LVL0:
  31 0000 30B5     		push	{r4, r5, lr}
  32              	.LCFI0:
  33              		.cfi_def_cfa_offset 12
  34              		.cfi_offset 4, -12
  35              		.cfi_offset 5, -8
  36              		.cfi_offset 14, -4
  37 0002 93B0     		sub	sp, sp, #76
  38              	.LCFI1:
  39              		.cfi_def_cfa_offset 88
  40 0004 0546     		mov	r5, r0
  41 0006 0C46     		mov	r4, r1
 430:Drivers/lvgl/lvgl/demos/stress/lv_demo_stress.c ****     lv_anim_t a;
 431:Drivers/lvgl/lvgl/demos/stress/lv_demo_stress.c ****     lv_anim_init(&a);
  42              		.loc 1 431 0
  43 0008 01A8     		add	r0, sp, #4
  44              	.LVL1:
  45 000a FFF7FEFF 		bl	lv_anim_init
  46              	.LVL2:
  47              	.LBB67:
  48              	.LBB68:
  49              		.file 2 "Drivers/lvgl/lvgl/demos/stress/../../src/misc/lv_anim.h"
   1:Drivers/lvgl/lvgl/demos/stress/../../src/misc/lv_anim.h **** /**
   2:Drivers/lvgl/lvgl/demos/stress/../../src/misc/lv_anim.h ****  * @file lv_anim.h
   3:Drivers/lvgl/lvgl/demos/stress/../../src/misc/lv_anim.h ****  *
   4:Drivers/lvgl/lvgl/demos/stress/../../src/misc/lv_anim.h ****  */
   5:Drivers/lvgl/lvgl/demos/stress/../../src/misc/lv_anim.h **** 
   6:Drivers/lvgl/lvgl/demos/stress/../../src/misc/lv_anim.h **** #ifndef LV_ANIM_H
   7:Drivers/lvgl/lvgl/demos/stress/../../src/misc/lv_anim.h **** #define LV_ANIM_H
   8:Drivers/lvgl/lvgl/demos/stress/../../src/misc/lv_anim.h **** 
   9:Drivers/lvgl/lvgl/demos/stress/../../src/misc/lv_anim.h **** #ifdef __cplusplus
  10:Drivers/lvgl/lvgl/demos/stress/../../src/misc/lv_anim.h **** extern "C" {
  11:Drivers/lvgl/lvgl/demos/stress/../../src/misc/lv_anim.h **** #endif
  12:Drivers/lvgl/lvgl/demos/stress/../../src/misc/lv_anim.h **** 
  13:Drivers/lvgl/lvgl/demos/stress/../../src/misc/lv_anim.h **** /*********************
  14:Drivers/lvgl/lvgl/demos/stress/../../src/misc/lv_anim.h ****  *      INCLUDES
  15:Drivers/lvgl/lvgl/demos/stress/../../src/misc/lv_anim.h ****  *********************/
  16:Drivers/lvgl/lvgl/demos/stress/../../src/misc/lv_anim.h **** #include "../lv_conf_internal.h"
  17:Drivers/lvgl/lvgl/demos/stress/../../src/misc/lv_anim.h **** 
  18:Drivers/lvgl/lvgl/demos/stress/../../src/misc/lv_anim.h **** #include <stdint.h>
  19:Drivers/lvgl/lvgl/demos/stress/../../src/misc/lv_anim.h **** #include <stdbool.h>
  20:Drivers/lvgl/lvgl/demos/stress/../../src/misc/lv_anim.h **** #include <stddef.h>
  21:Drivers/lvgl/lvgl/demos/stress/../../src/misc/lv_anim.h **** 
  22:Drivers/lvgl/lvgl/demos/stress/../../src/misc/lv_anim.h **** /*********************
  23:Drivers/lvgl/lvgl/demos/stress/../../src/misc/lv_anim.h ****  *      DEFINES
  24:Drivers/lvgl/lvgl/demos/stress/../../src/misc/lv_anim.h ****  *********************/
  25:Drivers/lvgl/lvgl/demos/stress/../../src/misc/lv_anim.h **** 
  26:Drivers/lvgl/lvgl/demos/stress/../../src/misc/lv_anim.h **** #define LV_ANIM_REPEAT_INFINITE      0xFFFF
  27:Drivers/lvgl/lvgl/demos/stress/../../src/misc/lv_anim.h **** #define LV_ANIM_PLAYTIME_INFINITE    0xFFFFFFFF
  28:Drivers/lvgl/lvgl/demos/stress/../../src/misc/lv_anim.h **** 
  29:Drivers/lvgl/lvgl/demos/stress/../../src/misc/lv_anim.h **** LV_EXPORT_CONST_INT(LV_ANIM_REPEAT_INFINITE);
  30:Drivers/lvgl/lvgl/demos/stress/../../src/misc/lv_anim.h **** LV_EXPORT_CONST_INT(LV_ANIM_PLAYTIME_INFINITE);
  31:Drivers/lvgl/lvgl/demos/stress/../../src/misc/lv_anim.h **** 
  32:Drivers/lvgl/lvgl/demos/stress/../../src/misc/lv_anim.h **** /**********************
  33:Drivers/lvgl/lvgl/demos/stress/../../src/misc/lv_anim.h ****  *      TYPEDEFS
  34:Drivers/lvgl/lvgl/demos/stress/../../src/misc/lv_anim.h ****  **********************/
ARM GAS  /tmp/cc9XNXn7.s 			page 10


  35:Drivers/lvgl/lvgl/demos/stress/../../src/misc/lv_anim.h **** 
  36:Drivers/lvgl/lvgl/demos/stress/../../src/misc/lv_anim.h **** /** Can be used to indicate if animations are enabled or disabled in a case*/
  37:Drivers/lvgl/lvgl/demos/stress/../../src/misc/lv_anim.h **** typedef enum {
  38:Drivers/lvgl/lvgl/demos/stress/../../src/misc/lv_anim.h ****     LV_ANIM_OFF,
  39:Drivers/lvgl/lvgl/demos/stress/../../src/misc/lv_anim.h ****     LV_ANIM_ON,
  40:Drivers/lvgl/lvgl/demos/stress/../../src/misc/lv_anim.h **** } lv_anim_enable_t;
  41:Drivers/lvgl/lvgl/demos/stress/../../src/misc/lv_anim.h **** 
  42:Drivers/lvgl/lvgl/demos/stress/../../src/misc/lv_anim.h **** struct _lv_anim_t;
  43:Drivers/lvgl/lvgl/demos/stress/../../src/misc/lv_anim.h **** struct _lv_timer_t;
  44:Drivers/lvgl/lvgl/demos/stress/../../src/misc/lv_anim.h **** 
  45:Drivers/lvgl/lvgl/demos/stress/../../src/misc/lv_anim.h **** /** Get the current value during an animation*/
  46:Drivers/lvgl/lvgl/demos/stress/../../src/misc/lv_anim.h **** typedef int32_t (*lv_anim_path_cb_t)(const struct _lv_anim_t *);
  47:Drivers/lvgl/lvgl/demos/stress/../../src/misc/lv_anim.h **** 
  48:Drivers/lvgl/lvgl/demos/stress/../../src/misc/lv_anim.h **** /** Generic prototype of "animator" functions.
  49:Drivers/lvgl/lvgl/demos/stress/../../src/misc/lv_anim.h ****  * First parameter is the variable to animate.
  50:Drivers/lvgl/lvgl/demos/stress/../../src/misc/lv_anim.h ****  * Second parameter is the value to set.
  51:Drivers/lvgl/lvgl/demos/stress/../../src/misc/lv_anim.h ****  * Compatible with `lv_xxx_set_yyy(obj, value)` functions
  52:Drivers/lvgl/lvgl/demos/stress/../../src/misc/lv_anim.h ****  * The `x` in `_xcb_t` means it's not a fully generic prototype because
  53:Drivers/lvgl/lvgl/demos/stress/../../src/misc/lv_anim.h ****  * it doesn't receive `lv_anim_t *` as its first argument*/
  54:Drivers/lvgl/lvgl/demos/stress/../../src/misc/lv_anim.h **** typedef void (*lv_anim_exec_xcb_t)(void *, int32_t);
  55:Drivers/lvgl/lvgl/demos/stress/../../src/misc/lv_anim.h **** 
  56:Drivers/lvgl/lvgl/demos/stress/../../src/misc/lv_anim.h **** /** Same as `lv_anim_exec_xcb_t` but receives `lv_anim_t *` as the first parameter.
  57:Drivers/lvgl/lvgl/demos/stress/../../src/misc/lv_anim.h ****  * It's more consistent but less convenient. Might be used by binding generator functions.*/
  58:Drivers/lvgl/lvgl/demos/stress/../../src/misc/lv_anim.h **** typedef void (*lv_anim_custom_exec_cb_t)(struct _lv_anim_t *, int32_t);
  59:Drivers/lvgl/lvgl/demos/stress/../../src/misc/lv_anim.h **** 
  60:Drivers/lvgl/lvgl/demos/stress/../../src/misc/lv_anim.h **** /** Callback to call when the animation is ready*/
  61:Drivers/lvgl/lvgl/demos/stress/../../src/misc/lv_anim.h **** typedef void (*lv_anim_ready_cb_t)(struct _lv_anim_t *);
  62:Drivers/lvgl/lvgl/demos/stress/../../src/misc/lv_anim.h **** 
  63:Drivers/lvgl/lvgl/demos/stress/../../src/misc/lv_anim.h **** /** Callback to call when the animation really stars (considering `delay`)*/
  64:Drivers/lvgl/lvgl/demos/stress/../../src/misc/lv_anim.h **** typedef void (*lv_anim_start_cb_t)(struct _lv_anim_t *);
  65:Drivers/lvgl/lvgl/demos/stress/../../src/misc/lv_anim.h **** 
  66:Drivers/lvgl/lvgl/demos/stress/../../src/misc/lv_anim.h **** /** Callback used when the animation values are relative to get the current value*/
  67:Drivers/lvgl/lvgl/demos/stress/../../src/misc/lv_anim.h **** typedef int32_t (*lv_anim_get_value_cb_t)(struct _lv_anim_t *);
  68:Drivers/lvgl/lvgl/demos/stress/../../src/misc/lv_anim.h **** 
  69:Drivers/lvgl/lvgl/demos/stress/../../src/misc/lv_anim.h **** /** Callback used when the animation is deleted*/
  70:Drivers/lvgl/lvgl/demos/stress/../../src/misc/lv_anim.h **** typedef void (*lv_anim_deleted_cb_t)(struct _lv_anim_t *);
  71:Drivers/lvgl/lvgl/demos/stress/../../src/misc/lv_anim.h **** 
  72:Drivers/lvgl/lvgl/demos/stress/../../src/misc/lv_anim.h **** /** Describes an animation*/
  73:Drivers/lvgl/lvgl/demos/stress/../../src/misc/lv_anim.h **** typedef struct _lv_anim_t {
  74:Drivers/lvgl/lvgl/demos/stress/../../src/misc/lv_anim.h ****     void * var;                          /**<Variable to animate*/
  75:Drivers/lvgl/lvgl/demos/stress/../../src/misc/lv_anim.h ****     lv_anim_exec_xcb_t exec_cb;          /**< Function to execute to animate*/
  76:Drivers/lvgl/lvgl/demos/stress/../../src/misc/lv_anim.h ****     lv_anim_start_cb_t start_cb;         /**< Call it when the animation is starts (considering `de
  77:Drivers/lvgl/lvgl/demos/stress/../../src/misc/lv_anim.h ****     lv_anim_ready_cb_t ready_cb;         /**< Call it when the animation is ready*/
  78:Drivers/lvgl/lvgl/demos/stress/../../src/misc/lv_anim.h ****     lv_anim_deleted_cb_t deleted_cb;     /**< Call it when the animation is deleted*/
  79:Drivers/lvgl/lvgl/demos/stress/../../src/misc/lv_anim.h ****     lv_anim_get_value_cb_t get_value_cb; /**< Get the current value in relative mode*/
  80:Drivers/lvgl/lvgl/demos/stress/../../src/misc/lv_anim.h **** #if LV_USE_USER_DATA
  81:Drivers/lvgl/lvgl/demos/stress/../../src/misc/lv_anim.h ****     void * user_data; /**< Custom user data*/
  82:Drivers/lvgl/lvgl/demos/stress/../../src/misc/lv_anim.h **** #endif
  83:Drivers/lvgl/lvgl/demos/stress/../../src/misc/lv_anim.h ****     lv_anim_path_cb_t path_cb;         /**< Describe the path (curve) of animations*/
  84:Drivers/lvgl/lvgl/demos/stress/../../src/misc/lv_anim.h ****     int32_t start_value;               /**< Start value*/
  85:Drivers/lvgl/lvgl/demos/stress/../../src/misc/lv_anim.h ****     int32_t current_value;             /**< Current value*/
  86:Drivers/lvgl/lvgl/demos/stress/../../src/misc/lv_anim.h ****     int32_t end_value;                 /**< End value*/
  87:Drivers/lvgl/lvgl/demos/stress/../../src/misc/lv_anim.h ****     int32_t time;                /**< Animation time in ms*/
  88:Drivers/lvgl/lvgl/demos/stress/../../src/misc/lv_anim.h ****     int32_t act_time;            /**< Current time in animation. Set to negative to make delay.*/
  89:Drivers/lvgl/lvgl/demos/stress/../../src/misc/lv_anim.h ****     uint32_t playback_delay;     /**< Wait before play back*/
  90:Drivers/lvgl/lvgl/demos/stress/../../src/misc/lv_anim.h ****     uint32_t playback_time;      /**< Duration of playback animation*/
  91:Drivers/lvgl/lvgl/demos/stress/../../src/misc/lv_anim.h ****     uint32_t repeat_delay;       /**< Wait before repeat*/
ARM GAS  /tmp/cc9XNXn7.s 			page 11


  92:Drivers/lvgl/lvgl/demos/stress/../../src/misc/lv_anim.h ****     uint16_t repeat_cnt;         /**< Repeat count for the animation*/
  93:Drivers/lvgl/lvgl/demos/stress/../../src/misc/lv_anim.h ****     uint8_t early_apply  : 1;    /**< 1: Apply start value immediately even is there is `delay`*/
  94:Drivers/lvgl/lvgl/demos/stress/../../src/misc/lv_anim.h **** 
  95:Drivers/lvgl/lvgl/demos/stress/../../src/misc/lv_anim.h ****     /*Animation system use these - user shouldn't set*/
  96:Drivers/lvgl/lvgl/demos/stress/../../src/misc/lv_anim.h ****     uint8_t playback_now : 1; /**< Play back is in progress*/
  97:Drivers/lvgl/lvgl/demos/stress/../../src/misc/lv_anim.h ****     uint8_t run_round : 1;    /**< Indicates the animation has run in this round*/
  98:Drivers/lvgl/lvgl/demos/stress/../../src/misc/lv_anim.h ****     uint8_t start_cb_called : 1;    /**< Indicates that the `start_cb` was already called*/
  99:Drivers/lvgl/lvgl/demos/stress/../../src/misc/lv_anim.h **** } lv_anim_t;
 100:Drivers/lvgl/lvgl/demos/stress/../../src/misc/lv_anim.h **** 
 101:Drivers/lvgl/lvgl/demos/stress/../../src/misc/lv_anim.h **** /**********************
 102:Drivers/lvgl/lvgl/demos/stress/../../src/misc/lv_anim.h ****  * GLOBAL PROTOTYPES
 103:Drivers/lvgl/lvgl/demos/stress/../../src/misc/lv_anim.h ****  **********************/
 104:Drivers/lvgl/lvgl/demos/stress/../../src/misc/lv_anim.h **** 
 105:Drivers/lvgl/lvgl/demos/stress/../../src/misc/lv_anim.h **** /**
 106:Drivers/lvgl/lvgl/demos/stress/../../src/misc/lv_anim.h ****  * Init. the animation module
 107:Drivers/lvgl/lvgl/demos/stress/../../src/misc/lv_anim.h ****  */
 108:Drivers/lvgl/lvgl/demos/stress/../../src/misc/lv_anim.h **** void _lv_anim_core_init(void);
 109:Drivers/lvgl/lvgl/demos/stress/../../src/misc/lv_anim.h **** 
 110:Drivers/lvgl/lvgl/demos/stress/../../src/misc/lv_anim.h **** /**
 111:Drivers/lvgl/lvgl/demos/stress/../../src/misc/lv_anim.h ****  * Initialize an animation variable.
 112:Drivers/lvgl/lvgl/demos/stress/../../src/misc/lv_anim.h ****  * E.g.:
 113:Drivers/lvgl/lvgl/demos/stress/../../src/misc/lv_anim.h ****  * lv_anim_t a;
 114:Drivers/lvgl/lvgl/demos/stress/../../src/misc/lv_anim.h ****  * lv_anim_init(&a);
 115:Drivers/lvgl/lvgl/demos/stress/../../src/misc/lv_anim.h ****  * lv_anim_set_...(&a);
 116:Drivers/lvgl/lvgl/demos/stress/../../src/misc/lv_anim.h ****  * lv_anim_start(&a);
 117:Drivers/lvgl/lvgl/demos/stress/../../src/misc/lv_anim.h ****  * @param a     pointer to an `lv_anim_t` variable to initialize
 118:Drivers/lvgl/lvgl/demos/stress/../../src/misc/lv_anim.h ****  */
 119:Drivers/lvgl/lvgl/demos/stress/../../src/misc/lv_anim.h **** void lv_anim_init(lv_anim_t * a);
 120:Drivers/lvgl/lvgl/demos/stress/../../src/misc/lv_anim.h **** 
 121:Drivers/lvgl/lvgl/demos/stress/../../src/misc/lv_anim.h **** /**
 122:Drivers/lvgl/lvgl/demos/stress/../../src/misc/lv_anim.h ****  * Set a variable to animate
 123:Drivers/lvgl/lvgl/demos/stress/../../src/misc/lv_anim.h ****  * @param a     pointer to an initialized `lv_anim_t` variable
 124:Drivers/lvgl/lvgl/demos/stress/../../src/misc/lv_anim.h ****  * @param var   pointer to a variable to animate
 125:Drivers/lvgl/lvgl/demos/stress/../../src/misc/lv_anim.h ****  */
 126:Drivers/lvgl/lvgl/demos/stress/../../src/misc/lv_anim.h **** static inline void lv_anim_set_var(lv_anim_t * a, void * var)
 127:Drivers/lvgl/lvgl/demos/stress/../../src/misc/lv_anim.h **** {
 128:Drivers/lvgl/lvgl/demos/stress/../../src/misc/lv_anim.h ****     a->var = var;
  50              		.loc 2 128 0
  51 000e 0195     		str	r5, [sp, #4]
  52              	.LVL3:
  53              	.LBE68:
  54              	.LBE67:
  55              	.LBB69:
  56              	.LBB70:
 129:Drivers/lvgl/lvgl/demos/stress/../../src/misc/lv_anim.h **** }
 130:Drivers/lvgl/lvgl/demos/stress/../../src/misc/lv_anim.h **** 
 131:Drivers/lvgl/lvgl/demos/stress/../../src/misc/lv_anim.h **** /**
 132:Drivers/lvgl/lvgl/demos/stress/../../src/misc/lv_anim.h ****  * Set a function to animate `var`
 133:Drivers/lvgl/lvgl/demos/stress/../../src/misc/lv_anim.h ****  * @param a         pointer to an initialized `lv_anim_t` variable
 134:Drivers/lvgl/lvgl/demos/stress/../../src/misc/lv_anim.h ****  * @param exec_cb   a function to execute during animation
 135:Drivers/lvgl/lvgl/demos/stress/../../src/misc/lv_anim.h ****  *                  LVGL's built-in functions can be used.
 136:Drivers/lvgl/lvgl/demos/stress/../../src/misc/lv_anim.h ****  *                  E.g. lv_obj_set_x
 137:Drivers/lvgl/lvgl/demos/stress/../../src/misc/lv_anim.h ****  */
 138:Drivers/lvgl/lvgl/demos/stress/../../src/misc/lv_anim.h **** static inline void lv_anim_set_exec_cb(lv_anim_t * a, lv_anim_exec_xcb_t exec_cb)
 139:Drivers/lvgl/lvgl/demos/stress/../../src/misc/lv_anim.h **** {
 140:Drivers/lvgl/lvgl/demos/stress/../../src/misc/lv_anim.h ****     a->exec_cb = exec_cb;
 141:Drivers/lvgl/lvgl/demos/stress/../../src/misc/lv_anim.h **** }
ARM GAS  /tmp/cc9XNXn7.s 			page 12


 142:Drivers/lvgl/lvgl/demos/stress/../../src/misc/lv_anim.h **** 
 143:Drivers/lvgl/lvgl/demos/stress/../../src/misc/lv_anim.h **** /**
 144:Drivers/lvgl/lvgl/demos/stress/../../src/misc/lv_anim.h ****  * Set the duration of an animation
 145:Drivers/lvgl/lvgl/demos/stress/../../src/misc/lv_anim.h ****  * @param a         pointer to an initialized `lv_anim_t` variable
 146:Drivers/lvgl/lvgl/demos/stress/../../src/misc/lv_anim.h ****  * @param duration  duration of the animation in milliseconds
 147:Drivers/lvgl/lvgl/demos/stress/../../src/misc/lv_anim.h ****  */
 148:Drivers/lvgl/lvgl/demos/stress/../../src/misc/lv_anim.h **** static inline void lv_anim_set_time(lv_anim_t * a, uint32_t duration)
 149:Drivers/lvgl/lvgl/demos/stress/../../src/misc/lv_anim.h **** {
 150:Drivers/lvgl/lvgl/demos/stress/../../src/misc/lv_anim.h ****     a->time = duration;
  57              		.loc 2 150 0
  58 0010 0023     		movs	r3, #0
  59 0012 0C93     		str	r3, [sp, #48]
  60              	.LVL4:
  61              	.LBE70:
  62              	.LBE69:
  63              	.LBB71:
  64              	.LBB72:
 151:Drivers/lvgl/lvgl/demos/stress/../../src/misc/lv_anim.h **** }
 152:Drivers/lvgl/lvgl/demos/stress/../../src/misc/lv_anim.h **** 
 153:Drivers/lvgl/lvgl/demos/stress/../../src/misc/lv_anim.h **** /**
 154:Drivers/lvgl/lvgl/demos/stress/../../src/misc/lv_anim.h ****  * Set a delay before starting the animation
 155:Drivers/lvgl/lvgl/demos/stress/../../src/misc/lv_anim.h ****  * @param a         pointer to an initialized `lv_anim_t` variable
 156:Drivers/lvgl/lvgl/demos/stress/../../src/misc/lv_anim.h ****  * @param delay     delay before the animation in milliseconds
 157:Drivers/lvgl/lvgl/demos/stress/../../src/misc/lv_anim.h ****  */
 158:Drivers/lvgl/lvgl/demos/stress/../../src/misc/lv_anim.h **** static inline void lv_anim_set_delay(lv_anim_t * a, uint32_t delay)
 159:Drivers/lvgl/lvgl/demos/stress/../../src/misc/lv_anim.h **** {
 160:Drivers/lvgl/lvgl/demos/stress/../../src/misc/lv_anim.h ****     a->act_time = -(int32_t)(delay);
  65              		.loc 2 160 0
  66 0014 6442     		negs	r4, r4
  67              	.LVL5:
  68 0016 0D94     		str	r4, [sp, #52]
  69              	.LVL6:
  70              	.LBE72:
  71              	.LBE71:
  72              	.LBB73:
  73              	.LBB74:
 161:Drivers/lvgl/lvgl/demos/stress/../../src/misc/lv_anim.h **** }
 162:Drivers/lvgl/lvgl/demos/stress/../../src/misc/lv_anim.h **** 
 163:Drivers/lvgl/lvgl/demos/stress/../../src/misc/lv_anim.h **** /**
 164:Drivers/lvgl/lvgl/demos/stress/../../src/misc/lv_anim.h ****  * Set the start and end values of an animation
 165:Drivers/lvgl/lvgl/demos/stress/../../src/misc/lv_anim.h ****  * @param a         pointer to an initialized `lv_anim_t` variable
 166:Drivers/lvgl/lvgl/demos/stress/../../src/misc/lv_anim.h ****  * @param start     the start value
 167:Drivers/lvgl/lvgl/demos/stress/../../src/misc/lv_anim.h ****  * @param end       the end value
 168:Drivers/lvgl/lvgl/demos/stress/../../src/misc/lv_anim.h ****  */
 169:Drivers/lvgl/lvgl/demos/stress/../../src/misc/lv_anim.h **** static inline void lv_anim_set_values(lv_anim_t * a, int32_t start, int32_t end)
 170:Drivers/lvgl/lvgl/demos/stress/../../src/misc/lv_anim.h **** {
 171:Drivers/lvgl/lvgl/demos/stress/../../src/misc/lv_anim.h ****     a->start_value = start;
 172:Drivers/lvgl/lvgl/demos/stress/../../src/misc/lv_anim.h ****     a->current_value = start;
 173:Drivers/lvgl/lvgl/demos/stress/../../src/misc/lv_anim.h ****     a->end_value = end;
 174:Drivers/lvgl/lvgl/demos/stress/../../src/misc/lv_anim.h **** }
 175:Drivers/lvgl/lvgl/demos/stress/../../src/misc/lv_anim.h **** 
 176:Drivers/lvgl/lvgl/demos/stress/../../src/misc/lv_anim.h **** /**
 177:Drivers/lvgl/lvgl/demos/stress/../../src/misc/lv_anim.h ****  * Similar to `lv_anim_set_exec_cb` but `lv_anim_custom_exec_cb_t` receives
 178:Drivers/lvgl/lvgl/demos/stress/../../src/misc/lv_anim.h ****  * `lv_anim_t * ` as its first parameter instead of `void *`.
 179:Drivers/lvgl/lvgl/demos/stress/../../src/misc/lv_anim.h ****  * This function might be used when LVGL is bound to other languages because
 180:Drivers/lvgl/lvgl/demos/stress/../../src/misc/lv_anim.h ****  * it's more consistent to have `lv_anim_t *` as first parameter.
 181:Drivers/lvgl/lvgl/demos/stress/../../src/misc/lv_anim.h ****  * The variable to animate can be stored in the animation's `user_data`
ARM GAS  /tmp/cc9XNXn7.s 			page 13


 182:Drivers/lvgl/lvgl/demos/stress/../../src/misc/lv_anim.h ****  * @param a         pointer to an initialized `lv_anim_t` variable
 183:Drivers/lvgl/lvgl/demos/stress/../../src/misc/lv_anim.h ****  * @param exec_cb   a function to execute.
 184:Drivers/lvgl/lvgl/demos/stress/../../src/misc/lv_anim.h ****  */
 185:Drivers/lvgl/lvgl/demos/stress/../../src/misc/lv_anim.h **** static inline void lv_anim_set_custom_exec_cb(lv_anim_t * a, lv_anim_custom_exec_cb_t exec_cb)
 186:Drivers/lvgl/lvgl/demos/stress/../../src/misc/lv_anim.h **** {
 187:Drivers/lvgl/lvgl/demos/stress/../../src/misc/lv_anim.h ****     a->var     = a;
 188:Drivers/lvgl/lvgl/demos/stress/../../src/misc/lv_anim.h ****     a->exec_cb = (lv_anim_exec_xcb_t)exec_cb;
 189:Drivers/lvgl/lvgl/demos/stress/../../src/misc/lv_anim.h **** }
 190:Drivers/lvgl/lvgl/demos/stress/../../src/misc/lv_anim.h **** 
 191:Drivers/lvgl/lvgl/demos/stress/../../src/misc/lv_anim.h **** /**
 192:Drivers/lvgl/lvgl/demos/stress/../../src/misc/lv_anim.h ****  * Set the path (curve) of the animation.
 193:Drivers/lvgl/lvgl/demos/stress/../../src/misc/lv_anim.h ****  * @param a         pointer to an initialized `lv_anim_t` variable
 194:Drivers/lvgl/lvgl/demos/stress/../../src/misc/lv_anim.h ****  * @param path_cb a function to set the current value of the animation.
 195:Drivers/lvgl/lvgl/demos/stress/../../src/misc/lv_anim.h ****  */
 196:Drivers/lvgl/lvgl/demos/stress/../../src/misc/lv_anim.h **** static inline void lv_anim_set_path_cb(lv_anim_t * a, lv_anim_path_cb_t path_cb)
 197:Drivers/lvgl/lvgl/demos/stress/../../src/misc/lv_anim.h **** {
 198:Drivers/lvgl/lvgl/demos/stress/../../src/misc/lv_anim.h ****     a->path_cb = path_cb;
 199:Drivers/lvgl/lvgl/demos/stress/../../src/misc/lv_anim.h **** }
 200:Drivers/lvgl/lvgl/demos/stress/../../src/misc/lv_anim.h **** 
 201:Drivers/lvgl/lvgl/demos/stress/../../src/misc/lv_anim.h **** /**
 202:Drivers/lvgl/lvgl/demos/stress/../../src/misc/lv_anim.h ****  * Set a function call when the animation really starts (considering `delay`)
 203:Drivers/lvgl/lvgl/demos/stress/../../src/misc/lv_anim.h ****  * @param a         pointer to an initialized `lv_anim_t` variable
 204:Drivers/lvgl/lvgl/demos/stress/../../src/misc/lv_anim.h ****  * @param start_cb  a function call when the animation starts
 205:Drivers/lvgl/lvgl/demos/stress/../../src/misc/lv_anim.h ****  */
 206:Drivers/lvgl/lvgl/demos/stress/../../src/misc/lv_anim.h **** static inline void lv_anim_set_start_cb(lv_anim_t * a, lv_anim_start_cb_t start_cb)
 207:Drivers/lvgl/lvgl/demos/stress/../../src/misc/lv_anim.h **** {
 208:Drivers/lvgl/lvgl/demos/stress/../../src/misc/lv_anim.h ****     a->start_cb = start_cb;
 209:Drivers/lvgl/lvgl/demos/stress/../../src/misc/lv_anim.h **** }
 210:Drivers/lvgl/lvgl/demos/stress/../../src/misc/lv_anim.h **** 
 211:Drivers/lvgl/lvgl/demos/stress/../../src/misc/lv_anim.h **** /**
 212:Drivers/lvgl/lvgl/demos/stress/../../src/misc/lv_anim.h ****  * Set a function to use the current value of the variable and make start and end value
 213:Drivers/lvgl/lvgl/demos/stress/../../src/misc/lv_anim.h ****  * relative to the returned current value.
 214:Drivers/lvgl/lvgl/demos/stress/../../src/misc/lv_anim.h ****  * @param a             pointer to an initialized `lv_anim_t` variable
 215:Drivers/lvgl/lvgl/demos/stress/../../src/misc/lv_anim.h ****  * @param get_value_cb  a function call when the animation starts
 216:Drivers/lvgl/lvgl/demos/stress/../../src/misc/lv_anim.h ****  */
 217:Drivers/lvgl/lvgl/demos/stress/../../src/misc/lv_anim.h **** static inline void lv_anim_set_get_value_cb(lv_anim_t * a, lv_anim_get_value_cb_t get_value_cb)
 218:Drivers/lvgl/lvgl/demos/stress/../../src/misc/lv_anim.h **** {
 219:Drivers/lvgl/lvgl/demos/stress/../../src/misc/lv_anim.h ****     a->get_value_cb = get_value_cb;
 220:Drivers/lvgl/lvgl/demos/stress/../../src/misc/lv_anim.h **** }
 221:Drivers/lvgl/lvgl/demos/stress/../../src/misc/lv_anim.h **** 
 222:Drivers/lvgl/lvgl/demos/stress/../../src/misc/lv_anim.h **** /**
 223:Drivers/lvgl/lvgl/demos/stress/../../src/misc/lv_anim.h ****  * Set a function call when the animation is ready
 224:Drivers/lvgl/lvgl/demos/stress/../../src/misc/lv_anim.h ****  * @param a         pointer to an initialized `lv_anim_t` variable
 225:Drivers/lvgl/lvgl/demos/stress/../../src/misc/lv_anim.h ****  * @param ready_cb  a function call when the animation is ready
 226:Drivers/lvgl/lvgl/demos/stress/../../src/misc/lv_anim.h ****  */
 227:Drivers/lvgl/lvgl/demos/stress/../../src/misc/lv_anim.h **** static inline void lv_anim_set_ready_cb(lv_anim_t * a, lv_anim_ready_cb_t ready_cb)
 228:Drivers/lvgl/lvgl/demos/stress/../../src/misc/lv_anim.h **** {
 229:Drivers/lvgl/lvgl/demos/stress/../../src/misc/lv_anim.h ****     a->ready_cb = ready_cb;
  74              		.loc 2 229 0
  75 0018 034B     		ldr	r3, .L3
  76 001a 0493     		str	r3, [sp, #16]
  77              	.LVL7:
  78              	.LBE74:
  79              	.LBE73:
 432:Drivers/lvgl/lvgl/demos/stress/lv_demo_stress.c ****     lv_anim_set_var(&a, obj);
 433:Drivers/lvgl/lvgl/demos/stress/lv_demo_stress.c ****     lv_anim_set_time(&a, 0);
 434:Drivers/lvgl/lvgl/demos/stress/lv_demo_stress.c ****     lv_anim_set_delay(&a, delay);
ARM GAS  /tmp/cc9XNXn7.s 			page 14


 435:Drivers/lvgl/lvgl/demos/stress/lv_demo_stress.c ****     lv_anim_set_ready_cb(&a, lv_obj_del_anim_ready_cb);
 436:Drivers/lvgl/lvgl/demos/stress/lv_demo_stress.c ****     lv_anim_start(&a);
  80              		.loc 1 436 0
  81 001c 01A8     		add	r0, sp, #4
  82 001e FFF7FEFF 		bl	lv_anim_start
  83              	.LVL8:
 437:Drivers/lvgl/lvgl/demos/stress/lv_demo_stress.c **** 
 438:Drivers/lvgl/lvgl/demos/stress/lv_demo_stress.c **** }
  84              		.loc 1 438 0
  85 0022 13B0     		add	sp, sp, #76
  86              	.LCFI2:
  87              		.cfi_def_cfa_offset 12
  88              		@ sp needed
  89 0024 30BD     		pop	{r4, r5, pc}
  90              	.LVL9:
  91              	.L4:
  92 0026 00BF     		.align	2
  93              	.L3:
  94 0028 00000000 		.word	lv_obj_del_anim_ready_cb
  95              		.cfi_endproc
  96              	.LFE204:
  98              		.section	.text.msgbox_del,"ax",%progbits
  99              		.align	1
 100              		.syntax unified
 101              		.thumb
 102              		.thumb_func
 103              		.fpu fpv5-d16
 105              	msgbox_del:
 106              	.LFB205:
 439:Drivers/lvgl/lvgl/demos/stress/lv_demo_stress.c **** 
 440:Drivers/lvgl/lvgl/demos/stress/lv_demo_stress.c **** static void msgbox_del(lv_timer_t * tmr)
 441:Drivers/lvgl/lvgl/demos/stress/lv_demo_stress.c **** {
 107              		.loc 1 441 0
 108              		.cfi_startproc
 109              		@ args = 0, pretend = 0, frame = 0
 110              		@ frame_needed = 0, uses_anonymous_args = 0
 111              	.LVL10:
 112 0000 08B5     		push	{r3, lr}
 113              	.LCFI3:
 114              		.cfi_def_cfa_offset 8
 115              		.cfi_offset 3, -8
 116              		.cfi_offset 14, -4
 442:Drivers/lvgl/lvgl/demos/stress/lv_demo_stress.c ****     lv_msgbox_close(tmr->user_data);
 117              		.loc 1 442 0
 118 0002 C068     		ldr	r0, [r0, #12]
 119              	.LVL11:
 120 0004 FFF7FEFF 		bl	lv_msgbox_close
 121              	.LVL12:
 443:Drivers/lvgl/lvgl/demos/stress/lv_demo_stress.c **** }
 122              		.loc 1 443 0
 123 0008 08BD     		pop	{r3, pc}
 124              		.cfi_endproc
 125              	.LFE205:
 127              		.section	.text.arc_set_end_angle_anim,"ax",%progbits
 128              		.align	1
 129              		.syntax unified
 130              		.thumb
ARM GAS  /tmp/cc9XNXn7.s 			page 15


 131              		.thumb_func
 132              		.fpu fpv5-d16
 134              	arc_set_end_angle_anim:
 135              	.LFB208:
 444:Drivers/lvgl/lvgl/demos/stress/lv_demo_stress.c **** 
 445:Drivers/lvgl/lvgl/demos/stress/lv_demo_stress.c **** static void set_y_anim(void * obj, int32_t v)
 446:Drivers/lvgl/lvgl/demos/stress/lv_demo_stress.c **** {
 447:Drivers/lvgl/lvgl/demos/stress/lv_demo_stress.c ****     lv_obj_set_y(obj, v);
 448:Drivers/lvgl/lvgl/demos/stress/lv_demo_stress.c **** }
 449:Drivers/lvgl/lvgl/demos/stress/lv_demo_stress.c **** 
 450:Drivers/lvgl/lvgl/demos/stress/lv_demo_stress.c **** static void set_width_anim(void * obj, int32_t v)
 451:Drivers/lvgl/lvgl/demos/stress/lv_demo_stress.c **** {
 452:Drivers/lvgl/lvgl/demos/stress/lv_demo_stress.c ****     lv_obj_set_width(obj, v);
 453:Drivers/lvgl/lvgl/demos/stress/lv_demo_stress.c **** }
 454:Drivers/lvgl/lvgl/demos/stress/lv_demo_stress.c **** 
 455:Drivers/lvgl/lvgl/demos/stress/lv_demo_stress.c **** static void arc_set_end_angle_anim(void * obj, int32_t v)
 456:Drivers/lvgl/lvgl/demos/stress/lv_demo_stress.c **** {
 136              		.loc 1 456 0
 137              		.cfi_startproc
 138              		@ args = 0, pretend = 0, frame = 0
 139              		@ frame_needed = 0, uses_anonymous_args = 0
 140              	.LVL13:
 141 0000 08B5     		push	{r3, lr}
 142              	.LCFI4:
 143              		.cfi_def_cfa_offset 8
 144              		.cfi_offset 3, -8
 145              		.cfi_offset 14, -4
 457:Drivers/lvgl/lvgl/demos/stress/lv_demo_stress.c ****     lv_arc_set_end_angle(obj, v);
 146              		.loc 1 457 0
 147 0002 89B2     		uxth	r1, r1
 148              	.LVL14:
 149 0004 FFF7FEFF 		bl	lv_arc_set_end_angle
 150              	.LVL15:
 458:Drivers/lvgl/lvgl/demos/stress/lv_demo_stress.c **** }
 151              		.loc 1 458 0
 152 0008 08BD     		pop	{r3, pc}
 153              		.cfi_endproc
 154              	.LFE208:
 156              		.section	.text.set_y_anim,"ax",%progbits
 157              		.align	1
 158              		.syntax unified
 159              		.thumb
 160              		.thumb_func
 161              		.fpu fpv5-d16
 163              	set_y_anim:
 164              	.LFB206:
 446:Drivers/lvgl/lvgl/demos/stress/lv_demo_stress.c ****     lv_obj_set_y(obj, v);
 165              		.loc 1 446 0
 166              		.cfi_startproc
 167              		@ args = 0, pretend = 0, frame = 0
 168              		@ frame_needed = 0, uses_anonymous_args = 0
 169              	.LVL16:
 170 0000 08B5     		push	{r3, lr}
 171              	.LCFI5:
 172              		.cfi_def_cfa_offset 8
 173              		.cfi_offset 3, -8
 174              		.cfi_offset 14, -4
ARM GAS  /tmp/cc9XNXn7.s 			page 16


 447:Drivers/lvgl/lvgl/demos/stress/lv_demo_stress.c **** }
 175              		.loc 1 447 0
 176 0002 09B2     		sxth	r1, r1
 177              	.LVL17:
 178 0004 FFF7FEFF 		bl	lv_obj_set_y
 179              	.LVL18:
 448:Drivers/lvgl/lvgl/demos/stress/lv_demo_stress.c **** 
 180              		.loc 1 448 0
 181 0008 08BD     		pop	{r3, pc}
 182              		.cfi_endproc
 183              	.LFE206:
 185              		.section	.text.set_width_anim,"ax",%progbits
 186              		.align	1
 187              		.syntax unified
 188              		.thumb
 189              		.thumb_func
 190              		.fpu fpv5-d16
 192              	set_width_anim:
 193              	.LFB207:
 451:Drivers/lvgl/lvgl/demos/stress/lv_demo_stress.c ****     lv_obj_set_width(obj, v);
 194              		.loc 1 451 0
 195              		.cfi_startproc
 196              		@ args = 0, pretend = 0, frame = 0
 197              		@ frame_needed = 0, uses_anonymous_args = 0
 198              	.LVL19:
 199 0000 08B5     		push	{r3, lr}
 200              	.LCFI6:
 201              		.cfi_def_cfa_offset 8
 202              		.cfi_offset 3, -8
 203              		.cfi_offset 14, -4
 452:Drivers/lvgl/lvgl/demos/stress/lv_demo_stress.c **** }
 204              		.loc 1 452 0
 205 0002 09B2     		sxth	r1, r1
 206              	.LVL20:
 207 0004 FFF7FEFF 		bl	lv_obj_set_width
 208              	.LVL21:
 453:Drivers/lvgl/lvgl/demos/stress/lv_demo_stress.c **** 
 209              		.loc 1 453 0
 210 0008 08BD     		pop	{r3, pc}
 211              		.cfi_endproc
 212              	.LFE207:
 214              		.section	.text.obj_test_task_cb,"ax",%progbits
 215              		.align	1
 216              		.syntax unified
 217              		.thumb
 218              		.thumb_func
 219              		.fpu fpv5-d16
 221              	obj_test_task_cb:
 222              	.LFB203:
  56:Drivers/lvgl/lvgl/demos/stress/lv_demo_stress.c ****     (void) tmr;    /*Unused*/
 223              		.loc 1 56 0
 224              		.cfi_startproc
 225              		@ args = 0, pretend = 0, frame = 96
 226              		@ frame_needed = 0, uses_anonymous_args = 0
 227              	.LVL22:
 228 0000 70B5     		push	{r4, r5, r6, lr}
 229              	.LCFI7:
ARM GAS  /tmp/cc9XNXn7.s 			page 17


 230              		.cfi_def_cfa_offset 16
 231              		.cfi_offset 4, -16
 232              		.cfi_offset 5, -12
 233              		.cfi_offset 6, -8
 234              		.cfi_offset 14, -4
 235 0002 9AB0     		sub	sp, sp, #104
 236              	.LCFI8:
 237              		.cfi_def_cfa_offset 120
  65:Drivers/lvgl/lvgl/demos/stress/lv_demo_stress.c ****         case -1: {
 238              		.loc 1 65 0
 239 0004 B74B     		ldr	r3, .L61
 240 0006 B3F90030 		ldrsh	r3, [r3]
 241 000a 0133     		adds	r3, r3, #1
 242 000c 202B     		cmp	r3, #32
 243 000e 5CD8     		bhi	.L14
 244 0010 DFE813F0 		tbh	[pc, r3, lsl #1]
 245              	.L16:
 246 0014 2100     		.2byte	(.L15-.L16)/2
 247 0016 2D00     		.2byte	(.L17-.L16)/2
 248 0018 6300     		.2byte	(.L18-.L16)/2
 249 001a AE00     		.2byte	(.L19-.L16)/2
 250 001c DD00     		.2byte	(.L20-.L16)/2
 251 001e 0C01     		.2byte	(.L21-.L16)/2
 252 0020 1E01     		.2byte	(.L22-.L16)/2
 253 0022 2401     		.2byte	(.L23-.L16)/2
 254 0024 2A01     		.2byte	(.L24-.L16)/2
 255 0026 8A01     		.2byte	(.L25-.L16)/2
 256 0028 CA01     		.2byte	(.L26-.L16)/2
 257 002a D001     		.2byte	(.L27-.L16)/2
 258 002c FB01     		.2byte	(.L28-.L16)/2
 259 002e 0F02     		.2byte	(.L29-.L16)/2
 260 0030 2302     		.2byte	(.L30-.L16)/2
 261 0032 5E02     		.2byte	(.L31-.L16)/2
 262 0034 7802     		.2byte	(.L32-.L16)/2
 263 0036 7E02     		.2byte	(.L33-.L16)/2
 264 0038 5B00     		.2byte	(.L14-.L16)/2
 265 003a B502     		.2byte	(.L34-.L16)/2
 266 003c 1703     		.2byte	(.L35-.L16)/2
 267 003e 2103     		.2byte	(.L36-.L16)/2
 268 0040 6203     		.2byte	(.L37-.L16)/2
 269 0042 BC03     		.2byte	(.L38-.L16)/2
 270 0044 F603     		.2byte	(.L39-.L16)/2
 271 0046 4304     		.2byte	(.L40-.L16)/2
 272 0048 6804     		.2byte	(.L41-.L16)/2
 273 004a 7904     		.2byte	(.L42-.L16)/2
 274 004c 5B00     		.2byte	(.L14-.L16)/2
 275 004e 5B00     		.2byte	(.L14-.L16)/2
 276 0050 8004     		.2byte	(.L43-.L16)/2
 277 0052 5B00     		.2byte	(.L14-.L16)/2
 278 0054 8C04     		.2byte	(.L44-.L16)/2
 279              		.p2align 1
 280              	.L15:
 281              	.LBB75:
 282              	.LBB76:
  67:Drivers/lvgl/lvgl/demos/stress/lv_demo_stress.c ****                 if(res != LV_RES_OK) {
 283              		.loc 1 67 0
 284 0056 FFF7FEFF 		bl	lv_mem_test
ARM GAS  /tmp/cc9XNXn7.s 			page 18


 285              	.LVL23:
  73:Drivers/lvgl/lvgl/demos/stress/lv_demo_stress.c **** 
 286              		.loc 1 73 0
 287 005a 02A8     		add	r0, sp, #8
 288 005c FFF7FEFF 		bl	lv_mem_monitor
 289              	.LVL24:
  75:Drivers/lvgl/lvgl/demos/stress/lv_demo_stress.c **** 
 290              		.loc 1 75 0
 291 0060 A14B     		ldr	r3, .L61+4
 292 0062 1B68     		ldr	r3, [r3]
 293 0064 8BBB     		cbnz	r3, .L14
  75:Drivers/lvgl/lvgl/demos/stress/lv_demo_stress.c **** 
 294              		.loc 1 75 0 is_stmt 0 discriminator 1
 295 0066 049A     		ldr	r2, [sp, #16]
 296 0068 9F4B     		ldr	r3, .L61+4
 297 006a 1A60     		str	r2, [r3]
 298              	.LBE76:
  79:Drivers/lvgl/lvgl/demos/stress/lv_demo_stress.c ****         case 0:
 299              		.loc 1 79 0 is_stmt 1 discriminator 1
 300 006c 2DE0     		b	.L14
 301              	.LVL25:
 302              	.L17:
 303              	.LBB77:
 304              	.LBB78:
 305              		.file 3 "Drivers/lvgl/lvgl/demos/stress/../../src/core/lv_disp.h"
   1:Drivers/lvgl/lvgl/demos/stress/../../src/core/lv_disp.h **** /**
   2:Drivers/lvgl/lvgl/demos/stress/../../src/core/lv_disp.h ****  * @file lv_disp.h
   3:Drivers/lvgl/lvgl/demos/stress/../../src/core/lv_disp.h ****  *
   4:Drivers/lvgl/lvgl/demos/stress/../../src/core/lv_disp.h ****  */
   5:Drivers/lvgl/lvgl/demos/stress/../../src/core/lv_disp.h **** 
   6:Drivers/lvgl/lvgl/demos/stress/../../src/core/lv_disp.h **** #ifndef LV_DISP_H
   7:Drivers/lvgl/lvgl/demos/stress/../../src/core/lv_disp.h **** #define LV_DISP_H
   8:Drivers/lvgl/lvgl/demos/stress/../../src/core/lv_disp.h **** 
   9:Drivers/lvgl/lvgl/demos/stress/../../src/core/lv_disp.h **** #ifdef __cplusplus
  10:Drivers/lvgl/lvgl/demos/stress/../../src/core/lv_disp.h **** extern "C" {
  11:Drivers/lvgl/lvgl/demos/stress/../../src/core/lv_disp.h **** #endif
  12:Drivers/lvgl/lvgl/demos/stress/../../src/core/lv_disp.h **** 
  13:Drivers/lvgl/lvgl/demos/stress/../../src/core/lv_disp.h **** /*********************
  14:Drivers/lvgl/lvgl/demos/stress/../../src/core/lv_disp.h ****  *      INCLUDES
  15:Drivers/lvgl/lvgl/demos/stress/../../src/core/lv_disp.h ****  *********************/
  16:Drivers/lvgl/lvgl/demos/stress/../../src/core/lv_disp.h **** #include "../hal/lv_hal.h"
  17:Drivers/lvgl/lvgl/demos/stress/../../src/core/lv_disp.h **** #include "lv_obj.h"
  18:Drivers/lvgl/lvgl/demos/stress/../../src/core/lv_disp.h **** #include "lv_theme.h"
  19:Drivers/lvgl/lvgl/demos/stress/../../src/core/lv_disp.h **** 
  20:Drivers/lvgl/lvgl/demos/stress/../../src/core/lv_disp.h **** /*********************
  21:Drivers/lvgl/lvgl/demos/stress/../../src/core/lv_disp.h ****  *      DEFINES
  22:Drivers/lvgl/lvgl/demos/stress/../../src/core/lv_disp.h ****  *********************/
  23:Drivers/lvgl/lvgl/demos/stress/../../src/core/lv_disp.h **** 
  24:Drivers/lvgl/lvgl/demos/stress/../../src/core/lv_disp.h **** /**********************
  25:Drivers/lvgl/lvgl/demos/stress/../../src/core/lv_disp.h ****  *      TYPEDEFS
  26:Drivers/lvgl/lvgl/demos/stress/../../src/core/lv_disp.h ****  **********************/
  27:Drivers/lvgl/lvgl/demos/stress/../../src/core/lv_disp.h **** 
  28:Drivers/lvgl/lvgl/demos/stress/../../src/core/lv_disp.h **** typedef enum {
  29:Drivers/lvgl/lvgl/demos/stress/../../src/core/lv_disp.h ****     LV_SCR_LOAD_ANIM_NONE,
  30:Drivers/lvgl/lvgl/demos/stress/../../src/core/lv_disp.h ****     LV_SCR_LOAD_ANIM_OVER_LEFT,
  31:Drivers/lvgl/lvgl/demos/stress/../../src/core/lv_disp.h ****     LV_SCR_LOAD_ANIM_OVER_RIGHT,
  32:Drivers/lvgl/lvgl/demos/stress/../../src/core/lv_disp.h ****     LV_SCR_LOAD_ANIM_OVER_TOP,
ARM GAS  /tmp/cc9XNXn7.s 			page 19


  33:Drivers/lvgl/lvgl/demos/stress/../../src/core/lv_disp.h ****     LV_SCR_LOAD_ANIM_OVER_BOTTOM,
  34:Drivers/lvgl/lvgl/demos/stress/../../src/core/lv_disp.h ****     LV_SCR_LOAD_ANIM_MOVE_LEFT,
  35:Drivers/lvgl/lvgl/demos/stress/../../src/core/lv_disp.h ****     LV_SCR_LOAD_ANIM_MOVE_RIGHT,
  36:Drivers/lvgl/lvgl/demos/stress/../../src/core/lv_disp.h ****     LV_SCR_LOAD_ANIM_MOVE_TOP,
  37:Drivers/lvgl/lvgl/demos/stress/../../src/core/lv_disp.h ****     LV_SCR_LOAD_ANIM_MOVE_BOTTOM,
  38:Drivers/lvgl/lvgl/demos/stress/../../src/core/lv_disp.h ****     LV_SCR_LOAD_ANIM_FADE_IN,
  39:Drivers/lvgl/lvgl/demos/stress/../../src/core/lv_disp.h ****     LV_SCR_LOAD_ANIM_FADE_ON = LV_SCR_LOAD_ANIM_FADE_IN, /*For backward compatibility*/
  40:Drivers/lvgl/lvgl/demos/stress/../../src/core/lv_disp.h ****     LV_SCR_LOAD_ANIM_FADE_OUT,
  41:Drivers/lvgl/lvgl/demos/stress/../../src/core/lv_disp.h ****     LV_SCR_LOAD_ANIM_OUT_LEFT,
  42:Drivers/lvgl/lvgl/demos/stress/../../src/core/lv_disp.h ****     LV_SCR_LOAD_ANIM_OUT_RIGHT,
  43:Drivers/lvgl/lvgl/demos/stress/../../src/core/lv_disp.h ****     LV_SCR_LOAD_ANIM_OUT_TOP,
  44:Drivers/lvgl/lvgl/demos/stress/../../src/core/lv_disp.h ****     LV_SCR_LOAD_ANIM_OUT_BOTTOM,
  45:Drivers/lvgl/lvgl/demos/stress/../../src/core/lv_disp.h **** } lv_scr_load_anim_t;
  46:Drivers/lvgl/lvgl/demos/stress/../../src/core/lv_disp.h **** 
  47:Drivers/lvgl/lvgl/demos/stress/../../src/core/lv_disp.h **** /**********************
  48:Drivers/lvgl/lvgl/demos/stress/../../src/core/lv_disp.h ****  * GLOBAL PROTOTYPES
  49:Drivers/lvgl/lvgl/demos/stress/../../src/core/lv_disp.h ****  **********************/
  50:Drivers/lvgl/lvgl/demos/stress/../../src/core/lv_disp.h **** 
  51:Drivers/lvgl/lvgl/demos/stress/../../src/core/lv_disp.h **** /**
  52:Drivers/lvgl/lvgl/demos/stress/../../src/core/lv_disp.h ****  * Return with a pointer to the active screen
  53:Drivers/lvgl/lvgl/demos/stress/../../src/core/lv_disp.h ****  * @param disp pointer to display which active screen should be get. (NULL to use the default
  54:Drivers/lvgl/lvgl/demos/stress/../../src/core/lv_disp.h ****  * screen)
  55:Drivers/lvgl/lvgl/demos/stress/../../src/core/lv_disp.h ****  * @return pointer to the active screen object (loaded by 'lv_scr_load()')
  56:Drivers/lvgl/lvgl/demos/stress/../../src/core/lv_disp.h ****  */
  57:Drivers/lvgl/lvgl/demos/stress/../../src/core/lv_disp.h **** lv_obj_t * lv_disp_get_scr_act(lv_disp_t * disp);
  58:Drivers/lvgl/lvgl/demos/stress/../../src/core/lv_disp.h **** 
  59:Drivers/lvgl/lvgl/demos/stress/../../src/core/lv_disp.h **** /**
  60:Drivers/lvgl/lvgl/demos/stress/../../src/core/lv_disp.h ****  * Return with a pointer to the previous screen. Only used during screen transitions.
  61:Drivers/lvgl/lvgl/demos/stress/../../src/core/lv_disp.h ****  * @param disp pointer to display which previous screen should be get. (NULL to use the default
  62:Drivers/lvgl/lvgl/demos/stress/../../src/core/lv_disp.h ****  * screen)
  63:Drivers/lvgl/lvgl/demos/stress/../../src/core/lv_disp.h ****  * @return pointer to the previous screen object or NULL if not used now
  64:Drivers/lvgl/lvgl/demos/stress/../../src/core/lv_disp.h ****  */
  65:Drivers/lvgl/lvgl/demos/stress/../../src/core/lv_disp.h **** lv_obj_t * lv_disp_get_scr_prev(lv_disp_t * disp);
  66:Drivers/lvgl/lvgl/demos/stress/../../src/core/lv_disp.h **** 
  67:Drivers/lvgl/lvgl/demos/stress/../../src/core/lv_disp.h **** /**
  68:Drivers/lvgl/lvgl/demos/stress/../../src/core/lv_disp.h ****  * Make a screen active
  69:Drivers/lvgl/lvgl/demos/stress/../../src/core/lv_disp.h ****  * @param scr pointer to a screen
  70:Drivers/lvgl/lvgl/demos/stress/../../src/core/lv_disp.h ****  */
  71:Drivers/lvgl/lvgl/demos/stress/../../src/core/lv_disp.h **** void lv_disp_load_scr(lv_obj_t * scr);
  72:Drivers/lvgl/lvgl/demos/stress/../../src/core/lv_disp.h **** 
  73:Drivers/lvgl/lvgl/demos/stress/../../src/core/lv_disp.h **** /**
  74:Drivers/lvgl/lvgl/demos/stress/../../src/core/lv_disp.h ****  * Return with the top layer. (Same on every screen and it is above the normal screen layer)
  75:Drivers/lvgl/lvgl/demos/stress/../../src/core/lv_disp.h ****  * @param disp pointer to display which top layer should be get. (NULL to use the default screen)
  76:Drivers/lvgl/lvgl/demos/stress/../../src/core/lv_disp.h ****  * @return pointer to the top layer object (transparent screen sized lv_obj)
  77:Drivers/lvgl/lvgl/demos/stress/../../src/core/lv_disp.h ****  */
  78:Drivers/lvgl/lvgl/demos/stress/../../src/core/lv_disp.h **** lv_obj_t * lv_disp_get_layer_top(lv_disp_t * disp);
  79:Drivers/lvgl/lvgl/demos/stress/../../src/core/lv_disp.h **** 
  80:Drivers/lvgl/lvgl/demos/stress/../../src/core/lv_disp.h **** /**
  81:Drivers/lvgl/lvgl/demos/stress/../../src/core/lv_disp.h ****  * Return with the sys. layer. (Same on every screen and it is above the normal screen and the top
  82:Drivers/lvgl/lvgl/demos/stress/../../src/core/lv_disp.h ****  * layer)
  83:Drivers/lvgl/lvgl/demos/stress/../../src/core/lv_disp.h ****  * @param disp pointer to display which sys. layer should be retrieved. (NULL to use the default sc
  84:Drivers/lvgl/lvgl/demos/stress/../../src/core/lv_disp.h ****  * @return pointer to the sys layer object (transparent screen sized lv_obj)
  85:Drivers/lvgl/lvgl/demos/stress/../../src/core/lv_disp.h ****  */
  86:Drivers/lvgl/lvgl/demos/stress/../../src/core/lv_disp.h **** lv_obj_t * lv_disp_get_layer_sys(lv_disp_t * disp);
  87:Drivers/lvgl/lvgl/demos/stress/../../src/core/lv_disp.h **** 
  88:Drivers/lvgl/lvgl/demos/stress/../../src/core/lv_disp.h **** /**
  89:Drivers/lvgl/lvgl/demos/stress/../../src/core/lv_disp.h ****  * Set the theme of a display
ARM GAS  /tmp/cc9XNXn7.s 			page 20


  90:Drivers/lvgl/lvgl/demos/stress/../../src/core/lv_disp.h ****  * @param disp pointer to a display
  91:Drivers/lvgl/lvgl/demos/stress/../../src/core/lv_disp.h ****  */
  92:Drivers/lvgl/lvgl/demos/stress/../../src/core/lv_disp.h **** void lv_disp_set_theme(lv_disp_t * disp, lv_theme_t * th);
  93:Drivers/lvgl/lvgl/demos/stress/../../src/core/lv_disp.h **** 
  94:Drivers/lvgl/lvgl/demos/stress/../../src/core/lv_disp.h **** /**
  95:Drivers/lvgl/lvgl/demos/stress/../../src/core/lv_disp.h ****  * Get the theme of a display
  96:Drivers/lvgl/lvgl/demos/stress/../../src/core/lv_disp.h ****  * @param disp pointer to a display
  97:Drivers/lvgl/lvgl/demos/stress/../../src/core/lv_disp.h ****  * @return the display's theme (can be NULL)
  98:Drivers/lvgl/lvgl/demos/stress/../../src/core/lv_disp.h ****  */
  99:Drivers/lvgl/lvgl/demos/stress/../../src/core/lv_disp.h **** lv_theme_t * lv_disp_get_theme(lv_disp_t * disp);
 100:Drivers/lvgl/lvgl/demos/stress/../../src/core/lv_disp.h **** 
 101:Drivers/lvgl/lvgl/demos/stress/../../src/core/lv_disp.h **** /**
 102:Drivers/lvgl/lvgl/demos/stress/../../src/core/lv_disp.h ****  * Set the background color of a display
 103:Drivers/lvgl/lvgl/demos/stress/../../src/core/lv_disp.h ****  * @param disp pointer to a display
 104:Drivers/lvgl/lvgl/demos/stress/../../src/core/lv_disp.h ****  * @param color color of the background
 105:Drivers/lvgl/lvgl/demos/stress/../../src/core/lv_disp.h ****  */
 106:Drivers/lvgl/lvgl/demos/stress/../../src/core/lv_disp.h **** void lv_disp_set_bg_color(lv_disp_t * disp, lv_color_t color);
 107:Drivers/lvgl/lvgl/demos/stress/../../src/core/lv_disp.h **** 
 108:Drivers/lvgl/lvgl/demos/stress/../../src/core/lv_disp.h **** /**
 109:Drivers/lvgl/lvgl/demos/stress/../../src/core/lv_disp.h ****  * Set the background image of a display
 110:Drivers/lvgl/lvgl/demos/stress/../../src/core/lv_disp.h ****  * @param disp pointer to a display
 111:Drivers/lvgl/lvgl/demos/stress/../../src/core/lv_disp.h ****  * @param img_src path to file or pointer to an `lv_img_dsc_t` variable
 112:Drivers/lvgl/lvgl/demos/stress/../../src/core/lv_disp.h ****  */
 113:Drivers/lvgl/lvgl/demos/stress/../../src/core/lv_disp.h **** void lv_disp_set_bg_image(lv_disp_t * disp, const void  * img_src);
 114:Drivers/lvgl/lvgl/demos/stress/../../src/core/lv_disp.h **** 
 115:Drivers/lvgl/lvgl/demos/stress/../../src/core/lv_disp.h **** /**
 116:Drivers/lvgl/lvgl/demos/stress/../../src/core/lv_disp.h ****  * Set opacity of the background
 117:Drivers/lvgl/lvgl/demos/stress/../../src/core/lv_disp.h ****  * @param disp pointer to a display
 118:Drivers/lvgl/lvgl/demos/stress/../../src/core/lv_disp.h ****  * @param opa opacity (0..255)
 119:Drivers/lvgl/lvgl/demos/stress/../../src/core/lv_disp.h ****  */
 120:Drivers/lvgl/lvgl/demos/stress/../../src/core/lv_disp.h **** void lv_disp_set_bg_opa(lv_disp_t * disp, lv_opa_t opa);
 121:Drivers/lvgl/lvgl/demos/stress/../../src/core/lv_disp.h **** 
 122:Drivers/lvgl/lvgl/demos/stress/../../src/core/lv_disp.h **** /**
 123:Drivers/lvgl/lvgl/demos/stress/../../src/core/lv_disp.h ****  * Switch screen with animation
 124:Drivers/lvgl/lvgl/demos/stress/../../src/core/lv_disp.h ****  * @param scr pointer to the new screen to load
 125:Drivers/lvgl/lvgl/demos/stress/../../src/core/lv_disp.h ****  * @param anim_type type of the animation from `lv_scr_load_anim_t`, e.g. `LV_SCR_LOAD_ANIM_MOVE_LE
 126:Drivers/lvgl/lvgl/demos/stress/../../src/core/lv_disp.h ****  * @param time time of the animation
 127:Drivers/lvgl/lvgl/demos/stress/../../src/core/lv_disp.h ****  * @param delay delay before the transition
 128:Drivers/lvgl/lvgl/demos/stress/../../src/core/lv_disp.h ****  * @param auto_del true: automatically delete the old screen
 129:Drivers/lvgl/lvgl/demos/stress/../../src/core/lv_disp.h ****  */
 130:Drivers/lvgl/lvgl/demos/stress/../../src/core/lv_disp.h **** void lv_scr_load_anim(lv_obj_t * scr, lv_scr_load_anim_t anim_type, uint32_t time, uint32_t delay, 
 131:Drivers/lvgl/lvgl/demos/stress/../../src/core/lv_disp.h **** 
 132:Drivers/lvgl/lvgl/demos/stress/../../src/core/lv_disp.h **** /**
 133:Drivers/lvgl/lvgl/demos/stress/../../src/core/lv_disp.h ****  * Get elapsed time since last user activity on a display (e.g. click)
 134:Drivers/lvgl/lvgl/demos/stress/../../src/core/lv_disp.h ****  * @param disp pointer to a display (NULL to get the overall smallest inactivity)
 135:Drivers/lvgl/lvgl/demos/stress/../../src/core/lv_disp.h ****  * @return elapsed ticks (milliseconds) since the last activity
 136:Drivers/lvgl/lvgl/demos/stress/../../src/core/lv_disp.h ****  */
 137:Drivers/lvgl/lvgl/demos/stress/../../src/core/lv_disp.h **** uint32_t lv_disp_get_inactive_time(const lv_disp_t * disp);
 138:Drivers/lvgl/lvgl/demos/stress/../../src/core/lv_disp.h **** 
 139:Drivers/lvgl/lvgl/demos/stress/../../src/core/lv_disp.h **** /**
 140:Drivers/lvgl/lvgl/demos/stress/../../src/core/lv_disp.h ****  * Manually trigger an activity on a display
 141:Drivers/lvgl/lvgl/demos/stress/../../src/core/lv_disp.h ****  * @param disp pointer to a display (NULL to use the default display)
 142:Drivers/lvgl/lvgl/demos/stress/../../src/core/lv_disp.h ****  */
 143:Drivers/lvgl/lvgl/demos/stress/../../src/core/lv_disp.h **** void lv_disp_trig_activity(lv_disp_t * disp);
 144:Drivers/lvgl/lvgl/demos/stress/../../src/core/lv_disp.h **** 
 145:Drivers/lvgl/lvgl/demos/stress/../../src/core/lv_disp.h **** /**
 146:Drivers/lvgl/lvgl/demos/stress/../../src/core/lv_disp.h ****  * Clean any CPU cache that is related to the display.
ARM GAS  /tmp/cc9XNXn7.s 			page 21


 147:Drivers/lvgl/lvgl/demos/stress/../../src/core/lv_disp.h ****  * @param disp pointer to a display (NULL to use the default display)
 148:Drivers/lvgl/lvgl/demos/stress/../../src/core/lv_disp.h ****  */
 149:Drivers/lvgl/lvgl/demos/stress/../../src/core/lv_disp.h **** void lv_disp_clean_dcache(lv_disp_t * disp);
 150:Drivers/lvgl/lvgl/demos/stress/../../src/core/lv_disp.h **** 
 151:Drivers/lvgl/lvgl/demos/stress/../../src/core/lv_disp.h **** /**
 152:Drivers/lvgl/lvgl/demos/stress/../../src/core/lv_disp.h ****  * Temporarily enable and disable the invalidation of the display.
 153:Drivers/lvgl/lvgl/demos/stress/../../src/core/lv_disp.h ****  * @param disp pointer to a display (NULL to use the default display)
 154:Drivers/lvgl/lvgl/demos/stress/../../src/core/lv_disp.h ****  * @param en true: enable invalidation; false: invalidation
 155:Drivers/lvgl/lvgl/demos/stress/../../src/core/lv_disp.h ****  */
 156:Drivers/lvgl/lvgl/demos/stress/../../src/core/lv_disp.h **** void lv_disp_enable_invalidation(lv_disp_t * disp, bool en);
 157:Drivers/lvgl/lvgl/demos/stress/../../src/core/lv_disp.h **** 
 158:Drivers/lvgl/lvgl/demos/stress/../../src/core/lv_disp.h **** /**
 159:Drivers/lvgl/lvgl/demos/stress/../../src/core/lv_disp.h ****  * Get display invalidation is enabled.
 160:Drivers/lvgl/lvgl/demos/stress/../../src/core/lv_disp.h ****  * @param disp pointer to a display (NULL to use the default display)
 161:Drivers/lvgl/lvgl/demos/stress/../../src/core/lv_disp.h ****  * @return return true if invalidation is enabled
 162:Drivers/lvgl/lvgl/demos/stress/../../src/core/lv_disp.h ****  */
 163:Drivers/lvgl/lvgl/demos/stress/../../src/core/lv_disp.h **** bool lv_disp_is_invalidation_enabled(lv_disp_t * disp);
 164:Drivers/lvgl/lvgl/demos/stress/../../src/core/lv_disp.h **** 
 165:Drivers/lvgl/lvgl/demos/stress/../../src/core/lv_disp.h **** /**
 166:Drivers/lvgl/lvgl/demos/stress/../../src/core/lv_disp.h ****  * Get a pointer to the screen refresher timer to
 167:Drivers/lvgl/lvgl/demos/stress/../../src/core/lv_disp.h ****  * modify its parameters with `lv_timer_...` functions.
 168:Drivers/lvgl/lvgl/demos/stress/../../src/core/lv_disp.h ****  * @param disp pointer to a display
 169:Drivers/lvgl/lvgl/demos/stress/../../src/core/lv_disp.h ****  * @return pointer to the display refresher timer. (NULL on error)
 170:Drivers/lvgl/lvgl/demos/stress/../../src/core/lv_disp.h ****  */
 171:Drivers/lvgl/lvgl/demos/stress/../../src/core/lv_disp.h **** lv_timer_t * _lv_disp_get_refr_timer(lv_disp_t * disp);
 172:Drivers/lvgl/lvgl/demos/stress/../../src/core/lv_disp.h **** 
 173:Drivers/lvgl/lvgl/demos/stress/../../src/core/lv_disp.h **** /*------------------------------------------------
 174:Drivers/lvgl/lvgl/demos/stress/../../src/core/lv_disp.h ****  * To improve backward compatibility
 175:Drivers/lvgl/lvgl/demos/stress/../../src/core/lv_disp.h ****  * Recommended only if you have one display
 176:Drivers/lvgl/lvgl/demos/stress/../../src/core/lv_disp.h ****  *------------------------------------------------*/
 177:Drivers/lvgl/lvgl/demos/stress/../../src/core/lv_disp.h **** 
 178:Drivers/lvgl/lvgl/demos/stress/../../src/core/lv_disp.h **** /**
 179:Drivers/lvgl/lvgl/demos/stress/../../src/core/lv_disp.h ****  * Get the active screen of the default display
 180:Drivers/lvgl/lvgl/demos/stress/../../src/core/lv_disp.h ****  * @return pointer to the active screen
 181:Drivers/lvgl/lvgl/demos/stress/../../src/core/lv_disp.h ****  */
 182:Drivers/lvgl/lvgl/demos/stress/../../src/core/lv_disp.h **** static inline lv_obj_t * lv_scr_act(void)
 183:Drivers/lvgl/lvgl/demos/stress/../../src/core/lv_disp.h **** {
 184:Drivers/lvgl/lvgl/demos/stress/../../src/core/lv_disp.h ****     return lv_disp_get_scr_act(lv_disp_get_default());
 306              		.loc 3 184 0
 307 006e FFF7FEFF 		bl	lv_disp_get_default
 308              	.LVL26:
 309 0072 FFF7FEFF 		bl	lv_disp_get_scr_act
 310              	.LVL27:
 311              	.LBE78:
 312              	.LBE77:
  82:Drivers/lvgl/lvgl/demos/stress/lv_demo_stress.c ****             lv_obj_set_size(main_page, LV_HOR_RES / 2, LV_VER_RES);
 313              		.loc 1 82 0
 314 0076 FFF7FEFF 		bl	lv_obj_create
 315              	.LVL28:
 316 007a 0546     		mov	r5, r0
 317 007c 9B4B     		ldr	r3, .L61+8
 318 007e 1860     		str	r0, [r3]
  83:Drivers/lvgl/lvgl/demos/stress/lv_demo_stress.c ****             lv_obj_set_flex_flow(main_page, LV_FLEX_FLOW_COLUMN);
 319              		.loc 1 83 0
 320 0080 FFF7FEFF 		bl	lv_disp_get_default
 321              	.LVL29:
 322 0084 FFF7FEFF 		bl	lv_disp_get_hor_res
ARM GAS  /tmp/cc9XNXn7.s 			page 22


 323              	.LVL30:
 324 0088 0446     		mov	r4, r0
 325 008a FFF7FEFF 		bl	lv_disp_get_default
 326              	.LVL31:
 327 008e FFF7FEFF 		bl	lv_disp_get_ver_res
 328              	.LVL32:
 329 0092 0246     		mov	r2, r0
 330 0094 2146     		mov	r1, r4
 331 0096 002C     		cmp	r4, #0
 332 0098 1DDB     		blt	.L55
 333              	.L46:
 334 009a 41F34F01 		sbfx	r1, r1, #1, #16
 335 009e 2846     		mov	r0, r5
 336 00a0 FFF7FEFF 		bl	lv_obj_set_size
 337              	.LVL33:
  84:Drivers/lvgl/lvgl/demos/stress/lv_demo_stress.c **** 
 338              		.loc 1 84 0
 339 00a4 914C     		ldr	r4, .L61+8
 340 00a6 0121     		movs	r1, #1
 341 00a8 2068     		ldr	r0, [r4]
 342 00aa FFF7FEFF 		bl	lv_obj_set_flex_flow
 343              	.LVL34:
  87:Drivers/lvgl/lvgl/demos/stress/lv_demo_stress.c ****             lv_obj_set_size(obj, 100, 70);
 344              		.loc 1 87 0
 345 00ae 2068     		ldr	r0, [r4]
 346 00b0 FFF7FEFF 		bl	lv_btn_create
 347              	.LVL35:
 348 00b4 0446     		mov	r4, r0
 349              	.LVL36:
  88:Drivers/lvgl/lvgl/demos/stress/lv_demo_stress.c ****             obj = lv_label_create(obj);
 350              		.loc 1 88 0
 351 00b6 4622     		movs	r2, #70
 352 00b8 6421     		movs	r1, #100
 353 00ba FFF7FEFF 		bl	lv_obj_set_size
 354              	.LVL37:
  89:Drivers/lvgl/lvgl/demos/stress/lv_demo_stress.c ****             lv_label_set_text(obj, "Multi line\n"LV_SYMBOL_OK LV_SYMBOL_CLOSE LV_SYMBOL_WIFI);
 355              		.loc 1 89 0
 356 00be 2046     		mov	r0, r4
 357 00c0 FFF7FEFF 		bl	lv_label_create
 358              	.LVL38:
  90:Drivers/lvgl/lvgl/demos/stress/lv_demo_stress.c ****             break;
 359              		.loc 1 90 0
 360 00c4 8A49     		ldr	r1, .L61+12
 361 00c6 FFF7FEFF 		bl	lv_label_set_text
 362              	.LVL39:
 363              	.L14:
 364              	.LBE75:
 425:Drivers/lvgl/lvgl/demos/stress/lv_demo_stress.c **** }
 365              		.loc 1 425 0
 366 00ca 864A     		ldr	r2, .L61
 367 00cc 1388     		ldrh	r3, [r2]
 368 00ce 0133     		adds	r3, r3, #1
 369 00d0 1380     		strh	r3, [r2]	@ movhi
 426:Drivers/lvgl/lvgl/demos/stress/lv_demo_stress.c **** 
 370              		.loc 1 426 0
 371 00d2 1AB0     		add	sp, sp, #104
 372              	.LCFI9:
ARM GAS  /tmp/cc9XNXn7.s 			page 23


 373              		.cfi_remember_state
 374              		.cfi_def_cfa_offset 16
 375              		@ sp needed
 376 00d4 70BD     		pop	{r4, r5, r6, pc}
 377              	.L55:
 378              	.LCFI10:
 379              		.cfi_restore_state
 380              	.LBB133:
  83:Drivers/lvgl/lvgl/demos/stress/lv_demo_stress.c ****             lv_obj_set_flex_flow(main_page, LV_FLEX_FLOW_COLUMN);
 381              		.loc 1 83 0
 382 00d6 611C     		adds	r1, r4, #1
 383 00d8 DFE7     		b	.L46
 384              	.LVL40:
 385              	.L18:
 386              	.LBB79:
 387              	.LBB80:
 388              	.LBB81:
 389              		.loc 3 184 0
 390 00da FFF7FEFF 		bl	lv_disp_get_default
 391              	.LVL41:
 392 00de FFF7FEFF 		bl	lv_disp_get_scr_act
 393              	.LVL42:
 394              	.LBE81:
 395              	.LBE80:
  94:Drivers/lvgl/lvgl/demos/stress/lv_demo_stress.c ****                 lv_obj_set_size(obj, LV_HOR_RES / 2, LV_VER_RES / 2);
 396              		.loc 1 94 0
 397 00e2 3222     		movs	r2, #50
 398 00e4 0421     		movs	r1, #4
 399 00e6 FFF7FEFF 		bl	lv_tabview_create
 400              	.LVL43:
 401 00ea 0446     		mov	r4, r0
 402              	.LVL44:
  95:Drivers/lvgl/lvgl/demos/stress/lv_demo_stress.c ****                 lv_obj_align(obj, LV_ALIGN_BOTTOM_RIGHT, 0, 0);
 403              		.loc 1 95 0
 404 00ec FFF7FEFF 		bl	lv_disp_get_default
 405              	.LVL45:
 406 00f0 FFF7FEFF 		bl	lv_disp_get_hor_res
 407              	.LVL46:
 408 00f4 0546     		mov	r5, r0
 409 00f6 FFF7FEFF 		bl	lv_disp_get_default
 410              	.LVL47:
 411 00fa FFF7FEFF 		bl	lv_disp_get_ver_res
 412              	.LVL48:
 413 00fe 0346     		mov	r3, r0
 414 0100 0028     		cmp	r0, #0
 415 0102 31DB     		blt	.L56
 416              	.L47:
 417 0104 43F34F02 		sbfx	r2, r3, #1, #16
 418 0108 2946     		mov	r1, r5
 419 010a 002D     		cmp	r5, #0
 420 010c 2EDB     		blt	.L57
 421              	.L48:
 422 010e 41F34F01 		sbfx	r1, r1, #1, #16
 423 0112 2046     		mov	r0, r4
 424 0114 FFF7FEFF 		bl	lv_obj_set_size
 425              	.LVL49:
  96:Drivers/lvgl/lvgl/demos/stress/lv_demo_stress.c ****                 lv_obj_t * t = lv_tabview_add_tab(obj, "First");
ARM GAS  /tmp/cc9XNXn7.s 			page 24


 426              		.loc 1 96 0
 427 0118 0023     		movs	r3, #0
 428 011a 1A46     		mov	r2, r3
 429 011c 0621     		movs	r1, #6
 430 011e 2046     		mov	r0, r4
 431 0120 FFF7FEFF 		bl	lv_obj_align
 432              	.LVL50:
  97:Drivers/lvgl/lvgl/demos/stress/lv_demo_stress.c **** 
 433              		.loc 1 97 0
 434 0124 7349     		ldr	r1, .L61+16
 435 0126 2046     		mov	r0, r4
 436 0128 FFF7FEFF 		bl	lv_tabview_add_tab
 437              	.LVL51:
  99:Drivers/lvgl/lvgl/demos/stress/lv_demo_stress.c ****                 lv_obj_t * c = lv_colorwheel_create(t, true);
 438              		.loc 1 99 0
 439 012c 7249     		ldr	r1, .L61+20
 440 012e 2046     		mov	r0, r4
 441 0130 FFF7FEFF 		bl	lv_tabview_add_tab
 442              	.LVL52:
 100:Drivers/lvgl/lvgl/demos/stress/lv_demo_stress.c ****                 lv_obj_set_size(c,  150, 150);
 443              		.loc 1 100 0
 444 0134 0121     		movs	r1, #1
 445 0136 FFF7FEFF 		bl	lv_colorwheel_create
 446              	.LVL53:
 101:Drivers/lvgl/lvgl/demos/stress/lv_demo_stress.c ****                 //                  c = lv_led_create(t, NULL);
 447              		.loc 1 101 0
 448 013a 9622     		movs	r2, #150
 449 013c 1146     		mov	r1, r2
 450 013e FFF7FEFF 		bl	lv_obj_set_size
 451              	.LVL54:
 104:Drivers/lvgl/lvgl/demos/stress/lv_demo_stress.c ****                 t = lv_tabview_add_tab(obj, LV_SYMBOL_CLOSE);
 452              		.loc 1 104 0
 453 0142 6E49     		ldr	r1, .L61+24
 454 0144 2046     		mov	r0, r4
 455 0146 FFF7FEFF 		bl	lv_tabview_add_tab
 456              	.LVL55:
 105:Drivers/lvgl/lvgl/demos/stress/lv_demo_stress.c **** 
 457              		.loc 1 105 0
 458 014a 6D49     		ldr	r1, .L61+28
 459 014c 2046     		mov	r0, r4
 460 014e FFF7FEFF 		bl	lv_tabview_add_tab
 461              	.LVL56:
 107:Drivers/lvgl/lvgl/demos/stress/lv_demo_stress.c ****                 auto_del(obj, LV_DEMO_STRESS_TIME_STEP * 5 + 30);
 462              		.loc 1 107 0
 463 0152 0122     		movs	r2, #1
 464 0154 1146     		mov	r1, r2
 465 0156 2046     		mov	r0, r4
 466 0158 FFF7FEFF 		bl	lv_tabview_set_act
 467              	.LVL57:
 108:Drivers/lvgl/lvgl/demos/stress/lv_demo_stress.c ****             }
 468              		.loc 1 108 0
 469 015c 4FF48C71 		mov	r1, #280
 470 0160 2046     		mov	r0, r4
 471 0162 FFF7FEFF 		bl	auto_del
 472              	.LVL58:
 473              	.LBE79:
 110:Drivers/lvgl/lvgl/demos/stress/lv_demo_stress.c **** 
ARM GAS  /tmp/cc9XNXn7.s 			page 25


 474              		.loc 1 110 0
 475 0166 B0E7     		b	.L14
 476              	.L56:
 477              	.LBB82:
  95:Drivers/lvgl/lvgl/demos/stress/lv_demo_stress.c ****                 lv_obj_align(obj, LV_ALIGN_BOTTOM_RIGHT, 0, 0);
 478              		.loc 1 95 0
 479 0168 431C     		adds	r3, r0, #1
 480 016a CBE7     		b	.L47
 481              	.L57:
 482 016c 691C     		adds	r1, r5, #1
 483 016e CEE7     		b	.L48
 484              	.LVL59:
 485              	.L19:
 486              	.LBE82:
 113:Drivers/lvgl/lvgl/demos/stress/lv_demo_stress.c ****             lv_obj_set_size(obj, 200, 70);
 487              		.loc 1 113 0
 488 0170 5E4B     		ldr	r3, .L61+8
 489 0172 1868     		ldr	r0, [r3]
 490              	.LVL60:
 491 0174 FFF7FEFF 		bl	lv_btn_create
 492              	.LVL61:
 493 0178 0446     		mov	r4, r0
 494              	.LVL62:
 114:Drivers/lvgl/lvgl/demos/stress/lv_demo_stress.c **** 
 495              		.loc 1 114 0
 496 017a 4622     		movs	r2, #70
 497 017c C821     		movs	r1, #200
 498 017e FFF7FEFF 		bl	lv_obj_set_size
 499              	.LVL63:
 117:Drivers/lvgl/lvgl/demos/stress/lv_demo_stress.c **** 
 500              		.loc 1 117 0
 501 0182 8021     		movs	r1, #128
 502 0184 2046     		mov	r0, r4
 503 0186 FFF7FEFF 		bl	lv_obj_add_state
 504              	.LVL64:
 120:Drivers/lvgl/lvgl/demos/stress/lv_demo_stress.c ****             lv_anim_set_var(&a, obj);
 505              		.loc 1 120 0
 506 018a 09A8     		add	r0, sp, #36
 507 018c FFF7FEFF 		bl	lv_anim_init
 508              	.LVL65:
 509              	.LBB83:
 510              	.LBB84:
 128:Drivers/lvgl/lvgl/demos/stress/../../src/misc/lv_anim.h **** }
 511              		.loc 2 128 0
 512 0190 0994     		str	r4, [sp, #36]
 513              	.LVL66:
 514              	.LBE84:
 515              	.LBE83:
 516              	.LBB85:
 517              	.LBB86:
 150:Drivers/lvgl/lvgl/demos/stress/../../src/misc/lv_anim.h **** }
 518              		.loc 2 150 0
 519 0192 6423     		movs	r3, #100
 520 0194 1493     		str	r3, [sp, #80]
 521              	.LVL67:
 522              	.LBE86:
 523              	.LBE85:
ARM GAS  /tmp/cc9XNXn7.s 			page 26


 524              	.LBB87:
 525              	.LBB88:
 140:Drivers/lvgl/lvgl/demos/stress/../../src/misc/lv_anim.h **** }
 526              		.loc 2 140 0
 527 0196 5B4A     		ldr	r2, .L61+32
 528 0198 0A92     		str	r2, [sp, #40]
 529              	.LVL68:
 530              	.LBE88:
 531              	.LBE87:
 532              	.LBB89:
 533              	.LBB90:
 171:Drivers/lvgl/lvgl/demos/stress/../../src/misc/lv_anim.h ****     a->current_value = start;
 534              		.loc 2 171 0
 535 019a 1193     		str	r3, [sp, #68]
 172:Drivers/lvgl/lvgl/demos/stress/../../src/misc/lv_anim.h ****     a->end_value = end;
 536              		.loc 2 172 0
 537 019c 1293     		str	r3, [sp, #72]
 173:Drivers/lvgl/lvgl/demos/stress/../../src/misc/lv_anim.h **** }
 538              		.loc 2 173 0
 539 019e C822     		movs	r2, #200
 540 01a0 1392     		str	r2, [sp, #76]
 541              	.LVL69:
 542              	.LBE90:
 543              	.LBE89:
 544              	.LBB91:
 545              	.LBB92:
 230:Drivers/lvgl/lvgl/demos/stress/../../src/misc/lv_anim.h **** }
 231:Drivers/lvgl/lvgl/demos/stress/../../src/misc/lv_anim.h **** 
 232:Drivers/lvgl/lvgl/demos/stress/../../src/misc/lv_anim.h **** /**
 233:Drivers/lvgl/lvgl/demos/stress/../../src/misc/lv_anim.h ****  * Set a function call when the animation is deleted.
 234:Drivers/lvgl/lvgl/demos/stress/../../src/misc/lv_anim.h ****  * @param a         pointer to an initialized `lv_anim_t` variable
 235:Drivers/lvgl/lvgl/demos/stress/../../src/misc/lv_anim.h ****  * @param deleted_cb  a function call when the animation is deleted
 236:Drivers/lvgl/lvgl/demos/stress/../../src/misc/lv_anim.h ****  */
 237:Drivers/lvgl/lvgl/demos/stress/../../src/misc/lv_anim.h **** static inline void lv_anim_set_deleted_cb(lv_anim_t * a, lv_anim_deleted_cb_t deleted_cb)
 238:Drivers/lvgl/lvgl/demos/stress/../../src/misc/lv_anim.h **** {
 239:Drivers/lvgl/lvgl/demos/stress/../../src/misc/lv_anim.h ****     a->deleted_cb = deleted_cb;
 240:Drivers/lvgl/lvgl/demos/stress/../../src/misc/lv_anim.h **** }
 241:Drivers/lvgl/lvgl/demos/stress/../../src/misc/lv_anim.h **** 
 242:Drivers/lvgl/lvgl/demos/stress/../../src/misc/lv_anim.h **** /**
 243:Drivers/lvgl/lvgl/demos/stress/../../src/misc/lv_anim.h ****  * Make the animation to play back to when the forward direction is ready
 244:Drivers/lvgl/lvgl/demos/stress/../../src/misc/lv_anim.h ****  * @param a         pointer to an initialized `lv_anim_t` variable
 245:Drivers/lvgl/lvgl/demos/stress/../../src/misc/lv_anim.h ****  * @param time      the duration of the playback animation in milliseconds. 0: disable playback
 246:Drivers/lvgl/lvgl/demos/stress/../../src/misc/lv_anim.h ****  */
 247:Drivers/lvgl/lvgl/demos/stress/../../src/misc/lv_anim.h **** static inline void lv_anim_set_playback_time(lv_anim_t * a, uint32_t time)
 248:Drivers/lvgl/lvgl/demos/stress/../../src/misc/lv_anim.h **** {
 249:Drivers/lvgl/lvgl/demos/stress/../../src/misc/lv_anim.h ****     a->playback_time = time;
 546              		.loc 2 249 0
 547 01a2 1793     		str	r3, [sp, #92]
 548              	.LVL70:
 549              	.LBE92:
 550              	.LBE91:
 551              	.LBB93:
 552              	.LBB94:
 250:Drivers/lvgl/lvgl/demos/stress/../../src/misc/lv_anim.h **** }
 251:Drivers/lvgl/lvgl/demos/stress/../../src/misc/lv_anim.h **** 
 252:Drivers/lvgl/lvgl/demos/stress/../../src/misc/lv_anim.h **** /**
 253:Drivers/lvgl/lvgl/demos/stress/../../src/misc/lv_anim.h ****  * Make the animation to play back to when the forward direction is ready
ARM GAS  /tmp/cc9XNXn7.s 			page 27


 254:Drivers/lvgl/lvgl/demos/stress/../../src/misc/lv_anim.h ****  * @param a         pointer to an initialized `lv_anim_t` variable
 255:Drivers/lvgl/lvgl/demos/stress/../../src/misc/lv_anim.h ****  * @param delay     delay in milliseconds before starting the playback animation.
 256:Drivers/lvgl/lvgl/demos/stress/../../src/misc/lv_anim.h ****  */
 257:Drivers/lvgl/lvgl/demos/stress/../../src/misc/lv_anim.h **** static inline void lv_anim_set_playback_delay(lv_anim_t * a, uint32_t delay)
 258:Drivers/lvgl/lvgl/demos/stress/../../src/misc/lv_anim.h **** {
 259:Drivers/lvgl/lvgl/demos/stress/../../src/misc/lv_anim.h ****     a->playback_delay = delay;
 260:Drivers/lvgl/lvgl/demos/stress/../../src/misc/lv_anim.h **** }
 261:Drivers/lvgl/lvgl/demos/stress/../../src/misc/lv_anim.h **** 
 262:Drivers/lvgl/lvgl/demos/stress/../../src/misc/lv_anim.h **** /**
 263:Drivers/lvgl/lvgl/demos/stress/../../src/misc/lv_anim.h ****  * Make the animation repeat itself.
 264:Drivers/lvgl/lvgl/demos/stress/../../src/misc/lv_anim.h ****  * @param a         pointer to an initialized `lv_anim_t` variable
 265:Drivers/lvgl/lvgl/demos/stress/../../src/misc/lv_anim.h ****  * @param cnt       repeat count or `LV_ANIM_REPEAT_INFINITE` for infinite repetition. 0: to disabl
 266:Drivers/lvgl/lvgl/demos/stress/../../src/misc/lv_anim.h ****  */
 267:Drivers/lvgl/lvgl/demos/stress/../../src/misc/lv_anim.h **** static inline void lv_anim_set_repeat_count(lv_anim_t * a, uint16_t cnt)
 268:Drivers/lvgl/lvgl/demos/stress/../../src/misc/lv_anim.h **** {
 269:Drivers/lvgl/lvgl/demos/stress/../../src/misc/lv_anim.h ****     a->repeat_cnt = cnt;
 553              		.loc 2 269 0
 554 01a4 4FF6FF73 		movw	r3, #65535
 555 01a8 ADF86430 		strh	r3, [sp, #100]	@ movhi
 556              	.LVL71:
 557              	.LBE94:
 558              	.LBE93:
 127:Drivers/lvgl/lvgl/demos/stress/lv_demo_stress.c **** 
 559              		.loc 1 127 0
 560 01ac 09A8     		add	r0, sp, #36
 561 01ae FFF7FEFF 		bl	lv_anim_start
 562              	.LVL72:
 130:Drivers/lvgl/lvgl/demos/stress/lv_demo_stress.c **** 
 563              		.loc 1 130 0
 564 01b2 4FF4FA71 		mov	r1, #500
 565 01b6 2046     		mov	r0, r4
 566 01b8 FFF7FEFF 		bl	auto_del
 567              	.LVL73:
 132:Drivers/lvgl/lvgl/demos/stress/lv_demo_stress.c ****             lv_label_set_text_fmt(obj, "Formatted:\n%d %s", 12, "Volt");
 568              		.loc 1 132 0
 569 01bc 2046     		mov	r0, r4
 570 01be FFF7FEFF 		bl	lv_label_create
 571              	.LVL74:
 133:Drivers/lvgl/lvgl/demos/stress/lv_demo_stress.c ****             break;
 572              		.loc 1 133 0
 573 01c2 514B     		ldr	r3, .L61+36
 574 01c4 0C22     		movs	r2, #12
 575 01c6 5149     		ldr	r1, .L61+40
 576 01c8 FFF7FEFF 		bl	lv_label_set_text_fmt
 577              	.LVL75:
 134:Drivers/lvgl/lvgl/demos/stress/lv_demo_stress.c **** 
 578              		.loc 1 134 0
 579 01cc 7DE7     		b	.L14
 580              	.LVL76:
 581              	.L20:
 582              	.LBB95:
 583              	.LBB96:
 584              		.loc 3 184 0
 585 01ce FFF7FEFF 		bl	lv_disp_get_default
 586              	.LVL77:
 587 01d2 FFF7FEFF 		bl	lv_disp_get_scr_act
 588              	.LVL78:
ARM GAS  /tmp/cc9XNXn7.s 			page 28


 589              	.LBE96:
 590              	.LBE95:
 137:Drivers/lvgl/lvgl/demos/stress/lv_demo_stress.c ****             lv_obj_align_to(ta, main_page, LV_ALIGN_OUT_RIGHT_TOP, 10, 10);
 591              		.loc 1 137 0
 592 01d6 FFF7FEFF 		bl	lv_textarea_create
 593              	.LVL79:
 594 01da 4D4C     		ldr	r4, .L61+44
 595 01dc 2060     		str	r0, [r4]
 138:Drivers/lvgl/lvgl/demos/stress/lv_demo_stress.c ****             lv_obj_set_size(ta, LV_HOR_RES / 3, LV_VER_RES / 4);
 596              		.loc 1 138 0
 597 01de 434B     		ldr	r3, .L61+8
 598 01e0 1968     		ldr	r1, [r3]
 599 01e2 0A23     		movs	r3, #10
 600 01e4 0093     		str	r3, [sp]
 601 01e6 1322     		movs	r2, #19
 602 01e8 FFF7FEFF 		bl	lv_obj_align_to
 603              	.LVL80:
 139:Drivers/lvgl/lvgl/demos/stress/lv_demo_stress.c ****             lv_textarea_set_placeholder_text(ta, "The placeholder");
 604              		.loc 1 139 0
 605 01ec 2568     		ldr	r5, [r4]
 606 01ee FFF7FEFF 		bl	lv_disp_get_default
 607              	.LVL81:
 608 01f2 FFF7FEFF 		bl	lv_disp_get_hor_res
 609              	.LVL82:
 610 01f6 0446     		mov	r4, r0
 611 01f8 FFF7FEFF 		bl	lv_disp_get_default
 612              	.LVL83:
 613 01fc FFF7FEFF 		bl	lv_disp_get_ver_res
 614              	.LVL84:
 615 0200 0246     		mov	r2, r0
 616 0202 0028     		cmp	r0, #0
 617 0204 10DB     		blt	.L58
 618              	.L49:
 619 0206 4349     		ldr	r1, .L61+48
 620 0208 81FB0431 		smull	r3, r1, r1, r4
 621 020c A1EBE471 		sub	r1, r1, r4, asr #31
 622 0210 42F38F02 		sbfx	r2, r2, #2, #16
 623 0214 09B2     		sxth	r1, r1
 624 0216 2846     		mov	r0, r5
 625 0218 FFF7FEFF 		bl	lv_obj_set_size
 626              	.LVL85:
 140:Drivers/lvgl/lvgl/demos/stress/lv_demo_stress.c ****             break;
 627              		.loc 1 140 0
 628 021c 3E49     		ldr	r1, .L61+52
 629 021e 3C4B     		ldr	r3, .L61+44
 630 0220 1868     		ldr	r0, [r3]
 631 0222 FFF7FEFF 		bl	lv_textarea_set_placeholder_text
 632              	.LVL86:
 141:Drivers/lvgl/lvgl/demos/stress/lv_demo_stress.c **** 
 633              		.loc 1 141 0
 634 0226 50E7     		b	.L14
 635              	.L58:
 139:Drivers/lvgl/lvgl/demos/stress/lv_demo_stress.c ****             lv_textarea_set_placeholder_text(ta, "The placeholder");
 636              		.loc 1 139 0
 637 0228 C21C     		adds	r2, r0, #3
 638 022a ECE7     		b	.L49
 639              	.LVL87:
ARM GAS  /tmp/cc9XNXn7.s 			page 29


 640              	.L21:
 144:Drivers/lvgl/lvgl/demos/stress/lv_demo_stress.c ****             lv_obj_set_size(obj, 100, 70);
 641              		.loc 1 144 0
 642 022c 2F4B     		ldr	r3, .L61+8
 643 022e 1868     		ldr	r0, [r3]
 644              	.LVL88:
 645 0230 FFF7FEFF 		bl	lv_btn_create
 646              	.LVL89:
 647 0234 0446     		mov	r4, r0
 648              	.LVL90:
 145:Drivers/lvgl/lvgl/demos/stress/lv_demo_stress.c ****             lv_obj_set_style_bg_img_src(obj, LV_SYMBOL_DUMMY"Text from\nstyle", 0);
 649              		.loc 1 145 0
 650 0236 4622     		movs	r2, #70
 651 0238 6421     		movs	r1, #100
 652 023a FFF7FEFF 		bl	lv_obj_set_size
 653              	.LVL91:
 146:Drivers/lvgl/lvgl/demos/stress/lv_demo_stress.c ****             lv_obj_del_async(obj);  /*Delete on next call of `lv_task_handler` (so not now)*/
 654              		.loc 1 146 0
 655 023e 0022     		movs	r2, #0
 656 0240 3649     		ldr	r1, .L61+56
 657 0242 2046     		mov	r0, r4
 658 0244 FFF7FEFF 		bl	lv_obj_set_style_bg_img_src
 659              	.LVL92:
 147:Drivers/lvgl/lvgl/demos/stress/lv_demo_stress.c **** 
 660              		.loc 1 147 0
 661 0248 2046     		mov	r0, r4
 662 024a FFF7FEFF 		bl	lv_obj_del_async
 663              	.LVL93:
 155:Drivers/lvgl/lvgl/demos/stress/lv_demo_stress.c **** 
 664              		.loc 1 155 0
 665 024e 3CE7     		b	.L14
 666              	.LVL94:
 667              	.L22:
 158:Drivers/lvgl/lvgl/demos/stress/lv_demo_stress.c ****             break;
 668              		.loc 1 158 0
 669 0250 0121     		movs	r1, #1
 670 0252 2F4B     		ldr	r3, .L61+44
 671 0254 1868     		ldr	r0, [r3]
 672              	.LVL95:
 673 0256 FFF7FEFF 		bl	lv_textarea_set_one_line
 674              	.LVL96:
 159:Drivers/lvgl/lvgl/demos/stress/lv_demo_stress.c ****         case 6:
 675              		.loc 1 159 0
 676 025a 36E7     		b	.L14
 677              	.LVL97:
 678              	.L23:
 161:Drivers/lvgl/lvgl/demos/stress/lv_demo_stress.c ****             break;
 679              		.loc 1 161 0
 680 025c 0521     		movs	r1, #5
 681 025e 234B     		ldr	r3, .L61+8
 682 0260 1868     		ldr	r0, [r3]
 683              	.LVL98:
 684 0262 FFF7FEFF 		bl	lv_obj_set_flex_flow
 685              	.LVL99:
 162:Drivers/lvgl/lvgl/demos/stress/lv_demo_stress.c **** 
 686              		.loc 1 162 0
 687 0266 30E7     		b	.L14
ARM GAS  /tmp/cc9XNXn7.s 			page 30


 688              	.LVL100:
 689              	.L24:
 165:Drivers/lvgl/lvgl/demos/stress/lv_demo_stress.c ****             lv_bar_set_range(obj, -1000, 2000);
 690              		.loc 1 165 0
 691 0268 204C     		ldr	r4, .L61+8
 692 026a 2068     		ldr	r0, [r4]
 693              	.LVL101:
 694 026c FFF7FEFF 		bl	lv_bar_create
 695              	.LVL102:
 696 0270 0546     		mov	r5, r0
 697              	.LVL103:
 166:Drivers/lvgl/lvgl/demos/stress/lv_demo_stress.c ****             lv_bar_set_value(obj, 1800, LV_ANIM_ON);
 698              		.loc 1 166 0
 699 0272 4FF4FA62 		mov	r2, #2000
 700 0276 2A49     		ldr	r1, .L61+60
 701 0278 FFF7FEFF 		bl	lv_bar_set_range
 702              	.LVL104:
 167:Drivers/lvgl/lvgl/demos/stress/lv_demo_stress.c ****             lv_bar_set_start_value(obj, -500, LV_ANIM_ON);
 703              		.loc 1 167 0
 704 027c 0122     		movs	r2, #1
 705 027e 4FF4E161 		mov	r1, #1800
 706 0282 2846     		mov	r0, r5
 707 0284 FFF7FEFF 		bl	lv_bar_set_value
 708              	.LVL105:
 168:Drivers/lvgl/lvgl/demos/stress/lv_demo_stress.c **** 
 709              		.loc 1 168 0
 710 0288 0122     		movs	r2, #1
 711 028a 2649     		ldr	r1, .L61+64
 712 028c 2846     		mov	r0, r5
 713 028e FFF7FEFF 		bl	lv_bar_set_start_value
 714              	.LVL106:
 170:Drivers/lvgl/lvgl/demos/stress/lv_demo_stress.c **** 
 715              		.loc 1 170 0
 716 0292 AA21     		movs	r1, #170
 717 0294 2846     		mov	r0, r5
 718 0296 FFF7FEFF 		bl	auto_del
 719              	.LVL107:
 172:Drivers/lvgl/lvgl/demos/stress/lv_demo_stress.c ****             lv_obj_set_style_anim_time(obj, LV_DEMO_STRESS_TIME_STEP * 8, 0);
 720              		.loc 1 172 0
 721 029a 2068     		ldr	r0, [r4]
 722 029c FFF7FEFF 		bl	lv_slider_create
 723              	.LVL108:
 724 02a0 0546     		mov	r5, r0
 725              	.LVL109:
 173:Drivers/lvgl/lvgl/demos/stress/lv_demo_stress.c ****             lv_slider_set_value(obj, 5000, LV_ANIM_ON);    /*Animate to out of range value*/
 726              		.loc 1 173 0
 727 02a2 0022     		movs	r2, #0
 728 02a4 4FF4C871 		mov	r1, #400
 729 02a8 FFF7FEFF 		bl	lv_obj_set_style_anim_time
 730              	.LVL110:
 731              	.LBB97:
 732              	.LBB98:
 733              		.file 4 "Drivers/lvgl/lvgl/demos/stress/../../src/widgets/lv_slider.h"
   1:Drivers/lvgl/lvgl/demos/stress/../../src/widgets/lv_slider.h **** /**
   2:Drivers/lvgl/lvgl/demos/stress/../../src/widgets/lv_slider.h ****  * @file lv_slider.h
   3:Drivers/lvgl/lvgl/demos/stress/../../src/widgets/lv_slider.h ****  *
   4:Drivers/lvgl/lvgl/demos/stress/../../src/widgets/lv_slider.h ****  */
ARM GAS  /tmp/cc9XNXn7.s 			page 31


   5:Drivers/lvgl/lvgl/demos/stress/../../src/widgets/lv_slider.h **** 
   6:Drivers/lvgl/lvgl/demos/stress/../../src/widgets/lv_slider.h **** #ifndef LV_SLIDER_H
   7:Drivers/lvgl/lvgl/demos/stress/../../src/widgets/lv_slider.h **** #define LV_SLIDER_H
   8:Drivers/lvgl/lvgl/demos/stress/../../src/widgets/lv_slider.h **** 
   9:Drivers/lvgl/lvgl/demos/stress/../../src/widgets/lv_slider.h **** #ifdef __cplusplus
  10:Drivers/lvgl/lvgl/demos/stress/../../src/widgets/lv_slider.h **** extern "C" {
  11:Drivers/lvgl/lvgl/demos/stress/../../src/widgets/lv_slider.h **** #endif
  12:Drivers/lvgl/lvgl/demos/stress/../../src/widgets/lv_slider.h **** 
  13:Drivers/lvgl/lvgl/demos/stress/../../src/widgets/lv_slider.h **** /*********************
  14:Drivers/lvgl/lvgl/demos/stress/../../src/widgets/lv_slider.h ****  *      INCLUDES
  15:Drivers/lvgl/lvgl/demos/stress/../../src/widgets/lv_slider.h ****  *********************/
  16:Drivers/lvgl/lvgl/demos/stress/../../src/widgets/lv_slider.h **** #include "../lv_conf_internal.h"
  17:Drivers/lvgl/lvgl/demos/stress/../../src/widgets/lv_slider.h **** 
  18:Drivers/lvgl/lvgl/demos/stress/../../src/widgets/lv_slider.h **** #if LV_USE_SLIDER != 0
  19:Drivers/lvgl/lvgl/demos/stress/../../src/widgets/lv_slider.h **** 
  20:Drivers/lvgl/lvgl/demos/stress/../../src/widgets/lv_slider.h **** /*Testing of dependencies*/
  21:Drivers/lvgl/lvgl/demos/stress/../../src/widgets/lv_slider.h **** #if LV_USE_BAR == 0
  22:Drivers/lvgl/lvgl/demos/stress/../../src/widgets/lv_slider.h **** #error "lv_slider: lv_bar is required. Enable it in lv_conf.h (LV_USE_BAR 1)"
  23:Drivers/lvgl/lvgl/demos/stress/../../src/widgets/lv_slider.h **** #endif
  24:Drivers/lvgl/lvgl/demos/stress/../../src/widgets/lv_slider.h **** 
  25:Drivers/lvgl/lvgl/demos/stress/../../src/widgets/lv_slider.h **** #include "../core/lv_obj.h"
  26:Drivers/lvgl/lvgl/demos/stress/../../src/widgets/lv_slider.h **** #include "lv_bar.h"
  27:Drivers/lvgl/lvgl/demos/stress/../../src/widgets/lv_slider.h **** 
  28:Drivers/lvgl/lvgl/demos/stress/../../src/widgets/lv_slider.h **** /*********************
  29:Drivers/lvgl/lvgl/demos/stress/../../src/widgets/lv_slider.h ****  *      DEFINES
  30:Drivers/lvgl/lvgl/demos/stress/../../src/widgets/lv_slider.h ****  *********************/
  31:Drivers/lvgl/lvgl/demos/stress/../../src/widgets/lv_slider.h **** 
  32:Drivers/lvgl/lvgl/demos/stress/../../src/widgets/lv_slider.h **** /**********************
  33:Drivers/lvgl/lvgl/demos/stress/../../src/widgets/lv_slider.h ****  *      TYPEDEFS
  34:Drivers/lvgl/lvgl/demos/stress/../../src/widgets/lv_slider.h ****  **********************/
  35:Drivers/lvgl/lvgl/demos/stress/../../src/widgets/lv_slider.h **** 
  36:Drivers/lvgl/lvgl/demos/stress/../../src/widgets/lv_slider.h **** enum {
  37:Drivers/lvgl/lvgl/demos/stress/../../src/widgets/lv_slider.h ****     LV_SLIDER_MODE_NORMAL = LV_BAR_MODE_NORMAL,
  38:Drivers/lvgl/lvgl/demos/stress/../../src/widgets/lv_slider.h ****     LV_SLIDER_MODE_SYMMETRICAL = LV_BAR_MODE_SYMMETRICAL,
  39:Drivers/lvgl/lvgl/demos/stress/../../src/widgets/lv_slider.h ****     LV_SLIDER_MODE_RANGE = LV_BAR_MODE_RANGE
  40:Drivers/lvgl/lvgl/demos/stress/../../src/widgets/lv_slider.h **** };
  41:Drivers/lvgl/lvgl/demos/stress/../../src/widgets/lv_slider.h **** typedef uint8_t lv_slider_mode_t;
  42:Drivers/lvgl/lvgl/demos/stress/../../src/widgets/lv_slider.h **** 
  43:Drivers/lvgl/lvgl/demos/stress/../../src/widgets/lv_slider.h **** typedef struct {
  44:Drivers/lvgl/lvgl/demos/stress/../../src/widgets/lv_slider.h ****     lv_bar_t bar;       /*Add the ancestor's type first*/
  45:Drivers/lvgl/lvgl/demos/stress/../../src/widgets/lv_slider.h ****     lv_area_t left_knob_area;
  46:Drivers/lvgl/lvgl/demos/stress/../../src/widgets/lv_slider.h ****     lv_area_t right_knob_area;
  47:Drivers/lvgl/lvgl/demos/stress/../../src/widgets/lv_slider.h ****     int32_t * value_to_set; /*Which bar value to set*/
  48:Drivers/lvgl/lvgl/demos/stress/../../src/widgets/lv_slider.h ****     uint8_t dragging : 1;       /*1: the slider is being dragged*/
  49:Drivers/lvgl/lvgl/demos/stress/../../src/widgets/lv_slider.h ****     uint8_t left_knob_focus : 1; /*1: with encoder now the right knob can be adjusted*/
  50:Drivers/lvgl/lvgl/demos/stress/../../src/widgets/lv_slider.h **** } lv_slider_t;
  51:Drivers/lvgl/lvgl/demos/stress/../../src/widgets/lv_slider.h **** 
  52:Drivers/lvgl/lvgl/demos/stress/../../src/widgets/lv_slider.h **** extern const lv_obj_class_t lv_slider_class;
  53:Drivers/lvgl/lvgl/demos/stress/../../src/widgets/lv_slider.h **** 
  54:Drivers/lvgl/lvgl/demos/stress/../../src/widgets/lv_slider.h **** /**
  55:Drivers/lvgl/lvgl/demos/stress/../../src/widgets/lv_slider.h ****  * `type` field in `lv_obj_draw_part_dsc_t` if `class_p = lv_slider_class`
  56:Drivers/lvgl/lvgl/demos/stress/../../src/widgets/lv_slider.h ****  * Used in `LV_EVENT_DRAW_PART_BEGIN` and `LV_EVENT_DRAW_PART_END`
  57:Drivers/lvgl/lvgl/demos/stress/../../src/widgets/lv_slider.h ****  */
  58:Drivers/lvgl/lvgl/demos/stress/../../src/widgets/lv_slider.h **** typedef enum {
  59:Drivers/lvgl/lvgl/demos/stress/../../src/widgets/lv_slider.h ****     LV_SLIDER_DRAW_PART_KNOB,           /**< The main (right) knob's rectangle*/
  60:Drivers/lvgl/lvgl/demos/stress/../../src/widgets/lv_slider.h ****     LV_SLIDER_DRAW_PART_KNOB_LEFT,      /**< The left knob's rectangle*/
  61:Drivers/lvgl/lvgl/demos/stress/../../src/widgets/lv_slider.h **** } lv_slider_draw_part_type_t;
ARM GAS  /tmp/cc9XNXn7.s 			page 32


  62:Drivers/lvgl/lvgl/demos/stress/../../src/widgets/lv_slider.h **** 
  63:Drivers/lvgl/lvgl/demos/stress/../../src/widgets/lv_slider.h **** /**********************
  64:Drivers/lvgl/lvgl/demos/stress/../../src/widgets/lv_slider.h ****  * GLOBAL PROTOTYPES
  65:Drivers/lvgl/lvgl/demos/stress/../../src/widgets/lv_slider.h ****  **********************/
  66:Drivers/lvgl/lvgl/demos/stress/../../src/widgets/lv_slider.h **** 
  67:Drivers/lvgl/lvgl/demos/stress/../../src/widgets/lv_slider.h **** /**
  68:Drivers/lvgl/lvgl/demos/stress/../../src/widgets/lv_slider.h ****  * Create a slider object
  69:Drivers/lvgl/lvgl/demos/stress/../../src/widgets/lv_slider.h ****  * @param parent    pointer to an object, it will be the parent of the new slider.
  70:Drivers/lvgl/lvgl/demos/stress/../../src/widgets/lv_slider.h ****  * @return          pointer to the created slider
  71:Drivers/lvgl/lvgl/demos/stress/../../src/widgets/lv_slider.h ****  */
  72:Drivers/lvgl/lvgl/demos/stress/../../src/widgets/lv_slider.h **** lv_obj_t * lv_slider_create(lv_obj_t * parent);
  73:Drivers/lvgl/lvgl/demos/stress/../../src/widgets/lv_slider.h **** 
  74:Drivers/lvgl/lvgl/demos/stress/../../src/widgets/lv_slider.h **** /*=====================
  75:Drivers/lvgl/lvgl/demos/stress/../../src/widgets/lv_slider.h ****  * Setter functions
  76:Drivers/lvgl/lvgl/demos/stress/../../src/widgets/lv_slider.h ****  *====================*/
  77:Drivers/lvgl/lvgl/demos/stress/../../src/widgets/lv_slider.h **** 
  78:Drivers/lvgl/lvgl/demos/stress/../../src/widgets/lv_slider.h **** /**
  79:Drivers/lvgl/lvgl/demos/stress/../../src/widgets/lv_slider.h ****  * Set a new value on the slider
  80:Drivers/lvgl/lvgl/demos/stress/../../src/widgets/lv_slider.h ****  * @param obj       pointer to a slider object
  81:Drivers/lvgl/lvgl/demos/stress/../../src/widgets/lv_slider.h ****  * @param value     the new value
  82:Drivers/lvgl/lvgl/demos/stress/../../src/widgets/lv_slider.h ****  * @param anim      LV_ANIM_ON: set the value with an animation; LV_ANIM_OFF: change the value imme
  83:Drivers/lvgl/lvgl/demos/stress/../../src/widgets/lv_slider.h ****  */
  84:Drivers/lvgl/lvgl/demos/stress/../../src/widgets/lv_slider.h **** static inline void lv_slider_set_value(lv_obj_t * obj, int32_t value, lv_anim_enable_t anim)
  85:Drivers/lvgl/lvgl/demos/stress/../../src/widgets/lv_slider.h **** {
  86:Drivers/lvgl/lvgl/demos/stress/../../src/widgets/lv_slider.h ****     lv_bar_set_value(obj, value, anim);
 734              		.loc 4 86 0
 735 02ac 0122     		movs	r2, #1
 736 02ae 41F28831 		movw	r1, #5000
 737 02b2 2846     		mov	r0, r5
 738 02b4 FFF7FEFF 		bl	lv_bar_set_value
 739              	.LVL111:
 740              	.LBE98:
 741              	.LBE97:
 175:Drivers/lvgl/lvgl/demos/stress/lv_demo_stress.c **** 
 742              		.loc 1 175 0
 743 02b8 4FF48871 		mov	r1, #272
 744 02bc 2846     		mov	r0, r5
 745 02be FFF7FEFF 		bl	auto_del
 746              	.LVL112:
 177:Drivers/lvgl/lvgl/demos/stress/lv_demo_stress.c **** 
 747              		.loc 1 177 0
 748 02c2 2068     		ldr	r0, [r4]
 749 02c4 FFF7FEFF 		bl	lv_switch_create
 750              	.LVL113:
 179:Drivers/lvgl/lvgl/demos/stress/lv_demo_stress.c ****             lv_obj_add_state(obj, LV_STATE_CHECKED);
 751              		.loc 1 179 0
 752 02c8 2068     		ldr	r0, [r4]
 753 02ca FFF7FEFF 		bl	lv_switch_create
 754              	.LVL114:
 755 02ce 0446     		mov	r4, r0
 756              	.LVL115:
 180:Drivers/lvgl/lvgl/demos/stress/lv_demo_stress.c ****             auto_del(obj, 730);
 757              		.loc 1 180 0
 758 02d0 0121     		movs	r1, #1
 759 02d2 FFF7FEFF 		bl	lv_obj_add_state
 760              	.LVL116:
 181:Drivers/lvgl/lvgl/demos/stress/lv_demo_stress.c ****             break;
ARM GAS  /tmp/cc9XNXn7.s 			page 33


 761              		.loc 1 181 0
 762 02d6 40F2DA21 		movw	r1, #730
 763 02da 2046     		mov	r0, r4
 764 02dc FFF7FEFF 		bl	auto_del
 765              	.LVL117:
 182:Drivers/lvgl/lvgl/demos/stress/lv_demo_stress.c **** 
 766              		.loc 1 182 0
 767 02e0 F3E6     		b	.L14
 768              	.L62:
 769 02e2 00BF     		.align	2
 770              	.L61:
 771 02e4 00000000 		.word	.LANCHOR0
 772 02e8 00000000 		.word	.LANCHOR1
 773 02ec 00000000 		.word	.LANCHOR2
 774 02f0 00000000 		.word	.LC0
 775 02f4 18000000 		.word	.LC1
 776 02f8 20000000 		.word	.LC2
 777 02fc 28000000 		.word	.LC3
 778 0300 34000000 		.word	.LC4
 779 0304 00000000 		.word	set_width_anim
 780 0308 38000000 		.word	.LC5
 781 030c 40000000 		.word	.LC6
 782 0310 00000000 		.word	.LANCHOR3
 783 0314 56555555 		.word	1431655766
 784 0318 54000000 		.word	.LC7
 785 031c 64000000 		.word	.LC8
 786 0320 18FCFFFF 		.word	-1000
 787 0324 0CFEFFFF 		.word	-500
 788              	.LVL118:
 789              	.L25:
 790              	.LBB99:
 791              	.LBB100:
 792              		.loc 3 184 0
 793 0328 FFF7FEFF 		bl	lv_disp_get_default
 794              	.LVL119:
 795 032c FFF7FEFF 		bl	lv_disp_get_scr_act
 796              	.LVL120:
 797              	.LBE100:
 798              	.LBE99:
 185:Drivers/lvgl/lvgl/demos/stress/lv_demo_stress.c ****             lv_obj_set_size(obj, LV_HOR_RES / 2, LV_VER_RES / 2);
 799              		.loc 1 185 0
 800 0330 3221     		movs	r1, #50
 801 0332 FFF7FEFF 		bl	lv_win_create
 802              	.LVL121:
 803 0336 0446     		mov	r4, r0
 804              	.LVL122:
 186:Drivers/lvgl/lvgl/demos/stress/lv_demo_stress.c ****             lv_obj_align(obj, LV_ALIGN_BOTTOM_RIGHT, 0, 0);
 805              		.loc 1 186 0
 806 0338 FFF7FEFF 		bl	lv_disp_get_default
 807              	.LVL123:
 808 033c FFF7FEFF 		bl	lv_disp_get_hor_res
 809              	.LVL124:
 810 0340 0546     		mov	r5, r0
 811 0342 FFF7FEFF 		bl	lv_disp_get_default
 812              	.LVL125:
 813 0346 FFF7FEFF 		bl	lv_disp_get_ver_res
 814              	.LVL126:
ARM GAS  /tmp/cc9XNXn7.s 			page 34


 815 034a 0346     		mov	r3, r0
 816 034c 0028     		cmp	r0, #0
 817 034e 27DB     		blt	.L59
 818              	.L50:
 819 0350 43F34F02 		sbfx	r2, r3, #1, #16
 820 0354 2946     		mov	r1, r5
 821 0356 002D     		cmp	r5, #0
 822 0358 24DB     		blt	.L60
 823              	.L51:
 824 035a 41F34F01 		sbfx	r1, r1, #1, #16
 825 035e 2046     		mov	r0, r4
 826 0360 FFF7FEFF 		bl	lv_obj_set_size
 827              	.LVL127:
 187:Drivers/lvgl/lvgl/demos/stress/lv_demo_stress.c ****             lv_win_add_title(obj, "Window title");
 828              		.loc 1 187 0
 829 0364 0023     		movs	r3, #0
 830 0366 1A46     		mov	r2, r3
 831 0368 0621     		movs	r1, #6
 832 036a 2046     		mov	r0, r4
 833 036c FFF7FEFF 		bl	lv_obj_align
 834              	.LVL128:
 188:Drivers/lvgl/lvgl/demos/stress/lv_demo_stress.c ****             lv_win_add_btn(obj, LV_SYMBOL_CLOSE, 40);
 835              		.loc 1 188 0
 836 0370 BC49     		ldr	r1, .L63
 837 0372 2046     		mov	r0, r4
 838 0374 FFF7FEFF 		bl	lv_win_add_title
 839              	.LVL129:
 189:Drivers/lvgl/lvgl/demos/stress/lv_demo_stress.c ****             lv_win_add_btn(obj, LV_SYMBOL_DOWN, 40);
 840              		.loc 1 189 0
 841 0378 2822     		movs	r2, #40
 842 037a BB49     		ldr	r1, .L63+4
 843 037c 2046     		mov	r0, r4
 844 037e FFF7FEFF 		bl	lv_win_add_btn
 845              	.LVL130:
 190:Drivers/lvgl/lvgl/demos/stress/lv_demo_stress.c ****             auto_del(obj, LV_DEMO_STRESS_TIME_STEP * 3 + 5);
 846              		.loc 1 190 0
 847 0382 2822     		movs	r2, #40
 848 0384 B949     		ldr	r1, .L63+8
 849 0386 2046     		mov	r0, r4
 850 0388 FFF7FEFF 		bl	lv_win_add_btn
 851              	.LVL131:
 191:Drivers/lvgl/lvgl/demos/stress/lv_demo_stress.c **** 
 852              		.loc 1 191 0
 853 038c 9B21     		movs	r1, #155
 854 038e 2046     		mov	r0, r4
 855 0390 FFF7FEFF 		bl	auto_del
 856              	.LVL132:
 193:Drivers/lvgl/lvgl/demos/stress/lv_demo_stress.c ****             break;
 857              		.loc 1 193 0
 858 0394 2046     		mov	r0, r4
 859 0396 FFF7FEFF 		bl	lv_win_get_content
 860              	.LVL133:
 861 039a FFF7FEFF 		bl	lv_calendar_create
 862              	.LVL134:
 194:Drivers/lvgl/lvgl/demos/stress/lv_demo_stress.c ****         case 9:
 863              		.loc 1 194 0
 864 039e 94E6     		b	.L14
ARM GAS  /tmp/cc9XNXn7.s 			page 35


 865              	.LVL135:
 866              	.L59:
 186:Drivers/lvgl/lvgl/demos/stress/lv_demo_stress.c ****             lv_obj_align(obj, LV_ALIGN_BOTTOM_RIGHT, 0, 0);
 867              		.loc 1 186 0
 868 03a0 431C     		adds	r3, r0, #1
 869 03a2 D5E7     		b	.L50
 870              	.L60:
 871 03a4 691C     		adds	r1, r5, #1
 872 03a6 D8E7     		b	.L51
 873              	.LVL136:
 874              	.L26:
 196:Drivers/lvgl/lvgl/demos/stress/lv_demo_stress.c ****                                  "Here area some dummy sentences to be sure the text area will be r
 875              		.loc 1 196 0
 876 03a8 B149     		ldr	r1, .L63+12
 877 03aa B24B     		ldr	r3, .L63+16
 878 03ac 1868     		ldr	r0, [r3]
 879              	.LVL137:
 880 03ae FFF7FEFF 		bl	lv_textarea_set_text
 881              	.LVL138:
 198:Drivers/lvgl/lvgl/demos/stress/lv_demo_stress.c ****         case 10:
 882              		.loc 1 198 0
 883 03b2 8AE6     		b	.L14
 884              	.LVL139:
 885              	.L27:
 886              	.LBB101:
 887              	.LBB102:
 888              		.loc 3 184 0
 889 03b4 FFF7FEFF 		bl	lv_disp_get_default
 890              	.LVL140:
 891 03b8 FFF7FEFF 		bl	lv_disp_get_scr_act
 892              	.LVL141:
 893              	.LBE102:
 894              	.LBE101:
 200:Drivers/lvgl/lvgl/demos/stress/lv_demo_stress.c ****             lv_keyboard_set_mode(obj, LV_KEYBOARD_MODE_TEXT_UPPER);
 895              		.loc 1 200 0
 896 03bc FFF7FEFF 		bl	lv_keyboard_create
 897              	.LVL142:
 898 03c0 0446     		mov	r4, r0
 899              	.LVL143:
 201:Drivers/lvgl/lvgl/demos/stress/lv_demo_stress.c ****             lv_anim_init(&a);
 900              		.loc 1 201 0
 901 03c2 0121     		movs	r1, #1
 902 03c4 FFF7FEFF 		bl	lv_keyboard_set_mode
 903              	.LVL144:
 202:Drivers/lvgl/lvgl/demos/stress/lv_demo_stress.c ****             lv_anim_set_var(&a, obj);
 904              		.loc 1 202 0
 905 03c8 09A8     		add	r0, sp, #36
 906 03ca FFF7FEFF 		bl	lv_anim_init
 907              	.LVL145:
 908              	.LBB103:
 909              	.LBB104:
 128:Drivers/lvgl/lvgl/demos/stress/../../src/misc/lv_anim.h **** }
 910              		.loc 2 128 0
 911 03ce 0994     		str	r4, [sp, #36]
 912              	.LVL146:
 913              	.LBE104:
 914              	.LBE103:
ARM GAS  /tmp/cc9XNXn7.s 			page 36


 204:Drivers/lvgl/lvgl/demos/stress/lv_demo_stress.c ****             lv_anim_set_time(&a, LV_DEMO_STRESS_TIME_STEP + 3);
 915              		.loc 1 204 0
 916 03d0 FFF7FEFF 		bl	lv_disp_get_default
 917              	.LVL147:
 918 03d4 FFF7FEFF 		bl	lv_disp_get_ver_res
 919              	.LVL148:
 920 03d8 0646     		mov	r6, r0
 921 03da FFF7FEFF 		bl	lv_disp_get_default
 922              	.LVL149:
 923 03de FFF7FEFF 		bl	lv_disp_get_ver_res
 924              	.LVL150:
 925 03e2 0546     		mov	r5, r0
 926 03e4 2046     		mov	r0, r4
 927 03e6 FFF7FEFF 		bl	lv_obj_get_height
 928              	.LVL151:
 929 03ea 281A     		subs	r0, r5, r0
 930              	.LVL152:
 931              	.LBB105:
 932              	.LBB106:
 171:Drivers/lvgl/lvgl/demos/stress/../../src/misc/lv_anim.h ****     a->current_value = start;
 933              		.loc 2 171 0
 934 03ec 1196     		str	r6, [sp, #68]
 172:Drivers/lvgl/lvgl/demos/stress/../../src/misc/lv_anim.h ****     a->end_value = end;
 935              		.loc 2 172 0
 936 03ee 1296     		str	r6, [sp, #72]
 173:Drivers/lvgl/lvgl/demos/stress/../../src/misc/lv_anim.h **** }
 937              		.loc 2 173 0
 938 03f0 1390     		str	r0, [sp, #76]
 939              	.LVL153:
 940              	.LBE106:
 941              	.LBE105:
 942              	.LBB107:
 943              	.LBB108:
 150:Drivers/lvgl/lvgl/demos/stress/../../src/misc/lv_anim.h **** }
 944              		.loc 2 150 0
 945 03f2 3523     		movs	r3, #53
 946 03f4 1493     		str	r3, [sp, #80]
 947              	.LVL154:
 948              	.LBE108:
 949              	.LBE107:
 950              	.LBB109:
 951              	.LBB110:
 140:Drivers/lvgl/lvgl/demos/stress/../../src/misc/lv_anim.h **** }
 952              		.loc 2 140 0
 953 03f6 A04B     		ldr	r3, .L63+20
 954 03f8 0A93     		str	r3, [sp, #40]
 955              	.LVL155:
 956              	.LBE110:
 957              	.LBE109:
 207:Drivers/lvgl/lvgl/demos/stress/lv_demo_stress.c **** 
 958              		.loc 1 207 0
 959 03fa 09A8     		add	r0, sp, #36
 960 03fc FFF7FEFF 		bl	lv_anim_start
 961              	.LVL156:
 209:Drivers/lvgl/lvgl/demos/stress/lv_demo_stress.c ****             break;
 962              		.loc 1 209 0
 963 0400 7621     		movs	r1, #118
ARM GAS  /tmp/cc9XNXn7.s 			page 37


 964 0402 2046     		mov	r0, r4
 965 0404 FFF7FEFF 		bl	auto_del
 966              	.LVL157:
 210:Drivers/lvgl/lvgl/demos/stress/lv_demo_stress.c **** 
 967              		.loc 1 210 0
 968 0408 5FE6     		b	.L14
 969              	.LVL158:
 970              	.L28:
 213:Drivers/lvgl/lvgl/demos/stress/lv_demo_stress.c ****             lv_dropdown_set_options(obj, "Zero\nOne\nTwo\nThree\nFour\nFive\nSix\nSeven\nEight");
 971              		.loc 1 213 0
 972 040a 9C4B     		ldr	r3, .L63+24
 973 040c 1868     		ldr	r0, [r3]
 974              	.LVL159:
 975 040e FFF7FEFF 		bl	lv_dropdown_create
 976              	.LVL160:
 977 0412 0446     		mov	r4, r0
 978              	.LVL161:
 214:Drivers/lvgl/lvgl/demos/stress/lv_demo_stress.c ****             lv_dropdown_open(obj);
 979              		.loc 1 214 0
 980 0414 9A49     		ldr	r1, .L63+28
 981 0416 FFF7FEFF 		bl	lv_dropdown_set_options
 982              	.LVL162:
 215:Drivers/lvgl/lvgl/demos/stress/lv_demo_stress.c ****             lv_dropdown_set_selected(obj, 2);
 983              		.loc 1 215 0
 984 041a 2046     		mov	r0, r4
 985 041c FFF7FEFF 		bl	lv_dropdown_open
 986              	.LVL163:
 216:Drivers/lvgl/lvgl/demos/stress/lv_demo_stress.c ****             auto_del(obj, LV_DEMO_STRESS_TIME_STEP * 3 + 11);
 987              		.loc 1 216 0
 988 0420 0221     		movs	r1, #2
 989 0422 2046     		mov	r0, r4
 990 0424 FFF7FEFF 		bl	lv_dropdown_set_selected
 991              	.LVL164:
 217:Drivers/lvgl/lvgl/demos/stress/lv_demo_stress.c ****             break;
 992              		.loc 1 217 0
 993 0428 A121     		movs	r1, #161
 994 042a 2046     		mov	r0, r4
 995 042c FFF7FEFF 		bl	auto_del
 996              	.LVL165:
 218:Drivers/lvgl/lvgl/demos/stress/lv_demo_stress.c **** 
 997              		.loc 1 218 0
 998 0430 4BE6     		b	.L14
 999              	.LVL166:
 1000              	.L29:
 221:Drivers/lvgl/lvgl/demos/stress/lv_demo_stress.c ****             lv_roller_set_options(obj, "Zero\nOne\nTwo\nThree\nFour\nFive\nSix\nSeven\nEight", LV_R
 1001              		.loc 1 221 0
 1002 0432 924B     		ldr	r3, .L63+24
 1003 0434 1868     		ldr	r0, [r3]
 1004              	.LVL167:
 1005 0436 FFF7FEFF 		bl	lv_roller_create
 1006              	.LVL168:
 1007 043a 0446     		mov	r4, r0
 1008              	.LVL169:
 222:Drivers/lvgl/lvgl/demos/stress/lv_demo_stress.c ****             lv_roller_set_selected(obj, 2, LV_ANIM_ON);
 1009              		.loc 1 222 0
 1010 043c 0122     		movs	r2, #1
 1011 043e 9049     		ldr	r1, .L63+28
ARM GAS  /tmp/cc9XNXn7.s 			page 38


 1012 0440 FFF7FEFF 		bl	lv_roller_set_options
 1013              	.LVL170:
 223:Drivers/lvgl/lvgl/demos/stress/lv_demo_stress.c ****             auto_del(obj, LV_DEMO_STRESS_TIME_STEP * 20 + 22);
 1014              		.loc 1 223 0
 1015 0444 0122     		movs	r2, #1
 1016 0446 0221     		movs	r1, #2
 1017 0448 2046     		mov	r0, r4
 1018 044a FFF7FEFF 		bl	lv_roller_set_selected
 1019              	.LVL171:
 224:Drivers/lvgl/lvgl/demos/stress/lv_demo_stress.c ****             break;
 1020              		.loc 1 224 0
 1021 044e 40F2FE31 		movw	r1, #1022
 1022 0452 2046     		mov	r0, r4
 1023 0454 FFF7FEFF 		bl	auto_del
 1024              	.LVL172:
 225:Drivers/lvgl/lvgl/demos/stress/lv_demo_stress.c **** 
 1025              		.loc 1 225 0
 1026 0458 37E6     		b	.L14
 1027              	.LVL173:
 1028              	.L30:
 228:Drivers/lvgl/lvgl/demos/stress/lv_demo_stress.c ****             lv_anim_init(&a);
 1029              		.loc 1 228 0
 1030 045a 884C     		ldr	r4, .L63+24
 1031 045c 2068     		ldr	r0, [r4]
 1032              	.LVL174:
 1033 045e FFF7FEFF 		bl	lv_arc_create
 1034              	.LVL175:
 1035 0462 0546     		mov	r5, r0
 1036              	.LVL176:
 229:Drivers/lvgl/lvgl/demos/stress/lv_demo_stress.c ****             lv_anim_set_var(&a, obj);
 1037              		.loc 1 229 0
 1038 0464 09A8     		add	r0, sp, #36
 1039              	.LVL177:
 1040 0466 FFF7FEFF 		bl	lv_anim_init
 1041              	.LVL178:
 1042              	.LBB111:
 1043              	.LBB112:
 128:Drivers/lvgl/lvgl/demos/stress/../../src/misc/lv_anim.h **** }
 1044              		.loc 2 128 0
 1045 046a 0995     		str	r5, [sp, #36]
 1046              	.LVL179:
 1047              	.LBE112:
 1048              	.LBE111:
 1049              	.LBB113:
 1050              	.LBB114:
 171:Drivers/lvgl/lvgl/demos/stress/../../src/misc/lv_anim.h ****     a->current_value = start;
 1051              		.loc 2 171 0
 1052 046c B423     		movs	r3, #180
 1053 046e 1193     		str	r3, [sp, #68]
 172:Drivers/lvgl/lvgl/demos/stress/../../src/misc/lv_anim.h ****     a->end_value = end;
 1054              		.loc 2 172 0
 1055 0470 1293     		str	r3, [sp, #72]
 173:Drivers/lvgl/lvgl/demos/stress/../../src/misc/lv_anim.h **** }
 1056              		.loc 2 173 0
 1057 0472 4FF4C873 		mov	r3, #400
 1058 0476 1393     		str	r3, [sp, #76]
 1059              	.LVL180:
ARM GAS  /tmp/cc9XNXn7.s 			page 39


 1060              	.LBE114:
 1061              	.LBE113:
 1062              	.LBB115:
 1063              	.LBB116:
 150:Drivers/lvgl/lvgl/demos/stress/../../src/misc/lv_anim.h **** }
 1064              		.loc 2 150 0
 1065 0478 6423     		movs	r3, #100
 1066 047a 1493     		str	r3, [sp, #80]
 1067              	.LVL181:
 1068              	.LBE116:
 1069              	.LBE115:
 1070              	.LBB117:
 1071              	.LBB118:
 160:Drivers/lvgl/lvgl/demos/stress/../../src/misc/lv_anim.h **** }
 1072              		.loc 2 160 0
 1073 047c 6FF04A03 		mvn	r3, #74
 1074 0480 1593     		str	r3, [sp, #84]
 1075              	.LVL182:
 1076              	.LBE118:
 1077              	.LBE117:
 1078              	.LBB119:
 1079              	.LBB120:
 249:Drivers/lvgl/lvgl/demos/stress/../../src/misc/lv_anim.h **** }
 1080              		.loc 2 249 0
 1081 0482 FA23     		movs	r3, #250
 1082 0484 1793     		str	r3, [sp, #92]
 1083              	.LVL183:
 1084              	.LBE120:
 1085              	.LBE119:
 1086              	.LBB121:
 1087              	.LBB122:
 1088              		.loc 2 269 0
 1089 0486 0325     		movs	r5, #3
 1090              	.LVL184:
 1091 0488 ADF86450 		strh	r5, [sp, #100]	@ movhi
 1092              	.LVL185:
 1093              	.LBE122:
 1094              	.LBE121:
 1095              	.LBB123:
 1096              	.LBB124:
 140:Drivers/lvgl/lvgl/demos/stress/../../src/misc/lv_anim.h **** }
 1097              		.loc 2 140 0
 1098 048c 7D4B     		ldr	r3, .L63+32
 1099 048e 0A93     		str	r3, [sp, #40]
 1100              	.LVL186:
 1101              	.LBE124:
 1102              	.LBE123:
 237:Drivers/lvgl/lvgl/demos/stress/lv_demo_stress.c **** 
 1103              		.loc 1 237 0
 1104 0490 09A8     		add	r0, sp, #36
 1105              	.LVL187:
 1106 0492 FFF7FEFF 		bl	lv_anim_start
 1107              	.LVL188:
 239:Drivers/lvgl/lvgl/demos/stress/lv_demo_stress.c ****             lv_obj_scroll_to_view(obj, LV_ANIM_ON);
 1108              		.loc 1 239 0
 1109 0496 2068     		ldr	r0, [r4]
 1110 0498 FFF7FEFF 		bl	lv_meter_create
ARM GAS  /tmp/cc9XNXn7.s 			page 40


 1111              	.LVL189:
 1112 049c 0446     		mov	r4, r0
 1113              	.LVL190:
 240:Drivers/lvgl/lvgl/demos/stress/lv_demo_stress.c ****             lv_meter_scale_t * scale = lv_meter_add_scale(obj);
 1114              		.loc 1 240 0
 1115 049e 0121     		movs	r1, #1
 1116 04a0 FFF7FEFF 		bl	lv_obj_scroll_to_view
 1117              	.LVL191:
 241:Drivers/lvgl/lvgl/demos/stress/lv_demo_stress.c ****             lv_meter_add_needle_line(obj, scale, 3, lv_palette_main(LV_PALETTE_RED), -10);
 1118              		.loc 1 241 0
 1119 04a4 2046     		mov	r0, r4
 1120 04a6 FFF7FEFF 		bl	lv_meter_add_scale
 1121              	.LVL192:
 1122 04aa 0646     		mov	r6, r0
 1123              	.LVL193:
 242:Drivers/lvgl/lvgl/demos/stress/lv_demo_stress.c **** 
 1124              		.loc 1 242 0
 1125 04ac 0020     		movs	r0, #0
 1126              	.LVL194:
 1127 04ae FFF7FEFF 		bl	lv_palette_main
 1128              	.LVL195:
 1129 04b2 6FF00903 		mvn	r3, #9
 1130 04b6 0093     		str	r3, [sp]
 1131 04b8 0346     		mov	r3, r0	@ movhi
 1132 04ba 2A46     		mov	r2, r5
 1133 04bc 3146     		mov	r1, r6
 1134 04be 2046     		mov	r0, r4
 1135 04c0 FFF7FEFF 		bl	lv_meter_add_needle_line
 1136              	.LVL196:
 244:Drivers/lvgl/lvgl/demos/stress/lv_demo_stress.c ****             break;
 1137              		.loc 1 244 0
 1138 04c4 4FF4A571 		mov	r1, #330
 1139 04c8 2046     		mov	r0, r4
 1140 04ca FFF7FEFF 		bl	auto_del
 1141              	.LVL197:
 245:Drivers/lvgl/lvgl/demos/stress/lv_demo_stress.c **** 
 1142              		.loc 1 245 0
 1143 04ce FCE5     		b	.L14
 1144              	.LVL198:
 1145              	.L31:
 248:Drivers/lvgl/lvgl/demos/stress/lv_demo_stress.c **** 
 1146              		.loc 1 248 0
 1147 04d0 0125     		movs	r5, #1
 1148 04d2 0095     		str	r5, [sp]
 1149 04d4 6C4B     		ldr	r3, .L63+36
 1150 04d6 6D4A     		ldr	r2, .L63+40
 1151 04d8 6D49     		ldr	r1, .L63+44
 1152 04da 0020     		movs	r0, #0
 1153              	.LVL199:
 1154 04dc FFF7FEFF 		bl	lv_msgbox_create
 1155              	.LVL200:
 1156 04e0 0446     		mov	r4, r0
 1157              	.LVL201:
 250:Drivers/lvgl/lvgl/demos/stress/lv_demo_stress.c ****             lv_timer_set_repeat_count(msgbox_tmr, 1);
 1158              		.loc 1 250 0
 1159 04e2 0246     		mov	r2, r0
 1160 04e4 4FF48C71 		mov	r1, #280
ARM GAS  /tmp/cc9XNXn7.s 			page 41


 1161 04e8 6A48     		ldr	r0, .L63+48
 1162              	.LVL202:
 1163 04ea FFF7FEFF 		bl	lv_timer_create
 1164              	.LVL203:
 251:Drivers/lvgl/lvgl/demos/stress/lv_demo_stress.c ****             lv_obj_align(obj, LV_ALIGN_RIGHT_MID, -10, 0);
 1165              		.loc 1 251 0
 1166 04ee 2946     		mov	r1, r5
 1167 04f0 FFF7FEFF 		bl	lv_timer_set_repeat_count
 1168              	.LVL204:
 252:Drivers/lvgl/lvgl/demos/stress/lv_demo_stress.c ****             break;
 1169              		.loc 1 252 0
 1170 04f4 0023     		movs	r3, #0
 1171 04f6 6FF00902 		mvn	r2, #9
 1172 04fa 0821     		movs	r1, #8
 1173 04fc 2046     		mov	r0, r4
 1174 04fe FFF7FEFF 		bl	lv_obj_align
 1175              	.LVL205:
 253:Drivers/lvgl/lvgl/demos/stress/lv_demo_stress.c **** 
 1176              		.loc 1 253 0
 1177 0502 E2E5     		b	.L14
 1178              	.LVL206:
 1179              	.L32:
 256:Drivers/lvgl/lvgl/demos/stress/lv_demo_stress.c ****             break;
 1180              		.loc 1 256 0
 1181 0504 0021     		movs	r1, #0
 1182 0506 5B4B     		ldr	r3, .L63+16
 1183 0508 1868     		ldr	r0, [r3]
 1184              	.LVL207:
 1185 050a FFF7FEFF 		bl	lv_textarea_set_one_line
 1186              	.LVL208:
 257:Drivers/lvgl/lvgl/demos/stress/lv_demo_stress.c **** 
 1187              		.loc 1 257 0
 1188 050e DCE5     		b	.L14
 1189              	.LVL209:
 1190              	.L33:
 1191              	.LBB125:
 1192              	.LBB126:
 1193              	.LBB127:
 1194              		.loc 3 184 0
 1195 0510 FFF7FEFF 		bl	lv_disp_get_default
 1196              	.LVL210:
 1197 0514 FFF7FEFF 		bl	lv_disp_get_scr_act
 1198              	.LVL211:
 1199              	.LBE127:
 1200              	.LBE126:
 260:Drivers/lvgl/lvgl/demos/stress/lv_demo_stress.c ****                 lv_obj_set_size(tv, 200, 200);
 1201              		.loc 1 260 0
 1202 0518 FFF7FEFF 		bl	lv_tileview_create
 1203              	.LVL212:
 1204 051c 0446     		mov	r4, r0
 1205              	.LVL213:
 261:Drivers/lvgl/lvgl/demos/stress/lv_demo_stress.c ****                 auto_del(tv, LV_DEMO_STRESS_TIME_STEP * 4 + 5);
 1206              		.loc 1 261 0
 1207 051e C822     		movs	r2, #200
 1208 0520 1146     		mov	r1, r2
 1209 0522 FFF7FEFF 		bl	lv_obj_set_size
 1210              	.LVL214:
ARM GAS  /tmp/cc9XNXn7.s 			page 42


 262:Drivers/lvgl/lvgl/demos/stress/lv_demo_stress.c **** 
 1211              		.loc 1 262 0
 1212 0526 CD21     		movs	r1, #205
 1213 0528 2046     		mov	r0, r4
 1214 052a FFF7FEFF 		bl	auto_del
 1215              	.LVL215:
 264:Drivers/lvgl/lvgl/demos/stress/lv_demo_stress.c ****                 obj = lv_label_create(obj);
 1216              		.loc 1 264 0
 1217 052e 0F23     		movs	r3, #15
 1218 0530 0022     		movs	r2, #0
 1219 0532 1146     		mov	r1, r2
 1220 0534 2046     		mov	r0, r4
 1221 0536 FFF7FEFF 		bl	lv_tileview_add_tile
 1222              	.LVL216:
 265:Drivers/lvgl/lvgl/demos/stress/lv_demo_stress.c ****                 lv_label_set_text(obj, "Tile: 0;0");
 1223              		.loc 1 265 0
 1224 053a FFF7FEFF 		bl	lv_label_create
 1225              	.LVL217:
 266:Drivers/lvgl/lvgl/demos/stress/lv_demo_stress.c **** 
 1226              		.loc 1 266 0
 1227 053e 5649     		ldr	r1, .L63+52
 1228 0540 FFF7FEFF 		bl	lv_label_set_text
 1229              	.LVL218:
 268:Drivers/lvgl/lvgl/demos/stress/lv_demo_stress.c ****                 obj = lv_label_create(obj);
 1230              		.loc 1 268 0
 1231 0544 0F23     		movs	r3, #15
 1232 0546 0122     		movs	r2, #1
 1233 0548 0021     		movs	r1, #0
 1234 054a 2046     		mov	r0, r4
 1235 054c FFF7FEFF 		bl	lv_tileview_add_tile
 1236              	.LVL219:
 269:Drivers/lvgl/lvgl/demos/stress/lv_demo_stress.c ****                 lv_label_set_text(obj, "Tile: 0;1");
 1237              		.loc 1 269 0
 1238 0550 FFF7FEFF 		bl	lv_label_create
 1239              	.LVL220:
 270:Drivers/lvgl/lvgl/demos/stress/lv_demo_stress.c **** 
 1240              		.loc 1 270 0
 1241 0554 5149     		ldr	r1, .L63+56
 1242 0556 FFF7FEFF 		bl	lv_label_set_text
 1243              	.LVL221:
 272:Drivers/lvgl/lvgl/demos/stress/lv_demo_stress.c ****                 obj = lv_label_create(obj);
 1244              		.loc 1 272 0
 1245 055a 0F23     		movs	r3, #15
 1246 055c 0122     		movs	r2, #1
 1247 055e 1146     		mov	r1, r2
 1248 0560 2046     		mov	r0, r4
 1249 0562 FFF7FEFF 		bl	lv_tileview_add_tile
 1250              	.LVL222:
 273:Drivers/lvgl/lvgl/demos/stress/lv_demo_stress.c ****                 lv_label_set_text(obj, "Tile: 1;1");
 1251              		.loc 1 273 0
 1252 0566 FFF7FEFF 		bl	lv_label_create
 1253              	.LVL223:
 274:Drivers/lvgl/lvgl/demos/stress/lv_demo_stress.c **** 
 1254              		.loc 1 274 0
 1255 056a 4D49     		ldr	r1, .L63+60
 1256 056c FFF7FEFF 		bl	lv_label_set_text
 1257              	.LVL224:
ARM GAS  /tmp/cc9XNXn7.s 			page 43


 276:Drivers/lvgl/lvgl/demos/stress/lv_demo_stress.c ****             }
 1258              		.loc 1 276 0
 1259 0570 0123     		movs	r3, #1
 1260 0572 1A46     		mov	r2, r3
 1261 0574 1946     		mov	r1, r3
 1262 0576 2046     		mov	r0, r4
 1263 0578 FFF7FEFF 		bl	lv_obj_set_tile_id
 1264              	.LVL225:
 1265              	.LBE125:
 278:Drivers/lvgl/lvgl/demos/stress/lv_demo_stress.c **** 
 1266              		.loc 1 278 0
 1267 057c A5E5     		b	.L14
 1268              	.LVL226:
 1269              	.L34:
 281:Drivers/lvgl/lvgl/demos/stress/lv_demo_stress.c ****             {
 1270              		.loc 1 281 0
 1271 057e 3F4E     		ldr	r6, .L63+24
 1272 0580 3068     		ldr	r0, [r6]
 1273              	.LVL227:
 1274 0582 FFF7FEFF 		bl	lv_list_create
 1275              	.LVL228:
 1276 0586 0446     		mov	r4, r0
 1277              	.LVL229:
 1278              	.LBB128:
 284:Drivers/lvgl/lvgl/demos/stress/lv_demo_stress.c ****                 auto_del(b, 10);
 1279              		.loc 1 284 0
 1280 0588 464D     		ldr	r5, .L63+64
 1281 058a 474A     		ldr	r2, .L63+68
 1282 058c 2946     		mov	r1, r5
 1283 058e FFF7FEFF 		bl	lv_list_add_btn
 1284              	.LVL230:
 285:Drivers/lvgl/lvgl/demos/stress/lv_demo_stress.c ****                 lv_list_add_btn(obj, LV_SYMBOL_OK, "2. Some very long text to scroll");
 1285              		.loc 1 285 0
 1286 0592 0A21     		movs	r1, #10
 1287 0594 FFF7FEFF 		bl	auto_del
 1288              	.LVL231:
 286:Drivers/lvgl/lvgl/demos/stress/lv_demo_stress.c ****                 lv_list_add_btn(obj, LV_SYMBOL_OK, "3. Some very long text to scroll");
 1289              		.loc 1 286 0
 1290 0598 444A     		ldr	r2, .L63+72
 1291 059a 2946     		mov	r1, r5
 1292 059c 2046     		mov	r0, r4
 1293 059e FFF7FEFF 		bl	lv_list_add_btn
 1294              	.LVL232:
 287:Drivers/lvgl/lvgl/demos/stress/lv_demo_stress.c ****                 b = lv_list_add_btn(obj, LV_SYMBOL_OK, "4. Some very long text to scroll");
 1295              		.loc 1 287 0
 1296 05a2 434A     		ldr	r2, .L63+76
 1297 05a4 2946     		mov	r1, r5
 1298 05a6 2046     		mov	r0, r4
 1299 05a8 FFF7FEFF 		bl	lv_list_add_btn
 1300              	.LVL233:
 288:Drivers/lvgl/lvgl/demos/stress/lv_demo_stress.c ****                 auto_del(b, LV_DEMO_STRESS_TIME_STEP);
 1301              		.loc 1 288 0
 1302 05ac 414A     		ldr	r2, .L63+80
 1303 05ae 2946     		mov	r1, r5
 1304 05b0 2046     		mov	r0, r4
 1305 05b2 FFF7FEFF 		bl	lv_list_add_btn
 1306              	.LVL234:
ARM GAS  /tmp/cc9XNXn7.s 			page 44


 289:Drivers/lvgl/lvgl/demos/stress/lv_demo_stress.c ****                 b = lv_list_add_btn(obj, LV_SYMBOL_OK, "5. Some very long text to scroll");
 1307              		.loc 1 289 0
 1308 05b6 3221     		movs	r1, #50
 1309 05b8 FFF7FEFF 		bl	auto_del
 1310              	.LVL235:
 290:Drivers/lvgl/lvgl/demos/stress/lv_demo_stress.c ****                 auto_del(b, LV_DEMO_STRESS_TIME_STEP + 90);
 1311              		.loc 1 290 0
 1312 05bc 3E4A     		ldr	r2, .L63+84
 1313 05be 2946     		mov	r1, r5
 1314 05c0 2046     		mov	r0, r4
 1315 05c2 FFF7FEFF 		bl	lv_list_add_btn
 1316              	.LVL236:
 291:Drivers/lvgl/lvgl/demos/stress/lv_demo_stress.c ****                 b = lv_list_add_btn(obj, LV_SYMBOL_OK, "6. Some very long text to scroll");
 1317              		.loc 1 291 0
 1318 05c6 8C21     		movs	r1, #140
 1319 05c8 FFF7FEFF 		bl	auto_del
 1320              	.LVL237:
 292:Drivers/lvgl/lvgl/demos/stress/lv_demo_stress.c ****                 auto_del(b, LV_DEMO_STRESS_TIME_STEP + 10);
 1321              		.loc 1 292 0
 1322 05cc 3B4A     		ldr	r2, .L63+88
 1323 05ce 2946     		mov	r1, r5
 1324 05d0 2046     		mov	r0, r4
 1325 05d2 FFF7FEFF 		bl	lv_list_add_btn
 1326              	.LVL238:
 293:Drivers/lvgl/lvgl/demos/stress/lv_demo_stress.c ****                 lv_obj_scroll_to_view(lv_obj_get_child(obj, -1),  LV_ANIM_ON);
 1327              		.loc 1 293 0
 1328 05d6 3C21     		movs	r1, #60
 1329 05d8 FFF7FEFF 		bl	auto_del
 1330              	.LVL239:
 294:Drivers/lvgl/lvgl/demos/stress/lv_demo_stress.c ****             }
 1331              		.loc 1 294 0
 1332 05dc 4FF0FF31 		mov	r1, #-1
 1333 05e0 2046     		mov	r0, r4
 1334 05e2 FFF7FEFF 		bl	lv_obj_get_child
 1335              	.LVL240:
 1336 05e6 0121     		movs	r1, #1
 1337 05e8 FFF7FEFF 		bl	lv_obj_scroll_to_view
 1338              	.LVL241:
 1339              	.LBE128:
 296:Drivers/lvgl/lvgl/demos/stress/lv_demo_stress.c **** 
 1340              		.loc 1 296 0
 1341 05ec 40F20911 		movw	r1, #265
 1342 05f0 2046     		mov	r0, r4
 1343 05f2 FFF7FEFF 		bl	auto_del
 1344              	.LVL242:
 298:Drivers/lvgl/lvgl/demos/stress/lv_demo_stress.c ****             lv_table_set_cell_value(obj, 0, 0, "0,0");
 1345              		.loc 1 298 0
 1346 05f6 3068     		ldr	r0, [r6]
 1347 05f8 FFF7FEFF 		bl	lv_table_create
 1348              	.LVL243:
 1349 05fc 0446     		mov	r4, r0
 1350              	.LVL244:
 299:Drivers/lvgl/lvgl/demos/stress/lv_demo_stress.c ****             lv_table_set_cell_value_fmt(obj, 3, 0, "%d,%d", 5, 0);
 1351              		.loc 1 299 0
 1352 05fe 304B     		ldr	r3, .L63+92
 1353 0600 0022     		movs	r2, #0
 1354 0602 1146     		mov	r1, r2
ARM GAS  /tmp/cc9XNXn7.s 			page 45


 1355 0604 FFF7FEFF 		bl	lv_table_set_cell_value
 1356              	.LVL245:
 300:Drivers/lvgl/lvgl/demos/stress/lv_demo_stress.c ****             lv_table_set_row_cnt(obj, 5);
 1357              		.loc 1 300 0
 1358 0608 0025     		movs	r5, #0
 1359 060a 0195     		str	r5, [sp, #4]
 1360 060c 0526     		movs	r6, #5
 1361 060e 0096     		str	r6, [sp]
 1362 0610 2C4B     		ldr	r3, .L63+96
 1363 0612 2A46     		mov	r2, r5
 1364 0614 0321     		movs	r1, #3
 1365 0616 2046     		mov	r0, r4
 1366 0618 FFF7FEFF 		bl	lv_table_set_cell_value_fmt
 1367              	.LVL246:
 301:Drivers/lvgl/lvgl/demos/stress/lv_demo_stress.c ****             lv_table_set_cell_value_fmt(obj, 1, 0, "%s", "1,0");
 1368              		.loc 1 301 0
 1369 061c 3146     		mov	r1, r6
 1370 061e 2046     		mov	r0, r4
 1371 0620 FFF7FEFF 		bl	lv_table_set_row_cnt
 1372              	.LVL247:
 302:Drivers/lvgl/lvgl/demos/stress/lv_demo_stress.c ****             lv_table_set_cell_value(obj, 1, 3, "1,3");
 1373              		.loc 1 302 0
 1374 0624 284B     		ldr	r3, .L63+100
 1375 0626 0093     		str	r3, [sp]
 1376 0628 284B     		ldr	r3, .L63+104
 1377 062a 2A46     		mov	r2, r5
 1378 062c 0121     		movs	r1, #1
 1379 062e 2046     		mov	r0, r4
 1380 0630 FFF7FEFF 		bl	lv_table_set_cell_value_fmt
 1381              	.LVL248:
 303:Drivers/lvgl/lvgl/demos/stress/lv_demo_stress.c ****             break;
 1382              		.loc 1 303 0
 1383 0634 264B     		ldr	r3, .L63+108
 1384 0636 0322     		movs	r2, #3
 1385 0638 0121     		movs	r1, #1
 1386 063a 2046     		mov	r0, r4
 1387 063c FFF7FEFF 		bl	lv_table_set_cell_value
 1388              	.LVL249:
 304:Drivers/lvgl/lvgl/demos/stress/lv_demo_stress.c **** 
 1389              		.loc 1 304 0
 1390 0640 43E5     		b	.L14
 1391              	.LVL250:
 1392              	.L35:
 307:Drivers/lvgl/lvgl/demos/stress/lv_demo_stress.c ****             lv_textarea_set_text(ta, "__INSERTED TEXT" LV_SYMBOL_EDIT"__");
 1393              		.loc 1 307 0
 1394 0642 0C4C     		ldr	r4, .L63+16
 1395 0644 0A21     		movs	r1, #10
 1396 0646 2068     		ldr	r0, [r4]
 1397              	.LVL251:
 1398 0648 FFF7FEFF 		bl	lv_textarea_set_cursor_pos
 1399              	.LVL252:
 308:Drivers/lvgl/lvgl/demos/stress/lv_demo_stress.c ****             break;
 1400              		.loc 1 308 0
 1401 064c 2149     		ldr	r1, .L63+112
 1402 064e 2068     		ldr	r0, [r4]
 1403 0650 FFF7FEFF 		bl	lv_textarea_set_text
 1404              	.LVL253:
ARM GAS  /tmp/cc9XNXn7.s 			page 46


 309:Drivers/lvgl/lvgl/demos/stress/lv_demo_stress.c **** 
 1405              		.loc 1 309 0
 1406 0654 39E5     		b	.L14
 1407              	.LVL254:
 1408              	.L36:
 312:Drivers/lvgl/lvgl/demos/stress/lv_demo_stress.c ****             break;
 1409              		.loc 1 312 0
 1410 0656 0421     		movs	r1, #4
 1411 0658 084B     		ldr	r3, .L63+24
 1412 065a 1868     		ldr	r0, [r3]
 1413              	.LVL255:
 1414 065c FFF7FEFF 		bl	lv_obj_set_flex_flow
 1415              	.LVL256:
 313:Drivers/lvgl/lvgl/demos/stress/lv_demo_stress.c **** 
 1416              		.loc 1 313 0
 1417 0660 33E5     		b	.L14
 1418              	.L64:
 1419 0662 00BF     		.align	2
 1420              	.L63:
 1421 0664 78000000 		.word	.LC9
 1422 0668 34000000 		.word	.LC4
 1423 066c 88000000 		.word	.LC10
 1424 0670 8C000000 		.word	.LC11
 1425 0674 00000000 		.word	.LANCHOR3
 1426 0678 00000000 		.word	set_y_anim
 1427 067c 00000000 		.word	.LANCHOR2
 1428 0680 24010000 		.word	.LC12
 1429 0684 00000000 		.word	arc_set_end_angle_anim
 1430 0688 00000000 		.word	.LANCHOR4
 1431 068c 54010000 		.word	.LC13
 1432 0690 88010000 		.word	.LC14
 1433 0694 00000000 		.word	msgbox_del
 1434 0698 90010000 		.word	.LC15
 1435 069c 9C010000 		.word	.LC16
 1436 06a0 A8010000 		.word	.LC17
 1437 06a4 D8010000 		.word	.LC19
 1438 06a8 B4010000 		.word	.LC18
 1439 06ac DC010000 		.word	.LC20
 1440 06b0 00020000 		.word	.LC21
 1441 06b4 24020000 		.word	.LC22
 1442 06b8 48020000 		.word	.LC23
 1443 06bc 6C020000 		.word	.LC24
 1444 06c0 90020000 		.word	.LC25
 1445 06c4 94020000 		.word	.LC26
 1446 06c8 A0020000 		.word	.LC28
 1447 06cc 9C020000 		.word	.LC27
 1448 06d0 A4020000 		.word	.LC29
 1449 06d4 A8020000 		.word	.LC30
 1450              	.LVL257:
 1451              	.L37:
 316:Drivers/lvgl/lvgl/demos/stress/lv_demo_stress.c ****             lv_textarea_add_char(ta, '0');
 1452              		.loc 1 316 0
 1453 06d8 9C4C     		ldr	r4, .L65
 1454 06da 0021     		movs	r1, #0
 1455 06dc 2068     		ldr	r0, [r4]
 1456              	.LVL258:
 1457 06de FFF7FEFF 		bl	lv_textarea_set_cursor_pos
ARM GAS  /tmp/cc9XNXn7.s 			page 47


 1458              	.LVL259:
 317:Drivers/lvgl/lvgl/demos/stress/lv_demo_stress.c ****             lv_textarea_add_char(ta, '1');
 1459              		.loc 1 317 0
 1460 06e2 3021     		movs	r1, #48
 1461 06e4 2068     		ldr	r0, [r4]
 1462 06e6 FFF7FEFF 		bl	lv_textarea_add_char
 1463              	.LVL260:
 318:Drivers/lvgl/lvgl/demos/stress/lv_demo_stress.c ****             lv_textarea_add_char(ta, '2');
 1464              		.loc 1 318 0
 1465 06ea 3121     		movs	r1, #49
 1466 06ec 2068     		ldr	r0, [r4]
 1467 06ee FFF7FEFF 		bl	lv_textarea_add_char
 1468              	.LVL261:
 319:Drivers/lvgl/lvgl/demos/stress/lv_demo_stress.c ****             lv_textarea_add_char(ta, '3');
 1469              		.loc 1 319 0
 1470 06f2 3221     		movs	r1, #50
 1471 06f4 2068     		ldr	r0, [r4]
 1472 06f6 FFF7FEFF 		bl	lv_textarea_add_char
 1473              	.LVL262:
 320:Drivers/lvgl/lvgl/demos/stress/lv_demo_stress.c ****             lv_textarea_add_char(ta, '4');
 1474              		.loc 1 320 0
 1475 06fa 3321     		movs	r1, #51
 1476 06fc 2068     		ldr	r0, [r4]
 1477 06fe FFF7FEFF 		bl	lv_textarea_add_char
 1478              	.LVL263:
 321:Drivers/lvgl/lvgl/demos/stress/lv_demo_stress.c ****             lv_textarea_add_char(ta, '5');
 1479              		.loc 1 321 0
 1480 0702 3421     		movs	r1, #52
 1481 0704 2068     		ldr	r0, [r4]
 1482 0706 FFF7FEFF 		bl	lv_textarea_add_char
 1483              	.LVL264:
 322:Drivers/lvgl/lvgl/demos/stress/lv_demo_stress.c ****             lv_textarea_add_char(ta, '6');
 1484              		.loc 1 322 0
 1485 070a 3521     		movs	r1, #53
 1486 070c 2068     		ldr	r0, [r4]
 1487 070e FFF7FEFF 		bl	lv_textarea_add_char
 1488              	.LVL265:
 323:Drivers/lvgl/lvgl/demos/stress/lv_demo_stress.c ****             lv_textarea_add_char(ta, '7');
 1489              		.loc 1 323 0
 1490 0712 3621     		movs	r1, #54
 1491 0714 2068     		ldr	r0, [r4]
 1492 0716 FFF7FEFF 		bl	lv_textarea_add_char
 1493              	.LVL266:
 324:Drivers/lvgl/lvgl/demos/stress/lv_demo_stress.c ****             lv_textarea_add_char(ta, '8');
 1494              		.loc 1 324 0
 1495 071a 3721     		movs	r1, #55
 1496 071c 2068     		ldr	r0, [r4]
 1497 071e FFF7FEFF 		bl	lv_textarea_add_char
 1498              	.LVL267:
 325:Drivers/lvgl/lvgl/demos/stress/lv_demo_stress.c ****             lv_textarea_add_char(ta, '9');
 1499              		.loc 1 325 0
 1500 0722 3821     		movs	r1, #56
 1501 0724 2068     		ldr	r0, [r4]
 1502 0726 FFF7FEFF 		bl	lv_textarea_add_char
 1503              	.LVL268:
 326:Drivers/lvgl/lvgl/demos/stress/lv_demo_stress.c ****             lv_textarea_add_char(ta, 'A');
 1504              		.loc 1 326 0
ARM GAS  /tmp/cc9XNXn7.s 			page 48


 1505 072a 3921     		movs	r1, #57
 1506 072c 2068     		ldr	r0, [r4]
 1507 072e FFF7FEFF 		bl	lv_textarea_add_char
 1508              	.LVL269:
 327:Drivers/lvgl/lvgl/demos/stress/lv_demo_stress.c ****             lv_textarea_add_char(ta, 'B');
 1509              		.loc 1 327 0
 1510 0732 4121     		movs	r1, #65
 1511 0734 2068     		ldr	r0, [r4]
 1512 0736 FFF7FEFF 		bl	lv_textarea_add_char
 1513              	.LVL270:
 328:Drivers/lvgl/lvgl/demos/stress/lv_demo_stress.c ****             lv_textarea_add_char(ta, 'C');
 1514              		.loc 1 328 0
 1515 073a 4221     		movs	r1, #66
 1516 073c 2068     		ldr	r0, [r4]
 1517 073e FFF7FEFF 		bl	lv_textarea_add_char
 1518              	.LVL271:
 329:Drivers/lvgl/lvgl/demos/stress/lv_demo_stress.c ****             lv_textarea_add_char(ta, 'D');
 1519              		.loc 1 329 0
 1520 0742 4321     		movs	r1, #67
 1521 0744 2068     		ldr	r0, [r4]
 1522 0746 FFF7FEFF 		bl	lv_textarea_add_char
 1523              	.LVL272:
 330:Drivers/lvgl/lvgl/demos/stress/lv_demo_stress.c ****             lv_textarea_add_char(ta, 'E');
 1524              		.loc 1 330 0
 1525 074a 4421     		movs	r1, #68
 1526 074c 2068     		ldr	r0, [r4]
 1527 074e FFF7FEFF 		bl	lv_textarea_add_char
 1528              	.LVL273:
 331:Drivers/lvgl/lvgl/demos/stress/lv_demo_stress.c ****             lv_textarea_add_char(ta, 'F');
 1529              		.loc 1 331 0
 1530 0752 4521     		movs	r1, #69
 1531 0754 2068     		ldr	r0, [r4]
 1532 0756 FFF7FEFF 		bl	lv_textarea_add_char
 1533              	.LVL274:
 332:Drivers/lvgl/lvgl/demos/stress/lv_demo_stress.c ****             lv_textarea_add_text(ta, LV_SYMBOL_OK);
 1534              		.loc 1 332 0
 1535 075a 4621     		movs	r1, #70
 1536 075c 2068     		ldr	r0, [r4]
 1537 075e FFF7FEFF 		bl	lv_textarea_add_char
 1538              	.LVL275:
 333:Drivers/lvgl/lvgl/demos/stress/lv_demo_stress.c ****             lv_textarea_add_text(ta, LV_SYMBOL_CLOSE);
 1539              		.loc 1 333 0
 1540 0762 7B49     		ldr	r1, .L65+4
 1541 0764 2068     		ldr	r0, [r4]
 1542 0766 FFF7FEFF 		bl	lv_textarea_add_text
 1543              	.LVL276:
 334:Drivers/lvgl/lvgl/demos/stress/lv_demo_stress.c ****             lv_textarea_add_text(ta, LV_SYMBOL_COPY);
 1544              		.loc 1 334 0
 1545 076a 7A49     		ldr	r1, .L65+8
 1546 076c 2068     		ldr	r0, [r4]
 1547 076e FFF7FEFF 		bl	lv_textarea_add_text
 1548              	.LVL277:
 335:Drivers/lvgl/lvgl/demos/stress/lv_demo_stress.c ****             lv_textarea_add_text(ta, LV_SYMBOL_SAVE);
 1549              		.loc 1 335 0
 1550 0772 7949     		ldr	r1, .L65+12
 1551 0774 2068     		ldr	r0, [r4]
 1552 0776 FFF7FEFF 		bl	lv_textarea_add_text
ARM GAS  /tmp/cc9XNXn7.s 			page 49


 1553              	.LVL278:
 336:Drivers/lvgl/lvgl/demos/stress/lv_demo_stress.c ****             lv_textarea_add_text(ta, LV_SYMBOL_PASTE);
 1554              		.loc 1 336 0
 1555 077a 7849     		ldr	r1, .L65+16
 1556 077c 2068     		ldr	r0, [r4]
 1557 077e FFF7FEFF 		bl	lv_textarea_add_text
 1558              	.LVL279:
 337:Drivers/lvgl/lvgl/demos/stress/lv_demo_stress.c ****             break;
 1559              		.loc 1 337 0
 1560 0782 7749     		ldr	r1, .L65+20
 1561 0784 2068     		ldr	r0, [r4]
 1562 0786 FFF7FEFF 		bl	lv_textarea_add_text
 1563              	.LVL280:
 338:Drivers/lvgl/lvgl/demos/stress/lv_demo_stress.c **** 
 1564              		.loc 1 338 0
 1565 078a 9EE4     		b	.L14
 1566              	.LVL281:
 1567              	.L38:
 341:Drivers/lvgl/lvgl/demos/stress/lv_demo_stress.c ****             lv_spinbox_set_digit_format(obj, 6, 3);
 1568              		.loc 1 341 0
 1569 078c 754D     		ldr	r5, .L65+24
 1570 078e 2868     		ldr	r0, [r5]
 1571              	.LVL282:
 1572 0790 FFF7FEFF 		bl	lv_spinbox_create
 1573              	.LVL283:
 1574 0794 0446     		mov	r4, r0
 1575              	.LVL284:
 342:Drivers/lvgl/lvgl/demos/stress/lv_demo_stress.c ****             lv_spinbox_set_value(obj, 5678);
 1576              		.loc 1 342 0
 1577 0796 0322     		movs	r2, #3
 1578 0798 0621     		movs	r1, #6
 1579 079a FFF7FEFF 		bl	lv_spinbox_set_digit_format
 1580              	.LVL285:
 343:Drivers/lvgl/lvgl/demos/stress/lv_demo_stress.c ****             lv_spinbox_set_step(obj, 10);
 1581              		.loc 1 343 0
 1582 079e 41F22E61 		movw	r1, #5678
 1583 07a2 2046     		mov	r0, r4
 1584 07a4 FFF7FEFF 		bl	lv_spinbox_set_value
 1585              	.LVL286:
 344:Drivers/lvgl/lvgl/demos/stress/lv_demo_stress.c ****             lv_spinbox_increment(obj);
 1586              		.loc 1 344 0
 1587 07a8 0A21     		movs	r1, #10
 1588 07aa 2046     		mov	r0, r4
 1589 07ac FFF7FEFF 		bl	lv_spinbox_set_step
 1590              	.LVL287:
 345:Drivers/lvgl/lvgl/demos/stress/lv_demo_stress.c ****             lv_spinbox_increment(obj);
 1591              		.loc 1 345 0
 1592 07b0 2046     		mov	r0, r4
 1593 07b2 FFF7FEFF 		bl	lv_spinbox_increment
 1594              	.LVL288:
 346:Drivers/lvgl/lvgl/demos/stress/lv_demo_stress.c ****             lv_spinbox_increment(obj);
 1595              		.loc 1 346 0
 1596 07b6 2046     		mov	r0, r4
 1597 07b8 FFF7FEFF 		bl	lv_spinbox_increment
 1598              	.LVL289:
 347:Drivers/lvgl/lvgl/demos/stress/lv_demo_stress.c ****             lv_spinbox_set_step(obj, 100);
 1599              		.loc 1 347 0
ARM GAS  /tmp/cc9XNXn7.s 			page 50


 1600 07bc 2046     		mov	r0, r4
 1601 07be FFF7FEFF 		bl	lv_spinbox_increment
 1602              	.LVL290:
 348:Drivers/lvgl/lvgl/demos/stress/lv_demo_stress.c ****             lv_spinbox_increment(obj);
 1603              		.loc 1 348 0
 1604 07c2 6421     		movs	r1, #100
 1605 07c4 2046     		mov	r0, r4
 1606 07c6 FFF7FEFF 		bl	lv_spinbox_set_step
 1607              	.LVL291:
 349:Drivers/lvgl/lvgl/demos/stress/lv_demo_stress.c ****             lv_spinbox_increment(obj);
 1608              		.loc 1 349 0
 1609 07ca 2046     		mov	r0, r4
 1610 07cc FFF7FEFF 		bl	lv_spinbox_increment
 1611              	.LVL292:
 350:Drivers/lvgl/lvgl/demos/stress/lv_demo_stress.c ****             lv_spinbox_set_step(obj, 1);
 1612              		.loc 1 350 0
 1613 07d0 2046     		mov	r0, r4
 1614 07d2 FFF7FEFF 		bl	lv_spinbox_increment
 1615              	.LVL293:
 351:Drivers/lvgl/lvgl/demos/stress/lv_demo_stress.c ****             lv_spinbox_increment(obj);
 1616              		.loc 1 351 0
 1617 07d6 0121     		movs	r1, #1
 1618 07d8 2046     		mov	r0, r4
 1619 07da FFF7FEFF 		bl	lv_spinbox_set_step
 1620              	.LVL294:
 352:Drivers/lvgl/lvgl/demos/stress/lv_demo_stress.c ****             lv_spinbox_increment(obj);
 1621              		.loc 1 352 0
 1622 07de 2046     		mov	r0, r4
 1623 07e0 FFF7FEFF 		bl	lv_spinbox_increment
 1624              	.LVL295:
 353:Drivers/lvgl/lvgl/demos/stress/lv_demo_stress.c ****             auto_del(obj, LV_DEMO_STRESS_TIME_STEP * 2 + 15);
 1625              		.loc 1 353 0
 1626 07e4 2046     		mov	r0, r4
 1627 07e6 FFF7FEFF 		bl	lv_spinbox_increment
 1628              	.LVL296:
 354:Drivers/lvgl/lvgl/demos/stress/lv_demo_stress.c **** 
 1629              		.loc 1 354 0
 1630 07ea 7321     		movs	r1, #115
 1631 07ec 2046     		mov	r0, r4
 1632 07ee FFF7FEFF 		bl	auto_del
 1633              	.LVL297:
 356:Drivers/lvgl/lvgl/demos/stress/lv_demo_stress.c **** 
 1634              		.loc 1 356 0
 1635 07f2 0123     		movs	r3, #1
 1636 07f4 1422     		movs	r2, #20
 1637 07f6 0021     		movs	r1, #0
 1638 07f8 2868     		ldr	r0, [r5]
 1639 07fa FFF7FEFF 		bl	lv_obj_scroll_by
 1640              	.LVL298:
 358:Drivers/lvgl/lvgl/demos/stress/lv_demo_stress.c **** 
 1641              		.loc 1 358 0
 1642 07fe 64E4     		b	.L14
 1643              	.LVL299:
 1644              	.L39:
 361:Drivers/lvgl/lvgl/demos/stress/lv_demo_stress.c ****             {
 1645              		.loc 1 361 0
 1646 0800 584E     		ldr	r6, .L65+24
ARM GAS  /tmp/cc9XNXn7.s 			page 51


 1647 0802 3068     		ldr	r0, [r6]
 1648              	.LVL300:
 1649 0804 FFF7FEFF 		bl	lv_chart_create
 1650              	.LVL301:
 1651 0808 0446     		mov	r4, r0
 1652              	.LVL302:
 1653              	.LBB129:
 363:Drivers/lvgl/lvgl/demos/stress/lv_demo_stress.c ****                 lv_chart_set_next_value(obj, s1, 36);
 1654              		.loc 1 363 0
 1655 080a 0020     		movs	r0, #0
 1656              	.LVL303:
 1657 080c FFF7FEFF 		bl	lv_palette_main
 1658              	.LVL304:
 1659 0810 0022     		movs	r2, #0
 1660 0812 0146     		mov	r1, r0	@ movhi
 1661 0814 2046     		mov	r0, r4
 1662 0816 FFF7FEFF 		bl	lv_chart_add_series
 1663              	.LVL305:
 1664 081a 0546     		mov	r5, r0
 1665              	.LVL306:
 364:Drivers/lvgl/lvgl/demos/stress/lv_demo_stress.c ****                 lv_chart_set_next_value(obj, s1, -29);
 1666              		.loc 1 364 0
 1667 081c 2422     		movs	r2, #36
 1668 081e 0146     		mov	r1, r0
 1669 0820 2046     		mov	r0, r4
 1670              	.LVL307:
 1671 0822 FFF7FEFF 		bl	lv_chart_set_next_value
 1672              	.LVL308:
 365:Drivers/lvgl/lvgl/demos/stress/lv_demo_stress.c ****                 lv_chart_set_next_value(obj, s1, 51);
 1673              		.loc 1 365 0
 1674 0826 6FF01C02 		mvn	r2, #28
 1675 082a 2946     		mov	r1, r5
 1676 082c 2046     		mov	r0, r4
 1677 082e FFF7FEFF 		bl	lv_chart_set_next_value
 1678              	.LVL309:
 366:Drivers/lvgl/lvgl/demos/stress/lv_demo_stress.c ****                 lv_chart_set_next_value(obj, s1, 107);
 1679              		.loc 1 366 0
 1680 0832 3322     		movs	r2, #51
 1681 0834 2946     		mov	r1, r5
 1682 0836 2046     		mov	r0, r4
 1683 0838 FFF7FEFF 		bl	lv_chart_set_next_value
 1684              	.LVL310:
 367:Drivers/lvgl/lvgl/demos/stress/lv_demo_stress.c ****                 lv_chart_set_next_value(obj, s1, 70);
 1685              		.loc 1 367 0
 1686 083c 6B22     		movs	r2, #107
 1687 083e 2946     		mov	r1, r5
 1688 0840 2046     		mov	r0, r4
 1689 0842 FFF7FEFF 		bl	lv_chart_set_next_value
 1690              	.LVL311:
 368:Drivers/lvgl/lvgl/demos/stress/lv_demo_stress.c ****                 lv_chart_set_next_value(obj, s1, 36);
 1691              		.loc 1 368 0
 1692 0846 4622     		movs	r2, #70
 1693 0848 2946     		mov	r1, r5
 1694 084a 2046     		mov	r0, r4
 1695 084c FFF7FEFF 		bl	lv_chart_set_next_value
 1696              	.LVL312:
 369:Drivers/lvgl/lvgl/demos/stress/lv_demo_stress.c ****                 lv_chart_set_next_value(obj, s1, -2);
ARM GAS  /tmp/cc9XNXn7.s 			page 52


 1697              		.loc 1 369 0
 1698 0850 2422     		movs	r2, #36
 1699 0852 2946     		mov	r1, r5
 1700 0854 2046     		mov	r0, r4
 1701 0856 FFF7FEFF 		bl	lv_chart_set_next_value
 1702              	.LVL313:
 370:Drivers/lvgl/lvgl/demos/stress/lv_demo_stress.c ****                 lv_chart_set_next_value(obj, s1, 63);
 1703              		.loc 1 370 0
 1704 085a 6FF00102 		mvn	r2, #1
 1705 085e 2946     		mov	r1, r5
 1706 0860 2046     		mov	r0, r4
 1707 0862 FFF7FEFF 		bl	lv_chart_set_next_value
 1708              	.LVL314:
 371:Drivers/lvgl/lvgl/demos/stress/lv_demo_stress.c ****                 lv_chart_set_next_value(obj, s1, 48);
 1709              		.loc 1 371 0
 1710 0866 3F22     		movs	r2, #63
 1711 0868 2946     		mov	r1, r5
 1712 086a 2046     		mov	r0, r4
 1713 086c FFF7FEFF 		bl	lv_chart_set_next_value
 1714              	.LVL315:
 372:Drivers/lvgl/lvgl/demos/stress/lv_demo_stress.c ****                 lv_chart_set_next_value(obj, s1, 72);
 1715              		.loc 1 372 0
 1716 0870 3022     		movs	r2, #48
 1717 0872 2946     		mov	r1, r5
 1718 0874 2046     		mov	r0, r4
 1719 0876 FFF7FEFF 		bl	lv_chart_set_next_value
 1720              	.LVL316:
 373:Drivers/lvgl/lvgl/demos/stress/lv_demo_stress.c **** 
 1721              		.loc 1 373 0
 1722 087a 4822     		movs	r2, #72
 1723 087c 2946     		mov	r1, r5
 1724 087e 2046     		mov	r0, r4
 1725 0880 FFF7FEFF 		bl	lv_chart_set_next_value
 1726              	.LVL317:
 375:Drivers/lvgl/lvgl/demos/stress/lv_demo_stress.c ****             }
 1727              		.loc 1 375 0
 1728 0884 9621     		movs	r1, #150
 1729 0886 2046     		mov	r0, r4
 1730 0888 FFF7FEFF 		bl	auto_del
 1731              	.LVL318:
 1732              	.LBE129:
 378:Drivers/lvgl/lvgl/demos/stress/lv_demo_stress.c ****             break;
 1733              		.loc 1 378 0
 1734 088c 0123     		movs	r3, #1
 1735 088e 1422     		movs	r2, #20
 1736 0890 0021     		movs	r1, #0
 1737 0892 3068     		ldr	r0, [r6]
 1738 0894 FFF7FEFF 		bl	lv_obj_scroll_by
 1739              	.LVL319:
 379:Drivers/lvgl/lvgl/demos/stress/lv_demo_stress.c **** 
 1740              		.loc 1 379 0
 1741 0898 17E4     		b	.L14
 1742              	.LVL320:
 1743              	.L40:
 382:Drivers/lvgl/lvgl/demos/stress/lv_demo_stress.c ****             lv_checkbox_set_text(obj, "An option to select");
 1744              		.loc 1 382 0
 1745 089a 324C     		ldr	r4, .L65+24
ARM GAS  /tmp/cc9XNXn7.s 			page 53


 1746 089c 2068     		ldr	r0, [r4]
 1747              	.LVL321:
 1748 089e FFF7FEFF 		bl	lv_checkbox_create
 1749              	.LVL322:
 1750 08a2 0546     		mov	r5, r0
 1751              	.LVL323:
 383:Drivers/lvgl/lvgl/demos/stress/lv_demo_stress.c ****             auto_del(obj, LV_DEMO_STRESS_TIME_STEP * 2 + 20);
 1752              		.loc 1 383 0
 1753 08a4 3049     		ldr	r1, .L65+28
 1754 08a6 FFF7FEFF 		bl	lv_checkbox_set_text
 1755              	.LVL324:
 384:Drivers/lvgl/lvgl/demos/stress/lv_demo_stress.c **** 
 1756              		.loc 1 384 0
 1757 08aa 7821     		movs	r1, #120
 1758 08ac 2846     		mov	r0, r5
 1759 08ae FFF7FEFF 		bl	auto_del
 1760              	.LVL325:
 386:Drivers/lvgl/lvgl/demos/stress/lv_demo_stress.c ****             lv_obj_add_state(obj, LV_STATE_CHECKED);
 1761              		.loc 1 386 0
 1762 08b2 2068     		ldr	r0, [r4]
 1763 08b4 FFF7FEFF 		bl	lv_checkbox_create
 1764              	.LVL326:
 387:Drivers/lvgl/lvgl/demos/stress/lv_demo_stress.c **** 
 1765              		.loc 1 387 0
 1766 08b8 0121     		movs	r1, #1
 1767 08ba FFF7FEFF 		bl	lv_obj_add_state
 1768              	.LVL327:
 389:Drivers/lvgl/lvgl/demos/stress/lv_demo_stress.c ****             lv_obj_add_state(obj, LV_STATE_CHECKED | LV_STATE_DISABLED);
 1769              		.loc 1 389 0
 1770 08be 2068     		ldr	r0, [r4]
 1771 08c0 FFF7FEFF 		bl	lv_checkbox_create
 1772              	.LVL328:
 1773 08c4 0546     		mov	r5, r0
 1774              	.LVL329:
 390:Drivers/lvgl/lvgl/demos/stress/lv_demo_stress.c ****             auto_del(obj, LV_DEMO_STRESS_TIME_STEP * 1 + 60);
 1775              		.loc 1 390 0
 1776 08c6 8121     		movs	r1, #129
 1777 08c8 FFF7FEFF 		bl	lv_obj_add_state
 1778              	.LVL330:
 391:Drivers/lvgl/lvgl/demos/stress/lv_demo_stress.c **** 
 1779              		.loc 1 391 0
 1780 08cc 6E21     		movs	r1, #110
 1781 08ce 2846     		mov	r0, r5
 1782 08d0 FFF7FEFF 		bl	auto_del
 1783              	.LVL331:
 393:Drivers/lvgl/lvgl/demos/stress/lv_demo_stress.c **** 
 1784              		.loc 1 393 0
 1785 08d4 0123     		movs	r3, #1
 1786 08d6 1422     		movs	r2, #20
 1787 08d8 0021     		movs	r1, #0
 1788 08da 2068     		ldr	r0, [r4]
 1789 08dc FFF7FEFF 		bl	lv_obj_scroll_by
 1790              	.LVL332:
 395:Drivers/lvgl/lvgl/demos/stress/lv_demo_stress.c **** 
 1791              		.loc 1 395 0
 1792 08e0 FFF7F3BB 		b	.L14
 1793              	.LVL333:
ARM GAS  /tmp/cc9XNXn7.s 			page 54


 1794              	.L41:
 398:Drivers/lvgl/lvgl/demos/stress/lv_demo_stress.c ****             {
 1795              		.loc 1 398 0
 1796 08e4 1421     		movs	r1, #20
 1797 08e6 194B     		ldr	r3, .L65
 1798 08e8 1868     		ldr	r0, [r3]
 1799              	.LVL334:
 1800 08ea FFF7FEFF 		bl	lv_textarea_set_cursor_pos
 1801              	.LVL335:
 1802              	.LBB130:
 401:Drivers/lvgl/lvgl/demos/stress/lv_demo_stress.c ****                     lv_textarea_del_char_forward(ta);
 1803              		.loc 1 401 0
 1804 08ee 0024     		movs	r4, #0
 1805 08f0 05E0     		b	.L52
 1806              	.LVL336:
 1807              	.L53:
 402:Drivers/lvgl/lvgl/demos/stress/lv_demo_stress.c ****                 }
 1808              		.loc 1 402 0 discriminator 3
 1809 08f2 164B     		ldr	r3, .L65
 1810 08f4 1868     		ldr	r0, [r3]
 1811 08f6 FFF7FEFF 		bl	lv_textarea_del_char_forward
 1812              	.LVL337:
 401:Drivers/lvgl/lvgl/demos/stress/lv_demo_stress.c ****                     lv_textarea_del_char_forward(ta);
 1813              		.loc 1 401 0 discriminator 3
 1814 08fa 0134     		adds	r4, r4, #1
 1815              	.LVL338:
 1816 08fc A4B2     		uxth	r4, r4
 1817              	.LVL339:
 1818              	.L52:
 401:Drivers/lvgl/lvgl/demos/stress/lv_demo_stress.c ****                     lv_textarea_del_char_forward(ta);
 1819              		.loc 1 401 0 is_stmt 0 discriminator 1
 1820 08fe 3F2C     		cmp	r4, #63
 1821 0900 F7D9     		bls	.L53
 1822 0902 FFF7E2BB 		b	.L14
 1823              	.LVL340:
 1824              	.L42:
 1825              	.LBE130:
 408:Drivers/lvgl/lvgl/demos/stress/lv_demo_stress.c ****             break;
 1826              		.loc 1 408 0 is_stmt 1
 1827 0906 0121     		movs	r1, #1
 1828 0908 104B     		ldr	r3, .L65
 1829 090a 1868     		ldr	r0, [r3]
 1830              	.LVL341:
 1831 090c FFF7FEFF 		bl	lv_textarea_set_one_line
 1832              	.LVL342:
 409:Drivers/lvgl/lvgl/demos/stress/lv_demo_stress.c ****         case 29:
 1833              		.loc 1 409 0
 1834 0910 FFF7DBBB 		b	.L14
 1835              	.LVL343:
 1836              	.L43:
 411:Drivers/lvgl/lvgl/demos/stress/lv_demo_stress.c ****             lv_obj_del(ta);
 1837              		.loc 1 411 0
 1838 0914 134B     		ldr	r3, .L65+24
 1839 0916 1868     		ldr	r0, [r3]
 1840              	.LVL344:
 1841 0918 FFF7FEFF 		bl	lv_obj_clean
 1842              	.LVL345:
ARM GAS  /tmp/cc9XNXn7.s 			page 55


 412:Drivers/lvgl/lvgl/demos/stress/lv_demo_stress.c ****             ta = NULL;
 1843              		.loc 1 412 0
 1844 091c 0B4C     		ldr	r4, .L65
 1845 091e 2068     		ldr	r0, [r4]
 1846 0920 FFF7FEFF 		bl	lv_obj_del
 1847              	.LVL346:
 413:Drivers/lvgl/lvgl/demos/stress/lv_demo_stress.c ****             break;
 1848              		.loc 1 413 0
 1849 0924 0023     		movs	r3, #0
 1850 0926 2360     		str	r3, [r4]
 414:Drivers/lvgl/lvgl/demos/stress/lv_demo_stress.c ****         case 31:
 1851              		.loc 1 414 0
 1852 0928 FFF7CFBB 		b	.L14
 1853              	.LVL347:
 1854              	.L44:
 1855              	.LBB131:
 1856              	.LBB132:
 1857              		.loc 3 184 0
 1858 092c FFF7FEFF 		bl	lv_disp_get_default
 1859              	.LVL348:
 1860 0930 FFF7FEFF 		bl	lv_disp_get_scr_act
 1861              	.LVL349:
 1862              	.LBE132:
 1863              	.LBE131:
 416:Drivers/lvgl/lvgl/demos/stress/lv_demo_stress.c ****             main_page = NULL;
 1864              		.loc 1 416 0
 1865 0934 FFF7FEFF 		bl	lv_obj_clean
 1866              	.LVL350:
 417:Drivers/lvgl/lvgl/demos/stress/lv_demo_stress.c ****             state = -2;
 1867              		.loc 1 417 0
 1868 0938 0A4B     		ldr	r3, .L65+24
 1869 093a 0022     		movs	r2, #0
 1870 093c 1A60     		str	r2, [r3]
 418:Drivers/lvgl/lvgl/demos/stress/lv_demo_stress.c ****             break;
 1871              		.loc 1 418 0
 1872 093e 0B4B     		ldr	r3, .L65+32
 1873 0940 4FF6FE72 		movw	r2, #65534
 1874 0944 1A80     		strh	r2, [r3]	@ movhi
 419:Drivers/lvgl/lvgl/demos/stress/lv_demo_stress.c ****         default:
 1875              		.loc 1 419 0
 1876 0946 FFF7C0BB 		b	.L14
 1877              	.L66:
 1878 094a 00BF     		.align	2
 1879              	.L65:
 1880 094c 00000000 		.word	.LANCHOR3
 1881 0950 D8010000 		.word	.LC19
 1882 0954 34000000 		.word	.LC4
 1883 0958 C0020000 		.word	.LC31
 1884 095c C4020000 		.word	.LC32
 1885 0960 C8020000 		.word	.LC33
 1886 0964 00000000 		.word	.LANCHOR2
 1887 0968 CC020000 		.word	.LC34
 1888 096c 00000000 		.word	.LANCHOR0
 1889              	.LBE133:
 1890              		.cfi_endproc
 1891              	.LFE203:
 1893              		.section	.text.lv_demo_stress,"ax",%progbits
ARM GAS  /tmp/cc9XNXn7.s 			page 56


 1894              		.align	1
 1895              		.global	lv_demo_stress
 1896              		.syntax unified
 1897              		.thumb
 1898              		.thumb_func
 1899              		.fpu fpv5-d16
 1901              	lv_demo_stress:
 1902              	.LFB202:
  46:Drivers/lvgl/lvgl/demos/stress/lv_demo_stress.c ****     LV_LOG_USER("Starting stress test. (< 100 bytes permanent memory leak is normal due to fragment
 1903              		.loc 1 46 0
 1904              		.cfi_startproc
 1905              		@ args = 0, pretend = 0, frame = 0
 1906              		@ frame_needed = 0, uses_anonymous_args = 0
 1907 0000 08B5     		push	{r3, lr}
 1908              	.LCFI11:
 1909              		.cfi_def_cfa_offset 8
 1910              		.cfi_offset 3, -8
 1911              		.cfi_offset 14, -4
  48:Drivers/lvgl/lvgl/demos/stress/lv_demo_stress.c **** }
 1912              		.loc 1 48 0
 1913 0002 0022     		movs	r2, #0
 1914 0004 3221     		movs	r1, #50
 1915 0006 0248     		ldr	r0, .L69
 1916 0008 FFF7FEFF 		bl	lv_timer_create
 1917              	.LVL351:
  49:Drivers/lvgl/lvgl/demos/stress/lv_demo_stress.c **** 
 1918              		.loc 1 49 0
 1919 000c 08BD     		pop	{r3, pc}
 1920              	.L70:
 1921 000e 00BF     		.align	2
 1922              	.L69:
 1923 0010 00000000 		.word	obj_test_task_cb
 1924              		.cfi_endproc
 1925              	.LFE202:
 1927              		.section	.bss.main_page,"aw",%nobits
 1928              		.align	2
 1929              		.set	.LANCHOR2,. + 0
 1932              	main_page:
 1933 0000 00000000 		.space	4
 1934              		.section	.bss.mem_free_start,"aw",%nobits
 1935              		.align	2
 1936              		.set	.LANCHOR1,. + 0
 1939              	mem_free_start:
 1940 0000 00000000 		.space	4
 1941              		.section	.bss.ta,"aw",%nobits
 1942              		.align	2
 1943              		.set	.LANCHOR3,. + 0
 1946              	ta:
 1947 0000 00000000 		.space	4
 1948              		.section	.data.mbox_btns,"aw",%progbits
 1949              		.align	2
 1950              		.set	.LANCHOR4,. + 0
 1953              	mbox_btns:
 1954 0000 00000000 		.word	.LC35
 1955 0004 04000000 		.word	.LC36
 1956 0008 0C000000 		.word	.LC37
 1957              		.section	.data.state.12533,"aw",%progbits
ARM GAS  /tmp/cc9XNXn7.s 			page 57


 1958              		.align	1
 1959              		.set	.LANCHOR0,. + 0
 1962              	state.12533:
 1963 0000 FFFF     		.short	-1
 1964              		.section	.rodata.obj_test_task_cb.str1.4,"aMS",%progbits,1
 1965              		.align	2
 1966              	.LC0:
 1967 0000 4D756C74 		.ascii	"Multi line\012\357\200\214\357\200\215\357\207\253\000"
 1967      69206C69 
 1967      6E650AEF 
 1967      808CEF80 
 1967      8DEF87AB 
 1968 0015 000000   		.space	3
 1969              	.LC1:
 1970 0018 46697273 		.ascii	"First\000"
 1970      7400
 1971 001e 0000     		.space	2
 1972              	.LC2:
 1973 0020 5365636F 		.ascii	"Second\000"
 1973      6E6400
 1974 0027 00       		.space	1
 1975              	.LC3:
 1976 0028 EF8C8420 		.ascii	"\357\214\204 Edit\000"
 1976      45646974 
 1976      00
 1977 0031 000000   		.space	3
 1978              	.LC4:
 1979 0034 EF808D00 		.ascii	"\357\200\215\000"
 1980              	.LC5:
 1981 0038 566F6C74 		.ascii	"Volt\000"
 1981      00
 1982 003d 000000   		.space	3
 1983              	.LC6:
 1984 0040 466F726D 		.ascii	"Formatted:\012%d %s\000"
 1984      61747465 
 1984      643A0A25 
 1984      64202573 
 1984      00
 1985 0051 000000   		.space	3
 1986              	.LC7:
 1987 0054 54686520 		.ascii	"The placeholder\000"
 1987      706C6163 
 1987      65686F6C 
 1987      64657200 
 1988              	.LC8:
 1989 0064 EFA3BF54 		.ascii	"\357\243\277Text from\012style\000"
 1989      65787420 
 1989      66726F6D 
 1989      0A737479 
 1989      6C6500
 1990 0077 00       		.space	1
 1991              	.LC9:
 1992 0078 57696E64 		.ascii	"Window title\000"
 1992      6F772074 
 1992      69746C65 
 1992      00
 1993 0085 000000   		.space	3
ARM GAS  /tmp/cc9XNXn7.s 			page 58


 1994              	.LC10:
 1995 0088 EF81B800 		.ascii	"\357\201\270\000"
 1996              	.LC11:
 1997 008c 41207665 		.ascii	"A very very long text which will should make the te"
 1997      72792076 
 1997      65727920 
 1997      6C6F6E67 
 1997      20746578 
 1998 00bf 78742061 		.ascii	"xt area scrollableHere area some dummy sentences to"
 1998      72656120 
 1998      7363726F 
 1998      6C6C6162 
 1998      6C654865 
 1999 00f2 20626520 		.ascii	" be sure the text area will be really scrollable.\000"
 1999      73757265 
 1999      20746865 
 1999      20746578 
 1999      74206172 
 2000              	.LC12:
 2001 0124 5A65726F 		.ascii	"Zero\012One\012Two\012Three\012Four\012Five\012Six\012"
 2001      0A4F6E65 
 2001      0A54776F 
 2001      0A546872 
 2001      65650A46 
 2002 0145 53657665 		.ascii	"Seven\012Eight\000"
 2002      6E0A4569 
 2002      67687400 
 2003 0151 000000   		.space	3
 2004              	.LC13:
 2005 0154 536F6D65 		.ascii	"Some text on the message box with average length\000"
 2005      20746578 
 2005      74206F6E 
 2005      20746865 
 2005      206D6573 
 2006 0185 000000   		.space	3
 2007              	.LC14:
 2008 0188 5469746C 		.ascii	"Title\000"
 2008      6500
 2009 018e 0000     		.space	2
 2010              	.LC15:
 2011 0190 54696C65 		.ascii	"Tile: 0;0\000"
 2011      3A20303B 
 2011      3000
 2012 019a 0000     		.space	2
 2013              	.LC16:
 2014 019c 54696C65 		.ascii	"Tile: 0;1\000"
 2014      3A20303B 
 2014      3100
 2015 01a6 0000     		.space	2
 2016              	.LC17:
 2017 01a8 54696C65 		.ascii	"Tile: 1;1\000"
 2017      3A20313B 
 2017      3100
 2018 01b2 0000     		.space	2
 2019              	.LC18:
 2020 01b4 312E2053 		.ascii	"1. Some very long text to scroll\000"
 2020      6F6D6520 
ARM GAS  /tmp/cc9XNXn7.s 			page 59


 2020      76657279 
 2020      206C6F6E 
 2020      67207465 
 2021 01d5 000000   		.space	3
 2022              	.LC19:
 2023 01d8 EF808C00 		.ascii	"\357\200\214\000"
 2024              	.LC20:
 2025 01dc 322E2053 		.ascii	"2. Some very long text to scroll\000"
 2025      6F6D6520 
 2025      76657279 
 2025      206C6F6E 
 2025      67207465 
 2026 01fd 000000   		.space	3
 2027              	.LC21:
 2028 0200 332E2053 		.ascii	"3. Some very long text to scroll\000"
 2028      6F6D6520 
 2028      76657279 
 2028      206C6F6E 
 2028      67207465 
 2029 0221 000000   		.space	3
 2030              	.LC22:
 2031 0224 342E2053 		.ascii	"4. Some very long text to scroll\000"
 2031      6F6D6520 
 2031      76657279 
 2031      206C6F6E 
 2031      67207465 
 2032 0245 000000   		.space	3
 2033              	.LC23:
 2034 0248 352E2053 		.ascii	"5. Some very long text to scroll\000"
 2034      6F6D6520 
 2034      76657279 
 2034      206C6F6E 
 2034      67207465 
 2035 0269 000000   		.space	3
 2036              	.LC24:
 2037 026c 362E2053 		.ascii	"6. Some very long text to scroll\000"
 2037      6F6D6520 
 2037      76657279 
 2037      206C6F6E 
 2037      67207465 
 2038 028d 000000   		.space	3
 2039              	.LC25:
 2040 0290 302C3000 		.ascii	"0,0\000"
 2041              	.LC26:
 2042 0294 25642C25 		.ascii	"%d,%d\000"
 2042      6400
 2043 029a 0000     		.space	2
 2044              	.LC27:
 2045 029c 257300   		.ascii	"%s\000"
 2046 029f 00       		.space	1
 2047              	.LC28:
 2048 02a0 312C3000 		.ascii	"1,0\000"
 2049              	.LC29:
 2050 02a4 312C3300 		.ascii	"1,3\000"
 2051              	.LC30:
 2052 02a8 5F5F494E 		.ascii	"__INSERTED TEXT\357\214\204__\000"
 2052      53455254 
ARM GAS  /tmp/cc9XNXn7.s 			page 60


 2052      45442054 
 2052      455854EF 
 2052      8C845F5F 
 2053 02bd 000000   		.space	3
 2054              	.LC31:
 2055 02c0 EF838500 		.ascii	"\357\203\205\000"
 2056              	.LC32:
 2057 02c4 EF838700 		.ascii	"\357\203\207\000"
 2058              	.LC33:
 2059 02c8 EF83AA00 		.ascii	"\357\203\252\000"
 2060              	.LC34:
 2061 02cc 416E206F 		.ascii	"An option to select\000"
 2061      7074696F 
 2061      6E20746F 
 2061      2073656C 
 2061      65637400 
 2062              		.section	.rodata.str1.4,"aMS",%progbits,1
 2063              		.align	2
 2064              	.LC35:
 2065 0000 4F6B00   		.ascii	"Ok\000"
 2066 0003 00       		.space	1
 2067              	.LC36:
 2068 0004 43616E63 		.ascii	"Cancel\000"
 2068      656C00
 2069 000b 00       		.space	1
 2070              	.LC37:
 2071 000c 00       		.ascii	"\000"
 2072              		.text
 2073              	.Letext0:
 2074              		.file 5 "/opt/gcc-arm-none-eabi-7-2017-q4-major/arm-none-eabi/include/machine/_default_types.h"
 2075              		.file 6 "/opt/gcc-arm-none-eabi-7-2017-q4-major/arm-none-eabi/include/sys/_stdint.h"
 2076              		.file 7 "Drivers/lvgl/lvgl/demos/stress/../../src/misc/lv_types.h"
 2077              		.file 8 "Drivers/lvgl/lvgl/demos/stress/../../src/misc/lv_timer.h"
 2078              		.file 9 "/opt/gcc-arm-none-eabi-7-2017-q4-major/arm-none-eabi/include/sys/lock.h"
 2079              		.file 10 "/opt/gcc-arm-none-eabi-7-2017-q4-major/arm-none-eabi/include/sys/_types.h"
 2080              		.file 11 "/opt/gcc-arm-none-eabi-7-2017-q4-major/lib/gcc/arm-none-eabi/7.2.1/include/stddef.h"
 2081              		.file 12 "/opt/gcc-arm-none-eabi-7-2017-q4-major/arm-none-eabi/include/sys/reent.h"
 2082              		.file 13 "Drivers/lvgl/lvgl/demos/stress/../../src/misc/lv_mem.h"
 2083              		.file 14 "Drivers/lvgl/lvgl/demos/stress/../../src/hal/../draw/../misc/../font/../misc/lv_area.h"
 2084              		.file 15 "Drivers/lvgl/lvgl/demos/stress/../../src/hal/../draw/../misc/../font/lv_font.h"
 2085              		.file 16 "Drivers/lvgl/lvgl/demos/stress/../../src/hal/../draw/../misc/lv_color.h"
 2086              		.file 17 "Drivers/lvgl/lvgl/demos/stress/../../src/hal/../draw/../misc/lv_txt.h"
 2087              		.file 18 "Drivers/lvgl/lvgl/demos/stress/../../src/hal/../draw/../misc/lv_style.h"
 2088              		.file 19 "Drivers/lvgl/lvgl/demos/stress/../../src/core/lv_obj.h"
 2089              		.file 20 "Drivers/lvgl/lvgl/demos/stress/../../src/hal/../misc/lv_ll.h"
 2090              		.file 21 "Drivers/lvgl/lvgl/demos/stress/../../src/core/lv_group.h"
 2091              		.file 22 "Drivers/lvgl/lvgl/demos/stress/../../src/core/lv_obj_scroll.h"
 2092              		.file 23 "Drivers/lvgl/lvgl/demos/stress/../../src/core/lv_obj_style.h"
 2093              		.file 24 "Drivers/lvgl/lvgl/demos/stress/../../src/core/lv_obj_class.h"
 2094              		.file 25 "Drivers/lvgl/lvgl/demos/stress/../../src/core/lv_event.h"
 2095              		.file 26 "Drivers/lvgl/lvgl/demos/stress/../../src/widgets/lv_arc.h"
 2096              		.file 27 "Drivers/lvgl/lvgl/demos/stress/../../src/widgets/lv_btn.h"
 2097              		.file 28 "Drivers/lvgl/lvgl/demos/stress/../../src/widgets/lv_img.h"
 2098              		.file 29 "Drivers/lvgl/lvgl/demos/stress/../../src/widgets/lv_label.h"
 2099              		.file 30 "Drivers/lvgl/lvgl/demos/stress/../../src/widgets/lv_line.h"
 2100              		.file 31 "Drivers/lvgl/lvgl/demos/stress/../../src/widgets/lv_table.h"
 2101              		.file 32 "Drivers/lvgl/lvgl/demos/stress/../../src/widgets/lv_checkbox.h"
ARM GAS  /tmp/cc9XNXn7.s 			page 61


 2102              		.file 33 "Drivers/lvgl/lvgl/demos/stress/../../src/widgets/lv_bar.h"
 2103              		.file 34 "Drivers/lvgl/lvgl/demos/stress/../../src/widgets/lv_btnmatrix.h"
 2104              		.file 35 "Drivers/lvgl/lvgl/demos/stress/../../src/widgets/lv_dropdown.h"
 2105              		.file 36 "Drivers/lvgl/lvgl/demos/stress/../../src/widgets/lv_roller.h"
 2106              		.file 37 "Drivers/lvgl/lvgl/demos/stress/../../src/widgets/lv_textarea.h"
 2107              		.file 38 "Drivers/lvgl/lvgl/demos/stress/../../src/widgets/lv_canvas.h"
 2108              		.file 39 "Drivers/lvgl/lvgl/demos/stress/../../src/widgets/lv_switch.h"
 2109              		.file 40 "Drivers/lvgl/lvgl/demos/stress/../../src/extra/layouts/flex/lv_flex.h"
 2110              		.file 41 "Drivers/lvgl/lvgl/demos/stress/../../src/extra/layouts/grid/lv_grid.h"
 2111              		.file 42 "Drivers/lvgl/lvgl/demos/stress/../../src/extra/widgets/animimg/lv_animimg.h"
 2112              		.file 43 "Drivers/lvgl/lvgl/demos/stress/../../src/extra/widgets/calendar/lv_calendar.h"
 2113              		.file 44 "Drivers/lvgl/lvgl/demos/stress/../../src/extra/widgets/calendar/lv_calendar_header_arrow
 2114              		.file 45 "Drivers/lvgl/lvgl/demos/stress/../../src/extra/widgets/calendar/lv_calendar_header_dropd
 2115              		.file 46 "Drivers/lvgl/lvgl/demos/stress/../../src/extra/widgets/chart/lv_chart.h"
 2116              		.file 47 "Drivers/lvgl/lvgl/demos/stress/../../src/extra/widgets/keyboard/lv_keyboard.h"
 2117              		.file 48 "Drivers/lvgl/lvgl/demos/stress/../../src/extra/widgets/list/lv_list.h"
 2118              		.file 49 "Drivers/lvgl/lvgl/demos/stress/../../src/extra/widgets/menu/lv_menu.h"
 2119              		.file 50 "Drivers/lvgl/lvgl/demos/stress/../../src/extra/widgets/msgbox/lv_msgbox.h"
 2120              		.file 51 "Drivers/lvgl/lvgl/demos/stress/../../src/extra/widgets/meter/lv_meter.h"
 2121              		.file 52 "Drivers/lvgl/lvgl/demos/stress/../../src/extra/widgets/spinbox/lv_spinbox.h"
 2122              		.file 53 "Drivers/lvgl/lvgl/demos/stress/../../src/extra/widgets/spinner/lv_spinner.h"
 2123              		.file 54 "Drivers/lvgl/lvgl/demos/stress/../../src/extra/widgets/tabview/lv_tabview.h"
 2124              		.file 55 "Drivers/lvgl/lvgl/demos/stress/../../src/extra/widgets/tileview/lv_tileview.h"
 2125              		.file 56 "Drivers/lvgl/lvgl/demos/stress/../../src/extra/widgets/win/lv_win.h"
 2126              		.file 57 "Drivers/lvgl/lvgl/demos/stress/../../src/extra/widgets/colorwheel/lv_colorwheel.h"
 2127              		.file 58 "Drivers/lvgl/lvgl/demos/stress/../../src/extra/widgets/led/lv_led.h"
 2128              		.file 59 "Drivers/lvgl/lvgl/demos/stress/../../src/extra/widgets/imgbtn/lv_imgbtn.h"
 2129              		.file 60 "Drivers/lvgl/lvgl/demos/stress/../../src/extra/widgets/span/lv_span.h"
 2130              		.file 61 "Drivers/lvgl/lvgl/demos/stress/../../src/hal/../draw/sw/../../core/lv_obj_pos.h"
 2131              		.file 62 "Drivers/lvgl/lvgl/demos/stress/../../src/hal/lv_hal_disp.h"
 2132              		.file 63 "Drivers/lvgl/lvgl/demos/stress/../../src/core/lv_obj_tree.h"
 2133              		.file 64 "Drivers/lvgl/lvgl/demos/stress/../../src/core/lv_obj_style_gen.h"
ARM GAS  /tmp/cc9XNXn7.s 			page 62

