ARM GAS  /tmp/cct67Zj5.s 			page 1


   1              		.cpu cortex-m7
   2              		.eabi_attribute 28, 1
   3              		.eabi_attribute 20, 1
   4              		.eabi_attribute 21, 1
   5              		.eabi_attribute 23, 3
   6              		.eabi_attribute 24, 1
   7              		.eabi_attribute 25, 1
   8              		.eabi_attribute 26, 1
   9              		.eabi_attribute 30, 1
  10              		.eabi_attribute 34, 1
  11              		.eabi_attribute 18, 4
  12              		.file	"lv_draw_mask.c"
  13              		.text
  14              	.Ltext0:
  15              		.cfi_sections	.debug_frame
  16              		.section	.text.lv_draw_mask_fade,"ax",%progbits
  17              		.align	1
  18              		.syntax unified
  19              		.thumb
  20              		.thumb_func
  21              		.fpu fpv5-d16
  23              	lv_draw_mask_fade:
  24              	.LFB77:
  25              		.file 1 "Drivers/lvgl/lvgl/src/draw/lv_draw_mask.c"
   1:Drivers/lvgl/lvgl/src/draw/lv_draw_mask.c **** /**
   2:Drivers/lvgl/lvgl/src/draw/lv_draw_mask.c ****  * @file lv_mask.c
   3:Drivers/lvgl/lvgl/src/draw/lv_draw_mask.c ****  *
   4:Drivers/lvgl/lvgl/src/draw/lv_draw_mask.c ****  */
   5:Drivers/lvgl/lvgl/src/draw/lv_draw_mask.c **** 
   6:Drivers/lvgl/lvgl/src/draw/lv_draw_mask.c **** /*********************
   7:Drivers/lvgl/lvgl/src/draw/lv_draw_mask.c ****  *      INCLUDES
   8:Drivers/lvgl/lvgl/src/draw/lv_draw_mask.c ****  *********************/
   9:Drivers/lvgl/lvgl/src/draw/lv_draw_mask.c **** #include "lv_draw.h"
  10:Drivers/lvgl/lvgl/src/draw/lv_draw_mask.c **** #if LV_DRAW_COMPLEX
  11:Drivers/lvgl/lvgl/src/draw/lv_draw_mask.c **** #include "../misc/lv_math.h"
  12:Drivers/lvgl/lvgl/src/draw/lv_draw_mask.c **** #include "../misc/lv_log.h"
  13:Drivers/lvgl/lvgl/src/draw/lv_draw_mask.c **** #include "../misc/lv_assert.h"
  14:Drivers/lvgl/lvgl/src/draw/lv_draw_mask.c **** #include "../misc/lv_gc.h"
  15:Drivers/lvgl/lvgl/src/draw/lv_draw_mask.c **** 
  16:Drivers/lvgl/lvgl/src/draw/lv_draw_mask.c **** /*********************
  17:Drivers/lvgl/lvgl/src/draw/lv_draw_mask.c ****  *      DEFINES
  18:Drivers/lvgl/lvgl/src/draw/lv_draw_mask.c ****  *********************/
  19:Drivers/lvgl/lvgl/src/draw/lv_draw_mask.c **** #define CIRCLE_CACHE_LIFE_MAX   1000
  20:Drivers/lvgl/lvgl/src/draw/lv_draw_mask.c **** #define CIRCLE_CACHE_AGING(life, r)   life = LV_MIN(life + (r < 16 ? 1 : (r >> 4)), 1000)
  21:Drivers/lvgl/lvgl/src/draw/lv_draw_mask.c **** 
  22:Drivers/lvgl/lvgl/src/draw/lv_draw_mask.c **** /**********************
  23:Drivers/lvgl/lvgl/src/draw/lv_draw_mask.c ****  *      TYPEDEFS
  24:Drivers/lvgl/lvgl/src/draw/lv_draw_mask.c ****  **********************/
  25:Drivers/lvgl/lvgl/src/draw/lv_draw_mask.c **** 
  26:Drivers/lvgl/lvgl/src/draw/lv_draw_mask.c **** /**********************
  27:Drivers/lvgl/lvgl/src/draw/lv_draw_mask.c ****  *  STATIC PROTOTYPES
  28:Drivers/lvgl/lvgl/src/draw/lv_draw_mask.c ****  **********************/
  29:Drivers/lvgl/lvgl/src/draw/lv_draw_mask.c **** LV_ATTRIBUTE_FAST_MEM static lv_draw_mask_res_t lv_draw_mask_line(lv_opa_t * mask_buf, lv_coord_t a
  30:Drivers/lvgl/lvgl/src/draw/lv_draw_mask.c ****                                                                   lv_coord_t abs_y, lv_coord_t len,
  31:Drivers/lvgl/lvgl/src/draw/lv_draw_mask.c ****                                                                   lv_draw_mask_line_param_t * param
  32:Drivers/lvgl/lvgl/src/draw/lv_draw_mask.c **** LV_ATTRIBUTE_FAST_MEM static lv_draw_mask_res_t lv_draw_mask_radius(lv_opa_t * mask_buf, lv_coord_t
  33:Drivers/lvgl/lvgl/src/draw/lv_draw_mask.c ****                                                                     lv_coord_t abs_y, lv_coord_t le
ARM GAS  /tmp/cct67Zj5.s 			page 2


  34:Drivers/lvgl/lvgl/src/draw/lv_draw_mask.c ****                                                                     lv_draw_mask_radius_param_t * p
  35:Drivers/lvgl/lvgl/src/draw/lv_draw_mask.c **** LV_ATTRIBUTE_FAST_MEM static lv_draw_mask_res_t lv_draw_mask_angle(lv_opa_t * mask_buf, lv_coord_t 
  36:Drivers/lvgl/lvgl/src/draw/lv_draw_mask.c ****                                                                    lv_coord_t abs_y, lv_coord_t len
  37:Drivers/lvgl/lvgl/src/draw/lv_draw_mask.c ****                                                                    lv_draw_mask_angle_param_t * par
  38:Drivers/lvgl/lvgl/src/draw/lv_draw_mask.c **** LV_ATTRIBUTE_FAST_MEM static lv_draw_mask_res_t lv_draw_mask_fade(lv_opa_t * mask_buf, lv_coord_t a
  39:Drivers/lvgl/lvgl/src/draw/lv_draw_mask.c ****                                                                   lv_coord_t abs_y, lv_coord_t len,
  40:Drivers/lvgl/lvgl/src/draw/lv_draw_mask.c ****                                                                   lv_draw_mask_fade_param_t * param
  41:Drivers/lvgl/lvgl/src/draw/lv_draw_mask.c **** LV_ATTRIBUTE_FAST_MEM static lv_draw_mask_res_t lv_draw_mask_map(lv_opa_t * mask_buf, lv_coord_t ab
  42:Drivers/lvgl/lvgl/src/draw/lv_draw_mask.c ****                                                                  lv_coord_t abs_y, lv_coord_t len,
  43:Drivers/lvgl/lvgl/src/draw/lv_draw_mask.c ****                                                                  lv_draw_mask_map_param_t * param);
  44:Drivers/lvgl/lvgl/src/draw/lv_draw_mask.c **** LV_ATTRIBUTE_FAST_MEM static lv_draw_mask_res_t lv_draw_mask_polygon(lv_opa_t * mask_buf, lv_coord_
  45:Drivers/lvgl/lvgl/src/draw/lv_draw_mask.c ****                                                                      lv_coord_t abs_y, lv_coord_t l
  46:Drivers/lvgl/lvgl/src/draw/lv_draw_mask.c ****                                                                      lv_draw_mask_polygon_param_t *
  47:Drivers/lvgl/lvgl/src/draw/lv_draw_mask.c **** 
  48:Drivers/lvgl/lvgl/src/draw/lv_draw_mask.c **** LV_ATTRIBUTE_FAST_MEM static lv_draw_mask_res_t line_mask_flat(lv_opa_t * mask_buf, lv_coord_t abs_
  49:Drivers/lvgl/lvgl/src/draw/lv_draw_mask.c ****                                                                lv_coord_t len,
  50:Drivers/lvgl/lvgl/src/draw/lv_draw_mask.c ****                                                                lv_draw_mask_line_param_t * p);
  51:Drivers/lvgl/lvgl/src/draw/lv_draw_mask.c **** LV_ATTRIBUTE_FAST_MEM static lv_draw_mask_res_t line_mask_steep(lv_opa_t * mask_buf, lv_coord_t abs
  52:Drivers/lvgl/lvgl/src/draw/lv_draw_mask.c ****                                                                 lv_coord_t len,
  53:Drivers/lvgl/lvgl/src/draw/lv_draw_mask.c ****                                                                 lv_draw_mask_line_param_t * p);
  54:Drivers/lvgl/lvgl/src/draw/lv_draw_mask.c **** 
  55:Drivers/lvgl/lvgl/src/draw/lv_draw_mask.c **** static void circ_init(lv_point_t * c, lv_coord_t * tmp, lv_coord_t radius);
  56:Drivers/lvgl/lvgl/src/draw/lv_draw_mask.c **** static bool circ_cont(lv_point_t * c);
  57:Drivers/lvgl/lvgl/src/draw/lv_draw_mask.c **** static void circ_next(lv_point_t * c, lv_coord_t * tmp);
  58:Drivers/lvgl/lvgl/src/draw/lv_draw_mask.c **** static void circ_calc_aa4(_lv_draw_mask_radius_circle_dsc_t * c, lv_coord_t radius);
  59:Drivers/lvgl/lvgl/src/draw/lv_draw_mask.c **** static lv_opa_t * get_next_line(_lv_draw_mask_radius_circle_dsc_t * c, lv_coord_t y, lv_coord_t * l
  60:Drivers/lvgl/lvgl/src/draw/lv_draw_mask.c ****                                 lv_coord_t * x_start);
  61:Drivers/lvgl/lvgl/src/draw/lv_draw_mask.c **** LV_ATTRIBUTE_FAST_MEM static inline lv_opa_t mask_mix(lv_opa_t mask_act, lv_opa_t mask_new);
  62:Drivers/lvgl/lvgl/src/draw/lv_draw_mask.c **** 
  63:Drivers/lvgl/lvgl/src/draw/lv_draw_mask.c **** /**********************
  64:Drivers/lvgl/lvgl/src/draw/lv_draw_mask.c ****  *  STATIC VARIABLES
  65:Drivers/lvgl/lvgl/src/draw/lv_draw_mask.c ****  **********************/
  66:Drivers/lvgl/lvgl/src/draw/lv_draw_mask.c **** 
  67:Drivers/lvgl/lvgl/src/draw/lv_draw_mask.c **** /**********************
  68:Drivers/lvgl/lvgl/src/draw/lv_draw_mask.c ****  *      MACROS
  69:Drivers/lvgl/lvgl/src/draw/lv_draw_mask.c ****  **********************/
  70:Drivers/lvgl/lvgl/src/draw/lv_draw_mask.c **** 
  71:Drivers/lvgl/lvgl/src/draw/lv_draw_mask.c **** /**********************
  72:Drivers/lvgl/lvgl/src/draw/lv_draw_mask.c ****  *   GLOBAL FUNCTIONS
  73:Drivers/lvgl/lvgl/src/draw/lv_draw_mask.c ****  **********************/
  74:Drivers/lvgl/lvgl/src/draw/lv_draw_mask.c **** 
  75:Drivers/lvgl/lvgl/src/draw/lv_draw_mask.c **** /**
  76:Drivers/lvgl/lvgl/src/draw/lv_draw_mask.c ****  * Add a draw mask. Everything drawn after it (until removing the mask) will be affected by the mas
  77:Drivers/lvgl/lvgl/src/draw/lv_draw_mask.c ****  * @param param an initialized mask parameter. Only the pointer is saved.
  78:Drivers/lvgl/lvgl/src/draw/lv_draw_mask.c ****  * @param custom_id a custom pointer to identify the mask. Used in `lv_draw_mask_remove_custom`.
  79:Drivers/lvgl/lvgl/src/draw/lv_draw_mask.c ****  * @return the an integer, the ID of the mask. Can be used in `lv_draw_mask_remove_id`.
  80:Drivers/lvgl/lvgl/src/draw/lv_draw_mask.c ****  */
  81:Drivers/lvgl/lvgl/src/draw/lv_draw_mask.c **** int16_t lv_draw_mask_add(void * param, void * custom_id)
  82:Drivers/lvgl/lvgl/src/draw/lv_draw_mask.c **** {
  83:Drivers/lvgl/lvgl/src/draw/lv_draw_mask.c ****     /*Look for a free entry*/
  84:Drivers/lvgl/lvgl/src/draw/lv_draw_mask.c ****     uint8_t i;
  85:Drivers/lvgl/lvgl/src/draw/lv_draw_mask.c ****     for(i = 0; i < _LV_MASK_MAX_NUM; i++) {
  86:Drivers/lvgl/lvgl/src/draw/lv_draw_mask.c ****         if(LV_GC_ROOT(_lv_draw_mask_list[i]).param == NULL) break;
  87:Drivers/lvgl/lvgl/src/draw/lv_draw_mask.c ****     }
  88:Drivers/lvgl/lvgl/src/draw/lv_draw_mask.c **** 
  89:Drivers/lvgl/lvgl/src/draw/lv_draw_mask.c ****     if(i >= _LV_MASK_MAX_NUM) {
  90:Drivers/lvgl/lvgl/src/draw/lv_draw_mask.c ****         LV_LOG_WARN("lv_mask_add: no place to add the mask");
ARM GAS  /tmp/cct67Zj5.s 			page 3


  91:Drivers/lvgl/lvgl/src/draw/lv_draw_mask.c ****         return LV_MASK_ID_INV;
  92:Drivers/lvgl/lvgl/src/draw/lv_draw_mask.c ****     }
  93:Drivers/lvgl/lvgl/src/draw/lv_draw_mask.c **** 
  94:Drivers/lvgl/lvgl/src/draw/lv_draw_mask.c ****     LV_GC_ROOT(_lv_draw_mask_list[i]).param = param;
  95:Drivers/lvgl/lvgl/src/draw/lv_draw_mask.c ****     LV_GC_ROOT(_lv_draw_mask_list[i]).custom_id = custom_id;
  96:Drivers/lvgl/lvgl/src/draw/lv_draw_mask.c **** 
  97:Drivers/lvgl/lvgl/src/draw/lv_draw_mask.c ****     return i;
  98:Drivers/lvgl/lvgl/src/draw/lv_draw_mask.c **** }
  99:Drivers/lvgl/lvgl/src/draw/lv_draw_mask.c **** 
 100:Drivers/lvgl/lvgl/src/draw/lv_draw_mask.c **** /**
 101:Drivers/lvgl/lvgl/src/draw/lv_draw_mask.c ****  * Apply the added buffers on a line. Used internally by the library's drawing routines.
 102:Drivers/lvgl/lvgl/src/draw/lv_draw_mask.c ****  * @param mask_buf store the result mask here. Has to be `len` byte long. Should be initialized wit
 103:Drivers/lvgl/lvgl/src/draw/lv_draw_mask.c ****  * @param abs_x absolute X coordinate where the line to calculate start
 104:Drivers/lvgl/lvgl/src/draw/lv_draw_mask.c ****  * @param abs_y absolute Y coordinate where the line to calculate start
 105:Drivers/lvgl/lvgl/src/draw/lv_draw_mask.c ****  * @param len length of the line to calculate (in pixel count)
 106:Drivers/lvgl/lvgl/src/draw/lv_draw_mask.c ****  * @return One of these values:
 107:Drivers/lvgl/lvgl/src/draw/lv_draw_mask.c ****  * - `LV_DRAW_MASK_RES_FULL_TRANSP`: the whole line is transparent. `mask_buf` is not set to zero
 108:Drivers/lvgl/lvgl/src/draw/lv_draw_mask.c ****  * - `LV_DRAW_MASK_RES_FULL_COVER`: the whole line is fully visible. `mask_buf` is unchanged
 109:Drivers/lvgl/lvgl/src/draw/lv_draw_mask.c ****  * - `LV_DRAW_MASK_RES_CHANGED`: `mask_buf` has changed, it shows the desired opacity of each pixel
 110:Drivers/lvgl/lvgl/src/draw/lv_draw_mask.c ****  */
 111:Drivers/lvgl/lvgl/src/draw/lv_draw_mask.c **** LV_ATTRIBUTE_FAST_MEM lv_draw_mask_res_t lv_draw_mask_apply(lv_opa_t * mask_buf, lv_coord_t abs_x, 
 112:Drivers/lvgl/lvgl/src/draw/lv_draw_mask.c ****                                                             lv_coord_t len)
 113:Drivers/lvgl/lvgl/src/draw/lv_draw_mask.c **** {
 114:Drivers/lvgl/lvgl/src/draw/lv_draw_mask.c ****     bool changed = false;
 115:Drivers/lvgl/lvgl/src/draw/lv_draw_mask.c ****     _lv_draw_mask_common_dsc_t * dsc;
 116:Drivers/lvgl/lvgl/src/draw/lv_draw_mask.c **** 
 117:Drivers/lvgl/lvgl/src/draw/lv_draw_mask.c ****     _lv_draw_mask_saved_t * m = LV_GC_ROOT(_lv_draw_mask_list);
 118:Drivers/lvgl/lvgl/src/draw/lv_draw_mask.c **** 
 119:Drivers/lvgl/lvgl/src/draw/lv_draw_mask.c ****     while(m->param) {
 120:Drivers/lvgl/lvgl/src/draw/lv_draw_mask.c ****         dsc = m->param;
 121:Drivers/lvgl/lvgl/src/draw/lv_draw_mask.c ****         lv_draw_mask_res_t res = LV_DRAW_MASK_RES_FULL_COVER;
 122:Drivers/lvgl/lvgl/src/draw/lv_draw_mask.c ****         res = dsc->cb(mask_buf, abs_x, abs_y, len, (void *)m->param);
 123:Drivers/lvgl/lvgl/src/draw/lv_draw_mask.c ****         if(res == LV_DRAW_MASK_RES_TRANSP) return LV_DRAW_MASK_RES_TRANSP;
 124:Drivers/lvgl/lvgl/src/draw/lv_draw_mask.c ****         else if(res == LV_DRAW_MASK_RES_CHANGED) changed = true;
 125:Drivers/lvgl/lvgl/src/draw/lv_draw_mask.c **** 
 126:Drivers/lvgl/lvgl/src/draw/lv_draw_mask.c ****         m++;
 127:Drivers/lvgl/lvgl/src/draw/lv_draw_mask.c ****     }
 128:Drivers/lvgl/lvgl/src/draw/lv_draw_mask.c **** 
 129:Drivers/lvgl/lvgl/src/draw/lv_draw_mask.c ****     return changed ? LV_DRAW_MASK_RES_CHANGED : LV_DRAW_MASK_RES_FULL_COVER;
 130:Drivers/lvgl/lvgl/src/draw/lv_draw_mask.c **** }
 131:Drivers/lvgl/lvgl/src/draw/lv_draw_mask.c **** 
 132:Drivers/lvgl/lvgl/src/draw/lv_draw_mask.c **** /**
 133:Drivers/lvgl/lvgl/src/draw/lv_draw_mask.c ****  * Apply the specified buffers on a line. Used internally by the library's drawing routines.
 134:Drivers/lvgl/lvgl/src/draw/lv_draw_mask.c ****  * @param mask_buf store the result mask here. Has to be `len` byte long. Should be initialized wit
 135:Drivers/lvgl/lvgl/src/draw/lv_draw_mask.c ****  * @param abs_x absolute X coordinate where the line to calculate start
 136:Drivers/lvgl/lvgl/src/draw/lv_draw_mask.c ****  * @param abs_y absolute Y coordinate where the line to calculate start
 137:Drivers/lvgl/lvgl/src/draw/lv_draw_mask.c ****  * @param len length of the line to calculate (in pixel count)
 138:Drivers/lvgl/lvgl/src/draw/lv_draw_mask.c ****  * @param ids ID array of added buffers
 139:Drivers/lvgl/lvgl/src/draw/lv_draw_mask.c ****  * @param ids_count number of ID array
 140:Drivers/lvgl/lvgl/src/draw/lv_draw_mask.c ****  * @return One of these values:
 141:Drivers/lvgl/lvgl/src/draw/lv_draw_mask.c ****  * - `LV_DRAW_MASK_RES_FULL_TRANSP`: the whole line is transparent. `mask_buf` is not set to zero
 142:Drivers/lvgl/lvgl/src/draw/lv_draw_mask.c ****  * - `LV_DRAW_MASK_RES_FULL_COVER`: the whole line is fully visible. `mask_buf` is unchanged
 143:Drivers/lvgl/lvgl/src/draw/lv_draw_mask.c ****  * - `LV_DRAW_MASK_RES_CHANGED`: `mask_buf` has changed, it shows the desired opacity of each pixel
 144:Drivers/lvgl/lvgl/src/draw/lv_draw_mask.c ****  */
 145:Drivers/lvgl/lvgl/src/draw/lv_draw_mask.c **** LV_ATTRIBUTE_FAST_MEM lv_draw_mask_res_t lv_draw_mask_apply_ids(lv_opa_t * mask_buf, lv_coord_t abs
 146:Drivers/lvgl/lvgl/src/draw/lv_draw_mask.c ****                                                                 lv_coord_t len, const int16_t * ids
 147:Drivers/lvgl/lvgl/src/draw/lv_draw_mask.c **** {
ARM GAS  /tmp/cct67Zj5.s 			page 4


 148:Drivers/lvgl/lvgl/src/draw/lv_draw_mask.c ****     bool changed = false;
 149:Drivers/lvgl/lvgl/src/draw/lv_draw_mask.c ****     _lv_draw_mask_common_dsc_t * dsc;
 150:Drivers/lvgl/lvgl/src/draw/lv_draw_mask.c **** 
 151:Drivers/lvgl/lvgl/src/draw/lv_draw_mask.c ****     for(int i = 0; i < ids_count; i++) {
 152:Drivers/lvgl/lvgl/src/draw/lv_draw_mask.c ****         int16_t id = ids[i];
 153:Drivers/lvgl/lvgl/src/draw/lv_draw_mask.c ****         if(id == LV_MASK_ID_INV) continue;
 154:Drivers/lvgl/lvgl/src/draw/lv_draw_mask.c ****         dsc = LV_GC_ROOT(_lv_draw_mask_list[id]).param;
 155:Drivers/lvgl/lvgl/src/draw/lv_draw_mask.c ****         if(!dsc) continue;
 156:Drivers/lvgl/lvgl/src/draw/lv_draw_mask.c ****         lv_draw_mask_res_t res = LV_DRAW_MASK_RES_FULL_COVER;
 157:Drivers/lvgl/lvgl/src/draw/lv_draw_mask.c ****         res = dsc->cb(mask_buf, abs_x, abs_y, len, dsc);
 158:Drivers/lvgl/lvgl/src/draw/lv_draw_mask.c ****         if(res == LV_DRAW_MASK_RES_TRANSP) return LV_DRAW_MASK_RES_TRANSP;
 159:Drivers/lvgl/lvgl/src/draw/lv_draw_mask.c ****         else if(res == LV_DRAW_MASK_RES_CHANGED) changed = true;
 160:Drivers/lvgl/lvgl/src/draw/lv_draw_mask.c ****     }
 161:Drivers/lvgl/lvgl/src/draw/lv_draw_mask.c **** 
 162:Drivers/lvgl/lvgl/src/draw/lv_draw_mask.c ****     return changed ? LV_DRAW_MASK_RES_CHANGED : LV_DRAW_MASK_RES_FULL_COVER;
 163:Drivers/lvgl/lvgl/src/draw/lv_draw_mask.c **** }
 164:Drivers/lvgl/lvgl/src/draw/lv_draw_mask.c **** 
 165:Drivers/lvgl/lvgl/src/draw/lv_draw_mask.c **** /**
 166:Drivers/lvgl/lvgl/src/draw/lv_draw_mask.c ****  * Remove a mask with a given ID
 167:Drivers/lvgl/lvgl/src/draw/lv_draw_mask.c ****  * @param id the ID of the mask.  Returned by `lv_draw_mask_add`
 168:Drivers/lvgl/lvgl/src/draw/lv_draw_mask.c ****  * @return the parameter of the removed mask.
 169:Drivers/lvgl/lvgl/src/draw/lv_draw_mask.c ****  * If more masks have `custom_id` ID then the last mask's parameter will be returned
 170:Drivers/lvgl/lvgl/src/draw/lv_draw_mask.c ****  */
 171:Drivers/lvgl/lvgl/src/draw/lv_draw_mask.c **** void * lv_draw_mask_remove_id(int16_t id)
 172:Drivers/lvgl/lvgl/src/draw/lv_draw_mask.c **** {
 173:Drivers/lvgl/lvgl/src/draw/lv_draw_mask.c ****     _lv_draw_mask_common_dsc_t * p = NULL;
 174:Drivers/lvgl/lvgl/src/draw/lv_draw_mask.c **** 
 175:Drivers/lvgl/lvgl/src/draw/lv_draw_mask.c ****     if(id != LV_MASK_ID_INV) {
 176:Drivers/lvgl/lvgl/src/draw/lv_draw_mask.c ****         p = LV_GC_ROOT(_lv_draw_mask_list[id]).param;
 177:Drivers/lvgl/lvgl/src/draw/lv_draw_mask.c ****         LV_GC_ROOT(_lv_draw_mask_list[id]).param = NULL;
 178:Drivers/lvgl/lvgl/src/draw/lv_draw_mask.c ****         LV_GC_ROOT(_lv_draw_mask_list[id]).custom_id = NULL;
 179:Drivers/lvgl/lvgl/src/draw/lv_draw_mask.c ****     }
 180:Drivers/lvgl/lvgl/src/draw/lv_draw_mask.c **** 
 181:Drivers/lvgl/lvgl/src/draw/lv_draw_mask.c ****     return p;
 182:Drivers/lvgl/lvgl/src/draw/lv_draw_mask.c **** }
 183:Drivers/lvgl/lvgl/src/draw/lv_draw_mask.c **** 
 184:Drivers/lvgl/lvgl/src/draw/lv_draw_mask.c **** /**
 185:Drivers/lvgl/lvgl/src/draw/lv_draw_mask.c ****  * Remove all mask with a given custom ID
 186:Drivers/lvgl/lvgl/src/draw/lv_draw_mask.c ****  * @param custom_id a pointer used in `lv_draw_mask_add`
 187:Drivers/lvgl/lvgl/src/draw/lv_draw_mask.c ****  * @return return the parameter of the removed mask.
 188:Drivers/lvgl/lvgl/src/draw/lv_draw_mask.c ****  * If more masks have `custom_id` ID then the last mask's parameter will be returned
 189:Drivers/lvgl/lvgl/src/draw/lv_draw_mask.c ****  */
 190:Drivers/lvgl/lvgl/src/draw/lv_draw_mask.c **** void * lv_draw_mask_remove_custom(void * custom_id)
 191:Drivers/lvgl/lvgl/src/draw/lv_draw_mask.c **** {
 192:Drivers/lvgl/lvgl/src/draw/lv_draw_mask.c ****     _lv_draw_mask_common_dsc_t * p = NULL;
 193:Drivers/lvgl/lvgl/src/draw/lv_draw_mask.c ****     uint8_t i;
 194:Drivers/lvgl/lvgl/src/draw/lv_draw_mask.c ****     for(i = 0; i < _LV_MASK_MAX_NUM; i++) {
 195:Drivers/lvgl/lvgl/src/draw/lv_draw_mask.c ****         if(LV_GC_ROOT(_lv_draw_mask_list[i]).custom_id == custom_id) {
 196:Drivers/lvgl/lvgl/src/draw/lv_draw_mask.c ****             p = LV_GC_ROOT(_lv_draw_mask_list[i]).param;
 197:Drivers/lvgl/lvgl/src/draw/lv_draw_mask.c ****             lv_draw_mask_remove_id(i);
 198:Drivers/lvgl/lvgl/src/draw/lv_draw_mask.c ****         }
 199:Drivers/lvgl/lvgl/src/draw/lv_draw_mask.c ****     }
 200:Drivers/lvgl/lvgl/src/draw/lv_draw_mask.c ****     return p;
 201:Drivers/lvgl/lvgl/src/draw/lv_draw_mask.c **** }
 202:Drivers/lvgl/lvgl/src/draw/lv_draw_mask.c **** 
 203:Drivers/lvgl/lvgl/src/draw/lv_draw_mask.c **** /**
 204:Drivers/lvgl/lvgl/src/draw/lv_draw_mask.c ****  * Free the data from the parameter.
ARM GAS  /tmp/cct67Zj5.s 			page 5


 205:Drivers/lvgl/lvgl/src/draw/lv_draw_mask.c ****  * It's called inside `lv_draw_mask_remove_id` and `lv_draw_mask_remove_custom`
 206:Drivers/lvgl/lvgl/src/draw/lv_draw_mask.c ****  * Needs to be called only in special cases when the mask is not added by `lv_draw_mask_add`
 207:Drivers/lvgl/lvgl/src/draw/lv_draw_mask.c ****  * and not removed by `lv_draw_mask_remove_id` or `lv_draw_mask_remove_custom`
 208:Drivers/lvgl/lvgl/src/draw/lv_draw_mask.c ****  * @param p pointer to a mask parameter
 209:Drivers/lvgl/lvgl/src/draw/lv_draw_mask.c ****  */
 210:Drivers/lvgl/lvgl/src/draw/lv_draw_mask.c **** void lv_draw_mask_free_param(void * p)
 211:Drivers/lvgl/lvgl/src/draw/lv_draw_mask.c **** {
 212:Drivers/lvgl/lvgl/src/draw/lv_draw_mask.c ****     _lv_draw_mask_common_dsc_t * pdsc = p;
 213:Drivers/lvgl/lvgl/src/draw/lv_draw_mask.c ****     if(pdsc->type == LV_DRAW_MASK_TYPE_RADIUS) {
 214:Drivers/lvgl/lvgl/src/draw/lv_draw_mask.c ****         lv_draw_mask_radius_param_t * radius_p = (lv_draw_mask_radius_param_t *) p;
 215:Drivers/lvgl/lvgl/src/draw/lv_draw_mask.c ****         if(radius_p->circle) {
 216:Drivers/lvgl/lvgl/src/draw/lv_draw_mask.c ****             if(radius_p->circle->life < 0) {
 217:Drivers/lvgl/lvgl/src/draw/lv_draw_mask.c ****                 lv_mem_free(radius_p->circle->cir_opa);
 218:Drivers/lvgl/lvgl/src/draw/lv_draw_mask.c ****                 lv_mem_free(radius_p->circle);
 219:Drivers/lvgl/lvgl/src/draw/lv_draw_mask.c ****             }
 220:Drivers/lvgl/lvgl/src/draw/lv_draw_mask.c ****             else {
 221:Drivers/lvgl/lvgl/src/draw/lv_draw_mask.c ****                 radius_p->circle->used_cnt--;
 222:Drivers/lvgl/lvgl/src/draw/lv_draw_mask.c ****             }
 223:Drivers/lvgl/lvgl/src/draw/lv_draw_mask.c ****         }
 224:Drivers/lvgl/lvgl/src/draw/lv_draw_mask.c ****     }
 225:Drivers/lvgl/lvgl/src/draw/lv_draw_mask.c ****     else if(pdsc->type == LV_DRAW_MASK_TYPE_POLYGON) {
 226:Drivers/lvgl/lvgl/src/draw/lv_draw_mask.c ****         lv_draw_mask_polygon_param_t * poly_p = (lv_draw_mask_polygon_param_t *) p;
 227:Drivers/lvgl/lvgl/src/draw/lv_draw_mask.c ****         lv_mem_free(poly_p->cfg.points);
 228:Drivers/lvgl/lvgl/src/draw/lv_draw_mask.c ****     }
 229:Drivers/lvgl/lvgl/src/draw/lv_draw_mask.c **** }
 230:Drivers/lvgl/lvgl/src/draw/lv_draw_mask.c **** 
 231:Drivers/lvgl/lvgl/src/draw/lv_draw_mask.c **** void _lv_draw_mask_cleanup(void)
 232:Drivers/lvgl/lvgl/src/draw/lv_draw_mask.c **** {
 233:Drivers/lvgl/lvgl/src/draw/lv_draw_mask.c ****     uint8_t i;
 234:Drivers/lvgl/lvgl/src/draw/lv_draw_mask.c ****     for(i = 0; i < LV_CIRCLE_CACHE_SIZE; i++) {
 235:Drivers/lvgl/lvgl/src/draw/lv_draw_mask.c ****         if(LV_GC_ROOT(_lv_circle_cache[i]).buf) {
 236:Drivers/lvgl/lvgl/src/draw/lv_draw_mask.c ****             lv_mem_free(LV_GC_ROOT(_lv_circle_cache[i]).buf);
 237:Drivers/lvgl/lvgl/src/draw/lv_draw_mask.c ****         }
 238:Drivers/lvgl/lvgl/src/draw/lv_draw_mask.c ****         lv_memset_00(&LV_GC_ROOT(_lv_circle_cache[i]), sizeof(LV_GC_ROOT(_lv_circle_cache[i])));
 239:Drivers/lvgl/lvgl/src/draw/lv_draw_mask.c ****     }
 240:Drivers/lvgl/lvgl/src/draw/lv_draw_mask.c **** }
 241:Drivers/lvgl/lvgl/src/draw/lv_draw_mask.c **** 
 242:Drivers/lvgl/lvgl/src/draw/lv_draw_mask.c **** /**
 243:Drivers/lvgl/lvgl/src/draw/lv_draw_mask.c ****  * Count the currently added masks
 244:Drivers/lvgl/lvgl/src/draw/lv_draw_mask.c ****  * @return number of active masks
 245:Drivers/lvgl/lvgl/src/draw/lv_draw_mask.c ****  */
 246:Drivers/lvgl/lvgl/src/draw/lv_draw_mask.c **** LV_ATTRIBUTE_FAST_MEM uint8_t lv_draw_mask_get_cnt(void)
 247:Drivers/lvgl/lvgl/src/draw/lv_draw_mask.c **** {
 248:Drivers/lvgl/lvgl/src/draw/lv_draw_mask.c ****     uint8_t cnt = 0;
 249:Drivers/lvgl/lvgl/src/draw/lv_draw_mask.c ****     uint8_t i;
 250:Drivers/lvgl/lvgl/src/draw/lv_draw_mask.c ****     for(i = 0; i < _LV_MASK_MAX_NUM; i++) {
 251:Drivers/lvgl/lvgl/src/draw/lv_draw_mask.c ****         if(LV_GC_ROOT(_lv_draw_mask_list[i]).param) cnt++;
 252:Drivers/lvgl/lvgl/src/draw/lv_draw_mask.c ****     }
 253:Drivers/lvgl/lvgl/src/draw/lv_draw_mask.c ****     return cnt;
 254:Drivers/lvgl/lvgl/src/draw/lv_draw_mask.c **** }
 255:Drivers/lvgl/lvgl/src/draw/lv_draw_mask.c **** 
 256:Drivers/lvgl/lvgl/src/draw/lv_draw_mask.c **** bool lv_draw_mask_is_any(const lv_area_t * a)
 257:Drivers/lvgl/lvgl/src/draw/lv_draw_mask.c **** {
 258:Drivers/lvgl/lvgl/src/draw/lv_draw_mask.c ****     if(a == NULL) return LV_GC_ROOT(_lv_draw_mask_list[0]).param ? true : false;
 259:Drivers/lvgl/lvgl/src/draw/lv_draw_mask.c **** 
 260:Drivers/lvgl/lvgl/src/draw/lv_draw_mask.c ****     uint8_t i;
 261:Drivers/lvgl/lvgl/src/draw/lv_draw_mask.c ****     for(i = 0; i < _LV_MASK_MAX_NUM; i++) {
ARM GAS  /tmp/cct67Zj5.s 			page 6


 262:Drivers/lvgl/lvgl/src/draw/lv_draw_mask.c ****         _lv_draw_mask_common_dsc_t * comm_param = LV_GC_ROOT(_lv_draw_mask_list[i]).param;
 263:Drivers/lvgl/lvgl/src/draw/lv_draw_mask.c ****         if(comm_param == NULL) continue;
 264:Drivers/lvgl/lvgl/src/draw/lv_draw_mask.c ****         if(comm_param->type == LV_DRAW_MASK_TYPE_RADIUS) {
 265:Drivers/lvgl/lvgl/src/draw/lv_draw_mask.c ****             lv_draw_mask_radius_param_t * radius_param = LV_GC_ROOT(_lv_draw_mask_list[i]).param;
 266:Drivers/lvgl/lvgl/src/draw/lv_draw_mask.c ****             if(radius_param->cfg.outer) {
 267:Drivers/lvgl/lvgl/src/draw/lv_draw_mask.c ****                 if(!_lv_area_is_out(a, &radius_param->cfg.rect, radius_param->cfg.radius)) return t
 268:Drivers/lvgl/lvgl/src/draw/lv_draw_mask.c ****             }
 269:Drivers/lvgl/lvgl/src/draw/lv_draw_mask.c ****             else {
 270:Drivers/lvgl/lvgl/src/draw/lv_draw_mask.c ****                 if(!_lv_area_is_in(a, &radius_param->cfg.rect, radius_param->cfg.radius)) return tr
 271:Drivers/lvgl/lvgl/src/draw/lv_draw_mask.c ****             }
 272:Drivers/lvgl/lvgl/src/draw/lv_draw_mask.c ****         }
 273:Drivers/lvgl/lvgl/src/draw/lv_draw_mask.c ****         else {
 274:Drivers/lvgl/lvgl/src/draw/lv_draw_mask.c ****             return true;
 275:Drivers/lvgl/lvgl/src/draw/lv_draw_mask.c ****         }
 276:Drivers/lvgl/lvgl/src/draw/lv_draw_mask.c ****     }
 277:Drivers/lvgl/lvgl/src/draw/lv_draw_mask.c **** 
 278:Drivers/lvgl/lvgl/src/draw/lv_draw_mask.c ****     return false;
 279:Drivers/lvgl/lvgl/src/draw/lv_draw_mask.c **** 
 280:Drivers/lvgl/lvgl/src/draw/lv_draw_mask.c **** }
 281:Drivers/lvgl/lvgl/src/draw/lv_draw_mask.c **** 
 282:Drivers/lvgl/lvgl/src/draw/lv_draw_mask.c **** /**
 283:Drivers/lvgl/lvgl/src/draw/lv_draw_mask.c ****  *Initialize a line mask from two points.
 284:Drivers/lvgl/lvgl/src/draw/lv_draw_mask.c ****  * @param param pointer to a `lv_draw_mask_param_t` to initialize
 285:Drivers/lvgl/lvgl/src/draw/lv_draw_mask.c ****  * @param p1x X coordinate of the first point of the line
 286:Drivers/lvgl/lvgl/src/draw/lv_draw_mask.c ****  * @param p1y Y coordinate of the first point of the line
 287:Drivers/lvgl/lvgl/src/draw/lv_draw_mask.c ****  * @param p2x X coordinate of the second point of the line
 288:Drivers/lvgl/lvgl/src/draw/lv_draw_mask.c ****  * @param p2y y coordinate of the second point of the line
 289:Drivers/lvgl/lvgl/src/draw/lv_draw_mask.c ****  * @param side and element of `lv_draw_mask_line_side_t` to describe which side to keep.
 290:Drivers/lvgl/lvgl/src/draw/lv_draw_mask.c ****  * With `LV_DRAW_MASK_LINE_SIDE_LEFT/RIGHT` and horizontal line all pixels are kept
 291:Drivers/lvgl/lvgl/src/draw/lv_draw_mask.c ****  * With `LV_DRAW_MASK_LINE_SIDE_TOP/BOTTOM` and vertical line all pixels are kept
 292:Drivers/lvgl/lvgl/src/draw/lv_draw_mask.c ****  */
 293:Drivers/lvgl/lvgl/src/draw/lv_draw_mask.c **** void lv_draw_mask_line_points_init(lv_draw_mask_line_param_t * param, lv_coord_t p1x, lv_coord_t p1
 294:Drivers/lvgl/lvgl/src/draw/lv_draw_mask.c ****                                    lv_coord_t p2y, lv_draw_mask_line_side_t side)
 295:Drivers/lvgl/lvgl/src/draw/lv_draw_mask.c **** {
 296:Drivers/lvgl/lvgl/src/draw/lv_draw_mask.c ****     lv_memset_00(param, sizeof(lv_draw_mask_line_param_t));
 297:Drivers/lvgl/lvgl/src/draw/lv_draw_mask.c **** 
 298:Drivers/lvgl/lvgl/src/draw/lv_draw_mask.c ****     if(p1y == p2y && side == LV_DRAW_MASK_LINE_SIDE_BOTTOM) {
 299:Drivers/lvgl/lvgl/src/draw/lv_draw_mask.c ****         p1y--;
 300:Drivers/lvgl/lvgl/src/draw/lv_draw_mask.c ****         p2y--;
 301:Drivers/lvgl/lvgl/src/draw/lv_draw_mask.c ****     }
 302:Drivers/lvgl/lvgl/src/draw/lv_draw_mask.c **** 
 303:Drivers/lvgl/lvgl/src/draw/lv_draw_mask.c ****     if(p1y > p2y) {
 304:Drivers/lvgl/lvgl/src/draw/lv_draw_mask.c ****         lv_coord_t t;
 305:Drivers/lvgl/lvgl/src/draw/lv_draw_mask.c ****         t = p2x;
 306:Drivers/lvgl/lvgl/src/draw/lv_draw_mask.c ****         p2x = p1x;
 307:Drivers/lvgl/lvgl/src/draw/lv_draw_mask.c ****         p1x = t;
 308:Drivers/lvgl/lvgl/src/draw/lv_draw_mask.c **** 
 309:Drivers/lvgl/lvgl/src/draw/lv_draw_mask.c ****         t = p2y;
 310:Drivers/lvgl/lvgl/src/draw/lv_draw_mask.c ****         p2y = p1y;
 311:Drivers/lvgl/lvgl/src/draw/lv_draw_mask.c ****         p1y = t;
 312:Drivers/lvgl/lvgl/src/draw/lv_draw_mask.c ****     }
 313:Drivers/lvgl/lvgl/src/draw/lv_draw_mask.c **** 
 314:Drivers/lvgl/lvgl/src/draw/lv_draw_mask.c ****     param->cfg.p1.x = p1x;
 315:Drivers/lvgl/lvgl/src/draw/lv_draw_mask.c ****     param->cfg.p1.y = p1y;
 316:Drivers/lvgl/lvgl/src/draw/lv_draw_mask.c ****     param->cfg.p2.x = p2x;
 317:Drivers/lvgl/lvgl/src/draw/lv_draw_mask.c ****     param->cfg.p2.y = p2y;
 318:Drivers/lvgl/lvgl/src/draw/lv_draw_mask.c ****     param->cfg.side = side;
ARM GAS  /tmp/cct67Zj5.s 			page 7


 319:Drivers/lvgl/lvgl/src/draw/lv_draw_mask.c **** 
 320:Drivers/lvgl/lvgl/src/draw/lv_draw_mask.c ****     param->origo.x = p1x;
 321:Drivers/lvgl/lvgl/src/draw/lv_draw_mask.c ****     param->origo.y = p1y;
 322:Drivers/lvgl/lvgl/src/draw/lv_draw_mask.c ****     param->flat = (LV_ABS(p2x - p1x) > LV_ABS(p2y - p1y)) ? 1 : 0;
 323:Drivers/lvgl/lvgl/src/draw/lv_draw_mask.c ****     param->yx_steep = 0;
 324:Drivers/lvgl/lvgl/src/draw/lv_draw_mask.c ****     param->xy_steep = 0;
 325:Drivers/lvgl/lvgl/src/draw/lv_draw_mask.c ****     param->dsc.cb = (lv_draw_mask_xcb_t)lv_draw_mask_line;
 326:Drivers/lvgl/lvgl/src/draw/lv_draw_mask.c ****     param->dsc.type = LV_DRAW_MASK_TYPE_LINE;
 327:Drivers/lvgl/lvgl/src/draw/lv_draw_mask.c **** 
 328:Drivers/lvgl/lvgl/src/draw/lv_draw_mask.c ****     int32_t dx = p2x - p1x;
 329:Drivers/lvgl/lvgl/src/draw/lv_draw_mask.c ****     int32_t dy = p2y - p1y;
 330:Drivers/lvgl/lvgl/src/draw/lv_draw_mask.c **** 
 331:Drivers/lvgl/lvgl/src/draw/lv_draw_mask.c ****     if(param->flat) {
 332:Drivers/lvgl/lvgl/src/draw/lv_draw_mask.c ****         /*Normalize the steep. Delta x should be relative to delta x = 1024*/
 333:Drivers/lvgl/lvgl/src/draw/lv_draw_mask.c ****         int32_t m;
 334:Drivers/lvgl/lvgl/src/draw/lv_draw_mask.c **** 
 335:Drivers/lvgl/lvgl/src/draw/lv_draw_mask.c ****         if(dx) {
 336:Drivers/lvgl/lvgl/src/draw/lv_draw_mask.c ****             m = (1L << 20) / dx;  /*m is multiplier to normalize y (upscaled by 1024)*/
 337:Drivers/lvgl/lvgl/src/draw/lv_draw_mask.c ****             param->yx_steep = (m * dy) >> 10;
 338:Drivers/lvgl/lvgl/src/draw/lv_draw_mask.c ****         }
 339:Drivers/lvgl/lvgl/src/draw/lv_draw_mask.c **** 
 340:Drivers/lvgl/lvgl/src/draw/lv_draw_mask.c ****         if(dy) {
 341:Drivers/lvgl/lvgl/src/draw/lv_draw_mask.c ****             m = (1L << 20) / dy;  /*m is multiplier to normalize x (upscaled by 1024)*/
 342:Drivers/lvgl/lvgl/src/draw/lv_draw_mask.c ****             param->xy_steep = (m * dx) >> 10;
 343:Drivers/lvgl/lvgl/src/draw/lv_draw_mask.c ****         }
 344:Drivers/lvgl/lvgl/src/draw/lv_draw_mask.c ****         param->steep = param->yx_steep;
 345:Drivers/lvgl/lvgl/src/draw/lv_draw_mask.c ****     }
 346:Drivers/lvgl/lvgl/src/draw/lv_draw_mask.c ****     else {
 347:Drivers/lvgl/lvgl/src/draw/lv_draw_mask.c ****         /*Normalize the steep. Delta y should be relative to delta x = 1024*/
 348:Drivers/lvgl/lvgl/src/draw/lv_draw_mask.c ****         int32_t m;
 349:Drivers/lvgl/lvgl/src/draw/lv_draw_mask.c **** 
 350:Drivers/lvgl/lvgl/src/draw/lv_draw_mask.c ****         if(dy) {
 351:Drivers/lvgl/lvgl/src/draw/lv_draw_mask.c ****             m = (1L << 20) / dy;  /*m is multiplier to normalize x (upscaled by 1024)*/
 352:Drivers/lvgl/lvgl/src/draw/lv_draw_mask.c ****             param->xy_steep = (m * dx) >> 10;
 353:Drivers/lvgl/lvgl/src/draw/lv_draw_mask.c ****         }
 354:Drivers/lvgl/lvgl/src/draw/lv_draw_mask.c **** 
 355:Drivers/lvgl/lvgl/src/draw/lv_draw_mask.c ****         if(dx) {
 356:Drivers/lvgl/lvgl/src/draw/lv_draw_mask.c ****             m = (1L << 20) / dx;  /*m is multiplier to normalize x (upscaled by 1024)*/
 357:Drivers/lvgl/lvgl/src/draw/lv_draw_mask.c ****             param->yx_steep = (m * dy) >> 10;
 358:Drivers/lvgl/lvgl/src/draw/lv_draw_mask.c ****         }
 359:Drivers/lvgl/lvgl/src/draw/lv_draw_mask.c ****         param->steep = param->xy_steep;
 360:Drivers/lvgl/lvgl/src/draw/lv_draw_mask.c ****     }
 361:Drivers/lvgl/lvgl/src/draw/lv_draw_mask.c **** 
 362:Drivers/lvgl/lvgl/src/draw/lv_draw_mask.c ****     if(param->cfg.side == LV_DRAW_MASK_LINE_SIDE_LEFT) param->inv = 0;
 363:Drivers/lvgl/lvgl/src/draw/lv_draw_mask.c ****     else if(param->cfg.side == LV_DRAW_MASK_LINE_SIDE_RIGHT) param->inv = 1;
 364:Drivers/lvgl/lvgl/src/draw/lv_draw_mask.c ****     else if(param->cfg.side == LV_DRAW_MASK_LINE_SIDE_TOP) {
 365:Drivers/lvgl/lvgl/src/draw/lv_draw_mask.c ****         if(param->steep > 0) param->inv = 1;
 366:Drivers/lvgl/lvgl/src/draw/lv_draw_mask.c ****         else param->inv = 0;
 367:Drivers/lvgl/lvgl/src/draw/lv_draw_mask.c ****     }
 368:Drivers/lvgl/lvgl/src/draw/lv_draw_mask.c ****     else if(param->cfg.side == LV_DRAW_MASK_LINE_SIDE_BOTTOM) {
 369:Drivers/lvgl/lvgl/src/draw/lv_draw_mask.c ****         if(param->steep > 0) param->inv = 0;
 370:Drivers/lvgl/lvgl/src/draw/lv_draw_mask.c ****         else param->inv = 1;
 371:Drivers/lvgl/lvgl/src/draw/lv_draw_mask.c ****     }
 372:Drivers/lvgl/lvgl/src/draw/lv_draw_mask.c **** 
 373:Drivers/lvgl/lvgl/src/draw/lv_draw_mask.c ****     param->spx = param->steep >> 2;
 374:Drivers/lvgl/lvgl/src/draw/lv_draw_mask.c ****     if(param->steep < 0) param->spx = -param->spx;
 375:Drivers/lvgl/lvgl/src/draw/lv_draw_mask.c **** }
ARM GAS  /tmp/cct67Zj5.s 			page 8


 376:Drivers/lvgl/lvgl/src/draw/lv_draw_mask.c **** 
 377:Drivers/lvgl/lvgl/src/draw/lv_draw_mask.c **** /**
 378:Drivers/lvgl/lvgl/src/draw/lv_draw_mask.c ****  *Initialize a line mask from a point and an angle.
 379:Drivers/lvgl/lvgl/src/draw/lv_draw_mask.c ****  * @param param pointer to a `lv_draw_mask_param_t` to initialize
 380:Drivers/lvgl/lvgl/src/draw/lv_draw_mask.c ****  * @param px X coordinate of a point of the line
 381:Drivers/lvgl/lvgl/src/draw/lv_draw_mask.c ****  * @param py X coordinate of a point of the line
 382:Drivers/lvgl/lvgl/src/draw/lv_draw_mask.c ****  * @param angle right 0 deg, bottom: 90
 383:Drivers/lvgl/lvgl/src/draw/lv_draw_mask.c ****  * @param side and element of `lv_draw_mask_line_side_t` to describe which side to keep.
 384:Drivers/lvgl/lvgl/src/draw/lv_draw_mask.c ****  * With `LV_DRAW_MASK_LINE_SIDE_LEFT/RIGHT` and horizontal line all pixels are kept
 385:Drivers/lvgl/lvgl/src/draw/lv_draw_mask.c ****  * With `LV_DRAW_MASK_LINE_SIDE_TOP/BOTTOM` and vertical line all pixels are kept
 386:Drivers/lvgl/lvgl/src/draw/lv_draw_mask.c ****  */
 387:Drivers/lvgl/lvgl/src/draw/lv_draw_mask.c **** void lv_draw_mask_line_angle_init(lv_draw_mask_line_param_t * param, lv_coord_t p1x, lv_coord_t py,
 388:Drivers/lvgl/lvgl/src/draw/lv_draw_mask.c ****                                   lv_draw_mask_line_side_t side)
 389:Drivers/lvgl/lvgl/src/draw/lv_draw_mask.c **** {
 390:Drivers/lvgl/lvgl/src/draw/lv_draw_mask.c ****     /*Find an optimal degree.
 391:Drivers/lvgl/lvgl/src/draw/lv_draw_mask.c ****      *lv_mask_line_points_init will swap the points to keep the smaller y in p1
 392:Drivers/lvgl/lvgl/src/draw/lv_draw_mask.c ****      *Theoretically a line with `angle` or `angle+180` is the same only the points are swapped
 393:Drivers/lvgl/lvgl/src/draw/lv_draw_mask.c ****      *Find the degree which keeps the origo in place*/
 394:Drivers/lvgl/lvgl/src/draw/lv_draw_mask.c ****     if(angle > 180) angle -= 180; /*> 180 will swap the origo*/
 395:Drivers/lvgl/lvgl/src/draw/lv_draw_mask.c **** 
 396:Drivers/lvgl/lvgl/src/draw/lv_draw_mask.c ****     int32_t p2x;
 397:Drivers/lvgl/lvgl/src/draw/lv_draw_mask.c ****     int32_t p2y;
 398:Drivers/lvgl/lvgl/src/draw/lv_draw_mask.c **** 
 399:Drivers/lvgl/lvgl/src/draw/lv_draw_mask.c ****     p2x = (lv_trigo_sin(angle + 90) >> 5) + p1x;
 400:Drivers/lvgl/lvgl/src/draw/lv_draw_mask.c ****     p2y = (lv_trigo_sin(angle) >> 5) + py;
 401:Drivers/lvgl/lvgl/src/draw/lv_draw_mask.c **** 
 402:Drivers/lvgl/lvgl/src/draw/lv_draw_mask.c ****     lv_draw_mask_line_points_init(param, p1x, py, p2x, p2y, side);
 403:Drivers/lvgl/lvgl/src/draw/lv_draw_mask.c **** }
 404:Drivers/lvgl/lvgl/src/draw/lv_draw_mask.c **** 
 405:Drivers/lvgl/lvgl/src/draw/lv_draw_mask.c **** /**
 406:Drivers/lvgl/lvgl/src/draw/lv_draw_mask.c ****  * Initialize an angle mask.
 407:Drivers/lvgl/lvgl/src/draw/lv_draw_mask.c ****  * @param param pointer to a `lv_draw_mask_param_t` to initialize
 408:Drivers/lvgl/lvgl/src/draw/lv_draw_mask.c ****  * @param vertex_x X coordinate of the angle vertex (absolute coordinates)
 409:Drivers/lvgl/lvgl/src/draw/lv_draw_mask.c ****  * @param vertex_y Y coordinate of the angle vertex (absolute coordinates)
 410:Drivers/lvgl/lvgl/src/draw/lv_draw_mask.c ****  * @param start_angle start angle in degrees. 0 deg on the right, 90 deg, on the bottom
 411:Drivers/lvgl/lvgl/src/draw/lv_draw_mask.c ****  * @param end_angle end angle
 412:Drivers/lvgl/lvgl/src/draw/lv_draw_mask.c ****  */
 413:Drivers/lvgl/lvgl/src/draw/lv_draw_mask.c **** void lv_draw_mask_angle_init(lv_draw_mask_angle_param_t * param, lv_coord_t vertex_x, lv_coord_t ve
 414:Drivers/lvgl/lvgl/src/draw/lv_draw_mask.c ****                              lv_coord_t start_angle, lv_coord_t end_angle)
 415:Drivers/lvgl/lvgl/src/draw/lv_draw_mask.c **** {
 416:Drivers/lvgl/lvgl/src/draw/lv_draw_mask.c ****     lv_draw_mask_line_side_t start_side;
 417:Drivers/lvgl/lvgl/src/draw/lv_draw_mask.c ****     lv_draw_mask_line_side_t end_side;
 418:Drivers/lvgl/lvgl/src/draw/lv_draw_mask.c **** 
 419:Drivers/lvgl/lvgl/src/draw/lv_draw_mask.c ****     /*Constrain the input angles*/
 420:Drivers/lvgl/lvgl/src/draw/lv_draw_mask.c ****     if(start_angle < 0)
 421:Drivers/lvgl/lvgl/src/draw/lv_draw_mask.c ****         start_angle = 0;
 422:Drivers/lvgl/lvgl/src/draw/lv_draw_mask.c ****     else if(start_angle > 359)
 423:Drivers/lvgl/lvgl/src/draw/lv_draw_mask.c ****         start_angle = 359;
 424:Drivers/lvgl/lvgl/src/draw/lv_draw_mask.c **** 
 425:Drivers/lvgl/lvgl/src/draw/lv_draw_mask.c ****     if(end_angle < 0)
 426:Drivers/lvgl/lvgl/src/draw/lv_draw_mask.c ****         end_angle = 0;
 427:Drivers/lvgl/lvgl/src/draw/lv_draw_mask.c ****     else if(end_angle > 359)
 428:Drivers/lvgl/lvgl/src/draw/lv_draw_mask.c ****         end_angle = 359;
 429:Drivers/lvgl/lvgl/src/draw/lv_draw_mask.c **** 
 430:Drivers/lvgl/lvgl/src/draw/lv_draw_mask.c ****     if(end_angle < start_angle) {
 431:Drivers/lvgl/lvgl/src/draw/lv_draw_mask.c ****         param->delta_deg = 360 - start_angle + end_angle;
 432:Drivers/lvgl/lvgl/src/draw/lv_draw_mask.c ****     }
ARM GAS  /tmp/cct67Zj5.s 			page 9


 433:Drivers/lvgl/lvgl/src/draw/lv_draw_mask.c ****     else {
 434:Drivers/lvgl/lvgl/src/draw/lv_draw_mask.c ****         param->delta_deg = LV_ABS(end_angle - start_angle);
 435:Drivers/lvgl/lvgl/src/draw/lv_draw_mask.c ****     }
 436:Drivers/lvgl/lvgl/src/draw/lv_draw_mask.c **** 
 437:Drivers/lvgl/lvgl/src/draw/lv_draw_mask.c ****     param->cfg.start_angle = start_angle;
 438:Drivers/lvgl/lvgl/src/draw/lv_draw_mask.c ****     param->cfg.end_angle = end_angle;
 439:Drivers/lvgl/lvgl/src/draw/lv_draw_mask.c ****     param->cfg.vertex_p.x = vertex_x;
 440:Drivers/lvgl/lvgl/src/draw/lv_draw_mask.c ****     param->cfg.vertex_p.y = vertex_y;
 441:Drivers/lvgl/lvgl/src/draw/lv_draw_mask.c ****     param->dsc.cb = (lv_draw_mask_xcb_t)lv_draw_mask_angle;
 442:Drivers/lvgl/lvgl/src/draw/lv_draw_mask.c ****     param->dsc.type = LV_DRAW_MASK_TYPE_ANGLE;
 443:Drivers/lvgl/lvgl/src/draw/lv_draw_mask.c **** 
 444:Drivers/lvgl/lvgl/src/draw/lv_draw_mask.c ****     LV_ASSERT_MSG(start_angle >= 0 && start_angle <= 360, "Unexpected start angle");
 445:Drivers/lvgl/lvgl/src/draw/lv_draw_mask.c **** 
 446:Drivers/lvgl/lvgl/src/draw/lv_draw_mask.c ****     if(start_angle >= 0 && start_angle < 180) {
 447:Drivers/lvgl/lvgl/src/draw/lv_draw_mask.c ****         start_side = LV_DRAW_MASK_LINE_SIDE_LEFT;
 448:Drivers/lvgl/lvgl/src/draw/lv_draw_mask.c ****     }
 449:Drivers/lvgl/lvgl/src/draw/lv_draw_mask.c ****     else
 450:Drivers/lvgl/lvgl/src/draw/lv_draw_mask.c ****         start_side = LV_DRAW_MASK_LINE_SIDE_RIGHT; /*silence compiler*/
 451:Drivers/lvgl/lvgl/src/draw/lv_draw_mask.c **** 
 452:Drivers/lvgl/lvgl/src/draw/lv_draw_mask.c ****     LV_ASSERT_MSG(end_angle >= 0 && start_angle <= 360, "Unexpected end angle");
 453:Drivers/lvgl/lvgl/src/draw/lv_draw_mask.c **** 
 454:Drivers/lvgl/lvgl/src/draw/lv_draw_mask.c ****     if(end_angle >= 0 && end_angle < 180) {
 455:Drivers/lvgl/lvgl/src/draw/lv_draw_mask.c ****         end_side = LV_DRAW_MASK_LINE_SIDE_RIGHT;
 456:Drivers/lvgl/lvgl/src/draw/lv_draw_mask.c ****     }
 457:Drivers/lvgl/lvgl/src/draw/lv_draw_mask.c ****     else if(end_angle >= 180 && end_angle < 360) {
 458:Drivers/lvgl/lvgl/src/draw/lv_draw_mask.c ****         end_side = LV_DRAW_MASK_LINE_SIDE_LEFT;
 459:Drivers/lvgl/lvgl/src/draw/lv_draw_mask.c ****     }
 460:Drivers/lvgl/lvgl/src/draw/lv_draw_mask.c ****     else
 461:Drivers/lvgl/lvgl/src/draw/lv_draw_mask.c ****         end_side = LV_DRAW_MASK_LINE_SIDE_RIGHT; /*silence compiler*/
 462:Drivers/lvgl/lvgl/src/draw/lv_draw_mask.c **** 
 463:Drivers/lvgl/lvgl/src/draw/lv_draw_mask.c ****     lv_draw_mask_line_angle_init(&param->start_line, vertex_x, vertex_y, start_angle, start_side);
 464:Drivers/lvgl/lvgl/src/draw/lv_draw_mask.c ****     lv_draw_mask_line_angle_init(&param->end_line, vertex_x, vertex_y, end_angle, end_side);
 465:Drivers/lvgl/lvgl/src/draw/lv_draw_mask.c **** }
 466:Drivers/lvgl/lvgl/src/draw/lv_draw_mask.c **** 
 467:Drivers/lvgl/lvgl/src/draw/lv_draw_mask.c **** /**
 468:Drivers/lvgl/lvgl/src/draw/lv_draw_mask.c ****  * Initialize a fade mask.
 469:Drivers/lvgl/lvgl/src/draw/lv_draw_mask.c ****  * @param param pointer to an `lv_draw_mask_radius_param_t` to initialize
 470:Drivers/lvgl/lvgl/src/draw/lv_draw_mask.c ****  * @param rect coordinates of the rectangle to affect (absolute coordinates)
 471:Drivers/lvgl/lvgl/src/draw/lv_draw_mask.c ****  * @param radius radius of the rectangle
 472:Drivers/lvgl/lvgl/src/draw/lv_draw_mask.c ****  * @param inv true: keep the pixels inside the rectangle; keep the pixels outside of the rectangle
 473:Drivers/lvgl/lvgl/src/draw/lv_draw_mask.c ****  */
 474:Drivers/lvgl/lvgl/src/draw/lv_draw_mask.c **** void lv_draw_mask_radius_init(lv_draw_mask_radius_param_t * param, const lv_area_t * rect, lv_coord
 475:Drivers/lvgl/lvgl/src/draw/lv_draw_mask.c **** {
 476:Drivers/lvgl/lvgl/src/draw/lv_draw_mask.c ****     lv_coord_t w = lv_area_get_width(rect);
 477:Drivers/lvgl/lvgl/src/draw/lv_draw_mask.c ****     lv_coord_t h = lv_area_get_height(rect);
 478:Drivers/lvgl/lvgl/src/draw/lv_draw_mask.c ****     int32_t short_side = LV_MIN(w, h);
 479:Drivers/lvgl/lvgl/src/draw/lv_draw_mask.c ****     if(radius > short_side >> 1) radius = short_side >> 1;
 480:Drivers/lvgl/lvgl/src/draw/lv_draw_mask.c ****     if(radius < 0) radius = 0;
 481:Drivers/lvgl/lvgl/src/draw/lv_draw_mask.c **** 
 482:Drivers/lvgl/lvgl/src/draw/lv_draw_mask.c ****     lv_area_copy(&param->cfg.rect, rect);
 483:Drivers/lvgl/lvgl/src/draw/lv_draw_mask.c ****     param->cfg.radius = radius;
 484:Drivers/lvgl/lvgl/src/draw/lv_draw_mask.c ****     param->cfg.outer = inv ? 1 : 0;
 485:Drivers/lvgl/lvgl/src/draw/lv_draw_mask.c ****     param->dsc.cb = (lv_draw_mask_xcb_t)lv_draw_mask_radius;
 486:Drivers/lvgl/lvgl/src/draw/lv_draw_mask.c ****     param->dsc.type = LV_DRAW_MASK_TYPE_RADIUS;
 487:Drivers/lvgl/lvgl/src/draw/lv_draw_mask.c **** 
 488:Drivers/lvgl/lvgl/src/draw/lv_draw_mask.c ****     if(radius == 0) {
 489:Drivers/lvgl/lvgl/src/draw/lv_draw_mask.c ****         param->circle = NULL;
ARM GAS  /tmp/cct67Zj5.s 			page 10


 490:Drivers/lvgl/lvgl/src/draw/lv_draw_mask.c ****         return;
 491:Drivers/lvgl/lvgl/src/draw/lv_draw_mask.c ****     }
 492:Drivers/lvgl/lvgl/src/draw/lv_draw_mask.c **** 
 493:Drivers/lvgl/lvgl/src/draw/lv_draw_mask.c ****     uint32_t i;
 494:Drivers/lvgl/lvgl/src/draw/lv_draw_mask.c **** 
 495:Drivers/lvgl/lvgl/src/draw/lv_draw_mask.c ****     /*Try to reuse a circle cache entry*/
 496:Drivers/lvgl/lvgl/src/draw/lv_draw_mask.c ****     for(i = 0; i < LV_CIRCLE_CACHE_SIZE; i++) {
 497:Drivers/lvgl/lvgl/src/draw/lv_draw_mask.c ****         if(LV_GC_ROOT(_lv_circle_cache[i]).radius == radius) {
 498:Drivers/lvgl/lvgl/src/draw/lv_draw_mask.c ****             LV_GC_ROOT(_lv_circle_cache[i]).used_cnt++;
 499:Drivers/lvgl/lvgl/src/draw/lv_draw_mask.c ****             CIRCLE_CACHE_AGING(LV_GC_ROOT(_lv_circle_cache[i]).life, radius);
 500:Drivers/lvgl/lvgl/src/draw/lv_draw_mask.c ****             param->circle = &LV_GC_ROOT(_lv_circle_cache[i]);
 501:Drivers/lvgl/lvgl/src/draw/lv_draw_mask.c ****             return;
 502:Drivers/lvgl/lvgl/src/draw/lv_draw_mask.c ****         }
 503:Drivers/lvgl/lvgl/src/draw/lv_draw_mask.c ****     }
 504:Drivers/lvgl/lvgl/src/draw/lv_draw_mask.c **** 
 505:Drivers/lvgl/lvgl/src/draw/lv_draw_mask.c ****     /*If not found find a free entry with lowest life*/
 506:Drivers/lvgl/lvgl/src/draw/lv_draw_mask.c ****     _lv_draw_mask_radius_circle_dsc_t * entry = NULL;
 507:Drivers/lvgl/lvgl/src/draw/lv_draw_mask.c ****     for(i = 0; i < LV_CIRCLE_CACHE_SIZE; i++) {
 508:Drivers/lvgl/lvgl/src/draw/lv_draw_mask.c ****         if(LV_GC_ROOT(_lv_circle_cache[i]).used_cnt == 0) {
 509:Drivers/lvgl/lvgl/src/draw/lv_draw_mask.c ****             if(!entry) entry = &LV_GC_ROOT(_lv_circle_cache[i]);
 510:Drivers/lvgl/lvgl/src/draw/lv_draw_mask.c ****             else if(LV_GC_ROOT(_lv_circle_cache[i]).life < entry->life) entry = &LV_GC_ROOT(_lv_cir
 511:Drivers/lvgl/lvgl/src/draw/lv_draw_mask.c ****         }
 512:Drivers/lvgl/lvgl/src/draw/lv_draw_mask.c ****     }
 513:Drivers/lvgl/lvgl/src/draw/lv_draw_mask.c **** 
 514:Drivers/lvgl/lvgl/src/draw/lv_draw_mask.c ****     if(!entry) {
 515:Drivers/lvgl/lvgl/src/draw/lv_draw_mask.c ****         entry = lv_mem_alloc(sizeof(_lv_draw_mask_radius_circle_dsc_t));
 516:Drivers/lvgl/lvgl/src/draw/lv_draw_mask.c ****         LV_ASSERT_MALLOC(entry);
 517:Drivers/lvgl/lvgl/src/draw/lv_draw_mask.c ****         lv_memset_00(entry, sizeof(_lv_draw_mask_radius_circle_dsc_t));
 518:Drivers/lvgl/lvgl/src/draw/lv_draw_mask.c ****         entry->life = -1;
 519:Drivers/lvgl/lvgl/src/draw/lv_draw_mask.c ****     }
 520:Drivers/lvgl/lvgl/src/draw/lv_draw_mask.c ****     else {
 521:Drivers/lvgl/lvgl/src/draw/lv_draw_mask.c ****         entry->used_cnt++;
 522:Drivers/lvgl/lvgl/src/draw/lv_draw_mask.c ****         entry->life = 0;
 523:Drivers/lvgl/lvgl/src/draw/lv_draw_mask.c ****         CIRCLE_CACHE_AGING(entry->life, radius);
 524:Drivers/lvgl/lvgl/src/draw/lv_draw_mask.c ****     }
 525:Drivers/lvgl/lvgl/src/draw/lv_draw_mask.c **** 
 526:Drivers/lvgl/lvgl/src/draw/lv_draw_mask.c ****     param->circle = entry;
 527:Drivers/lvgl/lvgl/src/draw/lv_draw_mask.c **** 
 528:Drivers/lvgl/lvgl/src/draw/lv_draw_mask.c ****     circ_calc_aa4(param->circle, radius);
 529:Drivers/lvgl/lvgl/src/draw/lv_draw_mask.c **** }
 530:Drivers/lvgl/lvgl/src/draw/lv_draw_mask.c **** 
 531:Drivers/lvgl/lvgl/src/draw/lv_draw_mask.c **** /**
 532:Drivers/lvgl/lvgl/src/draw/lv_draw_mask.c ****  * Initialize a fade mask.
 533:Drivers/lvgl/lvgl/src/draw/lv_draw_mask.c ****  * @param param pointer to a `lv_draw_mask_param_t` to initialize
 534:Drivers/lvgl/lvgl/src/draw/lv_draw_mask.c ****  * @param coords coordinates of the area to affect (absolute coordinates)
 535:Drivers/lvgl/lvgl/src/draw/lv_draw_mask.c ****  * @param opa_top opacity on the top
 536:Drivers/lvgl/lvgl/src/draw/lv_draw_mask.c ****  * @param y_top at which coordinate start to change to opacity to `opa_bottom`
 537:Drivers/lvgl/lvgl/src/draw/lv_draw_mask.c ****  * @param opa_bottom opacity at the bottom
 538:Drivers/lvgl/lvgl/src/draw/lv_draw_mask.c ****  * @param y_bottom at which coordinate reach `opa_bottom`.
 539:Drivers/lvgl/lvgl/src/draw/lv_draw_mask.c ****  */
 540:Drivers/lvgl/lvgl/src/draw/lv_draw_mask.c **** void lv_draw_mask_fade_init(lv_draw_mask_fade_param_t * param, const lv_area_t * coords, lv_opa_t o
 541:Drivers/lvgl/lvgl/src/draw/lv_draw_mask.c ****                             lv_coord_t y_top,
 542:Drivers/lvgl/lvgl/src/draw/lv_draw_mask.c ****                             lv_opa_t opa_bottom, lv_coord_t y_bottom)
 543:Drivers/lvgl/lvgl/src/draw/lv_draw_mask.c **** {
 544:Drivers/lvgl/lvgl/src/draw/lv_draw_mask.c ****     lv_area_copy(&param->cfg.coords, coords);
 545:Drivers/lvgl/lvgl/src/draw/lv_draw_mask.c ****     param->cfg.opa_top = opa_top;
 546:Drivers/lvgl/lvgl/src/draw/lv_draw_mask.c ****     param->cfg.opa_bottom = opa_bottom;
ARM GAS  /tmp/cct67Zj5.s 			page 11


 547:Drivers/lvgl/lvgl/src/draw/lv_draw_mask.c ****     param->cfg.y_top = y_top;
 548:Drivers/lvgl/lvgl/src/draw/lv_draw_mask.c ****     param->cfg.y_bottom = y_bottom;
 549:Drivers/lvgl/lvgl/src/draw/lv_draw_mask.c ****     param->dsc.cb = (lv_draw_mask_xcb_t)lv_draw_mask_fade;
 550:Drivers/lvgl/lvgl/src/draw/lv_draw_mask.c ****     param->dsc.type = LV_DRAW_MASK_TYPE_FADE;
 551:Drivers/lvgl/lvgl/src/draw/lv_draw_mask.c **** }
 552:Drivers/lvgl/lvgl/src/draw/lv_draw_mask.c **** 
 553:Drivers/lvgl/lvgl/src/draw/lv_draw_mask.c **** /**
 554:Drivers/lvgl/lvgl/src/draw/lv_draw_mask.c ****  * Initialize a map mask.
 555:Drivers/lvgl/lvgl/src/draw/lv_draw_mask.c ****  * @param param pointer to a `lv_draw_mask_param_t` to initialize
 556:Drivers/lvgl/lvgl/src/draw/lv_draw_mask.c ****  * @param coords coordinates of the map (absolute coordinates)
 557:Drivers/lvgl/lvgl/src/draw/lv_draw_mask.c ****  * @param map array of bytes with the mask values
 558:Drivers/lvgl/lvgl/src/draw/lv_draw_mask.c ****  */
 559:Drivers/lvgl/lvgl/src/draw/lv_draw_mask.c **** void lv_draw_mask_map_init(lv_draw_mask_map_param_t * param, const lv_area_t * coords, const lv_opa
 560:Drivers/lvgl/lvgl/src/draw/lv_draw_mask.c **** {
 561:Drivers/lvgl/lvgl/src/draw/lv_draw_mask.c ****     lv_area_copy(&param->cfg.coords, coords);
 562:Drivers/lvgl/lvgl/src/draw/lv_draw_mask.c ****     param->cfg.map = map;
 563:Drivers/lvgl/lvgl/src/draw/lv_draw_mask.c ****     param->dsc.cb = (lv_draw_mask_xcb_t)lv_draw_mask_map;
 564:Drivers/lvgl/lvgl/src/draw/lv_draw_mask.c ****     param->dsc.type = LV_DRAW_MASK_TYPE_MAP;
 565:Drivers/lvgl/lvgl/src/draw/lv_draw_mask.c **** }
 566:Drivers/lvgl/lvgl/src/draw/lv_draw_mask.c **** 
 567:Drivers/lvgl/lvgl/src/draw/lv_draw_mask.c **** void lv_draw_mask_polygon_init(lv_draw_mask_polygon_param_t * param, const lv_point_t * points, uin
 568:Drivers/lvgl/lvgl/src/draw/lv_draw_mask.c **** {
 569:Drivers/lvgl/lvgl/src/draw/lv_draw_mask.c ****     /*Join adjacent points if they are on the same coordinate*/
 570:Drivers/lvgl/lvgl/src/draw/lv_draw_mask.c ****     lv_point_t * p = lv_mem_alloc(point_cnt * sizeof(lv_point_t));
 571:Drivers/lvgl/lvgl/src/draw/lv_draw_mask.c ****     if(p == NULL) return;
 572:Drivers/lvgl/lvgl/src/draw/lv_draw_mask.c ****     uint16_t i;
 573:Drivers/lvgl/lvgl/src/draw/lv_draw_mask.c ****     uint16_t pcnt = 0;
 574:Drivers/lvgl/lvgl/src/draw/lv_draw_mask.c ****     p[0] = points[0];
 575:Drivers/lvgl/lvgl/src/draw/lv_draw_mask.c ****     for(i = 0; i < point_cnt - 1; i++) {
 576:Drivers/lvgl/lvgl/src/draw/lv_draw_mask.c ****         if(points[i].x != points[i + 1].x || points[i].y != points[i + 1].y) {
 577:Drivers/lvgl/lvgl/src/draw/lv_draw_mask.c ****             p[pcnt] = points[i];
 578:Drivers/lvgl/lvgl/src/draw/lv_draw_mask.c ****             pcnt++;
 579:Drivers/lvgl/lvgl/src/draw/lv_draw_mask.c ****         }
 580:Drivers/lvgl/lvgl/src/draw/lv_draw_mask.c ****     }
 581:Drivers/lvgl/lvgl/src/draw/lv_draw_mask.c ****     /*The first and the last points are also adjacent*/
 582:Drivers/lvgl/lvgl/src/draw/lv_draw_mask.c ****     if(points[0].x != points[point_cnt - 1].x || points[0].y != points[point_cnt - 1].y) {
 583:Drivers/lvgl/lvgl/src/draw/lv_draw_mask.c ****         p[pcnt] = points[point_cnt - 1];
 584:Drivers/lvgl/lvgl/src/draw/lv_draw_mask.c ****         pcnt++;
 585:Drivers/lvgl/lvgl/src/draw/lv_draw_mask.c ****     }
 586:Drivers/lvgl/lvgl/src/draw/lv_draw_mask.c ****     param->cfg.points = p;
 587:Drivers/lvgl/lvgl/src/draw/lv_draw_mask.c ****     param->cfg.point_cnt = pcnt;
 588:Drivers/lvgl/lvgl/src/draw/lv_draw_mask.c ****     param->dsc.cb = (lv_draw_mask_xcb_t)lv_draw_mask_polygon;
 589:Drivers/lvgl/lvgl/src/draw/lv_draw_mask.c ****     param->dsc.type = LV_DRAW_MASK_TYPE_POLYGON;
 590:Drivers/lvgl/lvgl/src/draw/lv_draw_mask.c **** }
 591:Drivers/lvgl/lvgl/src/draw/lv_draw_mask.c **** 
 592:Drivers/lvgl/lvgl/src/draw/lv_draw_mask.c **** /**********************
 593:Drivers/lvgl/lvgl/src/draw/lv_draw_mask.c ****  *   STATIC FUNCTIONS
 594:Drivers/lvgl/lvgl/src/draw/lv_draw_mask.c ****  **********************/
 595:Drivers/lvgl/lvgl/src/draw/lv_draw_mask.c **** 
 596:Drivers/lvgl/lvgl/src/draw/lv_draw_mask.c **** LV_ATTRIBUTE_FAST_MEM static lv_draw_mask_res_t lv_draw_mask_line(lv_opa_t * mask_buf, lv_coord_t a
 597:Drivers/lvgl/lvgl/src/draw/lv_draw_mask.c ****                                                                   lv_coord_t abs_y, lv_coord_t len,
 598:Drivers/lvgl/lvgl/src/draw/lv_draw_mask.c ****                                                                   lv_draw_mask_line_param_t * p)
 599:Drivers/lvgl/lvgl/src/draw/lv_draw_mask.c **** {
 600:Drivers/lvgl/lvgl/src/draw/lv_draw_mask.c ****     /*Make to points relative to the vertex*/
 601:Drivers/lvgl/lvgl/src/draw/lv_draw_mask.c ****     abs_y -= p->origo.y;
 602:Drivers/lvgl/lvgl/src/draw/lv_draw_mask.c ****     abs_x -= p->origo.x;
 603:Drivers/lvgl/lvgl/src/draw/lv_draw_mask.c **** 
ARM GAS  /tmp/cct67Zj5.s 			page 12


 604:Drivers/lvgl/lvgl/src/draw/lv_draw_mask.c ****     /*Handle special cases*/
 605:Drivers/lvgl/lvgl/src/draw/lv_draw_mask.c ****     if(p->steep == 0) {
 606:Drivers/lvgl/lvgl/src/draw/lv_draw_mask.c ****         /*Horizontal*/
 607:Drivers/lvgl/lvgl/src/draw/lv_draw_mask.c ****         if(p->flat) {
 608:Drivers/lvgl/lvgl/src/draw/lv_draw_mask.c ****             /*Non sense: Can't be on the right/left of a horizontal line*/
 609:Drivers/lvgl/lvgl/src/draw/lv_draw_mask.c ****             if(p->cfg.side == LV_DRAW_MASK_LINE_SIDE_LEFT ||
 610:Drivers/lvgl/lvgl/src/draw/lv_draw_mask.c ****                p->cfg.side == LV_DRAW_MASK_LINE_SIDE_RIGHT) return LV_DRAW_MASK_RES_FULL_COVER;
 611:Drivers/lvgl/lvgl/src/draw/lv_draw_mask.c ****             else if(p->cfg.side == LV_DRAW_MASK_LINE_SIDE_TOP && abs_y + 1 < 0) return LV_DRAW_MASK
 612:Drivers/lvgl/lvgl/src/draw/lv_draw_mask.c ****             else if(p->cfg.side == LV_DRAW_MASK_LINE_SIDE_BOTTOM && abs_y > 0) return LV_DRAW_MASK_
 613:Drivers/lvgl/lvgl/src/draw/lv_draw_mask.c ****             else {
 614:Drivers/lvgl/lvgl/src/draw/lv_draw_mask.c ****                 return LV_DRAW_MASK_RES_TRANSP;
 615:Drivers/lvgl/lvgl/src/draw/lv_draw_mask.c ****             }
 616:Drivers/lvgl/lvgl/src/draw/lv_draw_mask.c ****         }
 617:Drivers/lvgl/lvgl/src/draw/lv_draw_mask.c ****         /*Vertical*/
 618:Drivers/lvgl/lvgl/src/draw/lv_draw_mask.c ****         else {
 619:Drivers/lvgl/lvgl/src/draw/lv_draw_mask.c ****             /*Non sense: Can't be on the top/bottom of a vertical line*/
 620:Drivers/lvgl/lvgl/src/draw/lv_draw_mask.c ****             if(p->cfg.side == LV_DRAW_MASK_LINE_SIDE_TOP ||
 621:Drivers/lvgl/lvgl/src/draw/lv_draw_mask.c ****                p->cfg.side == LV_DRAW_MASK_LINE_SIDE_BOTTOM) return LV_DRAW_MASK_RES_FULL_COVER;
 622:Drivers/lvgl/lvgl/src/draw/lv_draw_mask.c ****             else if(p->cfg.side == LV_DRAW_MASK_LINE_SIDE_RIGHT && abs_x > 0) return LV_DRAW_MASK_R
 623:Drivers/lvgl/lvgl/src/draw/lv_draw_mask.c ****             else if(p->cfg.side == LV_DRAW_MASK_LINE_SIDE_LEFT) {
 624:Drivers/lvgl/lvgl/src/draw/lv_draw_mask.c ****                 if(abs_x + len < 0) return LV_DRAW_MASK_RES_FULL_COVER;
 625:Drivers/lvgl/lvgl/src/draw/lv_draw_mask.c ****                 else {
 626:Drivers/lvgl/lvgl/src/draw/lv_draw_mask.c ****                     int32_t k = - abs_x;
 627:Drivers/lvgl/lvgl/src/draw/lv_draw_mask.c ****                     if(k < 0) return LV_DRAW_MASK_RES_TRANSP;
 628:Drivers/lvgl/lvgl/src/draw/lv_draw_mask.c ****                     if(k >= 0 && k < len) lv_memset_00(&mask_buf[k], len - k);
 629:Drivers/lvgl/lvgl/src/draw/lv_draw_mask.c ****                     return  LV_DRAW_MASK_RES_CHANGED;
 630:Drivers/lvgl/lvgl/src/draw/lv_draw_mask.c ****                 }
 631:Drivers/lvgl/lvgl/src/draw/lv_draw_mask.c ****             }
 632:Drivers/lvgl/lvgl/src/draw/lv_draw_mask.c ****             else {
 633:Drivers/lvgl/lvgl/src/draw/lv_draw_mask.c ****                 if(abs_x + len < 0) return LV_DRAW_MASK_RES_TRANSP;
 634:Drivers/lvgl/lvgl/src/draw/lv_draw_mask.c ****                 else {
 635:Drivers/lvgl/lvgl/src/draw/lv_draw_mask.c ****                     int32_t k = - abs_x;
 636:Drivers/lvgl/lvgl/src/draw/lv_draw_mask.c ****                     if(k < 0) k = 0;
 637:Drivers/lvgl/lvgl/src/draw/lv_draw_mask.c ****                     if(k >= len) return LV_DRAW_MASK_RES_TRANSP;
 638:Drivers/lvgl/lvgl/src/draw/lv_draw_mask.c ****                     else if(k >= 0 && k < len) lv_memset_00(&mask_buf[0], k);
 639:Drivers/lvgl/lvgl/src/draw/lv_draw_mask.c ****                     return  LV_DRAW_MASK_RES_CHANGED;
 640:Drivers/lvgl/lvgl/src/draw/lv_draw_mask.c ****                 }
 641:Drivers/lvgl/lvgl/src/draw/lv_draw_mask.c ****             }
 642:Drivers/lvgl/lvgl/src/draw/lv_draw_mask.c ****         }
 643:Drivers/lvgl/lvgl/src/draw/lv_draw_mask.c ****     }
 644:Drivers/lvgl/lvgl/src/draw/lv_draw_mask.c **** 
 645:Drivers/lvgl/lvgl/src/draw/lv_draw_mask.c ****     lv_draw_mask_res_t res;
 646:Drivers/lvgl/lvgl/src/draw/lv_draw_mask.c ****     if(p->flat) {
 647:Drivers/lvgl/lvgl/src/draw/lv_draw_mask.c ****         res = line_mask_flat(mask_buf, abs_x, abs_y, len, p);
 648:Drivers/lvgl/lvgl/src/draw/lv_draw_mask.c ****     }
 649:Drivers/lvgl/lvgl/src/draw/lv_draw_mask.c ****     else {
 650:Drivers/lvgl/lvgl/src/draw/lv_draw_mask.c ****         res = line_mask_steep(mask_buf, abs_x, abs_y, len, p);
 651:Drivers/lvgl/lvgl/src/draw/lv_draw_mask.c ****     }
 652:Drivers/lvgl/lvgl/src/draw/lv_draw_mask.c **** 
 653:Drivers/lvgl/lvgl/src/draw/lv_draw_mask.c ****     return res;
 654:Drivers/lvgl/lvgl/src/draw/lv_draw_mask.c **** }
 655:Drivers/lvgl/lvgl/src/draw/lv_draw_mask.c **** 
 656:Drivers/lvgl/lvgl/src/draw/lv_draw_mask.c **** LV_ATTRIBUTE_FAST_MEM static lv_draw_mask_res_t line_mask_flat(lv_opa_t * mask_buf, lv_coord_t abs_
 657:Drivers/lvgl/lvgl/src/draw/lv_draw_mask.c ****                                                                lv_coord_t len,
 658:Drivers/lvgl/lvgl/src/draw/lv_draw_mask.c ****                                                                lv_draw_mask_line_param_t * p)
 659:Drivers/lvgl/lvgl/src/draw/lv_draw_mask.c **** {
 660:Drivers/lvgl/lvgl/src/draw/lv_draw_mask.c **** 
ARM GAS  /tmp/cct67Zj5.s 			page 13


 661:Drivers/lvgl/lvgl/src/draw/lv_draw_mask.c ****     int32_t y_at_x;
 662:Drivers/lvgl/lvgl/src/draw/lv_draw_mask.c ****     y_at_x = (int32_t)((int32_t)p->yx_steep * abs_x) >> 10;
 663:Drivers/lvgl/lvgl/src/draw/lv_draw_mask.c **** 
 664:Drivers/lvgl/lvgl/src/draw/lv_draw_mask.c ****     if(p->yx_steep > 0) {
 665:Drivers/lvgl/lvgl/src/draw/lv_draw_mask.c ****         if(y_at_x > abs_y) {
 666:Drivers/lvgl/lvgl/src/draw/lv_draw_mask.c ****             if(p->inv) {
 667:Drivers/lvgl/lvgl/src/draw/lv_draw_mask.c ****                 return LV_DRAW_MASK_RES_FULL_COVER;
 668:Drivers/lvgl/lvgl/src/draw/lv_draw_mask.c ****             }
 669:Drivers/lvgl/lvgl/src/draw/lv_draw_mask.c ****             else {
 670:Drivers/lvgl/lvgl/src/draw/lv_draw_mask.c ****                 return LV_DRAW_MASK_RES_TRANSP;
 671:Drivers/lvgl/lvgl/src/draw/lv_draw_mask.c ****             }
 672:Drivers/lvgl/lvgl/src/draw/lv_draw_mask.c ****         }
 673:Drivers/lvgl/lvgl/src/draw/lv_draw_mask.c ****     }
 674:Drivers/lvgl/lvgl/src/draw/lv_draw_mask.c ****     else {
 675:Drivers/lvgl/lvgl/src/draw/lv_draw_mask.c ****         if(y_at_x < abs_y) {
 676:Drivers/lvgl/lvgl/src/draw/lv_draw_mask.c ****             if(p->inv) {
 677:Drivers/lvgl/lvgl/src/draw/lv_draw_mask.c ****                 return LV_DRAW_MASK_RES_FULL_COVER;
 678:Drivers/lvgl/lvgl/src/draw/lv_draw_mask.c ****             }
 679:Drivers/lvgl/lvgl/src/draw/lv_draw_mask.c ****             else {
 680:Drivers/lvgl/lvgl/src/draw/lv_draw_mask.c ****                 return LV_DRAW_MASK_RES_TRANSP;
 681:Drivers/lvgl/lvgl/src/draw/lv_draw_mask.c ****             }
 682:Drivers/lvgl/lvgl/src/draw/lv_draw_mask.c ****         }
 683:Drivers/lvgl/lvgl/src/draw/lv_draw_mask.c ****     }
 684:Drivers/lvgl/lvgl/src/draw/lv_draw_mask.c **** 
 685:Drivers/lvgl/lvgl/src/draw/lv_draw_mask.c ****     /*At the end of the mask if the limit line is smaller than the mask's y.
 686:Drivers/lvgl/lvgl/src/draw/lv_draw_mask.c ****      *Then the mask is in the "good" area*/
 687:Drivers/lvgl/lvgl/src/draw/lv_draw_mask.c ****     y_at_x = (int32_t)((int32_t)p->yx_steep * (abs_x + len)) >> 10;
 688:Drivers/lvgl/lvgl/src/draw/lv_draw_mask.c ****     if(p->yx_steep > 0) {
 689:Drivers/lvgl/lvgl/src/draw/lv_draw_mask.c ****         if(y_at_x < abs_y) {
 690:Drivers/lvgl/lvgl/src/draw/lv_draw_mask.c ****             if(p->inv) {
 691:Drivers/lvgl/lvgl/src/draw/lv_draw_mask.c ****                 return LV_DRAW_MASK_RES_TRANSP;
 692:Drivers/lvgl/lvgl/src/draw/lv_draw_mask.c ****             }
 693:Drivers/lvgl/lvgl/src/draw/lv_draw_mask.c ****             else {
 694:Drivers/lvgl/lvgl/src/draw/lv_draw_mask.c ****                 return LV_DRAW_MASK_RES_FULL_COVER;
 695:Drivers/lvgl/lvgl/src/draw/lv_draw_mask.c ****             }
 696:Drivers/lvgl/lvgl/src/draw/lv_draw_mask.c ****         }
 697:Drivers/lvgl/lvgl/src/draw/lv_draw_mask.c ****     }
 698:Drivers/lvgl/lvgl/src/draw/lv_draw_mask.c ****     else {
 699:Drivers/lvgl/lvgl/src/draw/lv_draw_mask.c ****         if(y_at_x > abs_y) {
 700:Drivers/lvgl/lvgl/src/draw/lv_draw_mask.c ****             if(p->inv) {
 701:Drivers/lvgl/lvgl/src/draw/lv_draw_mask.c ****                 return LV_DRAW_MASK_RES_TRANSP;
 702:Drivers/lvgl/lvgl/src/draw/lv_draw_mask.c ****             }
 703:Drivers/lvgl/lvgl/src/draw/lv_draw_mask.c ****             else {
 704:Drivers/lvgl/lvgl/src/draw/lv_draw_mask.c ****                 return LV_DRAW_MASK_RES_FULL_COVER;
 705:Drivers/lvgl/lvgl/src/draw/lv_draw_mask.c ****             }
 706:Drivers/lvgl/lvgl/src/draw/lv_draw_mask.c ****         }
 707:Drivers/lvgl/lvgl/src/draw/lv_draw_mask.c ****     }
 708:Drivers/lvgl/lvgl/src/draw/lv_draw_mask.c **** 
 709:Drivers/lvgl/lvgl/src/draw/lv_draw_mask.c ****     int32_t xe;
 710:Drivers/lvgl/lvgl/src/draw/lv_draw_mask.c ****     if(p->yx_steep > 0) xe = ((abs_y * 256) * p->xy_steep) >> 10;
 711:Drivers/lvgl/lvgl/src/draw/lv_draw_mask.c ****     else xe = (((abs_y + 1) * 256) * p->xy_steep) >> 10;
 712:Drivers/lvgl/lvgl/src/draw/lv_draw_mask.c **** 
 713:Drivers/lvgl/lvgl/src/draw/lv_draw_mask.c ****     int32_t xei = xe >> 8;
 714:Drivers/lvgl/lvgl/src/draw/lv_draw_mask.c ****     int32_t xef = xe & 0xFF;
 715:Drivers/lvgl/lvgl/src/draw/lv_draw_mask.c **** 
 716:Drivers/lvgl/lvgl/src/draw/lv_draw_mask.c ****     int32_t px_h;
 717:Drivers/lvgl/lvgl/src/draw/lv_draw_mask.c ****     if(xef == 0) px_h = 255;
ARM GAS  /tmp/cct67Zj5.s 			page 14


 718:Drivers/lvgl/lvgl/src/draw/lv_draw_mask.c ****     else px_h = 255 - (((255 - xef) * p->spx) >> 8);
 719:Drivers/lvgl/lvgl/src/draw/lv_draw_mask.c ****     int32_t k = xei - abs_x;
 720:Drivers/lvgl/lvgl/src/draw/lv_draw_mask.c ****     lv_opa_t m;
 721:Drivers/lvgl/lvgl/src/draw/lv_draw_mask.c **** 
 722:Drivers/lvgl/lvgl/src/draw/lv_draw_mask.c ****     if(xef) {
 723:Drivers/lvgl/lvgl/src/draw/lv_draw_mask.c ****         if(k >= 0 && k < len) {
 724:Drivers/lvgl/lvgl/src/draw/lv_draw_mask.c ****             m = 255 - (((255 - xef) * (255 - px_h)) >> 9);
 725:Drivers/lvgl/lvgl/src/draw/lv_draw_mask.c ****             if(p->inv) m = 255 - m;
 726:Drivers/lvgl/lvgl/src/draw/lv_draw_mask.c ****             mask_buf[k] = mask_mix(mask_buf[k], m);
 727:Drivers/lvgl/lvgl/src/draw/lv_draw_mask.c ****         }
 728:Drivers/lvgl/lvgl/src/draw/lv_draw_mask.c ****         k++;
 729:Drivers/lvgl/lvgl/src/draw/lv_draw_mask.c ****     }
 730:Drivers/lvgl/lvgl/src/draw/lv_draw_mask.c **** 
 731:Drivers/lvgl/lvgl/src/draw/lv_draw_mask.c ****     while(px_h > p->spx) {
 732:Drivers/lvgl/lvgl/src/draw/lv_draw_mask.c ****         if(k >= 0 && k < len) {
 733:Drivers/lvgl/lvgl/src/draw/lv_draw_mask.c ****             m = px_h - (p->spx >> 1);
 734:Drivers/lvgl/lvgl/src/draw/lv_draw_mask.c ****             if(p->inv) m = 255 - m;
 735:Drivers/lvgl/lvgl/src/draw/lv_draw_mask.c ****             mask_buf[k] = mask_mix(mask_buf[k], m);
 736:Drivers/lvgl/lvgl/src/draw/lv_draw_mask.c ****         }
 737:Drivers/lvgl/lvgl/src/draw/lv_draw_mask.c ****         px_h -= p->spx;
 738:Drivers/lvgl/lvgl/src/draw/lv_draw_mask.c ****         k++;
 739:Drivers/lvgl/lvgl/src/draw/lv_draw_mask.c ****         if(k >= len) break;
 740:Drivers/lvgl/lvgl/src/draw/lv_draw_mask.c ****     }
 741:Drivers/lvgl/lvgl/src/draw/lv_draw_mask.c **** 
 742:Drivers/lvgl/lvgl/src/draw/lv_draw_mask.c ****     if(k < len && k >= 0) {
 743:Drivers/lvgl/lvgl/src/draw/lv_draw_mask.c ****         int32_t x_inters = (px_h * p->xy_steep) >> 10;
 744:Drivers/lvgl/lvgl/src/draw/lv_draw_mask.c ****         m = (x_inters * px_h) >> 9;
 745:Drivers/lvgl/lvgl/src/draw/lv_draw_mask.c ****         if(p->yx_steep < 0) m = 255 - m;
 746:Drivers/lvgl/lvgl/src/draw/lv_draw_mask.c ****         if(p->inv) m = 255 - m;
 747:Drivers/lvgl/lvgl/src/draw/lv_draw_mask.c ****         mask_buf[k] = mask_mix(mask_buf[k], m);
 748:Drivers/lvgl/lvgl/src/draw/lv_draw_mask.c ****     }
 749:Drivers/lvgl/lvgl/src/draw/lv_draw_mask.c **** 
 750:Drivers/lvgl/lvgl/src/draw/lv_draw_mask.c ****     if(p->inv) {
 751:Drivers/lvgl/lvgl/src/draw/lv_draw_mask.c ****         k = xei - abs_x;
 752:Drivers/lvgl/lvgl/src/draw/lv_draw_mask.c ****         if(k > len) {
 753:Drivers/lvgl/lvgl/src/draw/lv_draw_mask.c ****             return LV_DRAW_MASK_RES_TRANSP;
 754:Drivers/lvgl/lvgl/src/draw/lv_draw_mask.c ****         }
 755:Drivers/lvgl/lvgl/src/draw/lv_draw_mask.c ****         if(k >= 0) {
 756:Drivers/lvgl/lvgl/src/draw/lv_draw_mask.c ****             lv_memset_00(&mask_buf[0], k);
 757:Drivers/lvgl/lvgl/src/draw/lv_draw_mask.c ****         }
 758:Drivers/lvgl/lvgl/src/draw/lv_draw_mask.c ****     }
 759:Drivers/lvgl/lvgl/src/draw/lv_draw_mask.c ****     else {
 760:Drivers/lvgl/lvgl/src/draw/lv_draw_mask.c ****         k++;
 761:Drivers/lvgl/lvgl/src/draw/lv_draw_mask.c ****         if(k < 0) {
 762:Drivers/lvgl/lvgl/src/draw/lv_draw_mask.c ****             return LV_DRAW_MASK_RES_TRANSP;
 763:Drivers/lvgl/lvgl/src/draw/lv_draw_mask.c ****         }
 764:Drivers/lvgl/lvgl/src/draw/lv_draw_mask.c ****         if(k <= len) {
 765:Drivers/lvgl/lvgl/src/draw/lv_draw_mask.c ****             lv_memset_00(&mask_buf[k], len - k);
 766:Drivers/lvgl/lvgl/src/draw/lv_draw_mask.c ****         }
 767:Drivers/lvgl/lvgl/src/draw/lv_draw_mask.c ****     }
 768:Drivers/lvgl/lvgl/src/draw/lv_draw_mask.c **** 
 769:Drivers/lvgl/lvgl/src/draw/lv_draw_mask.c ****     return LV_DRAW_MASK_RES_CHANGED;
 770:Drivers/lvgl/lvgl/src/draw/lv_draw_mask.c **** }
 771:Drivers/lvgl/lvgl/src/draw/lv_draw_mask.c **** 
 772:Drivers/lvgl/lvgl/src/draw/lv_draw_mask.c **** LV_ATTRIBUTE_FAST_MEM static lv_draw_mask_res_t line_mask_steep(lv_opa_t * mask_buf, lv_coord_t abs
 773:Drivers/lvgl/lvgl/src/draw/lv_draw_mask.c ****                                                                 lv_coord_t len,
 774:Drivers/lvgl/lvgl/src/draw/lv_draw_mask.c ****                                                                 lv_draw_mask_line_param_t * p)
ARM GAS  /tmp/cct67Zj5.s 			page 15


 775:Drivers/lvgl/lvgl/src/draw/lv_draw_mask.c **** {
 776:Drivers/lvgl/lvgl/src/draw/lv_draw_mask.c ****     int32_t k;
 777:Drivers/lvgl/lvgl/src/draw/lv_draw_mask.c ****     int32_t x_at_y;
 778:Drivers/lvgl/lvgl/src/draw/lv_draw_mask.c ****     /*At the beginning of the mask if the limit line is greater than the mask's y.
 779:Drivers/lvgl/lvgl/src/draw/lv_draw_mask.c ****      *Then the mask is in the "wrong" area*/
 780:Drivers/lvgl/lvgl/src/draw/lv_draw_mask.c ****     x_at_y = (int32_t)((int32_t)p->xy_steep * abs_y) >> 10;
 781:Drivers/lvgl/lvgl/src/draw/lv_draw_mask.c ****     if(p->xy_steep > 0) x_at_y++;
 782:Drivers/lvgl/lvgl/src/draw/lv_draw_mask.c ****     if(x_at_y < abs_x) {
 783:Drivers/lvgl/lvgl/src/draw/lv_draw_mask.c ****         if(p->inv) {
 784:Drivers/lvgl/lvgl/src/draw/lv_draw_mask.c ****             return LV_DRAW_MASK_RES_FULL_COVER;
 785:Drivers/lvgl/lvgl/src/draw/lv_draw_mask.c ****         }
 786:Drivers/lvgl/lvgl/src/draw/lv_draw_mask.c ****         else {
 787:Drivers/lvgl/lvgl/src/draw/lv_draw_mask.c ****             return LV_DRAW_MASK_RES_TRANSP;
 788:Drivers/lvgl/lvgl/src/draw/lv_draw_mask.c ****         }
 789:Drivers/lvgl/lvgl/src/draw/lv_draw_mask.c ****     }
 790:Drivers/lvgl/lvgl/src/draw/lv_draw_mask.c **** 
 791:Drivers/lvgl/lvgl/src/draw/lv_draw_mask.c ****     /*At the end of the mask if the limit line is smaller than the mask's y.
 792:Drivers/lvgl/lvgl/src/draw/lv_draw_mask.c ****      *Then the mask is in the "good" area*/
 793:Drivers/lvgl/lvgl/src/draw/lv_draw_mask.c ****     x_at_y = (int32_t)((int32_t)p->xy_steep * (abs_y)) >> 10;
 794:Drivers/lvgl/lvgl/src/draw/lv_draw_mask.c ****     if(x_at_y > abs_x + len) {
 795:Drivers/lvgl/lvgl/src/draw/lv_draw_mask.c ****         if(p->inv) {
 796:Drivers/lvgl/lvgl/src/draw/lv_draw_mask.c ****             return LV_DRAW_MASK_RES_TRANSP;
 797:Drivers/lvgl/lvgl/src/draw/lv_draw_mask.c ****         }
 798:Drivers/lvgl/lvgl/src/draw/lv_draw_mask.c ****         else {
 799:Drivers/lvgl/lvgl/src/draw/lv_draw_mask.c ****             return LV_DRAW_MASK_RES_FULL_COVER;
 800:Drivers/lvgl/lvgl/src/draw/lv_draw_mask.c ****         }
 801:Drivers/lvgl/lvgl/src/draw/lv_draw_mask.c ****     }
 802:Drivers/lvgl/lvgl/src/draw/lv_draw_mask.c **** 
 803:Drivers/lvgl/lvgl/src/draw/lv_draw_mask.c ****     /*X start*/
 804:Drivers/lvgl/lvgl/src/draw/lv_draw_mask.c ****     int32_t xs = ((abs_y * 256) * p->xy_steep) >> 10;
 805:Drivers/lvgl/lvgl/src/draw/lv_draw_mask.c ****     int32_t xsi = xs >> 8;
 806:Drivers/lvgl/lvgl/src/draw/lv_draw_mask.c ****     int32_t xsf = xs & 0xFF;
 807:Drivers/lvgl/lvgl/src/draw/lv_draw_mask.c **** 
 808:Drivers/lvgl/lvgl/src/draw/lv_draw_mask.c ****     /*X end*/
 809:Drivers/lvgl/lvgl/src/draw/lv_draw_mask.c ****     int32_t xe = (((abs_y + 1) * 256) * p->xy_steep) >> 10;
 810:Drivers/lvgl/lvgl/src/draw/lv_draw_mask.c ****     int32_t xei = xe >> 8;
 811:Drivers/lvgl/lvgl/src/draw/lv_draw_mask.c ****     int32_t xef = xe & 0xFF;
 812:Drivers/lvgl/lvgl/src/draw/lv_draw_mask.c **** 
 813:Drivers/lvgl/lvgl/src/draw/lv_draw_mask.c ****     lv_opa_t m;
 814:Drivers/lvgl/lvgl/src/draw/lv_draw_mask.c **** 
 815:Drivers/lvgl/lvgl/src/draw/lv_draw_mask.c ****     k = xsi - abs_x;
 816:Drivers/lvgl/lvgl/src/draw/lv_draw_mask.c ****     if(xsi != xei && (p->xy_steep < 0 && xsf == 0)) {
 817:Drivers/lvgl/lvgl/src/draw/lv_draw_mask.c ****         xsf = 0xFF;
 818:Drivers/lvgl/lvgl/src/draw/lv_draw_mask.c ****         xsi = xei;
 819:Drivers/lvgl/lvgl/src/draw/lv_draw_mask.c ****         k--;
 820:Drivers/lvgl/lvgl/src/draw/lv_draw_mask.c ****     }
 821:Drivers/lvgl/lvgl/src/draw/lv_draw_mask.c **** 
 822:Drivers/lvgl/lvgl/src/draw/lv_draw_mask.c ****     if(xsi == xei) {
 823:Drivers/lvgl/lvgl/src/draw/lv_draw_mask.c ****         if(k >= 0 && k < len) {
 824:Drivers/lvgl/lvgl/src/draw/lv_draw_mask.c ****             m = (xsf + xef) >> 1;
 825:Drivers/lvgl/lvgl/src/draw/lv_draw_mask.c ****             if(p->inv) m = 255 - m;
 826:Drivers/lvgl/lvgl/src/draw/lv_draw_mask.c ****             mask_buf[k] = mask_mix(mask_buf[k], m);
 827:Drivers/lvgl/lvgl/src/draw/lv_draw_mask.c ****         }
 828:Drivers/lvgl/lvgl/src/draw/lv_draw_mask.c ****         k++;
 829:Drivers/lvgl/lvgl/src/draw/lv_draw_mask.c **** 
 830:Drivers/lvgl/lvgl/src/draw/lv_draw_mask.c ****         if(p->inv) {
 831:Drivers/lvgl/lvgl/src/draw/lv_draw_mask.c ****             k = xsi - abs_x;
ARM GAS  /tmp/cct67Zj5.s 			page 16


 832:Drivers/lvgl/lvgl/src/draw/lv_draw_mask.c ****             if(k >= len) {
 833:Drivers/lvgl/lvgl/src/draw/lv_draw_mask.c ****                 return LV_DRAW_MASK_RES_TRANSP;
 834:Drivers/lvgl/lvgl/src/draw/lv_draw_mask.c ****             }
 835:Drivers/lvgl/lvgl/src/draw/lv_draw_mask.c ****             if(k >= 0) lv_memset_00(&mask_buf[0], k);
 836:Drivers/lvgl/lvgl/src/draw/lv_draw_mask.c **** 
 837:Drivers/lvgl/lvgl/src/draw/lv_draw_mask.c ****         }
 838:Drivers/lvgl/lvgl/src/draw/lv_draw_mask.c ****         else {
 839:Drivers/lvgl/lvgl/src/draw/lv_draw_mask.c ****             if(k > len) k = len;
 840:Drivers/lvgl/lvgl/src/draw/lv_draw_mask.c ****             if(k == 0) return LV_DRAW_MASK_RES_TRANSP;
 841:Drivers/lvgl/lvgl/src/draw/lv_draw_mask.c ****             else if(k > 0) lv_memset_00(&mask_buf[k],  len - k);
 842:Drivers/lvgl/lvgl/src/draw/lv_draw_mask.c ****         }
 843:Drivers/lvgl/lvgl/src/draw/lv_draw_mask.c **** 
 844:Drivers/lvgl/lvgl/src/draw/lv_draw_mask.c ****     }
 845:Drivers/lvgl/lvgl/src/draw/lv_draw_mask.c ****     else {
 846:Drivers/lvgl/lvgl/src/draw/lv_draw_mask.c ****         int32_t y_inters;
 847:Drivers/lvgl/lvgl/src/draw/lv_draw_mask.c ****         if(p->xy_steep < 0) {
 848:Drivers/lvgl/lvgl/src/draw/lv_draw_mask.c ****             y_inters = (xsf * (-p->yx_steep)) >> 10;
 849:Drivers/lvgl/lvgl/src/draw/lv_draw_mask.c ****             if(k >= 0 && k < len) {
 850:Drivers/lvgl/lvgl/src/draw/lv_draw_mask.c ****                 m = (y_inters * xsf) >> 9;
 851:Drivers/lvgl/lvgl/src/draw/lv_draw_mask.c ****                 if(p->inv) m = 255 - m;
 852:Drivers/lvgl/lvgl/src/draw/lv_draw_mask.c ****                 mask_buf[k] = mask_mix(mask_buf[k], m);
 853:Drivers/lvgl/lvgl/src/draw/lv_draw_mask.c ****             }
 854:Drivers/lvgl/lvgl/src/draw/lv_draw_mask.c ****             k--;
 855:Drivers/lvgl/lvgl/src/draw/lv_draw_mask.c **** 
 856:Drivers/lvgl/lvgl/src/draw/lv_draw_mask.c ****             int32_t x_inters = ((255 - y_inters) * (-p->xy_steep)) >> 10;
 857:Drivers/lvgl/lvgl/src/draw/lv_draw_mask.c **** 
 858:Drivers/lvgl/lvgl/src/draw/lv_draw_mask.c ****             if(k >= 0 && k < len) {
 859:Drivers/lvgl/lvgl/src/draw/lv_draw_mask.c ****                 m = 255 - (((255 - y_inters) * x_inters) >> 9);
 860:Drivers/lvgl/lvgl/src/draw/lv_draw_mask.c ****                 if(p->inv) m = 255 - m;
 861:Drivers/lvgl/lvgl/src/draw/lv_draw_mask.c ****                 mask_buf[k] = mask_mix(mask_buf[k], m);
 862:Drivers/lvgl/lvgl/src/draw/lv_draw_mask.c ****             }
 863:Drivers/lvgl/lvgl/src/draw/lv_draw_mask.c **** 
 864:Drivers/lvgl/lvgl/src/draw/lv_draw_mask.c ****             k += 2;
 865:Drivers/lvgl/lvgl/src/draw/lv_draw_mask.c **** 
 866:Drivers/lvgl/lvgl/src/draw/lv_draw_mask.c ****             if(p->inv) {
 867:Drivers/lvgl/lvgl/src/draw/lv_draw_mask.c ****                 k = xsi - abs_x - 1;
 868:Drivers/lvgl/lvgl/src/draw/lv_draw_mask.c **** 
 869:Drivers/lvgl/lvgl/src/draw/lv_draw_mask.c ****                 if(k > len) k = len;
 870:Drivers/lvgl/lvgl/src/draw/lv_draw_mask.c ****                 else if(k > 0) lv_memset_00(&mask_buf[0],  k);
 871:Drivers/lvgl/lvgl/src/draw/lv_draw_mask.c **** 
 872:Drivers/lvgl/lvgl/src/draw/lv_draw_mask.c ****             }
 873:Drivers/lvgl/lvgl/src/draw/lv_draw_mask.c ****             else {
 874:Drivers/lvgl/lvgl/src/draw/lv_draw_mask.c ****                 if(k > len) return LV_DRAW_MASK_RES_FULL_COVER;
 875:Drivers/lvgl/lvgl/src/draw/lv_draw_mask.c ****                 if(k >= 0) lv_memset_00(&mask_buf[k],  len - k);
 876:Drivers/lvgl/lvgl/src/draw/lv_draw_mask.c ****             }
 877:Drivers/lvgl/lvgl/src/draw/lv_draw_mask.c **** 
 878:Drivers/lvgl/lvgl/src/draw/lv_draw_mask.c ****         }
 879:Drivers/lvgl/lvgl/src/draw/lv_draw_mask.c ****         else {
 880:Drivers/lvgl/lvgl/src/draw/lv_draw_mask.c ****             y_inters = ((255 - xsf) * p->yx_steep) >> 10;
 881:Drivers/lvgl/lvgl/src/draw/lv_draw_mask.c ****             if(k >= 0 && k < len) {
 882:Drivers/lvgl/lvgl/src/draw/lv_draw_mask.c ****                 m = 255 - ((y_inters * (255 - xsf)) >> 9);
 883:Drivers/lvgl/lvgl/src/draw/lv_draw_mask.c ****                 if(p->inv) m = 255 - m;
 884:Drivers/lvgl/lvgl/src/draw/lv_draw_mask.c ****                 mask_buf[k] = mask_mix(mask_buf[k], m);
 885:Drivers/lvgl/lvgl/src/draw/lv_draw_mask.c ****             }
 886:Drivers/lvgl/lvgl/src/draw/lv_draw_mask.c **** 
 887:Drivers/lvgl/lvgl/src/draw/lv_draw_mask.c ****             k++;
 888:Drivers/lvgl/lvgl/src/draw/lv_draw_mask.c **** 
ARM GAS  /tmp/cct67Zj5.s 			page 17


 889:Drivers/lvgl/lvgl/src/draw/lv_draw_mask.c ****             int32_t x_inters = ((255 - y_inters) * p->xy_steep) >> 10;
 890:Drivers/lvgl/lvgl/src/draw/lv_draw_mask.c ****             if(k >= 0 && k < len) {
 891:Drivers/lvgl/lvgl/src/draw/lv_draw_mask.c ****                 m = ((255 - y_inters) * x_inters) >> 9;
 892:Drivers/lvgl/lvgl/src/draw/lv_draw_mask.c ****                 if(p->inv) m = 255 - m;
 893:Drivers/lvgl/lvgl/src/draw/lv_draw_mask.c ****                 mask_buf[k] = mask_mix(mask_buf[k], m);
 894:Drivers/lvgl/lvgl/src/draw/lv_draw_mask.c ****             }
 895:Drivers/lvgl/lvgl/src/draw/lv_draw_mask.c ****             k++;
 896:Drivers/lvgl/lvgl/src/draw/lv_draw_mask.c **** 
 897:Drivers/lvgl/lvgl/src/draw/lv_draw_mask.c ****             if(p->inv) {
 898:Drivers/lvgl/lvgl/src/draw/lv_draw_mask.c ****                 k = xsi - abs_x;
 899:Drivers/lvgl/lvgl/src/draw/lv_draw_mask.c ****                 if(k > len)  return LV_DRAW_MASK_RES_TRANSP;
 900:Drivers/lvgl/lvgl/src/draw/lv_draw_mask.c ****                 if(k >= 0) lv_memset_00(&mask_buf[0],  k);
 901:Drivers/lvgl/lvgl/src/draw/lv_draw_mask.c **** 
 902:Drivers/lvgl/lvgl/src/draw/lv_draw_mask.c ****             }
 903:Drivers/lvgl/lvgl/src/draw/lv_draw_mask.c ****             else {
 904:Drivers/lvgl/lvgl/src/draw/lv_draw_mask.c ****                 if(k > len) k = len;
 905:Drivers/lvgl/lvgl/src/draw/lv_draw_mask.c ****                 if(k == 0) return LV_DRAW_MASK_RES_TRANSP;
 906:Drivers/lvgl/lvgl/src/draw/lv_draw_mask.c ****                 else if(k > 0) lv_memset_00(&mask_buf[k],  len - k);
 907:Drivers/lvgl/lvgl/src/draw/lv_draw_mask.c ****             }
 908:Drivers/lvgl/lvgl/src/draw/lv_draw_mask.c ****         }
 909:Drivers/lvgl/lvgl/src/draw/lv_draw_mask.c ****     }
 910:Drivers/lvgl/lvgl/src/draw/lv_draw_mask.c **** 
 911:Drivers/lvgl/lvgl/src/draw/lv_draw_mask.c ****     return LV_DRAW_MASK_RES_CHANGED;
 912:Drivers/lvgl/lvgl/src/draw/lv_draw_mask.c **** }
 913:Drivers/lvgl/lvgl/src/draw/lv_draw_mask.c **** 
 914:Drivers/lvgl/lvgl/src/draw/lv_draw_mask.c **** LV_ATTRIBUTE_FAST_MEM static lv_draw_mask_res_t lv_draw_mask_angle(lv_opa_t * mask_buf, lv_coord_t 
 915:Drivers/lvgl/lvgl/src/draw/lv_draw_mask.c ****                                                                    lv_coord_t abs_y, lv_coord_t len
 916:Drivers/lvgl/lvgl/src/draw/lv_draw_mask.c ****                                                                    lv_draw_mask_angle_param_t * p)
 917:Drivers/lvgl/lvgl/src/draw/lv_draw_mask.c **** {
 918:Drivers/lvgl/lvgl/src/draw/lv_draw_mask.c ****     int32_t rel_y = abs_y - p->cfg.vertex_p.y;
 919:Drivers/lvgl/lvgl/src/draw/lv_draw_mask.c ****     int32_t rel_x = abs_x - p->cfg.vertex_p.x;
 920:Drivers/lvgl/lvgl/src/draw/lv_draw_mask.c **** 
 921:Drivers/lvgl/lvgl/src/draw/lv_draw_mask.c ****     if(p->cfg.start_angle < 180 && p->cfg.end_angle < 180 &&
 922:Drivers/lvgl/lvgl/src/draw/lv_draw_mask.c ****        p->cfg.start_angle != 0  && p->cfg.end_angle != 0 &&
 923:Drivers/lvgl/lvgl/src/draw/lv_draw_mask.c ****        p->cfg.start_angle > p->cfg.end_angle) {
 924:Drivers/lvgl/lvgl/src/draw/lv_draw_mask.c **** 
 925:Drivers/lvgl/lvgl/src/draw/lv_draw_mask.c ****         if(abs_y < p->cfg.vertex_p.y) {
 926:Drivers/lvgl/lvgl/src/draw/lv_draw_mask.c ****             return LV_DRAW_MASK_RES_FULL_COVER;
 927:Drivers/lvgl/lvgl/src/draw/lv_draw_mask.c ****         }
 928:Drivers/lvgl/lvgl/src/draw/lv_draw_mask.c **** 
 929:Drivers/lvgl/lvgl/src/draw/lv_draw_mask.c ****         /*Start angle mask can work only from the end of end angle mask*/
 930:Drivers/lvgl/lvgl/src/draw/lv_draw_mask.c ****         int32_t end_angle_first = (rel_y * p->end_line.xy_steep) >> 10;
 931:Drivers/lvgl/lvgl/src/draw/lv_draw_mask.c ****         int32_t start_angle_last = ((rel_y + 1) * p->start_line.xy_steep) >> 10;
 932:Drivers/lvgl/lvgl/src/draw/lv_draw_mask.c **** 
 933:Drivers/lvgl/lvgl/src/draw/lv_draw_mask.c ****         /*Do not let the line end cross the vertex else it will affect the opposite part*/
 934:Drivers/lvgl/lvgl/src/draw/lv_draw_mask.c ****         if(p->cfg.start_angle > 270 && p->cfg.start_angle <= 359 && start_angle_last < 0) start_ang
 935:Drivers/lvgl/lvgl/src/draw/lv_draw_mask.c ****         else if(p->cfg.start_angle > 0 && p->cfg.start_angle <= 90 && start_angle_last < 0) start_a
 936:Drivers/lvgl/lvgl/src/draw/lv_draw_mask.c ****         else if(p->cfg.start_angle > 90 && p->cfg.start_angle < 270 && start_angle_last > 0) start_
 937:Drivers/lvgl/lvgl/src/draw/lv_draw_mask.c **** 
 938:Drivers/lvgl/lvgl/src/draw/lv_draw_mask.c ****         if(p->cfg.end_angle > 270 && p->cfg.end_angle <= 359 && start_angle_last < 0) start_angle_l
 939:Drivers/lvgl/lvgl/src/draw/lv_draw_mask.c ****         else if(p->cfg.end_angle > 0 &&   p->cfg.end_angle <= 90 && start_angle_last < 0) start_ang
 940:Drivers/lvgl/lvgl/src/draw/lv_draw_mask.c ****         else if(p->cfg.end_angle > 90 &&  p->cfg.end_angle < 270 && start_angle_last > 0) start_ang
 941:Drivers/lvgl/lvgl/src/draw/lv_draw_mask.c **** 
 942:Drivers/lvgl/lvgl/src/draw/lv_draw_mask.c ****         int32_t dist = (end_angle_first - start_angle_last) >> 1;
 943:Drivers/lvgl/lvgl/src/draw/lv_draw_mask.c **** 
 944:Drivers/lvgl/lvgl/src/draw/lv_draw_mask.c ****         lv_draw_mask_res_t res1 = LV_DRAW_MASK_RES_FULL_COVER;
 945:Drivers/lvgl/lvgl/src/draw/lv_draw_mask.c ****         lv_draw_mask_res_t res2 = LV_DRAW_MASK_RES_FULL_COVER;
ARM GAS  /tmp/cct67Zj5.s 			page 18


 946:Drivers/lvgl/lvgl/src/draw/lv_draw_mask.c **** 
 947:Drivers/lvgl/lvgl/src/draw/lv_draw_mask.c ****         int32_t tmp = start_angle_last + dist - rel_x;
 948:Drivers/lvgl/lvgl/src/draw/lv_draw_mask.c ****         if(tmp > len) tmp = len;
 949:Drivers/lvgl/lvgl/src/draw/lv_draw_mask.c ****         if(tmp > 0) {
 950:Drivers/lvgl/lvgl/src/draw/lv_draw_mask.c ****             res1 = lv_draw_mask_line(&mask_buf[0], abs_x, abs_y, tmp, &p->start_line);
 951:Drivers/lvgl/lvgl/src/draw/lv_draw_mask.c ****             if(res1 == LV_DRAW_MASK_RES_TRANSP) {
 952:Drivers/lvgl/lvgl/src/draw/lv_draw_mask.c ****                 lv_memset_00(&mask_buf[0], tmp);
 953:Drivers/lvgl/lvgl/src/draw/lv_draw_mask.c ****             }
 954:Drivers/lvgl/lvgl/src/draw/lv_draw_mask.c ****         }
 955:Drivers/lvgl/lvgl/src/draw/lv_draw_mask.c **** 
 956:Drivers/lvgl/lvgl/src/draw/lv_draw_mask.c ****         if(tmp > len) tmp = len;
 957:Drivers/lvgl/lvgl/src/draw/lv_draw_mask.c ****         if(tmp < 0) tmp = 0;
 958:Drivers/lvgl/lvgl/src/draw/lv_draw_mask.c ****         res2 = lv_draw_mask_line(&mask_buf[tmp], abs_x + tmp, abs_y, len - tmp, &p->end_line);
 959:Drivers/lvgl/lvgl/src/draw/lv_draw_mask.c ****         if(res2 == LV_DRAW_MASK_RES_TRANSP) {
 960:Drivers/lvgl/lvgl/src/draw/lv_draw_mask.c ****             lv_memset_00(&mask_buf[tmp], len - tmp);
 961:Drivers/lvgl/lvgl/src/draw/lv_draw_mask.c ****         }
 962:Drivers/lvgl/lvgl/src/draw/lv_draw_mask.c ****         if(res1 == res2) return res1;
 963:Drivers/lvgl/lvgl/src/draw/lv_draw_mask.c ****         else return LV_DRAW_MASK_RES_CHANGED;
 964:Drivers/lvgl/lvgl/src/draw/lv_draw_mask.c ****     }
 965:Drivers/lvgl/lvgl/src/draw/lv_draw_mask.c ****     else if(p->cfg.start_angle > 180 && p->cfg.end_angle > 180 && p->cfg.start_angle > p->cfg.end_a
 966:Drivers/lvgl/lvgl/src/draw/lv_draw_mask.c **** 
 967:Drivers/lvgl/lvgl/src/draw/lv_draw_mask.c ****         if(abs_y > p->cfg.vertex_p.y) {
 968:Drivers/lvgl/lvgl/src/draw/lv_draw_mask.c ****             return LV_DRAW_MASK_RES_FULL_COVER;
 969:Drivers/lvgl/lvgl/src/draw/lv_draw_mask.c ****         }
 970:Drivers/lvgl/lvgl/src/draw/lv_draw_mask.c **** 
 971:Drivers/lvgl/lvgl/src/draw/lv_draw_mask.c ****         /*Start angle mask can work only from the end of end angle mask*/
 972:Drivers/lvgl/lvgl/src/draw/lv_draw_mask.c ****         int32_t end_angle_first = (rel_y * p->end_line.xy_steep) >> 10;
 973:Drivers/lvgl/lvgl/src/draw/lv_draw_mask.c ****         int32_t start_angle_last = ((rel_y + 1) * p->start_line.xy_steep) >> 10;
 974:Drivers/lvgl/lvgl/src/draw/lv_draw_mask.c **** 
 975:Drivers/lvgl/lvgl/src/draw/lv_draw_mask.c ****         /*Do not let the line end cross the vertex else it will affect the opposite part*/
 976:Drivers/lvgl/lvgl/src/draw/lv_draw_mask.c ****         if(p->cfg.start_angle > 270 && p->cfg.start_angle <= 359 && start_angle_last < 0) start_ang
 977:Drivers/lvgl/lvgl/src/draw/lv_draw_mask.c ****         else if(p->cfg.start_angle > 0 && p->cfg.start_angle <= 90 && start_angle_last < 0) start_a
 978:Drivers/lvgl/lvgl/src/draw/lv_draw_mask.c ****         else if(p->cfg.start_angle > 90 && p->cfg.start_angle < 270 && start_angle_last > 0) start_
 979:Drivers/lvgl/lvgl/src/draw/lv_draw_mask.c **** 
 980:Drivers/lvgl/lvgl/src/draw/lv_draw_mask.c ****         if(p->cfg.end_angle > 270 && p->cfg.end_angle <= 359 && start_angle_last < 0) start_angle_l
 981:Drivers/lvgl/lvgl/src/draw/lv_draw_mask.c ****         else if(p->cfg.end_angle > 0 &&   p->cfg.end_angle <= 90 && start_angle_last < 0) start_ang
 982:Drivers/lvgl/lvgl/src/draw/lv_draw_mask.c ****         else if(p->cfg.end_angle > 90 &&  p->cfg.end_angle < 270 && start_angle_last > 0) start_ang
 983:Drivers/lvgl/lvgl/src/draw/lv_draw_mask.c **** 
 984:Drivers/lvgl/lvgl/src/draw/lv_draw_mask.c ****         int32_t dist = (end_angle_first - start_angle_last) >> 1;
 985:Drivers/lvgl/lvgl/src/draw/lv_draw_mask.c **** 
 986:Drivers/lvgl/lvgl/src/draw/lv_draw_mask.c ****         lv_draw_mask_res_t res1 = LV_DRAW_MASK_RES_FULL_COVER;
 987:Drivers/lvgl/lvgl/src/draw/lv_draw_mask.c ****         lv_draw_mask_res_t res2 = LV_DRAW_MASK_RES_FULL_COVER;
 988:Drivers/lvgl/lvgl/src/draw/lv_draw_mask.c **** 
 989:Drivers/lvgl/lvgl/src/draw/lv_draw_mask.c ****         int32_t tmp = start_angle_last + dist - rel_x;
 990:Drivers/lvgl/lvgl/src/draw/lv_draw_mask.c ****         if(tmp > len) tmp = len;
 991:Drivers/lvgl/lvgl/src/draw/lv_draw_mask.c ****         if(tmp > 0) {
 992:Drivers/lvgl/lvgl/src/draw/lv_draw_mask.c ****             res1 = lv_draw_mask_line(&mask_buf[0], abs_x, abs_y, tmp, (lv_draw_mask_line_param_t *)
 993:Drivers/lvgl/lvgl/src/draw/lv_draw_mask.c ****             if(res1 == LV_DRAW_MASK_RES_TRANSP) {
 994:Drivers/lvgl/lvgl/src/draw/lv_draw_mask.c ****                 lv_memset_00(&mask_buf[0], tmp);
 995:Drivers/lvgl/lvgl/src/draw/lv_draw_mask.c ****             }
 996:Drivers/lvgl/lvgl/src/draw/lv_draw_mask.c ****         }
 997:Drivers/lvgl/lvgl/src/draw/lv_draw_mask.c **** 
 998:Drivers/lvgl/lvgl/src/draw/lv_draw_mask.c ****         if(tmp > len) tmp = len;
 999:Drivers/lvgl/lvgl/src/draw/lv_draw_mask.c ****         if(tmp < 0) tmp = 0;
1000:Drivers/lvgl/lvgl/src/draw/lv_draw_mask.c ****         res2 = lv_draw_mask_line(&mask_buf[tmp], abs_x + tmp, abs_y, len - tmp, (lv_draw_mask_line_
1001:Drivers/lvgl/lvgl/src/draw/lv_draw_mask.c ****         if(res2 == LV_DRAW_MASK_RES_TRANSP) {
1002:Drivers/lvgl/lvgl/src/draw/lv_draw_mask.c ****             lv_memset_00(&mask_buf[tmp], len - tmp);
ARM GAS  /tmp/cct67Zj5.s 			page 19


1003:Drivers/lvgl/lvgl/src/draw/lv_draw_mask.c ****         }
1004:Drivers/lvgl/lvgl/src/draw/lv_draw_mask.c ****         if(res1 == res2) return res1;
1005:Drivers/lvgl/lvgl/src/draw/lv_draw_mask.c ****         else return LV_DRAW_MASK_RES_CHANGED;
1006:Drivers/lvgl/lvgl/src/draw/lv_draw_mask.c ****     }
1007:Drivers/lvgl/lvgl/src/draw/lv_draw_mask.c ****     else  {
1008:Drivers/lvgl/lvgl/src/draw/lv_draw_mask.c **** 
1009:Drivers/lvgl/lvgl/src/draw/lv_draw_mask.c ****         lv_draw_mask_res_t res1 = LV_DRAW_MASK_RES_FULL_COVER;
1010:Drivers/lvgl/lvgl/src/draw/lv_draw_mask.c ****         lv_draw_mask_res_t res2 = LV_DRAW_MASK_RES_FULL_COVER;
1011:Drivers/lvgl/lvgl/src/draw/lv_draw_mask.c **** 
1012:Drivers/lvgl/lvgl/src/draw/lv_draw_mask.c ****         if(p->cfg.start_angle == 180) {
1013:Drivers/lvgl/lvgl/src/draw/lv_draw_mask.c ****             if(abs_y < p->cfg.vertex_p.y) res1 = LV_DRAW_MASK_RES_FULL_COVER;
1014:Drivers/lvgl/lvgl/src/draw/lv_draw_mask.c ****             else res1 = LV_DRAW_MASK_RES_UNKNOWN;
1015:Drivers/lvgl/lvgl/src/draw/lv_draw_mask.c ****         }
1016:Drivers/lvgl/lvgl/src/draw/lv_draw_mask.c ****         else if(p->cfg.start_angle == 0) {
1017:Drivers/lvgl/lvgl/src/draw/lv_draw_mask.c ****             if(abs_y < p->cfg.vertex_p.y) res1 = LV_DRAW_MASK_RES_UNKNOWN;
1018:Drivers/lvgl/lvgl/src/draw/lv_draw_mask.c ****             else res1 = LV_DRAW_MASK_RES_FULL_COVER;
1019:Drivers/lvgl/lvgl/src/draw/lv_draw_mask.c ****         }
1020:Drivers/lvgl/lvgl/src/draw/lv_draw_mask.c ****         else if((p->cfg.start_angle < 180 && abs_y < p->cfg.vertex_p.y) ||
1021:Drivers/lvgl/lvgl/src/draw/lv_draw_mask.c ****                 (p->cfg.start_angle > 180 && abs_y >= p->cfg.vertex_p.y)) {
1022:Drivers/lvgl/lvgl/src/draw/lv_draw_mask.c ****             res1 = LV_DRAW_MASK_RES_UNKNOWN;
1023:Drivers/lvgl/lvgl/src/draw/lv_draw_mask.c ****         }
1024:Drivers/lvgl/lvgl/src/draw/lv_draw_mask.c ****         else  {
1025:Drivers/lvgl/lvgl/src/draw/lv_draw_mask.c ****             res1 = lv_draw_mask_line(mask_buf, abs_x, abs_y, len, &p->start_line);
1026:Drivers/lvgl/lvgl/src/draw/lv_draw_mask.c ****         }
1027:Drivers/lvgl/lvgl/src/draw/lv_draw_mask.c **** 
1028:Drivers/lvgl/lvgl/src/draw/lv_draw_mask.c ****         if(p->cfg.end_angle == 180) {
1029:Drivers/lvgl/lvgl/src/draw/lv_draw_mask.c ****             if(abs_y < p->cfg.vertex_p.y) res2 = LV_DRAW_MASK_RES_UNKNOWN;
1030:Drivers/lvgl/lvgl/src/draw/lv_draw_mask.c ****             else res2 = LV_DRAW_MASK_RES_FULL_COVER;
1031:Drivers/lvgl/lvgl/src/draw/lv_draw_mask.c ****         }
1032:Drivers/lvgl/lvgl/src/draw/lv_draw_mask.c ****         else if(p->cfg.end_angle == 0) {
1033:Drivers/lvgl/lvgl/src/draw/lv_draw_mask.c ****             if(abs_y < p->cfg.vertex_p.y) res2 = LV_DRAW_MASK_RES_FULL_COVER;
1034:Drivers/lvgl/lvgl/src/draw/lv_draw_mask.c ****             else res2 = LV_DRAW_MASK_RES_UNKNOWN;
1035:Drivers/lvgl/lvgl/src/draw/lv_draw_mask.c ****         }
1036:Drivers/lvgl/lvgl/src/draw/lv_draw_mask.c ****         else if((p->cfg.end_angle < 180 && abs_y < p->cfg.vertex_p.y) ||
1037:Drivers/lvgl/lvgl/src/draw/lv_draw_mask.c ****                 (p->cfg.end_angle > 180 && abs_y >= p->cfg.vertex_p.y)) {
1038:Drivers/lvgl/lvgl/src/draw/lv_draw_mask.c ****             res2 = LV_DRAW_MASK_RES_UNKNOWN;
1039:Drivers/lvgl/lvgl/src/draw/lv_draw_mask.c ****         }
1040:Drivers/lvgl/lvgl/src/draw/lv_draw_mask.c ****         else {
1041:Drivers/lvgl/lvgl/src/draw/lv_draw_mask.c ****             res2 = lv_draw_mask_line(mask_buf, abs_x, abs_y, len, &p->end_line);
1042:Drivers/lvgl/lvgl/src/draw/lv_draw_mask.c ****         }
1043:Drivers/lvgl/lvgl/src/draw/lv_draw_mask.c **** 
1044:Drivers/lvgl/lvgl/src/draw/lv_draw_mask.c ****         if(res1 == LV_DRAW_MASK_RES_TRANSP || res2 == LV_DRAW_MASK_RES_TRANSP) return LV_DRAW_MASK_
1045:Drivers/lvgl/lvgl/src/draw/lv_draw_mask.c ****         else if(res1 == LV_DRAW_MASK_RES_UNKNOWN && res2 == LV_DRAW_MASK_RES_UNKNOWN) return LV_DRA
1046:Drivers/lvgl/lvgl/src/draw/lv_draw_mask.c ****         else if(res1 == LV_DRAW_MASK_RES_FULL_COVER &&  res2 == LV_DRAW_MASK_RES_FULL_COVER) return
1047:Drivers/lvgl/lvgl/src/draw/lv_draw_mask.c ****         else return LV_DRAW_MASK_RES_CHANGED;
1048:Drivers/lvgl/lvgl/src/draw/lv_draw_mask.c ****     }
1049:Drivers/lvgl/lvgl/src/draw/lv_draw_mask.c **** }
1050:Drivers/lvgl/lvgl/src/draw/lv_draw_mask.c **** 
1051:Drivers/lvgl/lvgl/src/draw/lv_draw_mask.c **** 
1052:Drivers/lvgl/lvgl/src/draw/lv_draw_mask.c **** 
1053:Drivers/lvgl/lvgl/src/draw/lv_draw_mask.c **** LV_ATTRIBUTE_FAST_MEM static lv_draw_mask_res_t lv_draw_mask_radius(lv_opa_t * mask_buf, lv_coord_t
1054:Drivers/lvgl/lvgl/src/draw/lv_draw_mask.c ****                                                                     lv_coord_t abs_y, lv_coord_t le
1055:Drivers/lvgl/lvgl/src/draw/lv_draw_mask.c ****                                                                     lv_draw_mask_radius_param_t * p
1056:Drivers/lvgl/lvgl/src/draw/lv_draw_mask.c **** {
1057:Drivers/lvgl/lvgl/src/draw/lv_draw_mask.c ****     bool outer = p->cfg.outer;
1058:Drivers/lvgl/lvgl/src/draw/lv_draw_mask.c ****     int32_t radius = p->cfg.radius;
1059:Drivers/lvgl/lvgl/src/draw/lv_draw_mask.c ****     lv_area_t rect;
ARM GAS  /tmp/cct67Zj5.s 			page 20


1060:Drivers/lvgl/lvgl/src/draw/lv_draw_mask.c ****     lv_area_copy(&rect, &p->cfg.rect);
1061:Drivers/lvgl/lvgl/src/draw/lv_draw_mask.c **** 
1062:Drivers/lvgl/lvgl/src/draw/lv_draw_mask.c ****     if(outer == false) {
1063:Drivers/lvgl/lvgl/src/draw/lv_draw_mask.c ****         if((abs_y < rect.y1 || abs_y > rect.y2)) {
1064:Drivers/lvgl/lvgl/src/draw/lv_draw_mask.c ****             return LV_DRAW_MASK_RES_TRANSP;
1065:Drivers/lvgl/lvgl/src/draw/lv_draw_mask.c ****         }
1066:Drivers/lvgl/lvgl/src/draw/lv_draw_mask.c ****     }
1067:Drivers/lvgl/lvgl/src/draw/lv_draw_mask.c ****     else {
1068:Drivers/lvgl/lvgl/src/draw/lv_draw_mask.c ****         if(abs_y < rect.y1 || abs_y > rect.y2) {
1069:Drivers/lvgl/lvgl/src/draw/lv_draw_mask.c ****             return LV_DRAW_MASK_RES_FULL_COVER;
1070:Drivers/lvgl/lvgl/src/draw/lv_draw_mask.c ****         }
1071:Drivers/lvgl/lvgl/src/draw/lv_draw_mask.c ****     }
1072:Drivers/lvgl/lvgl/src/draw/lv_draw_mask.c **** 
1073:Drivers/lvgl/lvgl/src/draw/lv_draw_mask.c ****     if((abs_x >= rect.x1 + radius && abs_x + len <= rect.x2 - radius) ||
1074:Drivers/lvgl/lvgl/src/draw/lv_draw_mask.c ****        (abs_y >= rect.y1 + radius && abs_y <= rect.y2 - radius)) {
1075:Drivers/lvgl/lvgl/src/draw/lv_draw_mask.c ****         if(outer == false) {
1076:Drivers/lvgl/lvgl/src/draw/lv_draw_mask.c ****             /*Remove the edges*/
1077:Drivers/lvgl/lvgl/src/draw/lv_draw_mask.c ****             int32_t last = rect.x1 - abs_x;
1078:Drivers/lvgl/lvgl/src/draw/lv_draw_mask.c ****             if(last > len) return LV_DRAW_MASK_RES_TRANSP;
1079:Drivers/lvgl/lvgl/src/draw/lv_draw_mask.c ****             if(last >= 0) {
1080:Drivers/lvgl/lvgl/src/draw/lv_draw_mask.c ****                 lv_memset_00(&mask_buf[0], last);
1081:Drivers/lvgl/lvgl/src/draw/lv_draw_mask.c ****             }
1082:Drivers/lvgl/lvgl/src/draw/lv_draw_mask.c **** 
1083:Drivers/lvgl/lvgl/src/draw/lv_draw_mask.c ****             int32_t first = rect.x2 - abs_x + 1;
1084:Drivers/lvgl/lvgl/src/draw/lv_draw_mask.c ****             if(first <= 0) return LV_DRAW_MASK_RES_TRANSP;
1085:Drivers/lvgl/lvgl/src/draw/lv_draw_mask.c ****             else if(first < len) {
1086:Drivers/lvgl/lvgl/src/draw/lv_draw_mask.c ****                 lv_memset_00(&mask_buf[first], len - first);
1087:Drivers/lvgl/lvgl/src/draw/lv_draw_mask.c ****             }
1088:Drivers/lvgl/lvgl/src/draw/lv_draw_mask.c ****             if(last == 0 && first == len) return LV_DRAW_MASK_RES_FULL_COVER;
1089:Drivers/lvgl/lvgl/src/draw/lv_draw_mask.c ****             else return LV_DRAW_MASK_RES_CHANGED;
1090:Drivers/lvgl/lvgl/src/draw/lv_draw_mask.c ****         }
1091:Drivers/lvgl/lvgl/src/draw/lv_draw_mask.c ****         else {
1092:Drivers/lvgl/lvgl/src/draw/lv_draw_mask.c ****             int32_t first = rect.x1 - abs_x;
1093:Drivers/lvgl/lvgl/src/draw/lv_draw_mask.c ****             if(first < 0) first = 0;
1094:Drivers/lvgl/lvgl/src/draw/lv_draw_mask.c ****             if(first <= len) {
1095:Drivers/lvgl/lvgl/src/draw/lv_draw_mask.c ****                 int32_t last = rect.x2 - abs_x - first + 1;
1096:Drivers/lvgl/lvgl/src/draw/lv_draw_mask.c ****                 if(first + last > len) last = len - first;
1097:Drivers/lvgl/lvgl/src/draw/lv_draw_mask.c ****                 if(last >= 0) {
1098:Drivers/lvgl/lvgl/src/draw/lv_draw_mask.c ****                     lv_memset_00(&mask_buf[first], last);
1099:Drivers/lvgl/lvgl/src/draw/lv_draw_mask.c ****                 }
1100:Drivers/lvgl/lvgl/src/draw/lv_draw_mask.c ****             }
1101:Drivers/lvgl/lvgl/src/draw/lv_draw_mask.c ****         }
1102:Drivers/lvgl/lvgl/src/draw/lv_draw_mask.c ****         return LV_DRAW_MASK_RES_CHANGED;
1103:Drivers/lvgl/lvgl/src/draw/lv_draw_mask.c ****     }
1104:Drivers/lvgl/lvgl/src/draw/lv_draw_mask.c ****     //    printf("exec: x:%d.. %d, y:%d: r:%d, %s\n", abs_x, abs_x + len - 1, abs_y, p->cfg.radius,
1105:Drivers/lvgl/lvgl/src/draw/lv_draw_mask.c **** 
1106:Drivers/lvgl/lvgl/src/draw/lv_draw_mask.c **** 
1107:Drivers/lvgl/lvgl/src/draw/lv_draw_mask.c ****     //    if( abs_x == 276 && abs_x + len - 1 == 479 && abs_y == 63 && p->cfg.radius == 5 && p->cfg
1108:Drivers/lvgl/lvgl/src/draw/lv_draw_mask.c ****     //        char x = 0;
1109:Drivers/lvgl/lvgl/src/draw/lv_draw_mask.c ****     //    }
1110:Drivers/lvgl/lvgl/src/draw/lv_draw_mask.c ****     //exec: x:276.. 479, y:63: r:5, inv)
1111:Drivers/lvgl/lvgl/src/draw/lv_draw_mask.c **** 
1112:Drivers/lvgl/lvgl/src/draw/lv_draw_mask.c ****     int32_t k = rect.x1 - abs_x; /*First relevant coordinate on the of the mask*/
1113:Drivers/lvgl/lvgl/src/draw/lv_draw_mask.c ****     int32_t w = lv_area_get_width(&rect);
1114:Drivers/lvgl/lvgl/src/draw/lv_draw_mask.c ****     int32_t h = lv_area_get_height(&rect);
1115:Drivers/lvgl/lvgl/src/draw/lv_draw_mask.c ****     abs_x -= rect.x1;
1116:Drivers/lvgl/lvgl/src/draw/lv_draw_mask.c ****     abs_y -= rect.y1;
ARM GAS  /tmp/cct67Zj5.s 			page 21


1117:Drivers/lvgl/lvgl/src/draw/lv_draw_mask.c **** 
1118:Drivers/lvgl/lvgl/src/draw/lv_draw_mask.c ****     lv_coord_t aa_len;
1119:Drivers/lvgl/lvgl/src/draw/lv_draw_mask.c ****     lv_coord_t x_start;
1120:Drivers/lvgl/lvgl/src/draw/lv_draw_mask.c ****     lv_coord_t cir_y;
1121:Drivers/lvgl/lvgl/src/draw/lv_draw_mask.c ****     if(abs_y < radius) {
1122:Drivers/lvgl/lvgl/src/draw/lv_draw_mask.c ****         cir_y = radius - abs_y - 1;
1123:Drivers/lvgl/lvgl/src/draw/lv_draw_mask.c ****     }
1124:Drivers/lvgl/lvgl/src/draw/lv_draw_mask.c ****     else {
1125:Drivers/lvgl/lvgl/src/draw/lv_draw_mask.c ****         cir_y = abs_y - (h - radius);
1126:Drivers/lvgl/lvgl/src/draw/lv_draw_mask.c ****     }
1127:Drivers/lvgl/lvgl/src/draw/lv_draw_mask.c ****     lv_opa_t * aa_opa = get_next_line(p->circle, cir_y, &aa_len, &x_start);
1128:Drivers/lvgl/lvgl/src/draw/lv_draw_mask.c ****     lv_coord_t cir_x_right = k + w - radius + x_start;
1129:Drivers/lvgl/lvgl/src/draw/lv_draw_mask.c ****     lv_coord_t cir_x_left = k + radius - x_start - 1;
1130:Drivers/lvgl/lvgl/src/draw/lv_draw_mask.c ****     lv_coord_t i;
1131:Drivers/lvgl/lvgl/src/draw/lv_draw_mask.c **** 
1132:Drivers/lvgl/lvgl/src/draw/lv_draw_mask.c ****     if(outer == false) {
1133:Drivers/lvgl/lvgl/src/draw/lv_draw_mask.c ****         for(i = 0; i < aa_len; i++) {
1134:Drivers/lvgl/lvgl/src/draw/lv_draw_mask.c ****             lv_opa_t opa = aa_opa[aa_len - i - 1];
1135:Drivers/lvgl/lvgl/src/draw/lv_draw_mask.c ****             if(cir_x_right + i >= 0 && cir_x_right + i < len) {
1136:Drivers/lvgl/lvgl/src/draw/lv_draw_mask.c ****                 mask_buf[cir_x_right + i] = mask_mix(opa, mask_buf[cir_x_right + i]);
1137:Drivers/lvgl/lvgl/src/draw/lv_draw_mask.c ****             }
1138:Drivers/lvgl/lvgl/src/draw/lv_draw_mask.c ****             if(cir_x_left - i >= 0 && cir_x_left - i < len) {
1139:Drivers/lvgl/lvgl/src/draw/lv_draw_mask.c ****                 mask_buf[cir_x_left - i] = mask_mix(opa, mask_buf[cir_x_left - i]);
1140:Drivers/lvgl/lvgl/src/draw/lv_draw_mask.c ****             }
1141:Drivers/lvgl/lvgl/src/draw/lv_draw_mask.c ****         }
1142:Drivers/lvgl/lvgl/src/draw/lv_draw_mask.c **** 
1143:Drivers/lvgl/lvgl/src/draw/lv_draw_mask.c ****         /*Clean the right side*/
1144:Drivers/lvgl/lvgl/src/draw/lv_draw_mask.c ****         cir_x_right = LV_CLAMP(0, cir_x_right + i, len);
1145:Drivers/lvgl/lvgl/src/draw/lv_draw_mask.c ****         lv_memset_00(&mask_buf[cir_x_right], len - cir_x_right);
1146:Drivers/lvgl/lvgl/src/draw/lv_draw_mask.c **** 
1147:Drivers/lvgl/lvgl/src/draw/lv_draw_mask.c ****         /*Clean the left side*/
1148:Drivers/lvgl/lvgl/src/draw/lv_draw_mask.c ****         cir_x_left = LV_CLAMP(0, cir_x_left - aa_len + 1, len);
1149:Drivers/lvgl/lvgl/src/draw/lv_draw_mask.c ****         lv_memset_00(&mask_buf[0], cir_x_left);
1150:Drivers/lvgl/lvgl/src/draw/lv_draw_mask.c ****     }
1151:Drivers/lvgl/lvgl/src/draw/lv_draw_mask.c ****     else {
1152:Drivers/lvgl/lvgl/src/draw/lv_draw_mask.c ****         for(i = 0; i < aa_len; i++) {
1153:Drivers/lvgl/lvgl/src/draw/lv_draw_mask.c ****             lv_opa_t opa = 255 - (aa_opa[aa_len - 1 - i]);
1154:Drivers/lvgl/lvgl/src/draw/lv_draw_mask.c ****             if(cir_x_right + i >= 0 && cir_x_right + i < len) {
1155:Drivers/lvgl/lvgl/src/draw/lv_draw_mask.c ****                 mask_buf[cir_x_right + i] = mask_mix(opa, mask_buf[cir_x_right + i]);
1156:Drivers/lvgl/lvgl/src/draw/lv_draw_mask.c ****             }
1157:Drivers/lvgl/lvgl/src/draw/lv_draw_mask.c ****             if(cir_x_left - i >= 0 && cir_x_left - i < len) {
1158:Drivers/lvgl/lvgl/src/draw/lv_draw_mask.c ****                 mask_buf[cir_x_left - i] = mask_mix(opa, mask_buf[cir_x_left - i]);
1159:Drivers/lvgl/lvgl/src/draw/lv_draw_mask.c ****             }
1160:Drivers/lvgl/lvgl/src/draw/lv_draw_mask.c ****         }
1161:Drivers/lvgl/lvgl/src/draw/lv_draw_mask.c **** 
1162:Drivers/lvgl/lvgl/src/draw/lv_draw_mask.c ****         lv_coord_t clr_start = LV_CLAMP(0, cir_x_left + 1, len);
1163:Drivers/lvgl/lvgl/src/draw/lv_draw_mask.c ****         lv_coord_t clr_len = LV_CLAMP(0, cir_x_right - clr_start, len - clr_start);
1164:Drivers/lvgl/lvgl/src/draw/lv_draw_mask.c ****         lv_memset_00(&mask_buf[clr_start], clr_len);
1165:Drivers/lvgl/lvgl/src/draw/lv_draw_mask.c ****     }
1166:Drivers/lvgl/lvgl/src/draw/lv_draw_mask.c **** 
1167:Drivers/lvgl/lvgl/src/draw/lv_draw_mask.c ****     return LV_DRAW_MASK_RES_CHANGED;
1168:Drivers/lvgl/lvgl/src/draw/lv_draw_mask.c **** }
1169:Drivers/lvgl/lvgl/src/draw/lv_draw_mask.c **** 
1170:Drivers/lvgl/lvgl/src/draw/lv_draw_mask.c **** LV_ATTRIBUTE_FAST_MEM static lv_draw_mask_res_t lv_draw_mask_fade(lv_opa_t * mask_buf, lv_coord_t a
1171:Drivers/lvgl/lvgl/src/draw/lv_draw_mask.c ****                                                                   lv_coord_t abs_y, lv_coord_t len,
1172:Drivers/lvgl/lvgl/src/draw/lv_draw_mask.c ****                                                                   lv_draw_mask_fade_param_t * p)
1173:Drivers/lvgl/lvgl/src/draw/lv_draw_mask.c **** {
ARM GAS  /tmp/cct67Zj5.s 			page 22


  26              		.loc 1 1173 0
  27              		.cfi_startproc
  28              		@ args = 4, pretend = 0, frame = 0
  29              		@ frame_needed = 0, uses_anonymous_args = 0
  30              		@ link register save eliminated.
  31              	.LVL0:
  32 0000 F0B4     		push	{r4, r5, r6, r7}
  33              	.LCFI0:
  34              		.cfi_def_cfa_offset 16
  35              		.cfi_offset 4, -16
  36              		.cfi_offset 5, -12
  37              		.cfi_offset 6, -8
  38              		.cfi_offset 7, -4
  39 0002 049C     		ldr	r4, [sp, #16]
1174:Drivers/lvgl/lvgl/src/draw/lv_draw_mask.c ****     if(abs_y < p->cfg.coords.y1) return LV_DRAW_MASK_RES_FULL_COVER;
  40              		.loc 1 1174 0
  41 0004 B4F90A50 		ldrsh	r5, [r4, #10]
  42 0008 9542     		cmp	r5, r2
  43 000a 7CDC     		bgt	.L16
1175:Drivers/lvgl/lvgl/src/draw/lv_draw_mask.c ****     if(abs_y > p->cfg.coords.y2) return LV_DRAW_MASK_RES_FULL_COVER;
  44              		.loc 1 1175 0
  45 000c B4F90E50 		ldrsh	r5, [r4, #14]
  46 0010 9542     		cmp	r5, r2
  47 0012 7BDB     		blt	.L17
1176:Drivers/lvgl/lvgl/src/draw/lv_draw_mask.c ****     if(abs_x + len < p->cfg.coords.x1) return LV_DRAW_MASK_RES_FULL_COVER;
  48              		.loc 1 1176 0
  49 0014 5F18     		adds	r7, r3, r1
  50 0016 B4F90850 		ldrsh	r5, [r4, #8]
  51 001a AF42     		cmp	r7, r5
  52 001c 78DB     		blt	.L18
1177:Drivers/lvgl/lvgl/src/draw/lv_draw_mask.c ****     if(abs_x > p->cfg.coords.x2) return LV_DRAW_MASK_RES_FULL_COVER;
  53              		.loc 1 1177 0
  54 001e B4F90C60 		ldrsh	r6, [r4, #12]
  55 0022 8E42     		cmp	r6, r1
  56 0024 76DB     		blt	.L19
1178:Drivers/lvgl/lvgl/src/draw/lv_draw_mask.c **** 
1179:Drivers/lvgl/lvgl/src/draw/lv_draw_mask.c ****     if(abs_x + len > p->cfg.coords.x2) len -= abs_x + len - p->cfg.coords.x2 - 1;
  57              		.loc 1 1179 0
  58 0026 B742     		cmp	r7, r6
  59 0028 08DD     		ble	.L3
  60              		.loc 1 1179 0 is_stmt 0 discriminator 1
  61 002a B6B2     		uxth	r6, r6
  62 002c 9FB2     		uxth	r7, r3
  63 002e 7B18     		adds	r3, r7, r1
  64              	.LVL1:
  65 0030 9BB2     		uxth	r3, r3
  66 0032 F31A     		subs	r3, r6, r3
  67 0034 17FA83F3 		uxtah	r3, r7, r3
  68 0038 0133     		adds	r3, r3, #1
  69 003a 1BB2     		sxth	r3, r3
  70              	.LVL2:
  71              	.L3:
1180:Drivers/lvgl/lvgl/src/draw/lv_draw_mask.c **** 
1181:Drivers/lvgl/lvgl/src/draw/lv_draw_mask.c ****     if(abs_x < p->cfg.coords.x1) {
  72              		.loc 1 1181 0 is_stmt 1
  73 003c 8D42     		cmp	r5, r1
  74 003e 03DD     		ble	.L4
ARM GAS  /tmp/cct67Zj5.s 			page 23


  75              	.LVL3:
  76              	.LBB72:
1182:Drivers/lvgl/lvgl/src/draw/lv_draw_mask.c ****         int32_t x_ofs = 0;
1183:Drivers/lvgl/lvgl/src/draw/lv_draw_mask.c ****         x_ofs = p->cfg.coords.x1 - abs_x;
  77              		.loc 1 1183 0
  78 0040 691A     		subs	r1, r5, r1
  79              	.LVL4:
1184:Drivers/lvgl/lvgl/src/draw/lv_draw_mask.c ****         len -= x_ofs;
  80              		.loc 1 1184 0
  81 0042 5B1A     		subs	r3, r3, r1
  82              	.LVL5:
  83 0044 1BB2     		sxth	r3, r3
  84              	.LVL6:
1185:Drivers/lvgl/lvgl/src/draw/lv_draw_mask.c ****         mask_buf += x_ofs;
  85              		.loc 1 1185 0
  86 0046 0844     		add	r0, r0, r1
  87              	.LVL7:
  88              	.L4:
  89              	.LBE72:
1186:Drivers/lvgl/lvgl/src/draw/lv_draw_mask.c ****     }
1187:Drivers/lvgl/lvgl/src/draw/lv_draw_mask.c **** 
1188:Drivers/lvgl/lvgl/src/draw/lv_draw_mask.c ****     int32_t i;
1189:Drivers/lvgl/lvgl/src/draw/lv_draw_mask.c **** 
1190:Drivers/lvgl/lvgl/src/draw/lv_draw_mask.c ****     if(abs_y <= p->cfg.y_top) {
  90              		.loc 1 1190 0
  91 0048 B4F91010 		ldrsh	r1, [r4, #16]
  92 004c 9142     		cmp	r1, r2
  93 004e 27DA     		bge	.L20
1191:Drivers/lvgl/lvgl/src/draw/lv_draw_mask.c ****         for(i = 0; i < len; i++) {
1192:Drivers/lvgl/lvgl/src/draw/lv_draw_mask.c ****             mask_buf[i] = mask_mix(mask_buf[i], p->cfg.opa_top);
1193:Drivers/lvgl/lvgl/src/draw/lv_draw_mask.c ****         }
1194:Drivers/lvgl/lvgl/src/draw/lv_draw_mask.c ****         return LV_DRAW_MASK_RES_CHANGED;
1195:Drivers/lvgl/lvgl/src/draw/lv_draw_mask.c ****     }
1196:Drivers/lvgl/lvgl/src/draw/lv_draw_mask.c ****     else if(abs_y >= p->cfg.y_bottom) {
  94              		.loc 1 1196 0
  95 0050 B4F91250 		ldrsh	r5, [r4, #18]
  96 0054 9542     		cmp	r5, r2
  97 0056 3CDD     		ble	.L22
  98              	.LBB73:
1197:Drivers/lvgl/lvgl/src/draw/lv_draw_mask.c ****         for(i = 0; i < len; i++) {
1198:Drivers/lvgl/lvgl/src/draw/lv_draw_mask.c ****             mask_buf[i] = mask_mix(mask_buf[i], p->cfg.opa_bottom);
1199:Drivers/lvgl/lvgl/src/draw/lv_draw_mask.c ****         }
1200:Drivers/lvgl/lvgl/src/draw/lv_draw_mask.c ****         return LV_DRAW_MASK_RES_CHANGED;
1201:Drivers/lvgl/lvgl/src/draw/lv_draw_mask.c ****     }
1202:Drivers/lvgl/lvgl/src/draw/lv_draw_mask.c ****     else {
1203:Drivers/lvgl/lvgl/src/draw/lv_draw_mask.c ****         /*Calculate the opa proportionally*/
1204:Drivers/lvgl/lvgl/src/draw/lv_draw_mask.c ****         int16_t opa_diff = p->cfg.opa_bottom - p->cfg.opa_top;
  99              		.loc 1 1204 0
 100 0058 667D     		ldrb	r6, [r4, #21]	@ zero_extendqisi2
 101 005a 277D     		ldrb	r7, [r4, #20]	@ zero_extendqisi2
 102 005c F41B     		subs	r4, r6, r7
 103              	.LVL8:
1205:Drivers/lvgl/lvgl/src/draw/lv_draw_mask.c ****         int32_t y_diff = p->cfg.y_bottom - p->cfg.y_top + 1;
 104              		.loc 1 1205 0
 105 005e 6D1A     		subs	r5, r5, r1
 106 0060 0135     		adds	r5, r5, #1
 107              	.LVL9:
ARM GAS  /tmp/cct67Zj5.s 			page 24


1206:Drivers/lvgl/lvgl/src/draw/lv_draw_mask.c ****         lv_opa_t opa_act = (int32_t)((int32_t)(abs_y - p->cfg.y_top) * opa_diff) / y_diff;
 108              		.loc 1 1206 0
 109 0062 521A     		subs	r2, r2, r1
 110              	.LVL10:
 111 0064 02FB04F2 		mul	r2, r2, r4
 112 0068 92FBF5F2 		sdiv	r2, r2, r5
 113              	.LVL11:
1207:Drivers/lvgl/lvgl/src/draw/lv_draw_mask.c ****         opa_act += p->cfg.opa_top;
 114              		.loc 1 1207 0
 115 006c 57FA82F2 		uxtab	r2, r7, r2
 116              	.LVL12:
 117 0070 D2B2     		uxtb	r2, r2
 118              	.LVL13:
1208:Drivers/lvgl/lvgl/src/draw/lv_draw_mask.c **** 
1209:Drivers/lvgl/lvgl/src/draw/lv_draw_mask.c ****         for(i = 0; i < len; i++) {
 119              		.loc 1 1209 0
 120 0072 0021     		movs	r1, #0
 121 0074 34E0     		b	.L13
 122              	.LVL14:
 123              	.L21:
 124              	.LBE73:
 125              	.LBB78:
 126              	.LBB79:
1210:Drivers/lvgl/lvgl/src/draw/lv_draw_mask.c ****             mask_buf[i] = mask_mix(mask_buf[i], opa_act);
1211:Drivers/lvgl/lvgl/src/draw/lv_draw_mask.c ****         }
1212:Drivers/lvgl/lvgl/src/draw/lv_draw_mask.c ****         return LV_DRAW_MASK_RES_CHANGED;
1213:Drivers/lvgl/lvgl/src/draw/lv_draw_mask.c ****     }
1214:Drivers/lvgl/lvgl/src/draw/lv_draw_mask.c **** }
1215:Drivers/lvgl/lvgl/src/draw/lv_draw_mask.c **** 
1216:Drivers/lvgl/lvgl/src/draw/lv_draw_mask.c **** LV_ATTRIBUTE_FAST_MEM static lv_draw_mask_res_t lv_draw_mask_map(lv_opa_t * mask_buf, lv_coord_t ab
1217:Drivers/lvgl/lvgl/src/draw/lv_draw_mask.c ****                                                                  lv_coord_t abs_y, lv_coord_t len,
1218:Drivers/lvgl/lvgl/src/draw/lv_draw_mask.c ****                                                                  lv_draw_mask_map_param_t * p)
1219:Drivers/lvgl/lvgl/src/draw/lv_draw_mask.c **** {
1220:Drivers/lvgl/lvgl/src/draw/lv_draw_mask.c ****     /*Handle out of the mask cases*/
1221:Drivers/lvgl/lvgl/src/draw/lv_draw_mask.c ****     if(abs_y < p->cfg.coords.y1) return LV_DRAW_MASK_RES_FULL_COVER;
1222:Drivers/lvgl/lvgl/src/draw/lv_draw_mask.c ****     if(abs_y > p->cfg.coords.y2) return LV_DRAW_MASK_RES_FULL_COVER;
1223:Drivers/lvgl/lvgl/src/draw/lv_draw_mask.c ****     if(abs_x + len < p->cfg.coords.x1) return LV_DRAW_MASK_RES_FULL_COVER;
1224:Drivers/lvgl/lvgl/src/draw/lv_draw_mask.c ****     if(abs_x > p->cfg.coords.x2) return LV_DRAW_MASK_RES_FULL_COVER;
1225:Drivers/lvgl/lvgl/src/draw/lv_draw_mask.c **** 
1226:Drivers/lvgl/lvgl/src/draw/lv_draw_mask.c ****     /*Got to the current row in the map*/
1227:Drivers/lvgl/lvgl/src/draw/lv_draw_mask.c ****     const lv_opa_t * map_tmp = p->cfg.map;
1228:Drivers/lvgl/lvgl/src/draw/lv_draw_mask.c ****     map_tmp += (abs_y - p->cfg.coords.y1) * lv_area_get_width(&p->cfg.coords);
1229:Drivers/lvgl/lvgl/src/draw/lv_draw_mask.c **** 
1230:Drivers/lvgl/lvgl/src/draw/lv_draw_mask.c ****     if(abs_x + len > p->cfg.coords.x2) len -= abs_x + len - p->cfg.coords.x2 - 1;
1231:Drivers/lvgl/lvgl/src/draw/lv_draw_mask.c **** 
1232:Drivers/lvgl/lvgl/src/draw/lv_draw_mask.c ****     if(abs_x < p->cfg.coords.x1) {
1233:Drivers/lvgl/lvgl/src/draw/lv_draw_mask.c ****         int32_t x_ofs = 0;
1234:Drivers/lvgl/lvgl/src/draw/lv_draw_mask.c ****         x_ofs = p->cfg.coords.x1 - abs_x;
1235:Drivers/lvgl/lvgl/src/draw/lv_draw_mask.c ****         len -= x_ofs;
1236:Drivers/lvgl/lvgl/src/draw/lv_draw_mask.c ****         mask_buf += x_ofs;
1237:Drivers/lvgl/lvgl/src/draw/lv_draw_mask.c ****     }
1238:Drivers/lvgl/lvgl/src/draw/lv_draw_mask.c ****     else {
1239:Drivers/lvgl/lvgl/src/draw/lv_draw_mask.c ****         map_tmp += (abs_x - p->cfg.coords.x1);
1240:Drivers/lvgl/lvgl/src/draw/lv_draw_mask.c ****     }
1241:Drivers/lvgl/lvgl/src/draw/lv_draw_mask.c **** 
1242:Drivers/lvgl/lvgl/src/draw/lv_draw_mask.c ****     int32_t i;
1243:Drivers/lvgl/lvgl/src/draw/lv_draw_mask.c ****     for(i = 0; i < len; i++) {
ARM GAS  /tmp/cct67Zj5.s 			page 25


1244:Drivers/lvgl/lvgl/src/draw/lv_draw_mask.c ****         mask_buf[i] = mask_mix(mask_buf[i], map_tmp[i]);
1245:Drivers/lvgl/lvgl/src/draw/lv_draw_mask.c ****     }
1246:Drivers/lvgl/lvgl/src/draw/lv_draw_mask.c **** 
1247:Drivers/lvgl/lvgl/src/draw/lv_draw_mask.c ****     return LV_DRAW_MASK_RES_CHANGED;
1248:Drivers/lvgl/lvgl/src/draw/lv_draw_mask.c **** }
1249:Drivers/lvgl/lvgl/src/draw/lv_draw_mask.c **** 
1250:Drivers/lvgl/lvgl/src/draw/lv_draw_mask.c **** LV_ATTRIBUTE_FAST_MEM static lv_draw_mask_res_t lv_draw_mask_polygon(lv_opa_t * mask_buf, lv_coord_
1251:Drivers/lvgl/lvgl/src/draw/lv_draw_mask.c ****                                                                      lv_coord_t abs_y, lv_coord_t l
1252:Drivers/lvgl/lvgl/src/draw/lv_draw_mask.c ****                                                                      lv_draw_mask_polygon_param_t *
1253:Drivers/lvgl/lvgl/src/draw/lv_draw_mask.c **** {
1254:Drivers/lvgl/lvgl/src/draw/lv_draw_mask.c ****     uint16_t i;
1255:Drivers/lvgl/lvgl/src/draw/lv_draw_mask.c ****     struct {
1256:Drivers/lvgl/lvgl/src/draw/lv_draw_mask.c ****         lv_point_t p1;
1257:Drivers/lvgl/lvgl/src/draw/lv_draw_mask.c ****         lv_point_t p2;
1258:Drivers/lvgl/lvgl/src/draw/lv_draw_mask.c ****     } lines[2], tmp;
1259:Drivers/lvgl/lvgl/src/draw/lv_draw_mask.c ****     uint16_t line_cnt = 0;
1260:Drivers/lvgl/lvgl/src/draw/lv_draw_mask.c ****     lv_memset_00(&lines, sizeof(lines));
1261:Drivers/lvgl/lvgl/src/draw/lv_draw_mask.c ****     int psign_prev = 0;
1262:Drivers/lvgl/lvgl/src/draw/lv_draw_mask.c ****     for(i = 0; i < param->cfg.point_cnt; i++) {
1263:Drivers/lvgl/lvgl/src/draw/lv_draw_mask.c ****         lv_point_t p1 = param->cfg.points[i];
1264:Drivers/lvgl/lvgl/src/draw/lv_draw_mask.c ****         lv_point_t p2 = param->cfg.points[i + 1 < param->cfg.point_cnt ? i + 1 : 0];
1265:Drivers/lvgl/lvgl/src/draw/lv_draw_mask.c ****         int pdiff = p1.y - p2.y, psign = pdiff / LV_ABS(pdiff);
1266:Drivers/lvgl/lvgl/src/draw/lv_draw_mask.c ****         if(pdiff > 0) {
1267:Drivers/lvgl/lvgl/src/draw/lv_draw_mask.c ****             if(abs_y > p1.y || abs_y < p2.y) continue;
1268:Drivers/lvgl/lvgl/src/draw/lv_draw_mask.c ****             lines[line_cnt].p1 = p2;
1269:Drivers/lvgl/lvgl/src/draw/lv_draw_mask.c ****             lines[line_cnt].p2 = p1;
1270:Drivers/lvgl/lvgl/src/draw/lv_draw_mask.c ****         }
1271:Drivers/lvgl/lvgl/src/draw/lv_draw_mask.c ****         else {
1272:Drivers/lvgl/lvgl/src/draw/lv_draw_mask.c ****             if(abs_y < p1.y || abs_y > p2.y) continue;
1273:Drivers/lvgl/lvgl/src/draw/lv_draw_mask.c ****             lines[line_cnt].p1 = p1;
1274:Drivers/lvgl/lvgl/src/draw/lv_draw_mask.c ****             lines[line_cnt].p2 = p2;
1275:Drivers/lvgl/lvgl/src/draw/lv_draw_mask.c ****         }
1276:Drivers/lvgl/lvgl/src/draw/lv_draw_mask.c ****         if(psign_prev && psign_prev == psign) continue;
1277:Drivers/lvgl/lvgl/src/draw/lv_draw_mask.c ****         psign_prev = psign;
1278:Drivers/lvgl/lvgl/src/draw/lv_draw_mask.c ****         line_cnt++;
1279:Drivers/lvgl/lvgl/src/draw/lv_draw_mask.c ****         if(line_cnt == 2) break;
1280:Drivers/lvgl/lvgl/src/draw/lv_draw_mask.c ****     }
1281:Drivers/lvgl/lvgl/src/draw/lv_draw_mask.c ****     if(line_cnt != 2) return LV_DRAW_MASK_RES_TRANSP;
1282:Drivers/lvgl/lvgl/src/draw/lv_draw_mask.c ****     if(lines[0].p1.x > lines[1].p1.x || lines[0].p2.x > lines[1].p2.x) {
1283:Drivers/lvgl/lvgl/src/draw/lv_draw_mask.c ****         tmp = lines[0];
1284:Drivers/lvgl/lvgl/src/draw/lv_draw_mask.c ****         lines[0] = lines[1];
1285:Drivers/lvgl/lvgl/src/draw/lv_draw_mask.c ****         lines[1] = tmp;
1286:Drivers/lvgl/lvgl/src/draw/lv_draw_mask.c ****     }
1287:Drivers/lvgl/lvgl/src/draw/lv_draw_mask.c ****     lv_draw_mask_line_param_t line_p;
1288:Drivers/lvgl/lvgl/src/draw/lv_draw_mask.c ****     lv_draw_mask_line_points_init(&line_p, lines[0].p1.x, lines[0].p1.y, lines[0].p2.x, lines[0].p2
1289:Drivers/lvgl/lvgl/src/draw/lv_draw_mask.c ****                                   LV_DRAW_MASK_LINE_SIDE_RIGHT);
1290:Drivers/lvgl/lvgl/src/draw/lv_draw_mask.c ****     if(line_p.steep == 0 && line_p.flat) {
1291:Drivers/lvgl/lvgl/src/draw/lv_draw_mask.c ****         lv_coord_t x1 = LV_MIN(lines[0].p1.x, lines[0].p2.x);
1292:Drivers/lvgl/lvgl/src/draw/lv_draw_mask.c ****         lv_coord_t x2 = LV_MAX(lines[0].p1.x, lines[0].p2.x);
1293:Drivers/lvgl/lvgl/src/draw/lv_draw_mask.c ****         for(i = 0; i < len; i++) {
1294:Drivers/lvgl/lvgl/src/draw/lv_draw_mask.c ****             mask_buf[i] = mask_mix(mask_buf[i], (abs_x + i >= x1 && abs_x + i <= x2) * 0xFF);
1295:Drivers/lvgl/lvgl/src/draw/lv_draw_mask.c ****         }
1296:Drivers/lvgl/lvgl/src/draw/lv_draw_mask.c ****         lv_draw_mask_free_param(&line_p);
1297:Drivers/lvgl/lvgl/src/draw/lv_draw_mask.c ****         return LV_DRAW_MASK_RES_CHANGED;
1298:Drivers/lvgl/lvgl/src/draw/lv_draw_mask.c ****     }
1299:Drivers/lvgl/lvgl/src/draw/lv_draw_mask.c ****     lv_draw_mask_res_t res1 = lv_draw_mask_line(mask_buf, abs_x, abs_y, len, &line_p);
1300:Drivers/lvgl/lvgl/src/draw/lv_draw_mask.c ****     lv_draw_mask_free_param(&line_p);
ARM GAS  /tmp/cct67Zj5.s 			page 26


1301:Drivers/lvgl/lvgl/src/draw/lv_draw_mask.c ****     if(res1 == LV_DRAW_MASK_RES_TRANSP) {
1302:Drivers/lvgl/lvgl/src/draw/lv_draw_mask.c ****         return LV_DRAW_MASK_RES_TRANSP;
1303:Drivers/lvgl/lvgl/src/draw/lv_draw_mask.c ****     }
1304:Drivers/lvgl/lvgl/src/draw/lv_draw_mask.c ****     lv_draw_mask_line_points_init(&line_p, lines[1].p1.x, lines[1].p1.y, lines[1].p2.x, lines[1].p2
1305:Drivers/lvgl/lvgl/src/draw/lv_draw_mask.c ****                                   LV_DRAW_MASK_LINE_SIDE_LEFT);
1306:Drivers/lvgl/lvgl/src/draw/lv_draw_mask.c ****     if(line_p.steep == 0 && line_p.flat) {
1307:Drivers/lvgl/lvgl/src/draw/lv_draw_mask.c ****         lv_coord_t x1 = LV_MIN(lines[1].p1.x, lines[1].p2.x);
1308:Drivers/lvgl/lvgl/src/draw/lv_draw_mask.c ****         lv_coord_t x2 = LV_MAX(lines[1].p1.x, lines[1].p2.x);
1309:Drivers/lvgl/lvgl/src/draw/lv_draw_mask.c ****         for(i = 0; i < len; i++) {
1310:Drivers/lvgl/lvgl/src/draw/lv_draw_mask.c ****             mask_buf[i] = mask_mix(mask_buf[i], (abs_x + i >= x1 && abs_x + i <= x2) * 0xFF);
1311:Drivers/lvgl/lvgl/src/draw/lv_draw_mask.c ****         }
1312:Drivers/lvgl/lvgl/src/draw/lv_draw_mask.c ****         lv_draw_mask_free_param(&line_p);
1313:Drivers/lvgl/lvgl/src/draw/lv_draw_mask.c ****         return LV_DRAW_MASK_RES_CHANGED;
1314:Drivers/lvgl/lvgl/src/draw/lv_draw_mask.c ****     }
1315:Drivers/lvgl/lvgl/src/draw/lv_draw_mask.c ****     lv_draw_mask_res_t res2 = lv_draw_mask_line(mask_buf, abs_x, abs_y, len, &line_p);
1316:Drivers/lvgl/lvgl/src/draw/lv_draw_mask.c ****     lv_draw_mask_free_param(&line_p);
1317:Drivers/lvgl/lvgl/src/draw/lv_draw_mask.c ****     if(res2 == LV_DRAW_MASK_RES_TRANSP) {
1318:Drivers/lvgl/lvgl/src/draw/lv_draw_mask.c ****         return LV_DRAW_MASK_RES_TRANSP;
1319:Drivers/lvgl/lvgl/src/draw/lv_draw_mask.c ****     }
1320:Drivers/lvgl/lvgl/src/draw/lv_draw_mask.c ****     if(res1 == LV_DRAW_MASK_RES_CHANGED || res2 == LV_DRAW_MASK_RES_CHANGED) return LV_DRAW_MASK_RE
1321:Drivers/lvgl/lvgl/src/draw/lv_draw_mask.c ****     return res1;
1322:Drivers/lvgl/lvgl/src/draw/lv_draw_mask.c **** }
1323:Drivers/lvgl/lvgl/src/draw/lv_draw_mask.c **** /**
1324:Drivers/lvgl/lvgl/src/draw/lv_draw_mask.c ****  * Initialize the circle drawing
1325:Drivers/lvgl/lvgl/src/draw/lv_draw_mask.c ****  * @param c pointer to a point. The coordinates will be calculated here
1326:Drivers/lvgl/lvgl/src/draw/lv_draw_mask.c ****  * @param tmp point to a variable. It will store temporary data
1327:Drivers/lvgl/lvgl/src/draw/lv_draw_mask.c ****  * @param radius radius of the circle
1328:Drivers/lvgl/lvgl/src/draw/lv_draw_mask.c ****  */
1329:Drivers/lvgl/lvgl/src/draw/lv_draw_mask.c **** static void circ_init(lv_point_t * c, lv_coord_t * tmp, lv_coord_t radius)
1330:Drivers/lvgl/lvgl/src/draw/lv_draw_mask.c **** {
1331:Drivers/lvgl/lvgl/src/draw/lv_draw_mask.c ****     c->x = radius;
1332:Drivers/lvgl/lvgl/src/draw/lv_draw_mask.c ****     c->y = 0;
1333:Drivers/lvgl/lvgl/src/draw/lv_draw_mask.c ****     *tmp = 1 - radius;
1334:Drivers/lvgl/lvgl/src/draw/lv_draw_mask.c **** }
1335:Drivers/lvgl/lvgl/src/draw/lv_draw_mask.c **** 
1336:Drivers/lvgl/lvgl/src/draw/lv_draw_mask.c **** /**
1337:Drivers/lvgl/lvgl/src/draw/lv_draw_mask.c ****  * Test the circle drawing is ready or not
1338:Drivers/lvgl/lvgl/src/draw/lv_draw_mask.c ****  * @param c same as in circ_init
1339:Drivers/lvgl/lvgl/src/draw/lv_draw_mask.c ****  * @return true if the circle is not ready yet
1340:Drivers/lvgl/lvgl/src/draw/lv_draw_mask.c ****  */
1341:Drivers/lvgl/lvgl/src/draw/lv_draw_mask.c **** static bool circ_cont(lv_point_t * c)
1342:Drivers/lvgl/lvgl/src/draw/lv_draw_mask.c **** {
1343:Drivers/lvgl/lvgl/src/draw/lv_draw_mask.c ****     return c->y <= c->x ? true : false;
1344:Drivers/lvgl/lvgl/src/draw/lv_draw_mask.c **** }
1345:Drivers/lvgl/lvgl/src/draw/lv_draw_mask.c **** 
1346:Drivers/lvgl/lvgl/src/draw/lv_draw_mask.c **** /**
1347:Drivers/lvgl/lvgl/src/draw/lv_draw_mask.c ****  * Get the next point from the circle
1348:Drivers/lvgl/lvgl/src/draw/lv_draw_mask.c ****  * @param c same as in circ_init. The next point stored here.
1349:Drivers/lvgl/lvgl/src/draw/lv_draw_mask.c ****  * @param tmp same as in circ_init.
1350:Drivers/lvgl/lvgl/src/draw/lv_draw_mask.c ****  */
1351:Drivers/lvgl/lvgl/src/draw/lv_draw_mask.c **** static void circ_next(lv_point_t * c, lv_coord_t * tmp)
1352:Drivers/lvgl/lvgl/src/draw/lv_draw_mask.c **** {
1353:Drivers/lvgl/lvgl/src/draw/lv_draw_mask.c **** 
1354:Drivers/lvgl/lvgl/src/draw/lv_draw_mask.c ****     if(*tmp <= 0) {
1355:Drivers/lvgl/lvgl/src/draw/lv_draw_mask.c ****         (*tmp) += 2 * c->y + 3; /*Change in decision criterion for y -> y+1*/
1356:Drivers/lvgl/lvgl/src/draw/lv_draw_mask.c ****     }
1357:Drivers/lvgl/lvgl/src/draw/lv_draw_mask.c ****     else {
ARM GAS  /tmp/cct67Zj5.s 			page 27


1358:Drivers/lvgl/lvgl/src/draw/lv_draw_mask.c ****         (*tmp) += 2 * (c->y - c->x) + 5; /*Change for y -> y+1, x -> x-1*/
1359:Drivers/lvgl/lvgl/src/draw/lv_draw_mask.c ****         c->x--;
1360:Drivers/lvgl/lvgl/src/draw/lv_draw_mask.c ****     }
1361:Drivers/lvgl/lvgl/src/draw/lv_draw_mask.c ****     c->y++;
1362:Drivers/lvgl/lvgl/src/draw/lv_draw_mask.c **** }
1363:Drivers/lvgl/lvgl/src/draw/lv_draw_mask.c **** 
1364:Drivers/lvgl/lvgl/src/draw/lv_draw_mask.c **** static void circ_calc_aa4(_lv_draw_mask_radius_circle_dsc_t * c, lv_coord_t radius)
1365:Drivers/lvgl/lvgl/src/draw/lv_draw_mask.c **** {
1366:Drivers/lvgl/lvgl/src/draw/lv_draw_mask.c ****     if(radius == 0) return;
1367:Drivers/lvgl/lvgl/src/draw/lv_draw_mask.c ****     c->radius = radius;
1368:Drivers/lvgl/lvgl/src/draw/lv_draw_mask.c **** 
1369:Drivers/lvgl/lvgl/src/draw/lv_draw_mask.c ****     /*Allocate buffers*/
1370:Drivers/lvgl/lvgl/src/draw/lv_draw_mask.c ****     if(c->buf) lv_mem_free(c->buf);
1371:Drivers/lvgl/lvgl/src/draw/lv_draw_mask.c **** 
1372:Drivers/lvgl/lvgl/src/draw/lv_draw_mask.c ****     c->buf = lv_mem_alloc(radius * 6 + 6);  /*Use uint16_t for opa_start_on_y and x_start_on_y*/
1373:Drivers/lvgl/lvgl/src/draw/lv_draw_mask.c ****     LV_ASSERT_MALLOC(c->buf);
1374:Drivers/lvgl/lvgl/src/draw/lv_draw_mask.c ****     c->cir_opa = c->buf;
1375:Drivers/lvgl/lvgl/src/draw/lv_draw_mask.c ****     c->opa_start_on_y = (uint16_t *)(c->buf + 2 * radius + 2);
1376:Drivers/lvgl/lvgl/src/draw/lv_draw_mask.c ****     c->x_start_on_y = (uint16_t *)(c->buf + 4 * radius + 4);
1377:Drivers/lvgl/lvgl/src/draw/lv_draw_mask.c **** 
1378:Drivers/lvgl/lvgl/src/draw/lv_draw_mask.c ****     /*Special case, handle manually*/
1379:Drivers/lvgl/lvgl/src/draw/lv_draw_mask.c ****     if(radius == 1) {
1380:Drivers/lvgl/lvgl/src/draw/lv_draw_mask.c ****         c->cir_opa[0] = 180;
1381:Drivers/lvgl/lvgl/src/draw/lv_draw_mask.c ****         c->opa_start_on_y[0] = 0;
1382:Drivers/lvgl/lvgl/src/draw/lv_draw_mask.c ****         c->opa_start_on_y[1] = 1;
1383:Drivers/lvgl/lvgl/src/draw/lv_draw_mask.c ****         c->x_start_on_y[0] = 0;
1384:Drivers/lvgl/lvgl/src/draw/lv_draw_mask.c ****         return;
1385:Drivers/lvgl/lvgl/src/draw/lv_draw_mask.c ****     }
1386:Drivers/lvgl/lvgl/src/draw/lv_draw_mask.c **** 
1387:Drivers/lvgl/lvgl/src/draw/lv_draw_mask.c ****     lv_coord_t * cir_x = lv_mem_buf_get((radius + 1) * 2 * 2 * sizeof(lv_coord_t));
1388:Drivers/lvgl/lvgl/src/draw/lv_draw_mask.c ****     lv_coord_t * cir_y = &cir_x[(radius + 1) * 2];
1389:Drivers/lvgl/lvgl/src/draw/lv_draw_mask.c **** 
1390:Drivers/lvgl/lvgl/src/draw/lv_draw_mask.c ****     uint32_t y_8th_cnt = 0;
1391:Drivers/lvgl/lvgl/src/draw/lv_draw_mask.c ****     lv_point_t cp;
1392:Drivers/lvgl/lvgl/src/draw/lv_draw_mask.c ****     lv_coord_t tmp;
1393:Drivers/lvgl/lvgl/src/draw/lv_draw_mask.c ****     circ_init(&cp, &tmp, radius * 4);    /*Upscale by 4*/
1394:Drivers/lvgl/lvgl/src/draw/lv_draw_mask.c ****     int32_t i;
1395:Drivers/lvgl/lvgl/src/draw/lv_draw_mask.c **** 
1396:Drivers/lvgl/lvgl/src/draw/lv_draw_mask.c ****     uint32_t x_int[4];
1397:Drivers/lvgl/lvgl/src/draw/lv_draw_mask.c ****     uint32_t x_fract[4];
1398:Drivers/lvgl/lvgl/src/draw/lv_draw_mask.c ****     lv_coord_t cir_size = 0;
1399:Drivers/lvgl/lvgl/src/draw/lv_draw_mask.c ****     x_int[0] = cp.x >> 2;
1400:Drivers/lvgl/lvgl/src/draw/lv_draw_mask.c ****     x_fract[0] = 0;
1401:Drivers/lvgl/lvgl/src/draw/lv_draw_mask.c **** 
1402:Drivers/lvgl/lvgl/src/draw/lv_draw_mask.c ****     /*Calculate an 1/8 circle*/
1403:Drivers/lvgl/lvgl/src/draw/lv_draw_mask.c ****     while(circ_cont(&cp)) {
1404:Drivers/lvgl/lvgl/src/draw/lv_draw_mask.c ****         /*Calculate 4 point of the circle */
1405:Drivers/lvgl/lvgl/src/draw/lv_draw_mask.c ****         for(i = 0; i < 4; i++) {
1406:Drivers/lvgl/lvgl/src/draw/lv_draw_mask.c ****             circ_next(&cp, &tmp);
1407:Drivers/lvgl/lvgl/src/draw/lv_draw_mask.c ****             if(circ_cont(&cp) == false) break;
1408:Drivers/lvgl/lvgl/src/draw/lv_draw_mask.c ****             x_int[i] = cp.x >> 2;
1409:Drivers/lvgl/lvgl/src/draw/lv_draw_mask.c ****             x_fract[i] = cp.x & 0x3;
1410:Drivers/lvgl/lvgl/src/draw/lv_draw_mask.c ****         }
1411:Drivers/lvgl/lvgl/src/draw/lv_draw_mask.c ****         if(i != 4) break;
1412:Drivers/lvgl/lvgl/src/draw/lv_draw_mask.c **** 
1413:Drivers/lvgl/lvgl/src/draw/lv_draw_mask.c ****         /*All lines on the same x when downscaled*/
1414:Drivers/lvgl/lvgl/src/draw/lv_draw_mask.c ****         if(x_int[0] == x_int[3]) {
ARM GAS  /tmp/cct67Zj5.s 			page 28


1415:Drivers/lvgl/lvgl/src/draw/lv_draw_mask.c ****             cir_x[cir_size] = x_int[0];
1416:Drivers/lvgl/lvgl/src/draw/lv_draw_mask.c ****             cir_y[cir_size] = y_8th_cnt;
1417:Drivers/lvgl/lvgl/src/draw/lv_draw_mask.c ****             c->cir_opa[cir_size] = x_fract[0] + x_fract[1] + x_fract[2] + x_fract[3];
1418:Drivers/lvgl/lvgl/src/draw/lv_draw_mask.c ****             c->cir_opa[cir_size] *= 16;
1419:Drivers/lvgl/lvgl/src/draw/lv_draw_mask.c ****             cir_size++;
1420:Drivers/lvgl/lvgl/src/draw/lv_draw_mask.c ****         }
1421:Drivers/lvgl/lvgl/src/draw/lv_draw_mask.c ****         /*Second line on new x when downscaled*/
1422:Drivers/lvgl/lvgl/src/draw/lv_draw_mask.c ****         else if(x_int[0] != x_int[1]) {
1423:Drivers/lvgl/lvgl/src/draw/lv_draw_mask.c ****             cir_x[cir_size] = x_int[0];
1424:Drivers/lvgl/lvgl/src/draw/lv_draw_mask.c ****             cir_y[cir_size] = y_8th_cnt;
1425:Drivers/lvgl/lvgl/src/draw/lv_draw_mask.c ****             c->cir_opa[cir_size] = x_fract[0];
1426:Drivers/lvgl/lvgl/src/draw/lv_draw_mask.c ****             c->cir_opa[cir_size] *= 16;
1427:Drivers/lvgl/lvgl/src/draw/lv_draw_mask.c ****             cir_size++;
1428:Drivers/lvgl/lvgl/src/draw/lv_draw_mask.c **** 
1429:Drivers/lvgl/lvgl/src/draw/lv_draw_mask.c ****             cir_x[cir_size] = x_int[0] - 1;
1430:Drivers/lvgl/lvgl/src/draw/lv_draw_mask.c ****             cir_y[cir_size] = y_8th_cnt;
1431:Drivers/lvgl/lvgl/src/draw/lv_draw_mask.c ****             c->cir_opa[cir_size] = 1 * 4 + x_fract[1] + x_fract[2] + x_fract[3];;
1432:Drivers/lvgl/lvgl/src/draw/lv_draw_mask.c ****             c->cir_opa[cir_size] *= 16;
1433:Drivers/lvgl/lvgl/src/draw/lv_draw_mask.c ****             cir_size++;
1434:Drivers/lvgl/lvgl/src/draw/lv_draw_mask.c ****         }
1435:Drivers/lvgl/lvgl/src/draw/lv_draw_mask.c ****         /*Third line on new x when downscaled*/
1436:Drivers/lvgl/lvgl/src/draw/lv_draw_mask.c ****         else if(x_int[0] != x_int[2]) {
1437:Drivers/lvgl/lvgl/src/draw/lv_draw_mask.c ****             cir_x[cir_size] = x_int[0];
1438:Drivers/lvgl/lvgl/src/draw/lv_draw_mask.c ****             cir_y[cir_size] = y_8th_cnt;
1439:Drivers/lvgl/lvgl/src/draw/lv_draw_mask.c ****             c->cir_opa[cir_size] = x_fract[0] + x_fract[1];
1440:Drivers/lvgl/lvgl/src/draw/lv_draw_mask.c ****             c->cir_opa[cir_size] *= 16;
1441:Drivers/lvgl/lvgl/src/draw/lv_draw_mask.c ****             cir_size++;
1442:Drivers/lvgl/lvgl/src/draw/lv_draw_mask.c **** 
1443:Drivers/lvgl/lvgl/src/draw/lv_draw_mask.c ****             cir_x[cir_size] = x_int[0] - 1;
1444:Drivers/lvgl/lvgl/src/draw/lv_draw_mask.c ****             cir_y[cir_size] = y_8th_cnt;
1445:Drivers/lvgl/lvgl/src/draw/lv_draw_mask.c ****             c->cir_opa[cir_size] = 2 * 4 + x_fract[2] + x_fract[3];;
1446:Drivers/lvgl/lvgl/src/draw/lv_draw_mask.c ****             c->cir_opa[cir_size] *= 16;
1447:Drivers/lvgl/lvgl/src/draw/lv_draw_mask.c ****             cir_size++;
1448:Drivers/lvgl/lvgl/src/draw/lv_draw_mask.c ****         }
1449:Drivers/lvgl/lvgl/src/draw/lv_draw_mask.c ****         /*Forth line on new x when downscaled*/
1450:Drivers/lvgl/lvgl/src/draw/lv_draw_mask.c ****         else {
1451:Drivers/lvgl/lvgl/src/draw/lv_draw_mask.c ****             cir_x[cir_size] = x_int[0];
1452:Drivers/lvgl/lvgl/src/draw/lv_draw_mask.c ****             cir_y[cir_size] = y_8th_cnt;
1453:Drivers/lvgl/lvgl/src/draw/lv_draw_mask.c ****             c->cir_opa[cir_size] = x_fract[0] + x_fract[1] + x_fract[2];
1454:Drivers/lvgl/lvgl/src/draw/lv_draw_mask.c ****             c->cir_opa[cir_size] *= 16;
1455:Drivers/lvgl/lvgl/src/draw/lv_draw_mask.c ****             cir_size++;
1456:Drivers/lvgl/lvgl/src/draw/lv_draw_mask.c **** 
1457:Drivers/lvgl/lvgl/src/draw/lv_draw_mask.c ****             cir_x[cir_size] = x_int[0] - 1;
1458:Drivers/lvgl/lvgl/src/draw/lv_draw_mask.c ****             cir_y[cir_size] = y_8th_cnt;
1459:Drivers/lvgl/lvgl/src/draw/lv_draw_mask.c ****             c->cir_opa[cir_size] = 3 * 4 + x_fract[3];;
1460:Drivers/lvgl/lvgl/src/draw/lv_draw_mask.c ****             c->cir_opa[cir_size] *= 16;
1461:Drivers/lvgl/lvgl/src/draw/lv_draw_mask.c ****             cir_size++;
1462:Drivers/lvgl/lvgl/src/draw/lv_draw_mask.c ****         }
1463:Drivers/lvgl/lvgl/src/draw/lv_draw_mask.c **** 
1464:Drivers/lvgl/lvgl/src/draw/lv_draw_mask.c ****         y_8th_cnt++;
1465:Drivers/lvgl/lvgl/src/draw/lv_draw_mask.c ****     }
1466:Drivers/lvgl/lvgl/src/draw/lv_draw_mask.c **** 
1467:Drivers/lvgl/lvgl/src/draw/lv_draw_mask.c ****     /*The point on the 1/8 circle is special, calculate it manually*/
1468:Drivers/lvgl/lvgl/src/draw/lv_draw_mask.c ****     int32_t mid = radius * 723;
1469:Drivers/lvgl/lvgl/src/draw/lv_draw_mask.c ****     int32_t mid_int = mid >> 10;
1470:Drivers/lvgl/lvgl/src/draw/lv_draw_mask.c ****     if(cir_x[cir_size - 1] != mid_int || cir_y[cir_size - 1] != mid_int) {
1471:Drivers/lvgl/lvgl/src/draw/lv_draw_mask.c ****         int32_t tmp_val = mid - (mid_int << 10);
ARM GAS  /tmp/cct67Zj5.s 			page 29


1472:Drivers/lvgl/lvgl/src/draw/lv_draw_mask.c ****         if(tmp_val <= 512) {
1473:Drivers/lvgl/lvgl/src/draw/lv_draw_mask.c ****             tmp_val = tmp_val * tmp_val * 2;
1474:Drivers/lvgl/lvgl/src/draw/lv_draw_mask.c ****             tmp_val = tmp_val >> (10 + 6);
1475:Drivers/lvgl/lvgl/src/draw/lv_draw_mask.c ****         }
1476:Drivers/lvgl/lvgl/src/draw/lv_draw_mask.c ****         else {
1477:Drivers/lvgl/lvgl/src/draw/lv_draw_mask.c ****             tmp_val = 1024 - tmp_val;
1478:Drivers/lvgl/lvgl/src/draw/lv_draw_mask.c ****             tmp_val = tmp_val * tmp_val * 2;
1479:Drivers/lvgl/lvgl/src/draw/lv_draw_mask.c ****             tmp_val = tmp_val >> (10 + 6);
1480:Drivers/lvgl/lvgl/src/draw/lv_draw_mask.c ****             tmp_val = 15 - tmp_val;
1481:Drivers/lvgl/lvgl/src/draw/lv_draw_mask.c ****         }
1482:Drivers/lvgl/lvgl/src/draw/lv_draw_mask.c **** 
1483:Drivers/lvgl/lvgl/src/draw/lv_draw_mask.c ****         cir_x[cir_size] = mid_int;
1484:Drivers/lvgl/lvgl/src/draw/lv_draw_mask.c ****         cir_y[cir_size] = mid_int;
1485:Drivers/lvgl/lvgl/src/draw/lv_draw_mask.c ****         c->cir_opa[cir_size] = tmp_val;
1486:Drivers/lvgl/lvgl/src/draw/lv_draw_mask.c ****         c->cir_opa[cir_size] *= 16;
1487:Drivers/lvgl/lvgl/src/draw/lv_draw_mask.c ****         cir_size++;
1488:Drivers/lvgl/lvgl/src/draw/lv_draw_mask.c ****     }
1489:Drivers/lvgl/lvgl/src/draw/lv_draw_mask.c **** 
1490:Drivers/lvgl/lvgl/src/draw/lv_draw_mask.c ****     /*Build the second octet by mirroring the first*/
1491:Drivers/lvgl/lvgl/src/draw/lv_draw_mask.c ****     for(i = cir_size - 2; i >= 0; i--, cir_size++) {
1492:Drivers/lvgl/lvgl/src/draw/lv_draw_mask.c ****         cir_x[cir_size] = cir_y[i];
1493:Drivers/lvgl/lvgl/src/draw/lv_draw_mask.c ****         cir_y[cir_size] = cir_x[i];
1494:Drivers/lvgl/lvgl/src/draw/lv_draw_mask.c ****         c->cir_opa[cir_size] = c->cir_opa[i];
1495:Drivers/lvgl/lvgl/src/draw/lv_draw_mask.c ****     }
1496:Drivers/lvgl/lvgl/src/draw/lv_draw_mask.c **** 
1497:Drivers/lvgl/lvgl/src/draw/lv_draw_mask.c ****     lv_coord_t y = 0;
1498:Drivers/lvgl/lvgl/src/draw/lv_draw_mask.c ****     i = 0;
1499:Drivers/lvgl/lvgl/src/draw/lv_draw_mask.c ****     c->opa_start_on_y[0] = 0;
1500:Drivers/lvgl/lvgl/src/draw/lv_draw_mask.c ****     while(i < cir_size) {
1501:Drivers/lvgl/lvgl/src/draw/lv_draw_mask.c ****         c->opa_start_on_y[y] = i;
1502:Drivers/lvgl/lvgl/src/draw/lv_draw_mask.c ****         c->x_start_on_y[y] = cir_x[i];
1503:Drivers/lvgl/lvgl/src/draw/lv_draw_mask.c ****         for(; cir_y[i] == y && i < (int32_t)cir_size; i++) {
1504:Drivers/lvgl/lvgl/src/draw/lv_draw_mask.c ****             c->x_start_on_y[y] = LV_MIN(c->x_start_on_y[y], cir_x[i]);
1505:Drivers/lvgl/lvgl/src/draw/lv_draw_mask.c ****         }
1506:Drivers/lvgl/lvgl/src/draw/lv_draw_mask.c ****         y++;
1507:Drivers/lvgl/lvgl/src/draw/lv_draw_mask.c ****     }
1508:Drivers/lvgl/lvgl/src/draw/lv_draw_mask.c **** 
1509:Drivers/lvgl/lvgl/src/draw/lv_draw_mask.c ****     lv_mem_buf_release(cir_x);
1510:Drivers/lvgl/lvgl/src/draw/lv_draw_mask.c **** }
1511:Drivers/lvgl/lvgl/src/draw/lv_draw_mask.c **** 
1512:Drivers/lvgl/lvgl/src/draw/lv_draw_mask.c **** static lv_opa_t * get_next_line(_lv_draw_mask_radius_circle_dsc_t * c, lv_coord_t y, lv_coord_t * l
1513:Drivers/lvgl/lvgl/src/draw/lv_draw_mask.c ****                                 lv_coord_t * x_start)
1514:Drivers/lvgl/lvgl/src/draw/lv_draw_mask.c **** {
1515:Drivers/lvgl/lvgl/src/draw/lv_draw_mask.c ****     *len = c->opa_start_on_y[y + 1] - c->opa_start_on_y[y];
1516:Drivers/lvgl/lvgl/src/draw/lv_draw_mask.c ****     *x_start = c->x_start_on_y[y];
1517:Drivers/lvgl/lvgl/src/draw/lv_draw_mask.c ****     return &c->cir_opa[c->opa_start_on_y[y]];
1518:Drivers/lvgl/lvgl/src/draw/lv_draw_mask.c **** }
1519:Drivers/lvgl/lvgl/src/draw/lv_draw_mask.c **** 
1520:Drivers/lvgl/lvgl/src/draw/lv_draw_mask.c **** 
1521:Drivers/lvgl/lvgl/src/draw/lv_draw_mask.c **** LV_ATTRIBUTE_FAST_MEM static inline lv_opa_t mask_mix(lv_opa_t mask_act, lv_opa_t mask_new)
1522:Drivers/lvgl/lvgl/src/draw/lv_draw_mask.c **** {
1523:Drivers/lvgl/lvgl/src/draw/lv_draw_mask.c ****     if(mask_new >= LV_OPA_MAX) return mask_act;
1524:Drivers/lvgl/lvgl/src/draw/lv_draw_mask.c ****     if(mask_new <= LV_OPA_MIN) return 0;
 127              		.loc 1 1524 0
 128 0076 0025     		movs	r5, #0
 129              	.LVL15:
 130              	.L7:
ARM GAS  /tmp/cct67Zj5.s 			page 30


 131              	.LBE79:
 132              	.LBE78:
1192:Drivers/lvgl/lvgl/src/draw/lv_draw_mask.c ****         }
 133              		.loc 1 1192 0
 134 0078 3570     		strb	r5, [r6]
1191:Drivers/lvgl/lvgl/src/draw/lv_draw_mask.c ****             mask_buf[i] = mask_mix(mask_buf[i], p->cfg.opa_top);
 135              		.loc 1 1191 0
 136 007a 0132     		adds	r2, r2, #1
 137              	.LVL16:
 138              	.L5:
1191:Drivers/lvgl/lvgl/src/draw/lv_draw_mask.c ****             mask_buf[i] = mask_mix(mask_buf[i], p->cfg.opa_top);
 139              		.loc 1 1191 0 is_stmt 0 discriminator 1
 140 007c 9342     		cmp	r3, r2
 141 007e 11DD     		ble	.L28
1192:Drivers/lvgl/lvgl/src/draw/lv_draw_mask.c ****         }
 142              		.loc 1 1192 0 is_stmt 1 discriminator 3
 143 0080 8618     		adds	r6, r0, r2
 144 0082 855C     		ldrb	r5, [r0, r2]	@ zero_extendqisi2
 145 0084 217D     		ldrb	r1, [r4, #20]	@ zero_extendqisi2
 146              	.LVL17:
 147              	.LBB81:
 148              	.LBB80:
1523:Drivers/lvgl/lvgl/src/draw/lv_draw_mask.c ****     if(mask_new <= LV_OPA_MIN) return 0;
 149              		.loc 1 1523 0 discriminator 3
 150 0086 FC29     		cmp	r1, #252
 151 0088 F6D8     		bhi	.L7
 152              		.loc 1 1524 0
 153 008a 0229     		cmp	r1, #2
 154 008c F3D9     		bls	.L21
1525:Drivers/lvgl/lvgl/src/draw/lv_draw_mask.c **** 
1526:Drivers/lvgl/lvgl/src/draw/lv_draw_mask.c ****     return LV_UDIV255(mask_act * mask_new);// >> 8);
 155              		.loc 1 1526 0
 156 008e 01FB05F1 		mul	r1, r1, r5
 157              	.LVL18:
 158 0092 01EB0125 		add	r5, r1, r1, lsl #8
 159              	.LVL19:
 160 0096 01EBC511 		add	r1, r1, r5, lsl #7
 161 009a C1F3C755 		ubfx	r5, r1, #23, #8
 162 009e EBE7     		b	.L7
 163              	.LVL20:
 164              	.L20:
 165              	.LBE80:
 166              	.LBE81:
1191:Drivers/lvgl/lvgl/src/draw/lv_draw_mask.c ****             mask_buf[i] = mask_mix(mask_buf[i], p->cfg.opa_top);
 167              		.loc 1 1191 0
 168 00a0 0022     		movs	r2, #0
 169              	.LVL21:
 170 00a2 EBE7     		b	.L5
 171              	.LVL22:
 172              	.L28:
1194:Drivers/lvgl/lvgl/src/draw/lv_draw_mask.c ****     }
 173              		.loc 1 1194 0
 174 00a4 0220     		movs	r0, #2
 175              	.LVL23:
 176 00a6 2FE0     		b	.L2
 177              	.LVL24:
 178              	.L23:
ARM GAS  /tmp/cct67Zj5.s 			page 31


 179              	.LBB82:
 180              	.LBB83:
1524:Drivers/lvgl/lvgl/src/draw/lv_draw_mask.c **** 
 181              		.loc 1 1524 0
 182 00a8 0025     		movs	r5, #0
 183              	.LVL25:
 184              	.L11:
 185              	.LBE83:
 186              	.LBE82:
1198:Drivers/lvgl/lvgl/src/draw/lv_draw_mask.c ****         }
 187              		.loc 1 1198 0
 188 00aa 3570     		strb	r5, [r6]
1197:Drivers/lvgl/lvgl/src/draw/lv_draw_mask.c ****             mask_buf[i] = mask_mix(mask_buf[i], p->cfg.opa_bottom);
 189              		.loc 1 1197 0
 190 00ac 0132     		adds	r2, r2, #1
 191              	.LVL26:
 192              	.L9:
1197:Drivers/lvgl/lvgl/src/draw/lv_draw_mask.c ****             mask_buf[i] = mask_mix(mask_buf[i], p->cfg.opa_bottom);
 193              		.loc 1 1197 0 is_stmt 0 discriminator 1
 194 00ae 9342     		cmp	r3, r2
 195 00b0 11DD     		ble	.L29
1198:Drivers/lvgl/lvgl/src/draw/lv_draw_mask.c ****         }
 196              		.loc 1 1198 0 is_stmt 1 discriminator 3
 197 00b2 8618     		adds	r6, r0, r2
 198 00b4 855C     		ldrb	r5, [r0, r2]	@ zero_extendqisi2
 199 00b6 617D     		ldrb	r1, [r4, #21]	@ zero_extendqisi2
 200              	.LVL27:
 201              	.LBB85:
 202              	.LBB84:
1523:Drivers/lvgl/lvgl/src/draw/lv_draw_mask.c ****     if(mask_new <= LV_OPA_MIN) return 0;
 203              		.loc 1 1523 0 discriminator 3
 204 00b8 FC29     		cmp	r1, #252
 205 00ba F6D8     		bhi	.L11
1524:Drivers/lvgl/lvgl/src/draw/lv_draw_mask.c **** 
 206              		.loc 1 1524 0
 207 00bc 0229     		cmp	r1, #2
 208 00be F3D9     		bls	.L23
 209              		.loc 1 1526 0
 210 00c0 01FB05F1 		mul	r1, r1, r5
 211              	.LVL28:
 212 00c4 01EB0125 		add	r5, r1, r1, lsl #8
 213              	.LVL29:
 214 00c8 01EBC511 		add	r1, r1, r5, lsl #7
 215 00cc C1F3C755 		ubfx	r5, r1, #23, #8
 216 00d0 EBE7     		b	.L11
 217              	.LVL30:
 218              	.L22:
 219              	.LBE84:
 220              	.LBE85:
1197:Drivers/lvgl/lvgl/src/draw/lv_draw_mask.c ****             mask_buf[i] = mask_mix(mask_buf[i], p->cfg.opa_bottom);
 221              		.loc 1 1197 0
 222 00d2 0022     		movs	r2, #0
 223              	.LVL31:
 224 00d4 EBE7     		b	.L9
 225              	.LVL32:
 226              	.L29:
1200:Drivers/lvgl/lvgl/src/draw/lv_draw_mask.c ****     }
ARM GAS  /tmp/cct67Zj5.s 			page 32


 227              		.loc 1 1200 0
 228 00d6 0220     		movs	r0, #2
 229              	.LVL33:
 230 00d8 16E0     		b	.L2
 231              	.LVL34:
 232              	.L24:
 233              	.LBB86:
 234              	.LBB74:
 235              	.LBB75:
1524:Drivers/lvgl/lvgl/src/draw/lv_draw_mask.c **** 
 236              		.loc 1 1524 0
 237 00da 0024     		movs	r4, #0
 238              	.LVL35:
 239              	.L14:
 240              	.LBE75:
 241              	.LBE74:
1210:Drivers/lvgl/lvgl/src/draw/lv_draw_mask.c ****         }
 242              		.loc 1 1210 0
 243 00dc 2C70     		strb	r4, [r5]
1209:Drivers/lvgl/lvgl/src/draw/lv_draw_mask.c ****             mask_buf[i] = mask_mix(mask_buf[i], opa_act);
 244              		.loc 1 1209 0
 245 00de 0131     		adds	r1, r1, #1
 246              	.LVL36:
 247              	.L13:
1209:Drivers/lvgl/lvgl/src/draw/lv_draw_mask.c ****             mask_buf[i] = mask_mix(mask_buf[i], opa_act);
 248              		.loc 1 1209 0 is_stmt 0 discriminator 1
 249 00e0 8B42     		cmp	r3, r1
 250 00e2 0EDD     		ble	.L30
1210:Drivers/lvgl/lvgl/src/draw/lv_draw_mask.c ****         }
 251              		.loc 1 1210 0 is_stmt 1 discriminator 3
 252 00e4 4518     		adds	r5, r0, r1
 253 00e6 445C     		ldrb	r4, [r0, r1]	@ zero_extendqisi2
 254              	.LVL37:
 255              	.LBB77:
 256              	.LBB76:
1523:Drivers/lvgl/lvgl/src/draw/lv_draw_mask.c ****     if(mask_new <= LV_OPA_MIN) return 0;
 257              		.loc 1 1523 0 discriminator 3
 258 00e8 FC2A     		cmp	r2, #252
 259 00ea F7D8     		bhi	.L14
1524:Drivers/lvgl/lvgl/src/draw/lv_draw_mask.c **** 
 260              		.loc 1 1524 0
 261 00ec 022A     		cmp	r2, #2
 262 00ee F4D9     		bls	.L24
 263              		.loc 1 1526 0
 264 00f0 02FB04F4 		mul	r4, r2, r4
 265              	.LVL38:
 266 00f4 04EB0426 		add	r6, r4, r4, lsl #8
 267 00f8 04EBC614 		add	r4, r4, r6, lsl #7
 268 00fc C4F3C754 		ubfx	r4, r4, #23, #8
 269 0100 ECE7     		b	.L14
 270              	.LVL39:
 271              	.L30:
 272              	.LBE76:
 273              	.LBE77:
1212:Drivers/lvgl/lvgl/src/draw/lv_draw_mask.c ****     }
 274              		.loc 1 1212 0
 275 0102 0220     		movs	r0, #2
ARM GAS  /tmp/cct67Zj5.s 			page 33


 276              	.LVL40:
 277 0104 00E0     		b	.L2
 278              	.LVL41:
 279              	.L16:
 280              	.LBE86:
1174:Drivers/lvgl/lvgl/src/draw/lv_draw_mask.c ****     if(abs_y > p->cfg.coords.y2) return LV_DRAW_MASK_RES_FULL_COVER;
 281              		.loc 1 1174 0
 282 0106 0120     		movs	r0, #1
 283              	.LVL42:
 284              	.L2:
1214:Drivers/lvgl/lvgl/src/draw/lv_draw_mask.c **** 
 285              		.loc 1 1214 0
 286 0108 F0BC     		pop	{r4, r5, r6, r7}
 287              	.LCFI1:
 288              		.cfi_remember_state
 289              		.cfi_restore 7
 290              		.cfi_restore 6
 291              		.cfi_restore 5
 292              		.cfi_restore 4
 293              		.cfi_def_cfa_offset 0
 294              	.LVL43:
 295 010a 7047     		bx	lr
 296              	.LVL44:
 297              	.L17:
 298              	.LCFI2:
 299              		.cfi_restore_state
1175:Drivers/lvgl/lvgl/src/draw/lv_draw_mask.c ****     if(abs_x + len < p->cfg.coords.x1) return LV_DRAW_MASK_RES_FULL_COVER;
 300              		.loc 1 1175 0
 301 010c 0120     		movs	r0, #1
 302              	.LVL45:
 303 010e FBE7     		b	.L2
 304              	.LVL46:
 305              	.L18:
1176:Drivers/lvgl/lvgl/src/draw/lv_draw_mask.c ****     if(abs_x > p->cfg.coords.x2) return LV_DRAW_MASK_RES_FULL_COVER;
 306              		.loc 1 1176 0
 307 0110 0120     		movs	r0, #1
 308              	.LVL47:
 309 0112 F9E7     		b	.L2
 310              	.LVL48:
 311              	.L19:
1177:Drivers/lvgl/lvgl/src/draw/lv_draw_mask.c **** 
 312              		.loc 1 1177 0
 313 0114 0120     		movs	r0, #1
 314              	.LVL49:
 315 0116 F7E7     		b	.L2
 316              		.cfi_endproc
 317              	.LFE77:
 319              		.section	.text.lv_draw_mask_map,"ax",%progbits
 320              		.align	1
 321              		.syntax unified
 322              		.thumb
 323              		.thumb_func
 324              		.fpu fpv5-d16
 326              	lv_draw_mask_map:
 327              	.LFB78:
1219:Drivers/lvgl/lvgl/src/draw/lv_draw_mask.c ****     /*Handle out of the mask cases*/
 328              		.loc 1 1219 0
ARM GAS  /tmp/cct67Zj5.s 			page 34


 329              		.cfi_startproc
 330              		@ args = 4, pretend = 0, frame = 0
 331              		@ frame_needed = 0, uses_anonymous_args = 0
 332              	.LVL50:
 333 0000 F0B5     		push	{r4, r5, r6, r7, lr}
 334              	.LCFI3:
 335              		.cfi_def_cfa_offset 20
 336              		.cfi_offset 4, -20
 337              		.cfi_offset 5, -16
 338              		.cfi_offset 6, -12
 339              		.cfi_offset 7, -8
 340              		.cfi_offset 14, -4
 341 0002 059C     		ldr	r4, [sp, #20]
1221:Drivers/lvgl/lvgl/src/draw/lv_draw_mask.c ****     if(abs_y > p->cfg.coords.y2) return LV_DRAW_MASK_RES_FULL_COVER;
 342              		.loc 1 1221 0
 343 0004 B4F90A50 		ldrsh	r5, [r4, #10]
 344 0008 9542     		cmp	r5, r2
 345 000a 44DC     		bgt	.L39
1222:Drivers/lvgl/lvgl/src/draw/lv_draw_mask.c ****     if(abs_x + len < p->cfg.coords.x1) return LV_DRAW_MASK_RES_FULL_COVER;
 346              		.loc 1 1222 0
 347 000c B4F90E60 		ldrsh	r6, [r4, #14]
 348 0010 9642     		cmp	r6, r2
 349 0012 42DB     		blt	.L40
1223:Drivers/lvgl/lvgl/src/draw/lv_draw_mask.c ****     if(abs_x > p->cfg.coords.x2) return LV_DRAW_MASK_RES_FULL_COVER;
 350              		.loc 1 1223 0
 351 0014 5F18     		adds	r7, r3, r1
 352 0016 B4F90860 		ldrsh	r6, [r4, #8]
 353 001a B742     		cmp	r7, r6
 354 001c 3FDB     		blt	.L41
1224:Drivers/lvgl/lvgl/src/draw/lv_draw_mask.c **** 
 355              		.loc 1 1224 0
 356 001e B4F90CC0 		ldrsh	ip, [r4, #12]
 357 0022 8C45     		cmp	ip, r1
 358 0024 3DDB     		blt	.L42
1227:Drivers/lvgl/lvgl/src/draw/lv_draw_mask.c ****     map_tmp += (abs_y - p->cfg.coords.y1) * lv_area_get_width(&p->cfg.coords);
 359              		.loc 1 1227 0
 360 0026 D4F810E0 		ldr	lr, [r4, #16]
 361              	.LVL51:
1228:Drivers/lvgl/lvgl/src/draw/lv_draw_mask.c **** 
 362              		.loc 1 1228 0
 363 002a 521B     		subs	r2, r2, r5
 364              	.LVL52:
 365              	.LBB87:
 366              	.LBB88:
 367              		.file 2 "Drivers/lvgl/lvgl/src/draw/../misc/../font/../misc/lv_area.h"
   1:Drivers/lvgl/lvgl/src/draw/../misc/../font/../misc/lv_area.h **** /**
   2:Drivers/lvgl/lvgl/src/draw/../misc/../font/../misc/lv_area.h ****  * @file lv_area.h
   3:Drivers/lvgl/lvgl/src/draw/../misc/../font/../misc/lv_area.h ****  *
   4:Drivers/lvgl/lvgl/src/draw/../misc/../font/../misc/lv_area.h ****  */
   5:Drivers/lvgl/lvgl/src/draw/../misc/../font/../misc/lv_area.h **** 
   6:Drivers/lvgl/lvgl/src/draw/../misc/../font/../misc/lv_area.h **** #ifndef LV_AREA_H
   7:Drivers/lvgl/lvgl/src/draw/../misc/../font/../misc/lv_area.h **** #define LV_AREA_H
   8:Drivers/lvgl/lvgl/src/draw/../misc/../font/../misc/lv_area.h **** 
   9:Drivers/lvgl/lvgl/src/draw/../misc/../font/../misc/lv_area.h **** #ifdef __cplusplus
  10:Drivers/lvgl/lvgl/src/draw/../misc/../font/../misc/lv_area.h **** extern "C" {
  11:Drivers/lvgl/lvgl/src/draw/../misc/../font/../misc/lv_area.h **** #endif
  12:Drivers/lvgl/lvgl/src/draw/../misc/../font/../misc/lv_area.h **** 
ARM GAS  /tmp/cct67Zj5.s 			page 35


  13:Drivers/lvgl/lvgl/src/draw/../misc/../font/../misc/lv_area.h **** /*********************
  14:Drivers/lvgl/lvgl/src/draw/../misc/../font/../misc/lv_area.h ****  *      INCLUDES
  15:Drivers/lvgl/lvgl/src/draw/../misc/../font/../misc/lv_area.h ****  *********************/
  16:Drivers/lvgl/lvgl/src/draw/../misc/../font/../misc/lv_area.h **** #include "../lv_conf_internal.h"
  17:Drivers/lvgl/lvgl/src/draw/../misc/../font/../misc/lv_area.h **** #include <stdbool.h>
  18:Drivers/lvgl/lvgl/src/draw/../misc/../font/../misc/lv_area.h **** #include <stdint.h>
  19:Drivers/lvgl/lvgl/src/draw/../misc/../font/../misc/lv_area.h **** 
  20:Drivers/lvgl/lvgl/src/draw/../misc/../font/../misc/lv_area.h **** /*********************
  21:Drivers/lvgl/lvgl/src/draw/../misc/../font/../misc/lv_area.h ****  *      DEFINES
  22:Drivers/lvgl/lvgl/src/draw/../misc/../font/../misc/lv_area.h ****  *********************/
  23:Drivers/lvgl/lvgl/src/draw/../misc/../font/../misc/lv_area.h **** 
  24:Drivers/lvgl/lvgl/src/draw/../misc/../font/../misc/lv_area.h **** #if LV_USE_LARGE_COORD
  25:Drivers/lvgl/lvgl/src/draw/../misc/../font/../misc/lv_area.h **** typedef int32_t lv_coord_t;
  26:Drivers/lvgl/lvgl/src/draw/../misc/../font/../misc/lv_area.h **** #else
  27:Drivers/lvgl/lvgl/src/draw/../misc/../font/../misc/lv_area.h **** typedef int16_t lv_coord_t;
  28:Drivers/lvgl/lvgl/src/draw/../misc/../font/../misc/lv_area.h **** #endif
  29:Drivers/lvgl/lvgl/src/draw/../misc/../font/../misc/lv_area.h **** 
  30:Drivers/lvgl/lvgl/src/draw/../misc/../font/../misc/lv_area.h **** /**********************
  31:Drivers/lvgl/lvgl/src/draw/../misc/../font/../misc/lv_area.h ****  *      TYPEDEFS
  32:Drivers/lvgl/lvgl/src/draw/../misc/../font/../misc/lv_area.h ****  **********************/
  33:Drivers/lvgl/lvgl/src/draw/../misc/../font/../misc/lv_area.h **** 
  34:Drivers/lvgl/lvgl/src/draw/../misc/../font/../misc/lv_area.h **** /**
  35:Drivers/lvgl/lvgl/src/draw/../misc/../font/../misc/lv_area.h ****  * Represents a point on the screen.
  36:Drivers/lvgl/lvgl/src/draw/../misc/../font/../misc/lv_area.h ****  */
  37:Drivers/lvgl/lvgl/src/draw/../misc/../font/../misc/lv_area.h **** typedef struct {
  38:Drivers/lvgl/lvgl/src/draw/../misc/../font/../misc/lv_area.h ****     lv_coord_t x;
  39:Drivers/lvgl/lvgl/src/draw/../misc/../font/../misc/lv_area.h ****     lv_coord_t y;
  40:Drivers/lvgl/lvgl/src/draw/../misc/../font/../misc/lv_area.h **** } lv_point_t;
  41:Drivers/lvgl/lvgl/src/draw/../misc/../font/../misc/lv_area.h **** 
  42:Drivers/lvgl/lvgl/src/draw/../misc/../font/../misc/lv_area.h **** /** Represents an area of the screen.*/
  43:Drivers/lvgl/lvgl/src/draw/../misc/../font/../misc/lv_area.h **** typedef struct {
  44:Drivers/lvgl/lvgl/src/draw/../misc/../font/../misc/lv_area.h ****     lv_coord_t x1;
  45:Drivers/lvgl/lvgl/src/draw/../misc/../font/../misc/lv_area.h ****     lv_coord_t y1;
  46:Drivers/lvgl/lvgl/src/draw/../misc/../font/../misc/lv_area.h ****     lv_coord_t x2;
  47:Drivers/lvgl/lvgl/src/draw/../misc/../font/../misc/lv_area.h ****     lv_coord_t y2;
  48:Drivers/lvgl/lvgl/src/draw/../misc/../font/../misc/lv_area.h **** } lv_area_t;
  49:Drivers/lvgl/lvgl/src/draw/../misc/../font/../misc/lv_area.h **** 
  50:Drivers/lvgl/lvgl/src/draw/../misc/../font/../misc/lv_area.h **** /** Alignments*/
  51:Drivers/lvgl/lvgl/src/draw/../misc/../font/../misc/lv_area.h **** enum {
  52:Drivers/lvgl/lvgl/src/draw/../misc/../font/../misc/lv_area.h ****     LV_ALIGN_DEFAULT = 0,
  53:Drivers/lvgl/lvgl/src/draw/../misc/../font/../misc/lv_area.h ****     LV_ALIGN_TOP_LEFT,
  54:Drivers/lvgl/lvgl/src/draw/../misc/../font/../misc/lv_area.h ****     LV_ALIGN_TOP_MID,
  55:Drivers/lvgl/lvgl/src/draw/../misc/../font/../misc/lv_area.h ****     LV_ALIGN_TOP_RIGHT,
  56:Drivers/lvgl/lvgl/src/draw/../misc/../font/../misc/lv_area.h ****     LV_ALIGN_BOTTOM_LEFT,
  57:Drivers/lvgl/lvgl/src/draw/../misc/../font/../misc/lv_area.h ****     LV_ALIGN_BOTTOM_MID,
  58:Drivers/lvgl/lvgl/src/draw/../misc/../font/../misc/lv_area.h ****     LV_ALIGN_BOTTOM_RIGHT,
  59:Drivers/lvgl/lvgl/src/draw/../misc/../font/../misc/lv_area.h ****     LV_ALIGN_LEFT_MID,
  60:Drivers/lvgl/lvgl/src/draw/../misc/../font/../misc/lv_area.h ****     LV_ALIGN_RIGHT_MID,
  61:Drivers/lvgl/lvgl/src/draw/../misc/../font/../misc/lv_area.h ****     LV_ALIGN_CENTER,
  62:Drivers/lvgl/lvgl/src/draw/../misc/../font/../misc/lv_area.h **** 
  63:Drivers/lvgl/lvgl/src/draw/../misc/../font/../misc/lv_area.h ****     LV_ALIGN_OUT_TOP_LEFT,
  64:Drivers/lvgl/lvgl/src/draw/../misc/../font/../misc/lv_area.h ****     LV_ALIGN_OUT_TOP_MID,
  65:Drivers/lvgl/lvgl/src/draw/../misc/../font/../misc/lv_area.h ****     LV_ALIGN_OUT_TOP_RIGHT,
  66:Drivers/lvgl/lvgl/src/draw/../misc/../font/../misc/lv_area.h ****     LV_ALIGN_OUT_BOTTOM_LEFT,
  67:Drivers/lvgl/lvgl/src/draw/../misc/../font/../misc/lv_area.h ****     LV_ALIGN_OUT_BOTTOM_MID,
  68:Drivers/lvgl/lvgl/src/draw/../misc/../font/../misc/lv_area.h ****     LV_ALIGN_OUT_BOTTOM_RIGHT,
  69:Drivers/lvgl/lvgl/src/draw/../misc/../font/../misc/lv_area.h ****     LV_ALIGN_OUT_LEFT_TOP,
ARM GAS  /tmp/cct67Zj5.s 			page 36


  70:Drivers/lvgl/lvgl/src/draw/../misc/../font/../misc/lv_area.h ****     LV_ALIGN_OUT_LEFT_MID,
  71:Drivers/lvgl/lvgl/src/draw/../misc/../font/../misc/lv_area.h ****     LV_ALIGN_OUT_LEFT_BOTTOM,
  72:Drivers/lvgl/lvgl/src/draw/../misc/../font/../misc/lv_area.h ****     LV_ALIGN_OUT_RIGHT_TOP,
  73:Drivers/lvgl/lvgl/src/draw/../misc/../font/../misc/lv_area.h ****     LV_ALIGN_OUT_RIGHT_MID,
  74:Drivers/lvgl/lvgl/src/draw/../misc/../font/../misc/lv_area.h ****     LV_ALIGN_OUT_RIGHT_BOTTOM,
  75:Drivers/lvgl/lvgl/src/draw/../misc/../font/../misc/lv_area.h **** };
  76:Drivers/lvgl/lvgl/src/draw/../misc/../font/../misc/lv_area.h **** typedef uint8_t lv_align_t;
  77:Drivers/lvgl/lvgl/src/draw/../misc/../font/../misc/lv_area.h **** 
  78:Drivers/lvgl/lvgl/src/draw/../misc/../font/../misc/lv_area.h **** enum {
  79:Drivers/lvgl/lvgl/src/draw/../misc/../font/../misc/lv_area.h ****     LV_DIR_NONE     = 0x00,
  80:Drivers/lvgl/lvgl/src/draw/../misc/../font/../misc/lv_area.h ****     LV_DIR_LEFT     = (1 << 0),
  81:Drivers/lvgl/lvgl/src/draw/../misc/../font/../misc/lv_area.h ****     LV_DIR_RIGHT    = (1 << 1),
  82:Drivers/lvgl/lvgl/src/draw/../misc/../font/../misc/lv_area.h ****     LV_DIR_TOP      = (1 << 2),
  83:Drivers/lvgl/lvgl/src/draw/../misc/../font/../misc/lv_area.h ****     LV_DIR_BOTTOM   = (1 << 3),
  84:Drivers/lvgl/lvgl/src/draw/../misc/../font/../misc/lv_area.h ****     LV_DIR_HOR      = LV_DIR_LEFT | LV_DIR_RIGHT,
  85:Drivers/lvgl/lvgl/src/draw/../misc/../font/../misc/lv_area.h ****     LV_DIR_VER      = LV_DIR_TOP | LV_DIR_BOTTOM,
  86:Drivers/lvgl/lvgl/src/draw/../misc/../font/../misc/lv_area.h ****     LV_DIR_ALL      = LV_DIR_HOR | LV_DIR_VER,
  87:Drivers/lvgl/lvgl/src/draw/../misc/../font/../misc/lv_area.h **** };
  88:Drivers/lvgl/lvgl/src/draw/../misc/../font/../misc/lv_area.h **** 
  89:Drivers/lvgl/lvgl/src/draw/../misc/../font/../misc/lv_area.h **** typedef uint8_t lv_dir_t;
  90:Drivers/lvgl/lvgl/src/draw/../misc/../font/../misc/lv_area.h **** 
  91:Drivers/lvgl/lvgl/src/draw/../misc/../font/../misc/lv_area.h **** /**********************
  92:Drivers/lvgl/lvgl/src/draw/../misc/../font/../misc/lv_area.h ****  * GLOBAL PROTOTYPES
  93:Drivers/lvgl/lvgl/src/draw/../misc/../font/../misc/lv_area.h ****  **********************/
  94:Drivers/lvgl/lvgl/src/draw/../misc/../font/../misc/lv_area.h **** 
  95:Drivers/lvgl/lvgl/src/draw/../misc/../font/../misc/lv_area.h **** /**
  96:Drivers/lvgl/lvgl/src/draw/../misc/../font/../misc/lv_area.h ****  * Initialize an area
  97:Drivers/lvgl/lvgl/src/draw/../misc/../font/../misc/lv_area.h ****  * @param area_p pointer to an area
  98:Drivers/lvgl/lvgl/src/draw/../misc/../font/../misc/lv_area.h ****  * @param x1 left coordinate of the area
  99:Drivers/lvgl/lvgl/src/draw/../misc/../font/../misc/lv_area.h ****  * @param y1 top coordinate of the area
 100:Drivers/lvgl/lvgl/src/draw/../misc/../font/../misc/lv_area.h ****  * @param x2 right coordinate of the area
 101:Drivers/lvgl/lvgl/src/draw/../misc/../font/../misc/lv_area.h ****  * @param y2 bottom coordinate of the area
 102:Drivers/lvgl/lvgl/src/draw/../misc/../font/../misc/lv_area.h ****  */
 103:Drivers/lvgl/lvgl/src/draw/../misc/../font/../misc/lv_area.h **** void lv_area_set(lv_area_t * area_p, lv_coord_t x1, lv_coord_t y1, lv_coord_t x2, lv_coord_t y2);
 104:Drivers/lvgl/lvgl/src/draw/../misc/../font/../misc/lv_area.h **** 
 105:Drivers/lvgl/lvgl/src/draw/../misc/../font/../misc/lv_area.h **** /**
 106:Drivers/lvgl/lvgl/src/draw/../misc/../font/../misc/lv_area.h ****  * Copy an area
 107:Drivers/lvgl/lvgl/src/draw/../misc/../font/../misc/lv_area.h ****  * @param dest pointer to the destination area
 108:Drivers/lvgl/lvgl/src/draw/../misc/../font/../misc/lv_area.h ****  * @param src pointer to the source area
 109:Drivers/lvgl/lvgl/src/draw/../misc/../font/../misc/lv_area.h ****  */
 110:Drivers/lvgl/lvgl/src/draw/../misc/../font/../misc/lv_area.h **** inline static void lv_area_copy(lv_area_t * dest, const lv_area_t * src)
 111:Drivers/lvgl/lvgl/src/draw/../misc/../font/../misc/lv_area.h **** {
 112:Drivers/lvgl/lvgl/src/draw/../misc/../font/../misc/lv_area.h ****     dest->x1 = src->x1;
 113:Drivers/lvgl/lvgl/src/draw/../misc/../font/../misc/lv_area.h ****     dest->y1 = src->y1;
 114:Drivers/lvgl/lvgl/src/draw/../misc/../font/../misc/lv_area.h ****     dest->x2 = src->x2;
 115:Drivers/lvgl/lvgl/src/draw/../misc/../font/../misc/lv_area.h ****     dest->y2 = src->y2;
 116:Drivers/lvgl/lvgl/src/draw/../misc/../font/../misc/lv_area.h **** }
 117:Drivers/lvgl/lvgl/src/draw/../misc/../font/../misc/lv_area.h **** 
 118:Drivers/lvgl/lvgl/src/draw/../misc/../font/../misc/lv_area.h **** /**
 119:Drivers/lvgl/lvgl/src/draw/../misc/../font/../misc/lv_area.h ****  * Get the width of an area
 120:Drivers/lvgl/lvgl/src/draw/../misc/../font/../misc/lv_area.h ****  * @param area_p pointer to an area
 121:Drivers/lvgl/lvgl/src/draw/../misc/../font/../misc/lv_area.h ****  * @return the width of the area (if x1 == x2 -> width = 1)
 122:Drivers/lvgl/lvgl/src/draw/../misc/../font/../misc/lv_area.h ****  */
 123:Drivers/lvgl/lvgl/src/draw/../misc/../font/../misc/lv_area.h **** static inline lv_coord_t lv_area_get_width(const lv_area_t * area_p)
 124:Drivers/lvgl/lvgl/src/draw/../misc/../font/../misc/lv_area.h **** {
 125:Drivers/lvgl/lvgl/src/draw/../misc/../font/../misc/lv_area.h ****     return (lv_coord_t)(area_p->x2 - area_p->x1 + 1);
 368              		.loc 2 125 0
ARM GAS  /tmp/cct67Zj5.s 			page 37


 369 002c 1FFA8CF5 		uxth	r5, ip
 370 0030 B4B2     		uxth	r4, r6
 371              	.LVL53:
 372 0032 2C1B     		subs	r4, r5, r4
 373 0034 A4B2     		uxth	r4, r4
 374 0036 0134     		adds	r4, r4, #1
 375 0038 24B2     		sxth	r4, r4
 376              	.LVL54:
 377              	.LBE88:
 378              	.LBE87:
1228:Drivers/lvgl/lvgl/src/draw/lv_draw_mask.c **** 
 379              		.loc 1 1228 0
 380 003a 04FB02E4 		mla	r4, r4, r2, lr
 381              	.LVL55:
1230:Drivers/lvgl/lvgl/src/draw/lv_draw_mask.c **** 
 382              		.loc 1 1230 0
 383 003e 6745     		cmp	r7, ip
 384 0040 07DD     		ble	.L33
1230:Drivers/lvgl/lvgl/src/draw/lv_draw_mask.c **** 
 385              		.loc 1 1230 0 is_stmt 0 discriminator 1
 386 0042 9AB2     		uxth	r2, r3
 387 0044 5318     		adds	r3, r2, r1
 388              	.LVL56:
 389 0046 9BB2     		uxth	r3, r3
 390 0048 EB1A     		subs	r3, r5, r3
 391 004a 12FA83F3 		uxtah	r3, r2, r3
 392 004e 0133     		adds	r3, r3, #1
 393 0050 1BB2     		sxth	r3, r3
 394              	.LVL57:
 395              	.L33:
1232:Drivers/lvgl/lvgl/src/draw/lv_draw_mask.c ****         int32_t x_ofs = 0;
 396              		.loc 1 1232 0 is_stmt 1
 397 0052 8E42     		cmp	r6, r1
 398 0054 05DD     		ble	.L34
 399              	.LVL58:
 400              	.LBB89:
1234:Drivers/lvgl/lvgl/src/draw/lv_draw_mask.c ****         len -= x_ofs;
 401              		.loc 1 1234 0
 402 0056 711A     		subs	r1, r6, r1
 403              	.LVL59:
1235:Drivers/lvgl/lvgl/src/draw/lv_draw_mask.c ****         mask_buf += x_ofs;
 404              		.loc 1 1235 0
 405 0058 5B1A     		subs	r3, r3, r1
 406              	.LVL60:
 407 005a 1BB2     		sxth	r3, r3
 408              	.LVL61:
1236:Drivers/lvgl/lvgl/src/draw/lv_draw_mask.c ****     }
 409              		.loc 1 1236 0
 410 005c 0844     		add	r0, r0, r1
 411              	.LVL62:
 412              	.L35:
 413              	.LBE89:
1243:Drivers/lvgl/lvgl/src/draw/lv_draw_mask.c ****         mask_buf[i] = mask_mix(mask_buf[i], map_tmp[i]);
 414              		.loc 1 1243 0
 415 005e 0022     		movs	r2, #0
 416 0060 05E0     		b	.L36
 417              	.LVL63:
ARM GAS  /tmp/cct67Zj5.s 			page 38


 418              	.L34:
1239:Drivers/lvgl/lvgl/src/draw/lv_draw_mask.c ****     }
 419              		.loc 1 1239 0
 420 0062 891B     		subs	r1, r1, r6
 421              	.LVL64:
 422 0064 0C44     		add	r4, r4, r1
 423              	.LVL65:
 424 0066 FAE7     		b	.L35
 425              	.LVL66:
 426              	.L43:
 427              	.LBB90:
 428              	.LBB91:
1524:Drivers/lvgl/lvgl/src/draw/lv_draw_mask.c **** 
 429              		.loc 1 1524 0
 430 0068 0025     		movs	r5, #0
 431              	.LVL67:
 432              	.L37:
 433              	.LBE91:
 434              	.LBE90:
1244:Drivers/lvgl/lvgl/src/draw/lv_draw_mask.c ****     }
 435              		.loc 1 1244 0
 436 006a 3570     		strb	r5, [r6]
1243:Drivers/lvgl/lvgl/src/draw/lv_draw_mask.c ****         mask_buf[i] = mask_mix(mask_buf[i], map_tmp[i]);
 437              		.loc 1 1243 0
 438 006c 0132     		adds	r2, r2, #1
 439              	.LVL68:
 440              	.L36:
1243:Drivers/lvgl/lvgl/src/draw/lv_draw_mask.c ****         mask_buf[i] = mask_mix(mask_buf[i], map_tmp[i]);
 441              		.loc 1 1243 0 is_stmt 0 discriminator 1
 442 006e 9342     		cmp	r3, r2
 443 0070 0FDD     		ble	.L45
1244:Drivers/lvgl/lvgl/src/draw/lv_draw_mask.c ****     }
 444              		.loc 1 1244 0 is_stmt 1 discriminator 3
 445 0072 8618     		adds	r6, r0, r2
 446 0074 855C     		ldrb	r5, [r0, r2]	@ zero_extendqisi2
 447 0076 A15C     		ldrb	r1, [r4, r2]	@ zero_extendqisi2
 448              	.LVL69:
 449              	.LBB93:
 450              	.LBB92:
1523:Drivers/lvgl/lvgl/src/draw/lv_draw_mask.c ****     if(mask_new <= LV_OPA_MIN) return 0;
 451              		.loc 1 1523 0 discriminator 3
 452 0078 FC29     		cmp	r1, #252
 453 007a F6D8     		bhi	.L37
1524:Drivers/lvgl/lvgl/src/draw/lv_draw_mask.c **** 
 454              		.loc 1 1524 0
 455 007c 0229     		cmp	r1, #2
 456 007e F3D9     		bls	.L43
 457              		.loc 1 1526 0
 458 0080 01FB05F1 		mul	r1, r1, r5
 459              	.LVL70:
 460 0084 01EB0125 		add	r5, r1, r1, lsl #8
 461              	.LVL71:
 462 0088 01EBC511 		add	r1, r1, r5, lsl #7
 463 008c C1F3C755 		ubfx	r5, r1, #23, #8
 464 0090 EBE7     		b	.L37
 465              	.LVL72:
 466              	.L45:
ARM GAS  /tmp/cct67Zj5.s 			page 39


 467              	.LBE92:
 468              	.LBE93:
1247:Drivers/lvgl/lvgl/src/draw/lv_draw_mask.c **** }
 469              		.loc 1 1247 0
 470 0092 0220     		movs	r0, #2
 471              	.LVL73:
 472 0094 00E0     		b	.L32
 473              	.LVL74:
 474              	.L39:
1221:Drivers/lvgl/lvgl/src/draw/lv_draw_mask.c ****     if(abs_y > p->cfg.coords.y2) return LV_DRAW_MASK_RES_FULL_COVER;
 475              		.loc 1 1221 0
 476 0096 0120     		movs	r0, #1
 477              	.LVL75:
 478              	.L32:
1248:Drivers/lvgl/lvgl/src/draw/lv_draw_mask.c **** 
 479              		.loc 1 1248 0
 480 0098 F0BD     		pop	{r4, r5, r6, r7, pc}
 481              	.LVL76:
 482              	.L40:
1222:Drivers/lvgl/lvgl/src/draw/lv_draw_mask.c ****     if(abs_x + len < p->cfg.coords.x1) return LV_DRAW_MASK_RES_FULL_COVER;
 483              		.loc 1 1222 0
 484 009a 0120     		movs	r0, #1
 485              	.LVL77:
 486 009c FCE7     		b	.L32
 487              	.LVL78:
 488              	.L41:
1223:Drivers/lvgl/lvgl/src/draw/lv_draw_mask.c ****     if(abs_x > p->cfg.coords.x2) return LV_DRAW_MASK_RES_FULL_COVER;
 489              		.loc 1 1223 0
 490 009e 0120     		movs	r0, #1
 491              	.LVL79:
 492 00a0 FAE7     		b	.L32
 493              	.LVL80:
 494              	.L42:
1224:Drivers/lvgl/lvgl/src/draw/lv_draw_mask.c **** 
 495              		.loc 1 1224 0
 496 00a2 0120     		movs	r0, #1
 497              	.LVL81:
 498 00a4 F8E7     		b	.L32
 499              		.cfi_endproc
 500              	.LFE78:
 502              		.section	.text.circ_init,"ax",%progbits
 503              		.align	1
 504              		.syntax unified
 505              		.thumb
 506              		.thumb_func
 507              		.fpu fpv5-d16
 509              	circ_init:
 510              	.LFB80:
1330:Drivers/lvgl/lvgl/src/draw/lv_draw_mask.c ****     c->x = radius;
 511              		.loc 1 1330 0
 512              		.cfi_startproc
 513              		@ args = 0, pretend = 0, frame = 0
 514              		@ frame_needed = 0, uses_anonymous_args = 0
 515              		@ link register save eliminated.
 516              	.LVL82:
1331:Drivers/lvgl/lvgl/src/draw/lv_draw_mask.c ****     c->y = 0;
 517              		.loc 1 1331 0
ARM GAS  /tmp/cct67Zj5.s 			page 40


 518 0000 0280     		strh	r2, [r0]	@ movhi
1332:Drivers/lvgl/lvgl/src/draw/lv_draw_mask.c ****     *tmp = 1 - radius;
 519              		.loc 1 1332 0
 520 0002 0023     		movs	r3, #0
 521 0004 4380     		strh	r3, [r0, #2]	@ movhi
1333:Drivers/lvgl/lvgl/src/draw/lv_draw_mask.c **** }
 522              		.loc 1 1333 0
 523 0006 C2F10102 		rsb	r2, r2, #1
 524              	.LVL83:
 525 000a 0A80     		strh	r2, [r1]	@ movhi
 526              	.LVL84:
1334:Drivers/lvgl/lvgl/src/draw/lv_draw_mask.c **** 
 527              		.loc 1 1334 0
 528 000c 7047     		bx	lr
 529              		.cfi_endproc
 530              	.LFE80:
 532              		.section	.text.circ_cont,"ax",%progbits
 533              		.align	1
 534              		.syntax unified
 535              		.thumb
 536              		.thumb_func
 537              		.fpu fpv5-d16
 539              	circ_cont:
 540              	.LFB81:
1342:Drivers/lvgl/lvgl/src/draw/lv_draw_mask.c ****     return c->y <= c->x ? true : false;
 541              		.loc 1 1342 0
 542              		.cfi_startproc
 543              		@ args = 0, pretend = 0, frame = 0
 544              		@ frame_needed = 0, uses_anonymous_args = 0
 545              		@ link register save eliminated.
 546              	.LVL85:
1343:Drivers/lvgl/lvgl/src/draw/lv_draw_mask.c **** }
 547              		.loc 1 1343 0
 548 0000 B0F90220 		ldrsh	r2, [r0, #2]
 549 0004 B0F90000 		ldrsh	r0, [r0]
 550              	.LVL86:
1344:Drivers/lvgl/lvgl/src/draw/lv_draw_mask.c **** 
 551              		.loc 1 1344 0
 552 0008 8242     		cmp	r2, r0
 553 000a CCBF     		ite	gt
 554 000c 0020     		movgt	r0, #0
 555 000e 0120     		movle	r0, #1
 556 0010 7047     		bx	lr
 557              		.cfi_endproc
 558              	.LFE81:
 560              		.section	.text.circ_next,"ax",%progbits
 561              		.align	1
 562              		.syntax unified
 563              		.thumb
 564              		.thumb_func
 565              		.fpu fpv5-d16
 567              	circ_next:
 568              	.LFB82:
1352:Drivers/lvgl/lvgl/src/draw/lv_draw_mask.c **** 
 569              		.loc 1 1352 0
 570              		.cfi_startproc
 571              		@ args = 0, pretend = 0, frame = 0
ARM GAS  /tmp/cct67Zj5.s 			page 41


 572              		@ frame_needed = 0, uses_anonymous_args = 0
 573              		@ link register save eliminated.
 574              	.LVL87:
1354:Drivers/lvgl/lvgl/src/draw/lv_draw_mask.c ****         (*tmp) += 2 * c->y + 3; /*Change in decision criterion for y -> y+1*/
 575              		.loc 1 1354 0
 576 0000 B1F90030 		ldrsh	r3, [r1]
 577 0004 002B     		cmp	r3, #0
 578 0006 14DD     		ble	.L54
1352:Drivers/lvgl/lvgl/src/draw/lv_draw_mask.c **** 
 579              		.loc 1 1352 0
 580 0008 10B4     		push	{r4}
 581              	.LCFI4:
 582              		.cfi_def_cfa_offset 4
 583              		.cfi_offset 4, -4
1358:Drivers/lvgl/lvgl/src/draw/lv_draw_mask.c ****         c->x--;
 584              		.loc 1 1358 0
 585 000a B0F90220 		ldrsh	r2, [r0, #2]
 586 000e B0F90040 		ldrsh	r4, [r0]
 587 0012 121B     		subs	r2, r2, r4
 588 0014 03EB4203 		add	r3, r3, r2, lsl #1
 589 0018 0533     		adds	r3, r3, #5
 590 001a 0B80     		strh	r3, [r1]	@ movhi
1359:Drivers/lvgl/lvgl/src/draw/lv_draw_mask.c ****     }
 591              		.loc 1 1359 0
 592 001c B0F90030 		ldrsh	r3, [r0]
 593 0020 013B     		subs	r3, r3, #1
 594 0022 0380     		strh	r3, [r0]	@ movhi
1361:Drivers/lvgl/lvgl/src/draw/lv_draw_mask.c **** }
 595              		.loc 1 1361 0
 596 0024 B0F90230 		ldrsh	r3, [r0, #2]
 597 0028 0133     		adds	r3, r3, #1
 598 002a 4380     		strh	r3, [r0, #2]	@ movhi
1362:Drivers/lvgl/lvgl/src/draw/lv_draw_mask.c **** 
 599              		.loc 1 1362 0
 600 002c 5DF8044B 		ldr	r4, [sp], #4
 601              	.LCFI5:
 602              		.cfi_restore 4
 603              		.cfi_def_cfa_offset 0
 604 0030 7047     		bx	lr
 605              	.L54:
1355:Drivers/lvgl/lvgl/src/draw/lv_draw_mask.c ****     }
 606              		.loc 1 1355 0
 607 0032 4288     		ldrh	r2, [r0, #2]
 608 0034 5200     		lsls	r2, r2, #1
 609 0036 92B2     		uxth	r2, r2
 610 0038 1344     		add	r3, r3, r2
 611 003a 0333     		adds	r3, r3, #3
 612 003c 0B80     		strh	r3, [r1]	@ movhi
1361:Drivers/lvgl/lvgl/src/draw/lv_draw_mask.c **** }
 613              		.loc 1 1361 0
 614 003e B0F90230 		ldrsh	r3, [r0, #2]
 615 0042 0133     		adds	r3, r3, #1
 616 0044 4380     		strh	r3, [r0, #2]	@ movhi
 617 0046 7047     		bx	lr
 618              		.cfi_endproc
 619              	.LFE82:
 621              		.section	.text.get_next_line,"ax",%progbits
ARM GAS  /tmp/cct67Zj5.s 			page 42


 622              		.align	1
 623              		.syntax unified
 624              		.thumb
 625              		.thumb_func
 626              		.fpu fpv5-d16
 628              	get_next_line:
 629              	.LFB84:
1514:Drivers/lvgl/lvgl/src/draw/lv_draw_mask.c ****     *len = c->opa_start_on_y[y + 1] - c->opa_start_on_y[y];
 630              		.loc 1 1514 0
 631              		.cfi_startproc
 632              		@ args = 0, pretend = 0, frame = 0
 633              		@ frame_needed = 0, uses_anonymous_args = 0
 634              		@ link register save eliminated.
 635              	.LVL88:
 636 0000 30B4     		push	{r4, r5}
 637              	.LCFI6:
 638              		.cfi_def_cfa_offset 8
 639              		.cfi_offset 4, -8
 640              		.cfi_offset 5, -4
1515:Drivers/lvgl/lvgl/src/draw/lv_draw_mask.c ****     *x_start = c->x_start_on_y[y];
 641              		.loc 1 1515 0
 642 0002 C568     		ldr	r5, [r0, #12]
 643 0004 4C1C     		adds	r4, r1, #1
 644 0006 35F81440 		ldrh	r4, [r5, r4, lsl #1]
 645 000a 35F81150 		ldrh	r5, [r5, r1, lsl #1]
 646 000e 641B     		subs	r4, r4, r5
 647 0010 1480     		strh	r4, [r2]	@ movhi
1516:Drivers/lvgl/lvgl/src/draw/lv_draw_mask.c ****     return &c->cir_opa[c->opa_start_on_y[y]];
 648              		.loc 1 1516 0
 649 0012 8268     		ldr	r2, [r0, #8]
 650              	.LVL89:
 651 0014 32F91120 		ldrsh	r2, [r2, r1, lsl #1]
 652 0018 1A80     		strh	r2, [r3]	@ movhi
1517:Drivers/lvgl/lvgl/src/draw/lv_draw_mask.c **** }
 653              		.loc 1 1517 0
 654 001a 4268     		ldr	r2, [r0, #4]
 655 001c C368     		ldr	r3, [r0, #12]
 656              	.LVL90:
 657 001e 33F81100 		ldrh	r0, [r3, r1, lsl #1]
 658              	.LVL91:
1518:Drivers/lvgl/lvgl/src/draw/lv_draw_mask.c **** 
 659              		.loc 1 1518 0
 660 0022 1044     		add	r0, r0, r2
 661 0024 30BC     		pop	{r4, r5}
 662              	.LCFI7:
 663              		.cfi_restore 5
 664              		.cfi_restore 4
 665              		.cfi_def_cfa_offset 0
 666 0026 7047     		bx	lr
 667              		.cfi_endproc
 668              	.LFE84:
 670              		.section	.text.line_mask_flat,"ax",%progbits
 671              		.align	1
 672              		.syntax unified
 673              		.thumb
 674              		.thumb_func
 675              		.fpu fpv5-d16
ARM GAS  /tmp/cct67Zj5.s 			page 43


 677              	line_mask_flat:
 678              	.LFB73:
 659:Drivers/lvgl/lvgl/src/draw/lv_draw_mask.c **** 
 679              		.loc 1 659 0
 680              		.cfi_startproc
 681              		@ args = 4, pretend = 0, frame = 0
 682              		@ frame_needed = 0, uses_anonymous_args = 0
 683              	.LVL92:
 684 0000 F8B5     		push	{r3, r4, r5, r6, r7, lr}
 685              	.LCFI8:
 686              		.cfi_def_cfa_offset 24
 687              		.cfi_offset 3, -24
 688              		.cfi_offset 4, -20
 689              		.cfi_offset 5, -16
 690              		.cfi_offset 6, -12
 691              		.cfi_offset 7, -8
 692              		.cfi_offset 14, -4
 693 0002 069C     		ldr	r4, [sp, #24]
 662:Drivers/lvgl/lvgl/src/draw/lv_draw_mask.c **** 
 694              		.loc 1 662 0
 695 0004 E569     		ldr	r5, [r4, #28]
 696 0006 01FB05F6 		mul	r6, r1, r5
 697 000a B612     		asrs	r6, r6, #10
 698              	.LVL93:
 664:Drivers/lvgl/lvgl/src/draw/lv_draw_mask.c ****         if(y_at_x > abs_y) {
 699              		.loc 1 664 0
 700 000c 002D     		cmp	r5, #0
 701 000e 09DD     		ble	.L58
 665:Drivers/lvgl/lvgl/src/draw/lv_draw_mask.c ****             if(p->inv) {
 702              		.loc 1 665 0
 703 0010 B242     		cmp	r2, r6
 704 0012 11DA     		bge	.L59
 666:Drivers/lvgl/lvgl/src/draw/lv_draw_mask.c ****                 return LV_DRAW_MASK_RES_FULL_COVER;
 705              		.loc 1 666 0
 706 0014 94F82830 		ldrb	r3, [r4, #40]	@ zero_extendqisi2
 707              	.LVL94:
 708 0018 13F0020F 		tst	r3, #2
 709 001c 00F0E480 		beq	.L81
 667:Drivers/lvgl/lvgl/src/draw/lv_draw_mask.c ****             }
 710              		.loc 1 667 0
 711 0020 0120     		movs	r0, #1
 712              	.LVL95:
 713              	.L60:
 770:Drivers/lvgl/lvgl/src/draw/lv_draw_mask.c **** 
 714              		.loc 1 770 0
 715 0022 F8BD     		pop	{r3, r4, r5, r6, r7, pc}
 716              	.LVL96:
 717              	.L58:
 675:Drivers/lvgl/lvgl/src/draw/lv_draw_mask.c ****             if(p->inv) {
 718              		.loc 1 675 0
 719 0024 B242     		cmp	r2, r6
 720 0026 07DD     		ble	.L59
 676:Drivers/lvgl/lvgl/src/draw/lv_draw_mask.c ****                 return LV_DRAW_MASK_RES_FULL_COVER;
 721              		.loc 1 676 0
 722 0028 94F82830 		ldrb	r3, [r4, #40]	@ zero_extendqisi2
 723              	.LVL97:
 724 002c 13F0020F 		tst	r3, #2
ARM GAS  /tmp/cct67Zj5.s 			page 44


 725 0030 00F0DC80 		beq	.L82
 677:Drivers/lvgl/lvgl/src/draw/lv_draw_mask.c ****             }
 726              		.loc 1 677 0
 727 0034 0120     		movs	r0, #1
 728              	.LVL98:
 729 0036 F4E7     		b	.L60
 730              	.LVL99:
 731              	.L59:
 687:Drivers/lvgl/lvgl/src/draw/lv_draw_mask.c ****     if(p->yx_steep > 0) {
 732              		.loc 1 687 0
 733 0038 1F46     		mov	r7, r3
 734 003a CE18     		adds	r6, r1, r3
 735              	.LVL100:
 736 003c 06FB05F6 		mul	r6, r6, r5
 737 0040 B612     		asrs	r6, r6, #10
 738              	.LVL101:
 688:Drivers/lvgl/lvgl/src/draw/lv_draw_mask.c ****         if(y_at_x < abs_y) {
 739              		.loc 1 688 0
 740 0042 002D     		cmp	r5, #0
 741 0044 09DD     		ble	.L61
 689:Drivers/lvgl/lvgl/src/draw/lv_draw_mask.c ****             if(p->inv) {
 742              		.loc 1 689 0
 743 0046 B242     		cmp	r2, r6
 744 0048 11DD     		ble	.L62
 690:Drivers/lvgl/lvgl/src/draw/lv_draw_mask.c ****                 return LV_DRAW_MASK_RES_TRANSP;
 745              		.loc 1 690 0
 746 004a 94F82830 		ldrb	r3, [r4, #40]	@ zero_extendqisi2
 747              	.LVL102:
 748 004e 13F0020F 		tst	r3, #2
 749 0052 00F0CD80 		beq	.L83
 691:Drivers/lvgl/lvgl/src/draw/lv_draw_mask.c ****             }
 750              		.loc 1 691 0
 751 0056 0020     		movs	r0, #0
 752              	.LVL103:
 753 0058 E3E7     		b	.L60
 754              	.LVL104:
 755              	.L61:
 699:Drivers/lvgl/lvgl/src/draw/lv_draw_mask.c ****             if(p->inv) {
 756              		.loc 1 699 0
 757 005a B242     		cmp	r2, r6
 758 005c 07DA     		bge	.L62
 700:Drivers/lvgl/lvgl/src/draw/lv_draw_mask.c ****                 return LV_DRAW_MASK_RES_TRANSP;
 759              		.loc 1 700 0
 760 005e 94F82830 		ldrb	r3, [r4, #40]	@ zero_extendqisi2
 761              	.LVL105:
 762 0062 13F0020F 		tst	r3, #2
 763 0066 00F0C580 		beq	.L84
 701:Drivers/lvgl/lvgl/src/draw/lv_draw_mask.c ****             }
 764              		.loc 1 701 0
 765 006a 0020     		movs	r0, #0
 766              	.LVL106:
 767 006c D9E7     		b	.L60
 768              	.LVL107:
 769              	.L62:
 710:Drivers/lvgl/lvgl/src/draw/lv_draw_mask.c ****     else xe = (((abs_y + 1) * 256) * p->xy_steep) >> 10;
 770              		.loc 1 710 0
 771 006e 002D     		cmp	r5, #0
ARM GAS  /tmp/cct67Zj5.s 			page 45


 772 0070 39DD     		ble	.L63
 710:Drivers/lvgl/lvgl/src/draw/lv_draw_mask.c ****     else xe = (((abs_y + 1) * 256) * p->xy_steep) >> 10;
 773              		.loc 1 710 0 is_stmt 0 discriminator 1
 774 0072 1202     		lsls	r2, r2, #8
 775              	.LVL108:
 776 0074 A569     		ldr	r5, [r4, #24]
 777 0076 05FB02F2 		mul	r2, r5, r2
 778 007a 9212     		asrs	r2, r2, #10
 779              	.LVL109:
 780              	.L64:
 713:Drivers/lvgl/lvgl/src/draw/lv_draw_mask.c ****     int32_t xef = xe & 0xFF;
 781              		.loc 1 713 0 is_stmt 1
 782 007c 4FEA222C 		asr	ip, r2, #8
 783              	.LVL110:
 717:Drivers/lvgl/lvgl/src/draw/lv_draw_mask.c ****     else px_h = 255 - (((255 - xef) * p->spx) >> 8);
 784              		.loc 1 717 0
 785 0080 12F0FF02 		ands	r2, r2, #255
 786              	.LVL111:
 787 0084 36D0     		beq	.L85
 718:Drivers/lvgl/lvgl/src/draw/lv_draw_mask.c ****     int32_t k = xei - abs_x;
 788              		.loc 1 718 0
 789 0086 C2F1FF05 		rsb	r5, r2, #255
 790 008a 666A     		ldr	r6, [r4, #36]
 791              	.LVL112:
 792 008c 06FB05F5 		mul	r5, r6, r5
 793 0090 2D12     		asrs	r5, r5, #8
 794 0092 C5F1FF05 		rsb	r5, r5, #255
 795              	.LVL113:
 796              	.L65:
 719:Drivers/lvgl/lvgl/src/draw/lv_draw_mask.c ****     lv_opa_t m;
 797              		.loc 1 719 0
 798 0096 ACEB0101 		sub	r1, ip, r1
 799              	.LVL114:
 722:Drivers/lvgl/lvgl/src/draw/lv_draw_mask.c ****         if(k >= 0 && k < len) {
 800              		.loc 1 722 0
 801 009a 002A     		cmp	r2, #0
 802 009c 5DD0     		beq	.L86
 723:Drivers/lvgl/lvgl/src/draw/lv_draw_mask.c ****             m = 255 - (((255 - xef) * (255 - px_h)) >> 9);
 803              		.loc 1 723 0
 804 009e 0029     		cmp	r1, #0
 805 00a0 1FDB     		blt	.L67
 723:Drivers/lvgl/lvgl/src/draw/lv_draw_mask.c ****             m = 255 - (((255 - xef) * (255 - px_h)) >> 9);
 806              		.loc 1 723 0 is_stmt 0 discriminator 1
 807 00a2 8B42     		cmp	r3, r1
 808 00a4 1DDD     		ble	.L67
 724:Drivers/lvgl/lvgl/src/draw/lv_draw_mask.c ****             if(p->inv) m = 255 - m;
 809              		.loc 1 724 0 is_stmt 1
 810 00a6 C2F1FF02 		rsb	r2, r2, #255
 811 00aa C5F1FF06 		rsb	r6, r5, #255
 812 00ae 06FB02F2 		mul	r2, r6, r2
 813 00b2 C2F34722 		ubfx	r2, r2, #9, #8
 814 00b6 D643     		mvns	r6, r2
 815 00b8 F6B2     		uxtb	r6, r6
 816              	.LVL115:
 725:Drivers/lvgl/lvgl/src/draw/lv_draw_mask.c ****             mask_buf[k] = mask_mix(mask_buf[k], m);
 817              		.loc 1 725 0
 818 00ba 94F828C0 		ldrb	ip, [r4, #40]	@ zero_extendqisi2
ARM GAS  /tmp/cct67Zj5.s 			page 46


 819              	.LVL116:
 820 00be 1CF0020F 		tst	ip, #2
 821 00c2 00D1     		bne	.L68
 724:Drivers/lvgl/lvgl/src/draw/lv_draw_mask.c ****             if(p->inv) m = 255 - m;
 822              		.loc 1 724 0
 823 00c4 3246     		mov	r2, r6
 824              	.L68:
 825              	.LVL117:
 726:Drivers/lvgl/lvgl/src/draw/lv_draw_mask.c ****         }
 826              		.loc 1 726 0
 827 00c6 465C     		ldrb	r6, [r0, r1]	@ zero_extendqisi2
 828              	.LVL118:
 829              	.LBB94:
 830              	.LBB95:
1523:Drivers/lvgl/lvgl/src/draw/lv_draw_mask.c ****     if(mask_new <= LV_OPA_MIN) return 0;
 831              		.loc 1 1523 0
 832 00c8 FC2A     		cmp	r2, #252
 833 00ca 09D8     		bhi	.L69
1524:Drivers/lvgl/lvgl/src/draw/lv_draw_mask.c **** 
 834              		.loc 1 1524 0
 835 00cc 022A     		cmp	r2, #2
 836 00ce 13D9     		bls	.L87
 837              		.loc 1 1526 0
 838 00d0 06FB02F2 		mul	r2, r6, r2
 839              	.LVL119:
 840 00d4 02EB0226 		add	r6, r2, r2, lsl #8
 841              	.LVL120:
 842 00d8 02EBC612 		add	r2, r2, r6, lsl #7
 843 00dc C2F3C756 		ubfx	r6, r2, #23, #8
 844              	.L69:
 845              	.LVL121:
 846              	.LBE95:
 847              	.LBE94:
 726:Drivers/lvgl/lvgl/src/draw/lv_draw_mask.c ****         }
 848              		.loc 1 726 0
 849 00e0 4654     		strb	r6, [r0, r1]
 850              	.L67:
 728:Drivers/lvgl/lvgl/src/draw/lv_draw_mask.c ****     }
 851              		.loc 1 728 0
 852 00e2 4A1C     		adds	r2, r1, #1
 853              	.LVL122:
 854 00e4 13E0     		b	.L74
 855              	.LVL123:
 856              	.L63:
 711:Drivers/lvgl/lvgl/src/draw/lv_draw_mask.c **** 
 857              		.loc 1 711 0
 858 00e6 0132     		adds	r2, r2, #1
 859              	.LVL124:
 860 00e8 1202     		lsls	r2, r2, #8
 861 00ea A569     		ldr	r5, [r4, #24]
 862 00ec 05FB02F2 		mul	r2, r5, r2
 863 00f0 9212     		asrs	r2, r2, #10
 864              	.LVL125:
 865 00f2 C3E7     		b	.L64
 866              	.LVL126:
 867              	.L85:
 717:Drivers/lvgl/lvgl/src/draw/lv_draw_mask.c ****     else px_h = 255 - (((255 - xef) * p->spx) >> 8);
ARM GAS  /tmp/cct67Zj5.s 			page 47


 868              		.loc 1 717 0
 869 00f4 FF25     		movs	r5, #255
 870 00f6 CEE7     		b	.L65
 871              	.LVL127:
 872              	.L87:
 873              	.LBB97:
 874              	.LBB96:
1524:Drivers/lvgl/lvgl/src/draw/lv_draw_mask.c **** 
 875              		.loc 1 1524 0
 876 00f8 0026     		movs	r6, #0
 877              	.LVL128:
 878 00fa F1E7     		b	.L69
 879              	.LVL129:
 880              	.L88:
 881              	.LBE96:
 882              	.LBE97:
 883              	.LBB98:
 884              	.LBB99:
 885 00fc 4FF0000C 		mov	ip, #0
 886              	.LVL130:
 887              	.L72:
 888              	.LBE99:
 889              	.LBE98:
 735:Drivers/lvgl/lvgl/src/draw/lv_draw_mask.c ****         }
 890              		.loc 1 735 0
 891 0100 8EF800C0 		strb	ip, [lr]
 892              	.L70:
 737:Drivers/lvgl/lvgl/src/draw/lv_draw_mask.c ****         k++;
 893              		.loc 1 737 0
 894 0104 666A     		ldr	r6, [r4, #36]
 895 0106 AD1B     		subs	r5, r5, r6
 896              	.LVL131:
 738:Drivers/lvgl/lvgl/src/draw/lv_draw_mask.c ****         if(k >= len) break;
 897              		.loc 1 738 0
 898 0108 0132     		adds	r2, r2, #1
 899              	.LVL132:
 739:Drivers/lvgl/lvgl/src/draw/lv_draw_mask.c ****     }
 900              		.loc 1 739 0
 901 010a 9742     		cmp	r7, r2
 902 010c 27DD     		ble	.L73
 903              	.L74:
 731:Drivers/lvgl/lvgl/src/draw/lv_draw_mask.c ****         if(k >= 0 && k < len) {
 904              		.loc 1 731 0
 905 010e D4F824C0 		ldr	ip, [r4, #36]
 906 0112 AC45     		cmp	ip, r5
 907 0114 23DA     		bge	.L73
 732:Drivers/lvgl/lvgl/src/draw/lv_draw_mask.c ****             m = px_h - (p->spx >> 1);
 908              		.loc 1 732 0
 909 0116 002A     		cmp	r2, #0
 910 0118 F4DB     		blt	.L70
 732:Drivers/lvgl/lvgl/src/draw/lv_draw_mask.c ****             m = px_h - (p->spx >> 1);
 911              		.loc 1 732 0 is_stmt 0 discriminator 1
 912 011a 9742     		cmp	r7, r2
 913 011c F2DD     		ble	.L70
 733:Drivers/lvgl/lvgl/src/draw/lv_draw_mask.c ****             if(p->inv) m = 255 - m;
 914              		.loc 1 733 0 is_stmt 1
 915 011e EEB2     		uxtb	r6, r5
ARM GAS  /tmp/cct67Zj5.s 			page 48


 916 0120 CCF3470C 		ubfx	ip, ip, #1, #8
 917 0124 A6EB0C06 		sub	r6, r6, ip
 918 0128 F6B2     		uxtb	r6, r6
 919              	.LVL133:
 734:Drivers/lvgl/lvgl/src/draw/lv_draw_mask.c ****             mask_buf[k] = mask_mix(mask_buf[k], m);
 920              		.loc 1 734 0
 921 012a 94F828C0 		ldrb	ip, [r4, #40]	@ zero_extendqisi2
 922 012e 1CF0020F 		tst	ip, #2
 923 0132 01D0     		beq	.L71
 734:Drivers/lvgl/lvgl/src/draw/lv_draw_mask.c ****             mask_buf[k] = mask_mix(mask_buf[k], m);
 924              		.loc 1 734 0 is_stmt 0 discriminator 1
 925 0134 F643     		mvns	r6, r6
 926              	.LVL134:
 927 0136 F6B2     		uxtb	r6, r6
 928              	.LVL135:
 929              	.L71:
 735:Drivers/lvgl/lvgl/src/draw/lv_draw_mask.c ****         }
 930              		.loc 1 735 0 is_stmt 1
 931 0138 00EB020E 		add	lr, r0, r2
 932 013c 10F802C0 		ldrb	ip, [r0, r2]	@ zero_extendqisi2
 933              	.LVL136:
 934              	.LBB101:
 935              	.LBB100:
1523:Drivers/lvgl/lvgl/src/draw/lv_draw_mask.c ****     if(mask_new <= LV_OPA_MIN) return 0;
 936              		.loc 1 1523 0
 937 0140 FC2E     		cmp	r6, #252
 938 0142 DDD8     		bhi	.L72
1524:Drivers/lvgl/lvgl/src/draw/lv_draw_mask.c **** 
 939              		.loc 1 1524 0
 940 0144 022E     		cmp	r6, #2
 941 0146 D9D9     		bls	.L88
 942              		.loc 1 1526 0
 943 0148 06FB0CF6 		mul	r6, r6, ip
 944              	.LVL137:
 945 014c 06EB062C 		add	ip, r6, r6, lsl #8
 946              	.LVL138:
 947 0150 06EBCC16 		add	r6, r6, ip, lsl #7
 948 0154 C6F3C75C 		ubfx	ip, r6, #23, #8
 949 0158 D2E7     		b	.L72
 950              	.LVL139:
 951              	.L86:
 952              	.LBE100:
 953              	.LBE101:
 719:Drivers/lvgl/lvgl/src/draw/lv_draw_mask.c ****     lv_opa_t m;
 954              		.loc 1 719 0
 955 015a 0A46     		mov	r2, r1
 956 015c D7E7     		b	.L74
 957              	.LVL140:
 958              	.L73:
 742:Drivers/lvgl/lvgl/src/draw/lv_draw_mask.c ****         int32_t x_inters = (px_h * p->xy_steep) >> 10;
 959              		.loc 1 742 0
 960 015e 9342     		cmp	r3, r2
 961 0160 27DD     		ble	.L76
 742:Drivers/lvgl/lvgl/src/draw/lv_draw_mask.c ****         int32_t x_inters = (px_h * p->xy_steep) >> 10;
 962              		.loc 1 742 0 is_stmt 0 discriminator 1
 963 0162 002A     		cmp	r2, #0
 964 0164 25DB     		blt	.L76
ARM GAS  /tmp/cct67Zj5.s 			page 49


 965              	.LBB102:
 743:Drivers/lvgl/lvgl/src/draw/lv_draw_mask.c ****         m = (x_inters * px_h) >> 9;
 966              		.loc 1 743 0 is_stmt 1
 967 0166 A669     		ldr	r6, [r4, #24]
 968 0168 05FB06F6 		mul	r6, r5, r6
 969 016c B612     		asrs	r6, r6, #10
 970              	.LVL141:
 744:Drivers/lvgl/lvgl/src/draw/lv_draw_mask.c ****         if(p->yx_steep < 0) m = 255 - m;
 971              		.loc 1 744 0
 972 016e 06FB05F5 		mul	r5, r6, r5
 973              	.LVL142:
 974 0172 C5F34725 		ubfx	r5, r5, #9, #8
 975              	.LVL143:
 745:Drivers/lvgl/lvgl/src/draw/lv_draw_mask.c ****         if(p->inv) m = 255 - m;
 976              		.loc 1 745 0
 977 0176 E669     		ldr	r6, [r4, #28]
 978              	.LVL144:
 979 0178 002E     		cmp	r6, #0
 980 017a 15DB     		blt	.L95
 981              	.L77:
 746:Drivers/lvgl/lvgl/src/draw/lv_draw_mask.c ****         mask_buf[k] = mask_mix(mask_buf[k], m);
 982              		.loc 1 746 0
 983 017c 94F82860 		ldrb	r6, [r4, #40]	@ zero_extendqisi2
 984 0180 16F0020F 		tst	r6, #2
 985 0184 01D0     		beq	.L78
 746:Drivers/lvgl/lvgl/src/draw/lv_draw_mask.c ****         mask_buf[k] = mask_mix(mask_buf[k], m);
 986              		.loc 1 746 0 is_stmt 0 discriminator 1
 987 0186 ED43     		mvns	r5, r5
 988              	.LVL145:
 989 0188 EDB2     		uxtb	r5, r5
 990              	.LVL146:
 991              	.L78:
 747:Drivers/lvgl/lvgl/src/draw/lv_draw_mask.c ****     }
 992              		.loc 1 747 0 is_stmt 1
 993 018a 8718     		adds	r7, r0, r2
 994 018c 865C     		ldrb	r6, [r0, r2]	@ zero_extendqisi2
 995              	.LVL147:
 996              	.LBB103:
 997              	.LBB104:
1523:Drivers/lvgl/lvgl/src/draw/lv_draw_mask.c ****     if(mask_new <= LV_OPA_MIN) return 0;
 998              		.loc 1 1523 0
 999 018e FC2D     		cmp	r5, #252
 1000 0190 0ED8     		bhi	.L79
1524:Drivers/lvgl/lvgl/src/draw/lv_draw_mask.c **** 
 1001              		.loc 1 1524 0
 1002 0192 022D     		cmp	r5, #2
 1003 0194 0BD9     		bls	.L89
 1004              		.loc 1 1526 0
 1005 0196 05FB06F5 		mul	r5, r5, r6
 1006              	.LVL148:
 1007 019a 05EB0526 		add	r6, r5, r5, lsl #8
 1008              	.LVL149:
 1009 019e 05EBC615 		add	r5, r5, r6, lsl #7
 1010 01a2 C5F3C756 		ubfx	r6, r5, #23, #8
 1011 01a6 03E0     		b	.L79
 1012              	.LVL150:
 1013              	.L95:
ARM GAS  /tmp/cct67Zj5.s 			page 50


 1014              	.LBE104:
 1015              	.LBE103:
 745:Drivers/lvgl/lvgl/src/draw/lv_draw_mask.c ****         if(p->inv) m = 255 - m;
 1016              		.loc 1 745 0 discriminator 1
 1017 01a8 ED43     		mvns	r5, r5
 1018              	.LVL151:
 1019 01aa EDB2     		uxtb	r5, r5
 1020              	.LVL152:
 1021 01ac E6E7     		b	.L77
 1022              	.LVL153:
 1023              	.L89:
 1024              	.LBB106:
 1025              	.LBB105:
1524:Drivers/lvgl/lvgl/src/draw/lv_draw_mask.c **** 
 1026              		.loc 1 1524 0
 1027 01ae 0026     		movs	r6, #0
 1028              	.LVL154:
 1029              	.L79:
 1030              	.LBE105:
 1031              	.LBE106:
 747:Drivers/lvgl/lvgl/src/draw/lv_draw_mask.c ****     }
 1032              		.loc 1 747 0
 1033 01b0 3E70     		strb	r6, [r7]
 1034              	.L76:
 1035              	.LBE102:
 750:Drivers/lvgl/lvgl/src/draw/lv_draw_mask.c ****         k = xei - abs_x;
 1036              		.loc 1 750 0
 1037 01b2 94F82840 		ldrb	r4, [r4, #40]	@ zero_extendqisi2
 1038 01b6 14F0020F 		tst	r4, #2
 1039 01ba 09D0     		beq	.L80
 1040              	.LVL155:
 752:Drivers/lvgl/lvgl/src/draw/lv_draw_mask.c ****             return LV_DRAW_MASK_RES_TRANSP;
 1041              		.loc 1 752 0
 1042 01bc 8B42     		cmp	r3, r1
 1043 01be 1BDB     		blt	.L90
 755:Drivers/lvgl/lvgl/src/draw/lv_draw_mask.c ****             lv_memset_00(&mask_buf[0], k);
 1044              		.loc 1 755 0
 1045 01c0 0029     		cmp	r1, #0
 1046 01c2 01DA     		bge	.L96
 769:Drivers/lvgl/lvgl/src/draw/lv_draw_mask.c **** }
 1047              		.loc 1 769 0
 1048 01c4 0220     		movs	r0, #2
 1049              	.LVL156:
 1050 01c6 2CE7     		b	.L60
 1051              	.LVL157:
 1052              	.L96:
 756:Drivers/lvgl/lvgl/src/draw/lv_draw_mask.c ****         }
 1053              		.loc 1 756 0
 1054 01c8 FFF7FEFF 		bl	lv_memset_00
 1055              	.LVL158:
 769:Drivers/lvgl/lvgl/src/draw/lv_draw_mask.c **** }
 1056              		.loc 1 769 0
 1057 01cc 0220     		movs	r0, #2
 1058 01ce 28E7     		b	.L60
 1059              	.LVL159:
 1060              	.L80:
 761:Drivers/lvgl/lvgl/src/draw/lv_draw_mask.c ****             return LV_DRAW_MASK_RES_TRANSP;
ARM GAS  /tmp/cct67Zj5.s 			page 51


 1061              		.loc 1 761 0
 1062 01d0 0132     		adds	r2, r2, #1
 1063              	.LVL160:
 1064 01d2 13D4     		bmi	.L92
 764:Drivers/lvgl/lvgl/src/draw/lv_draw_mask.c ****             lv_memset_00(&mask_buf[k], len - k);
 1065              		.loc 1 764 0
 1066 01d4 9342     		cmp	r3, r2
 1067 01d6 01DA     		bge	.L97
 769:Drivers/lvgl/lvgl/src/draw/lv_draw_mask.c **** }
 1068              		.loc 1 769 0
 1069 01d8 0220     		movs	r0, #2
 1070              	.LVL161:
 1071 01da 22E7     		b	.L60
 1072              	.LVL162:
 1073              	.L97:
 765:Drivers/lvgl/lvgl/src/draw/lv_draw_mask.c ****         }
 1074              		.loc 1 765 0
 1075 01dc 991A     		subs	r1, r3, r2
 1076 01de 1044     		add	r0, r0, r2
 1077              	.LVL163:
 1078 01e0 FFF7FEFF 		bl	lv_memset_00
 1079              	.LVL164:
 769:Drivers/lvgl/lvgl/src/draw/lv_draw_mask.c **** }
 1080              		.loc 1 769 0
 1081 01e4 0220     		movs	r0, #2
 1082 01e6 1CE7     		b	.L60
 1083              	.LVL165:
 1084              	.L81:
 670:Drivers/lvgl/lvgl/src/draw/lv_draw_mask.c ****             }
 1085              		.loc 1 670 0
 1086 01e8 0020     		movs	r0, #0
 1087              	.LVL166:
 1088 01ea 1AE7     		b	.L60
 1089              	.LVL167:
 1090              	.L82:
 680:Drivers/lvgl/lvgl/src/draw/lv_draw_mask.c ****             }
 1091              		.loc 1 680 0
 1092 01ec 0020     		movs	r0, #0
 1093              	.LVL168:
 1094 01ee 18E7     		b	.L60
 1095              	.LVL169:
 1096              	.L83:
 694:Drivers/lvgl/lvgl/src/draw/lv_draw_mask.c ****             }
 1097              		.loc 1 694 0
 1098 01f0 0120     		movs	r0, #1
 1099              	.LVL170:
 1100 01f2 16E7     		b	.L60
 1101              	.LVL171:
 1102              	.L84:
 704:Drivers/lvgl/lvgl/src/draw/lv_draw_mask.c ****             }
 1103              		.loc 1 704 0
 1104 01f4 0120     		movs	r0, #1
 1105              	.LVL172:
 1106 01f6 14E7     		b	.L60
 1107              	.LVL173:
 1108              	.L90:
 753:Drivers/lvgl/lvgl/src/draw/lv_draw_mask.c ****         }
ARM GAS  /tmp/cct67Zj5.s 			page 52


 1109              		.loc 1 753 0
 1110 01f8 0020     		movs	r0, #0
 1111              	.LVL174:
 1112 01fa 12E7     		b	.L60
 1113              	.LVL175:
 1114              	.L92:
 762:Drivers/lvgl/lvgl/src/draw/lv_draw_mask.c ****         }
 1115              		.loc 1 762 0
 1116 01fc 0020     		movs	r0, #0
 1117              	.LVL176:
 1118 01fe 10E7     		b	.L60
 1119              		.cfi_endproc
 1120              	.LFE73:
 1122              		.section	.text.line_mask_steep,"ax",%progbits
 1123              		.align	1
 1124              		.syntax unified
 1125              		.thumb
 1126              		.thumb_func
 1127              		.fpu fpv5-d16
 1129              	line_mask_steep:
 1130              	.LFB74:
 775:Drivers/lvgl/lvgl/src/draw/lv_draw_mask.c ****     int32_t k;
 1131              		.loc 1 775 0
 1132              		.cfi_startproc
 1133              		@ args = 4, pretend = 0, frame = 0
 1134              		@ frame_needed = 0, uses_anonymous_args = 0
 1135              	.LVL177:
 1136 0000 F8B5     		push	{r3, r4, r5, r6, r7, lr}
 1137              	.LCFI9:
 1138              		.cfi_def_cfa_offset 24
 1139              		.cfi_offset 3, -24
 1140              		.cfi_offset 4, -20
 1141              		.cfi_offset 5, -16
 1142              		.cfi_offset 6, -12
 1143              		.cfi_offset 7, -8
 1144              		.cfi_offset 14, -4
 1145 0002 069E     		ldr	r6, [sp, #24]
 780:Drivers/lvgl/lvgl/src/draw/lv_draw_mask.c ****     if(p->xy_steep > 0) x_at_y++;
 1146              		.loc 1 780 0
 1147 0004 B569     		ldr	r5, [r6, #24]
 1148 0006 02FB05F4 		mul	r4, r2, r5
 1149 000a A412     		asrs	r4, r4, #10
 1150              	.LVL178:
 781:Drivers/lvgl/lvgl/src/draw/lv_draw_mask.c ****     if(x_at_y < abs_x) {
 1151              		.loc 1 781 0
 1152 000c 002D     		cmp	r5, #0
 1153 000e 0ADD     		ble	.L126
 781:Drivers/lvgl/lvgl/src/draw/lv_draw_mask.c ****     if(x_at_y < abs_x) {
 1154              		.loc 1 781 0 is_stmt 0 discriminator 1
 1155 0010 671C     		adds	r7, r4, #1
 1156              	.LVL179:
 1157              	.L99:
 782:Drivers/lvgl/lvgl/src/draw/lv_draw_mask.c ****         if(p->inv) {
 1158              		.loc 1 782 0 is_stmt 1
 1159 0012 B942     		cmp	r1, r7
 1160 0014 09DD     		ble	.L100
 783:Drivers/lvgl/lvgl/src/draw/lv_draw_mask.c ****             return LV_DRAW_MASK_RES_FULL_COVER;
ARM GAS  /tmp/cct67Zj5.s 			page 53


 1161              		.loc 1 783 0
 1162 0016 96F82830 		ldrb	r3, [r6, #40]	@ zero_extendqisi2
 1163              	.LVL180:
 1164 001a 13F0020F 		tst	r3, #2
 1165 001e 00F05C81 		beq	.L127
 784:Drivers/lvgl/lvgl/src/draw/lv_draw_mask.c ****         }
 1166              		.loc 1 784 0
 1167 0022 0120     		movs	r0, #1
 1168              	.LVL181:
 1169              	.L101:
 912:Drivers/lvgl/lvgl/src/draw/lv_draw_mask.c **** 
 1170              		.loc 1 912 0
 1171 0024 F8BD     		pop	{r3, r4, r5, r6, r7, pc}
 1172              	.LVL182:
 1173              	.L126:
 780:Drivers/lvgl/lvgl/src/draw/lv_draw_mask.c ****     if(p->xy_steep > 0) x_at_y++;
 1174              		.loc 1 780 0
 1175 0026 2746     		mov	r7, r4
 1176 0028 F3E7     		b	.L99
 1177              	.LVL183:
 1178              	.L100:
 794:Drivers/lvgl/lvgl/src/draw/lv_draw_mask.c ****         if(p->inv) {
 1179              		.loc 1 794 0
 1180 002a CF18     		adds	r7, r1, r3
 1181 002c A742     		cmp	r7, r4
 1182 002e 07DA     		bge	.L102
 795:Drivers/lvgl/lvgl/src/draw/lv_draw_mask.c ****             return LV_DRAW_MASK_RES_TRANSP;
 1183              		.loc 1 795 0
 1184 0030 96F82830 		ldrb	r3, [r6, #40]	@ zero_extendqisi2
 1185              	.LVL184:
 1186 0034 13F0020F 		tst	r3, #2
 1187 0038 00F05181 		beq	.L128
 796:Drivers/lvgl/lvgl/src/draw/lv_draw_mask.c ****         }
 1188              		.loc 1 796 0
 1189 003c 0020     		movs	r0, #0
 1190              	.LVL185:
 1191 003e F1E7     		b	.L101
 1192              	.LVL186:
 1193              	.L102:
 804:Drivers/lvgl/lvgl/src/draw/lv_draw_mask.c ****     int32_t xsi = xs >> 8;
 1194              		.loc 1 804 0
 1195 0040 1702     		lsls	r7, r2, #8
 1196 0042 07FB05F7 		mul	r7, r7, r5
 1197              	.LVL187:
 805:Drivers/lvgl/lvgl/src/draw/lv_draw_mask.c ****     int32_t xsf = xs & 0xFF;
 1198              		.loc 1 805 0
 1199 0046 BC14     		asrs	r4, r7, #18
 1200              	.LVL188:
 806:Drivers/lvgl/lvgl/src/draw/lv_draw_mask.c **** 
 1201              		.loc 1 806 0
 1202 0048 C7F3872C 		ubfx	ip, r7, #10, #8
 1203              	.LVL189:
 809:Drivers/lvgl/lvgl/src/draw/lv_draw_mask.c ****     int32_t xei = xe >> 8;
 1204              		.loc 1 809 0
 1205 004c 0132     		adds	r2, r2, #1
 1206              	.LVL190:
 1207 004e 1202     		lsls	r2, r2, #8
ARM GAS  /tmp/cct67Zj5.s 			page 54


 1208              	.LVL191:
 1209 0050 02FB05F2 		mul	r2, r2, r5
 1210              	.LVL192:
 810:Drivers/lvgl/lvgl/src/draw/lv_draw_mask.c ****     int32_t xef = xe & 0xFF;
 1211              		.loc 1 810 0
 1212 0054 4FEAA24E 		asr	lr, r2, #18
 1213              	.LVL193:
 811:Drivers/lvgl/lvgl/src/draw/lv_draw_mask.c **** 
 1214              		.loc 1 811 0
 1215 0058 C2F38722 		ubfx	r2, r2, #10, #8
 1216              	.LVL194:
 815:Drivers/lvgl/lvgl/src/draw/lv_draw_mask.c ****     if(xsi != xei && (p->xy_steep < 0 && xsf == 0)) {
 1217              		.loc 1 815 0
 1218 005c 671A     		subs	r7, r4, r1
 1219              	.LVL195:
 816:Drivers/lvgl/lvgl/src/draw/lv_draw_mask.c ****         xsf = 0xFF;
 1220              		.loc 1 816 0
 1221 005e 7445     		cmp	r4, lr
 1222 0060 01D0     		beq	.L103
 816:Drivers/lvgl/lvgl/src/draw/lv_draw_mask.c ****         xsf = 0xFF;
 1223              		.loc 1 816 0 is_stmt 0 discriminator 1
 1224 0062 002D     		cmp	r5, #0
 1225 0064 30DB     		blt	.L149
 1226              	.LVL196:
 1227              	.L103:
 822:Drivers/lvgl/lvgl/src/draw/lv_draw_mask.c ****         if(k >= 0 && k < len) {
 1228              		.loc 1 822 0 is_stmt 1
 1229 0066 7445     		cmp	r4, lr
 1230 0068 36D0     		beq	.L150
 1231              	.LBB107:
 847:Drivers/lvgl/lvgl/src/draw/lv_draw_mask.c ****             y_inters = (xsf * (-p->yx_steep)) >> 10;
 1232              		.loc 1 847 0
 1233 006a 002D     		cmp	r5, #0
 1234 006c 77DB     		blt	.L151
 1235              	.LBB108:
 880:Drivers/lvgl/lvgl/src/draw/lv_draw_mask.c ****             if(k >= 0 && k < len) {
 1236              		.loc 1 880 0
 1237 006e CCF1FF02 		rsb	r2, ip, #255
 1238              	.LVL197:
 1239 0072 F569     		ldr	r5, [r6, #28]
 1240 0074 05FB02F5 		mul	r5, r5, r2
 1241 0078 AD12     		asrs	r5, r5, #10
 1242              	.LVL198:
 881:Drivers/lvgl/lvgl/src/draw/lv_draw_mask.c ****                 m = 255 - ((y_inters * (255 - xsf)) >> 9);
 1243              		.loc 1 881 0
 1244 007a 002F     		cmp	r7, #0
 1245 007c C0F2E680 		blt	.L118
 881:Drivers/lvgl/lvgl/src/draw/lv_draw_mask.c ****                 m = 255 - ((y_inters * (255 - xsf)) >> 9);
 1246              		.loc 1 881 0 is_stmt 0 discriminator 1
 1247 0080 BB42     		cmp	r3, r7
 1248 0082 40F3E380 		ble	.L118
 882:Drivers/lvgl/lvgl/src/draw/lv_draw_mask.c ****                 if(p->inv) m = 255 - m;
 1249              		.loc 1 882 0 is_stmt 1
 1250 0086 05FB02F2 		mul	r2, r5, r2
 1251 008a C2F34722 		ubfx	r2, r2, #9, #8
 1252 008e 6FEA020C 		mvn	ip, r2
 1253              	.LVL199:
ARM GAS  /tmp/cct67Zj5.s 			page 55


 1254 0092 5FFA8CFC 		uxtb	ip, ip
 1255              	.LVL200:
 883:Drivers/lvgl/lvgl/src/draw/lv_draw_mask.c ****                 mask_buf[k] = mask_mix(mask_buf[k], m);
 1256              		.loc 1 883 0
 1257 0096 96F828E0 		ldrb	lr, [r6, #40]	@ zero_extendqisi2
 1258              	.LVL201:
 1259 009a 1EF0020F 		tst	lr, #2
 1260 009e 00D1     		bne	.L119
 882:Drivers/lvgl/lvgl/src/draw/lv_draw_mask.c ****                 if(p->inv) m = 255 - m;
 1261              		.loc 1 882 0
 1262 00a0 6246     		mov	r2, ip
 1263              	.L119:
 1264              	.LVL202:
 884:Drivers/lvgl/lvgl/src/draw/lv_draw_mask.c ****             }
 1265              		.loc 1 884 0
 1266 00a2 00EB070E 		add	lr, r0, r7
 1267 00a6 10F807C0 		ldrb	ip, [r0, r7]	@ zero_extendqisi2
 1268              	.LVL203:
 1269              	.LBB109:
 1270              	.LBB110:
1523:Drivers/lvgl/lvgl/src/draw/lv_draw_mask.c ****     if(mask_new <= LV_OPA_MIN) return 0;
 1271              		.loc 1 1523 0
 1272 00aa FC2A     		cmp	r2, #252
 1273 00ac 00F2CC80 		bhi	.L120
1524:Drivers/lvgl/lvgl/src/draw/lv_draw_mask.c **** 
 1274              		.loc 1 1524 0
 1275 00b0 022A     		cmp	r2, #2
 1276 00b2 40F2C780 		bls	.L141
 1277              		.loc 1 1526 0
 1278 00b6 02FB0CF2 		mul	r2, r2, ip
 1279              	.LVL204:
 1280 00ba 02EB022C 		add	ip, r2, r2, lsl #8
 1281              	.LVL205:
 1282 00be 02EBCC12 		add	r2, r2, ip, lsl #7
 1283 00c2 C2F3C75C 		ubfx	ip, r2, #23, #8
 1284 00c6 BFE0     		b	.L120
 1285              	.LVL206:
 1286              	.L149:
 1287              	.LBE110:
 1288              	.LBE109:
 1289              	.LBE108:
 1290              	.LBE107:
 816:Drivers/lvgl/lvgl/src/draw/lv_draw_mask.c ****         xsf = 0xFF;
 1291              		.loc 1 816 0 discriminator 2
 1292 00c8 BCF1000F 		cmp	ip, #0
 1293 00cc CBD1     		bne	.L103
 1294              	.LVL207:
 819:Drivers/lvgl/lvgl/src/draw/lv_draw_mask.c ****     }
 1295              		.loc 1 819 0
 1296 00ce 013F     		subs	r7, r7, #1
 1297              	.LVL208:
 818:Drivers/lvgl/lvgl/src/draw/lv_draw_mask.c ****         k--;
 1298              		.loc 1 818 0
 1299 00d0 7446     		mov	r4, lr
 817:Drivers/lvgl/lvgl/src/draw/lv_draw_mask.c ****         xsi = xei;
 1300              		.loc 1 817 0
 1301 00d2 4FF0FF0C 		mov	ip, #255
ARM GAS  /tmp/cct67Zj5.s 			page 56


 1302 00d6 C6E7     		b	.L103
 1303              	.LVL209:
 1304              	.L150:
 823:Drivers/lvgl/lvgl/src/draw/lv_draw_mask.c ****             m = (xsf + xef) >> 1;
 1305              		.loc 1 823 0
 1306 00d8 002F     		cmp	r7, #0
 1307 00da 1CDB     		blt	.L105
 823:Drivers/lvgl/lvgl/src/draw/lv_draw_mask.c ****             m = (xsf + xef) >> 1;
 1308              		.loc 1 823 0 is_stmt 0 discriminator 1
 1309 00dc BB42     		cmp	r3, r7
 1310 00de 1ADD     		ble	.L105
 824:Drivers/lvgl/lvgl/src/draw/lv_draw_mask.c ****             if(p->inv) m = 255 - m;
 1311              		.loc 1 824 0 is_stmt 1
 1312 00e0 6244     		add	r2, r2, ip
 1313              	.LVL210:
 1314 00e2 C2F34702 		ubfx	r2, r2, #1, #8
 1315              	.LVL211:
 825:Drivers/lvgl/lvgl/src/draw/lv_draw_mask.c ****             mask_buf[k] = mask_mix(mask_buf[k], m);
 1316              		.loc 1 825 0
 1317 00e6 96F82850 		ldrb	r5, [r6, #40]	@ zero_extendqisi2
 1318 00ea 15F0020F 		tst	r5, #2
 1319 00ee 01D0     		beq	.L106
 825:Drivers/lvgl/lvgl/src/draw/lv_draw_mask.c ****             mask_buf[k] = mask_mix(mask_buf[k], m);
 1320              		.loc 1 825 0 is_stmt 0 discriminator 1
 1321 00f0 D243     		mvns	r2, r2
 1322              	.LVL212:
 1323 00f2 D2B2     		uxtb	r2, r2
 1324              	.LVL213:
 1325              	.L106:
 826:Drivers/lvgl/lvgl/src/draw/lv_draw_mask.c ****         }
 1326              		.loc 1 826 0 is_stmt 1
 1327 00f4 00EB070C 		add	ip, r0, r7
 1328              	.LVL214:
 1329 00f8 C55D     		ldrb	r5, [r0, r7]	@ zero_extendqisi2
 1330              	.LVL215:
 1331              	.LBB133:
 1332              	.LBB134:
1523:Drivers/lvgl/lvgl/src/draw/lv_draw_mask.c ****     if(mask_new <= LV_OPA_MIN) return 0;
 1333              		.loc 1 1523 0
 1334 00fa FC2A     		cmp	r2, #252
 1335 00fc 09D8     		bhi	.L107
1524:Drivers/lvgl/lvgl/src/draw/lv_draw_mask.c **** 
 1336              		.loc 1 1524 0
 1337 00fe 022A     		cmp	r2, #2
 1338 0100 17D9     		bls	.L129
 1339              		.loc 1 1526 0
 1340 0102 05FB02F2 		mul	r2, r5, r2
 1341              	.LVL216:
 1342 0106 02EB0225 		add	r5, r2, r2, lsl #8
 1343              	.LVL217:
 1344 010a 02EBC512 		add	r2, r2, r5, lsl #7
 1345 010e C2F3C755 		ubfx	r5, r2, #23, #8
 1346              	.L107:
 1347              	.LVL218:
 1348              	.LBE134:
 1349              	.LBE133:
 826:Drivers/lvgl/lvgl/src/draw/lv_draw_mask.c ****         }
ARM GAS  /tmp/cct67Zj5.s 			page 57


 1350              		.loc 1 826 0
 1351 0112 8CF80050 		strb	r5, [ip]
 1352              	.L105:
 828:Drivers/lvgl/lvgl/src/draw/lv_draw_mask.c **** 
 1353              		.loc 1 828 0
 1354 0116 0137     		adds	r7, r7, #1
 1355              	.LVL219:
 830:Drivers/lvgl/lvgl/src/draw/lv_draw_mask.c ****             k = xsi - abs_x;
 1356              		.loc 1 830 0
 1357 0118 96F82820 		ldrb	r2, [r6, #40]	@ zero_extendqisi2
 1358 011c 12F0020F 		tst	r2, #2
 1359 0120 0DD0     		beq	.L108
 831:Drivers/lvgl/lvgl/src/draw/lv_draw_mask.c ****             if(k >= len) {
 1360              		.loc 1 831 0
 1361 0122 611A     		subs	r1, r4, r1
 1362              	.LVL220:
 832:Drivers/lvgl/lvgl/src/draw/lv_draw_mask.c ****                 return LV_DRAW_MASK_RES_TRANSP;
 1363              		.loc 1 832 0
 1364 0124 8B42     		cmp	r3, r1
 1365 0126 40F3DC80 		ble	.L130
 835:Drivers/lvgl/lvgl/src/draw/lv_draw_mask.c **** 
 1366              		.loc 1 835 0
 1367 012a 0029     		cmp	r1, #0
 1368 012c 03DA     		bge	.L152
 911:Drivers/lvgl/lvgl/src/draw/lv_draw_mask.c **** }
 1369              		.loc 1 911 0
 1370 012e 0220     		movs	r0, #2
 1371              	.LVL221:
 1372 0130 78E7     		b	.L101
 1373              	.LVL222:
 1374              	.L129:
 1375              	.LBB136:
 1376              	.LBB135:
1524:Drivers/lvgl/lvgl/src/draw/lv_draw_mask.c **** 
 1377              		.loc 1 1524 0
 1378 0132 0025     		movs	r5, #0
 1379              	.LVL223:
 1380 0134 EDE7     		b	.L107
 1381              	.LVL224:
 1382              	.L152:
 1383              	.LBE135:
 1384              	.LBE136:
 835:Drivers/lvgl/lvgl/src/draw/lv_draw_mask.c **** 
 1385              		.loc 1 835 0 discriminator 1
 1386 0136 FFF7FEFF 		bl	lv_memset_00
 1387              	.LVL225:
 911:Drivers/lvgl/lvgl/src/draw/lv_draw_mask.c **** }
 1388              		.loc 1 911 0 discriminator 1
 1389 013a 0220     		movs	r0, #2
 1390 013c 72E7     		b	.L101
 1391              	.LVL226:
 1392              	.L108:
 839:Drivers/lvgl/lvgl/src/draw/lv_draw_mask.c ****             if(k == 0) return LV_DRAW_MASK_RES_TRANSP;
 1393              		.loc 1 839 0
 1394 013e BB42     		cmp	r3, r7
 1395 0140 00DA     		bge	.L109
 1396 0142 1F46     		mov	r7, r3
ARM GAS  /tmp/cct67Zj5.s 			page 58


 1397              	.LVL227:
 1398              	.L109:
 840:Drivers/lvgl/lvgl/src/draw/lv_draw_mask.c ****             else if(k > 0) lv_memset_00(&mask_buf[k],  len - k);
 1399              		.loc 1 840 0
 1400 0144 002F     		cmp	r7, #0
 1401 0146 00F0CE80 		beq	.L133
 841:Drivers/lvgl/lvgl/src/draw/lv_draw_mask.c ****         }
 1402              		.loc 1 841 0
 1403 014a 002F     		cmp	r7, #0
 1404 014c 01DC     		bgt	.L153
 911:Drivers/lvgl/lvgl/src/draw/lv_draw_mask.c **** }
 1405              		.loc 1 911 0
 1406 014e 0220     		movs	r0, #2
 1407              	.LVL228:
 1408 0150 68E7     		b	.L101
 1409              	.LVL229:
 1410              	.L153:
 841:Drivers/lvgl/lvgl/src/draw/lv_draw_mask.c ****         }
 1411              		.loc 1 841 0 discriminator 1
 1412 0152 D91B     		subs	r1, r3, r7
 1413              	.LVL230:
 1414 0154 3844     		add	r0, r0, r7
 1415              	.LVL231:
 1416 0156 FFF7FEFF 		bl	lv_memset_00
 1417              	.LVL232:
 911:Drivers/lvgl/lvgl/src/draw/lv_draw_mask.c **** }
 1418              		.loc 1 911 0 discriminator 1
 1419 015a 0220     		movs	r0, #2
 1420 015c 62E7     		b	.L101
 1421              	.LVL233:
 1422              	.L151:
 1423              	.LBB137:
 1424              	.LBB115:
 848:Drivers/lvgl/lvgl/src/draw/lv_draw_mask.c ****             if(k >= 0 && k < len) {
 1425              		.loc 1 848 0
 1426 015e F269     		ldr	r2, [r6, #28]
 1427              	.LVL234:
 1428 0160 5242     		negs	r2, r2
 1429 0162 0CFB02F2 		mul	r2, ip, r2
 1430 0166 9212     		asrs	r2, r2, #10
 1431              	.LVL235:
 849:Drivers/lvgl/lvgl/src/draw/lv_draw_mask.c ****                 m = (y_inters * xsf) >> 9;
 1432              		.loc 1 849 0
 1433 0168 002F     		cmp	r7, #0
 1434 016a 21DB     		blt	.L111
 849:Drivers/lvgl/lvgl/src/draw/lv_draw_mask.c ****                 m = (y_inters * xsf) >> 9;
 1435              		.loc 1 849 0 is_stmt 0 discriminator 1
 1436 016c BB42     		cmp	r3, r7
 1437 016e 1FDD     		ble	.L111
 850:Drivers/lvgl/lvgl/src/draw/lv_draw_mask.c ****                 if(p->inv) m = 255 - m;
 1438              		.loc 1 850 0 is_stmt 1
 1439 0170 02FB0CFC 		mul	ip, r2, ip
 1440              	.LVL236:
 1441 0174 CCF3472C 		ubfx	ip, ip, #9, #8
 1442              	.LVL237:
 851:Drivers/lvgl/lvgl/src/draw/lv_draw_mask.c ****                 mask_buf[k] = mask_mix(mask_buf[k], m);
 1443              		.loc 1 851 0
ARM GAS  /tmp/cct67Zj5.s 			page 59


 1444 0178 96F82850 		ldrb	r5, [r6, #40]	@ zero_extendqisi2
 1445 017c 15F0020F 		tst	r5, #2
 1446 0180 03D0     		beq	.L112
 851:Drivers/lvgl/lvgl/src/draw/lv_draw_mask.c ****                 mask_buf[k] = mask_mix(mask_buf[k], m);
 1447              		.loc 1 851 0 is_stmt 0 discriminator 1
 1448 0182 6FEA0C0C 		mvn	ip, ip
 1449              	.LVL238:
 1450 0186 5FFA8CFC 		uxtb	ip, ip
 1451              	.LVL239:
 1452              	.L112:
 852:Drivers/lvgl/lvgl/src/draw/lv_draw_mask.c ****             }
 1453              		.loc 1 852 0 is_stmt 1
 1454 018a 00EB070E 		add	lr, r0, r7
 1455              	.LVL240:
 1456 018e C55D     		ldrb	r5, [r0, r7]	@ zero_extendqisi2
 1457              	.LVL241:
 1458              	.LBB116:
 1459              	.LBB117:
1523:Drivers/lvgl/lvgl/src/draw/lv_draw_mask.c ****     if(mask_new <= LV_OPA_MIN) return 0;
 1460              		.loc 1 1523 0
 1461 0190 BCF1FC0F 		cmp	ip, #252
 1462 0194 0AD8     		bhi	.L113
1524:Drivers/lvgl/lvgl/src/draw/lv_draw_mask.c **** 
 1463              		.loc 1 1524 0
 1464 0196 BCF1020F 		cmp	ip, #2
 1465 019a 3FD9     		bls	.L135
 1466              		.loc 1 1526 0
 1467 019c 0CFB05FC 		mul	ip, ip, r5
 1468              	.LVL242:
 1469 01a0 0CEB0C25 		add	r5, ip, ip, lsl #8
 1470              	.LVL243:
 1471 01a4 0CEBC51C 		add	ip, ip, r5, lsl #7
 1472 01a8 CCF3C755 		ubfx	r5, ip, #23, #8
 1473              	.L113:
 1474              	.LVL244:
 1475              	.LBE117:
 1476              	.LBE116:
 852:Drivers/lvgl/lvgl/src/draw/lv_draw_mask.c ****             }
 1477              		.loc 1 852 0
 1478 01ac 8EF80050 		strb	r5, [lr]
 1479              	.L111:
 1480              	.LVL245:
 856:Drivers/lvgl/lvgl/src/draw/lv_draw_mask.c **** 
 1481              		.loc 1 856 0
 1482 01b0 C2F1FF05 		rsb	r5, r2, #255
 1483 01b4 B269     		ldr	r2, [r6, #24]
 1484              	.LVL246:
 1485 01b6 5242     		negs	r2, r2
 1486 01b8 02FB05F2 		mul	r2, r2, r5
 1487 01bc 9212     		asrs	r2, r2, #10
 1488              	.LVL247:
 858:Drivers/lvgl/lvgl/src/draw/lv_draw_mask.c ****                 m = 255 - (((255 - y_inters) * x_inters) >> 9);
 1489              		.loc 1 858 0
 1490 01be B7F1010C 		subs	ip, r7, #1
 1491              	.LVL248:
 1492 01c2 1DD4     		bmi	.L114
 858:Drivers/lvgl/lvgl/src/draw/lv_draw_mask.c ****                 m = 255 - (((255 - y_inters) * x_inters) >> 9);
ARM GAS  /tmp/cct67Zj5.s 			page 60


 1493              		.loc 1 858 0 is_stmt 0 discriminator 1
 1494 01c4 6345     		cmp	r3, ip
 1495 01c6 1BDD     		ble	.L114
 859:Drivers/lvgl/lvgl/src/draw/lv_draw_mask.c ****                 if(p->inv) m = 255 - m;
 1496              		.loc 1 859 0 is_stmt 1
 1497 01c8 02FB05F2 		mul	r2, r2, r5
 1498              	.LVL249:
 1499 01cc C2F34722 		ubfx	r2, r2, #9, #8
 1500 01d0 D543     		mvns	r5, r2
 1501              	.LVL250:
 1502 01d2 EDB2     		uxtb	r5, r5
 1503              	.LVL251:
 860:Drivers/lvgl/lvgl/src/draw/lv_draw_mask.c ****                 mask_buf[k] = mask_mix(mask_buf[k], m);
 1504              		.loc 1 860 0
 1505 01d4 96F828E0 		ldrb	lr, [r6, #40]	@ zero_extendqisi2
 1506 01d8 1EF0020F 		tst	lr, #2
 1507 01dc 00D1     		bne	.L115
 859:Drivers/lvgl/lvgl/src/draw/lv_draw_mask.c ****                 if(p->inv) m = 255 - m;
 1508              		.loc 1 859 0
 1509 01de 2A46     		mov	r2, r5
 1510              	.L115:
 1511              	.LVL252:
 861:Drivers/lvgl/lvgl/src/draw/lv_draw_mask.c ****             }
 1512              		.loc 1 861 0
 1513 01e0 10F80C50 		ldrb	r5, [r0, ip]	@ zero_extendqisi2
 1514              	.LVL253:
 1515              	.LBB119:
 1516              	.LBB120:
1523:Drivers/lvgl/lvgl/src/draw/lv_draw_mask.c ****     if(mask_new <= LV_OPA_MIN) return 0;
 1517              		.loc 1 1523 0
 1518 01e4 FC2A     		cmp	r2, #252
 1519 01e6 09D8     		bhi	.L116
1524:Drivers/lvgl/lvgl/src/draw/lv_draw_mask.c **** 
 1520              		.loc 1 1524 0
 1521 01e8 022A     		cmp	r2, #2
 1522 01ea 19D9     		bls	.L136
 1523              		.loc 1 1526 0
 1524 01ec 02FB05F2 		mul	r2, r2, r5
 1525              	.LVL254:
 1526 01f0 02EB0225 		add	r5, r2, r2, lsl #8
 1527              	.LVL255:
 1528 01f4 02EBC512 		add	r2, r2, r5, lsl #7
 1529 01f8 C2F3C755 		ubfx	r5, r2, #23, #8
 1530              	.L116:
 1531              	.LVL256:
 1532              	.LBE120:
 1533              	.LBE119:
 861:Drivers/lvgl/lvgl/src/draw/lv_draw_mask.c ****             }
 1534              		.loc 1 861 0
 1535 01fc 00F80C50 		strb	r5, [r0, ip]
 1536              	.L114:
 864:Drivers/lvgl/lvgl/src/draw/lv_draw_mask.c **** 
 1537              		.loc 1 864 0
 1538 0200 0137     		adds	r7, r7, #1
 1539              	.LVL257:
 866:Drivers/lvgl/lvgl/src/draw/lv_draw_mask.c ****                 k = xsi - abs_x - 1;
 1540              		.loc 1 866 0
ARM GAS  /tmp/cct67Zj5.s 			page 61


 1541 0202 96F82820 		ldrb	r2, [r6, #40]	@ zero_extendqisi2
 1542 0206 12F0020F 		tst	r2, #2
 1543 020a 0FD0     		beq	.L117
 867:Drivers/lvgl/lvgl/src/draw/lv_draw_mask.c **** 
 1544              		.loc 1 867 0
 1545 020c 611A     		subs	r1, r4, r1
 1546              	.LVL258:
 1547 020e 0139     		subs	r1, r1, #1
 1548              	.LVL259:
 869:Drivers/lvgl/lvgl/src/draw/lv_draw_mask.c ****                 else if(k > 0) lv_memset_00(&mask_buf[0],  k);
 1549              		.loc 1 869 0
 1550 0210 8B42     		cmp	r3, r1
 1551 0212 6ADB     		blt	.L137
 870:Drivers/lvgl/lvgl/src/draw/lv_draw_mask.c **** 
 1552              		.loc 1 870 0
 1553 0214 0029     		cmp	r1, #0
 1554 0216 05DC     		bgt	.L154
 1555              	.LBE115:
 1556              	.LBE137:
 911:Drivers/lvgl/lvgl/src/draw/lv_draw_mask.c **** }
 1557              		.loc 1 911 0
 1558 0218 0220     		movs	r0, #2
 1559              	.LVL260:
 1560 021a 03E7     		b	.L101
 1561              	.LVL261:
 1562              	.L135:
 1563              	.LBB138:
 1564              	.LBB124:
 1565              	.LBB122:
 1566              	.LBB118:
1524:Drivers/lvgl/lvgl/src/draw/lv_draw_mask.c **** 
 1567              		.loc 1 1524 0
 1568 021c 0025     		movs	r5, #0
 1569              	.LVL262:
 1570 021e C5E7     		b	.L113
 1571              	.LVL263:
 1572              	.L136:
 1573              	.LBE118:
 1574              	.LBE122:
 1575              	.LBB123:
 1576              	.LBB121:
 1577 0220 0025     		movs	r5, #0
 1578              	.LVL264:
 1579 0222 EBE7     		b	.L116
 1580              	.LVL265:
 1581              	.L154:
 1582              	.LBE121:
 1583              	.LBE123:
 870:Drivers/lvgl/lvgl/src/draw/lv_draw_mask.c **** 
 1584              		.loc 1 870 0 discriminator 1
 1585 0224 FFF7FEFF 		bl	lv_memset_00
 1586              	.LVL266:
 1587              	.LBE124:
 1588              	.LBE138:
 911:Drivers/lvgl/lvgl/src/draw/lv_draw_mask.c **** }
 1589              		.loc 1 911 0 discriminator 1
 1590 0228 0220     		movs	r0, #2
ARM GAS  /tmp/cct67Zj5.s 			page 62


 1591 022a FBE6     		b	.L101
 1592              	.LVL267:
 1593              	.L117:
 1594              	.LBB139:
 1595              	.LBB125:
 874:Drivers/lvgl/lvgl/src/draw/lv_draw_mask.c ****                 if(k >= 0) lv_memset_00(&mask_buf[k],  len - k);
 1596              		.loc 1 874 0
 1597 022c BB42     		cmp	r3, r7
 1598 022e 5EDB     		blt	.L139
 875:Drivers/lvgl/lvgl/src/draw/lv_draw_mask.c ****             }
 1599              		.loc 1 875 0
 1600 0230 002F     		cmp	r7, #0
 1601 0232 01DA     		bge	.L155
 1602              	.LBE125:
 1603              	.LBE139:
 911:Drivers/lvgl/lvgl/src/draw/lv_draw_mask.c **** }
 1604              		.loc 1 911 0
 1605 0234 0220     		movs	r0, #2
 1606              	.LVL268:
 1607 0236 F5E6     		b	.L101
 1608              	.LVL269:
 1609              	.L155:
 1610              	.LBB140:
 1611              	.LBB126:
 875:Drivers/lvgl/lvgl/src/draw/lv_draw_mask.c ****             }
 1612              		.loc 1 875 0 discriminator 1
 1613 0238 D91B     		subs	r1, r3, r7
 1614              	.LVL270:
 1615 023a 3844     		add	r0, r0, r7
 1616              	.LVL271:
 1617 023c FFF7FEFF 		bl	lv_memset_00
 1618              	.LVL272:
 1619              	.LBE126:
 1620              	.LBE140:
 911:Drivers/lvgl/lvgl/src/draw/lv_draw_mask.c **** }
 1621              		.loc 1 911 0 discriminator 1
 1622 0240 0220     		movs	r0, #2
 1623 0242 EFE6     		b	.L101
 1624              	.LVL273:
 1625              	.L141:
 1626              	.LBB141:
 1627              	.LBB127:
 1628              	.LBB112:
 1629              	.LBB111:
1524:Drivers/lvgl/lvgl/src/draw/lv_draw_mask.c **** 
 1630              		.loc 1 1524 0
 1631 0244 4FF0000C 		mov	ip, #0
 1632              	.LVL274:
 1633              	.L120:
 1634              	.LBE111:
 1635              	.LBE112:
 884:Drivers/lvgl/lvgl/src/draw/lv_draw_mask.c ****             }
 1636              		.loc 1 884 0
 1637 0248 8EF800C0 		strb	ip, [lr]
 1638              	.L118:
 1639              	.LVL275:
 889:Drivers/lvgl/lvgl/src/draw/lv_draw_mask.c ****             if(k >= 0 && k < len) {
ARM GAS  /tmp/cct67Zj5.s 			page 63


 1640              		.loc 1 889 0
 1641 024c C5F1FF05 		rsb	r5, r5, #255
 1642              	.LVL276:
 1643 0250 B269     		ldr	r2, [r6, #24]
 1644 0252 02FB05F2 		mul	r2, r2, r5
 1645 0256 9212     		asrs	r2, r2, #10
 1646              	.LVL277:
 890:Drivers/lvgl/lvgl/src/draw/lv_draw_mask.c ****                 m = ((255 - y_inters) * x_inters) >> 9;
 1647              		.loc 1 890 0
 1648 0258 17F1010C 		adds	ip, r7, #1
 1649              	.LVL278:
 1650 025c 1ED4     		bmi	.L121
 890:Drivers/lvgl/lvgl/src/draw/lv_draw_mask.c ****                 m = ((255 - y_inters) * x_inters) >> 9;
 1651              		.loc 1 890 0 is_stmt 0 discriminator 1
 1652 025e 6345     		cmp	r3, ip
 1653 0260 1CDD     		ble	.L121
 891:Drivers/lvgl/lvgl/src/draw/lv_draw_mask.c ****                 if(p->inv) m = 255 - m;
 1654              		.loc 1 891 0 is_stmt 1
 1655 0262 02FB05F2 		mul	r2, r2, r5
 1656              	.LVL279:
 1657 0266 C2F34722 		ubfx	r2, r2, #9, #8
 1658              	.LVL280:
 892:Drivers/lvgl/lvgl/src/draw/lv_draw_mask.c ****                 mask_buf[k] = mask_mix(mask_buf[k], m);
 1659              		.loc 1 892 0
 1660 026a 96F82850 		ldrb	r5, [r6, #40]	@ zero_extendqisi2
 1661              	.LVL281:
 1662 026e 15F0020F 		tst	r5, #2
 1663 0272 01D0     		beq	.L122
 892:Drivers/lvgl/lvgl/src/draw/lv_draw_mask.c ****                 mask_buf[k] = mask_mix(mask_buf[k], m);
 1664              		.loc 1 892 0 is_stmt 0 discriminator 1
 1665 0274 D243     		mvns	r2, r2
 1666              	.LVL282:
 1667 0276 D2B2     		uxtb	r2, r2
 1668              	.LVL283:
 1669              	.L122:
 893:Drivers/lvgl/lvgl/src/draw/lv_draw_mask.c ****             }
 1670              		.loc 1 893 0 is_stmt 1
 1671 0278 10F80C50 		ldrb	r5, [r0, ip]	@ zero_extendqisi2
 1672              	.LVL284:
 1673              	.LBB113:
 1674              	.LBB114:
1523:Drivers/lvgl/lvgl/src/draw/lv_draw_mask.c ****     if(mask_new <= LV_OPA_MIN) return 0;
 1675              		.loc 1 1523 0
 1676 027c FC2A     		cmp	r2, #252
 1677 027e 0BD8     		bhi	.L123
1524:Drivers/lvgl/lvgl/src/draw/lv_draw_mask.c **** 
 1678              		.loc 1 1524 0
 1679 0280 022A     		cmp	r2, #2
 1680 0282 08D9     		bls	.L142
 1681              		.loc 1 1526 0
 1682 0284 02FB05F2 		mul	r2, r2, r5
 1683              	.LVL285:
 1684 0288 02EB0225 		add	r5, r2, r2, lsl #8
 1685              	.LVL286:
 1686 028c 02EBC512 		add	r2, r2, r5, lsl #7
 1687 0290 C2F3C755 		ubfx	r5, r2, #23, #8
 1688 0294 00E0     		b	.L123
ARM GAS  /tmp/cct67Zj5.s 			page 64


 1689              	.LVL287:
 1690              	.L142:
1524:Drivers/lvgl/lvgl/src/draw/lv_draw_mask.c **** 
 1691              		.loc 1 1524 0
 1692 0296 0025     		movs	r5, #0
 1693              	.LVL288:
 1694              	.L123:
 1695              	.LBE114:
 1696              	.LBE113:
 893:Drivers/lvgl/lvgl/src/draw/lv_draw_mask.c ****             }
 1697              		.loc 1 893 0
 1698 0298 00F80C50 		strb	r5, [r0, ip]
 1699              	.L121:
 895:Drivers/lvgl/lvgl/src/draw/lv_draw_mask.c **** 
 1700              		.loc 1 895 0
 1701 029c 0237     		adds	r7, r7, #2
 1702              	.LVL289:
 897:Drivers/lvgl/lvgl/src/draw/lv_draw_mask.c ****                 k = xsi - abs_x;
 1703              		.loc 1 897 0
 1704 029e 96F82820 		ldrb	r2, [r6, #40]	@ zero_extendqisi2
 1705 02a2 12F0020F 		tst	r2, #2
 1706 02a6 0AD0     		beq	.L124
 898:Drivers/lvgl/lvgl/src/draw/lv_draw_mask.c ****                 if(k > len)  return LV_DRAW_MASK_RES_TRANSP;
 1707              		.loc 1 898 0
 1708 02a8 611A     		subs	r1, r4, r1
 1709              	.LVL290:
 899:Drivers/lvgl/lvgl/src/draw/lv_draw_mask.c ****                 if(k >= 0) lv_memset_00(&mask_buf[0],  k);
 1710              		.loc 1 899 0
 1711 02aa 8B42     		cmp	r3, r1
 1712 02ac 21DB     		blt	.L143
 900:Drivers/lvgl/lvgl/src/draw/lv_draw_mask.c **** 
 1713              		.loc 1 900 0
 1714 02ae 0029     		cmp	r1, #0
 1715 02b0 01DA     		bge	.L156
 1716              	.LBE127:
 1717              	.LBE141:
 911:Drivers/lvgl/lvgl/src/draw/lv_draw_mask.c **** }
 1718              		.loc 1 911 0
 1719 02b2 0220     		movs	r0, #2
 1720              	.LVL291:
 1721 02b4 B6E6     		b	.L101
 1722              	.LVL292:
 1723              	.L156:
 1724              	.LBB142:
 1725              	.LBB128:
 900:Drivers/lvgl/lvgl/src/draw/lv_draw_mask.c **** 
 1726              		.loc 1 900 0 discriminator 1
 1727 02b6 FFF7FEFF 		bl	lv_memset_00
 1728              	.LVL293:
 1729              	.LBE128:
 1730              	.LBE142:
 911:Drivers/lvgl/lvgl/src/draw/lv_draw_mask.c **** }
 1731              		.loc 1 911 0 discriminator 1
 1732 02ba 0220     		movs	r0, #2
 1733 02bc B2E6     		b	.L101
 1734              	.LVL294:
 1735              	.L124:
ARM GAS  /tmp/cct67Zj5.s 			page 65


 1736              	.LBB143:
 1737              	.LBB129:
 904:Drivers/lvgl/lvgl/src/draw/lv_draw_mask.c ****                 if(k == 0) return LV_DRAW_MASK_RES_TRANSP;
 1738              		.loc 1 904 0
 1739 02be BB42     		cmp	r3, r7
 1740 02c0 00DA     		bge	.L125
 1741 02c2 1F46     		mov	r7, r3
 1742              	.LVL295:
 1743              	.L125:
 905:Drivers/lvgl/lvgl/src/draw/lv_draw_mask.c ****                 else if(k > 0) lv_memset_00(&mask_buf[k],  len - k);
 1744              		.loc 1 905 0
 1745 02c4 BFB1     		cbz	r7, .L146
 906:Drivers/lvgl/lvgl/src/draw/lv_draw_mask.c ****             }
 1746              		.loc 1 906 0
 1747 02c6 002F     		cmp	r7, #0
 1748 02c8 01DC     		bgt	.L157
 1749              	.LBE129:
 1750              	.LBE143:
 911:Drivers/lvgl/lvgl/src/draw/lv_draw_mask.c **** }
 1751              		.loc 1 911 0
 1752 02ca 0220     		movs	r0, #2
 1753              	.LVL296:
 1754 02cc AAE6     		b	.L101
 1755              	.LVL297:
 1756              	.L157:
 1757              	.LBB144:
 1758              	.LBB130:
 906:Drivers/lvgl/lvgl/src/draw/lv_draw_mask.c ****             }
 1759              		.loc 1 906 0 discriminator 1
 1760 02ce D91B     		subs	r1, r3, r7
 1761              	.LVL298:
 1762 02d0 3844     		add	r0, r0, r7
 1763              	.LVL299:
 1764 02d2 FFF7FEFF 		bl	lv_memset_00
 1765              	.LVL300:
 1766              	.LBE130:
 1767              	.LBE144:
 911:Drivers/lvgl/lvgl/src/draw/lv_draw_mask.c **** }
 1768              		.loc 1 911 0 discriminator 1
 1769 02d6 0220     		movs	r0, #2
 1770 02d8 A4E6     		b	.L101
 1771              	.LVL301:
 1772              	.L127:
 787:Drivers/lvgl/lvgl/src/draw/lv_draw_mask.c ****         }
 1773              		.loc 1 787 0
 1774 02da 0020     		movs	r0, #0
 1775              	.LVL302:
 1776 02dc A2E6     		b	.L101
 1777              	.LVL303:
 1778              	.L128:
 799:Drivers/lvgl/lvgl/src/draw/lv_draw_mask.c ****         }
 1779              		.loc 1 799 0
 1780 02de 0120     		movs	r0, #1
 1781              	.LVL304:
 1782 02e0 A0E6     		b	.L101
 1783              	.LVL305:
 1784              	.L130:
ARM GAS  /tmp/cct67Zj5.s 			page 66


 833:Drivers/lvgl/lvgl/src/draw/lv_draw_mask.c ****             }
 1785              		.loc 1 833 0
 1786 02e2 0020     		movs	r0, #0
 1787              	.LVL306:
 1788 02e4 9EE6     		b	.L101
 1789              	.LVL307:
 1790              	.L133:
 840:Drivers/lvgl/lvgl/src/draw/lv_draw_mask.c ****             else if(k > 0) lv_memset_00(&mask_buf[k],  len - k);
 1791              		.loc 1 840 0
 1792 02e6 0020     		movs	r0, #0
 1793              	.LVL308:
 1794 02e8 9CE6     		b	.L101
 1795              	.LVL309:
 1796              	.L137:
 911:Drivers/lvgl/lvgl/src/draw/lv_draw_mask.c **** }
 1797              		.loc 1 911 0
 1798 02ea 0220     		movs	r0, #2
 1799              	.LVL310:
 1800 02ec 9AE6     		b	.L101
 1801              	.LVL311:
 1802              	.L139:
 1803              	.LBB145:
 1804              	.LBB131:
 874:Drivers/lvgl/lvgl/src/draw/lv_draw_mask.c ****                 if(k >= 0) lv_memset_00(&mask_buf[k],  len - k);
 1805              		.loc 1 874 0
 1806 02ee 0120     		movs	r0, #1
 1807              	.LVL312:
 1808 02f0 98E6     		b	.L101
 1809              	.LVL313:
 1810              	.L143:
 1811              	.LBE131:
 1812              	.LBB132:
 899:Drivers/lvgl/lvgl/src/draw/lv_draw_mask.c ****                 if(k >= 0) lv_memset_00(&mask_buf[0],  k);
 1813              		.loc 1 899 0
 1814 02f2 0020     		movs	r0, #0
 1815              	.LVL314:
 1816 02f4 96E6     		b	.L101
 1817              	.LVL315:
 1818              	.L146:
 905:Drivers/lvgl/lvgl/src/draw/lv_draw_mask.c ****                 else if(k > 0) lv_memset_00(&mask_buf[k],  len - k);
 1819              		.loc 1 905 0
 1820 02f6 0020     		movs	r0, #0
 1821              	.LVL316:
 1822 02f8 94E6     		b	.L101
 1823              	.LBE132:
 1824              	.LBE145:
 1825              		.cfi_endproc
 1826              	.LFE74:
 1828              		.section	.text.lv_draw_mask_line,"ax",%progbits
 1829              		.align	1
 1830              		.syntax unified
 1831              		.thumb
 1832              		.thumb_func
 1833              		.fpu fpv5-d16
 1835              	lv_draw_mask_line:
 1836              	.LFB72:
 599:Drivers/lvgl/lvgl/src/draw/lv_draw_mask.c ****     /*Make to points relative to the vertex*/
ARM GAS  /tmp/cct67Zj5.s 			page 67


 1837              		.loc 1 599 0
 1838              		.cfi_startproc
 1839              		@ args = 4, pretend = 0, frame = 0
 1840              		@ frame_needed = 0, uses_anonymous_args = 0
 1841              	.LVL317:
 1842 0000 70B5     		push	{r4, r5, r6, lr}
 1843              	.LCFI10:
 1844              		.cfi_def_cfa_offset 16
 1845              		.cfi_offset 4, -16
 1846              		.cfi_offset 5, -12
 1847              		.cfi_offset 6, -8
 1848              		.cfi_offset 14, -4
 1849 0002 82B0     		sub	sp, sp, #8
 1850              	.LCFI11:
 1851              		.cfi_def_cfa_offset 24
 1852 0004 069C     		ldr	r4, [sp, #24]
 601:Drivers/lvgl/lvgl/src/draw/lv_draw_mask.c ****     abs_x -= p->origo.x;
 1853              		.loc 1 601 0
 1854 0006 A58A     		ldrh	r5, [r4, #20]
 1855 0008 521B     		subs	r2, r2, r5
 1856              	.LVL318:
 1857 000a 12B2     		sxth	r2, r2
 1858              	.LVL319:
 602:Drivers/lvgl/lvgl/src/draw/lv_draw_mask.c **** 
 1859              		.loc 1 602 0
 1860 000c 658A     		ldrh	r5, [r4, #18]
 1861 000e 491B     		subs	r1, r1, r5
 1862              	.LVL320:
 1863 0010 09B2     		sxth	r1, r1
 1864              	.LVL321:
 605:Drivers/lvgl/lvgl/src/draw/lv_draw_mask.c ****         /*Horizontal*/
 1865              		.loc 1 605 0
 1866 0012 266A     		ldr	r6, [r4, #32]
 1867 0014 002E     		cmp	r6, #0
 1868 0016 48D1     		bne	.L159
 607:Drivers/lvgl/lvgl/src/draw/lv_draw_mask.c ****             /*Non sense: Can't be on the right/left of a horizontal line*/
 1869              		.loc 1 607 0
 1870 0018 94F82850 		ldrb	r5, [r4, #40]	@ zero_extendqisi2
 1871 001c 15F0010F 		tst	r5, #1
 1872 0020 15D0     		beq	.L160
 609:Drivers/lvgl/lvgl/src/draw/lv_draw_mask.c ****                p->cfg.side == LV_DRAW_MASK_LINE_SIDE_RIGHT) return LV_DRAW_MASK_RES_FULL_COVER;
 1873              		.loc 1 609 0
 1874 0022 237C     		ldrb	r3, [r4, #16]	@ zero_extendqisi2
 1875              	.LVL322:
 1876 0024 03F00303 		and	r3, r3, #3
 1877 0028 012B     		cmp	r3, #1
 1878 002a 4CD9     		bls	.L167
 611:Drivers/lvgl/lvgl/src/draw/lv_draw_mask.c ****             else if(p->cfg.side == LV_DRAW_MASK_LINE_SIDE_BOTTOM && abs_y > 0) return LV_DRAW_MASK_
 1879              		.loc 1 611 0
 1880 002c 022B     		cmp	r3, #2
 1881 002e 03D0     		beq	.L180
 1882              	.L162:
 612:Drivers/lvgl/lvgl/src/draw/lv_draw_mask.c ****             else {
 1883              		.loc 1 612 0
 1884 0030 032B     		cmp	r3, #3
 1885 0032 06D0     		beq	.L181
 614:Drivers/lvgl/lvgl/src/draw/lv_draw_mask.c ****             }
ARM GAS  /tmp/cct67Zj5.s 			page 68


 1886              		.loc 1 614 0
 1887 0034 0020     		movs	r0, #0
 1888              	.LVL323:
 1889 0036 40E0     		b	.L161
 1890              	.LVL324:
 1891              	.L180:
 611:Drivers/lvgl/lvgl/src/draw/lv_draw_mask.c ****             else if(p->cfg.side == LV_DRAW_MASK_LINE_SIDE_BOTTOM && abs_y > 0) return LV_DRAW_MASK_
 1892              		.loc 1 611 0 discriminator 1
 1893 0038 12F1010F 		cmn	r2, #1
 1894 003c F8D5     		bpl	.L162
 611:Drivers/lvgl/lvgl/src/draw/lv_draw_mask.c ****             else if(p->cfg.side == LV_DRAW_MASK_LINE_SIDE_BOTTOM && abs_y > 0) return LV_DRAW_MASK_
 1895              		.loc 1 611 0 is_stmt 0
 1896 003e 0120     		movs	r0, #1
 1897              	.LVL325:
 1898 0040 3BE0     		b	.L161
 1899              	.LVL326:
 1900              	.L181:
 612:Drivers/lvgl/lvgl/src/draw/lv_draw_mask.c ****             else {
 1901              		.loc 1 612 0 is_stmt 1 discriminator 1
 1902 0042 002A     		cmp	r2, #0
 1903 0044 01DD     		ble	.L182
 612:Drivers/lvgl/lvgl/src/draw/lv_draw_mask.c ****             else {
 1904              		.loc 1 612 0 is_stmt 0
 1905 0046 0120     		movs	r0, #1
 1906              	.LVL327:
 1907 0048 37E0     		b	.L161
 1908              	.LVL328:
 1909              	.L182:
 614:Drivers/lvgl/lvgl/src/draw/lv_draw_mask.c ****             }
 1910              		.loc 1 614 0 is_stmt 1
 1911 004a 0020     		movs	r0, #0
 1912              	.LVL329:
 1913 004c 35E0     		b	.L161
 1914              	.LVL330:
 1915              	.L160:
 620:Drivers/lvgl/lvgl/src/draw/lv_draw_mask.c ****                p->cfg.side == LV_DRAW_MASK_LINE_SIDE_BOTTOM) return LV_DRAW_MASK_RES_FULL_COVER;
 1916              		.loc 1 620 0
 1917 004e 227C     		ldrb	r2, [r4, #16]	@ zero_extendqisi2
 1918              	.LVL331:
 1919 0050 02F00302 		and	r2, r2, #3
 1920 0054 941E     		subs	r4, r2, #2
 1921 0056 E4B2     		uxtb	r4, r4
 1922 0058 012C     		cmp	r4, #1
 1923 005a 36D9     		bls	.L171
 622:Drivers/lvgl/lvgl/src/draw/lv_draw_mask.c ****             else if(p->cfg.side == LV_DRAW_MASK_LINE_SIDE_LEFT) {
 1924              		.loc 1 622 0
 1925 005c 012A     		cmp	r2, #1
 1926 005e 09D0     		beq	.L183
 1927              	.L163:
 623:Drivers/lvgl/lvgl/src/draw/lv_draw_mask.c ****                 if(abs_x + len < 0) return LV_DRAW_MASK_RES_FULL_COVER;
 1928              		.loc 1 623 0
 1929 0060 92B9     		cbnz	r2, .L164
 624:Drivers/lvgl/lvgl/src/draw/lv_draw_mask.c ****                 else {
 1930              		.loc 1 624 0
 1931 0062 CA18     		adds	r2, r1, r3
 1932 0064 33D4     		bmi	.L173
 1933              	.LBB146:
ARM GAS  /tmp/cct67Zj5.s 			page 69


 626:Drivers/lvgl/lvgl/src/draw/lv_draw_mask.c ****                     if(k < 0) return LV_DRAW_MASK_RES_TRANSP;
 1934              		.loc 1 626 0
 1935 0066 4D42     		negs	r5, r1
 1936              	.LVL332:
 627:Drivers/lvgl/lvgl/src/draw/lv_draw_mask.c ****                     if(k >= 0 && k < len) lv_memset_00(&mask_buf[k], len - k);
 1937              		.loc 1 627 0
 1938 0068 002D     		cmp	r5, #0
 1939 006a 32DB     		blt	.L174
 628:Drivers/lvgl/lvgl/src/draw/lv_draw_mask.c ****                     return  LV_DRAW_MASK_RES_CHANGED;
 1940              		.loc 1 628 0 discriminator 1
 1941 006c AB42     		cmp	r3, r5
 1942 006e 05DC     		bgt	.L184
 629:Drivers/lvgl/lvgl/src/draw/lv_draw_mask.c ****                 }
 1943              		.loc 1 629 0
 1944 0070 0220     		movs	r0, #2
 1945              	.LVL333:
 1946 0072 22E0     		b	.L161
 1947              	.LVL334:
 1948              	.L183:
 1949              	.LBE146:
 622:Drivers/lvgl/lvgl/src/draw/lv_draw_mask.c ****             else if(p->cfg.side == LV_DRAW_MASK_LINE_SIDE_LEFT) {
 1950              		.loc 1 622 0 discriminator 1
 1951 0074 0029     		cmp	r1, #0
 1952 0076 F3DD     		ble	.L163
 622:Drivers/lvgl/lvgl/src/draw/lv_draw_mask.c ****             else if(p->cfg.side == LV_DRAW_MASK_LINE_SIDE_LEFT) {
 1953              		.loc 1 622 0 is_stmt 0
 1954 0078 0120     		movs	r0, #1
 1955              	.LVL335:
 1956 007a 1EE0     		b	.L161
 1957              	.LVL336:
 1958              	.L184:
 1959              	.LBB147:
 628:Drivers/lvgl/lvgl/src/draw/lv_draw_mask.c ****                     return  LV_DRAW_MASK_RES_CHANGED;
 1960              		.loc 1 628 0 is_stmt 1 discriminator 2
 1961 007c 1146     		mov	r1, r2
 1962              	.LVL337:
 1963 007e 2844     		add	r0, r0, r5
 1964              	.LVL338:
 1965 0080 FFF7FEFF 		bl	lv_memset_00
 1966              	.LVL339:
 629:Drivers/lvgl/lvgl/src/draw/lv_draw_mask.c ****                 }
 1967              		.loc 1 629 0 discriminator 2
 1968 0084 0220     		movs	r0, #2
 1969 0086 18E0     		b	.L161
 1970              	.LVL340:
 1971              	.L164:
 1972              	.LBE147:
 633:Drivers/lvgl/lvgl/src/draw/lv_draw_mask.c ****                 else {
 1973              		.loc 1 633 0
 1974 0088 D942     		cmn	r1, r3
 1975 008a 24D4     		bmi	.L176
 1976              	.LBB148:
 635:Drivers/lvgl/lvgl/src/draw/lv_draw_mask.c ****                     if(k < 0) k = 0;
 1977              		.loc 1 635 0
 1978 008c 4942     		negs	r1, r1
 1979              	.LVL341:
 636:Drivers/lvgl/lvgl/src/draw/lv_draw_mask.c ****                     if(k >= len) return LV_DRAW_MASK_RES_TRANSP;
ARM GAS  /tmp/cct67Zj5.s 			page 70


 1980              		.loc 1 636 0
 1981 008e 0029     		cmp	r1, #0
 1982 0090 00DB     		blt	.L165
 635:Drivers/lvgl/lvgl/src/draw/lv_draw_mask.c ****                     if(k < 0) k = 0;
 1983              		.loc 1 635 0
 1984 0092 0E46     		mov	r6, r1
 1985              	.L165:
 1986              	.LVL342:
 637:Drivers/lvgl/lvgl/src/draw/lv_draw_mask.c ****                     else if(k >= 0 && k < len) lv_memset_00(&mask_buf[0], k);
 1987              		.loc 1 637 0
 1988 0094 B342     		cmp	r3, r6
 1989 0096 20DD     		ble	.L177
 638:Drivers/lvgl/lvgl/src/draw/lv_draw_mask.c ****                     return  LV_DRAW_MASK_RES_CHANGED;
 1990              		.loc 1 638 0
 1991 0098 002E     		cmp	r6, #0
 1992 009a 01DA     		bge	.L185
 639:Drivers/lvgl/lvgl/src/draw/lv_draw_mask.c ****                 }
 1993              		.loc 1 639 0
 1994 009c 0220     		movs	r0, #2
 1995              	.LVL343:
 1996 009e 0CE0     		b	.L161
 1997              	.LVL344:
 1998              	.L185:
 638:Drivers/lvgl/lvgl/src/draw/lv_draw_mask.c ****                     return  LV_DRAW_MASK_RES_CHANGED;
 1999              		.loc 1 638 0 discriminator 2
 2000 00a0 3146     		mov	r1, r6
 2001              	.LVL345:
 2002 00a2 FFF7FEFF 		bl	lv_memset_00
 2003              	.LVL346:
 639:Drivers/lvgl/lvgl/src/draw/lv_draw_mask.c ****                 }
 2004              		.loc 1 639 0 discriminator 2
 2005 00a6 0220     		movs	r0, #2
 2006 00a8 07E0     		b	.L161
 2007              	.LVL347:
 2008              	.L159:
 2009              	.LBE148:
 646:Drivers/lvgl/lvgl/src/draw/lv_draw_mask.c ****         res = line_mask_flat(mask_buf, abs_x, abs_y, len, p);
 2010              		.loc 1 646 0
 2011 00aa 94F82850 		ldrb	r5, [r4, #40]	@ zero_extendqisi2
 2012 00ae 15F0010F 		tst	r5, #1
 2013 00b2 04D1     		bne	.L186
 650:Drivers/lvgl/lvgl/src/draw/lv_draw_mask.c ****     }
 2014              		.loc 1 650 0
 2015 00b4 0094     		str	r4, [sp]
 2016 00b6 FFF7FEFF 		bl	line_mask_steep
 2017              	.LVL348:
 2018              	.L161:
 654:Drivers/lvgl/lvgl/src/draw/lv_draw_mask.c **** 
 2019              		.loc 1 654 0
 2020 00ba 02B0     		add	sp, sp, #8
 2021              	.LCFI12:
 2022              		.cfi_remember_state
 2023              		.cfi_def_cfa_offset 16
 2024              		@ sp needed
 2025 00bc 70BD     		pop	{r4, r5, r6, pc}
 2026              	.LVL349:
 2027              	.L186:
ARM GAS  /tmp/cct67Zj5.s 			page 71


 2028              	.LCFI13:
 2029              		.cfi_restore_state
 647:Drivers/lvgl/lvgl/src/draw/lv_draw_mask.c ****     }
 2030              		.loc 1 647 0
 2031 00be 0094     		str	r4, [sp]
 2032 00c0 FFF7FEFF 		bl	line_mask_flat
 2033              	.LVL350:
 2034 00c4 F9E7     		b	.L161
 2035              	.LVL351:
 2036              	.L167:
 610:Drivers/lvgl/lvgl/src/draw/lv_draw_mask.c ****             else if(p->cfg.side == LV_DRAW_MASK_LINE_SIDE_TOP && abs_y + 1 < 0) return LV_DRAW_MASK
 2037              		.loc 1 610 0
 2038 00c6 0120     		movs	r0, #1
 2039              	.LVL352:
 2040 00c8 F7E7     		b	.L161
 2041              	.LVL353:
 2042              	.L171:
 621:Drivers/lvgl/lvgl/src/draw/lv_draw_mask.c ****             else if(p->cfg.side == LV_DRAW_MASK_LINE_SIDE_RIGHT && abs_x > 0) return LV_DRAW_MASK_R
 2043              		.loc 1 621 0
 2044 00ca 0120     		movs	r0, #1
 2045              	.LVL354:
 2046 00cc F5E7     		b	.L161
 2047              	.LVL355:
 2048              	.L173:
 624:Drivers/lvgl/lvgl/src/draw/lv_draw_mask.c ****                 else {
 2049              		.loc 1 624 0
 2050 00ce 0120     		movs	r0, #1
 2051              	.LVL356:
 2052 00d0 F3E7     		b	.L161
 2053              	.LVL357:
 2054              	.L174:
 2055              	.LBB149:
 627:Drivers/lvgl/lvgl/src/draw/lv_draw_mask.c ****                     if(k >= 0 && k < len) lv_memset_00(&mask_buf[k], len - k);
 2056              		.loc 1 627 0
 2057 00d2 0020     		movs	r0, #0
 2058              	.LVL358:
 2059 00d4 F1E7     		b	.L161
 2060              	.LVL359:
 2061              	.L176:
 2062              	.LBE149:
 633:Drivers/lvgl/lvgl/src/draw/lv_draw_mask.c ****                 else {
 2063              		.loc 1 633 0
 2064 00d6 0020     		movs	r0, #0
 2065              	.LVL360:
 2066 00d8 EFE7     		b	.L161
 2067              	.LVL361:
 2068              	.L177:
 2069              	.LBB150:
 637:Drivers/lvgl/lvgl/src/draw/lv_draw_mask.c ****                     else if(k >= 0 && k < len) lv_memset_00(&mask_buf[0], k);
 2070              		.loc 1 637 0
 2071 00da 0020     		movs	r0, #0
 2072              	.LVL362:
 2073 00dc EDE7     		b	.L161
 2074              	.LBE150:
 2075              		.cfi_endproc
 2076              	.LFE72:
 2078              		.section	.text.lv_draw_mask_angle,"ax",%progbits
ARM GAS  /tmp/cct67Zj5.s 			page 72


 2079              		.align	1
 2080              		.syntax unified
 2081              		.thumb
 2082              		.thumb_func
 2083              		.fpu fpv5-d16
 2085              	lv_draw_mask_angle:
 2086              	.LFB75:
 917:Drivers/lvgl/lvgl/src/draw/lv_draw_mask.c ****     int32_t rel_y = abs_y - p->cfg.vertex_p.y;
 2087              		.loc 1 917 0
 2088              		.cfi_startproc
 2089              		@ args = 4, pretend = 0, frame = 0
 2090              		@ frame_needed = 0, uses_anonymous_args = 0
 2091              	.LVL363:
 2092 0000 2DE9F047 		push	{r4, r5, r6, r7, r8, r9, r10, lr}
 2093              	.LCFI14:
 2094              		.cfi_def_cfa_offset 32
 2095              		.cfi_offset 4, -32
 2096              		.cfi_offset 5, -28
 2097              		.cfi_offset 6, -24
 2098              		.cfi_offset 7, -20
 2099              		.cfi_offset 8, -16
 2100              		.cfi_offset 9, -12
 2101              		.cfi_offset 10, -8
 2102              		.cfi_offset 14, -4
 2103 0004 82B0     		sub	sp, sp, #8
 2104              	.LCFI15:
 2105              		.cfi_def_cfa_offset 40
 2106 0006 8146     		mov	r9, r0
 2107 0008 0E46     		mov	r6, r1
 2108 000a 1546     		mov	r5, r2
 2109 000c 9846     		mov	r8, r3
 2110 000e 0A9C     		ldr	r4, [sp, #40]
 918:Drivers/lvgl/lvgl/src/draw/lv_draw_mask.c ****     int32_t rel_x = abs_x - p->cfg.vertex_p.x;
 2111              		.loc 1 918 0
 2112 0010 B4F90A20 		ldrsh	r2, [r4, #10]
 2113              	.LVL364:
 2114 0014 AF1A     		subs	r7, r5, r2
 2115              	.LVL365:
 919:Drivers/lvgl/lvgl/src/draw/lv_draw_mask.c **** 
 2116              		.loc 1 919 0
 2117 0016 B4F90830 		ldrsh	r3, [r4, #8]
 2118              	.LVL366:
 2119 001a C91A     		subs	r1, r1, r3
 2120              	.LVL367:
 921:Drivers/lvgl/lvgl/src/draw/lv_draw_mask.c ****        p->cfg.start_angle != 0  && p->cfg.end_angle != 0 &&
 2121              		.loc 1 921 0
 2122 001c B4F90C30 		ldrsh	r3, [r4, #12]
 2123 0020 B32B     		cmp	r3, #179
 2124 0022 00F39380 		bgt	.L188
 921:Drivers/lvgl/lvgl/src/draw/lv_draw_mask.c ****        p->cfg.start_angle != 0  && p->cfg.end_angle != 0 &&
 2125              		.loc 1 921 0 is_stmt 0 discriminator 1
 2126 0026 B4F90E00 		ldrsh	r0, [r4, #14]
 2127              	.LVL368:
 2128 002a B328     		cmp	r0, #179
 2129 002c 00F38E80 		bgt	.L188
 921:Drivers/lvgl/lvgl/src/draw/lv_draw_mask.c ****        p->cfg.start_angle != 0  && p->cfg.end_angle != 0 &&
 2130              		.loc 1 921 0 discriminator 2
ARM GAS  /tmp/cct67Zj5.s 			page 73


 2131 0030 002B     		cmp	r3, #0
 2132 0032 00F08B80 		beq	.L188
 922:Drivers/lvgl/lvgl/src/draw/lv_draw_mask.c ****        p->cfg.start_angle > p->cfg.end_angle) {
 2133              		.loc 1 922 0 is_stmt 1
 2134 0036 0028     		cmp	r0, #0
 2135 0038 00F08880 		beq	.L188
 922:Drivers/lvgl/lvgl/src/draw/lv_draw_mask.c ****        p->cfg.start_angle > p->cfg.end_angle) {
 2136              		.loc 1 922 0 is_stmt 0 discriminator 1
 2137 003c 8342     		cmp	r3, r0
 2138 003e 40F38580 		ble	.L188
 2139              	.LBB151:
 925:Drivers/lvgl/lvgl/src/draw/lv_draw_mask.c ****             return LV_DRAW_MASK_RES_FULL_COVER;
 2140              		.loc 1 925 0 is_stmt 1
 2141 0042 AA42     		cmp	r2, r5
 2142 0044 00F37E81 		bgt	.L223
 930:Drivers/lvgl/lvgl/src/draw/lv_draw_mask.c ****         int32_t start_angle_last = ((rel_y + 1) * p->start_line.xy_steep) >> 10;
 2143              		.loc 1 930 0
 2144 0048 626D     		ldr	r2, [r4, #84]
 2145 004a 07FB02F2 		mul	r2, r7, r2
 2146 004e 9212     		asrs	r2, r2, #10
 2147              	.LVL369:
 931:Drivers/lvgl/lvgl/src/draw/lv_draw_mask.c **** 
 2148              		.loc 1 931 0
 2149 0050 D4F828C0 		ldr	ip, [r4, #40]
 2150 0054 07FB0CC7 		mla	r7, r7, ip, ip
 2151              	.LVL370:
 2152 0058 BF12     		asrs	r7, r7, #10
 2153              	.LVL371:
 934:Drivers/lvgl/lvgl/src/draw/lv_draw_mask.c ****         else if(p->cfg.start_angle > 0 && p->cfg.start_angle <= 90 && start_angle_last < 0) start_a
 2154              		.loc 1 934 0
 2155 005a 9BB2     		uxth	r3, r3
 2156 005c A3F20F1C 		subw	ip, r3, #271
 2157 0060 1FFA8CFC 		uxth	ip, ip
 2158 0064 BCF1580F 		cmp	ip, #88
 2159 0068 01D8     		bhi	.L190
 934:Drivers/lvgl/lvgl/src/draw/lv_draw_mask.c ****         else if(p->cfg.start_angle > 0 && p->cfg.start_angle <= 90 && start_angle_last < 0) start_a
 2160              		.loc 1 934 0 is_stmt 0 discriminator 1
 2161 006a 002F     		cmp	r7, #0
 2162 006c 4BDB     		blt	.L224
 2163              	.L190:
 935:Drivers/lvgl/lvgl/src/draw/lv_draw_mask.c ****         else if(p->cfg.start_angle > 90 && p->cfg.start_angle < 270 && start_angle_last > 0) start_
 2164              		.loc 1 935 0 is_stmt 1
 2165 006e 03F1FF3C 		add	ip, r3, #-1
 2166 0072 1FFA8CFC 		uxth	ip, ip
 2167 0076 BCF1590F 		cmp	ip, #89
 2168 007a 01D8     		bhi	.L192
 935:Drivers/lvgl/lvgl/src/draw/lv_draw_mask.c ****         else if(p->cfg.start_angle > 90 && p->cfg.start_angle < 270 && start_angle_last > 0) start_
 2169              		.loc 1 935 0 is_stmt 0 discriminator 1
 2170 007c 002F     		cmp	r7, #0
 2171 007e 44DB     		blt	.L225
 2172              	.L192:
 936:Drivers/lvgl/lvgl/src/draw/lv_draw_mask.c **** 
 2173              		.loc 1 936 0 is_stmt 1
 2174 0080 5B3B     		subs	r3, r3, #91
 2175 0082 9BB2     		uxth	r3, r3
 2176 0084 B22B     		cmp	r3, #178
 2177 0086 02D8     		bhi	.L191
ARM GAS  /tmp/cct67Zj5.s 			page 74


 936:Drivers/lvgl/lvgl/src/draw/lv_draw_mask.c **** 
 2178              		.loc 1 936 0 is_stmt 0 discriminator 1
 2179 0088 002F     		cmp	r7, #0
 2180 008a 00DD     		ble	.L191
 936:Drivers/lvgl/lvgl/src/draw/lv_draw_mask.c **** 
 2181              		.loc 1 936 0
 2182 008c 0027     		movs	r7, #0
 2183              	.LVL372:
 2184              	.L191:
 938:Drivers/lvgl/lvgl/src/draw/lv_draw_mask.c ****         else if(p->cfg.end_angle > 0 &&   p->cfg.end_angle <= 90 && start_angle_last < 0) start_ang
 2185              		.loc 1 938 0 is_stmt 1
 2186 008e 80B2     		uxth	r0, r0
 2187 0090 A0F20F13 		subw	r3, r0, #271
 2188 0094 9BB2     		uxth	r3, r3
 2189 0096 582B     		cmp	r3, #88
 2190 0098 01D8     		bhi	.L193
 938:Drivers/lvgl/lvgl/src/draw/lv_draw_mask.c ****         else if(p->cfg.end_angle > 0 &&   p->cfg.end_angle <= 90 && start_angle_last < 0) start_ang
 2191              		.loc 1 938 0 is_stmt 0 discriminator 1
 2192 009a 002F     		cmp	r7, #0
 2193 009c 37DB     		blt	.L227
 2194              	.L193:
 939:Drivers/lvgl/lvgl/src/draw/lv_draw_mask.c ****         else if(p->cfg.end_angle > 90 &&  p->cfg.end_angle < 270 && start_angle_last > 0) start_ang
 2195              		.loc 1 939 0 is_stmt 1
 2196 009e 431E     		subs	r3, r0, #1
 2197 00a0 9BB2     		uxth	r3, r3
 2198 00a2 592B     		cmp	r3, #89
 2199 00a4 01D8     		bhi	.L195
 939:Drivers/lvgl/lvgl/src/draw/lv_draw_mask.c ****         else if(p->cfg.end_angle > 90 &&  p->cfg.end_angle < 270 && start_angle_last > 0) start_ang
 2200              		.loc 1 939 0 is_stmt 0 discriminator 1
 2201 00a6 002F     		cmp	r7, #0
 2202 00a8 33DB     		blt	.L228
 2203              	.L195:
 940:Drivers/lvgl/lvgl/src/draw/lv_draw_mask.c **** 
 2204              		.loc 1 940 0 is_stmt 1
 2205 00aa 5B38     		subs	r0, r0, #91
 2206 00ac 83B2     		uxth	r3, r0
 2207 00ae B22B     		cmp	r3, #178
 2208 00b0 02D8     		bhi	.L194
 940:Drivers/lvgl/lvgl/src/draw/lv_draw_mask.c **** 
 2209              		.loc 1 940 0 is_stmt 0 discriminator 1
 2210 00b2 002F     		cmp	r7, #0
 2211 00b4 00DD     		ble	.L194
 940:Drivers/lvgl/lvgl/src/draw/lv_draw_mask.c **** 
 2212              		.loc 1 940 0
 2213 00b6 0027     		movs	r7, #0
 2214              	.LVL373:
 2215              	.L194:
 942:Drivers/lvgl/lvgl/src/draw/lv_draw_mask.c **** 
 2216              		.loc 1 942 0 is_stmt 1
 2217 00b8 D21B     		subs	r2, r2, r7
 2218              	.LVL374:
 947:Drivers/lvgl/lvgl/src/draw/lv_draw_mask.c ****         if(tmp > len) tmp = len;
 2219              		.loc 1 947 0
 2220 00ba 07EB6207 		add	r7, r7, r2, asr #1
 2221              	.LVL375:
 2222 00be A7EB010A 		sub	r10, r7, r1
 2223              	.LVL376:
ARM GAS  /tmp/cct67Zj5.s 			page 75


 948:Drivers/lvgl/lvgl/src/draw/lv_draw_mask.c ****         if(tmp > 0) {
 2224              		.loc 1 948 0
 2225 00c2 D045     		cmp	r8, r10
 2226 00c4 00DA     		bge	.L196
 2227 00c6 C246     		mov	r10, r8
 2228              	.LVL377:
 2229              	.L196:
 949:Drivers/lvgl/lvgl/src/draw/lv_draw_mask.c ****             res1 = lv_draw_mask_line(&mask_buf[0], abs_x, abs_y, tmp, &p->start_line);
 2230              		.loc 1 949 0
 2231 00c8 BAF1000F 		cmp	r10, #0
 2232 00cc 23DC     		bgt	.L259
 944:Drivers/lvgl/lvgl/src/draw/lv_draw_mask.c ****         lv_draw_mask_res_t res2 = LV_DRAW_MASK_RES_FULL_COVER;
 2233              		.loc 1 944 0
 2234 00ce 0127     		movs	r7, #1
 2235              	.LVL378:
 2236              	.L197:
 956:Drivers/lvgl/lvgl/src/draw/lv_draw_mask.c ****         if(tmp < 0) tmp = 0;
 2237              		.loc 1 956 0
 2238 00d0 D045     		cmp	r8, r10
 2239 00d2 00DA     		bge	.L198
 2240 00d4 C246     		mov	r10, r8
 2241              	.LVL379:
 2242              	.L198:
 957:Drivers/lvgl/lvgl/src/draw/lv_draw_mask.c ****         res2 = lv_draw_mask_line(&mask_buf[tmp], abs_x + tmp, abs_y, len - tmp, &p->end_line);
 2243              		.loc 1 957 0
 2244 00d6 BAF1000F 		cmp	r10, #0
 2245 00da 2EDB     		blt	.L260
 2246              	.LVL380:
 2247              	.L199:
 958:Drivers/lvgl/lvgl/src/draw/lv_draw_mask.c ****         if(res2 == LV_DRAW_MASK_RES_TRANSP) {
 2248              		.loc 1 958 0
 2249 00dc D144     		add	r9, r9, r10
 2250              	.LVL381:
 2251 00de 1FFA8AF3 		uxth	r3, r10
 2252 00e2 9919     		adds	r1, r3, r6
 2253 00e4 A8EB0303 		sub	r3, r8, r3
 2254 00e8 3C34     		adds	r4, r4, #60
 2255 00ea 0094     		str	r4, [sp]
 2256 00ec 1BB2     		sxth	r3, r3
 2257 00ee 2A46     		mov	r2, r5
 2258 00f0 09B2     		sxth	r1, r1
 2259 00f2 4846     		mov	r0, r9
 2260 00f4 FFF7FEFF 		bl	lv_draw_mask_line
 2261              	.LVL382:
 959:Drivers/lvgl/lvgl/src/draw/lv_draw_mask.c ****             lv_memset_00(&mask_buf[tmp], len - tmp);
 2262              		.loc 1 959 0
 2263 00f8 0446     		mov	r4, r0
 2264 00fa 08B3     		cbz	r0, .L261
 2265              	.LVL383:
 2266              	.L200:
 962:Drivers/lvgl/lvgl/src/draw/lv_draw_mask.c ****         else return LV_DRAW_MASK_RES_CHANGED;
 2267              		.loc 1 962 0
 2268 00fc A742     		cmp	r7, r4
 2269 00fe 00F02681 		beq	.L189
 963:Drivers/lvgl/lvgl/src/draw/lv_draw_mask.c ****     }
 2270              		.loc 1 963 0
 2271 0102 0227     		movs	r7, #2
ARM GAS  /tmp/cct67Zj5.s 			page 76


 2272              	.LVL384:
 2273 0104 23E1     		b	.L189
 2274              	.LVL385:
 2275              	.L224:
 934:Drivers/lvgl/lvgl/src/draw/lv_draw_mask.c ****         else if(p->cfg.start_angle > 0 && p->cfg.start_angle <= 90 && start_angle_last < 0) start_a
 2276              		.loc 1 934 0
 2277 0106 0027     		movs	r7, #0
 2278              	.LVL386:
 2279 0108 C1E7     		b	.L191
 2280              	.LVL387:
 2281              	.L225:
 935:Drivers/lvgl/lvgl/src/draw/lv_draw_mask.c ****         else if(p->cfg.start_angle > 90 && p->cfg.start_angle < 270 && start_angle_last > 0) start_
 2282              		.loc 1 935 0
 2283 010a 0027     		movs	r7, #0
 2284              	.LVL388:
 2285 010c BFE7     		b	.L191
 2286              	.LVL389:
 2287              	.L227:
 938:Drivers/lvgl/lvgl/src/draw/lv_draw_mask.c ****         else if(p->cfg.end_angle > 0 &&   p->cfg.end_angle <= 90 && start_angle_last < 0) start_ang
 2288              		.loc 1 938 0
 2289 010e 0027     		movs	r7, #0
 2290              	.LVL390:
 2291 0110 D2E7     		b	.L194
 2292              	.LVL391:
 2293              	.L228:
 939:Drivers/lvgl/lvgl/src/draw/lv_draw_mask.c ****         else if(p->cfg.end_angle > 90 &&  p->cfg.end_angle < 270 && start_angle_last > 0) start_ang
 2294              		.loc 1 939 0
 2295 0112 0027     		movs	r7, #0
 2296              	.LVL392:
 2297 0114 D0E7     		b	.L194
 2298              	.LVL393:
 2299              	.L259:
 950:Drivers/lvgl/lvgl/src/draw/lv_draw_mask.c ****             if(res1 == LV_DRAW_MASK_RES_TRANSP) {
 2300              		.loc 1 950 0
 2301 0116 04F11003 		add	r3, r4, #16
 2302 011a 0093     		str	r3, [sp]
 2303              	.LVL394:
 2304 011c 0FFA8AF3 		sxth	r3, r10
 2305 0120 2A46     		mov	r2, r5
 2306              	.LVL395:
 2307 0122 3146     		mov	r1, r6
 2308              	.LVL396:
 2309 0124 4846     		mov	r0, r9
 2310 0126 FFF7FEFF 		bl	lv_draw_mask_line
 2311              	.LVL397:
 951:Drivers/lvgl/lvgl/src/draw/lv_draw_mask.c ****                 lv_memset_00(&mask_buf[0], tmp);
 2312              		.loc 1 951 0
 2313 012a 0746     		mov	r7, r0
 2314 012c 0028     		cmp	r0, #0
 2315 012e CFD1     		bne	.L197
 952:Drivers/lvgl/lvgl/src/draw/lv_draw_mask.c ****             }
 2316              		.loc 1 952 0
 2317 0130 5146     		mov	r1, r10
 2318 0132 4846     		mov	r0, r9
 2319              	.LVL398:
 2320 0134 FFF7FEFF 		bl	lv_memset_00
 2321              	.LVL399:
ARM GAS  /tmp/cct67Zj5.s 			page 77


 2322 0138 CAE7     		b	.L197
 2323              	.LVL400:
 2324              	.L260:
 957:Drivers/lvgl/lvgl/src/draw/lv_draw_mask.c ****         res2 = lv_draw_mask_line(&mask_buf[tmp], abs_x + tmp, abs_y, len - tmp, &p->end_line);
 2325              		.loc 1 957 0
 2326 013a 4FF0000A 		mov	r10, #0
 2327              	.LVL401:
 2328 013e CDE7     		b	.L199
 2329              	.LVL402:
 2330              	.L261:
 960:Drivers/lvgl/lvgl/src/draw/lv_draw_mask.c ****         }
 2331              		.loc 1 960 0
 2332 0140 A8EB0A01 		sub	r1, r8, r10
 2333 0144 4846     		mov	r0, r9
 2334              	.LVL403:
 2335 0146 FFF7FEFF 		bl	lv_memset_00
 2336              	.LVL404:
 2337 014a D7E7     		b	.L200
 2338              	.LVL405:
 2339              	.L188:
 2340              	.LBE151:
 965:Drivers/lvgl/lvgl/src/draw/lv_draw_mask.c **** 
 2341              		.loc 1 965 0
 2342 014c B42B     		cmp	r3, #180
 2343 014e 40F39680 		ble	.L201
 965:Drivers/lvgl/lvgl/src/draw/lv_draw_mask.c **** 
 2344              		.loc 1 965 0 is_stmt 0 discriminator 1
 2345 0152 B4F90E00 		ldrsh	r0, [r4, #14]
 2346 0156 B428     		cmp	r0, #180
 2347 0158 40F39180 		ble	.L201
 965:Drivers/lvgl/lvgl/src/draw/lv_draw_mask.c **** 
 2348              		.loc 1 965 0 discriminator 2
 2349 015c 8342     		cmp	r3, r0
 2350 015e 40F38E80 		ble	.L201
 2351              	.LBB152:
 967:Drivers/lvgl/lvgl/src/draw/lv_draw_mask.c ****             return LV_DRAW_MASK_RES_FULL_COVER;
 2352              		.loc 1 967 0 is_stmt 1
 2353 0162 AA42     		cmp	r2, r5
 2354 0164 C0F2F080 		blt	.L235
 972:Drivers/lvgl/lvgl/src/draw/lv_draw_mask.c ****         int32_t start_angle_last = ((rel_y + 1) * p->start_line.xy_steep) >> 10;
 2355              		.loc 1 972 0
 2356 0168 626D     		ldr	r2, [r4, #84]
 2357 016a 07FB02F2 		mul	r2, r7, r2
 2358 016e 9212     		asrs	r2, r2, #10
 2359              	.LVL406:
 973:Drivers/lvgl/lvgl/src/draw/lv_draw_mask.c **** 
 2360              		.loc 1 973 0
 2361 0170 D4F828A0 		ldr	r10, [r4, #40]
 2362 0174 07FB0AAA 		mla	r10, r7, r10, r10
 2363 0178 4FEAAA2A 		asr	r10, r10, #10
 2364              	.LVL407:
 976:Drivers/lvgl/lvgl/src/draw/lv_draw_mask.c ****         else if(p->cfg.start_angle > 0 && p->cfg.start_angle <= 90 && start_angle_last < 0) start_a
 2365              		.loc 1 976 0
 2366 017c 9BB2     		uxth	r3, r3
 2367 017e A3F20F17 		subw	r7, r3, #271
 2368              	.LVL408:
 2369 0182 BFB2     		uxth	r7, r7
ARM GAS  /tmp/cct67Zj5.s 			page 78


 2370 0184 582F     		cmp	r7, #88
 2371 0186 02D8     		bhi	.L202
 976:Drivers/lvgl/lvgl/src/draw/lv_draw_mask.c ****         else if(p->cfg.start_angle > 0 && p->cfg.start_angle <= 90 && start_angle_last < 0) start_a
 2372              		.loc 1 976 0 is_stmt 0 discriminator 1
 2373 0188 BAF1000F 		cmp	r10, #0
 2374 018c 50DB     		blt	.L236
 2375              	.L202:
 977:Drivers/lvgl/lvgl/src/draw/lv_draw_mask.c ****         else if(p->cfg.start_angle > 90 && p->cfg.start_angle < 270 && start_angle_last > 0) start_
 2376              		.loc 1 977 0 is_stmt 1
 2377 018e 5F1E     		subs	r7, r3, #1
 2378 0190 BFB2     		uxth	r7, r7
 2379 0192 592F     		cmp	r7, #89
 2380 0194 02D8     		bhi	.L204
 977:Drivers/lvgl/lvgl/src/draw/lv_draw_mask.c ****         else if(p->cfg.start_angle > 90 && p->cfg.start_angle < 270 && start_angle_last > 0) start_
 2381              		.loc 1 977 0 is_stmt 0 discriminator 1
 2382 0196 BAF1000F 		cmp	r10, #0
 2383 019a 4CDB     		blt	.L237
 2384              	.L204:
 978:Drivers/lvgl/lvgl/src/draw/lv_draw_mask.c **** 
 2385              		.loc 1 978 0 is_stmt 1
 2386 019c 5B3B     		subs	r3, r3, #91
 2387 019e 9BB2     		uxth	r3, r3
 2388 01a0 B22B     		cmp	r3, #178
 2389 01a2 04D8     		bhi	.L203
 978:Drivers/lvgl/lvgl/src/draw/lv_draw_mask.c **** 
 2390              		.loc 1 978 0 is_stmt 0 discriminator 1
 2391 01a4 BAF1000F 		cmp	r10, #0
 2392 01a8 01DD     		ble	.L203
 978:Drivers/lvgl/lvgl/src/draw/lv_draw_mask.c **** 
 2393              		.loc 1 978 0
 2394 01aa 4FF0000A 		mov	r10, #0
 2395              	.LVL409:
 2396              	.L203:
 980:Drivers/lvgl/lvgl/src/draw/lv_draw_mask.c ****         else if(p->cfg.end_angle > 0 &&   p->cfg.end_angle <= 90 && start_angle_last < 0) start_ang
 2397              		.loc 1 980 0 is_stmt 1
 2398 01ae 80B2     		uxth	r0, r0
 2399 01b0 A0F20F13 		subw	r3, r0, #271
 2400 01b4 9BB2     		uxth	r3, r3
 2401 01b6 582B     		cmp	r3, #88
 2402 01b8 02D8     		bhi	.L205
 980:Drivers/lvgl/lvgl/src/draw/lv_draw_mask.c ****         else if(p->cfg.end_angle > 0 &&   p->cfg.end_angle <= 90 && start_angle_last < 0) start_ang
 2403              		.loc 1 980 0 is_stmt 0 discriminator 1
 2404 01ba BAF1000F 		cmp	r10, #0
 2405 01be 3DDB     		blt	.L239
 2406              	.L205:
 981:Drivers/lvgl/lvgl/src/draw/lv_draw_mask.c ****         else if(p->cfg.end_angle > 90 &&  p->cfg.end_angle < 270 && start_angle_last > 0) start_ang
 2407              		.loc 1 981 0 is_stmt 1
 2408 01c0 431E     		subs	r3, r0, #1
 2409 01c2 9BB2     		uxth	r3, r3
 2410 01c4 592B     		cmp	r3, #89
 2411 01c6 02D8     		bhi	.L207
 981:Drivers/lvgl/lvgl/src/draw/lv_draw_mask.c ****         else if(p->cfg.end_angle > 90 &&  p->cfg.end_angle < 270 && start_angle_last > 0) start_ang
 2412              		.loc 1 981 0 is_stmt 0 discriminator 1
 2413 01c8 BAF1000F 		cmp	r10, #0
 2414 01cc 39DB     		blt	.L240
 2415              	.L207:
 982:Drivers/lvgl/lvgl/src/draw/lv_draw_mask.c **** 
ARM GAS  /tmp/cct67Zj5.s 			page 79


 2416              		.loc 1 982 0 is_stmt 1
 2417 01ce 5B38     		subs	r0, r0, #91
 2418 01d0 80B2     		uxth	r0, r0
 2419 01d2 B228     		cmp	r0, #178
 2420 01d4 04D8     		bhi	.L206
 982:Drivers/lvgl/lvgl/src/draw/lv_draw_mask.c **** 
 2421              		.loc 1 982 0 is_stmt 0 discriminator 1
 2422 01d6 BAF1000F 		cmp	r10, #0
 2423 01da 01DD     		ble	.L206
 982:Drivers/lvgl/lvgl/src/draw/lv_draw_mask.c **** 
 2424              		.loc 1 982 0
 2425 01dc 4FF0000A 		mov	r10, #0
 2426              	.LVL410:
 2427              	.L206:
 984:Drivers/lvgl/lvgl/src/draw/lv_draw_mask.c **** 
 2428              		.loc 1 984 0 is_stmt 1
 2429 01e0 A2EB0A02 		sub	r2, r2, r10
 2430              	.LVL411:
 989:Drivers/lvgl/lvgl/src/draw/lv_draw_mask.c ****         if(tmp > len) tmp = len;
 2431              		.loc 1 989 0
 2432 01e4 0AEB620A 		add	r10, r10, r2, asr #1
 2433              	.LVL412:
 2434 01e8 AAEB010A 		sub	r10, r10, r1
 2435              	.LVL413:
 990:Drivers/lvgl/lvgl/src/draw/lv_draw_mask.c ****         if(tmp > 0) {
 2436              		.loc 1 990 0
 2437 01ec D045     		cmp	r8, r10
 2438 01ee 00DA     		bge	.L208
 2439 01f0 C246     		mov	r10, r8
 2440              	.LVL414:
 2441              	.L208:
 991:Drivers/lvgl/lvgl/src/draw/lv_draw_mask.c ****             res1 = lv_draw_mask_line(&mask_buf[0], abs_x, abs_y, tmp, (lv_draw_mask_line_param_t *)
 2442              		.loc 1 991 0
 2443 01f2 BAF1000F 		cmp	r10, #0
 2444 01f6 27DC     		bgt	.L262
 986:Drivers/lvgl/lvgl/src/draw/lv_draw_mask.c ****         lv_draw_mask_res_t res2 = LV_DRAW_MASK_RES_FULL_COVER;
 2445              		.loc 1 986 0
 2446 01f8 0127     		movs	r7, #1
 2447              	.LVL415:
 2448              	.L209:
 998:Drivers/lvgl/lvgl/src/draw/lv_draw_mask.c ****         if(tmp < 0) tmp = 0;
 2449              		.loc 1 998 0
 2450 01fa D045     		cmp	r8, r10
 2451 01fc 00DA     		bge	.L210
 2452 01fe C246     		mov	r10, r8
 2453              	.LVL416:
 2454              	.L210:
 999:Drivers/lvgl/lvgl/src/draw/lv_draw_mask.c ****         res2 = lv_draw_mask_line(&mask_buf[tmp], abs_x + tmp, abs_y, len - tmp, (lv_draw_mask_line_
 2455              		.loc 1 999 0
 2456 0200 BAF1000F 		cmp	r10, #0
 2457 0204 32DB     		blt	.L263
 2458              	.LVL417:
 2459              	.L211:
1000:Drivers/lvgl/lvgl/src/draw/lv_draw_mask.c ****         if(res2 == LV_DRAW_MASK_RES_TRANSP) {
 2460              		.loc 1 1000 0
 2461 0206 D144     		add	r9, r9, r10
 2462              	.LVL418:
ARM GAS  /tmp/cct67Zj5.s 			page 80


 2463 0208 1FFA8AF3 		uxth	r3, r10
 2464 020c 9919     		adds	r1, r3, r6
 2465 020e A8EB0303 		sub	r3, r8, r3
 2466 0212 1034     		adds	r4, r4, #16
 2467 0214 0094     		str	r4, [sp]
 2468 0216 1BB2     		sxth	r3, r3
 2469 0218 2A46     		mov	r2, r5
 2470 021a 09B2     		sxth	r1, r1
 2471 021c 4846     		mov	r0, r9
 2472 021e FFF7FEFF 		bl	lv_draw_mask_line
 2473              	.LVL419:
1001:Drivers/lvgl/lvgl/src/draw/lv_draw_mask.c ****             lv_memset_00(&mask_buf[tmp], len - tmp);
 2474              		.loc 1 1001 0
 2475 0222 0446     		mov	r4, r0
 2476 0224 28B3     		cbz	r0, .L264
 2477              	.LVL420:
 2478              	.L212:
1004:Drivers/lvgl/lvgl/src/draw/lv_draw_mask.c ****         else return LV_DRAW_MASK_RES_CHANGED;
 2479              		.loc 1 1004 0
 2480 0226 A742     		cmp	r7, r4
 2481 0228 00F09180 		beq	.L189
1005:Drivers/lvgl/lvgl/src/draw/lv_draw_mask.c ****     }
 2482              		.loc 1 1005 0
 2483 022c 0227     		movs	r7, #2
 2484              	.LVL421:
 2485 022e 8EE0     		b	.L189
 2486              	.LVL422:
 2487              	.L236:
 976:Drivers/lvgl/lvgl/src/draw/lv_draw_mask.c ****         else if(p->cfg.start_angle > 0 && p->cfg.start_angle <= 90 && start_angle_last < 0) start_a
 2488              		.loc 1 976 0
 2489 0230 4FF0000A 		mov	r10, #0
 2490              	.LVL423:
 2491 0234 BBE7     		b	.L203
 2492              	.LVL424:
 2493              	.L237:
 977:Drivers/lvgl/lvgl/src/draw/lv_draw_mask.c ****         else if(p->cfg.start_angle > 90 && p->cfg.start_angle < 270 && start_angle_last > 0) start_
 2494              		.loc 1 977 0
 2495 0236 4FF0000A 		mov	r10, #0
 2496              	.LVL425:
 2497 023a B8E7     		b	.L203
 2498              	.LVL426:
 2499              	.L239:
 980:Drivers/lvgl/lvgl/src/draw/lv_draw_mask.c ****         else if(p->cfg.end_angle > 0 &&   p->cfg.end_angle <= 90 && start_angle_last < 0) start_ang
 2500              		.loc 1 980 0
 2501 023c 4FF0000A 		mov	r10, #0
 2502              	.LVL427:
 2503 0240 CEE7     		b	.L206
 2504              	.LVL428:
 2505              	.L240:
 981:Drivers/lvgl/lvgl/src/draw/lv_draw_mask.c ****         else if(p->cfg.end_angle > 90 &&  p->cfg.end_angle < 270 && start_angle_last > 0) start_ang
 2506              		.loc 1 981 0
 2507 0242 4FF0000A 		mov	r10, #0
 2508              	.LVL429:
 2509 0246 CBE7     		b	.L206
 2510              	.LVL430:
 2511              	.L262:
 992:Drivers/lvgl/lvgl/src/draw/lv_draw_mask.c ****             if(res1 == LV_DRAW_MASK_RES_TRANSP) {
ARM GAS  /tmp/cct67Zj5.s 			page 81


 2512              		.loc 1 992 0
 2513 0248 04F13C03 		add	r3, r4, #60
 2514 024c 0093     		str	r3, [sp]
 2515              	.LVL431:
 2516 024e 0FFA8AF3 		sxth	r3, r10
 2517 0252 2A46     		mov	r2, r5
 2518              	.LVL432:
 2519 0254 3146     		mov	r1, r6
 2520              	.LVL433:
 2521 0256 4846     		mov	r0, r9
 2522 0258 FFF7FEFF 		bl	lv_draw_mask_line
 2523              	.LVL434:
 993:Drivers/lvgl/lvgl/src/draw/lv_draw_mask.c ****                 lv_memset_00(&mask_buf[0], tmp);
 2524              		.loc 1 993 0
 2525 025c 0746     		mov	r7, r0
 2526 025e 0028     		cmp	r0, #0
 2527 0260 CBD1     		bne	.L209
 994:Drivers/lvgl/lvgl/src/draw/lv_draw_mask.c ****             }
 2528              		.loc 1 994 0
 2529 0262 5146     		mov	r1, r10
 2530 0264 4846     		mov	r0, r9
 2531              	.LVL435:
 2532 0266 FFF7FEFF 		bl	lv_memset_00
 2533              	.LVL436:
 2534 026a C6E7     		b	.L209
 2535              	.LVL437:
 2536              	.L263:
 999:Drivers/lvgl/lvgl/src/draw/lv_draw_mask.c ****         res2 = lv_draw_mask_line(&mask_buf[tmp], abs_x + tmp, abs_y, len - tmp, (lv_draw_mask_line_
 2537              		.loc 1 999 0
 2538 026c 4FF0000A 		mov	r10, #0
 2539              	.LVL438:
 2540 0270 C9E7     		b	.L211
 2541              	.LVL439:
 2542              	.L264:
1002:Drivers/lvgl/lvgl/src/draw/lv_draw_mask.c ****         }
 2543              		.loc 1 1002 0
 2544 0272 A8EB0A01 		sub	r1, r8, r10
 2545 0276 4846     		mov	r0, r9
 2546              	.LVL440:
 2547 0278 FFF7FEFF 		bl	lv_memset_00
 2548              	.LVL441:
 2549 027c D3E7     		b	.L212
 2550              	.LVL442:
 2551              	.L201:
 2552              	.LBE152:
 2553              	.LBB153:
1012:Drivers/lvgl/lvgl/src/draw/lv_draw_mask.c ****             if(abs_y < p->cfg.vertex_p.y) res1 = LV_DRAW_MASK_RES_FULL_COVER;
 2554              		.loc 1 1012 0
 2555 027e B42B     		cmp	r3, #180
 2556 0280 04D0     		beq	.L265
1016:Drivers/lvgl/lvgl/src/draw/lv_draw_mask.c ****             if(abs_y < p->cfg.vertex_p.y) res1 = LV_DRAW_MASK_RES_UNKNOWN;
 2557              		.loc 1 1016 0
 2558 0282 8BB9     		cbnz	r3, .L215
1017:Drivers/lvgl/lvgl/src/draw/lv_draw_mask.c ****             else res1 = LV_DRAW_MASK_RES_FULL_COVER;
 2559              		.loc 1 1017 0
 2560 0284 AA42     		cmp	r2, r5
 2561 0286 24DD     		ble	.L248
ARM GAS  /tmp/cct67Zj5.s 			page 82


 2562 0288 0327     		movs	r7, #3
 2563              	.LVL443:
 2564 028a 02E0     		b	.L214
 2565              	.LVL444:
 2566              	.L265:
1013:Drivers/lvgl/lvgl/src/draw/lv_draw_mask.c ****             else res1 = LV_DRAW_MASK_RES_UNKNOWN;
 2567              		.loc 1 1013 0
 2568 028c AA42     		cmp	r2, r5
 2569 028e 1EDD     		ble	.L247
 2570 0290 0127     		movs	r7, #1
 2571              	.LVL445:
 2572              	.L214:
1028:Drivers/lvgl/lvgl/src/draw/lv_draw_mask.c ****             if(abs_y < p->cfg.vertex_p.y) res2 = LV_DRAW_MASK_RES_UNKNOWN;
 2573              		.loc 1 1028 0
 2574 0292 B4F90E30 		ldrsh	r3, [r4, #14]
 2575 0296 B42B     		cmp	r3, #180
 2576 0298 21D0     		beq	.L266
1032:Drivers/lvgl/lvgl/src/draw/lv_draw_mask.c ****             if(abs_y < p->cfg.vertex_p.y) res2 = LV_DRAW_MASK_RES_FULL_COVER;
 2577              		.loc 1 1032 0
 2578 029a B3BB     		cbnz	r3, .L220
1033:Drivers/lvgl/lvgl/src/draw/lv_draw_mask.c ****             else res2 = LV_DRAW_MASK_RES_UNKNOWN;
 2579              		.loc 1 1033 0
 2580 029c B4F90A30 		ldrsh	r3, [r4, #10]
 2581 02a0 AB42     		cmp	r3, r5
 2582 02a2 49DD     		ble	.L252
 2583 02a4 0120     		movs	r0, #1
 2584 02a6 1FE0     		b	.L219
 2585              	.LVL446:
 2586              	.L215:
1020:Drivers/lvgl/lvgl/src/draw/lv_draw_mask.c ****                 (p->cfg.start_angle > 180 && abs_y >= p->cfg.vertex_p.y)) {
 2587              		.loc 1 1020 0
 2588 02a8 B32B     		cmp	r3, #179
 2589 02aa 01DC     		bgt	.L216
1020:Drivers/lvgl/lvgl/src/draw/lv_draw_mask.c ****                 (p->cfg.start_angle > 180 && abs_y >= p->cfg.vertex_p.y)) {
 2590              		.loc 1 1020 0 is_stmt 0 discriminator 1
 2591 02ac AA42     		cmp	r2, r5
 2592 02ae 12DC     		bgt	.L249
 2593              	.L216:
1020:Drivers/lvgl/lvgl/src/draw/lv_draw_mask.c ****                 (p->cfg.start_angle > 180 && abs_y >= p->cfg.vertex_p.y)) {
 2594              		.loc 1 1020 0 discriminator 3
 2595 02b0 B42B     		cmp	r3, #180
 2596 02b2 01DD     		ble	.L217
1021:Drivers/lvgl/lvgl/src/draw/lv_draw_mask.c ****             res1 = LV_DRAW_MASK_RES_UNKNOWN;
 2597              		.loc 1 1021 0 is_stmt 1
 2598 02b4 AA42     		cmp	r2, r5
 2599 02b6 10DD     		ble	.L250
 2600              	.L217:
1025:Drivers/lvgl/lvgl/src/draw/lv_draw_mask.c ****         }
 2601              		.loc 1 1025 0
 2602 02b8 04F11003 		add	r3, r4, #16
 2603 02bc 0093     		str	r3, [sp]
 2604 02be 4346     		mov	r3, r8
 2605 02c0 2A46     		mov	r2, r5
 2606 02c2 3146     		mov	r1, r6
 2607              	.LVL447:
 2608 02c4 4846     		mov	r0, r9
 2609 02c6 FFF7FEFF 		bl	lv_draw_mask_line
ARM GAS  /tmp/cct67Zj5.s 			page 83


 2610              	.LVL448:
 2611 02ca 0746     		mov	r7, r0
 2612              	.LVL449:
 2613 02cc E1E7     		b	.L214
 2614              	.LVL450:
 2615              	.L247:
1014:Drivers/lvgl/lvgl/src/draw/lv_draw_mask.c ****         }
 2616              		.loc 1 1014 0
 2617 02ce 0327     		movs	r7, #3
 2618              	.LVL451:
 2619 02d0 DFE7     		b	.L214
 2620              	.LVL452:
 2621              	.L248:
1018:Drivers/lvgl/lvgl/src/draw/lv_draw_mask.c ****         }
 2622              		.loc 1 1018 0
 2623 02d2 0127     		movs	r7, #1
 2624              	.LVL453:
 2625 02d4 DDE7     		b	.L214
 2626              	.LVL454:
 2627              	.L249:
1022:Drivers/lvgl/lvgl/src/draw/lv_draw_mask.c ****         }
 2628              		.loc 1 1022 0
 2629 02d6 0327     		movs	r7, #3
 2630              	.LVL455:
 2631 02d8 DBE7     		b	.L214
 2632              	.LVL456:
 2633              	.L250:
 2634 02da 0327     		movs	r7, #3
 2635              	.LVL457:
 2636 02dc D9E7     		b	.L214
 2637              	.LVL458:
 2638              	.L266:
1029:Drivers/lvgl/lvgl/src/draw/lv_draw_mask.c ****             else res2 = LV_DRAW_MASK_RES_FULL_COVER;
 2639              		.loc 1 1029 0
 2640 02de B4F90A30 		ldrsh	r3, [r4, #10]
 2641 02e2 AB42     		cmp	r3, r5
 2642 02e4 26DD     		ble	.L251
 2643 02e6 0320     		movs	r0, #3
 2644              	.LVL459:
 2645              	.L219:
1044:Drivers/lvgl/lvgl/src/draw/lv_draw_mask.c ****         else if(res1 == LV_DRAW_MASK_RES_UNKNOWN && res2 == LV_DRAW_MASK_RES_UNKNOWN) return LV_DRA
 2646              		.loc 1 1044 0
 2647 02e8 B0FA80F3 		clz	r3, r0
 2648 02ec 5B09     		lsrs	r3, r3, #5
 2649 02ee 002F     		cmp	r7, #0
 2650 02f0 08BF     		it	eq
 2651 02f2 0123     		moveq	r3, #1
 2652 02f4 53BB     		cbnz	r3, .L255
1045:Drivers/lvgl/lvgl/src/draw/lv_draw_mask.c ****         else if(res1 == LV_DRAW_MASK_RES_FULL_COVER &&  res2 == LV_DRAW_MASK_RES_FULL_COVER) return
 2653              		.loc 1 1045 0
 2654 02f6 032F     		cmp	r7, #3
 2655 02f8 08BF     		it	eq
 2656 02fa 0328     		cmpeq	r0, #3
 2657 02fc 2BD0     		beq	.L256
1046:Drivers/lvgl/lvgl/src/draw/lv_draw_mask.c ****         else return LV_DRAW_MASK_RES_CHANGED;
 2658              		.loc 1 1046 0
 2659 02fe 012F     		cmp	r7, #1
ARM GAS  /tmp/cct67Zj5.s 			page 84


 2660 0300 08BF     		it	eq
 2661 0302 0128     		cmpeq	r0, #1
 2662 0304 29D1     		bne	.L257
 2663 0306 0127     		movs	r7, #1
 2664              	.LVL460:
 2665 0308 21E0     		b	.L189
 2666              	.LVL461:
 2667              	.L220:
1036:Drivers/lvgl/lvgl/src/draw/lv_draw_mask.c ****                 (p->cfg.end_angle > 180 && abs_y >= p->cfg.vertex_p.y)) {
 2668              		.loc 1 1036 0
 2669 030a B32B     		cmp	r3, #179
 2670 030c 03DC     		bgt	.L221
1036:Drivers/lvgl/lvgl/src/draw/lv_draw_mask.c ****                 (p->cfg.end_angle > 180 && abs_y >= p->cfg.vertex_p.y)) {
 2671              		.loc 1 1036 0 is_stmt 0 discriminator 1
 2672 030e B4F90A20 		ldrsh	r2, [r4, #10]
 2673 0312 AA42     		cmp	r2, r5
 2674 0314 12DC     		bgt	.L253
 2675              	.L221:
1036:Drivers/lvgl/lvgl/src/draw/lv_draw_mask.c ****                 (p->cfg.end_angle > 180 && abs_y >= p->cfg.vertex_p.y)) {
 2676              		.loc 1 1036 0 discriminator 3
 2677 0316 B42B     		cmp	r3, #180
 2678 0318 03DD     		ble	.L222
1037:Drivers/lvgl/lvgl/src/draw/lv_draw_mask.c ****             res2 = LV_DRAW_MASK_RES_UNKNOWN;
 2679              		.loc 1 1037 0 is_stmt 1
 2680 031a B4F90A30 		ldrsh	r3, [r4, #10]
 2681 031e AB42     		cmp	r3, r5
 2682 0320 0EDD     		ble	.L254
 2683              	.L222:
1041:Drivers/lvgl/lvgl/src/draw/lv_draw_mask.c ****         }
 2684              		.loc 1 1041 0
 2685 0322 3C34     		adds	r4, r4, #60
 2686 0324 0094     		str	r4, [sp]
 2687 0326 4346     		mov	r3, r8
 2688 0328 2A46     		mov	r2, r5
 2689 032a 3146     		mov	r1, r6
 2690 032c 4846     		mov	r0, r9
 2691 032e FFF7FEFF 		bl	lv_draw_mask_line
 2692              	.LVL462:
 2693 0332 D9E7     		b	.L219
 2694              	.LVL463:
 2695              	.L251:
1030:Drivers/lvgl/lvgl/src/draw/lv_draw_mask.c ****         }
 2696              		.loc 1 1030 0
 2697 0334 0120     		movs	r0, #1
 2698 0336 D7E7     		b	.L219
 2699              	.L252:
1034:Drivers/lvgl/lvgl/src/draw/lv_draw_mask.c ****         }
 2700              		.loc 1 1034 0
 2701 0338 0320     		movs	r0, #3
 2702 033a D5E7     		b	.L219
 2703              	.L253:
1038:Drivers/lvgl/lvgl/src/draw/lv_draw_mask.c ****         }
 2704              		.loc 1 1038 0
 2705 033c 0320     		movs	r0, #3
 2706 033e D3E7     		b	.L219
 2707              	.L254:
 2708 0340 0320     		movs	r0, #3
ARM GAS  /tmp/cct67Zj5.s 			page 85


 2709 0342 D1E7     		b	.L219
 2710              	.LVL464:
 2711              	.L223:
 2712              	.LBE153:
 2713              	.LBB154:
 926:Drivers/lvgl/lvgl/src/draw/lv_draw_mask.c ****         }
 2714              		.loc 1 926 0
 2715 0344 0127     		movs	r7, #1
 2716              	.LVL465:
 2717 0346 02E0     		b	.L189
 2718              	.LVL466:
 2719              	.L235:
 2720              	.LBE154:
 2721              	.LBB155:
 968:Drivers/lvgl/lvgl/src/draw/lv_draw_mask.c ****         }
 2722              		.loc 1 968 0
 2723 0348 0127     		movs	r7, #1
 2724              	.LVL467:
 2725 034a 00E0     		b	.L189
 2726              	.LVL468:
 2727              	.L255:
 2728              	.LBE155:
 2729              	.LBB156:
1044:Drivers/lvgl/lvgl/src/draw/lv_draw_mask.c ****         else if(res1 == LV_DRAW_MASK_RES_UNKNOWN && res2 == LV_DRAW_MASK_RES_UNKNOWN) return LV_DRA
 2730              		.loc 1 1044 0
 2731 034c 0027     		movs	r7, #0
 2732              	.LVL469:
 2733              	.L189:
 2734              	.LBE156:
1049:Drivers/lvgl/lvgl/src/draw/lv_draw_mask.c **** 
 2735              		.loc 1 1049 0
 2736 034e 3846     		mov	r0, r7
 2737 0350 02B0     		add	sp, sp, #8
 2738              	.LCFI16:
 2739              		.cfi_remember_state
 2740              		.cfi_def_cfa_offset 32
 2741              		@ sp needed
 2742 0352 BDE8F087 		pop	{r4, r5, r6, r7, r8, r9, r10, pc}
 2743              	.LVL470:
 2744              	.L256:
 2745              	.LCFI17:
 2746              		.cfi_restore_state
 2747              	.LBB157:
1045:Drivers/lvgl/lvgl/src/draw/lv_draw_mask.c ****         else if(res1 == LV_DRAW_MASK_RES_FULL_COVER &&  res2 == LV_DRAW_MASK_RES_FULL_COVER) return
 2748              		.loc 1 1045 0
 2749 0356 0027     		movs	r7, #0
 2750              	.LVL471:
 2751 0358 F9E7     		b	.L189
 2752              	.LVL472:
 2753              	.L257:
1047:Drivers/lvgl/lvgl/src/draw/lv_draw_mask.c ****     }
 2754              		.loc 1 1047 0
 2755 035a 0227     		movs	r7, #2
 2756              	.LVL473:
 2757 035c F7E7     		b	.L189
 2758              	.LBE157:
 2759              		.cfi_endproc
ARM GAS  /tmp/cct67Zj5.s 			page 86


 2760              	.LFE75:
 2762              		.section	.text.lv_draw_mask_radius,"ax",%progbits
 2763              		.align	1
 2764              		.syntax unified
 2765              		.thumb
 2766              		.thumb_func
 2767              		.fpu fpv5-d16
 2769              	lv_draw_mask_radius:
 2770              	.LFB76:
1056:Drivers/lvgl/lvgl/src/draw/lv_draw_mask.c ****     bool outer = p->cfg.outer;
 2771              		.loc 1 1056 0
 2772              		.cfi_startproc
 2773              		@ args = 4, pretend = 0, frame = 8
 2774              		@ frame_needed = 0, uses_anonymous_args = 0
 2775              	.LVL474:
 2776 0000 2DE9F04F 		push	{r4, r5, r6, r7, r8, r9, r10, fp, lr}
 2777              	.LCFI18:
 2778              		.cfi_def_cfa_offset 36
 2779              		.cfi_offset 4, -36
 2780              		.cfi_offset 5, -32
 2781              		.cfi_offset 6, -28
 2782              		.cfi_offset 7, -24
 2783              		.cfi_offset 8, -20
 2784              		.cfi_offset 9, -16
 2785              		.cfi_offset 10, -12
 2786              		.cfi_offset 11, -8
 2787              		.cfi_offset 14, -4
 2788 0004 83B0     		sub	sp, sp, #12
 2789              	.LCFI19:
 2790              		.cfi_def_cfa_offset 48
 2791 0006 0C9D     		ldr	r5, [sp, #48]
1057:Drivers/lvgl/lvgl/src/draw/lv_draw_mask.c ****     int32_t radius = p->cfg.radius;
 2792              		.loc 1 1057 0
 2793 0008 95F812B0 		ldrb	fp, [r5, #18]	@ zero_extendqisi2
 2794              	.LVL475:
1058:Drivers/lvgl/lvgl/src/draw/lv_draw_mask.c ****     lv_area_t rect;
 2795              		.loc 1 1058 0
 2796 000c B5F91040 		ldrsh	r4, [r5, #16]
 2797              	.LVL476:
 2798              	.LBB158:
 2799              	.LBB159:
 112:Drivers/lvgl/lvgl/src/draw/../misc/../font/../misc/lv_area.h ****     dest->y1 = src->y1;
 2800              		.loc 2 112 0
 2801 0010 B5F90870 		ldrsh	r7, [r5, #8]
 113:Drivers/lvgl/lvgl/src/draw/../misc/../font/../misc/lv_area.h ****     dest->x2 = src->x2;
 2802              		.loc 2 113 0
 2803 0014 B5F90AE0 		ldrsh	lr, [r5, #10]
 114:Drivers/lvgl/lvgl/src/draw/../misc/../font/../misc/lv_area.h ****     dest->y2 = src->y2;
 2804              		.loc 2 114 0
 2805 0018 B5F90C60 		ldrsh	r6, [r5, #12]
 115:Drivers/lvgl/lvgl/src/draw/../misc/../font/../misc/lv_area.h **** }
 2806              		.loc 2 115 0
 2807 001c B5F90EC0 		ldrsh	ip, [r5, #14]
 2808              	.LVL477:
 2809              	.LBE159:
 2810              	.LBE158:
1062:Drivers/lvgl/lvgl/src/draw/lv_draw_mask.c ****         if((abs_y < rect.y1 || abs_y > rect.y2)) {
ARM GAS  /tmp/cct67Zj5.s 			page 87


 2811              		.loc 1 1062 0
 2812 0020 1BF0010B 		ands	fp, fp, #1
 2813              	.LVL478:
 2814 0024 33D1     		bne	.L268
1063:Drivers/lvgl/lvgl/src/draw/lv_draw_mask.c ****             return LV_DRAW_MASK_RES_TRANSP;
 2815              		.loc 1 1063 0
 2816 0026 7245     		cmp	r2, lr
 2817 0028 C0F24481 		blt	.L293
1063:Drivers/lvgl/lvgl/src/draw/lv_draw_mask.c ****             return LV_DRAW_MASK_RES_TRANSP;
 2818              		.loc 1 1063 0 is_stmt 0 discriminator 1
 2819 002c 6245     		cmp	r2, ip
 2820 002e 00F34581 		bgt	.L312
 2821              	.L270:
 2822 0032 9946     		mov	r9, r3
 2823 0034 8846     		mov	r8, r1
 2824 0036 8246     		mov	r10, r0
1073:Drivers/lvgl/lvgl/src/draw/lv_draw_mask.c ****        (abs_y >= rect.y1 + radius && abs_y <= rect.y2 - radius)) {
 2825              		.loc 1 1073 0 is_stmt 1
 2826 0038 3B19     		adds	r3, r7, r4
 2827              	.LVL479:
 2828 003a 9942     		cmp	r1, r3
 2829 003c 04DB     		blt	.L271
1073:Drivers/lvgl/lvgl/src/draw/lv_draw_mask.c ****        (abs_y >= rect.y1 + radius && abs_y <= rect.y2 - radius)) {
 2830              		.loc 1 1073 0 is_stmt 0 discriminator 1
 2831 003e 09EB0103 		add	r3, r9, r1
 2832 0042 311B     		subs	r1, r6, r4
 2833              	.LVL480:
 2834 0044 8B42     		cmp	r3, r1
 2835 0046 07DD     		ble	.L272
 2836              	.L271:
1074:Drivers/lvgl/lvgl/src/draw/lv_draw_mask.c ****         if(outer == false) {
 2837              		.loc 1 1074 0 is_stmt 1 discriminator 3
 2838 0048 0EEB0403 		add	r3, lr, r4
1073:Drivers/lvgl/lvgl/src/draw/lv_draw_mask.c ****        (abs_y >= rect.y1 + radius && abs_y <= rect.y2 - radius)) {
 2839              		.loc 1 1073 0 discriminator 3
 2840 004c 9A42     		cmp	r2, r3
 2841 004e 4EDB     		blt	.L273
1074:Drivers/lvgl/lvgl/src/draw/lv_draw_mask.c ****         if(outer == false) {
 2842              		.loc 1 1074 0
 2843 0050 ACEB0403 		sub	r3, ip, r4
 2844 0054 9A42     		cmp	r2, r3
 2845 0056 4ADC     		bgt	.L273
 2846              	.L272:
1075:Drivers/lvgl/lvgl/src/draw/lv_draw_mask.c ****             /*Remove the edges*/
 2847              		.loc 1 1075 0
 2848 0058 BBF1000F 		cmp	fp, #0
 2849 005c 2CD1     		bne	.L274
 2850              	.LBB160:
1077:Drivers/lvgl/lvgl/src/draw/lv_draw_mask.c ****             if(last > len) return LV_DRAW_MASK_RES_TRANSP;
 2851              		.loc 1 1077 0
 2852 005e A7EB0807 		sub	r7, r7, r8
 2853              	.LVL481:
1078:Drivers/lvgl/lvgl/src/draw/lv_draw_mask.c ****             if(last >= 0) {
 2854              		.loc 1 1078 0
 2855 0062 B945     		cmp	r9, r7
 2856 0064 C0F22E81 		blt	.L297
1079:Drivers/lvgl/lvgl/src/draw/lv_draw_mask.c ****                 lv_memset_00(&mask_buf[0], last);
ARM GAS  /tmp/cct67Zj5.s 			page 88


 2857              		.loc 1 1079 0
 2858 0068 002F     		cmp	r7, #0
 2859 006a 17DA     		bge	.L313
 2860              	.LVL482:
 2861              	.L275:
1083:Drivers/lvgl/lvgl/src/draw/lv_draw_mask.c ****             if(first <= 0) return LV_DRAW_MASK_RES_TRANSP;
 2862              		.loc 1 1083 0
 2863 006c A6EB0808 		sub	r8, r6, r8
 2864 0070 08F10108 		add	r8, r8, #1
 2865              	.LVL483:
1084:Drivers/lvgl/lvgl/src/draw/lv_draw_mask.c ****             else if(first < len) {
 2866              		.loc 1 1084 0
 2867 0074 B8F1000F 		cmp	r8, #0
 2868 0078 40F32681 		ble	.L298
1085:Drivers/lvgl/lvgl/src/draw/lv_draw_mask.c ****                 lv_memset_00(&mask_buf[first], len - first);
 2869              		.loc 1 1085 0
 2870 007c C145     		cmp	r9, r8
 2871 007e 12DC     		bgt	.L314
 2872              	.L276:
1088:Drivers/lvgl/lvgl/src/draw/lv_draw_mask.c ****             else return LV_DRAW_MASK_RES_CHANGED;
 2873              		.loc 1 1088 0
 2874 0080 002F     		cmp	r7, #0
 2875 0082 40F02381 		bne	.L299
1088:Drivers/lvgl/lvgl/src/draw/lv_draw_mask.c ****             else return LV_DRAW_MASK_RES_CHANGED;
 2876              		.loc 1 1088 0 is_stmt 0 discriminator 1
 2877 0086 C145     		cmp	r9, r8
 2878 0088 14D1     		bne	.L315
1088:Drivers/lvgl/lvgl/src/draw/lv_draw_mask.c ****             else return LV_DRAW_MASK_RES_CHANGED;
 2879              		.loc 1 1088 0
 2880 008a 0120     		movs	r0, #1
 2881 008c 13E1     		b	.L269
 2882              	.LVL484:
 2883              	.L268:
 2884              	.LBE160:
1068:Drivers/lvgl/lvgl/src/draw/lv_draw_mask.c ****             return LV_DRAW_MASK_RES_FULL_COVER;
 2885              		.loc 1 1068 0 is_stmt 1
 2886 008e 7245     		cmp	r2, lr
 2887 0090 C0F21681 		blt	.L295
1068:Drivers/lvgl/lvgl/src/draw/lv_draw_mask.c ****             return LV_DRAW_MASK_RES_FULL_COVER;
 2888              		.loc 1 1068 0 is_stmt 0 discriminator 1
 2889 0094 6245     		cmp	r2, ip
 2890 0096 CCDD     		ble	.L270
1069:Drivers/lvgl/lvgl/src/draw/lv_draw_mask.c ****         }
 2891              		.loc 1 1069 0 is_stmt 1
 2892 0098 0120     		movs	r0, #1
 2893              	.LVL485:
 2894 009a 0CE1     		b	.L269
 2895              	.LVL486:
 2896              	.L313:
 2897              	.LBB161:
1080:Drivers/lvgl/lvgl/src/draw/lv_draw_mask.c ****             }
 2898              		.loc 1 1080 0
 2899 009c 3946     		mov	r1, r7
 2900 009e 5046     		mov	r0, r10
 2901              	.LVL487:
 2902 00a0 FFF7FEFF 		bl	lv_memset_00
 2903              	.LVL488:
ARM GAS  /tmp/cct67Zj5.s 			page 89


 2904 00a4 E2E7     		b	.L275
 2905              	.LVL489:
 2906              	.L314:
1086:Drivers/lvgl/lvgl/src/draw/lv_draw_mask.c ****             }
 2907              		.loc 1 1086 0
 2908 00a6 A9EB0801 		sub	r1, r9, r8
 2909 00aa 0AEB0800 		add	r0, r10, r8
 2910 00ae FFF7FEFF 		bl	lv_memset_00
 2911              	.LVL490:
 2912 00b2 E5E7     		b	.L276
 2913              	.L315:
1089:Drivers/lvgl/lvgl/src/draw/lv_draw_mask.c ****         }
 2914              		.loc 1 1089 0
 2915 00b4 0220     		movs	r0, #2
 2916 00b6 FEE0     		b	.L269
 2917              	.LVL491:
 2918              	.L274:
 2919              	.LBE161:
 2920              	.LBB162:
1093:Drivers/lvgl/lvgl/src/draw/lv_draw_mask.c ****             if(first <= len) {
 2921              		.loc 1 1093 0
 2922 00b8 B7EB0807 		subs	r7, r7, r8
 2923              	.LVL492:
 2924 00bc 0FD4     		bmi	.L316
 2925              	.LVL493:
 2926              	.L277:
1094:Drivers/lvgl/lvgl/src/draw/lv_draw_mask.c ****                 int32_t last = rect.x2 - abs_x - first + 1;
 2927              		.loc 1 1094 0
 2928 00be B945     		cmp	r9, r7
 2929 00c0 C0F20681 		blt	.L302
 2930              	.LBB163:
1095:Drivers/lvgl/lvgl/src/draw/lv_draw_mask.c ****                 if(first + last > len) last = len - first;
 2931              		.loc 1 1095 0
 2932 00c4 A6EB0801 		sub	r1, r6, r8
 2933 00c8 C91B     		subs	r1, r1, r7
 2934 00ca 0131     		adds	r1, r1, #1
 2935              	.LVL494:
1096:Drivers/lvgl/lvgl/src/draw/lv_draw_mask.c ****                 if(last >= 0) {
 2936              		.loc 1 1096 0
 2937 00cc 7B18     		adds	r3, r7, r1
 2938 00ce 9945     		cmp	r9, r3
 2939 00d0 01DA     		bge	.L278
1096:Drivers/lvgl/lvgl/src/draw/lv_draw_mask.c ****                 if(last >= 0) {
 2940              		.loc 1 1096 0 is_stmt 0 discriminator 1
 2941 00d2 A9EB0701 		sub	r1, r9, r7
 2942              	.LVL495:
 2943              	.L278:
1097:Drivers/lvgl/lvgl/src/draw/lv_draw_mask.c ****                     lv_memset_00(&mask_buf[first], last);
 2944              		.loc 1 1097 0 is_stmt 1
 2945 00d6 0029     		cmp	r1, #0
 2946 00d8 03DA     		bge	.L317
 2947              	.LBE163:
 2948              	.LBE162:
1102:Drivers/lvgl/lvgl/src/draw/lv_draw_mask.c ****     }
 2949              		.loc 1 1102 0
 2950 00da 0220     		movs	r0, #2
 2951              	.LVL496:
ARM GAS  /tmp/cct67Zj5.s 			page 90


 2952 00dc EBE0     		b	.L269
 2953              	.LVL497:
 2954              	.L316:
 2955              	.LBB165:
1093:Drivers/lvgl/lvgl/src/draw/lv_draw_mask.c ****             if(first <= len) {
 2956              		.loc 1 1093 0
 2957 00de 0027     		movs	r7, #0
 2958              	.LVL498:
 2959 00e0 EDE7     		b	.L277
 2960              	.LVL499:
 2961              	.L317:
 2962              	.LBB164:
1098:Drivers/lvgl/lvgl/src/draw/lv_draw_mask.c ****                 }
 2963              		.loc 1 1098 0
 2964 00e2 0AEB0700 		add	r0, r10, r7
 2965              	.LVL500:
 2966 00e6 FFF7FEFF 		bl	lv_memset_00
 2967              	.LVL501:
 2968              	.LBE164:
 2969              	.LBE165:
1102:Drivers/lvgl/lvgl/src/draw/lv_draw_mask.c ****     }
 2970              		.loc 1 1102 0
 2971 00ea 0220     		movs	r0, #2
 2972 00ec E3E0     		b	.L269
 2973              	.LVL502:
 2974              	.L273:
1112:Drivers/lvgl/lvgl/src/draw/lv_draw_mask.c ****     int32_t w = lv_area_get_width(&rect);
 2975              		.loc 1 1112 0
 2976 00ee A7EB0808 		sub	r8, r7, r8
 2977              	.LVL503:
 2978              	.LBB166:
 2979              	.LBB167:
 2980              		.loc 2 125 0
 2981 00f2 B6B2     		uxth	r6, r6
 2982 00f4 BFB2     		uxth	r7, r7
 2983 00f6 F71B     		subs	r7, r6, r7
 2984 00f8 BFB2     		uxth	r7, r7
 2985 00fa 0137     		adds	r7, r7, #1
 2986 00fc BFB2     		uxth	r7, r7
 2987              	.LVL504:
 2988              	.LBE167:
 2989              	.LBE166:
 2990              	.LBB168:
 2991              	.LBB169:
 126:Drivers/lvgl/lvgl/src/draw/../misc/../font/../misc/lv_area.h **** }
 127:Drivers/lvgl/lvgl/src/draw/../misc/../font/../misc/lv_area.h **** 
 128:Drivers/lvgl/lvgl/src/draw/../misc/../font/../misc/lv_area.h **** /**
 129:Drivers/lvgl/lvgl/src/draw/../misc/../font/../misc/lv_area.h ****  * Get the height of an area
 130:Drivers/lvgl/lvgl/src/draw/../misc/../font/../misc/lv_area.h ****  * @param area_p pointer to an area
 131:Drivers/lvgl/lvgl/src/draw/../misc/../font/../misc/lv_area.h ****  * @return the height of the area (if y1 == y2 -> height = 1)
 132:Drivers/lvgl/lvgl/src/draw/../misc/../font/../misc/lv_area.h ****  */
 133:Drivers/lvgl/lvgl/src/draw/../misc/../font/../misc/lv_area.h **** static inline lv_coord_t lv_area_get_height(const lv_area_t * area_p)
 134:Drivers/lvgl/lvgl/src/draw/../misc/../font/../misc/lv_area.h **** {
 135:Drivers/lvgl/lvgl/src/draw/../misc/../font/../misc/lv_area.h ****     return (lv_coord_t)(area_p->y2 - area_p->y1 + 1);
 2992              		.loc 2 135 0
 2993 00fe 1FFA8CF3 		uxth	r3, ip
 2994 0102 1FFA8EFE 		uxth	lr, lr
ARM GAS  /tmp/cct67Zj5.s 			page 91


 2995 0106 A3EB0E03 		sub	r3, r3, lr
 2996 010a 9BB2     		uxth	r3, r3
 2997 010c 0133     		adds	r3, r3, #1
 2998 010e 9BB2     		uxth	r3, r3
 2999              	.LVL505:
 3000              	.LBE169:
 3001              	.LBE168:
1116:Drivers/lvgl/lvgl/src/draw/lv_draw_mask.c **** 
 3002              		.loc 1 1116 0
 3003 0110 A2EB0E01 		sub	r1, r2, lr
 3004 0114 89B2     		uxth	r1, r1
 3005 0116 0AB2     		sxth	r2, r1
 3006              	.LVL506:
1121:Drivers/lvgl/lvgl/src/draw/lv_draw_mask.c ****         cir_y = radius - abs_y - 1;
 3007              		.loc 1 1121 0
 3008 0118 9442     		cmp	r4, r2
 3009 011a 21DD     		ble	.L279
1122:Drivers/lvgl/lvgl/src/draw/lv_draw_mask.c ****     }
 3010              		.loc 1 1122 0
 3011 011c 611A     		subs	r1, r4, r1
 3012 011e 89B2     		uxth	r1, r1
 3013 0120 0139     		subs	r1, r1, #1
 3014 0122 09B2     		sxth	r1, r1
 3015              	.LVL507:
 3016              	.L280:
1127:Drivers/lvgl/lvgl/src/draw/lv_draw_mask.c ****     lv_coord_t cir_x_right = k + w - radius + x_start;
 3017              		.loc 1 1127 0
 3018 0124 01AB     		add	r3, sp, #4
 3019 0126 0DF10602 		add	r2, sp, #6
 3020              	.LVL508:
 3021 012a 6869     		ldr	r0, [r5, #20]
 3022              	.LVL509:
 3023 012c FFF7FEFF 		bl	get_next_line
 3024              	.LVL510:
1128:Drivers/lvgl/lvgl/src/draw/lv_draw_mask.c ****     lv_coord_t cir_x_left = k + radius - x_start - 1;
 3025              		.loc 1 1128 0
 3026 0130 1FFA88F8 		uxth	r8, r8
 3027              	.LVL511:
 3028 0134 08EB0705 		add	r5, r8, r7
 3029 0138 ADB2     		uxth	r5, r5
 3030 013a A4B2     		uxth	r4, r4
 3031              	.LVL512:
 3032 013c 2D1B     		subs	r5, r5, r4
 3033 013e BDF80430 		ldrh	r3, [sp, #4]
 3034 0142 13FA85F5 		uxtah	r5, r3, r5
 3035 0146 2DB2     		sxth	r5, r5
 3036              	.LVL513:
1129:Drivers/lvgl/lvgl/src/draw/lv_draw_mask.c ****     lv_coord_t i;
 3037              		.loc 1 1129 0
 3038 0148 4444     		add	r4, r4, r8
 3039 014a A4B2     		uxth	r4, r4
 3040 014c E41A     		subs	r4, r4, r3
 3041 014e A4B2     		uxth	r4, r4
 3042 0150 013C     		subs	r4, r4, #1
 3043 0152 24B2     		sxth	r4, r4
 3044              	.LVL514:
1132:Drivers/lvgl/lvgl/src/draw/lv_draw_mask.c ****         for(i = 0; i < aa_len; i++) {
ARM GAS  /tmp/cct67Zj5.s 			page 92


 3045              		.loc 1 1132 0
 3046 0154 BBF1000F 		cmp	fp, #0
 3047 0158 40F09480 		bne	.L304
1133:Drivers/lvgl/lvgl/src/draw/lv_draw_mask.c ****             lv_opa_t opa = aa_opa[aa_len - i - 1];
 3048              		.loc 1 1133 0
 3049 015c 0022     		movs	r2, #0
 3050 015e 1DE0     		b	.L282
 3051              	.LVL515:
 3052              	.L279:
1125:Drivers/lvgl/lvgl/src/draw/lv_draw_mask.c ****     }
 3053              		.loc 1 1125 0
 3054 0160 E31A     		subs	r3, r4, r3
 3055              	.LVL516:
 3056 0162 11FA83F1 		uxtah	r1, r1, r3
 3057 0166 09B2     		sxth	r1, r1
 3058              	.LVL517:
 3059 0168 DCE7     		b	.L280
 3060              	.LVL518:
 3061              	.L305:
 3062              	.LBB170:
 3063              	.LBB171:
 3064              	.LBB172:
1523:Drivers/lvgl/lvgl/src/draw/lv_draw_mask.c ****     if(mask_new <= LV_OPA_MIN) return 0;
 3065              		.loc 1 1523 0
 3066 016a 3E46     		mov	r6, r7
 3067              	.LVL519:
 3068              	.L284:
 3069              	.LBE172:
 3070              	.LBE171:
1136:Drivers/lvgl/lvgl/src/draw/lv_draw_mask.c ****             }
 3071              		.loc 1 1136 0
 3072 016c 0AF80360 		strb	r6, [r10, r3]
 3073              	.L283:
1138:Drivers/lvgl/lvgl/src/draw/lv_draw_mask.c ****                 mask_buf[cir_x_left - i] = mask_mix(opa, mask_buf[cir_x_left - i]);
 3074              		.loc 1 1138 0
 3075 0170 631A     		subs	r3, r4, r1
 3076 0172 11D4     		bmi	.L285
1138:Drivers/lvgl/lvgl/src/draw/lv_draw_mask.c ****                 mask_buf[cir_x_left - i] = mask_mix(opa, mask_buf[cir_x_left - i]);
 3077              		.loc 1 1138 0 is_stmt 0 discriminator 1
 3078 0174 4B45     		cmp	r3, r9
 3079 0176 0FDA     		bge	.L285
1139:Drivers/lvgl/lvgl/src/draw/lv_draw_mask.c ****             }
 3080              		.loc 1 1139 0 is_stmt 1
 3081 0178 1AF80310 		ldrb	r1, [r10, r3]	@ zero_extendqisi2
 3082              	.LVL520:
 3083              	.LBB174:
 3084              	.LBB175:
1523:Drivers/lvgl/lvgl/src/draw/lv_draw_mask.c ****     if(mask_new <= LV_OPA_MIN) return 0;
 3085              		.loc 1 1523 0
 3086 017c FC29     		cmp	r1, #252
 3087 017e 09D8     		bhi	.L286
1524:Drivers/lvgl/lvgl/src/draw/lv_draw_mask.c **** 
 3088              		.loc 1 1524 0
 3089 0180 0229     		cmp	r1, #2
 3090 0182 28D9     		bls	.L307
 3091              		.loc 1 1526 0
 3092 0184 01FB07F7 		mul	r7, r1, r7
ARM GAS  /tmp/cct67Zj5.s 			page 93


 3093              	.LVL521:
 3094 0188 07EB0721 		add	r1, r7, r7, lsl #8
 3095              	.LVL522:
 3096 018c 07EBC117 		add	r7, r7, r1, lsl #7
 3097 0190 C7F3C757 		ubfx	r7, r7, #23, #8
 3098              	.L286:
 3099              	.LVL523:
 3100              	.LBE175:
 3101              	.LBE174:
1139:Drivers/lvgl/lvgl/src/draw/lv_draw_mask.c ****             }
 3102              		.loc 1 1139 0
 3103 0194 0AF80370 		strb	r7, [r10, r3]
 3104              	.L285:
 3105              	.LBE170:
1133:Drivers/lvgl/lvgl/src/draw/lv_draw_mask.c ****             lv_opa_t opa = aa_opa[aa_len - i - 1];
 3106              		.loc 1 1133 0 discriminator 2
 3107 0198 0132     		adds	r2, r2, #1
 3108              	.LVL524:
 3109 019a 12B2     		sxth	r2, r2
 3110              	.LVL525:
 3111              	.L282:
1133:Drivers/lvgl/lvgl/src/draw/lv_draw_mask.c ****             lv_opa_t opa = aa_opa[aa_len - i - 1];
 3112              		.loc 1 1133 0 is_stmt 0 discriminator 1
 3113 019c BDF90630 		ldrsh	r3, [sp, #6]
 3114 01a0 9342     		cmp	r3, r2
 3115 01a2 1ADD     		ble	.L318
 3116              	.LBB179:
1134:Drivers/lvgl/lvgl/src/draw/lv_draw_mask.c ****             if(cir_x_right + i >= 0 && cir_x_right + i < len) {
 3117              		.loc 1 1134 0 is_stmt 1
 3118 01a4 1146     		mov	r1, r2
 3119 01a6 9B1A     		subs	r3, r3, r2
 3120 01a8 013B     		subs	r3, r3, #1
 3121 01aa C75C     		ldrb	r7, [r0, r3]	@ zero_extendqisi2
 3122              	.LVL526:
1135:Drivers/lvgl/lvgl/src/draw/lv_draw_mask.c ****                 mask_buf[cir_x_right + i] = mask_mix(opa, mask_buf[cir_x_right + i]);
 3123              		.loc 1 1135 0
 3124 01ac AB18     		adds	r3, r5, r2
 3125 01ae DFD4     		bmi	.L283
1135:Drivers/lvgl/lvgl/src/draw/lv_draw_mask.c ****                 mask_buf[cir_x_right + i] = mask_mix(opa, mask_buf[cir_x_right + i]);
 3126              		.loc 1 1135 0 is_stmt 0 discriminator 1
 3127 01b0 4B45     		cmp	r3, r9
 3128 01b2 DDDA     		bge	.L283
1136:Drivers/lvgl/lvgl/src/draw/lv_draw_mask.c ****             }
 3129              		.loc 1 1136 0 is_stmt 1
 3130 01b4 1AF80360 		ldrb	r6, [r10, r3]	@ zero_extendqisi2
 3131              	.LVL527:
 3132              	.LBB177:
 3133              	.LBB173:
1523:Drivers/lvgl/lvgl/src/draw/lv_draw_mask.c ****     if(mask_new <= LV_OPA_MIN) return 0;
 3134              		.loc 1 1523 0
 3135 01b8 FC2E     		cmp	r6, #252
 3136 01ba D6D8     		bhi	.L305
1524:Drivers/lvgl/lvgl/src/draw/lv_draw_mask.c **** 
 3137              		.loc 1 1524 0
 3138 01bc 022E     		cmp	r6, #2
 3139 01be 08D9     		bls	.L306
 3140              		.loc 1 1526 0
ARM GAS  /tmp/cct67Zj5.s 			page 94


 3141 01c0 06FB07F6 		mul	r6, r6, r7
 3142              	.LVL528:
 3143 01c4 06EB062C 		add	ip, r6, r6, lsl #8
 3144 01c8 06EBCC16 		add	r6, r6, ip, lsl #7
 3145 01cc C6F3C756 		ubfx	r6, r6, #23, #8
 3146 01d0 CCE7     		b	.L284
 3147              	.LVL529:
 3148              	.L306:
1524:Drivers/lvgl/lvgl/src/draw/lv_draw_mask.c **** 
 3149              		.loc 1 1524 0
 3150 01d2 0026     		movs	r6, #0
 3151              	.LVL530:
 3152 01d4 CAE7     		b	.L284
 3153              	.LVL531:
 3154              	.L307:
 3155              	.LBE173:
 3156              	.LBE177:
 3157              	.LBB178:
 3158              	.LBB176:
 3159 01d6 0027     		movs	r7, #0
 3160              	.LVL532:
 3161 01d8 DCE7     		b	.L286
 3162              	.LVL533:
 3163              	.L318:
 3164              	.LBE176:
 3165              	.LBE178:
 3166              	.LBE179:
1144:Drivers/lvgl/lvgl/src/draw/lv_draw_mask.c ****         lv_memset_00(&mask_buf[cir_x_right], len - cir_x_right);
 3167              		.loc 1 1144 0
 3168 01da A818     		adds	r0, r5, r2
 3169              	.LVL534:
 3170 01dc 4845     		cmp	r0, r9
 3171 01de A8BF     		it	ge
 3172 01e0 4846     		movge	r0, r9
 3173 01e2 20EAE070 		bic	r0, r0, r0, asr #31
 3174 01e6 00B2     		sxth	r0, r0
 3175              	.LVL535:
1145:Drivers/lvgl/lvgl/src/draw/lv_draw_mask.c **** 
 3176              		.loc 1 1145 0
 3177 01e8 A9EB0001 		sub	r1, r9, r0
 3178 01ec 5044     		add	r0, r0, r10
 3179              	.LVL536:
 3180 01ee FFF7FEFF 		bl	lv_memset_00
 3181              	.LVL537:
1148:Drivers/lvgl/lvgl/src/draw/lv_draw_mask.c ****         lv_memset_00(&mask_buf[0], cir_x_left);
 3182              		.loc 1 1148 0
 3183 01f2 BDF90610 		ldrsh	r1, [sp, #6]
 3184 01f6 611A     		subs	r1, r4, r1
 3185 01f8 0131     		adds	r1, r1, #1
 3186 01fa 8945     		cmp	r9, r1
 3187 01fc A8BF     		it	ge
 3188 01fe 8946     		movge	r9, r1
 3189 0200 29EAE971 		bic	r1, r9, r9, asr #31
 3190              	.LVL538:
1149:Drivers/lvgl/lvgl/src/draw/lv_draw_mask.c ****     }
 3191              		.loc 1 1149 0
 3192 0204 09B2     		sxth	r1, r1
ARM GAS  /tmp/cct67Zj5.s 			page 95


 3193 0206 5046     		mov	r0, r10
 3194 0208 FFF7FEFF 		bl	lv_memset_00
 3195              	.LVL539:
1167:Drivers/lvgl/lvgl/src/draw/lv_draw_mask.c **** }
 3196              		.loc 1 1167 0
 3197 020c 0220     		movs	r0, #2
 3198 020e 52E0     		b	.L269
 3199              	.LVL540:
 3200              	.L308:
 3201              	.LBB180:
 3202              	.LBB181:
 3203              	.LBB182:
 3204              	.LBB183:
1523:Drivers/lvgl/lvgl/src/draw/lv_draw_mask.c ****     if(mask_new <= LV_OPA_MIN) return 0;
 3205              		.loc 1 1523 0
 3206 0210 1346     		mov	r3, r2
 3207              	.LVL541:
 3208              	.L289:
 3209              	.LBE183:
 3210              	.LBE182:
1155:Drivers/lvgl/lvgl/src/draw/lv_draw_mask.c ****             }
 3211              		.loc 1 1155 0
 3212 0212 0AF80130 		strb	r3, [r10, r1]
 3213              	.L288:
1157:Drivers/lvgl/lvgl/src/draw/lv_draw_mask.c ****                 mask_buf[cir_x_left - i] = mask_mix(opa, mask_buf[cir_x_left - i]);
 3214              		.loc 1 1157 0
 3215 0216 E31B     		subs	r3, r4, r7
 3216 0218 11D4     		bmi	.L290
1157:Drivers/lvgl/lvgl/src/draw/lv_draw_mask.c ****                 mask_buf[cir_x_left - i] = mask_mix(opa, mask_buf[cir_x_left - i]);
 3217              		.loc 1 1157 0 is_stmt 0 discriminator 1
 3218 021a 4B45     		cmp	r3, r9
 3219 021c 0FDA     		bge	.L290
1158:Drivers/lvgl/lvgl/src/draw/lv_draw_mask.c ****             }
 3220              		.loc 1 1158 0 is_stmt 1
 3221 021e 1AF80310 		ldrb	r1, [r10, r3]	@ zero_extendqisi2
 3222              	.LVL542:
 3223              	.LBB185:
 3224              	.LBB186:
1523:Drivers/lvgl/lvgl/src/draw/lv_draw_mask.c ****     if(mask_new <= LV_OPA_MIN) return 0;
 3225              		.loc 1 1523 0
 3226 0222 FC29     		cmp	r1, #252
 3227 0224 09D8     		bhi	.L291
1524:Drivers/lvgl/lvgl/src/draw/lv_draw_mask.c **** 
 3228              		.loc 1 1524 0
 3229 0226 0229     		cmp	r1, #2
 3230 0228 2AD9     		bls	.L310
 3231              		.loc 1 1526 0
 3232 022a 01FB02F2 		mul	r2, r1, r2
 3233              	.LVL543:
 3234 022e 02EB0221 		add	r1, r2, r2, lsl #8
 3235              	.LVL544:
 3236 0232 02EBC112 		add	r2, r2, r1, lsl #7
 3237 0236 C2F3C752 		ubfx	r2, r2, #23, #8
 3238              	.L291:
 3239              	.LVL545:
 3240              	.LBE186:
 3241              	.LBE185:
ARM GAS  /tmp/cct67Zj5.s 			page 96


1158:Drivers/lvgl/lvgl/src/draw/lv_draw_mask.c ****             }
 3242              		.loc 1 1158 0
 3243 023a 0AF80320 		strb	r2, [r10, r3]
 3244              	.L290:
 3245              	.LBE181:
1152:Drivers/lvgl/lvgl/src/draw/lv_draw_mask.c ****             lv_opa_t opa = 255 - (aa_opa[aa_len - 1 - i]);
 3246              		.loc 1 1152 0 discriminator 2
 3247 023e 731C     		adds	r3, r6, #1
 3248 0240 1EB2     		sxth	r6, r3
 3249              	.LVL546:
 3250              	.L281:
1152:Drivers/lvgl/lvgl/src/draw/lv_draw_mask.c ****             lv_opa_t opa = 255 - (aa_opa[aa_len - 1 - i]);
 3251              		.loc 1 1152 0 is_stmt 0 discriminator 1
 3252 0242 BDF90630 		ldrsh	r3, [sp, #6]
 3253 0246 B342     		cmp	r3, r6
 3254 0248 1EDD     		ble	.L319
 3255              	.LBB190:
1153:Drivers/lvgl/lvgl/src/draw/lv_draw_mask.c ****             if(cir_x_right + i >= 0 && cir_x_right + i < len) {
 3256              		.loc 1 1153 0 is_stmt 1
 3257 024a 013B     		subs	r3, r3, #1
 3258 024c 3746     		mov	r7, r6
 3259 024e 9B1B     		subs	r3, r3, r6
 3260 0250 C25C     		ldrb	r2, [r0, r3]	@ zero_extendqisi2
 3261 0252 D243     		mvns	r2, r2
 3262 0254 D2B2     		uxtb	r2, r2
 3263              	.LVL547:
1154:Drivers/lvgl/lvgl/src/draw/lv_draw_mask.c ****                 mask_buf[cir_x_right + i] = mask_mix(opa, mask_buf[cir_x_right + i]);
 3264              		.loc 1 1154 0
 3265 0256 A919     		adds	r1, r5, r6
 3266 0258 DDD4     		bmi	.L288
1154:Drivers/lvgl/lvgl/src/draw/lv_draw_mask.c ****                 mask_buf[cir_x_right + i] = mask_mix(opa, mask_buf[cir_x_right + i]);
 3267              		.loc 1 1154 0 is_stmt 0 discriminator 1
 3268 025a 4945     		cmp	r1, r9
 3269 025c DBDA     		bge	.L288
1155:Drivers/lvgl/lvgl/src/draw/lv_draw_mask.c ****             }
 3270              		.loc 1 1155 0 is_stmt 1
 3271 025e 1AF80130 		ldrb	r3, [r10, r1]	@ zero_extendqisi2
 3272              	.LVL548:
 3273              	.LBB188:
 3274              	.LBB184:
1523:Drivers/lvgl/lvgl/src/draw/lv_draw_mask.c ****     if(mask_new <= LV_OPA_MIN) return 0;
 3275              		.loc 1 1523 0
 3276 0262 FC2B     		cmp	r3, #252
 3277 0264 D4D8     		bhi	.L308
1524:Drivers/lvgl/lvgl/src/draw/lv_draw_mask.c **** 
 3278              		.loc 1 1524 0
 3279 0266 022B     		cmp	r3, #2
 3280 0268 08D9     		bls	.L309
 3281              		.loc 1 1526 0
 3282 026a 03FB02F3 		mul	r3, r3, r2
 3283              	.LVL549:
 3284 026e 03EB032C 		add	ip, r3, r3, lsl #8
 3285 0272 03EBCC13 		add	r3, r3, ip, lsl #7
 3286 0276 C3F3C753 		ubfx	r3, r3, #23, #8
 3287 027a CAE7     		b	.L289
 3288              	.LVL550:
 3289              	.L309:
ARM GAS  /tmp/cct67Zj5.s 			page 97


1524:Drivers/lvgl/lvgl/src/draw/lv_draw_mask.c **** 
 3290              		.loc 1 1524 0
 3291 027c 0023     		movs	r3, #0
 3292              	.LVL551:
 3293 027e C8E7     		b	.L289
 3294              	.LVL552:
 3295              	.L310:
 3296              	.LBE184:
 3297              	.LBE188:
 3298              	.LBB189:
 3299              	.LBB187:
 3300 0280 0022     		movs	r2, #0
 3301              	.LVL553:
 3302 0282 DAE7     		b	.L291
 3303              	.LVL554:
 3304              	.L304:
 3305              	.LBE187:
 3306              	.LBE189:
 3307              	.LBE190:
1152:Drivers/lvgl/lvgl/src/draw/lv_draw_mask.c ****             lv_opa_t opa = 255 - (aa_opa[aa_len - 1 - i]);
 3308              		.loc 1 1152 0
 3309 0284 0026     		movs	r6, #0
 3310 0286 DCE7     		b	.L281
 3311              	.LVL555:
 3312              	.L319:
1162:Drivers/lvgl/lvgl/src/draw/lv_draw_mask.c ****         lv_coord_t clr_len = LV_CLAMP(0, cir_x_right - clr_start, len - clr_start);
 3313              		.loc 1 1162 0
 3314 0288 0134     		adds	r4, r4, #1
 3315              	.LVL556:
 3316 028a 4C45     		cmp	r4, r9
 3317 028c A8BF     		it	ge
 3318 028e 4C46     		movge	r4, r9
 3319              	.LVL557:
 3320 0290 24EAE474 		bic	r4, r4, r4, asr #31
 3321 0294 24B2     		sxth	r4, r4
 3322              	.LVL558:
1163:Drivers/lvgl/lvgl/src/draw/lv_draw_mask.c ****         lv_memset_00(&mask_buf[clr_start], clr_len);
 3323              		.loc 1 1163 0
 3324 0296 A9EB0401 		sub	r1, r9, r4
 3325 029a 281B     		subs	r0, r5, r4
 3326              	.LVL559:
 3327 029c 8842     		cmp	r0, r1
 3328 029e A8BF     		it	ge
 3329 02a0 0846     		movge	r0, r1
 3330 02a2 20EAE071 		bic	r1, r0, r0, asr #31
 3331              	.LVL560:
1164:Drivers/lvgl/lvgl/src/draw/lv_draw_mask.c ****     }
 3332              		.loc 1 1164 0
 3333 02a6 09B2     		sxth	r1, r1
 3334 02a8 0AEB0400 		add	r0, r10, r4
 3335 02ac FFF7FEFF 		bl	lv_memset_00
 3336              	.LVL561:
 3337              	.LBE180:
1167:Drivers/lvgl/lvgl/src/draw/lv_draw_mask.c **** }
 3338              		.loc 1 1167 0
 3339 02b0 0220     		movs	r0, #2
 3340 02b2 00E0     		b	.L269
ARM GAS  /tmp/cct67Zj5.s 			page 98


 3341              	.LVL562:
 3342              	.L293:
1064:Drivers/lvgl/lvgl/src/draw/lv_draw_mask.c ****         }
 3343              		.loc 1 1064 0
 3344 02b4 0020     		movs	r0, #0
 3345              	.LVL563:
 3346              	.L269:
1168:Drivers/lvgl/lvgl/src/draw/lv_draw_mask.c **** 
 3347              		.loc 1 1168 0
 3348 02b6 03B0     		add	sp, sp, #12
 3349              	.LCFI20:
 3350              		.cfi_remember_state
 3351              		.cfi_def_cfa_offset 36
 3352              		@ sp needed
 3353 02b8 BDE8F08F 		pop	{r4, r5, r6, r7, r8, r9, r10, fp, pc}
 3354              	.LVL564:
 3355              	.L312:
 3356              	.LCFI21:
 3357              		.cfi_restore_state
1064:Drivers/lvgl/lvgl/src/draw/lv_draw_mask.c ****         }
 3358              		.loc 1 1064 0
 3359 02bc 0020     		movs	r0, #0
 3360              	.LVL565:
 3361 02be FAE7     		b	.L269
 3362              	.LVL566:
 3363              	.L295:
1069:Drivers/lvgl/lvgl/src/draw/lv_draw_mask.c ****         }
 3364              		.loc 1 1069 0
 3365 02c0 0120     		movs	r0, #1
 3366              	.LVL567:
 3367 02c2 F8E7     		b	.L269
 3368              	.LVL568:
 3369              	.L297:
 3370              	.LBB191:
1078:Drivers/lvgl/lvgl/src/draw/lv_draw_mask.c ****             if(last >= 0) {
 3371              		.loc 1 1078 0
 3372 02c4 0020     		movs	r0, #0
 3373              	.LVL569:
 3374 02c6 F6E7     		b	.L269
 3375              	.LVL570:
 3376              	.L298:
1084:Drivers/lvgl/lvgl/src/draw/lv_draw_mask.c ****             else if(first < len) {
 3377              		.loc 1 1084 0
 3378 02c8 0020     		movs	r0, #0
 3379 02ca F4E7     		b	.L269
 3380              	.L299:
1089:Drivers/lvgl/lvgl/src/draw/lv_draw_mask.c ****         }
 3381              		.loc 1 1089 0
 3382 02cc 0220     		movs	r0, #2
 3383 02ce F2E7     		b	.L269
 3384              	.LVL571:
 3385              	.L302:
 3386              	.LBE191:
1102:Drivers/lvgl/lvgl/src/draw/lv_draw_mask.c ****     }
 3387              		.loc 1 1102 0
 3388 02d0 0220     		movs	r0, #2
 3389              	.LVL572:
ARM GAS  /tmp/cct67Zj5.s 			page 99


 3390 02d2 F0E7     		b	.L269
 3391              		.cfi_endproc
 3392              	.LFE76:
 3394              		.section	.text.circ_calc_aa4,"ax",%progbits
 3395              		.align	1
 3396              		.syntax unified
 3397              		.thumb
 3398              		.thumb_func
 3399              		.fpu fpv5-d16
 3401              	circ_calc_aa4:
 3402              	.LFB83:
1365:Drivers/lvgl/lvgl/src/draw/lv_draw_mask.c ****     if(radius == 0) return;
 3403              		.loc 1 1365 0
 3404              		.cfi_startproc
 3405              		@ args = 0, pretend = 0, frame = 48
 3406              		@ frame_needed = 0, uses_anonymous_args = 0
 3407              	.LVL573:
1366:Drivers/lvgl/lvgl/src/draw/lv_draw_mask.c ****     c->radius = radius;
 3408              		.loc 1 1366 0
 3409 0000 0029     		cmp	r1, #0
 3410 0002 00F06981 		beq	.L349
1365:Drivers/lvgl/lvgl/src/draw/lv_draw_mask.c ****     if(radius == 0) return;
 3411              		.loc 1 1365 0
 3412 0006 2DE9F047 		push	{r4, r5, r6, r7, r8, r9, r10, lr}
 3413              	.LCFI22:
 3414              		.cfi_def_cfa_offset 32
 3415              		.cfi_offset 4, -32
 3416              		.cfi_offset 5, -28
 3417              		.cfi_offset 6, -24
 3418              		.cfi_offset 7, -20
 3419              		.cfi_offset 8, -16
 3420              		.cfi_offset 9, -12
 3421              		.cfi_offset 10, -8
 3422              		.cfi_offset 14, -4
 3423 000a 8CB0     		sub	sp, sp, #48
 3424              	.LCFI23:
 3425              		.cfi_def_cfa_offset 80
 3426 000c 8846     		mov	r8, r1
 3427 000e 0546     		mov	r5, r0
1367:Drivers/lvgl/lvgl/src/draw/lv_draw_mask.c **** 
 3428              		.loc 1 1367 0
 3429 0010 2983     		strh	r1, [r5, #24]	@ movhi
1370:Drivers/lvgl/lvgl/src/draw/lv_draw_mask.c **** 
 3430              		.loc 1 1370 0
 3431 0012 0068     		ldr	r0, [r0]
 3432              	.LVL574:
 3433 0014 08B1     		cbz	r0, .L322
1370:Drivers/lvgl/lvgl/src/draw/lv_draw_mask.c **** 
 3434              		.loc 1 1370 0 is_stmt 0 discriminator 1
 3435 0016 FFF7FEFF 		bl	lv_mem_free
 3436              	.LVL575:
 3437              	.L322:
1372:Drivers/lvgl/lvgl/src/draw/lv_draw_mask.c ****     LV_ASSERT_MALLOC(c->buf);
 3438              		.loc 1 1372 0 is_stmt 1
 3439 001a 08F10106 		add	r6, r8, #1
 3440 001e 06EB4603 		add	r3, r6, r6, lsl #1
 3441 0022 5800     		lsls	r0, r3, #1
ARM GAS  /tmp/cct67Zj5.s 			page 100


 3442 0024 FFF7FEFF 		bl	lv_mem_alloc
 3443              	.LVL576:
 3444 0028 2860     		str	r0, [r5]
1373:Drivers/lvgl/lvgl/src/draw/lv_draw_mask.c ****     c->cir_opa = c->buf;
 3445              		.loc 1 1373 0
 3446 002a D0B1     		cbz	r0, .L324
1374:Drivers/lvgl/lvgl/src/draw/lv_draw_mask.c ****     c->opa_start_on_y = (uint16_t *)(c->buf + 2 * radius + 2);
 3447              		.loc 1 1374 0
 3448 002c 6860     		str	r0, [r5, #4]
1375:Drivers/lvgl/lvgl/src/draw/lv_draw_mask.c ****     c->x_start_on_y = (uint16_t *)(c->buf + 4 * radius + 4);
 3449              		.loc 1 1375 0
 3450 002e 4FEA4803 		lsl	r3, r8, #1
 3451 0032 0233     		adds	r3, r3, #2
 3452 0034 0344     		add	r3, r3, r0
 3453 0036 EB60     		str	r3, [r5, #12]
1376:Drivers/lvgl/lvgl/src/draw/lv_draw_mask.c **** 
 3454              		.loc 1 1376 0
 3455 0038 4FEA8803 		lsl	r3, r8, #2
 3456 003c 0433     		adds	r3, r3, #4
 3457 003e 0344     		add	r3, r3, r0
 3458 0040 AB60     		str	r3, [r5, #8]
1379:Drivers/lvgl/lvgl/src/draw/lv_draw_mask.c ****         c->cir_opa[0] = 180;
 3459              		.loc 1 1379 0
 3460 0042 B8F1010F 		cmp	r8, #1
 3461 0046 0DD1     		bne	.L325
1380:Drivers/lvgl/lvgl/src/draw/lv_draw_mask.c ****         c->opa_start_on_y[0] = 0;
 3462              		.loc 1 1380 0
 3463 0048 B423     		movs	r3, #180
 3464 004a 0370     		strb	r3, [r0]
1381:Drivers/lvgl/lvgl/src/draw/lv_draw_mask.c ****         c->opa_start_on_y[1] = 1;
 3465              		.loc 1 1381 0
 3466 004c EA68     		ldr	r2, [r5, #12]
 3467 004e 0023     		movs	r3, #0
 3468 0050 1380     		strh	r3, [r2]	@ movhi
1382:Drivers/lvgl/lvgl/src/draw/lv_draw_mask.c ****         c->x_start_on_y[0] = 0;
 3469              		.loc 1 1382 0
 3470 0052 EA68     		ldr	r2, [r5, #12]
 3471 0054 0121     		movs	r1, #1
 3472 0056 5180     		strh	r1, [r2, #2]	@ movhi
1383:Drivers/lvgl/lvgl/src/draw/lv_draw_mask.c ****         return;
 3473              		.loc 1 1383 0
 3474 0058 AA68     		ldr	r2, [r5, #8]
 3475 005a 1380     		strh	r3, [r2]	@ movhi
 3476              	.L320:
1510:Drivers/lvgl/lvgl/src/draw/lv_draw_mask.c **** 
 3477              		.loc 1 1510 0
 3478 005c 0CB0     		add	sp, sp, #48
 3479              	.LCFI24:
 3480              		.cfi_remember_state
 3481              		.cfi_def_cfa_offset 32
 3482              		@ sp needed
 3483 005e BDE8F087 		pop	{r4, r5, r6, r7, r8, r9, r10, pc}
 3484              	.LVL577:
 3485              	.L324:
 3486              	.LCFI25:
 3487              		.cfi_restore_state
 3488 0062 FEE7     		b	.L324
ARM GAS  /tmp/cct67Zj5.s 			page 101


 3489              	.L325:
1387:Drivers/lvgl/lvgl/src/draw/lv_draw_mask.c ****     lv_coord_t * cir_y = &cir_x[(radius + 1) * 2];
 3490              		.loc 1 1387 0
 3491 0064 F000     		lsls	r0, r6, #3
 3492 0066 FFF7FEFF 		bl	lv_mem_buf_get
 3493              	.LVL578:
 3494 006a 0746     		mov	r7, r0
 3495              	.LVL579:
1388:Drivers/lvgl/lvgl/src/draw/lv_draw_mask.c **** 
 3496              		.loc 1 1388 0
 3497 006c 00EB8606 		add	r6, r0, r6, lsl #2
 3498              	.LVL580:
1393:Drivers/lvgl/lvgl/src/draw/lv_draw_mask.c ****     int32_t i;
 3499              		.loc 1 1393 0
 3500 0070 4FEA8802 		lsl	r2, r8, #2
 3501 0074 12B2     		sxth	r2, r2
 3502 0076 0DF12A01 		add	r1, sp, #42
 3503 007a 0BA8     		add	r0, sp, #44
 3504              	.LVL581:
 3505 007c FFF7FEFF 		bl	circ_init
 3506              	.LVL582:
1399:Drivers/lvgl/lvgl/src/draw/lv_draw_mask.c ****     x_fract[0] = 0;
 3507              		.loc 1 1399 0
 3508 0080 BDF92C30 		ldrsh	r3, [sp, #44]
 3509 0084 9B10     		asrs	r3, r3, #2
 3510 0086 0693     		str	r3, [sp, #24]
1400:Drivers/lvgl/lvgl/src/draw/lv_draw_mask.c **** 
 3511              		.loc 1 1400 0
 3512 0088 0023     		movs	r3, #0
 3513 008a 0293     		str	r3, [sp, #8]
1398:Drivers/lvgl/lvgl/src/draw/lv_draw_mask.c ****     x_int[0] = cp.x >> 2;
 3514              		.loc 1 1398 0
 3515 008c 1C46     		mov	r4, r3
1390:Drivers/lvgl/lvgl/src/draw/lv_draw_mask.c ****     lv_point_t cp;
 3516              		.loc 1 1390 0
 3517 008e 9946     		mov	r9, r3
1403:Drivers/lvgl/lvgl/src/draw/lv_draw_mask.c ****         /*Calculate 4 point of the circle */
 3518              		.loc 1 1403 0
 3519 0090 4BE0     		b	.L326
 3520              	.LVL583:
 3521              	.L352:
1408:Drivers/lvgl/lvgl/src/draw/lv_draw_mask.c ****             x_fract[i] = cp.x & 0x3;
 3522              		.loc 1 1408 0 discriminator 2
 3523 0092 BDF92C30 		ldrsh	r3, [sp, #44]
 3524 0096 9910     		asrs	r1, r3, #2
 3525 0098 0CAA     		add	r2, sp, #48
 3526 009a 02EB8A02 		add	r2, r2, r10, lsl #2
 3527 009e 42F8181C 		str	r1, [r2, #-24]
1409:Drivers/lvgl/lvgl/src/draw/lv_draw_mask.c ****         }
 3528              		.loc 1 1409 0 discriminator 2
 3529 00a2 03F00303 		and	r3, r3, #3
 3530 00a6 42F8283C 		str	r3, [r2, #-40]
1405:Drivers/lvgl/lvgl/src/draw/lv_draw_mask.c ****             circ_next(&cp, &tmp);
 3531              		.loc 1 1405 0 discriminator 2
 3532 00aa 0AF1010A 		add	r10, r10, #1
 3533              	.LVL584:
 3534              	.L334:
ARM GAS  /tmp/cct67Zj5.s 			page 102


1405:Drivers/lvgl/lvgl/src/draw/lv_draw_mask.c ****             circ_next(&cp, &tmp);
 3535              		.loc 1 1405 0 is_stmt 0 discriminator 1
 3536 00ae BAF1030F 		cmp	r10, #3
 3537 00b2 09DC     		bgt	.L327
1406:Drivers/lvgl/lvgl/src/draw/lv_draw_mask.c ****             if(circ_cont(&cp) == false) break;
 3538              		.loc 1 1406 0 is_stmt 1
 3539 00b4 0DF12A01 		add	r1, sp, #42
 3540 00b8 0BA8     		add	r0, sp, #44
 3541 00ba FFF7FEFF 		bl	circ_next
 3542              	.LVL585:
1407:Drivers/lvgl/lvgl/src/draw/lv_draw_mask.c ****             x_int[i] = cp.x >> 2;
 3543              		.loc 1 1407 0
 3544 00be 0BA8     		add	r0, sp, #44
 3545 00c0 FFF7FEFF 		bl	circ_cont
 3546              	.LVL586:
 3547 00c4 0028     		cmp	r0, #0
 3548 00c6 E4D1     		bne	.L352
 3549              	.L327:
1411:Drivers/lvgl/lvgl/src/draw/lv_draw_mask.c **** 
 3550              		.loc 1 1411 0
 3551 00c8 BAF1040F 		cmp	r10, #4
 3552 00cc 40F09980 		bne	.L329
1414:Drivers/lvgl/lvgl/src/draw/lv_draw_mask.c ****             cir_x[cir_size] = x_int[0];
 3553              		.loc 1 1414 0
 3554 00d0 069B     		ldr	r3, [sp, #24]
 3555 00d2 099A     		ldr	r2, [sp, #36]
 3556 00d4 9342     		cmp	r3, r2
 3557 00d6 30D0     		beq	.L353
1422:Drivers/lvgl/lvgl/src/draw/lv_draw_mask.c ****             cir_x[cir_size] = x_int[0];
 3558              		.loc 1 1422 0
 3559 00d8 079A     		ldr	r2, [sp, #28]
 3560 00da 9342     		cmp	r3, r2
 3561 00dc 43D0     		beq	.L332
1423:Drivers/lvgl/lvgl/src/draw/lv_draw_mask.c ****             cir_y[cir_size] = y_8th_cnt;
 3562              		.loc 1 1423 0
 3563 00de 27F81430 		strh	r3, [r7, r4, lsl #1]	@ movhi
1424:Drivers/lvgl/lvgl/src/draw/lv_draw_mask.c ****             c->cir_opa[cir_size] = x_fract[0];
 3564              		.loc 1 1424 0
 3565 00e2 0FFA89F1 		sxth	r1, r9
 3566 00e6 26F81410 		strh	r1, [r6, r4, lsl #1]	@ movhi
1425:Drivers/lvgl/lvgl/src/draw/lv_draw_mask.c ****             c->cir_opa[cir_size] *= 16;
 3567              		.loc 1 1425 0
 3568 00ea 6A68     		ldr	r2, [r5, #4]
 3569 00ec 0298     		ldr	r0, [sp, #8]
 3570 00ee 1055     		strb	r0, [r2, r4]
1426:Drivers/lvgl/lvgl/src/draw/lv_draw_mask.c ****             cir_size++;
 3571              		.loc 1 1426 0
 3572 00f0 6868     		ldr	r0, [r5, #4]
 3573 00f2 025D     		ldrb	r2, [r0, r4]	@ zero_extendqisi2
 3574 00f4 1201     		lsls	r2, r2, #4
 3575 00f6 0255     		strb	r2, [r0, r4]
1427:Drivers/lvgl/lvgl/src/draw/lv_draw_mask.c **** 
 3576              		.loc 1 1427 0
 3577 00f8 A4B2     		uxth	r4, r4
 3578 00fa 621C     		adds	r2, r4, #1
 3579 00fc 12B2     		sxth	r2, r2
 3580              	.LVL587:
ARM GAS  /tmp/cct67Zj5.s 			page 103


1429:Drivers/lvgl/lvgl/src/draw/lv_draw_mask.c ****             cir_y[cir_size] = y_8th_cnt;
 3581              		.loc 1 1429 0
 3582 00fe 013B     		subs	r3, r3, #1
 3583 0100 27F81230 		strh	r3, [r7, r2, lsl #1]	@ movhi
1430:Drivers/lvgl/lvgl/src/draw/lv_draw_mask.c ****             c->cir_opa[cir_size] = 1 * 4 + x_fract[1] + x_fract[2] + x_fract[3];;
 3584              		.loc 1 1430 0
 3585 0104 26F81210 		strh	r1, [r6, r2, lsl #1]	@ movhi
1431:Drivers/lvgl/lvgl/src/draw/lv_draw_mask.c ****             c->cir_opa[cir_size] *= 16;
 3586              		.loc 1 1431 0
 3587 0108 039B     		ldr	r3, [sp, #12]
 3588 010a 0499     		ldr	r1, [sp, #16]
 3589 010c 0B44     		add	r3, r3, r1
 3590 010e 6968     		ldr	r1, [r5, #4]
 3591 0110 0598     		ldr	r0, [sp, #20]
 3592 0112 50FA83F3 		uxtab	r3, r0, r3
 3593 0116 0433     		adds	r3, r3, #4
 3594 0118 8B54     		strb	r3, [r1, r2]
1432:Drivers/lvgl/lvgl/src/draw/lv_draw_mask.c ****             cir_size++;
 3595              		.loc 1 1432 0
 3596 011a 6968     		ldr	r1, [r5, #4]
 3597 011c 8B5C     		ldrb	r3, [r1, r2]	@ zero_extendqisi2
 3598 011e 1B01     		lsls	r3, r3, #4
 3599 0120 8B54     		strb	r3, [r1, r2]
1433:Drivers/lvgl/lvgl/src/draw/lv_draw_mask.c ****         }
 3600              		.loc 1 1433 0
 3601 0122 0234     		adds	r4, r4, #2
 3602 0124 24B2     		sxth	r4, r4
 3603              	.LVL588:
 3604              	.L331:
1464:Drivers/lvgl/lvgl/src/draw/lv_draw_mask.c ****     }
 3605              		.loc 1 1464 0
 3606 0126 09F10109 		add	r9, r9, #1
 3607              	.LVL589:
 3608              	.L326:
1403:Drivers/lvgl/lvgl/src/draw/lv_draw_mask.c ****         /*Calculate 4 point of the circle */
 3609              		.loc 1 1403 0
 3610 012a 0BA8     		add	r0, sp, #44
 3611 012c FFF7FEFF 		bl	circ_cont
 3612              	.LVL590:
 3613 0130 0028     		cmp	r0, #0
 3614 0132 66D0     		beq	.L329
1405:Drivers/lvgl/lvgl/src/draw/lv_draw_mask.c ****             circ_next(&cp, &tmp);
 3615              		.loc 1 1405 0
 3616 0134 4FF0000A 		mov	r10, #0
 3617 0138 B9E7     		b	.L334
 3618              	.LVL591:
 3619              	.L353:
1415:Drivers/lvgl/lvgl/src/draw/lv_draw_mask.c ****             cir_y[cir_size] = y_8th_cnt;
 3620              		.loc 1 1415 0
 3621 013a 27F81430 		strh	r3, [r7, r4, lsl #1]	@ movhi
1416:Drivers/lvgl/lvgl/src/draw/lv_draw_mask.c ****             c->cir_opa[cir_size] = x_fract[0] + x_fract[1] + x_fract[2] + x_fract[3];
 3622              		.loc 1 1416 0
 3623 013e 26F81490 		strh	r9, [r6, r4, lsl #1]	@ movhi
1417:Drivers/lvgl/lvgl/src/draw/lv_draw_mask.c ****             c->cir_opa[cir_size] *= 16;
 3624              		.loc 1 1417 0
 3625 0142 029B     		ldr	r3, [sp, #8]
 3626 0144 039A     		ldr	r2, [sp, #12]
ARM GAS  /tmp/cct67Zj5.s 			page 104


 3627 0146 1344     		add	r3, r3, r2
 3628 0148 049A     		ldr	r2, [sp, #16]
 3629 014a 52FA83F3 		uxtab	r3, r2, r3
 3630 014e 6A68     		ldr	r2, [r5, #4]
 3631 0150 0599     		ldr	r1, [sp, #20]
 3632 0152 51FA83F3 		uxtab	r3, r1, r3
 3633 0156 1355     		strb	r3, [r2, r4]
1418:Drivers/lvgl/lvgl/src/draw/lv_draw_mask.c ****             cir_size++;
 3634              		.loc 1 1418 0
 3635 0158 6A68     		ldr	r2, [r5, #4]
 3636 015a 135D     		ldrb	r3, [r2, r4]	@ zero_extendqisi2
 3637 015c 1B01     		lsls	r3, r3, #4
 3638 015e 1355     		strb	r3, [r2, r4]
1419:Drivers/lvgl/lvgl/src/draw/lv_draw_mask.c ****         }
 3639              		.loc 1 1419 0
 3640 0160 0134     		adds	r4, r4, #1
 3641              	.LVL592:
 3642 0162 24B2     		sxth	r4, r4
 3643              	.LVL593:
 3644 0164 DFE7     		b	.L331
 3645              	.L332:
1436:Drivers/lvgl/lvgl/src/draw/lv_draw_mask.c ****             cir_x[cir_size] = x_int[0];
 3646              		.loc 1 1436 0
 3647 0166 089A     		ldr	r2, [sp, #32]
 3648 0168 9342     		cmp	r3, r2
 3649 016a 23D0     		beq	.L333
1437:Drivers/lvgl/lvgl/src/draw/lv_draw_mask.c ****             cir_y[cir_size] = y_8th_cnt;
 3650              		.loc 1 1437 0
 3651 016c 27F81430 		strh	r3, [r7, r4, lsl #1]	@ movhi
1438:Drivers/lvgl/lvgl/src/draw/lv_draw_mask.c ****             c->cir_opa[cir_size] = x_fract[0] + x_fract[1];
 3652              		.loc 1 1438 0
 3653 0170 0FFA89FC 		sxth	ip, r9
 3654 0174 26F814C0 		strh	ip, [r6, r4, lsl #1]	@ movhi
1439:Drivers/lvgl/lvgl/src/draw/lv_draw_mask.c ****             c->cir_opa[cir_size] *= 16;
 3655              		.loc 1 1439 0
 3656 0178 6968     		ldr	r1, [r5, #4]
 3657 017a 029A     		ldr	r2, [sp, #8]
 3658 017c 0398     		ldr	r0, [sp, #12]
 3659 017e 0244     		add	r2, r2, r0
 3660 0180 0A55     		strb	r2, [r1, r4]
1440:Drivers/lvgl/lvgl/src/draw/lv_draw_mask.c ****             cir_size++;
 3661              		.loc 1 1440 0
 3662 0182 6968     		ldr	r1, [r5, #4]
 3663 0184 0A5D     		ldrb	r2, [r1, r4]	@ zero_extendqisi2
 3664 0186 1201     		lsls	r2, r2, #4
 3665 0188 0A55     		strb	r2, [r1, r4]
1441:Drivers/lvgl/lvgl/src/draw/lv_draw_mask.c **** 
 3666              		.loc 1 1441 0
 3667 018a A4B2     		uxth	r4, r4
 3668 018c 621C     		adds	r2, r4, #1
 3669 018e 12B2     		sxth	r2, r2
 3670              	.LVL594:
1443:Drivers/lvgl/lvgl/src/draw/lv_draw_mask.c ****             cir_y[cir_size] = y_8th_cnt;
 3671              		.loc 1 1443 0
 3672 0190 013B     		subs	r3, r3, #1
 3673 0192 27F81230 		strh	r3, [r7, r2, lsl #1]	@ movhi
1444:Drivers/lvgl/lvgl/src/draw/lv_draw_mask.c ****             c->cir_opa[cir_size] = 2 * 4 + x_fract[2] + x_fract[3];;
ARM GAS  /tmp/cct67Zj5.s 			page 105


 3674              		.loc 1 1444 0
 3675 0196 26F812C0 		strh	ip, [r6, r2, lsl #1]	@ movhi
1445:Drivers/lvgl/lvgl/src/draw/lv_draw_mask.c ****             c->cir_opa[cir_size] *= 16;
 3676              		.loc 1 1445 0
 3677 019a 6968     		ldr	r1, [r5, #4]
 3678 019c 049B     		ldr	r3, [sp, #16]
 3679 019e 0598     		ldr	r0, [sp, #20]
 3680 01a0 0344     		add	r3, r3, r0
 3681 01a2 0833     		adds	r3, r3, #8
 3682 01a4 8B54     		strb	r3, [r1, r2]
1446:Drivers/lvgl/lvgl/src/draw/lv_draw_mask.c ****             cir_size++;
 3683              		.loc 1 1446 0
 3684 01a6 6968     		ldr	r1, [r5, #4]
 3685 01a8 8B5C     		ldrb	r3, [r1, r2]	@ zero_extendqisi2
 3686 01aa 1B01     		lsls	r3, r3, #4
 3687 01ac 8B54     		strb	r3, [r1, r2]
1447:Drivers/lvgl/lvgl/src/draw/lv_draw_mask.c ****         }
 3688              		.loc 1 1447 0
 3689 01ae 0234     		adds	r4, r4, #2
 3690 01b0 24B2     		sxth	r4, r4
 3691              	.LVL595:
 3692 01b2 B8E7     		b	.L331
 3693              	.L333:
1451:Drivers/lvgl/lvgl/src/draw/lv_draw_mask.c ****             cir_y[cir_size] = y_8th_cnt;
 3694              		.loc 1 1451 0
 3695 01b4 27F81430 		strh	r3, [r7, r4, lsl #1]	@ movhi
1452:Drivers/lvgl/lvgl/src/draw/lv_draw_mask.c ****             c->cir_opa[cir_size] = x_fract[0] + x_fract[1] + x_fract[2];
 3696              		.loc 1 1452 0
 3697 01b8 0FFA89F1 		sxth	r1, r9
 3698 01bc 26F81410 		strh	r1, [r6, r4, lsl #1]	@ movhi
1453:Drivers/lvgl/lvgl/src/draw/lv_draw_mask.c ****             c->cir_opa[cir_size] *= 16;
 3699              		.loc 1 1453 0
 3700 01c0 029A     		ldr	r2, [sp, #8]
 3701 01c2 0398     		ldr	r0, [sp, #12]
 3702 01c4 0244     		add	r2, r2, r0
 3703 01c6 6868     		ldr	r0, [r5, #4]
 3704 01c8 0190     		str	r0, [sp, #4]
 3705 01ca 0498     		ldr	r0, [sp, #16]
 3706 01cc 50FA82F2 		uxtab	r2, r0, r2
 3707 01d0 0198     		ldr	r0, [sp, #4]
 3708 01d2 0255     		strb	r2, [r0, r4]
1454:Drivers/lvgl/lvgl/src/draw/lv_draw_mask.c ****             cir_size++;
 3709              		.loc 1 1454 0
 3710 01d4 6868     		ldr	r0, [r5, #4]
 3711 01d6 025D     		ldrb	r2, [r0, r4]	@ zero_extendqisi2
 3712 01d8 1201     		lsls	r2, r2, #4
 3713 01da 0255     		strb	r2, [r0, r4]
1455:Drivers/lvgl/lvgl/src/draw/lv_draw_mask.c **** 
 3714              		.loc 1 1455 0
 3715 01dc A4B2     		uxth	r4, r4
 3716 01de 621C     		adds	r2, r4, #1
 3717 01e0 12B2     		sxth	r2, r2
 3718              	.LVL596:
1457:Drivers/lvgl/lvgl/src/draw/lv_draw_mask.c ****             cir_y[cir_size] = y_8th_cnt;
 3719              		.loc 1 1457 0
 3720 01e2 013B     		subs	r3, r3, #1
 3721 01e4 27F81230 		strh	r3, [r7, r2, lsl #1]	@ movhi
ARM GAS  /tmp/cct67Zj5.s 			page 106


1458:Drivers/lvgl/lvgl/src/draw/lv_draw_mask.c ****             c->cir_opa[cir_size] = 3 * 4 + x_fract[3];;
 3722              		.loc 1 1458 0
 3723 01e8 26F81210 		strh	r1, [r6, r2, lsl #1]	@ movhi
1459:Drivers/lvgl/lvgl/src/draw/lv_draw_mask.c ****             c->cir_opa[cir_size] *= 16;
 3724              		.loc 1 1459 0
 3725 01ec 6968     		ldr	r1, [r5, #4]
 3726 01ee 059B     		ldr	r3, [sp, #20]
 3727 01f0 0C33     		adds	r3, r3, #12
 3728 01f2 8B54     		strb	r3, [r1, r2]
1460:Drivers/lvgl/lvgl/src/draw/lv_draw_mask.c ****             cir_size++;
 3729              		.loc 1 1460 0
 3730 01f4 6968     		ldr	r1, [r5, #4]
 3731 01f6 8B5C     		ldrb	r3, [r1, r2]	@ zero_extendqisi2
 3732 01f8 1B01     		lsls	r3, r3, #4
 3733 01fa 8B54     		strb	r3, [r1, r2]
1461:Drivers/lvgl/lvgl/src/draw/lv_draw_mask.c ****         }
 3734              		.loc 1 1461 0
 3735 01fc 0234     		adds	r4, r4, #2
 3736 01fe 24B2     		sxth	r4, r4
 3737              	.LVL597:
 3738 0200 91E7     		b	.L331
 3739              	.LVL598:
 3740              	.L329:
1468:Drivers/lvgl/lvgl/src/draw/lv_draw_mask.c ****     int32_t mid_int = mid >> 10;
 3741              		.loc 1 1468 0
 3742 0202 40F2D323 		movw	r3, #723
 3743 0206 03FB08F3 		mul	r3, r3, r8
 3744              	.LVL599:
1469:Drivers/lvgl/lvgl/src/draw/lv_draw_mask.c ****     if(cir_x[cir_size - 1] != mid_int || cir_y[cir_size - 1] != mid_int) {
 3745              		.loc 1 1469 0
 3746 020a 9A12     		asrs	r2, r3, #10
 3747              	.LVL600:
1470:Drivers/lvgl/lvgl/src/draw/lv_draw_mask.c ****         int32_t tmp_val = mid - (mid_int << 10);
 3748              		.loc 1 1470 0
 3749 020c 2146     		mov	r1, r4
 3750 020e 6FF00040 		mvn	r0, #-2147483648
 3751 0212 2044     		add	r0, r0, r4
 3752 0214 37F910C0 		ldrsh	ip, [r7, r0, lsl #1]
 3753 0218 9445     		cmp	ip, r2
 3754 021a 26D0     		beq	.L354
 3755              	.L335:
 3756 021c C3F30903 		ubfx	r3, r3, #0, #10
 3757              	.LVL601:
 3758              	.LBB192:
1472:Drivers/lvgl/lvgl/src/draw/lv_draw_mask.c ****             tmp_val = tmp_val * tmp_val * 2;
 3759              		.loc 1 1472 0
 3760 0220 B3F5007F 		cmp	r3, #512
 3761 0224 26DC     		bgt	.L337
1473:Drivers/lvgl/lvgl/src/draw/lv_draw_mask.c ****             tmp_val = tmp_val >> (10 + 6);
 3762              		.loc 1 1473 0
 3763 0226 03FB03F3 		mul	r3, r3, r3
 3764              	.LVL602:
1474:Drivers/lvgl/lvgl/src/draw/lv_draw_mask.c ****         }
 3765              		.loc 1 1474 0
 3766 022a DB0B     		lsrs	r3, r3, #15
 3767              	.LVL603:
 3768              	.L338:
ARM GAS  /tmp/cct67Zj5.s 			page 107


1483:Drivers/lvgl/lvgl/src/draw/lv_draw_mask.c ****         cir_y[cir_size] = mid_int;
 3769              		.loc 1 1483 0
 3770 022c 12B2     		sxth	r2, r2
 3771              	.LVL604:
 3772 022e 27F81120 		strh	r2, [r7, r1, lsl #1]	@ movhi
1484:Drivers/lvgl/lvgl/src/draw/lv_draw_mask.c ****         c->cir_opa[cir_size] = tmp_val;
 3773              		.loc 1 1484 0
 3774 0232 26F81120 		strh	r2, [r6, r1, lsl #1]	@ movhi
1485:Drivers/lvgl/lvgl/src/draw/lv_draw_mask.c ****         c->cir_opa[cir_size] *= 16;
 3775              		.loc 1 1485 0
 3776 0236 6A68     		ldr	r2, [r5, #4]
 3777 0238 5354     		strb	r3, [r2, r1]
1486:Drivers/lvgl/lvgl/src/draw/lv_draw_mask.c ****         cir_size++;
 3778              		.loc 1 1486 0
 3779 023a 6A68     		ldr	r2, [r5, #4]
 3780 023c 535C     		ldrb	r3, [r2, r1]	@ zero_extendqisi2
 3781              	.LVL605:
 3782 023e 1B01     		lsls	r3, r3, #4
 3783 0240 5354     		strb	r3, [r2, r1]
1487:Drivers/lvgl/lvgl/src/draw/lv_draw_mask.c ****     }
 3784              		.loc 1 1487 0
 3785 0242 0134     		adds	r4, r4, #1
 3786              	.LVL606:
 3787 0244 24B2     		sxth	r4, r4
 3788              	.LVL607:
 3789              	.L336:
 3790              	.LBE192:
1491:Drivers/lvgl/lvgl/src/draw/lv_draw_mask.c ****         cir_x[cir_size] = cir_y[i];
 3791              		.loc 1 1491 0
 3792 0246 A31E     		subs	r3, r4, #2
 3793              	.LVL608:
 3794              	.L339:
1491:Drivers/lvgl/lvgl/src/draw/lv_draw_mask.c ****         cir_x[cir_size] = cir_y[i];
 3795              		.loc 1 1491 0 is_stmt 0 discriminator 1
 3796 0248 002B     		cmp	r3, #0
 3797 024a 1BDB     		blt	.L355
1492:Drivers/lvgl/lvgl/src/draw/lv_draw_mask.c ****         cir_y[cir_size] = cir_x[i];
 3798              		.loc 1 1492 0 is_stmt 1 discriminator 3
 3799 024c 36F91320 		ldrsh	r2, [r6, r3, lsl #1]
 3800 0250 27F81420 		strh	r2, [r7, r4, lsl #1]	@ movhi
1493:Drivers/lvgl/lvgl/src/draw/lv_draw_mask.c ****         c->cir_opa[cir_size] = c->cir_opa[i];
 3801              		.loc 1 1493 0 discriminator 3
 3802 0254 37F91320 		ldrsh	r2, [r7, r3, lsl #1]
 3803 0258 26F81420 		strh	r2, [r6, r4, lsl #1]	@ movhi
1494:Drivers/lvgl/lvgl/src/draw/lv_draw_mask.c ****     }
 3804              		.loc 1 1494 0 discriminator 3
 3805 025c 6A68     		ldr	r2, [r5, #4]
 3806 025e D15C     		ldrb	r1, [r2, r3]	@ zero_extendqisi2
 3807 0260 1155     		strb	r1, [r2, r4]
1491:Drivers/lvgl/lvgl/src/draw/lv_draw_mask.c ****         cir_x[cir_size] = cir_y[i];
 3808              		.loc 1 1491 0 discriminator 3
 3809 0262 013B     		subs	r3, r3, #1
 3810              	.LVL609:
 3811 0264 0134     		adds	r4, r4, #1
 3812              	.LVL610:
 3813 0266 24B2     		sxth	r4, r4
 3814              	.LVL611:
ARM GAS  /tmp/cct67Zj5.s 			page 108


 3815 0268 EEE7     		b	.L339
 3816              	.LVL612:
 3817              	.L354:
1470:Drivers/lvgl/lvgl/src/draw/lv_draw_mask.c ****         int32_t tmp_val = mid - (mid_int << 10);
 3818              		.loc 1 1470 0 discriminator 1
 3819 026a 36F91000 		ldrsh	r0, [r6, r0, lsl #1]
 3820 026e 9042     		cmp	r0, r2
 3821 0270 D4D1     		bne	.L335
 3822 0272 E8E7     		b	.L336
 3823              	.LVL613:
 3824              	.L337:
 3825              	.LBB193:
1477:Drivers/lvgl/lvgl/src/draw/lv_draw_mask.c ****             tmp_val = tmp_val * tmp_val * 2;
 3826              		.loc 1 1477 0
 3827 0274 C3F58063 		rsb	r3, r3, #1024
 3828              	.LVL614:
1478:Drivers/lvgl/lvgl/src/draw/lv_draw_mask.c ****             tmp_val = tmp_val >> (10 + 6);
 3829              		.loc 1 1478 0
 3830 0278 03FB03F3 		mul	r3, r3, r3
 3831              	.LVL615:
1479:Drivers/lvgl/lvgl/src/draw/lv_draw_mask.c ****             tmp_val = 15 - tmp_val;
 3832              		.loc 1 1479 0
 3833 027c DB13     		asrs	r3, r3, #15
 3834              	.LVL616:
1480:Drivers/lvgl/lvgl/src/draw/lv_draw_mask.c ****         }
 3835              		.loc 1 1480 0
 3836 027e C3F10F03 		rsb	r3, r3, #15
 3837              	.LVL617:
 3838 0282 D3E7     		b	.L338
 3839              	.LVL618:
 3840              	.L355:
 3841              	.LBE193:
1499:Drivers/lvgl/lvgl/src/draw/lv_draw_mask.c ****     while(i < cir_size) {
 3842              		.loc 1 1499 0
 3843 0284 EA68     		ldr	r2, [r5, #12]
 3844 0286 0023     		movs	r3, #0
 3845 0288 1380     		strh	r3, [r2]	@ movhi
1497:Drivers/lvgl/lvgl/src/draw/lv_draw_mask.c ****     i = 0;
 3846              		.loc 1 1497 0
 3847 028a 1A46     		mov	r2, r3
1500:Drivers/lvgl/lvgl/src/draw/lv_draw_mask.c ****         c->opa_start_on_y[y] = i;
 3848              		.loc 1 1500 0
 3849 028c 12E0     		b	.L341
 3850              	.LVL619:
 3851              	.L344:
1504:Drivers/lvgl/lvgl/src/draw/lv_draw_mask.c ****         }
 3852              		.loc 1 1504 0 discriminator 3
 3853 028e 395E     		ldrsh	r1, [r7, r0]
 3854 0290 A868     		ldr	r0, [r5, #8]
 3855 0292 30F80C80 		ldrh	r8, [r0, ip]
 3856 0296 4145     		cmp	r1, r8
 3857 0298 A8BF     		it	ge
 3858 029a 4146     		movge	r1, r8
 3859 029c 20F80C10 		strh	r1, [r0, ip]	@ movhi
1503:Drivers/lvgl/lvgl/src/draw/lv_draw_mask.c ****             c->x_start_on_y[y] = LV_MIN(c->x_start_on_y[y], cir_x[i]);
 3860              		.loc 1 1503 0 discriminator 3
 3861 02a0 0133     		adds	r3, r3, #1
ARM GAS  /tmp/cct67Zj5.s 			page 109


 3862              	.LVL620:
 3863              	.L342:
1503:Drivers/lvgl/lvgl/src/draw/lv_draw_mask.c ****             c->x_start_on_y[y] = LV_MIN(c->x_start_on_y[y], cir_x[i]);
 3864              		.loc 1 1503 0 is_stmt 0 discriminator 1
 3865 02a2 5800     		lsls	r0, r3, #1
 3866 02a4 36F91310 		ldrsh	r1, [r6, r3, lsl #1]
 3867 02a8 9142     		cmp	r1, r2
 3868 02aa 01D1     		bne	.L343
1503:Drivers/lvgl/lvgl/src/draw/lv_draw_mask.c ****             c->x_start_on_y[y] = LV_MIN(c->x_start_on_y[y], cir_x[i]);
 3869              		.loc 1 1503 0 discriminator 2
 3870 02ac 9E45     		cmp	lr, r3
 3871 02ae EEDC     		bgt	.L344
 3872              	.L343:
1506:Drivers/lvgl/lvgl/src/draw/lv_draw_mask.c ****     }
 3873              		.loc 1 1506 0 is_stmt 1
 3874 02b0 0132     		adds	r2, r2, #1
 3875              	.LVL621:
 3876 02b2 12B2     		sxth	r2, r2
 3877              	.LVL622:
 3878              	.L341:
1500:Drivers/lvgl/lvgl/src/draw/lv_draw_mask.c ****         c->opa_start_on_y[y] = i;
 3879              		.loc 1 1500 0
 3880 02b4 A646     		mov	lr, r4
 3881 02b6 9C42     		cmp	r4, r3
 3882 02b8 0ADD     		ble	.L356
1501:Drivers/lvgl/lvgl/src/draw/lv_draw_mask.c ****         c->x_start_on_y[y] = cir_x[i];
 3883              		.loc 1 1501 0
 3884 02ba E968     		ldr	r1, [r5, #12]
 3885 02bc 4FEA420C 		lsl	ip, r2, #1
 3886 02c0 21F81230 		strh	r3, [r1, r2, lsl #1]	@ movhi
1502:Drivers/lvgl/lvgl/src/draw/lv_draw_mask.c ****         for(; cir_y[i] == y && i < (int32_t)cir_size; i++) {
 3887              		.loc 1 1502 0
 3888 02c4 A968     		ldr	r1, [r5, #8]
 3889 02c6 37F81300 		ldrh	r0, [r7, r3, lsl #1]
 3890 02ca 21F81200 		strh	r0, [r1, r2, lsl #1]	@ movhi
1503:Drivers/lvgl/lvgl/src/draw/lv_draw_mask.c ****             c->x_start_on_y[y] = LV_MIN(c->x_start_on_y[y], cir_x[i]);
 3891              		.loc 1 1503 0
 3892 02ce E8E7     		b	.L342
 3893              	.L356:
1509:Drivers/lvgl/lvgl/src/draw/lv_draw_mask.c **** }
 3894              		.loc 1 1509 0
 3895 02d0 3846     		mov	r0, r7
 3896 02d2 FFF7FEFF 		bl	lv_mem_buf_release
 3897              	.LVL623:
 3898 02d6 C1E6     		b	.L320
 3899              	.LVL624:
 3900              	.L349:
 3901              	.LCFI26:
 3902              		.cfi_def_cfa_offset 0
 3903              		.cfi_restore 4
 3904              		.cfi_restore 5
 3905              		.cfi_restore 6
 3906              		.cfi_restore 7
 3907              		.cfi_restore 8
 3908              		.cfi_restore 9
 3909              		.cfi_restore 10
 3910              		.cfi_restore 14
ARM GAS  /tmp/cct67Zj5.s 			page 110


 3911 02d8 7047     		bx	lr
 3912              		.cfi_endproc
 3913              	.LFE83:
 3915              		.section	.text.lv_draw_mask_add,"ax",%progbits
 3916              		.align	1
 3917              		.global	lv_draw_mask_add
 3918              		.syntax unified
 3919              		.thumb
 3920              		.thumb_func
 3921              		.fpu fpv5-d16
 3923              	lv_draw_mask_add:
 3924              	.LFB56:
  82:Drivers/lvgl/lvgl/src/draw/lv_draw_mask.c ****     /*Look for a free entry*/
 3925              		.loc 1 82 0
 3926              		.cfi_startproc
 3927              		@ args = 0, pretend = 0, frame = 0
 3928              		@ frame_needed = 0, uses_anonymous_args = 0
 3929              		@ link register save eliminated.
 3930              	.LVL625:
  85:Drivers/lvgl/lvgl/src/draw/lv_draw_mask.c ****         if(LV_GC_ROOT(_lv_draw_mask_list[i]).param == NULL) break;
 3931              		.loc 1 85 0
 3932 0000 0023     		movs	r3, #0
 3933              	.LVL626:
 3934              	.L358:
  85:Drivers/lvgl/lvgl/src/draw/lv_draw_mask.c ****         if(LV_GC_ROOT(_lv_draw_mask_list[i]).param == NULL) break;
 3935              		.loc 1 85 0 is_stmt 0 discriminator 1
 3936 0002 0F2B     		cmp	r3, #15
 3937 0004 06D8     		bhi	.L359
  86:Drivers/lvgl/lvgl/src/draw/lv_draw_mask.c ****     }
 3938              		.loc 1 86 0 is_stmt 1
 3939 0006 0A4A     		ldr	r2, .L363
 3940 0008 52F83320 		ldr	r2, [r2, r3, lsl #3]
 3941 000c 12B1     		cbz	r2, .L359
  85:Drivers/lvgl/lvgl/src/draw/lv_draw_mask.c ****         if(LV_GC_ROOT(_lv_draw_mask_list[i]).param == NULL) break;
 3942              		.loc 1 85 0 discriminator 2
 3943 000e 0133     		adds	r3, r3, #1
 3944              	.LVL627:
 3945 0010 DBB2     		uxtb	r3, r3
 3946              	.LVL628:
 3947 0012 F6E7     		b	.L358
 3948              	.L359:
  89:Drivers/lvgl/lvgl/src/draw/lv_draw_mask.c ****         LV_LOG_WARN("lv_mask_add: no place to add the mask");
 3949              		.loc 1 89 0
 3950 0014 0F2B     		cmp	r3, #15
 3951 0016 07D8     		bhi	.L362
  94:Drivers/lvgl/lvgl/src/draw/lv_draw_mask.c ****     LV_GC_ROOT(_lv_draw_mask_list[i]).custom_id = custom_id;
 3952              		.loc 1 94 0
 3953 0018 054A     		ldr	r2, .L363
 3954 001a 42F83300 		str	r0, [r2, r3, lsl #3]
  95:Drivers/lvgl/lvgl/src/draw/lv_draw_mask.c **** 
 3955              		.loc 1 95 0
 3956 001e 02EBC302 		add	r2, r2, r3, lsl #3
 3957 0022 5160     		str	r1, [r2, #4]
  97:Drivers/lvgl/lvgl/src/draw/lv_draw_mask.c **** }
 3958              		.loc 1 97 0
 3959 0024 18B2     		sxth	r0, r3
 3960              	.LVL629:
ARM GAS  /tmp/cct67Zj5.s 			page 111


 3961 0026 7047     		bx	lr
 3962              	.LVL630:
 3963              	.L362:
  91:Drivers/lvgl/lvgl/src/draw/lv_draw_mask.c ****     }
 3964              		.loc 1 91 0
 3965 0028 4FF0FF30 		mov	r0, #-1
 3966              	.LVL631:
  98:Drivers/lvgl/lvgl/src/draw/lv_draw_mask.c **** 
 3967              		.loc 1 98 0
 3968 002c 7047     		bx	lr
 3969              	.L364:
 3970 002e 00BF     		.align	2
 3971              	.L363:
 3972 0030 00000000 		.word	_lv_draw_mask_list
 3973              		.cfi_endproc
 3974              	.LFE56:
 3976              		.section	.text.lv_draw_mask_apply,"ax",%progbits
 3977              		.align	1
 3978              		.global	lv_draw_mask_apply
 3979              		.syntax unified
 3980              		.thumb
 3981              		.thumb_func
 3982              		.fpu fpv5-d16
 3984              	lv_draw_mask_apply:
 3985              	.LFB57:
 113:Drivers/lvgl/lvgl/src/draw/lv_draw_mask.c ****     bool changed = false;
 3986              		.loc 1 113 0
 3987              		.cfi_startproc
 3988              		@ args = 0, pretend = 0, frame = 0
 3989              		@ frame_needed = 0, uses_anonymous_args = 0
 3990              	.LVL632:
 3991 0000 2DE9F047 		push	{r4, r5, r6, r7, r8, r9, r10, lr}
 3992              	.LCFI27:
 3993              		.cfi_def_cfa_offset 32
 3994              		.cfi_offset 4, -32
 3995              		.cfi_offset 5, -28
 3996              		.cfi_offset 6, -24
 3997              		.cfi_offset 7, -20
 3998              		.cfi_offset 8, -16
 3999              		.cfi_offset 9, -12
 4000              		.cfi_offset 10, -8
 4001              		.cfi_offset 14, -4
 4002 0004 82B0     		sub	sp, sp, #8
 4003              	.LCFI28:
 4004              		.cfi_def_cfa_offset 40
 4005 0006 8046     		mov	r8, r0
 4006 0008 0F46     		mov	r7, r1
 4007 000a 1646     		mov	r6, r2
 4008 000c 9A46     		mov	r10, r3
 4009              	.LVL633:
 117:Drivers/lvgl/lvgl/src/draw/lv_draw_mask.c **** 
 4010              		.loc 1 117 0
 4011 000e 0F4C     		ldr	r4, .L375
 114:Drivers/lvgl/lvgl/src/draw/lv_draw_mask.c ****     _lv_draw_mask_common_dsc_t * dsc;
 4012              		.loc 1 114 0
 4013 0010 4FF00009 		mov	r9, #0
 119:Drivers/lvgl/lvgl/src/draw/lv_draw_mask.c ****         dsc = m->param;
ARM GAS  /tmp/cct67Zj5.s 			page 112


 4014              		.loc 1 119 0
 4015 0014 00E0     		b	.L366
 4016              	.LVL634:
 4017              	.L368:
 4018              	.LBB194:
 126:Drivers/lvgl/lvgl/src/draw/lv_draw_mask.c ****     }
 4019              		.loc 1 126 0
 4020 0016 0834     		adds	r4, r4, #8
 4021              	.LVL635:
 4022              	.L366:
 4023              	.LBE194:
 119:Drivers/lvgl/lvgl/src/draw/lv_draw_mask.c ****         dsc = m->param;
 4024              		.loc 1 119 0
 4025 0018 2368     		ldr	r3, [r4]
 4026 001a 6BB1     		cbz	r3, .L373
 4027              	.LVL636:
 4028              	.LBB195:
 122:Drivers/lvgl/lvgl/src/draw/lv_draw_mask.c ****         if(res == LV_DRAW_MASK_RES_TRANSP) return LV_DRAW_MASK_RES_TRANSP;
 4029              		.loc 1 122 0
 4030 001c 1D68     		ldr	r5, [r3]
 4031 001e 0093     		str	r3, [sp]
 4032 0020 5346     		mov	r3, r10
 4033              	.LVL637:
 4034 0022 3246     		mov	r2, r6
 4035 0024 3946     		mov	r1, r7
 4036 0026 4046     		mov	r0, r8
 4037 0028 A847     		blx	r5
 4038              	.LVL638:
 123:Drivers/lvgl/lvgl/src/draw/lv_draw_mask.c ****         else if(res == LV_DRAW_MASK_RES_CHANGED) changed = true;
 4039              		.loc 1 123 0
 4040 002a 0346     		mov	r3, r0
 4041 002c 40B1     		cbz	r0, .L367
 124:Drivers/lvgl/lvgl/src/draw/lv_draw_mask.c **** 
 4042              		.loc 1 124 0
 4043 002e 0228     		cmp	r0, #2
 4044 0030 F1D1     		bne	.L368
 4045 0032 4FF00109 		mov	r9, #1
 4046              	.LVL639:
 4047 0036 EEE7     		b	.L368
 4048              	.LVL640:
 4049              	.L373:
 4050              	.LBE195:
 129:Drivers/lvgl/lvgl/src/draw/lv_draw_mask.c **** }
 4051              		.loc 1 129 0
 4052 0038 B9F1000F 		cmp	r9, #0
 4053 003c 04D1     		bne	.L374
 4054 003e 0123     		movs	r3, #1
 4055              	.L367:
 130:Drivers/lvgl/lvgl/src/draw/lv_draw_mask.c **** 
 4056              		.loc 1 130 0
 4057 0040 1846     		mov	r0, r3
 4058 0042 02B0     		add	sp, sp, #8
 4059              	.LCFI29:
 4060              		.cfi_remember_state
 4061              		.cfi_def_cfa_offset 32
 4062              		@ sp needed
 4063 0044 BDE8F087 		pop	{r4, r5, r6, r7, r8, r9, r10, pc}
ARM GAS  /tmp/cct67Zj5.s 			page 113


 4064              	.LVL641:
 4065              	.L374:
 4066              	.LCFI30:
 4067              		.cfi_restore_state
 129:Drivers/lvgl/lvgl/src/draw/lv_draw_mask.c **** }
 4068              		.loc 1 129 0
 4069 0048 0223     		movs	r3, #2
 4070 004a F9E7     		b	.L367
 4071              	.L376:
 4072              		.align	2
 4073              	.L375:
 4074 004c 00000000 		.word	_lv_draw_mask_list
 4075              		.cfi_endproc
 4076              	.LFE57:
 4078              		.section	.text.lv_draw_mask_apply_ids,"ax",%progbits
 4079              		.align	1
 4080              		.global	lv_draw_mask_apply_ids
 4081              		.syntax unified
 4082              		.thumb
 4083              		.thumb_func
 4084              		.fpu fpv5-d16
 4086              	lv_draw_mask_apply_ids:
 4087              	.LFB58:
 147:Drivers/lvgl/lvgl/src/draw/lv_draw_mask.c ****     bool changed = false;
 4088              		.loc 1 147 0
 4089              		.cfi_startproc
 4090              		@ args = 8, pretend = 0, frame = 8
 4091              		@ frame_needed = 0, uses_anonymous_args = 0
 4092              	.LVL642:
 4093 0000 2DE9F04F 		push	{r4, r5, r6, r7, r8, r9, r10, fp, lr}
 4094              	.LCFI31:
 4095              		.cfi_def_cfa_offset 36
 4096              		.cfi_offset 4, -36
 4097              		.cfi_offset 5, -32
 4098              		.cfi_offset 6, -28
 4099              		.cfi_offset 7, -24
 4100              		.cfi_offset 8, -20
 4101              		.cfi_offset 9, -16
 4102              		.cfi_offset 10, -12
 4103              		.cfi_offset 11, -8
 4104              		.cfi_offset 14, -4
 4105 0004 85B0     		sub	sp, sp, #20
 4106              	.LCFI32:
 4107              		.cfi_def_cfa_offset 56
 4108 0006 8246     		mov	r10, r0
 4109 0008 8946     		mov	r9, r1
 4110 000a 9046     		mov	r8, r2
 4111 000c 0393     		str	r3, [sp, #12]
 4112 000e 0E9F     		ldr	r7, [sp, #56]
 4113 0010 BDF93C60 		ldrsh	r6, [sp, #60]
 4114              	.LVL643:
 4115              	.LBB196:
 151:Drivers/lvgl/lvgl/src/draw/lv_draw_mask.c ****         int16_t id = ids[i];
 4116              		.loc 1 151 0
 4117 0014 0024     		movs	r4, #0
 4118              	.LBE196:
 148:Drivers/lvgl/lvgl/src/draw/lv_draw_mask.c ****     _lv_draw_mask_common_dsc_t * dsc;
ARM GAS  /tmp/cct67Zj5.s 			page 114


 4119              		.loc 1 148 0
 4120 0016 A346     		mov	fp, r4
 4121              	.LBB198:
 151:Drivers/lvgl/lvgl/src/draw/lv_draw_mask.c ****         int16_t id = ids[i];
 4122              		.loc 1 151 0
 4123 0018 00E0     		b	.L378
 4124              	.LVL644:
 4125              	.L379:
 151:Drivers/lvgl/lvgl/src/draw/lv_draw_mask.c ****         int16_t id = ids[i];
 4126              		.loc 1 151 0 is_stmt 0 discriminator 2
 4127 001a 0134     		adds	r4, r4, #1
 4128              	.LVL645:
 4129              	.L378:
 151:Drivers/lvgl/lvgl/src/draw/lv_draw_mask.c ****         int16_t id = ids[i];
 4130              		.loc 1 151 0 discriminator 1
 4131 001c A642     		cmp	r6, r4
 4132 001e 17DD     		ble	.L386
 4133              	.LBB197:
 152:Drivers/lvgl/lvgl/src/draw/lv_draw_mask.c ****         if(id == LV_MASK_ID_INV) continue;
 4134              		.loc 1 152 0 is_stmt 1
 4135 0020 37F91430 		ldrsh	r3, [r7, r4, lsl #1]
 4136              	.LVL646:
 153:Drivers/lvgl/lvgl/src/draw/lv_draw_mask.c ****         dsc = LV_GC_ROOT(_lv_draw_mask_list[id]).param;
 4137              		.loc 1 153 0
 4138 0024 B3F1FF3F 		cmp	r3, #-1
 4139 0028 F7D0     		beq	.L379
 154:Drivers/lvgl/lvgl/src/draw/lv_draw_mask.c ****         if(!dsc) continue;
 4140              		.loc 1 154 0
 4141 002a 0E4A     		ldr	r2, .L388
 4142 002c 52F83330 		ldr	r3, [r2, r3, lsl #3]
 4143              	.LVL647:
 155:Drivers/lvgl/lvgl/src/draw/lv_draw_mask.c ****         lv_draw_mask_res_t res = LV_DRAW_MASK_RES_FULL_COVER;
 4144              		.loc 1 155 0
 4145 0030 002B     		cmp	r3, #0
 4146 0032 F2D0     		beq	.L379
 4147              	.LVL648:
 157:Drivers/lvgl/lvgl/src/draw/lv_draw_mask.c ****         if(res == LV_DRAW_MASK_RES_TRANSP) return LV_DRAW_MASK_RES_TRANSP;
 4148              		.loc 1 157 0
 4149 0034 1D68     		ldr	r5, [r3]
 4150 0036 0093     		str	r3, [sp]
 4151              	.LVL649:
 4152 0038 039B     		ldr	r3, [sp, #12]
 4153              	.LVL650:
 4154 003a 4246     		mov	r2, r8
 4155 003c 4946     		mov	r1, r9
 4156 003e 5046     		mov	r0, r10
 4157 0040 A847     		blx	r5
 4158              	.LVL651:
 158:Drivers/lvgl/lvgl/src/draw/lv_draw_mask.c ****         else if(res == LV_DRAW_MASK_RES_CHANGED) changed = true;
 4159              		.loc 1 158 0
 4160 0042 0346     		mov	r3, r0
 4161 0044 40B1     		cbz	r0, .L380
 159:Drivers/lvgl/lvgl/src/draw/lv_draw_mask.c ****     }
 4162              		.loc 1 159 0
 4163 0046 0228     		cmp	r0, #2
 4164 0048 E7D1     		bne	.L379
 4165 004a 4FF0010B 		mov	fp, #1
ARM GAS  /tmp/cct67Zj5.s 			page 115


 4166              	.LVL652:
 4167 004e E4E7     		b	.L379
 4168              	.LVL653:
 4169              	.L386:
 4170              	.LBE197:
 4171              	.LBE198:
 162:Drivers/lvgl/lvgl/src/draw/lv_draw_mask.c **** }
 4172              		.loc 1 162 0
 4173 0050 BBF1000F 		cmp	fp, #0
 4174 0054 04D1     		bne	.L387
 4175 0056 0123     		movs	r3, #1
 4176              	.L380:
 163:Drivers/lvgl/lvgl/src/draw/lv_draw_mask.c **** 
 4177              		.loc 1 163 0
 4178 0058 1846     		mov	r0, r3
 4179 005a 05B0     		add	sp, sp, #20
 4180              	.LCFI33:
 4181              		.cfi_remember_state
 4182              		.cfi_def_cfa_offset 36
 4183              		@ sp needed
 4184 005c BDE8F08F 		pop	{r4, r5, r6, r7, r8, r9, r10, fp, pc}
 4185              	.LVL654:
 4186              	.L387:
 4187              	.LCFI34:
 4188              		.cfi_restore_state
 162:Drivers/lvgl/lvgl/src/draw/lv_draw_mask.c **** }
 4189              		.loc 1 162 0
 4190 0060 0223     		movs	r3, #2
 4191 0062 F9E7     		b	.L380
 4192              	.L389:
 4193              		.align	2
 4194              	.L388:
 4195 0064 00000000 		.word	_lv_draw_mask_list
 4196              		.cfi_endproc
 4197              	.LFE58:
 4199              		.section	.text.lv_draw_mask_remove_id,"ax",%progbits
 4200              		.align	1
 4201              		.global	lv_draw_mask_remove_id
 4202              		.syntax unified
 4203              		.thumb
 4204              		.thumb_func
 4205              		.fpu fpv5-d16
 4207              	lv_draw_mask_remove_id:
 4208              	.LFB59:
 172:Drivers/lvgl/lvgl/src/draw/lv_draw_mask.c ****     _lv_draw_mask_common_dsc_t * p = NULL;
 4209              		.loc 1 172 0
 4210              		.cfi_startproc
 4211              		@ args = 0, pretend = 0, frame = 0
 4212              		@ frame_needed = 0, uses_anonymous_args = 0
 4213              		@ link register save eliminated.
 4214              	.LVL655:
 175:Drivers/lvgl/lvgl/src/draw/lv_draw_mask.c ****         p = LV_GC_ROOT(_lv_draw_mask_list[id]).param;
 4215              		.loc 1 175 0
 4216 0000 B0F1FF3F 		cmp	r0, #-1
 4217 0004 0AD0     		beq	.L392
 176:Drivers/lvgl/lvgl/src/draw/lv_draw_mask.c ****         LV_GC_ROOT(_lv_draw_mask_list[id]).param = NULL;
 4218              		.loc 1 176 0
ARM GAS  /tmp/cct67Zj5.s 			page 116


 4219 0006 064B     		ldr	r3, .L393
 4220 0008 53F83010 		ldr	r1, [r3, r0, lsl #3]
 4221              	.LVL656:
 177:Drivers/lvgl/lvgl/src/draw/lv_draw_mask.c ****         LV_GC_ROOT(_lv_draw_mask_list[id]).custom_id = NULL;
 4222              		.loc 1 177 0
 4223 000c 0022     		movs	r2, #0
 4224 000e 43F83020 		str	r2, [r3, r0, lsl #3]
 178:Drivers/lvgl/lvgl/src/draw/lv_draw_mask.c ****     }
 4225              		.loc 1 178 0
 4226 0012 03EBC003 		add	r3, r3, r0, lsl #3
 4227 0016 5A60     		str	r2, [r3, #4]
 4228              	.LVL657:
 4229              	.L390:
 182:Drivers/lvgl/lvgl/src/draw/lv_draw_mask.c **** 
 4230              		.loc 1 182 0
 4231 0018 0846     		mov	r0, r1
 4232              	.LVL658:
 4233 001a 7047     		bx	lr
 4234              	.LVL659:
 4235              	.L392:
 173:Drivers/lvgl/lvgl/src/draw/lv_draw_mask.c **** 
 4236              		.loc 1 173 0
 4237 001c 0021     		movs	r1, #0
 181:Drivers/lvgl/lvgl/src/draw/lv_draw_mask.c **** }
 4238              		.loc 1 181 0
 4239 001e FBE7     		b	.L390
 4240              	.L394:
 4241              		.align	2
 4242              	.L393:
 4243 0020 00000000 		.word	_lv_draw_mask_list
 4244              		.cfi_endproc
 4245              	.LFE59:
 4247              		.section	.text.lv_draw_mask_remove_custom,"ax",%progbits
 4248              		.align	1
 4249              		.global	lv_draw_mask_remove_custom
 4250              		.syntax unified
 4251              		.thumb
 4252              		.thumb_func
 4253              		.fpu fpv5-d16
 4255              	lv_draw_mask_remove_custom:
 4256              	.LFB60:
 191:Drivers/lvgl/lvgl/src/draw/lv_draw_mask.c ****     _lv_draw_mask_common_dsc_t * p = NULL;
 4257              		.loc 1 191 0
 4258              		.cfi_startproc
 4259              		@ args = 0, pretend = 0, frame = 0
 4260              		@ frame_needed = 0, uses_anonymous_args = 0
 4261              	.LVL660:
 4262 0000 70B5     		push	{r4, r5, r6, lr}
 4263              	.LCFI35:
 4264              		.cfi_def_cfa_offset 16
 4265              		.cfi_offset 4, -16
 4266              		.cfi_offset 5, -12
 4267              		.cfi_offset 6, -8
 4268              		.cfi_offset 14, -4
 4269 0002 0546     		mov	r5, r0
 4270              	.LVL661:
 194:Drivers/lvgl/lvgl/src/draw/lv_draw_mask.c ****         if(LV_GC_ROOT(_lv_draw_mask_list[i]).custom_id == custom_id) {
ARM GAS  /tmp/cct67Zj5.s 			page 117


 4271              		.loc 1 194 0
 4272 0004 0024     		movs	r4, #0
 192:Drivers/lvgl/lvgl/src/draw/lv_draw_mask.c ****     uint8_t i;
 4273              		.loc 1 192 0
 4274 0006 2646     		mov	r6, r4
 194:Drivers/lvgl/lvgl/src/draw/lv_draw_mask.c ****         if(LV_GC_ROOT(_lv_draw_mask_list[i]).custom_id == custom_id) {
 4275              		.loc 1 194 0
 4276 0008 01E0     		b	.L396
 4277              	.LVL662:
 4278              	.L397:
 194:Drivers/lvgl/lvgl/src/draw/lv_draw_mask.c ****         if(LV_GC_ROOT(_lv_draw_mask_list[i]).custom_id == custom_id) {
 4279              		.loc 1 194 0 is_stmt 0 discriminator 2
 4280 000a 0134     		adds	r4, r4, #1
 4281              	.LVL663:
 4282 000c E4B2     		uxtb	r4, r4
 4283              	.LVL664:
 4284              	.L396:
 194:Drivers/lvgl/lvgl/src/draw/lv_draw_mask.c ****         if(LV_GC_ROOT(_lv_draw_mask_list[i]).custom_id == custom_id) {
 4285              		.loc 1 194 0 discriminator 1
 4286 000e 0F2C     		cmp	r4, #15
 4287 0010 0CD8     		bhi	.L400
 195:Drivers/lvgl/lvgl/src/draw/lv_draw_mask.c ****             p = LV_GC_ROOT(_lv_draw_mask_list[i]).param;
 4288              		.loc 1 195 0 is_stmt 1
 4289 0012 074B     		ldr	r3, .L401
 4290 0014 03EBC403 		add	r3, r3, r4, lsl #3
 4291 0018 5B68     		ldr	r3, [r3, #4]
 4292 001a AB42     		cmp	r3, r5
 4293 001c F5D1     		bne	.L397
 196:Drivers/lvgl/lvgl/src/draw/lv_draw_mask.c ****             lv_draw_mask_remove_id(i);
 4294              		.loc 1 196 0
 4295 001e 044B     		ldr	r3, .L401
 4296 0020 53F83460 		ldr	r6, [r3, r4, lsl #3]
 4297              	.LVL665:
 197:Drivers/lvgl/lvgl/src/draw/lv_draw_mask.c ****         }
 4298              		.loc 1 197 0
 4299 0024 2046     		mov	r0, r4
 4300 0026 FFF7FEFF 		bl	lv_draw_mask_remove_id
 4301              	.LVL666:
 4302 002a EEE7     		b	.L397
 4303              	.L400:
 201:Drivers/lvgl/lvgl/src/draw/lv_draw_mask.c **** 
 4304              		.loc 1 201 0
 4305 002c 3046     		mov	r0, r6
 4306 002e 70BD     		pop	{r4, r5, r6, pc}
 4307              	.LVL667:
 4308              	.L402:
 4309              		.align	2
 4310              	.L401:
 4311 0030 00000000 		.word	_lv_draw_mask_list
 4312              		.cfi_endproc
 4313              	.LFE60:
 4315              		.section	.text.lv_draw_mask_free_param,"ax",%progbits
 4316              		.align	1
 4317              		.global	lv_draw_mask_free_param
 4318              		.syntax unified
 4319              		.thumb
 4320              		.thumb_func
ARM GAS  /tmp/cct67Zj5.s 			page 118


 4321              		.fpu fpv5-d16
 4323              	lv_draw_mask_free_param:
 4324              	.LFB61:
 211:Drivers/lvgl/lvgl/src/draw/lv_draw_mask.c ****     _lv_draw_mask_common_dsc_t * pdsc = p;
 4325              		.loc 1 211 0
 4326              		.cfi_startproc
 4327              		@ args = 0, pretend = 0, frame = 0
 4328              		@ frame_needed = 0, uses_anonymous_args = 0
 4329              	.LVL668:
 4330 0000 10B5     		push	{r4, lr}
 4331              	.LCFI36:
 4332              		.cfi_def_cfa_offset 8
 4333              		.cfi_offset 4, -8
 4334              		.cfi_offset 14, -4
 4335 0002 0446     		mov	r4, r0
 4336              	.LVL669:
 213:Drivers/lvgl/lvgl/src/draw/lv_draw_mask.c ****         lv_draw_mask_radius_param_t * radius_p = (lv_draw_mask_radius_param_t *) p;
 4337              		.loc 1 213 0
 4338 0004 0379     		ldrb	r3, [r0, #4]	@ zero_extendqisi2
 4339 0006 022B     		cmp	r3, #2
 4340 0008 02D0     		beq	.L408
 225:Drivers/lvgl/lvgl/src/draw/lv_draw_mask.c ****         lv_draw_mask_polygon_param_t * poly_p = (lv_draw_mask_polygon_param_t *) p;
 4341              		.loc 1 225 0
 4342 000a 052B     		cmp	r3, #5
 4343 000c 11D0     		beq	.L409
 4344              	.LVL670:
 4345              	.L403:
 229:Drivers/lvgl/lvgl/src/draw/lv_draw_mask.c **** 
 4346              		.loc 1 229 0
 4347 000e 10BD     		pop	{r4, pc}
 4348              	.LVL671:
 4349              	.L408:
 4350              	.LBB199:
 215:Drivers/lvgl/lvgl/src/draw/lv_draw_mask.c ****             if(radius_p->circle->life < 0) {
 4351              		.loc 1 215 0
 4352 0010 4369     		ldr	r3, [r0, #20]
 4353 0012 002B     		cmp	r3, #0
 4354 0014 FBD0     		beq	.L403
 216:Drivers/lvgl/lvgl/src/draw/lv_draw_mask.c ****                 lv_mem_free(radius_p->circle->cir_opa);
 4355              		.loc 1 216 0
 4356 0016 1A69     		ldr	r2, [r3, #16]
 4357 0018 002A     		cmp	r2, #0
 4358 001a 03DB     		blt	.L410
 221:Drivers/lvgl/lvgl/src/draw/lv_draw_mask.c ****             }
 4359              		.loc 1 221 0
 4360 001c 5A69     		ldr	r2, [r3, #20]
 4361 001e 013A     		subs	r2, r2, #1
 4362 0020 5A61     		str	r2, [r3, #20]
 4363 0022 F4E7     		b	.L403
 4364              	.L410:
 217:Drivers/lvgl/lvgl/src/draw/lv_draw_mask.c ****                 lv_mem_free(radius_p->circle);
 4365              		.loc 1 217 0
 4366 0024 5868     		ldr	r0, [r3, #4]
 4367              	.LVL672:
 4368 0026 FFF7FEFF 		bl	lv_mem_free
 4369              	.LVL673:
 218:Drivers/lvgl/lvgl/src/draw/lv_draw_mask.c ****             }
ARM GAS  /tmp/cct67Zj5.s 			page 119


 4370              		.loc 1 218 0
 4371 002a 6069     		ldr	r0, [r4, #20]
 4372 002c FFF7FEFF 		bl	lv_mem_free
 4373              	.LVL674:
 4374 0030 EDE7     		b	.L403
 4375              	.LVL675:
 4376              	.L409:
 4377              	.LBE199:
 4378              	.LBB200:
 227:Drivers/lvgl/lvgl/src/draw/lv_draw_mask.c ****     }
 4379              		.loc 1 227 0
 4380 0032 8068     		ldr	r0, [r0, #8]
 4381              	.LVL676:
 4382 0034 FFF7FEFF 		bl	lv_mem_free
 4383              	.LVL677:
 4384              	.LBE200:
 229:Drivers/lvgl/lvgl/src/draw/lv_draw_mask.c **** 
 4385              		.loc 1 229 0
 4386 0038 E9E7     		b	.L403
 4387              		.cfi_endproc
 4388              	.LFE61:
 4390              		.section	.text._lv_draw_mask_cleanup,"ax",%progbits
 4391              		.align	1
 4392              		.global	_lv_draw_mask_cleanup
 4393              		.syntax unified
 4394              		.thumb
 4395              		.thumb_func
 4396              		.fpu fpv5-d16
 4398              	_lv_draw_mask_cleanup:
 4399              	.LFB62:
 232:Drivers/lvgl/lvgl/src/draw/lv_draw_mask.c ****     uint8_t i;
 4400              		.loc 1 232 0
 4401              		.cfi_startproc
 4402              		@ args = 0, pretend = 0, frame = 0
 4403              		@ frame_needed = 0, uses_anonymous_args = 0
 4404 0000 38B5     		push	{r3, r4, r5, lr}
 4405              	.LCFI37:
 4406              		.cfi_def_cfa_offset 16
 4407              		.cfi_offset 3, -16
 4408              		.cfi_offset 4, -12
 4409              		.cfi_offset 5, -8
 4410              		.cfi_offset 14, -4
 4411              	.LVL678:
 234:Drivers/lvgl/lvgl/src/draw/lv_draw_mask.c ****         if(LV_GC_ROOT(_lv_circle_cache[i]).buf) {
 4412              		.loc 1 234 0
 4413 0002 0024     		movs	r4, #0
 4414 0004 09E0     		b	.L412
 4415              	.LVL679:
 4416              	.L413:
 238:Drivers/lvgl/lvgl/src/draw/lv_draw_mask.c ****     }
 4417              		.loc 1 238 0 discriminator 2
 4418 0006 C5EBC505 		rsb	r5, r5, r5, lsl #3
 4419 000a AB00     		lsls	r3, r5, #2
 4420 000c 1C21     		movs	r1, #28
 4421 000e 0A48     		ldr	r0, .L417
 4422 0010 1844     		add	r0, r0, r3
 4423 0012 FFF7FEFF 		bl	lv_memset_00
ARM GAS  /tmp/cct67Zj5.s 			page 120


 4424              	.LVL680:
 234:Drivers/lvgl/lvgl/src/draw/lv_draw_mask.c ****         if(LV_GC_ROOT(_lv_circle_cache[i]).buf) {
 4425              		.loc 1 234 0 discriminator 2
 4426 0016 0134     		adds	r4, r4, #1
 4427              	.LVL681:
 4428 0018 E4B2     		uxtb	r4, r4
 4429              	.LVL682:
 4430              	.L412:
 234:Drivers/lvgl/lvgl/src/draw/lv_draw_mask.c ****         if(LV_GC_ROOT(_lv_circle_cache[i]).buf) {
 4431              		.loc 1 234 0 is_stmt 0 discriminator 1
 4432 001a 032C     		cmp	r4, #3
 4433 001c 0AD8     		bhi	.L416
 235:Drivers/lvgl/lvgl/src/draw/lv_draw_mask.c ****             lv_mem_free(LV_GC_ROOT(_lv_circle_cache[i]).buf);
 4434              		.loc 1 235 0 is_stmt 1
 4435 001e 2546     		mov	r5, r4
 4436 0020 C4EBC402 		rsb	r2, r4, r4, lsl #3
 4437 0024 9300     		lsls	r3, r2, #2
 4438 0026 044A     		ldr	r2, .L417
 4439 0028 D058     		ldr	r0, [r2, r3]
 4440 002a 0028     		cmp	r0, #0
 4441 002c EBD0     		beq	.L413
 236:Drivers/lvgl/lvgl/src/draw/lv_draw_mask.c ****         }
 4442              		.loc 1 236 0
 4443 002e FFF7FEFF 		bl	lv_mem_free
 4444              	.LVL683:
 4445 0032 E8E7     		b	.L413
 4446              	.L416:
 240:Drivers/lvgl/lvgl/src/draw/lv_draw_mask.c **** 
 4447              		.loc 1 240 0
 4448 0034 38BD     		pop	{r3, r4, r5, pc}
 4449              	.LVL684:
 4450              	.L418:
 4451 0036 00BF     		.align	2
 4452              	.L417:
 4453 0038 00000000 		.word	_lv_circle_cache
 4454              		.cfi_endproc
 4455              	.LFE62:
 4457              		.section	.text.lv_draw_mask_get_cnt,"ax",%progbits
 4458              		.align	1
 4459              		.global	lv_draw_mask_get_cnt
 4460              		.syntax unified
 4461              		.thumb
 4462              		.thumb_func
 4463              		.fpu fpv5-d16
 4465              	lv_draw_mask_get_cnt:
 4466              	.LFB63:
 247:Drivers/lvgl/lvgl/src/draw/lv_draw_mask.c ****     uint8_t cnt = 0;
 4467              		.loc 1 247 0
 4468              		.cfi_startproc
 4469              		@ args = 0, pretend = 0, frame = 0
 4470              		@ frame_needed = 0, uses_anonymous_args = 0
 4471              		@ link register save eliminated.
 4472              	.LVL685:
 250:Drivers/lvgl/lvgl/src/draw/lv_draw_mask.c ****         if(LV_GC_ROOT(_lv_draw_mask_list[i]).param) cnt++;
 4473              		.loc 1 250 0
 4474 0000 0023     		movs	r3, #0
 248:Drivers/lvgl/lvgl/src/draw/lv_draw_mask.c ****     uint8_t i;
ARM GAS  /tmp/cct67Zj5.s 			page 121


 4475              		.loc 1 248 0
 4476 0002 1846     		mov	r0, r3
 250:Drivers/lvgl/lvgl/src/draw/lv_draw_mask.c ****         if(LV_GC_ROOT(_lv_draw_mask_list[i]).param) cnt++;
 4477              		.loc 1 250 0
 4478 0004 01E0     		b	.L420
 4479              	.LVL686:
 4480              	.L421:
 250:Drivers/lvgl/lvgl/src/draw/lv_draw_mask.c ****         if(LV_GC_ROOT(_lv_draw_mask_list[i]).param) cnt++;
 4481              		.loc 1 250 0 is_stmt 0 discriminator 2
 4482 0006 0133     		adds	r3, r3, #1
 4483              	.LVL687:
 4484 0008 DBB2     		uxtb	r3, r3
 4485              	.LVL688:
 4486              	.L420:
 250:Drivers/lvgl/lvgl/src/draw/lv_draw_mask.c ****         if(LV_GC_ROOT(_lv_draw_mask_list[i]).param) cnt++;
 4487              		.loc 1 250 0 discriminator 1
 4488 000a 0F2B     		cmp	r3, #15
 4489 000c 07D8     		bhi	.L423
 251:Drivers/lvgl/lvgl/src/draw/lv_draw_mask.c ****     }
 4490              		.loc 1 251 0 is_stmt 1
 4491 000e 044A     		ldr	r2, .L424
 4492 0010 52F83320 		ldr	r2, [r2, r3, lsl #3]
 4493 0014 002A     		cmp	r2, #0
 4494 0016 F6D0     		beq	.L421
 251:Drivers/lvgl/lvgl/src/draw/lv_draw_mask.c ****     }
 4495              		.loc 1 251 0 is_stmt 0 discriminator 1
 4496 0018 0130     		adds	r0, r0, #1
 4497              	.LVL689:
 4498 001a C0B2     		uxtb	r0, r0
 4499              	.LVL690:
 4500 001c F3E7     		b	.L421
 4501              	.L423:
 254:Drivers/lvgl/lvgl/src/draw/lv_draw_mask.c **** 
 4502              		.loc 1 254 0 is_stmt 1
 4503 001e 7047     		bx	lr
 4504              	.L425:
 4505              		.align	2
 4506              	.L424:
 4507 0020 00000000 		.word	_lv_draw_mask_list
 4508              		.cfi_endproc
 4509              	.LFE63:
 4511              		.section	.text.lv_draw_mask_is_any,"ax",%progbits
 4512              		.align	1
 4513              		.global	lv_draw_mask_is_any
 4514              		.syntax unified
 4515              		.thumb
 4516              		.thumb_func
 4517              		.fpu fpv5-d16
 4519              	lv_draw_mask_is_any:
 4520              	.LFB64:
 257:Drivers/lvgl/lvgl/src/draw/lv_draw_mask.c ****     if(a == NULL) return LV_GC_ROOT(_lv_draw_mask_list[0]).param ? true : false;
 4521              		.loc 1 257 0
 4522              		.cfi_startproc
 4523              		@ args = 0, pretend = 0, frame = 0
 4524              		@ frame_needed = 0, uses_anonymous_args = 0
 4525              	.LVL691:
 4526 0000 38B5     		push	{r3, r4, r5, lr}
ARM GAS  /tmp/cct67Zj5.s 			page 122


 4527              	.LCFI38:
 4528              		.cfi_def_cfa_offset 16
 4529              		.cfi_offset 3, -16
 4530              		.cfi_offset 4, -12
 4531              		.cfi_offset 5, -8
 4532              		.cfi_offset 14, -4
 258:Drivers/lvgl/lvgl/src/draw/lv_draw_mask.c **** 
 4533              		.loc 1 258 0
 4534 0002 10B1     		cbz	r0, .L436
 4535 0004 0546     		mov	r5, r0
 261:Drivers/lvgl/lvgl/src/draw/lv_draw_mask.c ****         _lv_draw_mask_common_dsc_t * comm_param = LV_GC_ROOT(_lv_draw_mask_list[i]).param;
 4536              		.loc 1 261 0
 4537 0006 0024     		movs	r4, #0
 4538 0008 0EE0     		b	.L427
 4539              	.L436:
 258:Drivers/lvgl/lvgl/src/draw/lv_draw_mask.c **** 
 4540              		.loc 1 258 0 discriminator 1
 4541 000a 164B     		ldr	r3, .L438
 4542 000c 1868     		ldr	r0, [r3]
 4543              	.LVL692:
 4544 000e 0030     		adds	r0, r0, #0
 4545 0010 18BF     		it	ne
 4546 0012 0120     		movne	r0, #1
 4547 0014 21E0     		b	.L428
 4548              	.LVL693:
 4549              	.L430:
 4550              	.LBB201:
 4551              	.LBB202:
 270:Drivers/lvgl/lvgl/src/draw/lv_draw_mask.c ****             }
 4552              		.loc 1 270 0
 4553 0016 B1F91020 		ldrsh	r2, [r1, #16]
 4554 001a 0831     		adds	r1, r1, #8
 4555              	.LVL694:
 4556 001c 2846     		mov	r0, r5
 4557 001e FFF7FEFF 		bl	_lv_area_is_in
 4558              	.LVL695:
 4559 0022 E8B1     		cbz	r0, .L434
 4560              	.L429:
 4561              	.LBE202:
 4562              	.LBE201:
 261:Drivers/lvgl/lvgl/src/draw/lv_draw_mask.c ****         _lv_draw_mask_common_dsc_t * comm_param = LV_GC_ROOT(_lv_draw_mask_list[i]).param;
 4563              		.loc 1 261 0 discriminator 2
 4564 0024 0134     		adds	r4, r4, #1
 4565              	.LVL696:
 4566 0026 E4B2     		uxtb	r4, r4
 4567              	.LVL697:
 4568              	.L427:
 261:Drivers/lvgl/lvgl/src/draw/lv_draw_mask.c ****         _lv_draw_mask_common_dsc_t * comm_param = LV_GC_ROOT(_lv_draw_mask_list[i]).param;
 4569              		.loc 1 261 0 is_stmt 0 discriminator 1
 4570 0028 0F2C     		cmp	r4, #15
 4571 002a 15D8     		bhi	.L437
 4572              	.LBB205:
 262:Drivers/lvgl/lvgl/src/draw/lv_draw_mask.c ****         if(comm_param == NULL) continue;
 4573              		.loc 1 262 0 is_stmt 1
 4574 002c 0D4B     		ldr	r3, .L438
 4575 002e 53F83410 		ldr	r1, [r3, r4, lsl #3]
 4576              	.LVL698:
ARM GAS  /tmp/cct67Zj5.s 			page 123


 263:Drivers/lvgl/lvgl/src/draw/lv_draw_mask.c ****         if(comm_param->type == LV_DRAW_MASK_TYPE_RADIUS) {
 4577              		.loc 1 263 0
 4578 0032 0029     		cmp	r1, #0
 4579 0034 F6D0     		beq	.L429
 264:Drivers/lvgl/lvgl/src/draw/lv_draw_mask.c ****             lv_draw_mask_radius_param_t * radius_param = LV_GC_ROOT(_lv_draw_mask_list[i]).param;
 4580              		.loc 1 264 0
 4581 0036 0B79     		ldrb	r3, [r1, #4]	@ zero_extendqisi2
 4582 0038 022B     		cmp	r3, #2
 4583 003a 0FD1     		bne	.L433
 4584              	.LVL699:
 4585              	.LBB203:
 266:Drivers/lvgl/lvgl/src/draw/lv_draw_mask.c ****                 if(!_lv_area_is_out(a, &radius_param->cfg.rect, radius_param->cfg.radius)) return t
 4586              		.loc 1 266 0
 4587 003c 8B7C     		ldrb	r3, [r1, #18]	@ zero_extendqisi2
 4588 003e 13F0010F 		tst	r3, #1
 4589 0042 E8D0     		beq	.L430
 267:Drivers/lvgl/lvgl/src/draw/lv_draw_mask.c ****             }
 4590              		.loc 1 267 0
 4591 0044 B1F91020 		ldrsh	r2, [r1, #16]
 4592 0048 0831     		adds	r1, r1, #8
 4593              	.LVL700:
 4594 004a 2846     		mov	r0, r5
 4595 004c FFF7FEFF 		bl	_lv_area_is_out
 4596              	.LVL701:
 4597 0050 0028     		cmp	r0, #0
 4598 0052 E7D1     		bne	.L429
 4599 0054 0120     		movs	r0, #1
 4600 0056 00E0     		b	.L428
 4601              	.L437:
 4602              	.LBE203:
 4603              	.LBE205:
 278:Drivers/lvgl/lvgl/src/draw/lv_draw_mask.c **** 
 4604              		.loc 1 278 0
 4605 0058 0020     		movs	r0, #0
 4606              	.LVL702:
 4607              	.L428:
 280:Drivers/lvgl/lvgl/src/draw/lv_draw_mask.c **** 
 4608              		.loc 1 280 0
 4609 005a 38BD     		pop	{r3, r4, r5, pc}
 4610              	.LVL703:
 4611              	.L433:
 4612              	.LBB206:
 274:Drivers/lvgl/lvgl/src/draw/lv_draw_mask.c ****         }
 4613              		.loc 1 274 0
 4614 005c 0120     		movs	r0, #1
 4615 005e FCE7     		b	.L428
 4616              	.LVL704:
 4617              	.L434:
 4618              	.LBB204:
 270:Drivers/lvgl/lvgl/src/draw/lv_draw_mask.c ****             }
 4619              		.loc 1 270 0
 4620 0060 0120     		movs	r0, #1
 4621 0062 FAE7     		b	.L428
 4622              	.L439:
 4623              		.align	2
 4624              	.L438:
 4625 0064 00000000 		.word	_lv_draw_mask_list
ARM GAS  /tmp/cct67Zj5.s 			page 124


 4626              	.LBE204:
 4627              	.LBE206:
 4628              		.cfi_endproc
 4629              	.LFE64:
 4631              		.section	.text.lv_draw_mask_line_points_init,"ax",%progbits
 4632              		.align	1
 4633              		.global	lv_draw_mask_line_points_init
 4634              		.syntax unified
 4635              		.thumb
 4636              		.thumb_func
 4637              		.fpu fpv5-d16
 4639              	lv_draw_mask_line_points_init:
 4640              	.LFB65:
 295:Drivers/lvgl/lvgl/src/draw/lv_draw_mask.c ****     lv_memset_00(param, sizeof(lv_draw_mask_line_param_t));
 4641              		.loc 1 295 0
 4642              		.cfi_startproc
 4643              		@ args = 8, pretend = 0, frame = 0
 4644              		@ frame_needed = 0, uses_anonymous_args = 0
 4645              	.LVL705:
 4646 0000 2DE9F843 		push	{r3, r4, r5, r6, r7, r8, r9, lr}
 4647              	.LCFI39:
 4648              		.cfi_def_cfa_offset 32
 4649              		.cfi_offset 3, -32
 4650              		.cfi_offset 4, -28
 4651              		.cfi_offset 5, -24
 4652              		.cfi_offset 6, -20
 4653              		.cfi_offset 7, -16
 4654              		.cfi_offset 8, -12
 4655              		.cfi_offset 9, -8
 4656              		.cfi_offset 14, -4
 4657 0004 0446     		mov	r4, r0
 4658 0006 0F46     		mov	r7, r1
 4659 0008 9046     		mov	r8, r2
 4660 000a 1E46     		mov	r6, r3
 4661 000c BDF92050 		ldrsh	r5, [sp, #32]
 4662 0010 9DF82490 		ldrb	r9, [sp, #36]	@ zero_extendqisi2
 296:Drivers/lvgl/lvgl/src/draw/lv_draw_mask.c **** 
 4663              		.loc 1 296 0
 4664 0014 2C21     		movs	r1, #44
 4665              	.LVL706:
 4666 0016 FFF7FEFF 		bl	lv_memset_00
 4667              	.LVL707:
 298:Drivers/lvgl/lvgl/src/draw/lv_draw_mask.c ****         p1y--;
 4668              		.loc 1 298 0
 4669 001a A845     		cmp	r8, r5
 4670 001c 08BF     		it	eq
 4671 001e B9F1030F 		cmpeq	r9, #3
 4672 0022 05D1     		bne	.L441
 299:Drivers/lvgl/lvgl/src/draw/lv_draw_mask.c ****         p2y--;
 4673              		.loc 1 299 0
 4674 0024 08F1FF38 		add	r8, r8, #-1
 4675 0028 0FFA88F8 		sxth	r8, r8
 4676              	.LVL708:
 300:Drivers/lvgl/lvgl/src/draw/lv_draw_mask.c ****     }
 4677              		.loc 1 300 0
 4678 002c 013D     		subs	r5, r5, #1
 4679 002e 2DB2     		sxth	r5, r5
ARM GAS  /tmp/cct67Zj5.s 			page 125


 4680              	.LVL709:
 4681              	.L441:
 303:Drivers/lvgl/lvgl/src/draw/lv_draw_mask.c ****         lv_coord_t t;
 4682              		.loc 1 303 0
 4683 0030 A845     		cmp	r8, r5
 4684 0032 05DC     		bgt	.L442
 4685 0034 2B46     		mov	r3, r5
 4686 0036 4546     		mov	r5, r8
 4687              	.LVL710:
 4688 0038 9846     		mov	r8, r3
 4689              	.LVL711:
 4690 003a 3346     		mov	r3, r6
 4691 003c 3E46     		mov	r6, r7
 4692 003e 1F46     		mov	r7, r3
 4693              	.L442:
 4694              	.LVL712:
 314:Drivers/lvgl/lvgl/src/draw/lv_draw_mask.c ****     param->cfg.p1.y = p1y;
 4695              		.loc 1 314 0
 4696 0040 2681     		strh	r6, [r4, #8]	@ movhi
 315:Drivers/lvgl/lvgl/src/draw/lv_draw_mask.c ****     param->cfg.p2.x = p2x;
 4697              		.loc 1 315 0
 4698 0042 6581     		strh	r5, [r4, #10]	@ movhi
 316:Drivers/lvgl/lvgl/src/draw/lv_draw_mask.c ****     param->cfg.p2.y = p2y;
 4699              		.loc 1 316 0
 4700 0044 A781     		strh	r7, [r4, #12]	@ movhi
 317:Drivers/lvgl/lvgl/src/draw/lv_draw_mask.c ****     param->cfg.side = side;
 4701              		.loc 1 317 0
 4702 0046 A4F80E80 		strh	r8, [r4, #14]	@ movhi
 318:Drivers/lvgl/lvgl/src/draw/lv_draw_mask.c **** 
 4703              		.loc 1 318 0
 4704 004a 237C     		ldrb	r3, [r4, #16]	@ zero_extendqisi2
 4705 004c 69F30103 		bfi	r3, r9, #0, #2
 4706 0050 2374     		strb	r3, [r4, #16]
 320:Drivers/lvgl/lvgl/src/draw/lv_draw_mask.c ****     param->origo.y = p1y;
 4707              		.loc 1 320 0
 4708 0052 6682     		strh	r6, [r4, #18]	@ movhi
 321:Drivers/lvgl/lvgl/src/draw/lv_draw_mask.c ****     param->flat = (LV_ABS(p2x - p1x) > LV_ABS(p2y - p1y)) ? 1 : 0;
 4709              		.loc 1 321 0
 4710 0054 A582     		strh	r5, [r4, #20]	@ movhi
 322:Drivers/lvgl/lvgl/src/draw/lv_draw_mask.c ****     param->yx_steep = 0;
 4711              		.loc 1 322 0
 4712 0056 BE1B     		subs	r6, r7, r6
 4713              	.LVL713:
 4714 0058 86EAE672 		eor	r2, r6, r6, asr #31
 4715 005c A2EBE672 		sub	r2, r2, r6, asr #31
 4716 0060 A8EB0505 		sub	r5, r8, r5
 4717              	.LVL714:
 4718 0064 85EAE573 		eor	r3, r5, r5, asr #31
 4719 0068 A3EBE573 		sub	r3, r3, r5, asr #31
 4720 006c 9A42     		cmp	r2, r3
 4721 006e D4BF     		ite	le
 4722 0070 0022     		movle	r2, #0
 4723 0072 0122     		movgt	r2, #1
 4724 0074 94F82830 		ldrb	r3, [r4, #40]	@ zero_extendqisi2
 4725 0078 62F30003 		bfi	r3, r2, #0, #1
 4726 007c 84F82830 		strb	r3, [r4, #40]
 323:Drivers/lvgl/lvgl/src/draw/lv_draw_mask.c ****     param->xy_steep = 0;
ARM GAS  /tmp/cct67Zj5.s 			page 126


 4727              		.loc 1 323 0
 4728 0080 0022     		movs	r2, #0
 4729 0082 E261     		str	r2, [r4, #28]
 324:Drivers/lvgl/lvgl/src/draw/lv_draw_mask.c ****     param->dsc.cb = (lv_draw_mask_xcb_t)lv_draw_mask_line;
 4730              		.loc 1 324 0
 4731 0084 A261     		str	r2, [r4, #24]
 325:Drivers/lvgl/lvgl/src/draw/lv_draw_mask.c ****     param->dsc.type = LV_DRAW_MASK_TYPE_LINE;
 4732              		.loc 1 325 0
 4733 0086 3949     		ldr	r1, .L460
 4734 0088 2160     		str	r1, [r4]
 326:Drivers/lvgl/lvgl/src/draw/lv_draw_mask.c **** 
 4735              		.loc 1 326 0
 4736 008a 2271     		strb	r2, [r4, #4]
 4737              	.LVL715:
 331:Drivers/lvgl/lvgl/src/draw/lv_draw_mask.c ****         /*Normalize the steep. Delta x should be relative to delta x = 1024*/
 4738              		.loc 1 331 0
 4739 008c 13F0010F 		tst	r3, #1
 4740 0090 24D0     		beq	.L443
 4741              	.LBB207:
 335:Drivers/lvgl/lvgl/src/draw/lv_draw_mask.c ****             m = (1L << 20) / dx;  /*m is multiplier to normalize y (upscaled by 1024)*/
 4742              		.loc 1 335 0
 4743 0092 3EB1     		cbz	r6, .L444
 336:Drivers/lvgl/lvgl/src/draw/lv_draw_mask.c ****             param->yx_steep = (m * dy) >> 10;
 4744              		.loc 1 336 0
 4745 0094 4FF48013 		mov	r3, #1048576
 4746 0098 93FBF6F3 		sdiv	r3, r3, r6
 4747              	.LVL716:
 337:Drivers/lvgl/lvgl/src/draw/lv_draw_mask.c ****         }
 4748              		.loc 1 337 0
 4749 009c 03FB05F3 		mul	r3, r3, r5
 4750              	.LVL717:
 4751 00a0 9B12     		asrs	r3, r3, #10
 4752 00a2 E361     		str	r3, [r4, #28]
 4753              	.LVL718:
 4754              	.L444:
 340:Drivers/lvgl/lvgl/src/draw/lv_draw_mask.c ****             m = (1L << 20) / dy;  /*m is multiplier to normalize x (upscaled by 1024)*/
 4755              		.loc 1 340 0
 4756 00a4 3DB1     		cbz	r5, .L445
 341:Drivers/lvgl/lvgl/src/draw/lv_draw_mask.c ****             param->xy_steep = (m * dx) >> 10;
 4757              		.loc 1 341 0
 4758 00a6 4FF48017 		mov	r7, #1048576
 4759              	.LVL719:
 4760 00aa 97FBF5F5 		sdiv	r5, r7, r5
 4761              	.LVL720:
 342:Drivers/lvgl/lvgl/src/draw/lv_draw_mask.c ****         }
 4762              		.loc 1 342 0
 4763 00ae 05FB06F6 		mul	r6, r5, r6
 4764              	.LVL721:
 4765 00b2 B612     		asrs	r6, r6, #10
 4766 00b4 A661     		str	r6, [r4, #24]
 4767              	.LVL722:
 4768              	.L445:
 344:Drivers/lvgl/lvgl/src/draw/lv_draw_mask.c ****     }
 4769              		.loc 1 344 0
 4770 00b6 E369     		ldr	r3, [r4, #28]
 4771 00b8 2362     		str	r3, [r4, #32]
 4772              	.L446:
ARM GAS  /tmp/cct67Zj5.s 			page 127


 4773              	.LBE207:
 362:Drivers/lvgl/lvgl/src/draw/lv_draw_mask.c ****     else if(param->cfg.side == LV_DRAW_MASK_LINE_SIDE_RIGHT) param->inv = 1;
 4774              		.loc 1 362 0
 4775 00ba 237C     		ldrb	r3, [r4, #16]	@ zero_extendqisi2
 4776 00bc 13F00303 		ands	r3, r3, #3
 4777 00c0 21D1     		bne	.L449
 362:Drivers/lvgl/lvgl/src/draw/lv_draw_mask.c ****     else if(param->cfg.side == LV_DRAW_MASK_LINE_SIDE_RIGHT) param->inv = 1;
 4778              		.loc 1 362 0 is_stmt 0 discriminator 1
 4779 00c2 94F82830 		ldrb	r3, [r4, #40]	@ zero_extendqisi2
 4780 00c6 6FF34103 		bfc	r3, #1, #1
 4781 00ca 84F82830 		strb	r3, [r4, #40]
 4782              	.L450:
 373:Drivers/lvgl/lvgl/src/draw/lv_draw_mask.c ****     if(param->steep < 0) param->spx = -param->spx;
 4783              		.loc 1 373 0 is_stmt 1
 4784 00ce 226A     		ldr	r2, [r4, #32]
 4785 00d0 9310     		asrs	r3, r2, #2
 4786 00d2 6362     		str	r3, [r4, #36]
 374:Drivers/lvgl/lvgl/src/draw/lv_draw_mask.c **** }
 4787              		.loc 1 374 0
 4788 00d4 002A     		cmp	r2, #0
 4789 00d6 45DB     		blt	.L457
 4790              	.L440:
 375:Drivers/lvgl/lvgl/src/draw/lv_draw_mask.c **** 
 4791              		.loc 1 375 0
 4792 00d8 BDE8F883 		pop	{r3, r4, r5, r6, r7, r8, r9, pc}
 4793              	.LVL723:
 4794              	.L443:
 4795              	.LBB208:
 350:Drivers/lvgl/lvgl/src/draw/lv_draw_mask.c ****             m = (1L << 20) / dy;  /*m is multiplier to normalize x (upscaled by 1024)*/
 4796              		.loc 1 350 0
 4797 00dc 3DB1     		cbz	r5, .L447
 351:Drivers/lvgl/lvgl/src/draw/lv_draw_mask.c ****             param->xy_steep = (m * dx) >> 10;
 4798              		.loc 1 351 0
 4799 00de 4FF48013 		mov	r3, #1048576
 4800 00e2 93FBF5F3 		sdiv	r3, r3, r5
 4801              	.LVL724:
 352:Drivers/lvgl/lvgl/src/draw/lv_draw_mask.c ****         }
 4802              		.loc 1 352 0
 4803 00e6 03FB06F3 		mul	r3, r3, r6
 4804              	.LVL725:
 4805 00ea 9B12     		asrs	r3, r3, #10
 4806 00ec A361     		str	r3, [r4, #24]
 4807              	.LVL726:
 4808              	.L447:
 355:Drivers/lvgl/lvgl/src/draw/lv_draw_mask.c ****             m = (1L << 20) / dx;  /*m is multiplier to normalize x (upscaled by 1024)*/
 4809              		.loc 1 355 0
 4810 00ee 3EB1     		cbz	r6, .L448
 356:Drivers/lvgl/lvgl/src/draw/lv_draw_mask.c ****             param->yx_steep = (m * dy) >> 10;
 4811              		.loc 1 356 0
 4812 00f0 4FF48017 		mov	r7, #1048576
 4813              	.LVL727:
 4814 00f4 97FBF6F6 		sdiv	r6, r7, r6
 4815              	.LVL728:
 357:Drivers/lvgl/lvgl/src/draw/lv_draw_mask.c ****         }
 4816              		.loc 1 357 0
 4817 00f8 06FB05F5 		mul	r5, r6, r5
 4818              	.LVL729:
ARM GAS  /tmp/cct67Zj5.s 			page 128


 4819 00fc AD12     		asrs	r5, r5, #10
 4820 00fe E561     		str	r5, [r4, #28]
 4821              	.LVL730:
 4822              	.L448:
 359:Drivers/lvgl/lvgl/src/draw/lv_draw_mask.c ****     }
 4823              		.loc 1 359 0
 4824 0100 A369     		ldr	r3, [r4, #24]
 4825 0102 2362     		str	r3, [r4, #32]
 4826 0104 D9E7     		b	.L446
 4827              	.L449:
 4828              	.LBE208:
 363:Drivers/lvgl/lvgl/src/draw/lv_draw_mask.c ****     else if(param->cfg.side == LV_DRAW_MASK_LINE_SIDE_TOP) {
 4829              		.loc 1 363 0
 4830 0106 012B     		cmp	r3, #1
 4831 0108 0DD0     		beq	.L458
 364:Drivers/lvgl/lvgl/src/draw/lv_draw_mask.c ****         if(param->steep > 0) param->inv = 1;
 4832              		.loc 1 364 0
 4833 010a 022B     		cmp	r3, #2
 4834 010c 12D0     		beq	.L459
 368:Drivers/lvgl/lvgl/src/draw/lv_draw_mask.c ****         if(param->steep > 0) param->inv = 0;
 4835              		.loc 1 368 0
 4836 010e 032B     		cmp	r3, #3
 4837 0110 DDD1     		bne	.L450
 369:Drivers/lvgl/lvgl/src/draw/lv_draw_mask.c ****         else param->inv = 1;
 4838              		.loc 1 369 0
 4839 0112 236A     		ldr	r3, [r4, #32]
 4840 0114 002B     		cmp	r3, #0
 4841 0116 1EDD     		ble	.L454
 369:Drivers/lvgl/lvgl/src/draw/lv_draw_mask.c ****         else param->inv = 1;
 4842              		.loc 1 369 0 is_stmt 0 discriminator 1
 4843 0118 94F82830 		ldrb	r3, [r4, #40]	@ zero_extendqisi2
 4844 011c 6FF34103 		bfc	r3, #1, #1
 4845 0120 84F82830 		strb	r3, [r4, #40]
 4846 0124 D3E7     		b	.L450
 4847              	.L458:
 363:Drivers/lvgl/lvgl/src/draw/lv_draw_mask.c ****     else if(param->cfg.side == LV_DRAW_MASK_LINE_SIDE_TOP) {
 4848              		.loc 1 363 0 is_stmt 1 discriminator 1
 4849 0126 94F82830 		ldrb	r3, [r4, #40]	@ zero_extendqisi2
 4850 012a 43F00203 		orr	r3, r3, #2
 4851 012e 84F82830 		strb	r3, [r4, #40]
 4852 0132 CCE7     		b	.L450
 4853              	.L459:
 365:Drivers/lvgl/lvgl/src/draw/lv_draw_mask.c ****         else param->inv = 0;
 4854              		.loc 1 365 0
 4855 0134 236A     		ldr	r3, [r4, #32]
 4856 0136 002B     		cmp	r3, #0
 4857 0138 06DD     		ble	.L453
 365:Drivers/lvgl/lvgl/src/draw/lv_draw_mask.c ****         else param->inv = 0;
 4858              		.loc 1 365 0 is_stmt 0 discriminator 1
 4859 013a 94F82830 		ldrb	r3, [r4, #40]	@ zero_extendqisi2
 4860 013e 43F00203 		orr	r3, r3, #2
 4861 0142 84F82830 		strb	r3, [r4, #40]
 4862 0146 C2E7     		b	.L450
 4863              	.L453:
 366:Drivers/lvgl/lvgl/src/draw/lv_draw_mask.c ****     }
 4864              		.loc 1 366 0 is_stmt 1
 4865 0148 94F82830 		ldrb	r3, [r4, #40]	@ zero_extendqisi2
ARM GAS  /tmp/cct67Zj5.s 			page 129


 4866 014c 6FF34103 		bfc	r3, #1, #1
 4867 0150 84F82830 		strb	r3, [r4, #40]
 4868 0154 BBE7     		b	.L450
 4869              	.L454:
 370:Drivers/lvgl/lvgl/src/draw/lv_draw_mask.c ****     }
 4870              		.loc 1 370 0
 4871 0156 94F82830 		ldrb	r3, [r4, #40]	@ zero_extendqisi2
 4872 015a 43F00203 		orr	r3, r3, #2
 4873 015e 84F82830 		strb	r3, [r4, #40]
 4874 0162 B4E7     		b	.L450
 4875              	.L457:
 374:Drivers/lvgl/lvgl/src/draw/lv_draw_mask.c **** }
 4876              		.loc 1 374 0 discriminator 1
 4877 0164 5B42     		negs	r3, r3
 4878 0166 6362     		str	r3, [r4, #36]
 375:Drivers/lvgl/lvgl/src/draw/lv_draw_mask.c **** 
 4879              		.loc 1 375 0 discriminator 1
 4880 0168 B6E7     		b	.L440
 4881              	.L461:
 4882 016a 00BF     		.align	2
 4883              	.L460:
 4884 016c 00000000 		.word	lv_draw_mask_line
 4885              		.cfi_endproc
 4886              	.LFE65:
 4888              		.section	.text.lv_draw_mask_polygon,"ax",%progbits
 4889              		.align	1
 4890              		.syntax unified
 4891              		.thumb
 4892              		.thumb_func
 4893              		.fpu fpv5-d16
 4895              	lv_draw_mask_polygon:
 4896              	.LFB79:
1253:Drivers/lvgl/lvgl/src/draw/lv_draw_mask.c ****     uint16_t i;
 4897              		.loc 1 1253 0
 4898              		.cfi_startproc
 4899              		@ args = 4, pretend = 0, frame = 80
 4900              		@ frame_needed = 0, uses_anonymous_args = 0
 4901              	.LVL731:
 4902 0000 2DE9F047 		push	{r4, r5, r6, r7, r8, r9, r10, lr}
 4903              	.LCFI40:
 4904              		.cfi_def_cfa_offset 32
 4905              		.cfi_offset 4, -32
 4906              		.cfi_offset 5, -28
 4907              		.cfi_offset 6, -24
 4908              		.cfi_offset 7, -20
 4909              		.cfi_offset 8, -16
 4910              		.cfi_offset 9, -12
 4911              		.cfi_offset 10, -8
 4912              		.cfi_offset 14, -4
 4913 0004 96B0     		sub	sp, sp, #88
 4914              	.LCFI41:
 4915              		.cfi_def_cfa_offset 120
 4916 0006 0646     		mov	r6, r0
 4917 0008 8846     		mov	r8, r1
 4918 000a 1546     		mov	r5, r2
 4919 000c 9A46     		mov	r10, r3
 4920 000e 1E9C     		ldr	r4, [sp, #120]
ARM GAS  /tmp/cct67Zj5.s 			page 130


 4921              	.LVL732:
1260:Drivers/lvgl/lvgl/src/draw/lv_draw_mask.c ****     int psign_prev = 0;
 4922              		.loc 1 1260 0
 4923 0010 1021     		movs	r1, #16
 4924              	.LVL733:
 4925 0012 12A8     		add	r0, sp, #72
 4926              	.LVL734:
 4927 0014 FFF7FEFF 		bl	lv_memset_00
 4928              	.LVL735:
1261:Drivers/lvgl/lvgl/src/draw/lv_draw_mask.c ****     for(i = 0; i < param->cfg.point_cnt; i++) {
 4929              		.loc 1 1261 0
 4930 0018 4FF0000C 		mov	ip, #0
1259:Drivers/lvgl/lvgl/src/draw/lv_draw_mask.c ****     lv_memset_00(&lines, sizeof(lines));
 4931              		.loc 1 1259 0
 4932 001c 6146     		mov	r1, ip
1262:Drivers/lvgl/lvgl/src/draw/lv_draw_mask.c ****         lv_point_t p1 = param->cfg.points[i];
 4933              		.loc 1 1262 0
 4934 001e 6346     		mov	r3, ip
 4935 0020 11E0     		b	.L463
 4936              	.LVL736:
 4937              	.L485:
 4938              	.LBB209:
1264:Drivers/lvgl/lvgl/src/draw/lv_draw_mask.c ****         int pdiff = p1.y - p2.y, psign = pdiff / LV_ABS(pdiff);
 4939              		.loc 1 1264 0
 4940 0022 0022     		movs	r2, #0
 4941 0024 1BE0     		b	.L464
 4942              	.LVL737:
 4943              	.L465:
1272:Drivers/lvgl/lvgl/src/draw/lv_draw_mask.c ****             lines[line_cnt].p1 = p1;
 4944              		.loc 1 1272 0
 4945 0026 A945     		cmp	r9, r5
 4946 0028 0BDC     		bgt	.L469
1272:Drivers/lvgl/lvgl/src/draw/lv_draw_mask.c ****             lines[line_cnt].p1 = p1;
 4947              		.loc 1 1272 0 is_stmt 0 discriminator 2
 4948 002a A842     		cmp	r0, r5
 4949 002c 09DB     		blt	.L469
1273:Drivers/lvgl/lvgl/src/draw/lv_draw_mask.c ****             lines[line_cnt].p2 = p2;
 4950              		.loc 1 1273 0 is_stmt 1
 4951 002e 039A     		ldr	r2, [sp, #12]
 4952              	.LVL738:
 4953 0030 16A8     		add	r0, sp, #88
 4954              	.LVL739:
 4955 0032 00EBC100 		add	r0, r0, r1, lsl #3
 4956 0036 40F8102C 		str	r2, [r0, #-16]
1274:Drivers/lvgl/lvgl/src/draw/lv_draw_mask.c ****         }
 4957              		.loc 1 1274 0
 4958 003a 049A     		ldr	r2, [sp, #16]
 4959 003c 40F80C2C 		str	r2, [r0, #-12]
 4960 0040 29E0     		b	.L467
 4961              	.L469:
 4962              	.LBE209:
1262:Drivers/lvgl/lvgl/src/draw/lv_draw_mask.c ****         lv_point_t p1 = param->cfg.points[i];
 4963              		.loc 1 1262 0 discriminator 2
 4964 0042 0133     		adds	r3, r3, #1
 4965              	.LVL740:
 4966 0044 9BB2     		uxth	r3, r3
 4967              	.LVL741:
ARM GAS  /tmp/cct67Zj5.s 			page 131


 4968              	.L463:
1262:Drivers/lvgl/lvgl/src/draw/lv_draw_mask.c ****         lv_point_t p1 = param->cfg.points[i];
 4969              		.loc 1 1262 0 is_stmt 0 discriminator 1
 4970 0046 B4F80CE0 		ldrh	lr, [r4, #12]
 4971 004a 9E45     		cmp	lr, r3
 4972 004c 33D9     		bls	.L470
 4973              	.LBB210:
1263:Drivers/lvgl/lvgl/src/draw/lv_draw_mask.c ****         lv_point_t p2 = param->cfg.points[i + 1 < param->cfg.point_cnt ? i + 1 : 0];
 4974              		.loc 1 1263 0 is_stmt 1
 4975 004e A768     		ldr	r7, [r4, #8]
 4976 0050 57F82300 		ldr	r0, [r7, r3, lsl #2]	@ unaligned
 4977 0054 0390     		str	r0, [sp, #12]
1264:Drivers/lvgl/lvgl/src/draw/lv_draw_mask.c ****         int pdiff = p1.y - p2.y, psign = pdiff / LV_ABS(pdiff);
 4978              		.loc 1 1264 0
 4979 0056 5A1C     		adds	r2, r3, #1
 4980 0058 7245     		cmp	r2, lr
 4981 005a E2DA     		bge	.L485
1264:Drivers/lvgl/lvgl/src/draw/lv_draw_mask.c ****         int pdiff = p1.y - p2.y, psign = pdiff / LV_ABS(pdiff);
 4982              		.loc 1 1264 0 is_stmt 0 discriminator 1
 4983 005c 9200     		lsls	r2, r2, #2
 4984              	.L464:
1264:Drivers/lvgl/lvgl/src/draw/lv_draw_mask.c ****         int pdiff = p1.y - p2.y, psign = pdiff / LV_ABS(pdiff);
 4985              		.loc 1 1264 0 discriminator 4
 4986 005e B858     		ldr	r0, [r7, r2]	@ unaligned
 4987 0060 0490     		str	r0, [sp, #16]
1265:Drivers/lvgl/lvgl/src/draw/lv_draw_mask.c ****         if(pdiff > 0) {
 4988              		.loc 1 1265 0 is_stmt 1 discriminator 4
 4989 0062 BDF90E90 		ldrsh	r9, [sp, #14]
 4990 0066 0014     		asrs	r0, r0, #16
 4991 0068 A9EB0002 		sub	r2, r9, r0
 4992              	.LVL742:
 4993 006c 82EAE27E 		eor	lr, r2, r2, asr #31
 4994 0070 AEEBE27E 		sub	lr, lr, r2, asr #31
 4995 0074 92FBFEFE 		sdiv	lr, r2, lr
 4996              	.LVL743:
1266:Drivers/lvgl/lvgl/src/draw/lv_draw_mask.c ****             if(abs_y > p1.y || abs_y < p2.y) continue;
 4997              		.loc 1 1266 0 discriminator 4
 4998 0078 002A     		cmp	r2, #0
 4999 007a D4DD     		ble	.L465
1267:Drivers/lvgl/lvgl/src/draw/lv_draw_mask.c ****             lines[line_cnt].p1 = p2;
 5000              		.loc 1 1267 0
 5001 007c A945     		cmp	r9, r5
 5002 007e E0DB     		blt	.L469
1267:Drivers/lvgl/lvgl/src/draw/lv_draw_mask.c ****             lines[line_cnt].p1 = p2;
 5003              		.loc 1 1267 0 is_stmt 0 discriminator 2
 5004 0080 A842     		cmp	r0, r5
 5005 0082 DEDC     		bgt	.L469
1268:Drivers/lvgl/lvgl/src/draw/lv_draw_mask.c ****             lines[line_cnt].p2 = p1;
 5006              		.loc 1 1268 0 is_stmt 1
 5007 0084 049A     		ldr	r2, [sp, #16]
 5008              	.LVL744:
 5009 0086 16A8     		add	r0, sp, #88
 5010              	.LVL745:
 5011 0088 00EBC100 		add	r0, r0, r1, lsl #3
 5012 008c 40F8102C 		str	r2, [r0, #-16]
1269:Drivers/lvgl/lvgl/src/draw/lv_draw_mask.c ****         }
 5013              		.loc 1 1269 0
ARM GAS  /tmp/cct67Zj5.s 			page 132


 5014 0090 039A     		ldr	r2, [sp, #12]
 5015              	.LVL746:
 5016 0092 40F80C2C 		str	r2, [r0, #-12]
 5017              	.L467:
1276:Drivers/lvgl/lvgl/src/draw/lv_draw_mask.c ****         psign_prev = psign;
 5018              		.loc 1 1276 0
 5019 0096 F445     		cmp	ip, lr
 5020 0098 14BF     		ite	ne
 5021 009a 0022     		movne	r2, #0
 5022 009c 0122     		moveq	r2, #1
 5023 009e BCF1000F 		cmp	ip, #0
 5024 00a2 08BF     		it	eq
 5025 00a4 0022     		moveq	r2, #0
 5026 00a6 002A     		cmp	r2, #0
 5027 00a8 CBD1     		bne	.L469
 5028              	.LVL747:
1278:Drivers/lvgl/lvgl/src/draw/lv_draw_mask.c ****         if(line_cnt == 2) break;
 5029              		.loc 1 1278 0
 5030 00aa 0131     		adds	r1, r1, #1
 5031              	.LVL748:
 5032 00ac 89B2     		uxth	r1, r1
 5033              	.LVL749:
1279:Drivers/lvgl/lvgl/src/draw/lv_draw_mask.c ****     }
 5034              		.loc 1 1279 0
 5035 00ae 0229     		cmp	r1, #2
 5036 00b0 01D0     		beq	.L470
1277:Drivers/lvgl/lvgl/src/draw/lv_draw_mask.c ****         line_cnt++;
 5037              		.loc 1 1277 0
 5038 00b2 F446     		mov	ip, lr
 5039 00b4 C5E7     		b	.L469
 5040              	.LVL750:
 5041              	.L470:
 5042              	.LBE210:
1281:Drivers/lvgl/lvgl/src/draw/lv_draw_mask.c ****     if(lines[0].p1.x > lines[1].p1.x || lines[0].p2.x > lines[1].p2.x) {
 5043              		.loc 1 1281 0
 5044 00b6 0229     		cmp	r1, #2
 5045 00b8 05D0     		beq	.L495
 5046 00ba 4FF00009 		mov	r9, #0
 5047              	.LVL751:
 5048              	.L472:
1322:Drivers/lvgl/lvgl/src/draw/lv_draw_mask.c **** /**
 5049              		.loc 1 1322 0
 5050 00be 4846     		mov	r0, r9
 5051 00c0 16B0     		add	sp, sp, #88
 5052              	.LCFI42:
 5053              		.cfi_remember_state
 5054              		.cfi_def_cfa_offset 32
 5055              		@ sp needed
 5056 00c2 BDE8F087 		pop	{r4, r5, r6, r7, r8, r9, r10, pc}
 5057              	.LVL752:
 5058              	.L495:
 5059              	.LCFI43:
 5060              		.cfi_restore_state
1282:Drivers/lvgl/lvgl/src/draw/lv_draw_mask.c ****         tmp = lines[0];
 5061              		.loc 1 1282 0
 5062 00c6 BDF94820 		ldrsh	r2, [sp, #72]
 5063 00ca BDF95030 		ldrsh	r3, [sp, #80]
ARM GAS  /tmp/cct67Zj5.s 			page 133


 5064              	.LVL753:
 5065 00ce 9A42     		cmp	r2, r3
 5066 00d0 05DC     		bgt	.L473
1282:Drivers/lvgl/lvgl/src/draw/lv_draw_mask.c ****         tmp = lines[0];
 5067              		.loc 1 1282 0 is_stmt 0 discriminator 1
 5068 00d2 BDF94C20 		ldrsh	r2, [sp, #76]
 5069 00d6 BDF95430 		ldrsh	r3, [sp, #84]
 5070 00da 9A42     		cmp	r2, r3
 5071 00dc 0EDD     		ble	.L474
 5072              	.L473:
1283:Drivers/lvgl/lvgl/src/draw/lv_draw_mask.c ****         lines[0] = lines[1];
 5073              		.loc 1 1283 0 is_stmt 1
 5074 00de 10AA     		add	r2, sp, #64
 5075 00e0 12AC     		add	r4, sp, #72
 5076 00e2 94E80300 		ldm	r4, {r0, r1}
 5077              	.LVL754:
 5078 00e6 82E80300 		stm	r2, {r0, r1}
1284:Drivers/lvgl/lvgl/src/draw/lv_draw_mask.c ****         lines[1] = tmp;
 5079              		.loc 1 1284 0
 5080 00ea 14AB     		add	r3, sp, #80
 5081 00ec 93E80300 		ldm	r3, {r0, r1}
 5082 00f0 84E80300 		stm	r4, {r0, r1}
1285:Drivers/lvgl/lvgl/src/draw/lv_draw_mask.c ****     }
 5083              		.loc 1 1285 0
 5084 00f4 92E80300 		ldm	r2, {r0, r1}
 5085 00f8 83E80300 		stm	r3, {r0, r1}
 5086              	.L474:
1288:Drivers/lvgl/lvgl/src/draw/lv_draw_mask.c ****                                   LV_DRAW_MASK_LINE_SIDE_RIGHT);
 5087              		.loc 1 1288 0
 5088 00fc BDF94C30 		ldrsh	r3, [sp, #76]
 5089 0100 BDF94A20 		ldrsh	r2, [sp, #74]
 5090 0104 BDF94810 		ldrsh	r1, [sp, #72]
 5091 0108 0120     		movs	r0, #1
 5092 010a 0190     		str	r0, [sp, #4]
 5093 010c BDF94E00 		ldrsh	r0, [sp, #78]
 5094 0110 0090     		str	r0, [sp]
 5095 0112 05A8     		add	r0, sp, #20
 5096 0114 FFF7FEFF 		bl	lv_draw_mask_line_points_init
 5097              	.LVL755:
1290:Drivers/lvgl/lvgl/src/draw/lv_draw_mask.c ****         lv_coord_t x1 = LV_MIN(lines[0].p1.x, lines[0].p2.x);
 5098              		.loc 1 1290 0
 5099 0118 0D9B     		ldr	r3, [sp, #52]
 5100 011a 23B9     		cbnz	r3, .L475
1290:Drivers/lvgl/lvgl/src/draw/lv_draw_mask.c ****         lv_coord_t x1 = LV_MIN(lines[0].p1.x, lines[0].p2.x);
 5101              		.loc 1 1290 0 is_stmt 0 discriminator 1
 5102 011c 9DF83C30 		ldrb	r3, [sp, #60]	@ zero_extendqisi2
 5103 0120 13F0010F 		tst	r3, #1
 5104 0124 39D1     		bne	.L496
 5105              	.L475:
1299:Drivers/lvgl/lvgl/src/draw/lv_draw_mask.c ****     lv_draw_mask_free_param(&line_p);
 5106              		.loc 1 1299 0 is_stmt 1
 5107 0126 05AC     		add	r4, sp, #20
 5108 0128 0094     		str	r4, [sp]
 5109 012a 5346     		mov	r3, r10
 5110 012c 2A46     		mov	r2, r5
 5111 012e 4146     		mov	r1, r8
 5112 0130 3046     		mov	r0, r6
ARM GAS  /tmp/cct67Zj5.s 			page 134


 5113 0132 FFF7FEFF 		bl	lv_draw_mask_line
 5114              	.LVL756:
 5115 0136 8146     		mov	r9, r0
 5116              	.LVL757:
1300:Drivers/lvgl/lvgl/src/draw/lv_draw_mask.c ****     if(res1 == LV_DRAW_MASK_RES_TRANSP) {
 5117              		.loc 1 1300 0
 5118 0138 2046     		mov	r0, r4
 5119 013a FFF7FEFF 		bl	lv_draw_mask_free_param
 5120              	.LVL758:
1301:Drivers/lvgl/lvgl/src/draw/lv_draw_mask.c ****         return LV_DRAW_MASK_RES_TRANSP;
 5121              		.loc 1 1301 0
 5122 013e B9F1000F 		cmp	r9, #0
 5123 0142 BCD0     		beq	.L472
1304:Drivers/lvgl/lvgl/src/draw/lv_draw_mask.c ****                                   LV_DRAW_MASK_LINE_SIDE_LEFT);
 5124              		.loc 1 1304 0
 5125 0144 BDF95430 		ldrsh	r3, [sp, #84]
 5126 0148 BDF95220 		ldrsh	r2, [sp, #82]
 5127 014c BDF95010 		ldrsh	r1, [sp, #80]
 5128 0150 0020     		movs	r0, #0
 5129 0152 0190     		str	r0, [sp, #4]
 5130 0154 BDF95600 		ldrsh	r0, [sp, #86]
 5131 0158 0090     		str	r0, [sp]
 5132 015a 05A8     		add	r0, sp, #20
 5133 015c FFF7FEFF 		bl	lv_draw_mask_line_points_init
 5134              	.LVL759:
1306:Drivers/lvgl/lvgl/src/draw/lv_draw_mask.c ****         lv_coord_t x1 = LV_MIN(lines[1].p1.x, lines[1].p2.x);
 5135              		.loc 1 1306 0
 5136 0160 0D9B     		ldr	r3, [sp, #52]
 5137 0162 23B9     		cbnz	r3, .L480
1306:Drivers/lvgl/lvgl/src/draw/lv_draw_mask.c ****         lv_coord_t x1 = LV_MIN(lines[1].p1.x, lines[1].p2.x);
 5138              		.loc 1 1306 0 is_stmt 0 discriminator 1
 5139 0164 9DF83C30 		ldrb	r3, [sp, #60]	@ zero_extendqisi2
 5140 0168 13F0010F 		tst	r3, #1
 5141 016c 4AD1     		bne	.L497
 5142              	.L480:
1315:Drivers/lvgl/lvgl/src/draw/lv_draw_mask.c ****     lv_draw_mask_free_param(&line_p);
 5143              		.loc 1 1315 0 is_stmt 1
 5144 016e 05AC     		add	r4, sp, #20
 5145 0170 0094     		str	r4, [sp]
 5146 0172 5346     		mov	r3, r10
 5147 0174 2A46     		mov	r2, r5
 5148 0176 4146     		mov	r1, r8
 5149 0178 3046     		mov	r0, r6
 5150 017a FFF7FEFF 		bl	lv_draw_mask_line
 5151              	.LVL760:
 5152 017e 0546     		mov	r5, r0
 5153              	.LVL761:
1316:Drivers/lvgl/lvgl/src/draw/lv_draw_mask.c ****     if(res2 == LV_DRAW_MASK_RES_TRANSP) {
 5154              		.loc 1 1316 0
 5155 0180 2046     		mov	r0, r4
 5156 0182 FFF7FEFF 		bl	lv_draw_mask_free_param
 5157              	.LVL762:
1317:Drivers/lvgl/lvgl/src/draw/lv_draw_mask.c ****         return LV_DRAW_MASK_RES_TRANSP;
 5158              		.loc 1 1317 0
 5159 0186 002D     		cmp	r5, #0
 5160 0188 71D0     		beq	.L493
1320:Drivers/lvgl/lvgl/src/draw/lv_draw_mask.c ****     return res1;
ARM GAS  /tmp/cct67Zj5.s 			page 135


 5161              		.loc 1 1320 0
 5162 018a 022D     		cmp	r5, #2
 5163 018c 18BF     		it	ne
 5164 018e B9F1020F 		cmpne	r9, #2
 5165 0192 94D1     		bne	.L472
 5166 0194 4FF00209 		mov	r9, #2
 5167              	.LVL763:
 5168 0198 91E7     		b	.L472
 5169              	.LVL764:
 5170              	.L496:
 5171              	.LBB211:
1291:Drivers/lvgl/lvgl/src/draw/lv_draw_mask.c ****         lv_coord_t x2 = LV_MAX(lines[0].p1.x, lines[0].p2.x);
 5172              		.loc 1 1291 0
 5173 019a BDF94C00 		ldrsh	r0, [sp, #76]
 5174 019e BDF94830 		ldrsh	r3, [sp, #72]
 5175 01a2 0446     		mov	r4, r0
 5176 01a4 9842     		cmp	r0, r3
 5177 01a6 A8BF     		it	ge
 5178 01a8 1C46     		movge	r4, r3
 5179              	.LVL765:
1292:Drivers/lvgl/lvgl/src/draw/lv_draw_mask.c ****         for(i = 0; i < len; i++) {
 5180              		.loc 1 1292 0
 5181 01aa 9842     		cmp	r0, r3
 5182 01ac B8BF     		it	lt
 5183 01ae 1846     		movlt	r0, r3
 5184              	.LVL766:
1293:Drivers/lvgl/lvgl/src/draw/lv_draw_mask.c ****             mask_buf[i] = mask_mix(mask_buf[i], (abs_x + i >= x1 && abs_x + i <= x2) * 0xFF);
 5185              		.loc 1 1293 0
 5186 01b0 0023     		movs	r3, #0
 5187 01b2 15E0     		b	.L476
 5188              	.LVL767:
 5189              	.L487:
1294:Drivers/lvgl/lvgl/src/draw/lv_draw_mask.c ****         }
 5190              		.loc 1 1294 0
 5191 01b4 0022     		movs	r2, #0
 5192              	.L477:
1294:Drivers/lvgl/lvgl/src/draw/lv_draw_mask.c ****         }
 5193              		.loc 1 1294 0 is_stmt 0 discriminator 6
 5194 01b6 5242     		negs	r2, r2
 5195 01b8 D2B2     		uxtb	r2, r2
 5196              	.LVL768:
 5197              	.LBB212:
 5198              	.LBB213:
1523:Drivers/lvgl/lvgl/src/draw/lv_draw_mask.c ****     if(mask_new <= LV_OPA_MIN) return 0;
 5199              		.loc 1 1523 0 is_stmt 1 discriminator 6
 5200 01ba FC2A     		cmp	r2, #252
 5201 01bc 0DD8     		bhi	.L478
1524:Drivers/lvgl/lvgl/src/draw/lv_draw_mask.c **** 
 5202              		.loc 1 1524 0
 5203 01be 022A     		cmp	r2, #2
 5204 01c0 0AD9     		bls	.L489
 5205              		.loc 1 1526 0
 5206 01c2 01FB02F2 		mul	r2, r1, r2
 5207              	.LVL769:
 5208 01c6 02EB0221 		add	r1, r2, r2, lsl #8
 5209              	.LVL770:
 5210 01ca 02EBC112 		add	r2, r2, r1, lsl #7
ARM GAS  /tmp/cct67Zj5.s 			page 136


 5211 01ce C2F3C751 		ubfx	r1, r2, #23, #8
 5212 01d2 02E0     		b	.L478
 5213              	.L488:
 5214              	.LBE213:
 5215              	.LBE212:
1294:Drivers/lvgl/lvgl/src/draw/lv_draw_mask.c ****         }
 5216              		.loc 1 1294 0
 5217 01d4 0122     		movs	r2, #1
 5218 01d6 EEE7     		b	.L477
 5219              	.LVL771:
 5220              	.L489:
 5221              	.LBB215:
 5222              	.LBB214:
1524:Drivers/lvgl/lvgl/src/draw/lv_draw_mask.c **** 
 5223              		.loc 1 1524 0
 5224 01d8 0021     		movs	r1, #0
 5225              	.LVL772:
 5226              	.L478:
 5227              	.LBE214:
 5228              	.LBE215:
1294:Drivers/lvgl/lvgl/src/draw/lv_draw_mask.c ****         }
 5229              		.loc 1 1294 0
 5230 01da 2970     		strb	r1, [r5]
1293:Drivers/lvgl/lvgl/src/draw/lv_draw_mask.c ****             mask_buf[i] = mask_mix(mask_buf[i], (abs_x + i >= x1 && abs_x + i <= x2) * 0xFF);
 5231              		.loc 1 1293 0
 5232 01dc 0133     		adds	r3, r3, #1
 5233              	.LVL773:
 5234 01de 9BB2     		uxth	r3, r3
 5235              	.LVL774:
 5236              	.L476:
1293:Drivers/lvgl/lvgl/src/draw/lv_draw_mask.c ****             mask_buf[i] = mask_mix(mask_buf[i], (abs_x + i >= x1 && abs_x + i <= x2) * 0xFF);
 5237              		.loc 1 1293 0 is_stmt 0 discriminator 2
 5238 01e0 5345     		cmp	r3, r10
 5239 01e2 09DA     		bge	.L498
1294:Drivers/lvgl/lvgl/src/draw/lv_draw_mask.c ****         }
 5240              		.loc 1 1294 0 is_stmt 1
 5241 01e4 F518     		adds	r5, r6, r3
 5242 01e6 F15C     		ldrb	r1, [r6, r3]	@ zero_extendqisi2
 5243 01e8 08EB0302 		add	r2, r8, r3
 5244 01ec A242     		cmp	r2, r4
 5245 01ee E1DB     		blt	.L487
1294:Drivers/lvgl/lvgl/src/draw/lv_draw_mask.c ****         }
 5246              		.loc 1 1294 0 is_stmt 0 discriminator 1
 5247 01f0 8242     		cmp	r2, r0
 5248 01f2 EFDD     		ble	.L488
1294:Drivers/lvgl/lvgl/src/draw/lv_draw_mask.c ****         }
 5249              		.loc 1 1294 0
 5250 01f4 0022     		movs	r2, #0
 5251 01f6 DEE7     		b	.L477
 5252              	.L498:
1296:Drivers/lvgl/lvgl/src/draw/lv_draw_mask.c ****         return LV_DRAW_MASK_RES_CHANGED;
 5253              		.loc 1 1296 0 is_stmt 1
 5254 01f8 05A8     		add	r0, sp, #20
 5255              	.LVL775:
 5256 01fa FFF7FEFF 		bl	lv_draw_mask_free_param
 5257              	.LVL776:
1297:Drivers/lvgl/lvgl/src/draw/lv_draw_mask.c ****     }
ARM GAS  /tmp/cct67Zj5.s 			page 137


 5258              		.loc 1 1297 0
 5259 01fe 4FF00209 		mov	r9, #2
 5260 0202 5CE7     		b	.L472
 5261              	.LVL777:
 5262              	.L497:
 5263              	.LBE211:
 5264              	.LBB216:
1307:Drivers/lvgl/lvgl/src/draw/lv_draw_mask.c ****         lv_coord_t x2 = LV_MAX(lines[1].p1.x, lines[1].p2.x);
 5265              		.loc 1 1307 0
 5266 0204 BDF95400 		ldrsh	r0, [sp, #84]
 5267 0208 BDF95030 		ldrsh	r3, [sp, #80]
 5268 020c 0446     		mov	r4, r0
 5269 020e 9842     		cmp	r0, r3
 5270 0210 A8BF     		it	ge
 5271 0212 1C46     		movge	r4, r3
 5272              	.LVL778:
1308:Drivers/lvgl/lvgl/src/draw/lv_draw_mask.c ****         for(i = 0; i < len; i++) {
 5273              		.loc 1 1308 0
 5274 0214 9842     		cmp	r0, r3
 5275 0216 B8BF     		it	lt
 5276 0218 1846     		movlt	r0, r3
 5277              	.LVL779:
1309:Drivers/lvgl/lvgl/src/draw/lv_draw_mask.c ****             mask_buf[i] = mask_mix(mask_buf[i], (abs_x + i >= x1 && abs_x + i <= x2) * 0xFF);
 5278              		.loc 1 1309 0
 5279 021a 0023     		movs	r3, #0
 5280 021c 11E0     		b	.L481
 5281              	.LVL780:
 5282              	.L490:
1310:Drivers/lvgl/lvgl/src/draw/lv_draw_mask.c ****         }
 5283              		.loc 1 1310 0
 5284 021e 0022     		movs	r2, #0
 5285              	.L482:
1310:Drivers/lvgl/lvgl/src/draw/lv_draw_mask.c ****         }
 5286              		.loc 1 1310 0 is_stmt 0 discriminator 6
 5287 0220 5242     		negs	r2, r2
 5288 0222 D2B2     		uxtb	r2, r2
 5289              	.LVL781:
 5290              	.LBB217:
 5291              	.LBB218:
1523:Drivers/lvgl/lvgl/src/draw/lv_draw_mask.c ****     if(mask_new <= LV_OPA_MIN) return 0;
 5292              		.loc 1 1523 0 is_stmt 1 discriminator 6
 5293 0224 FC2A     		cmp	r2, #252
 5294 0226 09D8     		bhi	.L483
1524:Drivers/lvgl/lvgl/src/draw/lv_draw_mask.c **** 
 5295              		.loc 1 1524 0
 5296 0228 022A     		cmp	r2, #2
 5297 022a 18D9     		bls	.L492
 5298              		.loc 1 1526 0
 5299 022c 02FB01F2 		mul	r2, r2, r1
 5300              	.LVL782:
 5301 0230 02EB0221 		add	r1, r2, r2, lsl #8
 5302              	.LVL783:
 5303 0234 02EBC112 		add	r2, r2, r1, lsl #7
 5304 0238 C2F3C751 		ubfx	r1, r2, #23, #8
 5305              	.L483:
 5306              	.LBE218:
 5307              	.LBE217:
ARM GAS  /tmp/cct67Zj5.s 			page 138


1310:Drivers/lvgl/lvgl/src/draw/lv_draw_mask.c ****         }
 5308              		.loc 1 1310 0
 5309 023c 2970     		strb	r1, [r5]
1309:Drivers/lvgl/lvgl/src/draw/lv_draw_mask.c ****             mask_buf[i] = mask_mix(mask_buf[i], (abs_x + i >= x1 && abs_x + i <= x2) * 0xFF);
 5310              		.loc 1 1309 0
 5311 023e 0133     		adds	r3, r3, #1
 5312              	.LVL784:
 5313 0240 9BB2     		uxth	r3, r3
 5314              	.LVL785:
 5315              	.L481:
1309:Drivers/lvgl/lvgl/src/draw/lv_draw_mask.c ****             mask_buf[i] = mask_mix(mask_buf[i], (abs_x + i >= x1 && abs_x + i <= x2) * 0xFF);
 5316              		.loc 1 1309 0 is_stmt 0 discriminator 2
 5317 0242 5345     		cmp	r3, r10
 5318 0244 0DDA     		bge	.L499
1310:Drivers/lvgl/lvgl/src/draw/lv_draw_mask.c ****         }
 5319              		.loc 1 1310 0 is_stmt 1
 5320 0246 F518     		adds	r5, r6, r3
 5321 0248 F15C     		ldrb	r1, [r6, r3]	@ zero_extendqisi2
 5322 024a 08EB0302 		add	r2, r8, r3
 5323 024e A242     		cmp	r2, r4
 5324 0250 E5DB     		blt	.L490
1310:Drivers/lvgl/lvgl/src/draw/lv_draw_mask.c ****         }
 5325              		.loc 1 1310 0 is_stmt 0 discriminator 1
 5326 0252 8242     		cmp	r2, r0
 5327 0254 01DD     		ble	.L491
1310:Drivers/lvgl/lvgl/src/draw/lv_draw_mask.c ****         }
 5328              		.loc 1 1310 0
 5329 0256 0022     		movs	r2, #0
 5330 0258 E2E7     		b	.L482
 5331              	.L491:
 5332 025a 0122     		movs	r2, #1
 5333 025c E0E7     		b	.L482
 5334              	.LVL786:
 5335              	.L492:
 5336              	.LBB220:
 5337              	.LBB219:
1524:Drivers/lvgl/lvgl/src/draw/lv_draw_mask.c **** 
 5338              		.loc 1 1524 0 is_stmt 1
 5339 025e 0021     		movs	r1, #0
 5340              	.LVL787:
 5341 0260 ECE7     		b	.L483
 5342              	.LVL788:
 5343              	.L499:
 5344              	.LBE219:
 5345              	.LBE220:
1312:Drivers/lvgl/lvgl/src/draw/lv_draw_mask.c ****         return LV_DRAW_MASK_RES_CHANGED;
 5346              		.loc 1 1312 0
 5347 0262 05A8     		add	r0, sp, #20
 5348              	.LVL789:
 5349 0264 FFF7FEFF 		bl	lv_draw_mask_free_param
 5350              	.LVL790:
1313:Drivers/lvgl/lvgl/src/draw/lv_draw_mask.c ****     }
 5351              		.loc 1 1313 0
 5352 0268 4FF00209 		mov	r9, #2
 5353              	.LVL791:
 5354 026c 27E7     		b	.L472
 5355              	.LVL792:
ARM GAS  /tmp/cct67Zj5.s 			page 139


 5356              	.L493:
 5357              	.LBE216:
1318:Drivers/lvgl/lvgl/src/draw/lv_draw_mask.c ****     }
 5358              		.loc 1 1318 0
 5359 026e A946     		mov	r9, r5
 5360              	.LVL793:
 5361 0270 25E7     		b	.L472
 5362              		.cfi_endproc
 5363              	.LFE79:
 5365              		.section	.text.lv_draw_mask_line_angle_init,"ax",%progbits
 5366              		.align	1
 5367              		.global	lv_draw_mask_line_angle_init
 5368              		.syntax unified
 5369              		.thumb
 5370              		.thumb_func
 5371              		.fpu fpv5-d16
 5373              	lv_draw_mask_line_angle_init:
 5374              	.LFB66:
 389:Drivers/lvgl/lvgl/src/draw/lv_draw_mask.c ****     /*Find an optimal degree.
 5375              		.loc 1 389 0
 5376              		.cfi_startproc
 5377              		@ args = 4, pretend = 0, frame = 0
 5378              		@ frame_needed = 0, uses_anonymous_args = 0
 5379              	.LVL794:
 5380 0000 2DE9F041 		push	{r4, r5, r6, r7, r8, lr}
 5381              	.LCFI44:
 5382              		.cfi_def_cfa_offset 24
 5383              		.cfi_offset 4, -24
 5384              		.cfi_offset 5, -20
 5385              		.cfi_offset 6, -16
 5386              		.cfi_offset 7, -12
 5387              		.cfi_offset 8, -8
 5388              		.cfi_offset 14, -4
 5389 0004 82B0     		sub	sp, sp, #8
 5390              	.LCFI45:
 5391              		.cfi_def_cfa_offset 32
 5392 0006 0746     		mov	r7, r0
 5393 0008 0D46     		mov	r5, r1
 5394 000a 1646     		mov	r6, r2
 5395 000c 1C46     		mov	r4, r3
 394:Drivers/lvgl/lvgl/src/draw/lv_draw_mask.c **** 
 5396              		.loc 1 394 0
 5397 000e B42B     		cmp	r3, #180
 5398 0010 02DD     		ble	.L501
 394:Drivers/lvgl/lvgl/src/draw/lv_draw_mask.c **** 
 5399              		.loc 1 394 0 is_stmt 0 discriminator 1
 5400 0012 A3F1B404 		sub	r4, r3, #180
 5401 0016 24B2     		sxth	r4, r4
 5402              	.LVL795:
 5403              	.L501:
 399:Drivers/lvgl/lvgl/src/draw/lv_draw_mask.c ****     p2y = (lv_trigo_sin(angle) >> 5) + py;
 5404              		.loc 1 399 0 is_stmt 1
 5405 0018 04F15A00 		add	r0, r4, #90
 5406              	.LVL796:
 5407 001c 00B2     		sxth	r0, r0
 5408 001e FFF7FEFF 		bl	lv_trigo_sin
 5409              	.LVL797:
ARM GAS  /tmp/cct67Zj5.s 			page 140


 5410 0022 40F34F18 		sbfx	r8, r0, #5, #16
 5411              	.LVL798:
 400:Drivers/lvgl/lvgl/src/draw/lv_draw_mask.c **** 
 5412              		.loc 1 400 0
 5413 0026 2046     		mov	r0, r4
 5414 0028 FFF7FEFF 		bl	lv_trigo_sin
 5415              	.LVL799:
 5416 002c 40F34F10 		sbfx	r0, r0, #5, #16
 5417              	.LVL800:
 402:Drivers/lvgl/lvgl/src/draw/lv_draw_mask.c **** }
 5418              		.loc 1 402 0
 5419 0030 08EB0503 		add	r3, r8, r5
 5420 0034 9DF82020 		ldrb	r2, [sp, #32]	@ zero_extendqisi2
 5421 0038 0192     		str	r2, [sp, #4]
 5422 003a 3044     		add	r0, r0, r6
 5423              	.LVL801:
 5424 003c 00B2     		sxth	r0, r0
 5425 003e 0090     		str	r0, [sp]
 5426 0040 1BB2     		sxth	r3, r3
 5427 0042 3246     		mov	r2, r6
 5428 0044 2946     		mov	r1, r5
 5429 0046 3846     		mov	r0, r7
 5430 0048 FFF7FEFF 		bl	lv_draw_mask_line_points_init
 5431              	.LVL802:
 403:Drivers/lvgl/lvgl/src/draw/lv_draw_mask.c **** 
 5432              		.loc 1 403 0
 5433 004c 02B0     		add	sp, sp, #8
 5434              	.LCFI46:
 5435              		.cfi_def_cfa_offset 24
 5436              		@ sp needed
 5437 004e BDE8F081 		pop	{r4, r5, r6, r7, r8, pc}
 5438              		.cfi_endproc
 5439              	.LFE66:
 5441              		.section	.text.lv_draw_mask_angle_init,"ax",%progbits
 5442              		.align	1
 5443              		.global	lv_draw_mask_angle_init
 5444              		.syntax unified
 5445              		.thumb
 5446              		.thumb_func
 5447              		.fpu fpv5-d16
 5449              	lv_draw_mask_angle_init:
 5450              	.LFB67:
 415:Drivers/lvgl/lvgl/src/draw/lv_draw_mask.c ****     lv_draw_mask_line_side_t start_side;
 5451              		.loc 1 415 0
 5452              		.cfi_startproc
 5453              		@ args = 4, pretend = 0, frame = 0
 5454              		@ frame_needed = 0, uses_anonymous_args = 0
 5455              	.LVL803:
 5456 0000 2DE9F041 		push	{r4, r5, r6, r7, r8, lr}
 5457              	.LCFI47:
 5458              		.cfi_def_cfa_offset 24
 5459              		.cfi_offset 4, -24
 5460              		.cfi_offset 5, -20
 5461              		.cfi_offset 6, -16
 5462              		.cfi_offset 7, -12
 5463              		.cfi_offset 8, -8
 5464              		.cfi_offset 14, -4
ARM GAS  /tmp/cct67Zj5.s 			page 141


 5465 0004 82B0     		sub	sp, sp, #8
 5466              	.LCFI48:
 5467              		.cfi_def_cfa_offset 32
 5468 0006 0546     		mov	r5, r0
 5469 0008 0E46     		mov	r6, r1
 5470 000a 1746     		mov	r7, r2
 5471 000c BDF92040 		ldrsh	r4, [sp, #32]
 420:Drivers/lvgl/lvgl/src/draw/lv_draw_mask.c ****         start_angle = 0;
 5472              		.loc 1 420 0
 5473 0010 002B     		cmp	r3, #0
 5474              	.LVL804:
 5475 0012 1BDB     		blt	.L514
 422:Drivers/lvgl/lvgl/src/draw/lv_draw_mask.c ****         start_angle = 359;
 5476              		.loc 1 422 0
 5477 0014 B3F5B47F 		cmp	r3, #360
 5478 0018 1ADA     		bge	.L515
 5479              	.L504:
 5480              	.LVL805:
 425:Drivers/lvgl/lvgl/src/draw/lv_draw_mask.c ****         end_angle = 0;
 5481              		.loc 1 425 0
 5482 001a 002C     		cmp	r4, #0
 5483 001c 1BDB     		blt	.L516
 427:Drivers/lvgl/lvgl/src/draw/lv_draw_mask.c ****         end_angle = 359;
 5484              		.loc 1 427 0
 5485 001e B4F5B47F 		cmp	r4, #360
 5486 0022 1ADA     		bge	.L517
 5487              	.L505:
 5488              	.LVL806:
 430:Drivers/lvgl/lvgl/src/draw/lv_draw_mask.c ****         param->delta_deg = 360 - start_angle + end_angle;
 5489              		.loc 1 430 0
 5490 0024 A342     		cmp	r3, r4
 5491 0026 1BDD     		ble	.L506
 431:Drivers/lvgl/lvgl/src/draw/lv_draw_mask.c ****     }
 5492              		.loc 1 431 0
 5493 0028 E21A     		subs	r2, r4, r3
 5494              	.LVL807:
 5495 002a 02F5B472 		add	r2, r2, #360
 5496 002e A5F86820 		strh	r2, [r5, #104]	@ movhi
 5497              	.L507:
 437:Drivers/lvgl/lvgl/src/draw/lv_draw_mask.c ****     param->cfg.end_angle = end_angle;
 5498              		.loc 1 437 0
 5499 0032 AB81     		strh	r3, [r5, #12]	@ movhi
 438:Drivers/lvgl/lvgl/src/draw/lv_draw_mask.c ****     param->cfg.vertex_p.x = vertex_x;
 5500              		.loc 1 438 0
 5501 0034 EC81     		strh	r4, [r5, #14]	@ movhi
 439:Drivers/lvgl/lvgl/src/draw/lv_draw_mask.c ****     param->cfg.vertex_p.y = vertex_y;
 5502              		.loc 1 439 0
 5503 0036 2E81     		strh	r6, [r5, #8]	@ movhi
 440:Drivers/lvgl/lvgl/src/draw/lv_draw_mask.c ****     param->dsc.cb = (lv_draw_mask_xcb_t)lv_draw_mask_angle;
 5504              		.loc 1 440 0
 5505 0038 6F81     		strh	r7, [r5, #10]	@ movhi
 441:Drivers/lvgl/lvgl/src/draw/lv_draw_mask.c ****     param->dsc.type = LV_DRAW_MASK_TYPE_ANGLE;
 5506              		.loc 1 441 0
 5507 003a 254A     		ldr	r2, .L522
 5508 003c 2A60     		str	r2, [r5]
 442:Drivers/lvgl/lvgl/src/draw/lv_draw_mask.c **** 
 5509              		.loc 1 442 0
ARM GAS  /tmp/cct67Zj5.s 			page 142


 5510 003e 0122     		movs	r2, #1
 5511 0040 2A71     		strb	r2, [r5, #4]
 444:Drivers/lvgl/lvgl/src/draw/lv_draw_mask.c **** 
 5512              		.loc 1 444 0
 5513 0042 9AB2     		uxth	r2, r3
 5514 0044 B2F5B47F 		cmp	r2, #360
 5515 0048 11D9     		bls	.L508
 5516              	.L509:
 5517 004a FEE7     		b	.L509
 5518              	.LVL808:
 5519              	.L514:
 421:Drivers/lvgl/lvgl/src/draw/lv_draw_mask.c ****     else if(start_angle > 359)
 5520              		.loc 1 421 0
 5521 004c 0023     		movs	r3, #0
 5522 004e E4E7     		b	.L504
 5523              	.L515:
 423:Drivers/lvgl/lvgl/src/draw/lv_draw_mask.c **** 
 5524              		.loc 1 423 0
 5525 0050 40F26713 		movw	r3, #359
 5526 0054 E1E7     		b	.L504
 5527              	.LVL809:
 5528              	.L516:
 426:Drivers/lvgl/lvgl/src/draw/lv_draw_mask.c ****     else if(end_angle > 359)
 5529              		.loc 1 426 0
 5530 0056 0024     		movs	r4, #0
 5531 0058 E4E7     		b	.L505
 5532              	.L517:
 428:Drivers/lvgl/lvgl/src/draw/lv_draw_mask.c **** 
 5533              		.loc 1 428 0
 5534 005a 40F26714 		movw	r4, #359
 5535 005e E1E7     		b	.L505
 5536              	.LVL810:
 5537              	.L506:
 434:Drivers/lvgl/lvgl/src/draw/lv_draw_mask.c ****     }
 5538              		.loc 1 434 0
 5539 0060 E21A     		subs	r2, r4, r3
 5540              	.LVL811:
 5541 0062 002A     		cmp	r2, #0
 5542 0064 B8BF     		it	lt
 5543 0066 5242     		rsblt	r2, r2, #0
 5544 0068 A5F86820 		strh	r2, [r5, #104]	@ movhi
 5545 006c E1E7     		b	.L507
 5546              	.L508:
 446:Drivers/lvgl/lvgl/src/draw/lv_draw_mask.c ****         start_side = LV_DRAW_MASK_LINE_SIDE_LEFT;
 5547              		.loc 1 446 0
 5548 006e B32A     		cmp	r2, #179
 5549 0070 09D8     		bhi	.L518
 447:Drivers/lvgl/lvgl/src/draw/lv_draw_mask.c ****     }
 5550              		.loc 1 447 0
 5551 0072 0021     		movs	r1, #0
 5552              	.LVL812:
 5553              	.L510:
 452:Drivers/lvgl/lvgl/src/draw/lv_draw_mask.c **** 
 5554              		.loc 1 452 0
 5555 0074 B3F5B47F 		cmp	r3, #360
 5556 0078 D4BF     		ite	le
 5557 007a 0022     		movle	r2, #0
ARM GAS  /tmp/cct67Zj5.s 			page 143


 5558 007c 0122     		movgt	r2, #1
 5559 007e 52EAD472 		orrs	r2, r2, r4, lsr #31
 5560 0082 02D0     		beq	.L511
 5561              	.L512:
 5562 0084 FEE7     		b	.L512
 5563              	.LVL813:
 5564              	.L518:
 450:Drivers/lvgl/lvgl/src/draw/lv_draw_mask.c **** 
 5565              		.loc 1 450 0
 5566 0086 0121     		movs	r1, #1
 5567              	.LVL814:
 5568 0088 F4E7     		b	.L510
 5569              	.LVL815:
 5570              	.L511:
 454:Drivers/lvgl/lvgl/src/draw/lv_draw_mask.c ****         end_side = LV_DRAW_MASK_LINE_SIDE_RIGHT;
 5571              		.loc 1 454 0
 5572 008a A2B2     		uxth	r2, r4
 5573 008c B32A     		cmp	r2, #179
 5574 008e 18D9     		bls	.L519
 457:Drivers/lvgl/lvgl/src/draw/lv_draw_mask.c ****         end_side = LV_DRAW_MASK_LINE_SIDE_LEFT;
 5575              		.loc 1 457 0
 5576 0090 B43A     		subs	r2, r2, #180
 5577 0092 92B2     		uxth	r2, r2
 5578 0094 B32A     		cmp	r2, #179
 5579 0096 17D8     		bhi	.L520
 458:Drivers/lvgl/lvgl/src/draw/lv_draw_mask.c ****     }
 5580              		.loc 1 458 0
 5581 0098 4FF00008 		mov	r8, #0
 5582              	.L513:
 5583              	.LVL816:
 463:Drivers/lvgl/lvgl/src/draw/lv_draw_mask.c ****     lv_draw_mask_line_angle_init(&param->end_line, vertex_x, vertex_y, end_angle, end_side);
 5584              		.loc 1 463 0
 5585 009c 0091     		str	r1, [sp]
 5586 009e 3A46     		mov	r2, r7
 5587 00a0 3146     		mov	r1, r6
 5588              	.LVL817:
 5589 00a2 05F11000 		add	r0, r5, #16
 5590              	.LVL818:
 5591 00a6 FFF7FEFF 		bl	lv_draw_mask_line_angle_init
 5592              	.LVL819:
 464:Drivers/lvgl/lvgl/src/draw/lv_draw_mask.c **** }
 5593              		.loc 1 464 0
 5594 00aa CDF80080 		str	r8, [sp]
 5595 00ae 2346     		mov	r3, r4
 5596 00b0 3A46     		mov	r2, r7
 5597 00b2 3146     		mov	r1, r6
 5598 00b4 05F13C00 		add	r0, r5, #60
 5599 00b8 FFF7FEFF 		bl	lv_draw_mask_line_angle_init
 5600              	.LVL820:
 465:Drivers/lvgl/lvgl/src/draw/lv_draw_mask.c **** 
 5601              		.loc 1 465 0
 5602 00bc 02B0     		add	sp, sp, #8
 5603              	.LCFI49:
 5604              		.cfi_remember_state
 5605              		.cfi_def_cfa_offset 24
 5606              		@ sp needed
 5607 00be BDE8F081 		pop	{r4, r5, r6, r7, r8, pc}
ARM GAS  /tmp/cct67Zj5.s 			page 144


 5608              	.LVL821:
 5609              	.L519:
 5610              	.LCFI50:
 5611              		.cfi_restore_state
 455:Drivers/lvgl/lvgl/src/draw/lv_draw_mask.c ****     }
 5612              		.loc 1 455 0
 5613 00c2 4FF00108 		mov	r8, #1
 5614 00c6 E9E7     		b	.L513
 5615              	.L520:
 461:Drivers/lvgl/lvgl/src/draw/lv_draw_mask.c **** 
 5616              		.loc 1 461 0
 5617 00c8 4FF00108 		mov	r8, #1
 5618 00cc E6E7     		b	.L513
 5619              	.L523:
 5620 00ce 00BF     		.align	2
 5621              	.L522:
 5622 00d0 00000000 		.word	lv_draw_mask_angle
 5623              		.cfi_endproc
 5624              	.LFE67:
 5626              		.section	.text.lv_draw_mask_radius_init,"ax",%progbits
 5627              		.align	1
 5628              		.global	lv_draw_mask_radius_init
 5629              		.syntax unified
 5630              		.thumb
 5631              		.thumb_func
 5632              		.fpu fpv5-d16
 5634              	lv_draw_mask_radius_init:
 5635              	.LFB68:
 475:Drivers/lvgl/lvgl/src/draw/lv_draw_mask.c ****     lv_coord_t w = lv_area_get_width(rect);
 5636              		.loc 1 475 0
 5637              		.cfi_startproc
 5638              		@ args = 0, pretend = 0, frame = 0
 5639              		@ frame_needed = 0, uses_anonymous_args = 0
 5640              	.LVL822:
 5641 0000 F8B5     		push	{r3, r4, r5, r6, r7, lr}
 5642              	.LCFI51:
 5643              		.cfi_def_cfa_offset 24
 5644              		.cfi_offset 3, -24
 5645              		.cfi_offset 4, -20
 5646              		.cfi_offset 5, -16
 5647              		.cfi_offset 6, -12
 5648              		.cfi_offset 7, -8
 5649              		.cfi_offset 14, -4
 5650 0002 0446     		mov	r4, r0
 5651 0004 1546     		mov	r5, r2
 5652              	.LVL823:
 5653              	.LBB221:
 5654              	.LBB222:
 125:Drivers/lvgl/lvgl/src/draw/../misc/../font/../misc/lv_area.h **** }
 5655              		.loc 2 125 0
 5656 0006 8A88     		ldrh	r2, [r1, #4]
 5657              	.LVL824:
 5658 0008 B1F90060 		ldrsh	r6, [r1]
 5659 000c B0B2     		uxth	r0, r6
 5660              	.LVL825:
 5661 000e 121A     		subs	r2, r2, r0
 5662 0010 92B2     		uxth	r2, r2
ARM GAS  /tmp/cct67Zj5.s 			page 145


 5663 0012 0132     		adds	r2, r2, #1
 5664 0014 10B2     		sxth	r0, r2
 5665              	.LVL826:
 5666              	.LBE222:
 5667              	.LBE221:
 5668              	.LBB223:
 5669              	.LBB224:
 5670              		.loc 2 135 0
 5671 0016 CA88     		ldrh	r2, [r1, #6]
 5672 0018 4F88     		ldrh	r7, [r1, #2]
 5673 001a D21B     		subs	r2, r2, r7
 5674 001c 92B2     		uxth	r2, r2
 5675 001e 0132     		adds	r2, r2, #1
 5676 0020 12B2     		sxth	r2, r2
 5677              	.LVL827:
 5678              	.LBE224:
 5679              	.LBE223:
 478:Drivers/lvgl/lvgl/src/draw/lv_draw_mask.c ****     if(radius > short_side >> 1) radius = short_side >> 1;
 5680              		.loc 1 478 0
 5681 0022 8242     		cmp	r2, r0
 5682 0024 A8BF     		it	ge
 5683 0026 0246     		movge	r2, r0
 5684              	.LVL828:
 479:Drivers/lvgl/lvgl/src/draw/lv_draw_mask.c ****     if(radius < 0) radius = 0;
 5685              		.loc 1 479 0
 5686 0028 5210     		asrs	r2, r2, #1
 5687              	.LVL829:
 5688 002a 9542     		cmp	r5, r2
 5689              	.LVL830:
 5690 002c 00DD     		ble	.L525
 479:Drivers/lvgl/lvgl/src/draw/lv_draw_mask.c ****     if(radius < 0) radius = 0;
 5691              		.loc 1 479 0 is_stmt 0 discriminator 1
 5692 002e 15B2     		sxth	r5, r2
 5693              	.LVL831:
 5694              	.L525:
 480:Drivers/lvgl/lvgl/src/draw/lv_draw_mask.c **** 
 5695              		.loc 1 480 0 is_stmt 1
 5696 0030 002D     		cmp	r5, #0
 5697 0032 15DB     		blt	.L546
 5698              	.LVL832:
 5699              	.L526:
 5700              	.LBB225:
 5701              	.LBB226:
 112:Drivers/lvgl/lvgl/src/draw/../misc/../font/../misc/lv_area.h ****     dest->y1 = src->y1;
 5702              		.loc 2 112 0
 5703 0034 2681     		strh	r6, [r4, #8]	@ movhi
 5704              	.LVL833:
 113:Drivers/lvgl/lvgl/src/draw/../misc/../font/../misc/lv_area.h ****     dest->x2 = src->x2;
 5705              		.loc 2 113 0
 5706 0036 B1F90220 		ldrsh	r2, [r1, #2]
 5707 003a 6281     		strh	r2, [r4, #10]	@ movhi
 114:Drivers/lvgl/lvgl/src/draw/../misc/../font/../misc/lv_area.h ****     dest->y2 = src->y2;
 5708              		.loc 2 114 0
 5709 003c B1F90420 		ldrsh	r2, [r1, #4]
 5710 0040 A281     		strh	r2, [r4, #12]	@ movhi
 115:Drivers/lvgl/lvgl/src/draw/../misc/../font/../misc/lv_area.h **** }
 5711              		.loc 2 115 0
ARM GAS  /tmp/cct67Zj5.s 			page 146


 5712 0042 B1F90620 		ldrsh	r2, [r1, #6]
 5713 0046 E281     		strh	r2, [r4, #14]	@ movhi
 5714              	.LVL834:
 5715              	.LBE226:
 5716              	.LBE225:
 483:Drivers/lvgl/lvgl/src/draw/lv_draw_mask.c ****     param->cfg.outer = inv ? 1 : 0;
 5717              		.loc 1 483 0
 5718 0048 2582     		strh	r5, [r4, #16]	@ movhi
 484:Drivers/lvgl/lvgl/src/draw/lv_draw_mask.c ****     param->dsc.cb = (lv_draw_mask_xcb_t)lv_draw_mask_radius;
 5719              		.loc 1 484 0
 5720 004a A27C     		ldrb	r2, [r4, #18]	@ zero_extendqisi2
 5721 004c 63F30002 		bfi	r2, r3, #0, #1
 5722 0050 A274     		strb	r2, [r4, #18]
 485:Drivers/lvgl/lvgl/src/draw/lv_draw_mask.c ****     param->dsc.type = LV_DRAW_MASK_TYPE_RADIUS;
 5723              		.loc 1 485 0
 5724 0052 3A4B     		ldr	r3, .L552
 5725              	.LVL835:
 5726 0054 2360     		str	r3, [r4]
 486:Drivers/lvgl/lvgl/src/draw/lv_draw_mask.c **** 
 5727              		.loc 1 486 0
 5728 0056 0223     		movs	r3, #2
 5729 0058 2371     		strb	r3, [r4, #4]
 488:Drivers/lvgl/lvgl/src/draw/lv_draw_mask.c ****         param->circle = NULL;
 5730              		.loc 1 488 0
 5731 005a 1DB1     		cbz	r5, .L547
 496:Drivers/lvgl/lvgl/src/draw/lv_draw_mask.c ****         if(LV_GC_ROOT(_lv_circle_cache[i]).radius == radius) {
 5732              		.loc 1 496 0
 5733 005c 0023     		movs	r3, #0
 5734 005e 07E0     		b	.L527
 5735              	.LVL836:
 5736              	.L546:
 480:Drivers/lvgl/lvgl/src/draw/lv_draw_mask.c **** 
 5737              		.loc 1 480 0
 5738 0060 0025     		movs	r5, #0
 5739              	.LVL837:
 5740 0062 E7E7     		b	.L526
 5741              	.LVL838:
 5742              	.L547:
 489:Drivers/lvgl/lvgl/src/draw/lv_draw_mask.c ****         return;
 5743              		.loc 1 489 0
 5744 0064 0023     		movs	r3, #0
 5745 0066 6361     		str	r3, [r4, #20]
 5746              	.LVL839:
 5747              	.L524:
 529:Drivers/lvgl/lvgl/src/draw/lv_draw_mask.c **** 
 5748              		.loc 1 529 0
 5749 0068 F8BD     		pop	{r3, r4, r5, r6, r7, pc}
 5750              	.LVL840:
 5751              	.L543:
 499:Drivers/lvgl/lvgl/src/draw/lv_draw_mask.c ****             param->circle = &LV_GC_ROOT(_lv_circle_cache[i]);
 5752              		.loc 1 499 0
 5753 006a 0125     		movs	r5, #1
 5754              	.LVL841:
 5755 006c 14E0     		b	.L530
 5756              	.LVL842:
 5757              	.L529:
 496:Drivers/lvgl/lvgl/src/draw/lv_draw_mask.c ****         if(LV_GC_ROOT(_lv_circle_cache[i]).radius == radius) {
ARM GAS  /tmp/cct67Zj5.s 			page 147


 5758              		.loc 1 496 0 discriminator 2
 5759 006e 0133     		adds	r3, r3, #1
 5760              	.LVL843:
 5761              	.L527:
 496:Drivers/lvgl/lvgl/src/draw/lv_draw_mask.c ****         if(LV_GC_ROOT(_lv_circle_cache[i]).radius == radius) {
 5762              		.loc 1 496 0 is_stmt 0 discriminator 1
 5763 0070 032B     		cmp	r3, #3
 5764 0072 1FD8     		bhi	.L548
 497:Drivers/lvgl/lvgl/src/draw/lv_draw_mask.c ****             LV_GC_ROOT(_lv_circle_cache[i]).used_cnt++;
 5765              		.loc 1 497 0 is_stmt 1
 5766 0074 C3EBC302 		rsb	r2, r3, r3, lsl #3
 5767 0078 9100     		lsls	r1, r2, #2
 5768 007a 314A     		ldr	r2, .L552+4
 5769 007c 0A44     		add	r2, r2, r1
 5770 007e B2F91820 		ldrsh	r2, [r2, #24]
 5771 0082 AA42     		cmp	r2, r5
 5772 0084 F3D1     		bne	.L529
 498:Drivers/lvgl/lvgl/src/draw/lv_draw_mask.c ****             CIRCLE_CACHE_AGING(LV_GC_ROOT(_lv_circle_cache[i]).life, radius);
 5773              		.loc 1 498 0
 5774 0086 2E4A     		ldr	r2, .L552+4
 5775 0088 0A44     		add	r2, r2, r1
 5776 008a 5169     		ldr	r1, [r2, #20]
 5777 008c 0131     		adds	r1, r1, #1
 5778 008e 5161     		str	r1, [r2, #20]
 499:Drivers/lvgl/lvgl/src/draw/lv_draw_mask.c ****             param->circle = &LV_GC_ROOT(_lv_circle_cache[i]);
 5779              		.loc 1 499 0
 5780 0090 1169     		ldr	r1, [r2, #16]
 5781 0092 0F2D     		cmp	r5, #15
 5782 0094 E9DD     		ble	.L543
 499:Drivers/lvgl/lvgl/src/draw/lv_draw_mask.c ****             param->circle = &LV_GC_ROOT(_lv_circle_cache[i]);
 5783              		.loc 1 499 0 is_stmt 0 discriminator 1
 5784 0096 2D11     		asrs	r5, r5, #4
 5785              	.LVL844:
 5786              	.L530:
 499:Drivers/lvgl/lvgl/src/draw/lv_draw_mask.c ****             param->circle = &LV_GC_ROOT(_lv_circle_cache[i]);
 5787              		.loc 1 499 0 discriminator 4
 5788 0098 2944     		add	r1, r1, r5
 5789 009a B1F57A7F 		cmp	r1, #1000
 5790 009e A8BF     		it	ge
 5791 00a0 4FF47A71 		movge	r1, #1000
 5792 00a4 264D     		ldr	r5, .L552+4
 5793 00a6 DA00     		lsls	r2, r3, #3
 5794 00a8 D61A     		subs	r6, r2, r3
 5795 00aa B000     		lsls	r0, r6, #2
 5796 00ac 2844     		add	r0, r0, r5
 5797 00ae 0161     		str	r1, [r0, #16]
 500:Drivers/lvgl/lvgl/src/draw/lv_draw_mask.c ****             return;
 5798              		.loc 1 500 0 is_stmt 1 discriminator 4
 5799 00b0 6061     		str	r0, [r4, #20]
 501:Drivers/lvgl/lvgl/src/draw/lv_draw_mask.c ****         }
 5800              		.loc 1 501 0 discriminator 4
 5801 00b2 D9E7     		b	.L524
 5802              	.LVL845:
 5803              	.L548:
 506:Drivers/lvgl/lvgl/src/draw/lv_draw_mask.c ****     for(i = 0; i < LV_CIRCLE_CACHE_SIZE; i++) {
 5804              		.loc 1 506 0
 5805 00b4 0026     		movs	r6, #0
ARM GAS  /tmp/cct67Zj5.s 			page 148


 507:Drivers/lvgl/lvgl/src/draw/lv_draw_mask.c ****         if(LV_GC_ROOT(_lv_circle_cache[i]).used_cnt == 0) {
 5806              		.loc 1 507 0
 5807 00b6 3346     		mov	r3, r6
 5808              	.LVL846:
 5809 00b8 03E0     		b	.L532
 5810              	.LVL847:
 5811              	.L550:
 509:Drivers/lvgl/lvgl/src/draw/lv_draw_mask.c ****             else if(LV_GC_ROOT(_lv_circle_cache[i]).life < entry->life) entry = &LV_GC_ROOT(_lv_cir
 5812              		.loc 1 509 0 discriminator 1
 5813 00ba 0E46     		mov	r6, r1
 5814              	.LVL848:
 5815 00bc 204A     		ldr	r2, .L552+4
 5816 00be 1644     		add	r6, r6, r2
 5817              	.LVL849:
 5818              	.L533:
 507:Drivers/lvgl/lvgl/src/draw/lv_draw_mask.c ****         if(LV_GC_ROOT(_lv_circle_cache[i]).used_cnt == 0) {
 5819              		.loc 1 507 0 discriminator 2
 5820 00c0 0133     		adds	r3, r3, #1
 5821              	.LVL850:
 5822              	.L532:
 507:Drivers/lvgl/lvgl/src/draw/lv_draw_mask.c ****         if(LV_GC_ROOT(_lv_circle_cache[i]).used_cnt == 0) {
 5823              		.loc 1 507 0 is_stmt 0 discriminator 1
 5824 00c2 032B     		cmp	r3, #3
 5825 00c4 18D8     		bhi	.L549
 508:Drivers/lvgl/lvgl/src/draw/lv_draw_mask.c ****             if(!entry) entry = &LV_GC_ROOT(_lv_circle_cache[i]);
 5826              		.loc 1 508 0 is_stmt 1
 5827 00c6 C3EBC302 		rsb	r2, r3, r3, lsl #3
 5828 00ca 9100     		lsls	r1, r2, #2
 5829 00cc 1C4A     		ldr	r2, .L552+4
 5830 00ce 0A44     		add	r2, r2, r1
 5831 00d0 5269     		ldr	r2, [r2, #20]
 5832 00d2 002A     		cmp	r2, #0
 5833 00d4 F4D1     		bne	.L533
 509:Drivers/lvgl/lvgl/src/draw/lv_draw_mask.c ****             else if(LV_GC_ROOT(_lv_circle_cache[i]).life < entry->life) entry = &LV_GC_ROOT(_lv_cir
 5834              		.loc 1 509 0
 5835 00d6 002E     		cmp	r6, #0
 5836 00d8 EFD0     		beq	.L550
 510:Drivers/lvgl/lvgl/src/draw/lv_draw_mask.c ****         }
 5837              		.loc 1 510 0
 5838 00da C3EBC302 		rsb	r2, r3, r3, lsl #3
 5839 00de 9100     		lsls	r1, r2, #2
 5840 00e0 174A     		ldr	r2, .L552+4
 5841 00e2 0A44     		add	r2, r2, r1
 5842 00e4 1169     		ldr	r1, [r2, #16]
 5843 00e6 3269     		ldr	r2, [r6, #16]
 5844 00e8 9142     		cmp	r1, r2
 5845 00ea E9DA     		bge	.L533
 510:Drivers/lvgl/lvgl/src/draw/lv_draw_mask.c ****         }
 5846              		.loc 1 510 0 is_stmt 0 discriminator 1
 5847 00ec C3EBC302 		rsb	r2, r3, r3, lsl #3
 5848 00f0 9600     		lsls	r6, r2, #2
 5849              	.LVL851:
 5850 00f2 134A     		ldr	r2, .L552+4
 5851 00f4 1644     		add	r6, r6, r2
 5852              	.LVL852:
 5853 00f6 E3E7     		b	.L533
 5854              	.L549:
ARM GAS  /tmp/cct67Zj5.s 			page 149


 514:Drivers/lvgl/lvgl/src/draw/lv_draw_mask.c ****         entry = lv_mem_alloc(sizeof(_lv_draw_mask_radius_circle_dsc_t));
 5855              		.loc 1 514 0 is_stmt 1
 5856 00f8 8EB1     		cbz	r6, .L551
 521:Drivers/lvgl/lvgl/src/draw/lv_draw_mask.c ****         entry->life = 0;
 5857              		.loc 1 521 0
 5858 00fa 7369     		ldr	r3, [r6, #20]
 5859              	.LVL853:
 5860 00fc 0133     		adds	r3, r3, #1
 5861 00fe 7361     		str	r3, [r6, #20]
 523:Drivers/lvgl/lvgl/src/draw/lv_draw_mask.c ****     }
 5862              		.loc 1 523 0
 5863 0100 0F2D     		cmp	r5, #15
 5864 0102 19DD     		ble	.L544
 523:Drivers/lvgl/lvgl/src/draw/lv_draw_mask.c ****     }
 5865              		.loc 1 523 0 is_stmt 0 discriminator 1
 5866 0104 2B11     		asrs	r3, r5, #4
 5867              	.L540:
 523:Drivers/lvgl/lvgl/src/draw/lv_draw_mask.c ****     }
 5868              		.loc 1 523 0 discriminator 4
 5869 0106 B3F57A7F 		cmp	r3, #1000
 5870 010a A8BF     		it	ge
 5871 010c 4FF47A73 		movge	r3, #1000
 5872 0110 3361     		str	r3, [r6, #16]
 5873              	.L539:
 526:Drivers/lvgl/lvgl/src/draw/lv_draw_mask.c **** 
 5874              		.loc 1 526 0 is_stmt 1
 5875 0112 6661     		str	r6, [r4, #20]
 528:Drivers/lvgl/lvgl/src/draw/lv_draw_mask.c **** }
 5876              		.loc 1 528 0
 5877 0114 2946     		mov	r1, r5
 5878 0116 3046     		mov	r0, r6
 5879 0118 FFF7FEFF 		bl	circ_calc_aa4
 5880              	.LVL854:
 5881 011c A4E7     		b	.L524
 5882              	.LVL855:
 5883              	.L551:
 515:Drivers/lvgl/lvgl/src/draw/lv_draw_mask.c ****         LV_ASSERT_MALLOC(entry);
 5884              		.loc 1 515 0
 5885 011e 1C20     		movs	r0, #28
 5886 0120 FFF7FEFF 		bl	lv_mem_alloc
 5887              	.LVL856:
 516:Drivers/lvgl/lvgl/src/draw/lv_draw_mask.c ****         lv_memset_00(entry, sizeof(_lv_draw_mask_radius_circle_dsc_t));
 5888              		.loc 1 516 0
 5889 0124 0646     		mov	r6, r0
 5890 0126 00B9     		cbnz	r0, .L537
 5891              	.L538:
 5892 0128 FEE7     		b	.L538
 5893              	.L537:
 517:Drivers/lvgl/lvgl/src/draw/lv_draw_mask.c ****         entry->life = -1;
 5894              		.loc 1 517 0
 5895 012a 1C21     		movs	r1, #28
 5896 012c FFF7FEFF 		bl	lv_memset_00
 5897              	.LVL857:
 518:Drivers/lvgl/lvgl/src/draw/lv_draw_mask.c ****     }
 5898              		.loc 1 518 0
 5899 0130 4FF0FF33 		mov	r3, #-1
 5900 0134 3361     		str	r3, [r6, #16]
ARM GAS  /tmp/cct67Zj5.s 			page 150


 5901 0136 ECE7     		b	.L539
 5902              	.L544:
 523:Drivers/lvgl/lvgl/src/draw/lv_draw_mask.c ****     }
 5903              		.loc 1 523 0
 5904 0138 0123     		movs	r3, #1
 5905 013a E4E7     		b	.L540
 5906              	.L553:
 5907              		.align	2
 5908              	.L552:
 5909 013c 00000000 		.word	lv_draw_mask_radius
 5910 0140 00000000 		.word	_lv_circle_cache
 5911              		.cfi_endproc
 5912              	.LFE68:
 5914              		.section	.text.lv_draw_mask_fade_init,"ax",%progbits
 5915              		.align	1
 5916              		.global	lv_draw_mask_fade_init
 5917              		.syntax unified
 5918              		.thumb
 5919              		.thumb_func
 5920              		.fpu fpv5-d16
 5922              	lv_draw_mask_fade_init:
 5923              	.LFB69:
 543:Drivers/lvgl/lvgl/src/draw/lv_draw_mask.c ****     lv_area_copy(&param->cfg.coords, coords);
 5924              		.loc 1 543 0
 5925              		.cfi_startproc
 5926              		@ args = 8, pretend = 0, frame = 0
 5927              		@ frame_needed = 0, uses_anonymous_args = 0
 5928              		@ link register save eliminated.
 5929              	.LVL858:
 5930 0000 10B4     		push	{r4}
 5931              	.LCFI52:
 5932              		.cfi_def_cfa_offset 4
 5933              		.cfi_offset 4, -4
 5934              	.LVL859:
 5935              	.LBB227:
 5936              	.LBB228:
 112:Drivers/lvgl/lvgl/src/draw/../misc/../font/../misc/lv_area.h ****     dest->y1 = src->y1;
 5937              		.loc 2 112 0
 5938 0002 B1F90040 		ldrsh	r4, [r1]
 5939 0006 0481     		strh	r4, [r0, #8]	@ movhi
 113:Drivers/lvgl/lvgl/src/draw/../misc/../font/../misc/lv_area.h ****     dest->x2 = src->x2;
 5940              		.loc 2 113 0
 5941 0008 B1F90240 		ldrsh	r4, [r1, #2]
 5942 000c 4481     		strh	r4, [r0, #10]	@ movhi
 114:Drivers/lvgl/lvgl/src/draw/../misc/../font/../misc/lv_area.h ****     dest->y2 = src->y2;
 5943              		.loc 2 114 0
 5944 000e B1F90440 		ldrsh	r4, [r1, #4]
 5945 0012 8481     		strh	r4, [r0, #12]	@ movhi
 115:Drivers/lvgl/lvgl/src/draw/../misc/../font/../misc/lv_area.h **** }
 5946              		.loc 2 115 0
 5947 0014 B1F90610 		ldrsh	r1, [r1, #6]
 5948              	.LVL860:
 5949 0018 C181     		strh	r1, [r0, #14]	@ movhi
 5950              	.LVL861:
 5951              	.LBE228:
 5952              	.LBE227:
 545:Drivers/lvgl/lvgl/src/draw/lv_draw_mask.c ****     param->cfg.opa_bottom = opa_bottom;
ARM GAS  /tmp/cct67Zj5.s 			page 151


 5953              		.loc 1 545 0
 5954 001a 0275     		strb	r2, [r0, #20]
 546:Drivers/lvgl/lvgl/src/draw/lv_draw_mask.c ****     param->cfg.y_top = y_top;
 5955              		.loc 1 546 0
 5956 001c 9DF80420 		ldrb	r2, [sp, #4]	@ zero_extendqisi2
 5957              	.LVL862:
 5958 0020 4275     		strb	r2, [r0, #21]
 547:Drivers/lvgl/lvgl/src/draw/lv_draw_mask.c ****     param->cfg.y_bottom = y_bottom;
 5959              		.loc 1 547 0
 5960 0022 0382     		strh	r3, [r0, #16]	@ movhi
 548:Drivers/lvgl/lvgl/src/draw/lv_draw_mask.c ****     param->dsc.cb = (lv_draw_mask_xcb_t)lv_draw_mask_fade;
 5961              		.loc 1 548 0
 5962 0024 BDF90830 		ldrsh	r3, [sp, #8]
 5963              	.LVL863:
 5964 0028 4382     		strh	r3, [r0, #18]	@ movhi
 549:Drivers/lvgl/lvgl/src/draw/lv_draw_mask.c ****     param->dsc.type = LV_DRAW_MASK_TYPE_FADE;
 5965              		.loc 1 549 0
 5966 002a 034B     		ldr	r3, .L556
 5967 002c 0360     		str	r3, [r0]
 550:Drivers/lvgl/lvgl/src/draw/lv_draw_mask.c **** }
 5968              		.loc 1 550 0
 5969 002e 0323     		movs	r3, #3
 5970 0030 0371     		strb	r3, [r0, #4]
 551:Drivers/lvgl/lvgl/src/draw/lv_draw_mask.c **** 
 5971              		.loc 1 551 0
 5972 0032 5DF8044B 		ldr	r4, [sp], #4
 5973              	.LCFI53:
 5974              		.cfi_restore 4
 5975              		.cfi_def_cfa_offset 0
 5976              	.LVL864:
 5977 0036 7047     		bx	lr
 5978              	.L557:
 5979              		.align	2
 5980              	.L556:
 5981 0038 00000000 		.word	lv_draw_mask_fade
 5982              		.cfi_endproc
 5983              	.LFE69:
 5985              		.section	.text.lv_draw_mask_map_init,"ax",%progbits
 5986              		.align	1
 5987              		.global	lv_draw_mask_map_init
 5988              		.syntax unified
 5989              		.thumb
 5990              		.thumb_func
 5991              		.fpu fpv5-d16
 5993              	lv_draw_mask_map_init:
 5994              	.LFB70:
 560:Drivers/lvgl/lvgl/src/draw/lv_draw_mask.c ****     lv_area_copy(&param->cfg.coords, coords);
 5995              		.loc 1 560 0
 5996              		.cfi_startproc
 5997              		@ args = 0, pretend = 0, frame = 0
 5998              		@ frame_needed = 0, uses_anonymous_args = 0
 5999              		@ link register save eliminated.
 6000              	.LVL865:
 6001              	.LBB229:
 6002              	.LBB230:
 112:Drivers/lvgl/lvgl/src/draw/../misc/../font/../misc/lv_area.h ****     dest->y1 = src->y1;
 6003              		.loc 2 112 0
ARM GAS  /tmp/cct67Zj5.s 			page 152


 6004 0000 B1F90030 		ldrsh	r3, [r1]
 6005 0004 0381     		strh	r3, [r0, #8]	@ movhi
 113:Drivers/lvgl/lvgl/src/draw/../misc/../font/../misc/lv_area.h ****     dest->x2 = src->x2;
 6006              		.loc 2 113 0
 6007 0006 B1F90230 		ldrsh	r3, [r1, #2]
 6008 000a 4381     		strh	r3, [r0, #10]	@ movhi
 114:Drivers/lvgl/lvgl/src/draw/../misc/../font/../misc/lv_area.h ****     dest->y2 = src->y2;
 6009              		.loc 2 114 0
 6010 000c B1F90430 		ldrsh	r3, [r1, #4]
 6011 0010 8381     		strh	r3, [r0, #12]	@ movhi
 115:Drivers/lvgl/lvgl/src/draw/../misc/../font/../misc/lv_area.h **** }
 6012              		.loc 2 115 0
 6013 0012 B1F90630 		ldrsh	r3, [r1, #6]
 6014 0016 C381     		strh	r3, [r0, #14]	@ movhi
 6015              	.LVL866:
 6016              	.LBE230:
 6017              	.LBE229:
 562:Drivers/lvgl/lvgl/src/draw/lv_draw_mask.c ****     param->dsc.cb = (lv_draw_mask_xcb_t)lv_draw_mask_map;
 6018              		.loc 1 562 0
 6019 0018 0261     		str	r2, [r0, #16]
 563:Drivers/lvgl/lvgl/src/draw/lv_draw_mask.c ****     param->dsc.type = LV_DRAW_MASK_TYPE_MAP;
 6020              		.loc 1 563 0
 6021 001a 024B     		ldr	r3, .L559
 6022 001c 0360     		str	r3, [r0]
 564:Drivers/lvgl/lvgl/src/draw/lv_draw_mask.c **** }
 6023              		.loc 1 564 0
 6024 001e 0423     		movs	r3, #4
 6025 0020 0371     		strb	r3, [r0, #4]
 565:Drivers/lvgl/lvgl/src/draw/lv_draw_mask.c **** 
 6026              		.loc 1 565 0
 6027 0022 7047     		bx	lr
 6028              	.L560:
 6029              		.align	2
 6030              	.L559:
 6031 0024 00000000 		.word	lv_draw_mask_map
 6032              		.cfi_endproc
 6033              	.LFE70:
 6035              		.section	.text.lv_draw_mask_polygon_init,"ax",%progbits
 6036              		.align	1
 6037              		.global	lv_draw_mask_polygon_init
 6038              		.syntax unified
 6039              		.thumb
 6040              		.thumb_func
 6041              		.fpu fpv5-d16
 6043              	lv_draw_mask_polygon_init:
 6044              	.LFB71:
 568:Drivers/lvgl/lvgl/src/draw/lv_draw_mask.c ****     /*Join adjacent points if they are on the same coordinate*/
 6045              		.loc 1 568 0
 6046              		.cfi_startproc
 6047              		@ args = 0, pretend = 0, frame = 0
 6048              		@ frame_needed = 0, uses_anonymous_args = 0
 6049              	.LVL867:
 6050 0000 F8B5     		push	{r3, r4, r5, r6, r7, lr}
 6051              	.LCFI54:
 6052              		.cfi_def_cfa_offset 24
 6053              		.cfi_offset 3, -24
 6054              		.cfi_offset 4, -20
ARM GAS  /tmp/cct67Zj5.s 			page 153


 6055              		.cfi_offset 5, -16
 6056              		.cfi_offset 6, -12
 6057              		.cfi_offset 7, -8
 6058              		.cfi_offset 14, -4
 6059 0002 0646     		mov	r6, r0
 6060 0004 0C46     		mov	r4, r1
 6061 0006 1546     		mov	r5, r2
 570:Drivers/lvgl/lvgl/src/draw/lv_draw_mask.c ****     if(p == NULL) return;
 6062              		.loc 1 570 0
 6063 0008 9000     		lsls	r0, r2, #2
 6064              	.LVL868:
 6065 000a FFF7FEFF 		bl	lv_mem_alloc
 6066              	.LVL869:
 571:Drivers/lvgl/lvgl/src/draw/lv_draw_mask.c ****     uint16_t i;
 6067              		.loc 1 571 0
 6068 000e C0B3     		cbz	r0, .L561
 6069 0010 8446     		mov	ip, r0
 6070              	.LVL870:
 574:Drivers/lvgl/lvgl/src/draw/lv_draw_mask.c ****     for(i = 0; i < point_cnt - 1; i++) {
 6071              		.loc 1 574 0
 6072 0012 2368     		ldr	r3, [r4]	@ unaligned
 6073 0014 0360     		str	r3, [r0]	@ unaligned
 6074              	.LVL871:
 573:Drivers/lvgl/lvgl/src/draw/lv_draw_mask.c ****     p[0] = points[0];
 6075              		.loc 1 573 0
 6076 0016 0020     		movs	r0, #0
 6077              	.LVL872:
 575:Drivers/lvgl/lvgl/src/draw/lv_draw_mask.c ****         if(points[i].x != points[i + 1].x || points[i].y != points[i + 1].y) {
 6078              		.loc 1 575 0
 6079 0018 0346     		mov	r3, r0
 6080 001a 06E0     		b	.L563
 6081              	.LVL873:
 6082              	.L564:
 577:Drivers/lvgl/lvgl/src/draw/lv_draw_mask.c ****             pcnt++;
 6083              		.loc 1 577 0
 6084 001c 0A68     		ldr	r2, [r1]	@ unaligned
 6085 001e 4CF82020 		str	r2, [ip, r0, lsl #2]	@ unaligned
 578:Drivers/lvgl/lvgl/src/draw/lv_draw_mask.c ****         }
 6086              		.loc 1 578 0
 6087 0022 0130     		adds	r0, r0, #1
 6088              	.LVL874:
 6089 0024 80B2     		uxth	r0, r0
 6090              	.LVL875:
 6091              	.L565:
 575:Drivers/lvgl/lvgl/src/draw/lv_draw_mask.c ****         if(points[i].x != points[i + 1].x || points[i].y != points[i + 1].y) {
 6092              		.loc 1 575 0 discriminator 2
 6093 0026 0133     		adds	r3, r3, #1
 6094              	.LVL876:
 6095 0028 9BB2     		uxth	r3, r3
 6096              	.LVL877:
 6097              	.L563:
 575:Drivers/lvgl/lvgl/src/draw/lv_draw_mask.c ****         if(points[i].x != points[i + 1].x || points[i].y != points[i + 1].y) {
 6098              		.loc 1 575 0 is_stmt 0 discriminator 1
 6099 002a 6A1E     		subs	r2, r5, #1
 6100 002c 9342     		cmp	r3, r2
 6101 002e 11DA     		bge	.L570
 576:Drivers/lvgl/lvgl/src/draw/lv_draw_mask.c ****             p[pcnt] = points[i];
ARM GAS  /tmp/cct67Zj5.s 			page 154


 6102              		.loc 1 576 0 is_stmt 1
 6103 0030 04EB8301 		add	r1, r4, r3, lsl #2
 6104 0034 34F92370 		ldrsh	r7, [r4, r3, lsl #2]
 6105 0038 5A1C     		adds	r2, r3, #1
 6106 003a 04EB820E 		add	lr, r4, r2, lsl #2
 6107 003e 34F92220 		ldrsh	r2, [r4, r2, lsl #2]
 6108 0042 9742     		cmp	r7, r2
 6109 0044 EAD1     		bne	.L564
 576:Drivers/lvgl/lvgl/src/draw/lv_draw_mask.c ****             p[pcnt] = points[i];
 6110              		.loc 1 576 0 is_stmt 0 discriminator 1
 6111 0046 B1F90270 		ldrsh	r7, [r1, #2]
 6112 004a BEF90220 		ldrsh	r2, [lr, #2]
 6113 004e 9742     		cmp	r7, r2
 6114 0050 E4D1     		bne	.L564
 6115 0052 E8E7     		b	.L565
 6116              	.L570:
 582:Drivers/lvgl/lvgl/src/draw/lv_draw_mask.c ****         p[pcnt] = points[point_cnt - 1];
 6117              		.loc 1 582 0 is_stmt 1
 6118 0054 B4F90010 		ldrsh	r1, [r4]
 6119 0058 6FF04043 		mvn	r3, #-1073741824
 6120              	.LVL878:
 6121 005c 2B44     		add	r3, r3, r5
 6122 005e 04EB8302 		add	r2, r4, r3, lsl #2
 6123 0062 34F92330 		ldrsh	r3, [r4, r3, lsl #2]
 6124 0066 9942     		cmp	r1, r3
 6125 0068 0CD0     		beq	.L571
 6126              	.L567:
 583:Drivers/lvgl/lvgl/src/draw/lv_draw_mask.c ****         pcnt++;
 6127              		.loc 1 583 0
 6128 006a 1368     		ldr	r3, [r2]	@ unaligned
 6129 006c 4CF82030 		str	r3, [ip, r0, lsl #2]	@ unaligned
 584:Drivers/lvgl/lvgl/src/draw/lv_draw_mask.c ****     }
 6130              		.loc 1 584 0
 6131 0070 0130     		adds	r0, r0, #1
 6132              	.LVL879:
 6133 0072 80B2     		uxth	r0, r0
 6134              	.LVL880:
 6135              	.L568:
 586:Drivers/lvgl/lvgl/src/draw/lv_draw_mask.c ****     param->cfg.point_cnt = pcnt;
 6136              		.loc 1 586 0
 6137 0074 C6F808C0 		str	ip, [r6, #8]
 587:Drivers/lvgl/lvgl/src/draw/lv_draw_mask.c ****     param->dsc.cb = (lv_draw_mask_xcb_t)lv_draw_mask_polygon;
 6138              		.loc 1 587 0
 6139 0078 B081     		strh	r0, [r6, #12]	@ movhi
 588:Drivers/lvgl/lvgl/src/draw/lv_draw_mask.c ****     param->dsc.type = LV_DRAW_MASK_TYPE_POLYGON;
 6140              		.loc 1 588 0
 6141 007a 064B     		ldr	r3, .L572
 6142 007c 3360     		str	r3, [r6]
 589:Drivers/lvgl/lvgl/src/draw/lv_draw_mask.c **** }
 6143              		.loc 1 589 0
 6144 007e 0523     		movs	r3, #5
 6145 0080 3371     		strb	r3, [r6, #4]
 6146              	.LVL881:
 6147              	.L561:
 590:Drivers/lvgl/lvgl/src/draw/lv_draw_mask.c **** 
 6148              		.loc 1 590 0
 6149 0082 F8BD     		pop	{r3, r4, r5, r6, r7, pc}
ARM GAS  /tmp/cct67Zj5.s 			page 155


 6150              	.LVL882:
 6151              	.L571:
 582:Drivers/lvgl/lvgl/src/draw/lv_draw_mask.c ****         p[pcnt] = points[point_cnt - 1];
 6152              		.loc 1 582 0 discriminator 1
 6153 0084 B4F90210 		ldrsh	r1, [r4, #2]
 6154 0088 B2F90230 		ldrsh	r3, [r2, #2]
 6155 008c 9942     		cmp	r1, r3
 6156 008e ECD1     		bne	.L567
 6157 0090 F0E7     		b	.L568
 6158              	.L573:
 6159 0092 00BF     		.align	2
 6160              	.L572:
 6161 0094 00000000 		.word	lv_draw_mask_polygon
 6162              		.cfi_endproc
 6163              	.LFE71:
 6165              		.text
 6166              	.Letext0:
 6167              		.file 3 "/opt/gcc-arm-none-eabi-7-2017-q4-major/arm-none-eabi/include/machine/_default_types.h"
 6168              		.file 4 "/opt/gcc-arm-none-eabi-7-2017-q4-major/arm-none-eabi/include/sys/_stdint.h"
 6169              		.file 5 "Drivers/lvgl/lvgl/src/draw/../misc/../font/lv_font.h"
 6170              		.file 6 "Drivers/lvgl/lvgl/src/draw/../misc/lv_types.h"
 6171              		.file 7 "/opt/gcc-arm-none-eabi-7-2017-q4-major/arm-none-eabi/include/sys/lock.h"
 6172              		.file 8 "/opt/gcc-arm-none-eabi-7-2017-q4-major/arm-none-eabi/include/sys/_types.h"
 6173              		.file 9 "/opt/gcc-arm-none-eabi-7-2017-q4-major/lib/gcc/arm-none-eabi/7.2.1/include/stddef.h"
 6174              		.file 10 "/opt/gcc-arm-none-eabi-7-2017-q4-major/arm-none-eabi/include/sys/reent.h"
 6175              		.file 11 "Drivers/lvgl/lvgl/src/draw/../misc/lv_mem.h"
 6176              		.file 12 "Drivers/lvgl/lvgl/src/draw/../misc/lv_color.h"
 6177              		.file 13 "Drivers/lvgl/lvgl/src/draw/../misc/lv_txt.h"
 6178              		.file 14 "Drivers/lvgl/lvgl/src/draw/lv_img_buf.h"
 6179              		.file 15 "Drivers/lvgl/lvgl/src/draw/lv_img_decoder.h"
 6180              		.file 16 "Drivers/lvgl/lvgl/src/draw/lv_img_cache.h"
 6181              		.file 17 "Drivers/lvgl/lvgl/src/draw/sw/../../core/lv_obj_pos.h"
 6182              		.file 18 "Drivers/lvgl/lvgl/src/draw/lv_draw_mask.h"
 6183              		.file 19 "Drivers/lvgl/lvgl/src/draw/../misc/lv_ll.h"
 6184              		.file 20 "Drivers/lvgl/lvgl/src/draw/../misc/lv_timer.h"
 6185              		.file 21 "Drivers/lvgl/lvgl/src/draw/../misc/lv_gc.h"
 6186              		.file 22 "Drivers/lvgl/lvgl/src/draw/../misc/lv_math.h"
ARM GAS  /tmp/cct67Zj5.s 			page 156


DEFINED SYMBOLS
                            *ABS*:0000000000000000 lv_draw_mask.c
     /tmp/cct67Zj5.s:17     .text.lv_draw_mask_fade:0000000000000000 $t
     /tmp/cct67Zj5.s:23     .text.lv_draw_mask_fade:0000000000000000 lv_draw_mask_fade
     /tmp/cct67Zj5.s:320    .text.lv_draw_mask_map:0000000000000000 $t
     /tmp/cct67Zj5.s:326    .text.lv_draw_mask_map:0000000000000000 lv_draw_mask_map
     /tmp/cct67Zj5.s:503    .text.circ_init:0000000000000000 $t
     /tmp/cct67Zj5.s:509    .text.circ_init:0000000000000000 circ_init
     /tmp/cct67Zj5.s:533    .text.circ_cont:0000000000000000 $t
     /tmp/cct67Zj5.s:539    .text.circ_cont:0000000000000000 circ_cont
     /tmp/cct67Zj5.s:561    .text.circ_next:0000000000000000 $t
     /tmp/cct67Zj5.s:567    .text.circ_next:0000000000000000 circ_next
     /tmp/cct67Zj5.s:622    .text.get_next_line:0000000000000000 $t
     /tmp/cct67Zj5.s:628    .text.get_next_line:0000000000000000 get_next_line
     /tmp/cct67Zj5.s:671    .text.line_mask_flat:0000000000000000 $t
     /tmp/cct67Zj5.s:677    .text.line_mask_flat:0000000000000000 line_mask_flat
     /tmp/cct67Zj5.s:1123   .text.line_mask_steep:0000000000000000 $t
     /tmp/cct67Zj5.s:1129   .text.line_mask_steep:0000000000000000 line_mask_steep
     /tmp/cct67Zj5.s:1829   .text.lv_draw_mask_line:0000000000000000 $t
     /tmp/cct67Zj5.s:1835   .text.lv_draw_mask_line:0000000000000000 lv_draw_mask_line
     /tmp/cct67Zj5.s:2079   .text.lv_draw_mask_angle:0000000000000000 $t
     /tmp/cct67Zj5.s:2085   .text.lv_draw_mask_angle:0000000000000000 lv_draw_mask_angle
     /tmp/cct67Zj5.s:2763   .text.lv_draw_mask_radius:0000000000000000 $t
     /tmp/cct67Zj5.s:2769   .text.lv_draw_mask_radius:0000000000000000 lv_draw_mask_radius
     /tmp/cct67Zj5.s:3395   .text.circ_calc_aa4:0000000000000000 $t
     /tmp/cct67Zj5.s:3401   .text.circ_calc_aa4:0000000000000000 circ_calc_aa4
     /tmp/cct67Zj5.s:3916   .text.lv_draw_mask_add:0000000000000000 $t
     /tmp/cct67Zj5.s:3923   .text.lv_draw_mask_add:0000000000000000 lv_draw_mask_add
     /tmp/cct67Zj5.s:3972   .text.lv_draw_mask_add:0000000000000030 $d
     /tmp/cct67Zj5.s:3977   .text.lv_draw_mask_apply:0000000000000000 $t
     /tmp/cct67Zj5.s:3984   .text.lv_draw_mask_apply:0000000000000000 lv_draw_mask_apply
     /tmp/cct67Zj5.s:4074   .text.lv_draw_mask_apply:000000000000004c $d
     /tmp/cct67Zj5.s:4079   .text.lv_draw_mask_apply_ids:0000000000000000 $t
     /tmp/cct67Zj5.s:4086   .text.lv_draw_mask_apply_ids:0000000000000000 lv_draw_mask_apply_ids
     /tmp/cct67Zj5.s:4195   .text.lv_draw_mask_apply_ids:0000000000000064 $d
     /tmp/cct67Zj5.s:4200   .text.lv_draw_mask_remove_id:0000000000000000 $t
     /tmp/cct67Zj5.s:4207   .text.lv_draw_mask_remove_id:0000000000000000 lv_draw_mask_remove_id
     /tmp/cct67Zj5.s:4243   .text.lv_draw_mask_remove_id:0000000000000020 $d
     /tmp/cct67Zj5.s:4248   .text.lv_draw_mask_remove_custom:0000000000000000 $t
     /tmp/cct67Zj5.s:4255   .text.lv_draw_mask_remove_custom:0000000000000000 lv_draw_mask_remove_custom
     /tmp/cct67Zj5.s:4311   .text.lv_draw_mask_remove_custom:0000000000000030 $d
     /tmp/cct67Zj5.s:4316   .text.lv_draw_mask_free_param:0000000000000000 $t
     /tmp/cct67Zj5.s:4323   .text.lv_draw_mask_free_param:0000000000000000 lv_draw_mask_free_param
     /tmp/cct67Zj5.s:4391   .text._lv_draw_mask_cleanup:0000000000000000 $t
     /tmp/cct67Zj5.s:4398   .text._lv_draw_mask_cleanup:0000000000000000 _lv_draw_mask_cleanup
     /tmp/cct67Zj5.s:4453   .text._lv_draw_mask_cleanup:0000000000000038 $d
     /tmp/cct67Zj5.s:4458   .text.lv_draw_mask_get_cnt:0000000000000000 $t
     /tmp/cct67Zj5.s:4465   .text.lv_draw_mask_get_cnt:0000000000000000 lv_draw_mask_get_cnt
     /tmp/cct67Zj5.s:4507   .text.lv_draw_mask_get_cnt:0000000000000020 $d
     /tmp/cct67Zj5.s:4512   .text.lv_draw_mask_is_any:0000000000000000 $t
     /tmp/cct67Zj5.s:4519   .text.lv_draw_mask_is_any:0000000000000000 lv_draw_mask_is_any
     /tmp/cct67Zj5.s:4625   .text.lv_draw_mask_is_any:0000000000000064 $d
     /tmp/cct67Zj5.s:4632   .text.lv_draw_mask_line_points_init:0000000000000000 $t
     /tmp/cct67Zj5.s:4639   .text.lv_draw_mask_line_points_init:0000000000000000 lv_draw_mask_line_points_init
     /tmp/cct67Zj5.s:4884   .text.lv_draw_mask_line_points_init:000000000000016c $d
     /tmp/cct67Zj5.s:4889   .text.lv_draw_mask_polygon:0000000000000000 $t
     /tmp/cct67Zj5.s:4895   .text.lv_draw_mask_polygon:0000000000000000 lv_draw_mask_polygon
ARM GAS  /tmp/cct67Zj5.s 			page 157


     /tmp/cct67Zj5.s:5366   .text.lv_draw_mask_line_angle_init:0000000000000000 $t
     /tmp/cct67Zj5.s:5373   .text.lv_draw_mask_line_angle_init:0000000000000000 lv_draw_mask_line_angle_init
     /tmp/cct67Zj5.s:5442   .text.lv_draw_mask_angle_init:0000000000000000 $t
     /tmp/cct67Zj5.s:5449   .text.lv_draw_mask_angle_init:0000000000000000 lv_draw_mask_angle_init
     /tmp/cct67Zj5.s:5622   .text.lv_draw_mask_angle_init:00000000000000d0 $d
     /tmp/cct67Zj5.s:5627   .text.lv_draw_mask_radius_init:0000000000000000 $t
     /tmp/cct67Zj5.s:5634   .text.lv_draw_mask_radius_init:0000000000000000 lv_draw_mask_radius_init
     /tmp/cct67Zj5.s:5909   .text.lv_draw_mask_radius_init:000000000000013c $d
     /tmp/cct67Zj5.s:5915   .text.lv_draw_mask_fade_init:0000000000000000 $t
     /tmp/cct67Zj5.s:5922   .text.lv_draw_mask_fade_init:0000000000000000 lv_draw_mask_fade_init
     /tmp/cct67Zj5.s:5981   .text.lv_draw_mask_fade_init:0000000000000038 $d
     /tmp/cct67Zj5.s:5986   .text.lv_draw_mask_map_init:0000000000000000 $t
     /tmp/cct67Zj5.s:5993   .text.lv_draw_mask_map_init:0000000000000000 lv_draw_mask_map_init
     /tmp/cct67Zj5.s:6031   .text.lv_draw_mask_map_init:0000000000000024 $d
     /tmp/cct67Zj5.s:6036   .text.lv_draw_mask_polygon_init:0000000000000000 $t
     /tmp/cct67Zj5.s:6043   .text.lv_draw_mask_polygon_init:0000000000000000 lv_draw_mask_polygon_init
     /tmp/cct67Zj5.s:6161   .text.lv_draw_mask_polygon_init:0000000000000094 $d

UNDEFINED SYMBOLS
lv_memset_00
lv_mem_free
lv_mem_alloc
lv_mem_buf_get
lv_mem_buf_release
_lv_draw_mask_list
_lv_circle_cache
_lv_area_is_in
_lv_area_is_out
lv_trigo_sin
