ARM GAS  /tmp/cc1OJ4An.s 			page 1


   1              		.cpu cortex-m7
   2              		.eabi_attribute 28, 1
   3              		.eabi_attribute 20, 1
   4              		.eabi_attribute 21, 1
   5              		.eabi_attribute 23, 3
   6              		.eabi_attribute 24, 1
   7              		.eabi_attribute 25, 1
   8              		.eabi_attribute 26, 1
   9              		.eabi_attribute 30, 1
  10              		.eabi_attribute 34, 1
  11              		.eabi_attribute 18, 4
  12              		.file	"lv_draw_label.c"
  13              		.text
  14              	.Ltext0:
  15              		.cfi_sections	.debug_frame
  16              		.section	.text.hex_char_to_num,"ax",%progbits
  17              		.align	1
  18              		.syntax unified
  19              		.thumb
  20              		.thumb_func
  21              		.fpu fpv5-d16
  23              	hex_char_to_num:
  24              	.LFB162:
  25              		.file 1 "Drivers/lvgl/lvgl/src/draw/lv_draw_label.c"
   1:Drivers/lvgl/lvgl/src/draw/lv_draw_label.c **** /**
   2:Drivers/lvgl/lvgl/src/draw/lv_draw_label.c ****  * @file lv_draw_label.c
   3:Drivers/lvgl/lvgl/src/draw/lv_draw_label.c ****  *
   4:Drivers/lvgl/lvgl/src/draw/lv_draw_label.c ****  */
   5:Drivers/lvgl/lvgl/src/draw/lv_draw_label.c **** 
   6:Drivers/lvgl/lvgl/src/draw/lv_draw_label.c **** /*********************
   7:Drivers/lvgl/lvgl/src/draw/lv_draw_label.c ****  *      INCLUDES
   8:Drivers/lvgl/lvgl/src/draw/lv_draw_label.c ****  *********************/
   9:Drivers/lvgl/lvgl/src/draw/lv_draw_label.c **** #include "lv_draw.h"
  10:Drivers/lvgl/lvgl/src/draw/lv_draw_label.c **** #include "lv_draw_label.h"
  11:Drivers/lvgl/lvgl/src/draw/lv_draw_label.c **** #include "../misc/lv_math.h"
  12:Drivers/lvgl/lvgl/src/draw/lv_draw_label.c **** #include "../hal/lv_hal_disp.h"
  13:Drivers/lvgl/lvgl/src/draw/lv_draw_label.c **** #include "../core/lv_refr.h"
  14:Drivers/lvgl/lvgl/src/draw/lv_draw_label.c **** #include "../misc/lv_bidi.h"
  15:Drivers/lvgl/lvgl/src/draw/lv_draw_label.c **** #include "../misc/lv_assert.h"
  16:Drivers/lvgl/lvgl/src/draw/lv_draw_label.c **** 
  17:Drivers/lvgl/lvgl/src/draw/lv_draw_label.c **** /*********************
  18:Drivers/lvgl/lvgl/src/draw/lv_draw_label.c ****  *      DEFINES
  19:Drivers/lvgl/lvgl/src/draw/lv_draw_label.c ****  *********************/
  20:Drivers/lvgl/lvgl/src/draw/lv_draw_label.c **** #define LABEL_RECOLOR_PAR_LENGTH 6
  21:Drivers/lvgl/lvgl/src/draw/lv_draw_label.c **** #define LV_LABEL_HINT_UPDATE_TH 1024 /*Update the "hint" if the label's y coordinates have changed 
  22:Drivers/lvgl/lvgl/src/draw/lv_draw_label.c **** 
  23:Drivers/lvgl/lvgl/src/draw/lv_draw_label.c **** /**********************
  24:Drivers/lvgl/lvgl/src/draw/lv_draw_label.c ****  *      TYPEDEFS
  25:Drivers/lvgl/lvgl/src/draw/lv_draw_label.c ****  **********************/
  26:Drivers/lvgl/lvgl/src/draw/lv_draw_label.c **** enum {
  27:Drivers/lvgl/lvgl/src/draw/lv_draw_label.c ****     CMD_STATE_WAIT,
  28:Drivers/lvgl/lvgl/src/draw/lv_draw_label.c ****     CMD_STATE_PAR,
  29:Drivers/lvgl/lvgl/src/draw/lv_draw_label.c ****     CMD_STATE_IN,
  30:Drivers/lvgl/lvgl/src/draw/lv_draw_label.c **** };
  31:Drivers/lvgl/lvgl/src/draw/lv_draw_label.c **** typedef uint8_t cmd_state_t;
  32:Drivers/lvgl/lvgl/src/draw/lv_draw_label.c **** 
  33:Drivers/lvgl/lvgl/src/draw/lv_draw_label.c **** /**********************
ARM GAS  /tmp/cc1OJ4An.s 			page 2


  34:Drivers/lvgl/lvgl/src/draw/lv_draw_label.c ****  *  STATIC PROTOTYPES
  35:Drivers/lvgl/lvgl/src/draw/lv_draw_label.c ****  **********************/
  36:Drivers/lvgl/lvgl/src/draw/lv_draw_label.c **** 
  37:Drivers/lvgl/lvgl/src/draw/lv_draw_label.c **** static uint8_t hex_char_to_num(char hex);
  38:Drivers/lvgl/lvgl/src/draw/lv_draw_label.c **** 
  39:Drivers/lvgl/lvgl/src/draw/lv_draw_label.c **** /**********************
  40:Drivers/lvgl/lvgl/src/draw/lv_draw_label.c ****  *  STATIC VARIABLES
  41:Drivers/lvgl/lvgl/src/draw/lv_draw_label.c ****  **********************/
  42:Drivers/lvgl/lvgl/src/draw/lv_draw_label.c **** 
  43:Drivers/lvgl/lvgl/src/draw/lv_draw_label.c **** /**********************
  44:Drivers/lvgl/lvgl/src/draw/lv_draw_label.c ****  *  GLOBAL VARIABLES
  45:Drivers/lvgl/lvgl/src/draw/lv_draw_label.c ****  **********************/
  46:Drivers/lvgl/lvgl/src/draw/lv_draw_label.c **** 
  47:Drivers/lvgl/lvgl/src/draw/lv_draw_label.c **** /**********************
  48:Drivers/lvgl/lvgl/src/draw/lv_draw_label.c ****  *      MACROS
  49:Drivers/lvgl/lvgl/src/draw/lv_draw_label.c ****  **********************/
  50:Drivers/lvgl/lvgl/src/draw/lv_draw_label.c **** 
  51:Drivers/lvgl/lvgl/src/draw/lv_draw_label.c **** /**********************
  52:Drivers/lvgl/lvgl/src/draw/lv_draw_label.c ****  *   GLOBAL FUNCTIONS
  53:Drivers/lvgl/lvgl/src/draw/lv_draw_label.c ****  **********************/
  54:Drivers/lvgl/lvgl/src/draw/lv_draw_label.c **** 
  55:Drivers/lvgl/lvgl/src/draw/lv_draw_label.c **** void lv_draw_label_dsc_init(lv_draw_label_dsc_t * dsc)
  56:Drivers/lvgl/lvgl/src/draw/lv_draw_label.c **** {
  57:Drivers/lvgl/lvgl/src/draw/lv_draw_label.c ****     lv_memset_00(dsc, sizeof(lv_draw_label_dsc_t));
  58:Drivers/lvgl/lvgl/src/draw/lv_draw_label.c ****     dsc->opa = LV_OPA_COVER;
  59:Drivers/lvgl/lvgl/src/draw/lv_draw_label.c ****     dsc->color = lv_color_black();
  60:Drivers/lvgl/lvgl/src/draw/lv_draw_label.c ****     dsc->font = LV_FONT_DEFAULT;
  61:Drivers/lvgl/lvgl/src/draw/lv_draw_label.c ****     dsc->sel_start = LV_DRAW_LABEL_NO_TXT_SEL;
  62:Drivers/lvgl/lvgl/src/draw/lv_draw_label.c ****     dsc->sel_end = LV_DRAW_LABEL_NO_TXT_SEL;
  63:Drivers/lvgl/lvgl/src/draw/lv_draw_label.c ****     dsc->sel_color = lv_color_black();
  64:Drivers/lvgl/lvgl/src/draw/lv_draw_label.c ****     dsc->sel_bg_color = lv_palette_main(LV_PALETTE_BLUE);
  65:Drivers/lvgl/lvgl/src/draw/lv_draw_label.c ****     dsc->bidi_dir = LV_BASE_DIR_LTR;
  66:Drivers/lvgl/lvgl/src/draw/lv_draw_label.c **** }
  67:Drivers/lvgl/lvgl/src/draw/lv_draw_label.c **** 
  68:Drivers/lvgl/lvgl/src/draw/lv_draw_label.c **** /**
  69:Drivers/lvgl/lvgl/src/draw/lv_draw_label.c ****  * Write a text
  70:Drivers/lvgl/lvgl/src/draw/lv_draw_label.c ****  * @param coords coordinates of the label
  71:Drivers/lvgl/lvgl/src/draw/lv_draw_label.c ****  * @param mask the label will be drawn only in this area
  72:Drivers/lvgl/lvgl/src/draw/lv_draw_label.c ****  * @param dsc pointer to draw descriptor
  73:Drivers/lvgl/lvgl/src/draw/lv_draw_label.c ****  * @param txt `\0` terminated text to write
  74:Drivers/lvgl/lvgl/src/draw/lv_draw_label.c ****  * @param hint pointer to a `lv_draw_label_hint_t` variable.
  75:Drivers/lvgl/lvgl/src/draw/lv_draw_label.c ****  * It is managed by the draw to speed up the drawing of very long texts (thousands of lines).
  76:Drivers/lvgl/lvgl/src/draw/lv_draw_label.c ****  */
  77:Drivers/lvgl/lvgl/src/draw/lv_draw_label.c **** LV_ATTRIBUTE_FAST_MEM void lv_draw_label(lv_draw_ctx_t * draw_ctx, const lv_draw_label_dsc_t * dsc,
  78:Drivers/lvgl/lvgl/src/draw/lv_draw_label.c ****                                          const lv_area_t * coords, const char * txt, lv_draw_label_
  79:Drivers/lvgl/lvgl/src/draw/lv_draw_label.c **** {
  80:Drivers/lvgl/lvgl/src/draw/lv_draw_label.c ****     if(dsc->opa <= LV_OPA_MIN) return;
  81:Drivers/lvgl/lvgl/src/draw/lv_draw_label.c ****     if(dsc->font == NULL) {
  82:Drivers/lvgl/lvgl/src/draw/lv_draw_label.c ****         LV_LOG_WARN("dsc->font == NULL");
  83:Drivers/lvgl/lvgl/src/draw/lv_draw_label.c ****         return;
  84:Drivers/lvgl/lvgl/src/draw/lv_draw_label.c ****     }
  85:Drivers/lvgl/lvgl/src/draw/lv_draw_label.c **** 
  86:Drivers/lvgl/lvgl/src/draw/lv_draw_label.c ****     if(draw_ctx->draw_letter == NULL) {
  87:Drivers/lvgl/lvgl/src/draw/lv_draw_label.c ****         LV_LOG_WARN("draw->draw_letter == NULL (there is no function to draw letters)");
  88:Drivers/lvgl/lvgl/src/draw/lv_draw_label.c ****         return;
  89:Drivers/lvgl/lvgl/src/draw/lv_draw_label.c ****     }
  90:Drivers/lvgl/lvgl/src/draw/lv_draw_label.c **** 
ARM GAS  /tmp/cc1OJ4An.s 			page 3


  91:Drivers/lvgl/lvgl/src/draw/lv_draw_label.c ****     lv_draw_label_dsc_t dsc_mod = *dsc;
  92:Drivers/lvgl/lvgl/src/draw/lv_draw_label.c **** 
  93:Drivers/lvgl/lvgl/src/draw/lv_draw_label.c ****     const lv_font_t * font = dsc->font;
  94:Drivers/lvgl/lvgl/src/draw/lv_draw_label.c ****     int32_t w;
  95:Drivers/lvgl/lvgl/src/draw/lv_draw_label.c **** 
  96:Drivers/lvgl/lvgl/src/draw/lv_draw_label.c ****     /*No need to waste processor time if string is empty*/
  97:Drivers/lvgl/lvgl/src/draw/lv_draw_label.c ****     if(txt == NULL || txt[0] == '\0')
  98:Drivers/lvgl/lvgl/src/draw/lv_draw_label.c ****         return;
  99:Drivers/lvgl/lvgl/src/draw/lv_draw_label.c **** 
 100:Drivers/lvgl/lvgl/src/draw/lv_draw_label.c ****     lv_area_t clipped_area;
 101:Drivers/lvgl/lvgl/src/draw/lv_draw_label.c ****     bool clip_ok = _lv_area_intersect(&clipped_area, coords, draw_ctx->clip_area);
 102:Drivers/lvgl/lvgl/src/draw/lv_draw_label.c ****     if(!clip_ok) return;
 103:Drivers/lvgl/lvgl/src/draw/lv_draw_label.c **** 
 104:Drivers/lvgl/lvgl/src/draw/lv_draw_label.c ****     lv_text_align_t align = dsc->align;
 105:Drivers/lvgl/lvgl/src/draw/lv_draw_label.c ****     lv_base_dir_t base_dir = dsc->bidi_dir;
 106:Drivers/lvgl/lvgl/src/draw/lv_draw_label.c **** 
 107:Drivers/lvgl/lvgl/src/draw/lv_draw_label.c ****     lv_bidi_calculate_align(&align, &base_dir, txt);
 108:Drivers/lvgl/lvgl/src/draw/lv_draw_label.c **** 
 109:Drivers/lvgl/lvgl/src/draw/lv_draw_label.c ****     if((dsc->flag & LV_TEXT_FLAG_EXPAND) == 0) {
 110:Drivers/lvgl/lvgl/src/draw/lv_draw_label.c ****         /*Normally use the label's width as width*/
 111:Drivers/lvgl/lvgl/src/draw/lv_draw_label.c ****         w = lv_area_get_width(coords);
 112:Drivers/lvgl/lvgl/src/draw/lv_draw_label.c ****     }
 113:Drivers/lvgl/lvgl/src/draw/lv_draw_label.c ****     else {
 114:Drivers/lvgl/lvgl/src/draw/lv_draw_label.c ****         /*If EXPAND is enabled then not limit the text's width to the object's width*/
 115:Drivers/lvgl/lvgl/src/draw/lv_draw_label.c ****         lv_point_t p;
 116:Drivers/lvgl/lvgl/src/draw/lv_draw_label.c ****         lv_txt_get_size(&p, txt, dsc->font, dsc->letter_space, dsc->line_space, LV_COORD_MAX,
 117:Drivers/lvgl/lvgl/src/draw/lv_draw_label.c ****                         dsc->flag);
 118:Drivers/lvgl/lvgl/src/draw/lv_draw_label.c ****         w = p.x;
 119:Drivers/lvgl/lvgl/src/draw/lv_draw_label.c ****     }
 120:Drivers/lvgl/lvgl/src/draw/lv_draw_label.c **** 
 121:Drivers/lvgl/lvgl/src/draw/lv_draw_label.c ****     int32_t line_height_font = lv_font_get_line_height(font);
 122:Drivers/lvgl/lvgl/src/draw/lv_draw_label.c ****     int32_t line_height = line_height_font + dsc->line_space;
 123:Drivers/lvgl/lvgl/src/draw/lv_draw_label.c **** 
 124:Drivers/lvgl/lvgl/src/draw/lv_draw_label.c ****     /*Init variables for the first line*/
 125:Drivers/lvgl/lvgl/src/draw/lv_draw_label.c ****     int32_t line_width = 0;
 126:Drivers/lvgl/lvgl/src/draw/lv_draw_label.c ****     lv_point_t pos;
 127:Drivers/lvgl/lvgl/src/draw/lv_draw_label.c ****     pos.x = coords->x1;
 128:Drivers/lvgl/lvgl/src/draw/lv_draw_label.c ****     pos.y = coords->y1;
 129:Drivers/lvgl/lvgl/src/draw/lv_draw_label.c **** 
 130:Drivers/lvgl/lvgl/src/draw/lv_draw_label.c ****     int32_t x_ofs = 0;
 131:Drivers/lvgl/lvgl/src/draw/lv_draw_label.c ****     int32_t y_ofs = 0;
 132:Drivers/lvgl/lvgl/src/draw/lv_draw_label.c ****     x_ofs = dsc->ofs_x;
 133:Drivers/lvgl/lvgl/src/draw/lv_draw_label.c ****     y_ofs = dsc->ofs_y;
 134:Drivers/lvgl/lvgl/src/draw/lv_draw_label.c ****     pos.y += y_ofs;
 135:Drivers/lvgl/lvgl/src/draw/lv_draw_label.c **** 
 136:Drivers/lvgl/lvgl/src/draw/lv_draw_label.c ****     uint32_t line_start     = 0;
 137:Drivers/lvgl/lvgl/src/draw/lv_draw_label.c ****     int32_t last_line_start = -1;
 138:Drivers/lvgl/lvgl/src/draw/lv_draw_label.c **** 
 139:Drivers/lvgl/lvgl/src/draw/lv_draw_label.c ****     /*Check the hint to use the cached info*/
 140:Drivers/lvgl/lvgl/src/draw/lv_draw_label.c ****     if(hint && y_ofs == 0 && coords->y1 < 0) {
 141:Drivers/lvgl/lvgl/src/draw/lv_draw_label.c ****         /*If the label changed too much recalculate the hint.*/
 142:Drivers/lvgl/lvgl/src/draw/lv_draw_label.c ****         if(LV_ABS(hint->coord_y - coords->y1) > LV_LABEL_HINT_UPDATE_TH - 2 * line_height) {
 143:Drivers/lvgl/lvgl/src/draw/lv_draw_label.c ****             hint->line_start = -1;
 144:Drivers/lvgl/lvgl/src/draw/lv_draw_label.c ****         }
 145:Drivers/lvgl/lvgl/src/draw/lv_draw_label.c ****         last_line_start = hint->line_start;
 146:Drivers/lvgl/lvgl/src/draw/lv_draw_label.c ****     }
 147:Drivers/lvgl/lvgl/src/draw/lv_draw_label.c **** 
ARM GAS  /tmp/cc1OJ4An.s 			page 4


 148:Drivers/lvgl/lvgl/src/draw/lv_draw_label.c ****     /*Use the hint if it's valid*/
 149:Drivers/lvgl/lvgl/src/draw/lv_draw_label.c ****     if(hint && last_line_start >= 0) {
 150:Drivers/lvgl/lvgl/src/draw/lv_draw_label.c ****         line_start = last_line_start;
 151:Drivers/lvgl/lvgl/src/draw/lv_draw_label.c ****         pos.y += hint->y;
 152:Drivers/lvgl/lvgl/src/draw/lv_draw_label.c ****     }
 153:Drivers/lvgl/lvgl/src/draw/lv_draw_label.c **** 
 154:Drivers/lvgl/lvgl/src/draw/lv_draw_label.c ****     uint32_t line_end = line_start + _lv_txt_get_next_line(&txt[line_start], font, dsc->letter_spac
 155:Drivers/lvgl/lvgl/src/draw/lv_draw_label.c **** 
 156:Drivers/lvgl/lvgl/src/draw/lv_draw_label.c ****     /*Go the first visible line*/
 157:Drivers/lvgl/lvgl/src/draw/lv_draw_label.c ****     while(pos.y + line_height_font < draw_ctx->clip_area->y1) {
 158:Drivers/lvgl/lvgl/src/draw/lv_draw_label.c ****         /*Go to next line*/
 159:Drivers/lvgl/lvgl/src/draw/lv_draw_label.c ****         line_start = line_end;
 160:Drivers/lvgl/lvgl/src/draw/lv_draw_label.c ****         line_end += _lv_txt_get_next_line(&txt[line_start], font, dsc->letter_space, w, NULL, dsc->
 161:Drivers/lvgl/lvgl/src/draw/lv_draw_label.c ****         pos.y += line_height;
 162:Drivers/lvgl/lvgl/src/draw/lv_draw_label.c **** 
 163:Drivers/lvgl/lvgl/src/draw/lv_draw_label.c ****         /*Save at the threshold coordinate*/
 164:Drivers/lvgl/lvgl/src/draw/lv_draw_label.c ****         if(hint && pos.y >= -LV_LABEL_HINT_UPDATE_TH && hint->line_start < 0) {
 165:Drivers/lvgl/lvgl/src/draw/lv_draw_label.c ****             hint->line_start = line_start;
 166:Drivers/lvgl/lvgl/src/draw/lv_draw_label.c ****             hint->y          = pos.y - coords->y1;
 167:Drivers/lvgl/lvgl/src/draw/lv_draw_label.c ****             hint->coord_y    = coords->y1;
 168:Drivers/lvgl/lvgl/src/draw/lv_draw_label.c ****         }
 169:Drivers/lvgl/lvgl/src/draw/lv_draw_label.c **** 
 170:Drivers/lvgl/lvgl/src/draw/lv_draw_label.c ****         if(txt[line_start] == '\0') return;
 171:Drivers/lvgl/lvgl/src/draw/lv_draw_label.c ****     }
 172:Drivers/lvgl/lvgl/src/draw/lv_draw_label.c **** 
 173:Drivers/lvgl/lvgl/src/draw/lv_draw_label.c ****     /*Align to middle*/
 174:Drivers/lvgl/lvgl/src/draw/lv_draw_label.c ****     if(align == LV_TEXT_ALIGN_CENTER) {
 175:Drivers/lvgl/lvgl/src/draw/lv_draw_label.c ****         line_width = lv_txt_get_width(&txt[line_start], line_end - line_start, font, dsc->letter_sp
 176:Drivers/lvgl/lvgl/src/draw/lv_draw_label.c **** 
 177:Drivers/lvgl/lvgl/src/draw/lv_draw_label.c ****         pos.x += (lv_area_get_width(coords) - line_width) / 2;
 178:Drivers/lvgl/lvgl/src/draw/lv_draw_label.c **** 
 179:Drivers/lvgl/lvgl/src/draw/lv_draw_label.c ****     }
 180:Drivers/lvgl/lvgl/src/draw/lv_draw_label.c ****     /*Align to the right*/
 181:Drivers/lvgl/lvgl/src/draw/lv_draw_label.c ****     else if(align == LV_TEXT_ALIGN_RIGHT) {
 182:Drivers/lvgl/lvgl/src/draw/lv_draw_label.c ****         line_width = lv_txt_get_width(&txt[line_start], line_end - line_start, font, dsc->letter_sp
 183:Drivers/lvgl/lvgl/src/draw/lv_draw_label.c ****         pos.x += lv_area_get_width(coords) - line_width;
 184:Drivers/lvgl/lvgl/src/draw/lv_draw_label.c ****     }
 185:Drivers/lvgl/lvgl/src/draw/lv_draw_label.c ****     uint32_t sel_start = dsc->sel_start;
 186:Drivers/lvgl/lvgl/src/draw/lv_draw_label.c ****     uint32_t sel_end = dsc->sel_end;
 187:Drivers/lvgl/lvgl/src/draw/lv_draw_label.c ****     if(sel_start > sel_end) {
 188:Drivers/lvgl/lvgl/src/draw/lv_draw_label.c ****         uint32_t tmp = sel_start;
 189:Drivers/lvgl/lvgl/src/draw/lv_draw_label.c ****         sel_start = sel_end;
 190:Drivers/lvgl/lvgl/src/draw/lv_draw_label.c ****         sel_end = tmp;
 191:Drivers/lvgl/lvgl/src/draw/lv_draw_label.c ****     }
 192:Drivers/lvgl/lvgl/src/draw/lv_draw_label.c ****     lv_draw_line_dsc_t line_dsc;
 193:Drivers/lvgl/lvgl/src/draw/lv_draw_label.c **** 
 194:Drivers/lvgl/lvgl/src/draw/lv_draw_label.c ****     if((dsc->decor & LV_TEXT_DECOR_UNDERLINE) || (dsc->decor & LV_TEXT_DECOR_STRIKETHROUGH)) {
 195:Drivers/lvgl/lvgl/src/draw/lv_draw_label.c ****         lv_draw_line_dsc_init(&line_dsc);
 196:Drivers/lvgl/lvgl/src/draw/lv_draw_label.c ****         line_dsc.color = dsc->color;
 197:Drivers/lvgl/lvgl/src/draw/lv_draw_label.c ****         line_dsc.width = font->underline_thickness ? font->underline_thickness : 1;
 198:Drivers/lvgl/lvgl/src/draw/lv_draw_label.c ****         line_dsc.opa = dsc->opa;
 199:Drivers/lvgl/lvgl/src/draw/lv_draw_label.c ****         line_dsc.blend_mode = dsc->blend_mode;
 200:Drivers/lvgl/lvgl/src/draw/lv_draw_label.c ****     }
 201:Drivers/lvgl/lvgl/src/draw/lv_draw_label.c **** 
 202:Drivers/lvgl/lvgl/src/draw/lv_draw_label.c ****     cmd_state_t cmd_state = CMD_STATE_WAIT;
 203:Drivers/lvgl/lvgl/src/draw/lv_draw_label.c ****     uint32_t i;
 204:Drivers/lvgl/lvgl/src/draw/lv_draw_label.c ****     uint32_t par_start = 0;
ARM GAS  /tmp/cc1OJ4An.s 			page 5


 205:Drivers/lvgl/lvgl/src/draw/lv_draw_label.c ****     lv_color_t recolor  = lv_color_black();
 206:Drivers/lvgl/lvgl/src/draw/lv_draw_label.c ****     lv_color_t color = lv_color_black();
 207:Drivers/lvgl/lvgl/src/draw/lv_draw_label.c ****     int32_t letter_w;
 208:Drivers/lvgl/lvgl/src/draw/lv_draw_label.c **** 
 209:Drivers/lvgl/lvgl/src/draw/lv_draw_label.c ****     lv_draw_rect_dsc_t draw_dsc_sel;
 210:Drivers/lvgl/lvgl/src/draw/lv_draw_label.c ****     lv_draw_rect_dsc_init(&draw_dsc_sel);
 211:Drivers/lvgl/lvgl/src/draw/lv_draw_label.c ****     draw_dsc_sel.bg_color = dsc->sel_bg_color;
 212:Drivers/lvgl/lvgl/src/draw/lv_draw_label.c **** 
 213:Drivers/lvgl/lvgl/src/draw/lv_draw_label.c ****     int32_t pos_x_start = pos.x;
 214:Drivers/lvgl/lvgl/src/draw/lv_draw_label.c ****     /*Write out all lines*/
 215:Drivers/lvgl/lvgl/src/draw/lv_draw_label.c ****     while(txt[line_start] != '\0') {
 216:Drivers/lvgl/lvgl/src/draw/lv_draw_label.c ****         pos.x += x_ofs;
 217:Drivers/lvgl/lvgl/src/draw/lv_draw_label.c **** 
 218:Drivers/lvgl/lvgl/src/draw/lv_draw_label.c ****         /*Write all letter of a line*/
 219:Drivers/lvgl/lvgl/src/draw/lv_draw_label.c ****         cmd_state = CMD_STATE_WAIT;
 220:Drivers/lvgl/lvgl/src/draw/lv_draw_label.c ****         i         = 0;
 221:Drivers/lvgl/lvgl/src/draw/lv_draw_label.c **** #if LV_USE_BIDI
 222:Drivers/lvgl/lvgl/src/draw/lv_draw_label.c ****         char * bidi_txt = lv_mem_buf_get(line_end - line_start + 1);
 223:Drivers/lvgl/lvgl/src/draw/lv_draw_label.c ****         _lv_bidi_process_paragraph(txt + line_start, bidi_txt, line_end - line_start, base_dir, NUL
 224:Drivers/lvgl/lvgl/src/draw/lv_draw_label.c **** #else
 225:Drivers/lvgl/lvgl/src/draw/lv_draw_label.c ****         const char * bidi_txt = txt + line_start;
 226:Drivers/lvgl/lvgl/src/draw/lv_draw_label.c **** #endif
 227:Drivers/lvgl/lvgl/src/draw/lv_draw_label.c **** 
 228:Drivers/lvgl/lvgl/src/draw/lv_draw_label.c ****         while(i < line_end - line_start) {
 229:Drivers/lvgl/lvgl/src/draw/lv_draw_label.c ****             uint32_t logical_char_pos = 0;
 230:Drivers/lvgl/lvgl/src/draw/lv_draw_label.c ****             if(sel_start != 0xFFFF && sel_end != 0xFFFF) {
 231:Drivers/lvgl/lvgl/src/draw/lv_draw_label.c **** #if LV_USE_BIDI
 232:Drivers/lvgl/lvgl/src/draw/lv_draw_label.c ****                 logical_char_pos = _lv_txt_encoded_get_char_id(txt, line_start);
 233:Drivers/lvgl/lvgl/src/draw/lv_draw_label.c ****                 uint32_t t = _lv_txt_encoded_get_char_id(bidi_txt, i);
 234:Drivers/lvgl/lvgl/src/draw/lv_draw_label.c ****                 logical_char_pos += _lv_bidi_get_logical_pos(bidi_txt, NULL, line_end - line_start,
 235:Drivers/lvgl/lvgl/src/draw/lv_draw_label.c **** #else
 236:Drivers/lvgl/lvgl/src/draw/lv_draw_label.c ****                 logical_char_pos = _lv_txt_encoded_get_char_id(txt, line_start + i);
 237:Drivers/lvgl/lvgl/src/draw/lv_draw_label.c **** #endif
 238:Drivers/lvgl/lvgl/src/draw/lv_draw_label.c ****             }
 239:Drivers/lvgl/lvgl/src/draw/lv_draw_label.c **** 
 240:Drivers/lvgl/lvgl/src/draw/lv_draw_label.c ****             uint32_t letter;
 241:Drivers/lvgl/lvgl/src/draw/lv_draw_label.c ****             uint32_t letter_next;
 242:Drivers/lvgl/lvgl/src/draw/lv_draw_label.c ****             _lv_txt_encoded_letter_next_2(bidi_txt, &letter, &letter_next, &i);
 243:Drivers/lvgl/lvgl/src/draw/lv_draw_label.c ****             /*Handle the re-color command*/
 244:Drivers/lvgl/lvgl/src/draw/lv_draw_label.c ****             if((dsc->flag & LV_TEXT_FLAG_RECOLOR) != 0) {
 245:Drivers/lvgl/lvgl/src/draw/lv_draw_label.c ****                 if(letter == (uint32_t)LV_TXT_COLOR_CMD[0]) {
 246:Drivers/lvgl/lvgl/src/draw/lv_draw_label.c ****                     if(cmd_state == CMD_STATE_WAIT) { /*Start char*/
 247:Drivers/lvgl/lvgl/src/draw/lv_draw_label.c ****                         par_start = i;
 248:Drivers/lvgl/lvgl/src/draw/lv_draw_label.c ****                         cmd_state = CMD_STATE_PAR;
 249:Drivers/lvgl/lvgl/src/draw/lv_draw_label.c ****                         continue;
 250:Drivers/lvgl/lvgl/src/draw/lv_draw_label.c ****                     }
 251:Drivers/lvgl/lvgl/src/draw/lv_draw_label.c ****                     else if(cmd_state == CMD_STATE_PAR) {   /*Other start char in parameter escaped
 252:Drivers/lvgl/lvgl/src/draw/lv_draw_label.c ****                         cmd_state = CMD_STATE_WAIT;
 253:Drivers/lvgl/lvgl/src/draw/lv_draw_label.c ****                     }
 254:Drivers/lvgl/lvgl/src/draw/lv_draw_label.c ****                     else if(cmd_state == CMD_STATE_IN) {   /*Command end*/
 255:Drivers/lvgl/lvgl/src/draw/lv_draw_label.c ****                         cmd_state = CMD_STATE_WAIT;
 256:Drivers/lvgl/lvgl/src/draw/lv_draw_label.c ****                         continue;
 257:Drivers/lvgl/lvgl/src/draw/lv_draw_label.c ****                     }
 258:Drivers/lvgl/lvgl/src/draw/lv_draw_label.c ****                 }
 259:Drivers/lvgl/lvgl/src/draw/lv_draw_label.c **** 
 260:Drivers/lvgl/lvgl/src/draw/lv_draw_label.c ****                 /*Skip the color parameter and wait the space after it*/
 261:Drivers/lvgl/lvgl/src/draw/lv_draw_label.c ****                 if(cmd_state == CMD_STATE_PAR) {
ARM GAS  /tmp/cc1OJ4An.s 			page 6


 262:Drivers/lvgl/lvgl/src/draw/lv_draw_label.c ****                     if(letter == ' ') {
 263:Drivers/lvgl/lvgl/src/draw/lv_draw_label.c ****                         /*Get the parameter*/
 264:Drivers/lvgl/lvgl/src/draw/lv_draw_label.c ****                         if(i - par_start == LABEL_RECOLOR_PAR_LENGTH + 1) {
 265:Drivers/lvgl/lvgl/src/draw/lv_draw_label.c ****                             char buf[LABEL_RECOLOR_PAR_LENGTH + 1];
 266:Drivers/lvgl/lvgl/src/draw/lv_draw_label.c ****                             lv_memcpy_small(buf, &bidi_txt[par_start], LABEL_RECOLOR_PAR_LENGTH);
 267:Drivers/lvgl/lvgl/src/draw/lv_draw_label.c ****                             buf[LABEL_RECOLOR_PAR_LENGTH] = '\0';
 268:Drivers/lvgl/lvgl/src/draw/lv_draw_label.c ****                             int r, g, b;
 269:Drivers/lvgl/lvgl/src/draw/lv_draw_label.c ****                             r       = (hex_char_to_num(buf[0]) << 4) + hex_char_to_num(buf[1]);
 270:Drivers/lvgl/lvgl/src/draw/lv_draw_label.c ****                             g       = (hex_char_to_num(buf[2]) << 4) + hex_char_to_num(buf[3]);
 271:Drivers/lvgl/lvgl/src/draw/lv_draw_label.c ****                             b       = (hex_char_to_num(buf[4]) << 4) + hex_char_to_num(buf[5]);
 272:Drivers/lvgl/lvgl/src/draw/lv_draw_label.c ****                             recolor = lv_color_make(r, g, b);
 273:Drivers/lvgl/lvgl/src/draw/lv_draw_label.c ****                         }
 274:Drivers/lvgl/lvgl/src/draw/lv_draw_label.c ****                         else {
 275:Drivers/lvgl/lvgl/src/draw/lv_draw_label.c ****                             recolor.full = dsc->color.full;
 276:Drivers/lvgl/lvgl/src/draw/lv_draw_label.c ****                         }
 277:Drivers/lvgl/lvgl/src/draw/lv_draw_label.c ****                         cmd_state = CMD_STATE_IN; /*After the parameter the text is in the command*
 278:Drivers/lvgl/lvgl/src/draw/lv_draw_label.c ****                     }
 279:Drivers/lvgl/lvgl/src/draw/lv_draw_label.c ****                     continue;
 280:Drivers/lvgl/lvgl/src/draw/lv_draw_label.c ****                 }
 281:Drivers/lvgl/lvgl/src/draw/lv_draw_label.c ****             }
 282:Drivers/lvgl/lvgl/src/draw/lv_draw_label.c **** 
 283:Drivers/lvgl/lvgl/src/draw/lv_draw_label.c ****             color = dsc->color;
 284:Drivers/lvgl/lvgl/src/draw/lv_draw_label.c **** 
 285:Drivers/lvgl/lvgl/src/draw/lv_draw_label.c ****             if(cmd_state == CMD_STATE_IN) color = recolor;
 286:Drivers/lvgl/lvgl/src/draw/lv_draw_label.c **** 
 287:Drivers/lvgl/lvgl/src/draw/lv_draw_label.c ****             letter_w = lv_font_get_glyph_width(font, letter, letter_next);
 288:Drivers/lvgl/lvgl/src/draw/lv_draw_label.c **** 
 289:Drivers/lvgl/lvgl/src/draw/lv_draw_label.c ****             if(sel_start != 0xFFFF && sel_end != 0xFFFF) {
 290:Drivers/lvgl/lvgl/src/draw/lv_draw_label.c ****                 if(logical_char_pos >= sel_start && logical_char_pos < sel_end) {
 291:Drivers/lvgl/lvgl/src/draw/lv_draw_label.c ****                     lv_area_t sel_coords;
 292:Drivers/lvgl/lvgl/src/draw/lv_draw_label.c ****                     sel_coords.x1 = pos.x;
 293:Drivers/lvgl/lvgl/src/draw/lv_draw_label.c ****                     sel_coords.y1 = pos.y;
 294:Drivers/lvgl/lvgl/src/draw/lv_draw_label.c ****                     sel_coords.x2 = pos.x + letter_w + dsc->letter_space - 1;
 295:Drivers/lvgl/lvgl/src/draw/lv_draw_label.c ****                     sel_coords.y2 = pos.y + line_height - 1;
 296:Drivers/lvgl/lvgl/src/draw/lv_draw_label.c ****                     lv_draw_rect(draw_ctx, &draw_dsc_sel, &sel_coords);
 297:Drivers/lvgl/lvgl/src/draw/lv_draw_label.c ****                     color = dsc->sel_color;
 298:Drivers/lvgl/lvgl/src/draw/lv_draw_label.c ****                 }
 299:Drivers/lvgl/lvgl/src/draw/lv_draw_label.c ****             }
 300:Drivers/lvgl/lvgl/src/draw/lv_draw_label.c **** 
 301:Drivers/lvgl/lvgl/src/draw/lv_draw_label.c ****             dsc_mod.color = color;
 302:Drivers/lvgl/lvgl/src/draw/lv_draw_label.c ****             lv_draw_letter(draw_ctx, &dsc_mod, &pos, letter);
 303:Drivers/lvgl/lvgl/src/draw/lv_draw_label.c **** 
 304:Drivers/lvgl/lvgl/src/draw/lv_draw_label.c ****             if(letter_w > 0) {
 305:Drivers/lvgl/lvgl/src/draw/lv_draw_label.c ****                 pos.x += letter_w + dsc->letter_space;
 306:Drivers/lvgl/lvgl/src/draw/lv_draw_label.c ****             }
 307:Drivers/lvgl/lvgl/src/draw/lv_draw_label.c ****         }
 308:Drivers/lvgl/lvgl/src/draw/lv_draw_label.c **** 
 309:Drivers/lvgl/lvgl/src/draw/lv_draw_label.c ****         if(dsc->decor & LV_TEXT_DECOR_STRIKETHROUGH) {
 310:Drivers/lvgl/lvgl/src/draw/lv_draw_label.c ****             lv_point_t p1;
 311:Drivers/lvgl/lvgl/src/draw/lv_draw_label.c ****             lv_point_t p2;
 312:Drivers/lvgl/lvgl/src/draw/lv_draw_label.c ****             p1.x = pos_x_start;
 313:Drivers/lvgl/lvgl/src/draw/lv_draw_label.c ****             p1.y = pos.y + (dsc->font->line_height / 2)  + line_dsc.width / 2;
 314:Drivers/lvgl/lvgl/src/draw/lv_draw_label.c ****             p2.x = pos.x;
 315:Drivers/lvgl/lvgl/src/draw/lv_draw_label.c ****             p2.y = p1.y;
 316:Drivers/lvgl/lvgl/src/draw/lv_draw_label.c ****             line_dsc.color = color;
 317:Drivers/lvgl/lvgl/src/draw/lv_draw_label.c ****             lv_draw_line(draw_ctx, &line_dsc, &p1, &p2);
 318:Drivers/lvgl/lvgl/src/draw/lv_draw_label.c ****         }
ARM GAS  /tmp/cc1OJ4An.s 			page 7


 319:Drivers/lvgl/lvgl/src/draw/lv_draw_label.c **** 
 320:Drivers/lvgl/lvgl/src/draw/lv_draw_label.c ****         if(dsc->decor  & LV_TEXT_DECOR_UNDERLINE) {
 321:Drivers/lvgl/lvgl/src/draw/lv_draw_label.c ****             lv_point_t p1;
 322:Drivers/lvgl/lvgl/src/draw/lv_draw_label.c ****             lv_point_t p2;
 323:Drivers/lvgl/lvgl/src/draw/lv_draw_label.c ****             p1.x = pos_x_start;
 324:Drivers/lvgl/lvgl/src/draw/lv_draw_label.c ****             p1.y = pos.y + dsc->font->line_height - dsc->font->base_line - font->underline_position
 325:Drivers/lvgl/lvgl/src/draw/lv_draw_label.c ****             p2.x = pos.x;
 326:Drivers/lvgl/lvgl/src/draw/lv_draw_label.c ****             p2.y = p1.y;
 327:Drivers/lvgl/lvgl/src/draw/lv_draw_label.c ****             line_dsc.color = color;
 328:Drivers/lvgl/lvgl/src/draw/lv_draw_label.c ****             lv_draw_line(draw_ctx, &line_dsc, &p1, &p2);
 329:Drivers/lvgl/lvgl/src/draw/lv_draw_label.c ****         }
 330:Drivers/lvgl/lvgl/src/draw/lv_draw_label.c **** 
 331:Drivers/lvgl/lvgl/src/draw/lv_draw_label.c **** #if LV_USE_BIDI
 332:Drivers/lvgl/lvgl/src/draw/lv_draw_label.c ****         lv_mem_buf_release(bidi_txt);
 333:Drivers/lvgl/lvgl/src/draw/lv_draw_label.c ****         bidi_txt = NULL;
 334:Drivers/lvgl/lvgl/src/draw/lv_draw_label.c **** #endif
 335:Drivers/lvgl/lvgl/src/draw/lv_draw_label.c ****         /*Go to next line*/
 336:Drivers/lvgl/lvgl/src/draw/lv_draw_label.c ****         line_start = line_end;
 337:Drivers/lvgl/lvgl/src/draw/lv_draw_label.c ****         line_end += _lv_txt_get_next_line(&txt[line_start], font, dsc->letter_space, w, NULL, dsc->
 338:Drivers/lvgl/lvgl/src/draw/lv_draw_label.c **** 
 339:Drivers/lvgl/lvgl/src/draw/lv_draw_label.c ****         pos.x = coords->x1;
 340:Drivers/lvgl/lvgl/src/draw/lv_draw_label.c ****         /*Align to middle*/
 341:Drivers/lvgl/lvgl/src/draw/lv_draw_label.c ****         if(align == LV_TEXT_ALIGN_CENTER) {
 342:Drivers/lvgl/lvgl/src/draw/lv_draw_label.c ****             line_width =
 343:Drivers/lvgl/lvgl/src/draw/lv_draw_label.c ****                 lv_txt_get_width(&txt[line_start], line_end - line_start, font, dsc->letter_space, 
 344:Drivers/lvgl/lvgl/src/draw/lv_draw_label.c **** 
 345:Drivers/lvgl/lvgl/src/draw/lv_draw_label.c ****             pos.x += (lv_area_get_width(coords) - line_width) / 2;
 346:Drivers/lvgl/lvgl/src/draw/lv_draw_label.c **** 
 347:Drivers/lvgl/lvgl/src/draw/lv_draw_label.c ****         }
 348:Drivers/lvgl/lvgl/src/draw/lv_draw_label.c ****         /*Align to the right*/
 349:Drivers/lvgl/lvgl/src/draw/lv_draw_label.c ****         else if(align == LV_TEXT_ALIGN_RIGHT) {
 350:Drivers/lvgl/lvgl/src/draw/lv_draw_label.c ****             line_width =
 351:Drivers/lvgl/lvgl/src/draw/lv_draw_label.c ****                 lv_txt_get_width(&txt[line_start], line_end - line_start, font, dsc->letter_space, 
 352:Drivers/lvgl/lvgl/src/draw/lv_draw_label.c ****             pos.x += lv_area_get_width(coords) - line_width;
 353:Drivers/lvgl/lvgl/src/draw/lv_draw_label.c ****         }
 354:Drivers/lvgl/lvgl/src/draw/lv_draw_label.c **** 
 355:Drivers/lvgl/lvgl/src/draw/lv_draw_label.c ****         /*Go the next line position*/
 356:Drivers/lvgl/lvgl/src/draw/lv_draw_label.c ****         pos.y += line_height;
 357:Drivers/lvgl/lvgl/src/draw/lv_draw_label.c **** 
 358:Drivers/lvgl/lvgl/src/draw/lv_draw_label.c ****         if(pos.y > draw_ctx->clip_area->y2) return;
 359:Drivers/lvgl/lvgl/src/draw/lv_draw_label.c ****     }
 360:Drivers/lvgl/lvgl/src/draw/lv_draw_label.c **** 
 361:Drivers/lvgl/lvgl/src/draw/lv_draw_label.c ****     LV_ASSERT_MEM_INTEGRITY();
 362:Drivers/lvgl/lvgl/src/draw/lv_draw_label.c **** }
 363:Drivers/lvgl/lvgl/src/draw/lv_draw_label.c **** 
 364:Drivers/lvgl/lvgl/src/draw/lv_draw_label.c **** void lv_draw_letter(lv_draw_ctx_t * draw_ctx, const lv_draw_label_dsc_t * dsc,  const lv_point_t * 
 365:Drivers/lvgl/lvgl/src/draw/lv_draw_label.c ****                     uint32_t letter)
 366:Drivers/lvgl/lvgl/src/draw/lv_draw_label.c **** {
 367:Drivers/lvgl/lvgl/src/draw/lv_draw_label.c ****     draw_ctx->draw_letter(draw_ctx, dsc, pos_p, letter);
 368:Drivers/lvgl/lvgl/src/draw/lv_draw_label.c **** }
 369:Drivers/lvgl/lvgl/src/draw/lv_draw_label.c **** 
 370:Drivers/lvgl/lvgl/src/draw/lv_draw_label.c **** 
 371:Drivers/lvgl/lvgl/src/draw/lv_draw_label.c **** /**********************
 372:Drivers/lvgl/lvgl/src/draw/lv_draw_label.c ****  *   STATIC FUNCTIONS
 373:Drivers/lvgl/lvgl/src/draw/lv_draw_label.c ****  **********************/
 374:Drivers/lvgl/lvgl/src/draw/lv_draw_label.c **** 
 375:Drivers/lvgl/lvgl/src/draw/lv_draw_label.c **** /**
ARM GAS  /tmp/cc1OJ4An.s 			page 8


 376:Drivers/lvgl/lvgl/src/draw/lv_draw_label.c ****  * Convert a hexadecimal characters to a number (0..15)
 377:Drivers/lvgl/lvgl/src/draw/lv_draw_label.c ****  * @param hex Pointer to a hexadecimal character (0..9, A..F)
 378:Drivers/lvgl/lvgl/src/draw/lv_draw_label.c ****  * @return the numerical value of `hex` or 0 on error
 379:Drivers/lvgl/lvgl/src/draw/lv_draw_label.c ****  */
 380:Drivers/lvgl/lvgl/src/draw/lv_draw_label.c **** static uint8_t hex_char_to_num(char hex)
 381:Drivers/lvgl/lvgl/src/draw/lv_draw_label.c **** {
  26              		.loc 1 381 0
  27              		.cfi_startproc
  28              		@ args = 0, pretend = 0, frame = 0
  29              		@ frame_needed = 0, uses_anonymous_args = 0
  30              		@ link register save eliminated.
  31              	.LVL0:
  32 0000 0346     		mov	r3, r0
  33              	.LVL1:
 382:Drivers/lvgl/lvgl/src/draw/lv_draw_label.c ****     uint8_t result = 0;
 383:Drivers/lvgl/lvgl/src/draw/lv_draw_label.c **** 
 384:Drivers/lvgl/lvgl/src/draw/lv_draw_label.c ****     if(hex >= '0' && hex <= '9') {
  34              		.loc 1 384 0
  35 0002 3038     		subs	r0, r0, #48
  36              	.LVL2:
  37 0004 C0B2     		uxtb	r0, r0
  38 0006 0928     		cmp	r0, #9
  39 0008 18D9     		bls	.L2
 385:Drivers/lvgl/lvgl/src/draw/lv_draw_label.c ****         result = hex - '0';
 386:Drivers/lvgl/lvgl/src/draw/lv_draw_label.c ****     }
 387:Drivers/lvgl/lvgl/src/draw/lv_draw_label.c ****     else {
 388:Drivers/lvgl/lvgl/src/draw/lv_draw_label.c ****         if(hex >= 'a') hex -= 'a' - 'A'; /*Convert to upper case*/
  40              		.loc 1 388 0
  41 000a 602B     		cmp	r3, #96
  42 000c 01D9     		bls	.L3
  43              		.loc 1 388 0 is_stmt 0 discriminator 1
  44 000e 203B     		subs	r3, r3, #32
  45 0010 DBB2     		uxtb	r3, r3
  46              	.LVL3:
  47              	.L3:
 389:Drivers/lvgl/lvgl/src/draw/lv_draw_label.c **** 
 390:Drivers/lvgl/lvgl/src/draw/lv_draw_label.c ****         switch(hex) {
  48              		.loc 1 390 0 is_stmt 1
  49 0012 413B     		subs	r3, r3, #65
  50              	.LVL4:
  51 0014 052B     		cmp	r3, #5
  52 0016 0ED8     		bhi	.L4
  53 0018 DFE803F0 		tbb	[pc, r3]
  54              	.L6:
  55 001c 03       		.byte	(.L5-.L6)/2
  56 001d 0F       		.byte	(.L11-.L6)/2
  57 001e 05       		.byte	(.L7-.L6)/2
  58 001f 07       		.byte	(.L8-.L6)/2
  59 0020 09       		.byte	(.L9-.L6)/2
  60 0021 0B       		.byte	(.L10-.L6)/2
  61              		.p2align 1
  62              	.L5:
 391:Drivers/lvgl/lvgl/src/draw/lv_draw_label.c ****             case 'A':
 392:Drivers/lvgl/lvgl/src/draw/lv_draw_label.c ****                 result = 10;
  63              		.loc 1 392 0
  64 0022 0A20     		movs	r0, #10
  65 0024 7047     		bx	lr
ARM GAS  /tmp/cc1OJ4An.s 			page 9


  66              	.L7:
  67              	.LVL5:
 393:Drivers/lvgl/lvgl/src/draw/lv_draw_label.c ****                 break;
 394:Drivers/lvgl/lvgl/src/draw/lv_draw_label.c ****             case 'B':
 395:Drivers/lvgl/lvgl/src/draw/lv_draw_label.c ****                 result = 11;
 396:Drivers/lvgl/lvgl/src/draw/lv_draw_label.c ****                 break;
 397:Drivers/lvgl/lvgl/src/draw/lv_draw_label.c ****             case 'C':
 398:Drivers/lvgl/lvgl/src/draw/lv_draw_label.c ****                 result = 12;
  68              		.loc 1 398 0
  69 0026 0C20     		movs	r0, #12
 399:Drivers/lvgl/lvgl/src/draw/lv_draw_label.c ****                 break;
  70              		.loc 1 399 0
  71 0028 7047     		bx	lr
  72              	.LVL6:
  73              	.L8:
 400:Drivers/lvgl/lvgl/src/draw/lv_draw_label.c ****             case 'D':
 401:Drivers/lvgl/lvgl/src/draw/lv_draw_label.c ****                 result = 13;
  74              		.loc 1 401 0
  75 002a 0D20     		movs	r0, #13
 402:Drivers/lvgl/lvgl/src/draw/lv_draw_label.c ****                 break;
  76              		.loc 1 402 0
  77 002c 7047     		bx	lr
  78              	.LVL7:
  79              	.L9:
 403:Drivers/lvgl/lvgl/src/draw/lv_draw_label.c ****             case 'E':
 404:Drivers/lvgl/lvgl/src/draw/lv_draw_label.c ****                 result = 14;
  80              		.loc 1 404 0
  81 002e 0E20     		movs	r0, #14
 405:Drivers/lvgl/lvgl/src/draw/lv_draw_label.c ****                 break;
  82              		.loc 1 405 0
  83 0030 7047     		bx	lr
  84              	.LVL8:
  85              	.L10:
 406:Drivers/lvgl/lvgl/src/draw/lv_draw_label.c ****             case 'F':
 407:Drivers/lvgl/lvgl/src/draw/lv_draw_label.c ****                 result = 15;
  86              		.loc 1 407 0
  87 0032 0F20     		movs	r0, #15
 408:Drivers/lvgl/lvgl/src/draw/lv_draw_label.c ****                 break;
  88              		.loc 1 408 0
  89 0034 7047     		bx	lr
  90              	.LVL9:
  91              	.L4:
 409:Drivers/lvgl/lvgl/src/draw/lv_draw_label.c ****             default:
 410:Drivers/lvgl/lvgl/src/draw/lv_draw_label.c ****                 result = 0;
  92              		.loc 1 410 0
  93 0036 0020     		movs	r0, #0
 411:Drivers/lvgl/lvgl/src/draw/lv_draw_label.c ****                 break;
  94              		.loc 1 411 0
  95 0038 7047     		bx	lr
  96              	.L11:
 395:Drivers/lvgl/lvgl/src/draw/lv_draw_label.c ****                 break;
  97              		.loc 1 395 0
  98 003a 0B20     		movs	r0, #11
  99              	.L2:
 100              	.LVL10:
 412:Drivers/lvgl/lvgl/src/draw/lv_draw_label.c ****         }
 413:Drivers/lvgl/lvgl/src/draw/lv_draw_label.c ****     }
ARM GAS  /tmp/cc1OJ4An.s 			page 10


 414:Drivers/lvgl/lvgl/src/draw/lv_draw_label.c **** 
 415:Drivers/lvgl/lvgl/src/draw/lv_draw_label.c ****     return result;
 416:Drivers/lvgl/lvgl/src/draw/lv_draw_label.c **** }
 101              		.loc 1 416 0
 102 003c 7047     		bx	lr
 103              		.cfi_endproc
 104              	.LFE162:
 106              		.section	.text.lv_draw_label_dsc_init,"ax",%progbits
 107              		.align	1
 108              		.global	lv_draw_label_dsc_init
 109              		.syntax unified
 110              		.thumb
 111              		.thumb_func
 112              		.fpu fpv5-d16
 114              	lv_draw_label_dsc_init:
 115              	.LFB159:
  56:Drivers/lvgl/lvgl/src/draw/lv_draw_label.c ****     lv_memset_00(dsc, sizeof(lv_draw_label_dsc_t));
 116              		.loc 1 56 0
 117              		.cfi_startproc
 118              		@ args = 0, pretend = 0, frame = 0
 119              		@ frame_needed = 0, uses_anonymous_args = 0
 120              	.LVL11:
 121 0000 10B5     		push	{r4, lr}
 122              	.LCFI0:
 123              		.cfi_def_cfa_offset 8
 124              		.cfi_offset 4, -8
 125              		.cfi_offset 14, -4
 126 0002 0446     		mov	r4, r0
  57:Drivers/lvgl/lvgl/src/draw/lv_draw_label.c ****     dsc->opa = LV_OPA_COVER;
 127              		.loc 1 57 0
 128 0004 2021     		movs	r1, #32
 129 0006 FFF7FEFF 		bl	lv_memset_00
 130              	.LVL12:
  58:Drivers/lvgl/lvgl/src/draw/lv_draw_label.c ****     dsc->color = lv_color_black();
 131              		.loc 1 58 0
 132 000a FF23     		movs	r3, #255
 133 000c A376     		strb	r3, [r4, #26]
 134              	.LVL13:
 135              	.LBB46:
 136              	.LBB47:
 137              	.LBB48:
 138              		.file 2 "Drivers/lvgl/lvgl/src/draw/../misc/lv_color.h"
   1:Drivers/lvgl/lvgl/src/draw/../misc/lv_color.h **** /**
   2:Drivers/lvgl/lvgl/src/draw/../misc/lv_color.h ****  * @file lv_color.h
   3:Drivers/lvgl/lvgl/src/draw/../misc/lv_color.h ****  *
   4:Drivers/lvgl/lvgl/src/draw/../misc/lv_color.h ****  */
   5:Drivers/lvgl/lvgl/src/draw/../misc/lv_color.h **** 
   6:Drivers/lvgl/lvgl/src/draw/../misc/lv_color.h **** #ifndef LV_COLOR_H
   7:Drivers/lvgl/lvgl/src/draw/../misc/lv_color.h **** #define LV_COLOR_H
   8:Drivers/lvgl/lvgl/src/draw/../misc/lv_color.h **** 
   9:Drivers/lvgl/lvgl/src/draw/../misc/lv_color.h **** #ifdef __cplusplus
  10:Drivers/lvgl/lvgl/src/draw/../misc/lv_color.h **** extern "C" {
  11:Drivers/lvgl/lvgl/src/draw/../misc/lv_color.h **** #endif
  12:Drivers/lvgl/lvgl/src/draw/../misc/lv_color.h **** 
  13:Drivers/lvgl/lvgl/src/draw/../misc/lv_color.h **** /*********************
  14:Drivers/lvgl/lvgl/src/draw/../misc/lv_color.h ****  *      INCLUDES
  15:Drivers/lvgl/lvgl/src/draw/../misc/lv_color.h ****  *********************/
ARM GAS  /tmp/cc1OJ4An.s 			page 11


  16:Drivers/lvgl/lvgl/src/draw/../misc/lv_color.h **** #include "../lv_conf_internal.h"
  17:Drivers/lvgl/lvgl/src/draw/../misc/lv_color.h **** #include "lv_assert.h"
  18:Drivers/lvgl/lvgl/src/draw/../misc/lv_color.h **** #include "lv_math.h"
  19:Drivers/lvgl/lvgl/src/draw/../misc/lv_color.h **** #include "lv_types.h"
  20:Drivers/lvgl/lvgl/src/draw/../misc/lv_color.h **** 
  21:Drivers/lvgl/lvgl/src/draw/../misc/lv_color.h **** /*Error checking*/
  22:Drivers/lvgl/lvgl/src/draw/../misc/lv_color.h **** #if LV_COLOR_DEPTH == 24
  23:Drivers/lvgl/lvgl/src/draw/../misc/lv_color.h **** #error "LV_COLOR_DEPTH 24 is deprecated. Use LV_COLOR_DEPTH 32 instead (lv_conf.h)"
  24:Drivers/lvgl/lvgl/src/draw/../misc/lv_color.h **** #endif
  25:Drivers/lvgl/lvgl/src/draw/../misc/lv_color.h **** 
  26:Drivers/lvgl/lvgl/src/draw/../misc/lv_color.h **** #if LV_COLOR_DEPTH != 16 && LV_COLOR_16_SWAP != 0
  27:Drivers/lvgl/lvgl/src/draw/../misc/lv_color.h **** #error "LV_COLOR_16_SWAP requires LV_COLOR_DEPTH == 16. Set it in lv_conf.h"
  28:Drivers/lvgl/lvgl/src/draw/../misc/lv_color.h **** #endif
  29:Drivers/lvgl/lvgl/src/draw/../misc/lv_color.h **** 
  30:Drivers/lvgl/lvgl/src/draw/../misc/lv_color.h **** #include <stdint.h>
  31:Drivers/lvgl/lvgl/src/draw/../misc/lv_color.h **** 
  32:Drivers/lvgl/lvgl/src/draw/../misc/lv_color.h **** /*********************
  33:Drivers/lvgl/lvgl/src/draw/../misc/lv_color.h ****  *      DEFINES
  34:Drivers/lvgl/lvgl/src/draw/../misc/lv_color.h ****  *********************/
  35:Drivers/lvgl/lvgl/src/draw/../misc/lv_color.h **** LV_EXPORT_CONST_INT(LV_COLOR_DEPTH);
  36:Drivers/lvgl/lvgl/src/draw/../misc/lv_color.h **** LV_EXPORT_CONST_INT(LV_COLOR_16_SWAP);
  37:Drivers/lvgl/lvgl/src/draw/../misc/lv_color.h **** 
  38:Drivers/lvgl/lvgl/src/draw/../misc/lv_color.h **** /**
  39:Drivers/lvgl/lvgl/src/draw/../misc/lv_color.h ****  * Opacity percentages.
  40:Drivers/lvgl/lvgl/src/draw/../misc/lv_color.h ****  */
  41:Drivers/lvgl/lvgl/src/draw/../misc/lv_color.h **** enum {
  42:Drivers/lvgl/lvgl/src/draw/../misc/lv_color.h ****     LV_OPA_TRANSP = 0,
  43:Drivers/lvgl/lvgl/src/draw/../misc/lv_color.h ****     LV_OPA_0      = 0,
  44:Drivers/lvgl/lvgl/src/draw/../misc/lv_color.h ****     LV_OPA_10     = 25,
  45:Drivers/lvgl/lvgl/src/draw/../misc/lv_color.h ****     LV_OPA_20     = 51,
  46:Drivers/lvgl/lvgl/src/draw/../misc/lv_color.h ****     LV_OPA_30     = 76,
  47:Drivers/lvgl/lvgl/src/draw/../misc/lv_color.h ****     LV_OPA_40     = 102,
  48:Drivers/lvgl/lvgl/src/draw/../misc/lv_color.h ****     LV_OPA_50     = 127,
  49:Drivers/lvgl/lvgl/src/draw/../misc/lv_color.h ****     LV_OPA_60     = 153,
  50:Drivers/lvgl/lvgl/src/draw/../misc/lv_color.h ****     LV_OPA_70     = 178,
  51:Drivers/lvgl/lvgl/src/draw/../misc/lv_color.h ****     LV_OPA_80     = 204,
  52:Drivers/lvgl/lvgl/src/draw/../misc/lv_color.h ****     LV_OPA_90     = 229,
  53:Drivers/lvgl/lvgl/src/draw/../misc/lv_color.h ****     LV_OPA_100    = 255,
  54:Drivers/lvgl/lvgl/src/draw/../misc/lv_color.h ****     LV_OPA_COVER  = 255,
  55:Drivers/lvgl/lvgl/src/draw/../misc/lv_color.h **** };
  56:Drivers/lvgl/lvgl/src/draw/../misc/lv_color.h **** 
  57:Drivers/lvgl/lvgl/src/draw/../misc/lv_color.h **** #define LV_OPA_MIN 2    /*Opacities below this will be transparent*/
  58:Drivers/lvgl/lvgl/src/draw/../misc/lv_color.h **** #define LV_OPA_MAX 253  /*Opacities above this will fully cover*/
  59:Drivers/lvgl/lvgl/src/draw/../misc/lv_color.h **** 
  60:Drivers/lvgl/lvgl/src/draw/../misc/lv_color.h **** #if LV_COLOR_DEPTH == 1
  61:Drivers/lvgl/lvgl/src/draw/../misc/lv_color.h **** #define LV_COLOR_SIZE 8
  62:Drivers/lvgl/lvgl/src/draw/../misc/lv_color.h **** #elif LV_COLOR_DEPTH == 8
  63:Drivers/lvgl/lvgl/src/draw/../misc/lv_color.h **** #define LV_COLOR_SIZE 8
  64:Drivers/lvgl/lvgl/src/draw/../misc/lv_color.h **** #elif LV_COLOR_DEPTH == 16
  65:Drivers/lvgl/lvgl/src/draw/../misc/lv_color.h **** #define LV_COLOR_SIZE 16
  66:Drivers/lvgl/lvgl/src/draw/../misc/lv_color.h **** #elif LV_COLOR_DEPTH == 32
  67:Drivers/lvgl/lvgl/src/draw/../misc/lv_color.h **** #define LV_COLOR_SIZE 32
  68:Drivers/lvgl/lvgl/src/draw/../misc/lv_color.h **** #else
  69:Drivers/lvgl/lvgl/src/draw/../misc/lv_color.h **** #error "Invalid LV_COLOR_DEPTH in lv_conf.h! Set it to 1, 8, 16 or 32!"
  70:Drivers/lvgl/lvgl/src/draw/../misc/lv_color.h **** #endif
  71:Drivers/lvgl/lvgl/src/draw/../misc/lv_color.h **** 
  72:Drivers/lvgl/lvgl/src/draw/../misc/lv_color.h **** #if defined(__cplusplus) && !defined(_LV_COLOR_HAS_MODERN_CPP)
ARM GAS  /tmp/cc1OJ4An.s 			page 12


  73:Drivers/lvgl/lvgl/src/draw/../misc/lv_color.h **** /**
  74:Drivers/lvgl/lvgl/src/draw/../misc/lv_color.h **** * MSVC compiler's definition of the __cplusplus indicating 199711L regardless to C++ standard versi
  75:Drivers/lvgl/lvgl/src/draw/../misc/lv_color.h **** * see https://devblogs.microsoft.com/cppblog/msvc-now-correctly-reports-cplusplus
  76:Drivers/lvgl/lvgl/src/draw/../misc/lv_color.h **** * so we use _MSC_VER macro instead of __cplusplus
  77:Drivers/lvgl/lvgl/src/draw/../misc/lv_color.h **** */
  78:Drivers/lvgl/lvgl/src/draw/../misc/lv_color.h **** #ifdef _MSC_VER
  79:Drivers/lvgl/lvgl/src/draw/../misc/lv_color.h **** #if _MSC_VER >= 1900 /*Visual Studio 2015*/
  80:Drivers/lvgl/lvgl/src/draw/../misc/lv_color.h **** #define _LV_COLOR_HAS_MODERN_CPP 1
  81:Drivers/lvgl/lvgl/src/draw/../misc/lv_color.h **** #endif
  82:Drivers/lvgl/lvgl/src/draw/../misc/lv_color.h **** #else
  83:Drivers/lvgl/lvgl/src/draw/../misc/lv_color.h **** #if __cplusplus >= 201103L
  84:Drivers/lvgl/lvgl/src/draw/../misc/lv_color.h **** #define _LV_COLOR_HAS_MODERN_CPP 1
  85:Drivers/lvgl/lvgl/src/draw/../misc/lv_color.h **** #endif
  86:Drivers/lvgl/lvgl/src/draw/../misc/lv_color.h **** #endif
  87:Drivers/lvgl/lvgl/src/draw/../misc/lv_color.h **** #endif /*__cplusplus*/
  88:Drivers/lvgl/lvgl/src/draw/../misc/lv_color.h **** 
  89:Drivers/lvgl/lvgl/src/draw/../misc/lv_color.h **** #ifndef _LV_COLOR_HAS_MODERN_CPP
  90:Drivers/lvgl/lvgl/src/draw/../misc/lv_color.h **** #define _LV_COLOR_HAS_MODERN_CPP 0
  91:Drivers/lvgl/lvgl/src/draw/../misc/lv_color.h **** #endif
  92:Drivers/lvgl/lvgl/src/draw/../misc/lv_color.h **** 
  93:Drivers/lvgl/lvgl/src/draw/../misc/lv_color.h **** #if _LV_COLOR_HAS_MODERN_CPP
  94:Drivers/lvgl/lvgl/src/draw/../misc/lv_color.h **** /*Fix msvc compiler error C4576 inside C++ code*/
  95:Drivers/lvgl/lvgl/src/draw/../misc/lv_color.h **** #define _LV_COLOR_MAKE_TYPE_HELPER lv_color_t
  96:Drivers/lvgl/lvgl/src/draw/../misc/lv_color.h **** #else
  97:Drivers/lvgl/lvgl/src/draw/../misc/lv_color.h **** #define _LV_COLOR_MAKE_TYPE_HELPER (lv_color_t)
  98:Drivers/lvgl/lvgl/src/draw/../misc/lv_color.h **** #endif
  99:Drivers/lvgl/lvgl/src/draw/../misc/lv_color.h **** 
 100:Drivers/lvgl/lvgl/src/draw/../misc/lv_color.h **** /*---------------------------------------
 101:Drivers/lvgl/lvgl/src/draw/../misc/lv_color.h ****  * Macros for all existing color depths
 102:Drivers/lvgl/lvgl/src/draw/../misc/lv_color.h ****  * to set/get values of the color channels
 103:Drivers/lvgl/lvgl/src/draw/../misc/lv_color.h ****  *------------------------------------------*/
 104:Drivers/lvgl/lvgl/src/draw/../misc/lv_color.h **** # define LV_COLOR_SET_R1(c, v) (c).ch.red = (uint8_t)((v) & 0x1)
 105:Drivers/lvgl/lvgl/src/draw/../misc/lv_color.h **** # define LV_COLOR_SET_G1(c, v) (c).ch.green = (uint8_t)((v) & 0x1)
 106:Drivers/lvgl/lvgl/src/draw/../misc/lv_color.h **** # define LV_COLOR_SET_B1(c, v) (c).ch.blue = (uint8_t)((v) & 0x1)
 107:Drivers/lvgl/lvgl/src/draw/../misc/lv_color.h **** # define LV_COLOR_SET_A1(c, v) do {} while(0)
 108:Drivers/lvgl/lvgl/src/draw/../misc/lv_color.h **** 
 109:Drivers/lvgl/lvgl/src/draw/../misc/lv_color.h **** # define LV_COLOR_GET_R1(c) (c).ch.red
 110:Drivers/lvgl/lvgl/src/draw/../misc/lv_color.h **** # define LV_COLOR_GET_G1(c) (c).ch.green
 111:Drivers/lvgl/lvgl/src/draw/../misc/lv_color.h **** # define LV_COLOR_GET_B1(c) (c).ch.blue
 112:Drivers/lvgl/lvgl/src/draw/../misc/lv_color.h **** # define LV_COLOR_GET_A1(c) 0xFF
 113:Drivers/lvgl/lvgl/src/draw/../misc/lv_color.h **** 
 114:Drivers/lvgl/lvgl/src/draw/../misc/lv_color.h **** # define _LV_COLOR_ZERO_INITIALIZER1 {0x00}
 115:Drivers/lvgl/lvgl/src/draw/../misc/lv_color.h **** # define LV_COLOR_MAKE1(r8, g8, b8)  {(uint8_t)((b8 >> 7) | (g8 >> 7) | (r8 >> 7))}
 116:Drivers/lvgl/lvgl/src/draw/../misc/lv_color.h **** 
 117:Drivers/lvgl/lvgl/src/draw/../misc/lv_color.h **** # define LV_COLOR_SET_R8(c, v) (c).ch.red = (uint8_t)((v) & 0x7U)
 118:Drivers/lvgl/lvgl/src/draw/../misc/lv_color.h **** # define LV_COLOR_SET_G8(c, v) (c).ch.green = (uint8_t)((v) & 0x7U)
 119:Drivers/lvgl/lvgl/src/draw/../misc/lv_color.h **** # define LV_COLOR_SET_B8(c, v) (c).ch.blue = (uint8_t)((v) & 0x3U)
 120:Drivers/lvgl/lvgl/src/draw/../misc/lv_color.h **** # define LV_COLOR_SET_A8(c, v) do {} while(0)
 121:Drivers/lvgl/lvgl/src/draw/../misc/lv_color.h **** 
 122:Drivers/lvgl/lvgl/src/draw/../misc/lv_color.h **** # define LV_COLOR_GET_R8(c) (c).ch.red
 123:Drivers/lvgl/lvgl/src/draw/../misc/lv_color.h **** # define LV_COLOR_GET_G8(c) (c).ch.green
 124:Drivers/lvgl/lvgl/src/draw/../misc/lv_color.h **** # define LV_COLOR_GET_B8(c) (c).ch.blue
 125:Drivers/lvgl/lvgl/src/draw/../misc/lv_color.h **** # define LV_COLOR_GET_A8(c) 0xFF
 126:Drivers/lvgl/lvgl/src/draw/../misc/lv_color.h **** 
 127:Drivers/lvgl/lvgl/src/draw/../misc/lv_color.h **** # define _LV_COLOR_ZERO_INITIALIZER8 {{0x00, 0x00, 0x00}}
 128:Drivers/lvgl/lvgl/src/draw/../misc/lv_color.h **** # define LV_COLOR_MAKE8(r8, g8, b8) {{(uint8_t)((b8 >> 6) & 0x3U), (uint8_t)((g8 >> 5) & 0x7U), (ui
 129:Drivers/lvgl/lvgl/src/draw/../misc/lv_color.h **** 
ARM GAS  /tmp/cc1OJ4An.s 			page 13


 130:Drivers/lvgl/lvgl/src/draw/../misc/lv_color.h **** # define LV_COLOR_SET_R16(c, v) (c).ch.red = (uint8_t)((v) & 0x1FU)
 131:Drivers/lvgl/lvgl/src/draw/../misc/lv_color.h **** #if LV_COLOR_16_SWAP == 0
 132:Drivers/lvgl/lvgl/src/draw/../misc/lv_color.h **** # define LV_COLOR_SET_G16(c, v) (c).ch.green = (uint8_t)((v) & 0x3FU)
 133:Drivers/lvgl/lvgl/src/draw/../misc/lv_color.h **** #else
 134:Drivers/lvgl/lvgl/src/draw/../misc/lv_color.h **** # define LV_COLOR_SET_G16(c, v) {(c).ch.green_h = (uint8_t)(((v) >> 3) & 0x7); (c).ch.green_l = (ui
 135:Drivers/lvgl/lvgl/src/draw/../misc/lv_color.h **** #endif
 136:Drivers/lvgl/lvgl/src/draw/../misc/lv_color.h **** # define LV_COLOR_SET_B16(c, v) (c).ch.blue = (uint8_t)((v) & 0x1FU)
 137:Drivers/lvgl/lvgl/src/draw/../misc/lv_color.h **** # define LV_COLOR_SET_A16(c, v) do {} while(0)
 138:Drivers/lvgl/lvgl/src/draw/../misc/lv_color.h **** 
 139:Drivers/lvgl/lvgl/src/draw/../misc/lv_color.h **** # define LV_COLOR_GET_R16(c) (c).ch.red
 140:Drivers/lvgl/lvgl/src/draw/../misc/lv_color.h **** #if LV_COLOR_16_SWAP == 0
 141:Drivers/lvgl/lvgl/src/draw/../misc/lv_color.h **** # define LV_COLOR_GET_G16(c) (c).ch.green
 142:Drivers/lvgl/lvgl/src/draw/../misc/lv_color.h **** #else
 143:Drivers/lvgl/lvgl/src/draw/../misc/lv_color.h **** # define LV_COLOR_GET_G16(c) (((c).ch.green_h << 3) + (c).ch.green_l)
 144:Drivers/lvgl/lvgl/src/draw/../misc/lv_color.h **** #endif
 145:Drivers/lvgl/lvgl/src/draw/../misc/lv_color.h **** # define LV_COLOR_GET_B16(c) (c).ch.blue
 146:Drivers/lvgl/lvgl/src/draw/../misc/lv_color.h **** # define LV_COLOR_GET_A16(c) 0xFF
 147:Drivers/lvgl/lvgl/src/draw/../misc/lv_color.h **** 
 148:Drivers/lvgl/lvgl/src/draw/../misc/lv_color.h **** #if LV_COLOR_16_SWAP == 0
 149:Drivers/lvgl/lvgl/src/draw/../misc/lv_color.h **** # define _LV_COLOR_ZERO_INITIALIZER16  {{0x00, 0x00, 0x00}}
 150:Drivers/lvgl/lvgl/src/draw/../misc/lv_color.h **** # define LV_COLOR_MAKE16(r8, g8, b8) {{(uint8_t)((b8 >> 3) & 0x1FU), (uint8_t)((g8 >> 2) & 0x3FU), 
 151:Drivers/lvgl/lvgl/src/draw/../misc/lv_color.h **** #else
 152:Drivers/lvgl/lvgl/src/draw/../misc/lv_color.h **** # define _LV_COLOR_ZERO_INITIALIZER16 {{0x00, 0x00, 0x00, 0x00}}
 153:Drivers/lvgl/lvgl/src/draw/../misc/lv_color.h **** # define LV_COLOR_MAKE16(r8, g8, b8) {{(uint8_t)((g8 >> 5) & 0x7U), (uint8_t)((r8 >> 3) & 0x1FU), (
 154:Drivers/lvgl/lvgl/src/draw/../misc/lv_color.h **** #endif
 155:Drivers/lvgl/lvgl/src/draw/../misc/lv_color.h **** 
 156:Drivers/lvgl/lvgl/src/draw/../misc/lv_color.h **** # define LV_COLOR_SET_R32(c, v) (c).ch.red = (uint8_t)((v) & 0xFF)
 157:Drivers/lvgl/lvgl/src/draw/../misc/lv_color.h **** # define LV_COLOR_SET_G32(c, v) (c).ch.green = (uint8_t)((v) & 0xFF)
 158:Drivers/lvgl/lvgl/src/draw/../misc/lv_color.h **** # define LV_COLOR_SET_B32(c, v) (c).ch.blue = (uint8_t)((v) & 0xFF)
 159:Drivers/lvgl/lvgl/src/draw/../misc/lv_color.h **** # define LV_COLOR_SET_A32(c, v) (c).ch.alpha = (uint8_t)((v) & 0xFF)
 160:Drivers/lvgl/lvgl/src/draw/../misc/lv_color.h **** 
 161:Drivers/lvgl/lvgl/src/draw/../misc/lv_color.h **** # define LV_COLOR_GET_R32(c) (c).ch.red
 162:Drivers/lvgl/lvgl/src/draw/../misc/lv_color.h **** # define LV_COLOR_GET_G32(c) (c).ch.green
 163:Drivers/lvgl/lvgl/src/draw/../misc/lv_color.h **** # define LV_COLOR_GET_B32(c) (c).ch.blue
 164:Drivers/lvgl/lvgl/src/draw/../misc/lv_color.h **** # define LV_COLOR_GET_A32(c) (c).ch.alpha
 165:Drivers/lvgl/lvgl/src/draw/../misc/lv_color.h **** 
 166:Drivers/lvgl/lvgl/src/draw/../misc/lv_color.h **** # define _LV_COLOR_ZERO_INITIALIZER32  {{0x00, 0x00, 0x00, 0x00}}
 167:Drivers/lvgl/lvgl/src/draw/../misc/lv_color.h **** # define LV_COLOR_MAKE32(r8, g8, b8) {{b8, g8, r8, 0xff}} /*Fix 0xff alpha*/
 168:Drivers/lvgl/lvgl/src/draw/../misc/lv_color.h **** 
 169:Drivers/lvgl/lvgl/src/draw/../misc/lv_color.h **** /*---------------------------------------
 170:Drivers/lvgl/lvgl/src/draw/../misc/lv_color.h ****  * Macros for the current color depth
 171:Drivers/lvgl/lvgl/src/draw/../misc/lv_color.h ****  * to set/get values of the color channels
 172:Drivers/lvgl/lvgl/src/draw/../misc/lv_color.h ****  *------------------------------------------*/
 173:Drivers/lvgl/lvgl/src/draw/../misc/lv_color.h **** #define LV_COLOR_SET_R(c, v) LV_CONCAT(LV_COLOR_SET_R, LV_COLOR_DEPTH)(c, v)
 174:Drivers/lvgl/lvgl/src/draw/../misc/lv_color.h **** #define LV_COLOR_SET_G(c, v) LV_CONCAT(LV_COLOR_SET_G, LV_COLOR_DEPTH)(c, v)
 175:Drivers/lvgl/lvgl/src/draw/../misc/lv_color.h **** #define LV_COLOR_SET_B(c, v) LV_CONCAT(LV_COLOR_SET_B, LV_COLOR_DEPTH)(c, v)
 176:Drivers/lvgl/lvgl/src/draw/../misc/lv_color.h **** #define LV_COLOR_SET_A(c, v) LV_CONCAT(LV_COLOR_SET_A, LV_COLOR_DEPTH)(c, v)
 177:Drivers/lvgl/lvgl/src/draw/../misc/lv_color.h **** 
 178:Drivers/lvgl/lvgl/src/draw/../misc/lv_color.h **** #define LV_COLOR_GET_R(c) LV_CONCAT(LV_COLOR_GET_R, LV_COLOR_DEPTH)(c)
 179:Drivers/lvgl/lvgl/src/draw/../misc/lv_color.h **** #define LV_COLOR_GET_G(c) LV_CONCAT(LV_COLOR_GET_G, LV_COLOR_DEPTH)(c)
 180:Drivers/lvgl/lvgl/src/draw/../misc/lv_color.h **** #define LV_COLOR_GET_B(c) LV_CONCAT(LV_COLOR_GET_B, LV_COLOR_DEPTH)(c)
 181:Drivers/lvgl/lvgl/src/draw/../misc/lv_color.h **** #define LV_COLOR_GET_A(c) LV_CONCAT(LV_COLOR_GET_A, LV_COLOR_DEPTH)(c)
 182:Drivers/lvgl/lvgl/src/draw/../misc/lv_color.h **** 
 183:Drivers/lvgl/lvgl/src/draw/../misc/lv_color.h **** #define _LV_COLOR_ZERO_INITIALIZER LV_CONCAT(_LV_COLOR_ZERO_INITIALIZER, LV_COLOR_DEPTH)
 184:Drivers/lvgl/lvgl/src/draw/../misc/lv_color.h **** #define LV_COLOR_MAKE(r8, g8, b8) LV_CONCAT(LV_COLOR_MAKE, LV_COLOR_DEPTH)(r8, g8, b8)
 185:Drivers/lvgl/lvgl/src/draw/../misc/lv_color.h **** 
 186:Drivers/lvgl/lvgl/src/draw/../misc/lv_color.h **** /**********************
ARM GAS  /tmp/cc1OJ4An.s 			page 14


 187:Drivers/lvgl/lvgl/src/draw/../misc/lv_color.h ****  *      TYPEDEFS
 188:Drivers/lvgl/lvgl/src/draw/../misc/lv_color.h ****  **********************/
 189:Drivers/lvgl/lvgl/src/draw/../misc/lv_color.h **** 
 190:Drivers/lvgl/lvgl/src/draw/../misc/lv_color.h **** typedef union {
 191:Drivers/lvgl/lvgl/src/draw/../misc/lv_color.h ****     uint8_t full; /*must be declared first to set all bits of byte via initializer list*/
 192:Drivers/lvgl/lvgl/src/draw/../misc/lv_color.h ****     union {
 193:Drivers/lvgl/lvgl/src/draw/../misc/lv_color.h ****         uint8_t blue : 1;
 194:Drivers/lvgl/lvgl/src/draw/../misc/lv_color.h ****         uint8_t green : 1;
 195:Drivers/lvgl/lvgl/src/draw/../misc/lv_color.h ****         uint8_t red : 1;
 196:Drivers/lvgl/lvgl/src/draw/../misc/lv_color.h ****     } ch;
 197:Drivers/lvgl/lvgl/src/draw/../misc/lv_color.h **** } lv_color1_t;
 198:Drivers/lvgl/lvgl/src/draw/../misc/lv_color.h **** 
 199:Drivers/lvgl/lvgl/src/draw/../misc/lv_color.h **** typedef union {
 200:Drivers/lvgl/lvgl/src/draw/../misc/lv_color.h ****     struct {
 201:Drivers/lvgl/lvgl/src/draw/../misc/lv_color.h ****         uint8_t blue : 2;
 202:Drivers/lvgl/lvgl/src/draw/../misc/lv_color.h ****         uint8_t green : 3;
 203:Drivers/lvgl/lvgl/src/draw/../misc/lv_color.h ****         uint8_t red : 3;
 204:Drivers/lvgl/lvgl/src/draw/../misc/lv_color.h ****     } ch;
 205:Drivers/lvgl/lvgl/src/draw/../misc/lv_color.h ****     uint8_t full;
 206:Drivers/lvgl/lvgl/src/draw/../misc/lv_color.h **** } lv_color8_t;
 207:Drivers/lvgl/lvgl/src/draw/../misc/lv_color.h **** 
 208:Drivers/lvgl/lvgl/src/draw/../misc/lv_color.h **** typedef union {
 209:Drivers/lvgl/lvgl/src/draw/../misc/lv_color.h ****     struct {
 210:Drivers/lvgl/lvgl/src/draw/../misc/lv_color.h **** #if LV_COLOR_16_SWAP == 0
 211:Drivers/lvgl/lvgl/src/draw/../misc/lv_color.h ****         uint16_t blue : 5;
 212:Drivers/lvgl/lvgl/src/draw/../misc/lv_color.h ****         uint16_t green : 6;
 213:Drivers/lvgl/lvgl/src/draw/../misc/lv_color.h ****         uint16_t red : 5;
 214:Drivers/lvgl/lvgl/src/draw/../misc/lv_color.h **** #else
 215:Drivers/lvgl/lvgl/src/draw/../misc/lv_color.h ****         uint16_t green_h : 3;
 216:Drivers/lvgl/lvgl/src/draw/../misc/lv_color.h ****         uint16_t red : 5;
 217:Drivers/lvgl/lvgl/src/draw/../misc/lv_color.h ****         uint16_t blue : 5;
 218:Drivers/lvgl/lvgl/src/draw/../misc/lv_color.h ****         uint16_t green_l : 3;
 219:Drivers/lvgl/lvgl/src/draw/../misc/lv_color.h **** #endif
 220:Drivers/lvgl/lvgl/src/draw/../misc/lv_color.h ****     } ch;
 221:Drivers/lvgl/lvgl/src/draw/../misc/lv_color.h ****     uint16_t full;
 222:Drivers/lvgl/lvgl/src/draw/../misc/lv_color.h **** } lv_color16_t;
 223:Drivers/lvgl/lvgl/src/draw/../misc/lv_color.h **** 
 224:Drivers/lvgl/lvgl/src/draw/../misc/lv_color.h **** typedef union {
 225:Drivers/lvgl/lvgl/src/draw/../misc/lv_color.h ****     struct {
 226:Drivers/lvgl/lvgl/src/draw/../misc/lv_color.h ****         uint8_t blue;
 227:Drivers/lvgl/lvgl/src/draw/../misc/lv_color.h ****         uint8_t green;
 228:Drivers/lvgl/lvgl/src/draw/../misc/lv_color.h ****         uint8_t red;
 229:Drivers/lvgl/lvgl/src/draw/../misc/lv_color.h ****         uint8_t alpha;
 230:Drivers/lvgl/lvgl/src/draw/../misc/lv_color.h ****     } ch;
 231:Drivers/lvgl/lvgl/src/draw/../misc/lv_color.h ****     uint32_t full;
 232:Drivers/lvgl/lvgl/src/draw/../misc/lv_color.h **** } lv_color32_t;
 233:Drivers/lvgl/lvgl/src/draw/../misc/lv_color.h **** 
 234:Drivers/lvgl/lvgl/src/draw/../misc/lv_color.h **** typedef LV_CONCAT3(uint, LV_COLOR_SIZE, _t) lv_color_int_t;
 235:Drivers/lvgl/lvgl/src/draw/../misc/lv_color.h **** typedef LV_CONCAT3(lv_color, LV_COLOR_DEPTH, _t) lv_color_t;
 236:Drivers/lvgl/lvgl/src/draw/../misc/lv_color.h **** 
 237:Drivers/lvgl/lvgl/src/draw/../misc/lv_color.h **** typedef struct {
 238:Drivers/lvgl/lvgl/src/draw/../misc/lv_color.h ****     uint16_t h;
 239:Drivers/lvgl/lvgl/src/draw/../misc/lv_color.h ****     uint8_t s;
 240:Drivers/lvgl/lvgl/src/draw/../misc/lv_color.h ****     uint8_t v;
 241:Drivers/lvgl/lvgl/src/draw/../misc/lv_color.h **** } lv_color_hsv_t;
 242:Drivers/lvgl/lvgl/src/draw/../misc/lv_color.h **** 
 243:Drivers/lvgl/lvgl/src/draw/../misc/lv_color.h **** //! @cond Doxygen_Suppress
ARM GAS  /tmp/cc1OJ4An.s 			page 15


 244:Drivers/lvgl/lvgl/src/draw/../misc/lv_color.h **** /*No idea where the guard is required but else throws warnings in the docs*/
 245:Drivers/lvgl/lvgl/src/draw/../misc/lv_color.h **** typedef uint8_t lv_opa_t;
 246:Drivers/lvgl/lvgl/src/draw/../misc/lv_color.h **** //! @endcond
 247:Drivers/lvgl/lvgl/src/draw/../misc/lv_color.h **** 
 248:Drivers/lvgl/lvgl/src/draw/../misc/lv_color.h **** struct _lv_color_filter_dsc_t;
 249:Drivers/lvgl/lvgl/src/draw/../misc/lv_color.h **** 
 250:Drivers/lvgl/lvgl/src/draw/../misc/lv_color.h **** typedef lv_color_t (*lv_color_filter_cb_t)(const struct _lv_color_filter_dsc_t *, lv_color_t, lv_op
 251:Drivers/lvgl/lvgl/src/draw/../misc/lv_color.h **** 
 252:Drivers/lvgl/lvgl/src/draw/../misc/lv_color.h **** typedef struct _lv_color_filter_dsc_t {
 253:Drivers/lvgl/lvgl/src/draw/../misc/lv_color.h ****     lv_color_filter_cb_t filter_cb;
 254:Drivers/lvgl/lvgl/src/draw/../misc/lv_color.h ****     void * user_data;
 255:Drivers/lvgl/lvgl/src/draw/../misc/lv_color.h **** } lv_color_filter_dsc_t;
 256:Drivers/lvgl/lvgl/src/draw/../misc/lv_color.h **** 
 257:Drivers/lvgl/lvgl/src/draw/../misc/lv_color.h **** 
 258:Drivers/lvgl/lvgl/src/draw/../misc/lv_color.h **** typedef enum {
 259:Drivers/lvgl/lvgl/src/draw/../misc/lv_color.h ****     LV_PALETTE_RED,
 260:Drivers/lvgl/lvgl/src/draw/../misc/lv_color.h ****     LV_PALETTE_PINK,
 261:Drivers/lvgl/lvgl/src/draw/../misc/lv_color.h ****     LV_PALETTE_PURPLE,
 262:Drivers/lvgl/lvgl/src/draw/../misc/lv_color.h ****     LV_PALETTE_DEEP_PURPLE,
 263:Drivers/lvgl/lvgl/src/draw/../misc/lv_color.h ****     LV_PALETTE_INDIGO,
 264:Drivers/lvgl/lvgl/src/draw/../misc/lv_color.h ****     LV_PALETTE_BLUE,
 265:Drivers/lvgl/lvgl/src/draw/../misc/lv_color.h ****     LV_PALETTE_LIGHT_BLUE,
 266:Drivers/lvgl/lvgl/src/draw/../misc/lv_color.h ****     LV_PALETTE_CYAN,
 267:Drivers/lvgl/lvgl/src/draw/../misc/lv_color.h ****     LV_PALETTE_TEAL,
 268:Drivers/lvgl/lvgl/src/draw/../misc/lv_color.h ****     LV_PALETTE_GREEN,
 269:Drivers/lvgl/lvgl/src/draw/../misc/lv_color.h ****     LV_PALETTE_LIGHT_GREEN,
 270:Drivers/lvgl/lvgl/src/draw/../misc/lv_color.h ****     LV_PALETTE_LIME,
 271:Drivers/lvgl/lvgl/src/draw/../misc/lv_color.h ****     LV_PALETTE_YELLOW,
 272:Drivers/lvgl/lvgl/src/draw/../misc/lv_color.h ****     LV_PALETTE_AMBER,
 273:Drivers/lvgl/lvgl/src/draw/../misc/lv_color.h ****     LV_PALETTE_ORANGE,
 274:Drivers/lvgl/lvgl/src/draw/../misc/lv_color.h ****     LV_PALETTE_DEEP_ORANGE,
 275:Drivers/lvgl/lvgl/src/draw/../misc/lv_color.h ****     LV_PALETTE_BROWN,
 276:Drivers/lvgl/lvgl/src/draw/../misc/lv_color.h ****     LV_PALETTE_BLUE_GREY,
 277:Drivers/lvgl/lvgl/src/draw/../misc/lv_color.h ****     LV_PALETTE_GREY,
 278:Drivers/lvgl/lvgl/src/draw/../misc/lv_color.h ****     _LV_PALETTE_LAST,
 279:Drivers/lvgl/lvgl/src/draw/../misc/lv_color.h ****     LV_PALETTE_NONE = 0xff,
 280:Drivers/lvgl/lvgl/src/draw/../misc/lv_color.h **** } lv_palette_t;
 281:Drivers/lvgl/lvgl/src/draw/../misc/lv_color.h **** 
 282:Drivers/lvgl/lvgl/src/draw/../misc/lv_color.h **** /**********************
 283:Drivers/lvgl/lvgl/src/draw/../misc/lv_color.h ****  * GLOBAL PROTOTYPES
 284:Drivers/lvgl/lvgl/src/draw/../misc/lv_color.h ****  **********************/
 285:Drivers/lvgl/lvgl/src/draw/../misc/lv_color.h **** 
 286:Drivers/lvgl/lvgl/src/draw/../misc/lv_color.h **** /*In color conversations:
 287:Drivers/lvgl/lvgl/src/draw/../misc/lv_color.h ****  * - When converting to bigger color type the LSB weight of 1 LSB is calculated
 288:Drivers/lvgl/lvgl/src/draw/../misc/lv_color.h ****  *   E.g. 16 bit Red has 5 bits
 289:Drivers/lvgl/lvgl/src/draw/../misc/lv_color.h ****  *         8 bit Red has 3 bits
 290:Drivers/lvgl/lvgl/src/draw/../misc/lv_color.h ****  *        ----------------------
 291:Drivers/lvgl/lvgl/src/draw/../misc/lv_color.h ****  *        8 bit red LSB = (2^5 - 1) / (2^3 - 1) = 31 / 7 = 4
 292:Drivers/lvgl/lvgl/src/draw/../misc/lv_color.h ****  *
 293:Drivers/lvgl/lvgl/src/draw/../misc/lv_color.h ****  * - When calculating to smaller color type simply shift out the LSBs
 294:Drivers/lvgl/lvgl/src/draw/../misc/lv_color.h ****  *   E.g.  8 bit Red has 3 bits
 295:Drivers/lvgl/lvgl/src/draw/../misc/lv_color.h ****  *        16 bit Red has 5 bits
 296:Drivers/lvgl/lvgl/src/draw/../misc/lv_color.h ****  *        ----------------------
 297:Drivers/lvgl/lvgl/src/draw/../misc/lv_color.h ****  *         Shift right with 5 - 3 = 2
 298:Drivers/lvgl/lvgl/src/draw/../misc/lv_color.h ****  */
 299:Drivers/lvgl/lvgl/src/draw/../misc/lv_color.h **** static inline uint8_t lv_color_to1(lv_color_t color)
 300:Drivers/lvgl/lvgl/src/draw/../misc/lv_color.h **** {
ARM GAS  /tmp/cc1OJ4An.s 			page 16


 301:Drivers/lvgl/lvgl/src/draw/../misc/lv_color.h **** #if LV_COLOR_DEPTH == 1
 302:Drivers/lvgl/lvgl/src/draw/../misc/lv_color.h ****     return color.full;
 303:Drivers/lvgl/lvgl/src/draw/../misc/lv_color.h **** #elif LV_COLOR_DEPTH == 8
 304:Drivers/lvgl/lvgl/src/draw/../misc/lv_color.h ****     if((LV_COLOR_GET_R(color) & 0x4) || (LV_COLOR_GET_G(color) & 0x4) || (LV_COLOR_GET_B(color) & 0
 305:Drivers/lvgl/lvgl/src/draw/../misc/lv_color.h ****         return 1;
 306:Drivers/lvgl/lvgl/src/draw/../misc/lv_color.h ****     }
 307:Drivers/lvgl/lvgl/src/draw/../misc/lv_color.h ****     else {
 308:Drivers/lvgl/lvgl/src/draw/../misc/lv_color.h ****         return 0;
 309:Drivers/lvgl/lvgl/src/draw/../misc/lv_color.h ****     }
 310:Drivers/lvgl/lvgl/src/draw/../misc/lv_color.h **** #elif LV_COLOR_DEPTH == 16
 311:Drivers/lvgl/lvgl/src/draw/../misc/lv_color.h ****     if((LV_COLOR_GET_R(color) & 0x10) || (LV_COLOR_GET_G(color) & 0x20) || (LV_COLOR_GET_B(color) &
 312:Drivers/lvgl/lvgl/src/draw/../misc/lv_color.h ****         return 1;
 313:Drivers/lvgl/lvgl/src/draw/../misc/lv_color.h ****     }
 314:Drivers/lvgl/lvgl/src/draw/../misc/lv_color.h ****     else {
 315:Drivers/lvgl/lvgl/src/draw/../misc/lv_color.h ****         return 0;
 316:Drivers/lvgl/lvgl/src/draw/../misc/lv_color.h ****     }
 317:Drivers/lvgl/lvgl/src/draw/../misc/lv_color.h **** #elif LV_COLOR_DEPTH == 32
 318:Drivers/lvgl/lvgl/src/draw/../misc/lv_color.h ****     if((LV_COLOR_GET_R(color) & 0x80) || (LV_COLOR_GET_G(color) & 0x80) || (LV_COLOR_GET_B(color) &
 319:Drivers/lvgl/lvgl/src/draw/../misc/lv_color.h ****         return 1;
 320:Drivers/lvgl/lvgl/src/draw/../misc/lv_color.h ****     }
 321:Drivers/lvgl/lvgl/src/draw/../misc/lv_color.h ****     else {
 322:Drivers/lvgl/lvgl/src/draw/../misc/lv_color.h ****         return 0;
 323:Drivers/lvgl/lvgl/src/draw/../misc/lv_color.h ****     }
 324:Drivers/lvgl/lvgl/src/draw/../misc/lv_color.h **** #endif
 325:Drivers/lvgl/lvgl/src/draw/../misc/lv_color.h **** }
 326:Drivers/lvgl/lvgl/src/draw/../misc/lv_color.h **** 
 327:Drivers/lvgl/lvgl/src/draw/../misc/lv_color.h **** static inline uint8_t lv_color_to8(lv_color_t color)
 328:Drivers/lvgl/lvgl/src/draw/../misc/lv_color.h **** {
 329:Drivers/lvgl/lvgl/src/draw/../misc/lv_color.h **** #if LV_COLOR_DEPTH == 1
 330:Drivers/lvgl/lvgl/src/draw/../misc/lv_color.h ****     if(color.full == 0)
 331:Drivers/lvgl/lvgl/src/draw/../misc/lv_color.h ****         return 0;
 332:Drivers/lvgl/lvgl/src/draw/../misc/lv_color.h ****     else
 333:Drivers/lvgl/lvgl/src/draw/../misc/lv_color.h ****         return 0xFF;
 334:Drivers/lvgl/lvgl/src/draw/../misc/lv_color.h **** #elif LV_COLOR_DEPTH == 8
 335:Drivers/lvgl/lvgl/src/draw/../misc/lv_color.h ****     return color.full;
 336:Drivers/lvgl/lvgl/src/draw/../misc/lv_color.h **** #elif LV_COLOR_DEPTH == 16
 337:Drivers/lvgl/lvgl/src/draw/../misc/lv_color.h ****     lv_color8_t ret;
 338:Drivers/lvgl/lvgl/src/draw/../misc/lv_color.h ****     LV_COLOR_SET_R8(ret, LV_COLOR_GET_R(color) >> 2); /*5 - 3  = 2*/
 339:Drivers/lvgl/lvgl/src/draw/../misc/lv_color.h ****     LV_COLOR_SET_G8(ret, LV_COLOR_GET_G(color) >> 3); /*6 - 3  = 3*/
 340:Drivers/lvgl/lvgl/src/draw/../misc/lv_color.h ****     LV_COLOR_SET_B8(ret, LV_COLOR_GET_B(color) >> 3); /*5 - 2  = 3*/
 341:Drivers/lvgl/lvgl/src/draw/../misc/lv_color.h ****     return ret.full;
 342:Drivers/lvgl/lvgl/src/draw/../misc/lv_color.h **** #elif LV_COLOR_DEPTH == 32
 343:Drivers/lvgl/lvgl/src/draw/../misc/lv_color.h ****     lv_color8_t ret;
 344:Drivers/lvgl/lvgl/src/draw/../misc/lv_color.h ****     LV_COLOR_SET_R8(ret, LV_COLOR_GET_R(color) >> 5); /*8 - 3  = 5*/
 345:Drivers/lvgl/lvgl/src/draw/../misc/lv_color.h ****     LV_COLOR_SET_G8(ret, LV_COLOR_GET_G(color) >> 5); /*8 - 3  = 5*/
 346:Drivers/lvgl/lvgl/src/draw/../misc/lv_color.h ****     LV_COLOR_SET_B8(ret, LV_COLOR_GET_B(color) >> 6); /*8 - 2  = 6*/
 347:Drivers/lvgl/lvgl/src/draw/../misc/lv_color.h ****     return ret.full;
 348:Drivers/lvgl/lvgl/src/draw/../misc/lv_color.h **** #endif
 349:Drivers/lvgl/lvgl/src/draw/../misc/lv_color.h **** }
 350:Drivers/lvgl/lvgl/src/draw/../misc/lv_color.h **** 
 351:Drivers/lvgl/lvgl/src/draw/../misc/lv_color.h **** static inline uint16_t lv_color_to16(lv_color_t color)
 352:Drivers/lvgl/lvgl/src/draw/../misc/lv_color.h **** {
 353:Drivers/lvgl/lvgl/src/draw/../misc/lv_color.h **** #if LV_COLOR_DEPTH == 1
 354:Drivers/lvgl/lvgl/src/draw/../misc/lv_color.h ****     if(color.full == 0)
 355:Drivers/lvgl/lvgl/src/draw/../misc/lv_color.h ****         return 0;
 356:Drivers/lvgl/lvgl/src/draw/../misc/lv_color.h ****     else
 357:Drivers/lvgl/lvgl/src/draw/../misc/lv_color.h ****         return 0xFFFF;
ARM GAS  /tmp/cc1OJ4An.s 			page 17


 358:Drivers/lvgl/lvgl/src/draw/../misc/lv_color.h **** #elif LV_COLOR_DEPTH == 8
 359:Drivers/lvgl/lvgl/src/draw/../misc/lv_color.h ****     lv_color16_t ret;
 360:Drivers/lvgl/lvgl/src/draw/../misc/lv_color.h ****     LV_COLOR_SET_R16(ret, LV_COLOR_GET_R(color) * 4);  /*(2^5 - 1)/(2^3 - 1) = 31/7 = 4*/
 361:Drivers/lvgl/lvgl/src/draw/../misc/lv_color.h ****     LV_COLOR_SET_G16(ret, LV_COLOR_GET_G(color) * 9);  /*(2^6 - 1)/(2^3 - 1) = 63/7 = 9*/
 362:Drivers/lvgl/lvgl/src/draw/../misc/lv_color.h ****     LV_COLOR_SET_B16(ret, LV_COLOR_GET_B(color) * 10); /*(2^5 - 1)/(2^2 - 1) = 31/3 = 10*/
 363:Drivers/lvgl/lvgl/src/draw/../misc/lv_color.h ****     return ret.full;
 364:Drivers/lvgl/lvgl/src/draw/../misc/lv_color.h **** #elif LV_COLOR_DEPTH == 16
 365:Drivers/lvgl/lvgl/src/draw/../misc/lv_color.h ****     return color.full;
 366:Drivers/lvgl/lvgl/src/draw/../misc/lv_color.h **** #elif LV_COLOR_DEPTH == 32
 367:Drivers/lvgl/lvgl/src/draw/../misc/lv_color.h ****     lv_color16_t ret;
 368:Drivers/lvgl/lvgl/src/draw/../misc/lv_color.h ****     LV_COLOR_SET_R16(ret, LV_COLOR_GET_R(color) >> 3); /*8 - 5  = 3*/
 369:Drivers/lvgl/lvgl/src/draw/../misc/lv_color.h ****     LV_COLOR_SET_G16(ret, LV_COLOR_GET_G(color) >> 2); /*8 - 6  = 2*/
 370:Drivers/lvgl/lvgl/src/draw/../misc/lv_color.h ****     LV_COLOR_SET_B16(ret, LV_COLOR_GET_B(color) >> 3); /*8 - 5  = 3*/
 371:Drivers/lvgl/lvgl/src/draw/../misc/lv_color.h ****     return ret.full;
 372:Drivers/lvgl/lvgl/src/draw/../misc/lv_color.h **** #endif
 373:Drivers/lvgl/lvgl/src/draw/../misc/lv_color.h **** }
 374:Drivers/lvgl/lvgl/src/draw/../misc/lv_color.h **** 
 375:Drivers/lvgl/lvgl/src/draw/../misc/lv_color.h **** static inline uint32_t lv_color_to32(lv_color_t color)
 376:Drivers/lvgl/lvgl/src/draw/../misc/lv_color.h **** {
 377:Drivers/lvgl/lvgl/src/draw/../misc/lv_color.h **** #if LV_COLOR_DEPTH == 1
 378:Drivers/lvgl/lvgl/src/draw/../misc/lv_color.h ****     if(color.full == 0)
 379:Drivers/lvgl/lvgl/src/draw/../misc/lv_color.h ****         return 0xFF000000;
 380:Drivers/lvgl/lvgl/src/draw/../misc/lv_color.h ****     else
 381:Drivers/lvgl/lvgl/src/draw/../misc/lv_color.h ****         return 0xFFFFFFFF;
 382:Drivers/lvgl/lvgl/src/draw/../misc/lv_color.h **** #elif LV_COLOR_DEPTH == 8
 383:Drivers/lvgl/lvgl/src/draw/../misc/lv_color.h ****     lv_color32_t ret;
 384:Drivers/lvgl/lvgl/src/draw/../misc/lv_color.h ****     LV_COLOR_SET_R32(ret, LV_COLOR_GET_R(color) * 36); /*(2^8 - 1)/(2^3 - 1) = 255/7 = 36*/
 385:Drivers/lvgl/lvgl/src/draw/../misc/lv_color.h ****     LV_COLOR_SET_G32(ret, LV_COLOR_GET_G(color) * 36); /*(2^8 - 1)/(2^3 - 1) = 255/7 = 36*/
 386:Drivers/lvgl/lvgl/src/draw/../misc/lv_color.h ****     LV_COLOR_SET_B32(ret, LV_COLOR_GET_B(color) * 85); /*(2^8 - 1)/(2^2 - 1) = 255/3 = 85*/
 387:Drivers/lvgl/lvgl/src/draw/../misc/lv_color.h ****     LV_COLOR_SET_A32(ret, 0xFF);
 388:Drivers/lvgl/lvgl/src/draw/../misc/lv_color.h ****     return ret.full;
 389:Drivers/lvgl/lvgl/src/draw/../misc/lv_color.h **** #elif LV_COLOR_DEPTH == 16
 390:Drivers/lvgl/lvgl/src/draw/../misc/lv_color.h ****     /**
 391:Drivers/lvgl/lvgl/src/draw/../misc/lv_color.h ****      * The floating point math for conversion is:
 392:Drivers/lvgl/lvgl/src/draw/../misc/lv_color.h ****      *  valueto = valuefrom * ( (2^bitsto - 1) / (float)(2^bitsfrom - 1) )
 393:Drivers/lvgl/lvgl/src/draw/../misc/lv_color.h ****      * The faster integer math for conversion is:
 394:Drivers/lvgl/lvgl/src/draw/../misc/lv_color.h ****      *  valueto = ( valuefrom * multiplier + adder ) >> divisor
 395:Drivers/lvgl/lvgl/src/draw/../misc/lv_color.h ****      *   multiplier = FLOOR( ( (2^bitsto - 1) << divisor ) / (float)(2^bitsfrom - 1) )
 396:Drivers/lvgl/lvgl/src/draw/../misc/lv_color.h ****      *
 397:Drivers/lvgl/lvgl/src/draw/../misc/lv_color.h ****      * Find the first divisor where ( adder >> divisor ) <= 0
 398:Drivers/lvgl/lvgl/src/draw/../misc/lv_color.h ****      *
 399:Drivers/lvgl/lvgl/src/draw/../misc/lv_color.h ****      * 5-bit to 8-bit: ( 31 * multiplier + adder ) >> divisor = 255
 400:Drivers/lvgl/lvgl/src/draw/../misc/lv_color.h ****      * divisor  multiplier  adder  min (0)  max (31)
 401:Drivers/lvgl/lvgl/src/draw/../misc/lv_color.h ****      *       0           8      7        7       255
 402:Drivers/lvgl/lvgl/src/draw/../misc/lv_color.h ****      *       1          16     14        7       255
 403:Drivers/lvgl/lvgl/src/draw/../misc/lv_color.h ****      *       2          32     28        7       255
 404:Drivers/lvgl/lvgl/src/draw/../misc/lv_color.h ****      *       3          65     25        3       255
 405:Drivers/lvgl/lvgl/src/draw/../misc/lv_color.h ****      *       4         131     19        1       255
 406:Drivers/lvgl/lvgl/src/draw/../misc/lv_color.h ****      *       5         263      7        0       255
 407:Drivers/lvgl/lvgl/src/draw/../misc/lv_color.h ****      *
 408:Drivers/lvgl/lvgl/src/draw/../misc/lv_color.h ****      * 6-bit to 8-bit: 255 = ( 63 * multiplier + adder ) >> divisor
 409:Drivers/lvgl/lvgl/src/draw/../misc/lv_color.h ****      * divisor  multiplier  adder  min (0)  max (63)
 410:Drivers/lvgl/lvgl/src/draw/../misc/lv_color.h ****      *       0           4      3        3       255
 411:Drivers/lvgl/lvgl/src/draw/../misc/lv_color.h ****      *       1           8      6        3       255
 412:Drivers/lvgl/lvgl/src/draw/../misc/lv_color.h ****      *       2          16     12        3       255
 413:Drivers/lvgl/lvgl/src/draw/../misc/lv_color.h ****      *       3          32     24        3       255
 414:Drivers/lvgl/lvgl/src/draw/../misc/lv_color.h ****      *       4          64     48        3       255
ARM GAS  /tmp/cc1OJ4An.s 			page 18


 415:Drivers/lvgl/lvgl/src/draw/../misc/lv_color.h ****      *       5         129     33        1       255
 416:Drivers/lvgl/lvgl/src/draw/../misc/lv_color.h ****      *       6         259      3        0       255
 417:Drivers/lvgl/lvgl/src/draw/../misc/lv_color.h ****      */
 418:Drivers/lvgl/lvgl/src/draw/../misc/lv_color.h **** 
 419:Drivers/lvgl/lvgl/src/draw/../misc/lv_color.h ****     lv_color32_t ret;
 420:Drivers/lvgl/lvgl/src/draw/../misc/lv_color.h ****     LV_COLOR_SET_R32(ret, (LV_COLOR_GET_R(color) * 263 + 7) >> 5);
 421:Drivers/lvgl/lvgl/src/draw/../misc/lv_color.h ****     LV_COLOR_SET_G32(ret, (LV_COLOR_GET_G(color) * 259 + 3) >> 6);
 422:Drivers/lvgl/lvgl/src/draw/../misc/lv_color.h ****     LV_COLOR_SET_B32(ret, (LV_COLOR_GET_B(color) * 263 + 7) >> 5);
 423:Drivers/lvgl/lvgl/src/draw/../misc/lv_color.h ****     LV_COLOR_SET_A32(ret, 0xFF);
 424:Drivers/lvgl/lvgl/src/draw/../misc/lv_color.h ****     return ret.full;
 425:Drivers/lvgl/lvgl/src/draw/../misc/lv_color.h **** #elif LV_COLOR_DEPTH == 32
 426:Drivers/lvgl/lvgl/src/draw/../misc/lv_color.h ****     return color.full;
 427:Drivers/lvgl/lvgl/src/draw/../misc/lv_color.h **** #endif
 428:Drivers/lvgl/lvgl/src/draw/../misc/lv_color.h **** }
 429:Drivers/lvgl/lvgl/src/draw/../misc/lv_color.h **** 
 430:Drivers/lvgl/lvgl/src/draw/../misc/lv_color.h **** //! @cond Doxygen_Suppress
 431:Drivers/lvgl/lvgl/src/draw/../misc/lv_color.h **** 
 432:Drivers/lvgl/lvgl/src/draw/../misc/lv_color.h **** /**
 433:Drivers/lvgl/lvgl/src/draw/../misc/lv_color.h ****  * Mix two colors with a given ratio.
 434:Drivers/lvgl/lvgl/src/draw/../misc/lv_color.h ****  * @param c1 the first color to mix (usually the foreground)
 435:Drivers/lvgl/lvgl/src/draw/../misc/lv_color.h ****  * @param c2 the second color to mix (usually the background)
 436:Drivers/lvgl/lvgl/src/draw/../misc/lv_color.h ****  * @param mix The ratio of the colors. 0: full `c2`, 255: full `c1`, 127: half `c1` and half`c2`
 437:Drivers/lvgl/lvgl/src/draw/../misc/lv_color.h ****  * @return the mixed color
 438:Drivers/lvgl/lvgl/src/draw/../misc/lv_color.h ****  */
 439:Drivers/lvgl/lvgl/src/draw/../misc/lv_color.h **** LV_ATTRIBUTE_FAST_MEM static inline lv_color_t lv_color_mix(lv_color_t c1, lv_color_t c2, uint8_t m
 440:Drivers/lvgl/lvgl/src/draw/../misc/lv_color.h **** {
 441:Drivers/lvgl/lvgl/src/draw/../misc/lv_color.h ****     lv_color_t ret;
 442:Drivers/lvgl/lvgl/src/draw/../misc/lv_color.h **** 
 443:Drivers/lvgl/lvgl/src/draw/../misc/lv_color.h **** #if LV_COLOR_DEPTH == 16 && LV_COLOR_MIX_ROUND_OFS == 0
 444:Drivers/lvgl/lvgl/src/draw/../misc/lv_color.h **** #if LV_COLOR_16_SWAP == 1
 445:Drivers/lvgl/lvgl/src/draw/../misc/lv_color.h ****     c1.full = c1.full << 8 | c1.full >> 8;
 446:Drivers/lvgl/lvgl/src/draw/../misc/lv_color.h ****     c2.full = c2.full << 8 | c2.full >> 8;
 447:Drivers/lvgl/lvgl/src/draw/../misc/lv_color.h **** #endif
 448:Drivers/lvgl/lvgl/src/draw/../misc/lv_color.h ****     /*Source: https://stackoverflow.com/a/50012418/1999969*/
 449:Drivers/lvgl/lvgl/src/draw/../misc/lv_color.h ****     mix = (uint32_t)((uint32_t)mix + 4) >> 3;
 450:Drivers/lvgl/lvgl/src/draw/../misc/lv_color.h ****     uint32_t bg = (uint32_t)((uint32_t)c2.full | ((uint32_t)c2.full << 16)) &
 451:Drivers/lvgl/lvgl/src/draw/../misc/lv_color.h ****                   0x7E0F81F; /*0b00000111111000001111100000011111*/
 452:Drivers/lvgl/lvgl/src/draw/../misc/lv_color.h ****     uint32_t fg = (uint32_t)((uint32_t)c1.full | ((uint32_t)c1.full << 16)) & 0x7E0F81F;
 453:Drivers/lvgl/lvgl/src/draw/../misc/lv_color.h ****     uint32_t result = ((((fg - bg) * mix) >> 5) + bg) & 0x7E0F81F;
 454:Drivers/lvgl/lvgl/src/draw/../misc/lv_color.h ****     ret.full = (uint16_t)((result >> 16) | result);
 455:Drivers/lvgl/lvgl/src/draw/../misc/lv_color.h **** #if LV_COLOR_16_SWAP == 1
 456:Drivers/lvgl/lvgl/src/draw/../misc/lv_color.h ****     ret.full = ret.full << 8 | ret.full >> 8;
 457:Drivers/lvgl/lvgl/src/draw/../misc/lv_color.h **** #endif
 458:Drivers/lvgl/lvgl/src/draw/../misc/lv_color.h **** #elif LV_COLOR_DEPTH != 1
 459:Drivers/lvgl/lvgl/src/draw/../misc/lv_color.h ****     /*LV_COLOR_DEPTH == 8, 16 or 32*/
 460:Drivers/lvgl/lvgl/src/draw/../misc/lv_color.h ****     LV_COLOR_SET_R(ret, LV_UDIV255((uint16_t)LV_COLOR_GET_R(c1) * mix + LV_COLOR_GET_R(c2) *
 461:Drivers/lvgl/lvgl/src/draw/../misc/lv_color.h ****                                    (255 - mix) + LV_COLOR_MIX_ROUND_OFS));
 462:Drivers/lvgl/lvgl/src/draw/../misc/lv_color.h ****     LV_COLOR_SET_G(ret, LV_UDIV255((uint16_t)LV_COLOR_GET_G(c1) * mix + LV_COLOR_GET_G(c2) *
 463:Drivers/lvgl/lvgl/src/draw/../misc/lv_color.h ****                                    (255 - mix) + LV_COLOR_MIX_ROUND_OFS));
 464:Drivers/lvgl/lvgl/src/draw/../misc/lv_color.h ****     LV_COLOR_SET_B(ret, LV_UDIV255((uint16_t)LV_COLOR_GET_B(c1) * mix + LV_COLOR_GET_B(c2) *
 465:Drivers/lvgl/lvgl/src/draw/../misc/lv_color.h ****                                    (255 - mix) + LV_COLOR_MIX_ROUND_OFS));
 466:Drivers/lvgl/lvgl/src/draw/../misc/lv_color.h ****     LV_COLOR_SET_A(ret, 0xFF);
 467:Drivers/lvgl/lvgl/src/draw/../misc/lv_color.h **** #else
 468:Drivers/lvgl/lvgl/src/draw/../misc/lv_color.h ****     /*LV_COLOR_DEPTH == 1*/
 469:Drivers/lvgl/lvgl/src/draw/../misc/lv_color.h ****     ret.full = mix > LV_OPA_50 ? c1.full : c2.full;
 470:Drivers/lvgl/lvgl/src/draw/../misc/lv_color.h **** #endif
 471:Drivers/lvgl/lvgl/src/draw/../misc/lv_color.h **** 
ARM GAS  /tmp/cc1OJ4An.s 			page 19


 472:Drivers/lvgl/lvgl/src/draw/../misc/lv_color.h ****     return ret;
 473:Drivers/lvgl/lvgl/src/draw/../misc/lv_color.h **** }
 474:Drivers/lvgl/lvgl/src/draw/../misc/lv_color.h **** 
 475:Drivers/lvgl/lvgl/src/draw/../misc/lv_color.h **** LV_ATTRIBUTE_FAST_MEM static inline void lv_color_premult(lv_color_t c, uint8_t mix, uint16_t * out
 476:Drivers/lvgl/lvgl/src/draw/../misc/lv_color.h **** {
 477:Drivers/lvgl/lvgl/src/draw/../misc/lv_color.h **** #if LV_COLOR_DEPTH != 1
 478:Drivers/lvgl/lvgl/src/draw/../misc/lv_color.h ****     out[0] = (uint16_t)LV_COLOR_GET_R(c) * mix;
 479:Drivers/lvgl/lvgl/src/draw/../misc/lv_color.h ****     out[1] = (uint16_t)LV_COLOR_GET_G(c) * mix;
 480:Drivers/lvgl/lvgl/src/draw/../misc/lv_color.h ****     out[2] = (uint16_t)LV_COLOR_GET_B(c) * mix;
 481:Drivers/lvgl/lvgl/src/draw/../misc/lv_color.h **** #else
 482:Drivers/lvgl/lvgl/src/draw/../misc/lv_color.h ****     (void) mix;
 483:Drivers/lvgl/lvgl/src/draw/../misc/lv_color.h ****     /*Pre-multiplication can't be used with 1 bpp*/
 484:Drivers/lvgl/lvgl/src/draw/../misc/lv_color.h ****     out[0] = LV_COLOR_GET_R(c);
 485:Drivers/lvgl/lvgl/src/draw/../misc/lv_color.h ****     out[1] = LV_COLOR_GET_G(c);
 486:Drivers/lvgl/lvgl/src/draw/../misc/lv_color.h ****     out[2] = LV_COLOR_GET_B(c);
 487:Drivers/lvgl/lvgl/src/draw/../misc/lv_color.h **** #endif
 488:Drivers/lvgl/lvgl/src/draw/../misc/lv_color.h **** 
 489:Drivers/lvgl/lvgl/src/draw/../misc/lv_color.h **** }
 490:Drivers/lvgl/lvgl/src/draw/../misc/lv_color.h **** 
 491:Drivers/lvgl/lvgl/src/draw/../misc/lv_color.h **** /**
 492:Drivers/lvgl/lvgl/src/draw/../misc/lv_color.h ****  * Mix two colors with a given ratio. It runs faster then `lv_color_mix` but requires some pre comp
 493:Drivers/lvgl/lvgl/src/draw/../misc/lv_color.h ****  * @param premult_c1 The first color. Should be preprocessed with `lv_color_premult(c1)`
 494:Drivers/lvgl/lvgl/src/draw/../misc/lv_color.h ****  * @param c2 The second color. As it is no pre computation required on it
 495:Drivers/lvgl/lvgl/src/draw/../misc/lv_color.h ****  * @param mix The ratio of the colors. 0: full `c1`, 255: full `c2`, 127: half `c1` and half `c2`.
 496:Drivers/lvgl/lvgl/src/draw/../misc/lv_color.h ****  *            Should be modified like mix = `255 - mix`
 497:Drivers/lvgl/lvgl/src/draw/../misc/lv_color.h ****  * @return the mixed color
 498:Drivers/lvgl/lvgl/src/draw/../misc/lv_color.h ****  * @note 255 won't give clearly `c1`.
 499:Drivers/lvgl/lvgl/src/draw/../misc/lv_color.h ****  */
 500:Drivers/lvgl/lvgl/src/draw/../misc/lv_color.h **** LV_ATTRIBUTE_FAST_MEM static inline lv_color_t lv_color_mix_premult(uint16_t * premult_c1, lv_color
 501:Drivers/lvgl/lvgl/src/draw/../misc/lv_color.h **** {
 502:Drivers/lvgl/lvgl/src/draw/../misc/lv_color.h ****     lv_color_t ret;
 503:Drivers/lvgl/lvgl/src/draw/../misc/lv_color.h **** #if LV_COLOR_DEPTH != 1
 504:Drivers/lvgl/lvgl/src/draw/../misc/lv_color.h ****     /*LV_COLOR_DEPTH == 8 or 32*/
 505:Drivers/lvgl/lvgl/src/draw/../misc/lv_color.h ****     LV_COLOR_SET_R(ret, LV_UDIV255(premult_c1[0] + LV_COLOR_GET_R(c2) * mix + LV_COLOR_MIX_ROUND_OF
 506:Drivers/lvgl/lvgl/src/draw/../misc/lv_color.h ****     LV_COLOR_SET_G(ret, LV_UDIV255(premult_c1[1] + LV_COLOR_GET_G(c2) * mix + LV_COLOR_MIX_ROUND_OF
 507:Drivers/lvgl/lvgl/src/draw/../misc/lv_color.h ****     LV_COLOR_SET_B(ret, LV_UDIV255(premult_c1[2] + LV_COLOR_GET_B(c2) * mix + LV_COLOR_MIX_ROUND_OF
 508:Drivers/lvgl/lvgl/src/draw/../misc/lv_color.h ****     LV_COLOR_SET_A(ret, 0xFF);
 509:Drivers/lvgl/lvgl/src/draw/../misc/lv_color.h **** #else
 510:Drivers/lvgl/lvgl/src/draw/../misc/lv_color.h ****     /*LV_COLOR_DEPTH == 1*/
 511:Drivers/lvgl/lvgl/src/draw/../misc/lv_color.h ****     /*Restore color1*/
 512:Drivers/lvgl/lvgl/src/draw/../misc/lv_color.h ****     lv_color_t c1;
 513:Drivers/lvgl/lvgl/src/draw/../misc/lv_color.h ****     LV_COLOR_SET_R(c1, premult_c1[0]);
 514:Drivers/lvgl/lvgl/src/draw/../misc/lv_color.h ****     LV_COLOR_SET_G(c1, premult_c1[1]);
 515:Drivers/lvgl/lvgl/src/draw/../misc/lv_color.h ****     LV_COLOR_SET_B(c1, premult_c1[2]);
 516:Drivers/lvgl/lvgl/src/draw/../misc/lv_color.h ****     ret.full = mix > LV_OPA_50 ? c2.full : c1.full;
 517:Drivers/lvgl/lvgl/src/draw/../misc/lv_color.h **** #endif
 518:Drivers/lvgl/lvgl/src/draw/../misc/lv_color.h **** 
 519:Drivers/lvgl/lvgl/src/draw/../misc/lv_color.h ****     return ret;
 520:Drivers/lvgl/lvgl/src/draw/../misc/lv_color.h **** }
 521:Drivers/lvgl/lvgl/src/draw/../misc/lv_color.h **** 
 522:Drivers/lvgl/lvgl/src/draw/../misc/lv_color.h **** /**
 523:Drivers/lvgl/lvgl/src/draw/../misc/lv_color.h ****  * Mix two colors. Both color can have alpha value.
 524:Drivers/lvgl/lvgl/src/draw/../misc/lv_color.h ****  * @param bg_color background color
 525:Drivers/lvgl/lvgl/src/draw/../misc/lv_color.h ****  * @param bg_opa alpha of the background color
 526:Drivers/lvgl/lvgl/src/draw/../misc/lv_color.h ****  * @param fg_color foreground color
 527:Drivers/lvgl/lvgl/src/draw/../misc/lv_color.h ****  * @param fg_opa alpha of the foreground color
 528:Drivers/lvgl/lvgl/src/draw/../misc/lv_color.h ****  * @param res_color the result color
ARM GAS  /tmp/cc1OJ4An.s 			page 20


 529:Drivers/lvgl/lvgl/src/draw/../misc/lv_color.h ****  * @param res_opa the result opacity
 530:Drivers/lvgl/lvgl/src/draw/../misc/lv_color.h ****  */
 531:Drivers/lvgl/lvgl/src/draw/../misc/lv_color.h **** LV_ATTRIBUTE_FAST_MEM static inline void lv_color_mix_with_alpha(lv_color_t bg_color, lv_opa_t bg_o
 532:Drivers/lvgl/lvgl/src/draw/../misc/lv_color.h ****                                                                  lv_color_t fg_color, lv_opa_t fg_o
 533:Drivers/lvgl/lvgl/src/draw/../misc/lv_color.h ****                                                                  lv_color_t * res_color, lv_opa_t *
 534:Drivers/lvgl/lvgl/src/draw/../misc/lv_color.h **** {
 535:Drivers/lvgl/lvgl/src/draw/../misc/lv_color.h ****     /*Pick the foreground if it's fully opaque or the Background is fully transparent*/
 536:Drivers/lvgl/lvgl/src/draw/../misc/lv_color.h ****     if(fg_opa >= LV_OPA_MAX || bg_opa <= LV_OPA_MIN) {
 537:Drivers/lvgl/lvgl/src/draw/../misc/lv_color.h ****         res_color->full = fg_color.full;
 538:Drivers/lvgl/lvgl/src/draw/../misc/lv_color.h ****         *res_opa = fg_opa;
 539:Drivers/lvgl/lvgl/src/draw/../misc/lv_color.h ****     }
 540:Drivers/lvgl/lvgl/src/draw/../misc/lv_color.h ****     /*Transparent foreground: use the Background*/
 541:Drivers/lvgl/lvgl/src/draw/../misc/lv_color.h ****     else if(fg_opa <= LV_OPA_MIN) {
 542:Drivers/lvgl/lvgl/src/draw/../misc/lv_color.h ****         res_color->full = bg_color.full;
 543:Drivers/lvgl/lvgl/src/draw/../misc/lv_color.h ****         *res_opa = bg_opa;
 544:Drivers/lvgl/lvgl/src/draw/../misc/lv_color.h ****     }
 545:Drivers/lvgl/lvgl/src/draw/../misc/lv_color.h ****     /*Opaque background: use simple mix*/
 546:Drivers/lvgl/lvgl/src/draw/../misc/lv_color.h ****     else if(bg_opa >= LV_OPA_MAX) {
 547:Drivers/lvgl/lvgl/src/draw/../misc/lv_color.h ****         *res_color = lv_color_mix(fg_color, bg_color, fg_opa);
 548:Drivers/lvgl/lvgl/src/draw/../misc/lv_color.h ****         *res_opa = LV_OPA_COVER;
 549:Drivers/lvgl/lvgl/src/draw/../misc/lv_color.h ****     }
 550:Drivers/lvgl/lvgl/src/draw/../misc/lv_color.h ****     /*Both colors have alpha. Expensive calculation need to be applied*/
 551:Drivers/lvgl/lvgl/src/draw/../misc/lv_color.h ****     else {
 552:Drivers/lvgl/lvgl/src/draw/../misc/lv_color.h ****         /*Save the parameters and the result. If they will be asked again don't compute again*/
 553:Drivers/lvgl/lvgl/src/draw/../misc/lv_color.h ****         static lv_opa_t fg_opa_save     = 0;
 554:Drivers/lvgl/lvgl/src/draw/../misc/lv_color.h ****         static lv_opa_t bg_opa_save     = 0;
 555:Drivers/lvgl/lvgl/src/draw/../misc/lv_color.h ****         static lv_color_t fg_color_save = _LV_COLOR_ZERO_INITIALIZER;
 556:Drivers/lvgl/lvgl/src/draw/../misc/lv_color.h ****         static lv_color_t bg_color_save = _LV_COLOR_ZERO_INITIALIZER;
 557:Drivers/lvgl/lvgl/src/draw/../misc/lv_color.h ****         static lv_color_t res_color_saved = _LV_COLOR_ZERO_INITIALIZER;
 558:Drivers/lvgl/lvgl/src/draw/../misc/lv_color.h ****         static lv_opa_t res_opa_saved = 0;
 559:Drivers/lvgl/lvgl/src/draw/../misc/lv_color.h **** 
 560:Drivers/lvgl/lvgl/src/draw/../misc/lv_color.h ****         if(fg_opa != fg_opa_save || bg_opa != bg_opa_save || fg_color.full != fg_color_save.full ||
 561:Drivers/lvgl/lvgl/src/draw/../misc/lv_color.h ****            bg_color.full != bg_color_save.full) {
 562:Drivers/lvgl/lvgl/src/draw/../misc/lv_color.h ****             fg_opa_save        = fg_opa;
 563:Drivers/lvgl/lvgl/src/draw/../misc/lv_color.h ****             bg_opa_save        = bg_opa;
 564:Drivers/lvgl/lvgl/src/draw/../misc/lv_color.h ****             fg_color_save.full = fg_color.full;
 565:Drivers/lvgl/lvgl/src/draw/../misc/lv_color.h ****             bg_color_save.full = bg_color.full;
 566:Drivers/lvgl/lvgl/src/draw/../misc/lv_color.h ****             /*Info:
 567:Drivers/lvgl/lvgl/src/draw/../misc/lv_color.h ****              * https://en.wikipedia.org/wiki/Alpha_compositing#Analytical_derivation_of_the_over_op
 568:Drivers/lvgl/lvgl/src/draw/../misc/lv_color.h ****             res_opa_saved = 255 - ((uint16_t)((uint16_t)(255 - fg_opa) * (255 - bg_opa)) >> 8);
 569:Drivers/lvgl/lvgl/src/draw/../misc/lv_color.h ****             LV_ASSERT(res_opa_saved != 0);
 570:Drivers/lvgl/lvgl/src/draw/../misc/lv_color.h ****             lv_opa_t ratio = (uint16_t)((uint16_t)fg_opa * 255) / res_opa_saved;
 571:Drivers/lvgl/lvgl/src/draw/../misc/lv_color.h ****             res_color_saved = lv_color_mix(fg_color, bg_color, ratio);
 572:Drivers/lvgl/lvgl/src/draw/../misc/lv_color.h **** 
 573:Drivers/lvgl/lvgl/src/draw/../misc/lv_color.h ****         }
 574:Drivers/lvgl/lvgl/src/draw/../misc/lv_color.h **** 
 575:Drivers/lvgl/lvgl/src/draw/../misc/lv_color.h ****         res_color->full = res_color_saved.full;
 576:Drivers/lvgl/lvgl/src/draw/../misc/lv_color.h ****         *res_opa = res_opa_saved;
 577:Drivers/lvgl/lvgl/src/draw/../misc/lv_color.h ****     }
 578:Drivers/lvgl/lvgl/src/draw/../misc/lv_color.h **** }
 579:Drivers/lvgl/lvgl/src/draw/../misc/lv_color.h **** 
 580:Drivers/lvgl/lvgl/src/draw/../misc/lv_color.h **** //! @endcond
 581:Drivers/lvgl/lvgl/src/draw/../misc/lv_color.h **** 
 582:Drivers/lvgl/lvgl/src/draw/../misc/lv_color.h **** /**
 583:Drivers/lvgl/lvgl/src/draw/../misc/lv_color.h ****  * Get the brightness of a color
 584:Drivers/lvgl/lvgl/src/draw/../misc/lv_color.h ****  * @param color a color
 585:Drivers/lvgl/lvgl/src/draw/../misc/lv_color.h ****  * @return the brightness [0..255]
ARM GAS  /tmp/cc1OJ4An.s 			page 21


 586:Drivers/lvgl/lvgl/src/draw/../misc/lv_color.h ****  */
 587:Drivers/lvgl/lvgl/src/draw/../misc/lv_color.h **** static inline uint8_t lv_color_brightness(lv_color_t color)
 588:Drivers/lvgl/lvgl/src/draw/../misc/lv_color.h **** {
 589:Drivers/lvgl/lvgl/src/draw/../misc/lv_color.h ****     lv_color32_t c32;
 590:Drivers/lvgl/lvgl/src/draw/../misc/lv_color.h ****     c32.full        = lv_color_to32(color);
 591:Drivers/lvgl/lvgl/src/draw/../misc/lv_color.h ****     uint16_t bright = (uint16_t)(3u * LV_COLOR_GET_R32(c32) + LV_COLOR_GET_B32(c32) + 4u * LV_COLOR
 592:Drivers/lvgl/lvgl/src/draw/../misc/lv_color.h ****     return (uint8_t)(bright >> 3);
 593:Drivers/lvgl/lvgl/src/draw/../misc/lv_color.h **** }
 594:Drivers/lvgl/lvgl/src/draw/../misc/lv_color.h **** 
 595:Drivers/lvgl/lvgl/src/draw/../misc/lv_color.h **** static inline lv_color_t lv_color_make(uint8_t r, uint8_t g, uint8_t b)
 596:Drivers/lvgl/lvgl/src/draw/../misc/lv_color.h **** {
 597:Drivers/lvgl/lvgl/src/draw/../misc/lv_color.h ****     return _LV_COLOR_MAKE_TYPE_HELPER LV_COLOR_MAKE(r, g, b);
 139              		.loc 2 597 0
 140 000e 4FF00003 		mov	r3, #0	@ movhi
 141              	.LVL14:
 142              	.LBE48:
 143              	.LBE47:
 144              	.LBE46:
  59:Drivers/lvgl/lvgl/src/draw/lv_draw_label.c ****     dsc->font = LV_FONT_DEFAULT;
 145              		.loc 1 59 0
 146 0012 A381     		strh	r3, [r4, #12]	@ movhi
  60:Drivers/lvgl/lvgl/src/draw/lv_draw_label.c ****     dsc->sel_start = LV_DRAW_LABEL_NO_TXT_SEL;
 147              		.loc 1 60 0
 148 0014 074B     		ldr	r3, .L14
 149 0016 2360     		str	r3, [r4]
  61:Drivers/lvgl/lvgl/src/draw/lv_draw_label.c ****     dsc->sel_end = LV_DRAW_LABEL_NO_TXT_SEL;
 150              		.loc 1 61 0
 151 0018 4FF6FF73 		movw	r3, #65535
 152 001c 6360     		str	r3, [r4, #4]
  62:Drivers/lvgl/lvgl/src/draw/lv_draw_label.c ****     dsc->sel_color = lv_color_black();
 153              		.loc 1 62 0
 154 001e A360     		str	r3, [r4, #8]
 155              	.LVL15:
 156              	.LBB49:
 157              	.LBB50:
 158              	.LBB51:
 159              		.loc 2 597 0
 160 0020 4FF00003 		mov	r3, #0	@ movhi
 161              	.LVL16:
 162              	.LBE51:
 163              	.LBE50:
 164              	.LBE49:
  63:Drivers/lvgl/lvgl/src/draw/lv_draw_label.c ****     dsc->sel_bg_color = lv_palette_main(LV_PALETTE_BLUE);
 165              		.loc 1 63 0
 166 0024 E381     		strh	r3, [r4, #14]	@ movhi
  64:Drivers/lvgl/lvgl/src/draw/lv_draw_label.c ****     dsc->bidi_dir = LV_BASE_DIR_LTR;
 167              		.loc 1 64 0
 168 0026 0520     		movs	r0, #5
 169 0028 FFF7FEFF 		bl	lv_palette_main
 170              	.LVL17:
 171 002c 2082     		strh	r0, [r4, #16]	@ movhi
  65:Drivers/lvgl/lvgl/src/draw/lv_draw_label.c **** }
 172              		.loc 1 65 0
 173 002e 0023     		movs	r3, #0
 174 0030 E376     		strb	r3, [r4, #27]
  66:Drivers/lvgl/lvgl/src/draw/lv_draw_label.c **** 
 175              		.loc 1 66 0
ARM GAS  /tmp/cc1OJ4An.s 			page 22


 176 0032 10BD     		pop	{r4, pc}
 177              	.LVL18:
 178              	.L15:
 179              		.align	2
 180              	.L14:
 181 0034 00000000 		.word	lv_font_montserrat_14
 182              		.cfi_endproc
 183              	.LFE159:
 185              		.section	.text.lv_draw_letter,"ax",%progbits
 186              		.align	1
 187              		.global	lv_draw_letter
 188              		.syntax unified
 189              		.thumb
 190              		.thumb_func
 191              		.fpu fpv5-d16
 193              	lv_draw_letter:
 194              	.LFB161:
 366:Drivers/lvgl/lvgl/src/draw/lv_draw_label.c ****     draw_ctx->draw_letter(draw_ctx, dsc, pos_p, letter);
 195              		.loc 1 366 0
 196              		.cfi_startproc
 197              		@ args = 0, pretend = 0, frame = 0
 198              		@ frame_needed = 0, uses_anonymous_args = 0
 199              	.LVL19:
 200 0000 10B5     		push	{r4, lr}
 201              	.LCFI1:
 202              		.cfi_def_cfa_offset 8
 203              		.cfi_offset 4, -8
 204              		.cfi_offset 14, -4
 367:Drivers/lvgl/lvgl/src/draw/lv_draw_label.c **** }
 205              		.loc 1 367 0
 206 0002 046A     		ldr	r4, [r0, #32]
 207 0004 A047     		blx	r4
 208              	.LVL20:
 368:Drivers/lvgl/lvgl/src/draw/lv_draw_label.c **** 
 209              		.loc 1 368 0
 210 0006 10BD     		pop	{r4, pc}
 211              		.cfi_endproc
 212              	.LFE161:
 214              		.section	.text.lv_draw_label,"ax",%progbits
 215              		.align	1
 216              		.global	lv_draw_label
 217              		.syntax unified
 218              		.thumb
 219              		.thumb_func
 220              		.fpu fpv5-d16
 222              	lv_draw_label:
 223              	.LFB160:
  79:Drivers/lvgl/lvgl/src/draw/lv_draw_label.c ****     if(dsc->opa <= LV_OPA_MIN) return;
 224              		.loc 1 79 0
 225              		.cfi_startproc
 226              		@ args = 4, pretend = 0, frame = 200
 227              		@ frame_needed = 0, uses_anonymous_args = 0
 228              	.LVL21:
 229 0000 9C46     		mov	ip, r3
  80:Drivers/lvgl/lvgl/src/draw/lv_draw_label.c ****     if(dsc->font == NULL) {
 230              		.loc 1 80 0
 231 0002 8B7E     		ldrb	r3, [r1, #26]	@ zero_extendqisi2
ARM GAS  /tmp/cc1OJ4An.s 			page 23


 232              	.LVL22:
 233 0004 022B     		cmp	r3, #2
 234 0006 40F2F282 		bls	.L69
  79:Drivers/lvgl/lvgl/src/draw/lv_draw_label.c ****     if(dsc->opa <= LV_OPA_MIN) return;
 235              		.loc 1 79 0
 236 000a 2DE9F04F 		push	{r4, r5, r6, r7, r8, r9, r10, fp, lr}
 237              	.LCFI2:
 238              		.cfi_def_cfa_offset 36
 239              		.cfi_offset 4, -36
 240              		.cfi_offset 5, -32
 241              		.cfi_offset 6, -28
 242              		.cfi_offset 7, -24
 243              		.cfi_offset 8, -20
 244              		.cfi_offset 9, -16
 245              		.cfi_offset 10, -12
 246              		.cfi_offset 11, -8
 247              		.cfi_offset 14, -4
 248 000e B7B0     		sub	sp, sp, #220
 249              	.LCFI3:
 250              		.cfi_def_cfa_offset 256
 251 0010 0746     		mov	r7, r0
 252 0012 0C46     		mov	r4, r1
 253 0014 9646     		mov	lr, r2
  81:Drivers/lvgl/lvgl/src/draw/lv_draw_label.c ****         LV_LOG_WARN("dsc->font == NULL");
 254              		.loc 1 81 0
 255 0016 0B68     		ldr	r3, [r1]
 256 0018 8BB1     		cbz	r3, .L18
  86:Drivers/lvgl/lvgl/src/draw/lv_draw_label.c ****         LV_LOG_WARN("draw->draw_letter == NULL (there is no function to draw letters)");
 257              		.loc 1 86 0
 258 001a 036A     		ldr	r3, [r0, #32]
 259 001c 7BB1     		cbz	r3, .L18
  91:Drivers/lvgl/lvgl/src/draw/lv_draw_label.c **** 
 260              		.loc 1 91 0
 261 001e 2EAD     		add	r5, sp, #184
 262 0020 0E46     		mov	r6, r1
 263 0022 0FCE     		ldmia	r6!, {r0, r1, r2, r3}
 264              	.LVL23:
 265 0024 0FC5     		stmia	r5!, {r0, r1, r2, r3}
 266 0026 96E80F00 		ldm	r6, {r0, r1, r2, r3}
 267 002a 85E80F00 		stm	r5, {r0, r1, r2, r3}
  93:Drivers/lvgl/lvgl/src/draw/lv_draw_label.c ****     int32_t w;
 268              		.loc 1 93 0
 269 002e 2368     		ldr	r3, [r4]
 270 0030 0593     		str	r3, [sp, #20]
 271              	.LVL24:
  97:Drivers/lvgl/lvgl/src/draw/lv_draw_label.c ****         return;
 272              		.loc 1 97 0
 273 0032 BCF1000F 		cmp	ip, #0
 274 0036 02D0     		beq	.L18
  97:Drivers/lvgl/lvgl/src/draw/lv_draw_label.c ****         return;
 275              		.loc 1 97 0 is_stmt 0 discriminator 1
 276 0038 9CF80030 		ldrb	r3, [ip]	@ zero_extendqisi2
 277              	.LVL25:
 278 003c 13B9     		cbnz	r3, .L72
 279              	.LVL26:
 280              	.L18:
 362:Drivers/lvgl/lvgl/src/draw/lv_draw_label.c **** 
ARM GAS  /tmp/cc1OJ4An.s 			page 24


 281              		.loc 1 362 0 is_stmt 1
 282 003e 37B0     		add	sp, sp, #220
 283              	.LCFI4:
 284              		.cfi_remember_state
 285              		.cfi_def_cfa_offset 36
 286              		@ sp needed
 287 0040 BDE8F08F 		pop	{r4, r5, r6, r7, r8, r9, r10, fp, pc}
 288              	.LVL27:
 289              	.L72:
 290              	.LCFI5:
 291              		.cfi_restore_state
 292 0044 CDF824C0 		str	ip, [sp, #36]
 293 0048 7146     		mov	r1, lr
 294 004a CDF830E0 		str	lr, [sp, #48]
 295 004e 0797     		str	r7, [sp, #28]
 101:Drivers/lvgl/lvgl/src/draw/lv_draw_label.c ****     if(!clip_ok) return;
 296              		.loc 1 101 0
 297 0050 BA68     		ldr	r2, [r7, #8]
 298 0052 2CA8     		add	r0, sp, #176
 299 0054 FFF7FEFF 		bl	_lv_area_intersect
 300              	.LVL28:
 102:Drivers/lvgl/lvgl/src/draw/lv_draw_label.c **** 
 301              		.loc 1 102 0
 302 0058 0028     		cmp	r0, #0
 303 005a F0D0     		beq	.L18
 104:Drivers/lvgl/lvgl/src/draw/lv_draw_label.c ****     lv_base_dir_t base_dir = dsc->bidi_dir;
 304              		.loc 1 104 0
 305 005c 237F     		ldrb	r3, [r4, #28]	@ zero_extendqisi2
 306 005e 0D93     		str	r3, [sp, #52]
 307              	.LVL29:
 308              	.LBB52:
 309              	.LBB53:
 310              		.file 3 "Drivers/lvgl/lvgl/src/draw/../misc/lv_bidi.h"
   1:Drivers/lvgl/lvgl/src/draw/../misc/lv_bidi.h **** /**
   2:Drivers/lvgl/lvgl/src/draw/../misc/lv_bidi.h ****  * @file lv_bidi.h
   3:Drivers/lvgl/lvgl/src/draw/../misc/lv_bidi.h ****  *
   4:Drivers/lvgl/lvgl/src/draw/../misc/lv_bidi.h ****  */
   5:Drivers/lvgl/lvgl/src/draw/../misc/lv_bidi.h **** 
   6:Drivers/lvgl/lvgl/src/draw/../misc/lv_bidi.h **** #ifndef LV_BIDI_H
   7:Drivers/lvgl/lvgl/src/draw/../misc/lv_bidi.h **** #define LV_BIDI_H
   8:Drivers/lvgl/lvgl/src/draw/../misc/lv_bidi.h **** 
   9:Drivers/lvgl/lvgl/src/draw/../misc/lv_bidi.h **** #ifdef __cplusplus
  10:Drivers/lvgl/lvgl/src/draw/../misc/lv_bidi.h **** extern "C" {
  11:Drivers/lvgl/lvgl/src/draw/../misc/lv_bidi.h **** #endif
  12:Drivers/lvgl/lvgl/src/draw/../misc/lv_bidi.h **** 
  13:Drivers/lvgl/lvgl/src/draw/../misc/lv_bidi.h **** /*********************
  14:Drivers/lvgl/lvgl/src/draw/../misc/lv_bidi.h ****  *      INCLUDES
  15:Drivers/lvgl/lvgl/src/draw/../misc/lv_bidi.h ****  *********************/
  16:Drivers/lvgl/lvgl/src/draw/../misc/lv_bidi.h **** #include "../lv_conf_internal.h"
  17:Drivers/lvgl/lvgl/src/draw/../misc/lv_bidi.h **** 
  18:Drivers/lvgl/lvgl/src/draw/../misc/lv_bidi.h **** #include <stdbool.h>
  19:Drivers/lvgl/lvgl/src/draw/../misc/lv_bidi.h **** #include <stdint.h>
  20:Drivers/lvgl/lvgl/src/draw/../misc/lv_bidi.h **** #include "lv_txt.h"
  21:Drivers/lvgl/lvgl/src/draw/../misc/lv_bidi.h **** 
  22:Drivers/lvgl/lvgl/src/draw/../misc/lv_bidi.h **** /*********************
  23:Drivers/lvgl/lvgl/src/draw/../misc/lv_bidi.h ****  *      DEFINES
  24:Drivers/lvgl/lvgl/src/draw/../misc/lv_bidi.h ****  *********************/
ARM GAS  /tmp/cc1OJ4An.s 			page 25


  25:Drivers/lvgl/lvgl/src/draw/../misc/lv_bidi.h **** /*Special non printable strong characters.
  26:Drivers/lvgl/lvgl/src/draw/../misc/lv_bidi.h ****  *They can be inserted to texts to affect the run's direction*/
  27:Drivers/lvgl/lvgl/src/draw/../misc/lv_bidi.h **** #define LV_BIDI_LRO  "\xE2\x80\xAD" /*U+202D*/
  28:Drivers/lvgl/lvgl/src/draw/../misc/lv_bidi.h **** #define LV_BIDI_RLO  "\xE2\x80\xAE" /*U+202E*/
  29:Drivers/lvgl/lvgl/src/draw/../misc/lv_bidi.h **** 
  30:Drivers/lvgl/lvgl/src/draw/../misc/lv_bidi.h **** /**********************
  31:Drivers/lvgl/lvgl/src/draw/../misc/lv_bidi.h ****  *      TYPEDEFS
  32:Drivers/lvgl/lvgl/src/draw/../misc/lv_bidi.h ****  **********************/
  33:Drivers/lvgl/lvgl/src/draw/../misc/lv_bidi.h **** enum {
  34:Drivers/lvgl/lvgl/src/draw/../misc/lv_bidi.h ****     LV_BASE_DIR_LTR      = 0x00,
  35:Drivers/lvgl/lvgl/src/draw/../misc/lv_bidi.h ****     LV_BASE_DIR_RTL      = 0x01,
  36:Drivers/lvgl/lvgl/src/draw/../misc/lv_bidi.h ****     LV_BASE_DIR_AUTO     = 0x02,
  37:Drivers/lvgl/lvgl/src/draw/../misc/lv_bidi.h **** 
  38:Drivers/lvgl/lvgl/src/draw/../misc/lv_bidi.h ****     LV_BASE_DIR_NEUTRAL  = 0x20,
  39:Drivers/lvgl/lvgl/src/draw/../misc/lv_bidi.h ****     LV_BASE_DIR_WEAK     = 0x21,
  40:Drivers/lvgl/lvgl/src/draw/../misc/lv_bidi.h **** };
  41:Drivers/lvgl/lvgl/src/draw/../misc/lv_bidi.h **** 
  42:Drivers/lvgl/lvgl/src/draw/../misc/lv_bidi.h **** typedef uint8_t lv_base_dir_t;
  43:Drivers/lvgl/lvgl/src/draw/../misc/lv_bidi.h **** 
  44:Drivers/lvgl/lvgl/src/draw/../misc/lv_bidi.h **** /**********************
  45:Drivers/lvgl/lvgl/src/draw/../misc/lv_bidi.h ****  * GLOBAL PROTOTYPES
  46:Drivers/lvgl/lvgl/src/draw/../misc/lv_bidi.h ****  **********************/
  47:Drivers/lvgl/lvgl/src/draw/../misc/lv_bidi.h **** #if LV_USE_BIDI
  48:Drivers/lvgl/lvgl/src/draw/../misc/lv_bidi.h **** 
  49:Drivers/lvgl/lvgl/src/draw/../misc/lv_bidi.h **** /**
  50:Drivers/lvgl/lvgl/src/draw/../misc/lv_bidi.h ****  * Convert a text to get the characters in the correct visual order according to
  51:Drivers/lvgl/lvgl/src/draw/../misc/lv_bidi.h ****  * Unicode Bidirectional Algorithm
  52:Drivers/lvgl/lvgl/src/draw/../misc/lv_bidi.h ****  * @param str_in the text to process
  53:Drivers/lvgl/lvgl/src/draw/../misc/lv_bidi.h ****  * @param str_out store the result here. Has the be `strlen(str_in)` length
  54:Drivers/lvgl/lvgl/src/draw/../misc/lv_bidi.h ****  * @param base_dir `LV_BASE_DIR_LTR` or `LV_BASE_DIR_RTL`
  55:Drivers/lvgl/lvgl/src/draw/../misc/lv_bidi.h ****  */
  56:Drivers/lvgl/lvgl/src/draw/../misc/lv_bidi.h **** void _lv_bidi_process(const char * str_in, char * str_out, lv_base_dir_t base_dir);
  57:Drivers/lvgl/lvgl/src/draw/../misc/lv_bidi.h **** 
  58:Drivers/lvgl/lvgl/src/draw/../misc/lv_bidi.h **** /**
  59:Drivers/lvgl/lvgl/src/draw/../misc/lv_bidi.h ****  * Auto-detect the direction of a text based on the first strong character
  60:Drivers/lvgl/lvgl/src/draw/../misc/lv_bidi.h ****  * @param txt the text to process
  61:Drivers/lvgl/lvgl/src/draw/../misc/lv_bidi.h ****  * @return `LV_BASE_DIR_LTR` or `LV_BASE_DIR_RTL`
  62:Drivers/lvgl/lvgl/src/draw/../misc/lv_bidi.h ****  */
  63:Drivers/lvgl/lvgl/src/draw/../misc/lv_bidi.h **** lv_base_dir_t _lv_bidi_detect_base_dir(const char * txt);
  64:Drivers/lvgl/lvgl/src/draw/../misc/lv_bidi.h **** 
  65:Drivers/lvgl/lvgl/src/draw/../misc/lv_bidi.h **** /**
  66:Drivers/lvgl/lvgl/src/draw/../misc/lv_bidi.h ****  * Get the logical position of a character in a line
  67:Drivers/lvgl/lvgl/src/draw/../misc/lv_bidi.h ****  * @param str_in the input string. Can be only one line.
  68:Drivers/lvgl/lvgl/src/draw/../misc/lv_bidi.h ****  * @param bidi_txt internally the text is bidi processed which buffer can be get here.
  69:Drivers/lvgl/lvgl/src/draw/../misc/lv_bidi.h ****  * If not required anymore has to freed with `lv_mem_free()`
  70:Drivers/lvgl/lvgl/src/draw/../misc/lv_bidi.h ****  * Can be `NULL` is unused
  71:Drivers/lvgl/lvgl/src/draw/../misc/lv_bidi.h ****  * @param len length of the line in character count
  72:Drivers/lvgl/lvgl/src/draw/../misc/lv_bidi.h ****  * @param base_dir base direction of the text: `LV_BASE_DIR_LTR` or `LV_BASE_DIR_RTL`
  73:Drivers/lvgl/lvgl/src/draw/../misc/lv_bidi.h ****  * @param visual_pos the visual character position which logical position should be get
  74:Drivers/lvgl/lvgl/src/draw/../misc/lv_bidi.h ****  * @param is_rtl tell the char at `visual_pos` is RTL or LTR context
  75:Drivers/lvgl/lvgl/src/draw/../misc/lv_bidi.h ****  * @return the logical character position
  76:Drivers/lvgl/lvgl/src/draw/../misc/lv_bidi.h ****  */
  77:Drivers/lvgl/lvgl/src/draw/../misc/lv_bidi.h **** uint16_t _lv_bidi_get_logical_pos(const char * str_in, char ** bidi_txt, uint32_t len, lv_base_dir_
  78:Drivers/lvgl/lvgl/src/draw/../misc/lv_bidi.h ****                                   uint32_t visual_pos, bool * is_rtl);
  79:Drivers/lvgl/lvgl/src/draw/../misc/lv_bidi.h **** 
  80:Drivers/lvgl/lvgl/src/draw/../misc/lv_bidi.h **** /**
  81:Drivers/lvgl/lvgl/src/draw/../misc/lv_bidi.h ****  * Get the visual position of a character in a line
ARM GAS  /tmp/cc1OJ4An.s 			page 26


  82:Drivers/lvgl/lvgl/src/draw/../misc/lv_bidi.h ****  * @param str_in the input string. Can be only one line.
  83:Drivers/lvgl/lvgl/src/draw/../misc/lv_bidi.h ****  * @param bidi_txt internally the text is bidi processed which buffer can be get here.
  84:Drivers/lvgl/lvgl/src/draw/../misc/lv_bidi.h ****  * If not required anymore has to freed with `lv_mem_free()`
  85:Drivers/lvgl/lvgl/src/draw/../misc/lv_bidi.h ****  * Can be `NULL` is unused
  86:Drivers/lvgl/lvgl/src/draw/../misc/lv_bidi.h ****  * @param len length of the line in character count
  87:Drivers/lvgl/lvgl/src/draw/../misc/lv_bidi.h ****  * @param base_dir base direction of the text: `LV_BASE_DIR_LTR` or `LV_BASE_DIR_RTL`
  88:Drivers/lvgl/lvgl/src/draw/../misc/lv_bidi.h ****  * @param logical_pos the logical character position which visual position should be get
  89:Drivers/lvgl/lvgl/src/draw/../misc/lv_bidi.h ****  * @param is_rtl tell the char at `logical_pos` is RTL or LTR context
  90:Drivers/lvgl/lvgl/src/draw/../misc/lv_bidi.h ****  * @return the visual character position
  91:Drivers/lvgl/lvgl/src/draw/../misc/lv_bidi.h ****  */
  92:Drivers/lvgl/lvgl/src/draw/../misc/lv_bidi.h **** uint16_t _lv_bidi_get_visual_pos(const char * str_in, char ** bidi_txt, uint16_t len, lv_base_dir_t
  93:Drivers/lvgl/lvgl/src/draw/../misc/lv_bidi.h ****                                  uint32_t logical_pos, bool * is_rtl);
  94:Drivers/lvgl/lvgl/src/draw/../misc/lv_bidi.h **** 
  95:Drivers/lvgl/lvgl/src/draw/../misc/lv_bidi.h **** /**
  96:Drivers/lvgl/lvgl/src/draw/../misc/lv_bidi.h ****  * Bidi process a paragraph of text
  97:Drivers/lvgl/lvgl/src/draw/../misc/lv_bidi.h ****  * @param str_in the string to process
  98:Drivers/lvgl/lvgl/src/draw/../misc/lv_bidi.h ****  * @param str_out store the result here
  99:Drivers/lvgl/lvgl/src/draw/../misc/lv_bidi.h ****  * @param len length of the text
 100:Drivers/lvgl/lvgl/src/draw/../misc/lv_bidi.h ****  * @param base_dir base dir of the text
 101:Drivers/lvgl/lvgl/src/draw/../misc/lv_bidi.h ****  * @param pos_conv_out an `uint16_t` array to store the related logical position of the character.
 102:Drivers/lvgl/lvgl/src/draw/../misc/lv_bidi.h ****  * Can be `NULL` is unused
 103:Drivers/lvgl/lvgl/src/draw/../misc/lv_bidi.h ****  * @param pos_conv_len length of `pos_conv_out` in element count
 104:Drivers/lvgl/lvgl/src/draw/../misc/lv_bidi.h ****  */
 105:Drivers/lvgl/lvgl/src/draw/../misc/lv_bidi.h **** void _lv_bidi_process_paragraph(const char * str_in, char * str_out, uint32_t len, lv_base_dir_t ba
 106:Drivers/lvgl/lvgl/src/draw/../misc/lv_bidi.h ****                                 uint16_t * pos_conv_out, uint16_t pos_conv_len);
 107:Drivers/lvgl/lvgl/src/draw/../misc/lv_bidi.h **** 
 108:Drivers/lvgl/lvgl/src/draw/../misc/lv_bidi.h **** /**
 109:Drivers/lvgl/lvgl/src/draw/../misc/lv_bidi.h ****  * Get the real text alignment from the a text alignment, base direction and a text.
 110:Drivers/lvgl/lvgl/src/draw/../misc/lv_bidi.h ****  * @param align     LV_TEXT_ALIGN_..., write back the calculated align here (LV_TEXT_ALIGN_LEFT/RIG
 111:Drivers/lvgl/lvgl/src/draw/../misc/lv_bidi.h ****  * @param base_dir  LV_BASE_DIR_..., write the calculated base dir here (LV_BASE_DIR_LTR/RTL)
 112:Drivers/lvgl/lvgl/src/draw/../misc/lv_bidi.h ****  * @param txt       a text, used with LV_BASE_DIR_AUTO to determine the base direction
 113:Drivers/lvgl/lvgl/src/draw/../misc/lv_bidi.h ****  */
 114:Drivers/lvgl/lvgl/src/draw/../misc/lv_bidi.h **** void lv_bidi_calculate_align(lv_text_align_t * align, lv_base_dir_t * base_dir, const char * txt);
 115:Drivers/lvgl/lvgl/src/draw/../misc/lv_bidi.h **** 
 116:Drivers/lvgl/lvgl/src/draw/../misc/lv_bidi.h **** 
 117:Drivers/lvgl/lvgl/src/draw/../misc/lv_bidi.h **** /**********************
 118:Drivers/lvgl/lvgl/src/draw/../misc/lv_bidi.h ****  *      MACROS
 119:Drivers/lvgl/lvgl/src/draw/../misc/lv_bidi.h ****  **********************/
 120:Drivers/lvgl/lvgl/src/draw/../misc/lv_bidi.h **** 
 121:Drivers/lvgl/lvgl/src/draw/../misc/lv_bidi.h **** #else /*LV_USE_BIDI*/
 122:Drivers/lvgl/lvgl/src/draw/../misc/lv_bidi.h **** /**
 123:Drivers/lvgl/lvgl/src/draw/../misc/lv_bidi.h ****  * For compatibility if LV_USE_BIDI = 0
 124:Drivers/lvgl/lvgl/src/draw/../misc/lv_bidi.h ****  * Get the real text alignment from the a text alignment, base direction and a text.
 125:Drivers/lvgl/lvgl/src/draw/../misc/lv_bidi.h ****  * @param align     For LV_TEXT_ALIGN_AUTO give LV_TEXT_ALIGN_LEFT else leave unchanged, write back
 126:Drivers/lvgl/lvgl/src/draw/../misc/lv_bidi.h ****  * @param base_dir  Unused
 127:Drivers/lvgl/lvgl/src/draw/../misc/lv_bidi.h ****  * @param txt       Unused
 128:Drivers/lvgl/lvgl/src/draw/../misc/lv_bidi.h ****  */
 129:Drivers/lvgl/lvgl/src/draw/../misc/lv_bidi.h **** static inline void lv_bidi_calculate_align(lv_text_align_t * align, lv_base_dir_t * base_dir, const
 130:Drivers/lvgl/lvgl/src/draw/../misc/lv_bidi.h **** {
 131:Drivers/lvgl/lvgl/src/draw/../misc/lv_bidi.h ****     LV_UNUSED(txt);
 132:Drivers/lvgl/lvgl/src/draw/../misc/lv_bidi.h ****     LV_UNUSED(base_dir);
 133:Drivers/lvgl/lvgl/src/draw/../misc/lv_bidi.h ****     if(*align == LV_TEXT_ALIGN_AUTO) * align = LV_TEXT_ALIGN_LEFT;
 311              		.loc 3 133 0
 312 0060 0BB9     		cbnz	r3, .L20
 313 0062 0123     		movs	r3, #1
 314              	.LVL30:
 315 0064 0D93     		str	r3, [sp, #52]
ARM GAS  /tmp/cc1OJ4An.s 			page 27


 316              	.LVL31:
 317              	.L20:
 318              	.LBE53:
 319              	.LBE52:
 109:Drivers/lvgl/lvgl/src/draw/lv_draw_label.c ****         /*Normally use the label's width as width*/
 320              		.loc 1 109 0
 321 0066 627F     		ldrb	r2, [r4, #29]	@ zero_extendqisi2
 322 0068 12F0020F 		tst	r2, #2
 323 006c 2CD1     		bne	.L21
 324              	.LVL32:
 325              	.LBB54:
 326              	.LBB55:
 327              		.file 4 "Drivers/lvgl/lvgl/src/draw/../misc/../font/../misc/lv_area.h"
   1:Drivers/lvgl/lvgl/src/draw/../misc/../font/../misc/lv_area.h **** /**
   2:Drivers/lvgl/lvgl/src/draw/../misc/../font/../misc/lv_area.h ****  * @file lv_area.h
   3:Drivers/lvgl/lvgl/src/draw/../misc/../font/../misc/lv_area.h ****  *
   4:Drivers/lvgl/lvgl/src/draw/../misc/../font/../misc/lv_area.h ****  */
   5:Drivers/lvgl/lvgl/src/draw/../misc/../font/../misc/lv_area.h **** 
   6:Drivers/lvgl/lvgl/src/draw/../misc/../font/../misc/lv_area.h **** #ifndef LV_AREA_H
   7:Drivers/lvgl/lvgl/src/draw/../misc/../font/../misc/lv_area.h **** #define LV_AREA_H
   8:Drivers/lvgl/lvgl/src/draw/../misc/../font/../misc/lv_area.h **** 
   9:Drivers/lvgl/lvgl/src/draw/../misc/../font/../misc/lv_area.h **** #ifdef __cplusplus
  10:Drivers/lvgl/lvgl/src/draw/../misc/../font/../misc/lv_area.h **** extern "C" {
  11:Drivers/lvgl/lvgl/src/draw/../misc/../font/../misc/lv_area.h **** #endif
  12:Drivers/lvgl/lvgl/src/draw/../misc/../font/../misc/lv_area.h **** 
  13:Drivers/lvgl/lvgl/src/draw/../misc/../font/../misc/lv_area.h **** /*********************
  14:Drivers/lvgl/lvgl/src/draw/../misc/../font/../misc/lv_area.h ****  *      INCLUDES
  15:Drivers/lvgl/lvgl/src/draw/../misc/../font/../misc/lv_area.h ****  *********************/
  16:Drivers/lvgl/lvgl/src/draw/../misc/../font/../misc/lv_area.h **** #include "../lv_conf_internal.h"
  17:Drivers/lvgl/lvgl/src/draw/../misc/../font/../misc/lv_area.h **** #include <stdbool.h>
  18:Drivers/lvgl/lvgl/src/draw/../misc/../font/../misc/lv_area.h **** #include <stdint.h>
  19:Drivers/lvgl/lvgl/src/draw/../misc/../font/../misc/lv_area.h **** 
  20:Drivers/lvgl/lvgl/src/draw/../misc/../font/../misc/lv_area.h **** /*********************
  21:Drivers/lvgl/lvgl/src/draw/../misc/../font/../misc/lv_area.h ****  *      DEFINES
  22:Drivers/lvgl/lvgl/src/draw/../misc/../font/../misc/lv_area.h ****  *********************/
  23:Drivers/lvgl/lvgl/src/draw/../misc/../font/../misc/lv_area.h **** 
  24:Drivers/lvgl/lvgl/src/draw/../misc/../font/../misc/lv_area.h **** #if LV_USE_LARGE_COORD
  25:Drivers/lvgl/lvgl/src/draw/../misc/../font/../misc/lv_area.h **** typedef int32_t lv_coord_t;
  26:Drivers/lvgl/lvgl/src/draw/../misc/../font/../misc/lv_area.h **** #else
  27:Drivers/lvgl/lvgl/src/draw/../misc/../font/../misc/lv_area.h **** typedef int16_t lv_coord_t;
  28:Drivers/lvgl/lvgl/src/draw/../misc/../font/../misc/lv_area.h **** #endif
  29:Drivers/lvgl/lvgl/src/draw/../misc/../font/../misc/lv_area.h **** 
  30:Drivers/lvgl/lvgl/src/draw/../misc/../font/../misc/lv_area.h **** /**********************
  31:Drivers/lvgl/lvgl/src/draw/../misc/../font/../misc/lv_area.h ****  *      TYPEDEFS
  32:Drivers/lvgl/lvgl/src/draw/../misc/../font/../misc/lv_area.h ****  **********************/
  33:Drivers/lvgl/lvgl/src/draw/../misc/../font/../misc/lv_area.h **** 
  34:Drivers/lvgl/lvgl/src/draw/../misc/../font/../misc/lv_area.h **** /**
  35:Drivers/lvgl/lvgl/src/draw/../misc/../font/../misc/lv_area.h ****  * Represents a point on the screen.
  36:Drivers/lvgl/lvgl/src/draw/../misc/../font/../misc/lv_area.h ****  */
  37:Drivers/lvgl/lvgl/src/draw/../misc/../font/../misc/lv_area.h **** typedef struct {
  38:Drivers/lvgl/lvgl/src/draw/../misc/../font/../misc/lv_area.h ****     lv_coord_t x;
  39:Drivers/lvgl/lvgl/src/draw/../misc/../font/../misc/lv_area.h ****     lv_coord_t y;
  40:Drivers/lvgl/lvgl/src/draw/../misc/../font/../misc/lv_area.h **** } lv_point_t;
  41:Drivers/lvgl/lvgl/src/draw/../misc/../font/../misc/lv_area.h **** 
  42:Drivers/lvgl/lvgl/src/draw/../misc/../font/../misc/lv_area.h **** /** Represents an area of the screen.*/
  43:Drivers/lvgl/lvgl/src/draw/../misc/../font/../misc/lv_area.h **** typedef struct {
  44:Drivers/lvgl/lvgl/src/draw/../misc/../font/../misc/lv_area.h ****     lv_coord_t x1;
ARM GAS  /tmp/cc1OJ4An.s 			page 28


  45:Drivers/lvgl/lvgl/src/draw/../misc/../font/../misc/lv_area.h ****     lv_coord_t y1;
  46:Drivers/lvgl/lvgl/src/draw/../misc/../font/../misc/lv_area.h ****     lv_coord_t x2;
  47:Drivers/lvgl/lvgl/src/draw/../misc/../font/../misc/lv_area.h ****     lv_coord_t y2;
  48:Drivers/lvgl/lvgl/src/draw/../misc/../font/../misc/lv_area.h **** } lv_area_t;
  49:Drivers/lvgl/lvgl/src/draw/../misc/../font/../misc/lv_area.h **** 
  50:Drivers/lvgl/lvgl/src/draw/../misc/../font/../misc/lv_area.h **** /** Alignments*/
  51:Drivers/lvgl/lvgl/src/draw/../misc/../font/../misc/lv_area.h **** enum {
  52:Drivers/lvgl/lvgl/src/draw/../misc/../font/../misc/lv_area.h ****     LV_ALIGN_DEFAULT = 0,
  53:Drivers/lvgl/lvgl/src/draw/../misc/../font/../misc/lv_area.h ****     LV_ALIGN_TOP_LEFT,
  54:Drivers/lvgl/lvgl/src/draw/../misc/../font/../misc/lv_area.h ****     LV_ALIGN_TOP_MID,
  55:Drivers/lvgl/lvgl/src/draw/../misc/../font/../misc/lv_area.h ****     LV_ALIGN_TOP_RIGHT,
  56:Drivers/lvgl/lvgl/src/draw/../misc/../font/../misc/lv_area.h ****     LV_ALIGN_BOTTOM_LEFT,
  57:Drivers/lvgl/lvgl/src/draw/../misc/../font/../misc/lv_area.h ****     LV_ALIGN_BOTTOM_MID,
  58:Drivers/lvgl/lvgl/src/draw/../misc/../font/../misc/lv_area.h ****     LV_ALIGN_BOTTOM_RIGHT,
  59:Drivers/lvgl/lvgl/src/draw/../misc/../font/../misc/lv_area.h ****     LV_ALIGN_LEFT_MID,
  60:Drivers/lvgl/lvgl/src/draw/../misc/../font/../misc/lv_area.h ****     LV_ALIGN_RIGHT_MID,
  61:Drivers/lvgl/lvgl/src/draw/../misc/../font/../misc/lv_area.h ****     LV_ALIGN_CENTER,
  62:Drivers/lvgl/lvgl/src/draw/../misc/../font/../misc/lv_area.h **** 
  63:Drivers/lvgl/lvgl/src/draw/../misc/../font/../misc/lv_area.h ****     LV_ALIGN_OUT_TOP_LEFT,
  64:Drivers/lvgl/lvgl/src/draw/../misc/../font/../misc/lv_area.h ****     LV_ALIGN_OUT_TOP_MID,
  65:Drivers/lvgl/lvgl/src/draw/../misc/../font/../misc/lv_area.h ****     LV_ALIGN_OUT_TOP_RIGHT,
  66:Drivers/lvgl/lvgl/src/draw/../misc/../font/../misc/lv_area.h ****     LV_ALIGN_OUT_BOTTOM_LEFT,
  67:Drivers/lvgl/lvgl/src/draw/../misc/../font/../misc/lv_area.h ****     LV_ALIGN_OUT_BOTTOM_MID,
  68:Drivers/lvgl/lvgl/src/draw/../misc/../font/../misc/lv_area.h ****     LV_ALIGN_OUT_BOTTOM_RIGHT,
  69:Drivers/lvgl/lvgl/src/draw/../misc/../font/../misc/lv_area.h ****     LV_ALIGN_OUT_LEFT_TOP,
  70:Drivers/lvgl/lvgl/src/draw/../misc/../font/../misc/lv_area.h ****     LV_ALIGN_OUT_LEFT_MID,
  71:Drivers/lvgl/lvgl/src/draw/../misc/../font/../misc/lv_area.h ****     LV_ALIGN_OUT_LEFT_BOTTOM,
  72:Drivers/lvgl/lvgl/src/draw/../misc/../font/../misc/lv_area.h ****     LV_ALIGN_OUT_RIGHT_TOP,
  73:Drivers/lvgl/lvgl/src/draw/../misc/../font/../misc/lv_area.h ****     LV_ALIGN_OUT_RIGHT_MID,
  74:Drivers/lvgl/lvgl/src/draw/../misc/../font/../misc/lv_area.h ****     LV_ALIGN_OUT_RIGHT_BOTTOM,
  75:Drivers/lvgl/lvgl/src/draw/../misc/../font/../misc/lv_area.h **** };
  76:Drivers/lvgl/lvgl/src/draw/../misc/../font/../misc/lv_area.h **** typedef uint8_t lv_align_t;
  77:Drivers/lvgl/lvgl/src/draw/../misc/../font/../misc/lv_area.h **** 
  78:Drivers/lvgl/lvgl/src/draw/../misc/../font/../misc/lv_area.h **** enum {
  79:Drivers/lvgl/lvgl/src/draw/../misc/../font/../misc/lv_area.h ****     LV_DIR_NONE     = 0x00,
  80:Drivers/lvgl/lvgl/src/draw/../misc/../font/../misc/lv_area.h ****     LV_DIR_LEFT     = (1 << 0),
  81:Drivers/lvgl/lvgl/src/draw/../misc/../font/../misc/lv_area.h ****     LV_DIR_RIGHT    = (1 << 1),
  82:Drivers/lvgl/lvgl/src/draw/../misc/../font/../misc/lv_area.h ****     LV_DIR_TOP      = (1 << 2),
  83:Drivers/lvgl/lvgl/src/draw/../misc/../font/../misc/lv_area.h ****     LV_DIR_BOTTOM   = (1 << 3),
  84:Drivers/lvgl/lvgl/src/draw/../misc/../font/../misc/lv_area.h ****     LV_DIR_HOR      = LV_DIR_LEFT | LV_DIR_RIGHT,
  85:Drivers/lvgl/lvgl/src/draw/../misc/../font/../misc/lv_area.h ****     LV_DIR_VER      = LV_DIR_TOP | LV_DIR_BOTTOM,
  86:Drivers/lvgl/lvgl/src/draw/../misc/../font/../misc/lv_area.h ****     LV_DIR_ALL      = LV_DIR_HOR | LV_DIR_VER,
  87:Drivers/lvgl/lvgl/src/draw/../misc/../font/../misc/lv_area.h **** };
  88:Drivers/lvgl/lvgl/src/draw/../misc/../font/../misc/lv_area.h **** 
  89:Drivers/lvgl/lvgl/src/draw/../misc/../font/../misc/lv_area.h **** typedef uint8_t lv_dir_t;
  90:Drivers/lvgl/lvgl/src/draw/../misc/../font/../misc/lv_area.h **** 
  91:Drivers/lvgl/lvgl/src/draw/../misc/../font/../misc/lv_area.h **** /**********************
  92:Drivers/lvgl/lvgl/src/draw/../misc/../font/../misc/lv_area.h ****  * GLOBAL PROTOTYPES
  93:Drivers/lvgl/lvgl/src/draw/../misc/../font/../misc/lv_area.h ****  **********************/
  94:Drivers/lvgl/lvgl/src/draw/../misc/../font/../misc/lv_area.h **** 
  95:Drivers/lvgl/lvgl/src/draw/../misc/../font/../misc/lv_area.h **** /**
  96:Drivers/lvgl/lvgl/src/draw/../misc/../font/../misc/lv_area.h ****  * Initialize an area
  97:Drivers/lvgl/lvgl/src/draw/../misc/../font/../misc/lv_area.h ****  * @param area_p pointer to an area
  98:Drivers/lvgl/lvgl/src/draw/../misc/../font/../misc/lv_area.h ****  * @param x1 left coordinate of the area
  99:Drivers/lvgl/lvgl/src/draw/../misc/../font/../misc/lv_area.h ****  * @param y1 top coordinate of the area
 100:Drivers/lvgl/lvgl/src/draw/../misc/../font/../misc/lv_area.h ****  * @param x2 right coordinate of the area
 101:Drivers/lvgl/lvgl/src/draw/../misc/../font/../misc/lv_area.h ****  * @param y2 bottom coordinate of the area
ARM GAS  /tmp/cc1OJ4An.s 			page 29


 102:Drivers/lvgl/lvgl/src/draw/../misc/../font/../misc/lv_area.h ****  */
 103:Drivers/lvgl/lvgl/src/draw/../misc/../font/../misc/lv_area.h **** void lv_area_set(lv_area_t * area_p, lv_coord_t x1, lv_coord_t y1, lv_coord_t x2, lv_coord_t y2);
 104:Drivers/lvgl/lvgl/src/draw/../misc/../font/../misc/lv_area.h **** 
 105:Drivers/lvgl/lvgl/src/draw/../misc/../font/../misc/lv_area.h **** /**
 106:Drivers/lvgl/lvgl/src/draw/../misc/../font/../misc/lv_area.h ****  * Copy an area
 107:Drivers/lvgl/lvgl/src/draw/../misc/../font/../misc/lv_area.h ****  * @param dest pointer to the destination area
 108:Drivers/lvgl/lvgl/src/draw/../misc/../font/../misc/lv_area.h ****  * @param src pointer to the source area
 109:Drivers/lvgl/lvgl/src/draw/../misc/../font/../misc/lv_area.h ****  */
 110:Drivers/lvgl/lvgl/src/draw/../misc/../font/../misc/lv_area.h **** inline static void lv_area_copy(lv_area_t * dest, const lv_area_t * src)
 111:Drivers/lvgl/lvgl/src/draw/../misc/../font/../misc/lv_area.h **** {
 112:Drivers/lvgl/lvgl/src/draw/../misc/../font/../misc/lv_area.h ****     dest->x1 = src->x1;
 113:Drivers/lvgl/lvgl/src/draw/../misc/../font/../misc/lv_area.h ****     dest->y1 = src->y1;
 114:Drivers/lvgl/lvgl/src/draw/../misc/../font/../misc/lv_area.h ****     dest->x2 = src->x2;
 115:Drivers/lvgl/lvgl/src/draw/../misc/../font/../misc/lv_area.h ****     dest->y2 = src->y2;
 116:Drivers/lvgl/lvgl/src/draw/../misc/../font/../misc/lv_area.h **** }
 117:Drivers/lvgl/lvgl/src/draw/../misc/../font/../misc/lv_area.h **** 
 118:Drivers/lvgl/lvgl/src/draw/../misc/../font/../misc/lv_area.h **** /**
 119:Drivers/lvgl/lvgl/src/draw/../misc/../font/../misc/lv_area.h ****  * Get the width of an area
 120:Drivers/lvgl/lvgl/src/draw/../misc/../font/../misc/lv_area.h ****  * @param area_p pointer to an area
 121:Drivers/lvgl/lvgl/src/draw/../misc/../font/../misc/lv_area.h ****  * @return the width of the area (if x1 == x2 -> width = 1)
 122:Drivers/lvgl/lvgl/src/draw/../misc/../font/../misc/lv_area.h ****  */
 123:Drivers/lvgl/lvgl/src/draw/../misc/../font/../misc/lv_area.h **** static inline lv_coord_t lv_area_get_width(const lv_area_t * area_p)
 124:Drivers/lvgl/lvgl/src/draw/../misc/../font/../misc/lv_area.h **** {
 125:Drivers/lvgl/lvgl/src/draw/../misc/../font/../misc/lv_area.h ****     return (lv_coord_t)(area_p->x2 - area_p->x1 + 1);
 328              		.loc 4 125 0
 329 006e 0C9A     		ldr	r2, [sp, #48]
 330 0070 9388     		ldrh	r3, [r2, #4]
 331 0072 1288     		ldrh	r2, [r2]
 332 0074 9B1A     		subs	r3, r3, r2
 333 0076 9BB2     		uxth	r3, r3
 334 0078 0133     		adds	r3, r3, #1
 335 007a 1BB2     		sxth	r3, r3
 336              	.LVL33:
 337              	.L22:
 338              	.LBE55:
 339              	.LBE54:
 340              	.LBB56:
 341              	.LBB57:
 342              		.file 5 "Drivers/lvgl/lvgl/src/draw/../misc/../font/lv_font.h"
   1:Drivers/lvgl/lvgl/src/draw/../misc/../font/lv_font.h **** /**
   2:Drivers/lvgl/lvgl/src/draw/../misc/../font/lv_font.h ****  * @file lv_font.h
   3:Drivers/lvgl/lvgl/src/draw/../misc/../font/lv_font.h ****  *
   4:Drivers/lvgl/lvgl/src/draw/../misc/../font/lv_font.h ****  */
   5:Drivers/lvgl/lvgl/src/draw/../misc/../font/lv_font.h **** 
   6:Drivers/lvgl/lvgl/src/draw/../misc/../font/lv_font.h **** #ifndef LV_FONT_H
   7:Drivers/lvgl/lvgl/src/draw/../misc/../font/lv_font.h **** #define LV_FONT_H
   8:Drivers/lvgl/lvgl/src/draw/../misc/../font/lv_font.h **** 
   9:Drivers/lvgl/lvgl/src/draw/../misc/../font/lv_font.h **** #ifdef __cplusplus
  10:Drivers/lvgl/lvgl/src/draw/../misc/../font/lv_font.h **** extern "C" {
  11:Drivers/lvgl/lvgl/src/draw/../misc/../font/lv_font.h **** #endif
  12:Drivers/lvgl/lvgl/src/draw/../misc/../font/lv_font.h **** 
  13:Drivers/lvgl/lvgl/src/draw/../misc/../font/lv_font.h **** /*********************
  14:Drivers/lvgl/lvgl/src/draw/../misc/../font/lv_font.h ****  *      INCLUDES
  15:Drivers/lvgl/lvgl/src/draw/../misc/../font/lv_font.h ****  *********************/
  16:Drivers/lvgl/lvgl/src/draw/../misc/../font/lv_font.h **** #include "../lv_conf_internal.h"
  17:Drivers/lvgl/lvgl/src/draw/../misc/../font/lv_font.h **** #include <stdint.h>
  18:Drivers/lvgl/lvgl/src/draw/../misc/../font/lv_font.h **** #include <stddef.h>
ARM GAS  /tmp/cc1OJ4An.s 			page 30


  19:Drivers/lvgl/lvgl/src/draw/../misc/../font/lv_font.h **** #include <stdbool.h>
  20:Drivers/lvgl/lvgl/src/draw/../misc/../font/lv_font.h **** 
  21:Drivers/lvgl/lvgl/src/draw/../misc/../font/lv_font.h **** #include "lv_symbol_def.h"
  22:Drivers/lvgl/lvgl/src/draw/../misc/../font/lv_font.h **** #include "../misc/lv_area.h"
  23:Drivers/lvgl/lvgl/src/draw/../misc/../font/lv_font.h **** 
  24:Drivers/lvgl/lvgl/src/draw/../misc/../font/lv_font.h **** /*********************
  25:Drivers/lvgl/lvgl/src/draw/../misc/../font/lv_font.h ****  *      DEFINES
  26:Drivers/lvgl/lvgl/src/draw/../misc/../font/lv_font.h ****  *********************/
  27:Drivers/lvgl/lvgl/src/draw/../misc/../font/lv_font.h **** 
  28:Drivers/lvgl/lvgl/src/draw/../misc/../font/lv_font.h **** /* imgfont identifier */
  29:Drivers/lvgl/lvgl/src/draw/../misc/../font/lv_font.h **** #define LV_IMGFONT_BPP 9
  30:Drivers/lvgl/lvgl/src/draw/../misc/../font/lv_font.h **** 
  31:Drivers/lvgl/lvgl/src/draw/../misc/../font/lv_font.h **** /**********************
  32:Drivers/lvgl/lvgl/src/draw/../misc/../font/lv_font.h ****  *      TYPEDEFS
  33:Drivers/lvgl/lvgl/src/draw/../misc/../font/lv_font.h ****  **********************/
  34:Drivers/lvgl/lvgl/src/draw/../misc/../font/lv_font.h **** 
  35:Drivers/lvgl/lvgl/src/draw/../misc/../font/lv_font.h **** /*------------------
  36:Drivers/lvgl/lvgl/src/draw/../misc/../font/lv_font.h ****  * General types
  37:Drivers/lvgl/lvgl/src/draw/../misc/../font/lv_font.h ****  *-----------------*/
  38:Drivers/lvgl/lvgl/src/draw/../misc/../font/lv_font.h **** 
  39:Drivers/lvgl/lvgl/src/draw/../misc/../font/lv_font.h **** struct _lv_font_t;
  40:Drivers/lvgl/lvgl/src/draw/../misc/../font/lv_font.h **** /** Describes the properties of a glyph.*/
  41:Drivers/lvgl/lvgl/src/draw/../misc/../font/lv_font.h **** typedef struct {
  42:Drivers/lvgl/lvgl/src/draw/../misc/../font/lv_font.h ****     const struct _lv_font_t *
  43:Drivers/lvgl/lvgl/src/draw/../misc/../font/lv_font.h ****         resolved_font; /**< Pointer to a font where the glyph was actually found after handling fal
  44:Drivers/lvgl/lvgl/src/draw/../misc/../font/lv_font.h ****     uint16_t adv_w; /**< The glyph needs this space. Draw the next glyph after this width.*/
  45:Drivers/lvgl/lvgl/src/draw/../misc/../font/lv_font.h ****     uint16_t box_w; /**< Width of the glyph's bounding box*/
  46:Drivers/lvgl/lvgl/src/draw/../misc/../font/lv_font.h ****     uint16_t box_h; /**< Height of the glyph's bounding box*/
  47:Drivers/lvgl/lvgl/src/draw/../misc/../font/lv_font.h ****     int16_t ofs_x;  /**< x offset of the bounding box*/
  48:Drivers/lvgl/lvgl/src/draw/../misc/../font/lv_font.h ****     int16_t ofs_y;  /**< y offset of the bounding box*/
  49:Drivers/lvgl/lvgl/src/draw/../misc/../font/lv_font.h ****     uint8_t bpp: 4;  /**< Bit-per-pixel: 1, 2, 4, 8*/
  50:Drivers/lvgl/lvgl/src/draw/../misc/../font/lv_font.h ****     uint8_t is_placeholder: 1; /** Glyph is missing. But placeholder will still be displayed */
  51:Drivers/lvgl/lvgl/src/draw/../misc/../font/lv_font.h **** } lv_font_glyph_dsc_t;
  52:Drivers/lvgl/lvgl/src/draw/../misc/../font/lv_font.h **** 
  53:Drivers/lvgl/lvgl/src/draw/../misc/../font/lv_font.h **** /** The bitmaps might be upscaled by 3 to achieve subpixel rendering.*/
  54:Drivers/lvgl/lvgl/src/draw/../misc/../font/lv_font.h **** enum {
  55:Drivers/lvgl/lvgl/src/draw/../misc/../font/lv_font.h ****     LV_FONT_SUBPX_NONE,
  56:Drivers/lvgl/lvgl/src/draw/../misc/../font/lv_font.h ****     LV_FONT_SUBPX_HOR,
  57:Drivers/lvgl/lvgl/src/draw/../misc/../font/lv_font.h ****     LV_FONT_SUBPX_VER,
  58:Drivers/lvgl/lvgl/src/draw/../misc/../font/lv_font.h ****     LV_FONT_SUBPX_BOTH,
  59:Drivers/lvgl/lvgl/src/draw/../misc/../font/lv_font.h **** };
  60:Drivers/lvgl/lvgl/src/draw/../misc/../font/lv_font.h **** 
  61:Drivers/lvgl/lvgl/src/draw/../misc/../font/lv_font.h **** typedef uint8_t lv_font_subpx_t;
  62:Drivers/lvgl/lvgl/src/draw/../misc/../font/lv_font.h **** 
  63:Drivers/lvgl/lvgl/src/draw/../misc/../font/lv_font.h **** /** Describe the properties of a font*/
  64:Drivers/lvgl/lvgl/src/draw/../misc/../font/lv_font.h **** typedef struct _lv_font_t {
  65:Drivers/lvgl/lvgl/src/draw/../misc/../font/lv_font.h ****     /** Get a glyph's descriptor from a font*/
  66:Drivers/lvgl/lvgl/src/draw/../misc/../font/lv_font.h ****     bool (*get_glyph_dsc)(const struct _lv_font_t *, lv_font_glyph_dsc_t *, uint32_t letter, uint32
  67:Drivers/lvgl/lvgl/src/draw/../misc/../font/lv_font.h **** 
  68:Drivers/lvgl/lvgl/src/draw/../misc/../font/lv_font.h ****     /** Get a glyph's bitmap from a font*/
  69:Drivers/lvgl/lvgl/src/draw/../misc/../font/lv_font.h ****     const uint8_t * (*get_glyph_bitmap)(const struct _lv_font_t *, uint32_t);
  70:Drivers/lvgl/lvgl/src/draw/../misc/../font/lv_font.h **** 
  71:Drivers/lvgl/lvgl/src/draw/../misc/../font/lv_font.h ****     /*Pointer to the font in a font pack (must have the same line height)*/
  72:Drivers/lvgl/lvgl/src/draw/../misc/../font/lv_font.h ****     lv_coord_t line_height;         /**< The real line height where any text fits*/
  73:Drivers/lvgl/lvgl/src/draw/../misc/../font/lv_font.h ****     lv_coord_t base_line;           /**< Base line measured from the top of the line_height*/
  74:Drivers/lvgl/lvgl/src/draw/../misc/../font/lv_font.h ****     uint8_t subpx  : 2;             /**< An element of `lv_font_subpx_t`*/
  75:Drivers/lvgl/lvgl/src/draw/../misc/../font/lv_font.h **** 
ARM GAS  /tmp/cc1OJ4An.s 			page 31


  76:Drivers/lvgl/lvgl/src/draw/../misc/../font/lv_font.h ****     int8_t underline_position;      /**< Distance between the top of the underline and base line (<
  77:Drivers/lvgl/lvgl/src/draw/../misc/../font/lv_font.h ****     int8_t underline_thickness;     /**< Thickness of the underline*/
  78:Drivers/lvgl/lvgl/src/draw/../misc/../font/lv_font.h **** 
  79:Drivers/lvgl/lvgl/src/draw/../misc/../font/lv_font.h ****     const void * dsc;               /**< Store implementation specific or run_time data or caching 
  80:Drivers/lvgl/lvgl/src/draw/../misc/../font/lv_font.h ****     const struct _lv_font_t * fallback;   /**< Fallback font for missing glyph. Resolved recursivel
  81:Drivers/lvgl/lvgl/src/draw/../misc/../font/lv_font.h **** #if LV_USE_USER_DATA
  82:Drivers/lvgl/lvgl/src/draw/../misc/../font/lv_font.h ****     void * user_data;               /**< Custom user data for font.*/
  83:Drivers/lvgl/lvgl/src/draw/../misc/../font/lv_font.h **** #endif
  84:Drivers/lvgl/lvgl/src/draw/../misc/../font/lv_font.h **** } lv_font_t;
  85:Drivers/lvgl/lvgl/src/draw/../misc/../font/lv_font.h **** 
  86:Drivers/lvgl/lvgl/src/draw/../misc/../font/lv_font.h **** /**********************
  87:Drivers/lvgl/lvgl/src/draw/../misc/../font/lv_font.h ****  * GLOBAL PROTOTYPES
  88:Drivers/lvgl/lvgl/src/draw/../misc/../font/lv_font.h ****  **********************/
  89:Drivers/lvgl/lvgl/src/draw/../misc/../font/lv_font.h **** 
  90:Drivers/lvgl/lvgl/src/draw/../misc/../font/lv_font.h **** /**
  91:Drivers/lvgl/lvgl/src/draw/../misc/../font/lv_font.h ****  * Return with the bitmap of a font.
  92:Drivers/lvgl/lvgl/src/draw/../misc/../font/lv_font.h ****  * @param font_p pointer to a font
  93:Drivers/lvgl/lvgl/src/draw/../misc/../font/lv_font.h ****  * @param letter a UNICODE character code
  94:Drivers/lvgl/lvgl/src/draw/../misc/../font/lv_font.h ****  * @return pointer to the bitmap of the letter
  95:Drivers/lvgl/lvgl/src/draw/../misc/../font/lv_font.h ****  */
  96:Drivers/lvgl/lvgl/src/draw/../misc/../font/lv_font.h **** const uint8_t * lv_font_get_glyph_bitmap(const lv_font_t * font_p, uint32_t letter);
  97:Drivers/lvgl/lvgl/src/draw/../misc/../font/lv_font.h **** 
  98:Drivers/lvgl/lvgl/src/draw/../misc/../font/lv_font.h **** /**
  99:Drivers/lvgl/lvgl/src/draw/../misc/../font/lv_font.h ****  * Get the descriptor of a glyph
 100:Drivers/lvgl/lvgl/src/draw/../misc/../font/lv_font.h ****  * @param font_p pointer to font
 101:Drivers/lvgl/lvgl/src/draw/../misc/../font/lv_font.h ****  * @param dsc_out store the result descriptor here
 102:Drivers/lvgl/lvgl/src/draw/../misc/../font/lv_font.h ****  * @param letter a UNICODE letter code
 103:Drivers/lvgl/lvgl/src/draw/../misc/../font/lv_font.h ****  * @param letter_next the next letter after `letter`. Used for kerning
 104:Drivers/lvgl/lvgl/src/draw/../misc/../font/lv_font.h ****  * @return true: descriptor is successfully loaded into `dsc_out`.
 105:Drivers/lvgl/lvgl/src/draw/../misc/../font/lv_font.h ****  *         false: the letter was not found, no data is loaded to `dsc_out`
 106:Drivers/lvgl/lvgl/src/draw/../misc/../font/lv_font.h ****  */
 107:Drivers/lvgl/lvgl/src/draw/../misc/../font/lv_font.h **** bool lv_font_get_glyph_dsc(const lv_font_t * font_p, lv_font_glyph_dsc_t * dsc_out, uint32_t letter
 108:Drivers/lvgl/lvgl/src/draw/../misc/../font/lv_font.h ****                            uint32_t letter_next);
 109:Drivers/lvgl/lvgl/src/draw/../misc/../font/lv_font.h **** 
 110:Drivers/lvgl/lvgl/src/draw/../misc/../font/lv_font.h **** /**
 111:Drivers/lvgl/lvgl/src/draw/../misc/../font/lv_font.h ****  * Get the width of a glyph with kerning
 112:Drivers/lvgl/lvgl/src/draw/../misc/../font/lv_font.h ****  * @param font pointer to a font
 113:Drivers/lvgl/lvgl/src/draw/../misc/../font/lv_font.h ****  * @param letter a UNICODE letter
 114:Drivers/lvgl/lvgl/src/draw/../misc/../font/lv_font.h ****  * @param letter_next the next letter after `letter`. Used for kerning
 115:Drivers/lvgl/lvgl/src/draw/../misc/../font/lv_font.h ****  * @return the width of the glyph
 116:Drivers/lvgl/lvgl/src/draw/../misc/../font/lv_font.h ****  */
 117:Drivers/lvgl/lvgl/src/draw/../misc/../font/lv_font.h **** uint16_t lv_font_get_glyph_width(const lv_font_t * font, uint32_t letter, uint32_t letter_next);
 118:Drivers/lvgl/lvgl/src/draw/../misc/../font/lv_font.h **** 
 119:Drivers/lvgl/lvgl/src/draw/../misc/../font/lv_font.h **** /**
 120:Drivers/lvgl/lvgl/src/draw/../misc/../font/lv_font.h ****  * Get the line height of a font. All characters fit into this height
 121:Drivers/lvgl/lvgl/src/draw/../misc/../font/lv_font.h ****  * @param font_p pointer to a font
 122:Drivers/lvgl/lvgl/src/draw/../misc/../font/lv_font.h ****  * @return the height of a font
 123:Drivers/lvgl/lvgl/src/draw/../misc/../font/lv_font.h ****  */
 124:Drivers/lvgl/lvgl/src/draw/../misc/../font/lv_font.h **** static inline lv_coord_t lv_font_get_line_height(const lv_font_t * font_p)
 125:Drivers/lvgl/lvgl/src/draw/../misc/../font/lv_font.h **** {
 126:Drivers/lvgl/lvgl/src/draw/../misc/../font/lv_font.h ****     return font_p->line_height;
 343              		.loc 5 126 0
 344 007c 059A     		ldr	r2, [sp, #20]
 345 007e B2F90850 		ldrsh	r5, [r2, #8]
 346              	.LVL34:
 347              	.LBE57:
 348              	.LBE56:
ARM GAS  /tmp/cc1OJ4An.s 			page 32


 122:Drivers/lvgl/lvgl/src/draw/lv_draw_label.c **** 
 349              		.loc 1 122 0
 350 0082 B4F91220 		ldrsh	r2, [r4, #18]
 351 0086 2A44     		add	r2, r2, r5
 352 0088 0E92     		str	r2, [sp, #56]
 353              	.LVL35:
 127:Drivers/lvgl/lvgl/src/draw/lv_draw_label.c ****     pos.y = coords->y1;
 354              		.loc 1 127 0
 355 008a 0C98     		ldr	r0, [sp, #48]
 356 008c B0F90020 		ldrsh	r2, [r0]
 357              	.LVL36:
 358 0090 ADF8AC20 		strh	r2, [sp, #172]	@ movhi
 128:Drivers/lvgl/lvgl/src/draw/lv_draw_label.c **** 
 359              		.loc 1 128 0
 360 0094 B0F90220 		ldrsh	r2, [r0, #2]
 361              	.LVL37:
 132:Drivers/lvgl/lvgl/src/draw/lv_draw_label.c ****     y_ofs = dsc->ofs_y;
 362              		.loc 1 132 0
 363 0098 B4F91610 		ldrsh	r1, [r4, #22]
 364 009c 1091     		str	r1, [sp, #64]
 365              	.LVL38:
 133:Drivers/lvgl/lvgl/src/draw/lv_draw_label.c ****     pos.y += y_ofs;
 366              		.loc 1 133 0
 367 009e B4F91810 		ldrsh	r1, [r4, #24]
 368              	.LVL39:
 134:Drivers/lvgl/lvgl/src/draw/lv_draw_label.c **** 
 369              		.loc 1 134 0
 370 00a2 0A44     		add	r2, r2, r1
 371 00a4 ADF8AE20 		strh	r2, [sp, #174]	@ movhi
 372              	.LVL40:
 140:Drivers/lvgl/lvgl/src/draw/lv_draw_label.c ****         /*If the label changed too much recalculate the hint.*/
 373              		.loc 1 140 0
 374 00a8 409A     		ldr	r2, [sp, #256]
 375 00aa 0032     		adds	r2, r2, #0
 376 00ac 18BF     		it	ne
 377 00ae 0122     		movne	r2, #1
 378 00b0 0029     		cmp	r1, #0
 379 00b2 0CBF     		ite	eq
 380 00b4 1146     		moveq	r1, r2
 381 00b6 0021     		movne	r1, #0
 382              	.LVL41:
 383 00b8 59B3     		cbz	r1, .L61
 140:Drivers/lvgl/lvgl/src/draw/lv_draw_label.c ****         /*If the label changed too much recalculate the hint.*/
 384              		.loc 1 140 0 is_stmt 0 discriminator 1
 385 00ba B0F90210 		ldrsh	r1, [r0, #2]
 386 00be 0029     		cmp	r1, #0
 387 00c0 13DB     		blt	.L73
 137:Drivers/lvgl/lvgl/src/draw/lv_draw_label.c **** 
 388              		.loc 1 137 0 is_stmt 1
 389 00c2 4FF0FF38 		mov	r8, #-1
 390 00c6 26E0     		b	.L23
 391              	.LVL42:
 392              	.L21:
 393              	.LBB58:
 116:Drivers/lvgl/lvgl/src/draw/lv_draw_label.c ****                         dsc->flag);
 394              		.loc 1 116 0
 395 00c8 B4F91430 		ldrsh	r3, [r4, #20]
ARM GAS  /tmp/cc1OJ4An.s 			page 33


 396 00cc 0292     		str	r2, [sp, #8]
 397              	.LVL43:
 398 00ce 41F6FF72 		movw	r2, #8191
 399 00d2 0192     		str	r2, [sp, #4]
 400 00d4 B4F91220 		ldrsh	r2, [r4, #18]
 401 00d8 0092     		str	r2, [sp]
 402 00da 2268     		ldr	r2, [r4]
 403 00dc 0999     		ldr	r1, [sp, #36]
 404 00de 17A8     		add	r0, sp, #92
 405              	.LVL44:
 406 00e0 FFF7FEFF 		bl	lv_txt_get_size
 407              	.LVL45:
 118:Drivers/lvgl/lvgl/src/draw/lv_draw_label.c ****     }
 408              		.loc 1 118 0
 409 00e4 BDF95C30 		ldrsh	r3, [sp, #92]
 410              	.LVL46:
 411 00e8 C8E7     		b	.L22
 412              	.LVL47:
 413              	.L73:
 414              	.LBE58:
 142:Drivers/lvgl/lvgl/src/draw/lv_draw_label.c ****             hint->line_start = -1;
 415              		.loc 1 142 0
 416 00ea 4098     		ldr	r0, [sp, #256]
 417 00ec 8068     		ldr	r0, [r0, #8]
 418 00ee 411A     		subs	r1, r0, r1
 419 00f0 0029     		cmp	r1, #0
 420 00f2 B8BF     		it	lt
 421 00f4 4942     		rsblt	r1, r1, #0
 422 00f6 0E98     		ldr	r0, [sp, #56]
 423 00f8 C0F50070 		rsb	r0, r0, #512
 424 00fc B1EB400F 		cmp	r1, r0, lsl #1
 425 0100 03DD     		ble	.L24
 143:Drivers/lvgl/lvgl/src/draw/lv_draw_label.c ****         }
 426              		.loc 1 143 0
 427 0102 4FF0FF31 		mov	r1, #-1
 428 0106 4098     		ldr	r0, [sp, #256]
 429 0108 0160     		str	r1, [r0]
 430              	.LVL48:
 431              	.L24:
 145:Drivers/lvgl/lvgl/src/draw/lv_draw_label.c ****     }
 432              		.loc 1 145 0
 433 010a 4099     		ldr	r1, [sp, #256]
 434 010c D1F80080 		ldr	r8, [r1]
 435              	.LVL49:
 436 0110 01E0     		b	.L23
 437              	.LVL50:
 438              	.L61:
 137:Drivers/lvgl/lvgl/src/draw/lv_draw_label.c **** 
 439              		.loc 1 137 0
 440 0112 4FF0FF38 		mov	r8, #-1
 441              	.LVL51:
 442              	.L23:
 149:Drivers/lvgl/lvgl/src/draw/lv_draw_label.c ****         line_start = last_line_start;
 443              		.loc 1 149 0
 444 0116 B8F1000F 		cmp	r8, #0
 445 011a B4BF     		ite	lt
 446 011c 0022     		movlt	r2, #0
ARM GAS  /tmp/cc1OJ4An.s 			page 34


 447 011e 02F00102 		andge	r2, r2, #1
 448 0122 3AB1     		cbz	r2, .L63
 449              	.LVL52:
 151:Drivers/lvgl/lvgl/src/draw/lv_draw_label.c ****     }
 450              		.loc 1 151 0
 451 0124 409A     		ldr	r2, [sp, #256]
 452 0126 5268     		ldr	r2, [r2, #4]
 453 0128 BDF8AE10 		ldrh	r1, [sp, #174]
 454 012c 0A44     		add	r2, r2, r1
 455 012e ADF8AE20 		strh	r2, [sp, #174]	@ movhi
 456 0132 01E0     		b	.L25
 457              	.LVL53:
 458              	.L63:
 136:Drivers/lvgl/lvgl/src/draw/lv_draw_label.c ****     int32_t last_line_start = -1;
 459              		.loc 1 136 0
 460 0134 4FF00008 		mov	r8, #0
 461              	.LVL54:
 462              	.L25:
 154:Drivers/lvgl/lvgl/src/draw/lv_draw_label.c **** 
 463              		.loc 1 154 0
 464 0138 19B2     		sxth	r1, r3
 465 013a 0B91     		str	r1, [sp, #44]
 466 013c B4F91420 		ldrsh	r2, [r4, #20]
 467 0140 637F     		ldrb	r3, [r4, #29]	@ zero_extendqisi2
 468              	.LVL55:
 469 0142 0193     		str	r3, [sp, #4]
 470 0144 0023     		movs	r3, #0
 471 0146 0093     		str	r3, [sp]
 472 0148 0B46     		mov	r3, r1
 473 014a 0599     		ldr	r1, [sp, #20]
 474 014c 099E     		ldr	r6, [sp, #36]
 475 014e 3046     		mov	r0, r6
 476 0150 4044     		add	r0, r0, r8
 477 0152 FFF7FEFF 		bl	_lv_txt_get_next_line
 478              	.LVL56:
 479 0156 00EB0807 		add	r7, r0, r8
 480              	.LVL57:
 481 015a DDF838A0 		ldr	r10, [sp, #56]
 482 015e DDF81C90 		ldr	r9, [sp, #28]
 483 0162 B346     		mov	fp, r6
 157:Drivers/lvgl/lvgl/src/draw/lv_draw_label.c ****         /*Go to next line*/
 484              		.loc 1 157 0
 485 0164 05E0     		b	.L26
 486              	.LVL58:
 487              	.L27:
 170:Drivers/lvgl/lvgl/src/draw/lv_draw_label.c ****     }
 488              		.loc 1 170 0
 489 0166 3378     		ldrb	r3, [r6]	@ zero_extendqisi2
 159:Drivers/lvgl/lvgl/src/draw/lv_draw_label.c ****         line_end += _lv_txt_get_next_line(&txt[line_start], font, dsc->letter_space, w, NULL, dsc->
 490              		.loc 1 159 0
 491 0168 B846     		mov	r8, r7
 170:Drivers/lvgl/lvgl/src/draw/lv_draw_label.c ****     }
 492              		.loc 1 170 0
 493 016a 002B     		cmp	r3, #0
 494 016c 3FF467AF 		beq	.L18
 160:Drivers/lvgl/lvgl/src/draw/lv_draw_label.c ****         pos.y += line_height;
 495              		.loc 1 160 0
ARM GAS  /tmp/cc1OJ4An.s 			page 35


 496 0170 0746     		mov	r7, r0
 497              	.LVL59:
 498              	.L26:
 157:Drivers/lvgl/lvgl/src/draw/lv_draw_label.c ****         /*Go to next line*/
 499              		.loc 1 157 0
 500 0172 BDF9AE30 		ldrsh	r3, [sp, #174]
 501 0176 2B44     		add	r3, r3, r5
 502 0178 D9F80820 		ldr	r2, [r9, #8]
 503 017c B2F90220 		ldrsh	r2, [r2, #2]
 504 0180 9342     		cmp	r3, r2
 505 0182 29DA     		bge	.L74
 506              	.LVL60:
 160:Drivers/lvgl/lvgl/src/draw/lv_draw_label.c ****         pos.y += line_height;
 507              		.loc 1 160 0
 508 0184 0BEB0706 		add	r6, fp, r7
 509 0188 B4F91420 		ldrsh	r2, [r4, #20]
 510 018c 637F     		ldrb	r3, [r4, #29]	@ zero_extendqisi2
 511 018e 0193     		str	r3, [sp, #4]
 512 0190 0023     		movs	r3, #0
 513 0192 0093     		str	r3, [sp]
 514 0194 0B9B     		ldr	r3, [sp, #44]
 515 0196 0599     		ldr	r1, [sp, #20]
 516 0198 3046     		mov	r0, r6
 517 019a FFF7FEFF 		bl	_lv_txt_get_next_line
 518              	.LVL61:
 519 019e 3844     		add	r0, r0, r7
 520              	.LVL62:
 161:Drivers/lvgl/lvgl/src/draw/lv_draw_label.c **** 
 521              		.loc 1 161 0
 522 01a0 BDF8AE30 		ldrh	r3, [sp, #174]
 523 01a4 5344     		add	r3, r3, r10
 524 01a6 1BB2     		sxth	r3, r3
 525 01a8 ADF8AE30 		strh	r3, [sp, #174]	@ movhi
 164:Drivers/lvgl/lvgl/src/draw/lv_draw_label.c ****             hint->line_start = line_start;
 526              		.loc 1 164 0
 527 01ac 409A     		ldr	r2, [sp, #256]
 528 01ae 002A     		cmp	r2, #0
 529 01b0 D9D0     		beq	.L27
 164:Drivers/lvgl/lvgl/src/draw/lv_draw_label.c ****             hint->line_start = line_start;
 530              		.loc 1 164 0 is_stmt 0 discriminator 1
 531 01b2 13F5806F 		cmn	r3, #1024
 532 01b6 D6DB     		blt	.L27
 164:Drivers/lvgl/lvgl/src/draw/lv_draw_label.c ****             hint->line_start = line_start;
 533              		.loc 1 164 0 discriminator 2
 534 01b8 1368     		ldr	r3, [r2]
 535 01ba 002B     		cmp	r3, #0
 536 01bc D3DA     		bge	.L27
 165:Drivers/lvgl/lvgl/src/draw/lv_draw_label.c ****             hint->y          = pos.y - coords->y1;
 537              		.loc 1 165 0 is_stmt 1
 538 01be 1760     		str	r7, [r2]
 166:Drivers/lvgl/lvgl/src/draw/lv_draw_label.c ****             hint->coord_y    = coords->y1;
 539              		.loc 1 166 0
 540 01c0 BDF9AE30 		ldrsh	r3, [sp, #174]
 541 01c4 0C99     		ldr	r1, [sp, #48]
 542 01c6 B1F90220 		ldrsh	r2, [r1, #2]
 543 01ca 9B1A     		subs	r3, r3, r2
 544 01cc 409A     		ldr	r2, [sp, #256]
ARM GAS  /tmp/cc1OJ4An.s 			page 36


 545 01ce 5360     		str	r3, [r2, #4]
 167:Drivers/lvgl/lvgl/src/draw/lv_draw_label.c ****         }
 546              		.loc 1 167 0
 547 01d0 B1F90230 		ldrsh	r3, [r1, #2]
 548 01d4 9360     		str	r3, [r2, #8]
 549 01d6 C6E7     		b	.L27
 550              	.LVL63:
 551              	.L74:
 174:Drivers/lvgl/lvgl/src/draw/lv_draw_label.c ****         line_width = lv_txt_get_width(&txt[line_start], line_end - line_start, font, dsc->letter_sp
 552              		.loc 1 174 0
 553 01d8 0D9B     		ldr	r3, [sp, #52]
 554 01da 022B     		cmp	r3, #2
 555 01dc 21D0     		beq	.L75
 181:Drivers/lvgl/lvgl/src/draw/lv_draw_label.c ****         line_width = lv_txt_get_width(&txt[line_start], line_end - line_start, font, dsc->letter_sp
 556              		.loc 1 181 0
 557 01de 0D9B     		ldr	r3, [sp, #52]
 558 01e0 032B     		cmp	r3, #3
 559 01e2 3BD0     		beq	.L76
 560              	.LVL64:
 561              	.L31:
 185:Drivers/lvgl/lvgl/src/draw/lv_draw_label.c ****     uint32_t sel_end = dsc->sel_end;
 562              		.loc 1 185 0
 563 01e4 6268     		ldr	r2, [r4, #4]
 564 01e6 0692     		str	r2, [sp, #24]
 565              	.LVL65:
 186:Drivers/lvgl/lvgl/src/draw/lv_draw_label.c ****     if(sel_start > sel_end) {
 566              		.loc 1 186 0
 567 01e8 D4F808A0 		ldr	r10, [r4, #8]
 568              	.LVL66:
 187:Drivers/lvgl/lvgl/src/draw/lv_draw_label.c ****         uint32_t tmp = sel_start;
 569              		.loc 1 187 0
 570 01ec 5245     		cmp	r2, r10
 571 01ee 02D8     		bhi	.L32
 572 01f0 5346     		mov	r3, r10
 185:Drivers/lvgl/lvgl/src/draw/lv_draw_label.c ****     uint32_t sel_end = dsc->sel_end;
 573              		.loc 1 185 0
 574 01f2 9246     		mov	r10, r2
 575              	.LVL67:
 186:Drivers/lvgl/lvgl/src/draw/lv_draw_label.c ****     if(sel_start > sel_end) {
 576              		.loc 1 186 0
 577 01f4 0693     		str	r3, [sp, #24]
 578              	.LVL68:
 579              	.L32:
 194:Drivers/lvgl/lvgl/src/draw/lv_draw_label.c ****         lv_draw_line_dsc_init(&line_dsc);
 580              		.loc 1 194 0
 581 01f6 A37F     		ldrb	r3, [r4, #30]	@ zero_extendqisi2
 582 01f8 13F0030F 		tst	r3, #3
 583 01fc 47D1     		bne	.L77
 584              	.L33:
 585              	.LVL69:
 586 01fe 4FF00003 		mov	r3, #0	@ movhi
 587              	.LVL70:
 588 0202 ADF83E30 		strh	r3, [sp, #62]	@ movhi
 589 0206 9B46     		mov	fp, r3	@ movhi
 210:Drivers/lvgl/lvgl/src/draw/lv_draw_label.c ****     draw_dsc_sel.bg_color = dsc->sel_bg_color;
 590              		.loc 1 210 0
 591 0208 19A8     		add	r0, sp, #100
ARM GAS  /tmp/cc1OJ4An.s 			page 37


 592 020a FFF7FEFF 		bl	lv_draw_rect_dsc_init
 593              	.LVL71:
 211:Drivers/lvgl/lvgl/src/draw/lv_draw_label.c **** 
 594              		.loc 1 211 0
 595 020e 238A     		ldrh	r3, [r4, #16]
 596 0210 ADF86830 		strh	r3, [sp, #104]	@ movhi
 213:Drivers/lvgl/lvgl/src/draw/lv_draw_label.c ****     /*Write out all lines*/
 597              		.loc 1 213 0
 598 0214 BDF9AC30 		ldrsh	r3, [sp, #172]
 599 0218 1193     		str	r3, [sp, #68]
 600              	.LVL72:
 204:Drivers/lvgl/lvgl/src/draw/lv_draw_label.c ****     lv_color_t recolor  = lv_color_black();
 601              		.loc 1 204 0
 602 021a 0023     		movs	r3, #0
 603 021c 1293     		str	r3, [sp, #72]
 604 021e B946     		mov	r9, r7
 215:Drivers/lvgl/lvgl/src/draw/lv_draw_label.c ****         pos.x += x_ofs;
 605              		.loc 1 215 0
 606 0220 53E1     		b	.L35
 607              	.LVL73:
 608              	.L75:
 175:Drivers/lvgl/lvgl/src/draw/lv_draw_label.c **** 
 609              		.loc 1 175 0
 610 0222 B4F91430 		ldrsh	r3, [r4, #20]
 611 0226 627F     		ldrb	r2, [r4, #29]	@ zero_extendqisi2
 612 0228 0092     		str	r2, [sp]
 613 022a 059A     		ldr	r2, [sp, #20]
 614 022c A7EB0801 		sub	r1, r7, r8
 615 0230 0998     		ldr	r0, [sp, #36]
 616 0232 4044     		add	r0, r0, r8
 617 0234 FFF7FEFF 		bl	lv_txt_get_width
 618              	.LVL74:
 619              	.LBB59:
 620              	.LBB60:
 621              		.loc 4 125 0
 622 0238 0C9A     		ldr	r2, [sp, #48]
 623 023a 9388     		ldrh	r3, [r2, #4]
 624 023c 1288     		ldrh	r2, [r2]
 625 023e 9B1A     		subs	r3, r3, r2
 626 0240 9BB2     		uxth	r3, r3
 627 0242 0133     		adds	r3, r3, #1
 628 0244 1BB2     		sxth	r3, r3
 629              	.LVL75:
 630              	.LBE60:
 631              	.LBE59:
 177:Drivers/lvgl/lvgl/src/draw/lv_draw_label.c **** 
 632              		.loc 1 177 0
 633 0246 1B1A     		subs	r3, r3, r0
 634 0248 06D4     		bmi	.L78
 635              	.L30:
 636 024a BDF8AC20 		ldrh	r2, [sp, #172]
 637 024e 02EB6303 		add	r3, r2, r3, asr #1
 638 0252 ADF8AC30 		strh	r3, [sp, #172]	@ movhi
 639 0256 C5E7     		b	.L31
 640              	.L78:
 641 0258 0133     		adds	r3, r3, #1
 642 025a F6E7     		b	.L30
ARM GAS  /tmp/cc1OJ4An.s 			page 38


 643              	.LVL76:
 644              	.L76:
 182:Drivers/lvgl/lvgl/src/draw/lv_draw_label.c ****         pos.x += lv_area_get_width(coords) - line_width;
 645              		.loc 1 182 0
 646 025c B4F91430 		ldrsh	r3, [r4, #20]
 647 0260 627F     		ldrb	r2, [r4, #29]	@ zero_extendqisi2
 648 0262 0092     		str	r2, [sp]
 649 0264 059A     		ldr	r2, [sp, #20]
 650 0266 A7EB0801 		sub	r1, r7, r8
 651 026a 0998     		ldr	r0, [sp, #36]
 652 026c 4044     		add	r0, r0, r8
 653 026e FFF7FEFF 		bl	lv_txt_get_width
 654              	.LVL77:
 655              	.LBB61:
 656              	.LBB62:
 657              		.loc 4 125 0
 658 0272 0C9A     		ldr	r2, [sp, #48]
 659 0274 9388     		ldrh	r3, [r2, #4]
 660 0276 1288     		ldrh	r2, [r2]
 661 0278 9B1A     		subs	r3, r3, r2
 662 027a 9BB2     		uxth	r3, r3
 663 027c 0133     		adds	r3, r3, #1
 664 027e 1BB2     		sxth	r3, r3
 665              	.LVL78:
 666              	.LBE62:
 667              	.LBE61:
 183:Drivers/lvgl/lvgl/src/draw/lv_draw_label.c ****     }
 668              		.loc 1 183 0
 669 0280 1B1A     		subs	r3, r3, r0
 670 0282 BDF8AC20 		ldrh	r2, [sp, #172]
 671 0286 1344     		add	r3, r3, r2
 672 0288 ADF8AC30 		strh	r3, [sp, #172]	@ movhi
 673 028c AAE7     		b	.L31
 674              	.LVL79:
 675              	.L77:
 195:Drivers/lvgl/lvgl/src/draw/lv_draw_label.c ****         line_dsc.color = dsc->color;
 676              		.loc 1 195 0
 677 028e 28A8     		add	r0, sp, #160
 678 0290 FFF7FEFF 		bl	lv_draw_line_dsc_init
 679              	.LVL80:
 196:Drivers/lvgl/lvgl/src/draw/lv_draw_label.c ****         line_dsc.width = font->underline_thickness ? font->underline_thickness : 1;
 680              		.loc 1 196 0
 681 0294 A389     		ldrh	r3, [r4, #12]
 682 0296 ADF8A030 		strh	r3, [sp, #160]	@ movhi
 197:Drivers/lvgl/lvgl/src/draw/lv_draw_label.c ****         line_dsc.opa = dsc->opa;
 683              		.loc 1 197 0
 684 029a 059B     		ldr	r3, [sp, #20]
 685 029c 93F90E30 		ldrsb	r3, [r3, #14]
 686 02a0 0BB1     		cbz	r3, .L64
 197:Drivers/lvgl/lvgl/src/draw/lv_draw_label.c ****         line_dsc.opa = dsc->opa;
 687              		.loc 1 197 0 is_stmt 0 discriminator 1
 688 02a2 1BB2     		sxth	r3, r3
 689 02a4 00E0     		b	.L34
 690              	.L64:
 197:Drivers/lvgl/lvgl/src/draw/lv_draw_label.c ****         line_dsc.opa = dsc->opa;
 691              		.loc 1 197 0
 692 02a6 0123     		movs	r3, #1
ARM GAS  /tmp/cc1OJ4An.s 			page 39


 693              	.L34:
 197:Drivers/lvgl/lvgl/src/draw/lv_draw_label.c ****         line_dsc.opa = dsc->opa;
 694              		.loc 1 197 0 discriminator 4
 695 02a8 ADF8A230 		strh	r3, [sp, #162]	@ movhi
 198:Drivers/lvgl/lvgl/src/draw/lv_draw_label.c ****         line_dsc.blend_mode = dsc->blend_mode;
 696              		.loc 1 198 0 is_stmt 1 discriminator 4
 697 02ac A37E     		ldrb	r3, [r4, #26]	@ zero_extendqisi2
 698 02ae 8DF8A830 		strb	r3, [sp, #168]
 199:Drivers/lvgl/lvgl/src/draw/lv_draw_label.c ****     }
 699              		.loc 1 199 0 discriminator 4
 700 02b2 A37F     		ldrb	r3, [r4, #30]	@ zero_extendqisi2
 701 02b4 C3F3C103 		ubfx	r3, r3, #3, #2
 702 02b8 9DF8A920 		ldrb	r2, [sp, #169]	@ zero_extendqisi2
 703 02bc 63F30102 		bfi	r2, r3, #0, #2
 704 02c0 8DF8A920 		strb	r2, [sp, #169]
 705 02c4 9BE7     		b	.L33
 706              	.LVL81:
 707              	.L65:
 708              	.LBB63:
 709              	.LBB64:
 229:Drivers/lvgl/lvgl/src/draw/lv_draw_label.c ****             if(sel_start != 0xFFFF && sel_end != 0xFFFF) {
 710              		.loc 1 229 0
 711 02c6 0023     		movs	r3, #0
 712 02c8 0893     		str	r3, [sp, #32]
 713 02ca 81E0     		b	.L37
 714              	.LVL82:
 715              	.L82:
 246:Drivers/lvgl/lvgl/src/draw/lv_draw_label.c ****                         par_start = i;
 716              		.loc 1 246 0
 717 02cc 37B1     		cbz	r7, .L79
 251:Drivers/lvgl/lvgl/src/draw/lv_draw_label.c ****                         cmd_state = CMD_STATE_WAIT;
 718              		.loc 1 251 0
 719 02ce 012F     		cmp	r7, #1
 720 02d0 53D0     		beq	.L66
 254:Drivers/lvgl/lvgl/src/draw/lv_draw_label.c ****                         cmd_state = CMD_STATE_WAIT;
 721              		.loc 1 254 0
 722 02d2 022F     		cmp	r7, #2
 723 02d4 40F08A80 		bne	.L39
 255:Drivers/lvgl/lvgl/src/draw/lv_draw_label.c ****                         continue;
 724              		.loc 1 255 0
 725 02d8 0027     		movs	r7, #0
 726              	.LVL83:
 727 02da 64E0     		b	.L36
 728              	.LVL84:
 729              	.L79:
 247:Drivers/lvgl/lvgl/src/draw/lv_draw_label.c ****                         cmd_state = CMD_STATE_PAR;
 730              		.loc 1 247 0
 731 02dc 279B     		ldr	r3, [sp, #156]
 732 02de 1293     		str	r3, [sp, #72]
 733              	.LVL85:
 248:Drivers/lvgl/lvgl/src/draw/lv_draw_label.c ****                         continue;
 734              		.loc 1 248 0
 735 02e0 0127     		movs	r7, #1
 249:Drivers/lvgl/lvgl/src/draw/lv_draw_label.c ****                     }
 736              		.loc 1 249 0
 737 02e2 60E0     		b	.L36
 738              	.LVL86:
ARM GAS  /tmp/cc1OJ4An.s 			page 40


 739              	.L83:
 262:Drivers/lvgl/lvgl/src/draw/lv_draw_label.c ****                         /*Get the parameter*/
 740              		.loc 1 262 0
 741 02e4 202B     		cmp	r3, #32
 742 02e6 5ED1     		bne	.L36
 264:Drivers/lvgl/lvgl/src/draw/lv_draw_label.c ****                             char buf[LABEL_RECOLOR_PAR_LENGTH + 1];
 743              		.loc 1 264 0
 744 02e8 279B     		ldr	r3, [sp, #156]
 745 02ea 129A     		ldr	r2, [sp, #72]
 746 02ec 9B1A     		subs	r3, r3, r2
 747 02ee 072B     		cmp	r3, #7
 748 02f0 04D0     		beq	.L80
 275:Drivers/lvgl/lvgl/src/draw/lv_draw_label.c ****                         }
 749              		.loc 1 275 0
 750 02f2 A389     		ldrh	r3, [r4, #12]
 751              	.LVL87:
 752 02f4 ADF83E30 		strh	r3, [sp, #62]	@ movhi
 277:Drivers/lvgl/lvgl/src/draw/lv_draw_label.c ****                     }
 753              		.loc 1 277 0
 754 02f8 0227     		movs	r7, #2
 755              	.LVL88:
 279:Drivers/lvgl/lvgl/src/draw/lv_draw_label.c ****                 }
 756              		.loc 1 279 0
 757 02fa 54E0     		b	.L36
 758              	.LVL89:
 759              	.L80:
 760              	.LBB65:
 266:Drivers/lvgl/lvgl/src/draw/lv_draw_label.c ****                             buf[LABEL_RECOLOR_PAR_LENGTH] = '\0';
 761              		.loc 1 266 0
 762 02fc 0A9B     		ldr	r3, [sp, #40]
 763 02fe 9918     		adds	r1, r3, r2
 764              	.LVL90:
 765              	.LBB66:
 766              	.LBB67:
 767              		.file 6 "Drivers/lvgl/lvgl/src/draw/../misc/lv_mem.h"
   1:Drivers/lvgl/lvgl/src/draw/../misc/lv_mem.h **** /**
   2:Drivers/lvgl/lvgl/src/draw/../misc/lv_mem.h ****  * @file lv_mem.h
   3:Drivers/lvgl/lvgl/src/draw/../misc/lv_mem.h ****  *
   4:Drivers/lvgl/lvgl/src/draw/../misc/lv_mem.h ****  */
   5:Drivers/lvgl/lvgl/src/draw/../misc/lv_mem.h **** 
   6:Drivers/lvgl/lvgl/src/draw/../misc/lv_mem.h **** #ifndef LV_MEM_H
   7:Drivers/lvgl/lvgl/src/draw/../misc/lv_mem.h **** #define LV_MEM_H
   8:Drivers/lvgl/lvgl/src/draw/../misc/lv_mem.h **** 
   9:Drivers/lvgl/lvgl/src/draw/../misc/lv_mem.h **** #ifdef __cplusplus
  10:Drivers/lvgl/lvgl/src/draw/../misc/lv_mem.h **** extern "C" {
  11:Drivers/lvgl/lvgl/src/draw/../misc/lv_mem.h **** #endif
  12:Drivers/lvgl/lvgl/src/draw/../misc/lv_mem.h **** 
  13:Drivers/lvgl/lvgl/src/draw/../misc/lv_mem.h **** /*********************
  14:Drivers/lvgl/lvgl/src/draw/../misc/lv_mem.h ****  *      INCLUDES
  15:Drivers/lvgl/lvgl/src/draw/../misc/lv_mem.h ****  *********************/
  16:Drivers/lvgl/lvgl/src/draw/../misc/lv_mem.h **** #include "../lv_conf_internal.h"
  17:Drivers/lvgl/lvgl/src/draw/../misc/lv_mem.h **** 
  18:Drivers/lvgl/lvgl/src/draw/../misc/lv_mem.h **** #include <stdint.h>
  19:Drivers/lvgl/lvgl/src/draw/../misc/lv_mem.h **** #include <stddef.h>
  20:Drivers/lvgl/lvgl/src/draw/../misc/lv_mem.h **** #include <string.h>
  21:Drivers/lvgl/lvgl/src/draw/../misc/lv_mem.h **** 
  22:Drivers/lvgl/lvgl/src/draw/../misc/lv_mem.h **** #include "lv_types.h"
ARM GAS  /tmp/cc1OJ4An.s 			page 41


  23:Drivers/lvgl/lvgl/src/draw/../misc/lv_mem.h **** 
  24:Drivers/lvgl/lvgl/src/draw/../misc/lv_mem.h **** /*********************
  25:Drivers/lvgl/lvgl/src/draw/../misc/lv_mem.h ****  *      DEFINES
  26:Drivers/lvgl/lvgl/src/draw/../misc/lv_mem.h ****  *********************/
  27:Drivers/lvgl/lvgl/src/draw/../misc/lv_mem.h **** 
  28:Drivers/lvgl/lvgl/src/draw/../misc/lv_mem.h **** /**********************
  29:Drivers/lvgl/lvgl/src/draw/../misc/lv_mem.h ****  *      TYPEDEFS
  30:Drivers/lvgl/lvgl/src/draw/../misc/lv_mem.h ****  **********************/
  31:Drivers/lvgl/lvgl/src/draw/../misc/lv_mem.h **** 
  32:Drivers/lvgl/lvgl/src/draw/../misc/lv_mem.h **** /**
  33:Drivers/lvgl/lvgl/src/draw/../misc/lv_mem.h ****  * Heap information structure.
  34:Drivers/lvgl/lvgl/src/draw/../misc/lv_mem.h ****  */
  35:Drivers/lvgl/lvgl/src/draw/../misc/lv_mem.h **** typedef struct {
  36:Drivers/lvgl/lvgl/src/draw/../misc/lv_mem.h ****     uint32_t total_size; /**< Total heap size*/
  37:Drivers/lvgl/lvgl/src/draw/../misc/lv_mem.h ****     uint32_t free_cnt;
  38:Drivers/lvgl/lvgl/src/draw/../misc/lv_mem.h ****     uint32_t free_size; /**< Size of available memory*/
  39:Drivers/lvgl/lvgl/src/draw/../misc/lv_mem.h ****     uint32_t free_biggest_size;
  40:Drivers/lvgl/lvgl/src/draw/../misc/lv_mem.h ****     uint32_t used_cnt;
  41:Drivers/lvgl/lvgl/src/draw/../misc/lv_mem.h ****     uint32_t max_used; /**< Max size of Heap memory used*/
  42:Drivers/lvgl/lvgl/src/draw/../misc/lv_mem.h ****     uint8_t used_pct; /**< Percentage used*/
  43:Drivers/lvgl/lvgl/src/draw/../misc/lv_mem.h ****     uint8_t frag_pct; /**< Amount of fragmentation*/
  44:Drivers/lvgl/lvgl/src/draw/../misc/lv_mem.h **** } lv_mem_monitor_t;
  45:Drivers/lvgl/lvgl/src/draw/../misc/lv_mem.h **** 
  46:Drivers/lvgl/lvgl/src/draw/../misc/lv_mem.h **** typedef struct {
  47:Drivers/lvgl/lvgl/src/draw/../misc/lv_mem.h ****     void * p;
  48:Drivers/lvgl/lvgl/src/draw/../misc/lv_mem.h ****     uint16_t size;
  49:Drivers/lvgl/lvgl/src/draw/../misc/lv_mem.h ****     uint8_t used : 1;
  50:Drivers/lvgl/lvgl/src/draw/../misc/lv_mem.h **** } lv_mem_buf_t;
  51:Drivers/lvgl/lvgl/src/draw/../misc/lv_mem.h **** 
  52:Drivers/lvgl/lvgl/src/draw/../misc/lv_mem.h **** typedef lv_mem_buf_t lv_mem_buf_arr_t[LV_MEM_BUF_MAX_NUM];
  53:Drivers/lvgl/lvgl/src/draw/../misc/lv_mem.h **** 
  54:Drivers/lvgl/lvgl/src/draw/../misc/lv_mem.h **** /**********************
  55:Drivers/lvgl/lvgl/src/draw/../misc/lv_mem.h ****  * GLOBAL PROTOTYPES
  56:Drivers/lvgl/lvgl/src/draw/../misc/lv_mem.h ****  **********************/
  57:Drivers/lvgl/lvgl/src/draw/../misc/lv_mem.h **** 
  58:Drivers/lvgl/lvgl/src/draw/../misc/lv_mem.h **** /**
  59:Drivers/lvgl/lvgl/src/draw/../misc/lv_mem.h ****  * Initialize the dyn_mem module (work memory and other variables)
  60:Drivers/lvgl/lvgl/src/draw/../misc/lv_mem.h ****  */
  61:Drivers/lvgl/lvgl/src/draw/../misc/lv_mem.h **** void lv_mem_init(void);
  62:Drivers/lvgl/lvgl/src/draw/../misc/lv_mem.h **** 
  63:Drivers/lvgl/lvgl/src/draw/../misc/lv_mem.h **** /**
  64:Drivers/lvgl/lvgl/src/draw/../misc/lv_mem.h ****  * Clean up the memory buffer which frees all the allocated memories.
  65:Drivers/lvgl/lvgl/src/draw/../misc/lv_mem.h ****  * @note It work only if `LV_MEM_CUSTOM == 0`
  66:Drivers/lvgl/lvgl/src/draw/../misc/lv_mem.h ****  */
  67:Drivers/lvgl/lvgl/src/draw/../misc/lv_mem.h **** void lv_mem_deinit(void);
  68:Drivers/lvgl/lvgl/src/draw/../misc/lv_mem.h **** 
  69:Drivers/lvgl/lvgl/src/draw/../misc/lv_mem.h **** /**
  70:Drivers/lvgl/lvgl/src/draw/../misc/lv_mem.h ****  * Allocate a memory dynamically
  71:Drivers/lvgl/lvgl/src/draw/../misc/lv_mem.h ****  * @param size size of the memory to allocate in bytes
  72:Drivers/lvgl/lvgl/src/draw/../misc/lv_mem.h ****  * @return pointer to the allocated memory
  73:Drivers/lvgl/lvgl/src/draw/../misc/lv_mem.h ****  */
  74:Drivers/lvgl/lvgl/src/draw/../misc/lv_mem.h **** void * lv_mem_alloc(size_t size);
  75:Drivers/lvgl/lvgl/src/draw/../misc/lv_mem.h **** 
  76:Drivers/lvgl/lvgl/src/draw/../misc/lv_mem.h **** /**
  77:Drivers/lvgl/lvgl/src/draw/../misc/lv_mem.h ****  * Free an allocated data
  78:Drivers/lvgl/lvgl/src/draw/../misc/lv_mem.h ****  * @param data pointer to an allocated memory
  79:Drivers/lvgl/lvgl/src/draw/../misc/lv_mem.h ****  */
ARM GAS  /tmp/cc1OJ4An.s 			page 42


  80:Drivers/lvgl/lvgl/src/draw/../misc/lv_mem.h **** void lv_mem_free(void * data);
  81:Drivers/lvgl/lvgl/src/draw/../misc/lv_mem.h **** 
  82:Drivers/lvgl/lvgl/src/draw/../misc/lv_mem.h **** /**
  83:Drivers/lvgl/lvgl/src/draw/../misc/lv_mem.h ****  * Reallocate a memory with a new size. The old content will be kept.
  84:Drivers/lvgl/lvgl/src/draw/../misc/lv_mem.h ****  * @param data pointer to an allocated memory.
  85:Drivers/lvgl/lvgl/src/draw/../misc/lv_mem.h ****  * Its content will be copied to the new memory block and freed
  86:Drivers/lvgl/lvgl/src/draw/../misc/lv_mem.h ****  * @param new_size the desired new size in byte
  87:Drivers/lvgl/lvgl/src/draw/../misc/lv_mem.h ****  * @return pointer to the new memory, NULL on failure
  88:Drivers/lvgl/lvgl/src/draw/../misc/lv_mem.h ****  */
  89:Drivers/lvgl/lvgl/src/draw/../misc/lv_mem.h **** void * lv_mem_realloc(void * data_p, size_t new_size);
  90:Drivers/lvgl/lvgl/src/draw/../misc/lv_mem.h **** 
  91:Drivers/lvgl/lvgl/src/draw/../misc/lv_mem.h **** /**
  92:Drivers/lvgl/lvgl/src/draw/../misc/lv_mem.h ****  *
  93:Drivers/lvgl/lvgl/src/draw/../misc/lv_mem.h ****  * @return
  94:Drivers/lvgl/lvgl/src/draw/../misc/lv_mem.h ****  */
  95:Drivers/lvgl/lvgl/src/draw/../misc/lv_mem.h **** lv_res_t lv_mem_test(void);
  96:Drivers/lvgl/lvgl/src/draw/../misc/lv_mem.h **** 
  97:Drivers/lvgl/lvgl/src/draw/../misc/lv_mem.h **** /**
  98:Drivers/lvgl/lvgl/src/draw/../misc/lv_mem.h ****  * Give information about the work memory of dynamic allocation
  99:Drivers/lvgl/lvgl/src/draw/../misc/lv_mem.h ****  * @param mon_p pointer to a lv_mem_monitor_t variable,
 100:Drivers/lvgl/lvgl/src/draw/../misc/lv_mem.h ****  *              the result of the analysis will be stored here
 101:Drivers/lvgl/lvgl/src/draw/../misc/lv_mem.h ****  */
 102:Drivers/lvgl/lvgl/src/draw/../misc/lv_mem.h **** void lv_mem_monitor(lv_mem_monitor_t * mon_p);
 103:Drivers/lvgl/lvgl/src/draw/../misc/lv_mem.h **** 
 104:Drivers/lvgl/lvgl/src/draw/../misc/lv_mem.h **** 
 105:Drivers/lvgl/lvgl/src/draw/../misc/lv_mem.h **** /**
 106:Drivers/lvgl/lvgl/src/draw/../misc/lv_mem.h ****  * Get a temporal buffer with the given size.
 107:Drivers/lvgl/lvgl/src/draw/../misc/lv_mem.h ****  * @param size the required size
 108:Drivers/lvgl/lvgl/src/draw/../misc/lv_mem.h ****  */
 109:Drivers/lvgl/lvgl/src/draw/../misc/lv_mem.h **** void * lv_mem_buf_get(uint32_t size);
 110:Drivers/lvgl/lvgl/src/draw/../misc/lv_mem.h **** 
 111:Drivers/lvgl/lvgl/src/draw/../misc/lv_mem.h **** /**
 112:Drivers/lvgl/lvgl/src/draw/../misc/lv_mem.h ****  * Release a memory buffer
 113:Drivers/lvgl/lvgl/src/draw/../misc/lv_mem.h ****  * @param p buffer to release
 114:Drivers/lvgl/lvgl/src/draw/../misc/lv_mem.h ****  */
 115:Drivers/lvgl/lvgl/src/draw/../misc/lv_mem.h **** void lv_mem_buf_release(void * p);
 116:Drivers/lvgl/lvgl/src/draw/../misc/lv_mem.h **** 
 117:Drivers/lvgl/lvgl/src/draw/../misc/lv_mem.h **** /**
 118:Drivers/lvgl/lvgl/src/draw/../misc/lv_mem.h ****  * Free all memory buffers
 119:Drivers/lvgl/lvgl/src/draw/../misc/lv_mem.h ****  */
 120:Drivers/lvgl/lvgl/src/draw/../misc/lv_mem.h **** void lv_mem_buf_free_all(void);
 121:Drivers/lvgl/lvgl/src/draw/../misc/lv_mem.h **** 
 122:Drivers/lvgl/lvgl/src/draw/../misc/lv_mem.h **** //! @cond Doxygen_Suppress
 123:Drivers/lvgl/lvgl/src/draw/../misc/lv_mem.h **** 
 124:Drivers/lvgl/lvgl/src/draw/../misc/lv_mem.h **** #if LV_MEMCPY_MEMSET_STD
 125:Drivers/lvgl/lvgl/src/draw/../misc/lv_mem.h **** 
 126:Drivers/lvgl/lvgl/src/draw/../misc/lv_mem.h **** /**
 127:Drivers/lvgl/lvgl/src/draw/../misc/lv_mem.h ****  * Wrapper for the standard memcpy
 128:Drivers/lvgl/lvgl/src/draw/../misc/lv_mem.h ****  * @param dst pointer to the destination buffer
 129:Drivers/lvgl/lvgl/src/draw/../misc/lv_mem.h ****  * @param src pointer to the source buffer
 130:Drivers/lvgl/lvgl/src/draw/../misc/lv_mem.h ****  * @param len number of byte to copy
 131:Drivers/lvgl/lvgl/src/draw/../misc/lv_mem.h ****  */
 132:Drivers/lvgl/lvgl/src/draw/../misc/lv_mem.h **** static inline void * lv_memcpy(void * dst, const void * src, size_t len)
 133:Drivers/lvgl/lvgl/src/draw/../misc/lv_mem.h **** {
 134:Drivers/lvgl/lvgl/src/draw/../misc/lv_mem.h ****     return memcpy(dst, src, len);
 135:Drivers/lvgl/lvgl/src/draw/../misc/lv_mem.h **** }
 136:Drivers/lvgl/lvgl/src/draw/../misc/lv_mem.h **** 
ARM GAS  /tmp/cc1OJ4An.s 			page 43


 137:Drivers/lvgl/lvgl/src/draw/../misc/lv_mem.h **** /**
 138:Drivers/lvgl/lvgl/src/draw/../misc/lv_mem.h ****  * Wrapper for the standard memcpy
 139:Drivers/lvgl/lvgl/src/draw/../misc/lv_mem.h ****  * @param dst pointer to the destination buffer
 140:Drivers/lvgl/lvgl/src/draw/../misc/lv_mem.h ****  * @param src pointer to the source buffer
 141:Drivers/lvgl/lvgl/src/draw/../misc/lv_mem.h ****  * @param len number of byte to copy
 142:Drivers/lvgl/lvgl/src/draw/../misc/lv_mem.h ****  */
 143:Drivers/lvgl/lvgl/src/draw/../misc/lv_mem.h **** static inline void * lv_memcpy_small(void * dst, const void * src, size_t len)
 144:Drivers/lvgl/lvgl/src/draw/../misc/lv_mem.h **** {
 145:Drivers/lvgl/lvgl/src/draw/../misc/lv_mem.h ****     return memcpy(dst, src, len);
 146:Drivers/lvgl/lvgl/src/draw/../misc/lv_mem.h **** }
 147:Drivers/lvgl/lvgl/src/draw/../misc/lv_mem.h **** 
 148:Drivers/lvgl/lvgl/src/draw/../misc/lv_mem.h **** /**
 149:Drivers/lvgl/lvgl/src/draw/../misc/lv_mem.h ****  * Wrapper for the standard memset
 150:Drivers/lvgl/lvgl/src/draw/../misc/lv_mem.h ****  * @param dst pointer to the destination buffer
 151:Drivers/lvgl/lvgl/src/draw/../misc/lv_mem.h ****  * @param v value to set [0..255]
 152:Drivers/lvgl/lvgl/src/draw/../misc/lv_mem.h ****  * @param len number of byte to set
 153:Drivers/lvgl/lvgl/src/draw/../misc/lv_mem.h ****  */
 154:Drivers/lvgl/lvgl/src/draw/../misc/lv_mem.h **** static inline void lv_memset(void * dst, uint8_t v, size_t len)
 155:Drivers/lvgl/lvgl/src/draw/../misc/lv_mem.h **** {
 156:Drivers/lvgl/lvgl/src/draw/../misc/lv_mem.h ****     memset(dst, v, len);
 157:Drivers/lvgl/lvgl/src/draw/../misc/lv_mem.h **** }
 158:Drivers/lvgl/lvgl/src/draw/../misc/lv_mem.h **** 
 159:Drivers/lvgl/lvgl/src/draw/../misc/lv_mem.h **** /**
 160:Drivers/lvgl/lvgl/src/draw/../misc/lv_mem.h ****  * Wrapper for the standard memset with fixed 0x00 value
 161:Drivers/lvgl/lvgl/src/draw/../misc/lv_mem.h ****  * @param dst pointer to the destination buffer
 162:Drivers/lvgl/lvgl/src/draw/../misc/lv_mem.h ****  * @param len number of byte to set
 163:Drivers/lvgl/lvgl/src/draw/../misc/lv_mem.h ****  */
 164:Drivers/lvgl/lvgl/src/draw/../misc/lv_mem.h **** static inline void lv_memset_00(void * dst, size_t len)
 165:Drivers/lvgl/lvgl/src/draw/../misc/lv_mem.h **** {
 166:Drivers/lvgl/lvgl/src/draw/../misc/lv_mem.h ****     memset(dst, 0x00, len);
 167:Drivers/lvgl/lvgl/src/draw/../misc/lv_mem.h **** }
 168:Drivers/lvgl/lvgl/src/draw/../misc/lv_mem.h **** 
 169:Drivers/lvgl/lvgl/src/draw/../misc/lv_mem.h **** /**
 170:Drivers/lvgl/lvgl/src/draw/../misc/lv_mem.h ****  * Wrapper for the standard memset with fixed 0xFF value
 171:Drivers/lvgl/lvgl/src/draw/../misc/lv_mem.h ****  * @param dst pointer to the destination buffer
 172:Drivers/lvgl/lvgl/src/draw/../misc/lv_mem.h ****  * @param len number of byte to set
 173:Drivers/lvgl/lvgl/src/draw/../misc/lv_mem.h ****  */
 174:Drivers/lvgl/lvgl/src/draw/../misc/lv_mem.h **** static inline void lv_memset_ff(void * dst, size_t len)
 175:Drivers/lvgl/lvgl/src/draw/../misc/lv_mem.h **** {
 176:Drivers/lvgl/lvgl/src/draw/../misc/lv_mem.h ****     memset(dst, 0xFF, len);
 177:Drivers/lvgl/lvgl/src/draw/../misc/lv_mem.h **** }
 178:Drivers/lvgl/lvgl/src/draw/../misc/lv_mem.h **** 
 179:Drivers/lvgl/lvgl/src/draw/../misc/lv_mem.h **** #else
 180:Drivers/lvgl/lvgl/src/draw/../misc/lv_mem.h **** /**
 181:Drivers/lvgl/lvgl/src/draw/../misc/lv_mem.h ****  * Same as `memcpy` but optimized for 4 byte operation.
 182:Drivers/lvgl/lvgl/src/draw/../misc/lv_mem.h ****  * @param dst pointer to the destination buffer
 183:Drivers/lvgl/lvgl/src/draw/../misc/lv_mem.h ****  * @param src pointer to the source buffer
 184:Drivers/lvgl/lvgl/src/draw/../misc/lv_mem.h ****  * @param len number of byte to copy
 185:Drivers/lvgl/lvgl/src/draw/../misc/lv_mem.h ****  */
 186:Drivers/lvgl/lvgl/src/draw/../misc/lv_mem.h **** LV_ATTRIBUTE_FAST_MEM void * lv_memcpy(void * dst, const void * src, size_t len);
 187:Drivers/lvgl/lvgl/src/draw/../misc/lv_mem.h **** 
 188:Drivers/lvgl/lvgl/src/draw/../misc/lv_mem.h **** /**
 189:Drivers/lvgl/lvgl/src/draw/../misc/lv_mem.h ****  * Same as `memcpy` but optimized to copy only a few bytes.
 190:Drivers/lvgl/lvgl/src/draw/../misc/lv_mem.h ****  * @param dst pointer to the destination buffer
 191:Drivers/lvgl/lvgl/src/draw/../misc/lv_mem.h ****  * @param src pointer to the source buffer
 192:Drivers/lvgl/lvgl/src/draw/../misc/lv_mem.h ****  * @param len number of byte to copy
 193:Drivers/lvgl/lvgl/src/draw/../misc/lv_mem.h ****  */
ARM GAS  /tmp/cc1OJ4An.s 			page 44


 194:Drivers/lvgl/lvgl/src/draw/../misc/lv_mem.h **** LV_ATTRIBUTE_FAST_MEM static inline void * lv_memcpy_small(void * dst, const void * src, size_t len
 195:Drivers/lvgl/lvgl/src/draw/../misc/lv_mem.h **** {
 196:Drivers/lvgl/lvgl/src/draw/../misc/lv_mem.h ****     uint8_t * d8 = (uint8_t *)dst;
 768              		.loc 6 196 0
 769 0300 17AA     		add	r2, sp, #92
 770              	.LVL91:
 771              	.LBE67:
 772              	.LBE66:
 266:Drivers/lvgl/lvgl/src/draw/lv_draw_label.c ****                             buf[LABEL_RECOLOR_PAR_LENGTH] = '\0';
 773              		.loc 1 266 0
 774 0302 0623     		movs	r3, #6
 775 0304 04E0     		b	.L44
 776              	.LVL92:
 777              	.L45:
 778              	.LBB69:
 779              	.LBB68:
 197:Drivers/lvgl/lvgl/src/draw/../misc/lv_mem.h ****     const uint8_t * s8 = (const uint8_t *)src;
 198:Drivers/lvgl/lvgl/src/draw/../misc/lv_mem.h **** 
 199:Drivers/lvgl/lvgl/src/draw/../misc/lv_mem.h ****     while(len) {
 200:Drivers/lvgl/lvgl/src/draw/../misc/lv_mem.h ****         *d8 = *s8;
 780              		.loc 6 200 0
 781 0306 11F8010B 		ldrb	r0, [r1], #1	@ zero_extendqisi2
 782              	.LVL93:
 783 030a 02F8010B 		strb	r0, [r2], #1
 784              	.LVL94:
 201:Drivers/lvgl/lvgl/src/draw/../misc/lv_mem.h ****         d8++;
 202:Drivers/lvgl/lvgl/src/draw/../misc/lv_mem.h ****         s8++;
 203:Drivers/lvgl/lvgl/src/draw/../misc/lv_mem.h ****         len--;
 785              		.loc 6 203 0
 786 030e 013B     		subs	r3, r3, #1
 787              	.LVL95:
 788              	.L44:
 199:Drivers/lvgl/lvgl/src/draw/../misc/lv_mem.h ****         *d8 = *s8;
 789              		.loc 6 199 0
 790 0310 002B     		cmp	r3, #0
 791 0312 F8D1     		bne	.L45
 792              	.LVL96:
 793              	.LBE68:
 794              	.LBE69:
 269:Drivers/lvgl/lvgl/src/draw/lv_draw_label.c ****                             g       = (hex_char_to_num(buf[2]) << 4) + hex_char_to_num(buf[3]);
 795              		.loc 1 269 0
 796 0314 9DF85C00 		ldrb	r0, [sp, #92]	@ zero_extendqisi2
 797 0318 FFF7FEFF 		bl	hex_char_to_num
 798              	.LVL97:
 799 031c 0501     		lsls	r5, r0, #4
 800 031e 9DF85D00 		ldrb	r0, [sp, #93]	@ zero_extendqisi2
 801 0322 FFF7FEFF 		bl	hex_char_to_num
 802              	.LVL98:
 803 0326 0544     		add	r5, r5, r0
 804              	.LVL99:
 270:Drivers/lvgl/lvgl/src/draw/lv_draw_label.c ****                             b       = (hex_char_to_num(buf[4]) << 4) + hex_char_to_num(buf[5]);
 805              		.loc 1 270 0
 806 0328 9DF85E00 		ldrb	r0, [sp, #94]	@ zero_extendqisi2
 807 032c FFF7FEFF 		bl	hex_char_to_num
 808              	.LVL100:
 809 0330 0601     		lsls	r6, r0, #4
 810 0332 9DF85F00 		ldrb	r0, [sp, #95]	@ zero_extendqisi2
ARM GAS  /tmp/cc1OJ4An.s 			page 45


 811 0336 FFF7FEFF 		bl	hex_char_to_num
 812              	.LVL101:
 813 033a 0644     		add	r6, r6, r0
 814              	.LVL102:
 271:Drivers/lvgl/lvgl/src/draw/lv_draw_label.c ****                             recolor = lv_color_make(r, g, b);
 815              		.loc 1 271 0
 816 033c 9DF86000 		ldrb	r0, [sp, #96]	@ zero_extendqisi2
 817 0340 FFF7FEFF 		bl	hex_char_to_num
 818              	.LVL103:
 819 0344 0701     		lsls	r7, r0, #4
 820              	.LVL104:
 821 0346 9DF86100 		ldrb	r0, [sp, #97]	@ zero_extendqisi2
 822 034a FFF7FEFF 		bl	hex_char_to_num
 823              	.LVL105:
 824 034e 3B18     		adds	r3, r7, r0
 825              	.LVL106:
 826              	.LBB70:
 827              	.LBB71:
 828              		.loc 2 597 0
 829 0350 C3F3C403 		ubfx	r3, r3, #3, #5
 830              	.LVL107:
 831 0354 C6F38506 		ubfx	r6, r6, #2, #6
 832              	.LVL108:
 833 0358 C5F3C405 		ubfx	r5, r5, #3, #5
 834              	.LVL109:
 835 035c BDF84C20 		ldrh	r2, [sp, #76]
 836 0360 63F30402 		bfi	r2, r3, #0, #5
 837 0364 1346     		mov	r3, r2
 838 0366 66F34A13 		bfi	r3, r6, #5, #6
 839 036a 65F3CF23 		bfi	r3, r5, #11, #5
 840 036e ADF84C30 		strh	r3, [sp, #76]	@ movhi
 841 0372 ADF83E30 		strh	r3, [sp, #62]	@ movhi
 842              	.LVL110:
 843              	.LBE71:
 844              	.LBE70:
 845              	.LBE65:
 277:Drivers/lvgl/lvgl/src/draw/lv_draw_label.c ****                     }
 846              		.loc 1 277 0
 847 0376 0227     		movs	r7, #2
 848              	.LVL111:
 849 0378 15E0     		b	.L36
 850              	.LVL112:
 851              	.L66:
 252:Drivers/lvgl/lvgl/src/draw/lv_draw_label.c ****                     }
 852              		.loc 1 252 0
 853 037a 0027     		movs	r7, #0
 854              	.LVL113:
 855 037c 39E0     		b	.L38
 856              	.LVL114:
 857              	.L84:
 285:Drivers/lvgl/lvgl/src/draw/lv_draw_label.c **** 
 858              		.loc 1 285 0 discriminator 1
 859 037e BDF83EB0 		ldrh	fp, [sp, #62]
 860 0382 3AE0     		b	.L46
 861              	.LVL115:
 862              	.L47:
 301:Drivers/lvgl/lvgl/src/draw/lv_draw_label.c ****             lv_draw_letter(draw_ctx, &dsc_mod, &pos, letter);
ARM GAS  /tmp/cc1OJ4An.s 			page 46


 863              		.loc 1 301 0
 864 0384 ADF8C4B0 		strh	fp, [sp, #196]	@ movhi
 302:Drivers/lvgl/lvgl/src/draw/lv_draw_label.c **** 
 865              		.loc 1 302 0
 866 0388 159B     		ldr	r3, [sp, #84]
 867 038a 2BAA     		add	r2, sp, #172
 868 038c 2EA9     		add	r1, sp, #184
 869 038e 0798     		ldr	r0, [sp, #28]
 870 0390 FFF7FEFF 		bl	lv_draw_letter
 871              	.LVL116:
 304:Drivers/lvgl/lvgl/src/draw/lv_draw_label.c ****                 pos.x += letter_w + dsc->letter_space;
 872              		.loc 1 304 0
 873 0394 3EB1     		cbz	r6, .L36
 305:Drivers/lvgl/lvgl/src/draw/lv_draw_label.c ****             }
 874              		.loc 1 305 0
 875 0396 A38A     		ldrh	r3, [r4, #20]
 876 0398 1E44     		add	r6, r6, r3
 877 039a BDF8AC30 		ldrh	r3, [sp, #172]
 878 039e 13FA86F6 		uxtah	r6, r3, r6
 879 03a2 ADF8AC60 		strh	r6, [sp, #172]	@ movhi
 880              	.LVL117:
 881              	.L36:
 882              	.LBE64:
 228:Drivers/lvgl/lvgl/src/draw/lv_draw_label.c ****             uint32_t logical_char_pos = 0;
 883              		.loc 1 228 0
 884 03a6 A9EB0803 		sub	r3, r9, r8
 885              	.LVL118:
 886 03aa 2799     		ldr	r1, [sp, #156]
 887 03ac 8B42     		cmp	r3, r1
 888 03ae 58D9     		bls	.L81
 889              	.LVL119:
 890              	.LBB73:
 230:Drivers/lvgl/lvgl/src/draw/lv_draw_label.c **** #if LV_USE_BIDI
 891              		.loc 1 230 0
 892 03b0 4FF6FF75 		movw	r5, #65535
 893 03b4 069B     		ldr	r3, [sp, #24]
 894 03b6 AA45     		cmp	r10, r5
 895 03b8 18BF     		it	ne
 896 03ba AB42     		cmpne	r3, r5
 897 03bc 14BF     		ite	ne
 898 03be 0125     		movne	r5, #1
 899 03c0 0025     		moveq	r5, #0
 900 03c2 80D0     		beq	.L65
 236:Drivers/lvgl/lvgl/src/draw/lv_draw_label.c **** #endif
 901              		.loc 1 236 0
 902 03c4 8A4B     		ldr	r3, .L92
 903 03c6 1B68     		ldr	r3, [r3]
 904 03c8 4144     		add	r1, r1, r8
 905 03ca 0998     		ldr	r0, [sp, #36]
 906 03cc 9847     		blx	r3
 907              	.LVL120:
 908 03ce 0890     		str	r0, [sp, #32]
 909              	.LVL121:
 910              	.L37:
 242:Drivers/lvgl/lvgl/src/draw/lv_draw_label.c ****             /*Handle the re-color command*/
 911              		.loc 1 242 0
 912 03d0 27AB     		add	r3, sp, #156
ARM GAS  /tmp/cc1OJ4An.s 			page 47


 913 03d2 16AA     		add	r2, sp, #88
 914 03d4 15A9     		add	r1, sp, #84
 915 03d6 0A98     		ldr	r0, [sp, #40]
 916 03d8 FFF7FEFF 		bl	_lv_txt_encoded_letter_next_2
 917              	.LVL122:
 244:Drivers/lvgl/lvgl/src/draw/lv_draw_label.c ****                 if(letter == (uint32_t)LV_TXT_COLOR_CMD[0]) {
 918              		.loc 1 244 0
 919 03dc 637F     		ldrb	r3, [r4, #29]	@ zero_extendqisi2
 920 03de 13F0010F 		tst	r3, #1
 921 03e2 06D0     		beq	.L38
 245:Drivers/lvgl/lvgl/src/draw/lv_draw_label.c ****                     if(cmd_state == CMD_STATE_WAIT) { /*Start char*/
 922              		.loc 1 245 0
 923 03e4 159B     		ldr	r3, [sp, #84]
 924 03e6 232B     		cmp	r3, #35
 925 03e8 3FF470AF 		beq	.L82
 926              	.L39:
 261:Drivers/lvgl/lvgl/src/draw/lv_draw_label.c ****                     if(letter == ' ') {
 927              		.loc 1 261 0
 928 03ec 012F     		cmp	r7, #1
 929 03ee 3FF479AF 		beq	.L83
 930              	.LVL123:
 931              	.L38:
 283:Drivers/lvgl/lvgl/src/draw/lv_draw_label.c **** 
 932              		.loc 1 283 0
 933 03f2 B4F80CB0 		ldrh	fp, [r4, #12]
 934              	.LVL124:
 285:Drivers/lvgl/lvgl/src/draw/lv_draw_label.c **** 
 935              		.loc 1 285 0
 936 03f6 022F     		cmp	r7, #2
 937 03f8 C1D0     		beq	.L84
 938              	.L46:
 287:Drivers/lvgl/lvgl/src/draw/lv_draw_label.c **** 
 939              		.loc 1 287 0
 940 03fa 169A     		ldr	r2, [sp, #88]
 941 03fc 1599     		ldr	r1, [sp, #84]
 942 03fe 0598     		ldr	r0, [sp, #20]
 943 0400 FFF7FEFF 		bl	lv_font_get_glyph_width
 944              	.LVL125:
 945 0404 0646     		mov	r6, r0
 946              	.LVL126:
 289:Drivers/lvgl/lvgl/src/draw/lv_draw_label.c ****                 if(logical_char_pos >= sel_start && logical_char_pos < sel_end) {
 947              		.loc 1 289 0
 948 0406 002D     		cmp	r5, #0
 949 0408 BCD0     		beq	.L47
 290:Drivers/lvgl/lvgl/src/draw/lv_draw_label.c ****                     lv_area_t sel_coords;
 950              		.loc 1 290 0
 951 040a 089A     		ldr	r2, [sp, #32]
 952 040c 1346     		mov	r3, r2
 953 040e 0699     		ldr	r1, [sp, #24]
 954 0410 9245     		cmp	r10, r2
 955 0412 8CBF     		ite	hi
 956 0414 0023     		movhi	r3, #0
 957 0416 0123     		movls	r3, #1
 958 0418 9142     		cmp	r1, r2
 959 041a 98BF     		it	ls
 960 041c 0023     		movls	r3, #0
 961 041e 002B     		cmp	r3, #0
ARM GAS  /tmp/cc1OJ4An.s 			page 48


 962 0420 B0D0     		beq	.L47
 963              	.LBB72:
 292:Drivers/lvgl/lvgl/src/draw/lv_draw_label.c ****                     sel_coords.y1 = pos.y;
 964              		.loc 1 292 0
 965 0422 BDF9AC30 		ldrsh	r3, [sp, #172]
 966 0426 ADF85C30 		strh	r3, [sp, #92]	@ movhi
 293:Drivers/lvgl/lvgl/src/draw/lv_draw_label.c ****                     sel_coords.x2 = pos.x + letter_w + dsc->letter_space - 1;
 967              		.loc 1 293 0
 968 042a BDF9AE20 		ldrsh	r2, [sp, #174]
 969 042e ADF85E20 		strh	r2, [sp, #94]	@ movhi
 294:Drivers/lvgl/lvgl/src/draw/lv_draw_label.c ****                     sel_coords.y2 = pos.y + line_height - 1;
 970              		.loc 1 294 0
 971 0432 10FA83F3 		uxtah	r3, r0, r3
 972 0436 A18A     		ldrh	r1, [r4, #20]
 973 0438 11FA83F3 		uxtah	r3, r1, r3
 974 043c 9BB2     		uxth	r3, r3
 975 043e 013B     		subs	r3, r3, #1
 976 0440 ADF86030 		strh	r3, [sp, #96]	@ movhi
 295:Drivers/lvgl/lvgl/src/draw/lv_draw_label.c ****                     lv_draw_rect(draw_ctx, &draw_dsc_sel, &sel_coords);
 977              		.loc 1 295 0
 978 0444 0E9B     		ldr	r3, [sp, #56]
 979 0446 13FA82F2 		uxtah	r2, r3, r2
 980 044a 92B2     		uxth	r2, r2
 981 044c 013A     		subs	r2, r2, #1
 982 044e ADF86220 		strh	r2, [sp, #98]	@ movhi
 296:Drivers/lvgl/lvgl/src/draw/lv_draw_label.c ****                     color = dsc->sel_color;
 983              		.loc 1 296 0
 984 0452 17AA     		add	r2, sp, #92
 985 0454 19A9     		add	r1, sp, #100
 986 0456 0798     		ldr	r0, [sp, #28]
 987              	.LVL127:
 988 0458 FFF7FEFF 		bl	lv_draw_rect
 989              	.LVL128:
 297:Drivers/lvgl/lvgl/src/draw/lv_draw_label.c ****                 }
 990              		.loc 1 297 0
 991 045c B4F80EB0 		ldrh	fp, [r4, #14]
 992 0460 90E7     		b	.L47
 993              	.LVL129:
 994              	.L81:
 995              	.LBE72:
 996              	.LBE73:
 309:Drivers/lvgl/lvgl/src/draw/lv_draw_label.c ****             lv_point_t p1;
 997              		.loc 1 309 0
 998 0462 A37F     		ldrb	r3, [r4, #30]	@ zero_extendqisi2
 999 0464 13F0020F 		tst	r3, #2
 1000 0468 41D1     		bne	.L85
 1001              	.L51:
 320:Drivers/lvgl/lvgl/src/draw/lv_draw_label.c ****             lv_point_t p1;
 1002              		.loc 1 320 0
 1003 046a A37F     		ldrb	r3, [r4, #30]	@ zero_extendqisi2
 1004 046c 13F0010F 		tst	r3, #1
 1005 0470 67D1     		bne	.L86
 1006              	.L54:
 1007              	.LVL130:
 337:Drivers/lvgl/lvgl/src/draw/lv_draw_label.c **** 
 1008              		.loc 1 337 0
 1009 0472 099B     		ldr	r3, [sp, #36]
ARM GAS  /tmp/cc1OJ4An.s 			page 49


 1010 0474 03EB0906 		add	r6, r3, r9
 1011 0478 B4F91420 		ldrsh	r2, [r4, #20]
 1012 047c 637F     		ldrb	r3, [r4, #29]	@ zero_extendqisi2
 1013 047e 0193     		str	r3, [sp, #4]
 1014 0480 0023     		movs	r3, #0
 1015 0482 0093     		str	r3, [sp]
 1016 0484 0B9B     		ldr	r3, [sp, #44]
 1017 0486 0599     		ldr	r1, [sp, #20]
 1018 0488 3046     		mov	r0, r6
 1019 048a FFF7FEFF 		bl	_lv_txt_get_next_line
 1020              	.LVL131:
 1021 048e 09EB0005 		add	r5, r9, r0
 1022              	.LVL132:
 339:Drivers/lvgl/lvgl/src/draw/lv_draw_label.c ****         /*Align to middle*/
 1023              		.loc 1 339 0
 1024 0492 0C9B     		ldr	r3, [sp, #48]
 1025 0494 B3F90030 		ldrsh	r3, [r3]
 1026 0498 ADF8AC30 		strh	r3, [sp, #172]	@ movhi
 341:Drivers/lvgl/lvgl/src/draw/lv_draw_label.c ****             line_width =
 1027              		.loc 1 341 0
 1028 049c 0D9B     		ldr	r3, [sp, #52]
 1029 049e 022B     		cmp	r3, #2
 1030 04a0 73D0     		beq	.L87
 349:Drivers/lvgl/lvgl/src/draw/lv_draw_label.c ****             line_width =
 1031              		.loc 1 349 0
 1032 04a2 0D9B     		ldr	r3, [sp, #52]
 1033 04a4 032B     		cmp	r3, #3
 1034 04a6 00F08B80 		beq	.L88
 1035              	.L57:
 356:Drivers/lvgl/lvgl/src/draw/lv_draw_label.c **** 
 1036              		.loc 1 356 0
 1037 04aa BDF8AE30 		ldrh	r3, [sp, #174]
 1038 04ae 0E9A     		ldr	r2, [sp, #56]
 1039 04b0 1344     		add	r3, r3, r2
 1040 04b2 1BB2     		sxth	r3, r3
 1041 04b4 ADF8AE30 		strh	r3, [sp, #174]	@ movhi
 358:Drivers/lvgl/lvgl/src/draw/lv_draw_label.c ****     }
 1042              		.loc 1 358 0
 1043 04b8 079A     		ldr	r2, [sp, #28]
 1044 04ba 9268     		ldr	r2, [r2, #8]
 1045 04bc B2F90620 		ldrsh	r2, [r2, #6]
 336:Drivers/lvgl/lvgl/src/draw/lv_draw_label.c ****         line_end += _lv_txt_get_next_line(&txt[line_start], font, dsc->letter_space, w, NULL, dsc->
 1046              		.loc 1 336 0
 1047 04c0 C846     		mov	r8, r9
 358:Drivers/lvgl/lvgl/src/draw/lv_draw_label.c ****     }
 1048              		.loc 1 358 0
 1049 04c2 9342     		cmp	r3, r2
 1050 04c4 3FF7BBAD 		bgt	.L18
 1051              	.LVL133:
 337:Drivers/lvgl/lvgl/src/draw/lv_draw_label.c **** 
 1052              		.loc 1 337 0
 1053 04c8 A946     		mov	r9, r5
 1054              	.LVL134:
 1055              	.L35:
 1056              	.LBE63:
 215:Drivers/lvgl/lvgl/src/draw/lv_draw_label.c ****         pos.x += x_ofs;
 1057              		.loc 1 215 0
ARM GAS  /tmp/cc1OJ4An.s 			page 50


 1058 04ca 099B     		ldr	r3, [sp, #36]
 1059 04cc 1A46     		mov	r2, r3
 1060 04ce 4244     		add	r2, r2, r8
 1061 04d0 0A92     		str	r2, [sp, #40]
 1062 04d2 13F80830 		ldrb	r3, [r3, r8]	@ zero_extendqisi2
 1063 04d6 002B     		cmp	r3, #0
 1064 04d8 3FF4B1AD 		beq	.L18
 1065              	.LBB80:
 216:Drivers/lvgl/lvgl/src/draw/lv_draw_label.c **** 
 1066              		.loc 1 216 0
 1067 04dc BDF8AC30 		ldrh	r3, [sp, #172]
 1068 04e0 109A     		ldr	r2, [sp, #64]
 1069 04e2 1344     		add	r3, r3, r2
 1070 04e4 ADF8AC30 		strh	r3, [sp, #172]	@ movhi
 1071              	.LVL135:
 220:Drivers/lvgl/lvgl/src/draw/lv_draw_label.c **** #if LV_USE_BIDI
 1072              		.loc 1 220 0
 1073 04e8 0027     		movs	r7, #0
 1074 04ea 2797     		str	r7, [sp, #156]
 1075              	.LVL136:
 228:Drivers/lvgl/lvgl/src/draw/lv_draw_label.c ****             uint32_t logical_char_pos = 0;
 1076              		.loc 1 228 0
 1077 04ec 5BE7     		b	.L36
 1078              	.LVL137:
 1079              	.L85:
 1080              	.LBB74:
 312:Drivers/lvgl/lvgl/src/draw/lv_draw_label.c ****             p1.y = pos.y + (dsc->font->line_height / 2)  + line_dsc.width / 2;
 1081              		.loc 1 312 0
 1082 04ee BDF84430 		ldrh	r3, [sp, #68]
 1083 04f2 ADF85830 		strh	r3, [sp, #88]	@ movhi
 313:Drivers/lvgl/lvgl/src/draw/lv_draw_label.c ****             p2.x = pos.x;
 1084              		.loc 1 313 0
 1085 04f6 BDF8AE30 		ldrh	r3, [sp, #174]
 1086 04fa 2268     		ldr	r2, [r4]
 1087 04fc B2F90820 		ldrsh	r2, [r2, #8]
 1088 0500 002A     		cmp	r2, #0
 1089 0502 1ADB     		blt	.L89
 1090              	.L52:
 1091 0504 03EB6203 		add	r3, r3, r2, asr #1
 1092 0508 9BB2     		uxth	r3, r3
 1093 050a BDF9A220 		ldrsh	r2, [sp, #162]
 1094 050e 002A     		cmp	r2, #0
 1095 0510 15DB     		blt	.L90
 1096              	.L53:
 1097 0512 03EB6203 		add	r3, r3, r2, asr #1
 1098 0516 1BB2     		sxth	r3, r3
 1099 0518 ADF85A30 		strh	r3, [sp, #90]	@ movhi
 314:Drivers/lvgl/lvgl/src/draw/lv_draw_label.c ****             p2.y = p1.y;
 1100              		.loc 1 314 0
 1101 051c BDF9AC20 		ldrsh	r2, [sp, #172]
 1102 0520 ADF85C20 		strh	r2, [sp, #92]	@ movhi
 315:Drivers/lvgl/lvgl/src/draw/lv_draw_label.c ****             line_dsc.color = color;
 1103              		.loc 1 315 0
 1104 0524 ADF85E30 		strh	r3, [sp, #94]	@ movhi
 316:Drivers/lvgl/lvgl/src/draw/lv_draw_label.c ****             lv_draw_line(draw_ctx, &line_dsc, &p1, &p2);
 1105              		.loc 1 316 0
 1106 0528 ADF8A0B0 		strh	fp, [sp, #160]	@ movhi
ARM GAS  /tmp/cc1OJ4An.s 			page 51


 317:Drivers/lvgl/lvgl/src/draw/lv_draw_label.c ****         }
 1107              		.loc 1 317 0
 1108 052c 17AB     		add	r3, sp, #92
 1109 052e 16AA     		add	r2, sp, #88
 1110 0530 28A9     		add	r1, sp, #160
 1111 0532 0798     		ldr	r0, [sp, #28]
 1112 0534 FFF7FEFF 		bl	lv_draw_line
 1113              	.LVL138:
 1114 0538 97E7     		b	.L51
 1115              	.L89:
 313:Drivers/lvgl/lvgl/src/draw/lv_draw_label.c ****             p2.x = pos.x;
 1116              		.loc 1 313 0
 1117 053a 0132     		adds	r2, r2, #1
 1118 053c E2E7     		b	.L52
 1119              	.L90:
 1120 053e 0132     		adds	r2, r2, #1
 1121 0540 E7E7     		b	.L53
 1122              	.L86:
 1123              	.LBE74:
 1124              	.LBB75:
 323:Drivers/lvgl/lvgl/src/draw/lv_draw_label.c ****             p1.y = pos.y + dsc->font->line_height - dsc->font->base_line - font->underline_position
 1125              		.loc 1 323 0
 1126 0542 BDF84430 		ldrh	r3, [sp, #68]
 1127 0546 ADF85830 		strh	r3, [sp, #88]	@ movhi
 324:Drivers/lvgl/lvgl/src/draw/lv_draw_label.c ****             p2.x = pos.x;
 1128              		.loc 1 324 0
 1129 054a BDF8AE30 		ldrh	r3, [sp, #174]
 1130 054e 2268     		ldr	r2, [r4]
 1131 0550 1189     		ldrh	r1, [r2, #8]
 1132 0552 0B44     		add	r3, r3, r1
 1133 0554 9BB2     		uxth	r3, r3
 1134 0556 5289     		ldrh	r2, [r2, #10]
 1135 0558 9B1A     		subs	r3, r3, r2
 1136 055a 9BB2     		uxth	r3, r3
 1137 055c 059A     		ldr	r2, [sp, #20]
 1138 055e 92F90D20 		ldrsb	r2, [r2, #13]
 1139 0562 92B2     		uxth	r2, r2
 1140 0564 9B1A     		subs	r3, r3, r2
 1141 0566 1BB2     		sxth	r3, r3
 1142 0568 ADF85A30 		strh	r3, [sp, #90]	@ movhi
 325:Drivers/lvgl/lvgl/src/draw/lv_draw_label.c ****             p2.y = p1.y;
 1143              		.loc 1 325 0
 1144 056c BDF9AC20 		ldrsh	r2, [sp, #172]
 1145 0570 ADF85C20 		strh	r2, [sp, #92]	@ movhi
 326:Drivers/lvgl/lvgl/src/draw/lv_draw_label.c ****             line_dsc.color = color;
 1146              		.loc 1 326 0
 1147 0574 ADF85E30 		strh	r3, [sp, #94]	@ movhi
 327:Drivers/lvgl/lvgl/src/draw/lv_draw_label.c ****             lv_draw_line(draw_ctx, &line_dsc, &p1, &p2);
 1148              		.loc 1 327 0
 1149 0578 ADF8A0B0 		strh	fp, [sp, #160]	@ movhi
 328:Drivers/lvgl/lvgl/src/draw/lv_draw_label.c ****         }
 1150              		.loc 1 328 0
 1151 057c 17AB     		add	r3, sp, #92
 1152 057e 16AA     		add	r2, sp, #88
 1153 0580 28A9     		add	r1, sp, #160
 1154 0582 0798     		ldr	r0, [sp, #28]
 1155 0584 FFF7FEFF 		bl	lv_draw_line
ARM GAS  /tmp/cc1OJ4An.s 			page 52


 1156              	.LVL139:
 1157 0588 73E7     		b	.L54
 1158              	.LVL140:
 1159              	.L87:
 1160              	.LBE75:
 343:Drivers/lvgl/lvgl/src/draw/lv_draw_label.c **** 
 1161              		.loc 1 343 0
 1162 058a B4F91430 		ldrsh	r3, [r4, #20]
 1163 058e 627F     		ldrb	r2, [r4, #29]	@ zero_extendqisi2
 1164 0590 0092     		str	r2, [sp]
 1165 0592 059A     		ldr	r2, [sp, #20]
 1166 0594 0146     		mov	r1, r0
 1167 0596 3046     		mov	r0, r6
 1168 0598 FFF7FEFF 		bl	lv_txt_get_width
 1169              	.LVL141:
 1170              	.LBB76:
 1171              	.LBB77:
 1172              		.loc 4 125 0
 1173 059c 0C9A     		ldr	r2, [sp, #48]
 1174 059e 9388     		ldrh	r3, [r2, #4]
 1175 05a0 1288     		ldrh	r2, [r2]
 1176 05a2 9B1A     		subs	r3, r3, r2
 1177 05a4 9BB2     		uxth	r3, r3
 1178 05a6 0133     		adds	r3, r3, #1
 1179 05a8 1BB2     		sxth	r3, r3
 1180              	.LVL142:
 1181              	.LBE77:
 1182              	.LBE76:
 345:Drivers/lvgl/lvgl/src/draw/lv_draw_label.c **** 
 1183              		.loc 1 345 0
 1184 05aa 181A     		subs	r0, r3, r0
 1185              	.LVL143:
 1186 05ac 06D4     		bmi	.L91
 1187              	.L56:
 1188 05ae BDF8AC30 		ldrh	r3, [sp, #172]
 1189 05b2 03EB6003 		add	r3, r3, r0, asr #1
 1190 05b6 ADF8AC30 		strh	r3, [sp, #172]	@ movhi
 1191 05ba 76E7     		b	.L57
 1192              	.L91:
 1193 05bc 0130     		adds	r0, r0, #1
 1194 05be F6E7     		b	.L56
 1195              	.L88:
 351:Drivers/lvgl/lvgl/src/draw/lv_draw_label.c ****             pos.x += lv_area_get_width(coords) - line_width;
 1196              		.loc 1 351 0
 1197 05c0 B4F91430 		ldrsh	r3, [r4, #20]
 1198 05c4 627F     		ldrb	r2, [r4, #29]	@ zero_extendqisi2
 1199 05c6 0092     		str	r2, [sp]
 1200 05c8 059A     		ldr	r2, [sp, #20]
 1201 05ca 0146     		mov	r1, r0
 1202 05cc 3046     		mov	r0, r6
 1203 05ce FFF7FEFF 		bl	lv_txt_get_width
 1204              	.LVL144:
 1205              	.LBB78:
 1206              	.LBB79:
 1207              		.loc 4 125 0
 1208 05d2 0C9A     		ldr	r2, [sp, #48]
 1209 05d4 9388     		ldrh	r3, [r2, #4]
ARM GAS  /tmp/cc1OJ4An.s 			page 53


 1210 05d6 1288     		ldrh	r2, [r2]
 1211 05d8 9B1A     		subs	r3, r3, r2
 1212 05da 9BB2     		uxth	r3, r3
 1213 05dc 0133     		adds	r3, r3, #1
 1214 05de 1BB2     		sxth	r3, r3
 1215              	.LVL145:
 1216              	.LBE79:
 1217              	.LBE78:
 352:Drivers/lvgl/lvgl/src/draw/lv_draw_label.c ****         }
 1218              		.loc 1 352 0
 1219 05e0 1B1A     		subs	r3, r3, r0
 1220 05e2 BDF8AC20 		ldrh	r2, [sp, #172]
 1221 05e6 1344     		add	r3, r3, r2
 1222 05e8 ADF8AC30 		strh	r3, [sp, #172]	@ movhi
 1223 05ec 5DE7     		b	.L57
 1224              	.LVL146:
 1225              	.L69:
 1226              	.LCFI6:
 1227              		.cfi_def_cfa_offset 0
 1228              		.cfi_restore 4
 1229              		.cfi_restore 5
 1230              		.cfi_restore 6
 1231              		.cfi_restore 7
 1232              		.cfi_restore 8
 1233              		.cfi_restore 9
 1234              		.cfi_restore 10
 1235              		.cfi_restore 11
 1236              		.cfi_restore 14
 1237 05ee 7047     		bx	lr
 1238              	.L93:
 1239              		.align	2
 1240              	.L92:
 1241 05f0 00000000 		.word	_lv_txt_encoded_get_char_id
 1242              	.LBE80:
 1243              		.cfi_endproc
 1244              	.LFE160:
 1246              		.text
 1247              	.Letext0:
 1248              		.file 7 "/opt/gcc-arm-none-eabi-7-2017-q4-major/arm-none-eabi/include/machine/_default_types.h"
 1249              		.file 8 "/opt/gcc-arm-none-eabi-7-2017-q4-major/arm-none-eabi/include/sys/_stdint.h"
 1250              		.file 9 "/opt/gcc-arm-none-eabi-7-2017-q4-major/lib/gcc/arm-none-eabi/7.2.1/include/stddef.h"
 1251              		.file 10 "Drivers/lvgl/lvgl/src/draw/../misc/lv_types.h"
 1252              		.file 11 "/opt/gcc-arm-none-eabi-7-2017-q4-major/arm-none-eabi/include/sys/lock.h"
 1253              		.file 12 "/opt/gcc-arm-none-eabi-7-2017-q4-major/arm-none-eabi/include/sys/_types.h"
 1254              		.file 13 "/opt/gcc-arm-none-eabi-7-2017-q4-major/arm-none-eabi/include/sys/reent.h"
 1255              		.file 14 "Drivers/lvgl/lvgl/src/draw/../misc/lv_txt.h"
 1256              		.file 15 "Drivers/lvgl/lvgl/src/draw/../misc/lv_style.h"
 1257              		.file 16 "Drivers/lvgl/lvgl/src/draw/lv_img_buf.h"
 1258              		.file 17 "Drivers/lvgl/lvgl/src/draw/../core/lv_obj.h"
 1259              		.file 18 "Drivers/lvgl/lvgl/src/draw/lv_draw_rect.h"
 1260              		.file 19 "Drivers/lvgl/lvgl/src/draw/lv_draw_label.h"
 1261              		.file 20 "Drivers/lvgl/lvgl/src/draw/lv_draw_img.h"
 1262              		.file 21 "Drivers/lvgl/lvgl/src/draw/lv_draw_line.h"
 1263              		.file 22 "Drivers/lvgl/lvgl/src/draw/lv_draw_arc.h"
 1264              		.file 23 "Drivers/lvgl/lvgl/src/draw/lv_draw_layer.h"
 1265              		.file 24 "Drivers/lvgl/lvgl/src/draw/lv_draw.h"
 1266              		.file 25 "Drivers/lvgl/lvgl/src/draw/../core/lv_group.h"
ARM GAS  /tmp/cc1OJ4An.s 			page 54


 1267              		.file 26 "Drivers/lvgl/lvgl/src/draw/../hal/../misc/lv_ll.h"
 1268              		.file 27 "Drivers/lvgl/lvgl/src/draw/../core/lv_obj_scroll.h"
 1269              		.file 28 "Drivers/lvgl/lvgl/src/draw/../core/lv_obj_style.h"
 1270              		.file 29 "Drivers/lvgl/lvgl/src/draw/../core/lv_obj_class.h"
 1271              		.file 30 "Drivers/lvgl/lvgl/src/draw/../core/lv_event.h"
ARM GAS  /tmp/cc1OJ4An.s 			page 55

