ARM GAS  /tmp/ccbxNlti.s 			page 1


   1              		.cpu cortex-m7
   2              		.eabi_attribute 28, 1
   3              		.eabi_attribute 20, 1
   4              		.eabi_attribute 21, 1
   5              		.eabi_attribute 23, 3
   6              		.eabi_attribute 24, 1
   7              		.eabi_attribute 25, 1
   8              		.eabi_attribute 26, 1
   9              		.eabi_attribute 30, 1
  10              		.eabi_attribute 34, 1
  11              		.eabi_attribute 18, 4
  12              		.file	"lv_flex.c"
  13              		.text
  14              	.Ltext0:
  15              		.cfi_sections	.debug_frame
  16              		.section	.text.lv_area_get_width,"ax",%progbits
  17              		.align	1
  18              		.syntax unified
  19              		.thumb
  20              		.thumb_func
  21              		.fpu fpv5-d16
  23              	lv_area_get_width:
  24              	.LFB1:
  25              		.file 1 "Drivers/lvgl/lvgl/src/extra/layouts/flex/../flex/../../../core/../misc/../font/../misc/lv
   1:Drivers/lvgl/lvgl/src/extra/layouts/flex/../flex/../../../core/../misc/../font/../misc/lv_area.h **** /**
   2:Drivers/lvgl/lvgl/src/extra/layouts/flex/../flex/../../../core/../misc/../font/../misc/lv_area.h ****  * @file lv_area.h
   3:Drivers/lvgl/lvgl/src/extra/layouts/flex/../flex/../../../core/../misc/../font/../misc/lv_area.h ****  *
   4:Drivers/lvgl/lvgl/src/extra/layouts/flex/../flex/../../../core/../misc/../font/../misc/lv_area.h ****  */
   5:Drivers/lvgl/lvgl/src/extra/layouts/flex/../flex/../../../core/../misc/../font/../misc/lv_area.h **** 
   6:Drivers/lvgl/lvgl/src/extra/layouts/flex/../flex/../../../core/../misc/../font/../misc/lv_area.h **** #ifndef LV_AREA_H
   7:Drivers/lvgl/lvgl/src/extra/layouts/flex/../flex/../../../core/../misc/../font/../misc/lv_area.h **** #define LV_AREA_H
   8:Drivers/lvgl/lvgl/src/extra/layouts/flex/../flex/../../../core/../misc/../font/../misc/lv_area.h **** 
   9:Drivers/lvgl/lvgl/src/extra/layouts/flex/../flex/../../../core/../misc/../font/../misc/lv_area.h **** #ifdef __cplusplus
  10:Drivers/lvgl/lvgl/src/extra/layouts/flex/../flex/../../../core/../misc/../font/../misc/lv_area.h **** extern "C" {
  11:Drivers/lvgl/lvgl/src/extra/layouts/flex/../flex/../../../core/../misc/../font/../misc/lv_area.h **** #endif
  12:Drivers/lvgl/lvgl/src/extra/layouts/flex/../flex/../../../core/../misc/../font/../misc/lv_area.h **** 
  13:Drivers/lvgl/lvgl/src/extra/layouts/flex/../flex/../../../core/../misc/../font/../misc/lv_area.h **** /*********************
  14:Drivers/lvgl/lvgl/src/extra/layouts/flex/../flex/../../../core/../misc/../font/../misc/lv_area.h ****  *      INCLUDES
  15:Drivers/lvgl/lvgl/src/extra/layouts/flex/../flex/../../../core/../misc/../font/../misc/lv_area.h ****  *********************/
  16:Drivers/lvgl/lvgl/src/extra/layouts/flex/../flex/../../../core/../misc/../font/../misc/lv_area.h **** #include "../lv_conf_internal.h"
  17:Drivers/lvgl/lvgl/src/extra/layouts/flex/../flex/../../../core/../misc/../font/../misc/lv_area.h **** #include <stdbool.h>
  18:Drivers/lvgl/lvgl/src/extra/layouts/flex/../flex/../../../core/../misc/../font/../misc/lv_area.h **** #include <stdint.h>
  19:Drivers/lvgl/lvgl/src/extra/layouts/flex/../flex/../../../core/../misc/../font/../misc/lv_area.h **** 
  20:Drivers/lvgl/lvgl/src/extra/layouts/flex/../flex/../../../core/../misc/../font/../misc/lv_area.h **** /*********************
  21:Drivers/lvgl/lvgl/src/extra/layouts/flex/../flex/../../../core/../misc/../font/../misc/lv_area.h ****  *      DEFINES
  22:Drivers/lvgl/lvgl/src/extra/layouts/flex/../flex/../../../core/../misc/../font/../misc/lv_area.h ****  *********************/
  23:Drivers/lvgl/lvgl/src/extra/layouts/flex/../flex/../../../core/../misc/../font/../misc/lv_area.h **** 
  24:Drivers/lvgl/lvgl/src/extra/layouts/flex/../flex/../../../core/../misc/../font/../misc/lv_area.h **** #if LV_USE_LARGE_COORD
  25:Drivers/lvgl/lvgl/src/extra/layouts/flex/../flex/../../../core/../misc/../font/../misc/lv_area.h **** typedef int32_t lv_coord_t;
  26:Drivers/lvgl/lvgl/src/extra/layouts/flex/../flex/../../../core/../misc/../font/../misc/lv_area.h **** #else
  27:Drivers/lvgl/lvgl/src/extra/layouts/flex/../flex/../../../core/../misc/../font/../misc/lv_area.h **** typedef int16_t lv_coord_t;
  28:Drivers/lvgl/lvgl/src/extra/layouts/flex/../flex/../../../core/../misc/../font/../misc/lv_area.h **** #endif
  29:Drivers/lvgl/lvgl/src/extra/layouts/flex/../flex/../../../core/../misc/../font/../misc/lv_area.h **** 
  30:Drivers/lvgl/lvgl/src/extra/layouts/flex/../flex/../../../core/../misc/../font/../misc/lv_area.h **** /**********************
  31:Drivers/lvgl/lvgl/src/extra/layouts/flex/../flex/../../../core/../misc/../font/../misc/lv_area.h ****  *      TYPEDEFS
  32:Drivers/lvgl/lvgl/src/extra/layouts/flex/../flex/../../../core/../misc/../font/../misc/lv_area.h ****  **********************/
  33:Drivers/lvgl/lvgl/src/extra/layouts/flex/../flex/../../../core/../misc/../font/../misc/lv_area.h **** 
ARM GAS  /tmp/ccbxNlti.s 			page 2


  34:Drivers/lvgl/lvgl/src/extra/layouts/flex/../flex/../../../core/../misc/../font/../misc/lv_area.h **** /**
  35:Drivers/lvgl/lvgl/src/extra/layouts/flex/../flex/../../../core/../misc/../font/../misc/lv_area.h ****  * Represents a point on the screen.
  36:Drivers/lvgl/lvgl/src/extra/layouts/flex/../flex/../../../core/../misc/../font/../misc/lv_area.h ****  */
  37:Drivers/lvgl/lvgl/src/extra/layouts/flex/../flex/../../../core/../misc/../font/../misc/lv_area.h **** typedef struct {
  38:Drivers/lvgl/lvgl/src/extra/layouts/flex/../flex/../../../core/../misc/../font/../misc/lv_area.h ****     lv_coord_t x;
  39:Drivers/lvgl/lvgl/src/extra/layouts/flex/../flex/../../../core/../misc/../font/../misc/lv_area.h ****     lv_coord_t y;
  40:Drivers/lvgl/lvgl/src/extra/layouts/flex/../flex/../../../core/../misc/../font/../misc/lv_area.h **** } lv_point_t;
  41:Drivers/lvgl/lvgl/src/extra/layouts/flex/../flex/../../../core/../misc/../font/../misc/lv_area.h **** 
  42:Drivers/lvgl/lvgl/src/extra/layouts/flex/../flex/../../../core/../misc/../font/../misc/lv_area.h **** /** Represents an area of the screen.*/
  43:Drivers/lvgl/lvgl/src/extra/layouts/flex/../flex/../../../core/../misc/../font/../misc/lv_area.h **** typedef struct {
  44:Drivers/lvgl/lvgl/src/extra/layouts/flex/../flex/../../../core/../misc/../font/../misc/lv_area.h ****     lv_coord_t x1;
  45:Drivers/lvgl/lvgl/src/extra/layouts/flex/../flex/../../../core/../misc/../font/../misc/lv_area.h ****     lv_coord_t y1;
  46:Drivers/lvgl/lvgl/src/extra/layouts/flex/../flex/../../../core/../misc/../font/../misc/lv_area.h ****     lv_coord_t x2;
  47:Drivers/lvgl/lvgl/src/extra/layouts/flex/../flex/../../../core/../misc/../font/../misc/lv_area.h ****     lv_coord_t y2;
  48:Drivers/lvgl/lvgl/src/extra/layouts/flex/../flex/../../../core/../misc/../font/../misc/lv_area.h **** } lv_area_t;
  49:Drivers/lvgl/lvgl/src/extra/layouts/flex/../flex/../../../core/../misc/../font/../misc/lv_area.h **** 
  50:Drivers/lvgl/lvgl/src/extra/layouts/flex/../flex/../../../core/../misc/../font/../misc/lv_area.h **** /** Alignments*/
  51:Drivers/lvgl/lvgl/src/extra/layouts/flex/../flex/../../../core/../misc/../font/../misc/lv_area.h **** enum {
  52:Drivers/lvgl/lvgl/src/extra/layouts/flex/../flex/../../../core/../misc/../font/../misc/lv_area.h ****     LV_ALIGN_DEFAULT = 0,
  53:Drivers/lvgl/lvgl/src/extra/layouts/flex/../flex/../../../core/../misc/../font/../misc/lv_area.h ****     LV_ALIGN_TOP_LEFT,
  54:Drivers/lvgl/lvgl/src/extra/layouts/flex/../flex/../../../core/../misc/../font/../misc/lv_area.h ****     LV_ALIGN_TOP_MID,
  55:Drivers/lvgl/lvgl/src/extra/layouts/flex/../flex/../../../core/../misc/../font/../misc/lv_area.h ****     LV_ALIGN_TOP_RIGHT,
  56:Drivers/lvgl/lvgl/src/extra/layouts/flex/../flex/../../../core/../misc/../font/../misc/lv_area.h ****     LV_ALIGN_BOTTOM_LEFT,
  57:Drivers/lvgl/lvgl/src/extra/layouts/flex/../flex/../../../core/../misc/../font/../misc/lv_area.h ****     LV_ALIGN_BOTTOM_MID,
  58:Drivers/lvgl/lvgl/src/extra/layouts/flex/../flex/../../../core/../misc/../font/../misc/lv_area.h ****     LV_ALIGN_BOTTOM_RIGHT,
  59:Drivers/lvgl/lvgl/src/extra/layouts/flex/../flex/../../../core/../misc/../font/../misc/lv_area.h ****     LV_ALIGN_LEFT_MID,
  60:Drivers/lvgl/lvgl/src/extra/layouts/flex/../flex/../../../core/../misc/../font/../misc/lv_area.h ****     LV_ALIGN_RIGHT_MID,
  61:Drivers/lvgl/lvgl/src/extra/layouts/flex/../flex/../../../core/../misc/../font/../misc/lv_area.h ****     LV_ALIGN_CENTER,
  62:Drivers/lvgl/lvgl/src/extra/layouts/flex/../flex/../../../core/../misc/../font/../misc/lv_area.h **** 
  63:Drivers/lvgl/lvgl/src/extra/layouts/flex/../flex/../../../core/../misc/../font/../misc/lv_area.h ****     LV_ALIGN_OUT_TOP_LEFT,
  64:Drivers/lvgl/lvgl/src/extra/layouts/flex/../flex/../../../core/../misc/../font/../misc/lv_area.h ****     LV_ALIGN_OUT_TOP_MID,
  65:Drivers/lvgl/lvgl/src/extra/layouts/flex/../flex/../../../core/../misc/../font/../misc/lv_area.h ****     LV_ALIGN_OUT_TOP_RIGHT,
  66:Drivers/lvgl/lvgl/src/extra/layouts/flex/../flex/../../../core/../misc/../font/../misc/lv_area.h ****     LV_ALIGN_OUT_BOTTOM_LEFT,
  67:Drivers/lvgl/lvgl/src/extra/layouts/flex/../flex/../../../core/../misc/../font/../misc/lv_area.h ****     LV_ALIGN_OUT_BOTTOM_MID,
  68:Drivers/lvgl/lvgl/src/extra/layouts/flex/../flex/../../../core/../misc/../font/../misc/lv_area.h ****     LV_ALIGN_OUT_BOTTOM_RIGHT,
  69:Drivers/lvgl/lvgl/src/extra/layouts/flex/../flex/../../../core/../misc/../font/../misc/lv_area.h ****     LV_ALIGN_OUT_LEFT_TOP,
  70:Drivers/lvgl/lvgl/src/extra/layouts/flex/../flex/../../../core/../misc/../font/../misc/lv_area.h ****     LV_ALIGN_OUT_LEFT_MID,
  71:Drivers/lvgl/lvgl/src/extra/layouts/flex/../flex/../../../core/../misc/../font/../misc/lv_area.h ****     LV_ALIGN_OUT_LEFT_BOTTOM,
  72:Drivers/lvgl/lvgl/src/extra/layouts/flex/../flex/../../../core/../misc/../font/../misc/lv_area.h ****     LV_ALIGN_OUT_RIGHT_TOP,
  73:Drivers/lvgl/lvgl/src/extra/layouts/flex/../flex/../../../core/../misc/../font/../misc/lv_area.h ****     LV_ALIGN_OUT_RIGHT_MID,
  74:Drivers/lvgl/lvgl/src/extra/layouts/flex/../flex/../../../core/../misc/../font/../misc/lv_area.h ****     LV_ALIGN_OUT_RIGHT_BOTTOM,
  75:Drivers/lvgl/lvgl/src/extra/layouts/flex/../flex/../../../core/../misc/../font/../misc/lv_area.h **** };
  76:Drivers/lvgl/lvgl/src/extra/layouts/flex/../flex/../../../core/../misc/../font/../misc/lv_area.h **** typedef uint8_t lv_align_t;
  77:Drivers/lvgl/lvgl/src/extra/layouts/flex/../flex/../../../core/../misc/../font/../misc/lv_area.h **** 
  78:Drivers/lvgl/lvgl/src/extra/layouts/flex/../flex/../../../core/../misc/../font/../misc/lv_area.h **** enum {
  79:Drivers/lvgl/lvgl/src/extra/layouts/flex/../flex/../../../core/../misc/../font/../misc/lv_area.h ****     LV_DIR_NONE     = 0x00,
  80:Drivers/lvgl/lvgl/src/extra/layouts/flex/../flex/../../../core/../misc/../font/../misc/lv_area.h ****     LV_DIR_LEFT     = (1 << 0),
  81:Drivers/lvgl/lvgl/src/extra/layouts/flex/../flex/../../../core/../misc/../font/../misc/lv_area.h ****     LV_DIR_RIGHT    = (1 << 1),
  82:Drivers/lvgl/lvgl/src/extra/layouts/flex/../flex/../../../core/../misc/../font/../misc/lv_area.h ****     LV_DIR_TOP      = (1 << 2),
  83:Drivers/lvgl/lvgl/src/extra/layouts/flex/../flex/../../../core/../misc/../font/../misc/lv_area.h ****     LV_DIR_BOTTOM   = (1 << 3),
  84:Drivers/lvgl/lvgl/src/extra/layouts/flex/../flex/../../../core/../misc/../font/../misc/lv_area.h ****     LV_DIR_HOR      = LV_DIR_LEFT | LV_DIR_RIGHT,
  85:Drivers/lvgl/lvgl/src/extra/layouts/flex/../flex/../../../core/../misc/../font/../misc/lv_area.h ****     LV_DIR_VER      = LV_DIR_TOP | LV_DIR_BOTTOM,
  86:Drivers/lvgl/lvgl/src/extra/layouts/flex/../flex/../../../core/../misc/../font/../misc/lv_area.h ****     LV_DIR_ALL      = LV_DIR_HOR | LV_DIR_VER,
  87:Drivers/lvgl/lvgl/src/extra/layouts/flex/../flex/../../../core/../misc/../font/../misc/lv_area.h **** };
  88:Drivers/lvgl/lvgl/src/extra/layouts/flex/../flex/../../../core/../misc/../font/../misc/lv_area.h **** 
  89:Drivers/lvgl/lvgl/src/extra/layouts/flex/../flex/../../../core/../misc/../font/../misc/lv_area.h **** typedef uint8_t lv_dir_t;
  90:Drivers/lvgl/lvgl/src/extra/layouts/flex/../flex/../../../core/../misc/../font/../misc/lv_area.h **** 
ARM GAS  /tmp/ccbxNlti.s 			page 3


  91:Drivers/lvgl/lvgl/src/extra/layouts/flex/../flex/../../../core/../misc/../font/../misc/lv_area.h **** /**********************
  92:Drivers/lvgl/lvgl/src/extra/layouts/flex/../flex/../../../core/../misc/../font/../misc/lv_area.h ****  * GLOBAL PROTOTYPES
  93:Drivers/lvgl/lvgl/src/extra/layouts/flex/../flex/../../../core/../misc/../font/../misc/lv_area.h ****  **********************/
  94:Drivers/lvgl/lvgl/src/extra/layouts/flex/../flex/../../../core/../misc/../font/../misc/lv_area.h **** 
  95:Drivers/lvgl/lvgl/src/extra/layouts/flex/../flex/../../../core/../misc/../font/../misc/lv_area.h **** /**
  96:Drivers/lvgl/lvgl/src/extra/layouts/flex/../flex/../../../core/../misc/../font/../misc/lv_area.h ****  * Initialize an area
  97:Drivers/lvgl/lvgl/src/extra/layouts/flex/../flex/../../../core/../misc/../font/../misc/lv_area.h ****  * @param area_p pointer to an area
  98:Drivers/lvgl/lvgl/src/extra/layouts/flex/../flex/../../../core/../misc/../font/../misc/lv_area.h ****  * @param x1 left coordinate of the area
  99:Drivers/lvgl/lvgl/src/extra/layouts/flex/../flex/../../../core/../misc/../font/../misc/lv_area.h ****  * @param y1 top coordinate of the area
 100:Drivers/lvgl/lvgl/src/extra/layouts/flex/../flex/../../../core/../misc/../font/../misc/lv_area.h ****  * @param x2 right coordinate of the area
 101:Drivers/lvgl/lvgl/src/extra/layouts/flex/../flex/../../../core/../misc/../font/../misc/lv_area.h ****  * @param y2 bottom coordinate of the area
 102:Drivers/lvgl/lvgl/src/extra/layouts/flex/../flex/../../../core/../misc/../font/../misc/lv_area.h ****  */
 103:Drivers/lvgl/lvgl/src/extra/layouts/flex/../flex/../../../core/../misc/../font/../misc/lv_area.h **** void lv_area_set(lv_area_t * area_p, lv_coord_t x1, lv_coord_t y1, lv_coord_t x2, lv_coord_t y2);
 104:Drivers/lvgl/lvgl/src/extra/layouts/flex/../flex/../../../core/../misc/../font/../misc/lv_area.h **** 
 105:Drivers/lvgl/lvgl/src/extra/layouts/flex/../flex/../../../core/../misc/../font/../misc/lv_area.h **** /**
 106:Drivers/lvgl/lvgl/src/extra/layouts/flex/../flex/../../../core/../misc/../font/../misc/lv_area.h ****  * Copy an area
 107:Drivers/lvgl/lvgl/src/extra/layouts/flex/../flex/../../../core/../misc/../font/../misc/lv_area.h ****  * @param dest pointer to the destination area
 108:Drivers/lvgl/lvgl/src/extra/layouts/flex/../flex/../../../core/../misc/../font/../misc/lv_area.h ****  * @param src pointer to the source area
 109:Drivers/lvgl/lvgl/src/extra/layouts/flex/../flex/../../../core/../misc/../font/../misc/lv_area.h ****  */
 110:Drivers/lvgl/lvgl/src/extra/layouts/flex/../flex/../../../core/../misc/../font/../misc/lv_area.h **** inline static void lv_area_copy(lv_area_t * dest, const lv_area_t * src)
 111:Drivers/lvgl/lvgl/src/extra/layouts/flex/../flex/../../../core/../misc/../font/../misc/lv_area.h **** {
 112:Drivers/lvgl/lvgl/src/extra/layouts/flex/../flex/../../../core/../misc/../font/../misc/lv_area.h ****     dest->x1 = src->x1;
 113:Drivers/lvgl/lvgl/src/extra/layouts/flex/../flex/../../../core/../misc/../font/../misc/lv_area.h ****     dest->y1 = src->y1;
 114:Drivers/lvgl/lvgl/src/extra/layouts/flex/../flex/../../../core/../misc/../font/../misc/lv_area.h ****     dest->x2 = src->x2;
 115:Drivers/lvgl/lvgl/src/extra/layouts/flex/../flex/../../../core/../misc/../font/../misc/lv_area.h ****     dest->y2 = src->y2;
 116:Drivers/lvgl/lvgl/src/extra/layouts/flex/../flex/../../../core/../misc/../font/../misc/lv_area.h **** }
 117:Drivers/lvgl/lvgl/src/extra/layouts/flex/../flex/../../../core/../misc/../font/../misc/lv_area.h **** 
 118:Drivers/lvgl/lvgl/src/extra/layouts/flex/../flex/../../../core/../misc/../font/../misc/lv_area.h **** /**
 119:Drivers/lvgl/lvgl/src/extra/layouts/flex/../flex/../../../core/../misc/../font/../misc/lv_area.h ****  * Get the width of an area
 120:Drivers/lvgl/lvgl/src/extra/layouts/flex/../flex/../../../core/../misc/../font/../misc/lv_area.h ****  * @param area_p pointer to an area
 121:Drivers/lvgl/lvgl/src/extra/layouts/flex/../flex/../../../core/../misc/../font/../misc/lv_area.h ****  * @return the width of the area (if x1 == x2 -> width = 1)
 122:Drivers/lvgl/lvgl/src/extra/layouts/flex/../flex/../../../core/../misc/../font/../misc/lv_area.h ****  */
 123:Drivers/lvgl/lvgl/src/extra/layouts/flex/../flex/../../../core/../misc/../font/../misc/lv_area.h **** static inline lv_coord_t lv_area_get_width(const lv_area_t * area_p)
 124:Drivers/lvgl/lvgl/src/extra/layouts/flex/../flex/../../../core/../misc/../font/../misc/lv_area.h **** {
  26              		.loc 1 124 0
  27              		.cfi_startproc
  28              		@ args = 0, pretend = 0, frame = 0
  29              		@ frame_needed = 0, uses_anonymous_args = 0
  30              		@ link register save eliminated.
  31              	.LVL0:
 125:Drivers/lvgl/lvgl/src/extra/layouts/flex/../flex/../../../core/../misc/../font/../misc/lv_area.h ****     return (lv_coord_t)(area_p->x2 - area_p->x1 + 1);
  32              		.loc 1 125 0
  33 0000 8388     		ldrh	r3, [r0, #4]
  34 0002 0088     		ldrh	r0, [r0]
  35              	.LVL1:
  36 0004 181A     		subs	r0, r3, r0
  37 0006 80B2     		uxth	r0, r0
  38 0008 0130     		adds	r0, r0, #1
 126:Drivers/lvgl/lvgl/src/extra/layouts/flex/../flex/../../../core/../misc/../font/../misc/lv_area.h **** }
  39              		.loc 1 126 0
  40 000a 00B2     		sxth	r0, r0
  41 000c 7047     		bx	lr
  42              		.cfi_endproc
  43              	.LFE1:
  45              		.section	.text.lv_area_get_height,"ax",%progbits
  46              		.align	1
  47              		.syntax unified
ARM GAS  /tmp/ccbxNlti.s 			page 4


  48              		.thumb
  49              		.thumb_func
  50              		.fpu fpv5-d16
  52              	lv_area_get_height:
  53              	.LFB2:
 127:Drivers/lvgl/lvgl/src/extra/layouts/flex/../flex/../../../core/../misc/../font/../misc/lv_area.h **** 
 128:Drivers/lvgl/lvgl/src/extra/layouts/flex/../flex/../../../core/../misc/../font/../misc/lv_area.h **** /**
 129:Drivers/lvgl/lvgl/src/extra/layouts/flex/../flex/../../../core/../misc/../font/../misc/lv_area.h ****  * Get the height of an area
 130:Drivers/lvgl/lvgl/src/extra/layouts/flex/../flex/../../../core/../misc/../font/../misc/lv_area.h ****  * @param area_p pointer to an area
 131:Drivers/lvgl/lvgl/src/extra/layouts/flex/../flex/../../../core/../misc/../font/../misc/lv_area.h ****  * @return the height of the area (if y1 == y2 -> height = 1)
 132:Drivers/lvgl/lvgl/src/extra/layouts/flex/../flex/../../../core/../misc/../font/../misc/lv_area.h ****  */
 133:Drivers/lvgl/lvgl/src/extra/layouts/flex/../flex/../../../core/../misc/../font/../misc/lv_area.h **** static inline lv_coord_t lv_area_get_height(const lv_area_t * area_p)
 134:Drivers/lvgl/lvgl/src/extra/layouts/flex/../flex/../../../core/../misc/../font/../misc/lv_area.h **** {
  54              		.loc 1 134 0
  55              		.cfi_startproc
  56              		@ args = 0, pretend = 0, frame = 0
  57              		@ frame_needed = 0, uses_anonymous_args = 0
  58              		@ link register save eliminated.
  59              	.LVL2:
 135:Drivers/lvgl/lvgl/src/extra/layouts/flex/../flex/../../../core/../misc/../font/../misc/lv_area.h ****     return (lv_coord_t)(area_p->y2 - area_p->y1 + 1);
  60              		.loc 1 135 0
  61 0000 C388     		ldrh	r3, [r0, #6]
  62 0002 4088     		ldrh	r0, [r0, #2]
  63              	.LVL3:
  64 0004 181A     		subs	r0, r3, r0
  65 0006 80B2     		uxth	r0, r0
  66 0008 0130     		adds	r0, r0, #1
 136:Drivers/lvgl/lvgl/src/extra/layouts/flex/../flex/../../../core/../misc/../font/../misc/lv_area.h **** }
  67              		.loc 1 136 0
  68 000a 00B2     		sxth	r0, r0
  69 000c 7047     		bx	lr
  70              		.cfi_endproc
  71              	.LFE2:
  73              		.section	.text.place_content,"ax",%progbits
  74              		.align	1
  75              		.syntax unified
  76              		.thumb
  77              		.thumb_func
  78              		.fpu fpv5-d16
  80              	place_content:
  81              	.LFB192:
  82              		.file 2 "Drivers/lvgl/lvgl/src/extra/layouts/flex/lv_flex.c"
   1:Drivers/lvgl/lvgl/src/extra/layouts/flex/lv_flex.c **** /**
   2:Drivers/lvgl/lvgl/src/extra/layouts/flex/lv_flex.c ****  * @file lv_flex.c
   3:Drivers/lvgl/lvgl/src/extra/layouts/flex/lv_flex.c ****  *
   4:Drivers/lvgl/lvgl/src/extra/layouts/flex/lv_flex.c ****  */
   5:Drivers/lvgl/lvgl/src/extra/layouts/flex/lv_flex.c **** 
   6:Drivers/lvgl/lvgl/src/extra/layouts/flex/lv_flex.c **** /*********************
   7:Drivers/lvgl/lvgl/src/extra/layouts/flex/lv_flex.c ****  *      INCLUDES
   8:Drivers/lvgl/lvgl/src/extra/layouts/flex/lv_flex.c ****  *********************/
   9:Drivers/lvgl/lvgl/src/extra/layouts/flex/lv_flex.c **** #include "../lv_layouts.h"
  10:Drivers/lvgl/lvgl/src/extra/layouts/flex/lv_flex.c **** 
  11:Drivers/lvgl/lvgl/src/extra/layouts/flex/lv_flex.c **** #if LV_USE_FLEX
  12:Drivers/lvgl/lvgl/src/extra/layouts/flex/lv_flex.c **** 
  13:Drivers/lvgl/lvgl/src/extra/layouts/flex/lv_flex.c **** /*********************
  14:Drivers/lvgl/lvgl/src/extra/layouts/flex/lv_flex.c ****  *      DEFINES
  15:Drivers/lvgl/lvgl/src/extra/layouts/flex/lv_flex.c ****  *********************/
ARM GAS  /tmp/ccbxNlti.s 			page 5


  16:Drivers/lvgl/lvgl/src/extra/layouts/flex/lv_flex.c **** 
  17:Drivers/lvgl/lvgl/src/extra/layouts/flex/lv_flex.c **** /**********************
  18:Drivers/lvgl/lvgl/src/extra/layouts/flex/lv_flex.c ****  *      TYPEDEFS
  19:Drivers/lvgl/lvgl/src/extra/layouts/flex/lv_flex.c ****  **********************/
  20:Drivers/lvgl/lvgl/src/extra/layouts/flex/lv_flex.c **** typedef struct {
  21:Drivers/lvgl/lvgl/src/extra/layouts/flex/lv_flex.c ****     lv_flex_align_t main_place;
  22:Drivers/lvgl/lvgl/src/extra/layouts/flex/lv_flex.c ****     lv_flex_align_t cross_place;
  23:Drivers/lvgl/lvgl/src/extra/layouts/flex/lv_flex.c ****     lv_flex_align_t track_place;
  24:Drivers/lvgl/lvgl/src/extra/layouts/flex/lv_flex.c ****     uint8_t row : 1;
  25:Drivers/lvgl/lvgl/src/extra/layouts/flex/lv_flex.c ****     uint8_t wrap : 1;
  26:Drivers/lvgl/lvgl/src/extra/layouts/flex/lv_flex.c ****     uint8_t rev : 1;
  27:Drivers/lvgl/lvgl/src/extra/layouts/flex/lv_flex.c **** } flex_t;
  28:Drivers/lvgl/lvgl/src/extra/layouts/flex/lv_flex.c **** 
  29:Drivers/lvgl/lvgl/src/extra/layouts/flex/lv_flex.c **** typedef struct {
  30:Drivers/lvgl/lvgl/src/extra/layouts/flex/lv_flex.c ****     lv_obj_t * item;
  31:Drivers/lvgl/lvgl/src/extra/layouts/flex/lv_flex.c ****     lv_coord_t min_size;
  32:Drivers/lvgl/lvgl/src/extra/layouts/flex/lv_flex.c ****     lv_coord_t max_size;
  33:Drivers/lvgl/lvgl/src/extra/layouts/flex/lv_flex.c ****     lv_coord_t final_size;
  34:Drivers/lvgl/lvgl/src/extra/layouts/flex/lv_flex.c ****     uint32_t grow_value;
  35:Drivers/lvgl/lvgl/src/extra/layouts/flex/lv_flex.c ****     uint32_t clamped : 1;
  36:Drivers/lvgl/lvgl/src/extra/layouts/flex/lv_flex.c **** } grow_dsc_t;
  37:Drivers/lvgl/lvgl/src/extra/layouts/flex/lv_flex.c **** 
  38:Drivers/lvgl/lvgl/src/extra/layouts/flex/lv_flex.c **** typedef struct {
  39:Drivers/lvgl/lvgl/src/extra/layouts/flex/lv_flex.c ****     lv_coord_t track_cross_size;
  40:Drivers/lvgl/lvgl/src/extra/layouts/flex/lv_flex.c ****     lv_coord_t track_main_size;         /*For all items*/
  41:Drivers/lvgl/lvgl/src/extra/layouts/flex/lv_flex.c ****     lv_coord_t track_fix_main_size;     /*For non grow items*/
  42:Drivers/lvgl/lvgl/src/extra/layouts/flex/lv_flex.c ****     uint32_t item_cnt;
  43:Drivers/lvgl/lvgl/src/extra/layouts/flex/lv_flex.c ****     grow_dsc_t * grow_dsc;
  44:Drivers/lvgl/lvgl/src/extra/layouts/flex/lv_flex.c ****     uint32_t grow_item_cnt;
  45:Drivers/lvgl/lvgl/src/extra/layouts/flex/lv_flex.c ****     uint32_t grow_dsc_calc : 1;
  46:Drivers/lvgl/lvgl/src/extra/layouts/flex/lv_flex.c **** } track_t;
  47:Drivers/lvgl/lvgl/src/extra/layouts/flex/lv_flex.c **** 
  48:Drivers/lvgl/lvgl/src/extra/layouts/flex/lv_flex.c **** 
  49:Drivers/lvgl/lvgl/src/extra/layouts/flex/lv_flex.c **** /**********************
  50:Drivers/lvgl/lvgl/src/extra/layouts/flex/lv_flex.c ****  *  GLOBAL PROTOTYPES
  51:Drivers/lvgl/lvgl/src/extra/layouts/flex/lv_flex.c ****  **********************/
  52:Drivers/lvgl/lvgl/src/extra/layouts/flex/lv_flex.c **** 
  53:Drivers/lvgl/lvgl/src/extra/layouts/flex/lv_flex.c **** /**********************
  54:Drivers/lvgl/lvgl/src/extra/layouts/flex/lv_flex.c ****  *  STATIC PROTOTYPES
  55:Drivers/lvgl/lvgl/src/extra/layouts/flex/lv_flex.c ****  **********************/
  56:Drivers/lvgl/lvgl/src/extra/layouts/flex/lv_flex.c **** static void flex_update(lv_obj_t * cont, void * user_data);
  57:Drivers/lvgl/lvgl/src/extra/layouts/flex/lv_flex.c **** static int32_t find_track_end(lv_obj_t * cont, flex_t * f, int32_t item_start_id, lv_coord_t max_ma
  58:Drivers/lvgl/lvgl/src/extra/layouts/flex/lv_flex.c ****                               lv_coord_t item_gap, track_t * t);
  59:Drivers/lvgl/lvgl/src/extra/layouts/flex/lv_flex.c **** static void children_repos(lv_obj_t * cont, flex_t * f, int32_t item_first_id, int32_t item_last_id
  60:Drivers/lvgl/lvgl/src/extra/layouts/flex/lv_flex.c ****                            lv_coord_t abs_y, lv_coord_t max_main_size, lv_coord_t item_gap, track_t
  61:Drivers/lvgl/lvgl/src/extra/layouts/flex/lv_flex.c **** static void place_content(lv_flex_align_t place, lv_coord_t max_size, lv_coord_t content_size, lv_c
  62:Drivers/lvgl/lvgl/src/extra/layouts/flex/lv_flex.c ****                           lv_coord_t * start_pos, lv_coord_t * gap);
  63:Drivers/lvgl/lvgl/src/extra/layouts/flex/lv_flex.c **** static lv_obj_t * get_next_item(lv_obj_t * cont, bool rev, int32_t * item_id);
  64:Drivers/lvgl/lvgl/src/extra/layouts/flex/lv_flex.c **** 
  65:Drivers/lvgl/lvgl/src/extra/layouts/flex/lv_flex.c **** /**********************
  66:Drivers/lvgl/lvgl/src/extra/layouts/flex/lv_flex.c ****  *  GLOBAL VARIABLES
  67:Drivers/lvgl/lvgl/src/extra/layouts/flex/lv_flex.c ****  **********************/
  68:Drivers/lvgl/lvgl/src/extra/layouts/flex/lv_flex.c **** uint16_t LV_LAYOUT_FLEX;
  69:Drivers/lvgl/lvgl/src/extra/layouts/flex/lv_flex.c **** lv_style_prop_t LV_STYLE_FLEX_FLOW;
  70:Drivers/lvgl/lvgl/src/extra/layouts/flex/lv_flex.c **** lv_style_prop_t LV_STYLE_FLEX_MAIN_PLACE;
  71:Drivers/lvgl/lvgl/src/extra/layouts/flex/lv_flex.c **** lv_style_prop_t LV_STYLE_FLEX_CROSS_PLACE;
  72:Drivers/lvgl/lvgl/src/extra/layouts/flex/lv_flex.c **** lv_style_prop_t LV_STYLE_FLEX_TRACK_PLACE;
ARM GAS  /tmp/ccbxNlti.s 			page 6


  73:Drivers/lvgl/lvgl/src/extra/layouts/flex/lv_flex.c **** lv_style_prop_t LV_STYLE_FLEX_GROW;
  74:Drivers/lvgl/lvgl/src/extra/layouts/flex/lv_flex.c **** 
  75:Drivers/lvgl/lvgl/src/extra/layouts/flex/lv_flex.c **** 
  76:Drivers/lvgl/lvgl/src/extra/layouts/flex/lv_flex.c **** /**********************
  77:Drivers/lvgl/lvgl/src/extra/layouts/flex/lv_flex.c ****  *  STATIC VARIABLES
  78:Drivers/lvgl/lvgl/src/extra/layouts/flex/lv_flex.c ****  **********************/
  79:Drivers/lvgl/lvgl/src/extra/layouts/flex/lv_flex.c **** 
  80:Drivers/lvgl/lvgl/src/extra/layouts/flex/lv_flex.c **** /**********************
  81:Drivers/lvgl/lvgl/src/extra/layouts/flex/lv_flex.c ****  *      MACROS
  82:Drivers/lvgl/lvgl/src/extra/layouts/flex/lv_flex.c ****  **********************/
  83:Drivers/lvgl/lvgl/src/extra/layouts/flex/lv_flex.c **** 
  84:Drivers/lvgl/lvgl/src/extra/layouts/flex/lv_flex.c **** /**********************
  85:Drivers/lvgl/lvgl/src/extra/layouts/flex/lv_flex.c ****  *   GLOBAL FUNCTIONS
  86:Drivers/lvgl/lvgl/src/extra/layouts/flex/lv_flex.c ****  **********************/
  87:Drivers/lvgl/lvgl/src/extra/layouts/flex/lv_flex.c **** 
  88:Drivers/lvgl/lvgl/src/extra/layouts/flex/lv_flex.c **** /*=====================
  89:Drivers/lvgl/lvgl/src/extra/layouts/flex/lv_flex.c ****  * Setter functions
  90:Drivers/lvgl/lvgl/src/extra/layouts/flex/lv_flex.c ****  *====================*/
  91:Drivers/lvgl/lvgl/src/extra/layouts/flex/lv_flex.c **** 
  92:Drivers/lvgl/lvgl/src/extra/layouts/flex/lv_flex.c **** void lv_flex_init(void)
  93:Drivers/lvgl/lvgl/src/extra/layouts/flex/lv_flex.c **** {
  94:Drivers/lvgl/lvgl/src/extra/layouts/flex/lv_flex.c ****     LV_LAYOUT_FLEX = lv_layout_register(flex_update, NULL);
  95:Drivers/lvgl/lvgl/src/extra/layouts/flex/lv_flex.c **** 
  96:Drivers/lvgl/lvgl/src/extra/layouts/flex/lv_flex.c ****     LV_STYLE_FLEX_FLOW = lv_style_register_prop(LV_STYLE_PROP_FLAG_NONE);
  97:Drivers/lvgl/lvgl/src/extra/layouts/flex/lv_flex.c ****     LV_STYLE_FLEX_MAIN_PLACE = lv_style_register_prop(LV_STYLE_PROP_LAYOUT_REFR);
  98:Drivers/lvgl/lvgl/src/extra/layouts/flex/lv_flex.c ****     LV_STYLE_FLEX_CROSS_PLACE = lv_style_register_prop(LV_STYLE_PROP_LAYOUT_REFR);
  99:Drivers/lvgl/lvgl/src/extra/layouts/flex/lv_flex.c ****     LV_STYLE_FLEX_TRACK_PLACE = lv_style_register_prop(LV_STYLE_PROP_LAYOUT_REFR);
 100:Drivers/lvgl/lvgl/src/extra/layouts/flex/lv_flex.c **** }
 101:Drivers/lvgl/lvgl/src/extra/layouts/flex/lv_flex.c **** 
 102:Drivers/lvgl/lvgl/src/extra/layouts/flex/lv_flex.c **** void lv_obj_set_flex_flow(lv_obj_t * obj, lv_flex_flow_t flow)
 103:Drivers/lvgl/lvgl/src/extra/layouts/flex/lv_flex.c **** {
 104:Drivers/lvgl/lvgl/src/extra/layouts/flex/lv_flex.c ****     lv_obj_set_style_flex_flow(obj, flow, 0);
 105:Drivers/lvgl/lvgl/src/extra/layouts/flex/lv_flex.c ****     lv_obj_set_style_layout(obj, LV_LAYOUT_FLEX, 0);
 106:Drivers/lvgl/lvgl/src/extra/layouts/flex/lv_flex.c **** }
 107:Drivers/lvgl/lvgl/src/extra/layouts/flex/lv_flex.c **** 
 108:Drivers/lvgl/lvgl/src/extra/layouts/flex/lv_flex.c **** void lv_obj_set_flex_align(lv_obj_t * obj, lv_flex_align_t main_place, lv_flex_align_t cross_place,
 109:Drivers/lvgl/lvgl/src/extra/layouts/flex/lv_flex.c ****                            lv_flex_align_t track_place)
 110:Drivers/lvgl/lvgl/src/extra/layouts/flex/lv_flex.c **** {
 111:Drivers/lvgl/lvgl/src/extra/layouts/flex/lv_flex.c ****     lv_obj_set_style_flex_main_place(obj, main_place, 0);
 112:Drivers/lvgl/lvgl/src/extra/layouts/flex/lv_flex.c ****     lv_obj_set_style_flex_cross_place(obj, cross_place, 0);
 113:Drivers/lvgl/lvgl/src/extra/layouts/flex/lv_flex.c ****     lv_obj_set_style_flex_track_place(obj, track_place, 0);
 114:Drivers/lvgl/lvgl/src/extra/layouts/flex/lv_flex.c ****     lv_obj_set_style_layout(obj, LV_LAYOUT_FLEX, 0);
 115:Drivers/lvgl/lvgl/src/extra/layouts/flex/lv_flex.c **** }
 116:Drivers/lvgl/lvgl/src/extra/layouts/flex/lv_flex.c **** 
 117:Drivers/lvgl/lvgl/src/extra/layouts/flex/lv_flex.c **** void lv_obj_set_flex_grow(lv_obj_t * obj, uint8_t grow)
 118:Drivers/lvgl/lvgl/src/extra/layouts/flex/lv_flex.c **** {
 119:Drivers/lvgl/lvgl/src/extra/layouts/flex/lv_flex.c ****     lv_obj_set_style_flex_grow(obj, grow, 0);
 120:Drivers/lvgl/lvgl/src/extra/layouts/flex/lv_flex.c ****     lv_obj_mark_layout_as_dirty(lv_obj_get_parent(obj));
 121:Drivers/lvgl/lvgl/src/extra/layouts/flex/lv_flex.c **** }
 122:Drivers/lvgl/lvgl/src/extra/layouts/flex/lv_flex.c **** 
 123:Drivers/lvgl/lvgl/src/extra/layouts/flex/lv_flex.c **** 
 124:Drivers/lvgl/lvgl/src/extra/layouts/flex/lv_flex.c **** void lv_style_set_flex_flow(lv_style_t * style, lv_flex_flow_t value)
 125:Drivers/lvgl/lvgl/src/extra/layouts/flex/lv_flex.c **** {
 126:Drivers/lvgl/lvgl/src/extra/layouts/flex/lv_flex.c ****     lv_style_value_t v = {
 127:Drivers/lvgl/lvgl/src/extra/layouts/flex/lv_flex.c ****         .num = (int32_t)value
 128:Drivers/lvgl/lvgl/src/extra/layouts/flex/lv_flex.c ****     };
 129:Drivers/lvgl/lvgl/src/extra/layouts/flex/lv_flex.c ****     lv_style_set_prop(style, LV_STYLE_FLEX_FLOW, v);
ARM GAS  /tmp/ccbxNlti.s 			page 7


 130:Drivers/lvgl/lvgl/src/extra/layouts/flex/lv_flex.c **** }
 131:Drivers/lvgl/lvgl/src/extra/layouts/flex/lv_flex.c **** 
 132:Drivers/lvgl/lvgl/src/extra/layouts/flex/lv_flex.c **** void lv_style_set_flex_main_place(lv_style_t * style, lv_flex_align_t value)
 133:Drivers/lvgl/lvgl/src/extra/layouts/flex/lv_flex.c **** {
 134:Drivers/lvgl/lvgl/src/extra/layouts/flex/lv_flex.c ****     lv_style_value_t v = {
 135:Drivers/lvgl/lvgl/src/extra/layouts/flex/lv_flex.c ****         .num = (int32_t)value
 136:Drivers/lvgl/lvgl/src/extra/layouts/flex/lv_flex.c ****     };
 137:Drivers/lvgl/lvgl/src/extra/layouts/flex/lv_flex.c ****     lv_style_set_prop(style, LV_STYLE_FLEX_MAIN_PLACE, v);
 138:Drivers/lvgl/lvgl/src/extra/layouts/flex/lv_flex.c **** }
 139:Drivers/lvgl/lvgl/src/extra/layouts/flex/lv_flex.c **** 
 140:Drivers/lvgl/lvgl/src/extra/layouts/flex/lv_flex.c **** void lv_style_set_flex_cross_place(lv_style_t * style, lv_flex_align_t value)
 141:Drivers/lvgl/lvgl/src/extra/layouts/flex/lv_flex.c **** {
 142:Drivers/lvgl/lvgl/src/extra/layouts/flex/lv_flex.c ****     lv_style_value_t v = {
 143:Drivers/lvgl/lvgl/src/extra/layouts/flex/lv_flex.c ****         .num = (int32_t)value
 144:Drivers/lvgl/lvgl/src/extra/layouts/flex/lv_flex.c ****     };
 145:Drivers/lvgl/lvgl/src/extra/layouts/flex/lv_flex.c ****     lv_style_set_prop(style, LV_STYLE_FLEX_CROSS_PLACE, v);
 146:Drivers/lvgl/lvgl/src/extra/layouts/flex/lv_flex.c **** }
 147:Drivers/lvgl/lvgl/src/extra/layouts/flex/lv_flex.c **** 
 148:Drivers/lvgl/lvgl/src/extra/layouts/flex/lv_flex.c **** void lv_style_set_flex_track_place(lv_style_t * style, lv_flex_align_t value)
 149:Drivers/lvgl/lvgl/src/extra/layouts/flex/lv_flex.c **** {
 150:Drivers/lvgl/lvgl/src/extra/layouts/flex/lv_flex.c ****     lv_style_value_t v = {
 151:Drivers/lvgl/lvgl/src/extra/layouts/flex/lv_flex.c ****         .num = (int32_t)value
 152:Drivers/lvgl/lvgl/src/extra/layouts/flex/lv_flex.c ****     };
 153:Drivers/lvgl/lvgl/src/extra/layouts/flex/lv_flex.c ****     lv_style_set_prop(style, LV_STYLE_FLEX_TRACK_PLACE, v);
 154:Drivers/lvgl/lvgl/src/extra/layouts/flex/lv_flex.c **** }
 155:Drivers/lvgl/lvgl/src/extra/layouts/flex/lv_flex.c **** 
 156:Drivers/lvgl/lvgl/src/extra/layouts/flex/lv_flex.c **** void lv_style_set_flex_grow(lv_style_t * style, uint8_t value)
 157:Drivers/lvgl/lvgl/src/extra/layouts/flex/lv_flex.c **** {
 158:Drivers/lvgl/lvgl/src/extra/layouts/flex/lv_flex.c ****     lv_style_value_t v = {
 159:Drivers/lvgl/lvgl/src/extra/layouts/flex/lv_flex.c ****         .num = (int32_t)value
 160:Drivers/lvgl/lvgl/src/extra/layouts/flex/lv_flex.c ****     };
 161:Drivers/lvgl/lvgl/src/extra/layouts/flex/lv_flex.c ****     lv_style_set_prop(style, LV_STYLE_FLEX_GROW, v);
 162:Drivers/lvgl/lvgl/src/extra/layouts/flex/lv_flex.c **** }
 163:Drivers/lvgl/lvgl/src/extra/layouts/flex/lv_flex.c **** 
 164:Drivers/lvgl/lvgl/src/extra/layouts/flex/lv_flex.c **** 
 165:Drivers/lvgl/lvgl/src/extra/layouts/flex/lv_flex.c **** void lv_obj_set_style_flex_flow(lv_obj_t * obj, lv_flex_flow_t value, lv_style_selector_t selector)
 166:Drivers/lvgl/lvgl/src/extra/layouts/flex/lv_flex.c **** {
 167:Drivers/lvgl/lvgl/src/extra/layouts/flex/lv_flex.c ****     lv_style_value_t v = {
 168:Drivers/lvgl/lvgl/src/extra/layouts/flex/lv_flex.c ****         .num = (int32_t) value
 169:Drivers/lvgl/lvgl/src/extra/layouts/flex/lv_flex.c ****     };
 170:Drivers/lvgl/lvgl/src/extra/layouts/flex/lv_flex.c ****     lv_obj_set_local_style_prop(obj, LV_STYLE_FLEX_FLOW, v, selector);
 171:Drivers/lvgl/lvgl/src/extra/layouts/flex/lv_flex.c **** }
 172:Drivers/lvgl/lvgl/src/extra/layouts/flex/lv_flex.c **** 
 173:Drivers/lvgl/lvgl/src/extra/layouts/flex/lv_flex.c **** void lv_obj_set_style_flex_main_place(lv_obj_t * obj, lv_flex_align_t value, lv_style_selector_t se
 174:Drivers/lvgl/lvgl/src/extra/layouts/flex/lv_flex.c **** {
 175:Drivers/lvgl/lvgl/src/extra/layouts/flex/lv_flex.c ****     lv_style_value_t v = {
 176:Drivers/lvgl/lvgl/src/extra/layouts/flex/lv_flex.c ****         .num = (int32_t) value
 177:Drivers/lvgl/lvgl/src/extra/layouts/flex/lv_flex.c ****     };
 178:Drivers/lvgl/lvgl/src/extra/layouts/flex/lv_flex.c ****     lv_obj_set_local_style_prop(obj, LV_STYLE_FLEX_MAIN_PLACE, v, selector);
 179:Drivers/lvgl/lvgl/src/extra/layouts/flex/lv_flex.c **** }
 180:Drivers/lvgl/lvgl/src/extra/layouts/flex/lv_flex.c **** 
 181:Drivers/lvgl/lvgl/src/extra/layouts/flex/lv_flex.c **** void lv_obj_set_style_flex_cross_place(lv_obj_t * obj, lv_flex_align_t value, lv_style_selector_t s
 182:Drivers/lvgl/lvgl/src/extra/layouts/flex/lv_flex.c **** {
 183:Drivers/lvgl/lvgl/src/extra/layouts/flex/lv_flex.c ****     lv_style_value_t v = {
 184:Drivers/lvgl/lvgl/src/extra/layouts/flex/lv_flex.c ****         .num = (int32_t) value
 185:Drivers/lvgl/lvgl/src/extra/layouts/flex/lv_flex.c ****     };
 186:Drivers/lvgl/lvgl/src/extra/layouts/flex/lv_flex.c ****     lv_obj_set_local_style_prop(obj, LV_STYLE_FLEX_CROSS_PLACE, v, selector);
ARM GAS  /tmp/ccbxNlti.s 			page 8


 187:Drivers/lvgl/lvgl/src/extra/layouts/flex/lv_flex.c **** }
 188:Drivers/lvgl/lvgl/src/extra/layouts/flex/lv_flex.c **** 
 189:Drivers/lvgl/lvgl/src/extra/layouts/flex/lv_flex.c **** void lv_obj_set_style_flex_track_place(lv_obj_t * obj, lv_flex_align_t value, lv_style_selector_t s
 190:Drivers/lvgl/lvgl/src/extra/layouts/flex/lv_flex.c **** {
 191:Drivers/lvgl/lvgl/src/extra/layouts/flex/lv_flex.c ****     lv_style_value_t v = {
 192:Drivers/lvgl/lvgl/src/extra/layouts/flex/lv_flex.c ****         .num = (int32_t) value
 193:Drivers/lvgl/lvgl/src/extra/layouts/flex/lv_flex.c ****     };
 194:Drivers/lvgl/lvgl/src/extra/layouts/flex/lv_flex.c ****     lv_obj_set_local_style_prop(obj, LV_STYLE_FLEX_TRACK_PLACE, v, selector);
 195:Drivers/lvgl/lvgl/src/extra/layouts/flex/lv_flex.c **** }
 196:Drivers/lvgl/lvgl/src/extra/layouts/flex/lv_flex.c **** 
 197:Drivers/lvgl/lvgl/src/extra/layouts/flex/lv_flex.c **** void lv_obj_set_style_flex_grow(lv_obj_t * obj, uint8_t value, lv_style_selector_t selector)
 198:Drivers/lvgl/lvgl/src/extra/layouts/flex/lv_flex.c **** {
 199:Drivers/lvgl/lvgl/src/extra/layouts/flex/lv_flex.c ****     lv_style_value_t v = {
 200:Drivers/lvgl/lvgl/src/extra/layouts/flex/lv_flex.c ****         .num = (int32_t) value
 201:Drivers/lvgl/lvgl/src/extra/layouts/flex/lv_flex.c ****     };
 202:Drivers/lvgl/lvgl/src/extra/layouts/flex/lv_flex.c ****     lv_obj_set_local_style_prop(obj, LV_STYLE_FLEX_GROW, v, selector);
 203:Drivers/lvgl/lvgl/src/extra/layouts/flex/lv_flex.c **** }
 204:Drivers/lvgl/lvgl/src/extra/layouts/flex/lv_flex.c **** 
 205:Drivers/lvgl/lvgl/src/extra/layouts/flex/lv_flex.c **** /**********************
 206:Drivers/lvgl/lvgl/src/extra/layouts/flex/lv_flex.c ****  *   STATIC FUNCTIONS
 207:Drivers/lvgl/lvgl/src/extra/layouts/flex/lv_flex.c ****  **********************/
 208:Drivers/lvgl/lvgl/src/extra/layouts/flex/lv_flex.c **** 
 209:Drivers/lvgl/lvgl/src/extra/layouts/flex/lv_flex.c **** static void flex_update(lv_obj_t * cont, void * user_data)
 210:Drivers/lvgl/lvgl/src/extra/layouts/flex/lv_flex.c **** {
 211:Drivers/lvgl/lvgl/src/extra/layouts/flex/lv_flex.c ****     LV_LOG_INFO("update %p container", (void *)cont);
 212:Drivers/lvgl/lvgl/src/extra/layouts/flex/lv_flex.c ****     LV_UNUSED(user_data);
 213:Drivers/lvgl/lvgl/src/extra/layouts/flex/lv_flex.c **** 
 214:Drivers/lvgl/lvgl/src/extra/layouts/flex/lv_flex.c ****     flex_t f;
 215:Drivers/lvgl/lvgl/src/extra/layouts/flex/lv_flex.c ****     lv_flex_flow_t flow = lv_obj_get_style_flex_flow(cont, LV_PART_MAIN);
 216:Drivers/lvgl/lvgl/src/extra/layouts/flex/lv_flex.c ****     f.row = flow & _LV_FLEX_COLUMN ? 0 : 1;
 217:Drivers/lvgl/lvgl/src/extra/layouts/flex/lv_flex.c ****     f.wrap = flow & _LV_FLEX_WRAP ? 1 : 0;
 218:Drivers/lvgl/lvgl/src/extra/layouts/flex/lv_flex.c ****     f.rev = flow & _LV_FLEX_REVERSE ? 1 : 0;
 219:Drivers/lvgl/lvgl/src/extra/layouts/flex/lv_flex.c ****     f.main_place = lv_obj_get_style_flex_main_place(cont, LV_PART_MAIN);
 220:Drivers/lvgl/lvgl/src/extra/layouts/flex/lv_flex.c ****     f.cross_place = lv_obj_get_style_flex_cross_place(cont, LV_PART_MAIN);
 221:Drivers/lvgl/lvgl/src/extra/layouts/flex/lv_flex.c ****     f.track_place = lv_obj_get_style_flex_track_place(cont, LV_PART_MAIN);
 222:Drivers/lvgl/lvgl/src/extra/layouts/flex/lv_flex.c **** 
 223:Drivers/lvgl/lvgl/src/extra/layouts/flex/lv_flex.c ****     bool rtl = lv_obj_get_style_base_dir(cont, LV_PART_MAIN) == LV_BASE_DIR_RTL ? true : false;
 224:Drivers/lvgl/lvgl/src/extra/layouts/flex/lv_flex.c ****     lv_coord_t track_gap = !f.row ? lv_obj_get_style_pad_column(cont, LV_PART_MAIN) : lv_obj_get_st
 225:Drivers/lvgl/lvgl/src/extra/layouts/flex/lv_flex.c ****                                                                                                    
 226:Drivers/lvgl/lvgl/src/extra/layouts/flex/lv_flex.c ****     lv_coord_t item_gap = f.row ? lv_obj_get_style_pad_column(cont, LV_PART_MAIN) : lv_obj_get_styl
 227:Drivers/lvgl/lvgl/src/extra/layouts/flex/lv_flex.c ****                                                                                                    
 228:Drivers/lvgl/lvgl/src/extra/layouts/flex/lv_flex.c ****     lv_coord_t max_main_size = (f.row ? lv_obj_get_content_width(cont) : lv_obj_get_content_height(
 229:Drivers/lvgl/lvgl/src/extra/layouts/flex/lv_flex.c ****     lv_coord_t border_width = lv_obj_get_style_border_width(cont, LV_PART_MAIN);
 230:Drivers/lvgl/lvgl/src/extra/layouts/flex/lv_flex.c ****     lv_coord_t abs_y = cont->coords.y1 + lv_obj_get_style_pad_top(cont,
 231:Drivers/lvgl/lvgl/src/extra/layouts/flex/lv_flex.c ****                                                                   LV_PART_MAIN) + border_width - lv
 232:Drivers/lvgl/lvgl/src/extra/layouts/flex/lv_flex.c ****     lv_coord_t abs_x = cont->coords.x1 + lv_obj_get_style_pad_left(cont,
 233:Drivers/lvgl/lvgl/src/extra/layouts/flex/lv_flex.c ****                                                                    LV_PART_MAIN) + border_width - l
 234:Drivers/lvgl/lvgl/src/extra/layouts/flex/lv_flex.c **** 
 235:Drivers/lvgl/lvgl/src/extra/layouts/flex/lv_flex.c ****     lv_flex_align_t track_cross_place = f.track_place;
 236:Drivers/lvgl/lvgl/src/extra/layouts/flex/lv_flex.c ****     lv_coord_t * cross_pos = (f.row ? &abs_y : &abs_x);
 237:Drivers/lvgl/lvgl/src/extra/layouts/flex/lv_flex.c **** 
 238:Drivers/lvgl/lvgl/src/extra/layouts/flex/lv_flex.c ****     lv_coord_t w_set = lv_obj_get_style_width(cont, LV_PART_MAIN);
 239:Drivers/lvgl/lvgl/src/extra/layouts/flex/lv_flex.c ****     lv_coord_t h_set = lv_obj_get_style_height(cont, LV_PART_MAIN);
 240:Drivers/lvgl/lvgl/src/extra/layouts/flex/lv_flex.c **** 
 241:Drivers/lvgl/lvgl/src/extra/layouts/flex/lv_flex.c ****     /*Content sized objects should squeezed the gap between the children, therefore any alignment w
 242:Drivers/lvgl/lvgl/src/extra/layouts/flex/lv_flex.c ****     if((f.row && h_set == LV_SIZE_CONTENT && cont->h_layout == 0) ||
 243:Drivers/lvgl/lvgl/src/extra/layouts/flex/lv_flex.c ****        (!f.row && w_set == LV_SIZE_CONTENT && cont->w_layout == 0)) {
ARM GAS  /tmp/ccbxNlti.s 			page 9


 244:Drivers/lvgl/lvgl/src/extra/layouts/flex/lv_flex.c ****         track_cross_place = LV_FLEX_ALIGN_START;
 245:Drivers/lvgl/lvgl/src/extra/layouts/flex/lv_flex.c ****     }
 246:Drivers/lvgl/lvgl/src/extra/layouts/flex/lv_flex.c **** 
 247:Drivers/lvgl/lvgl/src/extra/layouts/flex/lv_flex.c ****     if(rtl && !f.row) {
 248:Drivers/lvgl/lvgl/src/extra/layouts/flex/lv_flex.c ****         if(track_cross_place == LV_FLEX_ALIGN_START) track_cross_place = LV_FLEX_ALIGN_END;
 249:Drivers/lvgl/lvgl/src/extra/layouts/flex/lv_flex.c ****         else if(track_cross_place == LV_FLEX_ALIGN_END) track_cross_place = LV_FLEX_ALIGN_START;
 250:Drivers/lvgl/lvgl/src/extra/layouts/flex/lv_flex.c ****     }
 251:Drivers/lvgl/lvgl/src/extra/layouts/flex/lv_flex.c **** 
 252:Drivers/lvgl/lvgl/src/extra/layouts/flex/lv_flex.c ****     lv_coord_t total_track_cross_size = 0;
 253:Drivers/lvgl/lvgl/src/extra/layouts/flex/lv_flex.c ****     lv_coord_t gap = 0;
 254:Drivers/lvgl/lvgl/src/extra/layouts/flex/lv_flex.c ****     uint32_t track_cnt = 0;
 255:Drivers/lvgl/lvgl/src/extra/layouts/flex/lv_flex.c ****     int32_t track_first_item;
 256:Drivers/lvgl/lvgl/src/extra/layouts/flex/lv_flex.c ****     int32_t next_track_first_item;
 257:Drivers/lvgl/lvgl/src/extra/layouts/flex/lv_flex.c **** 
 258:Drivers/lvgl/lvgl/src/extra/layouts/flex/lv_flex.c ****     if(track_cross_place != LV_FLEX_ALIGN_START) {
 259:Drivers/lvgl/lvgl/src/extra/layouts/flex/lv_flex.c ****         track_first_item = f.rev ? cont->spec_attr->child_cnt - 1 : 0;
 260:Drivers/lvgl/lvgl/src/extra/layouts/flex/lv_flex.c ****         track_t t;
 261:Drivers/lvgl/lvgl/src/extra/layouts/flex/lv_flex.c ****         while(track_first_item < (int32_t)cont->spec_attr->child_cnt && track_first_item >= 0) {
 262:Drivers/lvgl/lvgl/src/extra/layouts/flex/lv_flex.c ****             /*Search the first item of the next row*/
 263:Drivers/lvgl/lvgl/src/extra/layouts/flex/lv_flex.c ****             t.grow_dsc_calc = 0;
 264:Drivers/lvgl/lvgl/src/extra/layouts/flex/lv_flex.c ****             next_track_first_item = find_track_end(cont, &f, track_first_item, max_main_size, item_
 265:Drivers/lvgl/lvgl/src/extra/layouts/flex/lv_flex.c ****             total_track_cross_size += t.track_cross_size + track_gap;
 266:Drivers/lvgl/lvgl/src/extra/layouts/flex/lv_flex.c ****             track_cnt++;
 267:Drivers/lvgl/lvgl/src/extra/layouts/flex/lv_flex.c ****             track_first_item = next_track_first_item;
 268:Drivers/lvgl/lvgl/src/extra/layouts/flex/lv_flex.c ****         }
 269:Drivers/lvgl/lvgl/src/extra/layouts/flex/lv_flex.c **** 
 270:Drivers/lvgl/lvgl/src/extra/layouts/flex/lv_flex.c ****         if(track_cnt) total_track_cross_size -= track_gap;   /*No gap after the last track*/
 271:Drivers/lvgl/lvgl/src/extra/layouts/flex/lv_flex.c **** 
 272:Drivers/lvgl/lvgl/src/extra/layouts/flex/lv_flex.c ****         /*Place the tracks to get the start position*/
 273:Drivers/lvgl/lvgl/src/extra/layouts/flex/lv_flex.c ****         lv_coord_t max_cross_size = (f.row ? lv_obj_get_content_height(cont) : lv_obj_get_content_w
 274:Drivers/lvgl/lvgl/src/extra/layouts/flex/lv_flex.c ****         place_content(track_cross_place, max_cross_size, total_track_cross_size, track_cnt, cross_p
 275:Drivers/lvgl/lvgl/src/extra/layouts/flex/lv_flex.c ****     }
 276:Drivers/lvgl/lvgl/src/extra/layouts/flex/lv_flex.c **** 
 277:Drivers/lvgl/lvgl/src/extra/layouts/flex/lv_flex.c ****     track_first_item = f.rev ? cont->spec_attr->child_cnt - 1 : 0;
 278:Drivers/lvgl/lvgl/src/extra/layouts/flex/lv_flex.c **** 
 279:Drivers/lvgl/lvgl/src/extra/layouts/flex/lv_flex.c ****     if(rtl && !f.row) {
 280:Drivers/lvgl/lvgl/src/extra/layouts/flex/lv_flex.c ****         *cross_pos += total_track_cross_size;
 281:Drivers/lvgl/lvgl/src/extra/layouts/flex/lv_flex.c ****     }
 282:Drivers/lvgl/lvgl/src/extra/layouts/flex/lv_flex.c **** 
 283:Drivers/lvgl/lvgl/src/extra/layouts/flex/lv_flex.c ****     while(track_first_item < (int32_t)cont->spec_attr->child_cnt && track_first_item >= 0) {
 284:Drivers/lvgl/lvgl/src/extra/layouts/flex/lv_flex.c ****         track_t t;
 285:Drivers/lvgl/lvgl/src/extra/layouts/flex/lv_flex.c ****         t.grow_dsc_calc = 1;
 286:Drivers/lvgl/lvgl/src/extra/layouts/flex/lv_flex.c ****         /*Search the first item of the next row*/
 287:Drivers/lvgl/lvgl/src/extra/layouts/flex/lv_flex.c ****         next_track_first_item = find_track_end(cont, &f, track_first_item, max_main_size, item_gap,
 288:Drivers/lvgl/lvgl/src/extra/layouts/flex/lv_flex.c **** 
 289:Drivers/lvgl/lvgl/src/extra/layouts/flex/lv_flex.c ****         if(rtl && !f.row) {
 290:Drivers/lvgl/lvgl/src/extra/layouts/flex/lv_flex.c ****             *cross_pos -= t.track_cross_size;
 291:Drivers/lvgl/lvgl/src/extra/layouts/flex/lv_flex.c ****         }
 292:Drivers/lvgl/lvgl/src/extra/layouts/flex/lv_flex.c ****         children_repos(cont, &f, track_first_item, next_track_first_item, abs_x, abs_y, max_main_si
 293:Drivers/lvgl/lvgl/src/extra/layouts/flex/lv_flex.c ****         track_first_item = next_track_first_item;
 294:Drivers/lvgl/lvgl/src/extra/layouts/flex/lv_flex.c ****         lv_mem_buf_release(t.grow_dsc);
 295:Drivers/lvgl/lvgl/src/extra/layouts/flex/lv_flex.c ****         t.grow_dsc = NULL;
 296:Drivers/lvgl/lvgl/src/extra/layouts/flex/lv_flex.c ****         if(rtl && !f.row) {
 297:Drivers/lvgl/lvgl/src/extra/layouts/flex/lv_flex.c ****             *cross_pos -= gap + track_gap;
 298:Drivers/lvgl/lvgl/src/extra/layouts/flex/lv_flex.c ****         }
 299:Drivers/lvgl/lvgl/src/extra/layouts/flex/lv_flex.c ****         else {
 300:Drivers/lvgl/lvgl/src/extra/layouts/flex/lv_flex.c ****             *cross_pos += t.track_cross_size + gap + track_gap;
ARM GAS  /tmp/ccbxNlti.s 			page 10


 301:Drivers/lvgl/lvgl/src/extra/layouts/flex/lv_flex.c ****         }
 302:Drivers/lvgl/lvgl/src/extra/layouts/flex/lv_flex.c ****     }
 303:Drivers/lvgl/lvgl/src/extra/layouts/flex/lv_flex.c ****     LV_ASSERT_MEM_INTEGRITY();
 304:Drivers/lvgl/lvgl/src/extra/layouts/flex/lv_flex.c **** 
 305:Drivers/lvgl/lvgl/src/extra/layouts/flex/lv_flex.c ****     if(w_set == LV_SIZE_CONTENT || h_set == LV_SIZE_CONTENT) {
 306:Drivers/lvgl/lvgl/src/extra/layouts/flex/lv_flex.c ****         lv_obj_refr_size(cont);
 307:Drivers/lvgl/lvgl/src/extra/layouts/flex/lv_flex.c ****     }
 308:Drivers/lvgl/lvgl/src/extra/layouts/flex/lv_flex.c **** 
 309:Drivers/lvgl/lvgl/src/extra/layouts/flex/lv_flex.c ****     lv_event_send(cont, LV_EVENT_LAYOUT_CHANGED, NULL);
 310:Drivers/lvgl/lvgl/src/extra/layouts/flex/lv_flex.c **** 
 311:Drivers/lvgl/lvgl/src/extra/layouts/flex/lv_flex.c ****     LV_TRACE_LAYOUT("finished");
 312:Drivers/lvgl/lvgl/src/extra/layouts/flex/lv_flex.c **** }
 313:Drivers/lvgl/lvgl/src/extra/layouts/flex/lv_flex.c **** 
 314:Drivers/lvgl/lvgl/src/extra/layouts/flex/lv_flex.c **** /**
 315:Drivers/lvgl/lvgl/src/extra/layouts/flex/lv_flex.c ****  * Find the last item of a track
 316:Drivers/lvgl/lvgl/src/extra/layouts/flex/lv_flex.c ****  */
 317:Drivers/lvgl/lvgl/src/extra/layouts/flex/lv_flex.c **** static int32_t find_track_end(lv_obj_t * cont, flex_t * f, int32_t item_start_id, lv_coord_t max_ma
 318:Drivers/lvgl/lvgl/src/extra/layouts/flex/lv_flex.c ****                               lv_coord_t item_gap, track_t * t)
 319:Drivers/lvgl/lvgl/src/extra/layouts/flex/lv_flex.c **** {
 320:Drivers/lvgl/lvgl/src/extra/layouts/flex/lv_flex.c ****     lv_coord_t w_set = lv_obj_get_style_width(cont, LV_PART_MAIN);
 321:Drivers/lvgl/lvgl/src/extra/layouts/flex/lv_flex.c ****     lv_coord_t h_set = lv_obj_get_style_height(cont, LV_PART_MAIN);
 322:Drivers/lvgl/lvgl/src/extra/layouts/flex/lv_flex.c **** 
 323:Drivers/lvgl/lvgl/src/extra/layouts/flex/lv_flex.c ****     /*Can't wrap if the size if auto (i.e. the size depends on the children)*/
 324:Drivers/lvgl/lvgl/src/extra/layouts/flex/lv_flex.c ****     if(f->wrap && ((f->row && w_set == LV_SIZE_CONTENT) || (!f->row && h_set == LV_SIZE_CONTENT))) 
 325:Drivers/lvgl/lvgl/src/extra/layouts/flex/lv_flex.c ****         f->wrap = false;
 326:Drivers/lvgl/lvgl/src/extra/layouts/flex/lv_flex.c ****     }
 327:Drivers/lvgl/lvgl/src/extra/layouts/flex/lv_flex.c ****     lv_coord_t(*get_main_size)(const lv_obj_t *) = (f->row ? lv_obj_get_width : lv_obj_get_height);
 328:Drivers/lvgl/lvgl/src/extra/layouts/flex/lv_flex.c ****     lv_coord_t(*get_cross_size)(const lv_obj_t *) = (!f->row ? lv_obj_get_width : lv_obj_get_height
 329:Drivers/lvgl/lvgl/src/extra/layouts/flex/lv_flex.c **** 
 330:Drivers/lvgl/lvgl/src/extra/layouts/flex/lv_flex.c ****     t->track_main_size = 0;
 331:Drivers/lvgl/lvgl/src/extra/layouts/flex/lv_flex.c ****     t->track_fix_main_size = 0;
 332:Drivers/lvgl/lvgl/src/extra/layouts/flex/lv_flex.c ****     t->grow_item_cnt = 0;
 333:Drivers/lvgl/lvgl/src/extra/layouts/flex/lv_flex.c ****     t->track_cross_size = 0;
 334:Drivers/lvgl/lvgl/src/extra/layouts/flex/lv_flex.c ****     t->item_cnt = 0;
 335:Drivers/lvgl/lvgl/src/extra/layouts/flex/lv_flex.c ****     t->grow_dsc = NULL;
 336:Drivers/lvgl/lvgl/src/extra/layouts/flex/lv_flex.c **** 
 337:Drivers/lvgl/lvgl/src/extra/layouts/flex/lv_flex.c ****     int32_t item_id = item_start_id;
 338:Drivers/lvgl/lvgl/src/extra/layouts/flex/lv_flex.c **** 
 339:Drivers/lvgl/lvgl/src/extra/layouts/flex/lv_flex.c ****     lv_obj_t * item = lv_obj_get_child(cont, item_id);
 340:Drivers/lvgl/lvgl/src/extra/layouts/flex/lv_flex.c ****     while(item) {
 341:Drivers/lvgl/lvgl/src/extra/layouts/flex/lv_flex.c ****         if(item_id != item_start_id && lv_obj_has_flag(item, LV_OBJ_FLAG_FLEX_IN_NEW_TRACK)) break;
 342:Drivers/lvgl/lvgl/src/extra/layouts/flex/lv_flex.c **** 
 343:Drivers/lvgl/lvgl/src/extra/layouts/flex/lv_flex.c ****         if(!lv_obj_has_flag_any(item, LV_OBJ_FLAG_IGNORE_LAYOUT | LV_OBJ_FLAG_HIDDEN | LV_OBJ_FLAG_
 344:Drivers/lvgl/lvgl/src/extra/layouts/flex/lv_flex.c ****             uint8_t grow_value = lv_obj_get_style_flex_grow(item, LV_PART_MAIN);
 345:Drivers/lvgl/lvgl/src/extra/layouts/flex/lv_flex.c ****             if(grow_value) {
 346:Drivers/lvgl/lvgl/src/extra/layouts/flex/lv_flex.c ****                 t->grow_item_cnt++;
 347:Drivers/lvgl/lvgl/src/extra/layouts/flex/lv_flex.c ****                 t->track_fix_main_size += item_gap;
 348:Drivers/lvgl/lvgl/src/extra/layouts/flex/lv_flex.c ****                 if(t->grow_dsc_calc) {
 349:Drivers/lvgl/lvgl/src/extra/layouts/flex/lv_flex.c ****                     grow_dsc_t * new_dsc = lv_mem_buf_get(sizeof(grow_dsc_t) * (t->grow_item_cnt));
 350:Drivers/lvgl/lvgl/src/extra/layouts/flex/lv_flex.c ****                     LV_ASSERT_MALLOC(new_dsc);
 351:Drivers/lvgl/lvgl/src/extra/layouts/flex/lv_flex.c ****                     if(new_dsc == NULL) return item_id;
 352:Drivers/lvgl/lvgl/src/extra/layouts/flex/lv_flex.c **** 
 353:Drivers/lvgl/lvgl/src/extra/layouts/flex/lv_flex.c ****                     if(t->grow_dsc) {
 354:Drivers/lvgl/lvgl/src/extra/layouts/flex/lv_flex.c ****                         lv_memcpy(new_dsc, t->grow_dsc, sizeof(grow_dsc_t) * (t->grow_item_cnt - 1)
 355:Drivers/lvgl/lvgl/src/extra/layouts/flex/lv_flex.c ****                         lv_mem_buf_release(t->grow_dsc);
 356:Drivers/lvgl/lvgl/src/extra/layouts/flex/lv_flex.c ****                     }
 357:Drivers/lvgl/lvgl/src/extra/layouts/flex/lv_flex.c ****                     new_dsc[t->grow_item_cnt - 1].item = item;
ARM GAS  /tmp/ccbxNlti.s 			page 11


 358:Drivers/lvgl/lvgl/src/extra/layouts/flex/lv_flex.c ****                     new_dsc[t->grow_item_cnt - 1].min_size = f->row ? lv_obj_get_style_min_width(it
 359:Drivers/lvgl/lvgl/src/extra/layouts/flex/lv_flex.c ****                                                                                                  LV
 360:Drivers/lvgl/lvgl/src/extra/layouts/flex/lv_flex.c ****                     new_dsc[t->grow_item_cnt - 1].max_size = f->row ? lv_obj_get_style_max_width(it
 361:Drivers/lvgl/lvgl/src/extra/layouts/flex/lv_flex.c ****                                                                                                  LV
 362:Drivers/lvgl/lvgl/src/extra/layouts/flex/lv_flex.c ****                     new_dsc[t->grow_item_cnt - 1].grow_value = grow_value;
 363:Drivers/lvgl/lvgl/src/extra/layouts/flex/lv_flex.c ****                     new_dsc[t->grow_item_cnt - 1].clamped = 0;
 364:Drivers/lvgl/lvgl/src/extra/layouts/flex/lv_flex.c ****                     t->grow_dsc = new_dsc;
 365:Drivers/lvgl/lvgl/src/extra/layouts/flex/lv_flex.c ****                 }
 366:Drivers/lvgl/lvgl/src/extra/layouts/flex/lv_flex.c ****             }
 367:Drivers/lvgl/lvgl/src/extra/layouts/flex/lv_flex.c ****             else {
 368:Drivers/lvgl/lvgl/src/extra/layouts/flex/lv_flex.c ****                 lv_coord_t item_size = get_main_size(item);
 369:Drivers/lvgl/lvgl/src/extra/layouts/flex/lv_flex.c ****                 if(f->wrap && t->track_fix_main_size + item_size > max_main_size) break;
 370:Drivers/lvgl/lvgl/src/extra/layouts/flex/lv_flex.c ****                 t->track_fix_main_size += item_size + item_gap;
 371:Drivers/lvgl/lvgl/src/extra/layouts/flex/lv_flex.c ****             }
 372:Drivers/lvgl/lvgl/src/extra/layouts/flex/lv_flex.c **** 
 373:Drivers/lvgl/lvgl/src/extra/layouts/flex/lv_flex.c **** 
 374:Drivers/lvgl/lvgl/src/extra/layouts/flex/lv_flex.c ****             t->track_cross_size = LV_MAX(get_cross_size(item), t->track_cross_size);
 375:Drivers/lvgl/lvgl/src/extra/layouts/flex/lv_flex.c ****             t->item_cnt++;
 376:Drivers/lvgl/lvgl/src/extra/layouts/flex/lv_flex.c ****         }
 377:Drivers/lvgl/lvgl/src/extra/layouts/flex/lv_flex.c **** 
 378:Drivers/lvgl/lvgl/src/extra/layouts/flex/lv_flex.c ****         item_id += f->rev ? -1 : +1;
 379:Drivers/lvgl/lvgl/src/extra/layouts/flex/lv_flex.c ****         if(item_id < 0) break;
 380:Drivers/lvgl/lvgl/src/extra/layouts/flex/lv_flex.c ****         item = lv_obj_get_child(cont, item_id);
 381:Drivers/lvgl/lvgl/src/extra/layouts/flex/lv_flex.c ****     }
 382:Drivers/lvgl/lvgl/src/extra/layouts/flex/lv_flex.c **** 
 383:Drivers/lvgl/lvgl/src/extra/layouts/flex/lv_flex.c ****     if(t->track_fix_main_size > 0) t->track_fix_main_size -= item_gap; /*There is no gap after the 
 384:Drivers/lvgl/lvgl/src/extra/layouts/flex/lv_flex.c **** 
 385:Drivers/lvgl/lvgl/src/extra/layouts/flex/lv_flex.c ****     /*If there is at least one "grow item" the track takes the full space*/
 386:Drivers/lvgl/lvgl/src/extra/layouts/flex/lv_flex.c ****     t->track_main_size = t->grow_item_cnt ? max_main_size : t->track_fix_main_size;
 387:Drivers/lvgl/lvgl/src/extra/layouts/flex/lv_flex.c **** 
 388:Drivers/lvgl/lvgl/src/extra/layouts/flex/lv_flex.c ****     /*Have at least one item in a row*/
 389:Drivers/lvgl/lvgl/src/extra/layouts/flex/lv_flex.c ****     if(item && item_id == item_start_id) {
 390:Drivers/lvgl/lvgl/src/extra/layouts/flex/lv_flex.c ****         item = cont->spec_attr->children[item_id];
 391:Drivers/lvgl/lvgl/src/extra/layouts/flex/lv_flex.c ****         get_next_item(cont, f->rev, &item_id);
 392:Drivers/lvgl/lvgl/src/extra/layouts/flex/lv_flex.c ****         if(item) {
 393:Drivers/lvgl/lvgl/src/extra/layouts/flex/lv_flex.c ****             t->track_cross_size = get_cross_size(item);
 394:Drivers/lvgl/lvgl/src/extra/layouts/flex/lv_flex.c ****             t->track_main_size = get_main_size(item);
 395:Drivers/lvgl/lvgl/src/extra/layouts/flex/lv_flex.c ****             t->item_cnt = 1;
 396:Drivers/lvgl/lvgl/src/extra/layouts/flex/lv_flex.c ****         }
 397:Drivers/lvgl/lvgl/src/extra/layouts/flex/lv_flex.c ****     }
 398:Drivers/lvgl/lvgl/src/extra/layouts/flex/lv_flex.c **** 
 399:Drivers/lvgl/lvgl/src/extra/layouts/flex/lv_flex.c ****     return item_id;
 400:Drivers/lvgl/lvgl/src/extra/layouts/flex/lv_flex.c **** }
 401:Drivers/lvgl/lvgl/src/extra/layouts/flex/lv_flex.c **** 
 402:Drivers/lvgl/lvgl/src/extra/layouts/flex/lv_flex.c **** /**
 403:Drivers/lvgl/lvgl/src/extra/layouts/flex/lv_flex.c ****  * Position the children in the same track
 404:Drivers/lvgl/lvgl/src/extra/layouts/flex/lv_flex.c ****  */
 405:Drivers/lvgl/lvgl/src/extra/layouts/flex/lv_flex.c **** static void children_repos(lv_obj_t * cont, flex_t * f, int32_t item_first_id, int32_t item_last_id
 406:Drivers/lvgl/lvgl/src/extra/layouts/flex/lv_flex.c ****                            lv_coord_t abs_y, lv_coord_t max_main_size, lv_coord_t item_gap, track_t
 407:Drivers/lvgl/lvgl/src/extra/layouts/flex/lv_flex.c **** {
 408:Drivers/lvgl/lvgl/src/extra/layouts/flex/lv_flex.c ****     void (*area_set_main_size)(lv_area_t *, lv_coord_t) = (f->row ? lv_area_set_width : lv_area_set
 409:Drivers/lvgl/lvgl/src/extra/layouts/flex/lv_flex.c ****     lv_coord_t (*area_get_main_size)(const lv_area_t *) = (f->row ? lv_area_get_width : lv_area_get
 410:Drivers/lvgl/lvgl/src/extra/layouts/flex/lv_flex.c ****     lv_coord_t (*area_get_cross_size)(const lv_area_t *) = (!f->row ? lv_area_get_width : lv_area_g
 411:Drivers/lvgl/lvgl/src/extra/layouts/flex/lv_flex.c **** 
 412:Drivers/lvgl/lvgl/src/extra/layouts/flex/lv_flex.c ****     /*Calculate the size of grow items first*/
 413:Drivers/lvgl/lvgl/src/extra/layouts/flex/lv_flex.c ****     uint32_t i;
 414:Drivers/lvgl/lvgl/src/extra/layouts/flex/lv_flex.c ****     bool grow_reiterate  = true;
ARM GAS  /tmp/ccbxNlti.s 			page 12


 415:Drivers/lvgl/lvgl/src/extra/layouts/flex/lv_flex.c ****     while(grow_reiterate) {
 416:Drivers/lvgl/lvgl/src/extra/layouts/flex/lv_flex.c ****         grow_reiterate = false;
 417:Drivers/lvgl/lvgl/src/extra/layouts/flex/lv_flex.c ****         lv_coord_t grow_value_sum = 0;
 418:Drivers/lvgl/lvgl/src/extra/layouts/flex/lv_flex.c ****         lv_coord_t grow_max_size = t->track_main_size - t->track_fix_main_size;
 419:Drivers/lvgl/lvgl/src/extra/layouts/flex/lv_flex.c ****         for(i = 0; i < t->grow_item_cnt; i++) {
 420:Drivers/lvgl/lvgl/src/extra/layouts/flex/lv_flex.c ****             if(t->grow_dsc[i].clamped == 0) {
 421:Drivers/lvgl/lvgl/src/extra/layouts/flex/lv_flex.c ****                 grow_value_sum += t->grow_dsc[i].grow_value;
 422:Drivers/lvgl/lvgl/src/extra/layouts/flex/lv_flex.c ****             }
 423:Drivers/lvgl/lvgl/src/extra/layouts/flex/lv_flex.c ****             else {
 424:Drivers/lvgl/lvgl/src/extra/layouts/flex/lv_flex.c ****                 grow_max_size -= t->grow_dsc[i].final_size;
 425:Drivers/lvgl/lvgl/src/extra/layouts/flex/lv_flex.c ****             }
 426:Drivers/lvgl/lvgl/src/extra/layouts/flex/lv_flex.c ****         }
 427:Drivers/lvgl/lvgl/src/extra/layouts/flex/lv_flex.c ****         lv_coord_t grow_unit;
 428:Drivers/lvgl/lvgl/src/extra/layouts/flex/lv_flex.c **** 
 429:Drivers/lvgl/lvgl/src/extra/layouts/flex/lv_flex.c ****         for(i = 0; i < t->grow_item_cnt; i++) {
 430:Drivers/lvgl/lvgl/src/extra/layouts/flex/lv_flex.c ****             if(t->grow_dsc[i].clamped == 0) {
 431:Drivers/lvgl/lvgl/src/extra/layouts/flex/lv_flex.c ****                 LV_ASSERT(grow_value_sum != 0);
 432:Drivers/lvgl/lvgl/src/extra/layouts/flex/lv_flex.c ****                 grow_unit = grow_max_size / grow_value_sum;
 433:Drivers/lvgl/lvgl/src/extra/layouts/flex/lv_flex.c ****                 lv_coord_t size = grow_unit * t->grow_dsc[i].grow_value;
 434:Drivers/lvgl/lvgl/src/extra/layouts/flex/lv_flex.c ****                 lv_coord_t size_clamp = LV_CLAMP(t->grow_dsc[i].min_size, size, t->grow_dsc[i].max_
 435:Drivers/lvgl/lvgl/src/extra/layouts/flex/lv_flex.c **** 
 436:Drivers/lvgl/lvgl/src/extra/layouts/flex/lv_flex.c ****                 if(size_clamp != size) {
 437:Drivers/lvgl/lvgl/src/extra/layouts/flex/lv_flex.c ****                     t->grow_dsc[i].clamped = 1;
 438:Drivers/lvgl/lvgl/src/extra/layouts/flex/lv_flex.c ****                     grow_reiterate = true;
 439:Drivers/lvgl/lvgl/src/extra/layouts/flex/lv_flex.c ****                 }
 440:Drivers/lvgl/lvgl/src/extra/layouts/flex/lv_flex.c ****                 t->grow_dsc[i].final_size = size_clamp;
 441:Drivers/lvgl/lvgl/src/extra/layouts/flex/lv_flex.c ****                 grow_value_sum -= t->grow_dsc[i].grow_value;
 442:Drivers/lvgl/lvgl/src/extra/layouts/flex/lv_flex.c ****                 grow_max_size  -= t->grow_dsc[i].final_size;
 443:Drivers/lvgl/lvgl/src/extra/layouts/flex/lv_flex.c ****             }
 444:Drivers/lvgl/lvgl/src/extra/layouts/flex/lv_flex.c ****         }
 445:Drivers/lvgl/lvgl/src/extra/layouts/flex/lv_flex.c ****     }
 446:Drivers/lvgl/lvgl/src/extra/layouts/flex/lv_flex.c **** 
 447:Drivers/lvgl/lvgl/src/extra/layouts/flex/lv_flex.c **** 
 448:Drivers/lvgl/lvgl/src/extra/layouts/flex/lv_flex.c ****     bool rtl = lv_obj_get_style_base_dir(cont, LV_PART_MAIN) == LV_BASE_DIR_RTL ? true : false;
 449:Drivers/lvgl/lvgl/src/extra/layouts/flex/lv_flex.c **** 
 450:Drivers/lvgl/lvgl/src/extra/layouts/flex/lv_flex.c ****     lv_coord_t main_pos = 0;
 451:Drivers/lvgl/lvgl/src/extra/layouts/flex/lv_flex.c **** 
 452:Drivers/lvgl/lvgl/src/extra/layouts/flex/lv_flex.c ****     lv_coord_t place_gap = 0;
 453:Drivers/lvgl/lvgl/src/extra/layouts/flex/lv_flex.c ****     place_content(f->main_place, max_main_size, t->track_main_size, t->item_cnt, &main_pos, &place_
 454:Drivers/lvgl/lvgl/src/extra/layouts/flex/lv_flex.c ****     if(f->row && rtl) main_pos += lv_obj_get_content_width(cont);
 455:Drivers/lvgl/lvgl/src/extra/layouts/flex/lv_flex.c **** 
 456:Drivers/lvgl/lvgl/src/extra/layouts/flex/lv_flex.c ****     lv_obj_t * item = lv_obj_get_child(cont, item_first_id);
 457:Drivers/lvgl/lvgl/src/extra/layouts/flex/lv_flex.c ****     /*Reposition the children*/
 458:Drivers/lvgl/lvgl/src/extra/layouts/flex/lv_flex.c ****     while(item && item_first_id != item_last_id) {
 459:Drivers/lvgl/lvgl/src/extra/layouts/flex/lv_flex.c ****         if(lv_obj_has_flag_any(item, LV_OBJ_FLAG_IGNORE_LAYOUT | LV_OBJ_FLAG_HIDDEN | LV_OBJ_FLAG_F
 460:Drivers/lvgl/lvgl/src/extra/layouts/flex/lv_flex.c ****             item = get_next_item(cont, f->rev, &item_first_id);
 461:Drivers/lvgl/lvgl/src/extra/layouts/flex/lv_flex.c ****             continue;
 462:Drivers/lvgl/lvgl/src/extra/layouts/flex/lv_flex.c ****         }
 463:Drivers/lvgl/lvgl/src/extra/layouts/flex/lv_flex.c ****         lv_coord_t grow_size = lv_obj_get_style_flex_grow(item, LV_PART_MAIN);
 464:Drivers/lvgl/lvgl/src/extra/layouts/flex/lv_flex.c ****         if(grow_size) {
 465:Drivers/lvgl/lvgl/src/extra/layouts/flex/lv_flex.c ****             lv_coord_t s = 0;
 466:Drivers/lvgl/lvgl/src/extra/layouts/flex/lv_flex.c ****             for(i = 0; i < t->grow_item_cnt; i++) {
 467:Drivers/lvgl/lvgl/src/extra/layouts/flex/lv_flex.c ****                 if(t->grow_dsc[i].item == item) {
 468:Drivers/lvgl/lvgl/src/extra/layouts/flex/lv_flex.c ****                     s = t->grow_dsc[i].final_size;
 469:Drivers/lvgl/lvgl/src/extra/layouts/flex/lv_flex.c ****                     break;
 470:Drivers/lvgl/lvgl/src/extra/layouts/flex/lv_flex.c ****                 }
 471:Drivers/lvgl/lvgl/src/extra/layouts/flex/lv_flex.c ****             }
ARM GAS  /tmp/ccbxNlti.s 			page 13


 472:Drivers/lvgl/lvgl/src/extra/layouts/flex/lv_flex.c **** 
 473:Drivers/lvgl/lvgl/src/extra/layouts/flex/lv_flex.c ****             if(f->row) {
 474:Drivers/lvgl/lvgl/src/extra/layouts/flex/lv_flex.c ****                 item->w_layout = 1;
 475:Drivers/lvgl/lvgl/src/extra/layouts/flex/lv_flex.c ****                 item->h_layout = 0;
 476:Drivers/lvgl/lvgl/src/extra/layouts/flex/lv_flex.c ****             }
 477:Drivers/lvgl/lvgl/src/extra/layouts/flex/lv_flex.c ****             else {
 478:Drivers/lvgl/lvgl/src/extra/layouts/flex/lv_flex.c ****                 item->h_layout = 1;
 479:Drivers/lvgl/lvgl/src/extra/layouts/flex/lv_flex.c ****                 item->w_layout = 0;
 480:Drivers/lvgl/lvgl/src/extra/layouts/flex/lv_flex.c ****             }
 481:Drivers/lvgl/lvgl/src/extra/layouts/flex/lv_flex.c **** 
 482:Drivers/lvgl/lvgl/src/extra/layouts/flex/lv_flex.c ****             if(s != area_get_main_size(&item->coords)) {
 483:Drivers/lvgl/lvgl/src/extra/layouts/flex/lv_flex.c ****                 lv_obj_invalidate(item);
 484:Drivers/lvgl/lvgl/src/extra/layouts/flex/lv_flex.c **** 
 485:Drivers/lvgl/lvgl/src/extra/layouts/flex/lv_flex.c ****                 lv_area_t old_coords;
 486:Drivers/lvgl/lvgl/src/extra/layouts/flex/lv_flex.c ****                 lv_area_copy(&old_coords, &item->coords);
 487:Drivers/lvgl/lvgl/src/extra/layouts/flex/lv_flex.c ****                 area_set_main_size(&item->coords, s);
 488:Drivers/lvgl/lvgl/src/extra/layouts/flex/lv_flex.c ****                 lv_event_send(item, LV_EVENT_SIZE_CHANGED, &old_coords);
 489:Drivers/lvgl/lvgl/src/extra/layouts/flex/lv_flex.c ****                 lv_event_send(lv_obj_get_parent(item), LV_EVENT_CHILD_CHANGED, item);
 490:Drivers/lvgl/lvgl/src/extra/layouts/flex/lv_flex.c ****                 lv_obj_invalidate(item);
 491:Drivers/lvgl/lvgl/src/extra/layouts/flex/lv_flex.c ****             }
 492:Drivers/lvgl/lvgl/src/extra/layouts/flex/lv_flex.c ****         }
 493:Drivers/lvgl/lvgl/src/extra/layouts/flex/lv_flex.c ****         else {
 494:Drivers/lvgl/lvgl/src/extra/layouts/flex/lv_flex.c ****             item->w_layout = 0;
 495:Drivers/lvgl/lvgl/src/extra/layouts/flex/lv_flex.c ****             item->h_layout = 0;
 496:Drivers/lvgl/lvgl/src/extra/layouts/flex/lv_flex.c ****         }
 497:Drivers/lvgl/lvgl/src/extra/layouts/flex/lv_flex.c **** 
 498:Drivers/lvgl/lvgl/src/extra/layouts/flex/lv_flex.c ****         lv_coord_t cross_pos = 0;
 499:Drivers/lvgl/lvgl/src/extra/layouts/flex/lv_flex.c ****         switch(f->cross_place) {
 500:Drivers/lvgl/lvgl/src/extra/layouts/flex/lv_flex.c ****             case LV_FLEX_ALIGN_CENTER:
 501:Drivers/lvgl/lvgl/src/extra/layouts/flex/lv_flex.c ****                 /*Round up the cross size to avoid rounding error when dividing by 2
 502:Drivers/lvgl/lvgl/src/extra/layouts/flex/lv_flex.c ****                  *The issue comes up e,g, with column direction with center cross direction if an e
 503:Drivers/lvgl/lvgl/src/extra/layouts/flex/lv_flex.c ****                 cross_pos = (((t->track_cross_size + 1) & (~1)) - area_get_cross_size(&item->coords
 504:Drivers/lvgl/lvgl/src/extra/layouts/flex/lv_flex.c ****                 break;
 505:Drivers/lvgl/lvgl/src/extra/layouts/flex/lv_flex.c ****             case LV_FLEX_ALIGN_END:
 506:Drivers/lvgl/lvgl/src/extra/layouts/flex/lv_flex.c ****                 cross_pos = t->track_cross_size - area_get_cross_size(&item->coords);
 507:Drivers/lvgl/lvgl/src/extra/layouts/flex/lv_flex.c ****                 break;
 508:Drivers/lvgl/lvgl/src/extra/layouts/flex/lv_flex.c ****             default:
 509:Drivers/lvgl/lvgl/src/extra/layouts/flex/lv_flex.c ****                 break;
 510:Drivers/lvgl/lvgl/src/extra/layouts/flex/lv_flex.c ****         }
 511:Drivers/lvgl/lvgl/src/extra/layouts/flex/lv_flex.c **** 
 512:Drivers/lvgl/lvgl/src/extra/layouts/flex/lv_flex.c ****         if(f->row && rtl) main_pos -= area_get_main_size(&item->coords);
 513:Drivers/lvgl/lvgl/src/extra/layouts/flex/lv_flex.c **** 
 514:Drivers/lvgl/lvgl/src/extra/layouts/flex/lv_flex.c **** 
 515:Drivers/lvgl/lvgl/src/extra/layouts/flex/lv_flex.c ****         /*Handle percentage value of translate*/
 516:Drivers/lvgl/lvgl/src/extra/layouts/flex/lv_flex.c ****         lv_coord_t tr_x = lv_obj_get_style_translate_x(item, LV_PART_MAIN);
 517:Drivers/lvgl/lvgl/src/extra/layouts/flex/lv_flex.c ****         lv_coord_t tr_y = lv_obj_get_style_translate_y(item, LV_PART_MAIN);
 518:Drivers/lvgl/lvgl/src/extra/layouts/flex/lv_flex.c ****         lv_coord_t w = lv_obj_get_width(item);
 519:Drivers/lvgl/lvgl/src/extra/layouts/flex/lv_flex.c ****         lv_coord_t h = lv_obj_get_height(item);
 520:Drivers/lvgl/lvgl/src/extra/layouts/flex/lv_flex.c ****         if(LV_COORD_IS_PCT(tr_x)) tr_x = (w * LV_COORD_GET_PCT(tr_x)) / 100;
 521:Drivers/lvgl/lvgl/src/extra/layouts/flex/lv_flex.c ****         if(LV_COORD_IS_PCT(tr_y)) tr_y = (h * LV_COORD_GET_PCT(tr_y)) / 100;
 522:Drivers/lvgl/lvgl/src/extra/layouts/flex/lv_flex.c **** 
 523:Drivers/lvgl/lvgl/src/extra/layouts/flex/lv_flex.c ****         lv_coord_t diff_x = abs_x - item->coords.x1 + tr_x;
 524:Drivers/lvgl/lvgl/src/extra/layouts/flex/lv_flex.c ****         lv_coord_t diff_y = abs_y - item->coords.y1 + tr_y;
 525:Drivers/lvgl/lvgl/src/extra/layouts/flex/lv_flex.c ****         diff_x += f->row ? main_pos : cross_pos;
 526:Drivers/lvgl/lvgl/src/extra/layouts/flex/lv_flex.c ****         diff_y += f->row ? cross_pos : main_pos;
 527:Drivers/lvgl/lvgl/src/extra/layouts/flex/lv_flex.c **** 
 528:Drivers/lvgl/lvgl/src/extra/layouts/flex/lv_flex.c ****         if(diff_x || diff_y) {
ARM GAS  /tmp/ccbxNlti.s 			page 14


 529:Drivers/lvgl/lvgl/src/extra/layouts/flex/lv_flex.c ****             lv_obj_invalidate(item);
 530:Drivers/lvgl/lvgl/src/extra/layouts/flex/lv_flex.c ****             item->coords.x1 += diff_x;
 531:Drivers/lvgl/lvgl/src/extra/layouts/flex/lv_flex.c ****             item->coords.x2 += diff_x;
 532:Drivers/lvgl/lvgl/src/extra/layouts/flex/lv_flex.c ****             item->coords.y1 += diff_y;
 533:Drivers/lvgl/lvgl/src/extra/layouts/flex/lv_flex.c ****             item->coords.y2 += diff_y;
 534:Drivers/lvgl/lvgl/src/extra/layouts/flex/lv_flex.c ****             lv_obj_invalidate(item);
 535:Drivers/lvgl/lvgl/src/extra/layouts/flex/lv_flex.c ****             lv_obj_move_children_by(item, diff_x, diff_y, false);
 536:Drivers/lvgl/lvgl/src/extra/layouts/flex/lv_flex.c ****         }
 537:Drivers/lvgl/lvgl/src/extra/layouts/flex/lv_flex.c **** 
 538:Drivers/lvgl/lvgl/src/extra/layouts/flex/lv_flex.c ****         if(!(f->row && rtl)) main_pos += area_get_main_size(&item->coords) + item_gap + place_gap;
 539:Drivers/lvgl/lvgl/src/extra/layouts/flex/lv_flex.c ****         else main_pos -= item_gap + place_gap;
 540:Drivers/lvgl/lvgl/src/extra/layouts/flex/lv_flex.c **** 
 541:Drivers/lvgl/lvgl/src/extra/layouts/flex/lv_flex.c ****         item = get_next_item(cont, f->rev, &item_first_id);
 542:Drivers/lvgl/lvgl/src/extra/layouts/flex/lv_flex.c ****     }
 543:Drivers/lvgl/lvgl/src/extra/layouts/flex/lv_flex.c **** }
 544:Drivers/lvgl/lvgl/src/extra/layouts/flex/lv_flex.c **** 
 545:Drivers/lvgl/lvgl/src/extra/layouts/flex/lv_flex.c **** /**
 546:Drivers/lvgl/lvgl/src/extra/layouts/flex/lv_flex.c ****  * Tell a start coordinate and gap for a placement type.
 547:Drivers/lvgl/lvgl/src/extra/layouts/flex/lv_flex.c ****  */
 548:Drivers/lvgl/lvgl/src/extra/layouts/flex/lv_flex.c **** static void place_content(lv_flex_align_t place, lv_coord_t max_size, lv_coord_t content_size, lv_c
 549:Drivers/lvgl/lvgl/src/extra/layouts/flex/lv_flex.c ****                           lv_coord_t * start_pos, lv_coord_t * gap)
 550:Drivers/lvgl/lvgl/src/extra/layouts/flex/lv_flex.c **** {
  83              		.loc 2 550 0
  84              		.cfi_startproc
  85              		@ args = 8, pretend = 0, frame = 0
  86              		@ frame_needed = 0, uses_anonymous_args = 0
  87              		@ link register save eliminated.
  88              	.LVL4:
  89 0000 70B4     		push	{r4, r5, r6}
  90              	.LCFI0:
  91              		.cfi_def_cfa_offset 12
  92              		.cfi_offset 4, -12
  93              		.cfi_offset 5, -8
  94              		.cfi_offset 6, -4
  95 0002 039D     		ldr	r5, [sp, #12]
  96 0004 049C     		ldr	r4, [sp, #16]
 551:Drivers/lvgl/lvgl/src/extra/layouts/flex/lv_flex.c ****     if(item_cnt <= 1) {
  97              		.loc 2 551 0
  98 0006 012B     		cmp	r3, #1
  99 0008 07DD     		ble	.L16
 100              	.L4:
 552:Drivers/lvgl/lvgl/src/extra/layouts/flex/lv_flex.c ****         switch(place) {
 553:Drivers/lvgl/lvgl/src/extra/layouts/flex/lv_flex.c ****             case LV_FLEX_ALIGN_SPACE_BETWEEN:
 554:Drivers/lvgl/lvgl/src/extra/layouts/flex/lv_flex.c ****             case LV_FLEX_ALIGN_SPACE_AROUND:
 555:Drivers/lvgl/lvgl/src/extra/layouts/flex/lv_flex.c ****             case LV_FLEX_ALIGN_SPACE_EVENLY:
 556:Drivers/lvgl/lvgl/src/extra/layouts/flex/lv_flex.c ****                 place = LV_FLEX_ALIGN_CENTER;
 557:Drivers/lvgl/lvgl/src/extra/layouts/flex/lv_flex.c ****                 break;
 558:Drivers/lvgl/lvgl/src/extra/layouts/flex/lv_flex.c ****             default:
 559:Drivers/lvgl/lvgl/src/extra/layouts/flex/lv_flex.c ****                 break;
 560:Drivers/lvgl/lvgl/src/extra/layouts/flex/lv_flex.c ****         }
 561:Drivers/lvgl/lvgl/src/extra/layouts/flex/lv_flex.c ****     }
 562:Drivers/lvgl/lvgl/src/extra/layouts/flex/lv_flex.c **** 
 563:Drivers/lvgl/lvgl/src/extra/layouts/flex/lv_flex.c ****     switch(place) {
 101              		.loc 2 563 0
 102 000a 0138     		subs	r0, r0, #1
 103              	.LVL5:
 104 000c 0428     		cmp	r0, #4
ARM GAS  /tmp/ccbxNlti.s 			page 15


 105 000e 42D8     		bhi	.L6
 106 0010 DFE800F0 		tbb	[pc, r0]
 107              	.L8:
 108 0014 12       		.byte	(.L7-.L8)/2
 109 0015 06       		.byte	(.L5-.L8)/2
 110 0016 34       		.byte	(.L9-.L8)/2
 111 0017 22       		.byte	(.L10-.L8)/2
 112 0018 1A       		.byte	(.L11-.L8)/2
 113              	.LVL6:
 114 0019 00       		.p2align 1
 115              	.L16:
 552:Drivers/lvgl/lvgl/src/extra/layouts/flex/lv_flex.c ****         switch(place) {
 116              		.loc 2 552 0
 117 001a C61E     		subs	r6, r0, #3
 118 001c 022E     		cmp	r6, #2
 119 001e F4D8     		bhi	.L4
 120              	.LVL7:
 121              	.L5:
 564:Drivers/lvgl/lvgl/src/extra/layouts/flex/lv_flex.c ****         case LV_FLEX_ALIGN_CENTER:
 565:Drivers/lvgl/lvgl/src/extra/layouts/flex/lv_flex.c ****             *gap = 0;
 122              		.loc 2 565 0
 123 0020 0023     		movs	r3, #0
 124              	.LVL8:
 125 0022 2380     		strh	r3, [r4]	@ movhi
 566:Drivers/lvgl/lvgl/src/extra/layouts/flex/lv_flex.c ****             *start_pos += (max_size - content_size) / 2;
 126              		.loc 2 566 0
 127 0024 891A     		subs	r1, r1, r2
 128              	.LVL9:
 129 0026 05D4     		bmi	.L17
 130              	.L12:
 131 0028 2A88     		ldrh	r2, [r5]
 132              	.LVL10:
 133 002a 02EB6101 		add	r1, r2, r1, asr #1
 134 002e 2980     		strh	r1, [r5]	@ movhi
 135              	.L3:
 567:Drivers/lvgl/lvgl/src/extra/layouts/flex/lv_flex.c ****             break;
 568:Drivers/lvgl/lvgl/src/extra/layouts/flex/lv_flex.c ****         case LV_FLEX_ALIGN_END:
 569:Drivers/lvgl/lvgl/src/extra/layouts/flex/lv_flex.c ****             *gap = 0;
 570:Drivers/lvgl/lvgl/src/extra/layouts/flex/lv_flex.c ****             *start_pos += max_size - content_size;
 571:Drivers/lvgl/lvgl/src/extra/layouts/flex/lv_flex.c ****             break;
 572:Drivers/lvgl/lvgl/src/extra/layouts/flex/lv_flex.c ****         case LV_FLEX_ALIGN_SPACE_BETWEEN:
 573:Drivers/lvgl/lvgl/src/extra/layouts/flex/lv_flex.c ****             *gap = (lv_coord_t)(max_size - content_size) / (lv_coord_t)(item_cnt - 1);
 574:Drivers/lvgl/lvgl/src/extra/layouts/flex/lv_flex.c ****             break;
 575:Drivers/lvgl/lvgl/src/extra/layouts/flex/lv_flex.c ****         case LV_FLEX_ALIGN_SPACE_AROUND:
 576:Drivers/lvgl/lvgl/src/extra/layouts/flex/lv_flex.c ****             *gap += (lv_coord_t)(max_size - content_size) / (lv_coord_t)(item_cnt);
 577:Drivers/lvgl/lvgl/src/extra/layouts/flex/lv_flex.c ****             *start_pos += *gap / 2;
 578:Drivers/lvgl/lvgl/src/extra/layouts/flex/lv_flex.c ****             break;
 579:Drivers/lvgl/lvgl/src/extra/layouts/flex/lv_flex.c ****         case LV_FLEX_ALIGN_SPACE_EVENLY:
 580:Drivers/lvgl/lvgl/src/extra/layouts/flex/lv_flex.c ****             *gap = (lv_coord_t)(max_size - content_size) / (lv_coord_t)(item_cnt + 1);
 581:Drivers/lvgl/lvgl/src/extra/layouts/flex/lv_flex.c ****             *start_pos += *gap;
 582:Drivers/lvgl/lvgl/src/extra/layouts/flex/lv_flex.c ****             break;
 583:Drivers/lvgl/lvgl/src/extra/layouts/flex/lv_flex.c ****         default:
 584:Drivers/lvgl/lvgl/src/extra/layouts/flex/lv_flex.c ****             *gap = 0;
 585:Drivers/lvgl/lvgl/src/extra/layouts/flex/lv_flex.c ****     }
 586:Drivers/lvgl/lvgl/src/extra/layouts/flex/lv_flex.c **** }
 136              		.loc 2 586 0
 137 0030 70BC     		pop	{r4, r5, r6}
ARM GAS  /tmp/ccbxNlti.s 			page 16


 138              	.LCFI1:
 139              		.cfi_remember_state
 140              		.cfi_restore 6
 141              		.cfi_restore 5
 142              		.cfi_restore 4
 143              		.cfi_def_cfa_offset 0
 144              	.LVL11:
 145 0032 7047     		bx	lr
 146              	.LVL12:
 147              	.L17:
 148              	.LCFI2:
 149              		.cfi_restore_state
 566:Drivers/lvgl/lvgl/src/extra/layouts/flex/lv_flex.c ****             *start_pos += (max_size - content_size) / 2;
 150              		.loc 2 566 0
 151 0034 0131     		adds	r1, r1, #1
 152 0036 F7E7     		b	.L12
 153              	.LVL13:
 154              	.L7:
 569:Drivers/lvgl/lvgl/src/extra/layouts/flex/lv_flex.c ****             *start_pos += max_size - content_size;
 155              		.loc 2 569 0
 156 0038 0023     		movs	r3, #0
 157              	.LVL14:
 158 003a 2380     		strh	r3, [r4]	@ movhi
 570:Drivers/lvgl/lvgl/src/extra/layouts/flex/lv_flex.c ****             break;
 159              		.loc 2 570 0
 160 003c 891A     		subs	r1, r1, r2
 161              	.LVL15:
 162 003e 2A88     		ldrh	r2, [r5]
 163              	.LVL16:
 164 0040 12FA81F1 		uxtah	r1, r2, r1
 165 0044 2980     		strh	r1, [r5]	@ movhi
 571:Drivers/lvgl/lvgl/src/extra/layouts/flex/lv_flex.c ****         case LV_FLEX_ALIGN_SPACE_BETWEEN:
 166              		.loc 2 571 0
 167 0046 F3E7     		b	.L3
 168              	.LVL17:
 169              	.L11:
 573:Drivers/lvgl/lvgl/src/extra/layouts/flex/lv_flex.c ****             break;
 170              		.loc 2 573 0
 171 0048 891A     		subs	r1, r1, r2
 172              	.LVL18:
 173 004a 09B2     		sxth	r1, r1
 174 004c 013B     		subs	r3, r3, #1
 175              	.LVL19:
 176 004e 1BB2     		sxth	r3, r3
 177 0050 91FBF3F1 		sdiv	r1, r1, r3
 178 0054 2180     		strh	r1, [r4]	@ movhi
 574:Drivers/lvgl/lvgl/src/extra/layouts/flex/lv_flex.c ****         case LV_FLEX_ALIGN_SPACE_AROUND:
 179              		.loc 2 574 0
 180 0056 EBE7     		b	.L3
 181              	.LVL20:
 182              	.L10:
 576:Drivers/lvgl/lvgl/src/extra/layouts/flex/lv_flex.c ****             *start_pos += *gap / 2;
 183              		.loc 2 576 0
 184 0058 891A     		subs	r1, r1, r2
 185              	.LVL21:
 186 005a 09B2     		sxth	r1, r1
 187 005c 91FBF3F3 		sdiv	r3, r1, r3
ARM GAS  /tmp/ccbxNlti.s 			page 17


 188              	.LVL22:
 189 0060 2288     		ldrh	r2, [r4]
 190              	.LVL23:
 191 0062 1344     		add	r3, r3, r2
 192 0064 1BB2     		sxth	r3, r3
 193 0066 2380     		strh	r3, [r4]	@ movhi
 577:Drivers/lvgl/lvgl/src/extra/layouts/flex/lv_flex.c ****             break;
 194              		.loc 2 577 0
 195 0068 1A46     		mov	r2, r3
 196 006a 002B     		cmp	r3, #0
 197 006c 04DB     		blt	.L18
 198              	.L14:
 199 006e 2B88     		ldrh	r3, [r5]
 200 0070 03EB6203 		add	r3, r3, r2, asr #1
 201 0074 2B80     		strh	r3, [r5]	@ movhi
 578:Drivers/lvgl/lvgl/src/extra/layouts/flex/lv_flex.c ****         case LV_FLEX_ALIGN_SPACE_EVENLY:
 202              		.loc 2 578 0
 203 0076 DBE7     		b	.L3
 204              	.L18:
 577:Drivers/lvgl/lvgl/src/extra/layouts/flex/lv_flex.c ****             break;
 205              		.loc 2 577 0
 206 0078 5A1C     		adds	r2, r3, #1
 207 007a F8E7     		b	.L14
 208              	.LVL24:
 209              	.L9:
 580:Drivers/lvgl/lvgl/src/extra/layouts/flex/lv_flex.c ****             *start_pos += *gap;
 210              		.loc 2 580 0
 211 007c 891A     		subs	r1, r1, r2
 212              	.LVL25:
 213 007e 09B2     		sxth	r1, r1
 214 0080 0133     		adds	r3, r3, #1
 215              	.LVL26:
 216 0082 1BB2     		sxth	r3, r3
 217 0084 91FBF3F3 		sdiv	r3, r1, r3
 218 0088 1BB2     		sxth	r3, r3
 219 008a 2380     		strh	r3, [r4]	@ movhi
 581:Drivers/lvgl/lvgl/src/extra/layouts/flex/lv_flex.c ****             break;
 220              		.loc 2 581 0
 221 008c 2A88     		ldrh	r2, [r5]
 222              	.LVL27:
 223 008e 12FA83F3 		uxtah	r3, r2, r3
 224 0092 2B80     		strh	r3, [r5]	@ movhi
 582:Drivers/lvgl/lvgl/src/extra/layouts/flex/lv_flex.c ****         default:
 225              		.loc 2 582 0
 226 0094 CCE7     		b	.L3
 227              	.LVL28:
 228              	.L6:
 584:Drivers/lvgl/lvgl/src/extra/layouts/flex/lv_flex.c ****     }
 229              		.loc 2 584 0
 230 0096 0023     		movs	r3, #0
 231              	.LVL29:
 232 0098 2380     		strh	r3, [r4]	@ movhi
 233              		.loc 2 586 0
 234 009a C9E7     		b	.L3
 235              		.cfi_endproc
 236              	.LFE192:
 238              		.section	.text.get_next_item,"ax",%progbits
ARM GAS  /tmp/ccbxNlti.s 			page 18


 239              		.align	1
 240              		.syntax unified
 241              		.thumb
 242              		.thumb_func
 243              		.fpu fpv5-d16
 245              	get_next_item:
 246              	.LFB193:
 587:Drivers/lvgl/lvgl/src/extra/layouts/flex/lv_flex.c **** 
 588:Drivers/lvgl/lvgl/src/extra/layouts/flex/lv_flex.c **** static lv_obj_t * get_next_item(lv_obj_t * cont, bool rev, int32_t * item_id)
 589:Drivers/lvgl/lvgl/src/extra/layouts/flex/lv_flex.c **** {
 247              		.loc 2 589 0
 248              		.cfi_startproc
 249              		@ args = 0, pretend = 0, frame = 0
 250              		@ frame_needed = 0, uses_anonymous_args = 0
 251              		@ link register save eliminated.
 252              	.LVL30:
 590:Drivers/lvgl/lvgl/src/extra/layouts/flex/lv_flex.c ****     if(rev) {
 253              		.loc 2 590 0
 254 0000 49B1     		cbz	r1, .L20
 591:Drivers/lvgl/lvgl/src/extra/layouts/flex/lv_flex.c ****         (*item_id)--;
 255              		.loc 2 591 0
 256 0002 1368     		ldr	r3, [r2]
 257 0004 013B     		subs	r3, r3, #1
 258 0006 1360     		str	r3, [r2]
 592:Drivers/lvgl/lvgl/src/extra/layouts/flex/lv_flex.c ****         if(*item_id >= 0) return cont->spec_attr->children[*item_id];
 259              		.loc 2 592 0
 260 0008 002B     		cmp	r3, #0
 261 000a 0FDB     		blt	.L22
 262              		.loc 2 592 0 is_stmt 0 discriminator 1
 263 000c 8268     		ldr	r2, [r0, #8]
 264              	.LVL31:
 265 000e 1268     		ldr	r2, [r2]
 266 0010 52F82300 		ldr	r0, [r2, r3, lsl #2]
 267              	.LVL32:
 268 0014 7047     		bx	lr
 269              	.LVL33:
 270              	.L20:
 593:Drivers/lvgl/lvgl/src/extra/layouts/flex/lv_flex.c ****         else return NULL;
 594:Drivers/lvgl/lvgl/src/extra/layouts/flex/lv_flex.c ****     }
 595:Drivers/lvgl/lvgl/src/extra/layouts/flex/lv_flex.c ****     else {
 596:Drivers/lvgl/lvgl/src/extra/layouts/flex/lv_flex.c ****         (*item_id)++;
 271              		.loc 2 596 0 is_stmt 1
 272 0016 1368     		ldr	r3, [r2]
 273 0018 0133     		adds	r3, r3, #1
 274 001a 1360     		str	r3, [r2]
 597:Drivers/lvgl/lvgl/src/extra/layouts/flex/lv_flex.c ****         if((*item_id) < (int32_t)cont->spec_attr->child_cnt) return cont->spec_attr->children[*item
 275              		.loc 2 597 0
 276 001c 8268     		ldr	r2, [r0, #8]
 277              	.LVL34:
 278 001e 5168     		ldr	r1, [r2, #4]
 279              	.LVL35:
 280 0020 8B42     		cmp	r3, r1
 281 0022 05DA     		bge	.L23
 282              		.loc 2 597 0 is_stmt 0 discriminator 1
 283 0024 1268     		ldr	r2, [r2]
 284 0026 52F82300 		ldr	r0, [r2, r3, lsl #2]
 285              	.LVL36:
ARM GAS  /tmp/ccbxNlti.s 			page 19


 286 002a 7047     		bx	lr
 287              	.LVL37:
 288              	.L22:
 593:Drivers/lvgl/lvgl/src/extra/layouts/flex/lv_flex.c ****         else return NULL;
 289              		.loc 2 593 0 is_stmt 1
 290 002c 0020     		movs	r0, #0
 291              	.LVL38:
 292 002e 7047     		bx	lr
 293              	.LVL39:
 294              	.L23:
 598:Drivers/lvgl/lvgl/src/extra/layouts/flex/lv_flex.c ****         else return NULL;
 295              		.loc 2 598 0
 296 0030 0020     		movs	r0, #0
 297              	.LVL40:
 599:Drivers/lvgl/lvgl/src/extra/layouts/flex/lv_flex.c ****     }
 600:Drivers/lvgl/lvgl/src/extra/layouts/flex/lv_flex.c **** }
 298              		.loc 2 600 0
 299 0032 7047     		bx	lr
 300              		.cfi_endproc
 301              	.LFE193:
 303              		.section	.text.find_track_end,"ax",%progbits
 304              		.align	1
 305              		.syntax unified
 306              		.thumb
 307              		.thumb_func
 308              		.fpu fpv5-d16
 310              	find_track_end:
 311              	.LFB190:
 319:Drivers/lvgl/lvgl/src/extra/layouts/flex/lv_flex.c ****     lv_coord_t w_set = lv_obj_get_style_width(cont, LV_PART_MAIN);
 312              		.loc 2 319 0
 313              		.cfi_startproc
 314              		@ args = 8, pretend = 0, frame = 24
 315              		@ frame_needed = 0, uses_anonymous_args = 0
 316              	.LVL41:
 317 0000 2DE9F04F 		push	{r4, r5, r6, r7, r8, r9, r10, fp, lr}
 318              	.LCFI3:
 319              		.cfi_def_cfa_offset 36
 320              		.cfi_offset 4, -36
 321              		.cfi_offset 5, -32
 322              		.cfi_offset 6, -28
 323              		.cfi_offset 7, -24
 324              		.cfi_offset 8, -20
 325              		.cfi_offset 9, -16
 326              		.cfi_offset 10, -12
 327              		.cfi_offset 11, -8
 328              		.cfi_offset 14, -4
 329 0004 87B0     		sub	sp, sp, #28
 330              	.LCFI4:
 331              		.cfi_def_cfa_offset 64
 332 0006 8046     		mov	r8, r0
 333 0008 0190     		str	r0, [sp, #4]
 334 000a 0F46     		mov	r7, r1
 335 000c 1646     		mov	r6, r2
 336 000e 0293     		str	r3, [sp, #8]
 337 0010 BDF940A0 		ldrsh	r10, [sp, #64]
 338 0014 119D     		ldr	r5, [sp, #68]
 339              	.LVL42:
ARM GAS  /tmp/ccbxNlti.s 			page 20


 340              	.LBB64:
 341              	.LBB65:
 342              		.file 3 "Drivers/lvgl/lvgl/src/extra/layouts/flex/../flex/../../../core/lv_obj_style_gen.h"
   1:Drivers/lvgl/lvgl/src/extra/layouts/flex/../flex/../../../core/lv_obj_style_gen.h **** static inline lv_coord_t lv_obj_get_style_width(const struct _lv_obj_t * obj, uint32_t part)
   2:Drivers/lvgl/lvgl/src/extra/layouts/flex/../flex/../../../core/lv_obj_style_gen.h **** {
   3:Drivers/lvgl/lvgl/src/extra/layouts/flex/../flex/../../../core/lv_obj_style_gen.h ****     lv_style_value_t v = lv_obj_get_style_prop(obj, part, LV_STYLE_WIDTH);
 343              		.loc 3 3 0
 344 0016 0122     		movs	r2, #1
 345              	.LVL43:
 346 0018 0021     		movs	r1, #0
 347              	.LVL44:
 348 001a FFF7FEFF 		bl	lv_obj_get_style_prop
 349              	.LVL45:
   4:Drivers/lvgl/lvgl/src/extra/layouts/flex/../flex/../../../core/lv_obj_style_gen.h ****     return (lv_coord_t)v.num;
 350              		.loc 3 4 0
 351 001e 04B2     		sxth	r4, r0
 352              	.LVL46:
 353              	.LBE65:
 354              	.LBE64:
 355              	.LBB66:
 356              	.LBB67:
   5:Drivers/lvgl/lvgl/src/extra/layouts/flex/../flex/../../../core/lv_obj_style_gen.h **** }
   6:Drivers/lvgl/lvgl/src/extra/layouts/flex/../flex/../../../core/lv_obj_style_gen.h **** 
   7:Drivers/lvgl/lvgl/src/extra/layouts/flex/../flex/../../../core/lv_obj_style_gen.h **** static inline lv_coord_t lv_obj_get_style_min_width(const struct _lv_obj_t * obj, uint32_t part)
   8:Drivers/lvgl/lvgl/src/extra/layouts/flex/../flex/../../../core/lv_obj_style_gen.h **** {
   9:Drivers/lvgl/lvgl/src/extra/layouts/flex/../flex/../../../core/lv_obj_style_gen.h ****     lv_style_value_t v = lv_obj_get_style_prop(obj, part, LV_STYLE_MIN_WIDTH);
  10:Drivers/lvgl/lvgl/src/extra/layouts/flex/../flex/../../../core/lv_obj_style_gen.h ****     return (lv_coord_t)v.num;
  11:Drivers/lvgl/lvgl/src/extra/layouts/flex/../flex/../../../core/lv_obj_style_gen.h **** }
  12:Drivers/lvgl/lvgl/src/extra/layouts/flex/../flex/../../../core/lv_obj_style_gen.h **** 
  13:Drivers/lvgl/lvgl/src/extra/layouts/flex/../flex/../../../core/lv_obj_style_gen.h **** static inline lv_coord_t lv_obj_get_style_max_width(const struct _lv_obj_t * obj, uint32_t part)
  14:Drivers/lvgl/lvgl/src/extra/layouts/flex/../flex/../../../core/lv_obj_style_gen.h **** {
  15:Drivers/lvgl/lvgl/src/extra/layouts/flex/../flex/../../../core/lv_obj_style_gen.h ****     lv_style_value_t v = lv_obj_get_style_prop(obj, part, LV_STYLE_MAX_WIDTH);
  16:Drivers/lvgl/lvgl/src/extra/layouts/flex/../flex/../../../core/lv_obj_style_gen.h ****     return (lv_coord_t)v.num;
  17:Drivers/lvgl/lvgl/src/extra/layouts/flex/../flex/../../../core/lv_obj_style_gen.h **** }
  18:Drivers/lvgl/lvgl/src/extra/layouts/flex/../flex/../../../core/lv_obj_style_gen.h **** 
  19:Drivers/lvgl/lvgl/src/extra/layouts/flex/../flex/../../../core/lv_obj_style_gen.h **** static inline lv_coord_t lv_obj_get_style_height(const struct _lv_obj_t * obj, uint32_t part)
  20:Drivers/lvgl/lvgl/src/extra/layouts/flex/../flex/../../../core/lv_obj_style_gen.h **** {
  21:Drivers/lvgl/lvgl/src/extra/layouts/flex/../flex/../../../core/lv_obj_style_gen.h ****     lv_style_value_t v = lv_obj_get_style_prop(obj, part, LV_STYLE_HEIGHT);
 357              		.loc 3 21 0
 358 0020 0422     		movs	r2, #4
 359 0022 0021     		movs	r1, #0
 360 0024 4046     		mov	r0, r8
 361 0026 FFF7FEFF 		bl	lv_obj_get_style_prop
 362              	.LVL47:
 363              	.LBE67:
 364              	.LBE66:
 324:Drivers/lvgl/lvgl/src/extra/layouts/flex/lv_flex.c ****         f->wrap = false;
 365              		.loc 2 324 0
 366 002a FB78     		ldrb	r3, [r7, #3]	@ zero_extendqisi2
 367 002c 13F0020F 		tst	r3, #2
 368 0030 10D0     		beq	.L25
 369 0032 00B2     		sxth	r0, r0
 324:Drivers/lvgl/lvgl/src/extra/layouts/flex/lv_flex.c ****         f->wrap = false;
 370              		.loc 2 324 0 is_stmt 0 discriminator 1
 371 0034 13F00103 		ands	r3, r3, #1
 372 0038 03D0     		beq	.L26
 324:Drivers/lvgl/lvgl/src/extra/layouts/flex/lv_flex.c ****         f->wrap = false;
ARM GAS  /tmp/ccbxNlti.s 			page 21


 373              		.loc 2 324 0 discriminator 2
 374 003a 42F2D172 		movw	r2, #10193
 375 003e 9442     		cmp	r4, r2
 376 0040 04D0     		beq	.L27
 377              	.L26:
 324:Drivers/lvgl/lvgl/src/extra/layouts/flex/lv_flex.c ****         f->wrap = false;
 378              		.loc 2 324 0 discriminator 4
 379 0042 3BB9     		cbnz	r3, .L25
 324:Drivers/lvgl/lvgl/src/extra/layouts/flex/lv_flex.c ****         f->wrap = false;
 380              		.loc 2 324 0 discriminator 5
 381 0044 42F2D173 		movw	r3, #10193
 382 0048 9842     		cmp	r0, r3
 383 004a 03D1     		bne	.L25
 384              	.L27:
 325:Drivers/lvgl/lvgl/src/extra/layouts/flex/lv_flex.c ****     }
 385              		.loc 2 325 0 is_stmt 1
 386 004c FB78     		ldrb	r3, [r7, #3]	@ zero_extendqisi2
 387 004e 6FF34103 		bfc	r3, #1, #1
 388 0052 FB70     		strb	r3, [r7, #3]
 389              	.L25:
 327:Drivers/lvgl/lvgl/src/extra/layouts/flex/lv_flex.c ****     lv_coord_t(*get_cross_size)(const lv_obj_t *) = (!f->row ? lv_obj_get_width : lv_obj_get_height
 390              		.loc 2 327 0
 391 0054 FB78     		ldrb	r3, [r7, #3]	@ zero_extendqisi2
 392 0056 13F00103 		ands	r3, r3, #1
 393 005a 12D0     		beq	.L50
 394 005c DFF810B2 		ldr	fp, .L57+8
 395              	.L28:
 396              	.LVL48:
 328:Drivers/lvgl/lvgl/src/extra/layouts/flex/lv_flex.c **** 
 397              		.loc 2 328 0 discriminator 4
 398 0060 93B9     		cbnz	r3, .L51
 328:Drivers/lvgl/lvgl/src/extra/layouts/flex/lv_flex.c **** 
 399              		.loc 2 328 0 is_stmt 0
 400 0062 DFF80C82 		ldr	r8, .L57+8
 401              	.LVL49:
 402              	.L29:
 330:Drivers/lvgl/lvgl/src/extra/layouts/flex/lv_flex.c ****     t->track_fix_main_size = 0;
 403              		.loc 2 330 0 is_stmt 1 discriminator 4
 404 0066 0023     		movs	r3, #0
 405 0068 6B80     		strh	r3, [r5, #2]	@ movhi
 331:Drivers/lvgl/lvgl/src/extra/layouts/flex/lv_flex.c ****     t->grow_item_cnt = 0;
 406              		.loc 2 331 0 discriminator 4
 407 006a AB80     		strh	r3, [r5, #4]	@ movhi
 332:Drivers/lvgl/lvgl/src/extra/layouts/flex/lv_flex.c ****     t->track_cross_size = 0;
 408              		.loc 2 332 0 discriminator 4
 409 006c 2B61     		str	r3, [r5, #16]
 333:Drivers/lvgl/lvgl/src/extra/layouts/flex/lv_flex.c ****     t->item_cnt = 0;
 410              		.loc 2 333 0 discriminator 4
 411 006e 2B80     		strh	r3, [r5]	@ movhi
 334:Drivers/lvgl/lvgl/src/extra/layouts/flex/lv_flex.c ****     t->grow_dsc = NULL;
 412              		.loc 2 334 0 discriminator 4
 413 0070 AB60     		str	r3, [r5, #8]
 335:Drivers/lvgl/lvgl/src/extra/layouts/flex/lv_flex.c **** 
 414              		.loc 2 335 0 discriminator 4
 415 0072 EB60     		str	r3, [r5, #12]
 337:Drivers/lvgl/lvgl/src/extra/layouts/flex/lv_flex.c **** 
 416              		.loc 2 337 0 discriminator 4
ARM GAS  /tmp/ccbxNlti.s 			page 22


 417 0074 0596     		str	r6, [sp, #20]
 339:Drivers/lvgl/lvgl/src/extra/layouts/flex/lv_flex.c ****     while(item) {
 418              		.loc 2 339 0 discriminator 4
 419 0076 3146     		mov	r1, r6
 420 0078 0198     		ldr	r0, [sp, #4]
 421 007a FFF7FEFF 		bl	lv_obj_get_child
 422              	.LVL50:
 423 007e 0446     		mov	r4, r0
 424              	.LVL51:
 340:Drivers/lvgl/lvgl/src/extra/layouts/flex/lv_flex.c ****         if(item_id != item_start_id && lv_obj_has_flag(item, LV_OBJ_FLAG_FLEX_IN_NEW_TRACK)) break;
 425              		.loc 2 340 0 discriminator 4
 426 0080 A7E0     		b	.L30
 427              	.LVL52:
 428              	.L50:
 327:Drivers/lvgl/lvgl/src/extra/layouts/flex/lv_flex.c ****     lv_coord_t(*get_cross_size)(const lv_obj_t *) = (!f->row ? lv_obj_get_width : lv_obj_get_height
 429              		.loc 2 327 0
 430 0082 DFF8F0B1 		ldr	fp, .L57+12
 431 0086 EBE7     		b	.L28
 432              	.LVL53:
 433              	.L51:
 328:Drivers/lvgl/lvgl/src/extra/layouts/flex/lv_flex.c **** 
 434              		.loc 2 328 0
 435 0088 DFF8E881 		ldr	r8, .L57+12
 436              	.LVL54:
 437 008c EBE7     		b	.L29
 438              	.LVL55:
 439              	.L55:
 440              	.LBB68:
 441              	.LBB69:
 442              	.LBB70:
 443              		.file 4 "Drivers/lvgl/lvgl/src/extra/layouts/flex/../flex/lv_flex.h"
   1:Drivers/lvgl/lvgl/src/extra/layouts/flex/../flex/lv_flex.h **** /**
   2:Drivers/lvgl/lvgl/src/extra/layouts/flex/../flex/lv_flex.h ****  * @file lv_flex.h
   3:Drivers/lvgl/lvgl/src/extra/layouts/flex/../flex/lv_flex.h ****  *
   4:Drivers/lvgl/lvgl/src/extra/layouts/flex/../flex/lv_flex.h ****  */
   5:Drivers/lvgl/lvgl/src/extra/layouts/flex/../flex/lv_flex.h **** 
   6:Drivers/lvgl/lvgl/src/extra/layouts/flex/../flex/lv_flex.h **** #ifndef LV_FLEX_H
   7:Drivers/lvgl/lvgl/src/extra/layouts/flex/../flex/lv_flex.h **** #define LV_FLEX_H
   8:Drivers/lvgl/lvgl/src/extra/layouts/flex/../flex/lv_flex.h **** 
   9:Drivers/lvgl/lvgl/src/extra/layouts/flex/../flex/lv_flex.h **** #ifdef __cplusplus
  10:Drivers/lvgl/lvgl/src/extra/layouts/flex/../flex/lv_flex.h **** extern "C" {
  11:Drivers/lvgl/lvgl/src/extra/layouts/flex/../flex/lv_flex.h **** #endif
  12:Drivers/lvgl/lvgl/src/extra/layouts/flex/../flex/lv_flex.h **** 
  13:Drivers/lvgl/lvgl/src/extra/layouts/flex/../flex/lv_flex.h **** /*********************
  14:Drivers/lvgl/lvgl/src/extra/layouts/flex/../flex/lv_flex.h ****  *      INCLUDES
  15:Drivers/lvgl/lvgl/src/extra/layouts/flex/../flex/lv_flex.h ****  *********************/
  16:Drivers/lvgl/lvgl/src/extra/layouts/flex/../flex/lv_flex.h **** #include "../../../core/lv_obj.h"
  17:Drivers/lvgl/lvgl/src/extra/layouts/flex/../flex/lv_flex.h **** #if LV_USE_FLEX
  18:Drivers/lvgl/lvgl/src/extra/layouts/flex/../flex/lv_flex.h **** 
  19:Drivers/lvgl/lvgl/src/extra/layouts/flex/../flex/lv_flex.h **** /*********************
  20:Drivers/lvgl/lvgl/src/extra/layouts/flex/../flex/lv_flex.h ****  *      DEFINES
  21:Drivers/lvgl/lvgl/src/extra/layouts/flex/../flex/lv_flex.h ****  *********************/
  22:Drivers/lvgl/lvgl/src/extra/layouts/flex/../flex/lv_flex.h **** 
  23:Drivers/lvgl/lvgl/src/extra/layouts/flex/../flex/lv_flex.h **** #define LV_OBJ_FLAG_FLEX_IN_NEW_TRACK   LV_OBJ_FLAG_LAYOUT_1
  24:Drivers/lvgl/lvgl/src/extra/layouts/flex/../flex/lv_flex.h **** LV_EXPORT_CONST_INT(LV_OBJ_FLAG_FLEX_IN_NEW_TRACK);
  25:Drivers/lvgl/lvgl/src/extra/layouts/flex/../flex/lv_flex.h **** 
  26:Drivers/lvgl/lvgl/src/extra/layouts/flex/../flex/lv_flex.h **** #define _LV_FLEX_COLUMN        (1 << 0)
ARM GAS  /tmp/ccbxNlti.s 			page 23


  27:Drivers/lvgl/lvgl/src/extra/layouts/flex/../flex/lv_flex.h **** #define _LV_FLEX_WRAP       (1 << 2)
  28:Drivers/lvgl/lvgl/src/extra/layouts/flex/../flex/lv_flex.h **** #define _LV_FLEX_REVERSE    (1 << 3)
  29:Drivers/lvgl/lvgl/src/extra/layouts/flex/../flex/lv_flex.h **** 
  30:Drivers/lvgl/lvgl/src/extra/layouts/flex/../flex/lv_flex.h **** /**********************
  31:Drivers/lvgl/lvgl/src/extra/layouts/flex/../flex/lv_flex.h ****  *      TYPEDEFS
  32:Drivers/lvgl/lvgl/src/extra/layouts/flex/../flex/lv_flex.h ****  **********************/
  33:Drivers/lvgl/lvgl/src/extra/layouts/flex/../flex/lv_flex.h **** 
  34:Drivers/lvgl/lvgl/src/extra/layouts/flex/../flex/lv_flex.h **** /*Can't include lv_obj.h because it includes this header file*/
  35:Drivers/lvgl/lvgl/src/extra/layouts/flex/../flex/lv_flex.h **** struct _lv_obj_t;
  36:Drivers/lvgl/lvgl/src/extra/layouts/flex/../flex/lv_flex.h **** 
  37:Drivers/lvgl/lvgl/src/extra/layouts/flex/../flex/lv_flex.h **** typedef enum {
  38:Drivers/lvgl/lvgl/src/extra/layouts/flex/../flex/lv_flex.h ****     LV_FLEX_ALIGN_START,
  39:Drivers/lvgl/lvgl/src/extra/layouts/flex/../flex/lv_flex.h ****     LV_FLEX_ALIGN_END,
  40:Drivers/lvgl/lvgl/src/extra/layouts/flex/../flex/lv_flex.h ****     LV_FLEX_ALIGN_CENTER,
  41:Drivers/lvgl/lvgl/src/extra/layouts/flex/../flex/lv_flex.h ****     LV_FLEX_ALIGN_SPACE_EVENLY,
  42:Drivers/lvgl/lvgl/src/extra/layouts/flex/../flex/lv_flex.h ****     LV_FLEX_ALIGN_SPACE_AROUND,
  43:Drivers/lvgl/lvgl/src/extra/layouts/flex/../flex/lv_flex.h ****     LV_FLEX_ALIGN_SPACE_BETWEEN,
  44:Drivers/lvgl/lvgl/src/extra/layouts/flex/../flex/lv_flex.h **** } lv_flex_align_t;
  45:Drivers/lvgl/lvgl/src/extra/layouts/flex/../flex/lv_flex.h **** 
  46:Drivers/lvgl/lvgl/src/extra/layouts/flex/../flex/lv_flex.h **** typedef enum {
  47:Drivers/lvgl/lvgl/src/extra/layouts/flex/../flex/lv_flex.h ****     LV_FLEX_FLOW_ROW                 = 0x00,
  48:Drivers/lvgl/lvgl/src/extra/layouts/flex/../flex/lv_flex.h ****     LV_FLEX_FLOW_COLUMN              = _LV_FLEX_COLUMN,
  49:Drivers/lvgl/lvgl/src/extra/layouts/flex/../flex/lv_flex.h ****     LV_FLEX_FLOW_ROW_WRAP            = LV_FLEX_FLOW_ROW | _LV_FLEX_WRAP,
  50:Drivers/lvgl/lvgl/src/extra/layouts/flex/../flex/lv_flex.h ****     LV_FLEX_FLOW_ROW_REVERSE         = LV_FLEX_FLOW_ROW | _LV_FLEX_REVERSE,
  51:Drivers/lvgl/lvgl/src/extra/layouts/flex/../flex/lv_flex.h ****     LV_FLEX_FLOW_ROW_WRAP_REVERSE    = LV_FLEX_FLOW_ROW | _LV_FLEX_WRAP | _LV_FLEX_REVERSE,
  52:Drivers/lvgl/lvgl/src/extra/layouts/flex/../flex/lv_flex.h ****     LV_FLEX_FLOW_COLUMN_WRAP         = LV_FLEX_FLOW_COLUMN | _LV_FLEX_WRAP,
  53:Drivers/lvgl/lvgl/src/extra/layouts/flex/../flex/lv_flex.h ****     LV_FLEX_FLOW_COLUMN_REVERSE      = LV_FLEX_FLOW_COLUMN | _LV_FLEX_REVERSE,
  54:Drivers/lvgl/lvgl/src/extra/layouts/flex/../flex/lv_flex.h ****     LV_FLEX_FLOW_COLUMN_WRAP_REVERSE = LV_FLEX_FLOW_COLUMN | _LV_FLEX_WRAP | _LV_FLEX_REVERSE,
  55:Drivers/lvgl/lvgl/src/extra/layouts/flex/../flex/lv_flex.h **** } lv_flex_flow_t;
  56:Drivers/lvgl/lvgl/src/extra/layouts/flex/../flex/lv_flex.h **** 
  57:Drivers/lvgl/lvgl/src/extra/layouts/flex/../flex/lv_flex.h **** /**********************
  58:Drivers/lvgl/lvgl/src/extra/layouts/flex/../flex/lv_flex.h ****  * GLOBAL VARIABLES
  59:Drivers/lvgl/lvgl/src/extra/layouts/flex/../flex/lv_flex.h ****  **********************/
  60:Drivers/lvgl/lvgl/src/extra/layouts/flex/../flex/lv_flex.h **** extern uint16_t LV_LAYOUT_FLEX;
  61:Drivers/lvgl/lvgl/src/extra/layouts/flex/../flex/lv_flex.h **** extern lv_style_prop_t LV_STYLE_FLEX_FLOW;
  62:Drivers/lvgl/lvgl/src/extra/layouts/flex/../flex/lv_flex.h **** extern lv_style_prop_t LV_STYLE_FLEX_MAIN_PLACE;
  63:Drivers/lvgl/lvgl/src/extra/layouts/flex/../flex/lv_flex.h **** extern lv_style_prop_t LV_STYLE_FLEX_CROSS_PLACE;
  64:Drivers/lvgl/lvgl/src/extra/layouts/flex/../flex/lv_flex.h **** extern lv_style_prop_t LV_STYLE_FLEX_TRACK_PLACE;
  65:Drivers/lvgl/lvgl/src/extra/layouts/flex/../flex/lv_flex.h **** extern lv_style_prop_t LV_STYLE_FLEX_GROW;
  66:Drivers/lvgl/lvgl/src/extra/layouts/flex/../flex/lv_flex.h **** 
  67:Drivers/lvgl/lvgl/src/extra/layouts/flex/../flex/lv_flex.h **** /**********************
  68:Drivers/lvgl/lvgl/src/extra/layouts/flex/../flex/lv_flex.h ****  * GLOBAL PROTOTYPES
  69:Drivers/lvgl/lvgl/src/extra/layouts/flex/../flex/lv_flex.h ****  **********************/
  70:Drivers/lvgl/lvgl/src/extra/layouts/flex/../flex/lv_flex.h **** 
  71:Drivers/lvgl/lvgl/src/extra/layouts/flex/../flex/lv_flex.h **** /**
  72:Drivers/lvgl/lvgl/src/extra/layouts/flex/../flex/lv_flex.h ****  * Initialize a flex layout the default values
  73:Drivers/lvgl/lvgl/src/extra/layouts/flex/../flex/lv_flex.h ****  * @param flex pointer to a flex layout descriptor
  74:Drivers/lvgl/lvgl/src/extra/layouts/flex/../flex/lv_flex.h ****  */
  75:Drivers/lvgl/lvgl/src/extra/layouts/flex/../flex/lv_flex.h **** void lv_flex_init(void);
  76:Drivers/lvgl/lvgl/src/extra/layouts/flex/../flex/lv_flex.h **** 
  77:Drivers/lvgl/lvgl/src/extra/layouts/flex/../flex/lv_flex.h **** /**
  78:Drivers/lvgl/lvgl/src/extra/layouts/flex/../flex/lv_flex.h ****  * Set hot the item should flow
  79:Drivers/lvgl/lvgl/src/extra/layouts/flex/../flex/lv_flex.h ****  * @param flex pointer to a flex layout descriptor
  80:Drivers/lvgl/lvgl/src/extra/layouts/flex/../flex/lv_flex.h ****  * @param flow an element of `lv_flex_flow_t`.
  81:Drivers/lvgl/lvgl/src/extra/layouts/flex/../flex/lv_flex.h ****  */
  82:Drivers/lvgl/lvgl/src/extra/layouts/flex/../flex/lv_flex.h **** void lv_obj_set_flex_flow(lv_obj_t * obj, lv_flex_flow_t flow);
  83:Drivers/lvgl/lvgl/src/extra/layouts/flex/../flex/lv_flex.h **** 
ARM GAS  /tmp/ccbxNlti.s 			page 24


  84:Drivers/lvgl/lvgl/src/extra/layouts/flex/../flex/lv_flex.h **** /**
  85:Drivers/lvgl/lvgl/src/extra/layouts/flex/../flex/lv_flex.h ****  * Set how to place (where to align) the items and tracks
  86:Drivers/lvgl/lvgl/src/extra/layouts/flex/../flex/lv_flex.h ****  * @param flex pointer: to a flex layout descriptor
  87:Drivers/lvgl/lvgl/src/extra/layouts/flex/../flex/lv_flex.h ****  * @param main_place where to place the items on main axis (in their track). Any value of `lv_flex_
  88:Drivers/lvgl/lvgl/src/extra/layouts/flex/../flex/lv_flex.h ****  * @param cross_place where to place the item in their track on the cross axis. `LV_FLEX_ALIGN_STAR
  89:Drivers/lvgl/lvgl/src/extra/layouts/flex/../flex/lv_flex.h ****  * @param track_place where to place the tracks in the cross direction. Any value of `lv_flex_align
  90:Drivers/lvgl/lvgl/src/extra/layouts/flex/../flex/lv_flex.h ****  */
  91:Drivers/lvgl/lvgl/src/extra/layouts/flex/../flex/lv_flex.h **** void lv_obj_set_flex_align(lv_obj_t * obj, lv_flex_align_t main_place, lv_flex_align_t cross_place,
  92:Drivers/lvgl/lvgl/src/extra/layouts/flex/../flex/lv_flex.h ****                            lv_flex_align_t track_cross_place);
  93:Drivers/lvgl/lvgl/src/extra/layouts/flex/../flex/lv_flex.h **** 
  94:Drivers/lvgl/lvgl/src/extra/layouts/flex/../flex/lv_flex.h **** /**
  95:Drivers/lvgl/lvgl/src/extra/layouts/flex/../flex/lv_flex.h ****  * Sets the width or height (on main axis) to grow the object in order fill the free space
  96:Drivers/lvgl/lvgl/src/extra/layouts/flex/../flex/lv_flex.h ****  * @param obj pointer to an object. The parent must have flex layout else nothing will happen.
  97:Drivers/lvgl/lvgl/src/extra/layouts/flex/../flex/lv_flex.h ****  * @param grow a value to set how much free space to take proportionally to other growing items.
  98:Drivers/lvgl/lvgl/src/extra/layouts/flex/../flex/lv_flex.h ****  */
  99:Drivers/lvgl/lvgl/src/extra/layouts/flex/../flex/lv_flex.h **** void lv_obj_set_flex_grow(lv_obj_t * obj, uint8_t grow);
 100:Drivers/lvgl/lvgl/src/extra/layouts/flex/../flex/lv_flex.h **** 
 101:Drivers/lvgl/lvgl/src/extra/layouts/flex/../flex/lv_flex.h **** void lv_style_set_flex_flow(lv_style_t * style, lv_flex_flow_t value);
 102:Drivers/lvgl/lvgl/src/extra/layouts/flex/../flex/lv_flex.h **** void lv_style_set_flex_main_place(lv_style_t * style, lv_flex_align_t value);
 103:Drivers/lvgl/lvgl/src/extra/layouts/flex/../flex/lv_flex.h **** void lv_style_set_flex_cross_place(lv_style_t * style, lv_flex_align_t value);
 104:Drivers/lvgl/lvgl/src/extra/layouts/flex/../flex/lv_flex.h **** void lv_style_set_flex_track_place(lv_style_t * style, lv_flex_align_t value);
 105:Drivers/lvgl/lvgl/src/extra/layouts/flex/../flex/lv_flex.h **** void lv_style_set_flex_grow(lv_style_t * style, uint8_t value);
 106:Drivers/lvgl/lvgl/src/extra/layouts/flex/../flex/lv_flex.h **** void lv_obj_set_style_flex_flow(lv_obj_t * obj, lv_flex_flow_t value, lv_style_selector_t selector)
 107:Drivers/lvgl/lvgl/src/extra/layouts/flex/../flex/lv_flex.h **** void lv_obj_set_style_flex_main_place(lv_obj_t * obj, lv_flex_align_t value, lv_style_selector_t se
 108:Drivers/lvgl/lvgl/src/extra/layouts/flex/../flex/lv_flex.h **** void lv_obj_set_style_flex_cross_place(lv_obj_t * obj, lv_flex_align_t value, lv_style_selector_t s
 109:Drivers/lvgl/lvgl/src/extra/layouts/flex/../flex/lv_flex.h **** void lv_obj_set_style_flex_track_place(lv_obj_t * obj, lv_flex_align_t value, lv_style_selector_t s
 110:Drivers/lvgl/lvgl/src/extra/layouts/flex/../flex/lv_flex.h **** void lv_obj_set_style_flex_grow(lv_obj_t * obj, uint8_t value, lv_style_selector_t selector);
 111:Drivers/lvgl/lvgl/src/extra/layouts/flex/../flex/lv_flex.h **** 
 112:Drivers/lvgl/lvgl/src/extra/layouts/flex/../flex/lv_flex.h **** static inline lv_flex_flow_t lv_obj_get_style_flex_flow(const lv_obj_t * obj, uint32_t part)
 113:Drivers/lvgl/lvgl/src/extra/layouts/flex/../flex/lv_flex.h **** {
 114:Drivers/lvgl/lvgl/src/extra/layouts/flex/../flex/lv_flex.h ****     lv_style_value_t v = lv_obj_get_style_prop(obj, part, LV_STYLE_FLEX_FLOW);
 115:Drivers/lvgl/lvgl/src/extra/layouts/flex/../flex/lv_flex.h ****     return (lv_flex_flow_t)v.num;
 116:Drivers/lvgl/lvgl/src/extra/layouts/flex/../flex/lv_flex.h **** }
 117:Drivers/lvgl/lvgl/src/extra/layouts/flex/../flex/lv_flex.h **** 
 118:Drivers/lvgl/lvgl/src/extra/layouts/flex/../flex/lv_flex.h **** static inline lv_flex_align_t lv_obj_get_style_flex_main_place(const lv_obj_t * obj, uint32_t part)
 119:Drivers/lvgl/lvgl/src/extra/layouts/flex/../flex/lv_flex.h **** {
 120:Drivers/lvgl/lvgl/src/extra/layouts/flex/../flex/lv_flex.h ****     lv_style_value_t v = lv_obj_get_style_prop(obj, part, LV_STYLE_FLEX_MAIN_PLACE);
 121:Drivers/lvgl/lvgl/src/extra/layouts/flex/../flex/lv_flex.h ****     return (lv_flex_align_t)v.num;
 122:Drivers/lvgl/lvgl/src/extra/layouts/flex/../flex/lv_flex.h **** }
 123:Drivers/lvgl/lvgl/src/extra/layouts/flex/../flex/lv_flex.h **** 
 124:Drivers/lvgl/lvgl/src/extra/layouts/flex/../flex/lv_flex.h **** static inline lv_flex_align_t lv_obj_get_style_flex_cross_place(const lv_obj_t * obj, uint32_t part
 125:Drivers/lvgl/lvgl/src/extra/layouts/flex/../flex/lv_flex.h **** {
 126:Drivers/lvgl/lvgl/src/extra/layouts/flex/../flex/lv_flex.h ****     lv_style_value_t v = lv_obj_get_style_prop(obj, part, LV_STYLE_FLEX_CROSS_PLACE);
 127:Drivers/lvgl/lvgl/src/extra/layouts/flex/../flex/lv_flex.h ****     return (lv_flex_align_t)v.num;
 128:Drivers/lvgl/lvgl/src/extra/layouts/flex/../flex/lv_flex.h **** }
 129:Drivers/lvgl/lvgl/src/extra/layouts/flex/../flex/lv_flex.h **** 
 130:Drivers/lvgl/lvgl/src/extra/layouts/flex/../flex/lv_flex.h **** static inline lv_flex_align_t lv_obj_get_style_flex_track_place(const lv_obj_t * obj, uint32_t part
 131:Drivers/lvgl/lvgl/src/extra/layouts/flex/../flex/lv_flex.h **** {
 132:Drivers/lvgl/lvgl/src/extra/layouts/flex/../flex/lv_flex.h ****     lv_style_value_t v = lv_obj_get_style_prop(obj, part, LV_STYLE_FLEX_TRACK_PLACE);
 133:Drivers/lvgl/lvgl/src/extra/layouts/flex/../flex/lv_flex.h ****     return (lv_flex_align_t)v.num;
 134:Drivers/lvgl/lvgl/src/extra/layouts/flex/../flex/lv_flex.h **** }
 135:Drivers/lvgl/lvgl/src/extra/layouts/flex/../flex/lv_flex.h **** 
 136:Drivers/lvgl/lvgl/src/extra/layouts/flex/../flex/lv_flex.h **** static inline uint8_t lv_obj_get_style_flex_grow(const lv_obj_t * obj, uint32_t part)
 137:Drivers/lvgl/lvgl/src/extra/layouts/flex/../flex/lv_flex.h **** {
 138:Drivers/lvgl/lvgl/src/extra/layouts/flex/../flex/lv_flex.h ****     lv_style_value_t v = lv_obj_get_style_prop(obj, part, LV_STYLE_FLEX_GROW);
 444              		.loc 4 138 0
 445 008e 764B     		ldr	r3, .L57
ARM GAS  /tmp/ccbxNlti.s 			page 25


 446 0090 1A88     		ldrh	r2, [r3]
 447 0092 0021     		movs	r1, #0
 448 0094 2046     		mov	r0, r4
 449 0096 FFF7FEFF 		bl	lv_obj_get_style_prop
 450              	.LVL56:
 451 009a 8146     		mov	r9, r0
 452              	.LVL57:
 453              	.LBE70:
 454              	.LBE69:
 345:Drivers/lvgl/lvgl/src/extra/layouts/flex/lv_flex.c ****                 t->grow_item_cnt++;
 455              		.loc 2 345 0
 456 009c 10F0FF0F 		tst	r0, #255
 457 00a0 1FD1     		bne	.L54
 458              	.LBB71:
 368:Drivers/lvgl/lvgl/src/extra/layouts/flex/lv_flex.c ****                 if(f->wrap && t->track_fix_main_size + item_size > max_main_size) break;
 459              		.loc 2 368 0
 460 00a2 2046     		mov	r0, r4
 461 00a4 D847     		blx	fp
 462              	.LVL58:
 369:Drivers/lvgl/lvgl/src/extra/layouts/flex/lv_flex.c ****                 t->track_fix_main_size += item_size + item_gap;
 463              		.loc 2 369 0
 464 00a6 FB78     		ldrb	r3, [r7, #3]	@ zero_extendqisi2
 465 00a8 13F0020F 		tst	r3, #2
 466 00ac 06D0     		beq	.L43
 369:Drivers/lvgl/lvgl/src/extra/layouts/flex/lv_flex.c ****                 t->track_fix_main_size += item_size + item_gap;
 467              		.loc 2 369 0 is_stmt 0 discriminator 1
 468 00ae B5F90430 		ldrsh	r3, [r5, #4]
 469 00b2 0344     		add	r3, r3, r0
 470 00b4 029A     		ldr	r2, [sp, #8]
 471 00b6 9342     		cmp	r3, r2
 472 00b8 00F3A380 		bgt	.L32
 473              	.L43:
 370:Drivers/lvgl/lvgl/src/extra/layouts/flex/lv_flex.c ****             }
 474              		.loc 2 370 0 is_stmt 1
 475 00bc 5044     		add	r0, r0, r10
 476              	.LVL59:
 477 00be AB88     		ldrh	r3, [r5, #4]
 478 00c0 13FA80F0 		uxtah	r0, r3, r0
 479 00c4 A880     		strh	r0, [r5, #4]	@ movhi
 480              	.L35:
 481              	.LBE71:
 374:Drivers/lvgl/lvgl/src/extra/layouts/flex/lv_flex.c ****             t->item_cnt++;
 482              		.loc 2 374 0
 483 00c6 2046     		mov	r0, r4
 484 00c8 C047     		blx	r8
 485              	.LVL60:
 486 00ca B5F90030 		ldrsh	r3, [r5]
 487 00ce 9842     		cmp	r0, r3
 488 00d0 02DD     		ble	.L44
 374:Drivers/lvgl/lvgl/src/extra/layouts/flex/lv_flex.c ****             t->item_cnt++;
 489              		.loc 2 374 0 is_stmt 0 discriminator 1
 490 00d2 2046     		mov	r0, r4
 491 00d4 C047     		blx	r8
 492              	.LVL61:
 493 00d6 0346     		mov	r3, r0
 494              	.L44:
 374:Drivers/lvgl/lvgl/src/extra/layouts/flex/lv_flex.c ****             t->item_cnt++;
ARM GAS  /tmp/ccbxNlti.s 			page 26


 495              		.loc 2 374 0 discriminator 4
 496 00d8 2B80     		strh	r3, [r5]	@ movhi
 375:Drivers/lvgl/lvgl/src/extra/layouts/flex/lv_flex.c ****         }
 497              		.loc 2 375 0 is_stmt 1 discriminator 4
 498 00da AB68     		ldr	r3, [r5, #8]
 499 00dc 0133     		adds	r3, r3, #1
 500 00de AB60     		str	r3, [r5, #8]
 501 00e0 88E0     		b	.L33
 502              	.L54:
 346:Drivers/lvgl/lvgl/src/extra/layouts/flex/lv_flex.c ****                 t->track_fix_main_size += item_gap;
 503              		.loc 2 346 0
 504 00e2 2B69     		ldr	r3, [r5, #16]
 505 00e4 0133     		adds	r3, r3, #1
 506 00e6 2B61     		str	r3, [r5, #16]
 347:Drivers/lvgl/lvgl/src/extra/layouts/flex/lv_flex.c ****                 if(t->grow_dsc_calc) {
 507              		.loc 2 347 0
 508 00e8 AA88     		ldrh	r2, [r5, #4]
 509 00ea 5244     		add	r2, r2, r10
 510 00ec AA80     		strh	r2, [r5, #4]	@ movhi
 348:Drivers/lvgl/lvgl/src/extra/layouts/flex/lv_flex.c ****                     grow_dsc_t * new_dsc = lv_mem_buf_get(sizeof(grow_dsc_t) * (t->grow_item_cnt));
 511              		.loc 2 348 0
 512 00ee 2A7D     		ldrb	r2, [r5, #20]	@ zero_extendqisi2
 513 00f0 12F0010F 		tst	r2, #1
 514 00f4 E7D0     		beq	.L35
 515              	.LBB72:
 349:Drivers/lvgl/lvgl/src/extra/layouts/flex/lv_flex.c ****                     LV_ASSERT_MALLOC(new_dsc);
 516              		.loc 2 349 0
 517 00f6 03EB8303 		add	r3, r3, r3, lsl #2
 518 00fa 9800     		lsls	r0, r3, #2
 519 00fc FFF7FEFF 		bl	lv_mem_buf_get
 520              	.LVL62:
 350:Drivers/lvgl/lvgl/src/extra/layouts/flex/lv_flex.c ****                     if(new_dsc == NULL) return item_id;
 521              		.loc 2 350 0
 522 0100 0390     		str	r0, [sp, #12]
 523 0102 0028     		cmp	r0, #0
 524 0104 4CD0     		beq	.L37
 353:Drivers/lvgl/lvgl/src/extra/layouts/flex/lv_flex.c ****                         lv_memcpy(new_dsc, t->grow_dsc, sizeof(grow_dsc_t) * (t->grow_item_cnt - 1)
 525              		.loc 2 353 0
 526 0106 E968     		ldr	r1, [r5, #12]
 527 0108 51B1     		cbz	r1, .L38
 354:Drivers/lvgl/lvgl/src/extra/layouts/flex/lv_flex.c ****                         lv_mem_buf_release(t->grow_dsc);
 528              		.loc 2 354 0
 529 010a 2B69     		ldr	r3, [r5, #16]
 530 010c 03EB8303 		add	r3, r3, r3, lsl #2
 531 0110 9A00     		lsls	r2, r3, #2
 532 0112 143A     		subs	r2, r2, #20
 533 0114 0398     		ldr	r0, [sp, #12]
 534 0116 FFF7FEFF 		bl	lv_memcpy
 535              	.LVL63:
 355:Drivers/lvgl/lvgl/src/extra/layouts/flex/lv_flex.c ****                     }
 536              		.loc 2 355 0
 537 011a E868     		ldr	r0, [r5, #12]
 538 011c FFF7FEFF 		bl	lv_mem_buf_release
 539              	.LVL64:
 540              	.L38:
 357:Drivers/lvgl/lvgl/src/extra/layouts/flex/lv_flex.c ****                     new_dsc[t->grow_item_cnt - 1].min_size = f->row ? lv_obj_get_style_min_width(it
 541              		.loc 2 357 0
ARM GAS  /tmp/ccbxNlti.s 			page 27


 542 0120 2B69     		ldr	r3, [r5, #16]
 543 0122 03EB8303 		add	r3, r3, r3, lsl #2
 544 0126 9A00     		lsls	r2, r3, #2
 545 0128 143A     		subs	r2, r2, #20
 546 012a 039B     		ldr	r3, [sp, #12]
 547 012c 9C50     		str	r4, [r3, r2]
 358:Drivers/lvgl/lvgl/src/extra/layouts/flex/lv_flex.c ****                                                                                                  LV
 548              		.loc 2 358 0
 549 012e FB78     		ldrb	r3, [r7, #3]	@ zero_extendqisi2
 550 0130 13F0010F 		tst	r3, #1
 551 0134 35D0     		beq	.L39
 552              	.LVL65:
 553              	.LBB73:
 554              	.LBB74:
   9:Drivers/lvgl/lvgl/src/extra/layouts/flex/../flex/../../../core/lv_obj_style_gen.h ****     return (lv_coord_t)v.num;
 555              		.loc 3 9 0
 556 0136 0222     		movs	r2, #2
 557 0138 0021     		movs	r1, #0
 558 013a 2046     		mov	r0, r4
 559 013c FFF7FEFF 		bl	lv_obj_get_style_prop
 560              	.LVL66:
  10:Drivers/lvgl/lvgl/src/extra/layouts/flex/../flex/../../../core/lv_obj_style_gen.h **** }
 561              		.loc 3 10 0
 562 0140 00B2     		sxth	r0, r0
 563              	.LVL67:
 564              	.L40:
 565              	.LBE74:
 566              	.LBE73:
 358:Drivers/lvgl/lvgl/src/extra/layouts/flex/lv_flex.c ****                                                                                                  LV
 567              		.loc 2 358 0 discriminator 4
 568 0142 2A69     		ldr	r2, [r5, #16]
 569 0144 02EB8202 		add	r2, r2, r2, lsl #2
 570 0148 9300     		lsls	r3, r2, #2
 571 014a 143B     		subs	r3, r3, #20
 572 014c 039A     		ldr	r2, [sp, #12]
 573 014e 1344     		add	r3, r3, r2
 574 0150 9880     		strh	r0, [r3, #4]	@ movhi
 360:Drivers/lvgl/lvgl/src/extra/layouts/flex/lv_flex.c ****                                                                                                  LV
 575              		.loc 2 360 0 discriminator 4
 576 0152 FB78     		ldrb	r3, [r7, #3]	@ zero_extendqisi2
 577 0154 13F0010F 		tst	r3, #1
 578 0158 2AD0     		beq	.L41
 579              	.LVL68:
 580              	.LBB75:
 581              	.LBB76:
  15:Drivers/lvgl/lvgl/src/extra/layouts/flex/../flex/../../../core/lv_obj_style_gen.h ****     return (lv_coord_t)v.num;
 582              		.loc 3 15 0
 583 015a 0322     		movs	r2, #3
 584 015c 0021     		movs	r1, #0
 585 015e 2046     		mov	r0, r4
 586 0160 FFF7FEFF 		bl	lv_obj_get_style_prop
 587              	.LVL69:
  16:Drivers/lvgl/lvgl/src/extra/layouts/flex/../flex/../../../core/lv_obj_style_gen.h **** }
 588              		.loc 3 16 0
 589 0164 00B2     		sxth	r0, r0
 590              	.LVL70:
 591              	.L42:
ARM GAS  /tmp/ccbxNlti.s 			page 28


 592              	.LBE76:
 593              	.LBE75:
 360:Drivers/lvgl/lvgl/src/extra/layouts/flex/lv_flex.c ****                                                                                                  LV
 594              		.loc 2 360 0 discriminator 4
 595 0166 2A69     		ldr	r2, [r5, #16]
 596 0168 02EB8202 		add	r2, r2, r2, lsl #2
 597 016c 9300     		lsls	r3, r2, #2
 598 016e 143B     		subs	r3, r3, #20
 599 0170 0399     		ldr	r1, [sp, #12]
 600 0172 0B44     		add	r3, r3, r1
 601 0174 D880     		strh	r0, [r3, #6]	@ movhi
 362:Drivers/lvgl/lvgl/src/extra/layouts/flex/lv_flex.c ****                     new_dsc[t->grow_item_cnt - 1].clamped = 0;
 602              		.loc 2 362 0 discriminator 4
 603 0176 2A69     		ldr	r2, [r5, #16]
 604 0178 02EB8202 		add	r2, r2, r2, lsl #2
 605 017c 9300     		lsls	r3, r2, #2
 606 017e 143B     		subs	r3, r3, #20
 607 0180 CA18     		adds	r2, r1, r3
 608 0182 5FFA89F3 		uxtb	r3, r9
 609 0186 D360     		str	r3, [r2, #12]
 363:Drivers/lvgl/lvgl/src/extra/layouts/flex/lv_flex.c ****                     t->grow_dsc = new_dsc;
 610              		.loc 2 363 0 discriminator 4
 611 0188 2A69     		ldr	r2, [r5, #16]
 612 018a 02EB8202 		add	r2, r2, r2, lsl #2
 613 018e 9300     		lsls	r3, r2, #2
 614 0190 143B     		subs	r3, r3, #20
 615 0192 0B44     		add	r3, r3, r1
 616 0194 1A7C     		ldrb	r2, [r3, #16]	@ zero_extendqisi2
 617 0196 6FF30002 		bfc	r2, #0, #1
 618 019a 1A74     		strb	r2, [r3, #16]
 364:Drivers/lvgl/lvgl/src/extra/layouts/flex/lv_flex.c ****                 }
 619              		.loc 2 364 0 discriminator 4
 620 019c E960     		str	r1, [r5, #12]
 621 019e 92E7     		b	.L35
 622              	.LVL71:
 623              	.L37:
 624 01a0 FEE7     		b	.L37
 625              	.LVL72:
 626              	.L39:
 627              	.LBB77:
 628              	.LBB78:
  22:Drivers/lvgl/lvgl/src/extra/layouts/flex/../flex/../../../core/lv_obj_style_gen.h ****     return (lv_coord_t)v.num;
  23:Drivers/lvgl/lvgl/src/extra/layouts/flex/../flex/../../../core/lv_obj_style_gen.h **** }
  24:Drivers/lvgl/lvgl/src/extra/layouts/flex/../flex/../../../core/lv_obj_style_gen.h **** 
  25:Drivers/lvgl/lvgl/src/extra/layouts/flex/../flex/../../../core/lv_obj_style_gen.h **** static inline lv_coord_t lv_obj_get_style_min_height(const struct _lv_obj_t * obj, uint32_t part)
  26:Drivers/lvgl/lvgl/src/extra/layouts/flex/../flex/../../../core/lv_obj_style_gen.h **** {
  27:Drivers/lvgl/lvgl/src/extra/layouts/flex/../flex/../../../core/lv_obj_style_gen.h ****     lv_style_value_t v = lv_obj_get_style_prop(obj, part, LV_STYLE_MIN_HEIGHT);
 629              		.loc 3 27 0
 630 01a2 0522     		movs	r2, #5
 631 01a4 0021     		movs	r1, #0
 632 01a6 2046     		mov	r0, r4
 633 01a8 FFF7FEFF 		bl	lv_obj_get_style_prop
 634              	.LVL73:
  28:Drivers/lvgl/lvgl/src/extra/layouts/flex/../flex/../../../core/lv_obj_style_gen.h ****     return (lv_coord_t)v.num;
 635              		.loc 3 28 0
 636 01ac 00B2     		sxth	r0, r0
 637              	.LVL74:
ARM GAS  /tmp/ccbxNlti.s 			page 29


 638 01ae C8E7     		b	.L40
 639              	.L41:
 640              	.LVL75:
 641              	.LBE78:
 642              	.LBE77:
 643              	.LBB79:
 644              	.LBB80:
  29:Drivers/lvgl/lvgl/src/extra/layouts/flex/../flex/../../../core/lv_obj_style_gen.h **** }
  30:Drivers/lvgl/lvgl/src/extra/layouts/flex/../flex/../../../core/lv_obj_style_gen.h **** 
  31:Drivers/lvgl/lvgl/src/extra/layouts/flex/../flex/../../../core/lv_obj_style_gen.h **** static inline lv_coord_t lv_obj_get_style_max_height(const struct _lv_obj_t * obj, uint32_t part)
  32:Drivers/lvgl/lvgl/src/extra/layouts/flex/../flex/../../../core/lv_obj_style_gen.h **** {
  33:Drivers/lvgl/lvgl/src/extra/layouts/flex/../flex/../../../core/lv_obj_style_gen.h ****     lv_style_value_t v = lv_obj_get_style_prop(obj, part, LV_STYLE_MAX_HEIGHT);
 645              		.loc 3 33 0
 646 01b0 0622     		movs	r2, #6
 647 01b2 0021     		movs	r1, #0
 648 01b4 2046     		mov	r0, r4
 649 01b6 FFF7FEFF 		bl	lv_obj_get_style_prop
 650              	.LVL76:
  34:Drivers/lvgl/lvgl/src/extra/layouts/flex/../flex/../../../core/lv_obj_style_gen.h ****     return (lv_coord_t)v.num;
 651              		.loc 3 34 0
 652 01ba 00B2     		sxth	r0, r0
 653              	.LVL77:
 654 01bc D3E7     		b	.L42
 655              	.LVL78:
 656              	.L52:
 657              	.LBE80:
 658              	.LBE79:
 659              	.LBE72:
 660              	.LBE68:
 378:Drivers/lvgl/lvgl/src/extra/layouts/flex/lv_flex.c ****         if(item_id < 0) break;
 661              		.loc 2 378 0
 662 01be 0121     		movs	r1, #1
 663              	.L45:
 378:Drivers/lvgl/lvgl/src/extra/layouts/flex/lv_flex.c ****         if(item_id < 0) break;
 664              		.loc 2 378 0 is_stmt 0 discriminator 4
 665 01c0 059B     		ldr	r3, [sp, #20]
 666 01c2 1944     		add	r1, r1, r3
 667 01c4 0591     		str	r1, [sp, #20]
 379:Drivers/lvgl/lvgl/src/extra/layouts/flex/lv_flex.c ****         item = lv_obj_get_child(cont, item_id);
 668              		.loc 2 379 0 is_stmt 1 discriminator 4
 669 01c6 0029     		cmp	r1, #0
 670 01c8 1BDB     		blt	.L32
 380:Drivers/lvgl/lvgl/src/extra/layouts/flex/lv_flex.c ****     }
 671              		.loc 2 380 0
 672 01ca 0198     		ldr	r0, [sp, #4]
 673 01cc FFF7FEFF 		bl	lv_obj_get_child
 674              	.LVL79:
 675 01d0 0446     		mov	r4, r0
 676              	.LVL80:
 677              	.L30:
 340:Drivers/lvgl/lvgl/src/extra/layouts/flex/lv_flex.c ****         if(item_id != item_start_id && lv_obj_has_flag(item, LV_OBJ_FLAG_FLEX_IN_NEW_TRACK)) break;
 678              		.loc 2 340 0
 679 01d2 B4B1     		cbz	r4, .L32
 341:Drivers/lvgl/lvgl/src/extra/layouts/flex/lv_flex.c **** 
 680              		.loc 2 341 0
 681 01d4 059B     		ldr	r3, [sp, #20]
 682 01d6 B342     		cmp	r3, r6
ARM GAS  /tmp/ccbxNlti.s 			page 30


 683 01d8 05D0     		beq	.L31
 341:Drivers/lvgl/lvgl/src/extra/layouts/flex/lv_flex.c **** 
 684              		.loc 2 341 0 is_stmt 0 discriminator 1
 685 01da 4FF40001 		mov	r1, #8388608
 686 01de 2046     		mov	r0, r4
 687 01e0 FFF7FEFF 		bl	lv_obj_has_flag
 688              	.LVL81:
 689 01e4 68B9     		cbnz	r0, .L32
 690              	.L31:
 343:Drivers/lvgl/lvgl/src/extra/layouts/flex/lv_flex.c ****             uint8_t grow_value = lv_obj_get_style_flex_grow(item, LV_PART_MAIN);
 691              		.loc 2 343 0 is_stmt 1
 692 01e6 2149     		ldr	r1, .L57+4
 693 01e8 2046     		mov	r0, r4
 694 01ea FFF7FEFF 		bl	lv_obj_has_flag_any
 695              	.LVL82:
 696 01ee 0028     		cmp	r0, #0
 697 01f0 3FF44DAF 		beq	.L55
 698              	.L33:
 378:Drivers/lvgl/lvgl/src/extra/layouts/flex/lv_flex.c ****         if(item_id < 0) break;
 699              		.loc 2 378 0
 700 01f4 FB78     		ldrb	r3, [r7, #3]	@ zero_extendqisi2
 701 01f6 13F0040F 		tst	r3, #4
 702 01fa E0D0     		beq	.L52
 703 01fc 4FF0FF31 		mov	r1, #-1
 704 0200 DEE7     		b	.L45
 705              	.L32:
 383:Drivers/lvgl/lvgl/src/extra/layouts/flex/lv_flex.c **** 
 706              		.loc 2 383 0
 707 0202 B5F90430 		ldrsh	r3, [r5, #4]
 708 0206 002B     		cmp	r3, #0
 709 0208 02DD     		ble	.L47
 383:Drivers/lvgl/lvgl/src/extra/layouts/flex/lv_flex.c **** 
 710              		.loc 2 383 0 is_stmt 0 discriminator 1
 711 020a A3EB0A03 		sub	r3, r3, r10
 712 020e AB80     		strh	r3, [r5, #4]	@ movhi
 713              	.L47:
 386:Drivers/lvgl/lvgl/src/extra/layouts/flex/lv_flex.c **** 
 714              		.loc 2 386 0 is_stmt 1
 715 0210 2B69     		ldr	r3, [r5, #16]
 716 0212 13B9     		cbnz	r3, .L48
 386:Drivers/lvgl/lvgl/src/extra/layouts/flex/lv_flex.c **** 
 717              		.loc 2 386 0 is_stmt 0 discriminator 1
 718 0214 B5F90430 		ldrsh	r3, [r5, #4]
 719 0218 0293     		str	r3, [sp, #8]
 720              	.L48:
 386:Drivers/lvgl/lvgl/src/extra/layouts/flex/lv_flex.c **** 
 721              		.loc 2 386 0 discriminator 4
 722 021a BDF80830 		ldrh	r3, [sp, #8]
 723 021e 6B80     		strh	r3, [r5, #2]	@ movhi
 389:Drivers/lvgl/lvgl/src/extra/layouts/flex/lv_flex.c ****         item = cont->spec_attr->children[item_id];
 724              		.loc 2 389 0 is_stmt 1 discriminator 4
 725 0220 059B     		ldr	r3, [sp, #20]
 726 0222 B342     		cmp	r3, r6
 727 0224 14BF     		ite	ne
 728 0226 0026     		movne	r6, #0
 729              	.LVL83:
 730 0228 0126     		moveq	r6, #1
ARM GAS  /tmp/ccbxNlti.s 			page 31


 731 022a 002C     		cmp	r4, #0
 732 022c 14BF     		ite	ne
 733 022e 3446     		movne	r4, r6
 734 0230 0024     		moveq	r4, #0
 735              	.LVL84:
 736 0232 1CB9     		cbnz	r4, .L56
 737              	.L49:
 400:Drivers/lvgl/lvgl/src/extra/layouts/flex/lv_flex.c **** 
 738              		.loc 2 400 0
 739 0234 0598     		ldr	r0, [sp, #20]
 740 0236 07B0     		add	sp, sp, #28
 741              	.LCFI5:
 742              		.cfi_remember_state
 743              		.cfi_def_cfa_offset 36
 744              		@ sp needed
 745 0238 BDE8F08F 		pop	{r4, r5, r6, r7, r8, r9, r10, fp, pc}
 746              	.LVL85:
 747              	.L56:
 748              	.LCFI6:
 749              		.cfi_restore_state
 390:Drivers/lvgl/lvgl/src/extra/layouts/flex/lv_flex.c ****         get_next_item(cont, f->rev, &item_id);
 750              		.loc 2 390 0
 751 023c 0198     		ldr	r0, [sp, #4]
 752 023e 8268     		ldr	r2, [r0, #8]
 753 0240 1268     		ldr	r2, [r2]
 754 0242 52F82340 		ldr	r4, [r2, r3, lsl #2]
 755              	.LVL86:
 391:Drivers/lvgl/lvgl/src/extra/layouts/flex/lv_flex.c ****         if(item) {
 756              		.loc 2 391 0
 757 0246 F978     		ldrb	r1, [r7, #3]	@ zero_extendqisi2
 758 0248 05AA     		add	r2, sp, #20
 759 024a C1F38001 		ubfx	r1, r1, #2, #1
 760 024e FFF7FEFF 		bl	get_next_item
 761              	.LVL87:
 392:Drivers/lvgl/lvgl/src/extra/layouts/flex/lv_flex.c ****             t->track_cross_size = get_cross_size(item);
 762              		.loc 2 392 0
 763 0252 002C     		cmp	r4, #0
 764 0254 EED0     		beq	.L49
 393:Drivers/lvgl/lvgl/src/extra/layouts/flex/lv_flex.c ****             t->track_main_size = get_main_size(item);
 765              		.loc 2 393 0
 766 0256 2046     		mov	r0, r4
 767 0258 C047     		blx	r8
 768              	.LVL88:
 769 025a 2880     		strh	r0, [r5]	@ movhi
 394:Drivers/lvgl/lvgl/src/extra/layouts/flex/lv_flex.c ****             t->item_cnt = 1;
 770              		.loc 2 394 0
 771 025c 2046     		mov	r0, r4
 772 025e D847     		blx	fp
 773              	.LVL89:
 774 0260 6880     		strh	r0, [r5, #2]	@ movhi
 395:Drivers/lvgl/lvgl/src/extra/layouts/flex/lv_flex.c ****         }
 775              		.loc 2 395 0
 776 0262 0123     		movs	r3, #1
 777 0264 AB60     		str	r3, [r5, #8]
 778 0266 E5E7     		b	.L49
 779              	.L58:
 780              		.align	2
ARM GAS  /tmp/ccbxNlti.s 			page 32


 781              	.L57:
 782 0268 00000000 		.word	LV_STYLE_FLEX_GROW
 783 026c 01000600 		.word	393217
 784 0270 00000000 		.word	lv_obj_get_width
 785 0274 00000000 		.word	lv_obj_get_height
 786              		.cfi_endproc
 787              	.LFE190:
 789              		.section	.text.children_repos,"ax",%progbits
 790              		.align	1
 791              		.syntax unified
 792              		.thumb
 793              		.thumb_func
 794              		.fpu fpv5-d16
 796              	children_repos:
 797              	.LFB191:
 407:Drivers/lvgl/lvgl/src/extra/layouts/flex/lv_flex.c ****     void (*area_set_main_size)(lv_area_t *, lv_coord_t) = (f->row ? lv_area_set_width : lv_area_set
 798              		.loc 2 407 0
 799              		.cfi_startproc
 800              		@ args = 20, pretend = 0, frame = 64
 801              		@ frame_needed = 0, uses_anonymous_args = 0
 802              	.LVL90:
 803 0000 2DE9F04F 		push	{r4, r5, r6, r7, r8, r9, r10, fp, lr}
 804              	.LCFI7:
 805              		.cfi_def_cfa_offset 36
 806              		.cfi_offset 4, -36
 807              		.cfi_offset 5, -32
 808              		.cfi_offset 6, -28
 809              		.cfi_offset 7, -24
 810              		.cfi_offset 8, -20
 811              		.cfi_offset 9, -16
 812              		.cfi_offset 10, -12
 813              		.cfi_offset 11, -8
 814              		.cfi_offset 14, -4
 815 0004 93B0     		sub	sp, sp, #76
 816              	.LCFI8:
 817              		.cfi_def_cfa_offset 112
 818 0006 8346     		mov	fp, r0
 819 0008 8846     		mov	r8, r1
 820 000a 0D92     		str	r2, [sp, #52]
 821 000c 9A46     		mov	r10, r3
 822 000e BDF97030 		ldrsh	r3, [sp, #112]
 823              	.LVL91:
 824 0012 0A93     		str	r3, [sp, #40]
 825 0014 BDF97430 		ldrsh	r3, [sp, #116]
 826 0018 0B93     		str	r3, [sp, #44]
 827 001a BDF97C30 		ldrsh	r3, [sp, #124]
 828 001e 0793     		str	r3, [sp, #28]
 829 0020 DDF88090 		ldr	r9, [sp, #128]
 408:Drivers/lvgl/lvgl/src/extra/layouts/flex/lv_flex.c ****     lv_coord_t (*area_get_main_size)(const lv_area_t *) = (f->row ? lv_area_get_width : lv_area_get
 830              		.loc 2 408 0
 831 0024 CB78     		ldrb	r3, [r1, #3]	@ zero_extendqisi2
 832 0026 13F00103 		ands	r3, r3, #1
 833 002a 0AD0     		beq	.L106
 834 002c A04A     		ldr	r2, .L125
 835              	.LVL92:
 836 002e 0692     		str	r2, [sp, #24]
 837              	.L60:
ARM GAS  /tmp/ccbxNlti.s 			page 33


 838              	.LVL93:
 409:Drivers/lvgl/lvgl/src/extra/layouts/flex/lv_flex.c ****     lv_coord_t (*area_get_cross_size)(const lv_area_t *) = (!f->row ? lv_area_get_width : lv_area_g
 839              		.loc 2 409 0 discriminator 4
 840 0030 53B1     		cbz	r3, .L107
 409:Drivers/lvgl/lvgl/src/extra/layouts/flex/lv_flex.c ****     lv_coord_t (*area_get_cross_size)(const lv_area_t *) = (!f->row ? lv_area_get_width : lv_area_g
 841              		.loc 2 409 0 is_stmt 0
 842 0032 A04A     		ldr	r2, .L125+4
 843 0034 0392     		str	r2, [sp, #12]
 844              	.L61:
 845              	.LVL94:
 410:Drivers/lvgl/lvgl/src/extra/layouts/flex/lv_flex.c **** 
 846              		.loc 2 410 0 is_stmt 1 discriminator 4
 847 0036 53B9     		cbnz	r3, .L108
 410:Drivers/lvgl/lvgl/src/extra/layouts/flex/lv_flex.c **** 
 848              		.loc 2 410 0 is_stmt 0
 849 0038 9E4B     		ldr	r3, .L125+4
 850 003a 0593     		str	r3, [sp, #20]
 851              	.L62:
 852              	.LVL95:
 414:Drivers/lvgl/lvgl/src/extra/layouts/flex/lv_flex.c ****     while(grow_reiterate) {
 853              		.loc 2 414 0 is_stmt 1 discriminator 4
 854 003c 4FF0010E 		mov	lr, #1
 415:Drivers/lvgl/lvgl/src/extra/layouts/flex/lv_flex.c ****         grow_reiterate = false;
 855              		.loc 2 415 0 discriminator 4
 856 0040 59E0     		b	.L63
 857              	.LVL96:
 858              	.L106:
 408:Drivers/lvgl/lvgl/src/extra/layouts/flex/lv_flex.c ****     lv_coord_t (*area_get_main_size)(const lv_area_t *) = (f->row ? lv_area_get_width : lv_area_get
 859              		.loc 2 408 0
 860 0042 9D4A     		ldr	r2, .L125+8
 861              	.LVL97:
 862 0044 0692     		str	r2, [sp, #24]
 863 0046 F3E7     		b	.L60
 864              	.LVL98:
 865              	.L107:
 409:Drivers/lvgl/lvgl/src/extra/layouts/flex/lv_flex.c ****     lv_coord_t (*area_get_cross_size)(const lv_area_t *) = (!f->row ? lv_area_get_width : lv_area_g
 866              		.loc 2 409 0
 867 0048 9C4A     		ldr	r2, .L125+12
 868 004a 0392     		str	r2, [sp, #12]
 869 004c F3E7     		b	.L61
 870              	.LVL99:
 871              	.L108:
 410:Drivers/lvgl/lvgl/src/extra/layouts/flex/lv_flex.c **** 
 872              		.loc 2 410 0
 873 004e 9B4B     		ldr	r3, .L125+12
 874 0050 0593     		str	r3, [sp, #20]
 875 0052 F3E7     		b	.L62
 876              	.LVL100:
 877              	.L65:
 878              	.LBB81:
 424:Drivers/lvgl/lvgl/src/extra/layouts/flex/lv_flex.c ****             }
 879              		.loc 2 424 0
 880 0054 0989     		ldrh	r1, [r1, #8]
 881 0056 5B1A     		subs	r3, r3, r1
 882              	.LVL101:
 883 0058 1BB2     		sxth	r3, r3
 884              	.LVL102:
ARM GAS  /tmp/ccbxNlti.s 			page 34


 885              	.L66:
 419:Drivers/lvgl/lvgl/src/extra/layouts/flex/lv_flex.c ****             if(t->grow_dsc[i].clamped == 0) {
 886              		.loc 2 419 0 discriminator 2
 887 005a 0134     		adds	r4, r4, #1
 888              	.LVL103:
 889              	.L64:
 419:Drivers/lvgl/lvgl/src/extra/layouts/flex/lv_flex.c ****             if(t->grow_dsc[i].clamped == 0) {
 890              		.loc 2 419 0 is_stmt 0 discriminator 1
 891 005c D9F81010 		ldr	r1, [r9, #16]
 892 0060 A142     		cmp	r1, r4
 893 0062 0DD9     		bls	.L114
 420:Drivers/lvgl/lvgl/src/extra/layouts/flex/lv_flex.c ****                 grow_value_sum += t->grow_dsc[i].grow_value;
 894              		.loc 2 420 0 is_stmt 1
 895 0064 D9F80C10 		ldr	r1, [r9, #12]
 896 0068 04EB8400 		add	r0, r4, r4, lsl #2
 897 006c 01EB8001 		add	r1, r1, r0, lsl #2
 898 0070 087C     		ldrb	r0, [r1, #16]	@ zero_extendqisi2
 899 0072 10F0010F 		tst	r0, #1
 900 0076 EDD1     		bne	.L65
 421:Drivers/lvgl/lvgl/src/extra/layouts/flex/lv_flex.c ****             }
 901              		.loc 2 421 0
 902 0078 C968     		ldr	r1, [r1, #12]
 903 007a 0A44     		add	r2, r2, r1
 904              	.LVL104:
 905 007c 12B2     		sxth	r2, r2
 906              	.LVL105:
 907 007e ECE7     		b	.L66
 908              	.L114:
 416:Drivers/lvgl/lvgl/src/extra/layouts/flex/lv_flex.c ****         lv_coord_t grow_value_sum = 0;
 909              		.loc 2 416 0
 910 0080 0025     		movs	r5, #0
 429:Drivers/lvgl/lvgl/src/extra/layouts/flex/lv_flex.c ****             if(t->grow_dsc[i].clamped == 0) {
 911              		.loc 2 429 0
 912 0082 2846     		mov	r0, r5
 913 0084 0EE0     		b	.L68
 914              	.LVL106:
 915              	.L71:
 916 0086 FEE7     		b	.L71
 917              	.LVL107:
 918              	.L72:
 919              	.LBB82:
 440:Drivers/lvgl/lvgl/src/extra/layouts/flex/lv_flex.c ****                 grow_value_sum -= t->grow_dsc[i].grow_value;
 920              		.loc 2 440 0
 921 0088 D9F80C10 		ldr	r1, [r9, #12]
 922              	.LVL108:
 923 008c 3144     		add	r1, r1, r6
 924 008e 0F81     		strh	r7, [r1, #8]	@ movhi
 441:Drivers/lvgl/lvgl/src/extra/layouts/flex/lv_flex.c ****                 grow_max_size  -= t->grow_dsc[i].final_size;
 925              		.loc 2 441 0
 926 0090 D9F80C10 		ldr	r1, [r9, #12]
 927 0094 3144     		add	r1, r1, r6
 928 0096 CC68     		ldr	r4, [r1, #12]
 929 0098 121B     		subs	r2, r2, r4
 930              	.LVL109:
 931 009a 12B2     		sxth	r2, r2
 932              	.LVL110:
 442:Drivers/lvgl/lvgl/src/extra/layouts/flex/lv_flex.c ****             }
ARM GAS  /tmp/ccbxNlti.s 			page 35


 933              		.loc 2 442 0
 934 009c 0989     		ldrh	r1, [r1, #8]
 935 009e 5B1A     		subs	r3, r3, r1
 936              	.LVL111:
 937 00a0 1BB2     		sxth	r3, r3
 938              	.LVL112:
 939              	.L69:
 940              	.LBE82:
 429:Drivers/lvgl/lvgl/src/extra/layouts/flex/lv_flex.c ****             if(t->grow_dsc[i].clamped == 0) {
 941              		.loc 2 429 0 discriminator 2
 942 00a2 0130     		adds	r0, r0, #1
 943              	.LVL113:
 944              	.L68:
 429:Drivers/lvgl/lvgl/src/extra/layouts/flex/lv_flex.c ****             if(t->grow_dsc[i].clamped == 0) {
 945              		.loc 2 429 0 is_stmt 0 discriminator 1
 946 00a4 D9F81010 		ldr	r1, [r9, #16]
 947 00a8 8142     		cmp	r1, r0
 948 00aa 23D9     		bls	.L115
 430:Drivers/lvgl/lvgl/src/extra/layouts/flex/lv_flex.c ****                 LV_ASSERT(grow_value_sum != 0);
 949              		.loc 2 430 0 is_stmt 1
 950 00ac D9F80C10 		ldr	r1, [r9, #12]
 951 00b0 00EB8006 		add	r6, r0, r0, lsl #2
 952 00b4 B600     		lsls	r6, r6, #2
 953 00b6 3144     		add	r1, r1, r6
 954 00b8 0C7C     		ldrb	r4, [r1, #16]	@ zero_extendqisi2
 955 00ba 14F0010F 		tst	r4, #1
 956 00be F0D1     		bne	.L69
 957              	.LBB83:
 431:Drivers/lvgl/lvgl/src/extra/layouts/flex/lv_flex.c ****                 grow_unit = grow_max_size / grow_value_sum;
 958              		.loc 2 431 0
 959 00c0 002A     		cmp	r2, #0
 960 00c2 E0D0     		beq	.L71
 432:Drivers/lvgl/lvgl/src/extra/layouts/flex/lv_flex.c ****                 lv_coord_t size = grow_unit * t->grow_dsc[i].grow_value;
 961              		.loc 2 432 0
 962 00c4 93FBF2F7 		sdiv	r7, r3, r2
 433:Drivers/lvgl/lvgl/src/extra/layouts/flex/lv_flex.c ****                 lv_coord_t size_clamp = LV_CLAMP(t->grow_dsc[i].min_size, size, t->grow_dsc[i].max_
 963              		.loc 2 433 0
 964 00c8 CC68     		ldr	r4, [r1, #12]
 965 00ca 17FB04F4 		smulbb	r4, r7, r4
 966 00ce 24B2     		sxth	r4, r4
 967              	.LVL114:
 434:Drivers/lvgl/lvgl/src/extra/layouts/flex/lv_flex.c **** 
 968              		.loc 2 434 0
 969 00d0 B1F90670 		ldrsh	r7, [r1, #6]
 970 00d4 A742     		cmp	r7, r4
 971 00d6 A8BF     		it	ge
 972 00d8 2746     		movge	r7, r4
 973 00da B1F904C0 		ldrsh	ip, [r1, #4]
 974 00de 6745     		cmp	r7, ip
 975 00e0 B8BF     		it	lt
 976 00e2 6746     		movlt	r7, ip
 977              	.LVL115:
 436:Drivers/lvgl/lvgl/src/extra/layouts/flex/lv_flex.c ****                     t->grow_dsc[i].clamped = 1;
 978              		.loc 2 436 0
 979 00e4 BC42     		cmp	r4, r7
 980 00e6 CFD0     		beq	.L72
 437:Drivers/lvgl/lvgl/src/extra/layouts/flex/lv_flex.c ****                     grow_reiterate = true;
ARM GAS  /tmp/ccbxNlti.s 			page 36


 981              		.loc 2 437 0
 982 00e8 0C7C     		ldrb	r4, [r1, #16]	@ zero_extendqisi2
 983              	.LVL116:
 984 00ea 44F00104 		orr	r4, r4, #1
 985 00ee 0C74     		strb	r4, [r1, #16]
 986              	.LVL117:
 438:Drivers/lvgl/lvgl/src/extra/layouts/flex/lv_flex.c ****                 }
 987              		.loc 2 438 0
 988 00f0 7546     		mov	r5, lr
 989 00f2 C9E7     		b	.L72
 990              	.LVL118:
 991              	.L115:
 992              	.LBE83:
 993 00f4 AE46     		mov	lr, r5
 994              	.LVL119:
 995              	.L63:
 996              	.LBE81:
 415:Drivers/lvgl/lvgl/src/extra/layouts/flex/lv_flex.c ****         grow_reiterate = false;
 997              		.loc 2 415 0
 998 00f6 BEF1000F 		cmp	lr, #0
 999 00fa 08D0     		beq	.L116
 1000              	.LVL120:
 1001              	.LBB84:
 418:Drivers/lvgl/lvgl/src/extra/layouts/flex/lv_flex.c ****         for(i = 0; i < t->grow_item_cnt; i++) {
 1002              		.loc 2 418 0
 1003 00fc B9F80230 		ldrh	r3, [r9, #2]
 1004 0100 B9F80420 		ldrh	r2, [r9, #4]
 1005 0104 9B1A     		subs	r3, r3, r2
 1006 0106 1BB2     		sxth	r3, r3
 1007              	.LVL121:
 417:Drivers/lvgl/lvgl/src/extra/layouts/flex/lv_flex.c ****         lv_coord_t grow_max_size = t->track_main_size - t->track_fix_main_size;
 1008              		.loc 2 417 0
 1009 0108 0022     		movs	r2, #0
 419:Drivers/lvgl/lvgl/src/extra/layouts/flex/lv_flex.c ****             if(t->grow_dsc[i].clamped == 0) {
 1010              		.loc 2 419 0
 1011 010a 1446     		mov	r4, r2
 1012 010c A6E7     		b	.L64
 1013              	.LVL122:
 1014              	.L116:
 1015 010e CDF830A0 		str	r10, [sp, #48]
 1016 0112 C246     		mov	r10, r8
 1017              	.LVL123:
 1018 0114 5846     		mov	r0, fp
 1019 0116 CDF810B0 		str	fp, [sp, #16]
 1020              	.LVL124:
 1021              	.LBE84:
 1022              	.LBB85:
 1023              	.LBB86:
  35:Drivers/lvgl/lvgl/src/extra/layouts/flex/../flex/../../../core/lv_obj_style_gen.h **** }
  36:Drivers/lvgl/lvgl/src/extra/layouts/flex/../flex/../../../core/lv_obj_style_gen.h **** 
  37:Drivers/lvgl/lvgl/src/extra/layouts/flex/../flex/../../../core/lv_obj_style_gen.h **** static inline lv_coord_t lv_obj_get_style_x(const struct _lv_obj_t * obj, uint32_t part)
  38:Drivers/lvgl/lvgl/src/extra/layouts/flex/../flex/../../../core/lv_obj_style_gen.h **** {
  39:Drivers/lvgl/lvgl/src/extra/layouts/flex/../flex/../../../core/lv_obj_style_gen.h ****     lv_style_value_t v = lv_obj_get_style_prop(obj, part, LV_STYLE_X);
  40:Drivers/lvgl/lvgl/src/extra/layouts/flex/../flex/../../../core/lv_obj_style_gen.h ****     return (lv_coord_t)v.num;
  41:Drivers/lvgl/lvgl/src/extra/layouts/flex/../flex/../../../core/lv_obj_style_gen.h **** }
  42:Drivers/lvgl/lvgl/src/extra/layouts/flex/../flex/../../../core/lv_obj_style_gen.h **** 
  43:Drivers/lvgl/lvgl/src/extra/layouts/flex/../flex/../../../core/lv_obj_style_gen.h **** static inline lv_coord_t lv_obj_get_style_y(const struct _lv_obj_t * obj, uint32_t part)
ARM GAS  /tmp/ccbxNlti.s 			page 37


  44:Drivers/lvgl/lvgl/src/extra/layouts/flex/../flex/../../../core/lv_obj_style_gen.h **** {
  45:Drivers/lvgl/lvgl/src/extra/layouts/flex/../flex/../../../core/lv_obj_style_gen.h ****     lv_style_value_t v = lv_obj_get_style_prop(obj, part, LV_STYLE_Y);
  46:Drivers/lvgl/lvgl/src/extra/layouts/flex/../flex/../../../core/lv_obj_style_gen.h ****     return (lv_coord_t)v.num;
  47:Drivers/lvgl/lvgl/src/extra/layouts/flex/../flex/../../../core/lv_obj_style_gen.h **** }
  48:Drivers/lvgl/lvgl/src/extra/layouts/flex/../flex/../../../core/lv_obj_style_gen.h **** 
  49:Drivers/lvgl/lvgl/src/extra/layouts/flex/../flex/../../../core/lv_obj_style_gen.h **** static inline lv_align_t lv_obj_get_style_align(const struct _lv_obj_t * obj, uint32_t part)
  50:Drivers/lvgl/lvgl/src/extra/layouts/flex/../flex/../../../core/lv_obj_style_gen.h **** {
  51:Drivers/lvgl/lvgl/src/extra/layouts/flex/../flex/../../../core/lv_obj_style_gen.h ****     lv_style_value_t v = lv_obj_get_style_prop(obj, part, LV_STYLE_ALIGN);
  52:Drivers/lvgl/lvgl/src/extra/layouts/flex/../flex/../../../core/lv_obj_style_gen.h ****     return (lv_align_t)v.num;
  53:Drivers/lvgl/lvgl/src/extra/layouts/flex/../flex/../../../core/lv_obj_style_gen.h **** }
  54:Drivers/lvgl/lvgl/src/extra/layouts/flex/../flex/../../../core/lv_obj_style_gen.h **** 
  55:Drivers/lvgl/lvgl/src/extra/layouts/flex/../flex/../../../core/lv_obj_style_gen.h **** static inline lv_coord_t lv_obj_get_style_transform_width(const struct _lv_obj_t * obj, uint32_t pa
  56:Drivers/lvgl/lvgl/src/extra/layouts/flex/../flex/../../../core/lv_obj_style_gen.h **** {
  57:Drivers/lvgl/lvgl/src/extra/layouts/flex/../flex/../../../core/lv_obj_style_gen.h ****     lv_style_value_t v = lv_obj_get_style_prop(obj, part, LV_STYLE_TRANSFORM_WIDTH);
  58:Drivers/lvgl/lvgl/src/extra/layouts/flex/../flex/../../../core/lv_obj_style_gen.h ****     return (lv_coord_t)v.num;
  59:Drivers/lvgl/lvgl/src/extra/layouts/flex/../flex/../../../core/lv_obj_style_gen.h **** }
  60:Drivers/lvgl/lvgl/src/extra/layouts/flex/../flex/../../../core/lv_obj_style_gen.h **** 
  61:Drivers/lvgl/lvgl/src/extra/layouts/flex/../flex/../../../core/lv_obj_style_gen.h **** static inline lv_coord_t lv_obj_get_style_transform_height(const struct _lv_obj_t * obj, uint32_t p
  62:Drivers/lvgl/lvgl/src/extra/layouts/flex/../flex/../../../core/lv_obj_style_gen.h **** {
  63:Drivers/lvgl/lvgl/src/extra/layouts/flex/../flex/../../../core/lv_obj_style_gen.h ****     lv_style_value_t v = lv_obj_get_style_prop(obj, part, LV_STYLE_TRANSFORM_HEIGHT);
  64:Drivers/lvgl/lvgl/src/extra/layouts/flex/../flex/../../../core/lv_obj_style_gen.h ****     return (lv_coord_t)v.num;
  65:Drivers/lvgl/lvgl/src/extra/layouts/flex/../flex/../../../core/lv_obj_style_gen.h **** }
  66:Drivers/lvgl/lvgl/src/extra/layouts/flex/../flex/../../../core/lv_obj_style_gen.h **** 
  67:Drivers/lvgl/lvgl/src/extra/layouts/flex/../flex/../../../core/lv_obj_style_gen.h **** static inline lv_coord_t lv_obj_get_style_translate_x(const struct _lv_obj_t * obj, uint32_t part)
  68:Drivers/lvgl/lvgl/src/extra/layouts/flex/../flex/../../../core/lv_obj_style_gen.h **** {
  69:Drivers/lvgl/lvgl/src/extra/layouts/flex/../flex/../../../core/lv_obj_style_gen.h ****     lv_style_value_t v = lv_obj_get_style_prop(obj, part, LV_STYLE_TRANSLATE_X);
  70:Drivers/lvgl/lvgl/src/extra/layouts/flex/../flex/../../../core/lv_obj_style_gen.h ****     return (lv_coord_t)v.num;
  71:Drivers/lvgl/lvgl/src/extra/layouts/flex/../flex/../../../core/lv_obj_style_gen.h **** }
  72:Drivers/lvgl/lvgl/src/extra/layouts/flex/../flex/../../../core/lv_obj_style_gen.h **** 
  73:Drivers/lvgl/lvgl/src/extra/layouts/flex/../flex/../../../core/lv_obj_style_gen.h **** static inline lv_coord_t lv_obj_get_style_translate_y(const struct _lv_obj_t * obj, uint32_t part)
  74:Drivers/lvgl/lvgl/src/extra/layouts/flex/../flex/../../../core/lv_obj_style_gen.h **** {
  75:Drivers/lvgl/lvgl/src/extra/layouts/flex/../flex/../../../core/lv_obj_style_gen.h ****     lv_style_value_t v = lv_obj_get_style_prop(obj, part, LV_STYLE_TRANSLATE_Y);
  76:Drivers/lvgl/lvgl/src/extra/layouts/flex/../flex/../../../core/lv_obj_style_gen.h ****     return (lv_coord_t)v.num;
  77:Drivers/lvgl/lvgl/src/extra/layouts/flex/../flex/../../../core/lv_obj_style_gen.h **** }
  78:Drivers/lvgl/lvgl/src/extra/layouts/flex/../flex/../../../core/lv_obj_style_gen.h **** 
  79:Drivers/lvgl/lvgl/src/extra/layouts/flex/../flex/../../../core/lv_obj_style_gen.h **** static inline lv_coord_t lv_obj_get_style_transform_zoom(const struct _lv_obj_t * obj, uint32_t par
  80:Drivers/lvgl/lvgl/src/extra/layouts/flex/../flex/../../../core/lv_obj_style_gen.h **** {
  81:Drivers/lvgl/lvgl/src/extra/layouts/flex/../flex/../../../core/lv_obj_style_gen.h ****     lv_style_value_t v = lv_obj_get_style_prop(obj, part, LV_STYLE_TRANSFORM_ZOOM);
  82:Drivers/lvgl/lvgl/src/extra/layouts/flex/../flex/../../../core/lv_obj_style_gen.h ****     return (lv_coord_t)v.num;
  83:Drivers/lvgl/lvgl/src/extra/layouts/flex/../flex/../../../core/lv_obj_style_gen.h **** }
  84:Drivers/lvgl/lvgl/src/extra/layouts/flex/../flex/../../../core/lv_obj_style_gen.h **** 
  85:Drivers/lvgl/lvgl/src/extra/layouts/flex/../flex/../../../core/lv_obj_style_gen.h **** static inline lv_coord_t lv_obj_get_style_transform_angle(const struct _lv_obj_t * obj, uint32_t pa
  86:Drivers/lvgl/lvgl/src/extra/layouts/flex/../flex/../../../core/lv_obj_style_gen.h **** {
  87:Drivers/lvgl/lvgl/src/extra/layouts/flex/../flex/../../../core/lv_obj_style_gen.h ****     lv_style_value_t v = lv_obj_get_style_prop(obj, part, LV_STYLE_TRANSFORM_ANGLE);
  88:Drivers/lvgl/lvgl/src/extra/layouts/flex/../flex/../../../core/lv_obj_style_gen.h ****     return (lv_coord_t)v.num;
  89:Drivers/lvgl/lvgl/src/extra/layouts/flex/../flex/../../../core/lv_obj_style_gen.h **** }
  90:Drivers/lvgl/lvgl/src/extra/layouts/flex/../flex/../../../core/lv_obj_style_gen.h **** 
  91:Drivers/lvgl/lvgl/src/extra/layouts/flex/../flex/../../../core/lv_obj_style_gen.h **** static inline lv_coord_t lv_obj_get_style_transform_pivot_x(const struct _lv_obj_t * obj, uint32_t 
  92:Drivers/lvgl/lvgl/src/extra/layouts/flex/../flex/../../../core/lv_obj_style_gen.h **** {
  93:Drivers/lvgl/lvgl/src/extra/layouts/flex/../flex/../../../core/lv_obj_style_gen.h ****     lv_style_value_t v = lv_obj_get_style_prop(obj, part, LV_STYLE_TRANSFORM_PIVOT_X);
  94:Drivers/lvgl/lvgl/src/extra/layouts/flex/../flex/../../../core/lv_obj_style_gen.h ****     return (lv_coord_t)v.num;
  95:Drivers/lvgl/lvgl/src/extra/layouts/flex/../flex/../../../core/lv_obj_style_gen.h **** }
  96:Drivers/lvgl/lvgl/src/extra/layouts/flex/../flex/../../../core/lv_obj_style_gen.h **** 
  97:Drivers/lvgl/lvgl/src/extra/layouts/flex/../flex/../../../core/lv_obj_style_gen.h **** static inline lv_coord_t lv_obj_get_style_transform_pivot_y(const struct _lv_obj_t * obj, uint32_t 
  98:Drivers/lvgl/lvgl/src/extra/layouts/flex/../flex/../../../core/lv_obj_style_gen.h **** {
  99:Drivers/lvgl/lvgl/src/extra/layouts/flex/../flex/../../../core/lv_obj_style_gen.h ****     lv_style_value_t v = lv_obj_get_style_prop(obj, part, LV_STYLE_TRANSFORM_PIVOT_Y);
 100:Drivers/lvgl/lvgl/src/extra/layouts/flex/../flex/../../../core/lv_obj_style_gen.h ****     return (lv_coord_t)v.num;
ARM GAS  /tmp/ccbxNlti.s 			page 38


 101:Drivers/lvgl/lvgl/src/extra/layouts/flex/../flex/../../../core/lv_obj_style_gen.h **** }
 102:Drivers/lvgl/lvgl/src/extra/layouts/flex/../flex/../../../core/lv_obj_style_gen.h **** 
 103:Drivers/lvgl/lvgl/src/extra/layouts/flex/../flex/../../../core/lv_obj_style_gen.h **** static inline lv_coord_t lv_obj_get_style_pad_top(const struct _lv_obj_t * obj, uint32_t part)
 104:Drivers/lvgl/lvgl/src/extra/layouts/flex/../flex/../../../core/lv_obj_style_gen.h **** {
 105:Drivers/lvgl/lvgl/src/extra/layouts/flex/../flex/../../../core/lv_obj_style_gen.h ****     lv_style_value_t v = lv_obj_get_style_prop(obj, part, LV_STYLE_PAD_TOP);
 106:Drivers/lvgl/lvgl/src/extra/layouts/flex/../flex/../../../core/lv_obj_style_gen.h ****     return (lv_coord_t)v.num;
 107:Drivers/lvgl/lvgl/src/extra/layouts/flex/../flex/../../../core/lv_obj_style_gen.h **** }
 108:Drivers/lvgl/lvgl/src/extra/layouts/flex/../flex/../../../core/lv_obj_style_gen.h **** 
 109:Drivers/lvgl/lvgl/src/extra/layouts/flex/../flex/../../../core/lv_obj_style_gen.h **** static inline lv_coord_t lv_obj_get_style_pad_bottom(const struct _lv_obj_t * obj, uint32_t part)
 110:Drivers/lvgl/lvgl/src/extra/layouts/flex/../flex/../../../core/lv_obj_style_gen.h **** {
 111:Drivers/lvgl/lvgl/src/extra/layouts/flex/../flex/../../../core/lv_obj_style_gen.h ****     lv_style_value_t v = lv_obj_get_style_prop(obj, part, LV_STYLE_PAD_BOTTOM);
 112:Drivers/lvgl/lvgl/src/extra/layouts/flex/../flex/../../../core/lv_obj_style_gen.h ****     return (lv_coord_t)v.num;
 113:Drivers/lvgl/lvgl/src/extra/layouts/flex/../flex/../../../core/lv_obj_style_gen.h **** }
 114:Drivers/lvgl/lvgl/src/extra/layouts/flex/../flex/../../../core/lv_obj_style_gen.h **** 
 115:Drivers/lvgl/lvgl/src/extra/layouts/flex/../flex/../../../core/lv_obj_style_gen.h **** static inline lv_coord_t lv_obj_get_style_pad_left(const struct _lv_obj_t * obj, uint32_t part)
 116:Drivers/lvgl/lvgl/src/extra/layouts/flex/../flex/../../../core/lv_obj_style_gen.h **** {
 117:Drivers/lvgl/lvgl/src/extra/layouts/flex/../flex/../../../core/lv_obj_style_gen.h ****     lv_style_value_t v = lv_obj_get_style_prop(obj, part, LV_STYLE_PAD_LEFT);
 118:Drivers/lvgl/lvgl/src/extra/layouts/flex/../flex/../../../core/lv_obj_style_gen.h ****     return (lv_coord_t)v.num;
 119:Drivers/lvgl/lvgl/src/extra/layouts/flex/../flex/../../../core/lv_obj_style_gen.h **** }
 120:Drivers/lvgl/lvgl/src/extra/layouts/flex/../flex/../../../core/lv_obj_style_gen.h **** 
 121:Drivers/lvgl/lvgl/src/extra/layouts/flex/../flex/../../../core/lv_obj_style_gen.h **** static inline lv_coord_t lv_obj_get_style_pad_right(const struct _lv_obj_t * obj, uint32_t part)
 122:Drivers/lvgl/lvgl/src/extra/layouts/flex/../flex/../../../core/lv_obj_style_gen.h **** {
 123:Drivers/lvgl/lvgl/src/extra/layouts/flex/../flex/../../../core/lv_obj_style_gen.h ****     lv_style_value_t v = lv_obj_get_style_prop(obj, part, LV_STYLE_PAD_RIGHT);
 124:Drivers/lvgl/lvgl/src/extra/layouts/flex/../flex/../../../core/lv_obj_style_gen.h ****     return (lv_coord_t)v.num;
 125:Drivers/lvgl/lvgl/src/extra/layouts/flex/../flex/../../../core/lv_obj_style_gen.h **** }
 126:Drivers/lvgl/lvgl/src/extra/layouts/flex/../flex/../../../core/lv_obj_style_gen.h **** 
 127:Drivers/lvgl/lvgl/src/extra/layouts/flex/../flex/../../../core/lv_obj_style_gen.h **** static inline lv_coord_t lv_obj_get_style_pad_row(const struct _lv_obj_t * obj, uint32_t part)
 128:Drivers/lvgl/lvgl/src/extra/layouts/flex/../flex/../../../core/lv_obj_style_gen.h **** {
 129:Drivers/lvgl/lvgl/src/extra/layouts/flex/../flex/../../../core/lv_obj_style_gen.h ****     lv_style_value_t v = lv_obj_get_style_prop(obj, part, LV_STYLE_PAD_ROW);
 130:Drivers/lvgl/lvgl/src/extra/layouts/flex/../flex/../../../core/lv_obj_style_gen.h ****     return (lv_coord_t)v.num;
 131:Drivers/lvgl/lvgl/src/extra/layouts/flex/../flex/../../../core/lv_obj_style_gen.h **** }
 132:Drivers/lvgl/lvgl/src/extra/layouts/flex/../flex/../../../core/lv_obj_style_gen.h **** 
 133:Drivers/lvgl/lvgl/src/extra/layouts/flex/../flex/../../../core/lv_obj_style_gen.h **** static inline lv_coord_t lv_obj_get_style_pad_column(const struct _lv_obj_t * obj, uint32_t part)
 134:Drivers/lvgl/lvgl/src/extra/layouts/flex/../flex/../../../core/lv_obj_style_gen.h **** {
 135:Drivers/lvgl/lvgl/src/extra/layouts/flex/../flex/../../../core/lv_obj_style_gen.h ****     lv_style_value_t v = lv_obj_get_style_prop(obj, part, LV_STYLE_PAD_COLUMN);
 136:Drivers/lvgl/lvgl/src/extra/layouts/flex/../flex/../../../core/lv_obj_style_gen.h ****     return (lv_coord_t)v.num;
 137:Drivers/lvgl/lvgl/src/extra/layouts/flex/../flex/../../../core/lv_obj_style_gen.h **** }
 138:Drivers/lvgl/lvgl/src/extra/layouts/flex/../flex/../../../core/lv_obj_style_gen.h **** 
 139:Drivers/lvgl/lvgl/src/extra/layouts/flex/../flex/../../../core/lv_obj_style_gen.h **** static inline lv_color_t lv_obj_get_style_bg_color(const struct _lv_obj_t * obj, uint32_t part)
 140:Drivers/lvgl/lvgl/src/extra/layouts/flex/../flex/../../../core/lv_obj_style_gen.h **** {
 141:Drivers/lvgl/lvgl/src/extra/layouts/flex/../flex/../../../core/lv_obj_style_gen.h ****     lv_style_value_t v = lv_obj_get_style_prop(obj, part, LV_STYLE_BG_COLOR);
 142:Drivers/lvgl/lvgl/src/extra/layouts/flex/../flex/../../../core/lv_obj_style_gen.h ****     return v.color;
 143:Drivers/lvgl/lvgl/src/extra/layouts/flex/../flex/../../../core/lv_obj_style_gen.h **** }
 144:Drivers/lvgl/lvgl/src/extra/layouts/flex/../flex/../../../core/lv_obj_style_gen.h **** 
 145:Drivers/lvgl/lvgl/src/extra/layouts/flex/../flex/../../../core/lv_obj_style_gen.h **** static inline lv_color_t lv_obj_get_style_bg_color_filtered(const struct _lv_obj_t * obj, uint32_t 
 146:Drivers/lvgl/lvgl/src/extra/layouts/flex/../flex/../../../core/lv_obj_style_gen.h **** {
 147:Drivers/lvgl/lvgl/src/extra/layouts/flex/../flex/../../../core/lv_obj_style_gen.h ****     lv_style_value_t v = _lv_obj_style_apply_color_filter(obj, part, lv_obj_get_style_prop(obj, par
 148:Drivers/lvgl/lvgl/src/extra/layouts/flex/../flex/../../../core/lv_obj_style_gen.h ****     return v.color;
 149:Drivers/lvgl/lvgl/src/extra/layouts/flex/../flex/../../../core/lv_obj_style_gen.h **** }
 150:Drivers/lvgl/lvgl/src/extra/layouts/flex/../flex/../../../core/lv_obj_style_gen.h **** 
 151:Drivers/lvgl/lvgl/src/extra/layouts/flex/../flex/../../../core/lv_obj_style_gen.h **** static inline lv_opa_t lv_obj_get_style_bg_opa(const struct _lv_obj_t * obj, uint32_t part)
 152:Drivers/lvgl/lvgl/src/extra/layouts/flex/../flex/../../../core/lv_obj_style_gen.h **** {
 153:Drivers/lvgl/lvgl/src/extra/layouts/flex/../flex/../../../core/lv_obj_style_gen.h ****     lv_style_value_t v = lv_obj_get_style_prop(obj, part, LV_STYLE_BG_OPA);
 154:Drivers/lvgl/lvgl/src/extra/layouts/flex/../flex/../../../core/lv_obj_style_gen.h ****     return (lv_opa_t)v.num;
 155:Drivers/lvgl/lvgl/src/extra/layouts/flex/../flex/../../../core/lv_obj_style_gen.h **** }
 156:Drivers/lvgl/lvgl/src/extra/layouts/flex/../flex/../../../core/lv_obj_style_gen.h **** 
 157:Drivers/lvgl/lvgl/src/extra/layouts/flex/../flex/../../../core/lv_obj_style_gen.h **** static inline lv_color_t lv_obj_get_style_bg_grad_color(const struct _lv_obj_t * obj, uint32_t part
ARM GAS  /tmp/ccbxNlti.s 			page 39


 158:Drivers/lvgl/lvgl/src/extra/layouts/flex/../flex/../../../core/lv_obj_style_gen.h **** {
 159:Drivers/lvgl/lvgl/src/extra/layouts/flex/../flex/../../../core/lv_obj_style_gen.h ****     lv_style_value_t v = lv_obj_get_style_prop(obj, part, LV_STYLE_BG_GRAD_COLOR);
 160:Drivers/lvgl/lvgl/src/extra/layouts/flex/../flex/../../../core/lv_obj_style_gen.h ****     return v.color;
 161:Drivers/lvgl/lvgl/src/extra/layouts/flex/../flex/../../../core/lv_obj_style_gen.h **** }
 162:Drivers/lvgl/lvgl/src/extra/layouts/flex/../flex/../../../core/lv_obj_style_gen.h **** 
 163:Drivers/lvgl/lvgl/src/extra/layouts/flex/../flex/../../../core/lv_obj_style_gen.h **** static inline lv_color_t lv_obj_get_style_bg_grad_color_filtered(const struct _lv_obj_t * obj, uint
 164:Drivers/lvgl/lvgl/src/extra/layouts/flex/../flex/../../../core/lv_obj_style_gen.h **** {
 165:Drivers/lvgl/lvgl/src/extra/layouts/flex/../flex/../../../core/lv_obj_style_gen.h ****     lv_style_value_t v = _lv_obj_style_apply_color_filter(obj, part, lv_obj_get_style_prop(obj, par
 166:Drivers/lvgl/lvgl/src/extra/layouts/flex/../flex/../../../core/lv_obj_style_gen.h ****     return v.color;
 167:Drivers/lvgl/lvgl/src/extra/layouts/flex/../flex/../../../core/lv_obj_style_gen.h **** }
 168:Drivers/lvgl/lvgl/src/extra/layouts/flex/../flex/../../../core/lv_obj_style_gen.h **** 
 169:Drivers/lvgl/lvgl/src/extra/layouts/flex/../flex/../../../core/lv_obj_style_gen.h **** static inline lv_grad_dir_t lv_obj_get_style_bg_grad_dir(const struct _lv_obj_t * obj, uint32_t par
 170:Drivers/lvgl/lvgl/src/extra/layouts/flex/../flex/../../../core/lv_obj_style_gen.h **** {
 171:Drivers/lvgl/lvgl/src/extra/layouts/flex/../flex/../../../core/lv_obj_style_gen.h ****     lv_style_value_t v = lv_obj_get_style_prop(obj, part, LV_STYLE_BG_GRAD_DIR);
 172:Drivers/lvgl/lvgl/src/extra/layouts/flex/../flex/../../../core/lv_obj_style_gen.h ****     return (lv_grad_dir_t)v.num;
 173:Drivers/lvgl/lvgl/src/extra/layouts/flex/../flex/../../../core/lv_obj_style_gen.h **** }
 174:Drivers/lvgl/lvgl/src/extra/layouts/flex/../flex/../../../core/lv_obj_style_gen.h **** 
 175:Drivers/lvgl/lvgl/src/extra/layouts/flex/../flex/../../../core/lv_obj_style_gen.h **** static inline lv_coord_t lv_obj_get_style_bg_main_stop(const struct _lv_obj_t * obj, uint32_t part)
 176:Drivers/lvgl/lvgl/src/extra/layouts/flex/../flex/../../../core/lv_obj_style_gen.h **** {
 177:Drivers/lvgl/lvgl/src/extra/layouts/flex/../flex/../../../core/lv_obj_style_gen.h ****     lv_style_value_t v = lv_obj_get_style_prop(obj, part, LV_STYLE_BG_MAIN_STOP);
 178:Drivers/lvgl/lvgl/src/extra/layouts/flex/../flex/../../../core/lv_obj_style_gen.h ****     return (lv_coord_t)v.num;
 179:Drivers/lvgl/lvgl/src/extra/layouts/flex/../flex/../../../core/lv_obj_style_gen.h **** }
 180:Drivers/lvgl/lvgl/src/extra/layouts/flex/../flex/../../../core/lv_obj_style_gen.h **** 
 181:Drivers/lvgl/lvgl/src/extra/layouts/flex/../flex/../../../core/lv_obj_style_gen.h **** static inline lv_coord_t lv_obj_get_style_bg_grad_stop(const struct _lv_obj_t * obj, uint32_t part)
 182:Drivers/lvgl/lvgl/src/extra/layouts/flex/../flex/../../../core/lv_obj_style_gen.h **** {
 183:Drivers/lvgl/lvgl/src/extra/layouts/flex/../flex/../../../core/lv_obj_style_gen.h ****     lv_style_value_t v = lv_obj_get_style_prop(obj, part, LV_STYLE_BG_GRAD_STOP);
 184:Drivers/lvgl/lvgl/src/extra/layouts/flex/../flex/../../../core/lv_obj_style_gen.h ****     return (lv_coord_t)v.num;
 185:Drivers/lvgl/lvgl/src/extra/layouts/flex/../flex/../../../core/lv_obj_style_gen.h **** }
 186:Drivers/lvgl/lvgl/src/extra/layouts/flex/../flex/../../../core/lv_obj_style_gen.h **** 
 187:Drivers/lvgl/lvgl/src/extra/layouts/flex/../flex/../../../core/lv_obj_style_gen.h **** static inline const lv_grad_dsc_t * lv_obj_get_style_bg_grad(const struct _lv_obj_t * obj, uint32_t
 188:Drivers/lvgl/lvgl/src/extra/layouts/flex/../flex/../../../core/lv_obj_style_gen.h **** {
 189:Drivers/lvgl/lvgl/src/extra/layouts/flex/../flex/../../../core/lv_obj_style_gen.h ****     lv_style_value_t v = lv_obj_get_style_prop(obj, part, LV_STYLE_BG_GRAD);
 190:Drivers/lvgl/lvgl/src/extra/layouts/flex/../flex/../../../core/lv_obj_style_gen.h ****     return (const lv_grad_dsc_t *)v.ptr;
 191:Drivers/lvgl/lvgl/src/extra/layouts/flex/../flex/../../../core/lv_obj_style_gen.h **** }
 192:Drivers/lvgl/lvgl/src/extra/layouts/flex/../flex/../../../core/lv_obj_style_gen.h **** 
 193:Drivers/lvgl/lvgl/src/extra/layouts/flex/../flex/../../../core/lv_obj_style_gen.h **** static inline lv_dither_mode_t lv_obj_get_style_bg_dither_mode(const struct _lv_obj_t * obj, uint32
 194:Drivers/lvgl/lvgl/src/extra/layouts/flex/../flex/../../../core/lv_obj_style_gen.h **** {
 195:Drivers/lvgl/lvgl/src/extra/layouts/flex/../flex/../../../core/lv_obj_style_gen.h ****     lv_style_value_t v = lv_obj_get_style_prop(obj, part, LV_STYLE_BG_DITHER_MODE);
 196:Drivers/lvgl/lvgl/src/extra/layouts/flex/../flex/../../../core/lv_obj_style_gen.h ****     return (lv_dither_mode_t)v.num;
 197:Drivers/lvgl/lvgl/src/extra/layouts/flex/../flex/../../../core/lv_obj_style_gen.h **** }
 198:Drivers/lvgl/lvgl/src/extra/layouts/flex/../flex/../../../core/lv_obj_style_gen.h **** 
 199:Drivers/lvgl/lvgl/src/extra/layouts/flex/../flex/../../../core/lv_obj_style_gen.h **** static inline const void * lv_obj_get_style_bg_img_src(const struct _lv_obj_t * obj, uint32_t part)
 200:Drivers/lvgl/lvgl/src/extra/layouts/flex/../flex/../../../core/lv_obj_style_gen.h **** {
 201:Drivers/lvgl/lvgl/src/extra/layouts/flex/../flex/../../../core/lv_obj_style_gen.h ****     lv_style_value_t v = lv_obj_get_style_prop(obj, part, LV_STYLE_BG_IMG_SRC);
 202:Drivers/lvgl/lvgl/src/extra/layouts/flex/../flex/../../../core/lv_obj_style_gen.h ****     return (const void *)v.ptr;
 203:Drivers/lvgl/lvgl/src/extra/layouts/flex/../flex/../../../core/lv_obj_style_gen.h **** }
 204:Drivers/lvgl/lvgl/src/extra/layouts/flex/../flex/../../../core/lv_obj_style_gen.h **** 
 205:Drivers/lvgl/lvgl/src/extra/layouts/flex/../flex/../../../core/lv_obj_style_gen.h **** static inline lv_opa_t lv_obj_get_style_bg_img_opa(const struct _lv_obj_t * obj, uint32_t part)
 206:Drivers/lvgl/lvgl/src/extra/layouts/flex/../flex/../../../core/lv_obj_style_gen.h **** {
 207:Drivers/lvgl/lvgl/src/extra/layouts/flex/../flex/../../../core/lv_obj_style_gen.h ****     lv_style_value_t v = lv_obj_get_style_prop(obj, part, LV_STYLE_BG_IMG_OPA);
 208:Drivers/lvgl/lvgl/src/extra/layouts/flex/../flex/../../../core/lv_obj_style_gen.h ****     return (lv_opa_t)v.num;
 209:Drivers/lvgl/lvgl/src/extra/layouts/flex/../flex/../../../core/lv_obj_style_gen.h **** }
 210:Drivers/lvgl/lvgl/src/extra/layouts/flex/../flex/../../../core/lv_obj_style_gen.h **** 
 211:Drivers/lvgl/lvgl/src/extra/layouts/flex/../flex/../../../core/lv_obj_style_gen.h **** static inline lv_color_t lv_obj_get_style_bg_img_recolor(const struct _lv_obj_t * obj, uint32_t par
 212:Drivers/lvgl/lvgl/src/extra/layouts/flex/../flex/../../../core/lv_obj_style_gen.h **** {
 213:Drivers/lvgl/lvgl/src/extra/layouts/flex/../flex/../../../core/lv_obj_style_gen.h ****     lv_style_value_t v = lv_obj_get_style_prop(obj, part, LV_STYLE_BG_IMG_RECOLOR);
 214:Drivers/lvgl/lvgl/src/extra/layouts/flex/../flex/../../../core/lv_obj_style_gen.h ****     return v.color;
ARM GAS  /tmp/ccbxNlti.s 			page 40


 215:Drivers/lvgl/lvgl/src/extra/layouts/flex/../flex/../../../core/lv_obj_style_gen.h **** }
 216:Drivers/lvgl/lvgl/src/extra/layouts/flex/../flex/../../../core/lv_obj_style_gen.h **** 
 217:Drivers/lvgl/lvgl/src/extra/layouts/flex/../flex/../../../core/lv_obj_style_gen.h **** static inline lv_color_t lv_obj_get_style_bg_img_recolor_filtered(const struct _lv_obj_t * obj, uin
 218:Drivers/lvgl/lvgl/src/extra/layouts/flex/../flex/../../../core/lv_obj_style_gen.h **** {
 219:Drivers/lvgl/lvgl/src/extra/layouts/flex/../flex/../../../core/lv_obj_style_gen.h ****     lv_style_value_t v = _lv_obj_style_apply_color_filter(obj, part, lv_obj_get_style_prop(obj, par
 220:Drivers/lvgl/lvgl/src/extra/layouts/flex/../flex/../../../core/lv_obj_style_gen.h ****     return v.color;
 221:Drivers/lvgl/lvgl/src/extra/layouts/flex/../flex/../../../core/lv_obj_style_gen.h **** }
 222:Drivers/lvgl/lvgl/src/extra/layouts/flex/../flex/../../../core/lv_obj_style_gen.h **** 
 223:Drivers/lvgl/lvgl/src/extra/layouts/flex/../flex/../../../core/lv_obj_style_gen.h **** static inline lv_opa_t lv_obj_get_style_bg_img_recolor_opa(const struct _lv_obj_t * obj, uint32_t p
 224:Drivers/lvgl/lvgl/src/extra/layouts/flex/../flex/../../../core/lv_obj_style_gen.h **** {
 225:Drivers/lvgl/lvgl/src/extra/layouts/flex/../flex/../../../core/lv_obj_style_gen.h ****     lv_style_value_t v = lv_obj_get_style_prop(obj, part, LV_STYLE_BG_IMG_RECOLOR_OPA);
 226:Drivers/lvgl/lvgl/src/extra/layouts/flex/../flex/../../../core/lv_obj_style_gen.h ****     return (lv_opa_t)v.num;
 227:Drivers/lvgl/lvgl/src/extra/layouts/flex/../flex/../../../core/lv_obj_style_gen.h **** }
 228:Drivers/lvgl/lvgl/src/extra/layouts/flex/../flex/../../../core/lv_obj_style_gen.h **** 
 229:Drivers/lvgl/lvgl/src/extra/layouts/flex/../flex/../../../core/lv_obj_style_gen.h **** static inline bool lv_obj_get_style_bg_img_tiled(const struct _lv_obj_t * obj, uint32_t part)
 230:Drivers/lvgl/lvgl/src/extra/layouts/flex/../flex/../../../core/lv_obj_style_gen.h **** {
 231:Drivers/lvgl/lvgl/src/extra/layouts/flex/../flex/../../../core/lv_obj_style_gen.h ****     lv_style_value_t v = lv_obj_get_style_prop(obj, part, LV_STYLE_BG_IMG_TILED);
 232:Drivers/lvgl/lvgl/src/extra/layouts/flex/../flex/../../../core/lv_obj_style_gen.h ****     return (bool)v.num;
 233:Drivers/lvgl/lvgl/src/extra/layouts/flex/../flex/../../../core/lv_obj_style_gen.h **** }
 234:Drivers/lvgl/lvgl/src/extra/layouts/flex/../flex/../../../core/lv_obj_style_gen.h **** 
 235:Drivers/lvgl/lvgl/src/extra/layouts/flex/../flex/../../../core/lv_obj_style_gen.h **** static inline lv_color_t lv_obj_get_style_border_color(const struct _lv_obj_t * obj, uint32_t part)
 236:Drivers/lvgl/lvgl/src/extra/layouts/flex/../flex/../../../core/lv_obj_style_gen.h **** {
 237:Drivers/lvgl/lvgl/src/extra/layouts/flex/../flex/../../../core/lv_obj_style_gen.h ****     lv_style_value_t v = lv_obj_get_style_prop(obj, part, LV_STYLE_BORDER_COLOR);
 238:Drivers/lvgl/lvgl/src/extra/layouts/flex/../flex/../../../core/lv_obj_style_gen.h ****     return v.color;
 239:Drivers/lvgl/lvgl/src/extra/layouts/flex/../flex/../../../core/lv_obj_style_gen.h **** }
 240:Drivers/lvgl/lvgl/src/extra/layouts/flex/../flex/../../../core/lv_obj_style_gen.h **** 
 241:Drivers/lvgl/lvgl/src/extra/layouts/flex/../flex/../../../core/lv_obj_style_gen.h **** static inline lv_color_t lv_obj_get_style_border_color_filtered(const struct _lv_obj_t * obj, uint3
 242:Drivers/lvgl/lvgl/src/extra/layouts/flex/../flex/../../../core/lv_obj_style_gen.h **** {
 243:Drivers/lvgl/lvgl/src/extra/layouts/flex/../flex/../../../core/lv_obj_style_gen.h ****     lv_style_value_t v = _lv_obj_style_apply_color_filter(obj, part, lv_obj_get_style_prop(obj, par
 244:Drivers/lvgl/lvgl/src/extra/layouts/flex/../flex/../../../core/lv_obj_style_gen.h ****     return v.color;
 245:Drivers/lvgl/lvgl/src/extra/layouts/flex/../flex/../../../core/lv_obj_style_gen.h **** }
 246:Drivers/lvgl/lvgl/src/extra/layouts/flex/../flex/../../../core/lv_obj_style_gen.h **** 
 247:Drivers/lvgl/lvgl/src/extra/layouts/flex/../flex/../../../core/lv_obj_style_gen.h **** static inline lv_opa_t lv_obj_get_style_border_opa(const struct _lv_obj_t * obj, uint32_t part)
 248:Drivers/lvgl/lvgl/src/extra/layouts/flex/../flex/../../../core/lv_obj_style_gen.h **** {
 249:Drivers/lvgl/lvgl/src/extra/layouts/flex/../flex/../../../core/lv_obj_style_gen.h ****     lv_style_value_t v = lv_obj_get_style_prop(obj, part, LV_STYLE_BORDER_OPA);
 250:Drivers/lvgl/lvgl/src/extra/layouts/flex/../flex/../../../core/lv_obj_style_gen.h ****     return (lv_opa_t)v.num;
 251:Drivers/lvgl/lvgl/src/extra/layouts/flex/../flex/../../../core/lv_obj_style_gen.h **** }
 252:Drivers/lvgl/lvgl/src/extra/layouts/flex/../flex/../../../core/lv_obj_style_gen.h **** 
 253:Drivers/lvgl/lvgl/src/extra/layouts/flex/../flex/../../../core/lv_obj_style_gen.h **** static inline lv_coord_t lv_obj_get_style_border_width(const struct _lv_obj_t * obj, uint32_t part)
 254:Drivers/lvgl/lvgl/src/extra/layouts/flex/../flex/../../../core/lv_obj_style_gen.h **** {
 255:Drivers/lvgl/lvgl/src/extra/layouts/flex/../flex/../../../core/lv_obj_style_gen.h ****     lv_style_value_t v = lv_obj_get_style_prop(obj, part, LV_STYLE_BORDER_WIDTH);
 256:Drivers/lvgl/lvgl/src/extra/layouts/flex/../flex/../../../core/lv_obj_style_gen.h ****     return (lv_coord_t)v.num;
 257:Drivers/lvgl/lvgl/src/extra/layouts/flex/../flex/../../../core/lv_obj_style_gen.h **** }
 258:Drivers/lvgl/lvgl/src/extra/layouts/flex/../flex/../../../core/lv_obj_style_gen.h **** 
 259:Drivers/lvgl/lvgl/src/extra/layouts/flex/../flex/../../../core/lv_obj_style_gen.h **** static inline lv_border_side_t lv_obj_get_style_border_side(const struct _lv_obj_t * obj, uint32_t 
 260:Drivers/lvgl/lvgl/src/extra/layouts/flex/../flex/../../../core/lv_obj_style_gen.h **** {
 261:Drivers/lvgl/lvgl/src/extra/layouts/flex/../flex/../../../core/lv_obj_style_gen.h ****     lv_style_value_t v = lv_obj_get_style_prop(obj, part, LV_STYLE_BORDER_SIDE);
 262:Drivers/lvgl/lvgl/src/extra/layouts/flex/../flex/../../../core/lv_obj_style_gen.h ****     return (lv_border_side_t)v.num;
 263:Drivers/lvgl/lvgl/src/extra/layouts/flex/../flex/../../../core/lv_obj_style_gen.h **** }
 264:Drivers/lvgl/lvgl/src/extra/layouts/flex/../flex/../../../core/lv_obj_style_gen.h **** 
 265:Drivers/lvgl/lvgl/src/extra/layouts/flex/../flex/../../../core/lv_obj_style_gen.h **** static inline bool lv_obj_get_style_border_post(const struct _lv_obj_t * obj, uint32_t part)
 266:Drivers/lvgl/lvgl/src/extra/layouts/flex/../flex/../../../core/lv_obj_style_gen.h **** {
 267:Drivers/lvgl/lvgl/src/extra/layouts/flex/../flex/../../../core/lv_obj_style_gen.h ****     lv_style_value_t v = lv_obj_get_style_prop(obj, part, LV_STYLE_BORDER_POST);
 268:Drivers/lvgl/lvgl/src/extra/layouts/flex/../flex/../../../core/lv_obj_style_gen.h ****     return (bool)v.num;
 269:Drivers/lvgl/lvgl/src/extra/layouts/flex/../flex/../../../core/lv_obj_style_gen.h **** }
 270:Drivers/lvgl/lvgl/src/extra/layouts/flex/../flex/../../../core/lv_obj_style_gen.h **** 
 271:Drivers/lvgl/lvgl/src/extra/layouts/flex/../flex/../../../core/lv_obj_style_gen.h **** static inline lv_coord_t lv_obj_get_style_outline_width(const struct _lv_obj_t * obj, uint32_t part
ARM GAS  /tmp/ccbxNlti.s 			page 41


 272:Drivers/lvgl/lvgl/src/extra/layouts/flex/../flex/../../../core/lv_obj_style_gen.h **** {
 273:Drivers/lvgl/lvgl/src/extra/layouts/flex/../flex/../../../core/lv_obj_style_gen.h ****     lv_style_value_t v = lv_obj_get_style_prop(obj, part, LV_STYLE_OUTLINE_WIDTH);
 274:Drivers/lvgl/lvgl/src/extra/layouts/flex/../flex/../../../core/lv_obj_style_gen.h ****     return (lv_coord_t)v.num;
 275:Drivers/lvgl/lvgl/src/extra/layouts/flex/../flex/../../../core/lv_obj_style_gen.h **** }
 276:Drivers/lvgl/lvgl/src/extra/layouts/flex/../flex/../../../core/lv_obj_style_gen.h **** 
 277:Drivers/lvgl/lvgl/src/extra/layouts/flex/../flex/../../../core/lv_obj_style_gen.h **** static inline lv_color_t lv_obj_get_style_outline_color(const struct _lv_obj_t * obj, uint32_t part
 278:Drivers/lvgl/lvgl/src/extra/layouts/flex/../flex/../../../core/lv_obj_style_gen.h **** {
 279:Drivers/lvgl/lvgl/src/extra/layouts/flex/../flex/../../../core/lv_obj_style_gen.h ****     lv_style_value_t v = lv_obj_get_style_prop(obj, part, LV_STYLE_OUTLINE_COLOR);
 280:Drivers/lvgl/lvgl/src/extra/layouts/flex/../flex/../../../core/lv_obj_style_gen.h ****     return v.color;
 281:Drivers/lvgl/lvgl/src/extra/layouts/flex/../flex/../../../core/lv_obj_style_gen.h **** }
 282:Drivers/lvgl/lvgl/src/extra/layouts/flex/../flex/../../../core/lv_obj_style_gen.h **** 
 283:Drivers/lvgl/lvgl/src/extra/layouts/flex/../flex/../../../core/lv_obj_style_gen.h **** static inline lv_color_t lv_obj_get_style_outline_color_filtered(const struct _lv_obj_t * obj, uint
 284:Drivers/lvgl/lvgl/src/extra/layouts/flex/../flex/../../../core/lv_obj_style_gen.h **** {
 285:Drivers/lvgl/lvgl/src/extra/layouts/flex/../flex/../../../core/lv_obj_style_gen.h ****     lv_style_value_t v = _lv_obj_style_apply_color_filter(obj, part, lv_obj_get_style_prop(obj, par
 286:Drivers/lvgl/lvgl/src/extra/layouts/flex/../flex/../../../core/lv_obj_style_gen.h ****     return v.color;
 287:Drivers/lvgl/lvgl/src/extra/layouts/flex/../flex/../../../core/lv_obj_style_gen.h **** }
 288:Drivers/lvgl/lvgl/src/extra/layouts/flex/../flex/../../../core/lv_obj_style_gen.h **** 
 289:Drivers/lvgl/lvgl/src/extra/layouts/flex/../flex/../../../core/lv_obj_style_gen.h **** static inline lv_opa_t lv_obj_get_style_outline_opa(const struct _lv_obj_t * obj, uint32_t part)
 290:Drivers/lvgl/lvgl/src/extra/layouts/flex/../flex/../../../core/lv_obj_style_gen.h **** {
 291:Drivers/lvgl/lvgl/src/extra/layouts/flex/../flex/../../../core/lv_obj_style_gen.h ****     lv_style_value_t v = lv_obj_get_style_prop(obj, part, LV_STYLE_OUTLINE_OPA);
 292:Drivers/lvgl/lvgl/src/extra/layouts/flex/../flex/../../../core/lv_obj_style_gen.h ****     return (lv_opa_t)v.num;
 293:Drivers/lvgl/lvgl/src/extra/layouts/flex/../flex/../../../core/lv_obj_style_gen.h **** }
 294:Drivers/lvgl/lvgl/src/extra/layouts/flex/../flex/../../../core/lv_obj_style_gen.h **** 
 295:Drivers/lvgl/lvgl/src/extra/layouts/flex/../flex/../../../core/lv_obj_style_gen.h **** static inline lv_coord_t lv_obj_get_style_outline_pad(const struct _lv_obj_t * obj, uint32_t part)
 296:Drivers/lvgl/lvgl/src/extra/layouts/flex/../flex/../../../core/lv_obj_style_gen.h **** {
 297:Drivers/lvgl/lvgl/src/extra/layouts/flex/../flex/../../../core/lv_obj_style_gen.h ****     lv_style_value_t v = lv_obj_get_style_prop(obj, part, LV_STYLE_OUTLINE_PAD);
 298:Drivers/lvgl/lvgl/src/extra/layouts/flex/../flex/../../../core/lv_obj_style_gen.h ****     return (lv_coord_t)v.num;
 299:Drivers/lvgl/lvgl/src/extra/layouts/flex/../flex/../../../core/lv_obj_style_gen.h **** }
 300:Drivers/lvgl/lvgl/src/extra/layouts/flex/../flex/../../../core/lv_obj_style_gen.h **** 
 301:Drivers/lvgl/lvgl/src/extra/layouts/flex/../flex/../../../core/lv_obj_style_gen.h **** static inline lv_coord_t lv_obj_get_style_shadow_width(const struct _lv_obj_t * obj, uint32_t part)
 302:Drivers/lvgl/lvgl/src/extra/layouts/flex/../flex/../../../core/lv_obj_style_gen.h **** {
 303:Drivers/lvgl/lvgl/src/extra/layouts/flex/../flex/../../../core/lv_obj_style_gen.h ****     lv_style_value_t v = lv_obj_get_style_prop(obj, part, LV_STYLE_SHADOW_WIDTH);
 304:Drivers/lvgl/lvgl/src/extra/layouts/flex/../flex/../../../core/lv_obj_style_gen.h ****     return (lv_coord_t)v.num;
 305:Drivers/lvgl/lvgl/src/extra/layouts/flex/../flex/../../../core/lv_obj_style_gen.h **** }
 306:Drivers/lvgl/lvgl/src/extra/layouts/flex/../flex/../../../core/lv_obj_style_gen.h **** 
 307:Drivers/lvgl/lvgl/src/extra/layouts/flex/../flex/../../../core/lv_obj_style_gen.h **** static inline lv_coord_t lv_obj_get_style_shadow_ofs_x(const struct _lv_obj_t * obj, uint32_t part)
 308:Drivers/lvgl/lvgl/src/extra/layouts/flex/../flex/../../../core/lv_obj_style_gen.h **** {
 309:Drivers/lvgl/lvgl/src/extra/layouts/flex/../flex/../../../core/lv_obj_style_gen.h ****     lv_style_value_t v = lv_obj_get_style_prop(obj, part, LV_STYLE_SHADOW_OFS_X);
 310:Drivers/lvgl/lvgl/src/extra/layouts/flex/../flex/../../../core/lv_obj_style_gen.h ****     return (lv_coord_t)v.num;
 311:Drivers/lvgl/lvgl/src/extra/layouts/flex/../flex/../../../core/lv_obj_style_gen.h **** }
 312:Drivers/lvgl/lvgl/src/extra/layouts/flex/../flex/../../../core/lv_obj_style_gen.h **** 
 313:Drivers/lvgl/lvgl/src/extra/layouts/flex/../flex/../../../core/lv_obj_style_gen.h **** static inline lv_coord_t lv_obj_get_style_shadow_ofs_y(const struct _lv_obj_t * obj, uint32_t part)
 314:Drivers/lvgl/lvgl/src/extra/layouts/flex/../flex/../../../core/lv_obj_style_gen.h **** {
 315:Drivers/lvgl/lvgl/src/extra/layouts/flex/../flex/../../../core/lv_obj_style_gen.h ****     lv_style_value_t v = lv_obj_get_style_prop(obj, part, LV_STYLE_SHADOW_OFS_Y);
 316:Drivers/lvgl/lvgl/src/extra/layouts/flex/../flex/../../../core/lv_obj_style_gen.h ****     return (lv_coord_t)v.num;
 317:Drivers/lvgl/lvgl/src/extra/layouts/flex/../flex/../../../core/lv_obj_style_gen.h **** }
 318:Drivers/lvgl/lvgl/src/extra/layouts/flex/../flex/../../../core/lv_obj_style_gen.h **** 
 319:Drivers/lvgl/lvgl/src/extra/layouts/flex/../flex/../../../core/lv_obj_style_gen.h **** static inline lv_coord_t lv_obj_get_style_shadow_spread(const struct _lv_obj_t * obj, uint32_t part
 320:Drivers/lvgl/lvgl/src/extra/layouts/flex/../flex/../../../core/lv_obj_style_gen.h **** {
 321:Drivers/lvgl/lvgl/src/extra/layouts/flex/../flex/../../../core/lv_obj_style_gen.h ****     lv_style_value_t v = lv_obj_get_style_prop(obj, part, LV_STYLE_SHADOW_SPREAD);
 322:Drivers/lvgl/lvgl/src/extra/layouts/flex/../flex/../../../core/lv_obj_style_gen.h ****     return (lv_coord_t)v.num;
 323:Drivers/lvgl/lvgl/src/extra/layouts/flex/../flex/../../../core/lv_obj_style_gen.h **** }
 324:Drivers/lvgl/lvgl/src/extra/layouts/flex/../flex/../../../core/lv_obj_style_gen.h **** 
 325:Drivers/lvgl/lvgl/src/extra/layouts/flex/../flex/../../../core/lv_obj_style_gen.h **** static inline lv_color_t lv_obj_get_style_shadow_color(const struct _lv_obj_t * obj, uint32_t part)
 326:Drivers/lvgl/lvgl/src/extra/layouts/flex/../flex/../../../core/lv_obj_style_gen.h **** {
 327:Drivers/lvgl/lvgl/src/extra/layouts/flex/../flex/../../../core/lv_obj_style_gen.h ****     lv_style_value_t v = lv_obj_get_style_prop(obj, part, LV_STYLE_SHADOW_COLOR);
 328:Drivers/lvgl/lvgl/src/extra/layouts/flex/../flex/../../../core/lv_obj_style_gen.h ****     return v.color;
ARM GAS  /tmp/ccbxNlti.s 			page 42


 329:Drivers/lvgl/lvgl/src/extra/layouts/flex/../flex/../../../core/lv_obj_style_gen.h **** }
 330:Drivers/lvgl/lvgl/src/extra/layouts/flex/../flex/../../../core/lv_obj_style_gen.h **** 
 331:Drivers/lvgl/lvgl/src/extra/layouts/flex/../flex/../../../core/lv_obj_style_gen.h **** static inline lv_color_t lv_obj_get_style_shadow_color_filtered(const struct _lv_obj_t * obj, uint3
 332:Drivers/lvgl/lvgl/src/extra/layouts/flex/../flex/../../../core/lv_obj_style_gen.h **** {
 333:Drivers/lvgl/lvgl/src/extra/layouts/flex/../flex/../../../core/lv_obj_style_gen.h ****     lv_style_value_t v = _lv_obj_style_apply_color_filter(obj, part, lv_obj_get_style_prop(obj, par
 334:Drivers/lvgl/lvgl/src/extra/layouts/flex/../flex/../../../core/lv_obj_style_gen.h ****     return v.color;
 335:Drivers/lvgl/lvgl/src/extra/layouts/flex/../flex/../../../core/lv_obj_style_gen.h **** }
 336:Drivers/lvgl/lvgl/src/extra/layouts/flex/../flex/../../../core/lv_obj_style_gen.h **** 
 337:Drivers/lvgl/lvgl/src/extra/layouts/flex/../flex/../../../core/lv_obj_style_gen.h **** static inline lv_opa_t lv_obj_get_style_shadow_opa(const struct _lv_obj_t * obj, uint32_t part)
 338:Drivers/lvgl/lvgl/src/extra/layouts/flex/../flex/../../../core/lv_obj_style_gen.h **** {
 339:Drivers/lvgl/lvgl/src/extra/layouts/flex/../flex/../../../core/lv_obj_style_gen.h ****     lv_style_value_t v = lv_obj_get_style_prop(obj, part, LV_STYLE_SHADOW_OPA);
 340:Drivers/lvgl/lvgl/src/extra/layouts/flex/../flex/../../../core/lv_obj_style_gen.h ****     return (lv_opa_t)v.num;
 341:Drivers/lvgl/lvgl/src/extra/layouts/flex/../flex/../../../core/lv_obj_style_gen.h **** }
 342:Drivers/lvgl/lvgl/src/extra/layouts/flex/../flex/../../../core/lv_obj_style_gen.h **** 
 343:Drivers/lvgl/lvgl/src/extra/layouts/flex/../flex/../../../core/lv_obj_style_gen.h **** static inline lv_opa_t lv_obj_get_style_img_opa(const struct _lv_obj_t * obj, uint32_t part)
 344:Drivers/lvgl/lvgl/src/extra/layouts/flex/../flex/../../../core/lv_obj_style_gen.h **** {
 345:Drivers/lvgl/lvgl/src/extra/layouts/flex/../flex/../../../core/lv_obj_style_gen.h ****     lv_style_value_t v = lv_obj_get_style_prop(obj, part, LV_STYLE_IMG_OPA);
 346:Drivers/lvgl/lvgl/src/extra/layouts/flex/../flex/../../../core/lv_obj_style_gen.h ****     return (lv_opa_t)v.num;
 347:Drivers/lvgl/lvgl/src/extra/layouts/flex/../flex/../../../core/lv_obj_style_gen.h **** }
 348:Drivers/lvgl/lvgl/src/extra/layouts/flex/../flex/../../../core/lv_obj_style_gen.h **** 
 349:Drivers/lvgl/lvgl/src/extra/layouts/flex/../flex/../../../core/lv_obj_style_gen.h **** static inline lv_color_t lv_obj_get_style_img_recolor(const struct _lv_obj_t * obj, uint32_t part)
 350:Drivers/lvgl/lvgl/src/extra/layouts/flex/../flex/../../../core/lv_obj_style_gen.h **** {
 351:Drivers/lvgl/lvgl/src/extra/layouts/flex/../flex/../../../core/lv_obj_style_gen.h ****     lv_style_value_t v = lv_obj_get_style_prop(obj, part, LV_STYLE_IMG_RECOLOR);
 352:Drivers/lvgl/lvgl/src/extra/layouts/flex/../flex/../../../core/lv_obj_style_gen.h ****     return v.color;
 353:Drivers/lvgl/lvgl/src/extra/layouts/flex/../flex/../../../core/lv_obj_style_gen.h **** }
 354:Drivers/lvgl/lvgl/src/extra/layouts/flex/../flex/../../../core/lv_obj_style_gen.h **** 
 355:Drivers/lvgl/lvgl/src/extra/layouts/flex/../flex/../../../core/lv_obj_style_gen.h **** static inline lv_color_t lv_obj_get_style_img_recolor_filtered(const struct _lv_obj_t * obj, uint32
 356:Drivers/lvgl/lvgl/src/extra/layouts/flex/../flex/../../../core/lv_obj_style_gen.h **** {
 357:Drivers/lvgl/lvgl/src/extra/layouts/flex/../flex/../../../core/lv_obj_style_gen.h ****     lv_style_value_t v = _lv_obj_style_apply_color_filter(obj, part, lv_obj_get_style_prop(obj, par
 358:Drivers/lvgl/lvgl/src/extra/layouts/flex/../flex/../../../core/lv_obj_style_gen.h ****     return v.color;
 359:Drivers/lvgl/lvgl/src/extra/layouts/flex/../flex/../../../core/lv_obj_style_gen.h **** }
 360:Drivers/lvgl/lvgl/src/extra/layouts/flex/../flex/../../../core/lv_obj_style_gen.h **** 
 361:Drivers/lvgl/lvgl/src/extra/layouts/flex/../flex/../../../core/lv_obj_style_gen.h **** static inline lv_opa_t lv_obj_get_style_img_recolor_opa(const struct _lv_obj_t * obj, uint32_t part
 362:Drivers/lvgl/lvgl/src/extra/layouts/flex/../flex/../../../core/lv_obj_style_gen.h **** {
 363:Drivers/lvgl/lvgl/src/extra/layouts/flex/../flex/../../../core/lv_obj_style_gen.h ****     lv_style_value_t v = lv_obj_get_style_prop(obj, part, LV_STYLE_IMG_RECOLOR_OPA);
 364:Drivers/lvgl/lvgl/src/extra/layouts/flex/../flex/../../../core/lv_obj_style_gen.h ****     return (lv_opa_t)v.num;
 365:Drivers/lvgl/lvgl/src/extra/layouts/flex/../flex/../../../core/lv_obj_style_gen.h **** }
 366:Drivers/lvgl/lvgl/src/extra/layouts/flex/../flex/../../../core/lv_obj_style_gen.h **** 
 367:Drivers/lvgl/lvgl/src/extra/layouts/flex/../flex/../../../core/lv_obj_style_gen.h **** static inline lv_coord_t lv_obj_get_style_line_width(const struct _lv_obj_t * obj, uint32_t part)
 368:Drivers/lvgl/lvgl/src/extra/layouts/flex/../flex/../../../core/lv_obj_style_gen.h **** {
 369:Drivers/lvgl/lvgl/src/extra/layouts/flex/../flex/../../../core/lv_obj_style_gen.h ****     lv_style_value_t v = lv_obj_get_style_prop(obj, part, LV_STYLE_LINE_WIDTH);
 370:Drivers/lvgl/lvgl/src/extra/layouts/flex/../flex/../../../core/lv_obj_style_gen.h ****     return (lv_coord_t)v.num;
 371:Drivers/lvgl/lvgl/src/extra/layouts/flex/../flex/../../../core/lv_obj_style_gen.h **** }
 372:Drivers/lvgl/lvgl/src/extra/layouts/flex/../flex/../../../core/lv_obj_style_gen.h **** 
 373:Drivers/lvgl/lvgl/src/extra/layouts/flex/../flex/../../../core/lv_obj_style_gen.h **** static inline lv_coord_t lv_obj_get_style_line_dash_width(const struct _lv_obj_t * obj, uint32_t pa
 374:Drivers/lvgl/lvgl/src/extra/layouts/flex/../flex/../../../core/lv_obj_style_gen.h **** {
 375:Drivers/lvgl/lvgl/src/extra/layouts/flex/../flex/../../../core/lv_obj_style_gen.h ****     lv_style_value_t v = lv_obj_get_style_prop(obj, part, LV_STYLE_LINE_DASH_WIDTH);
 376:Drivers/lvgl/lvgl/src/extra/layouts/flex/../flex/../../../core/lv_obj_style_gen.h ****     return (lv_coord_t)v.num;
 377:Drivers/lvgl/lvgl/src/extra/layouts/flex/../flex/../../../core/lv_obj_style_gen.h **** }
 378:Drivers/lvgl/lvgl/src/extra/layouts/flex/../flex/../../../core/lv_obj_style_gen.h **** 
 379:Drivers/lvgl/lvgl/src/extra/layouts/flex/../flex/../../../core/lv_obj_style_gen.h **** static inline lv_coord_t lv_obj_get_style_line_dash_gap(const struct _lv_obj_t * obj, uint32_t part
 380:Drivers/lvgl/lvgl/src/extra/layouts/flex/../flex/../../../core/lv_obj_style_gen.h **** {
 381:Drivers/lvgl/lvgl/src/extra/layouts/flex/../flex/../../../core/lv_obj_style_gen.h ****     lv_style_value_t v = lv_obj_get_style_prop(obj, part, LV_STYLE_LINE_DASH_GAP);
 382:Drivers/lvgl/lvgl/src/extra/layouts/flex/../flex/../../../core/lv_obj_style_gen.h ****     return (lv_coord_t)v.num;
 383:Drivers/lvgl/lvgl/src/extra/layouts/flex/../flex/../../../core/lv_obj_style_gen.h **** }
 384:Drivers/lvgl/lvgl/src/extra/layouts/flex/../flex/../../../core/lv_obj_style_gen.h **** 
 385:Drivers/lvgl/lvgl/src/extra/layouts/flex/../flex/../../../core/lv_obj_style_gen.h **** static inline bool lv_obj_get_style_line_rounded(const struct _lv_obj_t * obj, uint32_t part)
ARM GAS  /tmp/ccbxNlti.s 			page 43


 386:Drivers/lvgl/lvgl/src/extra/layouts/flex/../flex/../../../core/lv_obj_style_gen.h **** {
 387:Drivers/lvgl/lvgl/src/extra/layouts/flex/../flex/../../../core/lv_obj_style_gen.h ****     lv_style_value_t v = lv_obj_get_style_prop(obj, part, LV_STYLE_LINE_ROUNDED);
 388:Drivers/lvgl/lvgl/src/extra/layouts/flex/../flex/../../../core/lv_obj_style_gen.h ****     return (bool)v.num;
 389:Drivers/lvgl/lvgl/src/extra/layouts/flex/../flex/../../../core/lv_obj_style_gen.h **** }
 390:Drivers/lvgl/lvgl/src/extra/layouts/flex/../flex/../../../core/lv_obj_style_gen.h **** 
 391:Drivers/lvgl/lvgl/src/extra/layouts/flex/../flex/../../../core/lv_obj_style_gen.h **** static inline lv_color_t lv_obj_get_style_line_color(const struct _lv_obj_t * obj, uint32_t part)
 392:Drivers/lvgl/lvgl/src/extra/layouts/flex/../flex/../../../core/lv_obj_style_gen.h **** {
 393:Drivers/lvgl/lvgl/src/extra/layouts/flex/../flex/../../../core/lv_obj_style_gen.h ****     lv_style_value_t v = lv_obj_get_style_prop(obj, part, LV_STYLE_LINE_COLOR);
 394:Drivers/lvgl/lvgl/src/extra/layouts/flex/../flex/../../../core/lv_obj_style_gen.h ****     return v.color;
 395:Drivers/lvgl/lvgl/src/extra/layouts/flex/../flex/../../../core/lv_obj_style_gen.h **** }
 396:Drivers/lvgl/lvgl/src/extra/layouts/flex/../flex/../../../core/lv_obj_style_gen.h **** 
 397:Drivers/lvgl/lvgl/src/extra/layouts/flex/../flex/../../../core/lv_obj_style_gen.h **** static inline lv_color_t lv_obj_get_style_line_color_filtered(const struct _lv_obj_t * obj, uint32_
 398:Drivers/lvgl/lvgl/src/extra/layouts/flex/../flex/../../../core/lv_obj_style_gen.h **** {
 399:Drivers/lvgl/lvgl/src/extra/layouts/flex/../flex/../../../core/lv_obj_style_gen.h ****     lv_style_value_t v = _lv_obj_style_apply_color_filter(obj, part, lv_obj_get_style_prop(obj, par
 400:Drivers/lvgl/lvgl/src/extra/layouts/flex/../flex/../../../core/lv_obj_style_gen.h ****     return v.color;
 401:Drivers/lvgl/lvgl/src/extra/layouts/flex/../flex/../../../core/lv_obj_style_gen.h **** }
 402:Drivers/lvgl/lvgl/src/extra/layouts/flex/../flex/../../../core/lv_obj_style_gen.h **** 
 403:Drivers/lvgl/lvgl/src/extra/layouts/flex/../flex/../../../core/lv_obj_style_gen.h **** static inline lv_opa_t lv_obj_get_style_line_opa(const struct _lv_obj_t * obj, uint32_t part)
 404:Drivers/lvgl/lvgl/src/extra/layouts/flex/../flex/../../../core/lv_obj_style_gen.h **** {
 405:Drivers/lvgl/lvgl/src/extra/layouts/flex/../flex/../../../core/lv_obj_style_gen.h ****     lv_style_value_t v = lv_obj_get_style_prop(obj, part, LV_STYLE_LINE_OPA);
 406:Drivers/lvgl/lvgl/src/extra/layouts/flex/../flex/../../../core/lv_obj_style_gen.h ****     return (lv_opa_t)v.num;
 407:Drivers/lvgl/lvgl/src/extra/layouts/flex/../flex/../../../core/lv_obj_style_gen.h **** }
 408:Drivers/lvgl/lvgl/src/extra/layouts/flex/../flex/../../../core/lv_obj_style_gen.h **** 
 409:Drivers/lvgl/lvgl/src/extra/layouts/flex/../flex/../../../core/lv_obj_style_gen.h **** static inline lv_coord_t lv_obj_get_style_arc_width(const struct _lv_obj_t * obj, uint32_t part)
 410:Drivers/lvgl/lvgl/src/extra/layouts/flex/../flex/../../../core/lv_obj_style_gen.h **** {
 411:Drivers/lvgl/lvgl/src/extra/layouts/flex/../flex/../../../core/lv_obj_style_gen.h ****     lv_style_value_t v = lv_obj_get_style_prop(obj, part, LV_STYLE_ARC_WIDTH);
 412:Drivers/lvgl/lvgl/src/extra/layouts/flex/../flex/../../../core/lv_obj_style_gen.h ****     return (lv_coord_t)v.num;
 413:Drivers/lvgl/lvgl/src/extra/layouts/flex/../flex/../../../core/lv_obj_style_gen.h **** }
 414:Drivers/lvgl/lvgl/src/extra/layouts/flex/../flex/../../../core/lv_obj_style_gen.h **** 
 415:Drivers/lvgl/lvgl/src/extra/layouts/flex/../flex/../../../core/lv_obj_style_gen.h **** static inline bool lv_obj_get_style_arc_rounded(const struct _lv_obj_t * obj, uint32_t part)
 416:Drivers/lvgl/lvgl/src/extra/layouts/flex/../flex/../../../core/lv_obj_style_gen.h **** {
 417:Drivers/lvgl/lvgl/src/extra/layouts/flex/../flex/../../../core/lv_obj_style_gen.h ****     lv_style_value_t v = lv_obj_get_style_prop(obj, part, LV_STYLE_ARC_ROUNDED);
 418:Drivers/lvgl/lvgl/src/extra/layouts/flex/../flex/../../../core/lv_obj_style_gen.h ****     return (bool)v.num;
 419:Drivers/lvgl/lvgl/src/extra/layouts/flex/../flex/../../../core/lv_obj_style_gen.h **** }
 420:Drivers/lvgl/lvgl/src/extra/layouts/flex/../flex/../../../core/lv_obj_style_gen.h **** 
 421:Drivers/lvgl/lvgl/src/extra/layouts/flex/../flex/../../../core/lv_obj_style_gen.h **** static inline lv_color_t lv_obj_get_style_arc_color(const struct _lv_obj_t * obj, uint32_t part)
 422:Drivers/lvgl/lvgl/src/extra/layouts/flex/../flex/../../../core/lv_obj_style_gen.h **** {
 423:Drivers/lvgl/lvgl/src/extra/layouts/flex/../flex/../../../core/lv_obj_style_gen.h ****     lv_style_value_t v = lv_obj_get_style_prop(obj, part, LV_STYLE_ARC_COLOR);
 424:Drivers/lvgl/lvgl/src/extra/layouts/flex/../flex/../../../core/lv_obj_style_gen.h ****     return v.color;
 425:Drivers/lvgl/lvgl/src/extra/layouts/flex/../flex/../../../core/lv_obj_style_gen.h **** }
 426:Drivers/lvgl/lvgl/src/extra/layouts/flex/../flex/../../../core/lv_obj_style_gen.h **** 
 427:Drivers/lvgl/lvgl/src/extra/layouts/flex/../flex/../../../core/lv_obj_style_gen.h **** static inline lv_color_t lv_obj_get_style_arc_color_filtered(const struct _lv_obj_t * obj, uint32_t
 428:Drivers/lvgl/lvgl/src/extra/layouts/flex/../flex/../../../core/lv_obj_style_gen.h **** {
 429:Drivers/lvgl/lvgl/src/extra/layouts/flex/../flex/../../../core/lv_obj_style_gen.h ****     lv_style_value_t v = _lv_obj_style_apply_color_filter(obj, part, lv_obj_get_style_prop(obj, par
 430:Drivers/lvgl/lvgl/src/extra/layouts/flex/../flex/../../../core/lv_obj_style_gen.h ****     return v.color;
 431:Drivers/lvgl/lvgl/src/extra/layouts/flex/../flex/../../../core/lv_obj_style_gen.h **** }
 432:Drivers/lvgl/lvgl/src/extra/layouts/flex/../flex/../../../core/lv_obj_style_gen.h **** 
 433:Drivers/lvgl/lvgl/src/extra/layouts/flex/../flex/../../../core/lv_obj_style_gen.h **** static inline lv_opa_t lv_obj_get_style_arc_opa(const struct _lv_obj_t * obj, uint32_t part)
 434:Drivers/lvgl/lvgl/src/extra/layouts/flex/../flex/../../../core/lv_obj_style_gen.h **** {
 435:Drivers/lvgl/lvgl/src/extra/layouts/flex/../flex/../../../core/lv_obj_style_gen.h ****     lv_style_value_t v = lv_obj_get_style_prop(obj, part, LV_STYLE_ARC_OPA);
 436:Drivers/lvgl/lvgl/src/extra/layouts/flex/../flex/../../../core/lv_obj_style_gen.h ****     return (lv_opa_t)v.num;
 437:Drivers/lvgl/lvgl/src/extra/layouts/flex/../flex/../../../core/lv_obj_style_gen.h **** }
 438:Drivers/lvgl/lvgl/src/extra/layouts/flex/../flex/../../../core/lv_obj_style_gen.h **** 
 439:Drivers/lvgl/lvgl/src/extra/layouts/flex/../flex/../../../core/lv_obj_style_gen.h **** static inline const void * lv_obj_get_style_arc_img_src(const struct _lv_obj_t * obj, uint32_t part
 440:Drivers/lvgl/lvgl/src/extra/layouts/flex/../flex/../../../core/lv_obj_style_gen.h **** {
 441:Drivers/lvgl/lvgl/src/extra/layouts/flex/../flex/../../../core/lv_obj_style_gen.h ****     lv_style_value_t v = lv_obj_get_style_prop(obj, part, LV_STYLE_ARC_IMG_SRC);
 442:Drivers/lvgl/lvgl/src/extra/layouts/flex/../flex/../../../core/lv_obj_style_gen.h ****     return (const void *)v.ptr;
ARM GAS  /tmp/ccbxNlti.s 			page 44


 443:Drivers/lvgl/lvgl/src/extra/layouts/flex/../flex/../../../core/lv_obj_style_gen.h **** }
 444:Drivers/lvgl/lvgl/src/extra/layouts/flex/../flex/../../../core/lv_obj_style_gen.h **** 
 445:Drivers/lvgl/lvgl/src/extra/layouts/flex/../flex/../../../core/lv_obj_style_gen.h **** static inline lv_color_t lv_obj_get_style_text_color(const struct _lv_obj_t * obj, uint32_t part)
 446:Drivers/lvgl/lvgl/src/extra/layouts/flex/../flex/../../../core/lv_obj_style_gen.h **** {
 447:Drivers/lvgl/lvgl/src/extra/layouts/flex/../flex/../../../core/lv_obj_style_gen.h ****     lv_style_value_t v = lv_obj_get_style_prop(obj, part, LV_STYLE_TEXT_COLOR);
 448:Drivers/lvgl/lvgl/src/extra/layouts/flex/../flex/../../../core/lv_obj_style_gen.h ****     return v.color;
 449:Drivers/lvgl/lvgl/src/extra/layouts/flex/../flex/../../../core/lv_obj_style_gen.h **** }
 450:Drivers/lvgl/lvgl/src/extra/layouts/flex/../flex/../../../core/lv_obj_style_gen.h **** 
 451:Drivers/lvgl/lvgl/src/extra/layouts/flex/../flex/../../../core/lv_obj_style_gen.h **** static inline lv_color_t lv_obj_get_style_text_color_filtered(const struct _lv_obj_t * obj, uint32_
 452:Drivers/lvgl/lvgl/src/extra/layouts/flex/../flex/../../../core/lv_obj_style_gen.h **** {
 453:Drivers/lvgl/lvgl/src/extra/layouts/flex/../flex/../../../core/lv_obj_style_gen.h ****     lv_style_value_t v = _lv_obj_style_apply_color_filter(obj, part, lv_obj_get_style_prop(obj, par
 454:Drivers/lvgl/lvgl/src/extra/layouts/flex/../flex/../../../core/lv_obj_style_gen.h ****     return v.color;
 455:Drivers/lvgl/lvgl/src/extra/layouts/flex/../flex/../../../core/lv_obj_style_gen.h **** }
 456:Drivers/lvgl/lvgl/src/extra/layouts/flex/../flex/../../../core/lv_obj_style_gen.h **** 
 457:Drivers/lvgl/lvgl/src/extra/layouts/flex/../flex/../../../core/lv_obj_style_gen.h **** static inline lv_opa_t lv_obj_get_style_text_opa(const struct _lv_obj_t * obj, uint32_t part)
 458:Drivers/lvgl/lvgl/src/extra/layouts/flex/../flex/../../../core/lv_obj_style_gen.h **** {
 459:Drivers/lvgl/lvgl/src/extra/layouts/flex/../flex/../../../core/lv_obj_style_gen.h ****     lv_style_value_t v = lv_obj_get_style_prop(obj, part, LV_STYLE_TEXT_OPA);
 460:Drivers/lvgl/lvgl/src/extra/layouts/flex/../flex/../../../core/lv_obj_style_gen.h ****     return (lv_opa_t)v.num;
 461:Drivers/lvgl/lvgl/src/extra/layouts/flex/../flex/../../../core/lv_obj_style_gen.h **** }
 462:Drivers/lvgl/lvgl/src/extra/layouts/flex/../flex/../../../core/lv_obj_style_gen.h **** 
 463:Drivers/lvgl/lvgl/src/extra/layouts/flex/../flex/../../../core/lv_obj_style_gen.h **** static inline const lv_font_t * lv_obj_get_style_text_font(const struct _lv_obj_t * obj, uint32_t p
 464:Drivers/lvgl/lvgl/src/extra/layouts/flex/../flex/../../../core/lv_obj_style_gen.h **** {
 465:Drivers/lvgl/lvgl/src/extra/layouts/flex/../flex/../../../core/lv_obj_style_gen.h ****     lv_style_value_t v = lv_obj_get_style_prop(obj, part, LV_STYLE_TEXT_FONT);
 466:Drivers/lvgl/lvgl/src/extra/layouts/flex/../flex/../../../core/lv_obj_style_gen.h ****     return (const lv_font_t *)v.ptr;
 467:Drivers/lvgl/lvgl/src/extra/layouts/flex/../flex/../../../core/lv_obj_style_gen.h **** }
 468:Drivers/lvgl/lvgl/src/extra/layouts/flex/../flex/../../../core/lv_obj_style_gen.h **** 
 469:Drivers/lvgl/lvgl/src/extra/layouts/flex/../flex/../../../core/lv_obj_style_gen.h **** static inline lv_coord_t lv_obj_get_style_text_letter_space(const struct _lv_obj_t * obj, uint32_t 
 470:Drivers/lvgl/lvgl/src/extra/layouts/flex/../flex/../../../core/lv_obj_style_gen.h **** {
 471:Drivers/lvgl/lvgl/src/extra/layouts/flex/../flex/../../../core/lv_obj_style_gen.h ****     lv_style_value_t v = lv_obj_get_style_prop(obj, part, LV_STYLE_TEXT_LETTER_SPACE);
 472:Drivers/lvgl/lvgl/src/extra/layouts/flex/../flex/../../../core/lv_obj_style_gen.h ****     return (lv_coord_t)v.num;
 473:Drivers/lvgl/lvgl/src/extra/layouts/flex/../flex/../../../core/lv_obj_style_gen.h **** }
 474:Drivers/lvgl/lvgl/src/extra/layouts/flex/../flex/../../../core/lv_obj_style_gen.h **** 
 475:Drivers/lvgl/lvgl/src/extra/layouts/flex/../flex/../../../core/lv_obj_style_gen.h **** static inline lv_coord_t lv_obj_get_style_text_line_space(const struct _lv_obj_t * obj, uint32_t pa
 476:Drivers/lvgl/lvgl/src/extra/layouts/flex/../flex/../../../core/lv_obj_style_gen.h **** {
 477:Drivers/lvgl/lvgl/src/extra/layouts/flex/../flex/../../../core/lv_obj_style_gen.h ****     lv_style_value_t v = lv_obj_get_style_prop(obj, part, LV_STYLE_TEXT_LINE_SPACE);
 478:Drivers/lvgl/lvgl/src/extra/layouts/flex/../flex/../../../core/lv_obj_style_gen.h ****     return (lv_coord_t)v.num;
 479:Drivers/lvgl/lvgl/src/extra/layouts/flex/../flex/../../../core/lv_obj_style_gen.h **** }
 480:Drivers/lvgl/lvgl/src/extra/layouts/flex/../flex/../../../core/lv_obj_style_gen.h **** 
 481:Drivers/lvgl/lvgl/src/extra/layouts/flex/../flex/../../../core/lv_obj_style_gen.h **** static inline lv_text_decor_t lv_obj_get_style_text_decor(const struct _lv_obj_t * obj, uint32_t pa
 482:Drivers/lvgl/lvgl/src/extra/layouts/flex/../flex/../../../core/lv_obj_style_gen.h **** {
 483:Drivers/lvgl/lvgl/src/extra/layouts/flex/../flex/../../../core/lv_obj_style_gen.h ****     lv_style_value_t v = lv_obj_get_style_prop(obj, part, LV_STYLE_TEXT_DECOR);
 484:Drivers/lvgl/lvgl/src/extra/layouts/flex/../flex/../../../core/lv_obj_style_gen.h ****     return (lv_text_decor_t)v.num;
 485:Drivers/lvgl/lvgl/src/extra/layouts/flex/../flex/../../../core/lv_obj_style_gen.h **** }
 486:Drivers/lvgl/lvgl/src/extra/layouts/flex/../flex/../../../core/lv_obj_style_gen.h **** 
 487:Drivers/lvgl/lvgl/src/extra/layouts/flex/../flex/../../../core/lv_obj_style_gen.h **** static inline lv_text_align_t lv_obj_get_style_text_align(const struct _lv_obj_t * obj, uint32_t pa
 488:Drivers/lvgl/lvgl/src/extra/layouts/flex/../flex/../../../core/lv_obj_style_gen.h **** {
 489:Drivers/lvgl/lvgl/src/extra/layouts/flex/../flex/../../../core/lv_obj_style_gen.h ****     lv_style_value_t v = lv_obj_get_style_prop(obj, part, LV_STYLE_TEXT_ALIGN);
 490:Drivers/lvgl/lvgl/src/extra/layouts/flex/../flex/../../../core/lv_obj_style_gen.h ****     return (lv_text_align_t)v.num;
 491:Drivers/lvgl/lvgl/src/extra/layouts/flex/../flex/../../../core/lv_obj_style_gen.h **** }
 492:Drivers/lvgl/lvgl/src/extra/layouts/flex/../flex/../../../core/lv_obj_style_gen.h **** 
 493:Drivers/lvgl/lvgl/src/extra/layouts/flex/../flex/../../../core/lv_obj_style_gen.h **** static inline lv_coord_t lv_obj_get_style_radius(const struct _lv_obj_t * obj, uint32_t part)
 494:Drivers/lvgl/lvgl/src/extra/layouts/flex/../flex/../../../core/lv_obj_style_gen.h **** {
 495:Drivers/lvgl/lvgl/src/extra/layouts/flex/../flex/../../../core/lv_obj_style_gen.h ****     lv_style_value_t v = lv_obj_get_style_prop(obj, part, LV_STYLE_RADIUS);
 496:Drivers/lvgl/lvgl/src/extra/layouts/flex/../flex/../../../core/lv_obj_style_gen.h ****     return (lv_coord_t)v.num;
 497:Drivers/lvgl/lvgl/src/extra/layouts/flex/../flex/../../../core/lv_obj_style_gen.h **** }
 498:Drivers/lvgl/lvgl/src/extra/layouts/flex/../flex/../../../core/lv_obj_style_gen.h **** 
 499:Drivers/lvgl/lvgl/src/extra/layouts/flex/../flex/../../../core/lv_obj_style_gen.h **** static inline bool lv_obj_get_style_clip_corner(const struct _lv_obj_t * obj, uint32_t part)
ARM GAS  /tmp/ccbxNlti.s 			page 45


 500:Drivers/lvgl/lvgl/src/extra/layouts/flex/../flex/../../../core/lv_obj_style_gen.h **** {
 501:Drivers/lvgl/lvgl/src/extra/layouts/flex/../flex/../../../core/lv_obj_style_gen.h ****     lv_style_value_t v = lv_obj_get_style_prop(obj, part, LV_STYLE_CLIP_CORNER);
 502:Drivers/lvgl/lvgl/src/extra/layouts/flex/../flex/../../../core/lv_obj_style_gen.h ****     return (bool)v.num;
 503:Drivers/lvgl/lvgl/src/extra/layouts/flex/../flex/../../../core/lv_obj_style_gen.h **** }
 504:Drivers/lvgl/lvgl/src/extra/layouts/flex/../flex/../../../core/lv_obj_style_gen.h **** 
 505:Drivers/lvgl/lvgl/src/extra/layouts/flex/../flex/../../../core/lv_obj_style_gen.h **** static inline lv_opa_t lv_obj_get_style_opa(const struct _lv_obj_t * obj, uint32_t part)
 506:Drivers/lvgl/lvgl/src/extra/layouts/flex/../flex/../../../core/lv_obj_style_gen.h **** {
 507:Drivers/lvgl/lvgl/src/extra/layouts/flex/../flex/../../../core/lv_obj_style_gen.h ****     lv_style_value_t v = lv_obj_get_style_prop(obj, part, LV_STYLE_OPA);
 508:Drivers/lvgl/lvgl/src/extra/layouts/flex/../flex/../../../core/lv_obj_style_gen.h ****     return (lv_opa_t)v.num;
 509:Drivers/lvgl/lvgl/src/extra/layouts/flex/../flex/../../../core/lv_obj_style_gen.h **** }
 510:Drivers/lvgl/lvgl/src/extra/layouts/flex/../flex/../../../core/lv_obj_style_gen.h **** 
 511:Drivers/lvgl/lvgl/src/extra/layouts/flex/../flex/../../../core/lv_obj_style_gen.h **** static inline const lv_color_filter_dsc_t * lv_obj_get_style_color_filter_dsc(const struct _lv_obj_
 512:Drivers/lvgl/lvgl/src/extra/layouts/flex/../flex/../../../core/lv_obj_style_gen.h **** {
 513:Drivers/lvgl/lvgl/src/extra/layouts/flex/../flex/../../../core/lv_obj_style_gen.h ****     lv_style_value_t v = lv_obj_get_style_prop(obj, part, LV_STYLE_COLOR_FILTER_DSC);
 514:Drivers/lvgl/lvgl/src/extra/layouts/flex/../flex/../../../core/lv_obj_style_gen.h ****     return (const lv_color_filter_dsc_t *)v.ptr;
 515:Drivers/lvgl/lvgl/src/extra/layouts/flex/../flex/../../../core/lv_obj_style_gen.h **** }
 516:Drivers/lvgl/lvgl/src/extra/layouts/flex/../flex/../../../core/lv_obj_style_gen.h **** 
 517:Drivers/lvgl/lvgl/src/extra/layouts/flex/../flex/../../../core/lv_obj_style_gen.h **** static inline lv_opa_t lv_obj_get_style_color_filter_opa(const struct _lv_obj_t * obj, uint32_t par
 518:Drivers/lvgl/lvgl/src/extra/layouts/flex/../flex/../../../core/lv_obj_style_gen.h **** {
 519:Drivers/lvgl/lvgl/src/extra/layouts/flex/../flex/../../../core/lv_obj_style_gen.h ****     lv_style_value_t v = lv_obj_get_style_prop(obj, part, LV_STYLE_COLOR_FILTER_OPA);
 520:Drivers/lvgl/lvgl/src/extra/layouts/flex/../flex/../../../core/lv_obj_style_gen.h ****     return (lv_opa_t)v.num;
 521:Drivers/lvgl/lvgl/src/extra/layouts/flex/../flex/../../../core/lv_obj_style_gen.h **** }
 522:Drivers/lvgl/lvgl/src/extra/layouts/flex/../flex/../../../core/lv_obj_style_gen.h **** 
 523:Drivers/lvgl/lvgl/src/extra/layouts/flex/../flex/../../../core/lv_obj_style_gen.h **** static inline const lv_anim_t * lv_obj_get_style_anim(const struct _lv_obj_t * obj, uint32_t part)
 524:Drivers/lvgl/lvgl/src/extra/layouts/flex/../flex/../../../core/lv_obj_style_gen.h **** {
 525:Drivers/lvgl/lvgl/src/extra/layouts/flex/../flex/../../../core/lv_obj_style_gen.h ****     lv_style_value_t v = lv_obj_get_style_prop(obj, part, LV_STYLE_ANIM);
 526:Drivers/lvgl/lvgl/src/extra/layouts/flex/../flex/../../../core/lv_obj_style_gen.h ****     return (const lv_anim_t *)v.ptr;
 527:Drivers/lvgl/lvgl/src/extra/layouts/flex/../flex/../../../core/lv_obj_style_gen.h **** }
 528:Drivers/lvgl/lvgl/src/extra/layouts/flex/../flex/../../../core/lv_obj_style_gen.h **** 
 529:Drivers/lvgl/lvgl/src/extra/layouts/flex/../flex/../../../core/lv_obj_style_gen.h **** static inline uint32_t lv_obj_get_style_anim_time(const struct _lv_obj_t * obj, uint32_t part)
 530:Drivers/lvgl/lvgl/src/extra/layouts/flex/../flex/../../../core/lv_obj_style_gen.h **** {
 531:Drivers/lvgl/lvgl/src/extra/layouts/flex/../flex/../../../core/lv_obj_style_gen.h ****     lv_style_value_t v = lv_obj_get_style_prop(obj, part, LV_STYLE_ANIM_TIME);
 532:Drivers/lvgl/lvgl/src/extra/layouts/flex/../flex/../../../core/lv_obj_style_gen.h ****     return (uint32_t)v.num;
 533:Drivers/lvgl/lvgl/src/extra/layouts/flex/../flex/../../../core/lv_obj_style_gen.h **** }
 534:Drivers/lvgl/lvgl/src/extra/layouts/flex/../flex/../../../core/lv_obj_style_gen.h **** 
 535:Drivers/lvgl/lvgl/src/extra/layouts/flex/../flex/../../../core/lv_obj_style_gen.h **** static inline uint32_t lv_obj_get_style_anim_speed(const struct _lv_obj_t * obj, uint32_t part)
 536:Drivers/lvgl/lvgl/src/extra/layouts/flex/../flex/../../../core/lv_obj_style_gen.h **** {
 537:Drivers/lvgl/lvgl/src/extra/layouts/flex/../flex/../../../core/lv_obj_style_gen.h ****     lv_style_value_t v = lv_obj_get_style_prop(obj, part, LV_STYLE_ANIM_SPEED);
 538:Drivers/lvgl/lvgl/src/extra/layouts/flex/../flex/../../../core/lv_obj_style_gen.h ****     return (uint32_t)v.num;
 539:Drivers/lvgl/lvgl/src/extra/layouts/flex/../flex/../../../core/lv_obj_style_gen.h **** }
 540:Drivers/lvgl/lvgl/src/extra/layouts/flex/../flex/../../../core/lv_obj_style_gen.h **** 
 541:Drivers/lvgl/lvgl/src/extra/layouts/flex/../flex/../../../core/lv_obj_style_gen.h **** static inline const lv_style_transition_dsc_t * lv_obj_get_style_transition(const struct _lv_obj_t 
 542:Drivers/lvgl/lvgl/src/extra/layouts/flex/../flex/../../../core/lv_obj_style_gen.h **** {
 543:Drivers/lvgl/lvgl/src/extra/layouts/flex/../flex/../../../core/lv_obj_style_gen.h ****     lv_style_value_t v = lv_obj_get_style_prop(obj, part, LV_STYLE_TRANSITION);
 544:Drivers/lvgl/lvgl/src/extra/layouts/flex/../flex/../../../core/lv_obj_style_gen.h ****     return (const lv_style_transition_dsc_t *)v.ptr;
 545:Drivers/lvgl/lvgl/src/extra/layouts/flex/../flex/../../../core/lv_obj_style_gen.h **** }
 546:Drivers/lvgl/lvgl/src/extra/layouts/flex/../flex/../../../core/lv_obj_style_gen.h **** 
 547:Drivers/lvgl/lvgl/src/extra/layouts/flex/../flex/../../../core/lv_obj_style_gen.h **** static inline lv_blend_mode_t lv_obj_get_style_blend_mode(const struct _lv_obj_t * obj, uint32_t pa
 548:Drivers/lvgl/lvgl/src/extra/layouts/flex/../flex/../../../core/lv_obj_style_gen.h **** {
 549:Drivers/lvgl/lvgl/src/extra/layouts/flex/../flex/../../../core/lv_obj_style_gen.h ****     lv_style_value_t v = lv_obj_get_style_prop(obj, part, LV_STYLE_BLEND_MODE);
 550:Drivers/lvgl/lvgl/src/extra/layouts/flex/../flex/../../../core/lv_obj_style_gen.h ****     return (lv_blend_mode_t)v.num;
 551:Drivers/lvgl/lvgl/src/extra/layouts/flex/../flex/../../../core/lv_obj_style_gen.h **** }
 552:Drivers/lvgl/lvgl/src/extra/layouts/flex/../flex/../../../core/lv_obj_style_gen.h **** 
 553:Drivers/lvgl/lvgl/src/extra/layouts/flex/../flex/../../../core/lv_obj_style_gen.h **** static inline uint16_t lv_obj_get_style_layout(const struct _lv_obj_t * obj, uint32_t part)
 554:Drivers/lvgl/lvgl/src/extra/layouts/flex/../flex/../../../core/lv_obj_style_gen.h **** {
 555:Drivers/lvgl/lvgl/src/extra/layouts/flex/../flex/../../../core/lv_obj_style_gen.h ****     lv_style_value_t v = lv_obj_get_style_prop(obj, part, LV_STYLE_LAYOUT);
 556:Drivers/lvgl/lvgl/src/extra/layouts/flex/../flex/../../../core/lv_obj_style_gen.h ****     return (uint16_t)v.num;
ARM GAS  /tmp/ccbxNlti.s 			page 46


 557:Drivers/lvgl/lvgl/src/extra/layouts/flex/../flex/../../../core/lv_obj_style_gen.h **** }
 558:Drivers/lvgl/lvgl/src/extra/layouts/flex/../flex/../../../core/lv_obj_style_gen.h **** 
 559:Drivers/lvgl/lvgl/src/extra/layouts/flex/../flex/../../../core/lv_obj_style_gen.h **** static inline lv_base_dir_t lv_obj_get_style_base_dir(const struct _lv_obj_t * obj, uint32_t part)
 560:Drivers/lvgl/lvgl/src/extra/layouts/flex/../flex/../../../core/lv_obj_style_gen.h **** {
 561:Drivers/lvgl/lvgl/src/extra/layouts/flex/../flex/../../../core/lv_obj_style_gen.h ****     lv_style_value_t v = lv_obj_get_style_prop(obj, part, LV_STYLE_BASE_DIR);
 1024              		.loc 3 561 0
 1025 011a 1622     		movs	r2, #22
 1026 011c 0021     		movs	r1, #0
 1027 011e FFF7FEFF 		bl	lv_obj_get_style_prop
 1028              	.LVL125:
 562:Drivers/lvgl/lvgl/src/extra/layouts/flex/../flex/../../../core/lv_obj_style_gen.h ****     return (lv_base_dir_t)v.num;
 1029              		.loc 3 562 0
 1030 0122 5FFA80F8 		uxtb	r8, r0
 1031              	.LVL126:
 1032              	.LBE86:
 1033              	.LBE85:
 450:Drivers/lvgl/lvgl/src/extra/layouts/flex/lv_flex.c **** 
 1034              		.loc 2 450 0
 1035 0126 0023     		movs	r3, #0
 1036 0128 ADF84630 		strh	r3, [sp, #70]	@ movhi
 452:Drivers/lvgl/lvgl/src/extra/layouts/flex/lv_flex.c ****     place_content(f->main_place, max_main_size, t->track_main_size, t->item_cnt, &main_pos, &place_
 1037              		.loc 2 452 0
 1038 012c 12A9     		add	r1, sp, #72
 1039 012e 21F8043D 		strh	r3, [r1, #-4]!	@ movhi
 453:Drivers/lvgl/lvgl/src/extra/layouts/flex/lv_flex.c ****     if(f->row && rtl) main_pos += lv_obj_get_content_width(cont);
 1040              		.loc 2 453 0
 1041 0132 B9F90830 		ldrsh	r3, [r9, #8]
 1042 0136 B9F90220 		ldrsh	r2, [r9, #2]
 1043 013a 9AF80000 		ldrb	r0, [r10]	@ zero_extendqisi2
 1044 013e 0191     		str	r1, [sp, #4]
 1045 0140 0DF14601 		add	r1, sp, #70
 1046 0144 0091     		str	r1, [sp]
 1047 0146 BDF97810 		ldrsh	r1, [sp, #120]
 1048 014a FFF7FEFF 		bl	place_content
 1049              	.LVL127:
 454:Drivers/lvgl/lvgl/src/extra/layouts/flex/lv_flex.c **** 
 1050              		.loc 2 454 0
 1051 014e 9AF80330 		ldrb	r3, [r10, #3]	@ zero_extendqisi2
 1052 0152 13F0010F 		tst	r3, #1
 1053 0156 0BD0     		beq	.L75
 454:Drivers/lvgl/lvgl/src/extra/layouts/flex/lv_flex.c **** 
 1054              		.loc 2 454 0 is_stmt 0 discriminator 1
 1055 0158 B8F1010F 		cmp	r8, #1
 1056 015c 08D1     		bne	.L75
 454:Drivers/lvgl/lvgl/src/extra/layouts/flex/lv_flex.c **** 
 1057              		.loc 2 454 0 discriminator 2
 1058 015e 0498     		ldr	r0, [sp, #16]
 1059 0160 FFF7FEFF 		bl	lv_obj_get_content_width
 1060              	.LVL128:
 1061 0164 BDF84630 		ldrh	r3, [sp, #70]
 1062 0168 13FA80F3 		uxtah	r3, r3, r0
 1063 016c ADF84630 		strh	r3, [sp, #70]	@ movhi
 1064              	.L75:
 456:Drivers/lvgl/lvgl/src/extra/layouts/flex/lv_flex.c ****     /*Reposition the children*/
 1065              		.loc 2 456 0 is_stmt 1
 1066 0170 0D99     		ldr	r1, [sp, #52]
 1067 0172 0498     		ldr	r0, [sp, #16]
ARM GAS  /tmp/ccbxNlti.s 			page 47


 1068 0174 FFF7FEFF 		bl	lv_obj_get_child
 1069              	.LVL129:
 1070 0178 0646     		mov	r6, r0
 1071              	.LVL130:
 458:Drivers/lvgl/lvgl/src/extra/layouts/flex/lv_flex.c ****         if(lv_obj_has_flag_any(item, LV_OBJ_FLAG_IGNORE_LAYOUT | LV_OBJ_FLAG_HIDDEN | LV_OBJ_FLAG_F
 1072              		.loc 2 458 0
 1073 017a C8E0     		b	.L76
 1074              	.LVL131:
 1075              	.L121:
 1076              	.LBB87:
 460:Drivers/lvgl/lvgl/src/extra/layouts/flex/lv_flex.c ****             continue;
 1077              		.loc 2 460 0
 1078 017c 9AF80310 		ldrb	r1, [r10, #3]	@ zero_extendqisi2
 1079 0180 0DAA     		add	r2, sp, #52
 1080 0182 C1F38001 		ubfx	r1, r1, #2, #1
 1081 0186 0498     		ldr	r0, [sp, #16]
 1082 0188 FFF7FEFF 		bl	get_next_item
 1083              	.LVL132:
 1084 018c 0646     		mov	r6, r0
 1085              	.LVL133:
 461:Drivers/lvgl/lvgl/src/extra/layouts/flex/lv_flex.c ****         }
 1086              		.loc 2 461 0
 1087 018e BEE0     		b	.L76
 1088              	.LVL134:
 1089              	.L83:
 1090              	.LBB88:
 467:Drivers/lvgl/lvgl/src/extra/layouts/flex/lv_flex.c ****                     s = t->grow_dsc[i].final_size;
 1091              		.loc 2 467 0
 1092 0190 D9F80C20 		ldr	r2, [r9, #12]
 1093 0194 03EB8301 		add	r1, r3, r3, lsl #2
 1094 0198 02EB8100 		add	r0, r2, r1, lsl #2
 1095 019c 52F82120 		ldr	r2, [r2, r1, lsl #2]
 1096 01a0 B242     		cmp	r2, r6
 1097 01a2 06D0     		beq	.L117
 466:Drivers/lvgl/lvgl/src/extra/layouts/flex/lv_flex.c ****                 if(t->grow_dsc[i].item == item) {
 1098              		.loc 2 466 0 discriminator 2
 1099 01a4 0133     		adds	r3, r3, #1
 1100              	.LVL135:
 1101              	.L79:
 466:Drivers/lvgl/lvgl/src/extra/layouts/flex/lv_flex.c ****                 if(t->grow_dsc[i].item == item) {
 1102              		.loc 2 466 0 is_stmt 0 discriminator 1
 1103 01a6 D9F81020 		ldr	r2, [r9, #16]
 1104 01aa 9A42     		cmp	r2, r3
 1105 01ac F0D8     		bhi	.L83
 465:Drivers/lvgl/lvgl/src/extra/layouts/flex/lv_flex.c ****             for(i = 0; i < t->grow_item_cnt; i++) {
 1106              		.loc 2 465 0 is_stmt 1
 1107 01ae 0024     		movs	r4, #0
 1108 01b0 01E0     		b	.L82
 1109              	.L117:
 468:Drivers/lvgl/lvgl/src/extra/layouts/flex/lv_flex.c ****                     break;
 1110              		.loc 2 468 0
 1111 01b2 B0F90840 		ldrsh	r4, [r0, #8]
 1112              	.LVL136:
 1113              	.L82:
 473:Drivers/lvgl/lvgl/src/extra/layouts/flex/lv_flex.c ****                 item->w_layout = 1;
 1114              		.loc 2 473 0
 1115 01b6 9AF80330 		ldrb	r3, [r10, #3]	@ zero_extendqisi2
ARM GAS  /tmp/ccbxNlti.s 			page 48


 1116              	.LVL137:
 1117 01ba 13F0010F 		tst	r3, #1
 1118 01be 38D0     		beq	.L84
 474:Drivers/lvgl/lvgl/src/extra/layouts/flex/lv_flex.c ****                 item->h_layout = 0;
 1119              		.loc 2 474 0
 1120 01c0 96F82330 		ldrb	r3, [r6, #35]	@ zero_extendqisi2
 475:Drivers/lvgl/lvgl/src/extra/layouts/flex/lv_flex.c ****             }
 1121              		.loc 2 475 0
 1122 01c4 43F00403 		orr	r3, r3, #4
 1123 01c8 6FF34103 		bfc	r3, #1, #1
 1124 01cc 86F82330 		strb	r3, [r6, #35]
 1125              	.L85:
 482:Drivers/lvgl/lvgl/src/extra/layouts/flex/lv_flex.c ****                 lv_obj_invalidate(item);
 1126              		.loc 2 482 0
 1127 01d0 06F11405 		add	r5, r6, #20
 1128 01d4 2846     		mov	r0, r5
 1129 01d6 039B     		ldr	r3, [sp, #12]
 1130 01d8 9847     		blx	r3
 1131              	.LVL138:
 1132 01da A042     		cmp	r0, r4
 1133 01dc 00F0BB80 		beq	.L86
 1134              	.LBB89:
 483:Drivers/lvgl/lvgl/src/extra/layouts/flex/lv_flex.c **** 
 1135              		.loc 2 483 0
 1136 01e0 3046     		mov	r0, r6
 1137 01e2 FFF7FEFF 		bl	lv_obj_invalidate
 1138              	.LVL139:
 1139              	.LBB90:
 1140              	.LBB91:
 112:Drivers/lvgl/lvgl/src/extra/layouts/flex/../flex/../../../core/../misc/../font/../misc/lv_area.h ****     dest->y1 = src->y1;
 1141              		.loc 1 112 0
 1142 01e6 B6F91430 		ldrsh	r3, [r6, #20]
 1143 01ea ADF83C30 		strh	r3, [sp, #60]	@ movhi
 113:Drivers/lvgl/lvgl/src/extra/layouts/flex/../flex/../../../core/../misc/../font/../misc/lv_area.h ****     dest->x2 = src->x2;
 1144              		.loc 1 113 0
 1145 01ee B6F91630 		ldrsh	r3, [r6, #22]
 1146 01f2 ADF83E30 		strh	r3, [sp, #62]	@ movhi
 114:Drivers/lvgl/lvgl/src/extra/layouts/flex/../flex/../../../core/../misc/../font/../misc/lv_area.h ****     dest->y2 = src->y2;
 1147              		.loc 1 114 0
 1148 01f6 B6F91830 		ldrsh	r3, [r6, #24]
 1149 01fa ADF84030 		strh	r3, [sp, #64]	@ movhi
 115:Drivers/lvgl/lvgl/src/extra/layouts/flex/../flex/../../../core/../misc/../font/../misc/lv_area.h **** }
 1150              		.loc 1 115 0
 1151 01fe B6F91A30 		ldrsh	r3, [r6, #26]
 1152 0202 ADF84230 		strh	r3, [sp, #66]	@ movhi
 1153              	.LVL140:
 1154              	.LBE91:
 1155              	.LBE90:
 487:Drivers/lvgl/lvgl/src/extra/layouts/flex/lv_flex.c ****                 lv_event_send(item, LV_EVENT_SIZE_CHANGED, &old_coords);
 1156              		.loc 2 487 0
 1157 0206 2146     		mov	r1, r4
 1158 0208 2846     		mov	r0, r5
 1159 020a 069B     		ldr	r3, [sp, #24]
 1160 020c 9847     		blx	r3
 1161              	.LVL141:
 488:Drivers/lvgl/lvgl/src/extra/layouts/flex/lv_flex.c ****                 lv_event_send(lv_obj_get_parent(item), LV_EVENT_CHILD_CHANGED, item);
 1162              		.loc 2 488 0
ARM GAS  /tmp/ccbxNlti.s 			page 49


 1163 020e 0FAA     		add	r2, sp, #60
 1164 0210 2921     		movs	r1, #41
 1165 0212 3046     		mov	r0, r6
 1166 0214 FFF7FEFF 		bl	lv_event_send
 1167              	.LVL142:
 489:Drivers/lvgl/lvgl/src/extra/layouts/flex/lv_flex.c ****                 lv_obj_invalidate(item);
 1168              		.loc 2 489 0
 1169 0218 3046     		mov	r0, r6
 1170 021a FFF7FEFF 		bl	lv_obj_get_parent
 1171              	.LVL143:
 1172 021e 3246     		mov	r2, r6
 1173 0220 2221     		movs	r1, #34
 1174 0222 FFF7FEFF 		bl	lv_event_send
 1175              	.LVL144:
 490:Drivers/lvgl/lvgl/src/extra/layouts/flex/lv_flex.c ****             }
 1176              		.loc 2 490 0
 1177 0226 3046     		mov	r0, r6
 1178 0228 FFF7FEFF 		bl	lv_obj_invalidate
 1179              	.LVL145:
 1180 022c 93E0     		b	.L86
 1181              	.LVL146:
 1182              	.L122:
 1183              	.LBE89:
 466:Drivers/lvgl/lvgl/src/extra/layouts/flex/lv_flex.c ****                 if(t->grow_dsc[i].item == item) {
 1184              		.loc 2 466 0
 1185 022e 0023     		movs	r3, #0
 1186 0230 B9E7     		b	.L79
 1187              	.LVL147:
 1188              	.L84:
 478:Drivers/lvgl/lvgl/src/extra/layouts/flex/lv_flex.c ****                 item->w_layout = 0;
 1189              		.loc 2 478 0
 1190 0232 96F82330 		ldrb	r3, [r6, #35]	@ zero_extendqisi2
 479:Drivers/lvgl/lvgl/src/extra/layouts/flex/lv_flex.c ****             }
 1191              		.loc 2 479 0
 1192 0236 43F00203 		orr	r3, r3, #2
 1193 023a 6FF38203 		bfc	r3, #2, #1
 1194 023e 86F82330 		strb	r3, [r6, #35]
 1195 0242 C5E7     		b	.L85
 1196              	.LVL148:
 1197              	.L88:
 1198              	.LBE88:
 506:Drivers/lvgl/lvgl/src/extra/layouts/flex/lv_flex.c ****                 break;
 1199              		.loc 2 506 0
 1200 0244 B9F80040 		ldrh	r4, [r9]
 1201 0248 06F11400 		add	r0, r6, #20
 1202 024c 059B     		ldr	r3, [sp, #20]
 1203 024e 9847     		blx	r3
 1204              	.LVL149:
 1205 0250 80B2     		uxth	r0, r0
 1206 0252 241A     		subs	r4, r4, r0
 1207 0254 24B2     		sxth	r4, r4
 1208              	.LVL150:
 507:Drivers/lvgl/lvgl/src/extra/layouts/flex/lv_flex.c ****             default:
 1209              		.loc 2 507 0
 1210 0256 94E0     		b	.L87
 1211              	.LVL151:
 1212              	.L112:
ARM GAS  /tmp/ccbxNlti.s 			page 50


 498:Drivers/lvgl/lvgl/src/extra/layouts/flex/lv_flex.c ****         switch(f->cross_place) {
 1213              		.loc 2 498 0
 1214 0258 0024     		movs	r4, #0
 1215 025a 92E0     		b	.L87
 1216              	.LVL152:
 1217              	.L123:
 520:Drivers/lvgl/lvgl/src/extra/layouts/flex/lv_flex.c ****         if(LV_COORD_IS_PCT(tr_y)) tr_y = (h * LV_COORD_GET_PCT(tr_y)) / 100;
 1218              		.loc 2 520 0 discriminator 1
 1219 025c 2BF4C043 		bic	r3, fp, #24576
 1220 0260 B3F5FA6F 		cmp	r3, #2000
 1221 0264 00F3BB80 		bgt	.L91
 520:Drivers/lvgl/lvgl/src/extra/layouts/flex/lv_flex.c ****         if(LV_COORD_IS_PCT(tr_y)) tr_y = (h * LV_COORD_GET_PCT(tr_y)) / 100;
 1222              		.loc 2 520 0 is_stmt 0 discriminator 2
 1223 0268 B3F57A7F 		cmp	r3, #1000
 1224 026c 01DD     		ble	.L93
 520:Drivers/lvgl/lvgl/src/extra/layouts/flex/lv_flex.c ****         if(LV_COORD_IS_PCT(tr_y)) tr_y = (h * LV_COORD_GET_PCT(tr_y)) / 100;
 1225              		.loc 2 520 0 discriminator 3
 1226 026e C3F57A73 		rsb	r3, r3, #1000
 1227              	.L93:
 520:Drivers/lvgl/lvgl/src/extra/layouts/flex/lv_flex.c ****         if(LV_COORD_IS_PCT(tr_y)) tr_y = (h * LV_COORD_GET_PCT(tr_y)) / 100;
 1228              		.loc 2 520 0 discriminator 6
 1229 0272 089A     		ldr	r2, [sp, #32]
 1230 0274 03FB02F3 		mul	r3, r3, r2
 1231 0278 4FF0640B 		mov	fp, #100
 1232 027c 93FBFBFB 		sdiv	fp, r3, fp
 1233 0280 0FFA8BFB 		sxth	fp, fp
 1234              	.LVL153:
 1235 0284 ABE0     		b	.L91
 1236              	.L124:
 521:Drivers/lvgl/lvgl/src/extra/layouts/flex/lv_flex.c **** 
 1237              		.loc 2 521 0 is_stmt 1 discriminator 1
 1238 0286 27F4C043 		bic	r3, r7, #24576
 1239 028a B3F5FA6F 		cmp	r3, #2000
 1240 028e 00F3AD80 		bgt	.L94
 521:Drivers/lvgl/lvgl/src/extra/layouts/flex/lv_flex.c **** 
 1241              		.loc 2 521 0 is_stmt 0 discriminator 2
 1242 0292 B3F57A7F 		cmp	r3, #1000
 1243 0296 01DD     		ble	.L96
 521:Drivers/lvgl/lvgl/src/extra/layouts/flex/lv_flex.c **** 
 1244              		.loc 2 521 0 discriminator 3
 1245 0298 C3F57A73 		rsb	r3, r3, #1000
 1246              	.L96:
 521:Drivers/lvgl/lvgl/src/extra/layouts/flex/lv_flex.c **** 
 1247              		.loc 2 521 0 discriminator 6
 1248 029c 03FB00F3 		mul	r3, r3, r0
 1249 02a0 6427     		movs	r7, #100
 1250 02a2 93FBF7F7 		sdiv	r7, r3, r7
 1251 02a6 3FB2     		sxth	r7, r7
 1252              	.LVL154:
 1253 02a8 A0E0     		b	.L94
 1254              	.LVL155:
 1255              	.L97:
 525:Drivers/lvgl/lvgl/src/extra/layouts/flex/lv_flex.c ****         diff_y += f->row ? cross_pos : main_pos;
 1256              		.loc 2 525 0 is_stmt 1 discriminator 2
 1257 02aa A5B2     		uxth	r5, r4
 1258 02ac B3E0     		b	.L98
 1259              	.L126:
ARM GAS  /tmp/ccbxNlti.s 			page 51


 1260 02ae 00BF     		.align	2
 1261              	.L125:
 1262 02b0 00000000 		.word	lv_area_set_width
 1263 02b4 00000000 		.word	lv_area_get_width
 1264 02b8 00000000 		.word	lv_area_set_height
 1265 02bc 00000000 		.word	lv_area_get_height
 1266              	.LVL156:
 1267              	.L99:
 526:Drivers/lvgl/lvgl/src/extra/layouts/flex/lv_flex.c **** 
 1268              		.loc 2 526 0 discriminator 2
 1269 02c0 BDF84640 		ldrh	r4, [sp, #70]
 1270              	.LVL157:
 1271              	.L100:
 526:Drivers/lvgl/lvgl/src/extra/layouts/flex/lv_flex.c **** 
 1272              		.loc 2 526 0 is_stmt 0 discriminator 4
 1273 02c4 1444     		add	r4, r4, r2
 1274 02c6 A4B2     		uxth	r4, r4
 1275 02c8 0FFA84FB 		sxth	fp, r4
 1276              	.LVL158:
 528:Drivers/lvgl/lvgl/src/extra/layouts/flex/lv_flex.c ****             lv_obj_invalidate(item);
 1277              		.loc 2 528 0 is_stmt 1 discriminator 4
 1278 02cc 57EA0B03 		orrs	r3, r7, fp
 1279 02d0 40F0AA80 		bne	.L118
 1280              	.LVL159:
 1281              	.L101:
 538:Drivers/lvgl/lvgl/src/extra/layouts/flex/lv_flex.c ****         else main_pos -= item_gap + place_gap;
 1282              		.loc 2 538 0
 1283 02d4 9AF80330 		ldrb	r3, [r10, #3]	@ zero_extendqisi2
 1284 02d8 13F0010F 		tst	r3, #1
 1285 02dc 40F0BD80 		bne	.L119
 1286              	.L102:
 538:Drivers/lvgl/lvgl/src/extra/layouts/flex/lv_flex.c ****         else main_pos -= item_gap + place_gap;
 1287              		.loc 2 538 0 is_stmt 0 discriminator 3
 1288 02e0 06F11400 		add	r0, r6, #20
 1289 02e4 039B     		ldr	r3, [sp, #12]
 1290 02e6 9847     		blx	r3
 1291              	.LVL160:
 1292 02e8 079B     		ldr	r3, [sp, #28]
 1293 02ea 1844     		add	r0, r0, r3
 1294 02ec BDF94430 		ldrsh	r3, [sp, #68]
 1295 02f0 0344     		add	r3, r3, r0
 1296 02f2 BDF84620 		ldrh	r2, [sp, #70]
 1297 02f6 1344     		add	r3, r3, r2
 1298 02f8 ADF84630 		strh	r3, [sp, #70]	@ movhi
 1299              	.L104:
 541:Drivers/lvgl/lvgl/src/extra/layouts/flex/lv_flex.c ****     }
 1300              		.loc 2 541 0 is_stmt 1
 1301 02fc 9AF80310 		ldrb	r1, [r10, #3]	@ zero_extendqisi2
 1302 0300 0DAA     		add	r2, sp, #52
 1303 0302 C1F38001 		ubfx	r1, r1, #2, #1
 1304 0306 0498     		ldr	r0, [sp, #16]
 1305 0308 FFF7FEFF 		bl	get_next_item
 1306              	.LVL161:
 1307 030c 0646     		mov	r6, r0
 1308              	.LVL162:
 1309              	.L76:
 1310              	.LBE87:
ARM GAS  /tmp/ccbxNlti.s 			page 52


 458:Drivers/lvgl/lvgl/src/extra/layouts/flex/lv_flex.c ****         if(lv_obj_has_flag_any(item, LV_OBJ_FLAG_IGNORE_LAYOUT | LV_OBJ_FLAG_HIDDEN | LV_OBJ_FLAG_F
 1311              		.loc 2 458 0
 1312 030e 0D9B     		ldr	r3, [sp, #52]
 1313 0310 0C9A     		ldr	r2, [sp, #48]
 1314 0312 9B1A     		subs	r3, r3, r2
 1315 0314 18BF     		it	ne
 1316 0316 0123     		movne	r3, #1
 1317 0318 002E     		cmp	r6, #0
 1318 031a 08BF     		it	eq
 1319 031c 0023     		moveq	r3, #0
 1320 031e 002B     		cmp	r3, #0
 1321 0320 00F0AA80 		beq	.L120
 1322              	.LBB98:
 459:Drivers/lvgl/lvgl/src/extra/layouts/flex/lv_flex.c ****             item = get_next_item(cont, f->rev, &item_first_id);
 1323              		.loc 2 459 0
 1324 0324 5649     		ldr	r1, .L127
 1325 0326 3046     		mov	r0, r6
 1326 0328 FFF7FEFF 		bl	lv_obj_has_flag_any
 1327              	.LVL163:
 1328 032c 0028     		cmp	r0, #0
 1329 032e 7FF425AF 		bne	.L121
 1330              	.LVL164:
 1331              	.LBB92:
 1332              	.LBB93:
 1333              		.loc 4 138 0
 1334 0332 544B     		ldr	r3, .L127+4
 1335 0334 1A88     		ldrh	r2, [r3]
 1336 0336 0021     		movs	r1, #0
 1337 0338 3046     		mov	r0, r6
 1338 033a FFF7FEFF 		bl	lv_obj_get_style_prop
 1339              	.LVL165:
 139:Drivers/lvgl/lvgl/src/extra/layouts/flex/../flex/lv_flex.h ****     return (uint8_t)v.num;
 1340              		.loc 4 139 0
 1341 033e C0B2     		uxtb	r0, r0
 1342              	.LVL166:
 1343              	.LBE93:
 1344              	.LBE92:
 464:Drivers/lvgl/lvgl/src/extra/layouts/flex/lv_flex.c ****             lv_coord_t s = 0;
 1345              		.loc 2 464 0
 1346 0340 0028     		cmp	r0, #0
 1347 0342 7FF474AF 		bne	.L122
 494:Drivers/lvgl/lvgl/src/extra/layouts/flex/lv_flex.c ****             item->h_layout = 0;
 1348              		.loc 2 494 0
 1349 0346 96F82330 		ldrb	r3, [r6, #35]	@ zero_extendqisi2
 495:Drivers/lvgl/lvgl/src/extra/layouts/flex/lv_flex.c ****         }
 1350              		.loc 2 495 0
 1351 034a 03F0FB03 		and	r3, r3, #251
 1352 034e 6FF34103 		bfc	r3, #1, #1
 1353 0352 86F82330 		strb	r3, [r6, #35]
 1354              	.LVL167:
 1355              	.L86:
 499:Drivers/lvgl/lvgl/src/extra/layouts/flex/lv_flex.c ****             case LV_FLEX_ALIGN_CENTER:
 1356              		.loc 2 499 0
 1357 0356 9AF80130 		ldrb	r3, [r10, #1]	@ zero_extendqisi2
 1358 035a 012B     		cmp	r3, #1
 1359 035c 3FF472AF 		beq	.L88
 1360 0360 022B     		cmp	r3, #2
ARM GAS  /tmp/ccbxNlti.s 			page 53


 1361 0362 7FF479AF 		bne	.L112
 503:Drivers/lvgl/lvgl/src/extra/layouts/flex/lv_flex.c ****                 break;
 1362              		.loc 2 503 0
 1363 0366 B9F90040 		ldrsh	r4, [r9]
 1364 036a 0134     		adds	r4, r4, #1
 1365 036c 24F00104 		bic	r4, r4, #1
 1366 0370 06F11400 		add	r0, r6, #20
 1367 0374 059B     		ldr	r3, [sp, #20]
 1368 0376 9847     		blx	r3
 1369              	.LVL168:
 1370 0378 241A     		subs	r4, r4, r0
 1371 037a 0223     		movs	r3, #2
 1372 037c 94FBF3F4 		sdiv	r4, r4, r3
 1373 0380 24B2     		sxth	r4, r4
 1374              	.LVL169:
 1375              	.L87:
 512:Drivers/lvgl/lvgl/src/extra/layouts/flex/lv_flex.c **** 
 1376              		.loc 2 512 0
 1377 0382 9AF80330 		ldrb	r3, [r10, #3]	@ zero_extendqisi2
 1378 0386 13F0010F 		tst	r3, #1
 1379 038a 0CD0     		beq	.L90
 512:Drivers/lvgl/lvgl/src/extra/layouts/flex/lv_flex.c **** 
 1380              		.loc 2 512 0 is_stmt 0 discriminator 1
 1381 038c B8F1010F 		cmp	r8, #1
 1382 0390 09D1     		bne	.L90
 512:Drivers/lvgl/lvgl/src/extra/layouts/flex/lv_flex.c **** 
 1383              		.loc 2 512 0 discriminator 2
 1384 0392 06F11400 		add	r0, r6, #20
 1385 0396 039B     		ldr	r3, [sp, #12]
 1386 0398 9847     		blx	r3
 1387              	.LVL170:
 1388 039a 80B2     		uxth	r0, r0
 1389 039c BDF84630 		ldrh	r3, [sp, #70]
 1390 03a0 1B1A     		subs	r3, r3, r0
 1391 03a2 ADF84630 		strh	r3, [sp, #70]	@ movhi
 1392              	.L90:
 1393              	.LVL171:
 1394              	.LBB94:
 1395              	.LBB95:
  69:Drivers/lvgl/lvgl/src/extra/layouts/flex/../flex/../../../core/lv_obj_style_gen.h ****     return (lv_coord_t)v.num;
 1396              		.loc 3 69 0 is_stmt 1
 1397 03a6 6A22     		movs	r2, #106
 1398 03a8 0021     		movs	r1, #0
 1399 03aa 3046     		mov	r0, r6
 1400 03ac FFF7FEFF 		bl	lv_obj_get_style_prop
 1401              	.LVL172:
 1402 03b0 0546     		mov	r5, r0
 1403              	.LVL173:
  70:Drivers/lvgl/lvgl/src/extra/layouts/flex/../flex/../../../core/lv_obj_style_gen.h **** }
 1404              		.loc 3 70 0
 1405 03b2 0FFA80FB 		sxth	fp, r0
 1406              	.LVL174:
 1407              	.LBE95:
 1408              	.LBE94:
 1409              	.LBB96:
 1410              	.LBB97:
  75:Drivers/lvgl/lvgl/src/extra/layouts/flex/../flex/../../../core/lv_obj_style_gen.h ****     return (lv_coord_t)v.num;
ARM GAS  /tmp/ccbxNlti.s 			page 54


 1411              		.loc 3 75 0
 1412 03b6 6B22     		movs	r2, #107
 1413 03b8 0021     		movs	r1, #0
 1414 03ba 3046     		mov	r0, r6
 1415 03bc FFF7FEFF 		bl	lv_obj_get_style_prop
 1416              	.LVL175:
 1417 03c0 0990     		str	r0, [sp, #36]
  76:Drivers/lvgl/lvgl/src/extra/layouts/flex/../flex/../../../core/lv_obj_style_gen.h **** }
 1418              		.loc 3 76 0
 1419 03c2 07B2     		sxth	r7, r0
 1420              	.LVL176:
 1421              	.LBE97:
 1422              	.LBE96:
 518:Drivers/lvgl/lvgl/src/extra/layouts/flex/lv_flex.c ****         lv_coord_t h = lv_obj_get_height(item);
 1423              		.loc 2 518 0
 1424 03c4 3046     		mov	r0, r6
 1425 03c6 FFF7FEFF 		bl	lv_obj_get_width
 1426              	.LVL177:
 1427 03ca 0890     		str	r0, [sp, #32]
 1428              	.LVL178:
 519:Drivers/lvgl/lvgl/src/extra/layouts/flex/lv_flex.c ****         if(LV_COORD_IS_PCT(tr_x)) tr_x = (w * LV_COORD_GET_PCT(tr_x)) / 100;
 1429              		.loc 2 519 0
 1430 03cc 3046     		mov	r0, r6
 1431 03ce FFF7FEFF 		bl	lv_obj_get_height
 1432              	.LVL179:
 520:Drivers/lvgl/lvgl/src/extra/layouts/flex/lv_flex.c ****         if(LV_COORD_IS_PCT(tr_y)) tr_y = (h * LV_COORD_GET_PCT(tr_y)) / 100;
 1433              		.loc 2 520 0
 1434 03d2 05F4C045 		and	r5, r5, #24576
 1435              	.LVL180:
 1436 03d6 B5F5005F 		cmp	r5, #8192
 1437 03da 3FF43FAF 		beq	.L123
 1438              	.L91:
 1439              	.LVL181:
 521:Drivers/lvgl/lvgl/src/extra/layouts/flex/lv_flex.c **** 
 1440              		.loc 2 521 0
 1441 03de 099B     		ldr	r3, [sp, #36]
 1442 03e0 03F4C043 		and	r3, r3, #24576
 1443 03e4 B3F5005F 		cmp	r3, #8192
 1444 03e8 3FF44DAF 		beq	.L124
 1445              	.L94:
 1446              	.LVL182:
 523:Drivers/lvgl/lvgl/src/extra/layouts/flex/lv_flex.c ****         lv_coord_t diff_y = abs_y - item->coords.y1 + tr_y;
 1447              		.loc 2 523 0
 1448 03ec B38A     		ldrh	r3, [r6, #20]
 1449 03ee 0A9A     		ldr	r2, [sp, #40]
 1450 03f0 D31A     		subs	r3, r2, r3
 1451 03f2 1BFA83FB 		uxtah	fp, fp, r3
 1452              	.LVL183:
 1453 03f6 1FFA8BFB 		uxth	fp, fp
 1454              	.LVL184:
 524:Drivers/lvgl/lvgl/src/extra/layouts/flex/lv_flex.c ****         diff_x += f->row ? main_pos : cross_pos;
 1455              		.loc 2 524 0
 1456 03fa F38A     		ldrh	r3, [r6, #22]
 1457 03fc 0B9A     		ldr	r2, [sp, #44]
 1458 03fe D31A     		subs	r3, r2, r3
 1459 0400 17FA83F7 		uxtah	r7, r7, r3
 1460              	.LVL185:
ARM GAS  /tmp/ccbxNlti.s 			page 55


 1461 0404 BAB2     		uxth	r2, r7
 1462              	.LVL186:
 525:Drivers/lvgl/lvgl/src/extra/layouts/flex/lv_flex.c ****         diff_y += f->row ? cross_pos : main_pos;
 1463              		.loc 2 525 0
 1464 0406 9AF80330 		ldrb	r3, [r10, #3]	@ zero_extendqisi2
 1465 040a 13F00103 		ands	r3, r3, #1
 1466 040e 3FF44CAF 		beq	.L97
 525:Drivers/lvgl/lvgl/src/extra/layouts/flex/lv_flex.c ****         diff_y += f->row ? cross_pos : main_pos;
 1467              		.loc 2 525 0 is_stmt 0 discriminator 1
 1468 0412 BDF84650 		ldrh	r5, [sp, #70]
 1469              	.L98:
 525:Drivers/lvgl/lvgl/src/extra/layouts/flex/lv_flex.c ****         diff_y += f->row ? cross_pos : main_pos;
 1470              		.loc 2 525 0 discriminator 4
 1471 0416 AB44     		add	fp, fp, r5
 1472              	.LVL187:
 1473 0418 1FFA8BF5 		uxth	r5, fp
 1474 041c 2FB2     		sxth	r7, r5
 1475              	.LVL188:
 526:Drivers/lvgl/lvgl/src/extra/layouts/flex/lv_flex.c **** 
 1476              		.loc 2 526 0 is_stmt 1 discriminator 4
 1477 041e 002B     		cmp	r3, #0
 1478 0420 3FF44EAF 		beq	.L99
 526:Drivers/lvgl/lvgl/src/extra/layouts/flex/lv_flex.c **** 
 1479              		.loc 2 526 0 is_stmt 0 discriminator 1
 1480 0424 A4B2     		uxth	r4, r4
 1481 0426 4DE7     		b	.L100
 1482              	.LVL189:
 1483              	.L118:
 529:Drivers/lvgl/lvgl/src/extra/layouts/flex/lv_flex.c ****             item->coords.x1 += diff_x;
 1484              		.loc 2 529 0 is_stmt 1
 1485 0428 3046     		mov	r0, r6
 1486              	.LVL190:
 1487 042a FFF7FEFF 		bl	lv_obj_invalidate
 1488              	.LVL191:
 530:Drivers/lvgl/lvgl/src/extra/layouts/flex/lv_flex.c ****             item->coords.x2 += diff_x;
 1489              		.loc 2 530 0
 1490 042e B38A     		ldrh	r3, [r6, #20]
 1491 0430 2B44     		add	r3, r3, r5
 1492 0432 B382     		strh	r3, [r6, #20]	@ movhi
 531:Drivers/lvgl/lvgl/src/extra/layouts/flex/lv_flex.c ****             item->coords.y1 += diff_y;
 1493              		.loc 2 531 0
 1494 0434 338B     		ldrh	r3, [r6, #24]
 1495 0436 1D44     		add	r5, r5, r3
 1496 0438 3583     		strh	r5, [r6, #24]	@ movhi
 532:Drivers/lvgl/lvgl/src/extra/layouts/flex/lv_flex.c ****             item->coords.y2 += diff_y;
 1497              		.loc 2 532 0
 1498 043a F38A     		ldrh	r3, [r6, #22]
 1499 043c 2344     		add	r3, r3, r4
 1500 043e F382     		strh	r3, [r6, #22]	@ movhi
 533:Drivers/lvgl/lvgl/src/extra/layouts/flex/lv_flex.c ****             lv_obj_invalidate(item);
 1501              		.loc 2 533 0
 1502 0440 738B     		ldrh	r3, [r6, #26]
 1503 0442 1C44     		add	r4, r4, r3
 1504 0444 7483     		strh	r4, [r6, #26]	@ movhi
 534:Drivers/lvgl/lvgl/src/extra/layouts/flex/lv_flex.c ****             lv_obj_move_children_by(item, diff_x, diff_y, false);
 1505              		.loc 2 534 0
 1506 0446 3046     		mov	r0, r6
ARM GAS  /tmp/ccbxNlti.s 			page 56


 1507 0448 FFF7FEFF 		bl	lv_obj_invalidate
 1508              	.LVL192:
 535:Drivers/lvgl/lvgl/src/extra/layouts/flex/lv_flex.c ****         }
 1509              		.loc 2 535 0
 1510 044c 0023     		movs	r3, #0
 1511 044e 5A46     		mov	r2, fp
 1512 0450 3946     		mov	r1, r7
 1513 0452 3046     		mov	r0, r6
 1514 0454 FFF7FEFF 		bl	lv_obj_move_children_by
 1515              	.LVL193:
 1516 0458 3CE7     		b	.L101
 1517              	.L119:
 538:Drivers/lvgl/lvgl/src/extra/layouts/flex/lv_flex.c ****         else main_pos -= item_gap + place_gap;
 1518              		.loc 2 538 0 discriminator 2
 1519 045a B8F1010F 		cmp	r8, #1
 1520 045e 7FF43FAF 		bne	.L102
 539:Drivers/lvgl/lvgl/src/extra/layouts/flex/lv_flex.c **** 
 1521              		.loc 2 539 0
 1522 0462 BDF84430 		ldrh	r3, [sp, #68]
 1523 0466 079A     		ldr	r2, [sp, #28]
 1524 0468 1344     		add	r3, r3, r2
 1525 046a 9BB2     		uxth	r3, r3
 1526 046c BDF84620 		ldrh	r2, [sp, #70]
 1527 0470 D31A     		subs	r3, r2, r3
 1528 0472 ADF84630 		strh	r3, [sp, #70]	@ movhi
 1529 0476 41E7     		b	.L104
 1530              	.LVL194:
 1531              	.L120:
 1532              	.LBE98:
 543:Drivers/lvgl/lvgl/src/extra/layouts/flex/lv_flex.c **** 
 1533              		.loc 2 543 0
 1534 0478 13B0     		add	sp, sp, #76
 1535              	.LCFI9:
 1536              		.cfi_def_cfa_offset 36
 1537              		@ sp needed
 1538 047a BDE8F08F 		pop	{r4, r5, r6, r7, r8, r9, r10, fp, pc}
 1539              	.LVL195:
 1540              	.L128:
 1541 047e 00BF     		.align	2
 1542              	.L127:
 1543 0480 01000600 		.word	393217
 1544 0484 00000000 		.word	LV_STYLE_FLEX_GROW
 1545              		.cfi_endproc
 1546              	.LFE191:
 1548              		.section	.text.flex_update,"ax",%progbits
 1549              		.align	1
 1550              		.syntax unified
 1551              		.thumb
 1552              		.thumb_func
 1553              		.fpu fpv5-d16
 1555              	flex_update:
 1556              	.LFB189:
 210:Drivers/lvgl/lvgl/src/extra/layouts/flex/lv_flex.c ****     LV_LOG_INFO("update %p container", (void *)cont);
 1557              		.loc 2 210 0
 1558              		.cfi_startproc
 1559              		@ args = 0, pretend = 0, frame = 56
 1560              		@ frame_needed = 0, uses_anonymous_args = 0
ARM GAS  /tmp/ccbxNlti.s 			page 57


 1561              	.LVL196:
 1562 0000 2DE9F04F 		push	{r4, r5, r6, r7, r8, r9, r10, fp, lr}
 1563              	.LCFI10:
 1564              		.cfi_def_cfa_offset 36
 1565              		.cfi_offset 4, -36
 1566              		.cfi_offset 5, -32
 1567              		.cfi_offset 6, -28
 1568              		.cfi_offset 7, -24
 1569              		.cfi_offset 8, -20
 1570              		.cfi_offset 9, -16
 1571              		.cfi_offset 10, -12
 1572              		.cfi_offset 11, -8
 1573              		.cfi_offset 14, -4
 1574 0004 95B0     		sub	sp, sp, #84
 1575              	.LCFI11:
 1576              		.cfi_def_cfa_offset 120
 1577 0006 0446     		mov	r4, r0
 1578              	.LVL197:
 1579              	.LBB99:
 1580              	.LBB100:
 114:Drivers/lvgl/lvgl/src/extra/layouts/flex/../flex/lv_flex.h ****     return (lv_flex_flow_t)v.num;
 1581              		.loc 4 114 0
 1582 0008 AF4B     		ldr	r3, .L173
 1583 000a 1A88     		ldrh	r2, [r3]
 1584 000c 0021     		movs	r1, #0
 1585              	.LVL198:
 1586 000e FFF7FEFF 		bl	lv_obj_get_style_prop
 1587              	.LVL199:
 1588              	.LBE100:
 1589              	.LBE99:
 216:Drivers/lvgl/lvgl/src/extra/layouts/flex/lv_flex.c ****     f.wrap = flow & _LV_FLEX_WRAP ? 1 : 0;
 1590              		.loc 2 216 0
 1591 0012 10F0010F 		tst	r0, #1
 1592 0016 0CBF     		ite	eq
 1593 0018 0122     		moveq	r2, #1
 1594 001a 0022     		movne	r2, #0
 1595 001c 9DF84F30 		ldrb	r3, [sp, #79]	@ zero_extendqisi2
 1596 0020 62F30003 		bfi	r3, r2, #0, #1
 217:Drivers/lvgl/lvgl/src/extra/layouts/flex/lv_flex.c ****     f.rev = flow & _LV_FLEX_REVERSE ? 1 : 0;
 1597              		.loc 2 217 0
 1598 0024 C0F38002 		ubfx	r2, r0, #2, #1
 1599 0028 62F34103 		bfi	r3, r2, #1, #1
 218:Drivers/lvgl/lvgl/src/extra/layouts/flex/lv_flex.c ****     f.main_place = lv_obj_get_style_flex_main_place(cont, LV_PART_MAIN);
 1600              		.loc 2 218 0
 1601 002c C0F3C000 		ubfx	r0, r0, #3, #1
 1602              	.LVL200:
 1603 0030 60F38203 		bfi	r3, r0, #2, #1
 1604 0034 8DF84F30 		strb	r3, [sp, #79]
 1605              	.LVL201:
 1606              	.LBB101:
 1607              	.LBB102:
 120:Drivers/lvgl/lvgl/src/extra/layouts/flex/../flex/lv_flex.h ****     return (lv_flex_align_t)v.num;
 1608              		.loc 4 120 0
 1609 0038 A44B     		ldr	r3, .L173+4
 1610 003a 1A88     		ldrh	r2, [r3]
 1611 003c 0021     		movs	r1, #0
 1612 003e 2046     		mov	r0, r4
ARM GAS  /tmp/ccbxNlti.s 			page 58


 1613 0040 FFF7FEFF 		bl	lv_obj_get_style_prop
 1614              	.LVL202:
 1615              	.LBE102:
 1616              	.LBE101:
 219:Drivers/lvgl/lvgl/src/extra/layouts/flex/lv_flex.c ****     f.cross_place = lv_obj_get_style_flex_cross_place(cont, LV_PART_MAIN);
 1617              		.loc 2 219 0
 1618 0044 8DF84C00 		strb	r0, [sp, #76]
 1619              	.LVL203:
 1620              	.LBB103:
 1621              	.LBB104:
 126:Drivers/lvgl/lvgl/src/extra/layouts/flex/../flex/lv_flex.h ****     return (lv_flex_align_t)v.num;
 1622              		.loc 4 126 0
 1623 0048 A14B     		ldr	r3, .L173+8
 1624 004a 1A88     		ldrh	r2, [r3]
 1625 004c 0021     		movs	r1, #0
 1626 004e 2046     		mov	r0, r4
 1627 0050 FFF7FEFF 		bl	lv_obj_get_style_prop
 1628              	.LVL204:
 1629              	.LBE104:
 1630              	.LBE103:
 220:Drivers/lvgl/lvgl/src/extra/layouts/flex/lv_flex.c ****     f.track_place = lv_obj_get_style_flex_track_place(cont, LV_PART_MAIN);
 1631              		.loc 2 220 0
 1632 0054 8DF84D00 		strb	r0, [sp, #77]
 1633              	.LVL205:
 1634              	.LBB105:
 1635              	.LBB106:
 132:Drivers/lvgl/lvgl/src/extra/layouts/flex/../flex/lv_flex.h ****     return (lv_flex_align_t)v.num;
 1636              		.loc 4 132 0
 1637 0058 9E4B     		ldr	r3, .L173+12
 1638 005a 1A88     		ldrh	r2, [r3]
 1639 005c 0021     		movs	r1, #0
 1640 005e 2046     		mov	r0, r4
 1641 0060 FFF7FEFF 		bl	lv_obj_get_style_prop
 1642              	.LVL206:
 1643              	.LBE106:
 1644              	.LBE105:
 221:Drivers/lvgl/lvgl/src/extra/layouts/flex/lv_flex.c **** 
 1645              		.loc 2 221 0
 1646 0064 8DF84E00 		strb	r0, [sp, #78]
 1647              	.LVL207:
 1648              	.LBB107:
 1649              	.LBB108:
 561:Drivers/lvgl/lvgl/src/extra/layouts/flex/../flex/../../../core/lv_obj_style_gen.h ****     return (lv_base_dir_t)v.num;
 1650              		.loc 3 561 0
 1651 0068 1622     		movs	r2, #22
 1652 006a 0021     		movs	r1, #0
 1653 006c 2046     		mov	r0, r4
 1654 006e FFF7FEFF 		bl	lv_obj_get_style_prop
 1655              	.LVL208:
 1656              		.loc 3 562 0
 1657 0072 5FFA80F9 		uxtb	r9, r0
 1658              	.LVL209:
 1659              	.LBE108:
 1660              	.LBE107:
 224:Drivers/lvgl/lvgl/src/extra/layouts/flex/lv_flex.c ****                                                                                                    
 1661              		.loc 2 224 0
 1662 0076 9DF84F30 		ldrb	r3, [sp, #79]	@ zero_extendqisi2
ARM GAS  /tmp/ccbxNlti.s 			page 59


 1663 007a 13F0010F 		tst	r3, #1
 1664 007e 40F08680 		bne	.L130
 1665              	.LVL210:
 1666              	.LBB109:
 1667              	.LBB110:
 135:Drivers/lvgl/lvgl/src/extra/layouts/flex/../flex/../../../core/lv_obj_style_gen.h ****     return (lv_coord_t)v.num;
 1668              		.loc 3 135 0
 1669 0082 1522     		movs	r2, #21
 1670 0084 0021     		movs	r1, #0
 1671 0086 2046     		mov	r0, r4
 1672 0088 FFF7FEFF 		bl	lv_obj_get_style_prop
 1673              	.LVL211:
 136:Drivers/lvgl/lvgl/src/extra/layouts/flex/../flex/../../../core/lv_obj_style_gen.h **** }
 1674              		.loc 3 136 0
 1675 008c 0FFA80FA 		sxth	r10, r0
 1676              	.LVL212:
 1677              	.L131:
 1678              	.LBE110:
 1679              	.LBE109:
 226:Drivers/lvgl/lvgl/src/extra/layouts/flex/lv_flex.c ****                                                                                                    
 1680              		.loc 2 226 0 discriminator 4
 1681 0090 9DF84F30 		ldrb	r3, [sp, #79]	@ zero_extendqisi2
 1682 0094 13F0010F 		tst	r3, #1
 1683 0098 00F08180 		beq	.L132
 1684              	.LVL213:
 1685              	.LBB111:
 1686              	.LBB112:
 135:Drivers/lvgl/lvgl/src/extra/layouts/flex/../flex/../../../core/lv_obj_style_gen.h ****     return (lv_coord_t)v.num;
 1687              		.loc 3 135 0
 1688 009c 1522     		movs	r2, #21
 1689 009e 0021     		movs	r1, #0
 1690 00a0 2046     		mov	r0, r4
 1691 00a2 FFF7FEFF 		bl	lv_obj_get_style_prop
 1692              	.LVL214:
 136:Drivers/lvgl/lvgl/src/extra/layouts/flex/../flex/../../../core/lv_obj_style_gen.h **** }
 1693              		.loc 3 136 0
 1694 00a6 06B2     		sxth	r6, r0
 1695              	.LVL215:
 1696              	.L133:
 1697              	.LBE112:
 1698              	.LBE111:
 228:Drivers/lvgl/lvgl/src/extra/layouts/flex/lv_flex.c ****     lv_coord_t border_width = lv_obj_get_style_border_width(cont, LV_PART_MAIN);
 1699              		.loc 2 228 0 discriminator 4
 1700 00a8 9DF84F30 		ldrb	r3, [sp, #79]	@ zero_extendqisi2
 1701 00ac 13F0010F 		tst	r3, #1
 1702 00b0 7CD0     		beq	.L134
 228:Drivers/lvgl/lvgl/src/extra/layouts/flex/lv_flex.c ****     lv_coord_t border_width = lv_obj_get_style_border_width(cont, LV_PART_MAIN);
 1703              		.loc 2 228 0 is_stmt 0 discriminator 1
 1704 00b2 2046     		mov	r0, r4
 1705 00b4 FFF7FEFF 		bl	lv_obj_get_content_width
 1706              	.LVL216:
 1707 00b8 0746     		mov	r7, r0
 1708              	.L135:
 1709              	.LVL217:
 1710              	.LBB113:
 1711              	.LBB114:
 255:Drivers/lvgl/lvgl/src/extra/layouts/flex/../flex/../../../core/lv_obj_style_gen.h ****     return (lv_coord_t)v.num;
ARM GAS  /tmp/ccbxNlti.s 			page 60


 1712              		.loc 3 255 0 is_stmt 1 discriminator 4
 1713 00ba 3222     		movs	r2, #50
 1714 00bc 0021     		movs	r1, #0
 1715 00be 2046     		mov	r0, r4
 1716 00c0 FFF7FEFF 		bl	lv_obj_get_style_prop
 1717              	.LVL218:
 1718 00c4 8046     		mov	r8, r0
 1719              	.LVL219:
 1720              	.LBE114:
 1721              	.LBE113:
 230:Drivers/lvgl/lvgl/src/extra/layouts/flex/lv_flex.c ****                                                                   LV_PART_MAIN) + border_width - lv
 1722              		.loc 2 230 0 discriminator 4
 1723 00c6 B4F816B0 		ldrh	fp, [r4, #22]
 1724              	.LVL220:
 1725              	.LBB115:
 1726              	.LBB116:
 105:Drivers/lvgl/lvgl/src/extra/layouts/flex/../flex/../../../core/lv_obj_style_gen.h ****     return (lv_coord_t)v.num;
 1727              		.loc 3 105 0 discriminator 4
 1728 00ca 1022     		movs	r2, #16
 1729 00cc 0021     		movs	r1, #0
 1730 00ce 2046     		mov	r0, r4
 1731 00d0 FFF7FEFF 		bl	lv_obj_get_style_prop
 1732              	.LVL221:
 1733              	.LBE116:
 1734              	.LBE115:
 230:Drivers/lvgl/lvgl/src/extra/layouts/flex/lv_flex.c ****                                                                   LV_PART_MAIN) + border_width - lv
 1735              		.loc 2 230 0 discriminator 4
 1736 00d4 1BFA80F0 		uxtah	r0, fp, r0
 231:Drivers/lvgl/lvgl/src/extra/layouts/flex/lv_flex.c ****     lv_coord_t abs_x = cont->coords.x1 + lv_obj_get_style_pad_left(cont,
 1737              		.loc 2 231 0 discriminator 4
 1738 00d8 1FFA88F8 		uxth	r8, r8
 1739 00dc 18FA80F5 		uxtah	r5, r8, r0
 1740 00e0 ADB2     		uxth	r5, r5
 1741 00e2 2046     		mov	r0, r4
 1742 00e4 FFF7FEFF 		bl	lv_obj_get_scroll_y
 1743              	.LVL222:
 1744 00e8 80B2     		uxth	r0, r0
 1745 00ea 2D1A     		subs	r5, r5, r0
 230:Drivers/lvgl/lvgl/src/extra/layouts/flex/lv_flex.c ****                                                                   LV_PART_MAIN) + border_width - lv
 1746              		.loc 2 230 0 discriminator 4
 1747 00ec ADF84A50 		strh	r5, [sp, #74]	@ movhi
 232:Drivers/lvgl/lvgl/src/extra/layouts/flex/lv_flex.c ****                                                                    LV_PART_MAIN) + border_width - l
