ARM GAS  /tmp/ccFQgg33.s 			page 1


   1              		.cpu cortex-m7
   2              		.eabi_attribute 28, 1
   3              		.eabi_attribute 20, 1
   4              		.eabi_attribute 21, 1
   5              		.eabi_attribute 23, 3
   6              		.eabi_attribute 24, 1
   7              		.eabi_attribute 25, 1
   8              		.eabi_attribute 26, 1
   9              		.eabi_attribute 30, 1
  10              		.eabi_attribute 34, 1
  11              		.eabi_attribute 18, 4
  12              		.file	"lv_grid.c"
  13              		.text
  14              	.Ltext0:
  15              		.cfi_sections	.debug_frame
  16              		.section	.text.grid_align,"ax",%progbits
  17              		.align	1
  18              		.syntax unified
  19              		.thumb
  20              		.thumb_func
  21              		.fpu fpv5-d16
  23              	grid_align:
  24              	.LFB215:
  25              		.file 1 "Drivers/lvgl/lvgl/src/extra/layouts/grid/lv_grid.c"
   1:Drivers/lvgl/lvgl/src/extra/layouts/grid/lv_grid.c **** /**
   2:Drivers/lvgl/lvgl/src/extra/layouts/grid/lv_grid.c ****  * @file lv_grid.c
   3:Drivers/lvgl/lvgl/src/extra/layouts/grid/lv_grid.c ****  *
   4:Drivers/lvgl/lvgl/src/extra/layouts/grid/lv_grid.c ****  */
   5:Drivers/lvgl/lvgl/src/extra/layouts/grid/lv_grid.c **** 
   6:Drivers/lvgl/lvgl/src/extra/layouts/grid/lv_grid.c **** /*********************
   7:Drivers/lvgl/lvgl/src/extra/layouts/grid/lv_grid.c ****  *      INCLUDES
   8:Drivers/lvgl/lvgl/src/extra/layouts/grid/lv_grid.c ****  *********************/
   9:Drivers/lvgl/lvgl/src/extra/layouts/grid/lv_grid.c **** #include "../lv_layouts.h"
  10:Drivers/lvgl/lvgl/src/extra/layouts/grid/lv_grid.c **** 
  11:Drivers/lvgl/lvgl/src/extra/layouts/grid/lv_grid.c **** #if LV_USE_GRID
  12:Drivers/lvgl/lvgl/src/extra/layouts/grid/lv_grid.c **** 
  13:Drivers/lvgl/lvgl/src/extra/layouts/grid/lv_grid.c **** /*********************
  14:Drivers/lvgl/lvgl/src/extra/layouts/grid/lv_grid.c ****  *      DEFINES
  15:Drivers/lvgl/lvgl/src/extra/layouts/grid/lv_grid.c ****  *********************/
  16:Drivers/lvgl/lvgl/src/extra/layouts/grid/lv_grid.c **** /**
  17:Drivers/lvgl/lvgl/src/extra/layouts/grid/lv_grid.c ****  * Some helper defines
  18:Drivers/lvgl/lvgl/src/extra/layouts/grid/lv_grid.c ****  */
  19:Drivers/lvgl/lvgl/src/extra/layouts/grid/lv_grid.c **** #define IS_FR(x)       (x >= LV_COORD_MAX - 100)
  20:Drivers/lvgl/lvgl/src/extra/layouts/grid/lv_grid.c **** #define IS_CONTENT(x)  (x == LV_COORD_MAX - 101)
  21:Drivers/lvgl/lvgl/src/extra/layouts/grid/lv_grid.c **** #define GET_FR(x)      (x - (LV_COORD_MAX - 100))
  22:Drivers/lvgl/lvgl/src/extra/layouts/grid/lv_grid.c **** 
  23:Drivers/lvgl/lvgl/src/extra/layouts/grid/lv_grid.c **** /**********************
  24:Drivers/lvgl/lvgl/src/extra/layouts/grid/lv_grid.c ****  *      TYPEDEFS
  25:Drivers/lvgl/lvgl/src/extra/layouts/grid/lv_grid.c ****  **********************/
  26:Drivers/lvgl/lvgl/src/extra/layouts/grid/lv_grid.c **** typedef struct {
  27:Drivers/lvgl/lvgl/src/extra/layouts/grid/lv_grid.c ****     uint32_t col;
  28:Drivers/lvgl/lvgl/src/extra/layouts/grid/lv_grid.c ****     uint32_t row;
  29:Drivers/lvgl/lvgl/src/extra/layouts/grid/lv_grid.c ****     lv_point_t grid_abs;
  30:Drivers/lvgl/lvgl/src/extra/layouts/grid/lv_grid.c **** } item_repos_hint_t;
  31:Drivers/lvgl/lvgl/src/extra/layouts/grid/lv_grid.c **** 
  32:Drivers/lvgl/lvgl/src/extra/layouts/grid/lv_grid.c **** typedef struct {
  33:Drivers/lvgl/lvgl/src/extra/layouts/grid/lv_grid.c ****     lv_coord_t * x;
ARM GAS  /tmp/ccFQgg33.s 			page 2


  34:Drivers/lvgl/lvgl/src/extra/layouts/grid/lv_grid.c ****     lv_coord_t * y;
  35:Drivers/lvgl/lvgl/src/extra/layouts/grid/lv_grid.c ****     lv_coord_t * w;
  36:Drivers/lvgl/lvgl/src/extra/layouts/grid/lv_grid.c ****     lv_coord_t * h;
  37:Drivers/lvgl/lvgl/src/extra/layouts/grid/lv_grid.c ****     uint32_t col_num;
  38:Drivers/lvgl/lvgl/src/extra/layouts/grid/lv_grid.c ****     uint32_t row_num;
  39:Drivers/lvgl/lvgl/src/extra/layouts/grid/lv_grid.c ****     lv_coord_t grid_w;
  40:Drivers/lvgl/lvgl/src/extra/layouts/grid/lv_grid.c ****     lv_coord_t grid_h;
  41:Drivers/lvgl/lvgl/src/extra/layouts/grid/lv_grid.c **** } _lv_grid_calc_t;
  42:Drivers/lvgl/lvgl/src/extra/layouts/grid/lv_grid.c **** 
  43:Drivers/lvgl/lvgl/src/extra/layouts/grid/lv_grid.c **** 
  44:Drivers/lvgl/lvgl/src/extra/layouts/grid/lv_grid.c **** /**********************
  45:Drivers/lvgl/lvgl/src/extra/layouts/grid/lv_grid.c ****  *  GLOBAL PROTOTYPES
  46:Drivers/lvgl/lvgl/src/extra/layouts/grid/lv_grid.c ****  **********************/
  47:Drivers/lvgl/lvgl/src/extra/layouts/grid/lv_grid.c **** 
  48:Drivers/lvgl/lvgl/src/extra/layouts/grid/lv_grid.c **** /**********************
  49:Drivers/lvgl/lvgl/src/extra/layouts/grid/lv_grid.c ****  *  STATIC PROTOTYPES
  50:Drivers/lvgl/lvgl/src/extra/layouts/grid/lv_grid.c ****  **********************/
  51:Drivers/lvgl/lvgl/src/extra/layouts/grid/lv_grid.c **** static void grid_update(lv_obj_t * cont, void * user_data);
  52:Drivers/lvgl/lvgl/src/extra/layouts/grid/lv_grid.c **** static void calc(lv_obj_t * obj, _lv_grid_calc_t * calc);
  53:Drivers/lvgl/lvgl/src/extra/layouts/grid/lv_grid.c **** static void calc_free(_lv_grid_calc_t * calc);
  54:Drivers/lvgl/lvgl/src/extra/layouts/grid/lv_grid.c **** static void calc_cols(lv_obj_t * cont, _lv_grid_calc_t * c);
  55:Drivers/lvgl/lvgl/src/extra/layouts/grid/lv_grid.c **** static void calc_rows(lv_obj_t * cont, _lv_grid_calc_t * c);
  56:Drivers/lvgl/lvgl/src/extra/layouts/grid/lv_grid.c **** static void item_repos(lv_obj_t * item, _lv_grid_calc_t * c, item_repos_hint_t * hint);
  57:Drivers/lvgl/lvgl/src/extra/layouts/grid/lv_grid.c **** static lv_coord_t grid_align(lv_coord_t cont_size,  bool auto_size, uint8_t align, lv_coord_t gap, 
  58:Drivers/lvgl/lvgl/src/extra/layouts/grid/lv_grid.c ****                              lv_coord_t * size_array, lv_coord_t * pos_array, bool reverse);
  59:Drivers/lvgl/lvgl/src/extra/layouts/grid/lv_grid.c **** static uint32_t count_tracks(const lv_coord_t * templ);
  60:Drivers/lvgl/lvgl/src/extra/layouts/grid/lv_grid.c **** 
  61:Drivers/lvgl/lvgl/src/extra/layouts/grid/lv_grid.c **** static inline const lv_coord_t * get_col_dsc(lv_obj_t * obj)
  62:Drivers/lvgl/lvgl/src/extra/layouts/grid/lv_grid.c **** {
  63:Drivers/lvgl/lvgl/src/extra/layouts/grid/lv_grid.c ****     return lv_obj_get_style_grid_column_dsc_array(obj, 0);
  64:Drivers/lvgl/lvgl/src/extra/layouts/grid/lv_grid.c **** }
  65:Drivers/lvgl/lvgl/src/extra/layouts/grid/lv_grid.c **** static inline const lv_coord_t * get_row_dsc(lv_obj_t * obj)
  66:Drivers/lvgl/lvgl/src/extra/layouts/grid/lv_grid.c **** {
  67:Drivers/lvgl/lvgl/src/extra/layouts/grid/lv_grid.c ****     return lv_obj_get_style_grid_row_dsc_array(obj, 0);
  68:Drivers/lvgl/lvgl/src/extra/layouts/grid/lv_grid.c **** }
  69:Drivers/lvgl/lvgl/src/extra/layouts/grid/lv_grid.c **** static inline uint8_t get_col_pos(lv_obj_t * obj)
  70:Drivers/lvgl/lvgl/src/extra/layouts/grid/lv_grid.c **** {
  71:Drivers/lvgl/lvgl/src/extra/layouts/grid/lv_grid.c ****     return lv_obj_get_style_grid_cell_column_pos(obj, 0);
  72:Drivers/lvgl/lvgl/src/extra/layouts/grid/lv_grid.c **** }
  73:Drivers/lvgl/lvgl/src/extra/layouts/grid/lv_grid.c **** static inline uint8_t get_row_pos(lv_obj_t * obj)
  74:Drivers/lvgl/lvgl/src/extra/layouts/grid/lv_grid.c **** {
  75:Drivers/lvgl/lvgl/src/extra/layouts/grid/lv_grid.c ****     return lv_obj_get_style_grid_cell_row_pos(obj, 0);
  76:Drivers/lvgl/lvgl/src/extra/layouts/grid/lv_grid.c **** }
  77:Drivers/lvgl/lvgl/src/extra/layouts/grid/lv_grid.c **** static inline uint8_t get_col_span(lv_obj_t * obj)
  78:Drivers/lvgl/lvgl/src/extra/layouts/grid/lv_grid.c **** {
  79:Drivers/lvgl/lvgl/src/extra/layouts/grid/lv_grid.c ****     return lv_obj_get_style_grid_cell_column_span(obj, 0);
  80:Drivers/lvgl/lvgl/src/extra/layouts/grid/lv_grid.c **** }
  81:Drivers/lvgl/lvgl/src/extra/layouts/grid/lv_grid.c **** static inline uint8_t get_row_span(lv_obj_t * obj)
  82:Drivers/lvgl/lvgl/src/extra/layouts/grid/lv_grid.c **** {
  83:Drivers/lvgl/lvgl/src/extra/layouts/grid/lv_grid.c ****     return lv_obj_get_style_grid_cell_row_span(obj, 0);
  84:Drivers/lvgl/lvgl/src/extra/layouts/grid/lv_grid.c **** }
  85:Drivers/lvgl/lvgl/src/extra/layouts/grid/lv_grid.c **** static inline uint8_t get_cell_col_align(lv_obj_t * obj)
  86:Drivers/lvgl/lvgl/src/extra/layouts/grid/lv_grid.c **** {
  87:Drivers/lvgl/lvgl/src/extra/layouts/grid/lv_grid.c ****     return lv_obj_get_style_grid_cell_x_align(obj, 0);
  88:Drivers/lvgl/lvgl/src/extra/layouts/grid/lv_grid.c **** }
  89:Drivers/lvgl/lvgl/src/extra/layouts/grid/lv_grid.c **** static inline uint8_t get_cell_row_align(lv_obj_t * obj)
  90:Drivers/lvgl/lvgl/src/extra/layouts/grid/lv_grid.c **** {
ARM GAS  /tmp/ccFQgg33.s 			page 3


  91:Drivers/lvgl/lvgl/src/extra/layouts/grid/lv_grid.c ****     return lv_obj_get_style_grid_cell_y_align(obj, 0);
  92:Drivers/lvgl/lvgl/src/extra/layouts/grid/lv_grid.c **** }
  93:Drivers/lvgl/lvgl/src/extra/layouts/grid/lv_grid.c **** static inline uint8_t get_grid_col_align(lv_obj_t * obj)
  94:Drivers/lvgl/lvgl/src/extra/layouts/grid/lv_grid.c **** {
  95:Drivers/lvgl/lvgl/src/extra/layouts/grid/lv_grid.c ****     return lv_obj_get_style_grid_column_align(obj, 0);
  96:Drivers/lvgl/lvgl/src/extra/layouts/grid/lv_grid.c **** }
  97:Drivers/lvgl/lvgl/src/extra/layouts/grid/lv_grid.c **** static inline uint8_t get_grid_row_align(lv_obj_t * obj)
  98:Drivers/lvgl/lvgl/src/extra/layouts/grid/lv_grid.c **** {
  99:Drivers/lvgl/lvgl/src/extra/layouts/grid/lv_grid.c ****     return lv_obj_get_style_grid_row_align(obj, 0);
 100:Drivers/lvgl/lvgl/src/extra/layouts/grid/lv_grid.c **** }
 101:Drivers/lvgl/lvgl/src/extra/layouts/grid/lv_grid.c **** 
 102:Drivers/lvgl/lvgl/src/extra/layouts/grid/lv_grid.c **** /**********************
 103:Drivers/lvgl/lvgl/src/extra/layouts/grid/lv_grid.c ****  *  GLOBAL VARIABLES
 104:Drivers/lvgl/lvgl/src/extra/layouts/grid/lv_grid.c ****  **********************/
 105:Drivers/lvgl/lvgl/src/extra/layouts/grid/lv_grid.c **** uint16_t LV_LAYOUT_GRID;
 106:Drivers/lvgl/lvgl/src/extra/layouts/grid/lv_grid.c **** lv_style_prop_t LV_STYLE_GRID_COLUMN_DSC_ARRAY;
 107:Drivers/lvgl/lvgl/src/extra/layouts/grid/lv_grid.c **** lv_style_prop_t LV_STYLE_GRID_COLUMN_ALIGN;
 108:Drivers/lvgl/lvgl/src/extra/layouts/grid/lv_grid.c **** lv_style_prop_t LV_STYLE_GRID_ROW_DSC_ARRAY;
 109:Drivers/lvgl/lvgl/src/extra/layouts/grid/lv_grid.c **** lv_style_prop_t LV_STYLE_GRID_ROW_ALIGN;
 110:Drivers/lvgl/lvgl/src/extra/layouts/grid/lv_grid.c **** lv_style_prop_t LV_STYLE_GRID_CELL_COLUMN_POS;
 111:Drivers/lvgl/lvgl/src/extra/layouts/grid/lv_grid.c **** lv_style_prop_t LV_STYLE_GRID_CELL_COLUMN_SPAN;
 112:Drivers/lvgl/lvgl/src/extra/layouts/grid/lv_grid.c **** lv_style_prop_t LV_STYLE_GRID_CELL_X_ALIGN;
 113:Drivers/lvgl/lvgl/src/extra/layouts/grid/lv_grid.c **** lv_style_prop_t LV_STYLE_GRID_CELL_ROW_POS;
 114:Drivers/lvgl/lvgl/src/extra/layouts/grid/lv_grid.c **** lv_style_prop_t LV_STYLE_GRID_CELL_ROW_SPAN;
 115:Drivers/lvgl/lvgl/src/extra/layouts/grid/lv_grid.c **** lv_style_prop_t LV_STYLE_GRID_CELL_Y_ALIGN;
 116:Drivers/lvgl/lvgl/src/extra/layouts/grid/lv_grid.c **** 
 117:Drivers/lvgl/lvgl/src/extra/layouts/grid/lv_grid.c **** /**********************
 118:Drivers/lvgl/lvgl/src/extra/layouts/grid/lv_grid.c ****  *  STATIC VARIABLES
 119:Drivers/lvgl/lvgl/src/extra/layouts/grid/lv_grid.c ****  **********************/
 120:Drivers/lvgl/lvgl/src/extra/layouts/grid/lv_grid.c **** 
 121:Drivers/lvgl/lvgl/src/extra/layouts/grid/lv_grid.c **** /**********************
 122:Drivers/lvgl/lvgl/src/extra/layouts/grid/lv_grid.c ****  *      MACROS
 123:Drivers/lvgl/lvgl/src/extra/layouts/grid/lv_grid.c ****  **********************/
 124:Drivers/lvgl/lvgl/src/extra/layouts/grid/lv_grid.c **** 
 125:Drivers/lvgl/lvgl/src/extra/layouts/grid/lv_grid.c **** /**********************
 126:Drivers/lvgl/lvgl/src/extra/layouts/grid/lv_grid.c ****  *   GLOBAL FUNCTIONS
 127:Drivers/lvgl/lvgl/src/extra/layouts/grid/lv_grid.c ****  **********************/
 128:Drivers/lvgl/lvgl/src/extra/layouts/grid/lv_grid.c **** 
 129:Drivers/lvgl/lvgl/src/extra/layouts/grid/lv_grid.c **** 
 130:Drivers/lvgl/lvgl/src/extra/layouts/grid/lv_grid.c **** void lv_grid_init(void)
 131:Drivers/lvgl/lvgl/src/extra/layouts/grid/lv_grid.c **** {
 132:Drivers/lvgl/lvgl/src/extra/layouts/grid/lv_grid.c ****     LV_LAYOUT_GRID = lv_layout_register(grid_update, NULL);
 133:Drivers/lvgl/lvgl/src/extra/layouts/grid/lv_grid.c **** 
 134:Drivers/lvgl/lvgl/src/extra/layouts/grid/lv_grid.c ****     LV_STYLE_GRID_COLUMN_DSC_ARRAY = lv_style_register_prop(LV_STYLE_PROP_LAYOUT_REFR);
 135:Drivers/lvgl/lvgl/src/extra/layouts/grid/lv_grid.c ****     LV_STYLE_GRID_ROW_DSC_ARRAY = lv_style_register_prop(LV_STYLE_PROP_LAYOUT_REFR);
 136:Drivers/lvgl/lvgl/src/extra/layouts/grid/lv_grid.c ****     LV_STYLE_GRID_COLUMN_ALIGN = lv_style_register_prop(LV_STYLE_PROP_LAYOUT_REFR);
 137:Drivers/lvgl/lvgl/src/extra/layouts/grid/lv_grid.c ****     LV_STYLE_GRID_ROW_ALIGN = lv_style_register_prop(LV_STYLE_PROP_LAYOUT_REFR);
 138:Drivers/lvgl/lvgl/src/extra/layouts/grid/lv_grid.c **** 
 139:Drivers/lvgl/lvgl/src/extra/layouts/grid/lv_grid.c ****     LV_STYLE_GRID_CELL_ROW_SPAN = lv_style_register_prop(LV_STYLE_PROP_LAYOUT_REFR);
 140:Drivers/lvgl/lvgl/src/extra/layouts/grid/lv_grid.c ****     LV_STYLE_GRID_CELL_ROW_POS = lv_style_register_prop(LV_STYLE_PROP_LAYOUT_REFR);
 141:Drivers/lvgl/lvgl/src/extra/layouts/grid/lv_grid.c ****     LV_STYLE_GRID_CELL_COLUMN_SPAN = lv_style_register_prop(LV_STYLE_PROP_LAYOUT_REFR);
 142:Drivers/lvgl/lvgl/src/extra/layouts/grid/lv_grid.c ****     LV_STYLE_GRID_CELL_COLUMN_POS = lv_style_register_prop(LV_STYLE_PROP_LAYOUT_REFR);
 143:Drivers/lvgl/lvgl/src/extra/layouts/grid/lv_grid.c ****     LV_STYLE_GRID_CELL_X_ALIGN = lv_style_register_prop(LV_STYLE_PROP_LAYOUT_REFR);
 144:Drivers/lvgl/lvgl/src/extra/layouts/grid/lv_grid.c ****     LV_STYLE_GRID_CELL_Y_ALIGN = lv_style_register_prop(LV_STYLE_PROP_LAYOUT_REFR);
 145:Drivers/lvgl/lvgl/src/extra/layouts/grid/lv_grid.c **** }
 146:Drivers/lvgl/lvgl/src/extra/layouts/grid/lv_grid.c **** 
 147:Drivers/lvgl/lvgl/src/extra/layouts/grid/lv_grid.c **** void lv_obj_set_grid_dsc_array(lv_obj_t * obj, const lv_coord_t col_dsc[], const lv_coord_t row_dsc
ARM GAS  /tmp/ccFQgg33.s 			page 4


 148:Drivers/lvgl/lvgl/src/extra/layouts/grid/lv_grid.c **** {
 149:Drivers/lvgl/lvgl/src/extra/layouts/grid/lv_grid.c ****     lv_obj_set_style_grid_column_dsc_array(obj, col_dsc, 0);
 150:Drivers/lvgl/lvgl/src/extra/layouts/grid/lv_grid.c ****     lv_obj_set_style_grid_row_dsc_array(obj, row_dsc, 0);
 151:Drivers/lvgl/lvgl/src/extra/layouts/grid/lv_grid.c ****     lv_obj_set_style_layout(obj, LV_LAYOUT_GRID, 0);
 152:Drivers/lvgl/lvgl/src/extra/layouts/grid/lv_grid.c **** }
 153:Drivers/lvgl/lvgl/src/extra/layouts/grid/lv_grid.c **** 
 154:Drivers/lvgl/lvgl/src/extra/layouts/grid/lv_grid.c **** void lv_obj_set_grid_align(lv_obj_t * obj, lv_grid_align_t column_align, lv_grid_align_t row_align)
 155:Drivers/lvgl/lvgl/src/extra/layouts/grid/lv_grid.c **** {
 156:Drivers/lvgl/lvgl/src/extra/layouts/grid/lv_grid.c ****     lv_obj_set_style_grid_column_align(obj, column_align, 0);
 157:Drivers/lvgl/lvgl/src/extra/layouts/grid/lv_grid.c ****     lv_obj_set_style_grid_row_align(obj, row_align, 0);
 158:Drivers/lvgl/lvgl/src/extra/layouts/grid/lv_grid.c **** 
 159:Drivers/lvgl/lvgl/src/extra/layouts/grid/lv_grid.c **** }
 160:Drivers/lvgl/lvgl/src/extra/layouts/grid/lv_grid.c **** 
 161:Drivers/lvgl/lvgl/src/extra/layouts/grid/lv_grid.c **** void lv_obj_set_grid_cell(lv_obj_t * obj, lv_grid_align_t x_align, uint8_t col_pos, uint8_t col_spa
 162:Drivers/lvgl/lvgl/src/extra/layouts/grid/lv_grid.c ****                           lv_grid_align_t y_align, uint8_t row_pos, uint8_t row_span)
 163:Drivers/lvgl/lvgl/src/extra/layouts/grid/lv_grid.c **** 
 164:Drivers/lvgl/lvgl/src/extra/layouts/grid/lv_grid.c **** {
 165:Drivers/lvgl/lvgl/src/extra/layouts/grid/lv_grid.c ****     lv_obj_set_style_grid_cell_column_pos(obj, col_pos, 0);
 166:Drivers/lvgl/lvgl/src/extra/layouts/grid/lv_grid.c ****     lv_obj_set_style_grid_cell_row_pos(obj, row_pos, 0);
 167:Drivers/lvgl/lvgl/src/extra/layouts/grid/lv_grid.c ****     lv_obj_set_style_grid_cell_x_align(obj, x_align, 0);
 168:Drivers/lvgl/lvgl/src/extra/layouts/grid/lv_grid.c ****     lv_obj_set_style_grid_cell_column_span(obj, col_span, 0);
 169:Drivers/lvgl/lvgl/src/extra/layouts/grid/lv_grid.c ****     lv_obj_set_style_grid_cell_row_span(obj, row_span, 0);
 170:Drivers/lvgl/lvgl/src/extra/layouts/grid/lv_grid.c ****     lv_obj_set_style_grid_cell_y_align(obj, y_align, 0);
 171:Drivers/lvgl/lvgl/src/extra/layouts/grid/lv_grid.c **** 
 172:Drivers/lvgl/lvgl/src/extra/layouts/grid/lv_grid.c ****     lv_obj_mark_layout_as_dirty(lv_obj_get_parent(obj));
 173:Drivers/lvgl/lvgl/src/extra/layouts/grid/lv_grid.c **** }
 174:Drivers/lvgl/lvgl/src/extra/layouts/grid/lv_grid.c **** 
 175:Drivers/lvgl/lvgl/src/extra/layouts/grid/lv_grid.c **** 
 176:Drivers/lvgl/lvgl/src/extra/layouts/grid/lv_grid.c **** void lv_style_set_grid_row_dsc_array(lv_style_t * style, const lv_coord_t value[])
 177:Drivers/lvgl/lvgl/src/extra/layouts/grid/lv_grid.c **** {
 178:Drivers/lvgl/lvgl/src/extra/layouts/grid/lv_grid.c ****     lv_style_value_t v = {
 179:Drivers/lvgl/lvgl/src/extra/layouts/grid/lv_grid.c ****         .ptr = (const void *)value
 180:Drivers/lvgl/lvgl/src/extra/layouts/grid/lv_grid.c ****     };
 181:Drivers/lvgl/lvgl/src/extra/layouts/grid/lv_grid.c ****     lv_style_set_prop(style, LV_STYLE_GRID_ROW_DSC_ARRAY, v);
 182:Drivers/lvgl/lvgl/src/extra/layouts/grid/lv_grid.c **** }
 183:Drivers/lvgl/lvgl/src/extra/layouts/grid/lv_grid.c **** 
 184:Drivers/lvgl/lvgl/src/extra/layouts/grid/lv_grid.c **** void lv_style_set_grid_column_dsc_array(lv_style_t * style, const lv_coord_t value[])
 185:Drivers/lvgl/lvgl/src/extra/layouts/grid/lv_grid.c **** {
 186:Drivers/lvgl/lvgl/src/extra/layouts/grid/lv_grid.c ****     lv_style_value_t v = {
 187:Drivers/lvgl/lvgl/src/extra/layouts/grid/lv_grid.c ****         .ptr = (const void *)value
 188:Drivers/lvgl/lvgl/src/extra/layouts/grid/lv_grid.c ****     };
 189:Drivers/lvgl/lvgl/src/extra/layouts/grid/lv_grid.c ****     lv_style_set_prop(style, LV_STYLE_GRID_COLUMN_DSC_ARRAY, v);
 190:Drivers/lvgl/lvgl/src/extra/layouts/grid/lv_grid.c **** }
 191:Drivers/lvgl/lvgl/src/extra/layouts/grid/lv_grid.c **** 
 192:Drivers/lvgl/lvgl/src/extra/layouts/grid/lv_grid.c **** void lv_style_set_grid_row_align(lv_style_t * style, lv_grid_align_t value)
 193:Drivers/lvgl/lvgl/src/extra/layouts/grid/lv_grid.c **** {
 194:Drivers/lvgl/lvgl/src/extra/layouts/grid/lv_grid.c ****     lv_style_value_t v = {
 195:Drivers/lvgl/lvgl/src/extra/layouts/grid/lv_grid.c ****         .num = (lv_grid_align_t)value
 196:Drivers/lvgl/lvgl/src/extra/layouts/grid/lv_grid.c ****     };
 197:Drivers/lvgl/lvgl/src/extra/layouts/grid/lv_grid.c ****     lv_style_set_prop(style, LV_STYLE_GRID_ROW_ALIGN, v);
 198:Drivers/lvgl/lvgl/src/extra/layouts/grid/lv_grid.c **** }
 199:Drivers/lvgl/lvgl/src/extra/layouts/grid/lv_grid.c **** 
 200:Drivers/lvgl/lvgl/src/extra/layouts/grid/lv_grid.c **** void lv_style_set_grid_column_align(lv_style_t * style, lv_grid_align_t value)
 201:Drivers/lvgl/lvgl/src/extra/layouts/grid/lv_grid.c **** {
 202:Drivers/lvgl/lvgl/src/extra/layouts/grid/lv_grid.c ****     lv_style_value_t v = {
 203:Drivers/lvgl/lvgl/src/extra/layouts/grid/lv_grid.c ****         .num = (lv_grid_align_t)value
 204:Drivers/lvgl/lvgl/src/extra/layouts/grid/lv_grid.c ****     };
ARM GAS  /tmp/ccFQgg33.s 			page 5


 205:Drivers/lvgl/lvgl/src/extra/layouts/grid/lv_grid.c ****     lv_style_set_prop(style, LV_STYLE_GRID_COLUMN_ALIGN, v);
 206:Drivers/lvgl/lvgl/src/extra/layouts/grid/lv_grid.c **** }
 207:Drivers/lvgl/lvgl/src/extra/layouts/grid/lv_grid.c **** 
 208:Drivers/lvgl/lvgl/src/extra/layouts/grid/lv_grid.c **** 
 209:Drivers/lvgl/lvgl/src/extra/layouts/grid/lv_grid.c **** void lv_style_set_grid_cell_column_pos(lv_style_t * style, lv_coord_t value)
 210:Drivers/lvgl/lvgl/src/extra/layouts/grid/lv_grid.c **** {
 211:Drivers/lvgl/lvgl/src/extra/layouts/grid/lv_grid.c ****     lv_style_value_t v = {
 212:Drivers/lvgl/lvgl/src/extra/layouts/grid/lv_grid.c ****         .num = value
 213:Drivers/lvgl/lvgl/src/extra/layouts/grid/lv_grid.c ****     };
 214:Drivers/lvgl/lvgl/src/extra/layouts/grid/lv_grid.c ****     lv_style_set_prop(style, LV_STYLE_GRID_CELL_COLUMN_POS, v);
 215:Drivers/lvgl/lvgl/src/extra/layouts/grid/lv_grid.c **** }
 216:Drivers/lvgl/lvgl/src/extra/layouts/grid/lv_grid.c **** 
 217:Drivers/lvgl/lvgl/src/extra/layouts/grid/lv_grid.c **** void lv_style_set_grid_cell_column_span(lv_style_t * style, lv_coord_t value)
 218:Drivers/lvgl/lvgl/src/extra/layouts/grid/lv_grid.c **** {
 219:Drivers/lvgl/lvgl/src/extra/layouts/grid/lv_grid.c ****     lv_style_value_t v = {
 220:Drivers/lvgl/lvgl/src/extra/layouts/grid/lv_grid.c ****         .num = value
 221:Drivers/lvgl/lvgl/src/extra/layouts/grid/lv_grid.c ****     };
 222:Drivers/lvgl/lvgl/src/extra/layouts/grid/lv_grid.c ****     lv_style_set_prop(style, LV_STYLE_GRID_CELL_COLUMN_SPAN, v);
 223:Drivers/lvgl/lvgl/src/extra/layouts/grid/lv_grid.c **** }
 224:Drivers/lvgl/lvgl/src/extra/layouts/grid/lv_grid.c **** 
 225:Drivers/lvgl/lvgl/src/extra/layouts/grid/lv_grid.c **** void lv_style_set_grid_cell_row_pos(lv_style_t * style, lv_coord_t value)
 226:Drivers/lvgl/lvgl/src/extra/layouts/grid/lv_grid.c **** {
 227:Drivers/lvgl/lvgl/src/extra/layouts/grid/lv_grid.c ****     lv_style_value_t v = {
 228:Drivers/lvgl/lvgl/src/extra/layouts/grid/lv_grid.c ****         .num = value
 229:Drivers/lvgl/lvgl/src/extra/layouts/grid/lv_grid.c ****     };
 230:Drivers/lvgl/lvgl/src/extra/layouts/grid/lv_grid.c ****     lv_style_set_prop(style, LV_STYLE_GRID_CELL_ROW_POS, v);
 231:Drivers/lvgl/lvgl/src/extra/layouts/grid/lv_grid.c **** }
 232:Drivers/lvgl/lvgl/src/extra/layouts/grid/lv_grid.c **** 
 233:Drivers/lvgl/lvgl/src/extra/layouts/grid/lv_grid.c **** void lv_style_set_grid_cell_row_span(lv_style_t * style, lv_coord_t value)
 234:Drivers/lvgl/lvgl/src/extra/layouts/grid/lv_grid.c **** {
 235:Drivers/lvgl/lvgl/src/extra/layouts/grid/lv_grid.c ****     lv_style_value_t v = {
 236:Drivers/lvgl/lvgl/src/extra/layouts/grid/lv_grid.c ****         .num = value
 237:Drivers/lvgl/lvgl/src/extra/layouts/grid/lv_grid.c ****     };
 238:Drivers/lvgl/lvgl/src/extra/layouts/grid/lv_grid.c ****     lv_style_set_prop(style, LV_STYLE_GRID_CELL_ROW_SPAN, v);
 239:Drivers/lvgl/lvgl/src/extra/layouts/grid/lv_grid.c **** }
 240:Drivers/lvgl/lvgl/src/extra/layouts/grid/lv_grid.c **** 
 241:Drivers/lvgl/lvgl/src/extra/layouts/grid/lv_grid.c **** void lv_style_set_grid_cell_x_align(lv_style_t * style, lv_coord_t value)
 242:Drivers/lvgl/lvgl/src/extra/layouts/grid/lv_grid.c **** {
 243:Drivers/lvgl/lvgl/src/extra/layouts/grid/lv_grid.c ****     lv_style_value_t v = {
 244:Drivers/lvgl/lvgl/src/extra/layouts/grid/lv_grid.c ****         .num = value
 245:Drivers/lvgl/lvgl/src/extra/layouts/grid/lv_grid.c ****     };
 246:Drivers/lvgl/lvgl/src/extra/layouts/grid/lv_grid.c ****     lv_style_set_prop(style, LV_STYLE_GRID_CELL_X_ALIGN, v);
 247:Drivers/lvgl/lvgl/src/extra/layouts/grid/lv_grid.c **** }
 248:Drivers/lvgl/lvgl/src/extra/layouts/grid/lv_grid.c **** 
 249:Drivers/lvgl/lvgl/src/extra/layouts/grid/lv_grid.c **** void lv_style_set_grid_cell_y_align(lv_style_t * style, lv_coord_t value)
 250:Drivers/lvgl/lvgl/src/extra/layouts/grid/lv_grid.c **** {
 251:Drivers/lvgl/lvgl/src/extra/layouts/grid/lv_grid.c ****     lv_style_value_t v = {
 252:Drivers/lvgl/lvgl/src/extra/layouts/grid/lv_grid.c ****         .num = value
 253:Drivers/lvgl/lvgl/src/extra/layouts/grid/lv_grid.c ****     };
 254:Drivers/lvgl/lvgl/src/extra/layouts/grid/lv_grid.c ****     lv_style_set_prop(style, LV_STYLE_GRID_CELL_Y_ALIGN, v);
 255:Drivers/lvgl/lvgl/src/extra/layouts/grid/lv_grid.c **** }
 256:Drivers/lvgl/lvgl/src/extra/layouts/grid/lv_grid.c **** 
 257:Drivers/lvgl/lvgl/src/extra/layouts/grid/lv_grid.c **** void lv_obj_set_style_grid_row_dsc_array(lv_obj_t * obj, const lv_coord_t value[], lv_style_selecto
 258:Drivers/lvgl/lvgl/src/extra/layouts/grid/lv_grid.c **** {
 259:Drivers/lvgl/lvgl/src/extra/layouts/grid/lv_grid.c ****     lv_style_value_t v = {
 260:Drivers/lvgl/lvgl/src/extra/layouts/grid/lv_grid.c ****         .ptr = (const void *)value
 261:Drivers/lvgl/lvgl/src/extra/layouts/grid/lv_grid.c ****     };
ARM GAS  /tmp/ccFQgg33.s 			page 6


 262:Drivers/lvgl/lvgl/src/extra/layouts/grid/lv_grid.c ****     lv_obj_set_local_style_prop(obj, LV_STYLE_GRID_ROW_DSC_ARRAY, v, selector);
 263:Drivers/lvgl/lvgl/src/extra/layouts/grid/lv_grid.c **** }
 264:Drivers/lvgl/lvgl/src/extra/layouts/grid/lv_grid.c **** 
 265:Drivers/lvgl/lvgl/src/extra/layouts/grid/lv_grid.c **** void lv_obj_set_style_grid_column_dsc_array(lv_obj_t * obj, const lv_coord_t value[], lv_style_sele
 266:Drivers/lvgl/lvgl/src/extra/layouts/grid/lv_grid.c **** {
 267:Drivers/lvgl/lvgl/src/extra/layouts/grid/lv_grid.c ****     lv_style_value_t v = {
 268:Drivers/lvgl/lvgl/src/extra/layouts/grid/lv_grid.c ****         .ptr = (const void *)value
 269:Drivers/lvgl/lvgl/src/extra/layouts/grid/lv_grid.c ****     };
 270:Drivers/lvgl/lvgl/src/extra/layouts/grid/lv_grid.c ****     lv_obj_set_local_style_prop(obj, LV_STYLE_GRID_COLUMN_DSC_ARRAY, v, selector);
 271:Drivers/lvgl/lvgl/src/extra/layouts/grid/lv_grid.c **** }
 272:Drivers/lvgl/lvgl/src/extra/layouts/grid/lv_grid.c **** 
 273:Drivers/lvgl/lvgl/src/extra/layouts/grid/lv_grid.c **** 
 274:Drivers/lvgl/lvgl/src/extra/layouts/grid/lv_grid.c **** void lv_obj_set_style_grid_row_align(lv_obj_t * obj, lv_grid_align_t value, lv_style_selector_t sel
 275:Drivers/lvgl/lvgl/src/extra/layouts/grid/lv_grid.c **** {
 276:Drivers/lvgl/lvgl/src/extra/layouts/grid/lv_grid.c ****     lv_style_value_t v = {
 277:Drivers/lvgl/lvgl/src/extra/layouts/grid/lv_grid.c ****         .num = (int32_t) value
 278:Drivers/lvgl/lvgl/src/extra/layouts/grid/lv_grid.c ****     };
 279:Drivers/lvgl/lvgl/src/extra/layouts/grid/lv_grid.c ****     lv_obj_set_local_style_prop(obj, LV_STYLE_GRID_ROW_ALIGN, v, selector);
 280:Drivers/lvgl/lvgl/src/extra/layouts/grid/lv_grid.c **** }
 281:Drivers/lvgl/lvgl/src/extra/layouts/grid/lv_grid.c **** 
 282:Drivers/lvgl/lvgl/src/extra/layouts/grid/lv_grid.c **** void lv_obj_set_style_grid_column_align(lv_obj_t * obj, lv_grid_align_t value, lv_style_selector_t 
 283:Drivers/lvgl/lvgl/src/extra/layouts/grid/lv_grid.c **** {
 284:Drivers/lvgl/lvgl/src/extra/layouts/grid/lv_grid.c ****     lv_style_value_t v = {
 285:Drivers/lvgl/lvgl/src/extra/layouts/grid/lv_grid.c ****         .num = (int32_t) value
 286:Drivers/lvgl/lvgl/src/extra/layouts/grid/lv_grid.c ****     };
 287:Drivers/lvgl/lvgl/src/extra/layouts/grid/lv_grid.c ****     lv_obj_set_local_style_prop(obj, LV_STYLE_GRID_COLUMN_ALIGN, v, selector);
 288:Drivers/lvgl/lvgl/src/extra/layouts/grid/lv_grid.c **** }
 289:Drivers/lvgl/lvgl/src/extra/layouts/grid/lv_grid.c **** 
 290:Drivers/lvgl/lvgl/src/extra/layouts/grid/lv_grid.c **** 
 291:Drivers/lvgl/lvgl/src/extra/layouts/grid/lv_grid.c **** void lv_obj_set_style_grid_cell_column_pos(lv_obj_t * obj, lv_coord_t value, lv_style_selector_t se
 292:Drivers/lvgl/lvgl/src/extra/layouts/grid/lv_grid.c **** {
 293:Drivers/lvgl/lvgl/src/extra/layouts/grid/lv_grid.c ****     lv_style_value_t v = {
 294:Drivers/lvgl/lvgl/src/extra/layouts/grid/lv_grid.c ****         .num = value
 295:Drivers/lvgl/lvgl/src/extra/layouts/grid/lv_grid.c ****     };
 296:Drivers/lvgl/lvgl/src/extra/layouts/grid/lv_grid.c ****     lv_obj_set_local_style_prop(obj, LV_STYLE_GRID_CELL_COLUMN_POS, v, selector);
 297:Drivers/lvgl/lvgl/src/extra/layouts/grid/lv_grid.c **** }
 298:Drivers/lvgl/lvgl/src/extra/layouts/grid/lv_grid.c **** 
 299:Drivers/lvgl/lvgl/src/extra/layouts/grid/lv_grid.c **** void lv_obj_set_style_grid_cell_column_span(lv_obj_t * obj, lv_coord_t value, lv_style_selector_t s
 300:Drivers/lvgl/lvgl/src/extra/layouts/grid/lv_grid.c **** {
 301:Drivers/lvgl/lvgl/src/extra/layouts/grid/lv_grid.c ****     lv_style_value_t v = {
 302:Drivers/lvgl/lvgl/src/extra/layouts/grid/lv_grid.c ****         .num = value
 303:Drivers/lvgl/lvgl/src/extra/layouts/grid/lv_grid.c ****     };
 304:Drivers/lvgl/lvgl/src/extra/layouts/grid/lv_grid.c ****     lv_obj_set_local_style_prop(obj, LV_STYLE_GRID_CELL_COLUMN_SPAN, v, selector);
 305:Drivers/lvgl/lvgl/src/extra/layouts/grid/lv_grid.c **** }
 306:Drivers/lvgl/lvgl/src/extra/layouts/grid/lv_grid.c **** 
 307:Drivers/lvgl/lvgl/src/extra/layouts/grid/lv_grid.c **** void lv_obj_set_style_grid_cell_row_pos(lv_obj_t * obj, lv_coord_t value, lv_style_selector_t selec
 308:Drivers/lvgl/lvgl/src/extra/layouts/grid/lv_grid.c **** {
 309:Drivers/lvgl/lvgl/src/extra/layouts/grid/lv_grid.c ****     lv_style_value_t v = {
 310:Drivers/lvgl/lvgl/src/extra/layouts/grid/lv_grid.c ****         .num = value
 311:Drivers/lvgl/lvgl/src/extra/layouts/grid/lv_grid.c ****     };
 312:Drivers/lvgl/lvgl/src/extra/layouts/grid/lv_grid.c ****     lv_obj_set_local_style_prop(obj, LV_STYLE_GRID_CELL_ROW_POS, v, selector);
 313:Drivers/lvgl/lvgl/src/extra/layouts/grid/lv_grid.c **** }
 314:Drivers/lvgl/lvgl/src/extra/layouts/grid/lv_grid.c **** 
 315:Drivers/lvgl/lvgl/src/extra/layouts/grid/lv_grid.c **** void lv_obj_set_style_grid_cell_row_span(lv_obj_t * obj, lv_coord_t value, lv_style_selector_t sele
 316:Drivers/lvgl/lvgl/src/extra/layouts/grid/lv_grid.c **** {
 317:Drivers/lvgl/lvgl/src/extra/layouts/grid/lv_grid.c ****     lv_style_value_t v = {
 318:Drivers/lvgl/lvgl/src/extra/layouts/grid/lv_grid.c ****         .num = value
ARM GAS  /tmp/ccFQgg33.s 			page 7


 319:Drivers/lvgl/lvgl/src/extra/layouts/grid/lv_grid.c ****     };
 320:Drivers/lvgl/lvgl/src/extra/layouts/grid/lv_grid.c ****     lv_obj_set_local_style_prop(obj, LV_STYLE_GRID_CELL_ROW_SPAN, v, selector);
 321:Drivers/lvgl/lvgl/src/extra/layouts/grid/lv_grid.c **** }
 322:Drivers/lvgl/lvgl/src/extra/layouts/grid/lv_grid.c **** 
 323:Drivers/lvgl/lvgl/src/extra/layouts/grid/lv_grid.c **** void lv_obj_set_style_grid_cell_x_align(lv_obj_t * obj, lv_coord_t value, lv_style_selector_t selec
 324:Drivers/lvgl/lvgl/src/extra/layouts/grid/lv_grid.c **** {
 325:Drivers/lvgl/lvgl/src/extra/layouts/grid/lv_grid.c ****     lv_style_value_t v = {
 326:Drivers/lvgl/lvgl/src/extra/layouts/grid/lv_grid.c ****         .num = value
 327:Drivers/lvgl/lvgl/src/extra/layouts/grid/lv_grid.c ****     };
 328:Drivers/lvgl/lvgl/src/extra/layouts/grid/lv_grid.c ****     lv_obj_set_local_style_prop(obj, LV_STYLE_GRID_CELL_X_ALIGN, v, selector);
 329:Drivers/lvgl/lvgl/src/extra/layouts/grid/lv_grid.c **** }
 330:Drivers/lvgl/lvgl/src/extra/layouts/grid/lv_grid.c **** 
 331:Drivers/lvgl/lvgl/src/extra/layouts/grid/lv_grid.c **** void lv_obj_set_style_grid_cell_y_align(lv_obj_t * obj, lv_coord_t value, lv_style_selector_t selec
 332:Drivers/lvgl/lvgl/src/extra/layouts/grid/lv_grid.c **** {
 333:Drivers/lvgl/lvgl/src/extra/layouts/grid/lv_grid.c ****     lv_style_value_t v = {
 334:Drivers/lvgl/lvgl/src/extra/layouts/grid/lv_grid.c ****         .num = value
 335:Drivers/lvgl/lvgl/src/extra/layouts/grid/lv_grid.c ****     };
 336:Drivers/lvgl/lvgl/src/extra/layouts/grid/lv_grid.c ****     lv_obj_set_local_style_prop(obj, LV_STYLE_GRID_CELL_Y_ALIGN, v, selector);
 337:Drivers/lvgl/lvgl/src/extra/layouts/grid/lv_grid.c **** }
 338:Drivers/lvgl/lvgl/src/extra/layouts/grid/lv_grid.c **** 
 339:Drivers/lvgl/lvgl/src/extra/layouts/grid/lv_grid.c **** 
 340:Drivers/lvgl/lvgl/src/extra/layouts/grid/lv_grid.c **** /**********************
 341:Drivers/lvgl/lvgl/src/extra/layouts/grid/lv_grid.c ****  *   STATIC FUNCTIONS
 342:Drivers/lvgl/lvgl/src/extra/layouts/grid/lv_grid.c ****  **********************/
 343:Drivers/lvgl/lvgl/src/extra/layouts/grid/lv_grid.c **** 
 344:Drivers/lvgl/lvgl/src/extra/layouts/grid/lv_grid.c **** static void grid_update(lv_obj_t * cont, void * user_data)
 345:Drivers/lvgl/lvgl/src/extra/layouts/grid/lv_grid.c **** {
 346:Drivers/lvgl/lvgl/src/extra/layouts/grid/lv_grid.c ****     LV_LOG_INFO("update %p container", (void *)cont);
 347:Drivers/lvgl/lvgl/src/extra/layouts/grid/lv_grid.c ****     LV_UNUSED(user_data);
 348:Drivers/lvgl/lvgl/src/extra/layouts/grid/lv_grid.c **** 
 349:Drivers/lvgl/lvgl/src/extra/layouts/grid/lv_grid.c ****     const lv_coord_t * col_templ = get_col_dsc(cont);
 350:Drivers/lvgl/lvgl/src/extra/layouts/grid/lv_grid.c ****     const lv_coord_t * row_templ = get_row_dsc(cont);
 351:Drivers/lvgl/lvgl/src/extra/layouts/grid/lv_grid.c ****     if(col_templ == NULL || row_templ == NULL) return;
 352:Drivers/lvgl/lvgl/src/extra/layouts/grid/lv_grid.c **** 
 353:Drivers/lvgl/lvgl/src/extra/layouts/grid/lv_grid.c ****     _lv_grid_calc_t c;
 354:Drivers/lvgl/lvgl/src/extra/layouts/grid/lv_grid.c ****     calc(cont, &c);
 355:Drivers/lvgl/lvgl/src/extra/layouts/grid/lv_grid.c **** 
 356:Drivers/lvgl/lvgl/src/extra/layouts/grid/lv_grid.c ****     item_repos_hint_t hint;
 357:Drivers/lvgl/lvgl/src/extra/layouts/grid/lv_grid.c ****     lv_memset_00(&hint, sizeof(hint));
 358:Drivers/lvgl/lvgl/src/extra/layouts/grid/lv_grid.c **** 
 359:Drivers/lvgl/lvgl/src/extra/layouts/grid/lv_grid.c ****     /*Calculate the grids absolute x and y coordinates.
 360:Drivers/lvgl/lvgl/src/extra/layouts/grid/lv_grid.c ****      *It will be used as helper during item repositioning to avoid calculating this value for every
 361:Drivers/lvgl/lvgl/src/extra/layouts/grid/lv_grid.c ****     lv_coord_t border_widt = lv_obj_get_style_border_width(cont, LV_PART_MAIN);
 362:Drivers/lvgl/lvgl/src/extra/layouts/grid/lv_grid.c ****     lv_coord_t pad_left = lv_obj_get_style_pad_left(cont, LV_PART_MAIN) + border_widt;
 363:Drivers/lvgl/lvgl/src/extra/layouts/grid/lv_grid.c ****     lv_coord_t pad_top = lv_obj_get_style_pad_top(cont, LV_PART_MAIN) + border_widt;
 364:Drivers/lvgl/lvgl/src/extra/layouts/grid/lv_grid.c ****     hint.grid_abs.x = pad_left + cont->coords.x1 - lv_obj_get_scroll_x(cont);
 365:Drivers/lvgl/lvgl/src/extra/layouts/grid/lv_grid.c ****     hint.grid_abs.y = pad_top + cont->coords.y1 - lv_obj_get_scroll_y(cont);
 366:Drivers/lvgl/lvgl/src/extra/layouts/grid/lv_grid.c **** 
 367:Drivers/lvgl/lvgl/src/extra/layouts/grid/lv_grid.c ****     uint32_t i;
 368:Drivers/lvgl/lvgl/src/extra/layouts/grid/lv_grid.c ****     for(i = 0; i < cont->spec_attr->child_cnt; i++) {
 369:Drivers/lvgl/lvgl/src/extra/layouts/grid/lv_grid.c ****         lv_obj_t * item = cont->spec_attr->children[i];
 370:Drivers/lvgl/lvgl/src/extra/layouts/grid/lv_grid.c ****         item_repos(item, &c, &hint);
 371:Drivers/lvgl/lvgl/src/extra/layouts/grid/lv_grid.c ****     }
 372:Drivers/lvgl/lvgl/src/extra/layouts/grid/lv_grid.c ****     calc_free(&c);
 373:Drivers/lvgl/lvgl/src/extra/layouts/grid/lv_grid.c **** 
 374:Drivers/lvgl/lvgl/src/extra/layouts/grid/lv_grid.c ****     lv_coord_t w_set = lv_obj_get_style_width(cont, LV_PART_MAIN);
 375:Drivers/lvgl/lvgl/src/extra/layouts/grid/lv_grid.c ****     lv_coord_t h_set = lv_obj_get_style_height(cont, LV_PART_MAIN);
ARM GAS  /tmp/ccFQgg33.s 			page 8


 376:Drivers/lvgl/lvgl/src/extra/layouts/grid/lv_grid.c ****     if(w_set == LV_SIZE_CONTENT || h_set == LV_SIZE_CONTENT) {
 377:Drivers/lvgl/lvgl/src/extra/layouts/grid/lv_grid.c ****         lv_obj_refr_size(cont);
 378:Drivers/lvgl/lvgl/src/extra/layouts/grid/lv_grid.c ****     }
 379:Drivers/lvgl/lvgl/src/extra/layouts/grid/lv_grid.c **** 
 380:Drivers/lvgl/lvgl/src/extra/layouts/grid/lv_grid.c ****     lv_event_send(cont, LV_EVENT_LAYOUT_CHANGED, NULL);
 381:Drivers/lvgl/lvgl/src/extra/layouts/grid/lv_grid.c **** 
 382:Drivers/lvgl/lvgl/src/extra/layouts/grid/lv_grid.c ****     LV_TRACE_LAYOUT("finished");
 383:Drivers/lvgl/lvgl/src/extra/layouts/grid/lv_grid.c **** }
 384:Drivers/lvgl/lvgl/src/extra/layouts/grid/lv_grid.c **** 
 385:Drivers/lvgl/lvgl/src/extra/layouts/grid/lv_grid.c **** /**
 386:Drivers/lvgl/lvgl/src/extra/layouts/grid/lv_grid.c ****  * Calculate the grid cells coordinates
 387:Drivers/lvgl/lvgl/src/extra/layouts/grid/lv_grid.c ****  * @param cont an object that has a grid
 388:Drivers/lvgl/lvgl/src/extra/layouts/grid/lv_grid.c ****  * @param calc store the calculated cells sizes here
 389:Drivers/lvgl/lvgl/src/extra/layouts/grid/lv_grid.c ****  * @note `_lv_grid_calc_free(calc_out)` needs to be called when `calc_out` is not needed anymore
 390:Drivers/lvgl/lvgl/src/extra/layouts/grid/lv_grid.c ****  */
 391:Drivers/lvgl/lvgl/src/extra/layouts/grid/lv_grid.c **** static void calc(lv_obj_t * cont, _lv_grid_calc_t * calc_out)
 392:Drivers/lvgl/lvgl/src/extra/layouts/grid/lv_grid.c **** {
 393:Drivers/lvgl/lvgl/src/extra/layouts/grid/lv_grid.c ****     if(lv_obj_get_child(cont, 0) == NULL) {
 394:Drivers/lvgl/lvgl/src/extra/layouts/grid/lv_grid.c ****         lv_memset_00(calc_out, sizeof(_lv_grid_calc_t));
 395:Drivers/lvgl/lvgl/src/extra/layouts/grid/lv_grid.c ****         return;
 396:Drivers/lvgl/lvgl/src/extra/layouts/grid/lv_grid.c ****     }
 397:Drivers/lvgl/lvgl/src/extra/layouts/grid/lv_grid.c **** 
 398:Drivers/lvgl/lvgl/src/extra/layouts/grid/lv_grid.c ****     calc_rows(cont, calc_out);
 399:Drivers/lvgl/lvgl/src/extra/layouts/grid/lv_grid.c ****     calc_cols(cont, calc_out);
 400:Drivers/lvgl/lvgl/src/extra/layouts/grid/lv_grid.c **** 
 401:Drivers/lvgl/lvgl/src/extra/layouts/grid/lv_grid.c ****     lv_coord_t col_gap = lv_obj_get_style_pad_column(cont, LV_PART_MAIN);
 402:Drivers/lvgl/lvgl/src/extra/layouts/grid/lv_grid.c ****     lv_coord_t row_gap = lv_obj_get_style_pad_row(cont, LV_PART_MAIN);
 403:Drivers/lvgl/lvgl/src/extra/layouts/grid/lv_grid.c **** 
 404:Drivers/lvgl/lvgl/src/extra/layouts/grid/lv_grid.c ****     bool rev = lv_obj_get_style_base_dir(cont, LV_PART_MAIN) == LV_BASE_DIR_RTL ? true : false;
 405:Drivers/lvgl/lvgl/src/extra/layouts/grid/lv_grid.c **** 
 406:Drivers/lvgl/lvgl/src/extra/layouts/grid/lv_grid.c ****     lv_coord_t w_set = lv_obj_get_style_width(cont, LV_PART_MAIN);
 407:Drivers/lvgl/lvgl/src/extra/layouts/grid/lv_grid.c ****     lv_coord_t h_set = lv_obj_get_style_height(cont, LV_PART_MAIN);
 408:Drivers/lvgl/lvgl/src/extra/layouts/grid/lv_grid.c ****     bool auto_w = (w_set == LV_SIZE_CONTENT && !cont->w_layout) ? true : false;
 409:Drivers/lvgl/lvgl/src/extra/layouts/grid/lv_grid.c ****     lv_coord_t cont_w = lv_obj_get_content_width(cont);
 410:Drivers/lvgl/lvgl/src/extra/layouts/grid/lv_grid.c ****     calc_out->grid_w = grid_align(cont_w, auto_w, get_grid_col_align(cont), col_gap, calc_out->col_
 411:Drivers/lvgl/lvgl/src/extra/layouts/grid/lv_grid.c ****                                   calc_out->x, rev);
 412:Drivers/lvgl/lvgl/src/extra/layouts/grid/lv_grid.c **** 
 413:Drivers/lvgl/lvgl/src/extra/layouts/grid/lv_grid.c ****     bool auto_h = (h_set == LV_SIZE_CONTENT && !cont->h_layout) ? true : false;
 414:Drivers/lvgl/lvgl/src/extra/layouts/grid/lv_grid.c ****     lv_coord_t cont_h = lv_obj_get_content_height(cont);
 415:Drivers/lvgl/lvgl/src/extra/layouts/grid/lv_grid.c ****     calc_out->grid_h = grid_align(cont_h, auto_h, get_grid_row_align(cont), row_gap, calc_out->row_
 416:Drivers/lvgl/lvgl/src/extra/layouts/grid/lv_grid.c ****                                   calc_out->y, false);
 417:Drivers/lvgl/lvgl/src/extra/layouts/grid/lv_grid.c **** 
 418:Drivers/lvgl/lvgl/src/extra/layouts/grid/lv_grid.c ****     LV_ASSERT_MEM_INTEGRITY();
 419:Drivers/lvgl/lvgl/src/extra/layouts/grid/lv_grid.c **** }
 420:Drivers/lvgl/lvgl/src/extra/layouts/grid/lv_grid.c **** 
 421:Drivers/lvgl/lvgl/src/extra/layouts/grid/lv_grid.c **** /**
 422:Drivers/lvgl/lvgl/src/extra/layouts/grid/lv_grid.c ****  * Free the a grid calculation's data
 423:Drivers/lvgl/lvgl/src/extra/layouts/grid/lv_grid.c ****  * @param calc pointer to the calculated grid cell coordinates
 424:Drivers/lvgl/lvgl/src/extra/layouts/grid/lv_grid.c ****  */
 425:Drivers/lvgl/lvgl/src/extra/layouts/grid/lv_grid.c **** static void calc_free(_lv_grid_calc_t * calc)
 426:Drivers/lvgl/lvgl/src/extra/layouts/grid/lv_grid.c **** {
 427:Drivers/lvgl/lvgl/src/extra/layouts/grid/lv_grid.c ****     lv_mem_buf_release(calc->x);
 428:Drivers/lvgl/lvgl/src/extra/layouts/grid/lv_grid.c ****     lv_mem_buf_release(calc->y);
 429:Drivers/lvgl/lvgl/src/extra/layouts/grid/lv_grid.c ****     lv_mem_buf_release(calc->w);
 430:Drivers/lvgl/lvgl/src/extra/layouts/grid/lv_grid.c ****     lv_mem_buf_release(calc->h);
 431:Drivers/lvgl/lvgl/src/extra/layouts/grid/lv_grid.c **** }
 432:Drivers/lvgl/lvgl/src/extra/layouts/grid/lv_grid.c **** 
ARM GAS  /tmp/ccFQgg33.s 			page 9


 433:Drivers/lvgl/lvgl/src/extra/layouts/grid/lv_grid.c **** static void calc_cols(lv_obj_t * cont, _lv_grid_calc_t * c)
 434:Drivers/lvgl/lvgl/src/extra/layouts/grid/lv_grid.c **** {
 435:Drivers/lvgl/lvgl/src/extra/layouts/grid/lv_grid.c ****     const lv_coord_t * col_templ = get_col_dsc(cont);
 436:Drivers/lvgl/lvgl/src/extra/layouts/grid/lv_grid.c ****     lv_coord_t cont_w = lv_obj_get_content_width(cont);
 437:Drivers/lvgl/lvgl/src/extra/layouts/grid/lv_grid.c **** 
 438:Drivers/lvgl/lvgl/src/extra/layouts/grid/lv_grid.c ****     c->col_num = count_tracks(col_templ);
 439:Drivers/lvgl/lvgl/src/extra/layouts/grid/lv_grid.c ****     c->x = lv_mem_buf_get(sizeof(lv_coord_t) * c->col_num);
 440:Drivers/lvgl/lvgl/src/extra/layouts/grid/lv_grid.c ****     c->w = lv_mem_buf_get(sizeof(lv_coord_t) * c->col_num);
 441:Drivers/lvgl/lvgl/src/extra/layouts/grid/lv_grid.c **** 
 442:Drivers/lvgl/lvgl/src/extra/layouts/grid/lv_grid.c ****     /*Set sizes for CONTENT cells*/
 443:Drivers/lvgl/lvgl/src/extra/layouts/grid/lv_grid.c ****     uint32_t i;
 444:Drivers/lvgl/lvgl/src/extra/layouts/grid/lv_grid.c ****     for(i = 0; i < c->col_num; i++) {
 445:Drivers/lvgl/lvgl/src/extra/layouts/grid/lv_grid.c ****         lv_coord_t size = LV_COORD_MIN;
 446:Drivers/lvgl/lvgl/src/extra/layouts/grid/lv_grid.c ****         if(IS_CONTENT(col_templ[i])) {
 447:Drivers/lvgl/lvgl/src/extra/layouts/grid/lv_grid.c ****             /*Check the size of children of this cell*/
 448:Drivers/lvgl/lvgl/src/extra/layouts/grid/lv_grid.c ****             uint32_t ci;
 449:Drivers/lvgl/lvgl/src/extra/layouts/grid/lv_grid.c ****             for(ci = 0; ci < lv_obj_get_child_cnt(cont); ci++) {
 450:Drivers/lvgl/lvgl/src/extra/layouts/grid/lv_grid.c ****                 lv_obj_t * item = lv_obj_get_child(cont, ci);
 451:Drivers/lvgl/lvgl/src/extra/layouts/grid/lv_grid.c ****                 if(lv_obj_has_flag_any(item, LV_OBJ_FLAG_IGNORE_LAYOUT | LV_OBJ_FLAG_HIDDEN | LV_OB
 452:Drivers/lvgl/lvgl/src/extra/layouts/grid/lv_grid.c ****                 uint32_t col_span = get_col_span(item);
 453:Drivers/lvgl/lvgl/src/extra/layouts/grid/lv_grid.c ****                 if(col_span != 1) continue;
 454:Drivers/lvgl/lvgl/src/extra/layouts/grid/lv_grid.c **** 
 455:Drivers/lvgl/lvgl/src/extra/layouts/grid/lv_grid.c ****                 uint32_t col_pos = get_col_pos(item);
 456:Drivers/lvgl/lvgl/src/extra/layouts/grid/lv_grid.c ****                 if(col_pos != i) continue;
 457:Drivers/lvgl/lvgl/src/extra/layouts/grid/lv_grid.c **** 
 458:Drivers/lvgl/lvgl/src/extra/layouts/grid/lv_grid.c ****                 size = LV_MAX(size, lv_obj_get_width(item));
 459:Drivers/lvgl/lvgl/src/extra/layouts/grid/lv_grid.c ****             }
 460:Drivers/lvgl/lvgl/src/extra/layouts/grid/lv_grid.c ****             if(size >= 0) c->w[i] = size;
 461:Drivers/lvgl/lvgl/src/extra/layouts/grid/lv_grid.c ****             else c->w[i] = 0;
 462:Drivers/lvgl/lvgl/src/extra/layouts/grid/lv_grid.c ****         }
 463:Drivers/lvgl/lvgl/src/extra/layouts/grid/lv_grid.c ****     }
 464:Drivers/lvgl/lvgl/src/extra/layouts/grid/lv_grid.c **** 
 465:Drivers/lvgl/lvgl/src/extra/layouts/grid/lv_grid.c ****     uint32_t col_fr_cnt = 0;
 466:Drivers/lvgl/lvgl/src/extra/layouts/grid/lv_grid.c ****     lv_coord_t grid_w = 0;
 467:Drivers/lvgl/lvgl/src/extra/layouts/grid/lv_grid.c **** 
 468:Drivers/lvgl/lvgl/src/extra/layouts/grid/lv_grid.c ****     for(i = 0; i < c->col_num; i++) {
 469:Drivers/lvgl/lvgl/src/extra/layouts/grid/lv_grid.c ****         lv_coord_t x = col_templ[i];
 470:Drivers/lvgl/lvgl/src/extra/layouts/grid/lv_grid.c ****         if(IS_FR(x)) {
 471:Drivers/lvgl/lvgl/src/extra/layouts/grid/lv_grid.c ****             col_fr_cnt += GET_FR(x);
 472:Drivers/lvgl/lvgl/src/extra/layouts/grid/lv_grid.c ****         }
 473:Drivers/lvgl/lvgl/src/extra/layouts/grid/lv_grid.c ****         else if(IS_CONTENT(x)) {
 474:Drivers/lvgl/lvgl/src/extra/layouts/grid/lv_grid.c ****             grid_w += c->w[i];
 475:Drivers/lvgl/lvgl/src/extra/layouts/grid/lv_grid.c ****         }
 476:Drivers/lvgl/lvgl/src/extra/layouts/grid/lv_grid.c ****         else {
 477:Drivers/lvgl/lvgl/src/extra/layouts/grid/lv_grid.c ****             c->w[i] = x;
 478:Drivers/lvgl/lvgl/src/extra/layouts/grid/lv_grid.c ****             grid_w += x;
 479:Drivers/lvgl/lvgl/src/extra/layouts/grid/lv_grid.c ****         }
 480:Drivers/lvgl/lvgl/src/extra/layouts/grid/lv_grid.c ****     }
 481:Drivers/lvgl/lvgl/src/extra/layouts/grid/lv_grid.c **** 
 482:Drivers/lvgl/lvgl/src/extra/layouts/grid/lv_grid.c ****     lv_coord_t col_gap = lv_obj_get_style_pad_column(cont, LV_PART_MAIN);
 483:Drivers/lvgl/lvgl/src/extra/layouts/grid/lv_grid.c ****     cont_w -= col_gap * (c->col_num - 1);
 484:Drivers/lvgl/lvgl/src/extra/layouts/grid/lv_grid.c ****     lv_coord_t free_w = cont_w - grid_w;
 485:Drivers/lvgl/lvgl/src/extra/layouts/grid/lv_grid.c ****     if(free_w < 0) free_w = 0;
 486:Drivers/lvgl/lvgl/src/extra/layouts/grid/lv_grid.c **** 
 487:Drivers/lvgl/lvgl/src/extra/layouts/grid/lv_grid.c ****     int32_t last_fr_i = -1;
 488:Drivers/lvgl/lvgl/src/extra/layouts/grid/lv_grid.c ****     int32_t last_fr_x = 0;
 489:Drivers/lvgl/lvgl/src/extra/layouts/grid/lv_grid.c ****     for(i = 0; i < c->col_num; i++) {
ARM GAS  /tmp/ccFQgg33.s 			page 10


 490:Drivers/lvgl/lvgl/src/extra/layouts/grid/lv_grid.c ****         lv_coord_t x = col_templ[i];
 491:Drivers/lvgl/lvgl/src/extra/layouts/grid/lv_grid.c ****         if(IS_FR(x)) {
 492:Drivers/lvgl/lvgl/src/extra/layouts/grid/lv_grid.c ****             lv_coord_t f = GET_FR(x);
 493:Drivers/lvgl/lvgl/src/extra/layouts/grid/lv_grid.c ****             c->w[i] = (free_w * f) / col_fr_cnt;
 494:Drivers/lvgl/lvgl/src/extra/layouts/grid/lv_grid.c ****             last_fr_i = i;
 495:Drivers/lvgl/lvgl/src/extra/layouts/grid/lv_grid.c ****             last_fr_x = f;
 496:Drivers/lvgl/lvgl/src/extra/layouts/grid/lv_grid.c ****         }
 497:Drivers/lvgl/lvgl/src/extra/layouts/grid/lv_grid.c ****     }
 498:Drivers/lvgl/lvgl/src/extra/layouts/grid/lv_grid.c **** 
 499:Drivers/lvgl/lvgl/src/extra/layouts/grid/lv_grid.c ****     /*To avoid rounding errors set the last FR track to the remaining size */
 500:Drivers/lvgl/lvgl/src/extra/layouts/grid/lv_grid.c ****     if(last_fr_i >= 0) {
 501:Drivers/lvgl/lvgl/src/extra/layouts/grid/lv_grid.c ****         c->w[last_fr_i] = free_w - ((free_w * (col_fr_cnt - last_fr_x)) / col_fr_cnt);
 502:Drivers/lvgl/lvgl/src/extra/layouts/grid/lv_grid.c ****     }
 503:Drivers/lvgl/lvgl/src/extra/layouts/grid/lv_grid.c **** }
 504:Drivers/lvgl/lvgl/src/extra/layouts/grid/lv_grid.c **** 
 505:Drivers/lvgl/lvgl/src/extra/layouts/grid/lv_grid.c **** static void calc_rows(lv_obj_t * cont, _lv_grid_calc_t * c)
 506:Drivers/lvgl/lvgl/src/extra/layouts/grid/lv_grid.c **** {
 507:Drivers/lvgl/lvgl/src/extra/layouts/grid/lv_grid.c ****     uint32_t i;
 508:Drivers/lvgl/lvgl/src/extra/layouts/grid/lv_grid.c ****     const lv_coord_t * row_templ = get_row_dsc(cont);
 509:Drivers/lvgl/lvgl/src/extra/layouts/grid/lv_grid.c ****     c->row_num = count_tracks(row_templ);
 510:Drivers/lvgl/lvgl/src/extra/layouts/grid/lv_grid.c ****     c->y = lv_mem_buf_get(sizeof(lv_coord_t) * c->row_num);
 511:Drivers/lvgl/lvgl/src/extra/layouts/grid/lv_grid.c ****     c->h = lv_mem_buf_get(sizeof(lv_coord_t) * c->row_num);
 512:Drivers/lvgl/lvgl/src/extra/layouts/grid/lv_grid.c ****     /*Set sizes for CONTENT cells*/
 513:Drivers/lvgl/lvgl/src/extra/layouts/grid/lv_grid.c ****     for(i = 0; i < c->row_num; i++) {
 514:Drivers/lvgl/lvgl/src/extra/layouts/grid/lv_grid.c ****         lv_coord_t size = LV_COORD_MIN;
 515:Drivers/lvgl/lvgl/src/extra/layouts/grid/lv_grid.c ****         if(IS_CONTENT(row_templ[i])) {
 516:Drivers/lvgl/lvgl/src/extra/layouts/grid/lv_grid.c ****             /*Check the size of children of this cell*/
 517:Drivers/lvgl/lvgl/src/extra/layouts/grid/lv_grid.c ****             uint32_t ci;
 518:Drivers/lvgl/lvgl/src/extra/layouts/grid/lv_grid.c ****             for(ci = 0; ci < lv_obj_get_child_cnt(cont); ci++) {
 519:Drivers/lvgl/lvgl/src/extra/layouts/grid/lv_grid.c ****                 lv_obj_t * item = lv_obj_get_child(cont, ci);
 520:Drivers/lvgl/lvgl/src/extra/layouts/grid/lv_grid.c ****                 if(lv_obj_has_flag_any(item, LV_OBJ_FLAG_IGNORE_LAYOUT | LV_OBJ_FLAG_HIDDEN | LV_OB
 521:Drivers/lvgl/lvgl/src/extra/layouts/grid/lv_grid.c ****                 uint32_t row_span = get_row_span(item);
 522:Drivers/lvgl/lvgl/src/extra/layouts/grid/lv_grid.c ****                 if(row_span != 1) continue;
 523:Drivers/lvgl/lvgl/src/extra/layouts/grid/lv_grid.c **** 
 524:Drivers/lvgl/lvgl/src/extra/layouts/grid/lv_grid.c ****                 uint32_t row_pos = get_row_pos(item);
 525:Drivers/lvgl/lvgl/src/extra/layouts/grid/lv_grid.c ****                 if(row_pos != i) continue;
 526:Drivers/lvgl/lvgl/src/extra/layouts/grid/lv_grid.c **** 
 527:Drivers/lvgl/lvgl/src/extra/layouts/grid/lv_grid.c ****                 size = LV_MAX(size, lv_obj_get_height(item));
 528:Drivers/lvgl/lvgl/src/extra/layouts/grid/lv_grid.c ****             }
 529:Drivers/lvgl/lvgl/src/extra/layouts/grid/lv_grid.c ****             if(size >= 0) c->h[i] = size;
 530:Drivers/lvgl/lvgl/src/extra/layouts/grid/lv_grid.c ****             else c->h[i] = 0;
 531:Drivers/lvgl/lvgl/src/extra/layouts/grid/lv_grid.c ****         }
 532:Drivers/lvgl/lvgl/src/extra/layouts/grid/lv_grid.c ****     }
 533:Drivers/lvgl/lvgl/src/extra/layouts/grid/lv_grid.c **** 
 534:Drivers/lvgl/lvgl/src/extra/layouts/grid/lv_grid.c ****     uint32_t row_fr_cnt = 0;
 535:Drivers/lvgl/lvgl/src/extra/layouts/grid/lv_grid.c ****     lv_coord_t grid_h = 0;
 536:Drivers/lvgl/lvgl/src/extra/layouts/grid/lv_grid.c **** 
 537:Drivers/lvgl/lvgl/src/extra/layouts/grid/lv_grid.c ****     for(i = 0; i < c->row_num; i++) {
 538:Drivers/lvgl/lvgl/src/extra/layouts/grid/lv_grid.c ****         lv_coord_t x = row_templ[i];
 539:Drivers/lvgl/lvgl/src/extra/layouts/grid/lv_grid.c ****         if(IS_FR(x)) {
 540:Drivers/lvgl/lvgl/src/extra/layouts/grid/lv_grid.c ****             row_fr_cnt += GET_FR(x);
 541:Drivers/lvgl/lvgl/src/extra/layouts/grid/lv_grid.c ****         }
 542:Drivers/lvgl/lvgl/src/extra/layouts/grid/lv_grid.c ****         else if(IS_CONTENT(x)) {
 543:Drivers/lvgl/lvgl/src/extra/layouts/grid/lv_grid.c ****             grid_h += c->h[i];
 544:Drivers/lvgl/lvgl/src/extra/layouts/grid/lv_grid.c ****         }
 545:Drivers/lvgl/lvgl/src/extra/layouts/grid/lv_grid.c ****         else {
 546:Drivers/lvgl/lvgl/src/extra/layouts/grid/lv_grid.c ****             c->h[i] = x;
ARM GAS  /tmp/ccFQgg33.s 			page 11


 547:Drivers/lvgl/lvgl/src/extra/layouts/grid/lv_grid.c ****             grid_h += x;
 548:Drivers/lvgl/lvgl/src/extra/layouts/grid/lv_grid.c ****         }
 549:Drivers/lvgl/lvgl/src/extra/layouts/grid/lv_grid.c ****     }
 550:Drivers/lvgl/lvgl/src/extra/layouts/grid/lv_grid.c **** 
 551:Drivers/lvgl/lvgl/src/extra/layouts/grid/lv_grid.c **** 
 552:Drivers/lvgl/lvgl/src/extra/layouts/grid/lv_grid.c ****     lv_coord_t row_gap = lv_obj_get_style_pad_row(cont, LV_PART_MAIN);
 553:Drivers/lvgl/lvgl/src/extra/layouts/grid/lv_grid.c ****     lv_coord_t cont_h = lv_obj_get_content_height(cont) - row_gap * (c->row_num - 1);
 554:Drivers/lvgl/lvgl/src/extra/layouts/grid/lv_grid.c ****     lv_coord_t free_h = cont_h - grid_h;
 555:Drivers/lvgl/lvgl/src/extra/layouts/grid/lv_grid.c ****     if(free_h < 0) free_h = 0;
 556:Drivers/lvgl/lvgl/src/extra/layouts/grid/lv_grid.c **** 
 557:Drivers/lvgl/lvgl/src/extra/layouts/grid/lv_grid.c ****     int32_t last_fr_i = -1;
 558:Drivers/lvgl/lvgl/src/extra/layouts/grid/lv_grid.c ****     int32_t last_fr_x = 0;
 559:Drivers/lvgl/lvgl/src/extra/layouts/grid/lv_grid.c ****     for(i = 0; i < c->row_num; i++) {
 560:Drivers/lvgl/lvgl/src/extra/layouts/grid/lv_grid.c ****         lv_coord_t x = row_templ[i];
 561:Drivers/lvgl/lvgl/src/extra/layouts/grid/lv_grid.c ****         if(IS_FR(x)) {
 562:Drivers/lvgl/lvgl/src/extra/layouts/grid/lv_grid.c ****             lv_coord_t f = GET_FR(x);
 563:Drivers/lvgl/lvgl/src/extra/layouts/grid/lv_grid.c ****             c->h[i] = (free_h * f) / row_fr_cnt;
 564:Drivers/lvgl/lvgl/src/extra/layouts/grid/lv_grid.c ****             last_fr_i = i;
 565:Drivers/lvgl/lvgl/src/extra/layouts/grid/lv_grid.c ****             last_fr_x = f;
 566:Drivers/lvgl/lvgl/src/extra/layouts/grid/lv_grid.c ****         }
 567:Drivers/lvgl/lvgl/src/extra/layouts/grid/lv_grid.c ****     }
 568:Drivers/lvgl/lvgl/src/extra/layouts/grid/lv_grid.c **** 
 569:Drivers/lvgl/lvgl/src/extra/layouts/grid/lv_grid.c ****     /*To avoid rounding errors set the last FR track to the remaining size */
 570:Drivers/lvgl/lvgl/src/extra/layouts/grid/lv_grid.c ****     if(last_fr_i >= 0) {
 571:Drivers/lvgl/lvgl/src/extra/layouts/grid/lv_grid.c ****         c->h[last_fr_i] = free_h - ((free_h * (row_fr_cnt - last_fr_x)) / row_fr_cnt);
 572:Drivers/lvgl/lvgl/src/extra/layouts/grid/lv_grid.c ****     }
 573:Drivers/lvgl/lvgl/src/extra/layouts/grid/lv_grid.c **** }
 574:Drivers/lvgl/lvgl/src/extra/layouts/grid/lv_grid.c **** 
 575:Drivers/lvgl/lvgl/src/extra/layouts/grid/lv_grid.c **** /**
 576:Drivers/lvgl/lvgl/src/extra/layouts/grid/lv_grid.c ****  * Reposition a grid item in its cell
 577:Drivers/lvgl/lvgl/src/extra/layouts/grid/lv_grid.c ****  * @param item a grid item to reposition
 578:Drivers/lvgl/lvgl/src/extra/layouts/grid/lv_grid.c ****  * @param calc the calculated grid of `cont`
 579:Drivers/lvgl/lvgl/src/extra/layouts/grid/lv_grid.c ****  * @param child_id_ext helper value if the ID of the child is know (order from the oldest) else -1
 580:Drivers/lvgl/lvgl/src/extra/layouts/grid/lv_grid.c ****  * @param grid_abs helper value, the absolute position of the grid, NULL if unknown
 581:Drivers/lvgl/lvgl/src/extra/layouts/grid/lv_grid.c ****  */
 582:Drivers/lvgl/lvgl/src/extra/layouts/grid/lv_grid.c **** static void item_repos(lv_obj_t * item, _lv_grid_calc_t * c, item_repos_hint_t * hint)
 583:Drivers/lvgl/lvgl/src/extra/layouts/grid/lv_grid.c **** {
 584:Drivers/lvgl/lvgl/src/extra/layouts/grid/lv_grid.c ****     if(lv_obj_has_flag_any(item, LV_OBJ_FLAG_IGNORE_LAYOUT | LV_OBJ_FLAG_HIDDEN | LV_OBJ_FLAG_FLOAT
 585:Drivers/lvgl/lvgl/src/extra/layouts/grid/lv_grid.c ****     uint32_t col_span = get_col_span(item);
 586:Drivers/lvgl/lvgl/src/extra/layouts/grid/lv_grid.c ****     uint32_t row_span = get_row_span(item);
 587:Drivers/lvgl/lvgl/src/extra/layouts/grid/lv_grid.c ****     if(row_span == 0 || col_span == 0) return;
 588:Drivers/lvgl/lvgl/src/extra/layouts/grid/lv_grid.c **** 
 589:Drivers/lvgl/lvgl/src/extra/layouts/grid/lv_grid.c ****     uint32_t col_pos = get_col_pos(item);
 590:Drivers/lvgl/lvgl/src/extra/layouts/grid/lv_grid.c ****     uint32_t row_pos = get_row_pos(item);
 591:Drivers/lvgl/lvgl/src/extra/layouts/grid/lv_grid.c ****     lv_grid_align_t col_align = get_cell_col_align(item);
 592:Drivers/lvgl/lvgl/src/extra/layouts/grid/lv_grid.c ****     lv_grid_align_t row_align = get_cell_row_align(item);
 593:Drivers/lvgl/lvgl/src/extra/layouts/grid/lv_grid.c **** 
 594:Drivers/lvgl/lvgl/src/extra/layouts/grid/lv_grid.c **** 
 595:Drivers/lvgl/lvgl/src/extra/layouts/grid/lv_grid.c ****     lv_coord_t col_x1 = c->x[col_pos];
 596:Drivers/lvgl/lvgl/src/extra/layouts/grid/lv_grid.c ****     lv_coord_t col_x2 = c->x[col_pos + col_span - 1] + c->w[col_pos + col_span - 1];
 597:Drivers/lvgl/lvgl/src/extra/layouts/grid/lv_grid.c ****     lv_coord_t col_w = col_x2 - col_x1;
 598:Drivers/lvgl/lvgl/src/extra/layouts/grid/lv_grid.c **** 
 599:Drivers/lvgl/lvgl/src/extra/layouts/grid/lv_grid.c ****     lv_coord_t row_y1 = c->y[row_pos];
 600:Drivers/lvgl/lvgl/src/extra/layouts/grid/lv_grid.c ****     lv_coord_t row_y2 = c->y[row_pos + row_span - 1] + c->h[row_pos + row_span - 1];
 601:Drivers/lvgl/lvgl/src/extra/layouts/grid/lv_grid.c ****     lv_coord_t row_h = row_y2 - row_y1;
 602:Drivers/lvgl/lvgl/src/extra/layouts/grid/lv_grid.c **** 
 603:Drivers/lvgl/lvgl/src/extra/layouts/grid/lv_grid.c **** 
ARM GAS  /tmp/ccFQgg33.s 			page 12


 604:Drivers/lvgl/lvgl/src/extra/layouts/grid/lv_grid.c ****     /*If the item has RTL base dir switch start and end*/
 605:Drivers/lvgl/lvgl/src/extra/layouts/grid/lv_grid.c ****     if(lv_obj_get_style_base_dir(item, LV_PART_MAIN) == LV_BASE_DIR_RTL) {
 606:Drivers/lvgl/lvgl/src/extra/layouts/grid/lv_grid.c ****         if(col_align == LV_GRID_ALIGN_START) col_align = LV_GRID_ALIGN_END;
 607:Drivers/lvgl/lvgl/src/extra/layouts/grid/lv_grid.c ****         else if(col_align == LV_GRID_ALIGN_END) col_align = LV_GRID_ALIGN_START;
 608:Drivers/lvgl/lvgl/src/extra/layouts/grid/lv_grid.c ****     }
 609:Drivers/lvgl/lvgl/src/extra/layouts/grid/lv_grid.c **** 
 610:Drivers/lvgl/lvgl/src/extra/layouts/grid/lv_grid.c ****     lv_coord_t x;
 611:Drivers/lvgl/lvgl/src/extra/layouts/grid/lv_grid.c ****     lv_coord_t y;
 612:Drivers/lvgl/lvgl/src/extra/layouts/grid/lv_grid.c ****     lv_coord_t item_w = lv_area_get_width(&item->coords);
 613:Drivers/lvgl/lvgl/src/extra/layouts/grid/lv_grid.c ****     lv_coord_t item_h = lv_area_get_height(&item->coords);
 614:Drivers/lvgl/lvgl/src/extra/layouts/grid/lv_grid.c **** 
 615:Drivers/lvgl/lvgl/src/extra/layouts/grid/lv_grid.c ****     switch(col_align) {
 616:Drivers/lvgl/lvgl/src/extra/layouts/grid/lv_grid.c ****         default:
 617:Drivers/lvgl/lvgl/src/extra/layouts/grid/lv_grid.c ****         case LV_GRID_ALIGN_START:
 618:Drivers/lvgl/lvgl/src/extra/layouts/grid/lv_grid.c ****             x = c->x[col_pos];
 619:Drivers/lvgl/lvgl/src/extra/layouts/grid/lv_grid.c ****             item->w_layout = 0;
 620:Drivers/lvgl/lvgl/src/extra/layouts/grid/lv_grid.c ****             break;
 621:Drivers/lvgl/lvgl/src/extra/layouts/grid/lv_grid.c ****         case LV_GRID_ALIGN_STRETCH:
 622:Drivers/lvgl/lvgl/src/extra/layouts/grid/lv_grid.c ****             x = c->x[col_pos];
 623:Drivers/lvgl/lvgl/src/extra/layouts/grid/lv_grid.c ****             item_w = col_w;
 624:Drivers/lvgl/lvgl/src/extra/layouts/grid/lv_grid.c ****             item->w_layout = 1;
 625:Drivers/lvgl/lvgl/src/extra/layouts/grid/lv_grid.c ****             break;
 626:Drivers/lvgl/lvgl/src/extra/layouts/grid/lv_grid.c ****         case LV_GRID_ALIGN_CENTER:
 627:Drivers/lvgl/lvgl/src/extra/layouts/grid/lv_grid.c ****             x = c->x[col_pos] + (col_w - item_w) / 2;
 628:Drivers/lvgl/lvgl/src/extra/layouts/grid/lv_grid.c ****             item->w_layout = 0;
 629:Drivers/lvgl/lvgl/src/extra/layouts/grid/lv_grid.c ****             break;
 630:Drivers/lvgl/lvgl/src/extra/layouts/grid/lv_grid.c ****         case LV_GRID_ALIGN_END:
 631:Drivers/lvgl/lvgl/src/extra/layouts/grid/lv_grid.c ****             x = c->x[col_pos] + col_w - lv_obj_get_width(item);
 632:Drivers/lvgl/lvgl/src/extra/layouts/grid/lv_grid.c ****             item->w_layout = 0;
 633:Drivers/lvgl/lvgl/src/extra/layouts/grid/lv_grid.c ****             break;
 634:Drivers/lvgl/lvgl/src/extra/layouts/grid/lv_grid.c ****     }
 635:Drivers/lvgl/lvgl/src/extra/layouts/grid/lv_grid.c **** 
 636:Drivers/lvgl/lvgl/src/extra/layouts/grid/lv_grid.c ****     switch(row_align) {
 637:Drivers/lvgl/lvgl/src/extra/layouts/grid/lv_grid.c ****         default:
 638:Drivers/lvgl/lvgl/src/extra/layouts/grid/lv_grid.c ****         case LV_GRID_ALIGN_START:
 639:Drivers/lvgl/lvgl/src/extra/layouts/grid/lv_grid.c ****             y = c->y[row_pos];
 640:Drivers/lvgl/lvgl/src/extra/layouts/grid/lv_grid.c ****             item->h_layout = 0;
 641:Drivers/lvgl/lvgl/src/extra/layouts/grid/lv_grid.c ****             break;
 642:Drivers/lvgl/lvgl/src/extra/layouts/grid/lv_grid.c ****         case LV_GRID_ALIGN_STRETCH:
 643:Drivers/lvgl/lvgl/src/extra/layouts/grid/lv_grid.c ****             y = c->y[row_pos];
 644:Drivers/lvgl/lvgl/src/extra/layouts/grid/lv_grid.c ****             item_h = row_h;
 645:Drivers/lvgl/lvgl/src/extra/layouts/grid/lv_grid.c ****             item->h_layout = 1;
 646:Drivers/lvgl/lvgl/src/extra/layouts/grid/lv_grid.c ****             break;
 647:Drivers/lvgl/lvgl/src/extra/layouts/grid/lv_grid.c ****         case LV_GRID_ALIGN_CENTER:
 648:Drivers/lvgl/lvgl/src/extra/layouts/grid/lv_grid.c ****             y = c->y[row_pos] + (row_h - item_h) / 2;
 649:Drivers/lvgl/lvgl/src/extra/layouts/grid/lv_grid.c ****             item->h_layout = 0;
 650:Drivers/lvgl/lvgl/src/extra/layouts/grid/lv_grid.c ****             break;
 651:Drivers/lvgl/lvgl/src/extra/layouts/grid/lv_grid.c ****         case LV_GRID_ALIGN_END:
 652:Drivers/lvgl/lvgl/src/extra/layouts/grid/lv_grid.c ****             y = c->y[row_pos] + row_h - lv_obj_get_height(item);
 653:Drivers/lvgl/lvgl/src/extra/layouts/grid/lv_grid.c ****             item->h_layout = 0;
 654:Drivers/lvgl/lvgl/src/extra/layouts/grid/lv_grid.c ****             break;
 655:Drivers/lvgl/lvgl/src/extra/layouts/grid/lv_grid.c ****     }
 656:Drivers/lvgl/lvgl/src/extra/layouts/grid/lv_grid.c **** 
 657:Drivers/lvgl/lvgl/src/extra/layouts/grid/lv_grid.c ****     /*Set a new size if required*/
 658:Drivers/lvgl/lvgl/src/extra/layouts/grid/lv_grid.c ****     if(lv_obj_get_width(item) != item_w || lv_obj_get_height(item) != item_h) {
 659:Drivers/lvgl/lvgl/src/extra/layouts/grid/lv_grid.c ****         lv_area_t old_coords;
 660:Drivers/lvgl/lvgl/src/extra/layouts/grid/lv_grid.c ****         lv_area_copy(&old_coords, &item->coords);
ARM GAS  /tmp/ccFQgg33.s 			page 13


 661:Drivers/lvgl/lvgl/src/extra/layouts/grid/lv_grid.c ****         lv_obj_invalidate(item);
 662:Drivers/lvgl/lvgl/src/extra/layouts/grid/lv_grid.c ****         lv_area_set_width(&item->coords, item_w);
 663:Drivers/lvgl/lvgl/src/extra/layouts/grid/lv_grid.c ****         lv_area_set_height(&item->coords, item_h);
 664:Drivers/lvgl/lvgl/src/extra/layouts/grid/lv_grid.c ****         lv_obj_invalidate(item);
 665:Drivers/lvgl/lvgl/src/extra/layouts/grid/lv_grid.c ****         lv_event_send(item, LV_EVENT_SIZE_CHANGED, &old_coords);
 666:Drivers/lvgl/lvgl/src/extra/layouts/grid/lv_grid.c ****         lv_event_send(lv_obj_get_parent(item), LV_EVENT_CHILD_CHANGED, item);
 667:Drivers/lvgl/lvgl/src/extra/layouts/grid/lv_grid.c **** 
 668:Drivers/lvgl/lvgl/src/extra/layouts/grid/lv_grid.c ****     }
 669:Drivers/lvgl/lvgl/src/extra/layouts/grid/lv_grid.c **** 
 670:Drivers/lvgl/lvgl/src/extra/layouts/grid/lv_grid.c ****     /*Handle percentage value of translate*/
 671:Drivers/lvgl/lvgl/src/extra/layouts/grid/lv_grid.c ****     lv_coord_t tr_x = lv_obj_get_style_translate_x(item, LV_PART_MAIN);
 672:Drivers/lvgl/lvgl/src/extra/layouts/grid/lv_grid.c ****     lv_coord_t tr_y = lv_obj_get_style_translate_y(item, LV_PART_MAIN);
 673:Drivers/lvgl/lvgl/src/extra/layouts/grid/lv_grid.c ****     lv_coord_t w = lv_obj_get_width(item);
 674:Drivers/lvgl/lvgl/src/extra/layouts/grid/lv_grid.c ****     lv_coord_t h = lv_obj_get_height(item);
 675:Drivers/lvgl/lvgl/src/extra/layouts/grid/lv_grid.c ****     if(LV_COORD_IS_PCT(tr_x)) tr_x = (w * LV_COORD_GET_PCT(tr_x)) / 100;
 676:Drivers/lvgl/lvgl/src/extra/layouts/grid/lv_grid.c ****     if(LV_COORD_IS_PCT(tr_y)) tr_y = (h * LV_COORD_GET_PCT(tr_y)) / 100;
 677:Drivers/lvgl/lvgl/src/extra/layouts/grid/lv_grid.c **** 
 678:Drivers/lvgl/lvgl/src/extra/layouts/grid/lv_grid.c ****     x += tr_x;
 679:Drivers/lvgl/lvgl/src/extra/layouts/grid/lv_grid.c ****     y += tr_y;
 680:Drivers/lvgl/lvgl/src/extra/layouts/grid/lv_grid.c **** 
 681:Drivers/lvgl/lvgl/src/extra/layouts/grid/lv_grid.c ****     lv_coord_t diff_x = hint->grid_abs.x + x - item->coords.x1;
 682:Drivers/lvgl/lvgl/src/extra/layouts/grid/lv_grid.c ****     lv_coord_t diff_y = hint->grid_abs.y + y - item->coords.y1;
 683:Drivers/lvgl/lvgl/src/extra/layouts/grid/lv_grid.c ****     if(diff_x || diff_y) {
 684:Drivers/lvgl/lvgl/src/extra/layouts/grid/lv_grid.c ****         lv_obj_invalidate(item);
 685:Drivers/lvgl/lvgl/src/extra/layouts/grid/lv_grid.c ****         item->coords.x1 += diff_x;
 686:Drivers/lvgl/lvgl/src/extra/layouts/grid/lv_grid.c ****         item->coords.x2 += diff_x;
 687:Drivers/lvgl/lvgl/src/extra/layouts/grid/lv_grid.c ****         item->coords.y1 += diff_y;
 688:Drivers/lvgl/lvgl/src/extra/layouts/grid/lv_grid.c ****         item->coords.y2 += diff_y;
 689:Drivers/lvgl/lvgl/src/extra/layouts/grid/lv_grid.c ****         lv_obj_invalidate(item);
 690:Drivers/lvgl/lvgl/src/extra/layouts/grid/lv_grid.c ****         lv_obj_move_children_by(item, diff_x, diff_y, false);
 691:Drivers/lvgl/lvgl/src/extra/layouts/grid/lv_grid.c ****     }
 692:Drivers/lvgl/lvgl/src/extra/layouts/grid/lv_grid.c **** }
 693:Drivers/lvgl/lvgl/src/extra/layouts/grid/lv_grid.c **** 
 694:Drivers/lvgl/lvgl/src/extra/layouts/grid/lv_grid.c **** /**
 695:Drivers/lvgl/lvgl/src/extra/layouts/grid/lv_grid.c ****  * Place the grid track according to align methods. It keeps the track sizes but sets their positio
 696:Drivers/lvgl/lvgl/src/extra/layouts/grid/lv_grid.c ****  * It can process both columns or rows according to the passed parameters.
 697:Drivers/lvgl/lvgl/src/extra/layouts/grid/lv_grid.c ****  * @param cont_size size of the containers content area (width/height)
 698:Drivers/lvgl/lvgl/src/extra/layouts/grid/lv_grid.c ****  * @param auto_size true: the container has auto size in the current direction
 699:Drivers/lvgl/lvgl/src/extra/layouts/grid/lv_grid.c ****  * @param align align method
 700:Drivers/lvgl/lvgl/src/extra/layouts/grid/lv_grid.c ****  * @param gap grid gap
 701:Drivers/lvgl/lvgl/src/extra/layouts/grid/lv_grid.c ****  * @param track_num number of tracks
 702:Drivers/lvgl/lvgl/src/extra/layouts/grid/lv_grid.c ****  * @param size_array array with the track sizes
 703:Drivers/lvgl/lvgl/src/extra/layouts/grid/lv_grid.c ****  * @param pos_array write the positions of the tracks here
 704:Drivers/lvgl/lvgl/src/extra/layouts/grid/lv_grid.c ****  * @return the total size of the grid
 705:Drivers/lvgl/lvgl/src/extra/layouts/grid/lv_grid.c ****  */
 706:Drivers/lvgl/lvgl/src/extra/layouts/grid/lv_grid.c **** static lv_coord_t grid_align(lv_coord_t cont_size,  bool auto_size, uint8_t align, lv_coord_t gap, 
 707:Drivers/lvgl/lvgl/src/extra/layouts/grid/lv_grid.c ****                              lv_coord_t * size_array, lv_coord_t * pos_array, bool reverse)
 708:Drivers/lvgl/lvgl/src/extra/layouts/grid/lv_grid.c **** {
  26              		.loc 1 708 0
  27              		.cfi_startproc
  28              		@ args = 16, pretend = 0, frame = 0
  29              		@ frame_needed = 0, uses_anonymous_args = 0
  30              	.LVL0:
  31 0000 F0B5     		push	{r4, r5, r6, r7, lr}
  32              	.LCFI0:
  33              		.cfi_def_cfa_offset 20
  34              		.cfi_offset 4, -20
ARM GAS  /tmp/ccFQgg33.s 			page 14


  35              		.cfi_offset 5, -16
  36              		.cfi_offset 6, -12
  37              		.cfi_offset 7, -8
  38              		.cfi_offset 14, -4
  39 0002 0546     		mov	r5, r0
  40 0004 059E     		ldr	r6, [sp, #20]
  41 0006 069F     		ldr	r7, [sp, #24]
  42 0008 079C     		ldr	r4, [sp, #28]
  43 000a 9DF820C0 		ldrb	ip, [sp, #32]	@ zero_extendqisi2
  44              	.LVL1:
 709:Drivers/lvgl/lvgl/src/extra/layouts/grid/lv_grid.c ****     lv_coord_t grid_size = 0;
 710:Drivers/lvgl/lvgl/src/extra/layouts/grid/lv_grid.c ****     uint32_t i;
 711:Drivers/lvgl/lvgl/src/extra/layouts/grid/lv_grid.c **** 
 712:Drivers/lvgl/lvgl/src/extra/layouts/grid/lv_grid.c ****     if(auto_size) {
  45              		.loc 1 712 0
  46 000e 19B1     		cbz	r1, .L2
 713:Drivers/lvgl/lvgl/src/extra/layouts/grid/lv_grid.c ****         pos_array[0] = 0;
  47              		.loc 1 713 0
  48 0010 0022     		movs	r2, #0
  49              	.LVL2:
  50 0012 2280     		strh	r2, [r4]	@ movhi
  51              	.LVL3:
  52              	.L3:
 714:Drivers/lvgl/lvgl/src/extra/layouts/grid/lv_grid.c ****     }
 715:Drivers/lvgl/lvgl/src/extra/layouts/grid/lv_grid.c ****     else {
 716:Drivers/lvgl/lvgl/src/extra/layouts/grid/lv_grid.c ****         /*With spaced alignment gap will be calculated from the remaining space*/
 717:Drivers/lvgl/lvgl/src/extra/layouts/grid/lv_grid.c ****         if(align == LV_GRID_ALIGN_SPACE_AROUND || align == LV_GRID_ALIGN_SPACE_BETWEEN || align == 
 718:Drivers/lvgl/lvgl/src/extra/layouts/grid/lv_grid.c ****             gap = 0;
 719:Drivers/lvgl/lvgl/src/extra/layouts/grid/lv_grid.c ****             if(track_num == 1) align = LV_GRID_ALIGN_CENTER;
 720:Drivers/lvgl/lvgl/src/extra/layouts/grid/lv_grid.c ****         }
 721:Drivers/lvgl/lvgl/src/extra/layouts/grid/lv_grid.c **** 
 722:Drivers/lvgl/lvgl/src/extra/layouts/grid/lv_grid.c ****         /*Get the full grid size with gap*/
 723:Drivers/lvgl/lvgl/src/extra/layouts/grid/lv_grid.c ****         for(i = 0; i < track_num; i++) {
 724:Drivers/lvgl/lvgl/src/extra/layouts/grid/lv_grid.c ****             grid_size += size_array[i] + gap;
 725:Drivers/lvgl/lvgl/src/extra/layouts/grid/lv_grid.c ****         }
 726:Drivers/lvgl/lvgl/src/extra/layouts/grid/lv_grid.c ****         grid_size -= gap;
 727:Drivers/lvgl/lvgl/src/extra/layouts/grid/lv_grid.c **** 
 728:Drivers/lvgl/lvgl/src/extra/layouts/grid/lv_grid.c ****         /*Calculate the position of the first item and set gap is necessary*/
 729:Drivers/lvgl/lvgl/src/extra/layouts/grid/lv_grid.c ****         switch(align) {
 730:Drivers/lvgl/lvgl/src/extra/layouts/grid/lv_grid.c ****             case LV_GRID_ALIGN_START:
 731:Drivers/lvgl/lvgl/src/extra/layouts/grid/lv_grid.c ****                 pos_array[0] = 0;
 732:Drivers/lvgl/lvgl/src/extra/layouts/grid/lv_grid.c ****                 break;
 733:Drivers/lvgl/lvgl/src/extra/layouts/grid/lv_grid.c ****             case LV_GRID_ALIGN_CENTER:
 734:Drivers/lvgl/lvgl/src/extra/layouts/grid/lv_grid.c ****                 pos_array[0] = (cont_size - grid_size) / 2;
 735:Drivers/lvgl/lvgl/src/extra/layouts/grid/lv_grid.c ****                 break;
 736:Drivers/lvgl/lvgl/src/extra/layouts/grid/lv_grid.c ****             case LV_GRID_ALIGN_END:
 737:Drivers/lvgl/lvgl/src/extra/layouts/grid/lv_grid.c ****                 pos_array[0] = cont_size - grid_size;
 738:Drivers/lvgl/lvgl/src/extra/layouts/grid/lv_grid.c ****                 break;
 739:Drivers/lvgl/lvgl/src/extra/layouts/grid/lv_grid.c ****             case LV_GRID_ALIGN_SPACE_BETWEEN:
 740:Drivers/lvgl/lvgl/src/extra/layouts/grid/lv_grid.c ****                 pos_array[0] = 0;
 741:Drivers/lvgl/lvgl/src/extra/layouts/grid/lv_grid.c ****                 gap = (lv_coord_t)(cont_size - grid_size) / (lv_coord_t)(track_num - 1);
 742:Drivers/lvgl/lvgl/src/extra/layouts/grid/lv_grid.c ****                 break;
 743:Drivers/lvgl/lvgl/src/extra/layouts/grid/lv_grid.c ****             case LV_GRID_ALIGN_SPACE_AROUND:
 744:Drivers/lvgl/lvgl/src/extra/layouts/grid/lv_grid.c ****                 gap = (lv_coord_t)(cont_size - grid_size) / (lv_coord_t)(track_num);
 745:Drivers/lvgl/lvgl/src/extra/layouts/grid/lv_grid.c ****                 pos_array[0] = gap / 2;
 746:Drivers/lvgl/lvgl/src/extra/layouts/grid/lv_grid.c ****                 break;
 747:Drivers/lvgl/lvgl/src/extra/layouts/grid/lv_grid.c ****             case LV_GRID_ALIGN_SPACE_EVENLY:
ARM GAS  /tmp/ccFQgg33.s 			page 15


 748:Drivers/lvgl/lvgl/src/extra/layouts/grid/lv_grid.c ****                 gap = (lv_coord_t)(cont_size - grid_size) / (lv_coord_t)(track_num + 1);
 749:Drivers/lvgl/lvgl/src/extra/layouts/grid/lv_grid.c ****                 pos_array[0] = gap;
 750:Drivers/lvgl/lvgl/src/extra/layouts/grid/lv_grid.c ****                 break;
 751:Drivers/lvgl/lvgl/src/extra/layouts/grid/lv_grid.c **** 
 752:Drivers/lvgl/lvgl/src/extra/layouts/grid/lv_grid.c ****         }
 753:Drivers/lvgl/lvgl/src/extra/layouts/grid/lv_grid.c ****     }
 754:Drivers/lvgl/lvgl/src/extra/layouts/grid/lv_grid.c **** 
 755:Drivers/lvgl/lvgl/src/extra/layouts/grid/lv_grid.c ****     /*Set the position of all tracks from the start position, gaps and track sizes*/
 756:Drivers/lvgl/lvgl/src/extra/layouts/grid/lv_grid.c ****     for(i = 0; i < track_num - 1; i++) {
  53              		.loc 1 756 0
  54 0014 0022     		movs	r2, #0
  55 0016 65E0     		b	.L16
  56              	.LVL4:
  57              	.L2:
 717:Drivers/lvgl/lvgl/src/extra/layouts/grid/lv_grid.c ****             gap = 0;
  58              		.loc 1 717 0
  59 0018 111F     		subs	r1, r2, #4
  60              	.LVL5:
  61 001a C9B2     		uxtb	r1, r1
  62 001c 0229     		cmp	r1, #2
  63 001e 02D8     		bhi	.L4
  64              	.LVL6:
 719:Drivers/lvgl/lvgl/src/extra/layouts/grid/lv_grid.c ****         }
  65              		.loc 1 719 0
  66 0020 012E     		cmp	r6, #1
  67 0022 03D0     		beq	.L21
 718:Drivers/lvgl/lvgl/src/extra/layouts/grid/lv_grid.c ****             if(track_num == 1) align = LV_GRID_ALIGN_CENTER;
  68              		.loc 1 718 0
  69 0024 0023     		movs	r3, #0
  70              	.LVL7:
  71              	.L4:
 723:Drivers/lvgl/lvgl/src/extra/layouts/grid/lv_grid.c ****             grid_size += size_array[i] + gap;
  72              		.loc 1 723 0
  73 0026 0020     		movs	r0, #0
  74              	.LVL8:
 709:Drivers/lvgl/lvgl/src/extra/layouts/grid/lv_grid.c ****     uint32_t i;
  75              		.loc 1 709 0
  76 0028 0146     		mov	r1, r0
 723:Drivers/lvgl/lvgl/src/extra/layouts/grid/lv_grid.c ****             grid_size += size_array[i] + gap;
  77              		.loc 1 723 0
  78 002a 09E0     		b	.L5
  79              	.LVL9:
  80              	.L21:
 718:Drivers/lvgl/lvgl/src/extra/layouts/grid/lv_grid.c ****             if(track_num == 1) align = LV_GRID_ALIGN_CENTER;
  81              		.loc 1 718 0
  82 002c 0023     		movs	r3, #0
 719:Drivers/lvgl/lvgl/src/extra/layouts/grid/lv_grid.c ****         }
  83              		.loc 1 719 0
  84 002e 0122     		movs	r2, #1
  85              	.LVL10:
  86 0030 F9E7     		b	.L4
  87              	.LVL11:
  88              	.L6:
 724:Drivers/lvgl/lvgl/src/extra/layouts/grid/lv_grid.c ****         }
  89              		.loc 1 724 0 discriminator 3
  90 0032 37F810E0 		ldrh	lr, [r7, r0, lsl #1]
  91 0036 9E44     		add	lr, lr, r3
ARM GAS  /tmp/ccFQgg33.s 			page 16


  92 0038 11FA8EF1 		uxtah	r1, r1, lr
  93              	.LVL12:
  94 003c 09B2     		sxth	r1, r1
  95              	.LVL13:
 723:Drivers/lvgl/lvgl/src/extra/layouts/grid/lv_grid.c ****             grid_size += size_array[i] + gap;
  96              		.loc 1 723 0 discriminator 3
  97 003e 0130     		adds	r0, r0, #1
  98              	.LVL14:
  99              	.L5:
 723:Drivers/lvgl/lvgl/src/extra/layouts/grid/lv_grid.c ****             grid_size += size_array[i] + gap;
 100              		.loc 1 723 0 is_stmt 0 discriminator 1
 101 0040 B042     		cmp	r0, r6
 102 0042 F6D3     		bcc	.L6
 726:Drivers/lvgl/lvgl/src/extra/layouts/grid/lv_grid.c **** 
 103              		.loc 1 726 0 is_stmt 1
 104 0044 C91A     		subs	r1, r1, r3
 105              	.LVL15:
 106 0046 89B2     		uxth	r1, r1
 107 0048 08B2     		sxth	r0, r1
 108              	.LVL16:
 729:Drivers/lvgl/lvgl/src/extra/layouts/grid/lv_grid.c ****             case LV_GRID_ALIGN_START:
 109              		.loc 1 729 0
 110 004a 062A     		cmp	r2, #6
 111 004c E2D8     		bhi	.L3
 112 004e 0FF2080E 		adr	lr, .L8
 113 0052 5EF822F0 		ldr	pc, [lr, r2, lsl #2]
 114 0056 00BF     		.p2align 2
 115              	.L8:
 116 0058 75000000 		.word	.L7+1
 117 005c 7B000000 		.word	.L9+1
 118 0060 89000000 		.word	.L10+1
 119 0064 15000000 		.word	.L3+1
 120 0068 BF000000 		.word	.L11+1
 121 006c A3000000 		.word	.L12+1
 122 0070 8F000000 		.word	.L13+1
 123              		.p2align 1
 124              	.L7:
 731:Drivers/lvgl/lvgl/src/extra/layouts/grid/lv_grid.c ****                 break;
 125              		.loc 1 731 0
 126 0074 0022     		movs	r2, #0
 127              	.LVL17:
 128 0076 2280     		strh	r2, [r4]	@ movhi
 732:Drivers/lvgl/lvgl/src/extra/layouts/grid/lv_grid.c ****             case LV_GRID_ALIGN_CENTER:
 129              		.loc 1 732 0
 130 0078 CCE7     		b	.L3
 131              	.LVL18:
 132              	.L9:
 734:Drivers/lvgl/lvgl/src/extra/layouts/grid/lv_grid.c ****                 break;
 133              		.loc 1 734 0
 134 007a 281A     		subs	r0, r5, r0
 135              	.LVL19:
 136 007c 02D4     		bmi	.L24
 137              	.L14:
 138 007e 4010     		asrs	r0, r0, #1
 139 0080 2080     		strh	r0, [r4]	@ movhi
 735:Drivers/lvgl/lvgl/src/extra/layouts/grid/lv_grid.c ****             case LV_GRID_ALIGN_END:
 140              		.loc 1 735 0
ARM GAS  /tmp/ccFQgg33.s 			page 17


 141 0082 C7E7     		b	.L3
 142              	.L24:
 734:Drivers/lvgl/lvgl/src/extra/layouts/grid/lv_grid.c ****                 break;
 143              		.loc 1 734 0
 144 0084 0130     		adds	r0, r0, #1
 145 0086 FAE7     		b	.L14
 146              	.LVL20:
 147              	.L10:
 737:Drivers/lvgl/lvgl/src/extra/layouts/grid/lv_grid.c ****                 break;
 148              		.loc 1 737 0
 149 0088 691A     		subs	r1, r5, r1
 150 008a 2180     		strh	r1, [r4]	@ movhi
 738:Drivers/lvgl/lvgl/src/extra/layouts/grid/lv_grid.c ****             case LV_GRID_ALIGN_SPACE_BETWEEN:
 151              		.loc 1 738 0
 152 008c C2E7     		b	.L3
 153              	.L13:
 740:Drivers/lvgl/lvgl/src/extra/layouts/grid/lv_grid.c ****                 gap = (lv_coord_t)(cont_size - grid_size) / (lv_coord_t)(track_num - 1);
 154              		.loc 1 740 0
 155 008e 0023     		movs	r3, #0
 156              	.LVL21:
 157 0090 2380     		strh	r3, [r4]	@ movhi
 741:Drivers/lvgl/lvgl/src/extra/layouts/grid/lv_grid.c ****                 break;
 158              		.loc 1 741 0
 159 0092 6B1A     		subs	r3, r5, r1
 160 0094 1BB2     		sxth	r3, r3
 161 0096 721E     		subs	r2, r6, #1
 162              	.LVL22:
 163 0098 12B2     		sxth	r2, r2
 164 009a 93FBF2F3 		sdiv	r3, r3, r2
 165 009e 1BB2     		sxth	r3, r3
 166              	.LVL23:
 742:Drivers/lvgl/lvgl/src/extra/layouts/grid/lv_grid.c ****             case LV_GRID_ALIGN_SPACE_AROUND:
 167              		.loc 1 742 0
 168 00a0 B8E7     		b	.L3
 169              	.LVL24:
 170              	.L12:
 744:Drivers/lvgl/lvgl/src/extra/layouts/grid/lv_grid.c ****                 pos_array[0] = gap / 2;
 171              		.loc 1 744 0
 172 00a2 6B1A     		subs	r3, r5, r1
 173              	.LVL25:
 174 00a4 1BB2     		sxth	r3, r3
 175 00a6 32B2     		sxth	r2, r6
 176              	.LVL26:
 177 00a8 93FBF2F3 		sdiv	r3, r3, r2
 178 00ac 1BB2     		sxth	r3, r3
 179              	.LVL27:
 745:Drivers/lvgl/lvgl/src/extra/layouts/grid/lv_grid.c ****                 break;
 180              		.loc 1 745 0
 181 00ae 1A46     		mov	r2, r3
 182 00b0 002B     		cmp	r3, #0
 183 00b2 02DB     		blt	.L25
 184              	.L15:
 185 00b4 5210     		asrs	r2, r2, #1
 186 00b6 2280     		strh	r2, [r4]	@ movhi
 746:Drivers/lvgl/lvgl/src/extra/layouts/grid/lv_grid.c ****             case LV_GRID_ALIGN_SPACE_EVENLY:
 187              		.loc 1 746 0
 188 00b8 ACE7     		b	.L3
ARM GAS  /tmp/ccFQgg33.s 			page 18


 189              	.L25:
 745:Drivers/lvgl/lvgl/src/extra/layouts/grid/lv_grid.c ****                 break;
 190              		.loc 1 745 0
 191 00ba 5A1C     		adds	r2, r3, #1
 192 00bc FAE7     		b	.L15
 193              	.LVL28:
 194              	.L11:
 748:Drivers/lvgl/lvgl/src/extra/layouts/grid/lv_grid.c ****                 pos_array[0] = gap;
 195              		.loc 1 748 0
 196 00be 6B1A     		subs	r3, r5, r1
 197              	.LVL29:
 198 00c0 1BB2     		sxth	r3, r3
 199 00c2 721C     		adds	r2, r6, #1
 200              	.LVL30:
 201 00c4 12B2     		sxth	r2, r2
 202 00c6 93FBF2F3 		sdiv	r3, r3, r2
 203 00ca 1BB2     		sxth	r3, r3
 204              	.LVL31:
 749:Drivers/lvgl/lvgl/src/extra/layouts/grid/lv_grid.c ****                 break;
 205              		.loc 1 749 0
 206 00cc 2380     		strh	r3, [r4]	@ movhi
 750:Drivers/lvgl/lvgl/src/extra/layouts/grid/lv_grid.c **** 
 207              		.loc 1 750 0
 208 00ce A1E7     		b	.L3
 209              	.LVL32:
 210              	.L17:
 757:Drivers/lvgl/lvgl/src/extra/layouts/grid/lv_grid.c ****         pos_array[i + 1] = pos_array[i] + size_array[i] + gap;
 211              		.loc 1 757 0 discriminator 3
 212 00d0 34F81210 		ldrh	r1, [r4, r2, lsl #1]
 213 00d4 37F81200 		ldrh	r0, [r7, r2, lsl #1]
 214 00d8 0144     		add	r1, r1, r0
 215 00da 0132     		adds	r2, r2, #1
 216              	.LVL33:
 217 00dc 13FA81F1 		uxtah	r1, r3, r1
 218 00e0 24F81210 		strh	r1, [r4, r2, lsl #1]	@ movhi
 219              	.LVL34:
 220              	.L16:
 756:Drivers/lvgl/lvgl/src/extra/layouts/grid/lv_grid.c ****         pos_array[i + 1] = pos_array[i] + size_array[i] + gap;
 221              		.loc 1 756 0 discriminator 1
 222 00e4 711E     		subs	r1, r6, #1
 223 00e6 9142     		cmp	r1, r2
 224 00e8 F2D8     		bhi	.L17
 758:Drivers/lvgl/lvgl/src/extra/layouts/grid/lv_grid.c ****     }
 759:Drivers/lvgl/lvgl/src/extra/layouts/grid/lv_grid.c **** 
 760:Drivers/lvgl/lvgl/src/extra/layouts/grid/lv_grid.c ****     lv_coord_t total_gird_size = pos_array[track_num - 1] + size_array[track_num - 1] - pos_array[0
 225              		.loc 1 760 0
 226 00ea 6FF00043 		mvn	r3, #-2147483648
 227              	.LVL35:
 228 00ee 3344     		add	r3, r3, r6
 229 00f0 34F81300 		ldrh	r0, [r4, r3, lsl #1]
 230 00f4 37F81330 		ldrh	r3, [r7, r3, lsl #1]
 231 00f8 1844     		add	r0, r0, r3
 232 00fa 80B2     		uxth	r0, r0
 233 00fc 2388     		ldrh	r3, [r4]
 234 00fe C01A     		subs	r0, r0, r3
 235 0100 00B2     		sxth	r0, r0
 236              	.LVL36:
ARM GAS  /tmp/ccFQgg33.s 			page 19


 761:Drivers/lvgl/lvgl/src/extra/layouts/grid/lv_grid.c **** 
 762:Drivers/lvgl/lvgl/src/extra/layouts/grid/lv_grid.c ****     if(reverse) {
 237              		.loc 1 762 0
 238 0102 BCF1000F 		cmp	ip, #0
 239 0106 0DD0     		beq	.L19
 763:Drivers/lvgl/lvgl/src/extra/layouts/grid/lv_grid.c ****         for(i = 0; i < track_num; i++) {
 240              		.loc 1 763 0
 241 0108 0022     		movs	r2, #0
 242              	.LVL37:
 243 010a 09E0     		b	.L18
 244              	.LVL38:
 245              	.L20:
 764:Drivers/lvgl/lvgl/src/extra/layouts/grid/lv_grid.c ****             pos_array[i] = cont_size - pos_array[i] - size_array[i];
 246              		.loc 1 764 0 discriminator 3
 247 010c 34F81230 		ldrh	r3, [r4, r2, lsl #1]
 248 0110 EB1A     		subs	r3, r5, r3
 249 0112 9BB2     		uxth	r3, r3
 250 0114 37F81210 		ldrh	r1, [r7, r2, lsl #1]
 251 0118 5B1A     		subs	r3, r3, r1
 252 011a 24F81230 		strh	r3, [r4, r2, lsl #1]	@ movhi
 763:Drivers/lvgl/lvgl/src/extra/layouts/grid/lv_grid.c ****         for(i = 0; i < track_num; i++) {
 253              		.loc 1 763 0 discriminator 3
 254 011e 0132     		adds	r2, r2, #1
 255              	.LVL39:
 256              	.L18:
 763:Drivers/lvgl/lvgl/src/extra/layouts/grid/lv_grid.c ****         for(i = 0; i < track_num; i++) {
 257              		.loc 1 763 0 is_stmt 0 discriminator 1
 258 0120 B242     		cmp	r2, r6
 259 0122 F3D3     		bcc	.L20
 260              	.L19:
 765:Drivers/lvgl/lvgl/src/extra/layouts/grid/lv_grid.c ****         }
 766:Drivers/lvgl/lvgl/src/extra/layouts/grid/lv_grid.c **** 
 767:Drivers/lvgl/lvgl/src/extra/layouts/grid/lv_grid.c ****     }
 768:Drivers/lvgl/lvgl/src/extra/layouts/grid/lv_grid.c **** 
 769:Drivers/lvgl/lvgl/src/extra/layouts/grid/lv_grid.c ****     /*Return the full size of the grid*/
 770:Drivers/lvgl/lvgl/src/extra/layouts/grid/lv_grid.c ****     return total_gird_size;
 771:Drivers/lvgl/lvgl/src/extra/layouts/grid/lv_grid.c **** }
 261              		.loc 1 771 0 is_stmt 1
 262 0124 F0BD     		pop	{r4, r5, r6, r7, pc}
 263              		.cfi_endproc
 264              	.LFE215:
 266 0126 00BF     		.section	.text.count_tracks,"ax",%progbits
 267              		.align	1
 268              		.syntax unified
 269              		.thumb
 270              		.thumb_func
 271              		.fpu fpv5-d16
 273              	count_tracks:
 274              	.LFB216:
 772:Drivers/lvgl/lvgl/src/extra/layouts/grid/lv_grid.c **** 
 773:Drivers/lvgl/lvgl/src/extra/layouts/grid/lv_grid.c **** static uint32_t count_tracks(const lv_coord_t * templ)
 774:Drivers/lvgl/lvgl/src/extra/layouts/grid/lv_grid.c **** {
 275              		.loc 1 774 0
 276              		.cfi_startproc
 277              		@ args = 0, pretend = 0, frame = 0
 278              		@ frame_needed = 0, uses_anonymous_args = 0
 279              		@ link register save eliminated.
ARM GAS  /tmp/ccFQgg33.s 			page 20


 280              	.LVL40:
 775:Drivers/lvgl/lvgl/src/extra/layouts/grid/lv_grid.c ****     uint32_t i;
 776:Drivers/lvgl/lvgl/src/extra/layouts/grid/lv_grid.c ****     for(i = 0; templ[i] != LV_GRID_TEMPLATE_LAST; i++);
 281              		.loc 1 776 0
 282 0000 0023     		movs	r3, #0
 283 0002 00E0     		b	.L27
 284              	.LVL41:
 285              	.L28:
 286              		.loc 1 776 0 is_stmt 0 discriminator 3
 287 0004 0133     		adds	r3, r3, #1
 288              	.LVL42:
 289              	.L27:
 290              		.loc 1 776 0 discriminator 1
 291 0006 30F91310 		ldrsh	r1, [r0, r3, lsl #1]
 292 000a 41F6FF72 		movw	r2, #8191
 293 000e 9142     		cmp	r1, r2
 294 0010 F8D1     		bne	.L28
 777:Drivers/lvgl/lvgl/src/extra/layouts/grid/lv_grid.c **** 
 778:Drivers/lvgl/lvgl/src/extra/layouts/grid/lv_grid.c ****     return i;
 779:Drivers/lvgl/lvgl/src/extra/layouts/grid/lv_grid.c **** }
 295              		.loc 1 779 0 is_stmt 1
 296 0012 1846     		mov	r0, r3
 297              	.LVL43:
 298 0014 7047     		bx	lr
 299              		.cfi_endproc
 300              	.LFE216:
 302              		.section	.text.calc_rows,"ax",%progbits
 303              		.align	1
 304              		.syntax unified
 305              		.thumb
 306              		.thumb_func
 307              		.fpu fpv5-d16
 309              	calc_rows:
 310              	.LFB213:
 506:Drivers/lvgl/lvgl/src/extra/layouts/grid/lv_grid.c ****     uint32_t i;
 311              		.loc 1 506 0
 312              		.cfi_startproc
 313              		@ args = 0, pretend = 0, frame = 0
 314              		@ frame_needed = 0, uses_anonymous_args = 0
 315              	.LVL44:
 316 0000 2DE9F84F 		push	{r3, r4, r5, r6, r7, r8, r9, r10, fp, lr}
 317              	.LCFI1:
 318              		.cfi_def_cfa_offset 40
 319              		.cfi_offset 3, -40
 320              		.cfi_offset 4, -36
 321              		.cfi_offset 5, -32
 322              		.cfi_offset 6, -28
 323              		.cfi_offset 7, -24
 324              		.cfi_offset 8, -20
 325              		.cfi_offset 9, -16
 326              		.cfi_offset 10, -12
 327              		.cfi_offset 11, -8
 328              		.cfi_offset 14, -4
 329 0004 0746     		mov	r7, r0
 330 0006 0C46     		mov	r4, r1
 331              	.LVL45:
 332              	.LBB136:
ARM GAS  /tmp/ccFQgg33.s 			page 21


 333              	.LBB137:
 334              	.LBB138:
 335              		.file 2 "Drivers/lvgl/lvgl/src/extra/layouts/grid/../grid/lv_grid.h"
   1:Drivers/lvgl/lvgl/src/extra/layouts/grid/../grid/lv_grid.h **** /**
   2:Drivers/lvgl/lvgl/src/extra/layouts/grid/../grid/lv_grid.h ****  * @file lv_grid.h
   3:Drivers/lvgl/lvgl/src/extra/layouts/grid/../grid/lv_grid.h ****  *
   4:Drivers/lvgl/lvgl/src/extra/layouts/grid/../grid/lv_grid.h ****  */
   5:Drivers/lvgl/lvgl/src/extra/layouts/grid/../grid/lv_grid.h **** 
   6:Drivers/lvgl/lvgl/src/extra/layouts/grid/../grid/lv_grid.h **** #ifndef LV_GRID_H
   7:Drivers/lvgl/lvgl/src/extra/layouts/grid/../grid/lv_grid.h **** #define LV_GRID_H
   8:Drivers/lvgl/lvgl/src/extra/layouts/grid/../grid/lv_grid.h **** 
   9:Drivers/lvgl/lvgl/src/extra/layouts/grid/../grid/lv_grid.h **** #ifdef __cplusplus
  10:Drivers/lvgl/lvgl/src/extra/layouts/grid/../grid/lv_grid.h **** extern "C" {
  11:Drivers/lvgl/lvgl/src/extra/layouts/grid/../grid/lv_grid.h **** #endif
  12:Drivers/lvgl/lvgl/src/extra/layouts/grid/../grid/lv_grid.h **** 
  13:Drivers/lvgl/lvgl/src/extra/layouts/grid/../grid/lv_grid.h **** /*********************
  14:Drivers/lvgl/lvgl/src/extra/layouts/grid/../grid/lv_grid.h ****  *      INCLUDES
  15:Drivers/lvgl/lvgl/src/extra/layouts/grid/../grid/lv_grid.h ****  *********************/
  16:Drivers/lvgl/lvgl/src/extra/layouts/grid/../grid/lv_grid.h **** #include "../../../core/lv_obj.h"
  17:Drivers/lvgl/lvgl/src/extra/layouts/grid/../grid/lv_grid.h **** #if LV_USE_GRID
  18:Drivers/lvgl/lvgl/src/extra/layouts/grid/../grid/lv_grid.h **** 
  19:Drivers/lvgl/lvgl/src/extra/layouts/grid/../grid/lv_grid.h **** /*********************
  20:Drivers/lvgl/lvgl/src/extra/layouts/grid/../grid/lv_grid.h ****  *      DEFINES
  21:Drivers/lvgl/lvgl/src/extra/layouts/grid/../grid/lv_grid.h ****  *********************/
  22:Drivers/lvgl/lvgl/src/extra/layouts/grid/../grid/lv_grid.h **** /**
  23:Drivers/lvgl/lvgl/src/extra/layouts/grid/../grid/lv_grid.h ****  * Can be used track size to make the track fill the free space.
  24:Drivers/lvgl/lvgl/src/extra/layouts/grid/../grid/lv_grid.h ****  * @param x how much space to take proportionally to other FR tracks
  25:Drivers/lvgl/lvgl/src/extra/layouts/grid/../grid/lv_grid.h ****  * @return a special track size
  26:Drivers/lvgl/lvgl/src/extra/layouts/grid/../grid/lv_grid.h ****  */
  27:Drivers/lvgl/lvgl/src/extra/layouts/grid/../grid/lv_grid.h **** #define LV_GRID_FR(x)          (LV_COORD_MAX - 100 + x)
  28:Drivers/lvgl/lvgl/src/extra/layouts/grid/../grid/lv_grid.h **** 
  29:Drivers/lvgl/lvgl/src/extra/layouts/grid/../grid/lv_grid.h **** #define LV_GRID_CONTENT        (LV_COORD_MAX - 101)
  30:Drivers/lvgl/lvgl/src/extra/layouts/grid/../grid/lv_grid.h **** LV_EXPORT_CONST_INT(LV_GRID_CONTENT);
  31:Drivers/lvgl/lvgl/src/extra/layouts/grid/../grid/lv_grid.h **** 
  32:Drivers/lvgl/lvgl/src/extra/layouts/grid/../grid/lv_grid.h **** #define LV_GRID_TEMPLATE_LAST  (LV_COORD_MAX)
  33:Drivers/lvgl/lvgl/src/extra/layouts/grid/../grid/lv_grid.h **** LV_EXPORT_CONST_INT(LV_GRID_TEMPLATE_LAST);
  34:Drivers/lvgl/lvgl/src/extra/layouts/grid/../grid/lv_grid.h **** 
  35:Drivers/lvgl/lvgl/src/extra/layouts/grid/../grid/lv_grid.h **** /**********************
  36:Drivers/lvgl/lvgl/src/extra/layouts/grid/../grid/lv_grid.h ****  *      TYPEDEFS
  37:Drivers/lvgl/lvgl/src/extra/layouts/grid/../grid/lv_grid.h ****  **********************/
  38:Drivers/lvgl/lvgl/src/extra/layouts/grid/../grid/lv_grid.h **** 
  39:Drivers/lvgl/lvgl/src/extra/layouts/grid/../grid/lv_grid.h **** /*Can't include lv_obj.h because it includes this header file*/
  40:Drivers/lvgl/lvgl/src/extra/layouts/grid/../grid/lv_grid.h **** struct _lv_obj_t;
  41:Drivers/lvgl/lvgl/src/extra/layouts/grid/../grid/lv_grid.h **** 
  42:Drivers/lvgl/lvgl/src/extra/layouts/grid/../grid/lv_grid.h **** typedef enum {
  43:Drivers/lvgl/lvgl/src/extra/layouts/grid/../grid/lv_grid.h ****     LV_GRID_ALIGN_START,
  44:Drivers/lvgl/lvgl/src/extra/layouts/grid/../grid/lv_grid.h ****     LV_GRID_ALIGN_CENTER,
  45:Drivers/lvgl/lvgl/src/extra/layouts/grid/../grid/lv_grid.h ****     LV_GRID_ALIGN_END,
  46:Drivers/lvgl/lvgl/src/extra/layouts/grid/../grid/lv_grid.h ****     LV_GRID_ALIGN_STRETCH,
  47:Drivers/lvgl/lvgl/src/extra/layouts/grid/../grid/lv_grid.h ****     LV_GRID_ALIGN_SPACE_EVENLY,
  48:Drivers/lvgl/lvgl/src/extra/layouts/grid/../grid/lv_grid.h ****     LV_GRID_ALIGN_SPACE_AROUND,
  49:Drivers/lvgl/lvgl/src/extra/layouts/grid/../grid/lv_grid.h ****     LV_GRID_ALIGN_SPACE_BETWEEN,
  50:Drivers/lvgl/lvgl/src/extra/layouts/grid/../grid/lv_grid.h **** } lv_grid_align_t;
  51:Drivers/lvgl/lvgl/src/extra/layouts/grid/../grid/lv_grid.h **** 
  52:Drivers/lvgl/lvgl/src/extra/layouts/grid/../grid/lv_grid.h **** /**********************
  53:Drivers/lvgl/lvgl/src/extra/layouts/grid/../grid/lv_grid.h ****  * GLOBAL VARIABLES
  54:Drivers/lvgl/lvgl/src/extra/layouts/grid/../grid/lv_grid.h ****  **********************/
ARM GAS  /tmp/ccFQgg33.s 			page 22


  55:Drivers/lvgl/lvgl/src/extra/layouts/grid/../grid/lv_grid.h **** 
  56:Drivers/lvgl/lvgl/src/extra/layouts/grid/../grid/lv_grid.h **** extern uint16_t LV_LAYOUT_GRID;
  57:Drivers/lvgl/lvgl/src/extra/layouts/grid/../grid/lv_grid.h **** extern lv_style_prop_t LV_STYLE_GRID_COLUMN_DSC_ARRAY;
  58:Drivers/lvgl/lvgl/src/extra/layouts/grid/../grid/lv_grid.h **** extern lv_style_prop_t LV_STYLE_GRID_COLUMN_ALIGN;
  59:Drivers/lvgl/lvgl/src/extra/layouts/grid/../grid/lv_grid.h **** extern lv_style_prop_t LV_STYLE_GRID_ROW_DSC_ARRAY;
  60:Drivers/lvgl/lvgl/src/extra/layouts/grid/../grid/lv_grid.h **** extern lv_style_prop_t LV_STYLE_GRID_ROW_ALIGN;
  61:Drivers/lvgl/lvgl/src/extra/layouts/grid/../grid/lv_grid.h **** extern lv_style_prop_t LV_STYLE_GRID_CELL_COLUMN_POS;
  62:Drivers/lvgl/lvgl/src/extra/layouts/grid/../grid/lv_grid.h **** extern lv_style_prop_t LV_STYLE_GRID_CELL_COLUMN_SPAN;
  63:Drivers/lvgl/lvgl/src/extra/layouts/grid/../grid/lv_grid.h **** extern lv_style_prop_t LV_STYLE_GRID_CELL_X_ALIGN;
  64:Drivers/lvgl/lvgl/src/extra/layouts/grid/../grid/lv_grid.h **** extern lv_style_prop_t LV_STYLE_GRID_CELL_ROW_POS;
  65:Drivers/lvgl/lvgl/src/extra/layouts/grid/../grid/lv_grid.h **** extern lv_style_prop_t LV_STYLE_GRID_CELL_ROW_SPAN;
  66:Drivers/lvgl/lvgl/src/extra/layouts/grid/../grid/lv_grid.h **** extern lv_style_prop_t LV_STYLE_GRID_CELL_Y_ALIGN;
  67:Drivers/lvgl/lvgl/src/extra/layouts/grid/../grid/lv_grid.h **** 
  68:Drivers/lvgl/lvgl/src/extra/layouts/grid/../grid/lv_grid.h **** /**********************
  69:Drivers/lvgl/lvgl/src/extra/layouts/grid/../grid/lv_grid.h ****  * GLOBAL PROTOTYPES
  70:Drivers/lvgl/lvgl/src/extra/layouts/grid/../grid/lv_grid.h ****  **********************/
  71:Drivers/lvgl/lvgl/src/extra/layouts/grid/../grid/lv_grid.h **** 
  72:Drivers/lvgl/lvgl/src/extra/layouts/grid/../grid/lv_grid.h **** void lv_grid_init(void);
  73:Drivers/lvgl/lvgl/src/extra/layouts/grid/../grid/lv_grid.h **** 
  74:Drivers/lvgl/lvgl/src/extra/layouts/grid/../grid/lv_grid.h **** void lv_obj_set_grid_dsc_array(lv_obj_t * obj, const lv_coord_t col_dsc[], const lv_coord_t row_dsc
  75:Drivers/lvgl/lvgl/src/extra/layouts/grid/../grid/lv_grid.h **** 
  76:Drivers/lvgl/lvgl/src/extra/layouts/grid/../grid/lv_grid.h **** void lv_obj_set_grid_align(lv_obj_t * obj, lv_grid_align_t column_align, lv_grid_align_t row_align)
  77:Drivers/lvgl/lvgl/src/extra/layouts/grid/../grid/lv_grid.h **** 
  78:Drivers/lvgl/lvgl/src/extra/layouts/grid/../grid/lv_grid.h **** /**
  79:Drivers/lvgl/lvgl/src/extra/layouts/grid/../grid/lv_grid.h ****  * Set the cell of an object. The object's parent needs to have grid layout, else nothing will happ
  80:Drivers/lvgl/lvgl/src/extra/layouts/grid/../grid/lv_grid.h ****  * @param obj pointer to an object
  81:Drivers/lvgl/lvgl/src/extra/layouts/grid/../grid/lv_grid.h ****  * @param column_align the vertical alignment in the cell. `LV_GRID_START/END/CENTER/STRETCH`
  82:Drivers/lvgl/lvgl/src/extra/layouts/grid/../grid/lv_grid.h ****  * @param col_pos column ID
  83:Drivers/lvgl/lvgl/src/extra/layouts/grid/../grid/lv_grid.h ****  * @param col_span number of columns to take (>= 1)
  84:Drivers/lvgl/lvgl/src/extra/layouts/grid/../grid/lv_grid.h ****  * @param row_align the horizontal alignment in the cell. `LV_GRID_START/END/CENTER/STRETCH`
  85:Drivers/lvgl/lvgl/src/extra/layouts/grid/../grid/lv_grid.h ****  * @param row_pos row ID
  86:Drivers/lvgl/lvgl/src/extra/layouts/grid/../grid/lv_grid.h ****  * @param row_span number of rows to take (>= 1)
  87:Drivers/lvgl/lvgl/src/extra/layouts/grid/../grid/lv_grid.h ****  */
  88:Drivers/lvgl/lvgl/src/extra/layouts/grid/../grid/lv_grid.h **** void lv_obj_set_grid_cell(lv_obj_t * obj, lv_grid_align_t column_align, uint8_t col_pos, uint8_t co
  89:Drivers/lvgl/lvgl/src/extra/layouts/grid/../grid/lv_grid.h ****                           lv_grid_align_t row_align, uint8_t row_pos, uint8_t row_span);
  90:Drivers/lvgl/lvgl/src/extra/layouts/grid/../grid/lv_grid.h **** 
  91:Drivers/lvgl/lvgl/src/extra/layouts/grid/../grid/lv_grid.h **** /**
  92:Drivers/lvgl/lvgl/src/extra/layouts/grid/../grid/lv_grid.h ****  * Just a wrapper to `LV_GRID_FR` for bindings.
  93:Drivers/lvgl/lvgl/src/extra/layouts/grid/../grid/lv_grid.h ****  */
  94:Drivers/lvgl/lvgl/src/extra/layouts/grid/../grid/lv_grid.h **** static inline lv_coord_t lv_grid_fr(uint8_t x)
  95:Drivers/lvgl/lvgl/src/extra/layouts/grid/../grid/lv_grid.h **** {
  96:Drivers/lvgl/lvgl/src/extra/layouts/grid/../grid/lv_grid.h ****     return LV_GRID_FR(x);
  97:Drivers/lvgl/lvgl/src/extra/layouts/grid/../grid/lv_grid.h **** }
  98:Drivers/lvgl/lvgl/src/extra/layouts/grid/../grid/lv_grid.h **** 
  99:Drivers/lvgl/lvgl/src/extra/layouts/grid/../grid/lv_grid.h **** void lv_style_set_grid_row_dsc_array(lv_style_t * style, const lv_coord_t value[]);
 100:Drivers/lvgl/lvgl/src/extra/layouts/grid/../grid/lv_grid.h **** void lv_style_set_grid_column_dsc_array(lv_style_t * style, const lv_coord_t value[]);
 101:Drivers/lvgl/lvgl/src/extra/layouts/grid/../grid/lv_grid.h **** void lv_style_set_grid_row_align(lv_style_t * style, lv_grid_align_t value);
 102:Drivers/lvgl/lvgl/src/extra/layouts/grid/../grid/lv_grid.h **** void lv_style_set_grid_column_align(lv_style_t * style, lv_grid_align_t value);
 103:Drivers/lvgl/lvgl/src/extra/layouts/grid/../grid/lv_grid.h **** void lv_style_set_grid_cell_column_pos(lv_style_t * style, lv_coord_t value);
 104:Drivers/lvgl/lvgl/src/extra/layouts/grid/../grid/lv_grid.h **** void lv_style_set_grid_cell_column_span(lv_style_t * style, lv_coord_t value);
 105:Drivers/lvgl/lvgl/src/extra/layouts/grid/../grid/lv_grid.h **** void lv_style_set_grid_cell_row_pos(lv_style_t * style, lv_coord_t value);
 106:Drivers/lvgl/lvgl/src/extra/layouts/grid/../grid/lv_grid.h **** void lv_style_set_grid_cell_row_span(lv_style_t * style, lv_coord_t value);
 107:Drivers/lvgl/lvgl/src/extra/layouts/grid/../grid/lv_grid.h **** void lv_style_set_grid_cell_x_align(lv_style_t * style, lv_coord_t value);
 108:Drivers/lvgl/lvgl/src/extra/layouts/grid/../grid/lv_grid.h **** void lv_style_set_grid_cell_y_align(lv_style_t * style, lv_coord_t value);
 109:Drivers/lvgl/lvgl/src/extra/layouts/grid/../grid/lv_grid.h **** 
 110:Drivers/lvgl/lvgl/src/extra/layouts/grid/../grid/lv_grid.h **** void lv_obj_set_style_grid_row_dsc_array(lv_obj_t * obj, const lv_coord_t value[], lv_style_selecto
 111:Drivers/lvgl/lvgl/src/extra/layouts/grid/../grid/lv_grid.h **** void lv_obj_set_style_grid_column_dsc_array(lv_obj_t * obj, const lv_coord_t value[], lv_style_sele
ARM GAS  /tmp/ccFQgg33.s 			page 23


 112:Drivers/lvgl/lvgl/src/extra/layouts/grid/../grid/lv_grid.h **** void lv_obj_set_style_grid_row_align(lv_obj_t * obj, lv_grid_align_t value, lv_style_selector_t sel
 113:Drivers/lvgl/lvgl/src/extra/layouts/grid/../grid/lv_grid.h **** void lv_obj_set_style_grid_column_align(lv_obj_t * obj, lv_grid_align_t value, lv_style_selector_t 
 114:Drivers/lvgl/lvgl/src/extra/layouts/grid/../grid/lv_grid.h **** void lv_obj_set_style_grid_cell_column_pos(lv_obj_t * obj, lv_coord_t value, lv_style_selector_t se
 115:Drivers/lvgl/lvgl/src/extra/layouts/grid/../grid/lv_grid.h **** void lv_obj_set_style_grid_cell_column_span(lv_obj_t * obj, lv_coord_t value, lv_style_selector_t s
 116:Drivers/lvgl/lvgl/src/extra/layouts/grid/../grid/lv_grid.h **** void lv_obj_set_style_grid_cell_row_pos(lv_obj_t * obj, lv_coord_t value, lv_style_selector_t selec
 117:Drivers/lvgl/lvgl/src/extra/layouts/grid/../grid/lv_grid.h **** void lv_obj_set_style_grid_cell_row_span(lv_obj_t * obj, lv_coord_t value, lv_style_selector_t sele
 118:Drivers/lvgl/lvgl/src/extra/layouts/grid/../grid/lv_grid.h **** void lv_obj_set_style_grid_cell_x_align(lv_obj_t * obj, lv_coord_t value, lv_style_selector_t selec
 119:Drivers/lvgl/lvgl/src/extra/layouts/grid/../grid/lv_grid.h **** void lv_obj_set_style_grid_cell_y_align(lv_obj_t * obj, lv_coord_t value, lv_style_selector_t selec
 120:Drivers/lvgl/lvgl/src/extra/layouts/grid/../grid/lv_grid.h **** 
 121:Drivers/lvgl/lvgl/src/extra/layouts/grid/../grid/lv_grid.h **** static inline const lv_coord_t * lv_obj_get_style_grid_row_dsc_array(const lv_obj_t * obj, uint32_t
 122:Drivers/lvgl/lvgl/src/extra/layouts/grid/../grid/lv_grid.h **** {
 123:Drivers/lvgl/lvgl/src/extra/layouts/grid/../grid/lv_grid.h ****     lv_style_value_t v = lv_obj_get_style_prop(obj, part, LV_STYLE_GRID_ROW_DSC_ARRAY);
 336              		.loc 2 123 0
 337 0008 604B     		ldr	r3, .L56
 338 000a 1A88     		ldrh	r2, [r3]
 339 000c 0021     		movs	r1, #0
 340              	.LVL46:
 341 000e FFF7FEFF 		bl	lv_obj_get_style_prop
 342              	.LVL47:
 343 0012 0646     		mov	r6, r0
 344              	.LVL48:
 345              	.LBE138:
 346              	.LBE137:
 347              	.LBE136:
 509:Drivers/lvgl/lvgl/src/extra/layouts/grid/lv_grid.c ****     c->y = lv_mem_buf_get(sizeof(lv_coord_t) * c->row_num);
 348              		.loc 1 509 0
 349 0014 FFF7FEFF 		bl	count_tracks
 350              	.LVL49:
 351 0018 6061     		str	r0, [r4, #20]
 510:Drivers/lvgl/lvgl/src/extra/layouts/grid/lv_grid.c ****     c->h = lv_mem_buf_get(sizeof(lv_coord_t) * c->row_num);
 352              		.loc 1 510 0
 353 001a 4000     		lsls	r0, r0, #1
 354 001c FFF7FEFF 		bl	lv_mem_buf_get
 355              	.LVL50:
 356 0020 6060     		str	r0, [r4, #4]
 511:Drivers/lvgl/lvgl/src/extra/layouts/grid/lv_grid.c ****     /*Set sizes for CONTENT cells*/
 357              		.loc 1 511 0
 358 0022 6069     		ldr	r0, [r4, #20]
 359 0024 4000     		lsls	r0, r0, #1
 360 0026 FFF7FEFF 		bl	lv_mem_buf_get
 361              	.LVL51:
 362 002a E060     		str	r0, [r4, #12]
 363              	.LVL52:
 513:Drivers/lvgl/lvgl/src/extra/layouts/grid/lv_grid.c ****         lv_coord_t size = LV_COORD_MIN;
 364              		.loc 1 513 0
 365 002c 0025     		movs	r5, #0
 366 002e 33E0     		b	.L30
 367              	.LVL53:
 368              	.L33:
 369              	.LBB139:
 370              	.LBB140:
 518:Drivers/lvgl/lvgl/src/extra/layouts/grid/lv_grid.c ****                 lv_obj_t * item = lv_obj_get_child(cont, ci);
 371              		.loc 1 518 0 discriminator 2
 372 0030 08F10108 		add	r8, r8, #1
 373              	.LVL54:
 374              	.L31:
 518:Drivers/lvgl/lvgl/src/extra/layouts/grid/lv_grid.c ****                 lv_obj_t * item = lv_obj_get_child(cont, ci);
ARM GAS  /tmp/ccFQgg33.s 			page 24


 375              		.loc 1 518 0 is_stmt 0 discriminator 1
 376 0034 3846     		mov	r0, r7
 377 0036 FFF7FEFF 		bl	lv_obj_get_child_cnt
 378              	.LVL55:
 379 003a 4045     		cmp	r0, r8
 380 003c 25D9     		bls	.L50
 381              	.LBB141:
 519:Drivers/lvgl/lvgl/src/extra/layouts/grid/lv_grid.c ****                 if(lv_obj_has_flag_any(item, LV_OBJ_FLAG_IGNORE_LAYOUT | LV_OBJ_FLAG_HIDDEN | LV_OB
 382              		.loc 1 519 0 is_stmt 1
 383 003e 4146     		mov	r1, r8
 384 0040 3846     		mov	r0, r7
 385 0042 FFF7FEFF 		bl	lv_obj_get_child
 386              	.LVL56:
 387 0046 8146     		mov	r9, r0
 388              	.LVL57:
 520:Drivers/lvgl/lvgl/src/extra/layouts/grid/lv_grid.c ****                 uint32_t row_span = get_row_span(item);
 389              		.loc 1 520 0
 390 0048 5149     		ldr	r1, .L56+4
 391 004a FFF7FEFF 		bl	lv_obj_has_flag_any
 392              	.LVL58:
 393 004e 0028     		cmp	r0, #0
 394 0050 EED1     		bne	.L33
 395              	.LVL59:
 396              	.LBB142:
 397              	.LBB143:
 398              	.LBB144:
 124:Drivers/lvgl/lvgl/src/extra/layouts/grid/../grid/lv_grid.h ****     return (const lv_coord_t *)v.ptr;
 125:Drivers/lvgl/lvgl/src/extra/layouts/grid/../grid/lv_grid.h **** }
 126:Drivers/lvgl/lvgl/src/extra/layouts/grid/../grid/lv_grid.h **** 
 127:Drivers/lvgl/lvgl/src/extra/layouts/grid/../grid/lv_grid.h **** static inline const lv_coord_t * lv_obj_get_style_grid_column_dsc_array(const lv_obj_t * obj, uint3
 128:Drivers/lvgl/lvgl/src/extra/layouts/grid/../grid/lv_grid.h **** {
 129:Drivers/lvgl/lvgl/src/extra/layouts/grid/../grid/lv_grid.h ****     lv_style_value_t v = lv_obj_get_style_prop(obj, part, LV_STYLE_GRID_COLUMN_DSC_ARRAY);
 130:Drivers/lvgl/lvgl/src/extra/layouts/grid/../grid/lv_grid.h ****     return (const lv_coord_t *)v.ptr;
 131:Drivers/lvgl/lvgl/src/extra/layouts/grid/../grid/lv_grid.h **** }
 132:Drivers/lvgl/lvgl/src/extra/layouts/grid/../grid/lv_grid.h **** 
 133:Drivers/lvgl/lvgl/src/extra/layouts/grid/../grid/lv_grid.h **** static inline lv_grid_align_t lv_obj_get_style_grid_row_align(const lv_obj_t * obj, uint32_t part)
 134:Drivers/lvgl/lvgl/src/extra/layouts/grid/../grid/lv_grid.h **** {
 135:Drivers/lvgl/lvgl/src/extra/layouts/grid/../grid/lv_grid.h ****     lv_style_value_t v = lv_obj_get_style_prop(obj, part, LV_STYLE_GRID_ROW_ALIGN);
 136:Drivers/lvgl/lvgl/src/extra/layouts/grid/../grid/lv_grid.h ****     return (lv_grid_align_t)v.num;
 137:Drivers/lvgl/lvgl/src/extra/layouts/grid/../grid/lv_grid.h **** }
 138:Drivers/lvgl/lvgl/src/extra/layouts/grid/../grid/lv_grid.h **** 
 139:Drivers/lvgl/lvgl/src/extra/layouts/grid/../grid/lv_grid.h **** static inline lv_grid_align_t lv_obj_get_style_grid_column_align(const lv_obj_t * obj, uint32_t par
 140:Drivers/lvgl/lvgl/src/extra/layouts/grid/../grid/lv_grid.h **** {
 141:Drivers/lvgl/lvgl/src/extra/layouts/grid/../grid/lv_grid.h ****     lv_style_value_t v = lv_obj_get_style_prop(obj, part, LV_STYLE_GRID_COLUMN_ALIGN);
 142:Drivers/lvgl/lvgl/src/extra/layouts/grid/../grid/lv_grid.h ****     return (lv_grid_align_t)v.num;
 143:Drivers/lvgl/lvgl/src/extra/layouts/grid/../grid/lv_grid.h **** }
 144:Drivers/lvgl/lvgl/src/extra/layouts/grid/../grid/lv_grid.h **** 
 145:Drivers/lvgl/lvgl/src/extra/layouts/grid/../grid/lv_grid.h **** static inline lv_coord_t lv_obj_get_style_grid_cell_column_pos(const lv_obj_t * obj, uint32_t part)
 146:Drivers/lvgl/lvgl/src/extra/layouts/grid/../grid/lv_grid.h **** {
 147:Drivers/lvgl/lvgl/src/extra/layouts/grid/../grid/lv_grid.h ****     lv_style_value_t v = lv_obj_get_style_prop(obj, part, LV_STYLE_GRID_CELL_COLUMN_POS);
 148:Drivers/lvgl/lvgl/src/extra/layouts/grid/../grid/lv_grid.h ****     return (lv_coord_t)v.num;
 149:Drivers/lvgl/lvgl/src/extra/layouts/grid/../grid/lv_grid.h **** }
 150:Drivers/lvgl/lvgl/src/extra/layouts/grid/../grid/lv_grid.h **** 
 151:Drivers/lvgl/lvgl/src/extra/layouts/grid/../grid/lv_grid.h **** static inline lv_coord_t lv_obj_get_style_grid_cell_column_span(const lv_obj_t * obj, uint32_t part
 152:Drivers/lvgl/lvgl/src/extra/layouts/grid/../grid/lv_grid.h **** {
 153:Drivers/lvgl/lvgl/src/extra/layouts/grid/../grid/lv_grid.h ****     lv_style_value_t v = lv_obj_get_style_prop(obj, part, LV_STYLE_GRID_CELL_COLUMN_SPAN);
 154:Drivers/lvgl/lvgl/src/extra/layouts/grid/../grid/lv_grid.h ****     return (lv_coord_t)v.num;
ARM GAS  /tmp/ccFQgg33.s 			page 25


 155:Drivers/lvgl/lvgl/src/extra/layouts/grid/../grid/lv_grid.h **** }
 156:Drivers/lvgl/lvgl/src/extra/layouts/grid/../grid/lv_grid.h **** 
 157:Drivers/lvgl/lvgl/src/extra/layouts/grid/../grid/lv_grid.h **** static inline lv_coord_t lv_obj_get_style_grid_cell_row_pos(const lv_obj_t * obj, uint32_t part)
 158:Drivers/lvgl/lvgl/src/extra/layouts/grid/../grid/lv_grid.h **** {
 159:Drivers/lvgl/lvgl/src/extra/layouts/grid/../grid/lv_grid.h ****     lv_style_value_t v = lv_obj_get_style_prop(obj, part, LV_STYLE_GRID_CELL_ROW_POS);
 160:Drivers/lvgl/lvgl/src/extra/layouts/grid/../grid/lv_grid.h ****     return (lv_coord_t)v.num;
 161:Drivers/lvgl/lvgl/src/extra/layouts/grid/../grid/lv_grid.h **** }
 162:Drivers/lvgl/lvgl/src/extra/layouts/grid/../grid/lv_grid.h **** 
 163:Drivers/lvgl/lvgl/src/extra/layouts/grid/../grid/lv_grid.h **** static inline lv_coord_t lv_obj_get_style_grid_cell_row_span(const lv_obj_t * obj, uint32_t part)
 164:Drivers/lvgl/lvgl/src/extra/layouts/grid/../grid/lv_grid.h **** {
 165:Drivers/lvgl/lvgl/src/extra/layouts/grid/../grid/lv_grid.h ****     lv_style_value_t v = lv_obj_get_style_prop(obj, part, LV_STYLE_GRID_CELL_ROW_SPAN);
 399              		.loc 2 165 0
 400 0052 504B     		ldr	r3, .L56+8
 401 0054 1A88     		ldrh	r2, [r3]
 402 0056 0021     		movs	r1, #0
 403 0058 4846     		mov	r0, r9
 404 005a FFF7FEFF 		bl	lv_obj_get_style_prop
 405              	.LVL60:
 406              	.LBE144:
 407              	.LBE143:
 408              	.LBE142:
 522:Drivers/lvgl/lvgl/src/extra/layouts/grid/lv_grid.c **** 
 409              		.loc 1 522 0
 410 005e C0B2     		uxtb	r0, r0
 411              	.LVL61:
 412 0060 0128     		cmp	r0, #1
 413 0062 E5D1     		bne	.L33
 414              	.LVL62:
 415              	.LBB145:
 416              	.LBB146:
 417              	.LBB147:
 159:Drivers/lvgl/lvgl/src/extra/layouts/grid/../grid/lv_grid.h ****     return (lv_coord_t)v.num;
 418              		.loc 2 159 0
 419 0064 4C4B     		ldr	r3, .L56+12
 420 0066 1A88     		ldrh	r2, [r3]
 421 0068 0021     		movs	r1, #0
 422 006a 4846     		mov	r0, r9
 423 006c FFF7FEFF 		bl	lv_obj_get_style_prop
 424              	.LVL63:
 425              	.LBE147:
 426              	.LBE146:
 427              	.LBE145:
 524:Drivers/lvgl/lvgl/src/extra/layouts/grid/lv_grid.c ****                 if(row_pos != i) continue;
 428              		.loc 1 524 0
 429 0070 C0B2     		uxtb	r0, r0
 430              	.LVL64:
 525:Drivers/lvgl/lvgl/src/extra/layouts/grid/lv_grid.c **** 
 431              		.loc 1 525 0
 432 0072 8542     		cmp	r5, r0
 433 0074 DCD1     		bne	.L33
 527:Drivers/lvgl/lvgl/src/extra/layouts/grid/lv_grid.c ****             }
 434              		.loc 1 527 0
 435 0076 4846     		mov	r0, r9
 436              	.LVL65:
 437 0078 FFF7FEFF 		bl	lv_obj_get_height
 438              	.LVL66:
 439 007c 5845     		cmp	r0, fp
ARM GAS  /tmp/ccFQgg33.s 			page 26


 440 007e D7DB     		blt	.L33
 527:Drivers/lvgl/lvgl/src/extra/layouts/grid/lv_grid.c ****             }
 441              		.loc 1 527 0 is_stmt 0 discriminator 1
 442 0080 4846     		mov	r0, r9
 443 0082 FFF7FEFF 		bl	lv_obj_get_height
 444              	.LVL67:
 445 0086 8346     		mov	fp, r0
 446              	.LVL68:
 447 0088 D2E7     		b	.L33
 448              	.LVL69:
 449              	.L50:
 450              	.LBE141:
 529:Drivers/lvgl/lvgl/src/extra/layouts/grid/lv_grid.c ****             else c->h[i] = 0;
 451              		.loc 1 529 0 is_stmt 1
 452 008a BBF1000F 		cmp	fp, #0
 453 008e 13DB     		blt	.L35
 529:Drivers/lvgl/lvgl/src/extra/layouts/grid/lv_grid.c ****             else c->h[i] = 0;
 454              		.loc 1 529 0 is_stmt 0 discriminator 1
 455 0090 E368     		ldr	r3, [r4, #12]
 456 0092 23F80AB0 		strh	fp, [r3, r10]	@ movhi
 457              	.LVL70:
 458              	.L32:
 459              	.LBE140:
 460              	.LBE139:
 513:Drivers/lvgl/lvgl/src/extra/layouts/grid/lv_grid.c ****         lv_coord_t size = LV_COORD_MIN;
 461              		.loc 1 513 0 is_stmt 1 discriminator 2
 462 0096 0135     		adds	r5, r5, #1
 463              	.LVL71:
 464              	.L30:
 513:Drivers/lvgl/lvgl/src/extra/layouts/grid/lv_grid.c ****         lv_coord_t size = LV_COORD_MIN;
 465              		.loc 1 513 0 is_stmt 0 discriminator 1
 466 0098 6369     		ldr	r3, [r4, #20]
 467 009a AB42     		cmp	r3, r5
 468 009c 11D9     		bls	.L51
 469              	.LVL72:
 470              	.LBB150:
 515:Drivers/lvgl/lvgl/src/extra/layouts/grid/lv_grid.c ****             /*Check the size of children of this cell*/
 471              		.loc 1 515 0 is_stmt 1
 472 009e 4FEA450A 		lsl	r10, r5, #1
 473 00a2 36F91520 		ldrsh	r2, [r6, r5, lsl #1]
 474 00a6 41F69A73 		movw	r3, #8090
 475 00aa 9A42     		cmp	r2, r3
 476 00ac F3D1     		bne	.L32
 477              	.LBB148:
 518:Drivers/lvgl/lvgl/src/extra/layouts/grid/lv_grid.c ****                 lv_obj_t * item = lv_obj_get_child(cont, ci);
 478              		.loc 1 518 0
 479 00ae 4FF00008 		mov	r8, #0
 480              	.LBE148:
 514:Drivers/lvgl/lvgl/src/extra/layouts/grid/lv_grid.c ****         if(IS_CONTENT(row_templ[i])) {
 481              		.loc 1 514 0
 482 00b2 DFF8ECB0 		ldr	fp, .L56+20
 483 00b6 BDE7     		b	.L31
 484              	.LVL73:
 485              	.L35:
 486              	.LBB149:
 530:Drivers/lvgl/lvgl/src/extra/layouts/grid/lv_grid.c ****         }
 487              		.loc 1 530 0
ARM GAS  /tmp/ccFQgg33.s 			page 27


 488 00b8 E368     		ldr	r3, [r4, #12]
 489 00ba 0022     		movs	r2, #0
 490 00bc 23F80A20 		strh	r2, [r3, r10]	@ movhi
 491 00c0 E9E7     		b	.L32
 492              	.LVL74:
 493              	.L51:
 494              	.LBE149:
 495              	.LBE150:
 535:Drivers/lvgl/lvgl/src/extra/layouts/grid/lv_grid.c **** 
 496              		.loc 1 535 0
 497 00c2 4FF00008 		mov	r8, #0
 534:Drivers/lvgl/lvgl/src/extra/layouts/grid/lv_grid.c ****     lv_coord_t grid_h = 0;
 498              		.loc 1 534 0
 499 00c6 4546     		mov	r5, r8
 500              	.LVL75:
 537:Drivers/lvgl/lvgl/src/extra/layouts/grid/lv_grid.c ****         lv_coord_t x = row_templ[i];
 501              		.loc 1 537 0
 502 00c8 4346     		mov	r3, r8
 503 00ca 09E0     		b	.L37
 504              	.LVL76:
 505              	.L38:
 506              	.LBB151:
 542:Drivers/lvgl/lvgl/src/extra/layouts/grid/lv_grid.c ****             grid_h += c->h[i];
 507              		.loc 1 542 0
 508 00cc 41F69A71 		movw	r1, #8090
 509 00d0 8A42     		cmp	r2, r1
 510 00d2 13D0     		beq	.L52
 546:Drivers/lvgl/lvgl/src/extra/layouts/grid/lv_grid.c ****             grid_h += x;
 511              		.loc 1 546 0
 512 00d4 E168     		ldr	r1, [r4, #12]
 513 00d6 0A52     		strh	r2, [r1, r0]	@ movhi
 547:Drivers/lvgl/lvgl/src/extra/layouts/grid/lv_grid.c ****         }
 514              		.loc 1 547 0
 515 00d8 4244     		add	r2, r2, r8
 516              	.LVL77:
 517 00da 0FFA82F8 		sxth	r8, r2
 518              	.LVL78:
 519              	.L39:
 520              	.LBE151:
 537:Drivers/lvgl/lvgl/src/extra/layouts/grid/lv_grid.c ****         lv_coord_t x = row_templ[i];
 521              		.loc 1 537 0 discriminator 2
 522 00de 0133     		adds	r3, r3, #1
 523              	.LVL79:
 524              	.L37:
 537:Drivers/lvgl/lvgl/src/extra/layouts/grid/lv_grid.c ****         lv_coord_t x = row_templ[i];
 525              		.loc 1 537 0 is_stmt 0 discriminator 1
 526 00e0 6269     		ldr	r2, [r4, #20]
 527 00e2 9A42     		cmp	r2, r3
 528 00e4 10D9     		bls	.L53
 529              	.LBB152:
 538:Drivers/lvgl/lvgl/src/extra/layouts/grid/lv_grid.c ****         if(IS_FR(x)) {
 530              		.loc 1 538 0 is_stmt 1
 531 00e6 5800     		lsls	r0, r3, #1
 532 00e8 36F91320 		ldrsh	r2, [r6, r3, lsl #1]
 533              	.LVL80:
 539:Drivers/lvgl/lvgl/src/extra/layouts/grid/lv_grid.c ****             row_fr_cnt += GET_FR(x);
 534              		.loc 1 539 0
ARM GAS  /tmp/ccFQgg33.s 			page 28


 535 00ec 41F69A71 		movw	r1, #8090
 536 00f0 8A42     		cmp	r2, r1
 537 00f2 EBDD     		ble	.L38
 540:Drivers/lvgl/lvgl/src/extra/layouts/grid/lv_grid.c ****         }
 538              		.loc 1 540 0
 539 00f4 2A44     		add	r2, r2, r5
 540              	.LVL81:
 541 00f6 294D     		ldr	r5, .L56+16
 542              	.LVL82:
 543 00f8 1544     		add	r5, r5, r2
 544              	.LVL83:
 545 00fa F0E7     		b	.L39
 546              	.LVL84:
 547              	.L52:
 543:Drivers/lvgl/lvgl/src/extra/layouts/grid/lv_grid.c ****         }
 548              		.loc 1 543 0
 549 00fc E268     		ldr	r2, [r4, #12]
 550              	.LVL85:
 551 00fe 125A     		ldrh	r2, [r2, r0]
 552 0100 4244     		add	r2, r2, r8
 553 0102 0FFA82F8 		sxth	r8, r2
 554              	.LVL86:
 555 0106 EAE7     		b	.L39
 556              	.LVL87:
 557              	.L53:
 558              	.LBE152:
 559              	.LBB153:
 560              	.LBB154:
 561              		.file 3 "Drivers/lvgl/lvgl/src/extra/layouts/grid/../flex/../../../core/lv_obj_style_gen.h"
   1:Drivers/lvgl/lvgl/src/extra/layouts/grid/../flex/../../../core/lv_obj_style_gen.h **** static inline lv_coord_t lv_obj_get_style_width(const struct _lv_obj_t * obj, uint32_t part)
   2:Drivers/lvgl/lvgl/src/extra/layouts/grid/../flex/../../../core/lv_obj_style_gen.h **** {
   3:Drivers/lvgl/lvgl/src/extra/layouts/grid/../flex/../../../core/lv_obj_style_gen.h ****     lv_style_value_t v = lv_obj_get_style_prop(obj, part, LV_STYLE_WIDTH);
   4:Drivers/lvgl/lvgl/src/extra/layouts/grid/../flex/../../../core/lv_obj_style_gen.h ****     return (lv_coord_t)v.num;
   5:Drivers/lvgl/lvgl/src/extra/layouts/grid/../flex/../../../core/lv_obj_style_gen.h **** }
   6:Drivers/lvgl/lvgl/src/extra/layouts/grid/../flex/../../../core/lv_obj_style_gen.h **** 
   7:Drivers/lvgl/lvgl/src/extra/layouts/grid/../flex/../../../core/lv_obj_style_gen.h **** static inline lv_coord_t lv_obj_get_style_min_width(const struct _lv_obj_t * obj, uint32_t part)
   8:Drivers/lvgl/lvgl/src/extra/layouts/grid/../flex/../../../core/lv_obj_style_gen.h **** {
   9:Drivers/lvgl/lvgl/src/extra/layouts/grid/../flex/../../../core/lv_obj_style_gen.h ****     lv_style_value_t v = lv_obj_get_style_prop(obj, part, LV_STYLE_MIN_WIDTH);
  10:Drivers/lvgl/lvgl/src/extra/layouts/grid/../flex/../../../core/lv_obj_style_gen.h ****     return (lv_coord_t)v.num;
  11:Drivers/lvgl/lvgl/src/extra/layouts/grid/../flex/../../../core/lv_obj_style_gen.h **** }
  12:Drivers/lvgl/lvgl/src/extra/layouts/grid/../flex/../../../core/lv_obj_style_gen.h **** 
  13:Drivers/lvgl/lvgl/src/extra/layouts/grid/../flex/../../../core/lv_obj_style_gen.h **** static inline lv_coord_t lv_obj_get_style_max_width(const struct _lv_obj_t * obj, uint32_t part)
  14:Drivers/lvgl/lvgl/src/extra/layouts/grid/../flex/../../../core/lv_obj_style_gen.h **** {
  15:Drivers/lvgl/lvgl/src/extra/layouts/grid/../flex/../../../core/lv_obj_style_gen.h ****     lv_style_value_t v = lv_obj_get_style_prop(obj, part, LV_STYLE_MAX_WIDTH);
  16:Drivers/lvgl/lvgl/src/extra/layouts/grid/../flex/../../../core/lv_obj_style_gen.h ****     return (lv_coord_t)v.num;
  17:Drivers/lvgl/lvgl/src/extra/layouts/grid/../flex/../../../core/lv_obj_style_gen.h **** }
  18:Drivers/lvgl/lvgl/src/extra/layouts/grid/../flex/../../../core/lv_obj_style_gen.h **** 
  19:Drivers/lvgl/lvgl/src/extra/layouts/grid/../flex/../../../core/lv_obj_style_gen.h **** static inline lv_coord_t lv_obj_get_style_height(const struct _lv_obj_t * obj, uint32_t part)
  20:Drivers/lvgl/lvgl/src/extra/layouts/grid/../flex/../../../core/lv_obj_style_gen.h **** {
  21:Drivers/lvgl/lvgl/src/extra/layouts/grid/../flex/../../../core/lv_obj_style_gen.h ****     lv_style_value_t v = lv_obj_get_style_prop(obj, part, LV_STYLE_HEIGHT);
  22:Drivers/lvgl/lvgl/src/extra/layouts/grid/../flex/../../../core/lv_obj_style_gen.h ****     return (lv_coord_t)v.num;
  23:Drivers/lvgl/lvgl/src/extra/layouts/grid/../flex/../../../core/lv_obj_style_gen.h **** }
  24:Drivers/lvgl/lvgl/src/extra/layouts/grid/../flex/../../../core/lv_obj_style_gen.h **** 
  25:Drivers/lvgl/lvgl/src/extra/layouts/grid/../flex/../../../core/lv_obj_style_gen.h **** static inline lv_coord_t lv_obj_get_style_min_height(const struct _lv_obj_t * obj, uint32_t part)
  26:Drivers/lvgl/lvgl/src/extra/layouts/grid/../flex/../../../core/lv_obj_style_gen.h **** {
  27:Drivers/lvgl/lvgl/src/extra/layouts/grid/../flex/../../../core/lv_obj_style_gen.h ****     lv_style_value_t v = lv_obj_get_style_prop(obj, part, LV_STYLE_MIN_HEIGHT);
  28:Drivers/lvgl/lvgl/src/extra/layouts/grid/../flex/../../../core/lv_obj_style_gen.h ****     return (lv_coord_t)v.num;
ARM GAS  /tmp/ccFQgg33.s 			page 29


  29:Drivers/lvgl/lvgl/src/extra/layouts/grid/../flex/../../../core/lv_obj_style_gen.h **** }
  30:Drivers/lvgl/lvgl/src/extra/layouts/grid/../flex/../../../core/lv_obj_style_gen.h **** 
  31:Drivers/lvgl/lvgl/src/extra/layouts/grid/../flex/../../../core/lv_obj_style_gen.h **** static inline lv_coord_t lv_obj_get_style_max_height(const struct _lv_obj_t * obj, uint32_t part)
  32:Drivers/lvgl/lvgl/src/extra/layouts/grid/../flex/../../../core/lv_obj_style_gen.h **** {
  33:Drivers/lvgl/lvgl/src/extra/layouts/grid/../flex/../../../core/lv_obj_style_gen.h ****     lv_style_value_t v = lv_obj_get_style_prop(obj, part, LV_STYLE_MAX_HEIGHT);
  34:Drivers/lvgl/lvgl/src/extra/layouts/grid/../flex/../../../core/lv_obj_style_gen.h ****     return (lv_coord_t)v.num;
  35:Drivers/lvgl/lvgl/src/extra/layouts/grid/../flex/../../../core/lv_obj_style_gen.h **** }
  36:Drivers/lvgl/lvgl/src/extra/layouts/grid/../flex/../../../core/lv_obj_style_gen.h **** 
  37:Drivers/lvgl/lvgl/src/extra/layouts/grid/../flex/../../../core/lv_obj_style_gen.h **** static inline lv_coord_t lv_obj_get_style_x(const struct _lv_obj_t * obj, uint32_t part)
  38:Drivers/lvgl/lvgl/src/extra/layouts/grid/../flex/../../../core/lv_obj_style_gen.h **** {
  39:Drivers/lvgl/lvgl/src/extra/layouts/grid/../flex/../../../core/lv_obj_style_gen.h ****     lv_style_value_t v = lv_obj_get_style_prop(obj, part, LV_STYLE_X);
  40:Drivers/lvgl/lvgl/src/extra/layouts/grid/../flex/../../../core/lv_obj_style_gen.h ****     return (lv_coord_t)v.num;
  41:Drivers/lvgl/lvgl/src/extra/layouts/grid/../flex/../../../core/lv_obj_style_gen.h **** }
  42:Drivers/lvgl/lvgl/src/extra/layouts/grid/../flex/../../../core/lv_obj_style_gen.h **** 
  43:Drivers/lvgl/lvgl/src/extra/layouts/grid/../flex/../../../core/lv_obj_style_gen.h **** static inline lv_coord_t lv_obj_get_style_y(const struct _lv_obj_t * obj, uint32_t part)
  44:Drivers/lvgl/lvgl/src/extra/layouts/grid/../flex/../../../core/lv_obj_style_gen.h **** {
  45:Drivers/lvgl/lvgl/src/extra/layouts/grid/../flex/../../../core/lv_obj_style_gen.h ****     lv_style_value_t v = lv_obj_get_style_prop(obj, part, LV_STYLE_Y);
  46:Drivers/lvgl/lvgl/src/extra/layouts/grid/../flex/../../../core/lv_obj_style_gen.h ****     return (lv_coord_t)v.num;
  47:Drivers/lvgl/lvgl/src/extra/layouts/grid/../flex/../../../core/lv_obj_style_gen.h **** }
  48:Drivers/lvgl/lvgl/src/extra/layouts/grid/../flex/../../../core/lv_obj_style_gen.h **** 
  49:Drivers/lvgl/lvgl/src/extra/layouts/grid/../flex/../../../core/lv_obj_style_gen.h **** static inline lv_align_t lv_obj_get_style_align(const struct _lv_obj_t * obj, uint32_t part)
  50:Drivers/lvgl/lvgl/src/extra/layouts/grid/../flex/../../../core/lv_obj_style_gen.h **** {
  51:Drivers/lvgl/lvgl/src/extra/layouts/grid/../flex/../../../core/lv_obj_style_gen.h ****     lv_style_value_t v = lv_obj_get_style_prop(obj, part, LV_STYLE_ALIGN);
  52:Drivers/lvgl/lvgl/src/extra/layouts/grid/../flex/../../../core/lv_obj_style_gen.h ****     return (lv_align_t)v.num;
  53:Drivers/lvgl/lvgl/src/extra/layouts/grid/../flex/../../../core/lv_obj_style_gen.h **** }
  54:Drivers/lvgl/lvgl/src/extra/layouts/grid/../flex/../../../core/lv_obj_style_gen.h **** 
  55:Drivers/lvgl/lvgl/src/extra/layouts/grid/../flex/../../../core/lv_obj_style_gen.h **** static inline lv_coord_t lv_obj_get_style_transform_width(const struct _lv_obj_t * obj, uint32_t pa
  56:Drivers/lvgl/lvgl/src/extra/layouts/grid/../flex/../../../core/lv_obj_style_gen.h **** {
  57:Drivers/lvgl/lvgl/src/extra/layouts/grid/../flex/../../../core/lv_obj_style_gen.h ****     lv_style_value_t v = lv_obj_get_style_prop(obj, part, LV_STYLE_TRANSFORM_WIDTH);
  58:Drivers/lvgl/lvgl/src/extra/layouts/grid/../flex/../../../core/lv_obj_style_gen.h ****     return (lv_coord_t)v.num;
  59:Drivers/lvgl/lvgl/src/extra/layouts/grid/../flex/../../../core/lv_obj_style_gen.h **** }
  60:Drivers/lvgl/lvgl/src/extra/layouts/grid/../flex/../../../core/lv_obj_style_gen.h **** 
  61:Drivers/lvgl/lvgl/src/extra/layouts/grid/../flex/../../../core/lv_obj_style_gen.h **** static inline lv_coord_t lv_obj_get_style_transform_height(const struct _lv_obj_t * obj, uint32_t p
  62:Drivers/lvgl/lvgl/src/extra/layouts/grid/../flex/../../../core/lv_obj_style_gen.h **** {
  63:Drivers/lvgl/lvgl/src/extra/layouts/grid/../flex/../../../core/lv_obj_style_gen.h ****     lv_style_value_t v = lv_obj_get_style_prop(obj, part, LV_STYLE_TRANSFORM_HEIGHT);
  64:Drivers/lvgl/lvgl/src/extra/layouts/grid/../flex/../../../core/lv_obj_style_gen.h ****     return (lv_coord_t)v.num;
  65:Drivers/lvgl/lvgl/src/extra/layouts/grid/../flex/../../../core/lv_obj_style_gen.h **** }
  66:Drivers/lvgl/lvgl/src/extra/layouts/grid/../flex/../../../core/lv_obj_style_gen.h **** 
  67:Drivers/lvgl/lvgl/src/extra/layouts/grid/../flex/../../../core/lv_obj_style_gen.h **** static inline lv_coord_t lv_obj_get_style_translate_x(const struct _lv_obj_t * obj, uint32_t part)
  68:Drivers/lvgl/lvgl/src/extra/layouts/grid/../flex/../../../core/lv_obj_style_gen.h **** {
  69:Drivers/lvgl/lvgl/src/extra/layouts/grid/../flex/../../../core/lv_obj_style_gen.h ****     lv_style_value_t v = lv_obj_get_style_prop(obj, part, LV_STYLE_TRANSLATE_X);
  70:Drivers/lvgl/lvgl/src/extra/layouts/grid/../flex/../../../core/lv_obj_style_gen.h ****     return (lv_coord_t)v.num;
  71:Drivers/lvgl/lvgl/src/extra/layouts/grid/../flex/../../../core/lv_obj_style_gen.h **** }
  72:Drivers/lvgl/lvgl/src/extra/layouts/grid/../flex/../../../core/lv_obj_style_gen.h **** 
  73:Drivers/lvgl/lvgl/src/extra/layouts/grid/../flex/../../../core/lv_obj_style_gen.h **** static inline lv_coord_t lv_obj_get_style_translate_y(const struct _lv_obj_t * obj, uint32_t part)
  74:Drivers/lvgl/lvgl/src/extra/layouts/grid/../flex/../../../core/lv_obj_style_gen.h **** {
  75:Drivers/lvgl/lvgl/src/extra/layouts/grid/../flex/../../../core/lv_obj_style_gen.h ****     lv_style_value_t v = lv_obj_get_style_prop(obj, part, LV_STYLE_TRANSLATE_Y);
  76:Drivers/lvgl/lvgl/src/extra/layouts/grid/../flex/../../../core/lv_obj_style_gen.h ****     return (lv_coord_t)v.num;
  77:Drivers/lvgl/lvgl/src/extra/layouts/grid/../flex/../../../core/lv_obj_style_gen.h **** }
  78:Drivers/lvgl/lvgl/src/extra/layouts/grid/../flex/../../../core/lv_obj_style_gen.h **** 
  79:Drivers/lvgl/lvgl/src/extra/layouts/grid/../flex/../../../core/lv_obj_style_gen.h **** static inline lv_coord_t lv_obj_get_style_transform_zoom(const struct _lv_obj_t * obj, uint32_t par
  80:Drivers/lvgl/lvgl/src/extra/layouts/grid/../flex/../../../core/lv_obj_style_gen.h **** {
  81:Drivers/lvgl/lvgl/src/extra/layouts/grid/../flex/../../../core/lv_obj_style_gen.h ****     lv_style_value_t v = lv_obj_get_style_prop(obj, part, LV_STYLE_TRANSFORM_ZOOM);
  82:Drivers/lvgl/lvgl/src/extra/layouts/grid/../flex/../../../core/lv_obj_style_gen.h ****     return (lv_coord_t)v.num;
  83:Drivers/lvgl/lvgl/src/extra/layouts/grid/../flex/../../../core/lv_obj_style_gen.h **** }
  84:Drivers/lvgl/lvgl/src/extra/layouts/grid/../flex/../../../core/lv_obj_style_gen.h **** 
  85:Drivers/lvgl/lvgl/src/extra/layouts/grid/../flex/../../../core/lv_obj_style_gen.h **** static inline lv_coord_t lv_obj_get_style_transform_angle(const struct _lv_obj_t * obj, uint32_t pa
ARM GAS  /tmp/ccFQgg33.s 			page 30


  86:Drivers/lvgl/lvgl/src/extra/layouts/grid/../flex/../../../core/lv_obj_style_gen.h **** {
  87:Drivers/lvgl/lvgl/src/extra/layouts/grid/../flex/../../../core/lv_obj_style_gen.h ****     lv_style_value_t v = lv_obj_get_style_prop(obj, part, LV_STYLE_TRANSFORM_ANGLE);
  88:Drivers/lvgl/lvgl/src/extra/layouts/grid/../flex/../../../core/lv_obj_style_gen.h ****     return (lv_coord_t)v.num;
  89:Drivers/lvgl/lvgl/src/extra/layouts/grid/../flex/../../../core/lv_obj_style_gen.h **** }
  90:Drivers/lvgl/lvgl/src/extra/layouts/grid/../flex/../../../core/lv_obj_style_gen.h **** 
  91:Drivers/lvgl/lvgl/src/extra/layouts/grid/../flex/../../../core/lv_obj_style_gen.h **** static inline lv_coord_t lv_obj_get_style_transform_pivot_x(const struct _lv_obj_t * obj, uint32_t 
  92:Drivers/lvgl/lvgl/src/extra/layouts/grid/../flex/../../../core/lv_obj_style_gen.h **** {
  93:Drivers/lvgl/lvgl/src/extra/layouts/grid/../flex/../../../core/lv_obj_style_gen.h ****     lv_style_value_t v = lv_obj_get_style_prop(obj, part, LV_STYLE_TRANSFORM_PIVOT_X);
  94:Drivers/lvgl/lvgl/src/extra/layouts/grid/../flex/../../../core/lv_obj_style_gen.h ****     return (lv_coord_t)v.num;
  95:Drivers/lvgl/lvgl/src/extra/layouts/grid/../flex/../../../core/lv_obj_style_gen.h **** }
  96:Drivers/lvgl/lvgl/src/extra/layouts/grid/../flex/../../../core/lv_obj_style_gen.h **** 
  97:Drivers/lvgl/lvgl/src/extra/layouts/grid/../flex/../../../core/lv_obj_style_gen.h **** static inline lv_coord_t lv_obj_get_style_transform_pivot_y(const struct _lv_obj_t * obj, uint32_t 
  98:Drivers/lvgl/lvgl/src/extra/layouts/grid/../flex/../../../core/lv_obj_style_gen.h **** {
  99:Drivers/lvgl/lvgl/src/extra/layouts/grid/../flex/../../../core/lv_obj_style_gen.h ****     lv_style_value_t v = lv_obj_get_style_prop(obj, part, LV_STYLE_TRANSFORM_PIVOT_Y);
 100:Drivers/lvgl/lvgl/src/extra/layouts/grid/../flex/../../../core/lv_obj_style_gen.h ****     return (lv_coord_t)v.num;
 101:Drivers/lvgl/lvgl/src/extra/layouts/grid/../flex/../../../core/lv_obj_style_gen.h **** }
 102:Drivers/lvgl/lvgl/src/extra/layouts/grid/../flex/../../../core/lv_obj_style_gen.h **** 
 103:Drivers/lvgl/lvgl/src/extra/layouts/grid/../flex/../../../core/lv_obj_style_gen.h **** static inline lv_coord_t lv_obj_get_style_pad_top(const struct _lv_obj_t * obj, uint32_t part)
 104:Drivers/lvgl/lvgl/src/extra/layouts/grid/../flex/../../../core/lv_obj_style_gen.h **** {
 105:Drivers/lvgl/lvgl/src/extra/layouts/grid/../flex/../../../core/lv_obj_style_gen.h ****     lv_style_value_t v = lv_obj_get_style_prop(obj, part, LV_STYLE_PAD_TOP);
 106:Drivers/lvgl/lvgl/src/extra/layouts/grid/../flex/../../../core/lv_obj_style_gen.h ****     return (lv_coord_t)v.num;
 107:Drivers/lvgl/lvgl/src/extra/layouts/grid/../flex/../../../core/lv_obj_style_gen.h **** }
 108:Drivers/lvgl/lvgl/src/extra/layouts/grid/../flex/../../../core/lv_obj_style_gen.h **** 
 109:Drivers/lvgl/lvgl/src/extra/layouts/grid/../flex/../../../core/lv_obj_style_gen.h **** static inline lv_coord_t lv_obj_get_style_pad_bottom(const struct _lv_obj_t * obj, uint32_t part)
 110:Drivers/lvgl/lvgl/src/extra/layouts/grid/../flex/../../../core/lv_obj_style_gen.h **** {
 111:Drivers/lvgl/lvgl/src/extra/layouts/grid/../flex/../../../core/lv_obj_style_gen.h ****     lv_style_value_t v = lv_obj_get_style_prop(obj, part, LV_STYLE_PAD_BOTTOM);
 112:Drivers/lvgl/lvgl/src/extra/layouts/grid/../flex/../../../core/lv_obj_style_gen.h ****     return (lv_coord_t)v.num;
 113:Drivers/lvgl/lvgl/src/extra/layouts/grid/../flex/../../../core/lv_obj_style_gen.h **** }
 114:Drivers/lvgl/lvgl/src/extra/layouts/grid/../flex/../../../core/lv_obj_style_gen.h **** 
 115:Drivers/lvgl/lvgl/src/extra/layouts/grid/../flex/../../../core/lv_obj_style_gen.h **** static inline lv_coord_t lv_obj_get_style_pad_left(const struct _lv_obj_t * obj, uint32_t part)
 116:Drivers/lvgl/lvgl/src/extra/layouts/grid/../flex/../../../core/lv_obj_style_gen.h **** {
 117:Drivers/lvgl/lvgl/src/extra/layouts/grid/../flex/../../../core/lv_obj_style_gen.h ****     lv_style_value_t v = lv_obj_get_style_prop(obj, part, LV_STYLE_PAD_LEFT);
 118:Drivers/lvgl/lvgl/src/extra/layouts/grid/../flex/../../../core/lv_obj_style_gen.h ****     return (lv_coord_t)v.num;
 119:Drivers/lvgl/lvgl/src/extra/layouts/grid/../flex/../../../core/lv_obj_style_gen.h **** }
 120:Drivers/lvgl/lvgl/src/extra/layouts/grid/../flex/../../../core/lv_obj_style_gen.h **** 
 121:Drivers/lvgl/lvgl/src/extra/layouts/grid/../flex/../../../core/lv_obj_style_gen.h **** static inline lv_coord_t lv_obj_get_style_pad_right(const struct _lv_obj_t * obj, uint32_t part)
 122:Drivers/lvgl/lvgl/src/extra/layouts/grid/../flex/../../../core/lv_obj_style_gen.h **** {
 123:Drivers/lvgl/lvgl/src/extra/layouts/grid/../flex/../../../core/lv_obj_style_gen.h ****     lv_style_value_t v = lv_obj_get_style_prop(obj, part, LV_STYLE_PAD_RIGHT);
 124:Drivers/lvgl/lvgl/src/extra/layouts/grid/../flex/../../../core/lv_obj_style_gen.h ****     return (lv_coord_t)v.num;
 125:Drivers/lvgl/lvgl/src/extra/layouts/grid/../flex/../../../core/lv_obj_style_gen.h **** }
 126:Drivers/lvgl/lvgl/src/extra/layouts/grid/../flex/../../../core/lv_obj_style_gen.h **** 
 127:Drivers/lvgl/lvgl/src/extra/layouts/grid/../flex/../../../core/lv_obj_style_gen.h **** static inline lv_coord_t lv_obj_get_style_pad_row(const struct _lv_obj_t * obj, uint32_t part)
 128:Drivers/lvgl/lvgl/src/extra/layouts/grid/../flex/../../../core/lv_obj_style_gen.h **** {
 129:Drivers/lvgl/lvgl/src/extra/layouts/grid/../flex/../../../core/lv_obj_style_gen.h ****     lv_style_value_t v = lv_obj_get_style_prop(obj, part, LV_STYLE_PAD_ROW);
 562              		.loc 3 129 0
 563 0108 1422     		movs	r2, #20
 564 010a 0021     		movs	r1, #0
 565 010c 3846     		mov	r0, r7
 566 010e FFF7FEFF 		bl	lv_obj_get_style_prop
 567              	.LVL88:
 130:Drivers/lvgl/lvgl/src/extra/layouts/grid/../flex/../../../core/lv_obj_style_gen.h ****     return (lv_coord_t)v.num;
 568              		.loc 3 130 0
 569 0112 0FFA80F9 		sxth	r9, r0
 570              	.LVL89:
 571              	.LBE154:
 572              	.LBE153:
 553:Drivers/lvgl/lvgl/src/extra/layouts/grid/lv_grid.c ****     lv_coord_t free_h = cont_h - grid_h;
ARM GAS  /tmp/ccFQgg33.s 			page 31


 573              		.loc 1 553 0
 574 0116 3846     		mov	r0, r7
 575 0118 FFF7FEFF 		bl	lv_obj_get_content_height
 576              	.LVL90:
 577 011c 82B2     		uxth	r2, r0
 578 011e 6369     		ldr	r3, [r4, #20]
 579 0120 013B     		subs	r3, r3, #1
 580 0122 19FB03F9 		smulbb	r9, r9, r3
 581 0126 A2EB0902 		sub	r2, r2, r9
 582 012a 92B2     		uxth	r2, r2
 583              	.LVL91:
 554:Drivers/lvgl/lvgl/src/extra/layouts/grid/lv_grid.c ****     if(free_h < 0) free_h = 0;
 584              		.loc 1 554 0
 585 012c A2EB0802 		sub	r2, r2, r8
 586              	.LVL92:
 587 0130 12B2     		sxth	r2, r2
 588              	.LVL93:
 555:Drivers/lvgl/lvgl/src/extra/layouts/grid/lv_grid.c **** 
 589              		.loc 1 555 0
 590 0132 002A     		cmp	r2, #0
 591 0134 04DB     		blt	.L54
 592              	.LVL94:
 593              	.L42:
 558:Drivers/lvgl/lvgl/src/extra/layouts/grid/lv_grid.c ****     for(i = 0; i < c->row_num; i++) {
 594              		.loc 1 558 0
 595 0136 0021     		movs	r1, #0
 557:Drivers/lvgl/lvgl/src/extra/layouts/grid/lv_grid.c ****     int32_t last_fr_x = 0;
 596              		.loc 1 557 0
 597 0138 4FF0FF3C 		mov	ip, #-1
 559:Drivers/lvgl/lvgl/src/extra/layouts/grid/lv_grid.c ****         lv_coord_t x = row_templ[i];
 598              		.loc 1 559 0
 599 013c 0B46     		mov	r3, r1
 600 013e 02E0     		b	.L43
 601              	.LVL95:
 602              	.L54:
 555:Drivers/lvgl/lvgl/src/extra/layouts/grid/lv_grid.c **** 
 603              		.loc 1 555 0
 604 0140 0022     		movs	r2, #0
 605              	.LVL96:
 606 0142 F8E7     		b	.L42
 607              	.LVL97:
 608              	.L44:
 559:Drivers/lvgl/lvgl/src/extra/layouts/grid/lv_grid.c ****         lv_coord_t x = row_templ[i];
 609              		.loc 1 559 0 discriminator 2
 610 0144 0133     		adds	r3, r3, #1
 611              	.LVL98:
 612              	.L43:
 559:Drivers/lvgl/lvgl/src/extra/layouts/grid/lv_grid.c ****         lv_coord_t x = row_templ[i];
 613              		.loc 1 559 0 is_stmt 0 discriminator 1
 614 0146 6069     		ldr	r0, [r4, #20]
 615 0148 9842     		cmp	r0, r3
 616 014a 11D9     		bls	.L55
 617              	.LBB155:
 560:Drivers/lvgl/lvgl/src/extra/layouts/grid/lv_grid.c ****         if(IS_FR(x)) {
 618              		.loc 1 560 0 is_stmt 1
 619 014c 36F91300 		ldrsh	r0, [r6, r3, lsl #1]
 620              	.LVL99:
ARM GAS  /tmp/ccFQgg33.s 			page 32


 561:Drivers/lvgl/lvgl/src/extra/layouts/grid/lv_grid.c ****             lv_coord_t f = GET_FR(x);
 621              		.loc 1 561 0
 622 0150 41F69A77 		movw	r7, #8090
 623 0154 B842     		cmp	r0, r7
 624 0156 F5DD     		ble	.L44
 625              	.LBB156:
 562:Drivers/lvgl/lvgl/src/extra/layouts/grid/lv_grid.c ****             c->h[i] = (free_h * f) / row_fr_cnt;
 626              		.loc 1 562 0
 627 0158 1049     		ldr	r1, .L56+16
 628              	.LVL100:
 629 015a 0144     		add	r1, r1, r0
 630 015c 09B2     		sxth	r1, r1
 563:Drivers/lvgl/lvgl/src/extra/layouts/grid/lv_grid.c ****             last_fr_i = i;
 631              		.loc 1 563 0
 632 015e 01FB02F0 		mul	r0, r1, r2
 633              	.LVL101:
 634 0162 B0FBF5F0 		udiv	r0, r0, r5
 635 0166 E768     		ldr	r7, [r4, #12]
 636 0168 27F81300 		strh	r0, [r7, r3, lsl #1]	@ movhi
 637              	.LVL102:
 564:Drivers/lvgl/lvgl/src/extra/layouts/grid/lv_grid.c ****             last_fr_x = f;
 638              		.loc 1 564 0
 639 016c 9C46     		mov	ip, r3
 640              	.LVL103:
 641 016e E9E7     		b	.L44
 642              	.LVL104:
 643              	.L55:
 644              	.LBE156:
 645              	.LBE155:
 570:Drivers/lvgl/lvgl/src/extra/layouts/grid/lv_grid.c ****         c->h[last_fr_i] = free_h - ((free_h * (row_fr_cnt - last_fr_x)) / row_fr_cnt);
 646              		.loc 1 570 0
 647 0170 BCF1000F 		cmp	ip, #0
 648 0174 08DB     		blt	.L29
 571:Drivers/lvgl/lvgl/src/extra/layouts/grid/lv_grid.c ****     }
 649              		.loc 1 571 0
 650 0176 691A     		subs	r1, r5, r1
 651              	.LVL105:
 652 0178 01FB02F1 		mul	r1, r1, r2
 653 017c B1FBF5F5 		udiv	r5, r1, r5
 654              	.LVL106:
 655 0180 E368     		ldr	r3, [r4, #12]
 656              	.LVL107:
 657 0182 551B     		subs	r5, r2, r5
 658 0184 23F81C50 		strh	r5, [r3, ip, lsl #1]	@ movhi
 659              	.L29:
 573:Drivers/lvgl/lvgl/src/extra/layouts/grid/lv_grid.c **** 
 660              		.loc 1 573 0
 661 0188 BDE8F88F 		pop	{r3, r4, r5, r6, r7, r8, r9, r10, fp, pc}
 662              	.LVL108:
 663              	.L57:
 664              		.align	2
 665              	.L56:
 666 018c 00000000 		.word	LV_STYLE_GRID_ROW_DSC_ARRAY
 667 0190 01000600 		.word	393217
 668 0194 00000000 		.word	LV_STYLE_GRID_CELL_ROW_SPAN
 669 0198 00000000 		.word	LV_STYLE_GRID_CELL_ROW_POS
 670 019c 65E0FFFF 		.word	-8091
ARM GAS  /tmp/ccFQgg33.s 			page 33


 671 01a0 01E0FFFF 		.word	-8191
 672              		.cfi_endproc
 673              	.LFE213:
 675              		.section	.text.calc_cols,"ax",%progbits
 676              		.align	1
 677              		.syntax unified
 678              		.thumb
 679              		.thumb_func
 680              		.fpu fpv5-d16
 682              	calc_cols:
 683              	.LFB212:
 434:Drivers/lvgl/lvgl/src/extra/layouts/grid/lv_grid.c ****     const lv_coord_t * col_templ = get_col_dsc(cont);
 684              		.loc 1 434 0
 685              		.cfi_startproc
 686              		@ args = 0, pretend = 0, frame = 8
 687              		@ frame_needed = 0, uses_anonymous_args = 0
 688              	.LVL109:
 689 0000 2DE9F04F 		push	{r4, r5, r6, r7, r8, r9, r10, fp, lr}
 690              	.LCFI2:
 691              		.cfi_def_cfa_offset 36
 692              		.cfi_offset 4, -36
 693              		.cfi_offset 5, -32
 694              		.cfi_offset 6, -28
 695              		.cfi_offset 7, -24
 696              		.cfi_offset 8, -20
 697              		.cfi_offset 9, -16
 698              		.cfi_offset 10, -12
 699              		.cfi_offset 11, -8
 700              		.cfi_offset 14, -4
 701 0004 83B0     		sub	sp, sp, #12
 702              	.LCFI3:
 703              		.cfi_def_cfa_offset 48
 704 0006 8046     		mov	r8, r0
 705 0008 0C46     		mov	r4, r1
 706              	.LVL110:
 707              	.LBB157:
 708              	.LBB158:
 709              	.LBB159:
 129:Drivers/lvgl/lvgl/src/extra/layouts/grid/../grid/lv_grid.h ****     return (const lv_coord_t *)v.ptr;
 710              		.loc 2 129 0
 711 000a 5E4B     		ldr	r3, .L85
 712 000c 1A88     		ldrh	r2, [r3]
 713 000e 0021     		movs	r1, #0
 714              	.LVL111:
 715 0010 FFF7FEFF 		bl	lv_obj_get_style_prop
 716              	.LVL112:
 717 0014 0746     		mov	r7, r0
 718              	.LVL113:
 719              	.LBE159:
 720              	.LBE158:
 721              	.LBE157:
 436:Drivers/lvgl/lvgl/src/extra/layouts/grid/lv_grid.c **** 
 722              		.loc 1 436 0
 723 0016 4046     		mov	r0, r8
 724 0018 FFF7FEFF 		bl	lv_obj_get_content_width
 725              	.LVL114:
 726 001c 0190     		str	r0, [sp, #4]
ARM GAS  /tmp/ccFQgg33.s 			page 34


 727              	.LVL115:
 438:Drivers/lvgl/lvgl/src/extra/layouts/grid/lv_grid.c ****     c->x = lv_mem_buf_get(sizeof(lv_coord_t) * c->col_num);
 728              		.loc 1 438 0
 729 001e 3846     		mov	r0, r7
 730 0020 FFF7FEFF 		bl	count_tracks
 731              	.LVL116:
 732 0024 2061     		str	r0, [r4, #16]
 439:Drivers/lvgl/lvgl/src/extra/layouts/grid/lv_grid.c ****     c->w = lv_mem_buf_get(sizeof(lv_coord_t) * c->col_num);
 733              		.loc 1 439 0
 734 0026 4000     		lsls	r0, r0, #1
 735 0028 FFF7FEFF 		bl	lv_mem_buf_get
 736              	.LVL117:
 737 002c 2060     		str	r0, [r4]
 440:Drivers/lvgl/lvgl/src/extra/layouts/grid/lv_grid.c **** 
 738              		.loc 1 440 0
 739 002e 2069     		ldr	r0, [r4, #16]
 740 0030 4000     		lsls	r0, r0, #1
 741 0032 FFF7FEFF 		bl	lv_mem_buf_get
 742              	.LVL118:
 743 0036 A060     		str	r0, [r4, #8]
 744              	.LVL119:
 444:Drivers/lvgl/lvgl/src/extra/layouts/grid/lv_grid.c ****         lv_coord_t size = LV_COORD_MIN;
 745              		.loc 1 444 0
 746 0038 0025     		movs	r5, #0
 747 003a 32E0     		b	.L59
 748              	.LVL120:
 749              	.L62:
 750              	.LBB160:
 751              	.LBB161:
 449:Drivers/lvgl/lvgl/src/extra/layouts/grid/lv_grid.c ****                 lv_obj_t * item = lv_obj_get_child(cont, ci);
 752              		.loc 1 449 0 discriminator 2
 753 003c 0136     		adds	r6, r6, #1
 754              	.LVL121:
 755              	.L60:
 449:Drivers/lvgl/lvgl/src/extra/layouts/grid/lv_grid.c ****                 lv_obj_t * item = lv_obj_get_child(cont, ci);
 756              		.loc 1 449 0 is_stmt 0 discriminator 1
 757 003e 4046     		mov	r0, r8
 758 0040 FFF7FEFF 		bl	lv_obj_get_child_cnt
 759              	.LVL122:
 760 0044 B042     		cmp	r0, r6
 761 0046 25D9     		bls	.L79
 762              	.LBB162:
 450:Drivers/lvgl/lvgl/src/extra/layouts/grid/lv_grid.c ****                 if(lv_obj_has_flag_any(item, LV_OBJ_FLAG_IGNORE_LAYOUT | LV_OBJ_FLAG_HIDDEN | LV_OB
 763              		.loc 1 450 0 is_stmt 1
 764 0048 3146     		mov	r1, r6
 765 004a 4046     		mov	r0, r8
 766 004c FFF7FEFF 		bl	lv_obj_get_child
 767              	.LVL123:
 768 0050 8146     		mov	r9, r0
 769              	.LVL124:
 451:Drivers/lvgl/lvgl/src/extra/layouts/grid/lv_grid.c ****                 uint32_t col_span = get_col_span(item);
 770              		.loc 1 451 0
 771 0052 4D49     		ldr	r1, .L85+4
 772 0054 FFF7FEFF 		bl	lv_obj_has_flag_any
 773              	.LVL125:
 774 0058 0028     		cmp	r0, #0
 775 005a EFD1     		bne	.L62
ARM GAS  /tmp/ccFQgg33.s 			page 35


 776              	.LVL126:
 777              	.LBB163:
 778              	.LBB164:
 779              	.LBB165:
 153:Drivers/lvgl/lvgl/src/extra/layouts/grid/../grid/lv_grid.h ****     return (lv_coord_t)v.num;
 780              		.loc 2 153 0
 781 005c 4B4B     		ldr	r3, .L85+8
 782 005e 1A88     		ldrh	r2, [r3]
 783 0060 0021     		movs	r1, #0
 784 0062 4846     		mov	r0, r9
 785 0064 FFF7FEFF 		bl	lv_obj_get_style_prop
 786              	.LVL127:
 787              	.LBE165:
 788              	.LBE164:
 789              	.LBE163:
 453:Drivers/lvgl/lvgl/src/extra/layouts/grid/lv_grid.c **** 
 790              		.loc 1 453 0
 791 0068 C0B2     		uxtb	r0, r0
 792              	.LVL128:
 793 006a 0128     		cmp	r0, #1
 794 006c E6D1     		bne	.L62
 795              	.LVL129:
 796              	.LBB166:
 797              	.LBB167:
 798              	.LBB168:
 147:Drivers/lvgl/lvgl/src/extra/layouts/grid/../grid/lv_grid.h ****     return (lv_coord_t)v.num;
 799              		.loc 2 147 0
 800 006e 484B     		ldr	r3, .L85+12
 801 0070 1A88     		ldrh	r2, [r3]
 802 0072 0021     		movs	r1, #0
 803 0074 4846     		mov	r0, r9
 804 0076 FFF7FEFF 		bl	lv_obj_get_style_prop
 805              	.LVL130:
 806              	.LBE168:
 807              	.LBE167:
 808              	.LBE166:
 455:Drivers/lvgl/lvgl/src/extra/layouts/grid/lv_grid.c ****                 if(col_pos != i) continue;
 809              		.loc 1 455 0
 810 007a C0B2     		uxtb	r0, r0
 811              	.LVL131:
 456:Drivers/lvgl/lvgl/src/extra/layouts/grid/lv_grid.c **** 
 812              		.loc 1 456 0
 813 007c 8542     		cmp	r5, r0
 814 007e DDD1     		bne	.L62
 458:Drivers/lvgl/lvgl/src/extra/layouts/grid/lv_grid.c ****             }
 815              		.loc 1 458 0
 816 0080 4846     		mov	r0, r9
 817              	.LVL132:
 818 0082 FFF7FEFF 		bl	lv_obj_get_width
 819              	.LVL133:
 820 0086 5845     		cmp	r0, fp
 821 0088 D8DB     		blt	.L62
 458:Drivers/lvgl/lvgl/src/extra/layouts/grid/lv_grid.c ****             }
 822              		.loc 1 458 0 is_stmt 0 discriminator 1
 823 008a 4846     		mov	r0, r9
 824 008c FFF7FEFF 		bl	lv_obj_get_width
 825              	.LVL134:
ARM GAS  /tmp/ccFQgg33.s 			page 36


 826 0090 8346     		mov	fp, r0
 827              	.LVL135:
 828 0092 D3E7     		b	.L62
 829              	.LVL136:
 830              	.L79:
 831              	.LBE162:
 460:Drivers/lvgl/lvgl/src/extra/layouts/grid/lv_grid.c ****             else c->w[i] = 0;
 832              		.loc 1 460 0 is_stmt 1
 833 0094 BBF1000F 		cmp	fp, #0
 834 0098 12DB     		blt	.L64
 460:Drivers/lvgl/lvgl/src/extra/layouts/grid/lv_grid.c ****             else c->w[i] = 0;
 835              		.loc 1 460 0 is_stmt 0 discriminator 1
 836 009a A368     		ldr	r3, [r4, #8]
 837 009c 23F80AB0 		strh	fp, [r3, r10]	@ movhi
 838              	.LVL137:
 839              	.L61:
 840              	.LBE161:
 841              	.LBE160:
 444:Drivers/lvgl/lvgl/src/extra/layouts/grid/lv_grid.c ****         lv_coord_t size = LV_COORD_MIN;
 842              		.loc 1 444 0 is_stmt 1 discriminator 2
 843 00a0 0135     		adds	r5, r5, #1
 844              	.LVL138:
 845              	.L59:
 444:Drivers/lvgl/lvgl/src/extra/layouts/grid/lv_grid.c ****         lv_coord_t size = LV_COORD_MIN;
 846              		.loc 1 444 0 is_stmt 0 discriminator 1
 847 00a2 2369     		ldr	r3, [r4, #16]
 848 00a4 AB42     		cmp	r3, r5
 849 00a6 10D9     		bls	.L80
 850              	.LVL139:
 851              	.LBB171:
 446:Drivers/lvgl/lvgl/src/extra/layouts/grid/lv_grid.c ****             /*Check the size of children of this cell*/
 852              		.loc 1 446 0 is_stmt 1
 853 00a8 4FEA450A 		lsl	r10, r5, #1
 854 00ac 37F91520 		ldrsh	r2, [r7, r5, lsl #1]
 855 00b0 41F69A73 		movw	r3, #8090
 856 00b4 9A42     		cmp	r2, r3
 857 00b6 F3D1     		bne	.L61
 858              	.LBB169:
 449:Drivers/lvgl/lvgl/src/extra/layouts/grid/lv_grid.c ****                 lv_obj_t * item = lv_obj_get_child(cont, ci);
 859              		.loc 1 449 0
 860 00b8 0026     		movs	r6, #0
 861              	.LBE169:
 445:Drivers/lvgl/lvgl/src/extra/layouts/grid/lv_grid.c ****         if(IS_CONTENT(col_templ[i])) {
 862              		.loc 1 445 0
 863 00ba DFF8DCB0 		ldr	fp, .L85+20
 864 00be BEE7     		b	.L60
 865              	.LVL140:
 866              	.L64:
 867              	.LBB170:
 461:Drivers/lvgl/lvgl/src/extra/layouts/grid/lv_grid.c ****         }
 868              		.loc 1 461 0
 869 00c0 A368     		ldr	r3, [r4, #8]
 870 00c2 0022     		movs	r2, #0
 871 00c4 23F80A20 		strh	r2, [r3, r10]	@ movhi
 872 00c8 EAE7     		b	.L61
 873              	.LVL141:
 874              	.L80:
ARM GAS  /tmp/ccFQgg33.s 			page 37


 875              	.LBE170:
 876              	.LBE171:
 466:Drivers/lvgl/lvgl/src/extra/layouts/grid/lv_grid.c **** 
 877              		.loc 1 466 0
 878 00ca 0026     		movs	r6, #0
 465:Drivers/lvgl/lvgl/src/extra/layouts/grid/lv_grid.c ****     lv_coord_t grid_w = 0;
 879              		.loc 1 465 0
 880 00cc 3546     		mov	r5, r6
 881              	.LVL142:
 468:Drivers/lvgl/lvgl/src/extra/layouts/grid/lv_grid.c ****         lv_coord_t x = col_templ[i];
 882              		.loc 1 468 0
 883 00ce 3346     		mov	r3, r6
 884 00d0 08E0     		b	.L66
 885              	.LVL143:
 886              	.L67:
 887              	.LBB172:
 473:Drivers/lvgl/lvgl/src/extra/layouts/grid/lv_grid.c ****             grid_w += c->w[i];
 888              		.loc 1 473 0
 889 00d2 41F69A71 		movw	r1, #8090
 890 00d6 8A42     		cmp	r2, r1
 891 00d8 12D0     		beq	.L81
 477:Drivers/lvgl/lvgl/src/extra/layouts/grid/lv_grid.c ****             grid_w += x;
 892              		.loc 1 477 0
 893 00da A168     		ldr	r1, [r4, #8]
 894 00dc 0A52     		strh	r2, [r1, r0]	@ movhi
 478:Drivers/lvgl/lvgl/src/extra/layouts/grid/lv_grid.c ****         }
 895              		.loc 1 478 0
 896 00de 1644     		add	r6, r6, r2
 897              	.LVL144:
 898 00e0 36B2     		sxth	r6, r6
 899              	.LVL145:
 900              	.L68:
 901              	.LBE172:
 468:Drivers/lvgl/lvgl/src/extra/layouts/grid/lv_grid.c ****         lv_coord_t x = col_templ[i];
 902              		.loc 1 468 0 discriminator 2
 903 00e2 0133     		adds	r3, r3, #1
 904              	.LVL146:
 905              	.L66:
 468:Drivers/lvgl/lvgl/src/extra/layouts/grid/lv_grid.c ****         lv_coord_t x = col_templ[i];
 906              		.loc 1 468 0 is_stmt 0 discriminator 1
 907 00e4 2269     		ldr	r2, [r4, #16]
 908 00e6 9A42     		cmp	r2, r3
 909 00e8 0FD9     		bls	.L82
 910              	.LBB173:
 469:Drivers/lvgl/lvgl/src/extra/layouts/grid/lv_grid.c ****         if(IS_FR(x)) {
 911              		.loc 1 469 0 is_stmt 1
 912 00ea 5800     		lsls	r0, r3, #1
 913 00ec 37F91320 		ldrsh	r2, [r7, r3, lsl #1]
 914              	.LVL147:
 470:Drivers/lvgl/lvgl/src/extra/layouts/grid/lv_grid.c ****             col_fr_cnt += GET_FR(x);
 915              		.loc 1 470 0
 916 00f0 41F69A71 		movw	r1, #8090
 917 00f4 8A42     		cmp	r2, r1
 918 00f6 ECDD     		ble	.L67
 471:Drivers/lvgl/lvgl/src/extra/layouts/grid/lv_grid.c ****         }
 919              		.loc 1 471 0
 920 00f8 2A44     		add	r2, r2, r5
ARM GAS  /tmp/ccFQgg33.s 			page 38


 921              	.LVL148:
 922 00fa 264D     		ldr	r5, .L85+16
 923              	.LVL149:
 924 00fc 1544     		add	r5, r5, r2
 925              	.LVL150:
 926 00fe F0E7     		b	.L68
 927              	.LVL151:
 928              	.L81:
 474:Drivers/lvgl/lvgl/src/extra/layouts/grid/lv_grid.c ****         }
 929              		.loc 1 474 0
 930 0100 A268     		ldr	r2, [r4, #8]
 931              	.LVL152:
 932 0102 125A     		ldrh	r2, [r2, r0]
 933 0104 1644     		add	r6, r6, r2
 934              	.LVL153:
 935 0106 36B2     		sxth	r6, r6
 936              	.LVL154:
 937 0108 EBE7     		b	.L68
 938              	.LVL155:
 939              	.L82:
 940              	.LBE173:
 941              	.LBB174:
 942              	.LBB175:
 131:Drivers/lvgl/lvgl/src/extra/layouts/grid/../flex/../../../core/lv_obj_style_gen.h **** }
 132:Drivers/lvgl/lvgl/src/extra/layouts/grid/../flex/../../../core/lv_obj_style_gen.h **** 
 133:Drivers/lvgl/lvgl/src/extra/layouts/grid/../flex/../../../core/lv_obj_style_gen.h **** static inline lv_coord_t lv_obj_get_style_pad_column(const struct _lv_obj_t * obj, uint32_t part)
 134:Drivers/lvgl/lvgl/src/extra/layouts/grid/../flex/../../../core/lv_obj_style_gen.h **** {
 135:Drivers/lvgl/lvgl/src/extra/layouts/grid/../flex/../../../core/lv_obj_style_gen.h ****     lv_style_value_t v = lv_obj_get_style_prop(obj, part, LV_STYLE_PAD_COLUMN);
 943              		.loc 3 135 0
 944 010a 1522     		movs	r2, #21
 945 010c 0021     		movs	r1, #0
 946 010e 4046     		mov	r0, r8
 947 0110 FFF7FEFF 		bl	lv_obj_get_style_prop
 948              	.LVL156:
 949              	.LBE175:
 950              	.LBE174:
 483:Drivers/lvgl/lvgl/src/extra/layouts/grid/lv_grid.c ****     lv_coord_t free_w = cont_w - grid_w;
 951              		.loc 1 483 0
 952 0114 2269     		ldr	r2, [r4, #16]
 953 0116 013A     		subs	r2, r2, #1
 954 0118 10FB02F2 		smulbb	r2, r0, r2
 955 011c 019B     		ldr	r3, [sp, #4]
 956 011e 9A1A     		subs	r2, r3, r2
 957 0120 92B2     		uxth	r2, r2
 958              	.LVL157:
 484:Drivers/lvgl/lvgl/src/extra/layouts/grid/lv_grid.c ****     if(free_w < 0) free_w = 0;
 959              		.loc 1 484 0
 960 0122 961B     		subs	r6, r2, r6
 961              	.LVL158:
 962 0124 36B2     		sxth	r6, r6
 963              	.LVL159:
 485:Drivers/lvgl/lvgl/src/extra/layouts/grid/lv_grid.c **** 
 964              		.loc 1 485 0
 965 0126 002E     		cmp	r6, #0
 966 0128 04DB     		blt	.L83
 967              	.LVL160:
 968              	.L71:
ARM GAS  /tmp/ccFQgg33.s 			page 39


 488:Drivers/lvgl/lvgl/src/extra/layouts/grid/lv_grid.c ****     for(i = 0; i < c->col_num; i++) {
 969              		.loc 1 488 0
 970 012a 0021     		movs	r1, #0
 487:Drivers/lvgl/lvgl/src/extra/layouts/grid/lv_grid.c ****     int32_t last_fr_x = 0;
 971              		.loc 1 487 0
 972 012c 4FF0FF3C 		mov	ip, #-1
 489:Drivers/lvgl/lvgl/src/extra/layouts/grid/lv_grid.c ****         lv_coord_t x = col_templ[i];
 973              		.loc 1 489 0
 974 0130 0B46     		mov	r3, r1
 975 0132 02E0     		b	.L72
 976              	.LVL161:
 977              	.L83:
 485:Drivers/lvgl/lvgl/src/extra/layouts/grid/lv_grid.c **** 
 978              		.loc 1 485 0
 979 0134 0026     		movs	r6, #0
 980              	.LVL162:
 981 0136 F8E7     		b	.L71
 982              	.LVL163:
 983              	.L73:
 489:Drivers/lvgl/lvgl/src/extra/layouts/grid/lv_grid.c ****         lv_coord_t x = col_templ[i];
 984              		.loc 1 489 0 discriminator 2
 985 0138 0133     		adds	r3, r3, #1
 986              	.LVL164:
 987              	.L72:
 489:Drivers/lvgl/lvgl/src/extra/layouts/grid/lv_grid.c ****         lv_coord_t x = col_templ[i];
 988              		.loc 1 489 0 is_stmt 0 discriminator 1
 989 013a 2269     		ldr	r2, [r4, #16]
 990 013c 9A42     		cmp	r2, r3
 991 013e 11D9     		bls	.L84
 992              	.LBB176:
 490:Drivers/lvgl/lvgl/src/extra/layouts/grid/lv_grid.c ****         if(IS_FR(x)) {
 993              		.loc 1 490 0 is_stmt 1
 994 0140 37F91320 		ldrsh	r2, [r7, r3, lsl #1]
 995              	.LVL165:
 491:Drivers/lvgl/lvgl/src/extra/layouts/grid/lv_grid.c ****             lv_coord_t f = GET_FR(x);
 996              		.loc 1 491 0
 997 0144 41F69A70 		movw	r0, #8090
 998 0148 8242     		cmp	r2, r0
 999 014a F5DD     		ble	.L73
 1000              	.LBB177:
 492:Drivers/lvgl/lvgl/src/extra/layouts/grid/lv_grid.c ****             c->w[i] = (free_w * f) / col_fr_cnt;
 1001              		.loc 1 492 0
 1002 014c 1149     		ldr	r1, .L85+16
 1003              	.LVL166:
 1004 014e 1144     		add	r1, r1, r2
 1005 0150 09B2     		sxth	r1, r1
 493:Drivers/lvgl/lvgl/src/extra/layouts/grid/lv_grid.c ****             last_fr_i = i;
 1006              		.loc 1 493 0
 1007 0152 01FB06F2 		mul	r2, r1, r6
 1008              	.LVL167:
 1009 0156 B2FBF5F2 		udiv	r2, r2, r5
 1010 015a A068     		ldr	r0, [r4, #8]
 1011 015c 20F81320 		strh	r2, [r0, r3, lsl #1]	@ movhi
 1012              	.LVL168:
 494:Drivers/lvgl/lvgl/src/extra/layouts/grid/lv_grid.c ****             last_fr_x = f;
 1013              		.loc 1 494 0
 1014 0160 9C46     		mov	ip, r3
ARM GAS  /tmp/ccFQgg33.s 			page 40


 1015              	.LVL169:
 1016 0162 E9E7     		b	.L73
 1017              	.LVL170:
 1018              	.L84:
 1019              	.LBE177:
 1020              	.LBE176:
 500:Drivers/lvgl/lvgl/src/extra/layouts/grid/lv_grid.c ****         c->w[last_fr_i] = free_w - ((free_w * (col_fr_cnt - last_fr_x)) / col_fr_cnt);
 1021              		.loc 1 500 0
 1022 0164 BCF1000F 		cmp	ip, #0
 1023 0168 08DB     		blt	.L58
 501:Drivers/lvgl/lvgl/src/extra/layouts/grid/lv_grid.c ****     }
 1024              		.loc 1 501 0
 1025 016a 691A     		subs	r1, r5, r1
 1026              	.LVL171:
 1027 016c 01FB06F1 		mul	r1, r1, r6
 1028 0170 B1FBF5F5 		udiv	r5, r1, r5
 1029              	.LVL172:
 1030 0174 A368     		ldr	r3, [r4, #8]
 1031              	.LVL173:
 1032 0176 751B     		subs	r5, r6, r5
 1033 0178 23F81C50 		strh	r5, [r3, ip, lsl #1]	@ movhi
 1034              	.L58:
 503:Drivers/lvgl/lvgl/src/extra/layouts/grid/lv_grid.c **** 
 1035              		.loc 1 503 0
 1036 017c 03B0     		add	sp, sp, #12
 1037              	.LCFI4:
 1038              		.cfi_def_cfa_offset 36
 1039              		@ sp needed
 1040 017e BDE8F08F 		pop	{r4, r5, r6, r7, r8, r9, r10, fp, pc}
 1041              	.LVL174:
 1042              	.L86:
 1043 0182 00BF     		.align	2
 1044              	.L85:
 1045 0184 00000000 		.word	LV_STYLE_GRID_COLUMN_DSC_ARRAY
 1046 0188 01000600 		.word	393217
 1047 018c 00000000 		.word	LV_STYLE_GRID_CELL_COLUMN_SPAN
 1048 0190 00000000 		.word	LV_STYLE_GRID_CELL_COLUMN_POS
 1049 0194 65E0FFFF 		.word	-8091
 1050 0198 01E0FFFF 		.word	-8191
 1051              		.cfi_endproc
 1052              	.LFE212:
 1054              		.section	.text.calc,"ax",%progbits
 1055              		.align	1
 1056              		.syntax unified
 1057              		.thumb
 1058              		.thumb_func
 1059              		.fpu fpv5-d16
 1061              	calc:
 1062              	.LFB210:
 392:Drivers/lvgl/lvgl/src/extra/layouts/grid/lv_grid.c ****     if(lv_obj_get_child(cont, 0) == NULL) {
 1063              		.loc 1 392 0
 1064              		.cfi_startproc
 1065              		@ args = 0, pretend = 0, frame = 0
 1066              		@ frame_needed = 0, uses_anonymous_args = 0
 1067              	.LVL175:
 1068 0000 2DE9F04F 		push	{r4, r5, r6, r7, r8, r9, r10, fp, lr}
 1069              	.LCFI5:
ARM GAS  /tmp/ccFQgg33.s 			page 41


 1070              		.cfi_def_cfa_offset 36
 1071              		.cfi_offset 4, -36
 1072              		.cfi_offset 5, -32
 1073              		.cfi_offset 6, -28
 1074              		.cfi_offset 7, -24
 1075              		.cfi_offset 8, -20
 1076              		.cfi_offset 9, -16
 1077              		.cfi_offset 10, -12
 1078              		.cfi_offset 11, -8
 1079              		.cfi_offset 14, -4
 1080 0004 85B0     		sub	sp, sp, #20
 1081              	.LCFI6:
 1082              		.cfi_def_cfa_offset 56
 1083 0006 0446     		mov	r4, r0
 1084 0008 0D46     		mov	r5, r1
 393:Drivers/lvgl/lvgl/src/extra/layouts/grid/lv_grid.c ****         lv_memset_00(calc_out, sizeof(_lv_grid_calc_t));
 1085              		.loc 1 393 0
 1086 000a 0021     		movs	r1, #0
 1087              	.LVL176:
 1088 000c FFF7FEFF 		bl	lv_obj_get_child
 1089              	.LVL177:
 1090 0010 0028     		cmp	r0, #0
 1091 0012 6AD0     		beq	.L97
 398:Drivers/lvgl/lvgl/src/extra/layouts/grid/lv_grid.c ****     calc_cols(cont, calc_out);
 1092              		.loc 1 398 0
 1093 0014 2946     		mov	r1, r5
 1094 0016 2046     		mov	r0, r4
 1095 0018 FFF7FEFF 		bl	calc_rows
 1096              	.LVL178:
 399:Drivers/lvgl/lvgl/src/extra/layouts/grid/lv_grid.c **** 
 1097              		.loc 1 399 0
 1098 001c 2946     		mov	r1, r5
 1099 001e 2046     		mov	r0, r4
 1100 0020 FFF7FEFF 		bl	calc_cols
 1101              	.LVL179:
 1102              	.LBB178:
 1103              	.LBB179:
 1104              		.loc 3 135 0
 1105 0024 1522     		movs	r2, #21
 1106 0026 0021     		movs	r1, #0
 1107 0028 2046     		mov	r0, r4
 1108 002a FFF7FEFF 		bl	lv_obj_get_style_prop
 1109              	.LVL180:
 136:Drivers/lvgl/lvgl/src/extra/layouts/grid/../flex/../../../core/lv_obj_style_gen.h ****     return (lv_coord_t)v.num;
 1110              		.loc 3 136 0
 1111 002e 0FFA80FB 		sxth	fp, r0
 1112              	.LVL181:
 1113              	.LBE179:
 1114              	.LBE178:
 1115              	.LBB180:
 1116              	.LBB181:
 129:Drivers/lvgl/lvgl/src/extra/layouts/grid/../flex/../../../core/lv_obj_style_gen.h ****     return (lv_coord_t)v.num;
 1117              		.loc 3 129 0
 1118 0032 1422     		movs	r2, #20
 1119 0034 0021     		movs	r1, #0
 1120 0036 2046     		mov	r0, r4
 1121 0038 FFF7FEFF 		bl	lv_obj_get_style_prop
ARM GAS  /tmp/ccFQgg33.s 			page 42


 1122              	.LVL182:
 130:Drivers/lvgl/lvgl/src/extra/layouts/grid/../flex/../../../core/lv_obj_style_gen.h **** }
 1123              		.loc 3 130 0
 1124 003c 0FFA80F8 		sxth	r8, r0
 1125              	.LVL183:
 1126              	.LBE181:
 1127              	.LBE180:
 1128              	.LBB182:
 1129              	.LBB183:
 137:Drivers/lvgl/lvgl/src/extra/layouts/grid/../flex/../../../core/lv_obj_style_gen.h **** }
 138:Drivers/lvgl/lvgl/src/extra/layouts/grid/../flex/../../../core/lv_obj_style_gen.h **** 
 139:Drivers/lvgl/lvgl/src/extra/layouts/grid/../flex/../../../core/lv_obj_style_gen.h **** static inline lv_color_t lv_obj_get_style_bg_color(const struct _lv_obj_t * obj, uint32_t part)
 140:Drivers/lvgl/lvgl/src/extra/layouts/grid/../flex/../../../core/lv_obj_style_gen.h **** {
 141:Drivers/lvgl/lvgl/src/extra/layouts/grid/../flex/../../../core/lv_obj_style_gen.h ****     lv_style_value_t v = lv_obj_get_style_prop(obj, part, LV_STYLE_BG_COLOR);
 142:Drivers/lvgl/lvgl/src/extra/layouts/grid/../flex/../../../core/lv_obj_style_gen.h ****     return v.color;
 143:Drivers/lvgl/lvgl/src/extra/layouts/grid/../flex/../../../core/lv_obj_style_gen.h **** }
 144:Drivers/lvgl/lvgl/src/extra/layouts/grid/../flex/../../../core/lv_obj_style_gen.h **** 
 145:Drivers/lvgl/lvgl/src/extra/layouts/grid/../flex/../../../core/lv_obj_style_gen.h **** static inline lv_color_t lv_obj_get_style_bg_color_filtered(const struct _lv_obj_t * obj, uint32_t 
 146:Drivers/lvgl/lvgl/src/extra/layouts/grid/../flex/../../../core/lv_obj_style_gen.h **** {
 147:Drivers/lvgl/lvgl/src/extra/layouts/grid/../flex/../../../core/lv_obj_style_gen.h ****     lv_style_value_t v = _lv_obj_style_apply_color_filter(obj, part, lv_obj_get_style_prop(obj, par
 148:Drivers/lvgl/lvgl/src/extra/layouts/grid/../flex/../../../core/lv_obj_style_gen.h ****     return v.color;
 149:Drivers/lvgl/lvgl/src/extra/layouts/grid/../flex/../../../core/lv_obj_style_gen.h **** }
 150:Drivers/lvgl/lvgl/src/extra/layouts/grid/../flex/../../../core/lv_obj_style_gen.h **** 
 151:Drivers/lvgl/lvgl/src/extra/layouts/grid/../flex/../../../core/lv_obj_style_gen.h **** static inline lv_opa_t lv_obj_get_style_bg_opa(const struct _lv_obj_t * obj, uint32_t part)
 152:Drivers/lvgl/lvgl/src/extra/layouts/grid/../flex/../../../core/lv_obj_style_gen.h **** {
 153:Drivers/lvgl/lvgl/src/extra/layouts/grid/../flex/../../../core/lv_obj_style_gen.h ****     lv_style_value_t v = lv_obj_get_style_prop(obj, part, LV_STYLE_BG_OPA);
 154:Drivers/lvgl/lvgl/src/extra/layouts/grid/../flex/../../../core/lv_obj_style_gen.h ****     return (lv_opa_t)v.num;
 155:Drivers/lvgl/lvgl/src/extra/layouts/grid/../flex/../../../core/lv_obj_style_gen.h **** }
 156:Drivers/lvgl/lvgl/src/extra/layouts/grid/../flex/../../../core/lv_obj_style_gen.h **** 
 157:Drivers/lvgl/lvgl/src/extra/layouts/grid/../flex/../../../core/lv_obj_style_gen.h **** static inline lv_color_t lv_obj_get_style_bg_grad_color(const struct _lv_obj_t * obj, uint32_t part
 158:Drivers/lvgl/lvgl/src/extra/layouts/grid/../flex/../../../core/lv_obj_style_gen.h **** {
 159:Drivers/lvgl/lvgl/src/extra/layouts/grid/../flex/../../../core/lv_obj_style_gen.h ****     lv_style_value_t v = lv_obj_get_style_prop(obj, part, LV_STYLE_BG_GRAD_COLOR);
 160:Drivers/lvgl/lvgl/src/extra/layouts/grid/../flex/../../../core/lv_obj_style_gen.h ****     return v.color;
 161:Drivers/lvgl/lvgl/src/extra/layouts/grid/../flex/../../../core/lv_obj_style_gen.h **** }
 162:Drivers/lvgl/lvgl/src/extra/layouts/grid/../flex/../../../core/lv_obj_style_gen.h **** 
 163:Drivers/lvgl/lvgl/src/extra/layouts/grid/../flex/../../../core/lv_obj_style_gen.h **** static inline lv_color_t lv_obj_get_style_bg_grad_color_filtered(const struct _lv_obj_t * obj, uint
 164:Drivers/lvgl/lvgl/src/extra/layouts/grid/../flex/../../../core/lv_obj_style_gen.h **** {
 165:Drivers/lvgl/lvgl/src/extra/layouts/grid/../flex/../../../core/lv_obj_style_gen.h ****     lv_style_value_t v = _lv_obj_style_apply_color_filter(obj, part, lv_obj_get_style_prop(obj, par
 166:Drivers/lvgl/lvgl/src/extra/layouts/grid/../flex/../../../core/lv_obj_style_gen.h ****     return v.color;
 167:Drivers/lvgl/lvgl/src/extra/layouts/grid/../flex/../../../core/lv_obj_style_gen.h **** }
 168:Drivers/lvgl/lvgl/src/extra/layouts/grid/../flex/../../../core/lv_obj_style_gen.h **** 
 169:Drivers/lvgl/lvgl/src/extra/layouts/grid/../flex/../../../core/lv_obj_style_gen.h **** static inline lv_grad_dir_t lv_obj_get_style_bg_grad_dir(const struct _lv_obj_t * obj, uint32_t par
 170:Drivers/lvgl/lvgl/src/extra/layouts/grid/../flex/../../../core/lv_obj_style_gen.h **** {
 171:Drivers/lvgl/lvgl/src/extra/layouts/grid/../flex/../../../core/lv_obj_style_gen.h ****     lv_style_value_t v = lv_obj_get_style_prop(obj, part, LV_STYLE_BG_GRAD_DIR);
 172:Drivers/lvgl/lvgl/src/extra/layouts/grid/../flex/../../../core/lv_obj_style_gen.h ****     return (lv_grad_dir_t)v.num;
 173:Drivers/lvgl/lvgl/src/extra/layouts/grid/../flex/../../../core/lv_obj_style_gen.h **** }
 174:Drivers/lvgl/lvgl/src/extra/layouts/grid/../flex/../../../core/lv_obj_style_gen.h **** 
 175:Drivers/lvgl/lvgl/src/extra/layouts/grid/../flex/../../../core/lv_obj_style_gen.h **** static inline lv_coord_t lv_obj_get_style_bg_main_stop(const struct _lv_obj_t * obj, uint32_t part)
 176:Drivers/lvgl/lvgl/src/extra/layouts/grid/../flex/../../../core/lv_obj_style_gen.h **** {
 177:Drivers/lvgl/lvgl/src/extra/layouts/grid/../flex/../../../core/lv_obj_style_gen.h ****     lv_style_value_t v = lv_obj_get_style_prop(obj, part, LV_STYLE_BG_MAIN_STOP);
 178:Drivers/lvgl/lvgl/src/extra/layouts/grid/../flex/../../../core/lv_obj_style_gen.h ****     return (lv_coord_t)v.num;
 179:Drivers/lvgl/lvgl/src/extra/layouts/grid/../flex/../../../core/lv_obj_style_gen.h **** }
 180:Drivers/lvgl/lvgl/src/extra/layouts/grid/../flex/../../../core/lv_obj_style_gen.h **** 
 181:Drivers/lvgl/lvgl/src/extra/layouts/grid/../flex/../../../core/lv_obj_style_gen.h **** static inline lv_coord_t lv_obj_get_style_bg_grad_stop(const struct _lv_obj_t * obj, uint32_t part)
 182:Drivers/lvgl/lvgl/src/extra/layouts/grid/../flex/../../../core/lv_obj_style_gen.h **** {
 183:Drivers/lvgl/lvgl/src/extra/layouts/grid/../flex/../../../core/lv_obj_style_gen.h ****     lv_style_value_t v = lv_obj_get_style_prop(obj, part, LV_STYLE_BG_GRAD_STOP);
 184:Drivers/lvgl/lvgl/src/extra/layouts/grid/../flex/../../../core/lv_obj_style_gen.h ****     return (lv_coord_t)v.num;
ARM GAS  /tmp/ccFQgg33.s 			page 43


 185:Drivers/lvgl/lvgl/src/extra/layouts/grid/../flex/../../../core/lv_obj_style_gen.h **** }
 186:Drivers/lvgl/lvgl/src/extra/layouts/grid/../flex/../../../core/lv_obj_style_gen.h **** 
 187:Drivers/lvgl/lvgl/src/extra/layouts/grid/../flex/../../../core/lv_obj_style_gen.h **** static inline const lv_grad_dsc_t * lv_obj_get_style_bg_grad(const struct _lv_obj_t * obj, uint32_t
 188:Drivers/lvgl/lvgl/src/extra/layouts/grid/../flex/../../../core/lv_obj_style_gen.h **** {
 189:Drivers/lvgl/lvgl/src/extra/layouts/grid/../flex/../../../core/lv_obj_style_gen.h ****     lv_style_value_t v = lv_obj_get_style_prop(obj, part, LV_STYLE_BG_GRAD);
 190:Drivers/lvgl/lvgl/src/extra/layouts/grid/../flex/../../../core/lv_obj_style_gen.h ****     return (const lv_grad_dsc_t *)v.ptr;
 191:Drivers/lvgl/lvgl/src/extra/layouts/grid/../flex/../../../core/lv_obj_style_gen.h **** }
 192:Drivers/lvgl/lvgl/src/extra/layouts/grid/../flex/../../../core/lv_obj_style_gen.h **** 
 193:Drivers/lvgl/lvgl/src/extra/layouts/grid/../flex/../../../core/lv_obj_style_gen.h **** static inline lv_dither_mode_t lv_obj_get_style_bg_dither_mode(const struct _lv_obj_t * obj, uint32
 194:Drivers/lvgl/lvgl/src/extra/layouts/grid/../flex/../../../core/lv_obj_style_gen.h **** {
 195:Drivers/lvgl/lvgl/src/extra/layouts/grid/../flex/../../../core/lv_obj_style_gen.h ****     lv_style_value_t v = lv_obj_get_style_prop(obj, part, LV_STYLE_BG_DITHER_MODE);
 196:Drivers/lvgl/lvgl/src/extra/layouts/grid/../flex/../../../core/lv_obj_style_gen.h ****     return (lv_dither_mode_t)v.num;
 197:Drivers/lvgl/lvgl/src/extra/layouts/grid/../flex/../../../core/lv_obj_style_gen.h **** }
 198:Drivers/lvgl/lvgl/src/extra/layouts/grid/../flex/../../../core/lv_obj_style_gen.h **** 
 199:Drivers/lvgl/lvgl/src/extra/layouts/grid/../flex/../../../core/lv_obj_style_gen.h **** static inline const void * lv_obj_get_style_bg_img_src(const struct _lv_obj_t * obj, uint32_t part)
 200:Drivers/lvgl/lvgl/src/extra/layouts/grid/../flex/../../../core/lv_obj_style_gen.h **** {
 201:Drivers/lvgl/lvgl/src/extra/layouts/grid/../flex/../../../core/lv_obj_style_gen.h ****     lv_style_value_t v = lv_obj_get_style_prop(obj, part, LV_STYLE_BG_IMG_SRC);
 202:Drivers/lvgl/lvgl/src/extra/layouts/grid/../flex/../../../core/lv_obj_style_gen.h ****     return (const void *)v.ptr;
 203:Drivers/lvgl/lvgl/src/extra/layouts/grid/../flex/../../../core/lv_obj_style_gen.h **** }
 204:Drivers/lvgl/lvgl/src/extra/layouts/grid/../flex/../../../core/lv_obj_style_gen.h **** 
 205:Drivers/lvgl/lvgl/src/extra/layouts/grid/../flex/../../../core/lv_obj_style_gen.h **** static inline lv_opa_t lv_obj_get_style_bg_img_opa(const struct _lv_obj_t * obj, uint32_t part)
 206:Drivers/lvgl/lvgl/src/extra/layouts/grid/../flex/../../../core/lv_obj_style_gen.h **** {
 207:Drivers/lvgl/lvgl/src/extra/layouts/grid/../flex/../../../core/lv_obj_style_gen.h ****     lv_style_value_t v = lv_obj_get_style_prop(obj, part, LV_STYLE_BG_IMG_OPA);
 208:Drivers/lvgl/lvgl/src/extra/layouts/grid/../flex/../../../core/lv_obj_style_gen.h ****     return (lv_opa_t)v.num;
 209:Drivers/lvgl/lvgl/src/extra/layouts/grid/../flex/../../../core/lv_obj_style_gen.h **** }
 210:Drivers/lvgl/lvgl/src/extra/layouts/grid/../flex/../../../core/lv_obj_style_gen.h **** 
 211:Drivers/lvgl/lvgl/src/extra/layouts/grid/../flex/../../../core/lv_obj_style_gen.h **** static inline lv_color_t lv_obj_get_style_bg_img_recolor(const struct _lv_obj_t * obj, uint32_t par
 212:Drivers/lvgl/lvgl/src/extra/layouts/grid/../flex/../../../core/lv_obj_style_gen.h **** {
 213:Drivers/lvgl/lvgl/src/extra/layouts/grid/../flex/../../../core/lv_obj_style_gen.h ****     lv_style_value_t v = lv_obj_get_style_prop(obj, part, LV_STYLE_BG_IMG_RECOLOR);
 214:Drivers/lvgl/lvgl/src/extra/layouts/grid/../flex/../../../core/lv_obj_style_gen.h ****     return v.color;
 215:Drivers/lvgl/lvgl/src/extra/layouts/grid/../flex/../../../core/lv_obj_style_gen.h **** }
 216:Drivers/lvgl/lvgl/src/extra/layouts/grid/../flex/../../../core/lv_obj_style_gen.h **** 
 217:Drivers/lvgl/lvgl/src/extra/layouts/grid/../flex/../../../core/lv_obj_style_gen.h **** static inline lv_color_t lv_obj_get_style_bg_img_recolor_filtered(const struct _lv_obj_t * obj, uin
 218:Drivers/lvgl/lvgl/src/extra/layouts/grid/../flex/../../../core/lv_obj_style_gen.h **** {
 219:Drivers/lvgl/lvgl/src/extra/layouts/grid/../flex/../../../core/lv_obj_style_gen.h ****     lv_style_value_t v = _lv_obj_style_apply_color_filter(obj, part, lv_obj_get_style_prop(obj, par
 220:Drivers/lvgl/lvgl/src/extra/layouts/grid/../flex/../../../core/lv_obj_style_gen.h ****     return v.color;
 221:Drivers/lvgl/lvgl/src/extra/layouts/grid/../flex/../../../core/lv_obj_style_gen.h **** }
 222:Drivers/lvgl/lvgl/src/extra/layouts/grid/../flex/../../../core/lv_obj_style_gen.h **** 
 223:Drivers/lvgl/lvgl/src/extra/layouts/grid/../flex/../../../core/lv_obj_style_gen.h **** static inline lv_opa_t lv_obj_get_style_bg_img_recolor_opa(const struct _lv_obj_t * obj, uint32_t p
 224:Drivers/lvgl/lvgl/src/extra/layouts/grid/../flex/../../../core/lv_obj_style_gen.h **** {
 225:Drivers/lvgl/lvgl/src/extra/layouts/grid/../flex/../../../core/lv_obj_style_gen.h ****     lv_style_value_t v = lv_obj_get_style_prop(obj, part, LV_STYLE_BG_IMG_RECOLOR_OPA);
 226:Drivers/lvgl/lvgl/src/extra/layouts/grid/../flex/../../../core/lv_obj_style_gen.h ****     return (lv_opa_t)v.num;
 227:Drivers/lvgl/lvgl/src/extra/layouts/grid/../flex/../../../core/lv_obj_style_gen.h **** }
 228:Drivers/lvgl/lvgl/src/extra/layouts/grid/../flex/../../../core/lv_obj_style_gen.h **** 
 229:Drivers/lvgl/lvgl/src/extra/layouts/grid/../flex/../../../core/lv_obj_style_gen.h **** static inline bool lv_obj_get_style_bg_img_tiled(const struct _lv_obj_t * obj, uint32_t part)
 230:Drivers/lvgl/lvgl/src/extra/layouts/grid/../flex/../../../core/lv_obj_style_gen.h **** {
 231:Drivers/lvgl/lvgl/src/extra/layouts/grid/../flex/../../../core/lv_obj_style_gen.h ****     lv_style_value_t v = lv_obj_get_style_prop(obj, part, LV_STYLE_BG_IMG_TILED);
 232:Drivers/lvgl/lvgl/src/extra/layouts/grid/../flex/../../../core/lv_obj_style_gen.h ****     return (bool)v.num;
 233:Drivers/lvgl/lvgl/src/extra/layouts/grid/../flex/../../../core/lv_obj_style_gen.h **** }
 234:Drivers/lvgl/lvgl/src/extra/layouts/grid/../flex/../../../core/lv_obj_style_gen.h **** 
 235:Drivers/lvgl/lvgl/src/extra/layouts/grid/../flex/../../../core/lv_obj_style_gen.h **** static inline lv_color_t lv_obj_get_style_border_color(const struct _lv_obj_t * obj, uint32_t part)
 236:Drivers/lvgl/lvgl/src/extra/layouts/grid/../flex/../../../core/lv_obj_style_gen.h **** {
 237:Drivers/lvgl/lvgl/src/extra/layouts/grid/../flex/../../../core/lv_obj_style_gen.h ****     lv_style_value_t v = lv_obj_get_style_prop(obj, part, LV_STYLE_BORDER_COLOR);
 238:Drivers/lvgl/lvgl/src/extra/layouts/grid/../flex/../../../core/lv_obj_style_gen.h ****     return v.color;
 239:Drivers/lvgl/lvgl/src/extra/layouts/grid/../flex/../../../core/lv_obj_style_gen.h **** }
 240:Drivers/lvgl/lvgl/src/extra/layouts/grid/../flex/../../../core/lv_obj_style_gen.h **** 
 241:Drivers/lvgl/lvgl/src/extra/layouts/grid/../flex/../../../core/lv_obj_style_gen.h **** static inline lv_color_t lv_obj_get_style_border_color_filtered(const struct _lv_obj_t * obj, uint3
ARM GAS  /tmp/ccFQgg33.s 			page 44


 242:Drivers/lvgl/lvgl/src/extra/layouts/grid/../flex/../../../core/lv_obj_style_gen.h **** {
 243:Drivers/lvgl/lvgl/src/extra/layouts/grid/../flex/../../../core/lv_obj_style_gen.h ****     lv_style_value_t v = _lv_obj_style_apply_color_filter(obj, part, lv_obj_get_style_prop(obj, par
 244:Drivers/lvgl/lvgl/src/extra/layouts/grid/../flex/../../../core/lv_obj_style_gen.h ****     return v.color;
 245:Drivers/lvgl/lvgl/src/extra/layouts/grid/../flex/../../../core/lv_obj_style_gen.h **** }
 246:Drivers/lvgl/lvgl/src/extra/layouts/grid/../flex/../../../core/lv_obj_style_gen.h **** 
 247:Drivers/lvgl/lvgl/src/extra/layouts/grid/../flex/../../../core/lv_obj_style_gen.h **** static inline lv_opa_t lv_obj_get_style_border_opa(const struct _lv_obj_t * obj, uint32_t part)
 248:Drivers/lvgl/lvgl/src/extra/layouts/grid/../flex/../../../core/lv_obj_style_gen.h **** {
 249:Drivers/lvgl/lvgl/src/extra/layouts/grid/../flex/../../../core/lv_obj_style_gen.h ****     lv_style_value_t v = lv_obj_get_style_prop(obj, part, LV_STYLE_BORDER_OPA);
 250:Drivers/lvgl/lvgl/src/extra/layouts/grid/../flex/../../../core/lv_obj_style_gen.h ****     return (lv_opa_t)v.num;
 251:Drivers/lvgl/lvgl/src/extra/layouts/grid/../flex/../../../core/lv_obj_style_gen.h **** }
 252:Drivers/lvgl/lvgl/src/extra/layouts/grid/../flex/../../../core/lv_obj_style_gen.h **** 
 253:Drivers/lvgl/lvgl/src/extra/layouts/grid/../flex/../../../core/lv_obj_style_gen.h **** static inline lv_coord_t lv_obj_get_style_border_width(const struct _lv_obj_t * obj, uint32_t part)
 254:Drivers/lvgl/lvgl/src/extra/layouts/grid/../flex/../../../core/lv_obj_style_gen.h **** {
 255:Drivers/lvgl/lvgl/src/extra/layouts/grid/../flex/../../../core/lv_obj_style_gen.h ****     lv_style_value_t v = lv_obj_get_style_prop(obj, part, LV_STYLE_BORDER_WIDTH);
 256:Drivers/lvgl/lvgl/src/extra/layouts/grid/../flex/../../../core/lv_obj_style_gen.h ****     return (lv_coord_t)v.num;
 257:Drivers/lvgl/lvgl/src/extra/layouts/grid/../flex/../../../core/lv_obj_style_gen.h **** }
 258:Drivers/lvgl/lvgl/src/extra/layouts/grid/../flex/../../../core/lv_obj_style_gen.h **** 
 259:Drivers/lvgl/lvgl/src/extra/layouts/grid/../flex/../../../core/lv_obj_style_gen.h **** static inline lv_border_side_t lv_obj_get_style_border_side(const struct _lv_obj_t * obj, uint32_t 
 260:Drivers/lvgl/lvgl/src/extra/layouts/grid/../flex/../../../core/lv_obj_style_gen.h **** {
 261:Drivers/lvgl/lvgl/src/extra/layouts/grid/../flex/../../../core/lv_obj_style_gen.h ****     lv_style_value_t v = lv_obj_get_style_prop(obj, part, LV_STYLE_BORDER_SIDE);
 262:Drivers/lvgl/lvgl/src/extra/layouts/grid/../flex/../../../core/lv_obj_style_gen.h ****     return (lv_border_side_t)v.num;
 263:Drivers/lvgl/lvgl/src/extra/layouts/grid/../flex/../../../core/lv_obj_style_gen.h **** }
 264:Drivers/lvgl/lvgl/src/extra/layouts/grid/../flex/../../../core/lv_obj_style_gen.h **** 
 265:Drivers/lvgl/lvgl/src/extra/layouts/grid/../flex/../../../core/lv_obj_style_gen.h **** static inline bool lv_obj_get_style_border_post(const struct _lv_obj_t * obj, uint32_t part)
 266:Drivers/lvgl/lvgl/src/extra/layouts/grid/../flex/../../../core/lv_obj_style_gen.h **** {
 267:Drivers/lvgl/lvgl/src/extra/layouts/grid/../flex/../../../core/lv_obj_style_gen.h ****     lv_style_value_t v = lv_obj_get_style_prop(obj, part, LV_STYLE_BORDER_POST);
 268:Drivers/lvgl/lvgl/src/extra/layouts/grid/../flex/../../../core/lv_obj_style_gen.h ****     return (bool)v.num;
 269:Drivers/lvgl/lvgl/src/extra/layouts/grid/../flex/../../../core/lv_obj_style_gen.h **** }
 270:Drivers/lvgl/lvgl/src/extra/layouts/grid/../flex/../../../core/lv_obj_style_gen.h **** 
 271:Drivers/lvgl/lvgl/src/extra/layouts/grid/../flex/../../../core/lv_obj_style_gen.h **** static inline lv_coord_t lv_obj_get_style_outline_width(const struct _lv_obj_t * obj, uint32_t part
 272:Drivers/lvgl/lvgl/src/extra/layouts/grid/../flex/../../../core/lv_obj_style_gen.h **** {
 273:Drivers/lvgl/lvgl/src/extra/layouts/grid/../flex/../../../core/lv_obj_style_gen.h ****     lv_style_value_t v = lv_obj_get_style_prop(obj, part, LV_STYLE_OUTLINE_WIDTH);
 274:Drivers/lvgl/lvgl/src/extra/layouts/grid/../flex/../../../core/lv_obj_style_gen.h ****     return (lv_coord_t)v.num;
 275:Drivers/lvgl/lvgl/src/extra/layouts/grid/../flex/../../../core/lv_obj_style_gen.h **** }
 276:Drivers/lvgl/lvgl/src/extra/layouts/grid/../flex/../../../core/lv_obj_style_gen.h **** 
 277:Drivers/lvgl/lvgl/src/extra/layouts/grid/../flex/../../../core/lv_obj_style_gen.h **** static inline lv_color_t lv_obj_get_style_outline_color(const struct _lv_obj_t * obj, uint32_t part
 278:Drivers/lvgl/lvgl/src/extra/layouts/grid/../flex/../../../core/lv_obj_style_gen.h **** {
 279:Drivers/lvgl/lvgl/src/extra/layouts/grid/../flex/../../../core/lv_obj_style_gen.h ****     lv_style_value_t v = lv_obj_get_style_prop(obj, part, LV_STYLE_OUTLINE_COLOR);
 280:Drivers/lvgl/lvgl/src/extra/layouts/grid/../flex/../../../core/lv_obj_style_gen.h ****     return v.color;
 281:Drivers/lvgl/lvgl/src/extra/layouts/grid/../flex/../../../core/lv_obj_style_gen.h **** }
 282:Drivers/lvgl/lvgl/src/extra/layouts/grid/../flex/../../../core/lv_obj_style_gen.h **** 
 283:Drivers/lvgl/lvgl/src/extra/layouts/grid/../flex/../../../core/lv_obj_style_gen.h **** static inline lv_color_t lv_obj_get_style_outline_color_filtered(const struct _lv_obj_t * obj, uint
 284:Drivers/lvgl/lvgl/src/extra/layouts/grid/../flex/../../../core/lv_obj_style_gen.h **** {
 285:Drivers/lvgl/lvgl/src/extra/layouts/grid/../flex/../../../core/lv_obj_style_gen.h ****     lv_style_value_t v = _lv_obj_style_apply_color_filter(obj, part, lv_obj_get_style_prop(obj, par
 286:Drivers/lvgl/lvgl/src/extra/layouts/grid/../flex/../../../core/lv_obj_style_gen.h ****     return v.color;
 287:Drivers/lvgl/lvgl/src/extra/layouts/grid/../flex/../../../core/lv_obj_style_gen.h **** }
 288:Drivers/lvgl/lvgl/src/extra/layouts/grid/../flex/../../../core/lv_obj_style_gen.h **** 
 289:Drivers/lvgl/lvgl/src/extra/layouts/grid/../flex/../../../core/lv_obj_style_gen.h **** static inline lv_opa_t lv_obj_get_style_outline_opa(const struct _lv_obj_t * obj, uint32_t part)
 290:Drivers/lvgl/lvgl/src/extra/layouts/grid/../flex/../../../core/lv_obj_style_gen.h **** {
 291:Drivers/lvgl/lvgl/src/extra/layouts/grid/../flex/../../../core/lv_obj_style_gen.h ****     lv_style_value_t v = lv_obj_get_style_prop(obj, part, LV_STYLE_OUTLINE_OPA);
 292:Drivers/lvgl/lvgl/src/extra/layouts/grid/../flex/../../../core/lv_obj_style_gen.h ****     return (lv_opa_t)v.num;
 293:Drivers/lvgl/lvgl/src/extra/layouts/grid/../flex/../../../core/lv_obj_style_gen.h **** }
 294:Drivers/lvgl/lvgl/src/extra/layouts/grid/../flex/../../../core/lv_obj_style_gen.h **** 
 295:Drivers/lvgl/lvgl/src/extra/layouts/grid/../flex/../../../core/lv_obj_style_gen.h **** static inline lv_coord_t lv_obj_get_style_outline_pad(const struct _lv_obj_t * obj, uint32_t part)
 296:Drivers/lvgl/lvgl/src/extra/layouts/grid/../flex/../../../core/lv_obj_style_gen.h **** {
 297:Drivers/lvgl/lvgl/src/extra/layouts/grid/../flex/../../../core/lv_obj_style_gen.h ****     lv_style_value_t v = lv_obj_get_style_prop(obj, part, LV_STYLE_OUTLINE_PAD);
 298:Drivers/lvgl/lvgl/src/extra/layouts/grid/../flex/../../../core/lv_obj_style_gen.h ****     return (lv_coord_t)v.num;
ARM GAS  /tmp/ccFQgg33.s 			page 45


 299:Drivers/lvgl/lvgl/src/extra/layouts/grid/../flex/../../../core/lv_obj_style_gen.h **** }
 300:Drivers/lvgl/lvgl/src/extra/layouts/grid/../flex/../../../core/lv_obj_style_gen.h **** 
 301:Drivers/lvgl/lvgl/src/extra/layouts/grid/../flex/../../../core/lv_obj_style_gen.h **** static inline lv_coord_t lv_obj_get_style_shadow_width(const struct _lv_obj_t * obj, uint32_t part)
 302:Drivers/lvgl/lvgl/src/extra/layouts/grid/../flex/../../../core/lv_obj_style_gen.h **** {
 303:Drivers/lvgl/lvgl/src/extra/layouts/grid/../flex/../../../core/lv_obj_style_gen.h ****     lv_style_value_t v = lv_obj_get_style_prop(obj, part, LV_STYLE_SHADOW_WIDTH);
 304:Drivers/lvgl/lvgl/src/extra/layouts/grid/../flex/../../../core/lv_obj_style_gen.h ****     return (lv_coord_t)v.num;
 305:Drivers/lvgl/lvgl/src/extra/layouts/grid/../flex/../../../core/lv_obj_style_gen.h **** }
 306:Drivers/lvgl/lvgl/src/extra/layouts/grid/../flex/../../../core/lv_obj_style_gen.h **** 
 307:Drivers/lvgl/lvgl/src/extra/layouts/grid/../flex/../../../core/lv_obj_style_gen.h **** static inline lv_coord_t lv_obj_get_style_shadow_ofs_x(const struct _lv_obj_t * obj, uint32_t part)
 308:Drivers/lvgl/lvgl/src/extra/layouts/grid/../flex/../../../core/lv_obj_style_gen.h **** {
 309:Drivers/lvgl/lvgl/src/extra/layouts/grid/../flex/../../../core/lv_obj_style_gen.h ****     lv_style_value_t v = lv_obj_get_style_prop(obj, part, LV_STYLE_SHADOW_OFS_X);
 310:Drivers/lvgl/lvgl/src/extra/layouts/grid/../flex/../../../core/lv_obj_style_gen.h ****     return (lv_coord_t)v.num;
 311:Drivers/lvgl/lvgl/src/extra/layouts/grid/../flex/../../../core/lv_obj_style_gen.h **** }
 312:Drivers/lvgl/lvgl/src/extra/layouts/grid/../flex/../../../core/lv_obj_style_gen.h **** 
 313:Drivers/lvgl/lvgl/src/extra/layouts/grid/../flex/../../../core/lv_obj_style_gen.h **** static inline lv_coord_t lv_obj_get_style_shadow_ofs_y(const struct _lv_obj_t * obj, uint32_t part)
 314:Drivers/lvgl/lvgl/src/extra/layouts/grid/../flex/../../../core/lv_obj_style_gen.h **** {
 315:Drivers/lvgl/lvgl/src/extra/layouts/grid/../flex/../../../core/lv_obj_style_gen.h ****     lv_style_value_t v = lv_obj_get_style_prop(obj, part, LV_STYLE_SHADOW_OFS_Y);
 316:Drivers/lvgl/lvgl/src/extra/layouts/grid/../flex/../../../core/lv_obj_style_gen.h ****     return (lv_coord_t)v.num;
 317:Drivers/lvgl/lvgl/src/extra/layouts/grid/../flex/../../../core/lv_obj_style_gen.h **** }
 318:Drivers/lvgl/lvgl/src/extra/layouts/grid/../flex/../../../core/lv_obj_style_gen.h **** 
 319:Drivers/lvgl/lvgl/src/extra/layouts/grid/../flex/../../../core/lv_obj_style_gen.h **** static inline lv_coord_t lv_obj_get_style_shadow_spread(const struct _lv_obj_t * obj, uint32_t part
 320:Drivers/lvgl/lvgl/src/extra/layouts/grid/../flex/../../../core/lv_obj_style_gen.h **** {
 321:Drivers/lvgl/lvgl/src/extra/layouts/grid/../flex/../../../core/lv_obj_style_gen.h ****     lv_style_value_t v = lv_obj_get_style_prop(obj, part, LV_STYLE_SHADOW_SPREAD);
 322:Drivers/lvgl/lvgl/src/extra/layouts/grid/../flex/../../../core/lv_obj_style_gen.h ****     return (lv_coord_t)v.num;
 323:Drivers/lvgl/lvgl/src/extra/layouts/grid/../flex/../../../core/lv_obj_style_gen.h **** }
 324:Drivers/lvgl/lvgl/src/extra/layouts/grid/../flex/../../../core/lv_obj_style_gen.h **** 
 325:Drivers/lvgl/lvgl/src/extra/layouts/grid/../flex/../../../core/lv_obj_style_gen.h **** static inline lv_color_t lv_obj_get_style_shadow_color(const struct _lv_obj_t * obj, uint32_t part)
 326:Drivers/lvgl/lvgl/src/extra/layouts/grid/../flex/../../../core/lv_obj_style_gen.h **** {
 327:Drivers/lvgl/lvgl/src/extra/layouts/grid/../flex/../../../core/lv_obj_style_gen.h ****     lv_style_value_t v = lv_obj_get_style_prop(obj, part, LV_STYLE_SHADOW_COLOR);
 328:Drivers/lvgl/lvgl/src/extra/layouts/grid/../flex/../../../core/lv_obj_style_gen.h ****     return v.color;
 329:Drivers/lvgl/lvgl/src/extra/layouts/grid/../flex/../../../core/lv_obj_style_gen.h **** }
 330:Drivers/lvgl/lvgl/src/extra/layouts/grid/../flex/../../../core/lv_obj_style_gen.h **** 
 331:Drivers/lvgl/lvgl/src/extra/layouts/grid/../flex/../../../core/lv_obj_style_gen.h **** static inline lv_color_t lv_obj_get_style_shadow_color_filtered(const struct _lv_obj_t * obj, uint3
 332:Drivers/lvgl/lvgl/src/extra/layouts/grid/../flex/../../../core/lv_obj_style_gen.h **** {
 333:Drivers/lvgl/lvgl/src/extra/layouts/grid/../flex/../../../core/lv_obj_style_gen.h ****     lv_style_value_t v = _lv_obj_style_apply_color_filter(obj, part, lv_obj_get_style_prop(obj, par
 334:Drivers/lvgl/lvgl/src/extra/layouts/grid/../flex/../../../core/lv_obj_style_gen.h ****     return v.color;
 335:Drivers/lvgl/lvgl/src/extra/layouts/grid/../flex/../../../core/lv_obj_style_gen.h **** }
 336:Drivers/lvgl/lvgl/src/extra/layouts/grid/../flex/../../../core/lv_obj_style_gen.h **** 
 337:Drivers/lvgl/lvgl/src/extra/layouts/grid/../flex/../../../core/lv_obj_style_gen.h **** static inline lv_opa_t lv_obj_get_style_shadow_opa(const struct _lv_obj_t * obj, uint32_t part)
 338:Drivers/lvgl/lvgl/src/extra/layouts/grid/../flex/../../../core/lv_obj_style_gen.h **** {
 339:Drivers/lvgl/lvgl/src/extra/layouts/grid/../flex/../../../core/lv_obj_style_gen.h ****     lv_style_value_t v = lv_obj_get_style_prop(obj, part, LV_STYLE_SHADOW_OPA);
 340:Drivers/lvgl/lvgl/src/extra/layouts/grid/../flex/../../../core/lv_obj_style_gen.h ****     return (lv_opa_t)v.num;
 341:Drivers/lvgl/lvgl/src/extra/layouts/grid/../flex/../../../core/lv_obj_style_gen.h **** }
 342:Drivers/lvgl/lvgl/src/extra/layouts/grid/../flex/../../../core/lv_obj_style_gen.h **** 
 343:Drivers/lvgl/lvgl/src/extra/layouts/grid/../flex/../../../core/lv_obj_style_gen.h **** static inline lv_opa_t lv_obj_get_style_img_opa(const struct _lv_obj_t * obj, uint32_t part)
 344:Drivers/lvgl/lvgl/src/extra/layouts/grid/../flex/../../../core/lv_obj_style_gen.h **** {
 345:Drivers/lvgl/lvgl/src/extra/layouts/grid/../flex/../../../core/lv_obj_style_gen.h ****     lv_style_value_t v = lv_obj_get_style_prop(obj, part, LV_STYLE_IMG_OPA);
 346:Drivers/lvgl/lvgl/src/extra/layouts/grid/../flex/../../../core/lv_obj_style_gen.h ****     return (lv_opa_t)v.num;
 347:Drivers/lvgl/lvgl/src/extra/layouts/grid/../flex/../../../core/lv_obj_style_gen.h **** }
 348:Drivers/lvgl/lvgl/src/extra/layouts/grid/../flex/../../../core/lv_obj_style_gen.h **** 
 349:Drivers/lvgl/lvgl/src/extra/layouts/grid/../flex/../../../core/lv_obj_style_gen.h **** static inline lv_color_t lv_obj_get_style_img_recolor(const struct _lv_obj_t * obj, uint32_t part)
 350:Drivers/lvgl/lvgl/src/extra/layouts/grid/../flex/../../../core/lv_obj_style_gen.h **** {
 351:Drivers/lvgl/lvgl/src/extra/layouts/grid/../flex/../../../core/lv_obj_style_gen.h ****     lv_style_value_t v = lv_obj_get_style_prop(obj, part, LV_STYLE_IMG_RECOLOR);
 352:Drivers/lvgl/lvgl/src/extra/layouts/grid/../flex/../../../core/lv_obj_style_gen.h ****     return v.color;
 353:Drivers/lvgl/lvgl/src/extra/layouts/grid/../flex/../../../core/lv_obj_style_gen.h **** }
 354:Drivers/lvgl/lvgl/src/extra/layouts/grid/../flex/../../../core/lv_obj_style_gen.h **** 
 355:Drivers/lvgl/lvgl/src/extra/layouts/grid/../flex/../../../core/lv_obj_style_gen.h **** static inline lv_color_t lv_obj_get_style_img_recolor_filtered(const struct _lv_obj_t * obj, uint32
ARM GAS  /tmp/ccFQgg33.s 			page 46


 356:Drivers/lvgl/lvgl/src/extra/layouts/grid/../flex/../../../core/lv_obj_style_gen.h **** {
 357:Drivers/lvgl/lvgl/src/extra/layouts/grid/../flex/../../../core/lv_obj_style_gen.h ****     lv_style_value_t v = _lv_obj_style_apply_color_filter(obj, part, lv_obj_get_style_prop(obj, par
 358:Drivers/lvgl/lvgl/src/extra/layouts/grid/../flex/../../../core/lv_obj_style_gen.h ****     return v.color;
 359:Drivers/lvgl/lvgl/src/extra/layouts/grid/../flex/../../../core/lv_obj_style_gen.h **** }
 360:Drivers/lvgl/lvgl/src/extra/layouts/grid/../flex/../../../core/lv_obj_style_gen.h **** 
 361:Drivers/lvgl/lvgl/src/extra/layouts/grid/../flex/../../../core/lv_obj_style_gen.h **** static inline lv_opa_t lv_obj_get_style_img_recolor_opa(const struct _lv_obj_t * obj, uint32_t part
 362:Drivers/lvgl/lvgl/src/extra/layouts/grid/../flex/../../../core/lv_obj_style_gen.h **** {
 363:Drivers/lvgl/lvgl/src/extra/layouts/grid/../flex/../../../core/lv_obj_style_gen.h ****     lv_style_value_t v = lv_obj_get_style_prop(obj, part, LV_STYLE_IMG_RECOLOR_OPA);
 364:Drivers/lvgl/lvgl/src/extra/layouts/grid/../flex/../../../core/lv_obj_style_gen.h ****     return (lv_opa_t)v.num;
 365:Drivers/lvgl/lvgl/src/extra/layouts/grid/../flex/../../../core/lv_obj_style_gen.h **** }
 366:Drivers/lvgl/lvgl/src/extra/layouts/grid/../flex/../../../core/lv_obj_style_gen.h **** 
 367:Drivers/lvgl/lvgl/src/extra/layouts/grid/../flex/../../../core/lv_obj_style_gen.h **** static inline lv_coord_t lv_obj_get_style_line_width(const struct _lv_obj_t * obj, uint32_t part)
 368:Drivers/lvgl/lvgl/src/extra/layouts/grid/../flex/../../../core/lv_obj_style_gen.h **** {
 369:Drivers/lvgl/lvgl/src/extra/layouts/grid/../flex/../../../core/lv_obj_style_gen.h ****     lv_style_value_t v = lv_obj_get_style_prop(obj, part, LV_STYLE_LINE_WIDTH);
 370:Drivers/lvgl/lvgl/src/extra/layouts/grid/../flex/../../../core/lv_obj_style_gen.h ****     return (lv_coord_t)v.num;
 371:Drivers/lvgl/lvgl/src/extra/layouts/grid/../flex/../../../core/lv_obj_style_gen.h **** }
 372:Drivers/lvgl/lvgl/src/extra/layouts/grid/../flex/../../../core/lv_obj_style_gen.h **** 
 373:Drivers/lvgl/lvgl/src/extra/layouts/grid/../flex/../../../core/lv_obj_style_gen.h **** static inline lv_coord_t lv_obj_get_style_line_dash_width(const struct _lv_obj_t * obj, uint32_t pa
 374:Drivers/lvgl/lvgl/src/extra/layouts/grid/../flex/../../../core/lv_obj_style_gen.h **** {
 375:Drivers/lvgl/lvgl/src/extra/layouts/grid/../flex/../../../core/lv_obj_style_gen.h ****     lv_style_value_t v = lv_obj_get_style_prop(obj, part, LV_STYLE_LINE_DASH_WIDTH);
 376:Drivers/lvgl/lvgl/src/extra/layouts/grid/../flex/../../../core/lv_obj_style_gen.h ****     return (lv_coord_t)v.num;
 377:Drivers/lvgl/lvgl/src/extra/layouts/grid/../flex/../../../core/lv_obj_style_gen.h **** }
 378:Drivers/lvgl/lvgl/src/extra/layouts/grid/../flex/../../../core/lv_obj_style_gen.h **** 
 379:Drivers/lvgl/lvgl/src/extra/layouts/grid/../flex/../../../core/lv_obj_style_gen.h **** static inline lv_coord_t lv_obj_get_style_line_dash_gap(const struct _lv_obj_t * obj, uint32_t part
 380:Drivers/lvgl/lvgl/src/extra/layouts/grid/../flex/../../../core/lv_obj_style_gen.h **** {
 381:Drivers/lvgl/lvgl/src/extra/layouts/grid/../flex/../../../core/lv_obj_style_gen.h ****     lv_style_value_t v = lv_obj_get_style_prop(obj, part, LV_STYLE_LINE_DASH_GAP);
 382:Drivers/lvgl/lvgl/src/extra/layouts/grid/../flex/../../../core/lv_obj_style_gen.h ****     return (lv_coord_t)v.num;
 383:Drivers/lvgl/lvgl/src/extra/layouts/grid/../flex/../../../core/lv_obj_style_gen.h **** }
 384:Drivers/lvgl/lvgl/src/extra/layouts/grid/../flex/../../../core/lv_obj_style_gen.h **** 
 385:Drivers/lvgl/lvgl/src/extra/layouts/grid/../flex/../../../core/lv_obj_style_gen.h **** static inline bool lv_obj_get_style_line_rounded(const struct _lv_obj_t * obj, uint32_t part)
 386:Drivers/lvgl/lvgl/src/extra/layouts/grid/../flex/../../../core/lv_obj_style_gen.h **** {
 387:Drivers/lvgl/lvgl/src/extra/layouts/grid/../flex/../../../core/lv_obj_style_gen.h ****     lv_style_value_t v = lv_obj_get_style_prop(obj, part, LV_STYLE_LINE_ROUNDED);
 388:Drivers/lvgl/lvgl/src/extra/layouts/grid/../flex/../../../core/lv_obj_style_gen.h ****     return (bool)v.num;
 389:Drivers/lvgl/lvgl/src/extra/layouts/grid/../flex/../../../core/lv_obj_style_gen.h **** }
 390:Drivers/lvgl/lvgl/src/extra/layouts/grid/../flex/../../../core/lv_obj_style_gen.h **** 
 391:Drivers/lvgl/lvgl/src/extra/layouts/grid/../flex/../../../core/lv_obj_style_gen.h **** static inline lv_color_t lv_obj_get_style_line_color(const struct _lv_obj_t * obj, uint32_t part)
 392:Drivers/lvgl/lvgl/src/extra/layouts/grid/../flex/../../../core/lv_obj_style_gen.h **** {
 393:Drivers/lvgl/lvgl/src/extra/layouts/grid/../flex/../../../core/lv_obj_style_gen.h ****     lv_style_value_t v = lv_obj_get_style_prop(obj, part, LV_STYLE_LINE_COLOR);
 394:Drivers/lvgl/lvgl/src/extra/layouts/grid/../flex/../../../core/lv_obj_style_gen.h ****     return v.color;
 395:Drivers/lvgl/lvgl/src/extra/layouts/grid/../flex/../../../core/lv_obj_style_gen.h **** }
 396:Drivers/lvgl/lvgl/src/extra/layouts/grid/../flex/../../../core/lv_obj_style_gen.h **** 
 397:Drivers/lvgl/lvgl/src/extra/layouts/grid/../flex/../../../core/lv_obj_style_gen.h **** static inline lv_color_t lv_obj_get_style_line_color_filtered(const struct _lv_obj_t * obj, uint32_
 398:Drivers/lvgl/lvgl/src/extra/layouts/grid/../flex/../../../core/lv_obj_style_gen.h **** {
 399:Drivers/lvgl/lvgl/src/extra/layouts/grid/../flex/../../../core/lv_obj_style_gen.h ****     lv_style_value_t v = _lv_obj_style_apply_color_filter(obj, part, lv_obj_get_style_prop(obj, par
 400:Drivers/lvgl/lvgl/src/extra/layouts/grid/../flex/../../../core/lv_obj_style_gen.h ****     return v.color;
 401:Drivers/lvgl/lvgl/src/extra/layouts/grid/../flex/../../../core/lv_obj_style_gen.h **** }
 402:Drivers/lvgl/lvgl/src/extra/layouts/grid/../flex/../../../core/lv_obj_style_gen.h **** 
 403:Drivers/lvgl/lvgl/src/extra/layouts/grid/../flex/../../../core/lv_obj_style_gen.h **** static inline lv_opa_t lv_obj_get_style_line_opa(const struct _lv_obj_t * obj, uint32_t part)
 404:Drivers/lvgl/lvgl/src/extra/layouts/grid/../flex/../../../core/lv_obj_style_gen.h **** {
 405:Drivers/lvgl/lvgl/src/extra/layouts/grid/../flex/../../../core/lv_obj_style_gen.h ****     lv_style_value_t v = lv_obj_get_style_prop(obj, part, LV_STYLE_LINE_OPA);
 406:Drivers/lvgl/lvgl/src/extra/layouts/grid/../flex/../../../core/lv_obj_style_gen.h ****     return (lv_opa_t)v.num;
 407:Drivers/lvgl/lvgl/src/extra/layouts/grid/../flex/../../../core/lv_obj_style_gen.h **** }
 408:Drivers/lvgl/lvgl/src/extra/layouts/grid/../flex/../../../core/lv_obj_style_gen.h **** 
 409:Drivers/lvgl/lvgl/src/extra/layouts/grid/../flex/../../../core/lv_obj_style_gen.h **** static inline lv_coord_t lv_obj_get_style_arc_width(const struct _lv_obj_t * obj, uint32_t part)
 410:Drivers/lvgl/lvgl/src/extra/layouts/grid/../flex/../../../core/lv_obj_style_gen.h **** {
 411:Drivers/lvgl/lvgl/src/extra/layouts/grid/../flex/../../../core/lv_obj_style_gen.h ****     lv_style_value_t v = lv_obj_get_style_prop(obj, part, LV_STYLE_ARC_WIDTH);
 412:Drivers/lvgl/lvgl/src/extra/layouts/grid/../flex/../../../core/lv_obj_style_gen.h ****     return (lv_coord_t)v.num;
ARM GAS  /tmp/ccFQgg33.s 			page 47


 413:Drivers/lvgl/lvgl/src/extra/layouts/grid/../flex/../../../core/lv_obj_style_gen.h **** }
 414:Drivers/lvgl/lvgl/src/extra/layouts/grid/../flex/../../../core/lv_obj_style_gen.h **** 
 415:Drivers/lvgl/lvgl/src/extra/layouts/grid/../flex/../../../core/lv_obj_style_gen.h **** static inline bool lv_obj_get_style_arc_rounded(const struct _lv_obj_t * obj, uint32_t part)
 416:Drivers/lvgl/lvgl/src/extra/layouts/grid/../flex/../../../core/lv_obj_style_gen.h **** {
 417:Drivers/lvgl/lvgl/src/extra/layouts/grid/../flex/../../../core/lv_obj_style_gen.h ****     lv_style_value_t v = lv_obj_get_style_prop(obj, part, LV_STYLE_ARC_ROUNDED);
 418:Drivers/lvgl/lvgl/src/extra/layouts/grid/../flex/../../../core/lv_obj_style_gen.h ****     return (bool)v.num;
 419:Drivers/lvgl/lvgl/src/extra/layouts/grid/../flex/../../../core/lv_obj_style_gen.h **** }
 420:Drivers/lvgl/lvgl/src/extra/layouts/grid/../flex/../../../core/lv_obj_style_gen.h **** 
 421:Drivers/lvgl/lvgl/src/extra/layouts/grid/../flex/../../../core/lv_obj_style_gen.h **** static inline lv_color_t lv_obj_get_style_arc_color(const struct _lv_obj_t * obj, uint32_t part)
 422:Drivers/lvgl/lvgl/src/extra/layouts/grid/../flex/../../../core/lv_obj_style_gen.h **** {
 423:Drivers/lvgl/lvgl/src/extra/layouts/grid/../flex/../../../core/lv_obj_style_gen.h ****     lv_style_value_t v = lv_obj_get_style_prop(obj, part, LV_STYLE_ARC_COLOR);
 424:Drivers/lvgl/lvgl/src/extra/layouts/grid/../flex/../../../core/lv_obj_style_gen.h ****     return v.color;
 425:Drivers/lvgl/lvgl/src/extra/layouts/grid/../flex/../../../core/lv_obj_style_gen.h **** }
 426:Drivers/lvgl/lvgl/src/extra/layouts/grid/../flex/../../../core/lv_obj_style_gen.h **** 
 427:Drivers/lvgl/lvgl/src/extra/layouts/grid/../flex/../../../core/lv_obj_style_gen.h **** static inline lv_color_t lv_obj_get_style_arc_color_filtered(const struct _lv_obj_t * obj, uint32_t
 428:Drivers/lvgl/lvgl/src/extra/layouts/grid/../flex/../../../core/lv_obj_style_gen.h **** {
 429:Drivers/lvgl/lvgl/src/extra/layouts/grid/../flex/../../../core/lv_obj_style_gen.h ****     lv_style_value_t v = _lv_obj_style_apply_color_filter(obj, part, lv_obj_get_style_prop(obj, par
 430:Drivers/lvgl/lvgl/src/extra/layouts/grid/../flex/../../../core/lv_obj_style_gen.h ****     return v.color;
 431:Drivers/lvgl/lvgl/src/extra/layouts/grid/../flex/../../../core/lv_obj_style_gen.h **** }
 432:Drivers/lvgl/lvgl/src/extra/layouts/grid/../flex/../../../core/lv_obj_style_gen.h **** 
 433:Drivers/lvgl/lvgl/src/extra/layouts/grid/../flex/../../../core/lv_obj_style_gen.h **** static inline lv_opa_t lv_obj_get_style_arc_opa(const struct _lv_obj_t * obj, uint32_t part)
 434:Drivers/lvgl/lvgl/src/extra/layouts/grid/../flex/../../../core/lv_obj_style_gen.h **** {
 435:Drivers/lvgl/lvgl/src/extra/layouts/grid/../flex/../../../core/lv_obj_style_gen.h ****     lv_style_value_t v = lv_obj_get_style_prop(obj, part, LV_STYLE_ARC_OPA);
 436:Drivers/lvgl/lvgl/src/extra/layouts/grid/../flex/../../../core/lv_obj_style_gen.h ****     return (lv_opa_t)v.num;
 437:Drivers/lvgl/lvgl/src/extra/layouts/grid/../flex/../../../core/lv_obj_style_gen.h **** }
 438:Drivers/lvgl/lvgl/src/extra/layouts/grid/../flex/../../../core/lv_obj_style_gen.h **** 
 439:Drivers/lvgl/lvgl/src/extra/layouts/grid/../flex/../../../core/lv_obj_style_gen.h **** static inline const void * lv_obj_get_style_arc_img_src(const struct _lv_obj_t * obj, uint32_t part
 440:Drivers/lvgl/lvgl/src/extra/layouts/grid/../flex/../../../core/lv_obj_style_gen.h **** {
 441:Drivers/lvgl/lvgl/src/extra/layouts/grid/../flex/../../../core/lv_obj_style_gen.h ****     lv_style_value_t v = lv_obj_get_style_prop(obj, part, LV_STYLE_ARC_IMG_SRC);
 442:Drivers/lvgl/lvgl/src/extra/layouts/grid/../flex/../../../core/lv_obj_style_gen.h ****     return (const void *)v.ptr;
 443:Drivers/lvgl/lvgl/src/extra/layouts/grid/../flex/../../../core/lv_obj_style_gen.h **** }
 444:Drivers/lvgl/lvgl/src/extra/layouts/grid/../flex/../../../core/lv_obj_style_gen.h **** 
 445:Drivers/lvgl/lvgl/src/extra/layouts/grid/../flex/../../../core/lv_obj_style_gen.h **** static inline lv_color_t lv_obj_get_style_text_color(const struct _lv_obj_t * obj, uint32_t part)
 446:Drivers/lvgl/lvgl/src/extra/layouts/grid/../flex/../../../core/lv_obj_style_gen.h **** {
 447:Drivers/lvgl/lvgl/src/extra/layouts/grid/../flex/../../../core/lv_obj_style_gen.h ****     lv_style_value_t v = lv_obj_get_style_prop(obj, part, LV_STYLE_TEXT_COLOR);
 448:Drivers/lvgl/lvgl/src/extra/layouts/grid/../flex/../../../core/lv_obj_style_gen.h ****     return v.color;
 449:Drivers/lvgl/lvgl/src/extra/layouts/grid/../flex/../../../core/lv_obj_style_gen.h **** }
 450:Drivers/lvgl/lvgl/src/extra/layouts/grid/../flex/../../../core/lv_obj_style_gen.h **** 
 451:Drivers/lvgl/lvgl/src/extra/layouts/grid/../flex/../../../core/lv_obj_style_gen.h **** static inline lv_color_t lv_obj_get_style_text_color_filtered(const struct _lv_obj_t * obj, uint32_
 452:Drivers/lvgl/lvgl/src/extra/layouts/grid/../flex/../../../core/lv_obj_style_gen.h **** {
 453:Drivers/lvgl/lvgl/src/extra/layouts/grid/../flex/../../../core/lv_obj_style_gen.h ****     lv_style_value_t v = _lv_obj_style_apply_color_filter(obj, part, lv_obj_get_style_prop(obj, par
 454:Drivers/lvgl/lvgl/src/extra/layouts/grid/../flex/../../../core/lv_obj_style_gen.h ****     return v.color;
 455:Drivers/lvgl/lvgl/src/extra/layouts/grid/../flex/../../../core/lv_obj_style_gen.h **** }
 456:Drivers/lvgl/lvgl/src/extra/layouts/grid/../flex/../../../core/lv_obj_style_gen.h **** 
 457:Drivers/lvgl/lvgl/src/extra/layouts/grid/../flex/../../../core/lv_obj_style_gen.h **** static inline lv_opa_t lv_obj_get_style_text_opa(const struct _lv_obj_t * obj, uint32_t part)
 458:Drivers/lvgl/lvgl/src/extra/layouts/grid/../flex/../../../core/lv_obj_style_gen.h **** {
 459:Drivers/lvgl/lvgl/src/extra/layouts/grid/../flex/../../../core/lv_obj_style_gen.h ****     lv_style_value_t v = lv_obj_get_style_prop(obj, part, LV_STYLE_TEXT_OPA);
 460:Drivers/lvgl/lvgl/src/extra/layouts/grid/../flex/../../../core/lv_obj_style_gen.h ****     return (lv_opa_t)v.num;
 461:Drivers/lvgl/lvgl/src/extra/layouts/grid/../flex/../../../core/lv_obj_style_gen.h **** }
 462:Drivers/lvgl/lvgl/src/extra/layouts/grid/../flex/../../../core/lv_obj_style_gen.h **** 
 463:Drivers/lvgl/lvgl/src/extra/layouts/grid/../flex/../../../core/lv_obj_style_gen.h **** static inline const lv_font_t * lv_obj_get_style_text_font(const struct _lv_obj_t * obj, uint32_t p
 464:Drivers/lvgl/lvgl/src/extra/layouts/grid/../flex/../../../core/lv_obj_style_gen.h **** {
 465:Drivers/lvgl/lvgl/src/extra/layouts/grid/../flex/../../../core/lv_obj_style_gen.h ****     lv_style_value_t v = lv_obj_get_style_prop(obj, part, LV_STYLE_TEXT_FONT);
 466:Drivers/lvgl/lvgl/src/extra/layouts/grid/../flex/../../../core/lv_obj_style_gen.h ****     return (const lv_font_t *)v.ptr;
 467:Drivers/lvgl/lvgl/src/extra/layouts/grid/../flex/../../../core/lv_obj_style_gen.h **** }
 468:Drivers/lvgl/lvgl/src/extra/layouts/grid/../flex/../../../core/lv_obj_style_gen.h **** 
 469:Drivers/lvgl/lvgl/src/extra/layouts/grid/../flex/../../../core/lv_obj_style_gen.h **** static inline lv_coord_t lv_obj_get_style_text_letter_space(const struct _lv_obj_t * obj, uint32_t 
ARM GAS  /tmp/ccFQgg33.s 			page 48


 470:Drivers/lvgl/lvgl/src/extra/layouts/grid/../flex/../../../core/lv_obj_style_gen.h **** {
 471:Drivers/lvgl/lvgl/src/extra/layouts/grid/../flex/../../../core/lv_obj_style_gen.h ****     lv_style_value_t v = lv_obj_get_style_prop(obj, part, LV_STYLE_TEXT_LETTER_SPACE);
 472:Drivers/lvgl/lvgl/src/extra/layouts/grid/../flex/../../../core/lv_obj_style_gen.h ****     return (lv_coord_t)v.num;
 473:Drivers/lvgl/lvgl/src/extra/layouts/grid/../flex/../../../core/lv_obj_style_gen.h **** }
 474:Drivers/lvgl/lvgl/src/extra/layouts/grid/../flex/../../../core/lv_obj_style_gen.h **** 
 475:Drivers/lvgl/lvgl/src/extra/layouts/grid/../flex/../../../core/lv_obj_style_gen.h **** static inline lv_coord_t lv_obj_get_style_text_line_space(const struct _lv_obj_t * obj, uint32_t pa
 476:Drivers/lvgl/lvgl/src/extra/layouts/grid/../flex/../../../core/lv_obj_style_gen.h **** {
 477:Drivers/lvgl/lvgl/src/extra/layouts/grid/../flex/../../../core/lv_obj_style_gen.h ****     lv_style_value_t v = lv_obj_get_style_prop(obj, part, LV_STYLE_TEXT_LINE_SPACE);
 478:Drivers/lvgl/lvgl/src/extra/layouts/grid/../flex/../../../core/lv_obj_style_gen.h ****     return (lv_coord_t)v.num;
 479:Drivers/lvgl/lvgl/src/extra/layouts/grid/../flex/../../../core/lv_obj_style_gen.h **** }
 480:Drivers/lvgl/lvgl/src/extra/layouts/grid/../flex/../../../core/lv_obj_style_gen.h **** 
 481:Drivers/lvgl/lvgl/src/extra/layouts/grid/../flex/../../../core/lv_obj_style_gen.h **** static inline lv_text_decor_t lv_obj_get_style_text_decor(const struct _lv_obj_t * obj, uint32_t pa
 482:Drivers/lvgl/lvgl/src/extra/layouts/grid/../flex/../../../core/lv_obj_style_gen.h **** {
 483:Drivers/lvgl/lvgl/src/extra/layouts/grid/../flex/../../../core/lv_obj_style_gen.h ****     lv_style_value_t v = lv_obj_get_style_prop(obj, part, LV_STYLE_TEXT_DECOR);
 484:Drivers/lvgl/lvgl/src/extra/layouts/grid/../flex/../../../core/lv_obj_style_gen.h ****     return (lv_text_decor_t)v.num;
 485:Drivers/lvgl/lvgl/src/extra/layouts/grid/../flex/../../../core/lv_obj_style_gen.h **** }
 486:Drivers/lvgl/lvgl/src/extra/layouts/grid/../flex/../../../core/lv_obj_style_gen.h **** 
 487:Drivers/lvgl/lvgl/src/extra/layouts/grid/../flex/../../../core/lv_obj_style_gen.h **** static inline lv_text_align_t lv_obj_get_style_text_align(const struct _lv_obj_t * obj, uint32_t pa
 488:Drivers/lvgl/lvgl/src/extra/layouts/grid/../flex/../../../core/lv_obj_style_gen.h **** {
 489:Drivers/lvgl/lvgl/src/extra/layouts/grid/../flex/../../../core/lv_obj_style_gen.h ****     lv_style_value_t v = lv_obj_get_style_prop(obj, part, LV_STYLE_TEXT_ALIGN);
 490:Drivers/lvgl/lvgl/src/extra/layouts/grid/../flex/../../../core/lv_obj_style_gen.h ****     return (lv_text_align_t)v.num;
 491:Drivers/lvgl/lvgl/src/extra/layouts/grid/../flex/../../../core/lv_obj_style_gen.h **** }
 492:Drivers/lvgl/lvgl/src/extra/layouts/grid/../flex/../../../core/lv_obj_style_gen.h **** 
 493:Drivers/lvgl/lvgl/src/extra/layouts/grid/../flex/../../../core/lv_obj_style_gen.h **** static inline lv_coord_t lv_obj_get_style_radius(const struct _lv_obj_t * obj, uint32_t part)
 494:Drivers/lvgl/lvgl/src/extra/layouts/grid/../flex/../../../core/lv_obj_style_gen.h **** {
 495:Drivers/lvgl/lvgl/src/extra/layouts/grid/../flex/../../../core/lv_obj_style_gen.h ****     lv_style_value_t v = lv_obj_get_style_prop(obj, part, LV_STYLE_RADIUS);
 496:Drivers/lvgl/lvgl/src/extra/layouts/grid/../flex/../../../core/lv_obj_style_gen.h ****     return (lv_coord_t)v.num;
 497:Drivers/lvgl/lvgl/src/extra/layouts/grid/../flex/../../../core/lv_obj_style_gen.h **** }
 498:Drivers/lvgl/lvgl/src/extra/layouts/grid/../flex/../../../core/lv_obj_style_gen.h **** 
 499:Drivers/lvgl/lvgl/src/extra/layouts/grid/../flex/../../../core/lv_obj_style_gen.h **** static inline bool lv_obj_get_style_clip_corner(const struct _lv_obj_t * obj, uint32_t part)
 500:Drivers/lvgl/lvgl/src/extra/layouts/grid/../flex/../../../core/lv_obj_style_gen.h **** {
 501:Drivers/lvgl/lvgl/src/extra/layouts/grid/../flex/../../../core/lv_obj_style_gen.h ****     lv_style_value_t v = lv_obj_get_style_prop(obj, part, LV_STYLE_CLIP_CORNER);
 502:Drivers/lvgl/lvgl/src/extra/layouts/grid/../flex/../../../core/lv_obj_style_gen.h ****     return (bool)v.num;
 503:Drivers/lvgl/lvgl/src/extra/layouts/grid/../flex/../../../core/lv_obj_style_gen.h **** }
 504:Drivers/lvgl/lvgl/src/extra/layouts/grid/../flex/../../../core/lv_obj_style_gen.h **** 
 505:Drivers/lvgl/lvgl/src/extra/layouts/grid/../flex/../../../core/lv_obj_style_gen.h **** static inline lv_opa_t lv_obj_get_style_opa(const struct _lv_obj_t * obj, uint32_t part)
 506:Drivers/lvgl/lvgl/src/extra/layouts/grid/../flex/../../../core/lv_obj_style_gen.h **** {
 507:Drivers/lvgl/lvgl/src/extra/layouts/grid/../flex/../../../core/lv_obj_style_gen.h ****     lv_style_value_t v = lv_obj_get_style_prop(obj, part, LV_STYLE_OPA);
 508:Drivers/lvgl/lvgl/src/extra/layouts/grid/../flex/../../../core/lv_obj_style_gen.h ****     return (lv_opa_t)v.num;
 509:Drivers/lvgl/lvgl/src/extra/layouts/grid/../flex/../../../core/lv_obj_style_gen.h **** }
 510:Drivers/lvgl/lvgl/src/extra/layouts/grid/../flex/../../../core/lv_obj_style_gen.h **** 
 511:Drivers/lvgl/lvgl/src/extra/layouts/grid/../flex/../../../core/lv_obj_style_gen.h **** static inline const lv_color_filter_dsc_t * lv_obj_get_style_color_filter_dsc(const struct _lv_obj_
 512:Drivers/lvgl/lvgl/src/extra/layouts/grid/../flex/../../../core/lv_obj_style_gen.h **** {
 513:Drivers/lvgl/lvgl/src/extra/layouts/grid/../flex/../../../core/lv_obj_style_gen.h ****     lv_style_value_t v = lv_obj_get_style_prop(obj, part, LV_STYLE_COLOR_FILTER_DSC);
 514:Drivers/lvgl/lvgl/src/extra/layouts/grid/../flex/../../../core/lv_obj_style_gen.h ****     return (const lv_color_filter_dsc_t *)v.ptr;
 515:Drivers/lvgl/lvgl/src/extra/layouts/grid/../flex/../../../core/lv_obj_style_gen.h **** }
 516:Drivers/lvgl/lvgl/src/extra/layouts/grid/../flex/../../../core/lv_obj_style_gen.h **** 
 517:Drivers/lvgl/lvgl/src/extra/layouts/grid/../flex/../../../core/lv_obj_style_gen.h **** static inline lv_opa_t lv_obj_get_style_color_filter_opa(const struct _lv_obj_t * obj, uint32_t par
 518:Drivers/lvgl/lvgl/src/extra/layouts/grid/../flex/../../../core/lv_obj_style_gen.h **** {
 519:Drivers/lvgl/lvgl/src/extra/layouts/grid/../flex/../../../core/lv_obj_style_gen.h ****     lv_style_value_t v = lv_obj_get_style_prop(obj, part, LV_STYLE_COLOR_FILTER_OPA);
 520:Drivers/lvgl/lvgl/src/extra/layouts/grid/../flex/../../../core/lv_obj_style_gen.h ****     return (lv_opa_t)v.num;
 521:Drivers/lvgl/lvgl/src/extra/layouts/grid/../flex/../../../core/lv_obj_style_gen.h **** }
 522:Drivers/lvgl/lvgl/src/extra/layouts/grid/../flex/../../../core/lv_obj_style_gen.h **** 
 523:Drivers/lvgl/lvgl/src/extra/layouts/grid/../flex/../../../core/lv_obj_style_gen.h **** static inline const lv_anim_t * lv_obj_get_style_anim(const struct _lv_obj_t * obj, uint32_t part)
 524:Drivers/lvgl/lvgl/src/extra/layouts/grid/../flex/../../../core/lv_obj_style_gen.h **** {
 525:Drivers/lvgl/lvgl/src/extra/layouts/grid/../flex/../../../core/lv_obj_style_gen.h ****     lv_style_value_t v = lv_obj_get_style_prop(obj, part, LV_STYLE_ANIM);
 526:Drivers/lvgl/lvgl/src/extra/layouts/grid/../flex/../../../core/lv_obj_style_gen.h ****     return (const lv_anim_t *)v.ptr;
ARM GAS  /tmp/ccFQgg33.s 			page 49


 527:Drivers/lvgl/lvgl/src/extra/layouts/grid/../flex/../../../core/lv_obj_style_gen.h **** }
 528:Drivers/lvgl/lvgl/src/extra/layouts/grid/../flex/../../../core/lv_obj_style_gen.h **** 
 529:Drivers/lvgl/lvgl/src/extra/layouts/grid/../flex/../../../core/lv_obj_style_gen.h **** static inline uint32_t lv_obj_get_style_anim_time(const struct _lv_obj_t * obj, uint32_t part)
 530:Drivers/lvgl/lvgl/src/extra/layouts/grid/../flex/../../../core/lv_obj_style_gen.h **** {
 531:Drivers/lvgl/lvgl/src/extra/layouts/grid/../flex/../../../core/lv_obj_style_gen.h ****     lv_style_value_t v = lv_obj_get_style_prop(obj, part, LV_STYLE_ANIM_TIME);
 532:Drivers/lvgl/lvgl/src/extra/layouts/grid/../flex/../../../core/lv_obj_style_gen.h ****     return (uint32_t)v.num;
 533:Drivers/lvgl/lvgl/src/extra/layouts/grid/../flex/../../../core/lv_obj_style_gen.h **** }
 534:Drivers/lvgl/lvgl/src/extra/layouts/grid/../flex/../../../core/lv_obj_style_gen.h **** 
 535:Drivers/lvgl/lvgl/src/extra/layouts/grid/../flex/../../../core/lv_obj_style_gen.h **** static inline uint32_t lv_obj_get_style_anim_speed(const struct _lv_obj_t * obj, uint32_t part)
 536:Drivers/lvgl/lvgl/src/extra/layouts/grid/../flex/../../../core/lv_obj_style_gen.h **** {
 537:Drivers/lvgl/lvgl/src/extra/layouts/grid/../flex/../../../core/lv_obj_style_gen.h ****     lv_style_value_t v = lv_obj_get_style_prop(obj, part, LV_STYLE_ANIM_SPEED);
 538:Drivers/lvgl/lvgl/src/extra/layouts/grid/../flex/../../../core/lv_obj_style_gen.h ****     return (uint32_t)v.num;
 539:Drivers/lvgl/lvgl/src/extra/layouts/grid/../flex/../../../core/lv_obj_style_gen.h **** }
 540:Drivers/lvgl/lvgl/src/extra/layouts/grid/../flex/../../../core/lv_obj_style_gen.h **** 
 541:Drivers/lvgl/lvgl/src/extra/layouts/grid/../flex/../../../core/lv_obj_style_gen.h **** static inline const lv_style_transition_dsc_t * lv_obj_get_style_transition(const struct _lv_obj_t 
 542:Drivers/lvgl/lvgl/src/extra/layouts/grid/../flex/../../../core/lv_obj_style_gen.h **** {
 543:Drivers/lvgl/lvgl/src/extra/layouts/grid/../flex/../../../core/lv_obj_style_gen.h ****     lv_style_value_t v = lv_obj_get_style_prop(obj, part, LV_STYLE_TRANSITION);
 544:Drivers/lvgl/lvgl/src/extra/layouts/grid/../flex/../../../core/lv_obj_style_gen.h ****     return (const lv_style_transition_dsc_t *)v.ptr;
 545:Drivers/lvgl/lvgl/src/extra/layouts/grid/../flex/../../../core/lv_obj_style_gen.h **** }
 546:Drivers/lvgl/lvgl/src/extra/layouts/grid/../flex/../../../core/lv_obj_style_gen.h **** 
 547:Drivers/lvgl/lvgl/src/extra/layouts/grid/../flex/../../../core/lv_obj_style_gen.h **** static inline lv_blend_mode_t lv_obj_get_style_blend_mode(const struct _lv_obj_t * obj, uint32_t pa
 548:Drivers/lvgl/lvgl/src/extra/layouts/grid/../flex/../../../core/lv_obj_style_gen.h **** {
 549:Drivers/lvgl/lvgl/src/extra/layouts/grid/../flex/../../../core/lv_obj_style_gen.h ****     lv_style_value_t v = lv_obj_get_style_prop(obj, part, LV_STYLE_BLEND_MODE);
 550:Drivers/lvgl/lvgl/src/extra/layouts/grid/../flex/../../../core/lv_obj_style_gen.h ****     return (lv_blend_mode_t)v.num;
 551:Drivers/lvgl/lvgl/src/extra/layouts/grid/../flex/../../../core/lv_obj_style_gen.h **** }
 552:Drivers/lvgl/lvgl/src/extra/layouts/grid/../flex/../../../core/lv_obj_style_gen.h **** 
 553:Drivers/lvgl/lvgl/src/extra/layouts/grid/../flex/../../../core/lv_obj_style_gen.h **** static inline uint16_t lv_obj_get_style_layout(const struct _lv_obj_t * obj, uint32_t part)
 554:Drivers/lvgl/lvgl/src/extra/layouts/grid/../flex/../../../core/lv_obj_style_gen.h **** {
 555:Drivers/lvgl/lvgl/src/extra/layouts/grid/../flex/../../../core/lv_obj_style_gen.h ****     lv_style_value_t v = lv_obj_get_style_prop(obj, part, LV_STYLE_LAYOUT);
 556:Drivers/lvgl/lvgl/src/extra/layouts/grid/../flex/../../../core/lv_obj_style_gen.h ****     return (uint16_t)v.num;
 557:Drivers/lvgl/lvgl/src/extra/layouts/grid/../flex/../../../core/lv_obj_style_gen.h **** }
 558:Drivers/lvgl/lvgl/src/extra/layouts/grid/../flex/../../../core/lv_obj_style_gen.h **** 
 559:Drivers/lvgl/lvgl/src/extra/layouts/grid/../flex/../../../core/lv_obj_style_gen.h **** static inline lv_base_dir_t lv_obj_get_style_base_dir(const struct _lv_obj_t * obj, uint32_t part)
 560:Drivers/lvgl/lvgl/src/extra/layouts/grid/../flex/../../../core/lv_obj_style_gen.h **** {
 561:Drivers/lvgl/lvgl/src/extra/layouts/grid/../flex/../../../core/lv_obj_style_gen.h ****     lv_style_value_t v = lv_obj_get_style_prop(obj, part, LV_STYLE_BASE_DIR);
 1130              		.loc 3 561 0
 1131 0040 1622     		movs	r2, #22
 1132 0042 0021     		movs	r1, #0
 1133 0044 2046     		mov	r0, r4
 1134 0046 FFF7FEFF 		bl	lv_obj_get_style_prop
 1135              	.LVL184:
 562:Drivers/lvgl/lvgl/src/extra/layouts/grid/../flex/../../../core/lv_obj_style_gen.h ****     return (lv_base_dir_t)v.num;
 1136              		.loc 3 562 0
 1137 004a C0B2     		uxtb	r0, r0
 1138              	.LVL185:
 1139              	.LBE183:
 1140              	.LBE182:
 404:Drivers/lvgl/lvgl/src/extra/layouts/grid/lv_grid.c **** 
 1141              		.loc 1 404 0
 1142 004c 0128     		cmp	r0, #1
 1143 004e 14BF     		ite	ne
 1144 0050 0026     		movne	r6, #0
 1145 0052 0126     		moveq	r6, #1
 1146              	.LVL186:
 1147              	.LBB184:
 1148              	.LBB185:
   3:Drivers/lvgl/lvgl/src/extra/layouts/grid/../flex/../../../core/lv_obj_style_gen.h ****     return (lv_coord_t)v.num;
ARM GAS  /tmp/ccFQgg33.s 			page 50


 1149              		.loc 3 3 0
 1150 0054 0122     		movs	r2, #1
 1151 0056 0021     		movs	r1, #0
 1152 0058 2046     		mov	r0, r4
 1153 005a FFF7FEFF 		bl	lv_obj_get_style_prop
 1154              	.LVL187:
   4:Drivers/lvgl/lvgl/src/extra/layouts/grid/../flex/../../../core/lv_obj_style_gen.h **** }
 1155              		.loc 3 4 0
 1156 005e 07B2     		sxth	r7, r0
 1157              	.LVL188:
 1158              	.LBE185:
 1159              	.LBE184:
 1160              	.LBB186:
 1161              	.LBB187:
  21:Drivers/lvgl/lvgl/src/extra/layouts/grid/../flex/../../../core/lv_obj_style_gen.h ****     return (lv_coord_t)v.num;
 1162              		.loc 3 21 0
 1163 0060 0422     		movs	r2, #4
 1164 0062 0021     		movs	r1, #0
 1165 0064 2046     		mov	r0, r4
 1166 0066 FFF7FEFF 		bl	lv_obj_get_style_prop
 1167              	.LVL189:
  22:Drivers/lvgl/lvgl/src/extra/layouts/grid/../flex/../../../core/lv_obj_style_gen.h **** }
 1168              		.loc 3 22 0
 1169 006a 0FFA80F9 		sxth	r9, r0
 1170              	.LVL190:
 1171              	.LBE187:
 1172              	.LBE186:
 408:Drivers/lvgl/lvgl/src/extra/layouts/grid/lv_grid.c ****     lv_coord_t cont_w = lv_obj_get_content_width(cont);
 1173              		.loc 1 408 0
 1174 006e 42F2D173 		movw	r3, #10193
 1175 0072 9F42     		cmp	r7, r3
 1176 0074 3ED0     		beq	.L98
 1177 0076 0027     		movs	r7, #0
 1178              	.L90:
 1179              	.LVL191:
 409:Drivers/lvgl/lvgl/src/extra/layouts/grid/lv_grid.c ****     calc_out->grid_w = grid_align(cont_w, auto_w, get_grid_col_align(cont), col_gap, calc_out->col_
 1180              		.loc 1 409 0 discriminator 6
 1181 0078 2046     		mov	r0, r4
 1182 007a FFF7FEFF 		bl	lv_obj_get_content_width
 1183              	.LVL192:
 1184 007e 8246     		mov	r10, r0
 1185              	.LVL193:
 1186              	.LBB188:
 1187              	.LBB189:
 1188              	.LBB190:
 141:Drivers/lvgl/lvgl/src/extra/layouts/grid/../grid/lv_grid.h ****     return (lv_grid_align_t)v.num;
 1189              		.loc 2 141 0 discriminator 6
 1190 0080 254B     		ldr	r3, .L100
 1191 0082 1A88     		ldrh	r2, [r3]
 1192 0084 0021     		movs	r1, #0
 1193 0086 2046     		mov	r0, r4
 1194 0088 FFF7FEFF 		bl	lv_obj_get_style_prop
 1195              	.LVL194:
 1196              	.LBE190:
 1197              	.LBE189:
 1198              	.LBE188:
 410:Drivers/lvgl/lvgl/src/extra/layouts/grid/lv_grid.c ****                                   calc_out->x, rev);
ARM GAS  /tmp/ccFQgg33.s 			page 51


 1199              		.loc 1 410 0 discriminator 6
 1200 008c 0396     		str	r6, [sp, #12]
 1201 008e 2B68     		ldr	r3, [r5]
 1202 0090 0293     		str	r3, [sp, #8]
 1203 0092 AB68     		ldr	r3, [r5, #8]
 1204 0094 0193     		str	r3, [sp, #4]
 1205 0096 2B69     		ldr	r3, [r5, #16]
 1206 0098 0093     		str	r3, [sp]
 1207 009a 5B46     		mov	r3, fp
 1208 009c C2B2     		uxtb	r2, r0
 1209 009e 3946     		mov	r1, r7
 1210 00a0 5046     		mov	r0, r10
 1211 00a2 FFF7FEFF 		bl	grid_align
 1212              	.LVL195:
 1213 00a6 2883     		strh	r0, [r5, #24]	@ movhi
 413:Drivers/lvgl/lvgl/src/extra/layouts/grid/lv_grid.c ****     lv_coord_t cont_h = lv_obj_get_content_height(cont);
 1214              		.loc 1 413 0 discriminator 6
 1215 00a8 42F2D173 		movw	r3, #10193
 1216 00ac 9945     		cmp	r9, r3
 1217 00ae 2AD0     		beq	.L99
 413:Drivers/lvgl/lvgl/src/extra/layouts/grid/lv_grid.c ****     lv_coord_t cont_h = lv_obj_get_content_height(cont);
 1218              		.loc 1 413 0 is_stmt 0
 1219 00b0 0026     		movs	r6, #0
 1220              	.LVL196:
 1221              	.L91:
 414:Drivers/lvgl/lvgl/src/extra/layouts/grid/lv_grid.c ****     calc_out->grid_h = grid_align(cont_h, auto_h, get_grid_row_align(cont), row_gap, calc_out->row_
 1222              		.loc 1 414 0 is_stmt 1 discriminator 6
 1223 00b2 2046     		mov	r0, r4
 1224 00b4 FFF7FEFF 		bl	lv_obj_get_content_height
 1225              	.LVL197:
 1226 00b8 0746     		mov	r7, r0
 1227              	.LVL198:
 1228              	.LBB191:
 1229              	.LBB192:
 1230              	.LBB193:
 135:Drivers/lvgl/lvgl/src/extra/layouts/grid/../grid/lv_grid.h ****     return (lv_grid_align_t)v.num;
 1231              		.loc 2 135 0 discriminator 6
 1232 00ba 184B     		ldr	r3, .L100+4
 1233 00bc 1A88     		ldrh	r2, [r3]
 1234 00be 0021     		movs	r1, #0
 1235 00c0 2046     		mov	r0, r4
 1236 00c2 FFF7FEFF 		bl	lv_obj_get_style_prop
 1237              	.LVL199:
 1238              	.LBE193:
 1239              	.LBE192:
 1240              	.LBE191:
 415:Drivers/lvgl/lvgl/src/extra/layouts/grid/lv_grid.c ****                                   calc_out->y, false);
 1241              		.loc 1 415 0 discriminator 6
 1242 00c6 0023     		movs	r3, #0
 1243 00c8 0393     		str	r3, [sp, #12]
 1244 00ca 6B68     		ldr	r3, [r5, #4]
 1245 00cc 0293     		str	r3, [sp, #8]
 1246 00ce EB68     		ldr	r3, [r5, #12]
 1247 00d0 0193     		str	r3, [sp, #4]
 1248 00d2 6B69     		ldr	r3, [r5, #20]
 1249 00d4 0093     		str	r3, [sp]
 1250 00d6 4346     		mov	r3, r8
ARM GAS  /tmp/ccFQgg33.s 			page 52


 1251 00d8 C2B2     		uxtb	r2, r0
 1252 00da 3146     		mov	r1, r6
 1253 00dc 3846     		mov	r0, r7
 1254 00de FFF7FEFF 		bl	grid_align
 1255              	.LVL200:
 1256 00e2 6883     		strh	r0, [r5, #26]	@ movhi
 1257              	.LVL201:
 1258              	.L87:
 419:Drivers/lvgl/lvgl/src/extra/layouts/grid/lv_grid.c **** 
 1259              		.loc 1 419 0
 1260 00e4 05B0     		add	sp, sp, #20
 1261              	.LCFI7:
 1262              		.cfi_remember_state
 1263              		.cfi_def_cfa_offset 36
 1264              		@ sp needed
 1265 00e6 BDE8F08F 		pop	{r4, r5, r6, r7, r8, r9, r10, fp, pc}
 1266              	.LVL202:
 1267              	.L97:
 1268              	.LCFI8:
 1269              		.cfi_restore_state
 394:Drivers/lvgl/lvgl/src/extra/layouts/grid/lv_grid.c ****         return;
 1270              		.loc 1 394 0
 1271 00ea 1C21     		movs	r1, #28
 1272 00ec 2846     		mov	r0, r5
 1273 00ee FFF7FEFF 		bl	lv_memset_00
 1274              	.LVL203:
 395:Drivers/lvgl/lvgl/src/extra/layouts/grid/lv_grid.c ****     }
 1275              		.loc 1 395 0
 1276 00f2 F7E7     		b	.L87
 1277              	.LVL204:
 1278              	.L98:
 408:Drivers/lvgl/lvgl/src/extra/layouts/grid/lv_grid.c ****     lv_coord_t cont_w = lv_obj_get_content_width(cont);
 1279              		.loc 1 408 0 discriminator 1
 1280 00f4 94F82330 		ldrb	r3, [r4, #35]	@ zero_extendqisi2
 1281 00f8 13F0040F 		tst	r3, #4
 1282 00fc 01D0     		beq	.L93
 408:Drivers/lvgl/lvgl/src/extra/layouts/grid/lv_grid.c ****     lv_coord_t cont_w = lv_obj_get_content_width(cont);
 1283              		.loc 1 408 0 is_stmt 0
 1284 00fe 0027     		movs	r7, #0
 1285 0100 BAE7     		b	.L90
 1286              	.L93:
 1287 0102 0127     		movs	r7, #1
 1288 0104 B8E7     		b	.L90
 1289              	.LVL205:
 1290              	.L99:
 413:Drivers/lvgl/lvgl/src/extra/layouts/grid/lv_grid.c ****     lv_coord_t cont_h = lv_obj_get_content_height(cont);
 1291              		.loc 1 413 0 is_stmt 1 discriminator 1
 1292 0106 94F82330 		ldrb	r3, [r4, #35]	@ zero_extendqisi2
 1293 010a 13F0020F 		tst	r3, #2
 1294 010e 01D0     		beq	.L95
 413:Drivers/lvgl/lvgl/src/extra/layouts/grid/lv_grid.c ****     lv_coord_t cont_h = lv_obj_get_content_height(cont);
 1295              		.loc 1 413 0 is_stmt 0
 1296 0110 0026     		movs	r6, #0
 1297              	.LVL206:
 1298 0112 CEE7     		b	.L91
 1299              	.LVL207:
 1300              	.L95:
ARM GAS  /tmp/ccFQgg33.s 			page 53


 1301 0114 0126     		movs	r6, #1
 1302              	.LVL208:
 1303 0116 CCE7     		b	.L91
 1304              	.L101:
 1305              		.align	2
 1306              	.L100:
 1307 0118 00000000 		.word	LV_STYLE_GRID_COLUMN_ALIGN
 1308 011c 00000000 		.word	LV_STYLE_GRID_ROW_ALIGN
 1309              		.cfi_endproc
 1310              	.LFE210:
 1312              		.section	.text.item_repos,"ax",%progbits
 1313              		.align	1
 1314              		.syntax unified
 1315              		.thumb
 1316              		.thumb_func
 1317              		.fpu fpv5-d16
 1319              	item_repos:
 1320              	.LFB214:
 583:Drivers/lvgl/lvgl/src/extra/layouts/grid/lv_grid.c ****     if(lv_obj_has_flag_any(item, LV_OBJ_FLAG_IGNORE_LAYOUT | LV_OBJ_FLAG_HIDDEN | LV_OBJ_FLAG_FLOAT
 1321              		.loc 1 583 0 is_stmt 1
 1322              		.cfi_startproc
 1323              		@ args = 0, pretend = 0, frame = 32
 1324              		@ frame_needed = 0, uses_anonymous_args = 0
 1325              	.LVL209:
 1326 0000 2DE9F04F 		push	{r4, r5, r6, r7, r8, r9, r10, fp, lr}
 1327              	.LCFI9:
 1328              		.cfi_def_cfa_offset 36
 1329              		.cfi_offset 4, -36
 1330              		.cfi_offset 5, -32
 1331              		.cfi_offset 6, -28
 1332              		.cfi_offset 7, -24
 1333              		.cfi_offset 8, -20
 1334              		.cfi_offset 9, -16
 1335              		.cfi_offset 10, -12
 1336              		.cfi_offset 11, -8
 1337              		.cfi_offset 14, -4
 1338 0004 89B0     		sub	sp, sp, #36
 1339              	.LCFI10:
 1340              		.cfi_def_cfa_offset 72
 1341 0006 0446     		mov	r4, r0
 1342 0008 0D46     		mov	r5, r1
 1343 000a 9046     		mov	r8, r2
 584:Drivers/lvgl/lvgl/src/extra/layouts/grid/lv_grid.c ****     uint32_t col_span = get_col_span(item);
 1344              		.loc 1 584 0
 1345 000c CB49     		ldr	r1, .L135
 1346              	.LVL210:
 1347 000e FFF7FEFF 		bl	lv_obj_has_flag_any
 1348              	.LVL211:
 1349 0012 10B1     		cbz	r0, .L128
 1350              	.LVL212:
 1351              	.L102:
 692:Drivers/lvgl/lvgl/src/extra/layouts/grid/lv_grid.c **** 
 1352              		.loc 1 692 0
 1353 0014 09B0     		add	sp, sp, #36
 1354              	.LCFI11:
 1355              		.cfi_remember_state
 1356              		.cfi_def_cfa_offset 36
ARM GAS  /tmp/ccFQgg33.s 			page 54


 1357              		@ sp needed
 1358 0016 BDE8F08F 		pop	{r4, r5, r6, r7, r8, r9, r10, fp, pc}
 1359              	.LVL213:
 1360              	.L128:
 1361              	.LCFI12:
 1362              		.cfi_restore_state
 1363              	.LBB194:
 1364              	.LBB195:
 1365              	.LBB196:
 153:Drivers/lvgl/lvgl/src/extra/layouts/grid/../grid/lv_grid.h ****     return (lv_coord_t)v.num;
 1366              		.loc 2 153 0
 1367 001a C94B     		ldr	r3, .L135+4
 1368 001c 1A88     		ldrh	r2, [r3]
 1369 001e 0021     		movs	r1, #0
 1370 0020 2046     		mov	r0, r4
 1371 0022 FFF7FEFF 		bl	lv_obj_get_style_prop
 1372              	.LVL214:
 1373              	.LBE196:
 1374              	.LBE195:
 1375              	.LBE194:
 585:Drivers/lvgl/lvgl/src/extra/layouts/grid/lv_grid.c ****     uint32_t row_span = get_row_span(item);
 1376              		.loc 1 585 0
 1377 0026 C7B2     		uxtb	r7, r0
 1378              	.LVL215:
 1379              	.LBB197:
 1380              	.LBB198:
 1381              	.LBB199:
 1382              		.loc 2 165 0
 1383 0028 C64B     		ldr	r3, .L135+8
 1384 002a 1A88     		ldrh	r2, [r3]
 1385 002c 0021     		movs	r1, #0
 1386 002e 2046     		mov	r0, r4
 1387 0030 FFF7FEFF 		bl	lv_obj_get_style_prop
 1388              	.LVL216:
 1389              	.LBE199:
 1390              	.LBE198:
 1391              	.LBE197:
 586:Drivers/lvgl/lvgl/src/extra/layouts/grid/lv_grid.c ****     if(row_span == 0 || col_span == 0) return;
 1392              		.loc 1 586 0
 1393 0034 C6B2     		uxtb	r6, r0
 1394              	.LVL217:
 587:Drivers/lvgl/lvgl/src/extra/layouts/grid/lv_grid.c **** 
 1395              		.loc 1 587 0
 1396 0036 B7FA87F3 		clz	r3, r7
 1397 003a 5B09     		lsrs	r3, r3, #5
 1398 003c 002E     		cmp	r6, #0
 1399 003e 08BF     		it	eq
 1400 0040 0123     		moveq	r3, #1
 1401 0042 002B     		cmp	r3, #0
 1402 0044 E6D1     		bne	.L102
 1403              	.LVL218:
 1404              	.LBB200:
 1405              	.LBB201:
 1406              	.LBB202:
 147:Drivers/lvgl/lvgl/src/extra/layouts/grid/../grid/lv_grid.h ****     return (lv_coord_t)v.num;
 1407              		.loc 2 147 0
 1408 0046 C04B     		ldr	r3, .L135+12
ARM GAS  /tmp/ccFQgg33.s 			page 55


 1409 0048 1A88     		ldrh	r2, [r3]
 1410 004a 0021     		movs	r1, #0
 1411 004c 2046     		mov	r0, r4
 1412 004e FFF7FEFF 		bl	lv_obj_get_style_prop
 1413              	.LVL219:
 1414              	.LBE202:
 1415              	.LBE201:
 1416              	.LBE200:
 589:Drivers/lvgl/lvgl/src/extra/layouts/grid/lv_grid.c ****     uint32_t row_pos = get_row_pos(item);
 1417              		.loc 1 589 0
 1418 0052 5FFA80FA 		uxtb	r10, r0
 1419              	.LVL220:
 1420              	.LBB203:
 1421              	.LBB204:
 1422              	.LBB205:
 159:Drivers/lvgl/lvgl/src/extra/layouts/grid/../grid/lv_grid.h ****     return (lv_coord_t)v.num;
 1423              		.loc 2 159 0
 1424 0056 BD4B     		ldr	r3, .L135+16
 1425 0058 1A88     		ldrh	r2, [r3]
 1426 005a 0021     		movs	r1, #0
 1427 005c 2046     		mov	r0, r4
 1428 005e FFF7FEFF 		bl	lv_obj_get_style_prop
 1429              	.LVL221:
 1430              	.LBE205:
 1431              	.LBE204:
 1432              	.LBE203:
 590:Drivers/lvgl/lvgl/src/extra/layouts/grid/lv_grid.c ****     lv_grid_align_t col_align = get_cell_col_align(item);
 1433              		.loc 1 590 0
 1434 0062 5FFA80F9 		uxtb	r9, r0
 1435              	.LVL222:
 1436              	.LBB206:
 1437              	.LBB207:
 1438              	.LBB208:
 1439              	.LBB209:
 166:Drivers/lvgl/lvgl/src/extra/layouts/grid/../grid/lv_grid.h ****     return (lv_coord_t)v.num;
 167:Drivers/lvgl/lvgl/src/extra/layouts/grid/../grid/lv_grid.h **** }
 168:Drivers/lvgl/lvgl/src/extra/layouts/grid/../grid/lv_grid.h **** 
 169:Drivers/lvgl/lvgl/src/extra/layouts/grid/../grid/lv_grid.h **** static inline lv_coord_t lv_obj_get_style_grid_cell_x_align(const lv_obj_t * obj, uint32_t part)
 170:Drivers/lvgl/lvgl/src/extra/layouts/grid/../grid/lv_grid.h **** {
 171:Drivers/lvgl/lvgl/src/extra/layouts/grid/../grid/lv_grid.h ****     lv_style_value_t v = lv_obj_get_style_prop(obj, part, LV_STYLE_GRID_CELL_X_ALIGN);
 1440              		.loc 2 171 0
 1441 0066 BA4B     		ldr	r3, .L135+20
 1442 0068 1A88     		ldrh	r2, [r3]
 1443 006a 0021     		movs	r1, #0
 1444 006c 2046     		mov	r0, r4
 1445 006e FFF7FEFF 		bl	lv_obj_get_style_prop
 1446              	.LVL223:
 1447              	.LBE209:
 1448              	.LBE208:
  87:Drivers/lvgl/lvgl/src/extra/layouts/grid/lv_grid.c **** }
 1449              		.loc 1 87 0
 1450 0072 5FFA80FB 		uxtb	fp, r0
 1451              	.LVL224:
 1452              	.LBE207:
 1453              	.LBE206:
 1454              	.LBB210:
 1455              	.LBB211:
ARM GAS  /tmp/ccFQgg33.s 			page 56


 1456              	.LBB212:
 172:Drivers/lvgl/lvgl/src/extra/layouts/grid/../grid/lv_grid.h ****     return (lv_coord_t)v.num;
 173:Drivers/lvgl/lvgl/src/extra/layouts/grid/../grid/lv_grid.h **** }
 174:Drivers/lvgl/lvgl/src/extra/layouts/grid/../grid/lv_grid.h **** 
 175:Drivers/lvgl/lvgl/src/extra/layouts/grid/../grid/lv_grid.h **** static inline lv_coord_t lv_obj_get_style_grid_cell_y_align(const lv_obj_t * obj, uint32_t part)
 176:Drivers/lvgl/lvgl/src/extra/layouts/grid/../grid/lv_grid.h **** {
 177:Drivers/lvgl/lvgl/src/extra/layouts/grid/../grid/lv_grid.h ****     lv_style_value_t v = lv_obj_get_style_prop(obj, part, LV_STYLE_GRID_CELL_Y_ALIGN);
 1457              		.loc 2 177 0
 1458 0076 B74B     		ldr	r3, .L135+24
 1459 0078 1A88     		ldrh	r2, [r3]
 1460 007a 0021     		movs	r1, #0
 1461 007c 2046     		mov	r0, r4
 1462 007e FFF7FEFF 		bl	lv_obj_get_style_prop
 1463              	.LVL225:
 1464 0082 0190     		str	r0, [sp, #4]
 1465              	.LVL226:
 1466              	.LBE212:
 1467              	.LBE211:
 1468              	.LBE210:
 595:Drivers/lvgl/lvgl/src/extra/layouts/grid/lv_grid.c ****     lv_coord_t col_x2 = c->x[col_pos + col_span - 1] + c->w[col_pos + col_span - 1];
 1469              		.loc 1 595 0
 1470 0084 2B68     		ldr	r3, [r5]
 1471 0086 33F91A20 		ldrsh	r2, [r3, r10, lsl #1]
 1472              	.LVL227:
 596:Drivers/lvgl/lvgl/src/extra/layouts/grid/lv_grid.c ****     lv_coord_t col_w = col_x2 - col_x1;
 1473              		.loc 1 596 0
 1474 008a 5744     		add	r7, r7, r10
 1475              	.LVL228:
 1476 008c 6FF00041 		mvn	r1, #-2147483648
 1477 0090 0F44     		add	r7, r7, r1
 1478 0092 33F81730 		ldrh	r3, [r3, r7, lsl #1]
 1479 0096 A868     		ldr	r0, [r5, #8]
 1480 0098 30F81700 		ldrh	r0, [r0, r7, lsl #1]
 1481 009c 0344     		add	r3, r3, r0
 1482 009e 9BB2     		uxth	r3, r3
 1483              	.LVL229:
 597:Drivers/lvgl/lvgl/src/extra/layouts/grid/lv_grid.c **** 
 1484              		.loc 1 597 0
 1485 00a0 9B1A     		subs	r3, r3, r2
 1486              	.LVL230:
 1487 00a2 9BB2     		uxth	r3, r3
 1488 00a4 0493     		str	r3, [sp, #16]
 1489 00a6 1BB2     		sxth	r3, r3
 1490 00a8 0293     		str	r3, [sp, #8]
 1491              	.LVL231:
 599:Drivers/lvgl/lvgl/src/extra/layouts/grid/lv_grid.c ****     lv_coord_t row_y2 = c->y[row_pos + row_span - 1] + c->h[row_pos + row_span - 1];
 1492              		.loc 1 599 0
 1493 00aa 6B68     		ldr	r3, [r5, #4]
 1494 00ac 33F91920 		ldrsh	r2, [r3, r9, lsl #1]
 1495              	.LVL232:
 600:Drivers/lvgl/lvgl/src/extra/layouts/grid/lv_grid.c ****     lv_coord_t row_h = row_y2 - row_y1;
 1496              		.loc 1 600 0
 1497 00b0 4E44     		add	r6, r6, r9
 1498              	.LVL233:
 1499 00b2 0E44     		add	r6, r6, r1
 1500 00b4 33F81630 		ldrh	r3, [r3, r6, lsl #1]
 1501 00b8 E968     		ldr	r1, [r5, #12]
ARM GAS  /tmp/ccFQgg33.s 			page 57


 1502 00ba 31F81610 		ldrh	r1, [r1, r6, lsl #1]
 1503 00be 0B44     		add	r3, r3, r1
 1504 00c0 9BB2     		uxth	r3, r3
 1505              	.LVL234:
 601:Drivers/lvgl/lvgl/src/extra/layouts/grid/lv_grid.c **** 
 1506              		.loc 1 601 0
 1507 00c2 9B1A     		subs	r3, r3, r2
 1508              	.LVL235:
 1509 00c4 9BB2     		uxth	r3, r3
 1510 00c6 0593     		str	r3, [sp, #20]
 1511 00c8 1BB2     		sxth	r3, r3
 1512 00ca 0393     		str	r3, [sp, #12]
 1513              	.LVL236:
 1514              	.LBB213:
 1515              	.LBB214:
 561:Drivers/lvgl/lvgl/src/extra/layouts/grid/../flex/../../../core/lv_obj_style_gen.h ****     return (lv_base_dir_t)v.num;
 1516              		.loc 3 561 0
 1517 00cc 1622     		movs	r2, #22
 1518              	.LVL237:
 1519 00ce 0021     		movs	r1, #0
 1520              	.LVL238:
 1521 00d0 2046     		mov	r0, r4
 1522              	.LVL239:
 1523 00d2 FFF7FEFF 		bl	lv_obj_get_style_prop
 1524              	.LVL240:
 1525              		.loc 3 562 0
 1526 00d6 C0B2     		uxtb	r0, r0
 1527              	.LVL241:
 1528              	.LBE214:
 1529              	.LBE213:
 605:Drivers/lvgl/lvgl/src/extra/layouts/grid/lv_grid.c ****         if(col_align == LV_GRID_ALIGN_START) col_align = LV_GRID_ALIGN_END;
 1530              		.loc 1 605 0
 1531 00d8 0128     		cmp	r0, #1
 1532 00da 00F0BE80 		beq	.L129
 1533              	.L104:
 1534              	.LVL242:
 1535              	.LBB215:
 1536              	.LBB216:
 1537              		.file 4 "Drivers/lvgl/lvgl/src/extra/layouts/grid/../flex/../../../core/../misc/../font/../misc/lv
   1:Drivers/lvgl/lvgl/src/extra/layouts/grid/../flex/../../../core/../misc/../font/../misc/lv_area.h **** /**
   2:Drivers/lvgl/lvgl/src/extra/layouts/grid/../flex/../../../core/../misc/../font/../misc/lv_area.h ****  * @file lv_area.h
   3:Drivers/lvgl/lvgl/src/extra/layouts/grid/../flex/../../../core/../misc/../font/../misc/lv_area.h ****  *
   4:Drivers/lvgl/lvgl/src/extra/layouts/grid/../flex/../../../core/../misc/../font/../misc/lv_area.h ****  */
   5:Drivers/lvgl/lvgl/src/extra/layouts/grid/../flex/../../../core/../misc/../font/../misc/lv_area.h **** 
   6:Drivers/lvgl/lvgl/src/extra/layouts/grid/../flex/../../../core/../misc/../font/../misc/lv_area.h **** #ifndef LV_AREA_H
   7:Drivers/lvgl/lvgl/src/extra/layouts/grid/../flex/../../../core/../misc/../font/../misc/lv_area.h **** #define LV_AREA_H
   8:Drivers/lvgl/lvgl/src/extra/layouts/grid/../flex/../../../core/../misc/../font/../misc/lv_area.h **** 
   9:Drivers/lvgl/lvgl/src/extra/layouts/grid/../flex/../../../core/../misc/../font/../misc/lv_area.h **** #ifdef __cplusplus
  10:Drivers/lvgl/lvgl/src/extra/layouts/grid/../flex/../../../core/../misc/../font/../misc/lv_area.h **** extern "C" {
  11:Drivers/lvgl/lvgl/src/extra/layouts/grid/../flex/../../../core/../misc/../font/../misc/lv_area.h **** #endif
  12:Drivers/lvgl/lvgl/src/extra/layouts/grid/../flex/../../../core/../misc/../font/../misc/lv_area.h **** 
  13:Drivers/lvgl/lvgl/src/extra/layouts/grid/../flex/../../../core/../misc/../font/../misc/lv_area.h **** /*********************
  14:Drivers/lvgl/lvgl/src/extra/layouts/grid/../flex/../../../core/../misc/../font/../misc/lv_area.h ****  *      INCLUDES
  15:Drivers/lvgl/lvgl/src/extra/layouts/grid/../flex/../../../core/../misc/../font/../misc/lv_area.h ****  *********************/
  16:Drivers/lvgl/lvgl/src/extra/layouts/grid/../flex/../../../core/../misc/../font/../misc/lv_area.h **** #include "../lv_conf_internal.h"
  17:Drivers/lvgl/lvgl/src/extra/layouts/grid/../flex/../../../core/../misc/../font/../misc/lv_area.h **** #include <stdbool.h>
  18:Drivers/lvgl/lvgl/src/extra/layouts/grid/../flex/../../../core/../misc/../font/../misc/lv_area.h **** #include <stdint.h>
ARM GAS  /tmp/ccFQgg33.s 			page 58


  19:Drivers/lvgl/lvgl/src/extra/layouts/grid/../flex/../../../core/../misc/../font/../misc/lv_area.h **** 
  20:Drivers/lvgl/lvgl/src/extra/layouts/grid/../flex/../../../core/../misc/../font/../misc/lv_area.h **** /*********************
  21:Drivers/lvgl/lvgl/src/extra/layouts/grid/../flex/../../../core/../misc/../font/../misc/lv_area.h ****  *      DEFINES
  22:Drivers/lvgl/lvgl/src/extra/layouts/grid/../flex/../../../core/../misc/../font/../misc/lv_area.h ****  *********************/
  23:Drivers/lvgl/lvgl/src/extra/layouts/grid/../flex/../../../core/../misc/../font/../misc/lv_area.h **** 
  24:Drivers/lvgl/lvgl/src/extra/layouts/grid/../flex/../../../core/../misc/../font/../misc/lv_area.h **** #if LV_USE_LARGE_COORD
  25:Drivers/lvgl/lvgl/src/extra/layouts/grid/../flex/../../../core/../misc/../font/../misc/lv_area.h **** typedef int32_t lv_coord_t;
  26:Drivers/lvgl/lvgl/src/extra/layouts/grid/../flex/../../../core/../misc/../font/../misc/lv_area.h **** #else
  27:Drivers/lvgl/lvgl/src/extra/layouts/grid/../flex/../../../core/../misc/../font/../misc/lv_area.h **** typedef int16_t lv_coord_t;
  28:Drivers/lvgl/lvgl/src/extra/layouts/grid/../flex/../../../core/../misc/../font/../misc/lv_area.h **** #endif
  29:Drivers/lvgl/lvgl/src/extra/layouts/grid/../flex/../../../core/../misc/../font/../misc/lv_area.h **** 
  30:Drivers/lvgl/lvgl/src/extra/layouts/grid/../flex/../../../core/../misc/../font/../misc/lv_area.h **** /**********************
  31:Drivers/lvgl/lvgl/src/extra/layouts/grid/../flex/../../../core/../misc/../font/../misc/lv_area.h ****  *      TYPEDEFS
  32:Drivers/lvgl/lvgl/src/extra/layouts/grid/../flex/../../../core/../misc/../font/../misc/lv_area.h ****  **********************/
  33:Drivers/lvgl/lvgl/src/extra/layouts/grid/../flex/../../../core/../misc/../font/../misc/lv_area.h **** 
  34:Drivers/lvgl/lvgl/src/extra/layouts/grid/../flex/../../../core/../misc/../font/../misc/lv_area.h **** /**
  35:Drivers/lvgl/lvgl/src/extra/layouts/grid/../flex/../../../core/../misc/../font/../misc/lv_area.h ****  * Represents a point on the screen.
  36:Drivers/lvgl/lvgl/src/extra/layouts/grid/../flex/../../../core/../misc/../font/../misc/lv_area.h ****  */
  37:Drivers/lvgl/lvgl/src/extra/layouts/grid/../flex/../../../core/../misc/../font/../misc/lv_area.h **** typedef struct {
  38:Drivers/lvgl/lvgl/src/extra/layouts/grid/../flex/../../../core/../misc/../font/../misc/lv_area.h ****     lv_coord_t x;
  39:Drivers/lvgl/lvgl/src/extra/layouts/grid/../flex/../../../core/../misc/../font/../misc/lv_area.h ****     lv_coord_t y;
  40:Drivers/lvgl/lvgl/src/extra/layouts/grid/../flex/../../../core/../misc/../font/../misc/lv_area.h **** } lv_point_t;
  41:Drivers/lvgl/lvgl/src/extra/layouts/grid/../flex/../../../core/../misc/../font/../misc/lv_area.h **** 
  42:Drivers/lvgl/lvgl/src/extra/layouts/grid/../flex/../../../core/../misc/../font/../misc/lv_area.h **** /** Represents an area of the screen.*/
  43:Drivers/lvgl/lvgl/src/extra/layouts/grid/../flex/../../../core/../misc/../font/../misc/lv_area.h **** typedef struct {
  44:Drivers/lvgl/lvgl/src/extra/layouts/grid/../flex/../../../core/../misc/../font/../misc/lv_area.h ****     lv_coord_t x1;
  45:Drivers/lvgl/lvgl/src/extra/layouts/grid/../flex/../../../core/../misc/../font/../misc/lv_area.h ****     lv_coord_t y1;
  46:Drivers/lvgl/lvgl/src/extra/layouts/grid/../flex/../../../core/../misc/../font/../misc/lv_area.h ****     lv_coord_t x2;
  47:Drivers/lvgl/lvgl/src/extra/layouts/grid/../flex/../../../core/../misc/../font/../misc/lv_area.h ****     lv_coord_t y2;
  48:Drivers/lvgl/lvgl/src/extra/layouts/grid/../flex/../../../core/../misc/../font/../misc/lv_area.h **** } lv_area_t;
  49:Drivers/lvgl/lvgl/src/extra/layouts/grid/../flex/../../../core/../misc/../font/../misc/lv_area.h **** 
  50:Drivers/lvgl/lvgl/src/extra/layouts/grid/../flex/../../../core/../misc/../font/../misc/lv_area.h **** /** Alignments*/
  51:Drivers/lvgl/lvgl/src/extra/layouts/grid/../flex/../../../core/../misc/../font/../misc/lv_area.h **** enum {
  52:Drivers/lvgl/lvgl/src/extra/layouts/grid/../flex/../../../core/../misc/../font/../misc/lv_area.h ****     LV_ALIGN_DEFAULT = 0,
  53:Drivers/lvgl/lvgl/src/extra/layouts/grid/../flex/../../../core/../misc/../font/../misc/lv_area.h ****     LV_ALIGN_TOP_LEFT,
  54:Drivers/lvgl/lvgl/src/extra/layouts/grid/../flex/../../../core/../misc/../font/../misc/lv_area.h ****     LV_ALIGN_TOP_MID,
  55:Drivers/lvgl/lvgl/src/extra/layouts/grid/../flex/../../../core/../misc/../font/../misc/lv_area.h ****     LV_ALIGN_TOP_RIGHT,
  56:Drivers/lvgl/lvgl/src/extra/layouts/grid/../flex/../../../core/../misc/../font/../misc/lv_area.h ****     LV_ALIGN_BOTTOM_LEFT,
  57:Drivers/lvgl/lvgl/src/extra/layouts/grid/../flex/../../../core/../misc/../font/../misc/lv_area.h ****     LV_ALIGN_BOTTOM_MID,
  58:Drivers/lvgl/lvgl/src/extra/layouts/grid/../flex/../../../core/../misc/../font/../misc/lv_area.h ****     LV_ALIGN_BOTTOM_RIGHT,
  59:Drivers/lvgl/lvgl/src/extra/layouts/grid/../flex/../../../core/../misc/../font/../misc/lv_area.h ****     LV_ALIGN_LEFT_MID,
  60:Drivers/lvgl/lvgl/src/extra/layouts/grid/../flex/../../../core/../misc/../font/../misc/lv_area.h ****     LV_ALIGN_RIGHT_MID,
  61:Drivers/lvgl/lvgl/src/extra/layouts/grid/../flex/../../../core/../misc/../font/../misc/lv_area.h ****     LV_ALIGN_CENTER,
  62:Drivers/lvgl/lvgl/src/extra/layouts/grid/../flex/../../../core/../misc/../font/../misc/lv_area.h **** 
  63:Drivers/lvgl/lvgl/src/extra/layouts/grid/../flex/../../../core/../misc/../font/../misc/lv_area.h ****     LV_ALIGN_OUT_TOP_LEFT,
  64:Drivers/lvgl/lvgl/src/extra/layouts/grid/../flex/../../../core/../misc/../font/../misc/lv_area.h ****     LV_ALIGN_OUT_TOP_MID,
  65:Drivers/lvgl/lvgl/src/extra/layouts/grid/../flex/../../../core/../misc/../font/../misc/lv_area.h ****     LV_ALIGN_OUT_TOP_RIGHT,
  66:Drivers/lvgl/lvgl/src/extra/layouts/grid/../flex/../../../core/../misc/../font/../misc/lv_area.h ****     LV_ALIGN_OUT_BOTTOM_LEFT,
  67:Drivers/lvgl/lvgl/src/extra/layouts/grid/../flex/../../../core/../misc/../font/../misc/lv_area.h ****     LV_ALIGN_OUT_BOTTOM_MID,
  68:Drivers/lvgl/lvgl/src/extra/layouts/grid/../flex/../../../core/../misc/../font/../misc/lv_area.h ****     LV_ALIGN_OUT_BOTTOM_RIGHT,
  69:Drivers/lvgl/lvgl/src/extra/layouts/grid/../flex/../../../core/../misc/../font/../misc/lv_area.h ****     LV_ALIGN_OUT_LEFT_TOP,
  70:Drivers/lvgl/lvgl/src/extra/layouts/grid/../flex/../../../core/../misc/../font/../misc/lv_area.h ****     LV_ALIGN_OUT_LEFT_MID,
  71:Drivers/lvgl/lvgl/src/extra/layouts/grid/../flex/../../../core/../misc/../font/../misc/lv_area.h ****     LV_ALIGN_OUT_LEFT_BOTTOM,
  72:Drivers/lvgl/lvgl/src/extra/layouts/grid/../flex/../../../core/../misc/../font/../misc/lv_area.h ****     LV_ALIGN_OUT_RIGHT_TOP,
  73:Drivers/lvgl/lvgl/src/extra/layouts/grid/../flex/../../../core/../misc/../font/../misc/lv_area.h ****     LV_ALIGN_OUT_RIGHT_MID,
  74:Drivers/lvgl/lvgl/src/extra/layouts/grid/../flex/../../../core/../misc/../font/../misc/lv_area.h ****     LV_ALIGN_OUT_RIGHT_BOTTOM,
  75:Drivers/lvgl/lvgl/src/extra/layouts/grid/../flex/../../../core/../misc/../font/../misc/lv_area.h **** };
ARM GAS  /tmp/ccFQgg33.s 			page 59


  76:Drivers/lvgl/lvgl/src/extra/layouts/grid/../flex/../../../core/../misc/../font/../misc/lv_area.h **** typedef uint8_t lv_align_t;
  77:Drivers/lvgl/lvgl/src/extra/layouts/grid/../flex/../../../core/../misc/../font/../misc/lv_area.h **** 
  78:Drivers/lvgl/lvgl/src/extra/layouts/grid/../flex/../../../core/../misc/../font/../misc/lv_area.h **** enum {
  79:Drivers/lvgl/lvgl/src/extra/layouts/grid/../flex/../../../core/../misc/../font/../misc/lv_area.h ****     LV_DIR_NONE     = 0x00,
  80:Drivers/lvgl/lvgl/src/extra/layouts/grid/../flex/../../../core/../misc/../font/../misc/lv_area.h ****     LV_DIR_LEFT     = (1 << 0),
  81:Drivers/lvgl/lvgl/src/extra/layouts/grid/../flex/../../../core/../misc/../font/../misc/lv_area.h ****     LV_DIR_RIGHT    = (1 << 1),
  82:Drivers/lvgl/lvgl/src/extra/layouts/grid/../flex/../../../core/../misc/../font/../misc/lv_area.h ****     LV_DIR_TOP      = (1 << 2),
  83:Drivers/lvgl/lvgl/src/extra/layouts/grid/../flex/../../../core/../misc/../font/../misc/lv_area.h ****     LV_DIR_BOTTOM   = (1 << 3),
  84:Drivers/lvgl/lvgl/src/extra/layouts/grid/../flex/../../../core/../misc/../font/../misc/lv_area.h ****     LV_DIR_HOR      = LV_DIR_LEFT | LV_DIR_RIGHT,
  85:Drivers/lvgl/lvgl/src/extra/layouts/grid/../flex/../../../core/../misc/../font/../misc/lv_area.h ****     LV_DIR_VER      = LV_DIR_TOP | LV_DIR_BOTTOM,
  86:Drivers/lvgl/lvgl/src/extra/layouts/grid/../flex/../../../core/../misc/../font/../misc/lv_area.h ****     LV_DIR_ALL      = LV_DIR_HOR | LV_DIR_VER,
  87:Drivers/lvgl/lvgl/src/extra/layouts/grid/../flex/../../../core/../misc/../font/../misc/lv_area.h **** };
  88:Drivers/lvgl/lvgl/src/extra/layouts/grid/../flex/../../../core/../misc/../font/../misc/lv_area.h **** 
  89:Drivers/lvgl/lvgl/src/extra/layouts/grid/../flex/../../../core/../misc/../font/../misc/lv_area.h **** typedef uint8_t lv_dir_t;
  90:Drivers/lvgl/lvgl/src/extra/layouts/grid/../flex/../../../core/../misc/../font/../misc/lv_area.h **** 
  91:Drivers/lvgl/lvgl/src/extra/layouts/grid/../flex/../../../core/../misc/../font/../misc/lv_area.h **** /**********************
  92:Drivers/lvgl/lvgl/src/extra/layouts/grid/../flex/../../../core/../misc/../font/../misc/lv_area.h ****  * GLOBAL PROTOTYPES
  93:Drivers/lvgl/lvgl/src/extra/layouts/grid/../flex/../../../core/../misc/../font/../misc/lv_area.h ****  **********************/
  94:Drivers/lvgl/lvgl/src/extra/layouts/grid/../flex/../../../core/../misc/../font/../misc/lv_area.h **** 
  95:Drivers/lvgl/lvgl/src/extra/layouts/grid/../flex/../../../core/../misc/../font/../misc/lv_area.h **** /**
  96:Drivers/lvgl/lvgl/src/extra/layouts/grid/../flex/../../../core/../misc/../font/../misc/lv_area.h ****  * Initialize an area
  97:Drivers/lvgl/lvgl/src/extra/layouts/grid/../flex/../../../core/../misc/../font/../misc/lv_area.h ****  * @param area_p pointer to an area
  98:Drivers/lvgl/lvgl/src/extra/layouts/grid/../flex/../../../core/../misc/../font/../misc/lv_area.h ****  * @param x1 left coordinate of the area
  99:Drivers/lvgl/lvgl/src/extra/layouts/grid/../flex/../../../core/../misc/../font/../misc/lv_area.h ****  * @param y1 top coordinate of the area
 100:Drivers/lvgl/lvgl/src/extra/layouts/grid/../flex/../../../core/../misc/../font/../misc/lv_area.h ****  * @param x2 right coordinate of the area
 101:Drivers/lvgl/lvgl/src/extra/layouts/grid/../flex/../../../core/../misc/../font/../misc/lv_area.h ****  * @param y2 bottom coordinate of the area
 102:Drivers/lvgl/lvgl/src/extra/layouts/grid/../flex/../../../core/../misc/../font/../misc/lv_area.h ****  */
 103:Drivers/lvgl/lvgl/src/extra/layouts/grid/../flex/../../../core/../misc/../font/../misc/lv_area.h **** void lv_area_set(lv_area_t * area_p, lv_coord_t x1, lv_coord_t y1, lv_coord_t x2, lv_coord_t y2);
 104:Drivers/lvgl/lvgl/src/extra/layouts/grid/../flex/../../../core/../misc/../font/../misc/lv_area.h **** 
 105:Drivers/lvgl/lvgl/src/extra/layouts/grid/../flex/../../../core/../misc/../font/../misc/lv_area.h **** /**
 106:Drivers/lvgl/lvgl/src/extra/layouts/grid/../flex/../../../core/../misc/../font/../misc/lv_area.h ****  * Copy an area
 107:Drivers/lvgl/lvgl/src/extra/layouts/grid/../flex/../../../core/../misc/../font/../misc/lv_area.h ****  * @param dest pointer to the destination area
 108:Drivers/lvgl/lvgl/src/extra/layouts/grid/../flex/../../../core/../misc/../font/../misc/lv_area.h ****  * @param src pointer to the source area
 109:Drivers/lvgl/lvgl/src/extra/layouts/grid/../flex/../../../core/../misc/../font/../misc/lv_area.h ****  */
 110:Drivers/lvgl/lvgl/src/extra/layouts/grid/../flex/../../../core/../misc/../font/../misc/lv_area.h **** inline static void lv_area_copy(lv_area_t * dest, const lv_area_t * src)
 111:Drivers/lvgl/lvgl/src/extra/layouts/grid/../flex/../../../core/../misc/../font/../misc/lv_area.h **** {
 112:Drivers/lvgl/lvgl/src/extra/layouts/grid/../flex/../../../core/../misc/../font/../misc/lv_area.h ****     dest->x1 = src->x1;
 113:Drivers/lvgl/lvgl/src/extra/layouts/grid/../flex/../../../core/../misc/../font/../misc/lv_area.h ****     dest->y1 = src->y1;
 114:Drivers/lvgl/lvgl/src/extra/layouts/grid/../flex/../../../core/../misc/../font/../misc/lv_area.h ****     dest->x2 = src->x2;
 115:Drivers/lvgl/lvgl/src/extra/layouts/grid/../flex/../../../core/../misc/../font/../misc/lv_area.h ****     dest->y2 = src->y2;
 116:Drivers/lvgl/lvgl/src/extra/layouts/grid/../flex/../../../core/../misc/../font/../misc/lv_area.h **** }
 117:Drivers/lvgl/lvgl/src/extra/layouts/grid/../flex/../../../core/../misc/../font/../misc/lv_area.h **** 
 118:Drivers/lvgl/lvgl/src/extra/layouts/grid/../flex/../../../core/../misc/../font/../misc/lv_area.h **** /**
 119:Drivers/lvgl/lvgl/src/extra/layouts/grid/../flex/../../../core/../misc/../font/../misc/lv_area.h ****  * Get the width of an area
 120:Drivers/lvgl/lvgl/src/extra/layouts/grid/../flex/../../../core/../misc/../font/../misc/lv_area.h ****  * @param area_p pointer to an area
 121:Drivers/lvgl/lvgl/src/extra/layouts/grid/../flex/../../../core/../misc/../font/../misc/lv_area.h ****  * @return the width of the area (if x1 == x2 -> width = 1)
 122:Drivers/lvgl/lvgl/src/extra/layouts/grid/../flex/../../../core/../misc/../font/../misc/lv_area.h ****  */
 123:Drivers/lvgl/lvgl/src/extra/layouts/grid/../flex/../../../core/../misc/../font/../misc/lv_area.h **** static inline lv_coord_t lv_area_get_width(const lv_area_t * area_p)
 124:Drivers/lvgl/lvgl/src/extra/layouts/grid/../flex/../../../core/../misc/../font/../misc/lv_area.h **** {
 125:Drivers/lvgl/lvgl/src/extra/layouts/grid/../flex/../../../core/../misc/../font/../misc/lv_area.h ****     return (lv_coord_t)(area_p->x2 - area_p->x1 + 1);
 1538              		.loc 4 125 0
 1539 00de 268B     		ldrh	r6, [r4, #24]
 1540 00e0 A38A     		ldrh	r3, [r4, #20]
 1541 00e2 F61A     		subs	r6, r6, r3
 1542 00e4 B6B2     		uxth	r6, r6
 1543 00e6 0136     		adds	r6, r6, #1
 1544 00e8 36B2     		sxth	r6, r6
ARM GAS  /tmp/ccFQgg33.s 			page 60


 1545              	.LVL243:
 1546              	.LBE216:
 1547              	.LBE215:
 1548              	.LBB217:
 1549              	.LBB218:
 126:Drivers/lvgl/lvgl/src/extra/layouts/grid/../flex/../../../core/../misc/../font/../misc/lv_area.h **** }
 127:Drivers/lvgl/lvgl/src/extra/layouts/grid/../flex/../../../core/../misc/../font/../misc/lv_area.h **** 
 128:Drivers/lvgl/lvgl/src/extra/layouts/grid/../flex/../../../core/../misc/../font/../misc/lv_area.h **** /**
 129:Drivers/lvgl/lvgl/src/extra/layouts/grid/../flex/../../../core/../misc/../font/../misc/lv_area.h ****  * Get the height of an area
 130:Drivers/lvgl/lvgl/src/extra/layouts/grid/../flex/../../../core/../misc/../font/../misc/lv_area.h ****  * @param area_p pointer to an area
 131:Drivers/lvgl/lvgl/src/extra/layouts/grid/../flex/../../../core/../misc/../font/../misc/lv_area.h ****  * @return the height of the area (if y1 == y2 -> height = 1)
 132:Drivers/lvgl/lvgl/src/extra/layouts/grid/../flex/../../../core/../misc/../font/../misc/lv_area.h ****  */
 133:Drivers/lvgl/lvgl/src/extra/layouts/grid/../flex/../../../core/../misc/../font/../misc/lv_area.h **** static inline lv_coord_t lv_area_get_height(const lv_area_t * area_p)
 134:Drivers/lvgl/lvgl/src/extra/layouts/grid/../flex/../../../core/../misc/../font/../misc/lv_area.h **** {
 135:Drivers/lvgl/lvgl/src/extra/layouts/grid/../flex/../../../core/../misc/../font/../misc/lv_area.h ****     return (lv_coord_t)(area_p->y2 - area_p->y1 + 1);
 1550              		.loc 4 135 0
 1551 00ea 678B     		ldrh	r7, [r4, #26]
 1552 00ec E38A     		ldrh	r3, [r4, #22]
 1553 00ee FF1A     		subs	r7, r7, r3
 1554 00f0 BFB2     		uxth	r7, r7
 1555 00f2 0137     		adds	r7, r7, #1
 1556 00f4 3FB2     		sxth	r7, r7
 1557              	.LVL244:
 1558              	.LBE218:
 1559              	.LBE217:
 615:Drivers/lvgl/lvgl/src/extra/layouts/grid/lv_grid.c ****         default:
 1560              		.loc 1 615 0
 1561 00f6 BBF1020F 		cmp	fp, #2
 1562 00fa 00F0D980 		beq	.L106
 1563 00fe BBF1030F 		cmp	fp, #3
 1564 0102 00F0B780 		beq	.L107
 1565 0106 BBF1010F 		cmp	fp, #1
 1566 010a 00F0BE80 		beq	.L108
 618:Drivers/lvgl/lvgl/src/extra/layouts/grid/lv_grid.c ****             item->w_layout = 0;
 1567              		.loc 1 618 0
 1568 010e 2B68     		ldr	r3, [r5]
 1569 0110 33F91AA0 		ldrsh	r10, [r3, r10, lsl #1]
 1570              	.LVL245:
 619:Drivers/lvgl/lvgl/src/extra/layouts/grid/lv_grid.c ****             break;
 1571              		.loc 1 619 0
 1572 0114 94F82330 		ldrb	r3, [r4, #35]	@ zero_extendqisi2
 1573 0118 6FF38203 		bfc	r3, #2, #1
 1574 011c 84F82330 		strb	r3, [r4, #35]
 1575              	.LVL246:
 1576              	.L109:
 636:Drivers/lvgl/lvgl/src/extra/layouts/grid/lv_grid.c ****         default:
 1577              		.loc 1 636 0
 1578 0120 9DF80430 		ldrb	r3, [sp, #4]	@ zero_extendqisi2
 1579 0124 022B     		cmp	r3, #2
 1580 0126 00F0F680 		beq	.L112
 1581 012a 032B     		cmp	r3, #3
 1582 012c 00F0D680 		beq	.L113
 1583 0130 012B     		cmp	r3, #1
 1584 0132 00F0DE80 		beq	.L114
 639:Drivers/lvgl/lvgl/src/extra/layouts/grid/lv_grid.c ****             item->h_layout = 0;
 1585              		.loc 1 639 0
 1586 0136 6B68     		ldr	r3, [r5, #4]
ARM GAS  /tmp/ccFQgg33.s 			page 61


 1587 0138 33F91950 		ldrsh	r5, [r3, r9, lsl #1]
 1588              	.LVL247:
 640:Drivers/lvgl/lvgl/src/extra/layouts/grid/lv_grid.c ****             break;
 1589              		.loc 1 640 0
 1590 013c 94F82330 		ldrb	r3, [r4, #35]	@ zero_extendqisi2
 1591 0140 6FF34103 		bfc	r3, #1, #1
 1592 0144 84F82330 		strb	r3, [r4, #35]
 1593              	.L115:
 1594              	.LVL248:
 658:Drivers/lvgl/lvgl/src/extra/layouts/grid/lv_grid.c ****         lv_area_t old_coords;
 1595              		.loc 1 658 0
 1596 0148 2046     		mov	r0, r4
 1597 014a FFF7FEFF 		bl	lv_obj_get_width
 1598              	.LVL249:
 1599 014e B042     		cmp	r0, r6
 1600 0150 00F00281 		beq	.L130
 1601              	.L117:
 1602              	.LVL250:
 1603              	.LBB219:
 1604              	.LBB220:
 1605              	.LBB221:
 112:Drivers/lvgl/lvgl/src/extra/layouts/grid/../flex/../../../core/../misc/../font/../misc/lv_area.h ****     dest->y1 = src->y1;
 1606              		.loc 4 112 0
 1607 0154 B4F91430 		ldrsh	r3, [r4, #20]
 1608 0158 ADF81830 		strh	r3, [sp, #24]	@ movhi
 113:Drivers/lvgl/lvgl/src/extra/layouts/grid/../flex/../../../core/../misc/../font/../misc/lv_area.h ****     dest->x2 = src->x2;
 1609              		.loc 4 113 0
 1610 015c B4F91630 		ldrsh	r3, [r4, #22]
 1611 0160 ADF81A30 		strh	r3, [sp, #26]	@ movhi
 114:Drivers/lvgl/lvgl/src/extra/layouts/grid/../flex/../../../core/../misc/../font/../misc/lv_area.h ****     dest->y2 = src->y2;
 1612              		.loc 4 114 0
 1613 0164 B4F91830 		ldrsh	r3, [r4, #24]
 1614 0168 ADF81C30 		strh	r3, [sp, #28]	@ movhi
 115:Drivers/lvgl/lvgl/src/extra/layouts/grid/../flex/../../../core/../misc/../font/../misc/lv_area.h **** }
 1615              		.loc 4 115 0
 1616 016c B4F91A30 		ldrsh	r3, [r4, #26]
 1617 0170 ADF81E30 		strh	r3, [sp, #30]	@ movhi
 1618              	.LVL251:
 1619              	.LBE221:
 1620              	.LBE220:
 661:Drivers/lvgl/lvgl/src/extra/layouts/grid/lv_grid.c ****         lv_area_set_width(&item->coords, item_w);
 1621              		.loc 1 661 0
 1622 0174 2046     		mov	r0, r4
 1623 0176 FFF7FEFF 		bl	lv_obj_invalidate
 1624              	.LVL252:
 662:Drivers/lvgl/lvgl/src/extra/layouts/grid/lv_grid.c ****         lv_area_set_height(&item->coords, item_h);
 1625              		.loc 1 662 0
 1626 017a 04F11403 		add	r3, r4, #20
 1627 017e 3146     		mov	r1, r6
 1628 0180 1E46     		mov	r6, r3
 1629              	.LVL253:
 1630 0182 1846     		mov	r0, r3
 1631 0184 FFF7FEFF 		bl	lv_area_set_width
 1632              	.LVL254:
 663:Drivers/lvgl/lvgl/src/extra/layouts/grid/lv_grid.c ****         lv_obj_invalidate(item);
 1633              		.loc 1 663 0
 1634 0188 3946     		mov	r1, r7
ARM GAS  /tmp/ccFQgg33.s 			page 62


 1635 018a 3046     		mov	r0, r6
 1636 018c FFF7FEFF 		bl	lv_area_set_height
 1637              	.LVL255:
 664:Drivers/lvgl/lvgl/src/extra/layouts/grid/lv_grid.c ****         lv_event_send(item, LV_EVENT_SIZE_CHANGED, &old_coords);
 1638              		.loc 1 664 0
 1639 0190 2046     		mov	r0, r4
 1640 0192 FFF7FEFF 		bl	lv_obj_invalidate
 1641              	.LVL256:
 665:Drivers/lvgl/lvgl/src/extra/layouts/grid/lv_grid.c ****         lv_event_send(lv_obj_get_parent(item), LV_EVENT_CHILD_CHANGED, item);
 1642              		.loc 1 665 0
 1643 0196 06AA     		add	r2, sp, #24
 1644 0198 2921     		movs	r1, #41
 1645 019a 2046     		mov	r0, r4
 1646 019c FFF7FEFF 		bl	lv_event_send
 1647              	.LVL257:
 666:Drivers/lvgl/lvgl/src/extra/layouts/grid/lv_grid.c **** 
 1648              		.loc 1 666 0
 1649 01a0 2046     		mov	r0, r4
 1650 01a2 FFF7FEFF 		bl	lv_obj_get_parent
 1651              	.LVL258:
 1652 01a6 2246     		mov	r2, r4
 1653 01a8 2221     		movs	r1, #34
 1654 01aa FFF7FEFF 		bl	lv_event_send
 1655              	.LVL259:
 1656              	.L118:
 1657              	.LBE219:
 1658              	.LBB222:
 1659              	.LBB223:
  69:Drivers/lvgl/lvgl/src/extra/layouts/grid/../flex/../../../core/lv_obj_style_gen.h ****     return (lv_coord_t)v.num;
 1660              		.loc 3 69 0
 1661 01ae 6A22     		movs	r2, #106
 1662 01b0 0021     		movs	r1, #0
 1663 01b2 2046     		mov	r0, r4
 1664 01b4 FFF7FEFF 		bl	lv_obj_get_style_prop
 1665              	.LVL260:
 1666 01b8 0746     		mov	r7, r0
 1667              	.LVL261:
  70:Drivers/lvgl/lvgl/src/extra/layouts/grid/../flex/../../../core/lv_obj_style_gen.h **** }
 1668              		.loc 3 70 0
 1669 01ba 0FFA80FB 		sxth	fp, r0
 1670              	.LVL262:
 1671              	.LBE223:
 1672              	.LBE222:
 1673              	.LBB224:
 1674              	.LBB225:
  75:Drivers/lvgl/lvgl/src/extra/layouts/grid/../flex/../../../core/lv_obj_style_gen.h ****     return (lv_coord_t)v.num;
 1675              		.loc 3 75 0
 1676 01be 6B22     		movs	r2, #107
 1677 01c0 0021     		movs	r1, #0
 1678 01c2 2046     		mov	r0, r4
 1679 01c4 FFF7FEFF 		bl	lv_obj_get_style_prop
 1680              	.LVL263:
 1681 01c8 0646     		mov	r6, r0
  76:Drivers/lvgl/lvgl/src/extra/layouts/grid/../flex/../../../core/lv_obj_style_gen.h **** }
 1682              		.loc 3 76 0
 1683 01ca 0FFA80F9 		sxth	r9, r0
 1684              	.LVL264:
ARM GAS  /tmp/ccFQgg33.s 			page 63


 1685              	.LBE225:
 1686              	.LBE224:
 673:Drivers/lvgl/lvgl/src/extra/layouts/grid/lv_grid.c ****     lv_coord_t h = lv_obj_get_height(item);
 1687              		.loc 1 673 0
 1688 01ce 2046     		mov	r0, r4
 1689 01d0 FFF7FEFF 		bl	lv_obj_get_width
 1690              	.LVL265:
 1691 01d4 0190     		str	r0, [sp, #4]
 1692              	.LVL266:
 674:Drivers/lvgl/lvgl/src/extra/layouts/grid/lv_grid.c ****     if(LV_COORD_IS_PCT(tr_x)) tr_x = (w * LV_COORD_GET_PCT(tr_x)) / 100;
 1693              		.loc 1 674 0
 1694 01d6 2046     		mov	r0, r4
 1695 01d8 FFF7FEFF 		bl	lv_obj_get_height
 1696              	.LVL267:
 675:Drivers/lvgl/lvgl/src/extra/layouts/grid/lv_grid.c ****     if(LV_COORD_IS_PCT(tr_y)) tr_y = (h * LV_COORD_GET_PCT(tr_y)) / 100;
 1697              		.loc 1 675 0
 1698 01dc 07F4C047 		and	r7, r7, #24576
 1699              	.LVL268:
 1700 01e0 B7F5005F 		cmp	r7, #8192
 1701 01e4 00F0BF80 		beq	.L131
 1702              	.L119:
 1703              	.LVL269:
 676:Drivers/lvgl/lvgl/src/extra/layouts/grid/lv_grid.c **** 
 1704              		.loc 1 676 0
 1705 01e8 06F4C046 		and	r6, r6, #24576
 1706 01ec B6F5005F 		cmp	r6, #8192
 1707 01f0 00F0D180 		beq	.L132
 1708              	.LVL270:
 1709              	.L122:
 678:Drivers/lvgl/lvgl/src/extra/layouts/grid/lv_grid.c ****     y += tr_y;
 1710              		.loc 1 678 0
 1711 01f4 0AEB0B06 		add	r6, r10, fp
 1712              	.LVL271:
 679:Drivers/lvgl/lvgl/src/extra/layouts/grid/lv_grid.c **** 
 1713              		.loc 1 679 0
 1714 01f8 4D44     		add	r5, r5, r9
 1715              	.LVL272:
 681:Drivers/lvgl/lvgl/src/extra/layouts/grid/lv_grid.c ****     lv_coord_t diff_y = hint->grid_abs.y + y - item->coords.y1;
 1716              		.loc 1 681 0
 1717 01fa B8F808A0 		ldrh	r10, [r8, #8]
 1718 01fe 1AFA86F6 		uxtah	r6, r10, r6
 1719              	.LVL273:
 1720 0202 B6B2     		uxth	r6, r6
 1721 0204 A38A     		ldrh	r3, [r4, #20]
 1722 0206 F61A     		subs	r6, r6, r3
 1723 0208 B6B2     		uxth	r6, r6
 1724 020a 37B2     		sxth	r7, r6
 1725              	.LVL274:
 682:Drivers/lvgl/lvgl/src/extra/layouts/grid/lv_grid.c ****     if(diff_x || diff_y) {
 1726              		.loc 1 682 0
 1727 020c B8F80A90 		ldrh	r9, [r8, #10]
 1728              	.LVL275:
 1729 0210 19FA85F5 		uxtah	r5, r9, r5
 1730              	.LVL276:
 1731 0214 ADB2     		uxth	r5, r5
 1732 0216 E38A     		ldrh	r3, [r4, #22]
 1733 0218 ED1A     		subs	r5, r5, r3
ARM GAS  /tmp/ccFQgg33.s 			page 64


 1734 021a ADB2     		uxth	r5, r5
 1735 021c 0FFA85F8 		sxth	r8, r5
 1736              	.LVL277:
 683:Drivers/lvgl/lvgl/src/extra/layouts/grid/lv_grid.c ****         lv_obj_invalidate(item);
 1737              		.loc 1 683 0
 1738 0220 57EA0803 		orrs	r3, r7, r8
 1739 0224 3FF4F6AE 		beq	.L102
 684:Drivers/lvgl/lvgl/src/extra/layouts/grid/lv_grid.c ****         item->coords.x1 += diff_x;
 1740              		.loc 1 684 0
 1741 0228 2046     		mov	r0, r4
 1742 022a FFF7FEFF 		bl	lv_obj_invalidate
 1743              	.LVL278:
 685:Drivers/lvgl/lvgl/src/extra/layouts/grid/lv_grid.c ****         item->coords.x2 += diff_x;
 1744              		.loc 1 685 0
 1745 022e A38A     		ldrh	r3, [r4, #20]
 1746 0230 3344     		add	r3, r3, r6
 1747 0232 A382     		strh	r3, [r4, #20]	@ movhi
 686:Drivers/lvgl/lvgl/src/extra/layouts/grid/lv_grid.c ****         item->coords.y1 += diff_y;
 1748              		.loc 1 686 0
 1749 0234 238B     		ldrh	r3, [r4, #24]
 1750 0236 1E44     		add	r6, r6, r3
 1751 0238 2683     		strh	r6, [r4, #24]	@ movhi
 687:Drivers/lvgl/lvgl/src/extra/layouts/grid/lv_grid.c ****         item->coords.y2 += diff_y;
 1752              		.loc 1 687 0
 1753 023a E38A     		ldrh	r3, [r4, #22]
 1754 023c 2B44     		add	r3, r3, r5
 1755 023e E382     		strh	r3, [r4, #22]	@ movhi
 688:Drivers/lvgl/lvgl/src/extra/layouts/grid/lv_grid.c ****         lv_obj_invalidate(item);
 1756              		.loc 1 688 0
 1757 0240 638B     		ldrh	r3, [r4, #26]
 1758 0242 1D44     		add	r5, r5, r3
 1759 0244 6583     		strh	r5, [r4, #26]	@ movhi
 689:Drivers/lvgl/lvgl/src/extra/layouts/grid/lv_grid.c ****         lv_obj_move_children_by(item, diff_x, diff_y, false);
 1760              		.loc 1 689 0
 1761 0246 2046     		mov	r0, r4
 1762 0248 FFF7FEFF 		bl	lv_obj_invalidate
 1763              	.LVL279:
 690:Drivers/lvgl/lvgl/src/extra/layouts/grid/lv_grid.c ****     }
 1764              		.loc 1 690 0
 1765 024c 0023     		movs	r3, #0
 1766 024e 4246     		mov	r2, r8
 1767 0250 3946     		mov	r1, r7
 1768 0252 2046     		mov	r0, r4
 1769 0254 FFF7FEFF 		bl	lv_obj_move_children_by
 1770              	.LVL280:
 1771 0258 DCE6     		b	.L102
 1772              	.LVL281:
 1773              	.L129:
 606:Drivers/lvgl/lvgl/src/extra/layouts/grid/lv_grid.c ****         else if(col_align == LV_GRID_ALIGN_END) col_align = LV_GRID_ALIGN_START;
 1774              		.loc 1 606 0
 1775 025a BBF1000F 		cmp	fp, #0
 1776 025e 06D0     		beq	.L125
 607:Drivers/lvgl/lvgl/src/extra/layouts/grid/lv_grid.c ****     }
 1777              		.loc 1 607 0
 1778 0260 BBF1020F 		cmp	fp, #2
 1779 0264 7FF43BAF 		bne	.L104
 1780 0268 4FF0000B 		mov	fp, #0
ARM GAS  /tmp/ccFQgg33.s 			page 65


 1781 026c 37E7     		b	.L104
 1782              	.L125:
 606:Drivers/lvgl/lvgl/src/extra/layouts/grid/lv_grid.c ****         else if(col_align == LV_GRID_ALIGN_END) col_align = LV_GRID_ALIGN_START;
 1783              		.loc 1 606 0
 1784 026e 4FF0020B 		mov	fp, #2
 1785 0272 34E7     		b	.L104
 1786              	.LVL282:
 1787              	.L107:
 622:Drivers/lvgl/lvgl/src/extra/layouts/grid/lv_grid.c ****             item_w = col_w;
 1788              		.loc 1 622 0
 1789 0274 2B68     		ldr	r3, [r5]
 1790 0276 33F91AA0 		ldrsh	r10, [r3, r10, lsl #1]
 1791              	.LVL283:
 624:Drivers/lvgl/lvgl/src/extra/layouts/grid/lv_grid.c ****             break;
 1792              		.loc 1 624 0
 1793 027a 94F82330 		ldrb	r3, [r4, #35]	@ zero_extendqisi2
 1794 027e 43F00403 		orr	r3, r3, #4
 1795 0282 84F82330 		strb	r3, [r4, #35]
 1796              	.LVL284:
 623:Drivers/lvgl/lvgl/src/extra/layouts/grid/lv_grid.c ****             item->w_layout = 1;
 1797              		.loc 1 623 0
 1798 0286 029E     		ldr	r6, [sp, #8]
 625:Drivers/lvgl/lvgl/src/extra/layouts/grid/lv_grid.c ****         case LV_GRID_ALIGN_CENTER:
 1799              		.loc 1 625 0
 1800 0288 4AE7     		b	.L109
 1801              	.LVL285:
 1802              	.L108:
 627:Drivers/lvgl/lvgl/src/extra/layouts/grid/lv_grid.c ****             item->w_layout = 0;
 1803              		.loc 1 627 0
 1804 028a 2B68     		ldr	r3, [r5]
 1805 028c 33F81AA0 		ldrh	r10, [r3, r10, lsl #1]
 1806              	.LVL286:
 1807 0290 029B     		ldr	r3, [sp, #8]
 1808 0292 9B1B     		subs	r3, r3, r6
 1809 0294 0AD4     		bmi	.L133
 1810              	.L110:
 1811 0296 0AEB630A 		add	r10, r10, r3, asr #1
 1812 029a 0FFA8AFA 		sxth	r10, r10
 1813              	.LVL287:
 628:Drivers/lvgl/lvgl/src/extra/layouts/grid/lv_grid.c ****             break;
 1814              		.loc 1 628 0
 1815 029e 94F82330 		ldrb	r3, [r4, #35]	@ zero_extendqisi2
 1816 02a2 6FF38203 		bfc	r3, #2, #1
 1817 02a6 84F82330 		strb	r3, [r4, #35]
 1818              	.LVL288:
 629:Drivers/lvgl/lvgl/src/extra/layouts/grid/lv_grid.c ****         case LV_GRID_ALIGN_END:
 1819              		.loc 1 629 0
 1820 02aa 39E7     		b	.L109
 1821              	.LVL289:
 1822              	.L133:
 627:Drivers/lvgl/lvgl/src/extra/layouts/grid/lv_grid.c ****             item->w_layout = 0;
 1823              		.loc 1 627 0
 1824 02ac 0133     		adds	r3, r3, #1
 1825 02ae F2E7     		b	.L110
 1826              	.LVL290:
 1827              	.L106:
 631:Drivers/lvgl/lvgl/src/extra/layouts/grid/lv_grid.c ****             item->w_layout = 0;
ARM GAS  /tmp/ccFQgg33.s 			page 66


 1828              		.loc 1 631 0
 1829 02b0 2B68     		ldr	r3, [r5]
 1830 02b2 33F81AA0 		ldrh	r10, [r3, r10, lsl #1]
 1831              	.LVL291:
 1832 02b6 049B     		ldr	r3, [sp, #16]
 1833 02b8 5344     		add	r3, r3, r10
 1834 02ba 1FFA83FA 		uxth	r10, r3
 1835 02be 2046     		mov	r0, r4
 1836 02c0 FFF7FEFF 		bl	lv_obj_get_width
 1837              	.LVL292:
 1838 02c4 80B2     		uxth	r0, r0
 1839 02c6 AAEB000A 		sub	r10, r10, r0
 1840 02ca 0FFA8AFA 		sxth	r10, r10
 1841              	.LVL293:
 632:Drivers/lvgl/lvgl/src/extra/layouts/grid/lv_grid.c ****             break;
 1842              		.loc 1 632 0
 1843 02ce 94F82330 		ldrb	r3, [r4, #35]	@ zero_extendqisi2
 1844 02d2 6FF38203 		bfc	r3, #2, #1
 1845 02d6 84F82330 		strb	r3, [r4, #35]
 1846              	.LVL294:
 633:Drivers/lvgl/lvgl/src/extra/layouts/grid/lv_grid.c ****     }
 1847              		.loc 1 633 0
 1848 02da 21E7     		b	.L109
 1849              	.LVL295:
 1850              	.L113:
 643:Drivers/lvgl/lvgl/src/extra/layouts/grid/lv_grid.c ****             item_h = row_h;
 1851              		.loc 1 643 0
 1852 02dc 6B68     		ldr	r3, [r5, #4]
 1853 02de 33F91950 		ldrsh	r5, [r3, r9, lsl #1]
 1854              	.LVL296:
 645:Drivers/lvgl/lvgl/src/extra/layouts/grid/lv_grid.c ****             break;
 1855              		.loc 1 645 0
 1856 02e2 94F82330 		ldrb	r3, [r4, #35]	@ zero_extendqisi2
 1857 02e6 43F00203 		orr	r3, r3, #2
 1858 02ea 84F82330 		strb	r3, [r4, #35]
 1859              	.LVL297:
 644:Drivers/lvgl/lvgl/src/extra/layouts/grid/lv_grid.c ****             item->h_layout = 1;
 1860              		.loc 1 644 0
 1861 02ee 039F     		ldr	r7, [sp, #12]
 646:Drivers/lvgl/lvgl/src/extra/layouts/grid/lv_grid.c ****         case LV_GRID_ALIGN_CENTER:
 1862              		.loc 1 646 0
 1863 02f0 2AE7     		b	.L115
 1864              	.LVL298:
 1865              	.L114:
 648:Drivers/lvgl/lvgl/src/extra/layouts/grid/lv_grid.c ****             item->h_layout = 0;
 1866              		.loc 1 648 0
 1867 02f2 6B68     		ldr	r3, [r5, #4]
 1868 02f4 33F81950 		ldrh	r5, [r3, r9, lsl #1]
 1869              	.LVL299:
 1870 02f8 039B     		ldr	r3, [sp, #12]
 1871 02fa DB1B     		subs	r3, r3, r7
 1872 02fc 09D4     		bmi	.L134
 1873              	.L116:
 1874 02fe 05EB6305 		add	r5, r5, r3, asr #1
 1875 0302 2DB2     		sxth	r5, r5
 1876              	.LVL300:
 649:Drivers/lvgl/lvgl/src/extra/layouts/grid/lv_grid.c ****             break;
ARM GAS  /tmp/ccFQgg33.s 			page 67


 1877              		.loc 1 649 0
 1878 0304 94F82330 		ldrb	r3, [r4, #35]	@ zero_extendqisi2
 1879 0308 6FF34103 		bfc	r3, #1, #1
 1880 030c 84F82330 		strb	r3, [r4, #35]
 650:Drivers/lvgl/lvgl/src/extra/layouts/grid/lv_grid.c ****         case LV_GRID_ALIGN_END:
 1881              		.loc 1 650 0
 1882 0310 1AE7     		b	.L115
 1883              	.LVL301:
 1884              	.L134:
 648:Drivers/lvgl/lvgl/src/extra/layouts/grid/lv_grid.c ****             item->h_layout = 0;
 1885              		.loc 1 648 0
 1886 0312 0133     		adds	r3, r3, #1
 1887 0314 F3E7     		b	.L116
 1888              	.LVL302:
 1889              	.L112:
 652:Drivers/lvgl/lvgl/src/extra/layouts/grid/lv_grid.c ****             item->h_layout = 0;
 1890              		.loc 1 652 0
 1891 0316 6B68     		ldr	r3, [r5, #4]
 1892 0318 33F81950 		ldrh	r5, [r3, r9, lsl #1]
 1893              	.LVL303:
 1894 031c 059B     		ldr	r3, [sp, #20]
 1895 031e 2B44     		add	r3, r3, r5
 1896 0320 9DB2     		uxth	r5, r3
 1897 0322 2046     		mov	r0, r4
 1898 0324 FFF7FEFF 		bl	lv_obj_get_height
 1899              	.LVL304:
 1900 0328 80B2     		uxth	r0, r0
 1901 032a 2D1A     		subs	r5, r5, r0
 1902 032c 2DB2     		sxth	r5, r5
 1903              	.LVL305:
 653:Drivers/lvgl/lvgl/src/extra/layouts/grid/lv_grid.c ****             break;
 1904              		.loc 1 653 0
 1905 032e 94F82330 		ldrb	r3, [r4, #35]	@ zero_extendqisi2
 1906 0332 6FF34103 		bfc	r3, #1, #1
 1907 0336 84F82330 		strb	r3, [r4, #35]
 654:Drivers/lvgl/lvgl/src/extra/layouts/grid/lv_grid.c ****     }
 1908              		.loc 1 654 0
 1909 033a 05E7     		b	.L115
 1910              	.L136:
 1911              		.align	2
 1912              	.L135:
 1913 033c 01000600 		.word	393217
 1914 0340 00000000 		.word	LV_STYLE_GRID_CELL_COLUMN_SPAN
 1915 0344 00000000 		.word	LV_STYLE_GRID_CELL_ROW_SPAN
 1916 0348 00000000 		.word	LV_STYLE_GRID_CELL_COLUMN_POS
 1917 034c 00000000 		.word	LV_STYLE_GRID_CELL_ROW_POS
 1918 0350 00000000 		.word	LV_STYLE_GRID_CELL_X_ALIGN
 1919 0354 00000000 		.word	LV_STYLE_GRID_CELL_Y_ALIGN
 1920              	.LVL306:
 1921              	.L130:
 658:Drivers/lvgl/lvgl/src/extra/layouts/grid/lv_grid.c ****         lv_area_t old_coords;
 1922              		.loc 1 658 0 discriminator 1
 1923 0358 2046     		mov	r0, r4
 1924 035a FFF7FEFF 		bl	lv_obj_get_height
 1925              	.LVL307:
 1926 035e B842     		cmp	r0, r7
 1927 0360 7FF4F8AE 		bne	.L117
ARM GAS  /tmp/ccFQgg33.s 			page 68


 1928 0364 23E7     		b	.L118
 1929              	.LVL308:
 1930              	.L131:
 675:Drivers/lvgl/lvgl/src/extra/layouts/grid/lv_grid.c ****     if(LV_COORD_IS_PCT(tr_y)) tr_y = (h * LV_COORD_GET_PCT(tr_y)) / 100;
 1931              		.loc 1 675 0 discriminator 1
 1932 0366 2BF4C043 		bic	r3, fp, #24576
 1933 036a B3F5FA6F 		cmp	r3, #2000
 1934 036e 3FF73BAF 		bgt	.L119
 675:Drivers/lvgl/lvgl/src/extra/layouts/grid/lv_grid.c ****     if(LV_COORD_IS_PCT(tr_y)) tr_y = (h * LV_COORD_GET_PCT(tr_y)) / 100;
 1935              		.loc 1 675 0 is_stmt 0 discriminator 2
 1936 0372 B3F57A7F 		cmp	r3, #1000
 1937 0376 01DD     		ble	.L121
 675:Drivers/lvgl/lvgl/src/extra/layouts/grid/lv_grid.c ****     if(LV_COORD_IS_PCT(tr_y)) tr_y = (h * LV_COORD_GET_PCT(tr_y)) / 100;
 1938              		.loc 1 675 0 discriminator 3
 1939 0378 C3F57A73 		rsb	r3, r3, #1000
 1940              	.L121:
 675:Drivers/lvgl/lvgl/src/extra/layouts/grid/lv_grid.c ****     if(LV_COORD_IS_PCT(tr_y)) tr_y = (h * LV_COORD_GET_PCT(tr_y)) / 100;
 1941              		.loc 1 675 0 discriminator 6
 1942 037c 019A     		ldr	r2, [sp, #4]
 1943 037e 03FB02F3 		mul	r3, r3, r2
 1944 0382 104A     		ldr	r2, .L137
 1945 0384 82FB0312 		smull	r1, r2, r2, r3
 1946 0388 4FEAE37B 		asr	fp, r3, #31
 1947 038c CBEB621B 		rsb	fp, fp, r2, asr #5
 1948 0390 0FFA8BFB 		sxth	fp, fp
 1949              	.LVL309:
 1950 0394 28E7     		b	.L119
 1951              	.L132:
 676:Drivers/lvgl/lvgl/src/extra/layouts/grid/lv_grid.c **** 
 1952              		.loc 1 676 0 is_stmt 1 discriminator 1
 1953 0396 29F4C043 		bic	r3, r9, #24576
 1954 039a B3F5FA6F 		cmp	r3, #2000
 1955 039e 3FF729AF 		bgt	.L122
 676:Drivers/lvgl/lvgl/src/extra/layouts/grid/lv_grid.c **** 
 1956              		.loc 1 676 0 is_stmt 0 discriminator 2
 1957 03a2 B3F57A7F 		cmp	r3, #1000
 1958 03a6 01DD     		ble	.L124
 676:Drivers/lvgl/lvgl/src/extra/layouts/grid/lv_grid.c **** 
 1959              		.loc 1 676 0 discriminator 3
 1960 03a8 C3F57A73 		rsb	r3, r3, #1000
 1961              	.L124:
 676:Drivers/lvgl/lvgl/src/extra/layouts/grid/lv_grid.c **** 
 1962              		.loc 1 676 0 discriminator 6
 1963 03ac 03FB00F0 		mul	r0, r3, r0
 1964              	.LVL310:
 1965 03b0 044B     		ldr	r3, .L137
 1966 03b2 83FB0023 		smull	r2, r3, r3, r0
 1967 03b6 4FEAE079 		asr	r9, r0, #31
 1968 03ba C9EB6319 		rsb	r9, r9, r3, asr #5
 1969 03be 0FFA89F9 		sxth	r9, r9
 1970              	.LVL311:
 1971 03c2 17E7     		b	.L122
 1972              	.L138:
 1973              		.align	2
 1974              	.L137:
 1975 03c4 1F85EB51 		.word	1374389535
 1976              		.cfi_endproc
ARM GAS  /tmp/ccFQgg33.s 			page 69


 1977              	.LFE214:
 1979              		.section	.text.calc_free,"ax",%progbits
 1980              		.align	1
 1981              		.syntax unified
 1982              		.thumb
 1983              		.thumb_func
 1984              		.fpu fpv5-d16
 1986              	calc_free:
 1987              	.LFB211:
 426:Drivers/lvgl/lvgl/src/extra/layouts/grid/lv_grid.c ****     lv_mem_buf_release(calc->x);
 1988              		.loc 1 426 0 is_stmt 1
 1989              		.cfi_startproc
 1990              		@ args = 0, pretend = 0, frame = 0
 1991              		@ frame_needed = 0, uses_anonymous_args = 0
 1992              	.LVL312:
 1993 0000 10B5     		push	{r4, lr}
 1994              	.LCFI13:
 1995              		.cfi_def_cfa_offset 8
 1996              		.cfi_offset 4, -8
 1997              		.cfi_offset 14, -4
 1998 0002 0446     		mov	r4, r0
 427:Drivers/lvgl/lvgl/src/extra/layouts/grid/lv_grid.c ****     lv_mem_buf_release(calc->y);
 1999              		.loc 1 427 0
 2000 0004 0068     		ldr	r0, [r0]
 2001              	.LVL313:
 2002 0006 FFF7FEFF 		bl	lv_mem_buf_release
 2003              	.LVL314:
 428:Drivers/lvgl/lvgl/src/extra/layouts/grid/lv_grid.c ****     lv_mem_buf_release(calc->w);
 2004              		.loc 1 428 0
 2005 000a 6068     		ldr	r0, [r4, #4]
 2006 000c FFF7FEFF 		bl	lv_mem_buf_release
 2007              	.LVL315:
 429:Drivers/lvgl/lvgl/src/extra/layouts/grid/lv_grid.c ****     lv_mem_buf_release(calc->h);
 2008              		.loc 1 429 0
 2009 0010 A068     		ldr	r0, [r4, #8]
 2010 0012 FFF7FEFF 		bl	lv_mem_buf_release
 2011              	.LVL316:
 430:Drivers/lvgl/lvgl/src/extra/layouts/grid/lv_grid.c **** }
 2012              		.loc 1 430 0
 2013 0016 E068     		ldr	r0, [r4, #12]
 2014 0018 FFF7FEFF 		bl	lv_mem_buf_release
 2015              	.LVL317:
 431:Drivers/lvgl/lvgl/src/extra/layouts/grid/lv_grid.c **** 
 2016              		.loc 1 431 0
 2017 001c 10BD     		pop	{r4, pc}
 2018              		.cfi_endproc
 2019              	.LFE211:
 2021              		.section	.text.grid_update,"ax",%progbits
 2022              		.align	1
 2023              		.syntax unified
 2024              		.thumb
 2025              		.thumb_func
 2026              		.fpu fpv5-d16
 2028              	grid_update:
 2029              	.LFB209:
 345:Drivers/lvgl/lvgl/src/extra/layouts/grid/lv_grid.c ****     LV_LOG_INFO("update %p container", (void *)cont);
 2030              		.loc 1 345 0
ARM GAS  /tmp/ccFQgg33.s 			page 70


 2031              		.cfi_startproc
 2032              		@ args = 0, pretend = 0, frame = 40
 2033              		@ frame_needed = 0, uses_anonymous_args = 0
 2034              	.LVL318:
 2035 0000 70B5     		push	{r4, r5, r6, lr}
 2036              	.LCFI14:
 2037              		.cfi_def_cfa_offset 16
 2038              		.cfi_offset 4, -16
 2039              		.cfi_offset 5, -12
 2040              		.cfi_offset 6, -8
 2041              		.cfi_offset 14, -4
 2042 0002 8AB0     		sub	sp, sp, #40
 2043              	.LCFI15:
 2044              		.cfi_def_cfa_offset 56
 2045 0004 0546     		mov	r5, r0
 2046              	.LVL319:
 2047              	.LBB226:
 2048              	.LBB227:
 2049              	.LBB228:
 129:Drivers/lvgl/lvgl/src/extra/layouts/grid/../grid/lv_grid.h ****     return (const lv_coord_t *)v.ptr;
 2050              		.loc 2 129 0
 2051 0006 3A4B     		ldr	r3, .L150
 2052 0008 1A88     		ldrh	r2, [r3]
 2053 000a 0021     		movs	r1, #0
 2054              	.LVL320:
 2055 000c FFF7FEFF 		bl	lv_obj_get_style_prop
 2056              	.LVL321:
 2057 0010 0446     		mov	r4, r0
 2058              	.LVL322:
 2059              	.LBE228:
 2060              	.LBE227:
 2061              	.LBE226:
 2062              	.LBB229:
 2063              	.LBB230:
 2064              	.LBB231:
 123:Drivers/lvgl/lvgl/src/extra/layouts/grid/../grid/lv_grid.h ****     return (const lv_coord_t *)v.ptr;
 2065              		.loc 2 123 0
 2066 0012 384B     		ldr	r3, .L150+4
 2067 0014 1A88     		ldrh	r2, [r3]
 2068 0016 0021     		movs	r1, #0
 2069 0018 2846     		mov	r0, r5
 2070 001a FFF7FEFF 		bl	lv_obj_get_style_prop
 2071              	.LVL323:
 2072              	.LBE231:
 2073              	.LBE230:
 2074              	.LBE229:
 351:Drivers/lvgl/lvgl/src/extra/layouts/grid/lv_grid.c **** 
 2075              		.loc 1 351 0
 2076 001e B0FA80F0 		clz	r0, r0
 2077 0022 4009     		lsrs	r0, r0, #5
 2078              	.LVL324:
 2079 0024 002C     		cmp	r4, #0
 2080 0026 08BF     		it	eq
 2081 0028 0120     		moveq	r0, #1
 2082 002a 08B1     		cbz	r0, .L148
 2083              	.L141:
 383:Drivers/lvgl/lvgl/src/extra/layouts/grid/lv_grid.c **** 
ARM GAS  /tmp/ccFQgg33.s 			page 71


 2084              		.loc 1 383 0
 2085 002c 0AB0     		add	sp, sp, #40
 2086              	.LCFI16:
 2087              		.cfi_remember_state
 2088              		.cfi_def_cfa_offset 16
 2089              		@ sp needed
 2090 002e 70BD     		pop	{r4, r5, r6, pc}
 2091              	.LVL325:
 2092              	.L148:
 2093              	.LCFI17:
 2094              		.cfi_restore_state
 354:Drivers/lvgl/lvgl/src/extra/layouts/grid/lv_grid.c **** 
 2095              		.loc 1 354 0
 2096 0030 03A9     		add	r1, sp, #12
 2097 0032 2846     		mov	r0, r5
 2098 0034 FFF7FEFF 		bl	calc
 2099              	.LVL326:
 357:Drivers/lvgl/lvgl/src/extra/layouts/grid/lv_grid.c **** 
 2100              		.loc 1 357 0
 2101 0038 0C21     		movs	r1, #12
 2102 003a 6846     		mov	r0, sp
 2103 003c FFF7FEFF 		bl	lv_memset_00
 2104              	.LVL327:
 2105              	.LBB232:
 2106              	.LBB233:
 255:Drivers/lvgl/lvgl/src/extra/layouts/grid/../flex/../../../core/lv_obj_style_gen.h ****     return (lv_coord_t)v.num;
 2107              		.loc 3 255 0
 2108 0040 3222     		movs	r2, #50
 2109 0042 0021     		movs	r1, #0
 2110 0044 2846     		mov	r0, r5
 2111 0046 FFF7FEFF 		bl	lv_obj_get_style_prop
 2112              	.LVL328:
 2113 004a 0646     		mov	r6, r0
 2114              	.LVL329:
 2115              	.LBE233:
 2116              	.LBE232:
 2117              	.LBB234:
 2118              	.LBB235:
 117:Drivers/lvgl/lvgl/src/extra/layouts/grid/../flex/../../../core/lv_obj_style_gen.h ****     return (lv_coord_t)v.num;
 2119              		.loc 3 117 0
 2120 004c 1222     		movs	r2, #18
 2121 004e 0021     		movs	r1, #0
 2122 0050 2846     		mov	r0, r5
 2123 0052 FFF7FEFF 		bl	lv_obj_get_style_prop
 2124              	.LVL330:
 2125              	.LBE235:
 2126              	.LBE234:
 362:Drivers/lvgl/lvgl/src/extra/layouts/grid/lv_grid.c ****     lv_coord_t pad_top = lv_obj_get_style_pad_top(cont, LV_PART_MAIN) + border_widt;
 2127              		.loc 1 362 0
 2128 0056 B6B2     		uxth	r6, r6
 2129 0058 16FA80F4 		uxtah	r4, r6, r0
 2130              	.LVL331:
 2131 005c A4B2     		uxth	r4, r4
 2132              	.LVL332:
 2133              	.LBB236:
 2134              	.LBB237:
 105:Drivers/lvgl/lvgl/src/extra/layouts/grid/../flex/../../../core/lv_obj_style_gen.h ****     return (lv_coord_t)v.num;
ARM GAS  /tmp/ccFQgg33.s 			page 72


 2135              		.loc 3 105 0
 2136 005e 1022     		movs	r2, #16
 2137 0060 0021     		movs	r1, #0
 2138 0062 2846     		mov	r0, r5
 2139 0064 FFF7FEFF 		bl	lv_obj_get_style_prop
 2140              	.LVL333:
 2141              	.LBE237:
 2142              	.LBE236:
 363:Drivers/lvgl/lvgl/src/extra/layouts/grid/lv_grid.c ****     hint.grid_abs.x = pad_left + cont->coords.x1 - lv_obj_get_scroll_x(cont);
 2143              		.loc 1 363 0
 2144 0068 16FA80F6 		uxtah	r6, r6, r0
 2145 006c B6B2     		uxth	r6, r6
 2146              	.LVL334:
 364:Drivers/lvgl/lvgl/src/extra/layouts/grid/lv_grid.c ****     hint.grid_abs.y = pad_top + cont->coords.y1 - lv_obj_get_scroll_y(cont);
 2147              		.loc 1 364 0
 2148 006e A88A     		ldrh	r0, [r5, #20]
 2149 0070 0444     		add	r4, r4, r0
 2150              	.LVL335:
 2151 0072 A4B2     		uxth	r4, r4
 2152 0074 2846     		mov	r0, r5
 2153 0076 FFF7FEFF 		bl	lv_obj_get_scroll_x
 2154              	.LVL336:
 2155 007a 80B2     		uxth	r0, r0
 2156 007c 241A     		subs	r4, r4, r0
 2157 007e ADF80840 		strh	r4, [sp, #8]	@ movhi
 365:Drivers/lvgl/lvgl/src/extra/layouts/grid/lv_grid.c **** 
 2158              		.loc 1 365 0
 2159 0082 EC8A     		ldrh	r4, [r5, #22]
 2160 0084 3444     		add	r4, r4, r6
 2161 0086 A4B2     		uxth	r4, r4
 2162 0088 2846     		mov	r0, r5
 2163 008a FFF7FEFF 		bl	lv_obj_get_scroll_y
 2164              	.LVL337:
 2165 008e 80B2     		uxth	r0, r0
 2166 0090 241A     		subs	r4, r4, r0
 2167 0092 ADF80A40 		strh	r4, [sp, #10]	@ movhi
 2168              	.LVL338:
 368:Drivers/lvgl/lvgl/src/extra/layouts/grid/lv_grid.c ****         lv_obj_t * item = cont->spec_attr->children[i];
 2169              		.loc 1 368 0
 2170 0096 0024     		movs	r4, #0
 2171 0098 07E0     		b	.L143
 2172              	.LVL339:
 2173              	.L144:
 2174              	.LBB238:
 369:Drivers/lvgl/lvgl/src/extra/layouts/grid/lv_grid.c ****         item_repos(item, &c, &hint);
 2175              		.loc 1 369 0 discriminator 3
 2176 009a 1B68     		ldr	r3, [r3]
 2177              	.LVL340:
 370:Drivers/lvgl/lvgl/src/extra/layouts/grid/lv_grid.c ****     }
 2178              		.loc 1 370 0 discriminator 3
 2179 009c 6A46     		mov	r2, sp
 2180 009e 03A9     		add	r1, sp, #12
 2181 00a0 53F82400 		ldr	r0, [r3, r4, lsl #2]
 2182 00a4 FFF7FEFF 		bl	item_repos
 2183              	.LVL341:
 2184              	.LBE238:
 368:Drivers/lvgl/lvgl/src/extra/layouts/grid/lv_grid.c ****         lv_obj_t * item = cont->spec_attr->children[i];
ARM GAS  /tmp/ccFQgg33.s 			page 73


 2185              		.loc 1 368 0 discriminator 3
 2186 00a8 0134     		adds	r4, r4, #1
 2187              	.LVL342:
 2188              	.L143:
 368:Drivers/lvgl/lvgl/src/extra/layouts/grid/lv_grid.c ****         lv_obj_t * item = cont->spec_attr->children[i];
 2189              		.loc 1 368 0 is_stmt 0 discriminator 1
 2190 00aa AB68     		ldr	r3, [r5, #8]
 2191 00ac 5A68     		ldr	r2, [r3, #4]
 2192 00ae A242     		cmp	r2, r4
 2193 00b0 F3D8     		bhi	.L144
 372:Drivers/lvgl/lvgl/src/extra/layouts/grid/lv_grid.c **** 
 2194              		.loc 1 372 0 is_stmt 1
 2195 00b2 03A8     		add	r0, sp, #12
 2196 00b4 FFF7FEFF 		bl	calc_free
 2197              	.LVL343:
 2198              	.LBB239:
 2199              	.LBB240:
   3:Drivers/lvgl/lvgl/src/extra/layouts/grid/../flex/../../../core/lv_obj_style_gen.h ****     return (lv_coord_t)v.num;
 2200              		.loc 3 3 0
 2201 00b8 0122     		movs	r2, #1
 2202 00ba 0021     		movs	r1, #0
 2203 00bc 2846     		mov	r0, r5
 2204 00be FFF7FEFF 		bl	lv_obj_get_style_prop
 2205              	.LVL344:
   4:Drivers/lvgl/lvgl/src/extra/layouts/grid/../flex/../../../core/lv_obj_style_gen.h **** }
 2206              		.loc 3 4 0
 2207 00c2 04B2     		sxth	r4, r0
 2208              	.LVL345:
 2209              	.LBE240:
 2210              	.LBE239:
 2211              	.LBB241:
 2212              	.LBB242:
  21:Drivers/lvgl/lvgl/src/extra/layouts/grid/../flex/../../../core/lv_obj_style_gen.h ****     return (lv_coord_t)v.num;
 2213              		.loc 3 21 0
 2214 00c4 0422     		movs	r2, #4
 2215 00c6 0021     		movs	r1, #0
 2216 00c8 2846     		mov	r0, r5
 2217 00ca FFF7FEFF 		bl	lv_obj_get_style_prop
 2218              	.LVL346:
  22:Drivers/lvgl/lvgl/src/extra/layouts/grid/../flex/../../../core/lv_obj_style_gen.h **** }
 2219              		.loc 3 22 0
 2220 00ce 00B2     		sxth	r0, r0
 2221              	.LVL347:
 2222              	.LBE242:
 2223              	.LBE241:
 376:Drivers/lvgl/lvgl/src/extra/layouts/grid/lv_grid.c ****         lv_obj_refr_size(cont);
 2224              		.loc 1 376 0
 2225 00d0 42F2D173 		movw	r3, #10193
 2226 00d4 9842     		cmp	r0, r3
 2227 00d6 18BF     		it	ne
 2228 00d8 9C42     		cmpne	r4, r3
 2229 00da 05D0     		beq	.L149
 2230              	.L145:
 380:Drivers/lvgl/lvgl/src/extra/layouts/grid/lv_grid.c **** 
 2231              		.loc 1 380 0
 2232 00dc 0022     		movs	r2, #0
 2233 00de 2B21     		movs	r1, #43
ARM GAS  /tmp/ccFQgg33.s 			page 74


 2234 00e0 2846     		mov	r0, r5
 2235 00e2 FFF7FEFF 		bl	lv_event_send
 2236              	.LVL348:
 2237 00e6 A1E7     		b	.L141
 2238              	.L149:
 377:Drivers/lvgl/lvgl/src/extra/layouts/grid/lv_grid.c ****     }
 2239              		.loc 1 377 0
 2240 00e8 2846     		mov	r0, r5
 2241 00ea FFF7FEFF 		bl	lv_obj_refr_size
 2242              	.LVL349:
 2243 00ee F5E7     		b	.L145
 2244              	.L151:
 2245              		.align	2
 2246              	.L150:
 2247 00f0 00000000 		.word	LV_STYLE_GRID_COLUMN_DSC_ARRAY
 2248 00f4 00000000 		.word	LV_STYLE_GRID_ROW_DSC_ARRAY
 2249              		.cfi_endproc
 2250              	.LFE209:
 2252              		.section	.text.lv_grid_init,"ax",%progbits
 2253              		.align	1
 2254              		.global	lv_grid_init
 2255              		.syntax unified
 2256              		.thumb
 2257              		.thumb_func
 2258              		.fpu fpv5-d16
 2260              	lv_grid_init:
 2261              	.LFB185:
 131:Drivers/lvgl/lvgl/src/extra/layouts/grid/lv_grid.c ****     LV_LAYOUT_GRID = lv_layout_register(grid_update, NULL);
 2262              		.loc 1 131 0
 2263              		.cfi_startproc
 2264              		@ args = 0, pretend = 0, frame = 0
 2265              		@ frame_needed = 0, uses_anonymous_args = 0
 2266 0000 08B5     		push	{r3, lr}
 2267              	.LCFI18:
 2268              		.cfi_def_cfa_offset 8
 2269              		.cfi_offset 3, -8
 2270              		.cfi_offset 14, -4
 132:Drivers/lvgl/lvgl/src/extra/layouts/grid/lv_grid.c **** 
 2271              		.loc 1 132 0
 2272 0002 0021     		movs	r1, #0
 2273 0004 1B48     		ldr	r0, .L154
 2274 0006 FFF7FEFF 		bl	lv_layout_register
 2275              	.LVL350:
 2276 000a 1B4B     		ldr	r3, .L154+4
 2277 000c 1880     		strh	r0, [r3]	@ movhi
 134:Drivers/lvgl/lvgl/src/extra/layouts/grid/lv_grid.c ****     LV_STYLE_GRID_ROW_DSC_ARRAY = lv_style_register_prop(LV_STYLE_PROP_LAYOUT_REFR);
 2278              		.loc 1 134 0
 2279 000e 0420     		movs	r0, #4
 2280 0010 FFF7FEFF 		bl	lv_style_register_prop
 2281              	.LVL351:
 2282 0014 194B     		ldr	r3, .L154+8
 2283 0016 1880     		strh	r0, [r3]	@ movhi
 135:Drivers/lvgl/lvgl/src/extra/layouts/grid/lv_grid.c ****     LV_STYLE_GRID_COLUMN_ALIGN = lv_style_register_prop(LV_STYLE_PROP_LAYOUT_REFR);
 2284              		.loc 1 135 0
 2285 0018 0420     		movs	r0, #4
 2286 001a FFF7FEFF 		bl	lv_style_register_prop
 2287              	.LVL352:
ARM GAS  /tmp/ccFQgg33.s 			page 75


 2288 001e 184B     		ldr	r3, .L154+12
 2289 0020 1880     		strh	r0, [r3]	@ movhi
 136:Drivers/lvgl/lvgl/src/extra/layouts/grid/lv_grid.c ****     LV_STYLE_GRID_ROW_ALIGN = lv_style_register_prop(LV_STYLE_PROP_LAYOUT_REFR);
 2290              		.loc 1 136 0
 2291 0022 0420     		movs	r0, #4
 2292 0024 FFF7FEFF 		bl	lv_style_register_prop
 2293              	.LVL353:
 2294 0028 164B     		ldr	r3, .L154+16
 2295 002a 1880     		strh	r0, [r3]	@ movhi
 137:Drivers/lvgl/lvgl/src/extra/layouts/grid/lv_grid.c **** 
 2296              		.loc 1 137 0
 2297 002c 0420     		movs	r0, #4
 2298 002e FFF7FEFF 		bl	lv_style_register_prop
 2299              	.LVL354:
 2300 0032 154B     		ldr	r3, .L154+20
 2301 0034 1880     		strh	r0, [r3]	@ movhi
 139:Drivers/lvgl/lvgl/src/extra/layouts/grid/lv_grid.c ****     LV_STYLE_GRID_CELL_ROW_POS = lv_style_register_prop(LV_STYLE_PROP_LAYOUT_REFR);
 2302              		.loc 1 139 0
 2303 0036 0420     		movs	r0, #4
 2304 0038 FFF7FEFF 		bl	lv_style_register_prop
 2305              	.LVL355:
 2306 003c 134B     		ldr	r3, .L154+24
 2307 003e 1880     		strh	r0, [r3]	@ movhi
 140:Drivers/lvgl/lvgl/src/extra/layouts/grid/lv_grid.c ****     LV_STYLE_GRID_CELL_COLUMN_SPAN = lv_style_register_prop(LV_STYLE_PROP_LAYOUT_REFR);
 2308              		.loc 1 140 0
 2309 0040 0420     		movs	r0, #4
 2310 0042 FFF7FEFF 		bl	lv_style_register_prop
 2311              	.LVL356:
 2312 0046 124B     		ldr	r3, .L154+28
 2313 0048 1880     		strh	r0, [r3]	@ movhi
 141:Drivers/lvgl/lvgl/src/extra/layouts/grid/lv_grid.c ****     LV_STYLE_GRID_CELL_COLUMN_POS = lv_style_register_prop(LV_STYLE_PROP_LAYOUT_REFR);
 2314              		.loc 1 141 0
 2315 004a 0420     		movs	r0, #4
 2316 004c FFF7FEFF 		bl	lv_style_register_prop
 2317              	.LVL357:
 2318 0050 104B     		ldr	r3, .L154+32
 2319 0052 1880     		strh	r0, [r3]	@ movhi
 142:Drivers/lvgl/lvgl/src/extra/layouts/grid/lv_grid.c ****     LV_STYLE_GRID_CELL_X_ALIGN = lv_style_register_prop(LV_STYLE_PROP_LAYOUT_REFR);
 2320              		.loc 1 142 0
 2321 0054 0420     		movs	r0, #4
 2322 0056 FFF7FEFF 		bl	lv_style_register_prop
 2323              	.LVL358:
 2324 005a 0F4B     		ldr	r3, .L154+36
 2325 005c 1880     		strh	r0, [r3]	@ movhi
 143:Drivers/lvgl/lvgl/src/extra/layouts/grid/lv_grid.c ****     LV_STYLE_GRID_CELL_Y_ALIGN = lv_style_register_prop(LV_STYLE_PROP_LAYOUT_REFR);
 2326              		.loc 1 143 0
 2327 005e 0420     		movs	r0, #4
 2328 0060 FFF7FEFF 		bl	lv_style_register_prop
 2329              	.LVL359:
 2330 0064 0D4B     		ldr	r3, .L154+40
 2331 0066 1880     		strh	r0, [r3]	@ movhi
 144:Drivers/lvgl/lvgl/src/extra/layouts/grid/lv_grid.c **** }
 2332              		.loc 1 144 0
 2333 0068 0420     		movs	r0, #4
 2334 006a FFF7FEFF 		bl	lv_style_register_prop
 2335              	.LVL360:
 2336 006e 0C4B     		ldr	r3, .L154+44
ARM GAS  /tmp/ccFQgg33.s 			page 76


 2337 0070 1880     		strh	r0, [r3]	@ movhi
 145:Drivers/lvgl/lvgl/src/extra/layouts/grid/lv_grid.c **** 
 2338              		.loc 1 145 0
 2339 0072 08BD     		pop	{r3, pc}
 2340              	.L155:
 2341              		.align	2
 2342              	.L154:
 2343 0074 00000000 		.word	grid_update
 2344 0078 00000000 		.word	LV_LAYOUT_GRID
 2345 007c 00000000 		.word	LV_STYLE_GRID_COLUMN_DSC_ARRAY
 2346 0080 00000000 		.word	LV_STYLE_GRID_ROW_DSC_ARRAY
 2347 0084 00000000 		.word	LV_STYLE_GRID_COLUMN_ALIGN
 2348 0088 00000000 		.word	LV_STYLE_GRID_ROW_ALIGN
 2349 008c 00000000 		.word	LV_STYLE_GRID_CELL_ROW_SPAN
 2350 0090 00000000 		.word	LV_STYLE_GRID_CELL_ROW_POS
 2351 0094 00000000 		.word	LV_STYLE_GRID_CELL_COLUMN_SPAN
 2352 0098 00000000 		.word	LV_STYLE_GRID_CELL_COLUMN_POS
 2353 009c 00000000 		.word	LV_STYLE_GRID_CELL_X_ALIGN
 2354 00a0 00000000 		.word	LV_STYLE_GRID_CELL_Y_ALIGN
 2355              		.cfi_endproc
 2356              	.LFE185:
 2358              		.section	.text.lv_style_set_grid_row_dsc_array,"ax",%progbits
 2359              		.align	1
 2360              		.global	lv_style_set_grid_row_dsc_array
 2361              		.syntax unified
 2362              		.thumb
 2363              		.thumb_func
 2364              		.fpu fpv5-d16
 2366              	lv_style_set_grid_row_dsc_array:
 2367              	.LFB189:
 177:Drivers/lvgl/lvgl/src/extra/layouts/grid/lv_grid.c ****     lv_style_value_t v = {
 2368              		.loc 1 177 0
 2369              		.cfi_startproc
 2370              		@ args = 0, pretend = 0, frame = 0
 2371              		@ frame_needed = 0, uses_anonymous_args = 0
 2372              	.LVL361:
 2373 0000 08B5     		push	{r3, lr}
 2374              	.LCFI19:
 2375              		.cfi_def_cfa_offset 8
 2376              		.cfi_offset 3, -8
 2377              		.cfi_offset 14, -4
 181:Drivers/lvgl/lvgl/src/extra/layouts/grid/lv_grid.c **** }
 2378              		.loc 1 181 0
 2379 0002 0A46     		mov	r2, r1
 2380 0004 024B     		ldr	r3, .L158
 2381 0006 1988     		ldrh	r1, [r3]
 2382              	.LVL362:
 2383 0008 FFF7FEFF 		bl	lv_style_set_prop
 2384              	.LVL363:
 182:Drivers/lvgl/lvgl/src/extra/layouts/grid/lv_grid.c **** 
 2385              		.loc 1 182 0
 2386 000c 08BD     		pop	{r3, pc}
 2387              	.L159:
 2388 000e 00BF     		.align	2
 2389              	.L158:
 2390 0010 00000000 		.word	LV_STYLE_GRID_ROW_DSC_ARRAY
 2391              		.cfi_endproc
ARM GAS  /tmp/ccFQgg33.s 			page 77


 2392              	.LFE189:
 2394              		.section	.text.lv_style_set_grid_column_dsc_array,"ax",%progbits
 2395              		.align	1
 2396              		.global	lv_style_set_grid_column_dsc_array
 2397              		.syntax unified
 2398              		.thumb
 2399              		.thumb_func
 2400              		.fpu fpv5-d16
 2402              	lv_style_set_grid_column_dsc_array:
 2403              	.LFB190:
 185:Drivers/lvgl/lvgl/src/extra/layouts/grid/lv_grid.c ****     lv_style_value_t v = {
 2404              		.loc 1 185 0
 2405              		.cfi_startproc
 2406              		@ args = 0, pretend = 0, frame = 0
 2407              		@ frame_needed = 0, uses_anonymous_args = 0
 2408              	.LVL364:
 2409 0000 08B5     		push	{r3, lr}
 2410              	.LCFI20:
 2411              		.cfi_def_cfa_offset 8
 2412              		.cfi_offset 3, -8
 2413              		.cfi_offset 14, -4
 189:Drivers/lvgl/lvgl/src/extra/layouts/grid/lv_grid.c **** }
 2414              		.loc 1 189 0
 2415 0002 0A46     		mov	r2, r1
 2416 0004 024B     		ldr	r3, .L162
 2417 0006 1988     		ldrh	r1, [r3]
 2418              	.LVL365:
 2419 0008 FFF7FEFF 		bl	lv_style_set_prop
 2420              	.LVL366:
 190:Drivers/lvgl/lvgl/src/extra/layouts/grid/lv_grid.c **** 
 2421              		.loc 1 190 0
 2422 000c 08BD     		pop	{r3, pc}
 2423              	.L163:
 2424 000e 00BF     		.align	2
 2425              	.L162:
 2426 0010 00000000 		.word	LV_STYLE_GRID_COLUMN_DSC_ARRAY
 2427              		.cfi_endproc
 2428              	.LFE190:
 2430              		.section	.text.lv_style_set_grid_row_align,"ax",%progbits
 2431              		.align	1
 2432              		.global	lv_style_set_grid_row_align
 2433              		.syntax unified
 2434              		.thumb
 2435              		.thumb_func
 2436              		.fpu fpv5-d16
 2438              	lv_style_set_grid_row_align:
 2439              	.LFB191:
 193:Drivers/lvgl/lvgl/src/extra/layouts/grid/lv_grid.c ****     lv_style_value_t v = {
 2440              		.loc 1 193 0
 2441              		.cfi_startproc
 2442              		@ args = 0, pretend = 0, frame = 0
 2443              		@ frame_needed = 0, uses_anonymous_args = 0
 2444              	.LVL367:
 2445 0000 08B5     		push	{r3, lr}
 2446              	.LCFI21:
 2447              		.cfi_def_cfa_offset 8
 2448              		.cfi_offset 3, -8
ARM GAS  /tmp/ccFQgg33.s 			page 78


 2449              		.cfi_offset 14, -4
 197:Drivers/lvgl/lvgl/src/extra/layouts/grid/lv_grid.c **** }
 2450              		.loc 1 197 0
 2451 0002 0A46     		mov	r2, r1
 2452 0004 024B     		ldr	r3, .L166
 2453 0006 1988     		ldrh	r1, [r3]
 2454              	.LVL368:
 2455 0008 FFF7FEFF 		bl	lv_style_set_prop
 2456              	.LVL369:
 198:Drivers/lvgl/lvgl/src/extra/layouts/grid/lv_grid.c **** 
 2457              		.loc 1 198 0
 2458 000c 08BD     		pop	{r3, pc}
 2459              	.L167:
 2460 000e 00BF     		.align	2
 2461              	.L166:
 2462 0010 00000000 		.word	LV_STYLE_GRID_ROW_ALIGN
 2463              		.cfi_endproc
 2464              	.LFE191:
 2466              		.section	.text.lv_style_set_grid_column_align,"ax",%progbits
 2467              		.align	1
 2468              		.global	lv_style_set_grid_column_align
 2469              		.syntax unified
 2470              		.thumb
 2471              		.thumb_func
 2472              		.fpu fpv5-d16
 2474              	lv_style_set_grid_column_align:
 2475              	.LFB192:
 201:Drivers/lvgl/lvgl/src/extra/layouts/grid/lv_grid.c ****     lv_style_value_t v = {
 2476              		.loc 1 201 0
 2477              		.cfi_startproc
 2478              		@ args = 0, pretend = 0, frame = 0
 2479              		@ frame_needed = 0, uses_anonymous_args = 0
 2480              	.LVL370:
 2481 0000 08B5     		push	{r3, lr}
 2482              	.LCFI22:
 2483              		.cfi_def_cfa_offset 8
 2484              		.cfi_offset 3, -8
 2485              		.cfi_offset 14, -4
 205:Drivers/lvgl/lvgl/src/extra/layouts/grid/lv_grid.c **** }
 2486              		.loc 1 205 0
 2487 0002 0A46     		mov	r2, r1
 2488 0004 024B     		ldr	r3, .L170
 2489 0006 1988     		ldrh	r1, [r3]
 2490              	.LVL371:
 2491 0008 FFF7FEFF 		bl	lv_style_set_prop
 2492              	.LVL372:
 206:Drivers/lvgl/lvgl/src/extra/layouts/grid/lv_grid.c **** 
 2493              		.loc 1 206 0
 2494 000c 08BD     		pop	{r3, pc}
 2495              	.L171:
 2496 000e 00BF     		.align	2
 2497              	.L170:
 2498 0010 00000000 		.word	LV_STYLE_GRID_COLUMN_ALIGN
 2499              		.cfi_endproc
 2500              	.LFE192:
 2502              		.section	.text.lv_style_set_grid_cell_column_pos,"ax",%progbits
 2503              		.align	1
ARM GAS  /tmp/ccFQgg33.s 			page 79


 2504              		.global	lv_style_set_grid_cell_column_pos
 2505              		.syntax unified
 2506              		.thumb
 2507              		.thumb_func
 2508              		.fpu fpv5-d16
 2510              	lv_style_set_grid_cell_column_pos:
 2511              	.LFB193:
 210:Drivers/lvgl/lvgl/src/extra/layouts/grid/lv_grid.c ****     lv_style_value_t v = {
 2512              		.loc 1 210 0
 2513              		.cfi_startproc
 2514              		@ args = 0, pretend = 0, frame = 0
 2515              		@ frame_needed = 0, uses_anonymous_args = 0
 2516              	.LVL373:
 2517 0000 08B5     		push	{r3, lr}
 2518              	.LCFI23:
 2519              		.cfi_def_cfa_offset 8
 2520              		.cfi_offset 3, -8
 2521              		.cfi_offset 14, -4
 214:Drivers/lvgl/lvgl/src/extra/layouts/grid/lv_grid.c **** }
 2522              		.loc 1 214 0
 2523 0002 0A46     		mov	r2, r1
 2524 0004 024B     		ldr	r3, .L174
 2525 0006 1988     		ldrh	r1, [r3]
 2526              	.LVL374:
 2527 0008 FFF7FEFF 		bl	lv_style_set_prop
 2528              	.LVL375:
 215:Drivers/lvgl/lvgl/src/extra/layouts/grid/lv_grid.c **** 
 2529              		.loc 1 215 0
 2530 000c 08BD     		pop	{r3, pc}
 2531              	.L175:
 2532 000e 00BF     		.align	2
 2533              	.L174:
 2534 0010 00000000 		.word	LV_STYLE_GRID_CELL_COLUMN_POS
 2535              		.cfi_endproc
 2536              	.LFE193:
 2538              		.section	.text.lv_style_set_grid_cell_column_span,"ax",%progbits
 2539              		.align	1
 2540              		.global	lv_style_set_grid_cell_column_span
 2541              		.syntax unified
 2542              		.thumb
 2543              		.thumb_func
 2544              		.fpu fpv5-d16
 2546              	lv_style_set_grid_cell_column_span:
 2547              	.LFB194:
 218:Drivers/lvgl/lvgl/src/extra/layouts/grid/lv_grid.c ****     lv_style_value_t v = {
 2548              		.loc 1 218 0
 2549              		.cfi_startproc
 2550              		@ args = 0, pretend = 0, frame = 0
 2551              		@ frame_needed = 0, uses_anonymous_args = 0
 2552              	.LVL376:
 2553 0000 08B5     		push	{r3, lr}
 2554              	.LCFI24:
 2555              		.cfi_def_cfa_offset 8
 2556              		.cfi_offset 3, -8
 2557              		.cfi_offset 14, -4
 222:Drivers/lvgl/lvgl/src/extra/layouts/grid/lv_grid.c **** }
 2558              		.loc 1 222 0
ARM GAS  /tmp/ccFQgg33.s 			page 80


 2559 0002 0A46     		mov	r2, r1
 2560 0004 024B     		ldr	r3, .L178
 2561 0006 1988     		ldrh	r1, [r3]
 2562              	.LVL377:
 2563 0008 FFF7FEFF 		bl	lv_style_set_prop
 2564              	.LVL378:
 223:Drivers/lvgl/lvgl/src/extra/layouts/grid/lv_grid.c **** 
 2565              		.loc 1 223 0
 2566 000c 08BD     		pop	{r3, pc}
 2567              	.L179:
 2568 000e 00BF     		.align	2
 2569              	.L178:
 2570 0010 00000000 		.word	LV_STYLE_GRID_CELL_COLUMN_SPAN
 2571              		.cfi_endproc
 2572              	.LFE194:
 2574              		.section	.text.lv_style_set_grid_cell_row_pos,"ax",%progbits
 2575              		.align	1
 2576              		.global	lv_style_set_grid_cell_row_pos
 2577              		.syntax unified
 2578              		.thumb
 2579              		.thumb_func
 2580              		.fpu fpv5-d16
 2582              	lv_style_set_grid_cell_row_pos:
 2583              	.LFB195:
 226:Drivers/lvgl/lvgl/src/extra/layouts/grid/lv_grid.c ****     lv_style_value_t v = {
 2584              		.loc 1 226 0
 2585              		.cfi_startproc
 2586              		@ args = 0, pretend = 0, frame = 0
 2587              		@ frame_needed = 0, uses_anonymous_args = 0
 2588              	.LVL379:
 2589 0000 08B5     		push	{r3, lr}
 2590              	.LCFI25:
 2591              		.cfi_def_cfa_offset 8
 2592              		.cfi_offset 3, -8
 2593              		.cfi_offset 14, -4
 230:Drivers/lvgl/lvgl/src/extra/layouts/grid/lv_grid.c **** }
 2594              		.loc 1 230 0
 2595 0002 0A46     		mov	r2, r1
 2596 0004 024B     		ldr	r3, .L182
 2597 0006 1988     		ldrh	r1, [r3]
 2598              	.LVL380:
 2599 0008 FFF7FEFF 		bl	lv_style_set_prop
 2600              	.LVL381:
 231:Drivers/lvgl/lvgl/src/extra/layouts/grid/lv_grid.c **** 
 2601              		.loc 1 231 0
 2602 000c 08BD     		pop	{r3, pc}
 2603              	.L183:
 2604 000e 00BF     		.align	2
 2605              	.L182:
 2606 0010 00000000 		.word	LV_STYLE_GRID_CELL_ROW_POS
 2607              		.cfi_endproc
 2608              	.LFE195:
 2610              		.section	.text.lv_style_set_grid_cell_row_span,"ax",%progbits
 2611              		.align	1
 2612              		.global	lv_style_set_grid_cell_row_span
 2613              		.syntax unified
 2614              		.thumb
ARM GAS  /tmp/ccFQgg33.s 			page 81


 2615              		.thumb_func
 2616              		.fpu fpv5-d16
 2618              	lv_style_set_grid_cell_row_span:
 2619              	.LFB196:
 234:Drivers/lvgl/lvgl/src/extra/layouts/grid/lv_grid.c ****     lv_style_value_t v = {
 2620              		.loc 1 234 0
 2621              		.cfi_startproc
 2622              		@ args = 0, pretend = 0, frame = 0
 2623              		@ frame_needed = 0, uses_anonymous_args = 0
 2624              	.LVL382:
 2625 0000 08B5     		push	{r3, lr}
 2626              	.LCFI26:
 2627              		.cfi_def_cfa_offset 8
 2628              		.cfi_offset 3, -8
 2629              		.cfi_offset 14, -4
 238:Drivers/lvgl/lvgl/src/extra/layouts/grid/lv_grid.c **** }
 2630              		.loc 1 238 0
 2631 0002 0A46     		mov	r2, r1
 2632 0004 024B     		ldr	r3, .L186
 2633 0006 1988     		ldrh	r1, [r3]
 2634              	.LVL383:
 2635 0008 FFF7FEFF 		bl	lv_style_set_prop
 2636              	.LVL384:
 239:Drivers/lvgl/lvgl/src/extra/layouts/grid/lv_grid.c **** 
 2637              		.loc 1 239 0
 2638 000c 08BD     		pop	{r3, pc}
 2639              	.L187:
 2640 000e 00BF     		.align	2
 2641              	.L186:
 2642 0010 00000000 		.word	LV_STYLE_GRID_CELL_ROW_SPAN
 2643              		.cfi_endproc
 2644              	.LFE196:
 2646              		.section	.text.lv_style_set_grid_cell_x_align,"ax",%progbits
 2647              		.align	1
 2648              		.global	lv_style_set_grid_cell_x_align
 2649              		.syntax unified
 2650              		.thumb
 2651              		.thumb_func
 2652              		.fpu fpv5-d16
 2654              	lv_style_set_grid_cell_x_align:
 2655              	.LFB197:
 242:Drivers/lvgl/lvgl/src/extra/layouts/grid/lv_grid.c ****     lv_style_value_t v = {
 2656              		.loc 1 242 0
 2657              		.cfi_startproc
 2658              		@ args = 0, pretend = 0, frame = 0
 2659              		@ frame_needed = 0, uses_anonymous_args = 0
 2660              	.LVL385:
 2661 0000 08B5     		push	{r3, lr}
 2662              	.LCFI27:
 2663              		.cfi_def_cfa_offset 8
 2664              		.cfi_offset 3, -8
 2665              		.cfi_offset 14, -4
 246:Drivers/lvgl/lvgl/src/extra/layouts/grid/lv_grid.c **** }
 2666              		.loc 1 246 0
 2667 0002 0A46     		mov	r2, r1
 2668 0004 024B     		ldr	r3, .L190
 2669 0006 1988     		ldrh	r1, [r3]
ARM GAS  /tmp/ccFQgg33.s 			page 82


 2670              	.LVL386:
 2671 0008 FFF7FEFF 		bl	lv_style_set_prop
 2672              	.LVL387:
 247:Drivers/lvgl/lvgl/src/extra/layouts/grid/lv_grid.c **** 
 2673              		.loc 1 247 0
 2674 000c 08BD     		pop	{r3, pc}
 2675              	.L191:
 2676 000e 00BF     		.align	2
 2677              	.L190:
 2678 0010 00000000 		.word	LV_STYLE_GRID_CELL_X_ALIGN
 2679              		.cfi_endproc
 2680              	.LFE197:
 2682              		.section	.text.lv_style_set_grid_cell_y_align,"ax",%progbits
 2683              		.align	1
 2684              		.global	lv_style_set_grid_cell_y_align
 2685              		.syntax unified
 2686              		.thumb
 2687              		.thumb_func
 2688              		.fpu fpv5-d16
 2690              	lv_style_set_grid_cell_y_align:
 2691              	.LFB198:
 250:Drivers/lvgl/lvgl/src/extra/layouts/grid/lv_grid.c ****     lv_style_value_t v = {
 2692              		.loc 1 250 0
 2693              		.cfi_startproc
 2694              		@ args = 0, pretend = 0, frame = 0
 2695              		@ frame_needed = 0, uses_anonymous_args = 0
 2696              	.LVL388:
 2697 0000 08B5     		push	{r3, lr}
 2698              	.LCFI28:
 2699              		.cfi_def_cfa_offset 8
 2700              		.cfi_offset 3, -8
 2701              		.cfi_offset 14, -4
 254:Drivers/lvgl/lvgl/src/extra/layouts/grid/lv_grid.c **** }
 2702              		.loc 1 254 0
 2703 0002 0A46     		mov	r2, r1
 2704 0004 024B     		ldr	r3, .L194
 2705 0006 1988     		ldrh	r1, [r3]
 2706              	.LVL389:
 2707 0008 FFF7FEFF 		bl	lv_style_set_prop
 2708              	.LVL390:
 255:Drivers/lvgl/lvgl/src/extra/layouts/grid/lv_grid.c **** 
 2709              		.loc 1 255 0
 2710 000c 08BD     		pop	{r3, pc}
 2711              	.L195:
 2712 000e 00BF     		.align	2
 2713              	.L194:
 2714 0010 00000000 		.word	LV_STYLE_GRID_CELL_Y_ALIGN
 2715              		.cfi_endproc
 2716              	.LFE198:
 2718              		.section	.text.lv_obj_set_style_grid_row_dsc_array,"ax",%progbits
 2719              		.align	1
 2720              		.global	lv_obj_set_style_grid_row_dsc_array
 2721              		.syntax unified
 2722              		.thumb
 2723              		.thumb_func
 2724              		.fpu fpv5-d16
 2726              	lv_obj_set_style_grid_row_dsc_array:
ARM GAS  /tmp/ccFQgg33.s 			page 83


 2727              	.LFB199:
 258:Drivers/lvgl/lvgl/src/extra/layouts/grid/lv_grid.c ****     lv_style_value_t v = {
 2728              		.loc 1 258 0
 2729              		.cfi_startproc
 2730              		@ args = 0, pretend = 0, frame = 0
 2731              		@ frame_needed = 0, uses_anonymous_args = 0
 2732              	.LVL391:
 2733 0000 08B5     		push	{r3, lr}
 2734              	.LCFI29:
 2735              		.cfi_def_cfa_offset 8
 2736              		.cfi_offset 3, -8
 2737              		.cfi_offset 14, -4
 262:Drivers/lvgl/lvgl/src/extra/layouts/grid/lv_grid.c **** }
 2738              		.loc 1 262 0
 2739 0002 1346     		mov	r3, r2
 2740 0004 0A46     		mov	r2, r1
 2741              	.LVL392:
 2742 0006 0249     		ldr	r1, .L198
 2743              	.LVL393:
 2744 0008 0988     		ldrh	r1, [r1]
 2745 000a FFF7FEFF 		bl	lv_obj_set_local_style_prop
 2746              	.LVL394:
 263:Drivers/lvgl/lvgl/src/extra/layouts/grid/lv_grid.c **** 
 2747              		.loc 1 263 0
 2748 000e 08BD     		pop	{r3, pc}
 2749              	.L199:
 2750              		.align	2
 2751              	.L198:
 2752 0010 00000000 		.word	LV_STYLE_GRID_ROW_DSC_ARRAY
 2753              		.cfi_endproc
 2754              	.LFE199:
 2756              		.section	.text.lv_obj_set_style_grid_column_dsc_array,"ax",%progbits
 2757              		.align	1
 2758              		.global	lv_obj_set_style_grid_column_dsc_array
 2759              		.syntax unified
 2760              		.thumb
 2761              		.thumb_func
 2762              		.fpu fpv5-d16
 2764              	lv_obj_set_style_grid_column_dsc_array:
 2765              	.LFB200:
 266:Drivers/lvgl/lvgl/src/extra/layouts/grid/lv_grid.c ****     lv_style_value_t v = {
 2766              		.loc 1 266 0
 2767              		.cfi_startproc
 2768              		@ args = 0, pretend = 0, frame = 0
 2769              		@ frame_needed = 0, uses_anonymous_args = 0
 2770              	.LVL395:
 2771 0000 08B5     		push	{r3, lr}
 2772              	.LCFI30:
 2773              		.cfi_def_cfa_offset 8
 2774              		.cfi_offset 3, -8
 2775              		.cfi_offset 14, -4
 270:Drivers/lvgl/lvgl/src/extra/layouts/grid/lv_grid.c **** }
 2776              		.loc 1 270 0
 2777 0002 1346     		mov	r3, r2
 2778 0004 0A46     		mov	r2, r1
 2779              	.LVL396:
 2780 0006 0249     		ldr	r1, .L202
ARM GAS  /tmp/ccFQgg33.s 			page 84


 2781              	.LVL397:
 2782 0008 0988     		ldrh	r1, [r1]
 2783 000a FFF7FEFF 		bl	lv_obj_set_local_style_prop
 2784              	.LVL398:
 271:Drivers/lvgl/lvgl/src/extra/layouts/grid/lv_grid.c **** 
 2785              		.loc 1 271 0
 2786 000e 08BD     		pop	{r3, pc}
 2787              	.L203:
 2788              		.align	2
 2789              	.L202:
 2790 0010 00000000 		.word	LV_STYLE_GRID_COLUMN_DSC_ARRAY
 2791              		.cfi_endproc
 2792              	.LFE200:
 2794              		.section	.text.lv_obj_set_grid_dsc_array,"ax",%progbits
 2795              		.align	1
 2796              		.global	lv_obj_set_grid_dsc_array
 2797              		.syntax unified
 2798              		.thumb
 2799              		.thumb_func
 2800              		.fpu fpv5-d16
 2802              	lv_obj_set_grid_dsc_array:
 2803              	.LFB186:
 148:Drivers/lvgl/lvgl/src/extra/layouts/grid/lv_grid.c ****     lv_obj_set_style_grid_column_dsc_array(obj, col_dsc, 0);
 2804              		.loc 1 148 0
 2805              		.cfi_startproc
 2806              		@ args = 0, pretend = 0, frame = 0
 2807              		@ frame_needed = 0, uses_anonymous_args = 0
 2808              	.LVL399:
 2809 0000 38B5     		push	{r3, r4, r5, lr}
 2810              	.LCFI31:
 2811              		.cfi_def_cfa_offset 16
 2812              		.cfi_offset 3, -16
 2813              		.cfi_offset 4, -12
 2814              		.cfi_offset 5, -8
 2815              		.cfi_offset 14, -4
 2816 0002 0446     		mov	r4, r0
 2817 0004 1546     		mov	r5, r2
 149:Drivers/lvgl/lvgl/src/extra/layouts/grid/lv_grid.c ****     lv_obj_set_style_grid_row_dsc_array(obj, row_dsc, 0);
 2818              		.loc 1 149 0
 2819 0006 0022     		movs	r2, #0
 2820              	.LVL400:
 2821 0008 FFF7FEFF 		bl	lv_obj_set_style_grid_column_dsc_array
 2822              	.LVL401:
 150:Drivers/lvgl/lvgl/src/extra/layouts/grid/lv_grid.c ****     lv_obj_set_style_layout(obj, LV_LAYOUT_GRID, 0);
 2823              		.loc 1 150 0
 2824 000c 0022     		movs	r2, #0
 2825 000e 2946     		mov	r1, r5
 2826 0010 2046     		mov	r0, r4
 2827 0012 FFF7FEFF 		bl	lv_obj_set_style_grid_row_dsc_array
 2828              	.LVL402:
 151:Drivers/lvgl/lvgl/src/extra/layouts/grid/lv_grid.c **** }
 2829              		.loc 1 151 0
 2830 0016 0022     		movs	r2, #0
 2831 0018 024B     		ldr	r3, .L206
 2832 001a 1988     		ldrh	r1, [r3]
 2833 001c 2046     		mov	r0, r4
 2834 001e FFF7FEFF 		bl	lv_obj_set_style_layout
ARM GAS  /tmp/ccFQgg33.s 			page 85


 2835              	.LVL403:
 152:Drivers/lvgl/lvgl/src/extra/layouts/grid/lv_grid.c **** 
 2836              		.loc 1 152 0
 2837 0022 38BD     		pop	{r3, r4, r5, pc}
 2838              	.LVL404:
 2839              	.L207:
 2840              		.align	2
 2841              	.L206:
 2842 0024 00000000 		.word	LV_LAYOUT_GRID
 2843              		.cfi_endproc
 2844              	.LFE186:
 2846              		.section	.text.lv_obj_set_style_grid_row_align,"ax",%progbits
 2847              		.align	1
 2848              		.global	lv_obj_set_style_grid_row_align
 2849              		.syntax unified
 2850              		.thumb
 2851              		.thumb_func
 2852              		.fpu fpv5-d16
 2854              	lv_obj_set_style_grid_row_align:
 2855              	.LFB201:
 275:Drivers/lvgl/lvgl/src/extra/layouts/grid/lv_grid.c ****     lv_style_value_t v = {
 2856              		.loc 1 275 0
 2857              		.cfi_startproc
 2858              		@ args = 0, pretend = 0, frame = 0
 2859              		@ frame_needed = 0, uses_anonymous_args = 0
 2860              	.LVL405:
 2861 0000 08B5     		push	{r3, lr}
 2862              	.LCFI32:
 2863              		.cfi_def_cfa_offset 8
 2864              		.cfi_offset 3, -8
 2865              		.cfi_offset 14, -4
 279:Drivers/lvgl/lvgl/src/extra/layouts/grid/lv_grid.c **** }
 2866              		.loc 1 279 0
 2867 0002 1346     		mov	r3, r2
 2868 0004 0A46     		mov	r2, r1
 2869              	.LVL406:
 2870 0006 0249     		ldr	r1, .L210
 2871              	.LVL407:
 2872 0008 0988     		ldrh	r1, [r1]
 2873 000a FFF7FEFF 		bl	lv_obj_set_local_style_prop
 2874              	.LVL408:
 280:Drivers/lvgl/lvgl/src/extra/layouts/grid/lv_grid.c **** 
 2875              		.loc 1 280 0
 2876 000e 08BD     		pop	{r3, pc}
 2877              	.L211:
 2878              		.align	2
 2879              	.L210:
 2880 0010 00000000 		.word	LV_STYLE_GRID_ROW_ALIGN
 2881              		.cfi_endproc
 2882              	.LFE201:
 2884              		.section	.text.lv_obj_set_style_grid_column_align,"ax",%progbits
 2885              		.align	1
 2886              		.global	lv_obj_set_style_grid_column_align
 2887              		.syntax unified
 2888              		.thumb
 2889              		.thumb_func
 2890              		.fpu fpv5-d16
ARM GAS  /tmp/ccFQgg33.s 			page 86


 2892              	lv_obj_set_style_grid_column_align:
 2893              	.LFB202:
 283:Drivers/lvgl/lvgl/src/extra/layouts/grid/lv_grid.c ****     lv_style_value_t v = {
 2894              		.loc 1 283 0
 2895              		.cfi_startproc
 2896              		@ args = 0, pretend = 0, frame = 0
 2897              		@ frame_needed = 0, uses_anonymous_args = 0
 2898              	.LVL409:
 2899 0000 08B5     		push	{r3, lr}
 2900              	.LCFI33:
 2901              		.cfi_def_cfa_offset 8
 2902              		.cfi_offset 3, -8
 2903              		.cfi_offset 14, -4
 287:Drivers/lvgl/lvgl/src/extra/layouts/grid/lv_grid.c **** }
 2904              		.loc 1 287 0
 2905 0002 1346     		mov	r3, r2
 2906 0004 0A46     		mov	r2, r1
 2907              	.LVL410:
 2908 0006 0249     		ldr	r1, .L214
 2909              	.LVL411:
 2910 0008 0988     		ldrh	r1, [r1]
 2911 000a FFF7FEFF 		bl	lv_obj_set_local_style_prop
 2912              	.LVL412:
 288:Drivers/lvgl/lvgl/src/extra/layouts/grid/lv_grid.c **** 
 2913              		.loc 1 288 0
 2914 000e 08BD     		pop	{r3, pc}
 2915              	.L215:
 2916              		.align	2
 2917              	.L214:
 2918 0010 00000000 		.word	LV_STYLE_GRID_COLUMN_ALIGN
 2919              		.cfi_endproc
 2920              	.LFE202:
 2922              		.section	.text.lv_obj_set_grid_align,"ax",%progbits
 2923              		.align	1
 2924              		.global	lv_obj_set_grid_align
 2925              		.syntax unified
 2926              		.thumb
 2927              		.thumb_func
 2928              		.fpu fpv5-d16
 2930              	lv_obj_set_grid_align:
 2931              	.LFB187:
 155:Drivers/lvgl/lvgl/src/extra/layouts/grid/lv_grid.c ****     lv_obj_set_style_grid_column_align(obj, column_align, 0);
 2932              		.loc 1 155 0
 2933              		.cfi_startproc
 2934              		@ args = 0, pretend = 0, frame = 0
 2935              		@ frame_needed = 0, uses_anonymous_args = 0
 2936              	.LVL413:
 2937 0000 38B5     		push	{r3, r4, r5, lr}
 2938              	.LCFI34:
 2939              		.cfi_def_cfa_offset 16
 2940              		.cfi_offset 3, -16
 2941              		.cfi_offset 4, -12
 2942              		.cfi_offset 5, -8
 2943              		.cfi_offset 14, -4
 2944 0002 0446     		mov	r4, r0
 2945 0004 1546     		mov	r5, r2
 156:Drivers/lvgl/lvgl/src/extra/layouts/grid/lv_grid.c ****     lv_obj_set_style_grid_row_align(obj, row_align, 0);
ARM GAS  /tmp/ccFQgg33.s 			page 87


 2946              		.loc 1 156 0
 2947 0006 0022     		movs	r2, #0
 2948              	.LVL414:
 2949 0008 FFF7FEFF 		bl	lv_obj_set_style_grid_column_align
 2950              	.LVL415:
 157:Drivers/lvgl/lvgl/src/extra/layouts/grid/lv_grid.c **** 
 2951              		.loc 1 157 0
 2952 000c 0022     		movs	r2, #0
 2953 000e 2946     		mov	r1, r5
 2954 0010 2046     		mov	r0, r4
 2955 0012 FFF7FEFF 		bl	lv_obj_set_style_grid_row_align
 2956              	.LVL416:
 159:Drivers/lvgl/lvgl/src/extra/layouts/grid/lv_grid.c **** 
 2957              		.loc 1 159 0
 2958 0016 38BD     		pop	{r3, r4, r5, pc}
 2959              		.cfi_endproc
 2960              	.LFE187:
 2962              		.section	.text.lv_obj_set_style_grid_cell_column_pos,"ax",%progbits
 2963              		.align	1
 2964              		.global	lv_obj_set_style_grid_cell_column_pos
 2965              		.syntax unified
 2966              		.thumb
 2967              		.thumb_func
 2968              		.fpu fpv5-d16
 2970              	lv_obj_set_style_grid_cell_column_pos:
 2971              	.LFB203:
 292:Drivers/lvgl/lvgl/src/extra/layouts/grid/lv_grid.c ****     lv_style_value_t v = {
 2972              		.loc 1 292 0
 2973              		.cfi_startproc
 2974              		@ args = 0, pretend = 0, frame = 0
 2975              		@ frame_needed = 0, uses_anonymous_args = 0
 2976              	.LVL417:
 2977 0000 08B5     		push	{r3, lr}
 2978              	.LCFI35:
 2979              		.cfi_def_cfa_offset 8
 2980              		.cfi_offset 3, -8
 2981              		.cfi_offset 14, -4
 296:Drivers/lvgl/lvgl/src/extra/layouts/grid/lv_grid.c **** }
 2982              		.loc 1 296 0
 2983 0002 1346     		mov	r3, r2
 2984 0004 0A46     		mov	r2, r1
 2985              	.LVL418:
 2986 0006 0249     		ldr	r1, .L220
 2987              	.LVL419:
 2988 0008 0988     		ldrh	r1, [r1]
 2989 000a FFF7FEFF 		bl	lv_obj_set_local_style_prop
 2990              	.LVL420:
 297:Drivers/lvgl/lvgl/src/extra/layouts/grid/lv_grid.c **** 
 2991              		.loc 1 297 0
 2992 000e 08BD     		pop	{r3, pc}
 2993              	.L221:
 2994              		.align	2
 2995              	.L220:
 2996 0010 00000000 		.word	LV_STYLE_GRID_CELL_COLUMN_POS
 2997              		.cfi_endproc
 2998              	.LFE203:
 3000              		.section	.text.lv_obj_set_style_grid_cell_column_span,"ax",%progbits
ARM GAS  /tmp/ccFQgg33.s 			page 88


 3001              		.align	1
 3002              		.global	lv_obj_set_style_grid_cell_column_span
 3003              		.syntax unified
 3004              		.thumb
 3005              		.thumb_func
 3006              		.fpu fpv5-d16
 3008              	lv_obj_set_style_grid_cell_column_span:
 3009              	.LFB204:
 300:Drivers/lvgl/lvgl/src/extra/layouts/grid/lv_grid.c ****     lv_style_value_t v = {
 3010              		.loc 1 300 0
 3011              		.cfi_startproc
 3012              		@ args = 0, pretend = 0, frame = 0
 3013              		@ frame_needed = 0, uses_anonymous_args = 0
 3014              	.LVL421:
 3015 0000 08B5     		push	{r3, lr}
 3016              	.LCFI36:
 3017              		.cfi_def_cfa_offset 8
 3018              		.cfi_offset 3, -8
 3019              		.cfi_offset 14, -4
 304:Drivers/lvgl/lvgl/src/extra/layouts/grid/lv_grid.c **** }
 3020              		.loc 1 304 0
 3021 0002 1346     		mov	r3, r2
 3022 0004 0A46     		mov	r2, r1
 3023              	.LVL422:
 3024 0006 0249     		ldr	r1, .L224
 3025              	.LVL423:
 3026 0008 0988     		ldrh	r1, [r1]
 3027 000a FFF7FEFF 		bl	lv_obj_set_local_style_prop
 3028              	.LVL424:
 305:Drivers/lvgl/lvgl/src/extra/layouts/grid/lv_grid.c **** 
 3029              		.loc 1 305 0
 3030 000e 08BD     		pop	{r3, pc}
 3031              	.L225:
 3032              		.align	2
 3033              	.L224:
 3034 0010 00000000 		.word	LV_STYLE_GRID_CELL_COLUMN_SPAN
 3035              		.cfi_endproc
 3036              	.LFE204:
 3038              		.section	.text.lv_obj_set_style_grid_cell_row_pos,"ax",%progbits
 3039              		.align	1
 3040              		.global	lv_obj_set_style_grid_cell_row_pos
 3041              		.syntax unified
 3042              		.thumb
 3043              		.thumb_func
 3044              		.fpu fpv5-d16
 3046              	lv_obj_set_style_grid_cell_row_pos:
 3047              	.LFB205:
 308:Drivers/lvgl/lvgl/src/extra/layouts/grid/lv_grid.c ****     lv_style_value_t v = {
 3048              		.loc 1 308 0
 3049              		.cfi_startproc
 3050              		@ args = 0, pretend = 0, frame = 0
 3051              		@ frame_needed = 0, uses_anonymous_args = 0
 3052              	.LVL425:
 3053 0000 08B5     		push	{r3, lr}
 3054              	.LCFI37:
 3055              		.cfi_def_cfa_offset 8
 3056              		.cfi_offset 3, -8
ARM GAS  /tmp/ccFQgg33.s 			page 89


 3057              		.cfi_offset 14, -4
 312:Drivers/lvgl/lvgl/src/extra/layouts/grid/lv_grid.c **** }
 3058              		.loc 1 312 0
 3059 0002 1346     		mov	r3, r2
 3060 0004 0A46     		mov	r2, r1
 3061              	.LVL426:
 3062 0006 0249     		ldr	r1, .L228
 3063              	.LVL427:
 3064 0008 0988     		ldrh	r1, [r1]
 3065 000a FFF7FEFF 		bl	lv_obj_set_local_style_prop
 3066              	.LVL428:
 313:Drivers/lvgl/lvgl/src/extra/layouts/grid/lv_grid.c **** 
 3067              		.loc 1 313 0
 3068 000e 08BD     		pop	{r3, pc}
 3069              	.L229:
 3070              		.align	2
 3071              	.L228:
 3072 0010 00000000 		.word	LV_STYLE_GRID_CELL_ROW_POS
 3073              		.cfi_endproc
 3074              	.LFE205:
 3076              		.section	.text.lv_obj_set_style_grid_cell_row_span,"ax",%progbits
 3077              		.align	1
 3078              		.global	lv_obj_set_style_grid_cell_row_span
 3079              		.syntax unified
 3080              		.thumb
 3081              		.thumb_func
 3082              		.fpu fpv5-d16
 3084              	lv_obj_set_style_grid_cell_row_span:
 3085              	.LFB206:
 316:Drivers/lvgl/lvgl/src/extra/layouts/grid/lv_grid.c ****     lv_style_value_t v = {
 3086              		.loc 1 316 0
 3087              		.cfi_startproc
 3088              		@ args = 0, pretend = 0, frame = 0
 3089              		@ frame_needed = 0, uses_anonymous_args = 0
 3090              	.LVL429:
 3091 0000 08B5     		push	{r3, lr}
 3092              	.LCFI38:
 3093              		.cfi_def_cfa_offset 8
 3094              		.cfi_offset 3, -8
 3095              		.cfi_offset 14, -4
 320:Drivers/lvgl/lvgl/src/extra/layouts/grid/lv_grid.c **** }
 3096              		.loc 1 320 0
 3097 0002 1346     		mov	r3, r2
 3098 0004 0A46     		mov	r2, r1
 3099              	.LVL430:
 3100 0006 0249     		ldr	r1, .L232
 3101              	.LVL431:
 3102 0008 0988     		ldrh	r1, [r1]
 3103 000a FFF7FEFF 		bl	lv_obj_set_local_style_prop
 3104              	.LVL432:
 321:Drivers/lvgl/lvgl/src/extra/layouts/grid/lv_grid.c **** 
 3105              		.loc 1 321 0
 3106 000e 08BD     		pop	{r3, pc}
 3107              	.L233:
 3108              		.align	2
 3109              	.L232:
 3110 0010 00000000 		.word	LV_STYLE_GRID_CELL_ROW_SPAN
ARM GAS  /tmp/ccFQgg33.s 			page 90


 3111              		.cfi_endproc
 3112              	.LFE206:
 3114              		.section	.text.lv_obj_set_style_grid_cell_x_align,"ax",%progbits
 3115              		.align	1
 3116              		.global	lv_obj_set_style_grid_cell_x_align
 3117              		.syntax unified
 3118              		.thumb
 3119              		.thumb_func
 3120              		.fpu fpv5-d16
 3122              	lv_obj_set_style_grid_cell_x_align:
 3123              	.LFB207:
 324:Drivers/lvgl/lvgl/src/extra/layouts/grid/lv_grid.c ****     lv_style_value_t v = {
 3124              		.loc 1 324 0
 3125              		.cfi_startproc
 3126              		@ args = 0, pretend = 0, frame = 0
 3127              		@ frame_needed = 0, uses_anonymous_args = 0
 3128              	.LVL433:
 3129 0000 08B5     		push	{r3, lr}
 3130              	.LCFI39:
 3131              		.cfi_def_cfa_offset 8
 3132              		.cfi_offset 3, -8
 3133              		.cfi_offset 14, -4
 328:Drivers/lvgl/lvgl/src/extra/layouts/grid/lv_grid.c **** }
 3134              		.loc 1 328 0
 3135 0002 1346     		mov	r3, r2
 3136 0004 0A46     		mov	r2, r1
 3137              	.LVL434:
 3138 0006 0249     		ldr	r1, .L236
 3139              	.LVL435:
 3140 0008 0988     		ldrh	r1, [r1]
 3141 000a FFF7FEFF 		bl	lv_obj_set_local_style_prop
 3142              	.LVL436:
 329:Drivers/lvgl/lvgl/src/extra/layouts/grid/lv_grid.c **** 
 3143              		.loc 1 329 0
 3144 000e 08BD     		pop	{r3, pc}
 3145              	.L237:
 3146              		.align	2
 3147              	.L236:
 3148 0010 00000000 		.word	LV_STYLE_GRID_CELL_X_ALIGN
 3149              		.cfi_endproc
 3150              	.LFE207:
 3152              		.section	.text.lv_obj_set_style_grid_cell_y_align,"ax",%progbits
 3153              		.align	1
 3154              		.global	lv_obj_set_style_grid_cell_y_align
 3155              		.syntax unified
 3156              		.thumb
 3157              		.thumb_func
 3158              		.fpu fpv5-d16
 3160              	lv_obj_set_style_grid_cell_y_align:
 3161              	.LFB208:
 332:Drivers/lvgl/lvgl/src/extra/layouts/grid/lv_grid.c ****     lv_style_value_t v = {
 3162              		.loc 1 332 0
 3163              		.cfi_startproc
 3164              		@ args = 0, pretend = 0, frame = 0
 3165              		@ frame_needed = 0, uses_anonymous_args = 0
 3166              	.LVL437:
 3167 0000 08B5     		push	{r3, lr}
ARM GAS  /tmp/ccFQgg33.s 			page 91


 3168              	.LCFI40:
 3169              		.cfi_def_cfa_offset 8
 3170              		.cfi_offset 3, -8
 3171              		.cfi_offset 14, -4
 336:Drivers/lvgl/lvgl/src/extra/layouts/grid/lv_grid.c **** }
 3172              		.loc 1 336 0
 3173 0002 1346     		mov	r3, r2
 3174 0004 0A46     		mov	r2, r1
 3175              	.LVL438:
 3176 0006 0249     		ldr	r1, .L240
 3177              	.LVL439:
 3178 0008 0988     		ldrh	r1, [r1]
 3179 000a FFF7FEFF 		bl	lv_obj_set_local_style_prop
 3180              	.LVL440:
 337:Drivers/lvgl/lvgl/src/extra/layouts/grid/lv_grid.c **** 
 3181              		.loc 1 337 0
 3182 000e 08BD     		pop	{r3, pc}
 3183              	.L241:
 3184              		.align	2
 3185              	.L240:
 3186 0010 00000000 		.word	LV_STYLE_GRID_CELL_Y_ALIGN
 3187              		.cfi_endproc
 3188              	.LFE208:
 3190              		.section	.text.lv_obj_set_grid_cell,"ax",%progbits
 3191              		.align	1
 3192              		.global	lv_obj_set_grid_cell
 3193              		.syntax unified
 3194              		.thumb
 3195              		.thumb_func
 3196              		.fpu fpv5-d16
 3198              	lv_obj_set_grid_cell:
 3199              	.LFB188:
 164:Drivers/lvgl/lvgl/src/extra/layouts/grid/lv_grid.c ****     lv_obj_set_style_grid_cell_column_pos(obj, col_pos, 0);
 3200              		.loc 1 164 0
 3201              		.cfi_startproc
 3202              		@ args = 12, pretend = 0, frame = 0
 3203              		@ frame_needed = 0, uses_anonymous_args = 0
 3204              	.LVL441:
 3205 0000 70B5     		push	{r4, r5, r6, lr}
 3206              	.LCFI41:
 3207              		.cfi_def_cfa_offset 16
 3208              		.cfi_offset 4, -16
 3209              		.cfi_offset 5, -12
 3210              		.cfi_offset 6, -8
 3211              		.cfi_offset 14, -4
 3212 0002 0446     		mov	r4, r0
 3213 0004 0E46     		mov	r6, r1
 3214 0006 1D46     		mov	r5, r3
 165:Drivers/lvgl/lvgl/src/extra/layouts/grid/lv_grid.c ****     lv_obj_set_style_grid_cell_row_pos(obj, row_pos, 0);
 3215              		.loc 1 165 0
 3216 0008 1146     		mov	r1, r2
 3217              	.LVL442:
 3218 000a 0022     		movs	r2, #0
 3219              	.LVL443:
 3220 000c FFF7FEFF 		bl	lv_obj_set_style_grid_cell_column_pos
 3221              	.LVL444:
 166:Drivers/lvgl/lvgl/src/extra/layouts/grid/lv_grid.c ****     lv_obj_set_style_grid_cell_x_align(obj, x_align, 0);
ARM GAS  /tmp/ccFQgg33.s 			page 92


 3222              		.loc 1 166 0
 3223 0010 0022     		movs	r2, #0
 3224 0012 9DF81410 		ldrb	r1, [sp, #20]	@ zero_extendqisi2
 3225 0016 2046     		mov	r0, r4
 3226 0018 FFF7FEFF 		bl	lv_obj_set_style_grid_cell_row_pos
 3227              	.LVL445:
 167:Drivers/lvgl/lvgl/src/extra/layouts/grid/lv_grid.c ****     lv_obj_set_style_grid_cell_column_span(obj, col_span, 0);
 3228              		.loc 1 167 0
 3229 001c 0022     		movs	r2, #0
 3230 001e 3146     		mov	r1, r6
 3231 0020 2046     		mov	r0, r4
 3232 0022 FFF7FEFF 		bl	lv_obj_set_style_grid_cell_x_align
 3233              	.LVL446:
 168:Drivers/lvgl/lvgl/src/extra/layouts/grid/lv_grid.c ****     lv_obj_set_style_grid_cell_row_span(obj, row_span, 0);
 3234              		.loc 1 168 0
 3235 0026 0022     		movs	r2, #0
 3236 0028 2946     		mov	r1, r5
 3237 002a 2046     		mov	r0, r4
 3238 002c FFF7FEFF 		bl	lv_obj_set_style_grid_cell_column_span
 3239              	.LVL447:
 169:Drivers/lvgl/lvgl/src/extra/layouts/grid/lv_grid.c ****     lv_obj_set_style_grid_cell_y_align(obj, y_align, 0);
 3240              		.loc 1 169 0
 3241 0030 0022     		movs	r2, #0
 3242 0032 9DF81810 		ldrb	r1, [sp, #24]	@ zero_extendqisi2
 3243 0036 2046     		mov	r0, r4
 3244 0038 FFF7FEFF 		bl	lv_obj_set_style_grid_cell_row_span
 3245              	.LVL448:
 170:Drivers/lvgl/lvgl/src/extra/layouts/grid/lv_grid.c **** 
 3246              		.loc 1 170 0
 3247 003c 0022     		movs	r2, #0
 3248 003e 9DF81010 		ldrb	r1, [sp, #16]	@ zero_extendqisi2
 3249 0042 2046     		mov	r0, r4
 3250 0044 FFF7FEFF 		bl	lv_obj_set_style_grid_cell_y_align
 3251              	.LVL449:
 172:Drivers/lvgl/lvgl/src/extra/layouts/grid/lv_grid.c **** }
 3252              		.loc 1 172 0
 3253 0048 2046     		mov	r0, r4
 3254 004a FFF7FEFF 		bl	lv_obj_get_parent
 3255              	.LVL450:
 3256 004e FFF7FEFF 		bl	lv_obj_mark_layout_as_dirty
 3257              	.LVL451:
 173:Drivers/lvgl/lvgl/src/extra/layouts/grid/lv_grid.c **** 
 3258              		.loc 1 173 0
 3259 0052 70BD     		pop	{r4, r5, r6, pc}
 3260              		.cfi_endproc
 3261              	.LFE188:
 3263              		.comm	LV_STYLE_GRID_CELL_Y_ALIGN,2,2
 3264              		.comm	LV_STYLE_GRID_CELL_ROW_SPAN,2,2
 3265              		.comm	LV_STYLE_GRID_CELL_ROW_POS,2,2
 3266              		.comm	LV_STYLE_GRID_CELL_X_ALIGN,2,2
 3267              		.comm	LV_STYLE_GRID_CELL_COLUMN_SPAN,2,2
 3268              		.comm	LV_STYLE_GRID_CELL_COLUMN_POS,2,2
 3269              		.comm	LV_STYLE_GRID_ROW_ALIGN,2,2
 3270              		.comm	LV_STYLE_GRID_ROW_DSC_ARRAY,2,2
 3271              		.comm	LV_STYLE_GRID_COLUMN_ALIGN,2,2
 3272              		.comm	LV_STYLE_GRID_COLUMN_DSC_ARRAY,2,2
 3273              		.comm	LV_LAYOUT_GRID,2,2
ARM GAS  /tmp/ccFQgg33.s 			page 93


 3274              		.text
 3275              	.Letext0:
 3276              		.file 5 "/opt/gcc-arm-none-eabi-7-2017-q4-major/arm-none-eabi/include/machine/_default_types.h"
 3277              		.file 6 "/opt/gcc-arm-none-eabi-7-2017-q4-major/arm-none-eabi/include/sys/_stdint.h"
 3278              		.file 7 "Drivers/lvgl/lvgl/src/extra/layouts/grid/../flex/../../../core/../misc/../font/lv_font.h"
 3279              		.file 8 "/opt/gcc-arm-none-eabi-7-2017-q4-major/arm-none-eabi/include/sys/lock.h"
 3280              		.file 9 "/opt/gcc-arm-none-eabi-7-2017-q4-major/arm-none-eabi/include/sys/_types.h"
 3281              		.file 10 "/opt/gcc-arm-none-eabi-7-2017-q4-major/lib/gcc/arm-none-eabi/7.2.1/include/stddef.h"
 3282              		.file 11 "/opt/gcc-arm-none-eabi-7-2017-q4-major/arm-none-eabi/include/sys/reent.h"
 3283              		.file 12 "Drivers/lvgl/lvgl/src/extra/layouts/grid/../flex/../../../core/../misc/lv_color.h"
 3284              		.file 13 "Drivers/lvgl/lvgl/src/extra/layouts/grid/../flex/../../../core/../misc/lv_txt.h"
 3285              		.file 14 "Drivers/lvgl/lvgl/src/extra/layouts/grid/../flex/../../../core/../misc/lv_bidi.h"
 3286              		.file 15 "Drivers/lvgl/lvgl/src/extra/layouts/grid/../flex/../../../core/../misc/lv_style.h"
 3287              		.file 16 "Drivers/lvgl/lvgl/src/extra/layouts/grid/../flex/../../../core/lv_obj.h"
 3288              		.file 17 "Drivers/lvgl/lvgl/src/extra/layouts/grid/../flex/../../../core/../hal/../misc/lv_ll.h"
 3289              		.file 18 "Drivers/lvgl/lvgl/src/extra/layouts/grid/../flex/../../../core/lv_group.h"
 3290              		.file 19 "Drivers/lvgl/lvgl/src/extra/layouts/grid/../flex/../../../core/lv_obj_scroll.h"
 3291              		.file 20 "Drivers/lvgl/lvgl/src/extra/layouts/grid/../flex/../../../core/lv_obj_style.h"
 3292              		.file 21 "Drivers/lvgl/lvgl/src/extra/layouts/grid/../flex/../../../core/lv_obj_class.h"
 3293              		.file 22 "Drivers/lvgl/lvgl/src/extra/layouts/grid/../flex/../../../core/lv_event.h"
 3294              		.file 23 "Drivers/lvgl/lvgl/src/extra/layouts/grid/../flex/lv_flex.h"
 3295              		.file 24 "Drivers/lvgl/lvgl/src/extra/layouts/grid/../flex/../../../core/../hal/../draw/sw/../../c
 3296              		.file 25 "Drivers/lvgl/lvgl/src/extra/layouts/grid/../flex/../../../core/lv_obj_tree.h"
 3297              		.file 26 "Drivers/lvgl/lvgl/src/extra/layouts/grid/../flex/../../../core/../misc/lv_mem.h"
ARM GAS  /tmp/ccFQgg33.s 			page 94


DEFINED SYMBOLS
                            *ABS*:0000000000000000 lv_grid.c
     /tmp/ccFQgg33.s:17     .text.grid_align:0000000000000000 $t
     /tmp/ccFQgg33.s:23     .text.grid_align:0000000000000000 grid_align
     /tmp/ccFQgg33.s:116    .text.grid_align:0000000000000058 $d
     /tmp/ccFQgg33.s:123    .text.grid_align:0000000000000074 $t
     /tmp/ccFQgg33.s:267    .text.count_tracks:0000000000000000 $t
     /tmp/ccFQgg33.s:273    .text.count_tracks:0000000000000000 count_tracks
     /tmp/ccFQgg33.s:303    .text.calc_rows:0000000000000000 $t
     /tmp/ccFQgg33.s:309    .text.calc_rows:0000000000000000 calc_rows
     /tmp/ccFQgg33.s:666    .text.calc_rows:000000000000018c $d
                            *COM*:0000000000000002 LV_STYLE_GRID_ROW_DSC_ARRAY
                            *COM*:0000000000000002 LV_STYLE_GRID_CELL_ROW_SPAN
                            *COM*:0000000000000002 LV_STYLE_GRID_CELL_ROW_POS
     /tmp/ccFQgg33.s:676    .text.calc_cols:0000000000000000 $t
     /tmp/ccFQgg33.s:682    .text.calc_cols:0000000000000000 calc_cols
     /tmp/ccFQgg33.s:1045   .text.calc_cols:0000000000000184 $d
                            *COM*:0000000000000002 LV_STYLE_GRID_COLUMN_DSC_ARRAY
                            *COM*:0000000000000002 LV_STYLE_GRID_CELL_COLUMN_SPAN
                            *COM*:0000000000000002 LV_STYLE_GRID_CELL_COLUMN_POS
     /tmp/ccFQgg33.s:1055   .text.calc:0000000000000000 $t
     /tmp/ccFQgg33.s:1061   .text.calc:0000000000000000 calc
     /tmp/ccFQgg33.s:1307   .text.calc:0000000000000118 $d
                            *COM*:0000000000000002 LV_STYLE_GRID_COLUMN_ALIGN
                            *COM*:0000000000000002 LV_STYLE_GRID_ROW_ALIGN
     /tmp/ccFQgg33.s:1313   .text.item_repos:0000000000000000 $t
     /tmp/ccFQgg33.s:1319   .text.item_repos:0000000000000000 item_repos
     /tmp/ccFQgg33.s:1913   .text.item_repos:000000000000033c $d
                            *COM*:0000000000000002 LV_STYLE_GRID_CELL_X_ALIGN
                            *COM*:0000000000000002 LV_STYLE_GRID_CELL_Y_ALIGN
     /tmp/ccFQgg33.s:1923   .text.item_repos:0000000000000358 $t
     /tmp/ccFQgg33.s:1975   .text.item_repos:00000000000003c4 $d
     /tmp/ccFQgg33.s:1980   .text.calc_free:0000000000000000 $t
     /tmp/ccFQgg33.s:1986   .text.calc_free:0000000000000000 calc_free
     /tmp/ccFQgg33.s:2022   .text.grid_update:0000000000000000 $t
     /tmp/ccFQgg33.s:2028   .text.grid_update:0000000000000000 grid_update
     /tmp/ccFQgg33.s:2247   .text.grid_update:00000000000000f0 $d
     /tmp/ccFQgg33.s:2253   .text.lv_grid_init:0000000000000000 $t
     /tmp/ccFQgg33.s:2260   .text.lv_grid_init:0000000000000000 lv_grid_init
     /tmp/ccFQgg33.s:2343   .text.lv_grid_init:0000000000000074 $d
                            *COM*:0000000000000002 LV_LAYOUT_GRID
     /tmp/ccFQgg33.s:2359   .text.lv_style_set_grid_row_dsc_array:0000000000000000 $t
     /tmp/ccFQgg33.s:2366   .text.lv_style_set_grid_row_dsc_array:0000000000000000 lv_style_set_grid_row_dsc_array
     /tmp/ccFQgg33.s:2390   .text.lv_style_set_grid_row_dsc_array:0000000000000010 $d
     /tmp/ccFQgg33.s:2395   .text.lv_style_set_grid_column_dsc_array:0000000000000000 $t
     /tmp/ccFQgg33.s:2402   .text.lv_style_set_grid_column_dsc_array:0000000000000000 lv_style_set_grid_column_dsc_array
     /tmp/ccFQgg33.s:2426   .text.lv_style_set_grid_column_dsc_array:0000000000000010 $d
     /tmp/ccFQgg33.s:2431   .text.lv_style_set_grid_row_align:0000000000000000 $t
     /tmp/ccFQgg33.s:2438   .text.lv_style_set_grid_row_align:0000000000000000 lv_style_set_grid_row_align
     /tmp/ccFQgg33.s:2462   .text.lv_style_set_grid_row_align:0000000000000010 $d
     /tmp/ccFQgg33.s:2467   .text.lv_style_set_grid_column_align:0000000000000000 $t
     /tmp/ccFQgg33.s:2474   .text.lv_style_set_grid_column_align:0000000000000000 lv_style_set_grid_column_align
     /tmp/ccFQgg33.s:2498   .text.lv_style_set_grid_column_align:0000000000000010 $d
     /tmp/ccFQgg33.s:2503   .text.lv_style_set_grid_cell_column_pos:0000000000000000 $t
     /tmp/ccFQgg33.s:2510   .text.lv_style_set_grid_cell_column_pos:0000000000000000 lv_style_set_grid_cell_column_pos
     /tmp/ccFQgg33.s:2534   .text.lv_style_set_grid_cell_column_pos:0000000000000010 $d
     /tmp/ccFQgg33.s:2539   .text.lv_style_set_grid_cell_column_span:0000000000000000 $t
ARM GAS  /tmp/ccFQgg33.s 			page 95


     /tmp/ccFQgg33.s:2546   .text.lv_style_set_grid_cell_column_span:0000000000000000 lv_style_set_grid_cell_column_span
     /tmp/ccFQgg33.s:2570   .text.lv_style_set_grid_cell_column_span:0000000000000010 $d
     /tmp/ccFQgg33.s:2575   .text.lv_style_set_grid_cell_row_pos:0000000000000000 $t
     /tmp/ccFQgg33.s:2582   .text.lv_style_set_grid_cell_row_pos:0000000000000000 lv_style_set_grid_cell_row_pos
     /tmp/ccFQgg33.s:2606   .text.lv_style_set_grid_cell_row_pos:0000000000000010 $d
     /tmp/ccFQgg33.s:2611   .text.lv_style_set_grid_cell_row_span:0000000000000000 $t
     /tmp/ccFQgg33.s:2618   .text.lv_style_set_grid_cell_row_span:0000000000000000 lv_style_set_grid_cell_row_span
     /tmp/ccFQgg33.s:2642   .text.lv_style_set_grid_cell_row_span:0000000000000010 $d
     /tmp/ccFQgg33.s:2647   .text.lv_style_set_grid_cell_x_align:0000000000000000 $t
     /tmp/ccFQgg33.s:2654   .text.lv_style_set_grid_cell_x_align:0000000000000000 lv_style_set_grid_cell_x_align
     /tmp/ccFQgg33.s:2678   .text.lv_style_set_grid_cell_x_align:0000000000000010 $d
     /tmp/ccFQgg33.s:2683   .text.lv_style_set_grid_cell_y_align:0000000000000000 $t
     /tmp/ccFQgg33.s:2690   .text.lv_style_set_grid_cell_y_align:0000000000000000 lv_style_set_grid_cell_y_align
     /tmp/ccFQgg33.s:2714   .text.lv_style_set_grid_cell_y_align:0000000000000010 $d
     /tmp/ccFQgg33.s:2719   .text.lv_obj_set_style_grid_row_dsc_array:0000000000000000 $t
     /tmp/ccFQgg33.s:2726   .text.lv_obj_set_style_grid_row_dsc_array:0000000000000000 lv_obj_set_style_grid_row_dsc_array
     /tmp/ccFQgg33.s:2752   .text.lv_obj_set_style_grid_row_dsc_array:0000000000000010 $d
     /tmp/ccFQgg33.s:2757   .text.lv_obj_set_style_grid_column_dsc_array:0000000000000000 $t
     /tmp/ccFQgg33.s:2764   .text.lv_obj_set_style_grid_column_dsc_array:0000000000000000 lv_obj_set_style_grid_column_dsc_array
     /tmp/ccFQgg33.s:2790   .text.lv_obj_set_style_grid_column_dsc_array:0000000000000010 $d
     /tmp/ccFQgg33.s:2795   .text.lv_obj_set_grid_dsc_array:0000000000000000 $t
     /tmp/ccFQgg33.s:2802   .text.lv_obj_set_grid_dsc_array:0000000000000000 lv_obj_set_grid_dsc_array
     /tmp/ccFQgg33.s:2842   .text.lv_obj_set_grid_dsc_array:0000000000000024 $d
     /tmp/ccFQgg33.s:2847   .text.lv_obj_set_style_grid_row_align:0000000000000000 $t
     /tmp/ccFQgg33.s:2854   .text.lv_obj_set_style_grid_row_align:0000000000000000 lv_obj_set_style_grid_row_align
     /tmp/ccFQgg33.s:2880   .text.lv_obj_set_style_grid_row_align:0000000000000010 $d
     /tmp/ccFQgg33.s:2885   .text.lv_obj_set_style_grid_column_align:0000000000000000 $t
     /tmp/ccFQgg33.s:2892   .text.lv_obj_set_style_grid_column_align:0000000000000000 lv_obj_set_style_grid_column_align
     /tmp/ccFQgg33.s:2918   .text.lv_obj_set_style_grid_column_align:0000000000000010 $d
     /tmp/ccFQgg33.s:2923   .text.lv_obj_set_grid_align:0000000000000000 $t
     /tmp/ccFQgg33.s:2930   .text.lv_obj_set_grid_align:0000000000000000 lv_obj_set_grid_align
     /tmp/ccFQgg33.s:2963   .text.lv_obj_set_style_grid_cell_column_pos:0000000000000000 $t
     /tmp/ccFQgg33.s:2970   .text.lv_obj_set_style_grid_cell_column_pos:0000000000000000 lv_obj_set_style_grid_cell_column_pos
     /tmp/ccFQgg33.s:2996   .text.lv_obj_set_style_grid_cell_column_pos:0000000000000010 $d
     /tmp/ccFQgg33.s:3001   .text.lv_obj_set_style_grid_cell_column_span:0000000000000000 $t
     /tmp/ccFQgg33.s:3008   .text.lv_obj_set_style_grid_cell_column_span:0000000000000000 lv_obj_set_style_grid_cell_column_span
     /tmp/ccFQgg33.s:3034   .text.lv_obj_set_style_grid_cell_column_span:0000000000000010 $d
     /tmp/ccFQgg33.s:3039   .text.lv_obj_set_style_grid_cell_row_pos:0000000000000000 $t
     /tmp/ccFQgg33.s:3046   .text.lv_obj_set_style_grid_cell_row_pos:0000000000000000 lv_obj_set_style_grid_cell_row_pos
     /tmp/ccFQgg33.s:3072   .text.lv_obj_set_style_grid_cell_row_pos:0000000000000010 $d
     /tmp/ccFQgg33.s:3077   .text.lv_obj_set_style_grid_cell_row_span:0000000000000000 $t
     /tmp/ccFQgg33.s:3084   .text.lv_obj_set_style_grid_cell_row_span:0000000000000000 lv_obj_set_style_grid_cell_row_span
     /tmp/ccFQgg33.s:3110   .text.lv_obj_set_style_grid_cell_row_span:0000000000000010 $d
     /tmp/ccFQgg33.s:3115   .text.lv_obj_set_style_grid_cell_x_align:0000000000000000 $t
     /tmp/ccFQgg33.s:3122   .text.lv_obj_set_style_grid_cell_x_align:0000000000000000 lv_obj_set_style_grid_cell_x_align
     /tmp/ccFQgg33.s:3148   .text.lv_obj_set_style_grid_cell_x_align:0000000000000010 $d
     /tmp/ccFQgg33.s:3153   .text.lv_obj_set_style_grid_cell_y_align:0000000000000000 $t
     /tmp/ccFQgg33.s:3160   .text.lv_obj_set_style_grid_cell_y_align:0000000000000000 lv_obj_set_style_grid_cell_y_align
     /tmp/ccFQgg33.s:3186   .text.lv_obj_set_style_grid_cell_y_align:0000000000000010 $d
     /tmp/ccFQgg33.s:3191   .text.lv_obj_set_grid_cell:0000000000000000 $t
     /tmp/ccFQgg33.s:3198   .text.lv_obj_set_grid_cell:0000000000000000 lv_obj_set_grid_cell

UNDEFINED SYMBOLS
lv_obj_get_style_prop
lv_mem_buf_get
lv_obj_get_child_cnt
lv_obj_get_child
ARM GAS  /tmp/ccFQgg33.s 			page 96


lv_obj_has_flag_any
lv_obj_get_height
lv_obj_get_content_height
lv_obj_get_content_width
lv_obj_get_width
lv_memset_00
lv_obj_invalidate
lv_area_set_width
lv_area_set_height
lv_event_send
lv_obj_get_parent
lv_obj_move_children_by
lv_mem_buf_release
lv_obj_get_scroll_x
lv_obj_get_scroll_y
lv_obj_refr_size
lv_layout_register
lv_style_register_prop
lv_style_set_prop
lv_obj_set_local_style_prop
lv_obj_set_style_layout
lv_obj_mark_layout_as_dirty
