ARM GAS  /tmp/ccFQgg33.s 			page 1


   1              		.cpu cortex-m7
   2              		.eabi_attribute 28, 1
   3              		.eabi_attribute 20, 1
   4              		.eabi_attribute 21, 1
   5              		.eabi_attribute 23, 3
   6              		.eabi_attribute 24, 1
   7              		.eabi_attribute 25, 1
   8              		.eabi_attribute 26, 1
   9              		.eabi_attribute 30, 1
  10              		.eabi_attribute 34, 1
  11              		.eabi_attribute 18, 4
  12              		.file	"lv_grid.c"
  13              		.text
  14              	.Ltext0:
  15              		.cfi_sections	.debug_frame
  16              		.section	.text.grid_align,"ax",%progbits
  17              		.align	1
  18              		.syntax unified
  19              		.thumb
  20              		.thumb_func
  21              		.fpu fpv5-d16
  23              	grid_align:
  24              	.LFB215:
  25              		.file 1 "Drivers/lvgl/lvgl/src/extra/layouts/grid/lv_grid.c"
   1:Drivers/lvgl/lvgl/src/extra/layouts/grid/lv_grid.c **** /**
   2:Drivers/lvgl/lvgl/src/extra/layouts/grid/lv_grid.c ****  * @file lv_grid.c
   3:Drivers/lvgl/lvgl/src/extra/layouts/grid/lv_grid.c ****  *
   4:Drivers/lvgl/lvgl/src/extra/layouts/grid/lv_grid.c ****  */
   5:Drivers/lvgl/lvgl/src/extra/layouts/grid/lv_grid.c **** 
   6:Drivers/lvgl/lvgl/src/extra/layouts/grid/lv_grid.c **** /*********************
   7:Drivers/lvgl/lvgl/src/extra/layouts/grid/lv_grid.c ****  *      INCLUDES
   8:Drivers/lvgl/lvgl/src/extra/layouts/grid/lv_grid.c ****  *********************/
   9:Drivers/lvgl/lvgl/src/extra/layouts/grid/lv_grid.c **** #include "../lv_layouts.h"
  10:Drivers/lvgl/lvgl/src/extra/layouts/grid/lv_grid.c **** 
  11:Drivers/lvgl/lvgl/src/extra/layouts/grid/lv_grid.c **** #if LV_USE_GRID
  12:Drivers/lvgl/lvgl/src/extra/layouts/grid/lv_grid.c **** 
  13:Drivers/lvgl/lvgl/src/extra/layouts/grid/lv_grid.c **** /*********************
  14:Drivers/lvgl/lvgl/src/extra/layouts/grid/lv_grid.c ****  *      DEFINES
  15:Drivers/lvgl/lvgl/src/extra/layouts/grid/lv_grid.c ****  *********************/
  16:Drivers/lvgl/lvgl/src/extra/layouts/grid/lv_grid.c **** /**
  17:Drivers/lvgl/lvgl/src/extra/layouts/grid/lv_grid.c ****  * Some helper defines
  18:Drivers/lvgl/lvgl/src/extra/layouts/grid/lv_grid.c ****  */
  19:Drivers/lvgl/lvgl/src/extra/layouts/grid/lv_grid.c **** #define IS_FR(x)       (x >= LV_COORD_MAX - 100)
  20:Drivers/lvgl/lvgl/src/extra/layouts/grid/lv_grid.c **** #define IS_CONTENT(x)  (x == LV_COORD_MAX - 101)
  21:Drivers/lvgl/lvgl/src/extra/layouts/grid/lv_grid.c **** #define GET_FR(x)      (x - (LV_COORD_MAX - 100))
  22:Drivers/lvgl/lvgl/src/extra/layouts/grid/lv_grid.c **** 
  23:Drivers/lvgl/lvgl/src/extra/layouts/grid/lv_grid.c **** /**********************
  24:Drivers/lvgl/lvgl/src/extra/layouts/grid/lv_grid.c ****  *      TYPEDEFS
  25:Drivers/lvgl/lvgl/src/extra/layouts/grid/lv_grid.c ****  **********************/
  26:Drivers/lvgl/lvgl/src/extra/layouts/grid/lv_grid.c **** typedef struct {
  27:Drivers/lvgl/lvgl/src/extra/layouts/grid/lv_grid.c ****     uint32_t col;
  28:Drivers/lvgl/lvgl/src/extra/layouts/grid/lv_grid.c ****     uint32_t row;
  29:Drivers/lvgl/lvgl/src/extra/layouts/grid/lv_grid.c ****     lv_point_t grid_abs;
  30:Drivers/lvgl/lvgl/src/extra/layouts/grid/lv_grid.c **** } item_repos_hint_t;
  31:Drivers/lvgl/lvgl/src/extra/layouts/grid/lv_grid.c **** 
  32:Drivers/lvgl/lvgl/src/extra/layouts/grid/lv_grid.c **** typedef struct {
  33:Drivers/lvgl/lvgl/src/extra/layouts/grid/lv_grid.c ****     lv_coord_t * x;
ARM GAS  /tmp/ccFQgg33.s 			page 2


  34:Drivers/lvgl/lvgl/src/extra/layouts/grid/lv_grid.c ****     lv_coord_t * y;
  35:Drivers/lvgl/lvgl/src/extra/layouts/grid/lv_grid.c ****     lv_coord_t * w;
  36:Drivers/lvgl/lvgl/src/extra/layouts/grid/lv_grid.c ****     lv_coord_t * h;
  37:Drivers/lvgl/lvgl/src/extra/layouts/grid/lv_grid.c ****     uint32_t col_num;
  38:Drivers/lvgl/lvgl/src/extra/layouts/grid/lv_grid.c ****     uint32_t row_num;
  39:Drivers/lvgl/lvgl/src/extra/layouts/grid/lv_grid.c ****     lv_coord_t grid_w;
  40:Drivers/lvgl/lvgl/src/extra/layouts/grid/lv_grid.c ****     lv_coord_t grid_h;
  41:Drivers/lvgl/lvgl/src/extra/layouts/grid/lv_grid.c **** } _lv_grid_calc_t;
  42:Drivers/lvgl/lvgl/src/extra/layouts/grid/lv_grid.c **** 
  43:Drivers/lvgl/lvgl/src/extra/layouts/grid/lv_grid.c **** 
  44:Drivers/lvgl/lvgl/src/extra/layouts/grid/lv_grid.c **** /**********************
  45:Drivers/lvgl/lvgl/src/extra/layouts/grid/lv_grid.c ****  *  GLOBAL PROTOTYPES
  46:Drivers/lvgl/lvgl/src/extra/layouts/grid/lv_grid.c ****  **********************/
  47:Drivers/lvgl/lvgl/src/extra/layouts/grid/lv_grid.c **** 
  48:Drivers/lvgl/lvgl/src/extra/layouts/grid/lv_grid.c **** /**********************
  49:Drivers/lvgl/lvgl/src/extra/layouts/grid/lv_grid.c ****  *  STATIC PROTOTYPES
  50:Drivers/lvgl/lvgl/src/extra/layouts/grid/lv_grid.c ****  **********************/
  51:Drivers/lvgl/lvgl/src/extra/layouts/grid/lv_grid.c **** static void grid_update(lv_obj_t * cont, void * user_data);
  52:Drivers/lvgl/lvgl/src/extra/layouts/grid/lv_grid.c **** static void calc(lv_obj_t * obj, _lv_grid_calc_t * calc);
  53:Drivers/lvgl/lvgl/src/extra/layouts/grid/lv_grid.c **** static void calc_free(_lv_grid_calc_t * calc);
  54:Drivers/lvgl/lvgl/src/extra/layouts/grid/lv_grid.c **** static void calc_cols(lv_obj_t * cont, _lv_grid_calc_t * c);
  55:Drivers/lvgl/lvgl/src/extra/layouts/grid/lv_grid.c **** static void calc_rows(lv_obj_t * cont, _lv_grid_calc_t * c);
  56:Drivers/lvgl/lvgl/src/extra/layouts/grid/lv_grid.c **** static void item_repos(lv_obj_t * item, _lv_grid_calc_t * c, item_repos_hint_t * hint);
  57:Drivers/lvgl/lvgl/src/extra/layouts/grid/lv_grid.c **** static lv_coord_t grid_align(lv_coord_t cont_size,  bool auto_size, uint8_t align, lv_coord_t gap, 
  58:Drivers/lvgl/lvgl/src/extra/layouts/grid/lv_grid.c ****                              lv_coord_t * size_array, lv_coord_t * pos_array, bool reverse);
  59:Drivers/lvgl/lvgl/src/extra/layouts/grid/lv_grid.c **** static uint32_t count_tracks(const lv_coord_t * templ);
  60:Drivers/lvgl/lvgl/src/extra/layouts/grid/lv_grid.c **** 
  61:Drivers/lvgl/lvgl/src/extra/layouts/grid/lv_grid.c **** static inline const lv_coord_t * get_col_dsc(lv_obj_t * obj)
  62:Drivers/lvgl/lvgl/src/extra/layouts/grid/lv_grid.c **** {
  63:Drivers/lvgl/lvgl/src/extra/layouts/grid/lv_grid.c ****     return lv_obj_get_style_grid_column_dsc_array(obj, 0);
  64:Drivers/lvgl/lvgl/src/extra/layouts/grid/lv_grid.c **** }
  65:Drivers/lvgl/lvgl/src/extra/layouts/grid/lv_grid.c **** static inline const lv_coord_t * get_row_dsc(lv_obj_t * obj)
  66:Drivers/lvgl/lvgl/src/extra/layouts/grid/lv_grid.c **** {
  67:Drivers/lvgl/lvgl/src/extra/layouts/grid/lv_grid.c ****     return lv_obj_get_style_grid_row_dsc_array(obj, 0);
  68:Drivers/lvgl/lvgl/src/extra/layouts/grid/lv_grid.c **** }
  69:Drivers/lvgl/lvgl/src/extra/layouts/grid/lv_grid.c **** static inline uint8_t get_col_pos(lv_obj_t * obj)
  70:Drivers/lvgl/lvgl/src/extra/layouts/grid/lv_grid.c **** {
  71:Drivers/lvgl/lvgl/src/extra/layouts/grid/lv_grid.c ****     return lv_obj_get_style_grid_cell_column_pos(obj, 0);
  72:Drivers/lvgl/lvgl/src/extra/layouts/grid/lv_grid.c **** }
  73:Drivers/lvgl/lvgl/src/extra/layouts/grid/lv_grid.c **** static inline uint8_t get_row_pos(lv_obj_t * obj)
  74:Drivers/lvgl/lvgl/src/extra/layouts/grid/lv_grid.c **** {
  75:Drivers/lvgl/lvgl/src/extra/layouts/grid/lv_grid.c ****     return lv_obj_get_style_grid_cell_row_pos(obj, 0);
  76:Drivers/lvgl/lvgl/src/extra/layouts/grid/lv_grid.c **** }
  77:Drivers/lvgl/lvgl/src/extra/layouts/grid/lv_grid.c **** static inline uint8_t get_col_span(lv_obj_t * obj)
  78:Drivers/lvgl/lvgl/src/extra/layouts/grid/lv_grid.c **** {
  79:Drivers/lvgl/lvgl/src/extra/layouts/grid/lv_grid.c ****     return lv_obj_get_style_grid_cell_column_span(obj, 0);
  80:Drivers/lvgl/lvgl/src/extra/layouts/grid/lv_grid.c **** }
  81:Drivers/lvgl/lvgl/src/extra/layouts/grid/lv_grid.c **** static inline uint8_t get_row_span(lv_obj_t * obj)
  82:Drivers/lvgl/lvgl/src/extra/layouts/grid/lv_grid.c **** {
  83:Drivers/lvgl/lvgl/src/extra/layouts/grid/lv_grid.c ****     return lv_obj_get_style_grid_cell_row_span(obj, 0);
  84:Drivers/lvgl/lvgl/src/extra/layouts/grid/lv_grid.c **** }
  85:Drivers/lvgl/lvgl/src/extra/layouts/grid/lv_grid.c **** static inline uint8_t get_cell_col_align(lv_obj_t * obj)
  86:Drivers/lvgl/lvgl/src/extra/layouts/grid/lv_grid.c **** {
  87:Drivers/lvgl/lvgl/src/extra/layouts/grid/lv_grid.c ****     return lv_obj_get_style_grid_cell_x_align(obj, 0);
  88:Drivers/lvgl/lvgl/src/extra/layouts/grid/lv_grid.c **** }
  89:Drivers/lvgl/lvgl/src/extra/layouts/grid/lv_grid.c **** static inline uint8_t get_cell_row_align(lv_obj_t * obj)
  90:Drivers/lvgl/lvgl/src/extra/layouts/grid/lv_grid.c **** {
ARM GAS  /tmp/ccFQgg33.s 			page 3


  91:Drivers/lvgl/lvgl/src/extra/layouts/grid/lv_grid.c ****     return lv_obj_get_style_grid_cell_y_align(obj, 0);
  92:Drivers/lvgl/lvgl/src/extra/layouts/grid/lv_grid.c **** }
  93:Drivers/lvgl/lvgl/src/extra/layouts/grid/lv_grid.c **** static inline uint8_t get_grid_col_align(lv_obj_t * obj)
  94:Drivers/lvgl/lvgl/src/extra/layouts/grid/lv_grid.c **** {
  95:Drivers/lvgl/lvgl/src/extra/layouts/grid/lv_grid.c ****     return lv_obj_get_style_grid_column_align(obj, 0);
  96:Drivers/lvgl/lvgl/src/extra/layouts/grid/lv_grid.c **** }
  97:Drivers/lvgl/lvgl/src/extra/layouts/grid/lv_grid.c **** static inline uint8_t get_grid_row_align(lv_obj_t * obj)
  98:Drivers/lvgl/lvgl/src/extra/layouts/grid/lv_grid.c **** {
  99:Drivers/lvgl/lvgl/src/extra/layouts/grid/lv_grid.c ****     return lv_obj_get_style_grid_row_align(obj, 0);
 100:Drivers/lvgl/lvgl/src/extra/layouts/grid/lv_grid.c **** }
 101:Drivers/lvgl/lvgl/src/extra/layouts/grid/lv_grid.c **** 
 102:Drivers/lvgl/lvgl/src/extra/layouts/grid/lv_grid.c **** /**********************
 103:Drivers/lvgl/lvgl/src/extra/layouts/grid/lv_grid.c ****  *  GLOBAL VARIABLES
 104:Drivers/lvgl/lvgl/src/extra/layouts/grid/lv_grid.c ****  **********************/
 105:Drivers/lvgl/lvgl/src/extra/layouts/grid/lv_grid.c **** uint16_t LV_LAYOUT_GRID;
 106:Drivers/lvgl/lvgl/src/extra/layouts/grid/lv_grid.c **** lv_style_prop_t LV_STYLE_GRID_COLUMN_DSC_ARRAY;
 107:Drivers/lvgl/lvgl/src/extra/layouts/grid/lv_grid.c **** lv_style_prop_t LV_STYLE_GRID_COLUMN_ALIGN;
 108:Drivers/lvgl/lvgl/src/extra/layouts/grid/lv_grid.c **** lv_style_prop_t LV_STYLE_GRID_ROW_DSC_ARRAY;
 109:Drivers/lvgl/lvgl/src/extra/layouts/grid/lv_grid.c **** lv_style_prop_t LV_STYLE_GRID_ROW_ALIGN;
 110:Drivers/lvgl/lvgl/src/extra/layouts/grid/lv_grid.c **** lv_style_prop_t LV_STYLE_GRID_CELL_COLUMN_POS;
 111:Drivers/lvgl/lvgl/src/extra/layouts/grid/lv_grid.c **** lv_style_prop_t LV_STYLE_GRID_CELL_COLUMN_SPAN;
 112:Drivers/lvgl/lvgl/src/extra/layouts/grid/lv_grid.c **** lv_style_prop_t LV_STYLE_GRID_CELL_X_ALIGN;
 113:Drivers/lvgl/lvgl/src/extra/layouts/grid/lv_grid.c **** lv_style_prop_t LV_STYLE_GRID_CELL_ROW_POS;
 114:Drivers/lvgl/lvgl/src/extra/layouts/grid/lv_grid.c **** lv_style_prop_t LV_STYLE_GRID_CELL_ROW_SPAN;
 115:Drivers/lvgl/lvgl/src/extra/layouts/grid/lv_grid.c **** lv_style_prop_t LV_STYLE_GRID_CELL_Y_ALIGN;
 116:Drivers/lvgl/lvgl/src/extra/layouts/grid/lv_grid.c **** 
 117:Drivers/lvgl/lvgl/src/extra/layouts/grid/lv_grid.c **** /**********************
 118:Drivers/lvgl/lvgl/src/extra/layouts/grid/lv_grid.c ****  *  STATIC VARIABLES
 119:Drivers/lvgl/lvgl/src/extra/layouts/grid/lv_grid.c ****  **********************/
 120:Drivers/lvgl/lvgl/src/extra/layouts/grid/lv_grid.c **** 
 121:Drivers/lvgl/lvgl/src/extra/layouts/grid/lv_grid.c **** /**********************
 122:Drivers/lvgl/lvgl/src/extra/layouts/grid/lv_grid.c ****  *      MACROS
 123:Drivers/lvgl/lvgl/src/extra/layouts/grid/lv_grid.c ****  **********************/
 124:Drivers/lvgl/lvgl/src/extra/layouts/grid/lv_grid.c **** 
 125:Drivers/lvgl/lvgl/src/extra/layouts/grid/lv_grid.c **** /**********************
 126:Drivers/lvgl/lvgl/src/extra/layouts/grid/lv_grid.c ****  *   GLOBAL FUNCTIONS
 127:Drivers/lvgl/lvgl/src/extra/layouts/grid/lv_grid.c ****  **********************/
 128:Drivers/lvgl/lvgl/src/extra/layouts/grid/lv_grid.c **** 
 129:Drivers/lvgl/lvgl/src/extra/layouts/grid/lv_grid.c **** 
 130:Drivers/lvgl/lvgl/src/extra/layouts/grid/lv_grid.c **** void lv_grid_init(void)
 131:Drivers/lvgl/lvgl/src/extra/layouts/grid/lv_grid.c **** {
 132:Drivers/lvgl/lvgl/src/extra/layouts/grid/lv_grid.c ****     LV_LAYOUT_GRID = lv_layout_register(grid_update, NULL);
 133:Drivers/lvgl/lvgl/src/extra/layouts/grid/lv_grid.c **** 
 134:Drivers/lvgl/lvgl/src/extra/layouts/grid/lv_grid.c ****     LV_STYLE_GRID_COLUMN_DSC_ARRAY = lv_style_register_prop(LV_STYLE_PROP_LAYOUT_REFR);
 135:Drivers/lvgl/lvgl/src/extra/layouts/grid/lv_grid.c ****     LV_STYLE_GRID_ROW_DSC_ARRAY = lv_style_register_prop(LV_STYLE_PROP_LAYOUT_REFR);
 136:Drivers/lvgl/lvgl/src/extra/layouts/grid/lv_grid.c ****     LV_STYLE_GRID_COLUMN_ALIGN = lv_style_register_prop(LV_STYLE_PROP_LAYOUT_REFR);
 137:Drivers/lvgl/lvgl/src/extra/layouts/grid/lv_grid.c ****     LV_STYLE_GRID_ROW_ALIGN = lv_style_register_prop(LV_STYLE_PROP_LAYOUT_REFR);
 138:Drivers/lvgl/lvgl/src/extra/layouts/grid/lv_grid.c **** 
 139:Drivers/lvgl/lvgl/src/extra/layouts/grid/lv_grid.c ****     LV_STYLE_GRID_CELL_ROW_SPAN = lv_style_register_prop(LV_STYLE_PROP_LAYOUT_REFR);
 140:Drivers/lvgl/lvgl/src/extra/layouts/grid/lv_grid.c ****     LV_STYLE_GRID_CELL_ROW_POS = lv_style_register_prop(LV_STYLE_PROP_LAYOUT_REFR);
 141:Drivers/lvgl/lvgl/src/extra/layouts/grid/lv_grid.c ****     LV_STYLE_GRID_CELL_COLUMN_SPAN = lv_style_register_prop(LV_STYLE_PROP_LAYOUT_REFR);
 142:Drivers/lvgl/lvgl/src/extra/layouts/grid/lv_grid.c ****     LV_STYLE_GRID_CELL_COLUMN_POS = lv_style_register_prop(LV_STYLE_PROP_LAYOUT_REFR);
 143:Drivers/lvgl/lvgl/src/extra/layouts/grid/lv_grid.c ****     LV_STYLE_GRID_CELL_X_ALIGN = lv_style_register_prop(LV_STYLE_PROP_LAYOUT_REFR);
 144:Drivers/lvgl/lvgl/src/extra/layouts/grid/lv_grid.c ****     LV_STYLE_GRID_CELL_Y_ALIGN = lv_style_register_prop(LV_STYLE_PROP_LAYOUT_REFR);
 145:Drivers/lvgl/lvgl/src/extra/layouts/grid/lv_grid.c **** }
 146:Drivers/lvgl/lvgl/src/extra/layouts/grid/lv_grid.c **** 
 147:Drivers/lvgl/lvgl/src/extra/layouts/grid/lv_grid.c **** void lv_obj_set_grid_dsc_array(lv_obj_t * obj, const lv_coord_t col_dsc[], const lv_coord_t row_dsc
ARM GAS  /tmp/ccFQgg33.s 			page 4


 148:Drivers/lvgl/lvgl/src/extra/layouts/grid/lv_grid.c **** {
 149:Drivers/lvgl/lvgl/src/extra/layouts/grid/lv_grid.c ****     lv_obj_set_style_grid_column_dsc_array(obj, col_dsc, 0);
 150:Drivers/lvgl/lvgl/src/extra/layouts/grid/lv_grid.c ****     lv_obj_set_style_grid_row_dsc_array(obj, row_dsc, 0);
 151:Drivers/lvgl/lvgl/src/extra/layouts/grid/lv_grid.c ****     lv_obj_set_style_layout(obj, LV_LAYOUT_GRID, 0);
 152:Drivers/lvgl/lvgl/src/extra/layouts/grid/lv_grid.c **** }
 153:Drivers/lvgl/lvgl/src/extra/layouts/grid/lv_grid.c **** 
 154:Drivers/lvgl/lvgl/src/extra/layouts/grid/lv_grid.c **** void lv_obj_set_grid_align(lv_obj_t * obj, lv_grid_align_t column_align, lv_grid_align_t row_align)
 155:Drivers/lvgl/lvgl/src/extra/layouts/grid/lv_grid.c **** {
 156:Drivers/lvgl/lvgl/src/extra/layouts/grid/lv_grid.c ****     lv_obj_set_style_grid_column_align(obj, column_align, 0);
 157:Drivers/lvgl/lvgl/src/extra/layouts/grid/lv_grid.c ****     lv_obj_set_style_grid_row_align(obj, row_align, 0);
 158:Drivers/lvgl/lvgl/src/extra/layouts/grid/lv_grid.c **** 
 159:Drivers/lvgl/lvgl/src/extra/layouts/grid/lv_grid.c **** }
 160:Drivers/lvgl/lvgl/src/extra/layouts/grid/lv_grid.c **** 
 161:Drivers/lvgl/lvgl/src/extra/layouts/grid/lv_grid.c **** void lv_obj_set_grid_cell(lv_obj_t * obj, lv_grid_align_t x_align, uint8_t col_pos, uint8_t col_spa
 162:Drivers/lvgl/lvgl/src/extra/layouts/grid/lv_grid.c ****                           lv_grid_align_t y_align, uint8_t row_pos, uint8_t row_span)
 163:Drivers/lvgl/lvgl/src/extra/layouts/grid/lv_grid.c **** 
 164:Drivers/lvgl/lvgl/src/extra/layouts/grid/lv_grid.c **** {
 165:Drivers/lvgl/lvgl/src/extra/layouts/grid/lv_grid.c ****     lv_obj_set_style_grid_cell_column_pos(obj, col_pos, 0);
 166:Drivers/lvgl/lvgl/src/extra/layouts/grid/lv_grid.c ****     lv_obj_set_style_grid_cell_row_pos(obj, row_pos, 0);
 167:Drivers/lvgl/lvgl/src/extra/layouts/grid/lv_grid.c ****     lv_obj_set_style_grid_cell_x_align(obj, x_align, 0);
 168:Drivers/lvgl/lvgl/src/extra/layouts/grid/lv_grid.c ****     lv_obj_set_style_grid_cell_column_span(obj, col_span, 0);
 169:Drivers/lvgl/lvgl/src/extra/layouts/grid/lv_grid.c ****     lv_obj_set_style_grid_cell_row_span(obj, row_span, 0);
 170:Drivers/lvgl/lvgl/src/extra/layouts/grid/lv_grid.c ****     lv_obj_set_style_grid_cell_y_align(obj, y_align, 0);
 171:Drivers/lvgl/lvgl/src/extra/layouts/grid/lv_grid.c **** 
 172:Drivers/lvgl/lvgl/src/extra/layouts/grid/lv_grid.c ****     lv_obj_mark_layout_as_dirty(lv_obj_get_parent(obj));
 173:Drivers/lvgl/lvgl/src/extra/layouts/grid/lv_grid.c **** }
 174:Drivers/lvgl/lvgl/src/extra/layouts/grid/lv_grid.c **** 
 175:Drivers/lvgl/lvgl/src/extra/layouts/grid/lv_grid.c **** 
 176:Drivers/lvgl/lvgl/src/extra/layouts/grid/lv_grid.c **** void lv_style_set_grid_row_dsc_array(lv_style_t * style, const lv_coord_t value[])
 177:Drivers/lvgl/lvgl/src/extra/layouts/grid/lv_grid.c **** {
 178:Drivers/lvgl/lvgl/src/extra/layouts/grid/lv_grid.c ****     lv_style_value_t v = {
 179:Drivers/lvgl/lvgl/src/extra/layouts/grid/lv_grid.c ****         .ptr = (const void *)value
 180:Drivers/lvgl/lvgl/src/extra/layouts/grid/lv_grid.c ****     };
 181:Drivers/lvgl/lvgl/src/extra/layouts/grid/lv_grid.c ****     lv_style_set_prop(style, LV_STYLE_GRID_ROW_DSC_ARRAY, v);
 182:Drivers/lvgl/lvgl/src/extra/layouts/grid/lv_grid.c **** }
 183:Drivers/lvgl/lvgl/src/extra/layouts/grid/lv_grid.c **** 
 184:Drivers/lvgl/lvgl/src/extra/layouts/grid/lv_grid.c **** void lv_style_set_grid_column_dsc_array(lv_style_t * style, const lv_coord_t value[])
 185:Drivers/lvgl/lvgl/src/extra/layouts/grid/lv_grid.c **** {
 186:Drivers/lvgl/lvgl/src/extra/layouts/grid/lv_grid.c ****     lv_style_value_t v = {
 187:Drivers/lvgl/lvgl/src/extra/layouts/grid/lv_grid.c ****         .ptr = (const void *)value
 188:Drivers/lvgl/lvgl/src/extra/layouts/grid/lv_grid.c ****     };
 189:Drivers/lvgl/lvgl/src/extra/layouts/grid/lv_grid.c ****     lv_style_set_prop(style, LV_STYLE_GRID_COLUMN_DSC_ARRAY, v);
 190:Drivers/lvgl/lvgl/src/extra/layouts/grid/lv_grid.c **** }
 191:Drivers/lvgl/lvgl/src/extra/layouts/grid/lv_grid.c **** 
 192:Drivers/lvgl/lvgl/src/extra/layouts/grid/lv_grid.c **** void lv_style_set_grid_row_align(lv_style_t * style, lv_grid_align_t value)
 193:Drivers/lvgl/lvgl/src/extra/layouts/grid/lv_grid.c **** {
 194:Drivers/lvgl/lvgl/src/extra/layouts/grid/lv_grid.c ****     lv_style_value_t v = {
 195:Drivers/lvgl/lvgl/src/extra/layouts/grid/lv_grid.c ****         .num = (lv_grid_align_t)value
 196:Drivers/lvgl/lvgl/src/extra/layouts/grid/lv_grid.c ****     };
 197:Drivers/lvgl/lvgl/src/extra/layouts/grid/lv_grid.c ****     lv_style_set_prop(style, LV_STYLE_GRID_ROW_ALIGN, v);
 198:Drivers/lvgl/lvgl/src/extra/layouts/grid/lv_grid.c **** }
 199:Drivers/lvgl/lvgl/src/extra/layouts/grid/lv_grid.c **** 
 200:Drivers/lvgl/lvgl/src/extra/layouts/grid/lv_grid.c **** void lv_style_set_grid_column_align(lv_style_t * style, lv_grid_align_t value)
 201:Drivers/lvgl/lvgl/src/extra/layouts/grid/lv_grid.c **** {
 202:Drivers/lvgl/lvgl/src/extra/layouts/grid/lv_grid.c ****     lv_style_value_t v = {
 203:Drivers/lvgl/lvgl/src/extra/layouts/grid/lv_grid.c ****         .num = (lv_grid_align_t)value
 204:Drivers/lvgl/lvgl/src/extra/layouts/grid/lv_grid.c ****     };
ARM GAS  /tmp/ccFQgg33.s 			page 5


 205:Drivers/lvgl/lvgl/src/extra/layouts/grid/lv_grid.c ****     lv_style_set_prop(style, LV_STYLE_GRID_COLUMN_ALIGN, v);
 206:Drivers/lvgl/lvgl/src/extra/layouts/grid/lv_grid.c **** }
 207:Drivers/lvgl/lvgl/src/extra/layouts/grid/lv_grid.c **** 
 208:Drivers/lvgl/lvgl/src/extra/layouts/grid/lv_grid.c **** 
 209:Drivers/lvgl/lvgl/src/extra/layouts/grid/lv_grid.c **** void lv_style_set_grid_cell_column_pos(lv_style_t * style, lv_coord_t value)
 210:Drivers/lvgl/lvgl/src/extra/layouts/grid/lv_grid.c **** {
 211:Drivers/lvgl/lvgl/src/extra/layouts/grid/lv_grid.c ****     lv_style_value_t v = {
 212:Drivers/lvgl/lvgl/src/extra/layouts/grid/lv_grid.c ****         .num = value
 213:Drivers/lvgl/lvgl/src/extra/layouts/grid/lv_grid.c ****     };
 214:Drivers/lvgl/lvgl/src/extra/layouts/grid/lv_grid.c ****     lv_style_set_prop(style, LV_STYLE_GRID_CELL_COLUMN_POS, v);
 215:Drivers/lvgl/lvgl/src/extra/layouts/grid/lv_grid.c **** }
 216:Drivers/lvgl/lvgl/src/extra/layouts/grid/lv_grid.c **** 
 217:Drivers/lvgl/lvgl/src/extra/layouts/grid/lv_grid.c **** void lv_style_set_grid_cell_column_span(lv_style_t * style, lv_coord_t value)
 218:Drivers/lvgl/lvgl/src/extra/layouts/grid/lv_grid.c **** {
 219:Drivers/lvgl/lvgl/src/extra/layouts/grid/lv_grid.c ****     lv_style_value_t v = {
 220:Drivers/lvgl/lvgl/src/extra/layouts/grid/lv_grid.c ****         .num = value
 221:Drivers/lvgl/lvgl/src/extra/layouts/grid/lv_grid.c ****     };
 222:Drivers/lvgl/lvgl/src/extra/layouts/grid/lv_grid.c ****     lv_style_set_prop(style, LV_STYLE_GRID_CELL_COLUMN_SPAN, v);
 223:Drivers/lvgl/lvgl/src/extra/layouts/grid/lv_grid.c **** }
 224:Drivers/lvgl/lvgl/src/extra/layouts/grid/lv_grid.c **** 
 225:Drivers/lvgl/lvgl/src/extra/layouts/grid/lv_grid.c **** void lv_style_set_grid_cell_row_pos(lv_style_t * style, lv_coord_t value)
 226:Drivers/lvgl/lvgl/src/extra/layouts/grid/lv_grid.c **** {
 227:Drivers/lvgl/lvgl/src/extra/layouts/grid/lv_grid.c ****     lv_style_value_t v = {
 228:Drivers/lvgl/lvgl/src/extra/layouts/grid/lv_grid.c ****         .num = value
 229:Drivers/lvgl/lvgl/src/extra/layouts/grid/lv_grid.c ****     };
 230:Drivers/lvgl/lvgl/src/extra/layouts/grid/lv_grid.c ****     lv_style_set_prop(style, LV_STYLE_GRID_CELL_ROW_POS, v);
 231:Drivers/lvgl/lvgl/src/extra/layouts/grid/lv_grid.c **** }
 232:Drivers/lvgl/lvgl/src/extra/layouts/grid/lv_grid.c **** 
 233:Drivers/lvgl/lvgl/src/extra/layouts/grid/lv_grid.c **** void lv_style_set_grid_cell_row_span(lv_style_t * style, lv_coord_t value)
 234:Drivers/lvgl/lvgl/src/extra/layouts/grid/lv_grid.c **** {
 235:Drivers/lvgl/lvgl/src/extra/layouts/grid/lv_grid.c ****     lv_style_value_t v = {
 236:Drivers/lvgl/lvgl/src/extra/layouts/grid/lv_grid.c ****         .num = value
 237:Drivers/lvgl/lvgl/src/extra/layouts/grid/lv_grid.c ****     };
 238:Drivers/lvgl/lvgl/src/extra/layouts/grid/lv_grid.c ****     lv_style_set_prop(style, LV_STYLE_GRID_CELL_ROW_SPAN, v);
 239:Drivers/lvgl/lvgl/src/extra/layouts/grid/lv_grid.c **** }
 240:Drivers/lvgl/lvgl/src/extra/layouts/grid/lv_grid.c **** 
 241:Drivers/lvgl/lvgl/src/extra/layouts/grid/lv_grid.c **** void lv_style_set_grid_cell_x_align(lv_style_t * style, lv_coord_t value)
 242:Drivers/lvgl/lvgl/src/extra/layouts/grid/lv_grid.c **** {
 243:Drivers/lvgl/lvgl/src/extra/layouts/grid/lv_grid.c ****     lv_style_value_t v = {
 244:Drivers/lvgl/lvgl/src/extra/layouts/grid/lv_grid.c ****         .num = value
 245:Drivers/lvgl/lvgl/src/extra/layouts/grid/lv_grid.c ****     };
 246:Drivers/lvgl/lvgl/src/extra/layouts/grid/lv_grid.c ****     lv_style_set_prop(style, LV_STYLE_GRID_CELL_X_ALIGN, v);
 247:Drivers/lvgl/lvgl/src/extra/layouts/grid/lv_grid.c **** }
 248:Drivers/lvgl/lvgl/src/extra/layouts/grid/lv_grid.c **** 
 249:Drivers/lvgl/lvgl/src/extra/layouts/grid/lv_grid.c **** void lv_style_set_grid_cell_y_align(lv_style_t * style, lv_coord_t value)
 250:Drivers/lvgl/lvgl/src/extra/layouts/grid/lv_grid.c **** {
 251:Drivers/lvgl/lvgl/src/extra/layouts/grid/lv_grid.c ****     lv_style_value_t v = {
 252:Drivers/lvgl/lvgl/src/extra/layouts/grid/lv_grid.c ****         .num = value
 253:Drivers/lvgl/lvgl/src/extra/layouts/grid/lv_grid.c ****     };
 254:Drivers/lvgl/lvgl/src/extra/layouts/grid/lv_grid.c ****     lv_style_set_prop(style, LV_STYLE_GRID_CELL_Y_ALIGN, v);
 255:Drivers/lvgl/lvgl/src/extra/layouts/grid/lv_grid.c **** }
 256:Drivers/lvgl/lvgl/src/extra/layouts/grid/lv_grid.c **** 
 257:Drivers/lvgl/lvgl/src/extra/layouts/grid/lv_grid.c **** void lv_obj_set_style_grid_row_dsc_array(lv_obj_t * obj, const lv_coord_t value[], lv_style_selecto
 258:Drivers/lvgl/lvgl/src/extra/layouts/grid/lv_grid.c **** {
 259:Drivers/lvgl/lvgl/src/extra/layouts/grid/lv_grid.c ****     lv_style_value_t v = {
 260:Drivers/lvgl/lvgl/src/extra/layouts/grid/lv_grid.c ****         .ptr = (const void *)value
 261:Drivers/lvgl/lvgl/src/extra/layouts/grid/lv_grid.c ****     };
ARM GAS  /tmp/ccFQgg33.s 			page 6


 262:Drivers/lvgl/lvgl/src/extra/layouts/grid/lv_grid.c ****     lv_obj_set_local_style_prop(obj, LV_STYLE_GRID_ROW_DSC_ARRAY, v, selector);
 263:Drivers/lvgl/lvgl/src/extra/layouts/grid/lv_grid.c **** }
 264:Drivers/lvgl/lvgl/src/extra/layouts/grid/lv_grid.c **** 
 265:Drivers/lvgl/lvgl/src/extra/layouts/grid/lv_grid.c **** void lv_obj_set_style_grid_column_dsc_array(lv_obj_t * obj, const lv_coord_t value[], lv_style_sele
 266:Drivers/lvgl/lvgl/src/extra/layouts/grid/lv_grid.c **** {
 267:Drivers/lvgl/lvgl/src/extra/layouts/grid/lv_grid.c ****     lv_style_value_t v = {
 268:Drivers/lvgl/lvgl/src/extra/layouts/grid/lv_grid.c ****         .ptr = (const void *)value
 269:Drivers/lvgl/lvgl/src/extra/layouts/grid/lv_grid.c ****     };
 270:Drivers/lvgl/lvgl/src/extra/layouts/grid/lv_grid.c ****     lv_obj_set_local_style_prop(obj, LV_STYLE_GRID_COLUMN_DSC_ARRAY, v, selector);
 271:Drivers/lvgl/lvgl/src/extra/layouts/grid/lv_grid.c **** }
 272:Drivers/lvgl/lvgl/src/extra/layouts/grid/lv_grid.c **** 
 273:Drivers/lvgl/lvgl/src/extra/layouts/grid/lv_grid.c **** 
 274:Drivers/lvgl/lvgl/src/extra/layouts/grid/lv_grid.c **** void lv_obj_set_style_grid_row_align(lv_obj_t * obj, lv_grid_align_t value, lv_style_selector_t sel
 275:Drivers/lvgl/lvgl/src/extra/layouts/grid/lv_grid.c **** {
 276:Drivers/lvgl/lvgl/src/extra/layouts/grid/lv_grid.c ****     lv_style_value_t v = {
 277:Drivers/lvgl/lvgl/src/extra/layouts/grid/lv_grid.c ****         .num = (int32_t) value
 278:Drivers/lvgl/lvgl/src/extra/layouts/grid/lv_grid.c ****     };
 279:Drivers/lvgl/lvgl/src/extra/layouts/grid/lv_grid.c ****     lv_obj_set_local_style_prop(obj, LV_STYLE_GRID_ROW_ALIGN, v, selector);
 280:Drivers/lvgl/lvgl/src/extra/layouts/grid/lv_grid.c **** }
 281:Drivers/lvgl/lvgl/src/extra/layouts/grid/lv_grid.c **** 
 282:Drivers/lvgl/lvgl/src/extra/layouts/grid/lv_grid.c **** void lv_obj_set_style_grid_column_align(lv_obj_t * obj, lv_grid_align_t value, lv_style_selector_t 
 283:Drivers/lvgl/lvgl/src/extra/layouts/grid/lv_grid.c **** {
 284:Drivers/lvgl/lvgl/src/extra/layouts/grid/lv_grid.c ****     lv_style_value_t v = {
 285:Drivers/lvgl/lvgl/src/extra/layouts/grid/lv_grid.c ****         .num = (int32_t) value
 286:Drivers/lvgl/lvgl/src/extra/layouts/grid/lv_grid.c ****     };
 287:Drivers/lvgl/lvgl/src/extra/layouts/grid/lv_grid.c ****     lv_obj_set_local_style_prop(obj, LV_STYLE_GRID_COLUMN_ALIGN, v, selector);
 288:Drivers/lvgl/lvgl/src/extra/layouts/grid/lv_grid.c **** }
 289:Drivers/lvgl/lvgl/src/extra/layouts/grid/lv_grid.c **** 
 290:Drivers/lvgl/lvgl/src/extra/layouts/grid/lv_grid.c **** 
 291:Drivers/lvgl/lvgl/src/extra/layouts/grid/lv_grid.c **** void lv_obj_set_style_grid_cell_column_pos(lv_obj_t * obj, lv_coord_t value, lv_style_selector_t se
 292:Drivers/lvgl/lvgl/src/extra/layouts/grid/lv_grid.c **** {
 293:Drivers/lvgl/lvgl/src/extra/layouts/grid/lv_grid.c ****     lv_style_value_t v = {
 294:Drivers/lvgl/lvgl/src/extra/layouts/grid/lv_grid.c ****         .num = value
 295:Drivers/lvgl/lvgl/src/extra/layouts/grid/lv_grid.c ****     };
 296:Drivers/lvgl/lvgl/src/extra/layouts/grid/lv_grid.c ****     lv_obj_set_local_style_prop(obj, LV_STYLE_GRID_CELL_COLUMN_POS, v, selector);
 297:Drivers/lvgl/lvgl/src/extra/layouts/grid/lv_grid.c **** }
 298:Drivers/lvgl/lvgl/src/extra/layouts/grid/lv_grid.c **** 
 299:Drivers/lvgl/lvgl/src/extra/layouts/grid/lv_grid.c **** void lv_obj_set_style_grid_cell_column_span(lv_obj_t * obj, lv_coord_t value, lv_style_selector_t s
 300:Drivers/lvgl/lvgl/src/extra/layouts/grid/lv_grid.c **** {
 301:Drivers/lvgl/lvgl/src/extra/layouts/grid/lv_grid.c ****     lv_style_value_t v = {
 302:Drivers/lvgl/lvgl/src/extra/layouts/grid/lv_grid.c ****         .num = value
 303:Drivers/lvgl/lvgl/src/extra/layouts/grid/lv_grid.c ****     };
 304:Drivers/lvgl/lvgl/src/extra/layouts/grid/lv_grid.c ****     lv_obj_set_local_style_prop(obj, LV_STYLE_GRID_CELL_COLUMN_SPAN, v, selector);
 305:Drivers/lvgl/lvgl/src/extra/layouts/grid/lv_grid.c **** }
 306:Drivers/lvgl/lvgl/src/extra/layouts/grid/lv_grid.c **** 
 307:Drivers/lvgl/lvgl/src/extra/layouts/grid/lv_grid.c **** void lv_obj_set_style_grid_cell_row_pos(lv_obj_t * obj, lv_coord_t value, lv_style_selector_t selec
 308:Drivers/lvgl/lvgl/src/extra/layouts/grid/lv_grid.c **** {
 309:Drivers/lvgl/lvgl/src/extra/layouts/grid/lv_grid.c ****     lv_style_value_t v = {
 310:Drivers/lvgl/lvgl/src/extra/layouts/grid/lv_grid.c ****         .num = value
 311:Drivers/lvgl/lvgl/src/extra/layouts/grid/lv_grid.c ****     };
 312:Drivers/lvgl/lvgl/src/extra/layouts/grid/lv_grid.c ****     lv_obj_set_local_style_prop(obj, LV_STYLE_GRID_CELL_ROW_POS, v, selector);
 313:Drivers/lvgl/lvgl/src/extra/layouts/grid/lv_grid.c **** }
 314:Drivers/lvgl/lvgl/src/extra/layouts/grid/lv_grid.c **** 
 315:Drivers/lvgl/lvgl/src/extra/layouts/grid/lv_grid.c **** void lv_obj_set_style_grid_cell_row_span(lv_obj_t * obj, lv_coord_t value, lv_style_selector_t sele
 316:Drivers/lvgl/lvgl/src/extra/layouts/grid/lv_grid.c **** {
 317:Drivers/lvgl/lvgl/src/extra/layouts/grid/lv_grid.c ****     lv_style_value_t v = {
 318:Drivers/lvgl/lvgl/src/extra/layouts/grid/lv_grid.c ****         .num = value
ARM GAS  /tmp/ccFQgg33.s 			page 7


 319:Drivers/lvgl/lvgl/src/extra/layouts/grid/lv_grid.c ****     };
 320:Drivers/lvgl/lvgl/src/extra/layouts/grid/lv_grid.c ****     lv_obj_set_local_style_prop(obj, LV_STYLE_GRID_CELL_ROW_SPAN, v, selector);
 321:Drivers/lvgl/lvgl/src/extra/layouts/grid/lv_grid.c **** }
 322:Drivers/lvgl/lvgl/src/extra/layouts/grid/lv_grid.c **** 
 323:Drivers/lvgl/lvgl/src/extra/layouts/grid/lv_grid.c **** void lv_obj_set_style_grid_cell_x_align(lv_obj_t * obj, lv_coord_t value, lv_style_selector_t selec
 324:Drivers/lvgl/lvgl/src/extra/layouts/grid/lv_grid.c **** {
 325:Drivers/lvgl/lvgl/src/extra/layouts/grid/lv_grid.c ****     lv_style_value_t v = {
 326:Drivers/lvgl/lvgl/src/extra/layouts/grid/lv_grid.c ****         .num = value
 327:Drivers/lvgl/lvgl/src/extra/layouts/grid/lv_grid.c ****     };
 328:Drivers/lvgl/lvgl/src/extra/layouts/grid/lv_grid.c ****     lv_obj_set_local_style_prop(obj, LV_STYLE_GRID_CELL_X_ALIGN, v, selector);
 329:Drivers/lvgl/lvgl/src/extra/layouts/grid/lv_grid.c **** }
 330:Drivers/lvgl/lvgl/src/extra/layouts/grid/lv_grid.c **** 
 331:Drivers/lvgl/lvgl/src/extra/layouts/grid/lv_grid.c **** void lv_obj_set_style_grid_cell_y_align(lv_obj_t * obj, lv_coord_t value, lv_style_selector_t selec
 332:Drivers/lvgl/lvgl/src/extra/layouts/grid/lv_grid.c **** {
 333:Drivers/lvgl/lvgl/src/extra/layouts/grid/lv_grid.c ****     lv_style_value_t v = {
 334:Drivers/lvgl/lvgl/src/extra/layouts/grid/lv_grid.c ****         .num = value
 335:Drivers/lvgl/lvgl/src/extra/layouts/grid/lv_grid.c ****     };
 336:Drivers/lvgl/lvgl/src/extra/layouts/grid/lv_grid.c ****     lv_obj_set_local_style_prop(obj, LV_STYLE_GRID_CELL_Y_ALIGN, v, selector);
 337:Drivers/lvgl/lvgl/src/extra/layouts/grid/lv_grid.c **** }
 338:Drivers/lvgl/lvgl/src/extra/layouts/grid/lv_grid.c **** 
 339:Drivers/lvgl/lvgl/src/extra/layouts/grid/lv_grid.c **** 
 340:Drivers/lvgl/lvgl/src/extra/layouts/grid/lv_grid.c **** /**********************
 341:Drivers/lvgl/lvgl/src/extra/layouts/grid/lv_grid.c ****  *   STATIC FUNCTIONS
 342:Drivers/lvgl/lvgl/src/extra/layouts/grid/lv_grid.c ****  **********************/
 343:Drivers/lvgl/lvgl/src/extra/layouts/grid/lv_grid.c **** 
 344:Drivers/lvgl/lvgl/src/extra/layouts/grid/lv_grid.c **** static void grid_update(lv_obj_t * cont, void * user_data)
 345:Drivers/lvgl/lvgl/src/extra/layouts/grid/lv_grid.c **** {
 346:Drivers/lvgl/lvgl/src/extra/layouts/grid/lv_grid.c ****     LV_LOG_INFO("update %p container", (void *)cont);
 347:Drivers/lvgl/lvgl/src/extra/layouts/grid/lv_grid.c ****     LV_UNUSED(user_data);
 348:Drivers/lvgl/lvgl/src/extra/layouts/grid/lv_grid.c **** 
 349:Drivers/lvgl/lvgl/src/extra/layouts/grid/lv_grid.c ****     const lv_coord_t * col_templ = get_col_dsc(cont);
 350:Drivers/lvgl/lvgl/src/extra/layouts/grid/lv_grid.c ****     const lv_coord_t * row_templ = get_row_dsc(cont);
 351:Drivers/lvgl/lvgl/src/extra/layouts/grid/lv_grid.c ****     if(col_templ == NULL || row_templ == NULL) return;
 352:Drivers/lvgl/lvgl/src/extra/layouts/grid/lv_grid.c **** 
 353:Drivers/lvgl/lvgl/src/extra/layouts/grid/lv_grid.c ****     _lv_grid_calc_t c;
 354:Drivers/lvgl/lvgl/src/extra/layouts/grid/lv_grid.c ****     calc(cont, &c);
 355:Drivers/lvgl/lvgl/src/extra/layouts/grid/lv_grid.c **** 
 356:Drivers/lvgl/lvgl/src/extra/layouts/grid/lv_grid.c ****     item_repos_hint_t hint;
 357:Drivers/lvgl/lvgl/src/extra/layouts/grid/lv_grid.c ****     lv_memset_00(&hint, sizeof(hint));
 358:Drivers/lvgl/lvgl/src/extra/layouts/grid/lv_grid.c **** 
 359:Drivers/lvgl/lvgl/src/extra/layouts/grid/lv_grid.c ****     /*Calculate the grids absolute x and y coordinates.
 360:Drivers/lvgl/lvgl/src/extra/layouts/grid/lv_grid.c ****      *It will be used as helper during item repositioning to avoid calculating this value for every
 361:Drivers/lvgl/lvgl/src/extra/layouts/grid/lv_grid.c ****     lv_coord_t border_widt = lv_obj_get_style_border_width(cont, LV_PART_MAIN);
 362:Drivers/lvgl/lvgl/src/extra/layouts/grid/lv_grid.c ****     lv_coord_t pad_left = lv_obj_get_style_pad_left(cont, LV_PART_MAIN) + border_widt;
 363:Drivers/lvgl/lvgl/src/extra/layouts/grid/lv_grid.c ****     lv_coord_t pad_top = lv_obj_get_style_pad_top(cont, LV_PART_MAIN) + border_widt;
 364:Drivers/lvgl/lvgl/src/extra/layouts/grid/lv_grid.c ****     hint.grid_abs.x = pad_left + cont->coords.x1 - lv_obj_get_scroll_x(cont);
 365:Drivers/lvgl/lvgl/src/extra/layouts/grid/lv_grid.c ****     hint.grid_abs.y = pad_top + cont->coords.y1 - lv_obj_get_scroll_y(cont);
 366:Drivers/lvgl/lvgl/src/extra/layouts/grid/lv_grid.c **** 
 367:Drivers/lvgl/lvgl/src/extra/layouts/grid/lv_grid.c ****     uint32_t i;
 368:Drivers/lvgl/lvgl/src/extra/layouts/grid/lv_grid.c ****     for(i = 0; i < cont->spec_attr->child_cnt; i++) {
 369:Drivers/lvgl/lvgl/src/extra/layouts/grid/lv_grid.c ****         lv_obj_t * item = cont->spec_attr->children[i];
 370:Drivers/lvgl/lvgl/src/extra/layouts/grid/lv_grid.c ****         item_repos(item, &c, &hint);
 371:Drivers/lvgl/lvgl/src/extra/layouts/grid/lv_grid.c ****     }
 372:Drivers/lvgl/lvgl/src/extra/layouts/grid/lv_grid.c ****     calc_free(&c);
 373:Drivers/lvgl/lvgl/src/extra/layouts/grid/lv_grid.c **** 
 374:Drivers/lvgl/lvgl/src/extra/layouts/grid/lv_grid.c ****     lv_coord_t w_set = lv_obj_get_style_width(cont, LV_PART_MAIN);
 375:Drivers/lvgl/lvgl/src/extra/layouts/grid/lv_grid.c ****     lv_coord_t h_set = lv_obj_get_style_height(cont, LV_PART_MAIN);
ARM GAS  /tmp/ccFQgg33.s 			page 8


 376:Drivers/lvgl/lvgl/src/extra/layouts/grid/lv_grid.c ****     if(w_set == LV_SIZE_CONTENT || h_set == LV_SIZE_CONTENT) {
 377:Drivers/lvgl/lvgl/src/extra/layouts/grid/lv_grid.c ****         lv_obj_refr_size(cont);
 378:Drivers/lvgl/lvgl/src/extra/layouts/grid/lv_grid.c ****     }
 379:Drivers/lvgl/lvgl/src/extra/layouts/grid/lv_grid.c **** 
 380:Drivers/lvgl/lvgl/src/extra/layouts/grid/lv_grid.c ****     lv_event_send(cont, LV_EVENT_LAYOUT_CHANGED, NULL);
 381:Drivers/lvgl/lvgl/src/extra/layouts/grid/lv_grid.c **** 
 382:Drivers/lvgl/lvgl/src/extra/layouts/grid/lv_grid.c ****     LV_TRACE_LAYOUT("finished");
 383:Drivers/lvgl/lvgl/src/extra/layouts/grid/lv_grid.c **** }
 384:Drivers/lvgl/lvgl/src/extra/layouts/grid/lv_grid.c **** 
 385:Drivers/lvgl/lvgl/src/extra/layouts/grid/lv_grid.c **** /**
 386:Drivers/lvgl/lvgl/src/extra/layouts/grid/lv_grid.c ****  * Calculate the grid cells coordinates
 387:Drivers/lvgl/lvgl/src/extra/layouts/grid/lv_grid.c ****  * @param cont an object that has a grid
 388:Drivers/lvgl/lvgl/src/extra/layouts/grid/lv_grid.c ****  * @param calc store the calculated cells sizes here
 389:Drivers/lvgl/lvgl/src/extra/layouts/grid/lv_grid.c ****  * @note `_lv_grid_calc_free(calc_out)` needs to be called when `calc_out` is not needed anymore
 390:Drivers/lvgl/lvgl/src/extra/layouts/grid/lv_grid.c ****  */
 391:Drivers/lvgl/lvgl/src/extra/layouts/grid/lv_grid.c **** static void calc(lv_obj_t * cont, _lv_grid_calc_t * calc_out)
 392:Drivers/lvgl/lvgl/src/extra/layouts/grid/lv_grid.c **** {
 393:Drivers/lvgl/lvgl/src/extra/layouts/grid/lv_grid.c ****     if(lv_obj_get_child(cont, 0) == NULL) {
 394:Drivers/lvgl/lvgl/src/extra/layouts/grid/lv_grid.c ****         lv_memset_00(calc_out, sizeof(_lv_grid_calc_t));
 395:Drivers/lvgl/lvgl/src/extra/layouts/grid/lv_grid.c ****         return;
 396:Drivers/lvgl/lvgl/src/extra/layouts/grid/lv_grid.c ****     }
 397:Drivers/lvgl/lvgl/src/extra/layouts/grid/lv_grid.c **** 
 398:Drivers/lvgl/lvgl/src/extra/layouts/grid/lv_grid.c ****     calc_rows(cont, calc_out);
 399:Drivers/lvgl/lvgl/src/extra/layouts/grid/lv_grid.c ****     calc_cols(cont, calc_out);
 400:Drivers/lvgl/lvgl/src/extra/layouts/grid/lv_grid.c **** 
 401:Drivers/lvgl/lvgl/src/extra/layouts/grid/lv_grid.c ****     lv_coord_t col_gap = lv_obj_get_style_pad_column(cont, LV_PART_MAIN);
 402:Drivers/lvgl/lvgl/src/extra/layouts/grid/lv_grid.c ****     lv_coord_t row_gap = lv_obj_get_style_pad_row(cont, LV_PART_MAIN);
 403:Drivers/lvgl/lvgl/src/extra/layouts/grid/lv_grid.c **** 
 404:Drivers/lvgl/lvgl/src/extra/layouts/grid/lv_grid.c ****     bool rev = lv_obj_get_style_base_dir(cont, LV_PART_MAIN) == LV_BASE_DIR_RTL ? true : false;
 405:Drivers/lvgl/lvgl/src/extra/layouts/grid/lv_grid.c **** 
 406:Drivers/lvgl/lvgl/src/extra/layouts/grid/lv_grid.c ****     lv_coord_t w_set = lv_obj_get_style_width(cont, LV_PART_MAIN);
 407:Drivers/lvgl/lvgl/src/extra/layouts/grid/lv_grid.c ****     lv_coord_t h_set = lv_obj_get_style_height(cont, LV_PART_MAIN);
 408:Drivers/lvgl/lvgl/src/extra/layouts/grid/lv_grid.c ****     bool auto_w = (w_set == LV_SIZE_CONTENT && !cont->w_layout) ? true : false;
 409:Drivers/lvgl/lvgl/src/extra/layouts/grid/lv_grid.c ****     lv_coord_t cont_w = lv_obj_get_content_width(cont);
 410:Drivers/lvgl/lvgl/src/extra/layouts/grid/lv_grid.c ****     calc_out->grid_w = grid_align(cont_w, auto_w, get_grid_col_align(cont), col_gap, calc_out->col_
 411:Drivers/lvgl/lvgl/src/extra/layouts/grid/lv_grid.c ****                                   calc_out->x, rev);
 412:Drivers/lvgl/lvgl/src/extra/layouts/grid/lv_grid.c **** 
 413:Drivers/lvgl/lvgl/src/extra/layouts/grid/lv_grid.c ****     bool auto_h = (h_set == LV_SIZE_CONTENT && !cont->h_layout) ? true : false;
 414:Drivers/lvgl/lvgl/src/extra/layouts/grid/lv_grid.c ****     lv_coord_t cont_h = lv_obj_get_content_height(cont);
 415:Drivers/lvgl/lvgl/src/extra/layouts/grid/lv_grid.c ****     calc_out->grid_h = grid_align(cont_h, auto_h, get_grid_row_align(cont), row_gap, calc_out->row_
 416:Drivers/lvgl/lvgl/src/extra/layouts/grid/lv_grid.c ****                                   calc_out->y, false);
 417:Drivers/lvgl/lvgl/src/extra/layouts/grid/lv_grid.c **** 
 418:Drivers/lvgl/lvgl/src/extra/layouts/grid/lv_grid.c ****     LV_ASSERT_MEM_INTEGRITY();
 419:Drivers/lvgl/lvgl/src/extra/layouts/grid/lv_grid.c **** }
 420:Drivers/lvgl/lvgl/src/extra/layouts/grid/lv_grid.c **** 
 421:Drivers/lvgl/lvgl/src/extra/layouts/grid/lv_grid.c **** /**
 422:Drivers/lvgl/lvgl/src/extra/layouts/grid/lv_grid.c ****  * Free the a grid calculation's data
 423:Drivers/lvgl/lvgl/src/extra/layouts/grid/lv_grid.c ****  * @param calc pointer to the calculated grid cell coordinates
 424:Drivers/lvgl/lvgl/src/extra/layouts/grid/lv_grid.c ****  */
 425:Drivers/lvgl/lvgl/src/extra/layouts/grid/lv_grid.c **** static void calc_free(_lv_grid_calc_t * calc)
 426:Drivers/lvgl/lvgl/src/extra/layouts/grid/lv_grid.c **** {
 427:Drivers/lvgl/lvgl/src/extra/layouts/grid/lv_grid.c ****     lv_mem_buf_release(calc->x);
 428:Drivers/lvgl/lvgl/src/extra/layouts/grid/lv_grid.c ****     lv_mem_buf_release(calc->y);
 429:Drivers/lvgl/lvgl/src/extra/layouts/grid/lv_grid.c ****     lv_mem_buf_release(calc->w);
 430:Drivers/lvgl/lvgl/src/extra/layouts/grid/lv_grid.c ****     lv_mem_buf_release(calc->h);
 431:Drivers/lvgl/lvgl/src/extra/layouts/grid/lv_grid.c **** }
 432:Drivers/lvgl/lvgl/src/extra/layouts/grid/lv_grid.c **** 
ARM GAS  /tmp/ccFQgg33.s 			page 9


 433:Drivers/lvgl/lvgl/src/extra/layouts/grid/lv_grid.c **** static void calc_cols(lv_obj_t * cont, _lv_grid_calc_t * c)
 434:Drivers/lvgl/lvgl/src/extra/layouts/grid/lv_grid.c **** {
 435:Drivers/lvgl/lvgl/src/extra/layouts/grid/lv_grid.c ****     const lv_coord_t * col_templ = get_col_dsc(cont);
 436:Drivers/lvgl/lvgl/src/extra/layouts/grid/lv_grid.c ****     lv_coord_t cont_w = lv_obj_get_content_width(cont);
 437:Drivers/lvgl/lvgl/src/extra/layouts/grid/lv_grid.c **** 
 438:Drivers/lvgl/lvgl/src/extra/layouts/grid/lv_grid.c ****     c->col_num = count_tracks(col_templ);
 439:Drivers/lvgl/lvgl/src/extra/layouts/grid/lv_grid.c ****     c->x = lv_mem_buf_get(sizeof(lv_coord_t) * c->col_num);
 440:Drivers/lvgl/lvgl/src/extra/layouts/grid/lv_grid.c ****     c->w = lv_mem_buf_get(sizeof(lv_coord_t) * c->col_num);
 441:Drivers/lvgl/lvgl/src/extra/layouts/grid/lv_grid.c **** 
 442:Drivers/lvgl/lvgl/src/extra/layouts/grid/lv_grid.c ****     /*Set sizes for CONTENT cells*/
 443:Drivers/lvgl/lvgl/src/extra/layouts/grid/lv_grid.c ****     uint32_t i;
 444:Drivers/lvgl/lvgl/src/extra/layouts/grid/lv_grid.c ****     for(i = 0; i < c->col_num; i++) {
 445:Drivers/lvgl/lvgl/src/extra/layouts/grid/lv_grid.c ****         lv_coord_t size = LV_COORD_MIN;
 446:Drivers/lvgl/lvgl/src/extra/layouts/grid/lv_grid.c ****         if(IS_CONTENT(col_templ[i])) {
 447:Drivers/lvgl/lvgl/src/extra/layouts/grid/lv_grid.c ****             /*Check the size of children of this cell*/
 448:Drivers/lvgl/lvgl/src/extra/layouts/grid/lv_grid.c ****             uint32_t ci;
 449:Drivers/lvgl/lvgl/src/extra/layouts/grid/lv_grid.c ****             for(ci = 0; ci < lv_obj_get_child_cnt(cont); ci++) {
 450:Drivers/lvgl/lvgl/src/extra/layouts/grid/lv_grid.c ****                 lv_obj_t * item = lv_obj_get_child(cont, ci);
 451:Drivers/lvgl/lvgl/src/extra/layouts/grid/lv_grid.c ****                 if(lv_obj_has_flag_any(item, LV_OBJ_FLAG_IGNORE_LAYOUT | LV_OBJ_FLAG_HIDDEN | LV_OB
 452:Drivers/lvgl/lvgl/src/extra/layouts/grid/lv_grid.c ****                 uint32_t col_span = get_col_span(item);
 453:Drivers/lvgl/lvgl/src/extra/layouts/grid/lv_grid.c ****                 if(col_span != 1) continue;
 454:Drivers/lvgl/lvgl/src/extra/layouts/grid/lv_grid.c **** 
 455:Drivers/lvgl/lvgl/src/extra/layouts/grid/lv_grid.c ****                 uint32_t col_pos = get_col_pos(item);
 456:Drivers/lvgl/lvgl/src/extra/layouts/grid/lv_grid.c ****                 if(col_pos != i) continue;
 457:Drivers/lvgl/lvgl/src/extra/layouts/grid/lv_grid.c **** 
 458:Drivers/lvgl/lvgl/src/extra/layouts/grid/lv_grid.c ****                 size = LV_MAX(size, lv_obj_get_width(item));
 459:Drivers/lvgl/lvgl/src/extra/layouts/grid/lv_grid.c ****             }
 460:Drivers/lvgl/lvgl/src/extra/layouts/grid/lv_grid.c ****             if(size >= 0) c->w[i] = size;
 461:Drivers/lvgl/lvgl/src/extra/layouts/grid/lv_grid.c ****             else c->w[i] = 0;
 462:Drivers/lvgl/lvgl/src/extra/layouts/grid/lv_grid.c ****         }
 463:Drivers/lvgl/lvgl/src/extra/layouts/grid/lv_grid.c ****     }
 464:Drivers/lvgl/lvgl/src/extra/layouts/grid/lv_grid.c **** 
 465:Drivers/lvgl/lvgl/src/extra/layouts/grid/lv_grid.c ****     uint32_t col_fr_cnt = 0;
 466:Drivers/lvgl/lvgl/src/extra/layouts/grid/lv_grid.c ****     lv_coord_t grid_w = 0;
 467:Drivers/lvgl/lvgl/src/extra/layouts/grid/lv_grid.c **** 
 468:Drivers/lvgl/lvgl/src/extra/layouts/grid/lv_grid.c ****     for(i = 0; i < c->col_num; i++) {
 469:Drivers/lvgl/lvgl/src/extra/layouts/grid/lv_grid.c ****         lv_coord_t x = col_templ[i];
 470:Drivers/lvgl/lvgl/src/extra/layouts/grid/lv_grid.c ****         if(IS_FR(x)) {
 471:Drivers/lvgl/lvgl/src/extra/layouts/grid/lv_grid.c ****             col_fr_cnt += GET_FR(x);
 472:Drivers/lvgl/lvgl/src/extra/layouts/grid/lv_grid.c ****         }
 473:Drivers/lvgl/lvgl/src/extra/layouts/grid/lv_grid.c ****         else if(IS_CONTENT(x)) {
 474:Drivers/lvgl/lvgl/src/extra/layouts/grid/lv_grid.c ****             grid_w += c->w[i];
 475:Drivers/lvgl/lvgl/src/extra/layouts/grid/lv_grid.c ****         }
 476:Drivers/lvgl/lvgl/src/extra/layouts/grid/lv_grid.c ****         else {
 477:Drivers/lvgl/lvgl/src/extra/layouts/grid/lv_grid.c ****             c->w[i] = x;
 478:Drivers/lvgl/lvgl/src/extra/layouts/grid/lv_grid.c ****             grid_w += x;
 479:Drivers/lvgl/lvgl/src/extra/layouts/grid/lv_grid.c ****         }
 480:Drivers/lvgl/lvgl/src/extra/layouts/grid/lv_grid.c ****     }
 481:Drivers/lvgl/lvgl/src/extra/layouts/grid/lv_grid.c **** 
 482:Drivers/lvgl/lvgl/src/extra/layouts/grid/lv_grid.c ****     lv_coord_t col_gap = lv_obj_get_style_pad_column(cont, LV_PART_MAIN);
 483:Drivers/lvgl/lvgl/src/extra/layouts/grid/lv_grid.c ****     cont_w -= col_gap * (c->col_num - 1);
 484:Drivers/lvgl/lvgl/src/extra/layouts/grid/lv_grid.c ****     lv_coord_t free_w = cont_w - grid_w;
 485:Drivers/lvgl/lvgl/src/extra/layouts/grid/lv_grid.c ****     if(free_w < 0) free_w = 0;
 486:Drivers/lvgl/lvgl/src/extra/layouts/grid/lv_grid.c **** 
 487:Drivers/lvgl/lvgl/src/extra/layouts/grid/lv_grid.c ****     int32_t last_fr_i = -1;
 488:Drivers/lvgl/lvgl/src/extra/layouts/grid/lv_grid.c ****     int32_t last_fr_x = 0;
 489:Drivers/lvgl/lvgl/src/extra/layouts/grid/lv_grid.c ****     for(i = 0; i < c->col_num; i++) {
ARM GAS  /tmp/ccFQgg33.s 			page 10


 490:Drivers/lvgl/lvgl/src/extra/layouts/grid/lv_grid.c ****         lv_coord_t x = col_templ[i];
 491:Drivers/lvgl/lvgl/src/extra/layouts/grid/lv_grid.c ****         if(IS_FR(x)) {
 492:Drivers/lvgl/lvgl/src/extra/layouts/grid/lv_grid.c ****             lv_coord_t f = GET_FR(x);
 493:Drivers/lvgl/lvgl/src/extra/layouts/grid/lv_grid.c ****             c->w[i] = (free_w * f) / col_fr_cnt;
 494:Drivers/lvgl/lvgl/src/extra/layouts/grid/lv_grid.c ****             last_fr_i = i;
 495:Drivers/lvgl/lvgl/src/extra/layouts/grid/lv_grid.c ****             last_fr_x = f;
 496:Drivers/lvgl/lvgl/src/extra/layouts/grid/lv_grid.c ****         }
 497:Drivers/lvgl/lvgl/src/extra/layouts/grid/lv_grid.c ****     }
 498:Drivers/lvgl/lvgl/src/extra/layouts/grid/lv_grid.c **** 
 499:Drivers/lvgl/lvgl/src/extra/layouts/grid/lv_grid.c ****     /*To avoid rounding errors set the last FR track to the remaining size */
 500:Drivers/lvgl/lvgl/src/extra/layouts/grid/lv_grid.c ****     if(last_fr_i >= 0) {
 501:Drivers/lvgl/lvgl/src/extra/layouts/grid/lv_grid.c ****         c->w[last_fr_i] = free_w - ((free_w * (col_fr_cnt - last_fr_x)) / col_fr_cnt);
 502:Drivers/lvgl/lvgl/src/extra/layouts/grid/lv_grid.c ****     }
 503:Drivers/lvgl/lvgl/src/extra/layouts/grid/lv_grid.c **** }
 504:Drivers/lvgl/lvgl/src/extra/layouts/grid/lv_grid.c **** 
 505:Drivers/lvgl/lvgl/src/extra/layouts/grid/lv_grid.c **** static void calc_rows(lv_obj_t * cont, _lv_grid_calc_t * c)
 506:Drivers/lvgl/lvgl/src/extra/layouts/grid/lv_grid.c **** {
 507:Drivers/lvgl/lvgl/src/extra/layouts/grid/lv_grid.c ****     uint32_t i;
 508:Drivers/lvgl/lvgl/src/extra/layouts/grid/lv_grid.c ****     const lv_coord_t * row_templ = get_row_dsc(cont);
 509:Drivers/lvgl/lvgl/src/extra/layouts/grid/lv_grid.c ****     c->row_num = count_tracks(row_templ);
 510:Drivers/lvgl/lvgl/src/extra/layouts/grid/lv_grid.c ****     c->y = lv_mem_buf_get(sizeof(lv_coord_t) * c->row_num);
 511:Drivers/lvgl/lvgl/src/extra/layouts/grid/lv_grid.c ****     c->h = lv_mem_buf_get(sizeof(lv_coord_t) * c->row_num);
 512:Drivers/lvgl/lvgl/src/extra/layouts/grid/lv_grid.c ****     /*Set sizes for CONTENT cells*/
 513:Drivers/lvgl/lvgl/src/extra/layouts/grid/lv_grid.c ****     for(i = 0; i < c->row_num; i++) {
 514:Drivers/lvgl/lvgl/src/extra/layouts/grid/lv_grid.c ****         lv_coord_t size = LV_COORD_MIN;
 515:Drivers/lvgl/lvgl/src/extra/layouts/grid/lv_grid.c ****         if(IS_CONTENT(row_templ[i])) {
 516:Drivers/lvgl/lvgl/src/extra/layouts/grid/lv_grid.c ****             /*Check the size of children of this cell*/
 517:Drivers/lvgl/lvgl/src/extra/layouts/grid/lv_grid.c ****             uint32_t ci;
 518:Drivers/lvgl/lvgl/src/extra/layouts/grid/lv_grid.c ****             for(ci = 0; ci < lv_obj_get_child_cnt(cont); ci++) {
 519:Drivers/lvgl/lvgl/src/extra/layouts/grid/lv_grid.c ****                 lv_obj_t * item = lv_obj_get_child(cont, ci);
 520:Drivers/lvgl/lvgl/src/extra/layouts/grid/lv_grid.c ****                 if(lv_obj_has_flag_any(item, LV_OBJ_FLAG_IGNORE_LAYOUT | LV_OBJ_FLAG_HIDDEN | LV_OB
 521:Drivers/lvgl/lvgl/src/extra/layouts/grid/lv_grid.c ****                 uint32_t row_span = get_row_span(item);
 522:Drivers/lvgl/lvgl/src/extra/layouts/grid/lv_grid.c ****                 if(row_span != 1) continue;
 523:Drivers/lvgl/lvgl/src/extra/layouts/grid/lv_grid.c **** 
 524:Drivers/lvgl/lvgl/src/extra/layouts/grid/lv_grid.c ****                 uint32_t row_pos = get_row_pos(item);
 525:Drivers/lvgl/lvgl/src/extra/layouts/grid/lv_grid.c ****                 if(row_pos != i) continue;
 526:Drivers/lvgl/lvgl/src/extra/layouts/grid/lv_grid.c **** 
 527:Drivers/lvgl/lvgl/src/extra/layouts/grid/lv_grid.c ****                 size = LV_MAX(size, lv_obj_get_height(item));
 528:Drivers/lvgl/lvgl/src/extra/layouts/grid/lv_grid.c ****             }
 529:Drivers/lvgl/lvgl/src/extra/layouts/grid/lv_grid.c ****             if(size >= 0) c->h[i] = size;
 530:Drivers/lvgl/lvgl/src/extra/layouts/grid/lv_grid.c ****             else c->h[i] = 0;
 531:Drivers/lvgl/lvgl/src/extra/layouts/grid/lv_grid.c ****         }
 532:Drivers/lvgl/lvgl/src/extra/layouts/grid/lv_grid.c ****     }
 533:Drivers/lvgl/lvgl/src/extra/layouts/grid/lv_grid.c **** 
 534:Drivers/lvgl/lvgl/src/extra/layouts/grid/lv_grid.c ****     uint32_t row_fr_cnt = 0;
 535:Drivers/lvgl/lvgl/src/extra/layouts/grid/lv_grid.c ****     lv_coord_t grid_h = 0;
 536:Drivers/lvgl/lvgl/src/extra/layouts/grid/lv_grid.c **** 
 537:Drivers/lvgl/lvgl/src/extra/layouts/grid/lv_grid.c ****     for(i = 0; i < c->row_num; i++) {
 538:Drivers/lvgl/lvgl/src/extra/layouts/grid/lv_grid.c ****         lv_coord_t x = row_templ[i];
 539:Drivers/lvgl/lvgl/src/extra/layouts/grid/lv_grid.c ****         if(IS_FR(x)) {
 540:Drivers/lvgl/lvgl/src/extra/layouts/grid/lv_grid.c ****             row_fr_cnt += GET_FR(x);
 541:Drivers/lvgl/lvgl/src/extra/layouts/grid/lv_grid.c ****         }
 542:Drivers/lvgl/lvgl/src/extra/layouts/grid/lv_grid.c ****         else if(IS_CONTENT(x)) {
 543:Drivers/lvgl/lvgl/src/extra/layouts/grid/lv_grid.c ****             grid_h += c->h[i];
 544:Drivers/lvgl/lvgl/src/extra/layouts/grid/lv_grid.c ****         }
 545:Drivers/lvgl/lvgl/src/extra/layouts/grid/lv_grid.c ****         else {
 546:Drivers/lvgl/lvgl/src/extra/layouts/grid/lv_grid.c ****             c->h[i] = x;
ARM GAS  /tmp/ccFQgg33.s 			page 11


 547:Drivers/lvgl/lvgl/src/extra/layouts/grid/lv_grid.c ****             grid_h += x;
 548:Drivers/lvgl/lvgl/src/extra/layouts/grid/lv_grid.c ****         }
 549:Drivers/lvgl/lvgl/src/extra/layouts/grid/lv_grid.c ****     }
 550:Drivers/lvgl/lvgl/src/extra/layouts/grid/lv_grid.c **** 
 551:Drivers/lvgl/lvgl/src/extra/layouts/grid/lv_grid.c **** 
 552:Drivers/lvgl/lvgl/src/extra/layouts/grid/lv_grid.c ****     lv_coord_t row_gap = lv_obj_get_style_pad_row(cont, LV_PART_MAIN);
 553:Drivers/lvgl/lvgl/src/extra/layouts/grid/lv_grid.c ****     lv_coord_t cont_h = lv_obj_get_content_height(cont) - row_gap * (c->row_num - 1);
 554:Drivers/lvgl/lvgl/src/extra/layouts/grid/lv_grid.c ****     lv_coord_t free_h = cont_h - grid_h;
 555:Drivers/lvgl/lvgl/src/extra/layouts/grid/lv_grid.c ****     if(free_h < 0) free_h = 0;
 556:Drivers/lvgl/lvgl/src/extra/layouts/grid/lv_grid.c **** 
 557:Drivers/lvgl/lvgl/src/extra/layouts/grid/lv_grid.c ****     int32_t last_fr_i = -1;
 558:Drivers/lvgl/lvgl/src/extra/layouts/grid/lv_grid.c ****     int32_t last_fr_x = 0;
 559:Drivers/lvgl/lvgl/src/extra/layouts/grid/lv_grid.c ****     for(i = 0; i < c->row_num; i++) {
 560:Drivers/lvgl/lvgl/src/extra/layouts/grid/lv_grid.c ****         lv_coord_t x = row_templ[i];
 561:Drivers/lvgl/lvgl/src/extra/layouts/grid/lv_grid.c ****         if(IS_FR(x)) {
 562:Drivers/lvgl/lvgl/src/extra/layouts/grid/lv_grid.c ****             lv_coord_t f = GET_FR(x);
 563:Drivers/lvgl/lvgl/src/extra/layouts/grid/lv_grid.c ****             c->h[i] = (free_h * f) / row_fr_cnt;
 564:Drivers/lvgl/lvgl/src/extra/layouts/grid/lv_grid.c ****             last_fr_i = i;
 565:Drivers/lvgl/lvgl/src/extra/layouts/grid/lv_grid.c ****             last_fr_x = f;
 566:Drivers/lvgl/lvgl/src/extra/layouts/grid/lv_grid.c ****         }
 567:Drivers/lvgl/lvgl/src/extra/layouts/grid/lv_grid.c ****     }
 568:Drivers/lvgl/lvgl/src/extra/layouts/grid/lv_grid.c **** 
 569:Drivers/lvgl/lvgl/src/extra/layouts/grid/lv_grid.c ****     /*To avoid rounding errors set the last FR track to the remaining size */
 570:Drivers/lvgl/lvgl/src/extra/layouts/grid/lv_grid.c ****     if(last_fr_i >= 0) {
 571:Drivers/lvgl/lvgl/src/extra/layouts/grid/lv_grid.c ****         c->h[last_fr_i] = free_h - ((free_h * (row_fr_cnt - last_fr_x)) / row_fr_cnt);
 572:Drivers/lvgl/lvgl/src/extra/layouts/grid/lv_grid.c ****     }
 573:Drivers/lvgl/lvgl/src/extra/layouts/grid/lv_grid.c **** }
 574:Drivers/lvgl/lvgl/src/extra/layouts/grid/lv_grid.c **** 
 575:Drivers/lvgl/lvgl/src/extra/layouts/grid/lv_grid.c **** /**
 576:Drivers/lvgl/lvgl/src/extra/layouts/grid/lv_grid.c ****  * Reposition a grid item in its cell
 577:Drivers/lvgl/lvgl/src/extra/layouts/grid/lv_grid.c ****  * @param item a grid item to reposition
 578:Drivers/lvgl/lvgl/src/extra/layouts/grid/lv_grid.c ****  * @param calc the calculated grid of `cont`
 579:Drivers/lvgl/lvgl/src/extra/layouts/grid/lv_grid.c ****  * @param child_id_ext helper value if the ID of the child is know (order from the oldest) else -1
 580:Drivers/lvgl/lvgl/src/extra/layouts/grid/lv_grid.c ****  * @param grid_abs helper value, the absolute position of the grid, NULL if unknown
 581:Drivers/lvgl/lvgl/src/extra/layouts/grid/lv_grid.c ****  */
 582:Drivers/lvgl/lvgl/src/extra/layouts/grid/lv_grid.c **** static void item_repos(lv_obj_t * item, _lv_grid_calc_t * c, item_repos_hint_t * hint)
 583:Drivers/lvgl/lvgl/src/extra/layouts/grid/lv_grid.c **** {
 584:Drivers/lvgl/lvgl/src/extra/layouts/grid/lv_grid.c ****     if(lv_obj_has_flag_any(item, LV_OBJ_FLAG_IGNORE_LAYOUT | LV_OBJ_FLAG_HIDDEN | LV_OBJ_FLAG_FLOAT
 585:Drivers/lvgl/lvgl/src/extra/layouts/grid/lv_grid.c ****     uint32_t col_span = get_col_span(item);
 586:Drivers/lvgl/lvgl/src/extra/layouts/grid/lv_grid.c ****     uint32_t row_span = get_row_span(item);
 587:Drivers/lvgl/lvgl/src/extra/layouts/grid/lv_grid.c ****     if(row_span == 0 || col_span == 0) return;
 588:Drivers/lvgl/lvgl/src/extra/layouts/grid/lv_grid.c **** 
 589:Drivers/lvgl/lvgl/src/extra/layouts/grid/lv_grid.c ****     uint32_t col_pos = get_col_pos(item);
 590:Drivers/lvgl/lvgl/src/extra/layouts/grid/lv_grid.c ****     uint32_t row_pos = get_row_pos(item);
 591:Drivers/lvgl/lvgl/src/extra/layouts/grid/lv_grid.c ****     lv_grid_align_t col_align = get_cell_col_align(item);
 592:Drivers/lvgl/lvgl/src/extra/layouts/grid/lv_grid.c ****     lv_grid_align_t row_align = get_cell_row_align(item);
 593:Drivers/lvgl/lvgl/src/extra/layouts/grid/lv_grid.c **** 
 594:Drivers/lvgl/lvgl/src/extra/layouts/grid/lv_grid.c **** 
 595:Drivers/lvgl/lvgl/src/extra/layouts/grid/lv_grid.c ****     lv_coord_t col_x1 = c->x[col_pos];
 596:Drivers/lvgl/lvgl/src/extra/layouts/grid/lv_grid.c ****     lv_coord_t col_x2 = c->x[col_pos + col_span - 1] + c->w[col_pos + col_span - 1];
 597:Drivers/lvgl/lvgl/src/extra/layouts/grid/lv_grid.c ****     lv_coord_t col_w = col_x2 - col_x1;
 598:Drivers/lvgl/lvgl/src/extra/layouts/grid/lv_grid.c **** 
 599:Drivers/lvgl/lvgl/src/extra/layouts/grid/lv_grid.c ****     lv_coord_t row_y1 = c->y[row_pos];
 600:Drivers/lvgl/lvgl/src/extra/layouts/grid/lv_grid.c ****     lv_coord_t row_y2 = c->y[row_pos + row_span - 1] + c->h[row_pos + row_span - 1];
 601:Drivers/lvgl/lvgl/src/extra/layouts/grid/lv_grid.c ****     lv_coord_t row_h = row_y2 - row_y1;
 602:Drivers/lvgl/lvgl/src/extra/layouts/grid/lv_grid.c **** 
 603:Drivers/lvgl/lvgl/src/extra/layouts/grid/lv_grid.c **** 
ARM GAS  /tmp/ccFQgg33.s 			page 12


 604:Drivers/lvgl/lvgl/src/extra/layouts/grid/lv_grid.c ****     /*If the item has RTL base dir switch start and end*/
 605:Drivers/lvgl/lvgl/src/extra/layouts/grid/lv_grid.c ****     if(lv_obj_get_style_base_dir(item, LV_PART_MAIN) == LV_BASE_DIR_RTL) {
 606:Drivers/lvgl/lvgl/src/extra/layouts/grid/lv_grid.c ****         if(col_align == LV_GRID_ALIGN_START) col_align = LV_GRID_ALIGN_END;
 607:Drivers/lvgl/lvgl/src/extra/layouts/grid/lv_grid.c ****         else if(col_align == LV_GRID_ALIGN_END) col_align = LV_GRID_ALIGN_START;
 608:Drivers/lvgl/lvgl/src/extra/layouts/grid/lv_grid.c ****     }
 609:Drivers/lvgl/lvgl/src/extra/layouts/grid/lv_grid.c **** 
 610:Drivers/lvgl/lvgl/src/extra/layouts/grid/lv_grid.c ****     lv_coord_t x;
 611:Drivers/lvgl/lvgl/src/extra/layouts/grid/lv_grid.c ****     lv_coord_t y;
 612:Drivers/lvgl/lvgl/src/extra/layouts/grid/lv_grid.c ****     lv_coord_t item_w = lv_area_get_width(&item->coords);
 613:Drivers/lvgl/lvgl/src/extra/layouts/grid/lv_grid.c ****     lv_coord_t item_h = lv_area_get_height(&item->coords);
 614:Drivers/lvgl/lvgl/src/extra/layouts/grid/lv_grid.c **** 
 615:Drivers/lvgl/lvgl/src/extra/layouts/grid/lv_grid.c ****     switch(col_align) {
 616:Drivers/lvgl/lvgl/src/extra/layouts/grid/lv_grid.c ****         default:
 617:Drivers/lvgl/lvgl/src/extra/layouts/grid/lv_grid.c ****         case LV_GRID_ALIGN_START:
 618:Drivers/lvgl/lvgl/src/extra/layouts/grid/lv_grid.c ****             x = c->x[col_pos];
 619:Drivers/lvgl/lvgl/src/extra/layouts/grid/lv_grid.c ****             item->w_layout = 0;
 620:Drivers/lvgl/lvgl/src/extra/layouts/grid/lv_grid.c ****             break;
 621:Drivers/lvgl/lvgl/src/extra/layouts/grid/lv_grid.c ****         case LV_GRID_ALIGN_STRETCH:
 622:Drivers/lvgl/lvgl/src/extra/layouts/grid/lv_grid.c ****             x = c->x[col_pos];
 623:Drivers/lvgl/lvgl/src/extra/layouts/grid/lv_grid.c ****             item_w = col_w;
 624:Drivers/lvgl/lvgl/src/extra/layouts/grid/lv_grid.c ****             item->w_layout = 1;
 625:Drivers/lvgl/lvgl/src/extra/layouts/grid/lv_grid.c ****             break;
 626:Drivers/lvgl/lvgl/src/extra/layouts/grid/lv_grid.c ****         case LV_GRID_ALIGN_CENTER:
 627:Drivers/lvgl/lvgl/src/extra/layouts/grid/lv_grid.c ****             x = c->x[col_pos] + (col_w - item_w) / 2;
 628:Drivers/lvgl/lvgl/src/extra/layouts/grid/lv_grid.c ****             item->w_layout = 0;
 629:Drivers/lvgl/lvgl/src/extra/layouts/grid/lv_grid.c ****             break;
 630:Drivers/lvgl/lvgl/src/extra/layouts/grid/lv_grid.c ****         case LV_GRID_ALIGN_END:
 631:Drivers/lvgl/lvgl/src/extra/layouts/grid/lv_grid.c ****             x = c->x[col_pos] + col_w - lv_obj_get_width(item);
 632:Drivers/lvgl/lvgl/src/extra/layouts/grid/lv_grid.c ****             item->w_layout = 0;
 633:Drivers/lvgl/lvgl/src/extra/layouts/grid/lv_grid.c ****             break;
 634:Drivers/lvgl/lvgl/src/extra/layouts/grid/lv_grid.c ****     }
 635:Drivers/lvgl/lvgl/src/extra/layouts/grid/lv_grid.c **** 
 636:Drivers/lvgl/lvgl/src/extra/layouts/grid/lv_grid.c ****     switch(row_align) {
 637:Drivers/lvgl/lvgl/src/extra/layouts/grid/lv_grid.c ****         default:
 638:Drivers/lvgl/lvgl/src/extra/layouts/grid/lv_grid.c ****         case LV_GRID_ALIGN_START:
 639:Drivers/lvgl/lvgl/src/extra/layouts/grid/lv_grid.c ****             y = c->y[row_pos];
 640:Drivers/lvgl/lvgl/src/extra/layouts/grid/lv_grid.c ****             item->h_layout = 0;
 641:Drivers/lvgl/lvgl/src/extra/layouts/grid/lv_grid.c ****             break;
 642:Drivers/lvgl/lvgl/src/extra/layouts/grid/lv_grid.c ****         case LV_GRID_ALIGN_STRETCH:
 643:Drivers/lvgl/lvgl/src/extra/layouts/grid/lv_grid.c ****             y = c->y[row_pos];
 644:Drivers/lvgl/lvgl/src/extra/layouts/grid/lv_grid.c ****             item_h = row_h;
 645:Drivers/lvgl/lvgl/src/extra/layouts/grid/lv_grid.c ****             item->h_layout = 1;
 646:Drivers/lvgl/lvgl/src/extra/layouts/grid/lv_grid.c ****             break;
 647:Drivers/lvgl/lvgl/src/extra/layouts/grid/lv_grid.c ****         case LV_GRID_ALIGN_CENTER:
 648:Drivers/lvgl/lvgl/src/extra/layouts/grid/lv_grid.c ****             y = c->y[row_pos] + (row_h - item_h) / 2;
 649:Drivers/lvgl/lvgl/src/extra/layouts/grid/lv_grid.c ****             item->h_layout = 0;
 650:Drivers/lvgl/lvgl/src/extra/layouts/grid/lv_grid.c ****             break;
 651:Drivers/lvgl/lvgl/src/extra/layouts/grid/lv_grid.c ****         case LV_GRID_ALIGN_END:
 652:Drivers/lvgl/lvgl/src/extra/layouts/grid/lv_grid.c ****             y = c->y[row_pos] + row_h - lv_obj_get_height(item);
 653:Drivers/lvgl/lvgl/src/extra/layouts/grid/lv_grid.c ****             item->h_layout = 0;
 654:Drivers/lvgl/lvgl/src/extra/layouts/grid/lv_grid.c ****             break;
 655:Drivers/lvgl/lvgl/src/extra/layouts/grid/lv_grid.c ****     }
 656:Drivers/lvgl/lvgl/src/extra/layouts/grid/lv_grid.c **** 
 657:Drivers/lvgl/lvgl/src/extra/layouts/grid/lv_grid.c ****     /*Set a new size if required*/
 658:Drivers/lvgl/lvgl/src/extra/layouts/grid/lv_grid.c ****     if(lv_obj_get_width(item) != item_w || lv_obj_get_height(item) != item_h) {
 659:Drivers/lvgl/lvgl/src/extra/layouts/grid/lv_grid.c ****         lv_area_t old_coords;
 660:Drivers/lvgl/lvgl/src/extra/layouts/grid/lv_grid.c ****         lv_area_copy(&old_coords, &item->coords);
ARM GAS  /tmp/ccFQgg33.s 			page 13


 661:Drivers/lvgl/lvgl/src/extra/layouts/grid/lv_grid.c ****         lv_obj_invalidate(item);
 662:Drivers/lvgl/lvgl/src/extra/layouts/grid/lv_grid.c ****         lv_area_set_width(&item->coords, item_w);
 663:Drivers/lvgl/lvgl/src/extra/layouts/grid/lv_grid.c ****         lv_area_set_height(&item->coords, item_h);
 664:Drivers/lvgl/lvgl/src/extra/layouts/grid/lv_grid.c ****         lv_obj_invalidate(item);
 665:Drivers/lvgl/lvgl/src/extra/layouts/grid/lv_grid.c ****         lv_event_send(item, LV_EVENT_SIZE_CHANGED, &old_coords);
 666:Drivers/lvgl/lvgl/src/extra/layouts/grid/lv_grid.c ****         lv_event_send(lv_obj_get_parent(item), LV_EVENT_CHILD_CHANGED, item);
 667:Drivers/lvgl/lvgl/src/extra/layouts/grid/lv_grid.c **** 
 668:Drivers/lvgl/lvgl/src/extra/layouts/grid/lv_grid.c ****     }
 669:Drivers/lvgl/lvgl/src/extra/layouts/grid/lv_grid.c **** 
 670:Drivers/lvgl/lvgl/src/extra/layouts/grid/lv_grid.c ****     /*Handle percentage value of translate*/
 671:Drivers/lvgl/lvgl/src/extra/layouts/grid/lv_grid.c ****     lv_coord_t tr_x = lv_obj_get_style_translate_x(item, LV_PART_MAIN);
 672:Drivers/lvgl/lvgl/src/extra/layouts/grid/lv_grid.c ****     lv_coord_t tr_y = lv_obj_get_style_translate_y(item, LV_PART_MAIN);
 673:Drivers/lvgl/lvgl/src/extra/layouts/grid/lv_grid.c ****     lv_coord_t w = lv_obj_get_width(item);
 674:Drivers/lvgl/lvgl/src/extra/layouts/grid/lv_grid.c ****     lv_coord_t h = lv_obj_get_height(item);
 675:Drivers/lvgl/lvgl/src/extra/layouts/grid/lv_grid.c ****     if(LV_COORD_IS_PCT(tr_x)) tr_x = (w * LV_COORD_GET_PCT(tr_x)) / 100;
 676:Drivers/lvgl/lvgl/src/extra/layouts/grid/lv_grid.c ****     if(LV_COORD_IS_PCT(tr_y)) tr_y = (h * LV_COORD_GET_PCT(tr_y)) / 100;
 677:Drivers/lvgl/lvgl/src/extra/layouts/grid/lv_grid.c **** 
 678:Drivers/lvgl/lvgl/src/extra/layouts/grid/lv_grid.c ****     x += tr_x;
 679:Drivers/lvgl/lvgl/src/extra/layouts/grid/lv_grid.c ****     y += tr_y;
 680:Drivers/lvgl/lvgl/src/extra/layouts/grid/lv_grid.c **** 
 681:Drivers/lvgl/lvgl/src/extra/layouts/grid/lv_grid.c ****     lv_coord_t diff_x = hint->grid_abs.x + x - item->coords.x1;
 682:Drivers/lvgl/lvgl/src/extra/layouts/grid/lv_grid.c ****     lv_coord_t diff_y = hint->grid_abs.y + y - item->coords.y1;
 683:Drivers/lvgl/lvgl/src/extra/layouts/grid/lv_grid.c ****     if(diff_x || diff_y) {
 684:Drivers/lvgl/lvgl/src/extra/layouts/grid/lv_grid.c ****         lv_obj_invalidate(item);
 685:Drivers/lvgl/lvgl/src/extra/layouts/grid/lv_grid.c ****         item->coords.x1 += diff_x;
 686:Drivers/lvgl/lvgl/src/extra/layouts/grid/lv_grid.c ****         item->coords.x2 += diff_x;
 687:Drivers/lvgl/lvgl/src/extra/layouts/grid/lv_grid.c ****         item->coords.y1 += diff_y;
 688:Drivers/lvgl/lvgl/src/extra/layouts/grid/lv_grid.c ****         item->coords.y2 += diff_y;
 689:Drivers/lvgl/lvgl/src/extra/layouts/grid/lv_grid.c ****         lv_obj_invalidate(item);
 690:Drivers/lvgl/lvgl/src/extra/layouts/grid/lv_grid.c ****         lv_obj_move_children_by(item, diff_x, diff_y, false);
 691:Drivers/lvgl/lvgl/src/extra/layouts/grid/lv_grid.c ****     }
 692:Drivers/lvgl/lvgl/src/extra/layouts/grid/lv_grid.c **** }
 693:Drivers/lvgl/lvgl/src/extra/layouts/grid/lv_grid.c **** 
 694:Drivers/lvgl/lvgl/src/extra/layouts/grid/lv_grid.c **** /**
 695:Drivers/lvgl/lvgl/src/extra/layouts/grid/lv_grid.c ****  * Place the grid track according to align methods. It keeps the track sizes but sets their positio
 696:Drivers/lvgl/lvgl/src/extra/layouts/grid/lv_grid.c ****  * It can process both columns or rows according to the passed parameters.
 697:Drivers/lvgl/lvgl/src/extra/layouts/grid/lv_grid.c ****  * @param cont_size size of the containers content area (width/height)
 698:Drivers/lvgl/lvgl/src/extra/layouts/grid/lv_grid.c ****  * @param auto_size true: the container has auto size in the current direction
 699:Drivers/lvgl/lvgl/src/extra/layouts/grid/lv_grid.c ****  * @param align align method
 700:Drivers/lvgl/lvgl/src/extra/layouts/grid/lv_grid.c ****  * @param gap grid gap
 701:Drivers/lvgl/lvgl/src/extra/layouts/grid/lv_grid.c ****  * @param track_num number of tracks
 702:Drivers/lvgl/lvgl/src/extra/layouts/grid/lv_grid.c ****  * @param size_array array with the track sizes
 703:Drivers/lvgl/lvgl/src/extra/layouts/grid/lv_grid.c ****  * @param pos_array write the positions of the tracks here
 704:Drivers/lvgl/lvgl/src/extra/layouts/grid/lv_grid.c ****  * @return the total size of the grid
 705:Drivers/lvgl/lvgl/src/extra/layouts/grid/lv_grid.c ****  */
 706:Drivers/lvgl/lvgl/src/extra/layouts/grid/lv_grid.c **** static lv_coord_t grid_align(lv_coord_t cont_size,  bool auto_size, uint8_t align, lv_coord_t gap, 
 707:Drivers/lvgl/lvgl/src/extra/layouts/grid/lv_grid.c ****                              lv_coord_t * size_array, lv_coord_t * pos_array, bool reverse)
 708:Drivers/lvgl/lvgl/src/extra/layouts/grid/lv_grid.c **** {
  26              		.loc 1 708 0
  27              		.cfi_startproc
  28              		@ args = 16, pretend = 0, frame = 0
  29              		@ frame_needed = 0, uses_anonymous_args = 0
  30              	.LVL0:
  31 0000 F0B5     		push	{r4, r5, r6, r7, lr}
  32              	.LCFI0:
  33              		.cfi_def_cfa_offset 20
  34              		.cfi_offset 4, -20
ARM GAS  /tmp/ccFQgg33.s 			page 14


  35              		.cfi_offset 5, -16
  36              		.cfi_offset 6, -12
  37              		.cfi_offset 7, -8
  38              		.cfi_offset 14, -4
  39 0002 0546     		mov	r5, r0
  40 0004 059E     		ldr	r6, [sp, #20]
  41 0006 069F     		ldr	r7, [sp, #24]
  42 0008 079C     		ldr	r4, [sp, #28]
  43 000a 9DF820C0 		ldrb	ip, [sp, #32]	@ zero_extendqisi2
  44              	.LVL1:
 709:Drivers/lvgl/lvgl/src/extra/layouts/grid/lv_grid.c ****     lv_coord_t grid_size = 0;
 710:Drivers/lvgl/lvgl/src/extra/layouts/grid/lv_grid.c ****     uint32_t i;
 711:Drivers/lvgl/lvgl/src/extra/layouts/grid/lv_grid.c **** 
 712:Drivers/lvgl/lvgl/src/extra/layouts/grid/lv_grid.c ****     if(auto_size) {
  45              		.loc 1 712 0
  46 000e 19B1     		cbz	r1, .L2
 713:Drivers/lvgl/lvgl/src/extra/layouts/grid/lv_grid.c ****         pos_array[0] = 0;
  47              		.loc 1 713 0
  48 0010 0022     		movs	r2, #0
  49              	.LVL2:
  50 0012 2280     		strh	r2, [r4]	@ movhi
  51              	.LVL3:
  52              	.L3:
 714:Drivers/lvgl/lvgl/src/extra/layouts/grid/lv_grid.c ****     }
 715:Drivers/lvgl/lvgl/src/extra/layouts/grid/lv_grid.c ****     else {
 716:Drivers/lvgl/lvgl/src/extra/layouts/grid/lv_grid.c ****         /*With spaced alignment gap will be calculated from the remaining space*/
 717:Drivers/lvgl/lvgl/src/extra/layouts/grid/lv_grid.c ****         if(align == LV_GRID_ALIGN_SPACE_AROUND || align == LV_GRID_ALIGN_SPACE_BETWEEN || align == 
 718:Drivers/lvgl/lvgl/src/extra/layouts/grid/lv_grid.c ****             gap = 0;
 719:Drivers/lvgl/lvgl/src/extra/layouts/grid/lv_grid.c ****             if(track_num == 1) align = LV_GRID_ALIGN_CENTER;
 720:Drivers/lvgl/lvgl/src/extra/layouts/grid/lv_grid.c ****         }
 721:Drivers/lvgl/lvgl/src/extra/layouts/grid/lv_grid.c **** 
 722:Drivers/lvgl/lvgl/src/extra/layouts/grid/lv_grid.c ****         /*Get the full grid size with gap*/
 723:Drivers/lvgl/lvgl/src/extra/layouts/grid/lv_grid.c ****         for(i = 0; i < track_num; i++) {
 724:Drivers/lvgl/lvgl/src/extra/layouts/grid/lv_grid.c ****             grid_size += size_array[i] + gap;
 725:Drivers/lvgl/lvgl/src/extra/layouts/grid/lv_grid.c ****         }
 726:Drivers/lvgl/lvgl/src/extra/layouts/grid/lv_grid.c ****         grid_size -= gap;
 727:Drivers/lvgl/lvgl/src/extra/layouts/grid/lv_grid.c **** 
 728:Drivers/lvgl/lvgl/src/extra/layouts/grid/lv_grid.c ****         /*Calculate the position of the first item and set gap is necessary*/
 729:Drivers/lvgl/lvgl/src/extra/layouts/grid/lv_grid.c ****         switch(align) {
 730:Drivers/lvgl/lvgl/src/extra/layouts/grid/lv_grid.c ****             case LV_GRID_ALIGN_START:
 731:Drivers/lvgl/lvgl/src/extra/layouts/grid/lv_grid.c ****                 pos_array[0] = 0;
 732:Drivers/lvgl/lvgl/src/extra/layouts/grid/lv_grid.c ****                 break;
 733:Drivers/lvgl/lvgl/src/extra/layouts/grid/lv_grid.c ****             case LV_GRID_ALIGN_CENTER:
 734:Drivers/lvgl/lvgl/src/extra/layouts/grid/lv_grid.c ****                 pos_array[0] = (cont_size - grid_size) / 2;
 735:Drivers/lvgl/lvgl/src/extra/layouts/grid/lv_grid.c ****                 break;
 736:Drivers/lvgl/lvgl/src/extra/layouts/grid/lv_grid.c ****             case LV_GRID_ALIGN_END:
 737:Drivers/lvgl/lvgl/src/extra/layouts/grid/lv_grid.c ****                 pos_array[0] = cont_size - grid_size;
 738:Drivers/lvgl/lvgl/src/extra/layouts/grid/lv_grid.c ****                 break;
 739:Drivers/lvgl/lvgl/src/extra/layouts/grid/lv_grid.c ****             case LV_GRID_ALIGN_SPACE_BETWEEN:
 740:Drivers/lvgl/lvgl/src/extra/layouts/grid/lv_grid.c ****                 pos_array[0] = 0;
 741:Drivers/lvgl/lvgl/src/extra/layouts/grid/lv_grid.c ****                 gap = (lv_coord_t)(cont_size - grid_size) / (lv_coord_t)(track_num - 1);
 742:Drivers/lvgl/lvgl/src/extra/layouts/grid/lv_grid.c ****                 break;
 743:Drivers/lvgl/lvgl/src/extra/layouts/grid/lv_grid.c ****             case LV_GRID_ALIGN_SPACE_AROUND:
 744:Drivers/lvgl/lvgl/src/extra/layouts/grid/lv_grid.c ****                 gap = (lv_coord_t)(cont_size - grid_size) / (lv_coord_t)(track_num);
 745:Drivers/lvgl/lvgl/src/extra/layouts/grid/lv_grid.c ****                 pos_array[0] = gap / 2;
 746:Drivers/lvgl/lvgl/src/extra/layouts/grid/lv_grid.c ****                 break;
 747:Drivers/lvgl/lvgl/src/extra/layouts/grid/lv_grid.c ****             case LV_GRID_ALIGN_SPACE_EVENLY:
ARM GAS  /tmp/ccFQgg33.s 			page 15


 748:Drivers/lvgl/lvgl/src/extra/layouts/grid/lv_grid.c ****                 gap = (lv_coord_t)(cont_size - grid_size) / (lv_coord_t)(track_num + 1);
 749:Drivers/lvgl/lvgl/src/extra/layouts/grid/lv_grid.c ****                 pos_array[0] = gap;
 750:Drivers/lvgl/lvgl/src/extra/layouts/grid/lv_grid.c ****                 break;
 751:Drivers/lvgl/lvgl/src/extra/layouts/grid/lv_grid.c **** 
 752:Drivers/lvgl/lvgl/src/extra/layouts/grid/lv_grid.c ****         }
 753:Drivers/lvgl/lvgl/src/extra/layouts/grid/lv_grid.c ****     }
 754:Drivers/lvgl/lvgl/src/extra/layouts/grid/lv_grid.c **** 
 755:Drivers/lvgl/lvgl/src/extra/layouts/grid/lv_grid.c ****     /*Set the position of all tracks from the start position, gaps and track sizes*/
 756:Drivers/lvgl/lvgl/src/extra/layouts/grid/lv_grid.c ****     for(i = 0; i < track_num - 1; i++) {
  53              		.loc 1 756 0
  54 0014 0022     		movs	r2, #0
  55 0016 65E0     		b	.L16
  56              	.LVL4:
  57              	.L2:
 717:Drivers/lvgl/lvgl/src/extra/layouts/grid/lv_grid.c ****             gap = 0;
  58              		.loc 1 717 0
  59 0018 111F     		subs	r1, r2, #4
  60              	.LVL5:
  61 001a C9B2     		uxtb	r1, r1
  62 001c 0229     		cmp	r1, #2
  63 001e 02D8     		bhi	.L4
  64              	.LVL6:
 719:Drivers/lvgl/lvgl/src/extra/layouts/grid/lv_grid.c ****         }
  65              		.loc 1 719 0
  66 0020 012E     		cmp	r6, #1
  67 0022 03D0     		beq	.L21
 718:Drivers/lvgl/lvgl/src/extra/layouts/grid/lv_grid.c ****             if(track_num == 1) align = LV_GRID_ALIGN_CENTER;
  68              		.loc 1 718 0
  69 0024 0023     		movs	r3, #0
  70              	.LVL7:
  71              	.L4:
 723:Drivers/lvgl/lvgl/src/extra/layouts/grid/lv_grid.c ****             grid_size += size_array[i] + gap;
  72              		.loc 1 723 0
  73 0026 0020     		movs	r0, #0
  74              	.LVL8:
 709:Drivers/lvgl/lvgl/src/extra/layouts/grid/lv_grid.c ****     uint32_t i;
  75              		.loc 1 709 0
  76 0028 0146     		mov	r1, r0
 723:Drivers/lvgl/lvgl/src/extra/layouts/grid/lv_grid.c ****             grid_size += size_array[i] + gap;
  77              		.loc 1 723 0
  78 002a 09E0     		b	.L5
  79              	.LVL9:
  80              	.L21:
 718:Drivers/lvgl/lvgl/src/extra/layouts/grid/lv_grid.c ****             if(track_num == 1) align = LV_GRID_ALIGN_CENTER;
  81              		.loc 1 718 0
  82 002c 0023     		movs	r3, #0
 719:Drivers/lvgl/lvgl/src/extra/layouts/grid/lv_grid.c ****         }
  83              		.loc 1 719 0
  84 002e 0122     		movs	r2, #1
  85              	.LVL10:
  86 0030 F9E7     		b	.L4
  87              	.LVL11:
  88              	.L6:
 724:Drivers/lvgl/lvgl/src/extra/layouts/grid/lv_grid.c ****         }
  89              		.loc 1 724 0 discriminator 3
  90 0032 37F810E0 		ldrh	lr, [r7, r0, lsl #1]
  91 0036 9E44     		add	lr, lr, r3
ARM GAS  /tmp/ccFQgg33.s 			page 16


  92 0038 11FA8EF1 		uxtah	r1, r1, lr
  93              	.LVL12:
  94 003c 09B2     		sxth	r1, r1
  95              	.LVL13:
 723:Drivers/lvgl/lvgl/src/extra/layouts/grid/lv_grid.c ****             grid_size += size_array[i] + gap;
  96              		.loc 1 723 0 discriminator 3
  97 003e 0130     		adds	r0, r0, #1
  98              	.LVL14:
  99              	.L5:
 723:Drivers/lvgl/lvgl/src/extra/layouts/grid/lv_grid.c ****             grid_size += size_array[i] + gap;
 100              		.loc 1 723 0 is_stmt 0 discriminator 1
 101 0040 B042     		cmp	r0, r6
 102 0042 F6D3     		bcc	.L6
 726:Drivers/lvgl/lvgl/src/extra/layouts/grid/lv_grid.c **** 
 103              		.loc 1 726 0 is_stmt 1
 104 0044 C91A     		subs	r1, r1, r3
 105              	.LVL15:
 106 0046 89B2     		uxth	r1, r1
 107 0048 08B2     		sxth	r0, r1
 108              	.LVL16:
 729:Drivers/lvgl/lvgl/src/extra/layouts/grid/lv_grid.c ****             case LV_GRID_ALIGN_START:
 109              		.loc 1 729 0
 110 004a 062A     		cmp	r2, #6
 111 004c E2D8     		bhi	.L3
 112 004e 0FF2080E 		adr	lr, .L8
 113 0052 5EF822F0 		ldr	pc, [lr, r2, lsl #2]
 114 0056 00BF     		.p2align 2
 115              	.L8:
 116 0058 75000000 		.word	.L7+1
 117 005c 7B000000 		.word	.L9+1
 118 0060 89000000 		.word	.L10+1
 119 0064 15000000 		.word	.L3+1
 120 0068 BF000000 		.word	.L11+1
 121 006c A3000000 		.word	.L12+1
 122 0070 8F000000 		.word	.L13+1
 123              		.p2align 1
 124              	.L7:
 731:Drivers/lvgl/lvgl/src/extra/layouts/grid/lv_grid.c ****                 break;
 125              		.loc 1 731 0
 126 0074 0022     		movs	r2, #0
 127              	.LVL17:
 128 0076 2280     		strh	r2, [r4]	@ movhi
 732:Drivers/lvgl/lvgl/src/extra/layouts/grid/lv_grid.c ****             case LV_GRID_ALIGN_CENTER:
 129              		.loc 1 732 0
 130 0078 CCE7     		b	.L3
 131              	.LVL18:
 132              	.L9:
 734:Drivers/lvgl/lvgl/src/extra/layouts/grid/lv_grid.c ****                 break;
 133              		.loc 1 734 0
 134 007a 281A     		subs	r0, r5, r0
 135              	.LVL19:
 136 007c 02D4     		bmi	.L24
 137              	.L14:
 138 007e 4010     		asrs	r0, r0, #1
 139 0080 2080     		strh	r0, [r4]	@ movhi
 735:Drivers/lvgl/lvgl/src/extra/layouts/grid/lv_grid.c ****             case LV_GRID_ALIGN_END:
 140              		.loc 1 735 0
ARM GAS  /tmp/ccFQgg33.s 			page 17


 141 0082 C7E7     		b	.L3
 142              	.L24:
 734:Drivers/lvgl/lvgl/src/extra/layouts/grid/lv_grid.c ****                 break;
 143              		.loc 1 734 0
 144 0084 0130     		adds	r0, r0, #1
 145 0086 FAE7     		b	.L14
 146              	.LVL20:
 147              	.L10:
 737:Drivers/lvgl/lvgl/src/extra/layouts/grid/lv_grid.c ****                 break;
 148              		.loc 1 737 0
 149 0088 691A     		subs	r1, r5, r1
 150 008a 2180     		strh	r1, [r4]	@ movhi
 738:Drivers/lvgl/lvgl/src/extra/layouts/grid/lv_grid.c ****             case LV_GRID_ALIGN_SPACE_BETWEEN:
 151              		.loc 1 738 0
 152 008c C2E7     		b	.L3
 153              	.L13:
 740:Drivers/lvgl/lvgl/src/extra/layouts/grid/lv_grid.c ****                 gap = (lv_coord_t)(cont_size - grid_size) / (lv_coord_t)(track_num - 1);
 154              		.loc 1 740 0
 155 008e 0023     		movs	r3, #0
 156              	.LVL21:
 157 0090 2380     		strh	r3, [r4]	@ movhi
 741:Drivers/lvgl/lvgl/src/extra/layouts/grid/lv_grid.c ****                 break;
 158              		.loc 1 741 0
 159 0092 6B1A     		subs	r3, r5, r1
 160 0094 1BB2     		sxth	r3, r3
 161 0096 721E     		subs	r2, r6, #1
 162              	.LVL22:
 163 0098 12B2     		sxth	r2, r2
 164 009a 93FBF2F3 		sdiv	r3, r3, r2
 165 009e 1BB2     		sxth	r3, r3
 166              	.LVL23:
 742:Drivers/lvgl/lvgl/src/extra/layouts/grid/lv_grid.c ****             case LV_GRID_ALIGN_SPACE_AROUND:
 167              		.loc 1 742 0
 168 00a0 B8E7     		b	.L3
 169              	.LVL24:
 170              	.L12:
 744:Drivers/lvgl/lvgl/src/extra/layouts/grid/lv_grid.c ****                 pos_array[0] = gap / 2;
 171              		.loc 1 744 0
 172 00a2 6B1A     		subs	r3, r5, r1
 173              	.LVL25:
 174 00a4 1BB2     		sxth	r3, r3
 175 00a6 32B2     		sxth	r2, r6
 176              	.LVL26:
 177 00a8 93FBF2F3 		sdiv	r3, r3, r2
 178 00ac 1BB2     		sxth	r3, r3
 179              	.LVL27:
 745:Drivers/lvgl/lvgl/src/extra/layouts/grid/lv_grid.c ****                 break;
 180              		.loc 1 745 0
 181 00ae 1A46     		mov	r2, r3
 182 00b0 002B     		cmp	r3, #0
 183 00b2 02DB     		blt	.L25
 184              	.L15:
 185 00b4 5210     		asrs	r2, r2, #1
 186 00b6 2280     		strh	r2, [r4]	@ movhi
 746:Drivers/lvgl/lvgl/src/extra/layouts/grid/lv_grid.c ****             case LV_GRID_ALIGN_SPACE_EVENLY:
 187              		.loc 1 746 0
 188 00b8 ACE7     		b	.L3
ARM GAS  /tmp/ccFQgg33.s 			page 18


 189              	.L25:
 745:Drivers/lvgl/lvgl/src/extra/layouts/grid/lv_grid.c ****                 break;
 190              		.loc 1 745 0
 191 00ba 5A1C     		adds	r2, r3, #1
 192 00bc FAE7     		b	.L15
 193              	.LVL28:
 194              	.L11:
 748:Drivers/lvgl/lvgl/src/extra/layouts/grid/lv_grid.c ****                 pos_array[0] = gap;
 195              		.loc 1 748 0
 196 00be 6B1A     		subs	r3, r5, r1
 197              	.LVL29:
 198 00c0 1BB2     		sxth	r3, r3
 199 00c2 721C     		adds	r2, r6, #1
 200              	.LVL30:
 201 00c4 12B2     		sxth	r2, r2
 202 00c6 93FBF2F3 		sdiv	r3, r3, r2
 203 00ca 1BB2     		sxth	r3, r3
 204              	.LVL31:
 749:Drivers/lvgl/lvgl/src/extra/layouts/grid/lv_grid.c ****                 break;
 205              		.loc 1 749 0
 206 00cc 2380     		strh	r3, [r4]	@ movhi
 750:Drivers/lvgl/lvgl/src/extra/layouts/grid/lv_grid.c **** 
 207              		.loc 1 750 0
 208 00ce A1E7     		b	.L3
 209              	.LVL32:
 210              	.L17:
 757:Drivers/lvgl/lvgl/src/extra/layouts/grid/lv_grid.c ****         pos_array[i + 1] = pos_array[i] + size_array[i] + gap;
 211              		.loc 1 757 0 discriminator 3
 212 00d0 34F81210 		ldrh	r1, [r4, r2, lsl #1]
 213 00d4 37F81200 		ldrh	r0, [r7, r2, lsl #1]
 214 00d8 0144     		add	r1, r1, r0
 215 00da 0132     		adds	r2, r2, #1
 216              	.LVL33:
 217 00dc 13FA81F1 		uxtah	r1, r3, r1
 218 00e0 24F81210 		strh	r1, [r4, r2, lsl #1]	@ movhi
 219              	.LVL34:
 220              	.L16:
 756:Drivers/lvgl/lvgl/src/extra/layouts/grid/lv_grid.c ****         pos_array[i + 1] = pos_array[i] + size_array[i] + gap;
 221              		.loc 1 756 0 discriminator 1
 222 00e4 711E     		subs	r1, r6, #1
 223 00e6 9142     		cmp	r1, r2
 224 00e8 F2D8     		bhi	.L17
 758:Drivers/lvgl/lvgl/src/extra/layouts/grid/lv_grid.c ****     }
 759:Drivers/lvgl/lvgl/src/extra/layouts/grid/lv_grid.c **** 
 760:Drivers/lvgl/lvgl/src/extra/layouts/grid/lv_grid.c ****     lv_coord_t total_gird_size = pos_array[track_num - 1] + size_array[track_num - 1] - pos_array[0
 225              		.loc 1 760 0
 226 00ea 6FF00043 		mvn	r3, #-2147483648
 227              	.LVL35:
 228 00ee 3344     		add	r3, r3, r6
 229 00f0 34F81300 		ldrh	r0, [r4, r3, lsl #1]
 230 00f4 37F81330 		ldrh	r3, [r7, r3, lsl #1]
 231 00f8 1844     		add	r0, r0, r3
 232 00fa 80B2     		uxth	r0, r0
 233 00fc 2388     		ldrh	r3, [r4]
 234 00fe C01A     		subs	r0, r0, r3
 235 0100 00B2     		sxth	r0, r0
 236              	.LVL36:
ARM GAS  /tmp/ccFQgg33.s 			page 19


 761:Drivers/lvgl/lvgl/src/extra/layouts/grid/lv_grid.c **** 
 762:Drivers/lvgl/lvgl/src/extra/layouts/grid/lv_grid.c ****     if(reverse) {
 237              		.loc 1 762 0
 238 0102 BCF1000F 		cmp	ip, #0
 239 0106 0DD0     		beq	.L19
 763:Drivers/lvgl/lvgl/src/extra/layouts/grid/lv_grid.c ****         for(i = 0; i < track_num; i++) {
 240              		.loc 1 763 0
 241 0108 0022     		movs	r2, #0
 242              	.LVL37:
 243 010a 09E0     		b	.L18
 244              	.LVL38:
 245              	.L20:
 764:Drivers/lvgl/lvgl/src/extra/layouts/grid/lv_grid.c ****             pos_array[i] = cont_size - pos_array[i] - size_array[i];
 246              		.loc 1 764 0 discriminator 3
 247 010c 34F81230 		ldrh	r3, [r4, r2, lsl #1]
 248 0110 EB1A     		subs	r3, r5, r3
 249 0112 9BB2     		uxth	r3, r3
 250 0114 37F81210 		ldrh	r1, [r7, r2, lsl #1]
 251 0118 5B1A     		subs	r3, r3, r1
 252 011a 24F81230 		strh	r3, [r4, r2, lsl #1]	@ movhi
 763:Drivers/lvgl/lvgl/src/extra/layouts/grid/lv_grid.c ****         for(i = 0; i < track_num; i++) {
 253              		.loc 1 763 0 discriminator 3
 254 011e 0132     		adds	r2, r2, #1
 255              	.LVL39:
 256              	.L18:
 763:Drivers/lvgl/lvgl/src/extra/layouts/grid/lv_grid.c ****         for(i = 0; i < track_num; i++) {
 257              		.loc 1 763 0 is_stmt 0 discriminator 1
 258 0120 B242     		cmp	r2, r6
 259 0122 F3D3     		bcc	.L20
 260              	.L19:
 765:Drivers/lvgl/lvgl/src/extra/layouts/grid/lv_grid.c ****         }
 766:Drivers/lvgl/lvgl/src/extra/layouts/grid/lv_grid.c **** 
 767:Drivers/lvgl/lvgl/src/extra/layouts/grid/lv_grid.c ****     }
 768:Drivers/lvgl/lvgl/src/extra/layouts/grid/lv_grid.c **** 
 769:Drivers/lvgl/lvgl/src/extra/layouts/grid/lv_grid.c ****     /*Return the full size of the grid*/
 770:Drivers/lvgl/lvgl/src/extra/layouts/grid/lv_grid.c ****     return total_gird_size;
 771:Drivers/lvgl/lvgl/src/extra/layouts/grid/lv_grid.c **** }
 261              		.loc 1 771 0 is_stmt 1
 262 0124 F0BD     		pop	{r4, r5, r6, r7, pc}
 263              		.cfi_endproc
 264              	.LFE215:
 266 0126 00BF     		.section	.text.count_tracks,"ax",%progbits
 267              		.align	1
 268              		.syntax unified
 269              		.thumb
 270              		.thumb_func
 271              		.fpu fpv5-d16
 273              	count_tracks:
 274              	.LFB216:
 772:Drivers/lvgl/lvgl/src/extra/layouts/grid/lv_grid.c **** 
 773:Drivers/lvgl/lvgl/src/extra/layouts/grid/lv_grid.c **** static uint32_t count_tracks(const lv_coord_t * templ)
 774:Drivers/lvgl/lvgl/src/extra/layouts/grid/lv_grid.c **** {
 275              		.loc 1 774 0
 276              		.cfi_startproc
 277              		@ args = 0, pretend = 0, frame = 0
 278              		@ frame_needed = 0, uses_anonymous_args = 0
 279              		@ link register save eliminated.
ARM GAS  /tmp/ccFQgg33.s 			page 20


 280              	.LVL40:
 775:Drivers/lvgl/lvgl/src/extra/layouts/grid/lv_grid.c ****     uint32_t i;
 776:Drivers/lvgl/lvgl/src/extra/layouts/grid/lv_grid.c ****     for(i = 0; templ[i] != LV_GRID_TEMPLATE_LAST; i++);
 281              		.loc 1 776 0
 282 0000 0023     		movs	r3, #0
 283 0002 00E0     		b	.L27
 284              	.LVL41:
 285              	.L28:
 286              		.loc 1 776 0 is_stmt 0 discriminator 3
 287 0004 0133     		adds	r3, r3, #1
 288              	.LVL42:
 289              	.L27:
 290              		.loc 1 776 0 discriminator 1
 291 0006 30F91310 		ldrsh	r1, [r0, r3, lsl #1]
 292 000a 41F6FF72 		movw	r2, #8191
 293 000e 9142     		cmp	r1, r2
 294 0010 F8D1     		bne	.L28
 777:Drivers/lvgl/lvgl/src/extra/layouts/grid/lv_grid.c **** 
 778:Drivers/lvgl/lvgl/src/extra/layouts/grid/lv_grid.c ****     return i;
 779:Drivers/lvgl/lvgl/src/extra/layouts/grid/lv_grid.c **** }
 295              		.loc 1 779 0 is_stmt 1
 296 0012 1846     		mov	r0, r3
 297              	.LVL43:
 298 0014 7047     		bx	lr
 299              		.cfi_endproc
 300              	.LFE216:
 302              		.section	.text.calc_rows,"ax",%progbits
 303              		.align	1
 304              		.syntax unified
 305              		.thumb
 306              		.thumb_func
 307              		.fpu fpv5-d16
 309              	calc_rows:
 310              	.LFB213:
 506:Drivers/lvgl/lvgl/src/extra/layouts/grid/lv_grid.c ****     uint32_t i;
 311              		.loc 1 506 0
 312              		.cfi_startproc
 313              		@ args = 0, pretend = 0, frame = 0
 314              		@ frame_needed = 0, uses_anonymous_args = 0
 315              	.LVL44:
 316 0000 2DE9F84F 		push	{r3, r4, r5, r6, r7, r8, r9, r10, fp, lr}
 317              	.LCFI1:
 318              		.cfi_def_cfa_offset 40
 319              		.cfi_offset 3, -40
 320              		.cfi_offset 4, -36
 321              		.cfi_offset 5, -32
 322              		.cfi_offset 6, -28
 323              		.cfi_offset 7, -24
 324              		.cfi_offset 8, -20
 325              		.cfi_offset 9, -16
 326              		.cfi_offset 10, -12
 327              		.cfi_offset 11, -8
 328              		.cfi_offset 14, -4
 329 0004 0746     		mov	r7, r0
 330 0006 0C46     		mov	r4, r1
 331              	.LVL45:
 332              	.LBB136:
ARM GAS  /tmp/ccFQgg33.s 			page 21


 333              	.LBB137:
 334              	.LBB138:
 335              		.file 2 "Drivers/lvgl/lvgl/src/extra/layouts/grid/../grid/lv_grid.h"
   1:Drivers/lvgl/lvgl/src/extra/layouts/grid/../grid/lv_grid.h **** /**
   2:Drivers/lvgl/lvgl/src/extra/layouts/grid/../grid/lv_grid.h ****  * @file lv_grid.h
   3:Drivers/lvgl/lvgl/src/extra/layouts/grid/../grid/lv_grid.h ****  *
   4:Drivers/lvgl/lvgl/src/extra/layouts/grid/../grid/lv_grid.h ****  */
   5:Drivers/lvgl/lvgl/src/extra/layouts/grid/../grid/lv_grid.h **** 
   6:Drivers/lvgl/lvgl/src/extra/layouts/grid/../grid/lv_grid.h **** #ifndef LV_GRID_H
   7:Drivers/lvgl/lvgl/src/extra/layouts/grid/../grid/lv_grid.h **** #define LV_GRID_H
   8:Drivers/lvgl/lvgl/src/extra/layouts/grid/../grid/lv_grid.h **** 
   9:Drivers/lvgl/lvgl/src/extra/layouts/grid/../grid/lv_grid.h **** #ifdef __cplusplus
  10:Drivers/lvgl/lvgl/src/extra/layouts/grid/../grid/lv_grid.h **** extern "C" {
  11:Drivers/lvgl/lvgl/src/extra/layouts/grid/../grid/lv_grid.h **** #endif
  12:Drivers/lvgl/lvgl/src/extra/layouts/grid/../grid/lv_grid.h **** 
  13:Drivers/lvgl/lvgl/src/extra/layouts/grid/../grid/lv_grid.h **** /*********************
  14:Drivers/lvgl/lvgl/src/extra/layouts/grid/../grid/lv_grid.h ****  *      INCLUDES
  15:Drivers/lvgl/lvgl/src/extra/layouts/grid/../grid/lv_grid.h ****  *********************/
  16:Drivers/lvgl/lvgl/src/extra/layouts/grid/../grid/lv_grid.h **** #include "../../../core/lv_obj.h"
  17:Drivers/lvgl/lvgl/src/extra/layouts/grid/../grid/lv_grid.h **** #if LV_USE_GRID
  18:Drivers/lvgl/lvgl/src/extra/layouts/grid/../grid/lv_grid.h **** 
  19:Drivers/lvgl/lvgl/src/extra/layouts/grid/../grid/lv_grid.h **** /*********************
  20:Drivers/lvgl/lvgl/src/extra/layouts/grid/../grid/lv_grid.h ****  *      DEFINES
  21:Drivers/lvgl/lvgl/src/extra/layouts/grid/../grid/lv_grid.h ****  *********************/
  22:Drivers/lvgl/lvgl/src/extra/layouts/grid/../grid/lv_grid.h **** /**
  23:Drivers/lvgl/lvgl/src/extra/layouts/grid/../grid/lv_grid.h ****  * Can be used track size to make the track fill the free space.
  24:Drivers/lvgl/lvgl/src/extra/layouts/grid/../grid/lv_grid.h ****  * @param x how much space to take proportionally to other FR tracks
  25:Drivers/lvgl/lvgl/src/extra/layouts/grid/../grid/lv_grid.h ****  * @return a special track size
  26:Drivers/lvgl/lvgl/src/extra/layouts/grid/../grid/lv_grid.h ****  */
  27:Drivers/lvgl/lvgl/src/extra/layouts/grid/../grid/lv_grid.h **** #define LV_GRID_FR(x)          (LV_COORD_MAX - 100 + x)
  28:Drivers/lvgl/lvgl/src/extra/layouts/grid/../grid/lv_grid.h **** 
  29:Drivers/lvgl/lvgl/src/extra/layouts/grid/../grid/lv_grid.h **** #define LV_GRID_CONTENT        (LV_COORD_MAX - 101)
  30:Drivers/lvgl/lvgl/src/extra/layouts/grid/../grid/lv_grid.h **** LV_EXPORT_CONST_INT(LV_GRID_CONTENT);
  31:Drivers/lvgl/lvgl/src/extra/layouts/grid/../grid/lv_grid.h **** 
  32:Drivers/lvgl/lvgl/src/extra/layouts/grid/../grid/lv_grid.h **** #define LV_GRID_TEMPLATE_LAST  (LV_COORD_MAX)
  33:Drivers/lvgl/lvgl/src/extra/layouts/grid/../grid/lv_grid.h **** LV_EXPORT_CONST_INT(LV_GRID_TEMPLATE_LAST);
  34:Drivers/lvgl/lvgl/src/extra/layouts/grid/../grid/lv_grid.h **** 
  35:Drivers/lvgl/lvgl/src/extra/layouts/grid/../grid/lv_grid.h **** /**********************
  36:Drivers/lvgl/lvgl/src/extra/layouts/grid/../grid/lv_grid.h ****  *      TYPEDEFS
  37:Drivers/lvgl/lvgl/src/extra/layouts/grid/../grid/lv_grid.h ****  **********************/
  38:Drivers/lvgl/lvgl/src/extra/layouts/grid/../grid/lv_grid.h **** 
  39:Drivers/lvgl/lvgl/src/extra/layouts/grid/../grid/lv_grid.h **** /*Can't include lv_obj.h because it includes this header file*/
  40:Drivers/lvgl/lvgl/src/extra/layouts/grid/../grid/lv_grid.h **** struct _lv_obj_t;
  41:Drivers/lvgl/lvgl/src/extra/layouts/grid/../grid/lv_grid.h **** 
  42:Drivers/lvgl/lvgl/src/extra/layouts/grid/../grid/lv_grid.h **** typedef enum {
  43:Drivers/lvgl/lvgl/src/extra/layouts/grid/../grid/lv_grid.h ****     LV_GRID_ALIGN_START,
  44:Drivers/lvgl/lvgl/src/extra/layouts/grid/../grid/lv_grid.h ****     LV_GRID_ALIGN_CENTER,
  45:Drivers/lvgl/lvgl/src/extra/layouts/grid/../grid/lv_grid.h ****     LV_GRID_ALIGN_END,
  46:Drivers/lvgl/lvgl/src/extra/layouts/grid/../grid/lv_grid.h ****     LV_GRID_ALIGN_STRETCH,
  47:Drivers/lvgl/lvgl/src/extra/layouts/grid/../grid/lv_grid.h ****     LV_GRID_ALIGN_SPACE_EVENLY,
  48:Drivers/lvgl/lvgl/src/extra/layouts/grid/../grid/lv_grid.h ****     LV_GRID_ALIGN_SPACE_AROUND,
  49:Drivers/lvgl/lvgl/src/extra/layouts/grid/../grid/lv_grid.h ****     LV_GRID_ALIGN_SPACE_BETWEEN,
  50:Drivers/lvgl/lvgl/src/extra/layouts/grid/../grid/lv_grid.h **** } lv_grid_align_t;
  51:Drivers/lvgl/lvgl/src/extra/layouts/grid/../grid/lv_grid.h **** 
  52:Drivers/lvgl/lvgl/src/extra/layouts/grid/../grid/lv_grid.h **** /**********************
  53:Drivers/lvgl/lvgl/src/extra/layouts/grid/../grid/lv_grid.h ****  * GLOBAL VARIABLES
  54:Drivers/lvgl/lvgl/src/extra/layouts/grid/../grid/lv_grid.h ****  **********************/
ARM GAS  /tmp/ccFQgg33.s 			page 22


  55:Drivers/lvgl/lvgl/src/extra/layouts/grid/../grid/lv_grid.h **** 
  56:Drivers/lvgl/lvgl/src/extra/layouts/grid/../grid/lv_grid.h **** extern uint16_t LV_LAYOUT_GRID;
  57:Drivers/lvgl/lvgl/src/extra/layouts/grid/../grid/lv_grid.h **** extern lv_style_prop_t LV_STYLE_GRID_COLUMN_DSC_ARRAY;
  58:Drivers/lvgl/lvgl/src/extra/layouts/grid/../grid/lv_grid.h **** extern lv_style_prop_t LV_STYLE_GRID_COLUMN_ALIGN;
  59:Drivers/lvgl/lvgl/src/extra/layouts/grid/../grid/lv_grid.h **** extern lv_style_prop_t LV_STYLE_GRID_ROW_DSC_ARRAY;
  60:Drivers/lvgl/lvgl/src/extra/layouts/grid/../grid/lv_grid.h **** extern lv_style_prop_t LV_STYLE_GRID_ROW_ALIGN;
  61:Drivers/lvgl/lvgl/src/extra/layouts/grid/../grid/lv_grid.h **** extern lv_style_prop_t LV_STYLE_GRID_CELL_COLUMN_POS;
  62:Drivers/lvgl/lvgl/src/extra/layouts/grid/../grid/lv_grid.h **** extern lv_style_prop_t LV_STYLE_GRID_CELL_COLUMN_SPAN;
  63:Drivers/lvgl/lvgl/src/extra/layouts/grid/../grid/lv_grid.h **** extern lv_style_prop_t LV_STYLE_GRID_CELL_X_ALIGN;
  64:Drivers/lvgl/lvgl/src/extra/layouts/grid/../grid/lv_grid.h **** extern lv_style_prop_t LV_STYLE_GRID_CELL_ROW_POS;
  65:Drivers/lvgl/lvgl/src/extra/layouts/grid/../grid/lv_grid.h **** extern lv_style_prop_t LV_STYLE_GRID_CELL_ROW_SPAN;
  66:Drivers/lvgl/lvgl/src/extra/layouts/grid/../grid/lv_grid.h **** extern lv_style_prop_t LV_STYLE_GRID_CELL_Y_ALIGN;
  67:Drivers/lvgl/lvgl/src/extra/layouts/grid/../grid/lv_grid.h **** 
  68:Drivers/lvgl/lvgl/src/extra/layouts/grid/../grid/lv_grid.h **** /**********************
  69:Drivers/lvgl/lvgl/src/extra/layouts/grid/../grid/lv_grid.h ****  * GLOBAL PROTOTYPES
  70:Drivers/lvgl/lvgl/src/extra/layouts/grid/../grid/lv_grid.h ****  **********************/
  71:Drivers/lvgl/lvgl/src/extra/layouts/grid/../grid/lv_grid.h **** 
  72:Drivers/lvgl/lvgl/src/extra/layouts/grid/../grid/lv_grid.h **** void lv_grid_init(void);
  73:Drivers/lvgl/lvgl/src/extra/layouts/grid/../grid/lv_grid.h **** 
  74:Drivers/lvgl/lvgl/src/extra/layouts/grid/../grid/lv_grid.h **** void lv_obj_set_grid_dsc_array(lv_obj_t * obj, const lv_coord_t col_dsc[], const lv_coord_t row_dsc
  75:Drivers/lvgl/lvgl/src/extra/layouts/grid/../grid/lv_grid.h **** 
  76:Drivers/lvgl/lvgl/src/extra/layouts/grid/../grid/lv_grid.h **** void lv_obj_set_grid_align(lv_obj_t * obj, lv_grid_align_t column_align, lv_grid_align_t row_align)
  77:Drivers/lvgl/lvgl/src/extra/layouts/grid/../grid/lv_grid.h **** 
  78:Drivers/lvgl/lvgl/src/extra/layouts/grid/../grid/lv_grid.h **** /**
  79:Drivers/lvgl/lvgl/src/extra/layouts/grid/../grid/lv_grid.h ****  * Set the cell of an object. The object's parent needs to have grid layout, else nothing will happ
  80:Drivers/lvgl/lvgl/src/extra/layouts/grid/../grid/lv_grid.h ****  * @param obj pointer to an object
  81:Drivers/lvgl/lvgl/src/extra/layouts/grid/../grid/lv_grid.h ****  * @param column_align the vertical alignment in the cell. `LV_GRID_START/END/CENTER/STRETCH`
  82:Drivers/lvgl/lvgl/src/extra/layouts/grid/../grid/lv_grid.h ****  * @param col_pos column ID
  83:Drivers/lvgl/lvgl/src/extra/layouts/grid/../grid/lv_grid.h ****  * @param col_span number of columns to take (>= 1)
  84:Drivers/lvgl/lvgl/src/extra/layouts/grid/../grid/lv_grid.h ****  * @param row_align the horizontal alignment in the cell. `LV_GRID_START/END/CENTER/STRETCH`
  85:Drivers/lvgl/lvgl/src/extra/layouts/grid/../grid/lv_grid.h ****  * @param row_pos row ID
  86:Drivers/lvgl/lvgl/src/extra/layouts/grid/../grid/lv_grid.h ****  * @param row_span number of rows to take (>= 1)
  87:Drivers/lvgl/lvgl/src/extra/layouts/grid/../grid/lv_grid.h ****  */
  88:Drivers/lvgl/lvgl/src/extra/layouts/grid/../grid/lv_grid.h **** void lv_obj_set_grid_cell(lv_obj_t * obj, lv_grid_align_t column_align, uint8_t col_pos, uint8_t co
  89:Drivers/lvgl/lvgl/src/extra/layouts/grid/../grid/lv_grid.h ****                           lv_grid_align_t row_align, uint8_t row_pos, uint8_t row_span);
  90:Drivers/lvgl/lvgl/src/extra/layouts/grid/../grid/lv_grid.h **** 
  91:Drivers/lvgl/lvgl/src/extra/layouts/grid/../grid/lv_grid.h **** /**
  92:Drivers/lvgl/lvgl/src/extra/layouts/grid/../grid/lv_grid.h ****  * Just a wrapper to `LV_GRID_FR` for bindings.
  93:Drivers/lvgl/lvgl/src/extra/layouts/grid/../grid/lv_grid.h ****  */
  94:Drivers/lvgl/lvgl/src/extra/layouts/grid/../grid/lv_grid.h **** static inline lv_coord_t lv_grid_fr(uint8_t x)
  95:Drivers/lvgl/lvgl/src/extra/layouts/grid/../grid/lv_grid.h **** {
  96:Drivers/lvgl/lvgl/src/extra/layouts/grid/../grid/lv_grid.h ****     return LV_GRID_FR(x);
  97:Drivers/lvgl/lvgl/src/extra/layouts/grid/../grid/lv_grid.h **** }
  98:Drivers/lvgl/lvgl/src/extra/layouts/grid/../grid/lv_grid.h **** 
  99:Drivers/lvgl/lvgl/src/extra/layouts/grid/../grid/lv_grid.h **** void lv_style_set_grid_row_dsc_array(lv_style_t * style, const lv_coord_t value[]);
 100:Drivers/lvgl/lvgl/src/extra/layouts/grid/../grid/lv_grid.h **** void lv_style_set_grid_column_dsc_array(lv_style_t * style, const lv_coord_t value[]);
 101:Drivers/lvgl/lvgl/src/extra/layouts/grid/../grid/lv_grid.h **** void lv_style_set_grid_row_align(lv_style_t * style, lv_grid_align_t value);
 102:Drivers/lvgl/lvgl/src/extra/layouts/grid/../grid/lv_grid.h **** void lv_style_set_grid_column_align(lv_style_t * style, lv_grid_align_t value);
 103:Drivers/lvgl/lvgl/src/extra/layouts/grid/../grid/lv_grid.h **** void lv_style_set_grid_cell_column_pos(lv_style_t * style, lv_coord_t value);
 104:Drivers/lvgl/lvgl/src/extra/layouts/grid/../grid/lv_grid.h **** void lv_style_set_grid_cell_column_span(lv_style_t * style, lv_coord_t value);
 105:Drivers/lvgl/lvgl/src/extra/layouts/grid/../grid/lv_grid.h **** void lv_style_set_grid_cell_row_pos(lv_style_t * style, lv_coord_t value);
 106:Drivers/lvgl/lvgl/src/extra/layouts/grid/../grid/lv_grid.h **** void lv_style_set_grid_cell_row_span(lv_style_t * style, lv_coord_t value);
 107:Drivers/lvgl/lvgl/src/extra/layouts/grid/../grid/lv_grid.h **** void lv_style_set_grid_cell_x_align(lv_style_t * style, lv_coord_t value);
 108:Drivers/lvgl/lvgl/src/extra/layouts/grid/../grid/lv_grid.h **** void lv_style_set_grid_cell_y_align(lv_style_t * style, lv_coord_t value);
 109:Drivers/lvgl/lvgl/src/extra/layouts/grid/../grid/lv_grid.h **** 
 110:Drivers/lvgl/lvgl/src/extra/layouts/grid/../grid/lv_grid.h **** void lv_obj_set_style_grid_row_dsc_array(lv_obj_t * obj, const lv_coord_t value[], lv_style_selecto
 111:Drivers/lvgl/lvgl/src/extra/layouts/grid/../grid/lv_grid.h **** void lv_obj_set_style_grid_column_dsc_array(lv_obj_t * obj, const lv_coord_t value[], lv_style_sele
ARM GAS  /tmp/ccFQgg33.s 			page 23


 112:Drivers/lvgl/lvgl/src/extra/layouts/grid/../grid/lv_grid.h **** void lv_obj_set_style_grid_row_align(lv_obj_t * obj, lv_grid_align_t value, lv_style_selector_t sel
 113:Drivers/lvgl/lvgl/src/extra/layouts/grid/../grid/lv_grid.h **** void lv_obj_set_style_grid_column_align(lv_obj_t * obj, lv_grid_align_t value, lv_style_selector_t 
 114:Drivers/lvgl/lvgl/src/extra/layouts/grid/../grid/lv_grid.h **** void lv_obj_set_style_grid_cell_column_pos(lv_obj_t * obj, lv_coord_t value, lv_style_selector_t se
 115:Drivers/lvgl/lvgl/src/extra/layouts/grid/../grid/lv_grid.h **** void lv_obj_set_style_grid_cell_column_span(lv_obj_t * obj, lv_coord_t value, lv_style_selector_t s
 116:Drivers/lvgl/lvgl/src/extra/layouts/grid/../grid/lv_grid.h **** void lv_obj_set_style_grid_cell_row_pos(lv_obj_t * obj, lv_coord_t value, lv_style_selector_t selec
 117:Drivers/lvgl/lvgl/src/extra/layouts/grid/../grid/lv_grid.h **** void lv_obj_set_style_grid_cell_row_span(lv_obj_t * obj, lv_coord_t value, lv_style_selector_t sele
 118:Drivers/lvgl/lvgl/src/extra/layouts/grid/../grid/lv_grid.h **** void lv_obj_set_style_grid_cell_x_align(lv_obj_t * obj, lv_coord_t value, lv_style_selector_t selec
 119:Drivers/lvgl/lvgl/src/extra/layouts/grid/../grid/lv_grid.h **** void lv_obj_set_style_grid_cell_y_align(lv_obj_t * obj, lv_coord_t value, lv_style_selector_t selec
 120:Drivers/lvgl/lvgl/src/extra/layouts/grid/../grid/lv_grid.h **** 
 121:Drivers/lvgl/lvgl/src/extra/layouts/grid/../grid/lv_grid.h **** static inline const lv_coord_t * lv_obj_get_style_grid_row_dsc_array(const lv_obj_t * obj, uint32_t
 122:Drivers/lvgl/lvgl/src/extra/layouts/grid/../grid/lv_grid.h **** {
 123:Drivers/lvgl/lvgl/src/extra/layouts/grid/../grid/lv_grid.h ****     lv_style_value_t v = lv_obj_get_style_prop(obj, part, LV_STYLE_GRID_ROW_DSC_ARRAY);
 336              		.loc 2 123 0
 337 0008 604B     		ldr	r3, .L56
 338 000a 1A88     		ldrh	r2, [r3]
 339 000c 0021     		movs	r1, #0
 340              	.LVL46:
 341 000e FFF7FEFF 		bl	lv_obj_get_style_prop
 342              	.LVL47:
 343 0012 0646     		mov	r6, r0
 344              	.LVL48:
 345              	.LBE138:
 346              	.LBE137:
 347              	.LBE136:
 509:Drivers/lvgl/lvgl/src/extra/layouts/grid/lv_grid.c ****     c->y = lv_mem_buf_get(sizeof(lv_coord_t) * c->row_num);
 348              		.loc 1 509 0
 349 0014 FFF7FEFF 		bl	count_tracks
 350              	.LVL49:
 351 0018 6061     		str	r0, [r4, #20]
 510:Drivers/lvgl/lvgl/src/extra/layouts/grid/lv_grid.c ****     c->h = lv_mem_buf_get(sizeof(lv_coord_t) * c->row_num);
 352              		.loc 1 510 0
 353 001a 4000     		lsls	r0, r0, #1
 354 001c FFF7FEFF 		bl	lv_mem_buf_get
 355              	.LVL50:
 356 0020 6060     		str	r0, [r4, #4]
 511:Drivers/lvgl/lvgl/src/extra/layouts/grid/lv_grid.c ****     /*Set sizes for CONTENT cells*/
 357              		.loc 1 511 0
 358 0022 6069     		ldr	r0, [r4, #20]
 359 0024 4000     		lsls	r0, r0, #1
 360 0026 FFF7FEFF 		bl	lv_mem_buf_get
 361              	.LVL51:
 362 002a E060     		str	r0, [r4, #12]
 363              	.LVL52:
 513:Drivers/lvgl/lvgl/src/extra/layouts/grid/lv_grid.c ****         lv_coord_t size = LV_COORD_MIN;
 364              		.loc 1 513 0
 365 002c 0025     		movs	r5, #0
 366 002e 33E0     		b	.L30
 367              	.LVL53:
 368              	.L33:
 369              	.LBB139:
 370              	.LBB140:
 518:Drivers/lvgl/lvgl/src/extra/layouts/grid/lv_grid.c ****                 lv_obj_t * item = lv_obj_get_child(cont, ci);
 371              		.loc 1 518 0 discriminator 2
 372 0030 08F10108 		add	r8, r8, #1
 373              	.LVL54:
 374              	.L31:
 518:Drivers/lvgl/lvgl/src/extra/layouts/grid/lv_grid.c ****                 lv_obj_t * item = lv_obj_get_child(cont, ci);
ARM GAS  /tmp/ccFQgg33.s 			page 24


 375              		.loc 1 518 0 is_stmt 0 discriminator 1
 376 0034 3846     		mov	r0, r7
 377 0036 FFF7FEFF 		bl	lv_obj_get_child_cnt
 378              	.LVL55:
 379 003a 4045     		cmp	r0, r8
 380 003c 25D9     		bls	.L50
 381              	.LBB141:
 519:Drivers/lvgl/lvgl/src/extra/layouts/grid/lv_grid.c ****                 if(lv_obj_has_flag_any(item, LV_OBJ_FLAG_IGNORE_LAYOUT | LV_OBJ_FLAG_HIDDEN | LV_OB
 382              		.loc 1 519 0 is_stmt 1
 383 003e 4146     		mov	r1, r8
 384 0040 3846     		mov	r0, r7
 385 0042 FFF7FEFF 		bl	lv_obj_get_child
 386              	.LVL56:
 387 0046 8146     		mov	r9, r0
 388              	.LVL57:
 520:Drivers/lvgl/lvgl/src/extra/layouts/grid/lv_grid.c ****                 uint32_t row_span = get_row_span(item);
 389              		.loc 1 520 0
 390 0048 5149     		ldr	r1, .L56+4
 391 004a FFF7FEFF 		bl	lv_obj_has_flag_any
 392              	.LVL58:
 393 004e 0028     		cmp	r0, #0
 394 0050 EED1     		bne	.L33
 395              	.LVL59:
 396              	.LBB142:
 397              	.LBB143:
 398              	.LBB144:
 124:Drivers/lvgl/lvgl/src/extra/layouts/grid/../grid/lv_grid.h ****     return (const lv_coord_t *)v.ptr;
 125:Drivers/lvgl/lvgl/src/extra/layouts/grid/../grid/lv_grid.h **** }
 126:Drivers/lvgl/lvgl/src/extra/layouts/grid/../grid/lv_grid.h **** 
 127:Drivers/lvgl/lvgl/src/extra/layouts/grid/../grid/lv_grid.h **** static inline const lv_coord_t * lv_obj_get_style_grid_column_dsc_array(const lv_obj_t * obj, uint3
 128:Drivers/lvgl/lvgl/src/extra/layouts/grid/../grid/lv_grid.h **** {
 129:Drivers/lvgl/lvgl/src/extra/layouts/grid/../grid/lv_grid.h ****     lv_style_value_t v = lv_obj_get_style_prop(obj, part, LV_STYLE_GRID_COLUMN_DSC_ARRAY);
 130:Drivers/lvgl/lvgl/src/extra/layouts/grid/../grid/lv_grid.h ****     return (const lv_coord_t *)v.ptr;
 131:Drivers/lvgl/lvgl/src/extra/layouts/grid/../grid/lv_grid.h **** }
 132:Drivers/lvgl/lvgl/src/extra/layouts/grid/../grid/lv_grid.h **** 
 133:Drivers/lvgl/lvgl/src/extra/layouts/grid/../grid/lv_grid.h **** static inline lv_grid_align_t lv_obj_get_style_grid_row_align(const lv_obj_t * obj, uint32_t part)
 134:Drivers/lvgl/lvgl/src/extra/layouts/grid/../grid/lv_grid.h **** {
 135:Drivers/lvgl/lvgl/src/extra/layouts/grid/../grid/lv_grid.h ****     lv_style_value_t v = lv_obj_get_style_prop(obj, part, LV_STYLE_GRID_ROW_ALIGN);
 136:Drivers/lvgl/lvgl/src/extra/layouts/grid/../grid/lv_grid.h ****     return (lv_grid_align_t)v.num;
 137:Drivers/lvgl/lvgl/src/extra/layouts/grid/../grid/lv_grid.h **** }
 138:Drivers/lvgl/lvgl/src/extra/layouts/grid/../grid/lv_grid.h **** 
 139:Drivers/lvgl/lvgl/src/extra/layouts/grid/../grid/lv_grid.h **** static inline lv_grid_align_t lv_obj_get_style_grid_column_align(const lv_obj_t * obj, uint32_t par
 140:Drivers/lvgl/lvgl/src/extra/layouts/grid/../grid/lv_grid.h **** {
 141:Drivers/lvgl/lvgl/src/extra/layouts/grid/../grid/lv_grid.h ****     lv_style_value_t v = lv_obj_get_style_prop(obj, part, LV_STYLE_GRID_COLUMN_ALIGN);
 142:Drivers/lvgl/lvgl/src/extra/layouts/grid/../grid/lv_grid.h ****     return (lv_grid_align_t)v.num;
 143:Drivers/lvgl/lvgl/src/extra/layouts/grid/../grid/lv_grid.h **** }
 144:Drivers/lvgl/lvgl/src/extra/layouts/grid/../grid/lv_grid.h **** 
 145:Drivers/lvgl/lvgl/src/extra/layouts/grid/../grid/lv_grid.h **** static inline lv_coord_t lv_obj_get_style_grid_cell_column_pos(const lv_obj_t * obj, uint32_t part)
 146:Drivers/lvgl/lvgl/src/extra/layouts/grid/../grid/lv_grid.h **** {
 147:Drivers/lvgl/lvgl/src/extra/layouts/grid/../grid/lv_grid.h ****     lv_style_value_t v = lv_obj_get_style_prop(obj, part, LV_STYLE_GRID_CELL_COLUMN_POS);
 148:Drivers/lvgl/lvgl/src/extra/layouts/grid/../grid/lv_grid.h ****     return (lv_coord_t)v.num;
 149:Drivers/lvgl/lvgl/src/extra/layouts/grid/../grid/lv_grid.h **** }
 150:Drivers/lvgl/lvgl/src/extra/layouts/grid/../grid/lv_grid.h **** 
 151:Drivers/lvgl/lvgl/src/extra/layouts/grid/../grid/lv_grid.h **** static inline lv_coord_t lv_obj_get_style_grid_cell_column_span(const lv_obj_t * obj, uint32_t part
 152:Drivers/lvgl/lvgl/src/extra/layouts/grid/../grid/lv_grid.h **** {
 153:Drivers/lvgl/lvgl/src/extra/layouts/grid/../grid/lv_grid.h ****     lv_style_value_t v = lv_obj_get_style_prop(obj, part, LV_STYLE_GRID_CELL_COLUMN_SPAN);
 154:Drivers/lvgl/lvgl/src/extra/layouts/grid/../grid/lv_grid.h ****     return (lv_coord_t)v.num;
ARM GAS  /tmp/ccFQgg33.s 			page 25


 155:Drivers/lvgl/lvgl/src/extra/layouts/grid/../grid/lv_grid.h **** }
 156:Drivers/lvgl/lvgl/src/extra/layouts/grid/../grid/lv_grid.h **** 
 157:Drivers/lvgl/lvgl/src/extra/layouts/grid/../grid/lv_grid.h **** static inline lv_coord_t lv_obj_get_style_grid_cell_row_pos(const lv_obj_t * obj, uint32_t part)
 158:Drivers/lvgl/lvgl/src/extra/layouts/grid/../grid/lv_grid.h **** {
 159:Drivers/lvgl/lvgl/src/extra/layouts/grid/../grid/lv_grid.h ****     lv_style_value_t v = lv_obj_get_style_prop(obj, part, LV_STYLE_GRID_CELL_ROW_POS);
 160:Drivers/lvgl/lvgl/src/extra/layouts/grid/../grid/lv_grid.h ****     return (lv_coord_t)v.num;
 161:Drivers/lvgl/lvgl/src/extra/layouts/grid/../grid/lv_grid.h **** }
 162:Drivers/lvgl/lvgl/src/extra/layouts/grid/../grid/lv_grid.h **** 
 163:Drivers/lvgl/lvgl/src/extra/layouts/grid/../grid/lv_grid.h **** static inline lv_coord_t lv_obj_get_style_grid_cell_row_span(const lv_obj_t * obj, uint32_t part)
 164:Drivers/lvgl/lvgl/src/extra/layouts/grid/../grid/lv_grid.h **** {
 165:Drivers/lvgl/lvgl/src/extra/layouts/grid/../grid/lv_grid.h ****     lv_style_value_t v = lv_obj_get_style_prop(obj, part, LV_STYLE_GRID_CELL_ROW_SPAN);
 399              		.loc 2 165 0
 400 0052 504B     		ldr	r3, .L56+8
 401 0054 1A88     		ldrh	r2, [r3]
 402 0056 0021     		movs	r1, #0
 403 0058 4846     		mov	r0, r9
 404 005a FFF7FEFF 		bl	lv_obj_get_style_prop
 405              	.LVL60:
 406              	.LBE144:
 407              	.LBE143:
 408              	.LBE142:
 522:Drivers/lvgl/lvgl/src/extra/layouts/grid/lv_grid.c **** 
 409              		.loc 1 522 0
 410 005e C0B2     		uxtb	r0, r0
 411              	.LVL61:
 412 0060 0128     		cmp	r0, #1
 413 0062 E5D1     		bne	.L33
 414              	.LVL62:
 415              	.LBB145:
 416              	.LBB146:
 417              	.LBB147:
 159:Drivers/lvgl/lvgl/src/extra/layouts/grid/../grid/lv_grid.h ****     return (lv_coord_t)v.num;
 418              		.loc 2 159 0
 419 0064 4C4B     		ldr	r3, .L56+12
 420 0066 1A88     		ldrh	r2, [r3]
 421 0068 0021     		movs	r1, #0
 422 006a 4846     		mov	r0, r9
 423 006c FFF7FEFF 		bl	lv_obj_get_style_prop
 424              	.LVL63:
 425              	.LBE147:
 426              	.LBE146:
 427              	.LBE145:
 524:Drivers/lvgl/lvgl/src/extra/layouts/grid/lv_grid.c ****                 if(row_pos != i) continue;
 428              		.loc 1 524 0
 429 0070 C0B2     		uxtb	r0, r0
 430              	.LVL64:
 525:Drivers/lvgl/lvgl/src/extra/layouts/grid/lv_grid.c **** 
 431              		.loc 1 525 0
 432 0072 8542     		cmp	r5, r0
 433 0074 DCD1     		bne	.L33
 527:Drivers/lvgl/lvgl/src/extra/layouts/grid/lv_grid.c ****             }
 434              		.loc 1 527 0
 435 0076 4846     		mov	r0, r9
 436              	.LVL65:
 437 0078 FFF7FEFF 		bl	lv_obj_get_height
 438              	.LVL66:
 439 007c 5845     		cmp	r0, fp
ARM GAS  /tmp/ccFQgg33.s 			page 26


 440 007e D7DB     		blt	.L33
 527:Drivers/lvgl/lvgl/src/extra/layouts/grid/lv_grid.c ****             }
 441              		.loc 1 527 0 is_stmt 0 discriminator 1
 442 0080 4846     		mov	r0, r9
 443 0082 FFF7FEFF 		bl	lv_obj_get_height
 444              	.LVL67:
 445 0086 8346     		mov	fp, r0
 446              	.LVL68:
 447 0088 D2E7     		b	.L33
 448              	.LVL69:
 449              	.L50:
 450              	.LBE141:
 529:Drivers/lvgl/lvgl/src/extra/layouts/grid/lv_grid.c ****             else c->h[i] = 0;
 451              		.loc 1 529 0 is_stmt 1
 452 008a BBF1000F 		cmp	fp, #0
 453 008e 13DB     		blt	.L35
 529:Drivers/lvgl/lvgl/src/extra/layouts/grid/lv_grid.c ****             else c->h[i] = 0;
 454              		.loc 1 529 0 is_stmt 0 discriminator 1
 455 0090 E368     		ldr	r3, [r4, #12]
 456 0092 23F80AB0 		strh	fp, [r3, r10]	@ movhi
 457              	.LVL70:
 458              	.L32:
 459              	.LBE140:
 460              	.LBE139:
 513:Drivers/lvgl/lvgl/src/extra/layouts/grid/lv_grid.c ****         lv_coord_t size = LV_COORD_MIN;
 461              		.loc 1 513 0 is_stmt 1 discriminator 2
 462 0096 0135     		adds	r5, r5, #1
 463              	.LVL71:
 464              	.L30:
 513:Drivers/lvgl/lvgl/src/extra/layouts/grid/lv_grid.c ****         lv_coord_t size = LV_COORD_MIN;
 465              		.loc 1 513 0 is_stmt 0 discriminator 1
 466 0098 6369     		ldr	r3, [r4, #20]
 467 009a AB42     		cmp	r3, r5
 468 009c 11D9     		bls	.L51
 469              	.LVL72:
 470              	.LBB150:
 515:Drivers/lvgl/lvgl/src/extra/layouts/grid/lv_grid.c ****             /*Check the size of children of this cell*/
 471              		.loc 1 515 0 is_stmt 1
 472 009e 4FEA450A 		lsl	r10, r5, #1
 473 00a2 36F91520 		ldrsh	r2, [r6, r5, lsl #1]
 474 00a6 41F69A73 		movw	r3, #8090
 475 00aa 9A42     		cmp	r2, r3
 476 00ac F3D1     		bne	.L32
 477              	.LBB148:
 518:Drivers/lvgl/lvgl/src/extra/layouts/grid/lv_grid.c ****                 lv_obj_t * item = lv_obj_get_child(cont, ci);
 478              		.loc 1 518 0
 479 00ae 4FF00008 		mov	r8, #0
 480              	.LBE148:
 514:Drivers/lvgl/lvgl/src/extra/layouts/grid/lv_grid.c ****         if(IS_CONTENT(row_templ[i])) {
 481              		.loc 1 514 0
 482 00b2 DFF8ECB0 		ldr	fp, .L56+20
 483 00b6 BDE7     		b	.L31
 484              	.LVL73:
 485              	.L35:
 486              	.LBB149:
 530:Drivers/lvgl/lvgl/src/extra/layouts/grid/lv_grid.c ****         }
 487              		.loc 1 530 0
ARM GAS  /tmp/ccFQgg33.s 			page 27


 488 00b8 E368     		ldr	r3, [r4, #12]
 489 00ba 0022     		movs	r2, #0
 490 00bc 23F80A20 		strh	r2, [r3, r10]	@ movhi
 491 00c0 E9E7     		b	.L32
 492              	.LVL74:
 493              	.L51:
 494              	.LBE149:
 495              	.LBE150:
 535:Drivers/lvgl/lvgl/src/extra/layouts/grid/lv_grid.c **** 
 496              		.loc 1 535 0
 497 00c2 4FF00008 		mov	r8, #0
 534:Drivers/lvgl/lvgl/src/extra/layouts/grid/lv_grid.c ****     lv_coord_t grid_h = 0;
 498              		.loc 1 534 0
 499 00c6 4546     		mov	r5, r8
 500              	.LVL75:
 537:Drivers/lvgl/lvgl/src/extra/layouts/grid/lv_grid.c ****         lv_coord_t x = row_templ[i];
 501              		.loc 1 537 0
 502 00c8 4346     		mov	r3, r8
 503 00ca 09E0     		b	.L37
 504              	.LVL76:
 505              	.L38:
 506              	.LBB151:
 542:Drivers/lvgl/lvgl/src/extra/layouts/grid/lv_grid.c ****             grid_h += c->h[i];
 507              		.loc 1 542 0
 508 00cc 41F69A71 		movw	r1, #8090
 509 00d0 8A42     		cmp	r2, r1
 510 00d2 13D0     		beq	.L52
 546:Drivers/lvgl/lvgl/src/extra/layouts/grid/lv_grid.c ****             grid_h += x;
 511              		.loc 1 546 0
 512 00d4 E168     		ldr	r1, [r4, #12]
 513 00d6 0A52     		strh	r2, [r1, r0]	@ movhi
 547:Drivers/lvgl/lvgl/src/extra/layouts/grid/lv_grid.c ****         }
 514              		.loc 1 547 0
 515 00d8 4244     		add	r2, r2, r8
 516              	.LVL77:
 517 00da 0FFA82F8 		sxth	r8, r2
 518              	.LVL78:
 519              	.L39:
 520              	.LBE151:
 537:Drivers/lvgl/lvgl/src/extra/layouts/grid/lv_grid.c ****         lv_coord_t x = row_templ[i];
 521              		.loc 1 537 0 discriminator 2
 522 00de 0133     		adds	r3, r3, #1
 523              	.LVL79:
 524              	.L37:
 537:Drivers/lvgl/lvgl/src/extra/layouts/grid/lv_grid.c ****         lv_coord_t x = row_templ[i];
 525              		.loc 1 537 0 is_stmt 0 discriminator 1
 526 00e0 6269     		ldr	r2, [r4, #20]
 527 00e2 9A42     		cmp	r2, r3
 528 00e4 10D9     		bls	.L53
 529              	.LBB152:
 538:Drivers/lvgl/lvgl/src/extra/layouts/grid/lv_grid.c ****         if(IS_FR(x)) {
 530              		.loc 1 538 0 is_stmt 1
 531 00e6 5800     		lsls	r0, r3, #1
 532 00e8 36F91320 		ldrsh	r2, [r6, r3, lsl #1]
 533              	.LVL80:
 539:Drivers/lvgl/lvgl/src/extra/layouts/grid/lv_grid.c ****             row_fr_cnt += GET_FR(x);
 534              		.loc 1 539 0
ARM GAS  /tmp/ccFQgg33.s 			page 28


 535 00ec 41F69A71 		movw	r1, #8090
 536 00f0 8A42     		cmp	r2, r1
 537 00f2 EBDD     		ble	.L38
 540:Drivers/lvgl/lvgl/src/extra/layouts/grid/lv_grid.c ****         }
 538              		.loc 1 540 0
 539 00f4 2A44     		add	r2, r2, r5
 540              	.LVL81:
 541 00f6 294D     		ldr	r5, .L56+16
 542              	.LVL82:
 543 00f8 1544     		add	r5, r5, r2
 544              	.LVL83:
 545 00fa F0E7     		b	.L39
 546              	.LVL84:
 547              	.L52:
 543:Drivers/lvgl/lvgl/src/extra/layouts/grid/lv_grid.c ****         }
 548              		.loc 1 543 0
 549 00fc E268     		ldr	r2, [r4, #12]
 550              	.LVL85:
 551 00fe 125A     		ldrh	r2, [r2, r0]
 552 0100 4244     		add	r2, r2, r8
 553 0102 0FFA82F8 		sxth	r8, r2
 554              	.LVL86:
 555 0106 EAE7     		b	.L39
 556              	.LVL87:
 557              	.L53:
 558              	.LBE152:
 559              	.LBB153:
 560              	.LBB154:
 561              		.file 3 "Drivers/lvgl/lvgl/src/extra/layouts/grid/../flex/../../../core/lv_obj_style_gen.h"
   1:Drivers/lvgl/lvgl/src/extra/layouts/grid/../flex/../../../core/lv_obj_style_gen.h **** static inline lv_coord_t lv_obj_get_style_width(const struct _lv_obj_t * obj, uint32_t part)
   2:Drivers/lvgl/lvgl/src/extra/layouts/grid/../flex/../../../core/lv_obj_style_gen.h **** {
   3:Drivers/lvgl/lvgl/src/extra/layouts/grid/../flex/../../../core/lv_obj_style_gen.h ****     lv_style_value_t v = lv_obj_get_style_prop(obj, part, LV_STYLE_WIDTH);
   4:Drivers/lvgl/lvgl/src/extra/layouts/grid/../flex/../../../core/lv_obj_style_gen.h ****     return (lv_coord_t)v.num;
   5:Drivers/lvgl/lvgl/src/extra/layouts/grid/../flex/../../../core/lv_obj_style_gen.h **** }
   6:Drivers/lvgl/lvgl/src/extra/layouts/grid/../flex/../../../core/lv_obj_style_gen.h **** 
   7:Drivers/lvgl/lvgl/src/extra/layouts/grid/../flex/../../../core/lv_obj_style_gen.h **** static inline lv_coord_t lv_obj_get_style_min_width(const struct _lv_obj_t * obj, uint32_t part)
   8:Drivers/lvgl/lvgl/src/extra/layouts/grid/../flex/../../../core/lv_obj_style_gen.h **** {
   9:Drivers/lvgl/lvgl/src/extra/layouts/grid/../flex/../../../core/lv_obj_style_gen.h ****     lv_style_value_t v = lv_obj_get_style_prop(obj, part, LV_STYLE_MIN_WIDTH);
  10:Drivers/lvgl/lvgl/src/extra/layouts/grid/../flex/../../../core/lv_obj_style_gen.h ****     return (lv_coord_t)v.num;
  11:Drivers/lvgl/lvgl/src/extra/layouts/grid/../flex/../../../core/lv_obj_style_gen.h **** }
  12:Drivers/lvgl/lvgl/src/extra/layouts/grid/../flex/../../../core/lv_obj_style_gen.h **** 
  13:Drivers/lvgl/lvgl/src/extra/layouts/grid/../flex/../../../core/lv_obj_style_gen.h **** static inline lv_coord_t lv_obj_get_style_max_width(const struct _lv_obj_t * obj, uint32_t part)
  14:Drivers/lvgl/lvgl/src/extra/layouts/grid/../flex/../../../core/lv_obj_style_gen.h **** {
  15:Drivers/lvgl/lvgl/src/extra/layouts/grid/../flex/../../../core/lv_obj_style_gen.h ****     lv_style_value_t v = lv_obj_get_style_prop(obj, part, LV_STYLE_MAX_WIDTH);
  16:Drivers/lvgl/lvgl/src/extra/layouts/grid/../flex/../../../core/lv_obj_style_gen.h ****     return (lv_coord_t)v.num;
  17:Drivers/lvgl/lvgl/src/extra/layouts/grid/../flex/../../../core/lv_obj_style_gen.h **** }
  18:Drivers/lvgl/lvgl/src/extra/layouts/grid/../flex/../../../core/lv_obj_style_gen.h **** 
  19:Drivers/lvgl/lvgl/src/extra/layouts/grid/../flex/../../../core/lv_obj_style_gen.h **** static inline lv_coord_t lv_obj_get_style_height(const struct _lv_obj_t * obj, uint32_t part)
  20:Drivers/lvgl/lvgl/src/extra/layouts/grid/../flex/../../../core/lv_obj_style_gen.h **** {
  21:Drivers/lvgl/lvgl/src/extra/layouts/grid/../flex/../../../core/lv_obj_style_gen.h ****     lv_style_value_t v = lv_obj_get_style_prop(obj, part, LV_STYLE_HEIGHT);
  22:Drivers/lvgl/lvgl/src/extra/layouts/grid/../flex/../../../core/lv_obj_style_gen.h ****     return (lv_coord_t)v.num;
  23:Drivers/lvgl/lvgl/src/extra/layouts/grid/../flex/../../../core/lv_obj_style_gen.h **** }
  24:Drivers/lvgl/lvgl/src/extra/layouts/grid/../flex/../../../core/lv_obj_style_gen.h **** 
  25:Drivers/lvgl/lvgl/src/extra/layouts/grid/../flex/../../../core/lv_obj_style_gen.h **** static inline lv_coord_t lv_obj_get_style_min_height(const struct _lv_obj_t * obj, uint32_t part)
  26:Drivers/lvgl/lvgl/src/extra/layouts/grid/../flex/../../../core/lv_obj_style_gen.h **** {
  27:Drivers/lvgl/lvgl/src/extra/layouts/grid/../flex/../../../core/lv_obj_style_gen.h ****     lv_style_value_t v = lv_obj_get_style_prop(obj, part, LV_STYLE_MIN_HEIGHT);
  28:Drivers/lvgl/lvgl/src/extra/layouts/grid/../flex/../../../core/lv_obj_style_gen.h ****     return (lv_coord_t)v.num;
ARM GAS  /tmp/ccFQgg33.s 			page 29


  29:Drivers/lvgl/lvgl/src/extra/layouts/grid/../flex/../../../core/lv_obj_style_gen.h **** }
  30:Drivers/lvgl/lvgl/src/extra/layouts/grid/../flex/../../../core/lv_obj_style_gen.h **** 
  31:Drivers/lvgl/lvgl/src/extra/layouts/grid/../flex/../../../core/lv_obj_style_gen.h **** static inline lv_coord_t lv_obj_get_style_max_height(const struct _lv_obj_t * obj, uint32_t part)
  32:Drivers/lvgl/lvgl/src/extra/layouts/grid/../flex/../../../core/lv_obj_style_gen.h **** {
  33:Drivers/lvgl/lvgl/src/extra/layouts/grid/../flex/../../../core/lv_obj_style_gen.h ****     lv_style_value_t v = lv_obj_get_style_prop(obj, part, LV_STYLE_MAX_HEIGHT);
  34:Drivers/lvgl/lvgl/src/extra/layouts/grid/../flex/../../../core/lv_obj_style_gen.h ****     return (lv_coord_t)v.num;
  35:Drivers/lvgl/lvgl/src/extra/layouts/grid/../flex/../../../core/lv_obj_style_gen.h **** }
  36:Drivers/lvgl/lvgl/src/extra/layouts/grid/../flex/../../../core/lv_obj_style_gen.h **** 
  37:Drivers/lvgl/lvgl/src/extra/layouts/grid/../flex/../../../core/lv_obj_style_gen.h **** static inline lv_coord_t lv_obj_get_style_x(const struct _lv_obj_t * obj, uint32_t part)
  38:Drivers/lvgl/lvgl/src/extra/layouts/grid/../flex/../../../core/lv_obj_style_gen.h **** {
  39:Drivers/lvgl/lvgl/src/extra/layouts/grid/../flex/../../../core/lv_obj_style_gen.h ****     lv_style_value_t v = lv_obj_get_style_prop(obj, part, LV_STYLE_X);
  40:Drivers/lvgl/lvgl/src/extra/layouts/grid/../flex/../../../core/lv_obj_style_gen.h ****     return (lv_coord_t)v.num;
  41:Drivers/lvgl/lvgl/src/extra/layouts/grid/../flex/../../../core/lv_obj_style_gen.h **** }
  42:Drivers/lvgl/lvgl/src/extra/layouts/grid/../flex/../../../core/lv_obj_style_gen.h **** 
  43:Drivers/lvgl/lvgl/src/extra/layouts/grid/../flex/../../../core/lv_obj_style_gen.h **** static inline lv_coord_t lv_obj_get_style_y(const struct _lv_obj_t * obj, uint32_t part)
  44:Drivers/lvgl/lvgl/src/extra/layouts/grid/../flex/../../../core/lv_obj_style_gen.h **** {
  45:Drivers/lvgl/lvgl/src/extra/layouts/grid/../flex/../../../core/lv_obj_style_gen.h ****     lv_style_value_t v = lv_obj_get_style_prop(obj, part, LV_STYLE_Y);
  46:Drivers/lvgl/lvgl/src/extra/layouts/grid/../flex/../../../core/lv_obj_style_gen.h ****     return (lv_coord_t)v.num;
  47:Drivers/lvgl/lvgl/src/extra/layouts/grid/../flex/../../../core/lv_obj_style_gen.h **** }
  48:Drivers/lvgl/lvgl/src/extra/layouts/grid/../flex/../../../core/lv_obj_style_gen.h **** 
  49:Drivers/lvgl/lvgl/src/extra/layouts/grid/../flex/../../../core/lv_obj_style_gen.h **** static inline lv_align_t lv_obj_get_style_align(const struct _lv_obj_t * obj, uint32_t part)
  50:Drivers/lvgl/lvgl/src/extra/layouts/grid/../flex/../../../core/lv_obj_style_gen.h **** {
  51:Drivers/lvgl/lvgl/src/extra/layouts/grid/../flex/../../../core/lv_obj_style_gen.h ****     lv_style_value_t v = lv_obj_get_style_prop(obj, part, LV_STYLE_ALIGN);
  52:Drivers/lvgl/lvgl/src/extra/layouts/grid/../flex/../../../core/lv_obj_style_gen.h ****     return (lv_align_t)v.num;
  53:Drivers/lvgl/lvgl/src/extra/layouts/grid/../flex/../../../core/lv_obj_style_gen.h **** }
  54:Drivers/lvgl/lvgl/src/extra/layouts/grid/../flex/../../../core/lv_obj_style_gen.h **** 
  55:Drivers/lvgl/lvgl/src/extra/layouts/grid/../flex/../../../core/lv_obj_style_gen.h **** static inline lv_coord_t lv_obj_get_style_transform_width(const struct _lv_obj_t * obj, uint32_t pa
  56:Drivers/lvgl/lvgl/src/extra/layouts/grid/../flex/../../../core/lv_obj_style_gen.h **** {
  57:Drivers/lvgl/lvgl/src/extra/layouts/grid/../flex/../../../core/lv_obj_style_gen.h ****     lv_style_value_t v = lv_obj_get_style_prop(obj, part, LV_STYLE_TRANSFORM_WIDTH);
  58:Drivers/lvgl/lvgl/src/extra/layouts/grid/../flex/../../../core/lv_obj_style_gen.h ****     return (lv_coord_t)v.num;
  59:Drivers/lvgl/lvgl/src/extra/layouts/grid/../flex/../../../core/lv_obj_style_gen.h **** }
  60:Drivers/lvgl/lvgl/src/extra/layouts/grid/../flex/../../../core/lv_obj_style_gen.h **** 
  61:Drivers/lvgl/lvgl/src/extra/layouts/grid/../flex/../../../core/lv_obj_style_gen.h **** static inline lv_coord_t lv_obj_get_style_transform_height(const struct _lv_obj_t * obj, uint32_t p
  62:Drivers/lvgl/lvgl/src/extra/layouts/grid/../flex/../../../core/lv_obj_style_gen.h **** {
  63:Drivers/lvgl/lvgl/src/extra/layouts/grid/../flex/../../../core/lv_obj_style_gen.h ****     lv_style_value_t v = lv_obj_get_style_prop(obj, part, LV_STYLE_TRANSFORM_HEIGHT);
  64:Drivers/lvgl/lvgl/src/extra/layouts/grid/../flex/../../../core/lv_obj_style_gen.h ****     return (lv_coord_t)v.num;
  65:Drivers/lvgl/lvgl/src/extra/layouts/grid/../flex/../../../core/lv_obj_style_gen.h **** }
  66:Drivers/lvgl/lvgl/src/extra/layouts/grid/../flex/../../../core/lv_obj_style_gen.h **** 
  67:Drivers/lvgl/lvgl/src/extra/layouts/grid/../flex/../../../core/lv_obj_style_gen.h **** static inline lv_coord_t lv_obj_get_style_translate_x(const struct _lv_obj_t * obj, uint32_t part)
  68:Drivers/lvgl/lvgl/src/extra/layouts/grid/../flex/../../../core/lv_obj_style_gen.h **** {
  69:Drivers/lvgl/lvgl/src/extra/layouts/grid/../flex/../../../core/lv_obj_style_gen.h ****     lv_style_value_t v = lv_obj_get_style_prop(obj, part, LV_STYLE_TRANSLATE_X);
  70:Drivers/lvgl/lvgl/src/extra/layouts/grid/../flex/../../../core/lv_obj_style_gen.h ****     return (lv_coord_t)v.num;
  71:Drivers/lvgl/lvgl/src/extra/layouts/grid/../flex/../../../core/lv_obj_style_gen.h **** }
  72:Drivers/lvgl/lvgl/src/extra/layouts/grid/../flex/../../../core/lv_obj_style_gen.h **** 
  73:Drivers/lvgl/lvgl/src/extra/layouts/grid/../flex/../../../core/lv_obj_style_gen.h **** static inline lv_coord_t lv_obj_get_style_translate_y(const struct _lv_obj_t * obj, uint32_t part)
  74:Drivers/lvgl/lvgl/src/extra/layouts/grid/../flex/../../../core/lv_obj_style_gen.h **** {
  75:Drivers/lvgl/lvgl/src/extra/layouts/grid/../flex/../../../core/lv_obj_style_gen.h ****     lv_style_value_t v = lv_obj_get_style_prop(obj, part, LV_STYLE_TRANSLATE_Y);
  76:Drivers/lvgl/lvgl/src/extra/layouts/grid/../flex/../../../core/lv_obj_style_gen.h ****     return (lv_coord_t)v.num;
  77:Drivers/lvgl/lvgl/src/extra/layouts/grid/../flex/../../../core/lv_obj_style_gen.h **** }
  78:Drivers/lvgl/lvgl/src/extra/layouts/grid/../flex/../../../core/lv_obj_style_gen.h **** 
  79:Drivers/lvgl/lvgl/src/extra/layouts/grid/../flex/../../../core/lv_obj_style_gen.h **** static inline lv_coord_t lv_obj_get_style_transform_zoom(const struct _lv_obj_t * obj, uint32_t par
  80:Drivers/lvgl/lvgl/src/extra/layouts/grid/../flex/../../../core/lv_obj_style_gen.h **** {
  81:Drivers/lvgl/lvgl/src/extra/layouts/grid/../flex/../../../core/lv_obj_style_gen.h ****     lv_style_value_t v = lv_obj_get_style_prop(obj, part, LV_STYLE_TRANSFORM_ZOOM);
  82:Drivers/lvgl/lvgl/src/extra/layouts/grid/../flex/../../../core/lv_obj_style_gen.h ****     return (lv_coord_t)v.num;
  83:Drivers/lvgl/lvgl/src/extra/layouts/grid/../flex/../../../core/lv_obj_style_gen.h **** }
  84:Drivers/lvgl/lvgl/src/extra/layouts/grid/../flex/../../../core/lv_obj_style_gen.h **** 
  85:Drivers/lvgl/lvgl/src/extra/layouts/grid/../flex/../../../core/lv_obj_style_gen.h **** static inline lv_coord_t lv_obj_get_style_transform_angle(const struct _lv_obj_t * obj, uint32_t pa
ARM GAS  /tmp/ccFQgg33.s 			page 30


  86:Drivers/lvgl/lvgl/src/extra/layouts/grid/../flex/../../../core/lv_obj_style_gen.h **** {
  87:Drivers/lvgl/lvgl/src/extra/layouts/grid/../flex/../../../core/lv_obj_style_gen.h ****     lv_style_value_t v = lv_obj_get_style_prop(obj, part, LV_STYLE_TRANSFORM_ANGLE);
  88:Drivers/lvgl/lvgl/src/extra/layouts/grid/../flex/../../../core/lv_obj_style_gen.h ****     return (lv_coord_t)v.num;
  89:Drivers/lvgl/lvgl/src/extra/layouts/grid/../flex/../../../core/lv_obj_style_gen.h **** }
  90:Drivers/lvgl/lvgl/src/extra/layouts/grid/../flex/../../../core/lv_obj_style_gen.h **** 
  91:Drivers/lvgl/lvgl/src/extra/layouts/grid/../flex/../../../core/lv_obj_style_gen.h **** static inline lv_coord_t lv_obj_get_style_transform_pivot_x(const struct _lv_obj_t * obj, uint32_t 
  92:Drivers/lvgl/lvgl/src/extra/layouts/grid/../flex/../../../core/lv_obj_style_gen.h **** {
  93:Drivers/lvgl/lvgl/src/extra/layouts/grid/../flex/../../../core/lv_obj_style_gen.h ****     lv_style_value_t v = lv_obj_get_style_prop(obj, part, LV_STYLE_TRANSFORM_PIVOT_X);
  94:Drivers/lvgl/lvgl/src/extra/layouts/grid/../flex/../../../core/lv_obj_style_gen.h ****     return (lv_coord_t)v.num;
  95:Drivers/lvgl/lvgl/src/extra/layouts/grid/../flex/../../../core/lv_obj_style_gen.h **** }
  96:Drivers/lvgl/lvgl/src/extra/layouts/grid/../flex/../../../core/lv_obj_style_gen.h **** 
  97:Drivers/lvgl/lvgl/src/extra/layouts/grid/../flex/../../../core/lv_obj_style_gen.h **** static inline lv_coord_t lv_obj_get_style_transform_pivot_y(const struct _lv_obj_t * obj, uint32_t 
  98:Drivers/lvgl/lvgl/src/extra/layouts/grid/../flex/../../../core/lv_obj_style_gen.h **** {
  99:Drivers/lvgl/lvgl/src/extra/layouts/grid/../flex/../../../core/lv_obj_style_gen.h ****     lv_style_value_t v = lv_obj_get_style_prop(obj, part, LV_STYLE_TRANSFORM_PIVOT_Y);
 100:Drivers/lvgl/lvgl/src/extra/layouts/grid/../flex/../../../core/lv_obj_style_gen.h ****     return (lv_coord_t)v.num;
 101:Drivers/lvgl/lvgl/src/extra/layouts/grid/../flex/../../../core/lv_obj_style_gen.h **** }
 102:Drivers/lvgl/lvgl/src/extra/layouts/grid/../flex/../../../core/lv_obj_style_gen.h **** 
 103:Drivers/lvgl/lvgl/src/extra/layouts/grid/../flex/../../../core/lv_obj_style_gen.h **** static inline lv_coord_t lv_obj_get_style_pad_top(const struct _lv_obj_t * obj, uint32_t part)
 104:Drivers/lvgl/lvgl/src/extra/layouts/grid/../flex/../../../core/lv_obj_style_gen.h **** {
 105:Drivers/lvgl/lvgl/src/extra/layouts/grid/../flex/../../../core/lv_obj_style_gen.h ****     lv_style_value_t v = lv_obj_get_style_prop(obj, part, LV_STYLE_PAD_TOP);
 106:Drivers/lvgl/lvgl/src/extra/layouts/grid/../flex/../../../core/lv_obj_style_gen.h ****     return (lv_coord_t)v.num;
 107:Drivers/lvgl/lvgl/src/extra/layouts/grid/../flex/../../../core/lv_obj_style_gen.h **** }
 108:Drivers/lvgl/lvgl/src/extra/layouts/grid/../flex/../../../core/lv_obj_style_gen.h **** 
 109:Drivers/lvgl/lvgl/src/extra/layouts/grid/../flex/../../../core/lv_obj_style_gen.h **** static inline lv_coord_t lv_obj_get_style_pad_bottom(const struct _lv_obj_t * obj, uint32_t part)
 110:Drivers/lvgl/lvgl/src/extra/layouts/grid/../flex/../../../core/lv_obj_style_gen.h **** {
 111:Drivers/lvgl/lvgl/src/extra/layouts/grid/../flex/../../../core/lv_obj_style_gen.h ****     lv_style_value_t v = lv_obj_get_style_prop(obj, part, LV_STYLE_PAD_BOTTOM);
 112:Drivers/lvgl/lvgl/src/extra/layouts/grid/../flex/../../../core/lv_obj_style_gen.h ****     return (lv_coord_t)v.num;
 113:Drivers/lvgl/lvgl/src/extra/layouts/grid/../flex/../../../core/lv_obj_style_gen.h **** }
 114:Drivers/lvgl/lvgl/src/extra/layouts/grid/../flex/../../../core/lv_obj_style_gen.h **** 
 115:Drivers/lvgl/lvgl/src/extra/layouts/grid/../flex/../../../core/lv_obj_style_gen.h **** static inline lv_coord_t lv_obj_get_style_pad_left(const struct _lv_obj_t * obj, uint32_t part)
 116:Drivers/lvgl/lvgl/src/extra/layouts/grid/../flex/../../../core/lv_obj_style_gen.h **** {
 117:Drivers/lvgl/lvgl/src/extra/layouts/grid/../flex/../../../core/lv_obj_style_gen.h ****     lv_style_value_t v = lv_obj_get_style_prop(obj, part, LV_STYLE_PAD_LEFT);
 118:Drivers/lvgl/lvgl/src/extra/layouts/grid/../flex/../../../core/lv_obj_style_gen.h ****     return (lv_coord_t)v.num;
 119:Drivers/lvgl/lvgl/src/extra/layouts/grid/../flex/../../../core/lv_obj_style_gen.h **** }
 120:Drivers/lvgl/lvgl/src/extra/layouts/grid/../flex/../../../core/lv_obj_style_gen.h **** 
 121:Drivers/lvgl/lvgl/src/extra/layouts/grid/../flex/../../../core/lv_obj_style_gen.h **** static inline lv_coord_t lv_obj_get_style_pad_right(const struct _lv_obj_t * obj, uint32_t part)
 122:Drivers/lvgl/lvgl/src/extra/layouts/grid/../flex/../../../core/lv_obj_style_gen.h **** {
 123:Drivers/lvgl/lvgl/src/extra/layouts/grid/../flex/../../../core/lv_obj_style_gen.h ****     lv_style_value_t v = lv_obj_get_style_prop(obj, part, LV_STYLE_PAD_RIGHT);
 124:Drivers/lvgl/lvgl/src/extra/layouts/grid/../flex/../../../core/lv_obj_style_gen.h ****     return (lv_coord_t)v.num;
 125:Drivers/lvgl/lvgl/src/extra/layouts/grid/../flex/../../../core/lv_obj_style_gen.h **** }
 126:Drivers/lvgl/lvgl/src/extra/layouts/grid/../flex/../../../core/lv_obj_style_gen.h **** 
 127:Drivers/lvgl/lvgl/src/extra/layouts/grid/../flex/../../../core/lv_obj_style_gen.h **** static inline lv_coord_t lv_obj_get_style_pad_row(const struct _lv_obj_t * obj, uint32_t part)
 128:Drivers/lvgl/lvgl/src/extra/layouts/grid/../flex/../../../core/lv_obj_style_gen.h **** {
 129:Drivers/lvgl/lvgl/src/extra/layouts/grid/../flex/../../../core/lv_obj_style_gen.h ****     lv_style_value_t v = lv_obj_get_style_prop(obj, part, LV_STYLE_PAD_ROW);
 562              		.loc 3 129 0
 563 0108 1422     		movs	r2, #20
 564 010a 0021     		movs	r1, #0
 565 010c 3846     		mov	r0, r7
 566 010e FFF7FEFF 		bl	lv_obj_get_style_prop
 567              	.LVL88:
 130:Drivers/lvgl/lvgl/src/extra/layouts/grid/../flex/../../../core/lv_obj_style_gen.h ****     return (lv_coord_t)v.num;
 568              		.loc 3 130 0
 569 0112 0FFA80F9 		sxth	r9, r0
 570              	.LVL89:
 571              	.LBE154:
 572              	.LBE153:
 553:Drivers/lvgl/lvgl/src/extra/layouts/grid/lv_grid.c ****     lv_coord_t free_h = cont_h - grid_h;
ARM GAS  /tmp/ccFQgg33.s 			page 31


 573              		.loc 1 553 0
 574 0116 3846     		mov	r0, r7
 575 0118 FFF7FEFF 		bl	lv_obj_get_content_height
 576              	.LVL90:
 577 011c 82B2     		uxth	r2, r0
 578 011e 6369     		ldr	r3, [r4, #20]
 579 0120 013B     		subs	r3, r3, #1
 580 0122 19FB03F9 		smulbb	r9, r9, r3
 581 0126 A2EB0902 		sub	r2, r2, r9
 582 012a 92B2     		uxth	r2, r2
 583              	.LVL91:
 554:Drivers/lvgl/lvgl/src/extra/layouts/grid/lv_grid.c ****     if(free_h < 0) free_h = 0;
 584              		.loc 1 554 0
 585 012c A2EB0802 		sub	r2, r2, r8
 586              	.LVL92:
 587 0130 12B2     		sxth	r2, r2
 588              	.LVL93:
 555:Drivers/lvgl/lvgl/src/extra/layouts/grid/lv_grid.c **** 
 589              		.loc 1 555 0
 590 0132 002A     		cmp	r2, #0
 591 0134 04DB     		blt	.L54
 592              	.LVL94:
 593              	.L42:
 558:Drivers/lvgl/lvgl/src/extra/layouts/grid/lv_grid.c ****     for(i = 0; i < c->row_num; i++) {
 594              		.loc 1 558 0
 595 0136 0021     		movs	r1, #0
 557:Drivers/lvgl/lvgl/src/extra/layouts/grid/lv_grid.c ****     int32_t last_fr_x = 0;
 596              		.loc 1 557 0
 597 0138 4FF0FF3C 		mov	ip, #-1
 559:Drivers/lvgl/lvgl/src/extra/layouts/grid/lv_grid.c ****         lv_coord_t x = row_templ[i];
 598              		.loc 1 559 0
 599 013c 0B46     		mov	r3, r1
 600 013e 02E0     		b	.L43
 601              	.LVL95:
 602              	.L54:
 555:Drivers/lvgl/lvgl/src/extra/layouts/grid/lv_grid.c **** 
 603              		.loc 1 555 0
 604 0140 0022     		movs	r2, #0
 605              	.LVL96:
 606 0142 F8E7     		b	.L42
 607              	.LVL97:
 608              	.L44:
 559:Drivers/lvgl/lvgl/src/extra/layouts/grid/lv_grid.c ****         lv_coord_t x = row_templ[i];
 609              		.loc 1 559 0 discriminator 2
 610 0144 0133     		adds	r3, r3, #1
 611              	.LVL98:
 612              	.L43:
 559:Drivers/lvgl/lvgl/src/extra/layouts/grid/lv_grid.c ****         lv_coord_t x = row_templ[i];
 613              		.loc 1 559 0 is_stmt 0 discriminator 1
 614 0146 6069     		ldr	r0, [r4, #20]
 615 0148 9842     		cmp	r0, r3
 616 014a 11D9     		bls	.L55
 617              	.LBB155:
 560:Drivers/lvgl/lvgl/src/extra/layouts/grid/lv_grid.c ****         if(IS_FR(x)) {
 618              		.loc 1 560 0 is_stmt 1
 619 014c 36F91300 		ldrsh	r0, [r6, r3, lsl #1]
 620              	.LVL99:
ARM GAS  /tmp/ccFQgg33.s 			page 32


 561:Drivers/lvgl/lvgl/src/extra/layouts/grid/lv_grid.c ****             lv_coord_t f = GET_FR(x);
 621              		.loc 1 561 0
 622 0150 41F69A77 		movw	r7, #8090
 623 0154 B842     		cmp	r0, r7
 624 0156 F5DD     		ble	.L44
 625              	.LBB156:
 562:Drivers/lvgl/lvgl/src/extra/layouts/grid/lv_grid.c ****             c->h[i] = (free_h * f) / row_fr_cnt;
 626              		.loc 1 562 0
 627 0158 1049     		ldr	r1, .L56+16
 628              	.LVL100:
 629 015a 0144     		add	r1, r1, r0
 630 015c 09B2     		sxth	r1, r1
 563:Drivers/lvgl/lvgl/src/extra/layouts/grid/lv_grid.c ****             last_fr_i = i;
 631              		.loc 1 563 0
 632 015e 01FB02F0 		mul	r0, r1, r2
 633              	.LVL101:
 634 0162 B0FBF5F0 		udiv	r0, r0, r5
 635 0166 E768     		ldr	r7, [r4, #12]
 636 0168 27F81300 		strh	r0, [r7, r3, lsl #1]	@ movhi
 637              	.LVL102:
 564:Drivers/lvgl/lvgl/src/extra/layouts/grid/lv_grid.c ****             last_fr_x = f;
 638              		.loc 1 564 0
 639 016c 9C46     		mov	ip, r3
 640              	.LVL103:
 641 016e E9E7     		b	.L44
 642              	.LVL104:
 643              	.L55:
 644              	.LBE156:
 645              	.LBE155:
 570:Drivers/lvgl/lvgl/src/extra/layouts/grid/lv_grid.c ****         c->h[last_fr_i] = free_h - ((free_h * (row_fr_cnt - last_fr_x)) / row_fr_cnt);
 646              		.loc 1 570 0
 647 0170 BCF1000F 		cmp	ip, #0
 648 0174 08DB     		blt	.L29
 571:Drivers/lvgl/lvgl/src/extra/layouts/grid/lv_grid.c ****     }
 649              		.loc 1 571 0
 650 0176 691A     		subs	r1, r5, r1
 651              	.LVL105:
 652 0178 01FB02F1 		mul	r1, r1, r2
 653 017c B1FBF5F5 		udiv	r5, r1, r5
 654              	.LVL106:
 655 0180 E368     		ldr	r3, [r4, #12]
 656              	.LVL107:
 657 0182 551B     		subs	r5, r2, r5
 658 0184 23F81C50 		strh	r5, [r3, ip, lsl #1]	@ movhi
 659              	.L29:
 573:Drivers/lvgl/lvgl/src/extra/layouts/grid/lv_grid.c **** 
 660              		.loc 1 573 0
 661 0188 BDE8F88F 		pop	{r3, r4, r5, r6, r7, r8, r9, r10, fp, pc}
 662              	.LVL108:
 663              	.L57:
 664              		.align	2
 665              	.L56:
 666 018c 00000000 		.word	LV_STYLE_GRID_ROW_DSC_ARRAY
 667 0190 01000600 		.word	393217
 668 0194 00000000 		.word	LV_STYLE_GRID_CELL_ROW_SPAN
 669 0198 00000000 		.word	LV_STYLE_GRID_CELL_ROW_POS
 670 019c 65E0FFFF 		.word	-8091
ARM GAS  /tmp/ccFQgg33.s 			page 33


 671 01a0 01E0FFFF 		.word	-8191
 672              		.cfi_endproc
 673              	.LFE213:
 675              		.section	.text.calc_cols,"ax",%progbits
 676              		.align	1
 677              		.syntax unified
 678              		.thumb
 679              		.thumb_func
 680              		.fpu fpv5-d16
 682              	calc_cols:
 683              	.LFB212:
 434:Drivers/lvgl/lvgl/src/extra/layouts/grid/lv_grid.c ****     const lv_coord_t * col_templ = get_col_dsc(cont);
 684              		.loc 1 434 0
 685              		.cfi_startproc
 686              		@ args = 0, pretend = 0, frame = 8
 687              		@ frame_needed = 0, uses_anonymous_args = 0
 688              	.LVL109:
 689 0000 2DE9F04F 		push	{r4, r5, r6, r7, r8, r9, r10, fp, lr}
 690              	.LCFI2:
 691              		.cfi_def_cfa_offset 36
 692              		.cfi_offset 4, -36
 693              		.cfi_offset 5, -32
 694              		.cfi_offset 6, -28
 695              		.cfi_offset 7, -24
 696              		.cfi_offset 8, -20
 697              		.cfi_offset 9, -16
 698              		.cfi_offset 10, -12
 699              		.cfi_offset 11, -8
 700              		.cfi_offset 14, -4
 701 0004 83B0     		sub	sp, sp, #12
 702              	.LCFI3:
 703              		.cfi_def_cfa_offset 48
 704 0006 8046     		mov	r8, r0
 705 0008 0C46     		mov	r4, r1
 706              	.LVL110:
 707              	.LBB157:
 708              	.LBB158:
 709              	.LBB159:
 129:Drivers/lvgl/lvgl/src/extra/layouts/grid/../grid/lv_grid.h ****     return (const lv_coord_t *)v.ptr;
 710              		.loc 2 129 0
 711 000a 5E4B     		ldr	r3, .L85
 712 000c 1A88     		ldrh	r2, [r3]
 713 000e 0021     		movs	r1, #0
 714              	.LVL111:
 715 0010 FFF7FEFF 		bl	lv_obj_get_style_prop
 716              	.LVL112:
 717 0014 0746     		mov	r7, r0
 718              	.LVL113:
 719              	.LBE159:
 720              	.LBE158:
 721              	.LBE157:
 436:Drivers/lvgl/lvgl/src/extra/layouts/grid/lv_grid.c **** 
 722              		.loc 1 436 0
 723 0016 4046     		mov	r0, r8
 724 0018 FFF7FEFF 		bl	lv_obj_get_content_width
 725              	.LVL114:
 726 001c 0190     		str	r0, [sp, #4]
ARM GAS  /tmp/ccFQgg33.s 			page 34


 727              	.LVL115:
 438:Drivers/lvgl/lvgl/src/extra/layouts/grid/lv_grid.c ****     c->x = lv_mem_buf_get(sizeof(lv_coord_t) * c->col_num);
 728              		.loc 1 438 0
 729 001e 3846     		mov	r0, r7
 730 0020 FFF7FEFF 		bl	count_tracks
 731              	.LVL116:
 732 0024 2061     		str	r0, [r4, #16]
 439:Drivers/lvgl/lvgl/src/extra/layouts/grid/lv_grid.c ****     c->w = lv_mem_buf_get(sizeof(lv_coord_t) * c->col_num);
 733              		.loc 1 439 0
 734 0026 4000     		lsls	r0, r0, #1
 735 0028 FFF7FEFF 		bl	lv_mem_buf_get
 736              	.LVL117:
 737 002c 2060     		str	r0, [r4]
 440:Drivers/lvgl/lvgl/src/extra/layouts/grid/lv_grid.c **** 
 738              		.loc 1 440 0
 739 002e 2069     		ldr	r0, [r4, #16]
 740 0030 4000     		lsls	r0, r0, #1
 741 0032 FFF7FEFF 		bl	lv_mem_buf_get
 742              	.LVL118:
 743 0036 A060     		str	r0, [r4, #8]
 744              	.LVL119:
 444:Drivers/lvgl/lvgl/src/extra/layouts/grid/lv_grid.c ****         lv_coord_t size = LV_COORD_MIN;
 745              		.loc 1 444 0
 746 0038 0025     		movs	r5, #0
 747 003a 32E0     		b	.L59
 748              	.LVL120:
 749              	.L62:
 750              	.LBB160:
 751              	.LBB161:
 449:Drivers/lvgl/lvgl/src/extra/layouts/grid/lv_grid.c ****                 lv_obj_t * item = lv_obj_get_child(cont, ci);
 752              		.loc 1 449 0 discriminator 2
 753 003c 0136     		adds	r6, r6, #1
 754              	.LVL121:
 755              	.L60:
 449:Drivers/lvgl/lvgl/src/extra/layouts/grid/lv_grid.c ****                 lv_obj_t * item = lv_obj_get_child(cont, ci);
 756              		.loc 1 449 0 is_stmt 0 discriminator 1
 757 003e 4046     		mov	r0, r8
 758 0040 FFF7FEFF 		bl	lv_obj_get_child_cnt
 759              	.LVL122:
 760 0044 B042     		cmp	r0, r6
 761 0046 25D9     		bls	.L79
 762              	.LBB162:
 450:Drivers/lvgl/lvgl/src/extra/layouts/grid/lv_grid.c ****                 if(lv_obj_has_flag_any(item, LV_OBJ_FLAG_IGNORE_LAYOUT | LV_OBJ_FLAG_HIDDEN | LV_OB
 763              		.loc 1 450 0 is_stmt 1
 764 0048 3146     		mov	r1, r6
 765 004a 4046     		mov	r0, r8
 766 004c FFF7FEFF 		bl	lv_obj_get_child
 767              	.LVL123:
 768 0050 8146     		mov	r9, r0
 769              	.LVL124:
 451:Drivers/lvgl/lvgl/src/extra/layouts/grid/lv_grid.c ****                 uint32_t col_span = get_col_span(item);
 770              		.loc 1 451 0
 771 0052 4D49     		ldr	r1, .L85+4
 772 0054 FFF7FEFF 		bl	lv_obj_has_flag_any
 773              	.LVL125:
 774 0058 0028     		cmp	r0, #0
 775 005a EFD1     		bne	.L62
ARM GAS  /tmp/ccFQgg33.s 			page 35


 776              	.LVL126:
 777              	.LBB163:
 778              	.LBB164:
 779              	.LBB165:
 153:Drivers/lvgl/lvgl/src/extra/layouts/grid/../grid/lv_grid.h ****     return (lv_coord_t)v.num;
 780              		.loc 2 153 0
 781 005c 4B4B     		ldr	r3, .L85+8
 782 005e 1A88     		ldrh	r2, [r3]
 783 0060 0021     		movs	r1, #0
 784 0062 4846     		mov	r0, r9
 785 0064 FFF7FEFF 		bl	lv_obj_get_style_prop
 786              	.LVL127:
 787              	.LBE165:
 788              	.LBE164:
 789              	.LBE163:
 453:Drivers/lvgl/lvgl/src/extra/layouts/grid/lv_grid.c **** 
 790              		.loc 1 453 0
 791 0068 C0B2     		uxtb	r0, r0
 792              	.LVL128:
 793 006a 0128     		cmp	r0, #1
 794 006c E6D1     		bne	.L62
 795              	.LVL129:
 796              	.LBB166:
 797              	.LBB167:
 798              	.LBB168:
 147:Drivers/lvgl/lvgl/src/extra/layouts/grid/../grid/lv_grid.h ****     return (lv_coord_t)v.num;
 799              		.loc 2 147 0
 800 006e 484B     		ldr	r3, .L85+12
 801 0070 1A88     		ldrh	r2, [r3]
 802 0072 0021     		movs	r1, #0
 803 0074 4846     		mov	r0, r9
 804 0076 FFF7FEFF 		bl	lv_obj_get_style_prop
 805              	.LVL130:
 806              	.LBE168:
 807              	.LBE167:
 808              	.LBE166:
 455:Drivers/lvgl/lvgl/src/extra/layouts/grid/lv_grid.c ****                 if(col_pos != i) continue;
 809              		.loc 1 455 0
 810 007a C0B2     		uxtb	r0, r0
 811              	.LVL131:
 456:Drivers/lvgl/lvgl/src/extra/layouts/grid/lv_grid.c **** 
 812              		.loc 1 456 0
 813 007c 8542     		cmp	r5, r0
 814 007e DDD1     		bne	.L62
 458:Drivers/lvgl/lvgl/src/extra/layouts/grid/lv_grid.c ****             }
 815              		.loc 1 458 0
 816 0080 4846     		mov	r0, r9
 817              	.LVL132:
 818 0082 FFF7FEFF 		bl	lv_obj_get_width
 819              	.LVL133:
 820 0086 5845     		cmp	r0, fp
 821 0088 D8DB     		blt	.L62
 458:Drivers/lvgl/lvgl/src/extra/layouts/grid/lv_grid.c ****             }
 822              		.loc 1 458 0 is_stmt 0 discriminator 1
 823 008a 4846     		mov	r0, r9
 824 008c FFF7FEFF 		bl	lv_obj_get_width
 825              	.LVL134:
ARM GAS  /tmp/ccFQgg33.s 			page 36


 826 0090 8346     		mov	fp, r0
 827              	.LVL135:
 828 0092 D3E7     		b	.L62
 829              	.LVL136:
 830              	.L79:
 831              	.LBE162:
 460:Drivers/lvgl/lvgl/src/extra/layouts/grid/lv_grid.c ****             else c->w[i] = 0;
 832              		.loc 1 460 0 is_stmt 1
 833 0094 BBF1000F 		cmp	fp, #0
 834 0098 12DB     		blt	.L64
 460:Drivers/lvgl/lvgl/src/extra/layouts/grid/lv_grid.c ****             else c->w[i] = 0;
 835              		.loc 1 460 0 is_stmt 0 discriminator 1
 836 009a A368     		ldr	r3, [r4, #8]
 837 009c 23F80AB0 		strh	fp, [r3, r10]	@ movhi
 838              	.LVL137:
 839              	.L61:
 840              	.LBE161:
 841              	.LBE160:
 444:Drivers/lvgl/lvgl/src/extra/layouts/grid/lv_grid.c ****         lv_coord_t size = LV_COORD_MIN;
 842              		.loc 1 444 0 is_stmt 1 discriminator 2
 843 00a0 0135     		adds	r5, r5, #1
 844              	.LVL138:
 845              	.L59:
 444:Drivers/lvgl/lvgl/src/extra/layouts/grid/lv_grid.c ****         lv_coord_t size = LV_COORD_MIN;
 846              		.loc 1 444 0 is_stmt 0 discriminator 1
 847 00a2 2369     		ldr	r3, [r4, #16]
 848 00a4 AB42     		cmp	r3, r5
 849 00a6 10D9     		bls	.L80
 850              	.LVL139:
 851              	.LBB171:
 446:Drivers/lvgl/lvgl/src/extra/layouts/grid/lv_grid.c ****             /*Check the size of children of this cell*/
 852              		.loc 1 446 0 is_stmt 1
 853 00a8 4FEA450A 		lsl	r10, r5, #1
 854 00ac 37F91520 		ldrsh	r2, [r7, r5, lsl #1]
 855 00b0 41F69A73 		movw	r3, #8090
 856 00b4 9A42     		cmp	r2, r3
 857 00b6 F3D1     		bne	.L61
 858              	.LBB169:
 449:Drivers/lvgl/lvgl/src/extra/layouts/grid/lv_grid.c ****                 lv_obj_t * item = lv_obj_get_child(cont, ci);
 859              		.loc 1 449 0
 860 00b8 0026     		movs	r6, #0
 861              	.LBE169:
 445:Drivers/lvgl/lvgl/src/extra/layouts/grid/lv_grid.c ****         if(IS_CONTENT(col_templ[i])) {
 862              		.loc 1 445 0
 863 00ba DFF8DCB0 		ldr	fp, .L85+20
 864 00be BEE7     		b	.L60
 865              	.LVL140:
 866              	.L64:
 867              	.LBB170:
 461:Drivers/lvgl/lvgl/src/extra/layouts/grid/lv_grid.c ****         }
 868              		.loc 1 461 0
 869 00c0 A368     		ldr	r3, [r4, #8]
 870 00c2 0022     		movs	r2, #0
 871 00c4 23F80A20 		strh	r2, [r3, r10]	@ movhi
 872 00c8 EAE7     		b	.L61
 873              	.LVL141:
 874              	.L80:
ARM GAS  /tmp/ccFQgg33.s 			page 37


 875              	.LBE170:
 876              	.LBE171:
 466:Drivers/lvgl/lvgl/src/extra/layouts/grid/lv_grid.c **** 
 877              		.loc 1 466 0
 878 00ca 0026     		movs	r6, #0
 465:Drivers/lvgl/lvgl/src/extra/layouts/grid/lv_grid.c ****     lv_coord_t grid_w = 0;
 879              		.loc 1 465 0
 880 00cc 3546     		mov	r5, r6
 881              	.LVL142:
 468:Drivers/lvgl/lvgl/src/extra/layouts/grid/lv_grid.c ****         lv_coord_t x = col_templ[i];
 882              		.loc 1 468 0
 883 00ce 3346     		mov	r3, r6
 884 00d0 08E0     		b	.L66
 885              	.LVL143:
 886              	.L67:
 887              	.LBB172:
 473:Drivers/lvgl/lvgl/src/extra/layouts/grid/lv_grid.c ****             grid_w += c->w[i];
 888              		.loc 1 473 0
 889 00d2 41F69A71 		movw	r1, #8090
 890 00d6 8A42     		cmp	r2, r1
 891 00d8 12D0     		beq	.L81
 477:Drivers/lvgl/lvgl/src/extra/layouts/grid/lv_grid.c ****             grid_w += x;
 892              		.loc 1 477 0
 893 00da A168     		ldr	r1, [r4, #8]
 894 00dc 0A52     		strh	r2, [r1, r0]	@ movhi
 478:Drivers/lvgl/lvgl/src/extra/layouts/grid/lv_grid.c ****         }
 895              		.loc 1 478 0
 896 00de 1644     		add	r6, r6, r2
 897              	.LVL144:
 898 00e0 36B2     		sxth	r6, r6
 899              	.LVL145:
 900              	.L68:
 901              	.LBE172:
 468:Drivers/lvgl/lvgl/src/extra/layouts/grid/lv_grid.c ****         lv_coord_t x = col_templ[i];
 902              		.loc 1 468 0 discriminator 2
 903 00e2 0133     		adds	r3, r3, #1
 904              	.LVL146:
 905              	.L66:
 468:Drivers/lvgl/lvgl/src/extra/layouts/grid/lv_grid.c ****         lv_coord_t x = col_templ[i];
 906              		.loc 1 468 0 is_stmt 0 discriminator 1
 907 00e4 2269     		ldr	r2, [r4, #16]
 908 00e6 9A42     		cmp	r2, r3
 909 00e8 0FD9     		bls	.L82
 910              	.LBB173:
 469:Drivers/lvgl/lvgl/src/extra/layouts/grid/lv_grid.c ****         if(IS_FR(x)) {
 911              		.loc 1 469 0 is_stmt 1
 912 00ea 5800     		lsls	r0, r3, #1
 913 00ec 37F91320 		ldrsh	r2, [r7, r3, lsl #1]
 914              	.LVL147:
 470:Drivers/lvgl/lvgl/src/extra/layouts/grid/lv_grid.c ****             col_fr_cnt += GET_FR(x);
 915              		.loc 1 470 0
 916 00f0 41F69A71 		movw	r1, #8090
 917 00f4 8A42     		cmp	r2, r1
 918 00f6 ECDD     		ble	.L67
 471:Drivers/lvgl/lvgl/src/extra/layouts/grid/lv_grid.c ****         }
 919              		.loc 1 471 0
 920 00f8 2A44     		add	r2, r2, r5
ARM GAS  /tmp/ccFQgg33.s 			page 38


 921              	.LVL148:
 922 00fa 264D     		ldr	r5, .L85+16
 923              	.LVL149:
 924 00fc 1544     		add	r5, r5, r2
 925              	.LVL150:
 926 00fe F0E7     		b	.L68
 927              	.LVL151:
 928              	.L81:
 474:Drivers/lvgl/lvgl/src/extra/layouts/grid/lv_grid.c ****         }
 929              		.loc 1 474 0
 930 0100 A268     		ldr	r2, [r4, #8]
 931              	.LVL152:
 932 0102 125A     		ldrh	r2, [r2, r0]
 933 0104 1644     		add	r6, r6, r2
 934              	.LVL153:
 935 0106 36B2     		sxth	r6, r6
 936              	.LVL154:
 937 0108 EBE7     		b	.L68
 938              	.LVL155:
 939              	.L82:
 940              	.LBE173:
 941              	.LBB174:
 942              	.LBB175:
 131:Drivers/lvgl/lvgl/src/extra/layouts/grid/../flex/../../../core/lv_obj_style_gen.h **** }
 132:Drivers/lvgl/lvgl/src/extra/layouts/grid/../flex/../../../core/lv_obj_style_gen.h **** 
 133:Drivers/lvgl/lvgl/src/extra/layouts/grid/../flex/../../../core/lv_obj_style_gen.h **** static inline lv_coord_t lv_obj_get_style_pad_column(const struct _lv_obj_t * obj, uint32_t part)
 134:Drivers/lvgl/lvgl/src/extra/layouts/grid/../flex/../../../core/lv_obj_style_gen.h **** {
 135:Drivers/lvgl/lvgl/src/extra/layouts/grid/../flex/../../../core/lv_obj_style_gen.h ****     lv_style_value_t v = lv_obj_get_style_prop(obj, part, LV_STYLE_PAD_COLUMN);
 943              		.loc 3 135 0
 944 010a 1522     		movs	r2, #21
 945 010c 0021     		movs	r1, #0
 946 010e 4046     		mov	r0, r8
 947 0110 FFF7FEFF 		bl	lv_obj_get_style_prop
 948              	.LVL156:
 949              	.LBE175:
 950              	.LBE174:
 483:Drivers/lvgl/lvgl/src/extra/layouts/grid/lv_grid.c ****     lv_coord_t free_w = cont_w - grid_w;
 951              		.loc 1 483 0
 952 0114 2269     		ldr	r2, [r4, #16]
 953 0116 013A     		subs	r2, r2, #1
 954 0118 10FB02F2 		smulbb	r2, r0, r2
 955 011c 019B     		ldr	r3, [sp, #4]
 956 011e 9A1A     		subs	r2, r3, r2
 957 0120 92B2     		uxth	r2, r2
 958              	.LVL157:
 484:Drivers/lvgl/lvgl/src/extra/layouts/grid/lv_grid.c ****     if(free_w < 0) free_w = 0;
 959              		.loc 1 484 0
 960 0122 961B     		subs	r6, r2, r6
 961              	.LVL158:
 962 0124 36B2     		sxth	r6, r6
 963              	.LVL159:
 485:Drivers/lvgl/lvgl/src/extra/layouts/grid/lv_grid.c **** 
 964              		.loc 1 485 0
 965 0126 002E     		cmp	r6, #0
 966 0128 04DB     		blt	.L83
 967              	.LVL160:
 968              	.L71:
ARM GAS  /tmp/ccFQgg33.s 			page 39


 488:Drivers/lvgl/lvgl/src/extra/layouts/grid/lv_grid.c ****     for(i = 0; i < c->col_num; i++) {
 969              		.loc 1 488 0
 970 012a 0021     		movs	r1, #0
 487:Drivers/lvgl/lvgl/src/extra/layouts/grid/lv_grid.c ****     int32_t last_fr_x = 0;
 971              		.loc 1 487 0
 972 012c 4FF0FF3C 		mov	ip, #-1
 489:Drivers/lvgl/lvgl/src/extra/layouts/grid/lv_grid.c ****         lv_coord_t x = col_templ[i];
 973              		.loc 1 489 0
 974 0130 0B46     		mov	r3, r1
 975 0132 02E0     		b	.L72
 976              	.LVL161:
 977              	.L83:
 485:Drivers/lvgl/lvgl/src/extra/layouts/grid/lv_grid.c **** 
 978              		.loc 1 485 0
 979 0134 0026     		movs	r6, #0
 980              	.LVL162:
 981 0136 F8E7     		b	.L71
 982              	.LVL163:
 983              	.L73:
 489:Drivers/lvgl/lvgl/src/extra/layouts/grid/lv_grid.c ****         lv_coord_t x = col_templ[i];
 984              		.loc 1 489 0 discriminator 2
 985 0138 0133     		adds	r3, r3, #1
 986              	.LVL164:
 987              	.L72:
 489:Drivers/lvgl/lvgl/src/extra/layouts/grid/lv_grid.c ****         lv_coord_t x = col_templ[i];
 988              		.loc 1 489 0 is_stmt 0 discriminator 1
 989 013a 2269     		ldr	r2, [r4, #16]
 990 013c 9A42     		cmp	r2, r3
 991 013e 11D9     		bls	.L84
 992              	.LBB176:
 490:Drivers/lvgl/lvgl/src/extra/layouts/grid/lv_grid.c ****         if(IS_FR(x)) {
 993              		.loc 1 490 0 is_stmt 1
 994 0140 37F91320 		ldrsh	r2, [r7, r3, lsl #1]
 995              	.LVL165:
 491:Drivers/lvgl/lvgl/src/extra/layouts/grid/lv_grid.c ****             lv_coord_t f = GET_FR(x);
 996              		.loc 1 491 0
 997 0144 41F69A70 		movw	r0, #8090
 998 0148 8242     		cmp	r2, r0
 999 014a F5DD     		ble	.L73
 1000              	.LBB177:
 492:Drivers/lvgl/lvgl/src/extra/layouts/grid/lv_grid.c ****             c->w[i] = (free_w * f) / col_fr_cnt;
 1001              		.loc 1 492 0
 1002 014c 1149     		ldr	r1, .L85+16
 1003              	.LVL166:
 1004 014e 1144     		add	r1, r1, r2
 1005 0150 09B2     		sxth	r1, r1
 493:Drivers/lvgl/lvgl/src/extra/layouts/grid/lv_grid.c ****             last_fr_i = i;
 1006              		.loc 1 493 0
 1007 0152 01FB06F2 		mul	r2, r1, r6
 1008              	.LVL167:
 1009 0156 B2FBF5F2 		udiv	r2, r2, r5
 1010 015a A068     		ldr	r0, [r4, #8]
 1011 015c 20F81320 		strh	r2, [r0, r3, lsl #1]	@ movhi
 1012              	.LVL168:
 494:Drivers/lvgl/lvgl/src/extra/layouts/grid/lv_grid.c ****             last_fr_x = f;
 1013              		.loc 1 494 0
 1014 0160 9C46     		mov	ip, r3
ARM GAS  /tmp/ccFQgg33.s 			page 40


 1015              	.LVL169:
 1016 0162 E9E7     		b	.L73
 1017              	.LVL170:
 1018              	.L84:
 1019              	.LBE177:
 1020              	.LBE176:
 500:Drivers/lvgl/lvgl/src/extra/layouts/grid/lv_grid.c ****         c->w[last_fr_i] = free_w - ((free_w * (col_fr_cnt - last_fr_x)) / col_fr_cnt);
 1021              		.loc 1 500 0
 1022 0164 BCF1000F 		cmp	ip, #0
 1023 0168 08DB     		blt	.L58
 501:Drivers/lvgl/lvgl/src/extra/layouts/grid/lv_grid.c ****     }
 1024              		.loc 1 501 0
 1025 016a 691A     		subs	r1, r5, r1
 1026              	.LVL171:
 1027 016c 01FB06F1 		mul	r1, r1, r6
 1028 0170 B1FBF5F5 		udiv	r5, r1, r5
 1029              	.LVL172:
 1030 0174 A368     		ldr	r3, [r4, #8]
 1031              	.LVL173:
 1032 0176 751B     		subs	r5, r6, r5
 1033 0178 23F81C50 		strh	r5, [r3, ip, lsl #1]	@ movhi
 1034              	.L58:
 503:Drivers/lvgl/lvgl/src/extra/layouts/grid/lv_grid.c **** 
 1035              		.loc 1 503 0
 1036 017c 03B0     		add	sp, sp, #12
 1037              	.LCFI4:
 1038              		.cfi_def_cfa_offset 36
 1039              		@ sp needed
 1040 017e BDE8F08F 		pop	{r4, r5, r6, r7, r8, r9, r10, fp, pc}
 1041              	.LVL174:
 1042              	.L86:
 1043 0182 00BF     		.align	2
 1044              	.L85:
 1045 0184 00000000 		.word	LV_STYLE_GRID_COLUMN_DSC_ARRAY
 1046 0188 01000600 		.word	393217
 1047 018c 00000000 		.word	LV_STYLE_GRID_CELL_COLUMN_SPAN
 1048 0190 00000000 		.word	LV_STYLE_GRID_CELL_COLUMN_POS
 1049 0194 65E0FFFF 		.word	-8091
 1050 0198 01E0FFFF 		.word	-8191
 1051              		.cfi_endproc
 1052              	.LFE212:
 1054              		.section	.text.calc,"ax",%progbits
 1055              		.align	1
 1056              		.syntax unified
 1057              		.thumb
 1058              		.thumb_func
 1059              		.fpu fpv5-d16
 1061              	calc:
 1062              	.LFB210:
 392:Drivers/lvgl/lvgl/src/extra/layouts/grid/lv_grid.c ****     if(lv_obj_get_child(cont, 0) == NULL) {
 1063              		.loc 1 392 0
 1064              		.cfi_startproc
 1065              		@ args = 0, pretend = 0, frame = 0
 1066              		@ frame_needed = 0, uses_anonymous_args = 0
 1067              	.LVL175:
 1068 0000 2DE9F04F 		push	{r4, r5, r6, r7, r8, r9, r10, fp, lr}
 1069              	.LCFI5:
ARM GAS  /tmp/ccFQgg33.s 			page 41


 1070              		.cfi_def_cfa_offset 36
 1071              		.cfi_offset 4, -36
 1072              		.cfi_offset 5, -32
 1073              		.cfi_offset 6, -28
 1074              		.cfi_offset 7, -24
 1075              		.cfi_offset 8, -20
 1076              		.cfi_offset 9, -16
 1077              		.cfi_offset 10, -12
 1078              		.cfi_offset 11, -8
 1079              		.cfi_offset 14, -4
 1080 0004 85B0     		sub	sp, sp, #20
 1081              	.LCFI6:
 1082              		.cfi_def_cfa_offset 56
 1083 0006 0446     		mov	r4, r0
 1084 0008 0D46     		mov	r5, r1
 393:Drivers/lvgl/lvgl/src/extra/layouts/grid/lv_grid.c ****         lv_memset_00(calc_out, sizeof(_lv_grid_calc_t));
 1085              		.loc 1 393 0
 1086 000a 0021     		movs	r1, #0
 1087              	.LVL176:
 1088 000c FFF7FEFF 		bl	lv_obj_get_child
 1089              	.LVL177:
 1090 0010 0028     		cmp	r0, #0
 1091 0012 6AD0     		beq	.L97
 398:Drivers/lvgl/lvgl/src/extra/layouts/grid/lv_grid.c ****     calc_cols(cont, calc_out);
 1092              		.loc 1 398 0
 1093 0014 2946     		mov	r1, r5
 1094 0016 2046     		mov	r0, r4
 1095 0018 FFF7FEFF 		bl	calc_rows
 1096              	.LVL178:
 399:Drivers/lvgl/lvgl/src/extra/layouts/grid/lv_grid.c **** 
 1097              		.loc 1 399 0
 1098 001c 2946     		mov	r1, r5
 1099 001e 2046     		mov	r0, r4
 1100 0020 FFF7FEFF 		bl	calc_cols
 1101              	.LVL179:
 1102              	.LBB178:
 1103              	.LBB179:
 1104              		.loc 3 135 0
 1105 0024 1522     		movs	r2, #21
 1106 0026 0021     		movs	r1, #0
 1107 0028 2046     		mov	r0, r4
 1108 002a FFF7FEFF 		bl	lv_obj_get_style_prop
 1109              	.LVL180:
 136:Drivers/lvgl/lvgl/src/extra/layouts/grid/../flex/../../../core/lv_obj_style_gen.h ****     return (lv_coord_t)v.num;
 1110              		.loc 3 136 0
 1111 002e 0FFA80FB 		sxth	fp, r0
 1112              	.LVL181:
 1113              	.LBE179:
 1114              	.LBE178:
 1115              	.LBB180:
 1116              	.LBB181:
 129:Drivers/lvgl/lvgl/src/extra/layouts/grid/../flex/../../../core/lv_obj_style_gen.h ****     return (lv_coord_t)v.num;
 1117              		.loc 3 129 0
 1118 0032 1422     		movs	r2, #20
 1119 0034 0021     		movs	r1, #0
 1120 0036 2046     		mov	r0, r4
 1121 0038 FFF7FEFF 		bl	lv_obj_get_style_prop
ARM GAS  /tmp/ccFQgg33.s 			page 42


 1122              	.LVL182:
 130:Drivers/lvgl/lvgl/src/extra/layouts/grid/../flex/../../../core/lv_obj_style_gen.h **** }
 1123              		.loc 3 130 0
 1124 003c 0FFA80F8 		sxth	r8, r0
 1125              	.LVL183:
 1126              	.LBE181:
 1127              	.LBE180:
 1128              	.LBB182:
 1129              	.LBB183:
 137:Drivers/lvgl/lvgl/src/extra/layouts/grid/../flex/../../../core/lv_obj_style_gen.h **** }
 138:Drivers/lvgl/lvgl/src/extra/layouts/grid/../flex/../../../core/lv_obj_style_gen.h **** 
 139:Drivers/lvgl/lvgl/src/extra/layouts/grid/../flex/../../../core/lv_obj_style_gen.h **** static inline lv_color_t lv_obj_get_style_bg_color(const struct _lv_obj_t * obj, uint32_t part)
 140:Drivers/lvgl/lvgl/src/extra/layouts/grid/../flex/../../../core/lv_obj_style_gen.h **** {
 141:Drivers/lvgl/lvgl/src/extra/layouts/grid/../flex/../../../core/lv_obj_style_gen.h ****     lv_style_value_t v = lv_obj_get_style_prop(obj, part, LV_STYLE_BG_COLOR);
 142:Drivers/lvgl/lvgl/src/extra/layouts/grid/../flex/../../../core/lv_obj_style_gen.h ****     return v.color;
 143:Drivers/lvgl/lvgl/src/extra/layouts/grid/../flex/../../../core/lv_obj_style_gen.h **** }
 144:Drivers/lvgl/lvgl/src/extra/layouts/grid/../flex/../../../core/lv_obj_style_gen.h **** 
 145:Drivers/lvgl/lvgl/src/extra/layouts/grid/../flex/../../../core/lv_obj_style_gen.h **** static inline lv_color_t lv_obj_get_style_bg_color_filtered(const struct _lv_obj_t * obj, uint32_t 
 146:Drivers/lvgl/lvgl/src/extra/layouts/grid/../flex/../../../core/lv_obj_style_gen.h **** {
 147:Drivers/lvgl/lvgl/src/extra/layouts/grid/../flex/../../../core/lv_obj_style_gen.h ****     lv_style_value_t v = _lv_obj_style_apply_color_filter(obj, part, lv_obj_get_style_prop(obj, par
 148:Drivers/lvgl/lvgl/src/extra/layouts/grid/../flex/../../../core/lv_obj_style_gen.h ****     return v.color;
 149:Drivers/lvgl/lvgl/src/extra/layouts/grid/../flex/../../../core/lv_obj_style_gen.h **** }
 150:Drivers/lvgl/lvgl/src/extra/layouts/grid/../flex/../../../core/lv_obj_style_gen.h **** 
 151:Drivers/lvgl/lvgl/src/extra/layouts/grid/../flex/../../../core/lv_obj_style_gen.h **** static inline lv_opa_t lv_obj_get_style_bg_opa(const struct _lv_obj_t * obj, uint32_t part)
 152:Drivers/lvgl/lvgl/src/extra/layouts/grid/../flex/../../../core/lv_obj_style_gen.h **** {
 153:Drivers/lvgl/lvgl/src/extra/layouts/grid/../flex/../../../core/lv_obj_style_gen.h ****     lv_style_value_t v = lv_obj_get_style_prop(obj, part, LV_STYLE_BG_OPA);
 154:Drivers/lvgl/lvgl/src/extra/layouts/grid/../flex/../../../core/lv_obj_style_gen.h ****     return (lv_opa_t)v.num;
 155:Drivers/lvgl/lvgl/src/extra/layouts/grid/../flex/../../../core/lv_obj_style_gen.h **** }
 156:Drivers/lvgl/lvgl/src/extra/layouts/grid/../flex/../../../core/lv_obj_style_gen.h **** 
 157:Drivers/lvgl/lvgl/src/extra/layouts/grid/../flex/../../../core/lv_obj_style_gen.h **** static inline lv_color_t lv_obj_get_style_bg_grad_color(const struct _lv_obj_t * obj, uint32_t part
 158:Drivers/lvgl/lvgl/src/extra/layouts/grid/../flex/../../../core/lv_obj_style_gen.h **** {
 159:Drivers/lvgl/lvgl/src/extra/layouts/grid/../flex/../../../core/lv_obj_style_gen.h ****     lv_style_value_t v = lv_obj_get_style_prop(obj, part, LV_STYLE_BG_GRAD_COLOR);
 160:Drivers/lvgl/lvgl/src/extra/layouts/grid/../flex/../../../core/lv_obj_style_gen.h ****     return v.color;
 161:Drivers/lvgl/lvgl/src/extra/layouts/grid/../flex/../../../core/lv_obj_style_gen.h **** }
 162:Drivers/lvgl/lvgl/src/extra/layouts/grid/../flex/../../../core/lv_obj_style_gen.h **** 
 163:Drivers/lvgl/lvgl/src/extra/layouts/grid/../flex/../../../core/lv_obj_style_gen.h **** static inline lv_color_t lv_obj_get_style_bg_grad_color_filtered(const struct _lv_obj_t * obj, uint
 164:Drivers/lvgl/lvgl/src/extra/layouts/grid/../flex/../../../core/lv_obj_style_gen.h **** {
 165:Drivers/lvgl/lvgl/src/extra/layouts/grid/../flex/../../../core/lv_obj_style_gen.h ****     lv_style_value_t v = _lv_obj_style_apply_color_filter(obj, part, lv_obj_get_style_prop(obj, par
 166:Drivers/lvgl/lvgl/src/extra/layouts/grid/../flex/../../../core/lv_obj_style_gen.h ****     return v.color;
 167:Drivers/lvgl/lvgl/src/extra/layouts/grid/../flex/../../../core/lv_obj_style_gen.h **** }
 168:Drivers/lvgl/lvgl/src/extra/layouts/grid/../flex/../../../core/lv_obj_style_gen.h **** 
 169:Drivers/lvgl/lvgl/src/extra/layouts/grid/../flex/../../../core/lv_obj_style_gen.h **** static inline lv_grad_dir_t lv_obj_get_style_bg_grad_dir(const struct _lv_obj_t * obj, uint32_t par
 170:Drivers/lvgl/lvgl/src/extra/layouts/grid/../flex/../../../core/lv_obj_style_gen.h **** {
 171:Drivers/lvgl/lvgl/src/extra/layouts/grid/../flex/../../../core/lv_obj_style_gen.h ****     lv_style_value_t v = lv_obj_get_style_prop(obj, part, LV_STYLE_BG_GRAD_DIR);
 172:Drivers/lvgl/lvgl/src/extra/layouts/grid/../flex/../../../core/lv_obj_style_gen.h ****     return (lv_grad_dir_t)v.num;
 173:Drivers/lvgl/lvgl/src/extra/layouts/grid/../flex/../../../core/lv_obj_style_gen.h **** }
 174:Drivers/lvgl/lvgl/src/extra/layouts/grid/../flex/../../../core/lv_obj_style_gen.h **** 
 175:Drivers/lvgl/lvgl/src/extra/layouts/grid/../flex/../../../core/lv_obj_style_gen.h **** static inline lv_coord_t lv_obj_get_style_bg_main_stop(const struct _lv_obj_t * obj, uint32_t part)
 176:Drivers/lvgl/lvgl/src/extra/layouts/grid/../flex/../../../core/lv_obj_style_gen.h **** {
 177:Drivers/lvgl/lvgl/src/extra/layouts/grid/../flex/../../../core/lv_obj_style_gen.h ****     lv_style_value_t v = lv_obj_get_style_prop(obj, part, LV_STYLE_BG_MAIN_STOP);
 178:Drivers/lvgl/lvgl/src/extra/layouts/grid/../flex/../../../core/lv_obj_style_gen.h ****     return (lv_coord_t)v.num;
 179:Drivers/lvgl/lvgl/src/extra/layouts/grid/../flex/../../../core/lv_obj_style_gen.h **** }
 180:Drivers/lvgl/lvgl/src/extra/layouts/grid/../flex/../../../core/lv_obj_style_gen.h **** 
 181:Drivers/lvgl/lvgl/src/extra/layouts/grid/../flex/../../../core/lv_obj_style_gen.h **** static inline lv_coord_t lv_obj_get_style_bg_grad_stop(const struct _lv_obj_t * obj, uint32_t part)
 182:Drivers/lvgl/lvgl/src/extra/layouts/grid/../flex/../../../core/lv_obj_style_gen.h **** {
 183:Drivers/lvgl/lvgl/src/extra/layouts/grid/../flex/../../../core/lv_obj_style_gen.h ****     lv_style_value_t v = lv_obj_get_style_prop(obj, part, LV_STYLE_BG_GRAD_STOP);
 184:Drivers/lvgl/lvgl/src/extra/layouts/grid/../flex/../../../core/lv_obj_style_gen.h ****     return (lv_coord_t)v.num;
ARM GAS  /tmp/ccFQgg33.s 			page 43


 185:Drivers/lvgl/lvgl/src/extra/layouts/grid/../flex/../../../core/lv_obj_style_gen.h **** }
 186:Drivers/lvgl/lvgl/src/extra/layouts/grid/../flex/../../../core/lv_obj_style_gen.h **** 
 187:Drivers/lvgl/lvgl/src/extra/layouts/grid/../flex/../../../core/lv_obj_style_gen.h **** static inline const lv_grad_dsc_t * lv_obj_get_style_bg_grad(const struct _lv_obj_t * obj, uint32_t
 188:Drivers/lvgl/lvgl/src/extra/layouts/grid/../flex/../../../core/lv_obj_style_gen.h **** {
 189:Drivers/lvgl/lvgl/src/extra/layouts/grid/../flex/../../../core/lv_obj_style_gen.h ****     lv_style_value_t v = lv_obj_get_style_prop(obj, part, LV_STYLE_BG_GRAD);
 190:Drivers/lvgl/lvgl/src/extra/layouts/grid/../flex/../../../core/lv_obj_style_gen.h ****     return (const lv_grad_dsc_t *)v.ptr;
 191:Drivers/lvgl/lvgl/src/extra/layouts/grid/../flex/../../../core/lv_obj_style_gen.h **** }
 192:Drivers/lvgl/lvgl/src/extra/layouts/grid/../flex/../../../core/lv_obj_style_gen.h **** 
 193:Drivers/lvgl/lvgl/src/extra/layouts/grid/../flex/../../../core/lv_obj_style_gen.h **** static inline lv_dither_mode_t lv_obj_get_style_bg_dither_mode(const struct _lv_obj_t * obj, uint32
 194:Drivers/lvgl/lvgl/src/extra/layouts/grid/../flex/../../../core/lv_obj_style_gen.h **** {
 195:Drivers/lvgl/lvgl/src/extra/layouts/grid/../flex/../../../core/lv_obj_style_gen.h ****     lv_style_value_t v = lv_obj_get_style_prop(obj, part, LV_STYLE_BG_DITHER_MODE);
 196:Drivers/lvgl/lvgl/src/extra/layouts/grid/../flex/../../../core/lv_obj_style_gen.h ****     return (lv_dither_mode_t)v.num;
 197:Drivers/lvgl/lvgl/src/extra/layouts/grid/../flex/../../../core/lv_obj_style_gen.h **** }
 198:Drivers/lvgl/lvgl/src/extra/layouts/grid/../flex/../../../core/lv_obj_style_gen.h **** 
 199:Drivers/lvgl/lvgl/src/extra/layouts/grid/../flex/../../../core/lv_obj_style_gen.h **** static inline const void * lv_obj_get_style_bg_img_src(const struct _lv_obj_t * obj, uint32_t part)
 200:Drivers/lvgl/lvgl/src/extra/layouts/grid/../flex/../../../core/lv_obj_style_gen.h **** {
 201:Drivers/lvgl/lvgl/src/extra/layouts/grid/../flex/../../../core/lv_obj_style_gen.h ****     lv_style_value_t v = lv_obj_get_style_prop(obj, part, LV_STYLE_BG_IMG_SRC);
 202:Drivers/lvgl/lvgl/src/extra/layouts/grid/../flex/../../../core/lv_obj_style_gen.h ****     return (const void *)v.ptr;
 203:Drivers/lvgl/lvgl/src/extra/layouts/grid/../flex/../../../core/lv_obj_style_gen.h **** }
 204:Drivers/lvgl/lvgl/src/extra/layouts/grid/../flex/../../../core/lv_obj_style_gen.h **** 
 205:Drivers/lvgl/lvgl/src/extra/layouts/grid/../flex/../../../core/lv_obj_style_gen.h **** static inline lv_opa_t lv_obj_get_style_bg_img_opa(const struct _lv_obj_t * obj, uint32_t part)
 206:Drivers/lvgl/lvgl/src/extra/layouts/grid/../flex/../../../core/lv_obj_style_gen.h **** {
 207:Drivers/lvgl/lvgl/src/extra/layouts/grid/../flex/../../../core/lv_obj_style_gen.h ****     lv_style_value_t v = lv_obj_get_style_prop(obj, part, LV_STYLE_BG_IMG_OPA);
 208:Drivers/lvgl/lvgl/src/extra/layouts/grid/../flex/../../../core/lv_obj_style_gen.h ****     return (lv_opa_t)v.num;
 209:Drivers/lvgl/lvgl/src/extra/layouts/grid/../flex/../../../core/lv_obj_style_gen.h **** }
 210:Drivers/lvgl/lvgl/src/extra/layouts/grid/../flex/../../../core/lv_obj_style_gen.h **** 
 211:Drivers/lvgl/lvgl/src/extra/layouts/grid/../flex/../../../core/lv_obj_style_gen.h **** static inline lv_color_t lv_obj_get_style_bg_img_recolor(const struct _lv_obj_t * obj, uint32_t par
 212:Drivers/lvgl/lvgl/src/extra/layouts/grid/../flex/../../../core/lv_obj_style_gen.h **** {
 213:Drivers/lvgl/lvgl/src/extra/layouts/grid/../flex/../../../core/lv_obj_style_gen.h ****     lv_style_value_t v = lv_obj_get_style_prop(obj, part, LV_STYLE_BG_IMG_RECOLOR);
 214:Drivers/lvgl/lvgl/src/extra/layouts/grid/../flex/../../../core/lv_obj_style_gen.h ****     return v.color;
 215:Drivers/lvgl/lvgl/src/extra/layouts/grid/../flex/../../../core/lv_obj_style_gen.h **** }
 216:Drivers/lvgl/lvgl/src/extra/layouts/grid/../flex/../../../core/lv_obj_style_gen.h **** 
 217:Drivers/lvgl/lvgl/src/extra/layouts/grid/../flex/../../../core/lv_obj_style_gen.h **** static inline lv_color_t lv_obj_get_style_bg_img_recolor_filtered(const struct _lv_obj_t * obj, uin
 218:Drivers/lvgl/lvgl/src/extra/layouts/grid/../flex/../../../core/lv_obj_style_gen.h **** {
 219:Drivers/lvgl/lvgl/src/extra/layouts/grid/../flex/../../../core/lv_obj_style_gen.h ****     lv_style_value_t v = _lv_obj_style_apply_color_filter(obj, part, lv_obj_get_style_prop(obj, par
 220:Drivers/lvgl/lvgl/src/extra/layouts/grid/../flex/../../../core/lv_obj_style_gen.h ****     return v.color;
 221:Drivers/lvgl/lvgl/src/extra/layouts/grid/../flex/../../../core/lv_obj_style_gen.h **** }
 222:Drivers/lvgl/lvgl/src/extra/layouts/grid/../flex/../../../core/lv_obj_style_gen.h **** 
 223:Drivers/lvgl/lvgl/src/extra/layouts/grid/../flex/../../../core/lv_obj_style_gen.h **** static inline lv_opa_t lv_obj_get_style_bg_img_recolor_opa(const struct _lv_obj_t * obj, uint32_t p
 224:Drivers/lvgl/lvgl/src/extra/layouts/grid/../flex/../../../core/lv_obj_style_gen.h **** {
 225:Drivers/lvgl/lvgl/src/extra/layouts/grid/../flex/../../../core/lv_obj_style_gen.h ****     lv_style_value_t v = lv_obj_get_style_prop(obj, part, LV_STYLE_BG_IMG_RECOLOR_OPA);
 226:Drivers/lvgl/lvgl/src/extra/layouts/grid/../flex/../../../core/lv_obj_style_gen.h ****     return (lv_opa_t)v.num;
 227:Drivers/lvgl/lvgl/src/extra/layouts/grid/../flex/../../../core/lv_obj_style_gen.h **** }
 228:Drivers/lvgl/lvgl/src/extra/layouts/grid/../flex/../../../core/lv_obj_style_gen.h **** 
 229:Drivers/lvgl/lvgl/src/extra/layouts/grid/../flex/../../../core/lv_obj_style_gen.h **** static inline bool lv_obj_get_style_bg_img_tiled(const struct _lv_obj_t * obj, uint32_t part)
 230:Drivers/lvgl/lvgl/src/extra/layouts/grid/../flex/../../../core/lv_obj_style_gen.h **** {
 231:Drivers/lvgl/lvgl/src/extra/layouts/grid/../flex/../../../core/lv_obj_style_gen.h ****     lv_style_value_t v = lv_obj_get_style_prop(obj, part, LV_STYLE_BG_IMG_TILED);
 232:Drivers/lvgl/lvgl/src/extra/layouts/grid/../flex/../../../core/lv_obj_style_gen.h ****     return (bool)v.num;
 233:Drivers/lvgl/lvgl/src/extra/layouts/grid/../flex/../../../core/lv_obj_style_gen.h **** }
 234:Drivers/lvgl/lvgl/src/extra/layouts/grid/../flex/../../../core/lv_obj_style_gen.h **** 
 235:Drivers/lvgl/lvgl/src/extra/layouts/grid/../flex/../../../core/lv_obj_style_gen.h **** static inline lv_color_t lv_obj_get_style_border_color(const struct _lv_obj_t * obj, uint32_t part)
 236:Drivers/lvgl/lvgl/src/extra/layouts/grid/../flex/../../../core/lv_obj_style_gen.h **** {
 237:Drivers/lvgl/lvgl/src/extra/layouts/grid/../flex/../../../core/lv_obj_style_gen.h ****     lv_style_value_t v = lv_obj_get_style_prop(obj, part, LV_STYLE_BORDER_COLOR);
 238:Drivers/lvgl/lvgl/src/extra/layouts/grid/../flex/../../../core/lv_obj_style_gen.h ****     return v.color;
 239:Drivers/lvgl/lvgl/src/extra/layouts/grid/../flex/../../../core/lv_obj_style_gen.h **** }
 240:Drivers/lvgl/lvgl/src/extra/layouts/grid/../flex/../../../core/lv_obj_style_gen.h **** 
 241:Drivers/lvgl/lvgl/src/extra/layouts/grid/../flex/../../../core/lv_obj_style_gen.h **** static inline lv_color_t lv_obj_get_style_border_color_filtered(const struct _lv_obj_t * obj, uint3
ARM GAS  /tmp/ccFQgg33.s 			page 44


 242:Drivers/lvgl/lvgl/src/extra/layouts/grid/../flex/../../../core/lv_obj_style_gen.h **** {
 243:Drivers/lvgl/lvgl/src/extra/layouts/grid/../flex/../../../core/lv_obj_style_gen.h ****     lv_style_value_t v = _lv_obj_style_apply_color_filter(obj, part, lv_obj_get_style_prop(obj, par
 244:Drivers/lvgl/lvgl/src/extra/layouts/grid/../flex/../../../core/lv_obj_style_gen.h ****     return v.color;
 245:Drivers/lvgl/lvgl/src/extra/layouts/grid/../flex/../../../core/lv_obj_style_gen.h **** }
 246:Drivers/lvgl/lvgl/src/extra/layouts/grid/../flex/../../../core/lv_obj_style_gen.h **** 
 247:Drivers/lvgl/lvgl/src/extra/layouts/grid/../flex/../../../core/lv_obj_style_gen.h **** static inline lv_opa_t lv_obj_get_style_border_opa(const struct _lv_obj_t * obj, uint32_t part)
 248:Drivers/lvgl/lvgl/src/extra/layouts/grid/../flex/../../../core/lv_obj_style_gen.h **** {
 249:Drivers/lvgl/lvgl/src/extra/layouts/grid/../flex/../../../core/lv_obj_style_gen.h ****     lv_style_value_t v = lv_obj_get_style_prop(obj, part, LV_STYLE_BORDER_OPA);
 250:Drivers/lvgl/lvgl/src/extra/layouts/grid/../flex/../../../core/lv_obj_style_gen.h ****     return (lv_opa_t)v.num;
 251:Drivers/lvgl/lvgl/src/extra/layouts/grid/../flex/../../../core/lv_obj_style_gen.h **** }
 252:Drivers/lvgl/lvgl/src/extra/layouts/grid/../flex/../../../core/lv_obj_style_gen.h **** 
 253:Drivers/lvgl/lvgl/src/extra/layouts/grid/../flex/../../../core/lv_obj_style_gen.h **** static inline lv_coord_t lv_obj_get_style_border_width(const struct _lv_obj_t * obj, uint32_t part)
 254:Drivers/lvgl/lvgl/src/extra/layouts/grid/../flex/../../../core/lv_obj_style_gen.h **** {
 255:Drivers/lvgl/lvgl/src/extra/layouts/grid/../flex/../../../core/lv_obj_style_gen.h ****     lv_style_value_t v = lv_obj_get_style_prop(obj, part, LV_STYLE_BORDER_WIDTH);
 256:Drivers/lvgl/lvgl/src/extra/layouts/grid/../flex/../../../core/lv_obj_style_gen.h ****     return (lv_coord_t)v.num;
 257:Drivers/lvgl/lvgl/src/extra/layouts/grid/../flex/../../../core/lv_obj_style_gen.h **** }
 258:Drivers/lvgl/lvgl/src/extra/layouts/grid/../flex/../../../core/lv_obj_style_gen.h **** 
 259:Drivers/lvgl/lvgl/src/extra/layouts/grid/../flex/../../../core/lv_obj_style_gen.h **** static inline lv_border_side_t lv_obj_get_style_border_side(const struct _lv_obj_t * obj, uint32_t 
 260:Drivers/lvgl/lvgl/src/extra/layouts/grid/../flex/../../../core/lv_obj_style_gen.h **** {
 261:Drivers/lvgl/lvgl/src/extra/layouts/grid/../flex/../../../core/lv_obj_style_gen.h ****     lv_style_value_t v = lv_obj_get_style_prop(obj, part, LV_STYLE_BORDER_SIDE);
 262:Drivers/lvgl/lvgl/src/extra/layouts/grid/../flex/../../../core/lv_obj_style_gen.h ****     return (lv_border_side_t)v.num;
 263:Drivers/lvgl/lvgl/src/extra/layouts/grid/../flex/../../../core/lv_obj_style_gen.h **** }
 264:Drivers/lvgl/lvgl/src/extra/layouts/grid/../flex/../../../core/lv_obj_style_gen.h **** 
 265:Drivers/lvgl/lvgl/src/extra/layouts/grid/../flex/../../../core/lv_obj_style_gen.h **** static inline bool lv_obj_get_style_border_post(const struct _lv_obj_t * obj, uint32_t part)
 266:Drivers/lvgl/lvgl/src/extra/layouts/grid/../flex/../../../core/lv_obj_style_gen.h **** {
 267:Drivers/lvgl/lvgl/src/extra/layouts/grid/../flex/../../../core/lv_obj_style_gen.h ****     lv_style_value_t v = lv_obj_get_style_prop(obj, part, LV_STYLE_BORDER_POST);
 268:Drivers/lvgl/lvgl/src/extra/layouts/grid/../flex/../../../core/lv_obj_style_gen.h ****     return (bool)v.num;
 269:Drivers/lvgl/lvgl/src/extra/layouts/grid/../flex/../../../core/lv_obj_style_gen.h **** }
 270:Drivers/lvgl/lvgl/src/extra/layouts/grid/../flex/../../../core/lv_obj_style_gen.h **** 
 271:Drivers/lvgl/lvgl/src/extra/layouts/grid/../flex/../../../core/lv_obj_style_gen.h **** static inline lv_coord_t lv_obj_get_style_outline_width(const struct _lv_obj_t * obj, uint32_t part
 272:Drivers/lvgl/lvgl/src/extra/layouts/grid/../flex/../../../core/lv_obj_style_gen.h **** {
 273:Drivers/lvgl/lvgl/src/extra/layouts/grid/../flex/../../../core/lv_obj_style_gen.h ****     lv_style_value_t v = lv_obj_get_style_prop(obj, part, LV_STYLE_OUTLINE_WIDTH);
 274:Drivers/lvgl/lvgl/src/extra/layouts/grid/../flex/../../../core/lv_obj_style_gen.h ****     return (lv_coord_t)v.num;
 275:Drivers/lvgl/lvgl/src/extra/layouts/grid/../flex/../../../core/lv_obj_style_gen.h **** }
 276:Drivers/lvgl/lvgl/src/extra/layouts/grid/../flex/../../../core/lv_obj_style_gen.h **** 
 277:Drivers/lvgl/lvgl/src/extra/layouts/grid/../flex/../../../core/lv_obj_style_gen.h **** static inline lv_color_t lv_obj_get_style_outline_color(const struct _lv_obj_t * obj, uint32_t part
 278:Drivers/lvgl/lvgl/src/extra/layouts/grid/../flex/../../../core/lv_obj_style_gen.h **** {
 279:Drivers/lvgl/lvgl/src/extra/layouts/grid/../flex/../../../core/lv_obj_style_gen.h ****     lv_style_value_t v = lv_obj_get_style_prop(obj, part, LV_STYLE_OUTLINE_COLOR);
 280:Drivers/lvgl/lvgl/src/extra/layouts/grid/../flex/../../../core/lv_obj_style_gen.h ****     return v.color;
 281:Drivers/lvgl/lvgl/src/extra/layouts/grid/../flex/../../../core/lv_obj_style_gen.h **** }
 282:Drivers/lvgl/lvgl/src/extra/layouts/grid/../flex/../../../core/lv_obj_style_gen.h **** 
 283:Drivers/lvgl/lvgl/src/extra/layouts/grid/../flex/../../../core/lv_obj_style_gen.h **** static inline lv_color_t lv_obj_get_style_outline_color_filtered(const struct _lv_obj_t * obj, uint
 284:Drivers/lvgl/lvgl/src/extra/layouts/grid/../flex/../../../core/lv_obj_style_gen.h **** {
 285:Drivers/lvgl/lvgl/src/extra/layouts/grid/../flex/../../../core/lv_obj_style_gen.h ****     lv_style_value_t v = _lv_obj_style_apply_color_filter(obj, part, lv_obj_get_style_prop(obj, par
 286:Drivers/lvgl/lvgl/src/extra/layouts/grid/../flex/../../../core/lv_obj_style_gen.h ****     return v.color;
 287:Drivers/lvgl/lvgl/src/extra/layouts/grid/../flex/../../../core/lv_obj_style_gen.h **** }
 288:Drivers/lvgl/lvgl/src/extra/layouts/grid/../flex/../../../core/lv_obj_style_gen.h **** 
 289:Drivers/lvgl/lvgl/src/extra/layouts/grid/../flex/../../../core/lv_obj_style_gen.h **** static inline lv_opa_t lv_obj_get_style_outline_opa(const struct _lv_obj_t * obj, uint32_t part)
 290:Drivers/lvgl/lvgl/src/extra/layouts/grid/../flex/../../../core/lv_obj_style_gen.h **** {
 291:Drivers/lvgl/lvgl/src/extra/layouts/grid/../flex/../../../core/lv_obj_style_gen.h ****     lv_style_value_t v = lv_obj_get_style_prop(obj, part, LV_STYLE_OUTLINE_OPA);
 292:Drivers/lvgl/lvgl/src/extra/layouts/grid/../flex/../../../core/lv_obj_style_gen.h ****     return (lv_opa_t)v.num;
 293:Drivers/lvgl/lvgl/src/extra/layouts/grid/../flex/../../../core/lv_obj_style_gen.h **** }
 294:Drivers/lvgl/lvgl/src/extra/layouts/grid/../flex/../../../core/lv_obj_style_gen.h **** 
 295:Drivers/lvgl/lvgl/src/extra/layouts/grid/../flex/../../../core/lv_obj_style_gen.h **** static inline lv_coord_t lv_obj_get_style_outline_pad(const struct _lv_obj_t * obj, uint32_t part)
 296:Drivers/lvgl/lvgl/src/extra/layouts/grid/../flex/../../../core/lv_obj_style_gen.h **** {
 297:Drivers/lvgl/lvgl/src/extra/layouts/grid/../flex/../../../core/lv_obj_style_gen.h ****     lv_style_value_t v = lv_obj_get_style_prop(obj, part, LV_STYLE_OUTLINE_PAD);
 298:Drivers/lvgl/lvgl/src/extra/layouts/grid/../flex/../../../core/lv_obj_style_gen.h ****     return (lv_coord_t)v.num;
ARM GAS  /tmp/ccFQgg33.s 			page 45


 299:Drivers/lvgl/lvgl/src/extra/layouts/grid/../flex/../../../core/lv_obj_style_gen.h **** }
 300:Drivers/lvgl/lvgl/src/extra/layouts/grid/../flex/../../../core/lv_obj_style_gen.h **** 
 301:Drivers/lvgl/lvgl/src/extra/layouts/grid/../flex/../../../core/lv_obj_style_gen.h **** static inline lv_coord_t lv_obj_get_style_shadow_width(const struct _lv_obj_t * obj, uint32_t part)
 302:Drivers/lvgl/lvgl/src/extra/layouts/grid/../flex/../../../core/lv_obj_style_gen.h **** {
 303:Drivers/lvgl/lvgl/src/extra/layouts/grid/../flex/../../../core/lv_obj_style_gen.h ****     lv_style_value_t v = lv_obj_get_style_prop(obj, part, LV_STYLE_SHADOW_WIDTH);
 304:Drivers/lvgl/lvgl/src/extra/layouts/grid/../flex/../../../core/lv_obj_style_gen.h ****     return (lv_coord_t)v.num;
 305:Drivers/lvgl/lvgl/src/extra/layouts/grid/../flex/../../../core/lv_obj_style_gen.h **** }
 306:Drivers/lvgl/lvgl/src/extra/layouts/grid/../flex/../../../core/lv_obj_style_gen.h **** 
 307:Drivers/lvgl/lvgl/src/extra/layouts/grid/../flex/../../../core/lv_obj_style_gen.h **** static inline lv_coord_t lv_obj_get_style_shadow_ofs_x(const struct _lv_obj_t * obj, uint32_t part)
 308:Drivers/lvgl/lvgl/src/extra/layouts/grid/../flex/../../../core/lv_obj_style_gen.h **** {
 309:Drivers/lvgl/lvgl/src/extra/layouts/grid/../flex/../../../core/lv_obj_style_gen.h ****     lv_style_value_t v = lv_obj_get_style_prop(obj, part, LV_STYLE_SHADOW_OFS_X);
 310:Drivers/lvgl/lvgl/src/extra/layouts/grid/../flex/../../../core/lv_obj_style_gen.h ****     return (lv_coord_t)v.num;
 311:Drivers/lvgl/lvgl/src/extra/layouts/grid/../flex/../../../core/lv_obj_style_gen.h **** }
 312:Drivers/lvgl/lvgl/src/extra/layouts/grid/../flex/../../../core/lv_obj_style_gen.h **** 
 313:Drivers/lvgl/lvgl/src/extra/layouts/grid/../flex/../../../core/lv_obj_style_gen.h **** static inline lv_coord_t lv_obj_get_style_shadow_ofs_y(const struct _lv_obj_t * obj, uint32_t part)
 314:Drivers/lvgl/lvgl/src/extra/layouts/grid/../flex/../../../core/lv_obj_style_gen.h **** {
 315:Drivers/lvgl/lvgl/src/extra/layouts/grid/../flex/../../../core/lv_obj_style_gen.h ****     lv_style_value_t v = lv_obj_get_style_prop(obj, part, LV_STYLE_SHADOW_OFS_Y);
 316:Drivers/lvgl/lvgl/src/extra/layouts/grid/../flex/../../../core/lv_obj_style_gen.h ****     return (lv_coord_t)v.num;
 317:Drivers/lvgl/lvgl/src/extra/layouts/grid/../flex/../../../core/lv_obj_style_gen.h **** }
 318:Drivers/lvgl/lvgl/src/extra/layouts/grid/../flex/../../../core/lv_obj_style_gen.h **** 
 319:Drivers/lvgl/lvgl/src/extra/layouts/grid/../flex/../../../core/lv_obj_style_gen.h **** static inline lv_coord_t lv_obj_get_style_shadow_spread(const struct _lv_obj_t * obj, uint32_t part
 320:Drivers/lvgl/lvgl/src/extra/layouts/grid/../flex/../../../core/lv_obj_style_gen.h **** {
 321:Drivers/lvgl/lvgl/src/extra/layouts/grid/../flex/../../../core/lv_obj_style_gen.h ****     lv_style_value_t v = lv_obj_get_style_prop(obj, part, LV_STYLE_SHADOW_SPREAD);
 322:Drivers/lvgl/lvgl/src/extra/layouts/grid/../flex/../../../core/lv_obj_style_gen.h ****     return (lv_coord_t)v.num;
 323:Drivers/lvgl/lvgl/src/extra/layouts/grid/../flex/../../../core/lv_obj_style_gen.h **** }
 324:Drivers/lvgl/lvgl/src/extra/layouts/grid/../flex/../../../core/lv_obj_style_gen.h **** 
 325:Drivers/lvgl/lvgl/src/extra/layouts/grid/../flex/../../../core/lv_obj_style_gen.h **** static inline lv_color_t lv_obj_get_style_shadow_color(const struct _lv_obj_t * obj, uint32_t part)
 326:Drivers/lvgl/lvgl/src/extra/layouts/grid/../flex/../../../core/lv_obj_style_gen.h **** {
 327:Drivers/lvgl/lvgl/src/extra/layouts/grid/../flex/../../../core/lv_obj_style_gen.h ****     lv_style_value_t v = lv_obj_get_style_prop(obj, part, LV_STYLE_SHADOW_COLOR);
 328:Drivers/lvgl/lvgl/src/extra/layouts/grid/../flex/../../../core/lv_obj_style_gen.h ****     return v.color;
 329:Drivers/lvgl/lvgl/src/extra/layouts/grid/../flex/../../../core/lv_obj_style_gen.h **** }
 330:Drivers/lvgl/lvgl/src/extra/layouts/grid/../flex/../../../core/lv_obj_style_gen.h **** 
 331:Drivers/lvgl/lvgl/src/extra/layouts/grid/../flex/../../../core/lv_obj_style_gen.h **** static inline lv_color_t lv_obj_get_style_shadow_color_filtered(const struct _lv_obj_t * obj, uint3
 332:Drivers/lvgl/lvgl/src/extra/layouts/grid/../flex/../../../core/lv_obj_style_gen.h **** {
 333:Drivers/lvgl/lvgl/src/extra/layouts/grid/../flex/../../../core/lv_obj_style_gen.h ****     lv_style_value_t v = _lv_obj_style_apply_color_filter(obj, part, lv_obj_get_style_prop(obj, par
 334:Drivers/lvgl/lvgl/src/extra/layouts/grid/../flex/../../../core/lv_obj_style_gen.h ****     return v.color;
 335:Drivers/lvgl/lvgl/src/extra/layouts/grid/../flex/../../../core/lv_obj_style_gen.h **** }
 336:Drivers/lvgl/lvgl/src/extra/layouts/grid/../flex/../../../core/lv_obj_style_gen.h **** 
 337:Drivers/lvgl/lvgl/src/extra/layouts/grid/../flex/../../../core/lv_obj_style_gen.h **** static inline lv_opa_t lv_obj_get_style_shadow_opa(const struct _lv_obj_t * obj, uint32_t part)
 338:Drivers/lvgl/lvgl/src/extra/layouts/grid/../flex/../../../core/lv_obj_style_gen.h **** {
 339:Drivers/lvgl/lvgl/src/extra/layouts/grid/../flex/../../../core/lv_obj_style_gen.h ****     lv_style_value_t v = lv_obj_get_style_prop(obj, part, LV_STYLE_SHADOW_OPA);
 340:Drivers/lvgl/lvgl/src/extra/layouts/grid/../flex/../../../core/lv_obj_style_gen.h ****     return (lv_opa_t)v.num;
 341:Drivers/lvgl/lvgl/src/extra/layouts/grid/../flex/../../../core/lv_obj_style_gen.h **** }
 342:Drivers/lvgl/lvgl/src/extra/layouts/grid/../flex/../../../core/lv_obj_style_gen.h **** 
 343:Drivers/lvgl/lvgl/src/extra/layouts/grid/../flex/../../../core/lv_obj_style_gen.h **** static inline lv_opa_t lv_obj_get_style_img_opa(const struct _lv_obj_t * obj, uint32_t part)
 344:Drivers/lvgl/lvgl/src/extra/layouts/grid/../flex/../../../core/lv_obj_style_gen.h **** {
 345:Drivers/lvgl/lvgl/src/extra/layouts/grid/../flex/../../../core/lv_obj_style_gen.h ****     lv_style_value_t v = lv_obj_get_style_prop(obj, part, LV_STYLE_IMG_OPA);
 346:Drivers/lvgl/lvgl/src/extra/layouts/grid/../flex/../../../core/lv_obj_style_gen.h ****     return (lv_opa_t)v.num;
 347:Drivers/lvgl/lvgl/src/extra/layouts/grid/../flex/../../../core/lv_obj_style_gen.h **** }
 348:Drivers/lvgl/lvgl/src/extra/layouts/grid/../flex/../../../core/lv_obj_style_gen.h **** 
 349:Drivers/lvgl/lvgl/src/extra/layouts/grid/../flex/../../../core/lv_obj_style_gen.h **** static inline lv_color_t lv_obj_get_style_img_recolor(const struct _lv_obj_t * obj, uint32_t part)
 350:Drivers/lvgl/lvgl/src/extra/layouts/grid/../flex/../../../core/lv_obj_style_gen.h **** {
 351:Drivers/lvgl/lvgl/src/extra/layouts/grid/../flex/../../../core/lv_obj_style_gen.h ****     lv_style_value_t v = lv_obj_get_style_prop(obj, part, LV_STYLE_IMG_RECOLOR);
 352:Drivers/lvgl/lvgl/src/extra/layouts/grid/../flex/../../../core/lv_obj_style_gen.h ****     return v.color;
 353:Drivers/lvgl/lvgl/src/extra/layouts/grid/../flex/../../../core/lv_obj_style_gen.h **** }
 354:Drivers/lvgl/lvgl/src/extra/layouts/grid/../flex/../../../core/lv_obj_style_gen.h **** 
 355:Drivers/lvgl/lvgl/src/extra/layouts/grid/../flex/../../../core/lv_obj_style_gen.h **** static inline lv_color_t lv_obj_get_style_img_recolor_filtered(const struct _lv_obj_t * obj, uint32
ARM GAS  /tmp/ccFQgg33.s 			page 46


 356:Drivers/lvgl/lvgl/src/extra/layouts/grid/../flex/../../../core/lv_obj_style_gen.h **** {
 357:Drivers/lvgl/lvgl/src/extra/layouts/grid/../flex/../../../core/lv_obj_style_gen.h ****     lv_style_value_t v = _lv_obj_style_apply_color_filter(obj, part, lv_obj_get_style_prop(obj, par
 358:Drivers/lvgl/lvgl/src/extra/layouts/grid/../flex/../../../core/lv_obj_style_gen.h ****     return v.color;
 359:Drivers/lvgl/lvgl/src/extra/layouts/grid/../flex/../../../core/lv_obj_style_gen.h **** }
 360:Drivers/lvgl/lvgl/src/extra/layouts/grid/../flex/../../../core/lv_obj_style_gen.h **** 
 361:Drivers/lvgl/lvgl/src/extra/layouts/grid/../flex/../../../core/lv_obj_style_gen.h **** static inline lv_opa_t lv_obj_get_style_img_recolor_opa(const struct _lv_obj_t * obj, uint32_t part
 362:Drivers/lvgl/lvgl/src/extra/layouts/grid/../flex/../../../core/lv_obj_style_gen.h **** {
 363:Drivers/lvgl/lvgl/src/extra/layouts/grid/../flex/../../../core/lv_obj_style_gen.h ****     lv_style_value_t v = lv_obj_get_style_prop(obj, part, LV_STYLE_IMG_RECOLOR_OPA);
 364:Drivers/lvgl/lvgl/src/extra/layouts/grid/../flex/../../../core/lv_obj_style_gen.h ****     return (lv_opa_t)v.num;
 365:Drivers/lvgl/lvgl/src/extra/layouts/grid/../flex/../../../core/lv_obj_style_gen.h **** }
 366:Drivers/lvgl/lvgl/src/extra/layouts/grid/../flex/../../../core/lv_obj_style_gen.h **** 
 367:Drivers/lvgl/lvgl/src/extra/layouts/grid/../flex/../../../core/lv_obj_style_gen.h **** static inline lv_coord_t lv_obj_get_style_line_width(const struct _lv_obj_t * obj, uint32_t part)
 368:Drivers/lvgl/lvgl/src/extra/layouts/grid/../flex/../../../core/lv_obj_style_gen.h **** {
 369:Drivers/lvgl/lvgl/src/extra/layouts/grid/../flex/../../../core/lv_obj_style_gen.h ****     lv_style_value_t v = lv_obj_get_style_prop(obj, part, LV_STYLE_LINE_WIDTH);
 370:Drivers/lvgl/lvgl/src/extra/layouts/grid/../flex/../../../core/lv_obj_style_gen.h ****     return (lv_coord_t)v.num;
 371:Drivers/lvgl/lvgl/src/extra/layouts/grid/../flex/../../../core/lv_obj_style_gen.h **** }
 372:Drivers/lvgl/lvgl/src/extra/layouts/grid/../flex/../../../core/lv_obj_style_gen.h **** 
 373:Drivers/lvgl/lvgl/src/extra/layouts/grid/../flex/../../../core/lv_obj_style_gen.h **** static inline lv_coord_t lv_obj_get_style_line_dash_width(const struct _lv_obj_t * obj, uint32_t pa
 374:Drivers/lvgl/lvgl/src/extra/layouts/grid/../flex/../../../core/lv_obj_style_gen.h **** {
 375:Drivers/lvgl/lvgl/src/extra/layouts/grid/../flex/../../../core/lv_obj_style_gen.h ****     lv_style_value_t v = lv_obj_get_style_prop(obj, part, LV_STYLE_LINE_DASH_WIDTH);
 376:Drivers/lvgl/lvgl/src/extra/layouts/grid/../flex/../../../core/lv_obj_style_gen.h ****     return (lv_coord_t)v.num;
 377:Drivers/lvgl/lvgl/src/extra/layouts/grid/../flex/../../../core/lv_obj_style_gen.h **** }
 378:Drivers/lvgl/lvgl/src/extra/layouts/grid/../flex/../../../core/lv_obj_style_gen.h **** 
 379:Drivers/lvgl/lvgl/src/extra/layouts/grid/../flex/../../../core/lv_obj_style_gen.h **** static inline lv_coord_t lv_obj_get_style_line_dash_gap(const struct _lv_obj_t * obj, uint32_t part
 380:Drivers/lvgl/lvgl/src/extra/layouts/grid/../flex/../../../core/lv_obj_style_gen.h **** {
 381:Drivers/lvgl/lvgl/src/extra/layouts/grid/../flex/../../../core/lv_obj_style_gen.h ****     lv_style_value_t v = lv_obj_get_style_prop(obj, part, LV_STYLE_LINE_DASH_GAP);
 382:Drivers/lvgl/lvgl/src/extra/layouts/grid/../flex/../../../core/lv_obj_style_gen.h ****     return (lv_coord_t)v.num;
 383:Drivers/lvgl/lvgl/src/extra/layouts/grid/../flex/../../../core/lv_obj_style_gen.h **** }
 384:Drivers/lvgl/lvgl/src/extra/layouts/grid/../flex/../../../core/lv_obj_style_gen.h **** 
 385:Drivers/lvgl/lvgl/src/extra/layouts/grid/../flex/../../../core/lv_obj_style_gen.h **** static inline bool lv_obj_get_style_line_rounded(const struct _lv_obj_t * obj, uint32_t part)
 386:Drivers/lvgl/lvgl/src/extra/layouts/grid/../flex/../../../core/lv_obj_style_gen.h **** {
 387:Drivers/lvgl/lvgl/src/extra/layouts/grid/../flex/../../../core/lv_obj_style_gen.h ****     lv_style_value_t v = lv_obj_get_style_prop(obj, part, LV_STYLE_LINE_ROUNDED);
 388:Drivers/lvgl/lvgl/src/extra/layouts/grid/../flex/../../../core/lv_obj_style_gen.h ****     return (bool)v.num;
 389:Drivers/lvgl/lvgl/src/extra/layouts/grid/../flex/../../../core/lv_obj_style_gen.h **** }
 390:Drivers/lvgl/lvgl/src/extra/layouts/grid/../flex/../../../core/lv_obj_style_gen.h **** 
 391:Drivers/lvgl/lvgl/src/extra/layouts/grid/../flex/../../../core/lv_obj_style_gen.h **** static inline lv_color_t lv_obj_get_style_line_color(const struct _lv_obj_t * obj, uint32_t part)
 392:Drivers/lvgl/lvgl/src/extra/layouts/grid/../flex/../../../core/lv_obj_style_gen.h **** {
 393:Drivers/lvgl/lvgl/src/extra/layouts/grid/../flex/../../../core/lv_obj_style_gen.h ****     lv_style_value_t v = lv_obj_get_style_prop(obj, part, LV_STYLE_LINE_COLOR);
 394:Drivers/lvgl/lvgl/src/extra/layouts/grid/../flex/../../../core/lv_obj_style_gen.h ****     return v.color;
 395:Drivers/lvgl/lvgl/src/extra/layouts/grid/../flex/../../../core/lv_obj_style_gen.h **** }
 396:Drivers/lvgl/lvgl/src/extra/layouts/grid/../flex/../../../core/lv_obj_style_gen.h **** 
 397:Drivers/lvgl/lvgl/src/extra/layouts/grid/../flex/../../../core/lv_obj_style_gen.h **** static inline lv_color_t lv_obj_get_style_line_color_filtered(const struct _lv_obj_t * obj, uint32_
 398:Drivers/lvgl/lvgl/src/extra/layouts/grid/../flex/../../../core/lv_obj_style_gen.h **** {
 399:Drivers/lvgl/lvgl/src/extra/layouts/grid/../flex/../../../core/lv_obj_style_gen.h ****     lv_style_value_t v = _lv_obj_style_apply_color_filter(obj, part, lv_obj_get_style_prop(obj, par
 400:Drivers/lvgl/lvgl/src/extra/layouts/grid/../flex/../../../core/lv_obj_style_gen.h ****     return v.color;
 401:Drivers/lvgl/lvgl/src/extra/layouts/grid/../flex/../../../core/lv_obj_style_gen.h **** }
 402:Drivers/lvgl/lvgl/src/extra/layouts/grid/../flex/../../../core/lv_obj_style_gen.h **** 
 403:Drivers/lvgl/lvgl/src/extra/layouts/grid/../flex/../../../core/lv_obj_style_gen.h **** static inline lv_opa_t lv_obj_get_style_line_opa(const struct _lv_obj_t * obj, uint32_t part)
 404:Drivers/lvgl/lvgl/src/extra/layouts/grid/../flex/../../../core/lv_obj_style_gen.h **** {
 405:Drivers/lvgl/lvgl/src/extra/layouts/grid/../flex/../../../core/lv_obj_style_gen.h ****     lv_style_value_t v = lv_obj_get_style_prop(obj, part, LV_STYLE_LINE_OPA);
 406:Drivers/lvgl/lvgl/src/extra/layouts/grid/../flex/../../../core/lv_obj_style_gen.h ****     return (lv_opa_t)v.num;
 407:Drivers/lvgl/lvgl/src/extra/layouts/grid/../flex/../../../core/lv_obj_style_gen.h **** }
 408:Drivers/lvgl/lvgl/src/extra/layouts/grid/../flex/../../../core/lv_obj_style_gen.h **** 
 409:Drivers/lvgl/lvgl/src/extra/layouts/grid/../flex/../../../core/lv_obj_style_gen.h **** static inline lv_coord_t lv_obj_get_style_arc_width(const struct _lv_obj_t * obj, uint32_t part)
 410:Drivers/lvgl/lvgl/src/extra/layouts/grid/../flex/../../../core/lv_obj_style_gen.h **** {
 411:Drivers/lvgl/lvgl/src/extra/layouts/grid/../flex/../../../core/lv_obj_style_gen.h ****     lv_style_value_t v = lv_obj_get_style_prop(obj, part, LV_STYLE_ARC_WIDTH);
 412:Drivers/lvgl/lvgl/src/extra/layouts/grid/../flex/../../../core/lv_obj_style_gen.h ****     return (lv_coord_t)v.num;
ARM GAS  /tmp/ccFQgg33.s 			page 47


 413:Drivers/lvgl/lvgl/src/extra/layouts/grid/../flex/../../../core/lv_obj_style_gen.h **** }
 414:Drivers/lvgl/lvgl/src/extra/layouts/grid/../flex/../../../core/lv_obj_style_gen.h **** 
 415:Drivers/lvgl/lvgl/src/extra/layouts/grid/../flex/../../../core/lv_obj_style_gen.h **** static inline bool lv_obj_get_style_arc_rounded(const struct _lv_obj_t * obj, uint32_t part)
 416:Drivers/lvgl/lvgl/src/extra/layouts/grid/../flex/../../../core/lv_obj_style_gen.h **** {
 417:Drivers/lvgl/lvgl/src/extra/layouts/grid/../flex/../../../core/lv_obj_style_gen.h ****     lv_style_value_t v = lv_obj_get_style_prop(obj, part, LV_STYLE_ARC_ROUNDED);
 418:Drivers/lvgl/lvgl/src/extra/layouts/grid/../flex/../../../core/lv_obj_style_gen.h ****     return (bool)v.num;
 419:Drivers/lvgl/lvgl/src/extra/layouts/grid/../flex/../../../core/lv_obj_style_gen.h **** }
 420:Drivers/lvgl/lvgl/src/extra/layouts/grid/../flex/../../../core/lv_obj_style_gen.h **** 
 421:Drivers/lvgl/lvgl/src/extra/layouts/grid/../flex/../../../core/lv_obj_style_gen.h **** static inline lv_color_t lv_obj_get_style_arc_color(const struct _lv_obj_t * obj, uint32_t part)
 422:Drivers/lvgl/lvgl/src/extra/layouts/grid/../flex/../../../core/lv_obj_style_gen.h **** {
 423:Drivers/lvgl/lvgl/src/extra/layouts/grid/../flex/../../../core/lv_obj_style_gen.h ****     lv_style_value_t v = lv_obj_get_style_prop(obj, part, LV_STYLE_ARC_COLOR);
 424:Drivers/lvgl/lvgl/src/extra/layouts/grid/../flex/../../../core/lv_obj_style_gen.h ****     return v.color;
 425:Drivers/lvgl/lvgl/src/extra/layouts/grid/../flex/../../../core/lv_obj_style_gen.h **** }
 426:Drivers/lvgl/lvgl/src/extra/layouts/grid/../flex/../../../core/lv_obj_style_gen.h **** 
 427:Drivers/lvgl/lvgl/src/extra/layouts/grid/../flex/../../../core/lv_obj_style_gen.h **** static inline lv_color_t lv_obj_get_style_arc_color_filtered(const struct _lv_obj_t * obj, uint32_t
 428:Drivers/lvgl/lvgl/src/extra/layouts/grid/../flex/../../../core/lv_obj_style_gen.h **** {
 429:Drivers/lvgl/lvgl/src/extra/layouts/grid/../flex/../../../core/lv_obj_style_gen.h ****     lv_style_value_t v = _lv_obj_style_apply_color_filter(obj, part, lv_obj_get_style_prop(obj, par
 430:Drivers/lvgl/lvgl/src/extra/layouts/grid/../flex/../../../core/lv_obj_style_gen.h ****     return v.color;
 431:Drivers/lvgl/lvgl/src/extra/layouts/grid/../flex/../../../core/lv_obj_style_gen.h **** }
 432:Drivers/lvgl/lvgl/src/extra/layouts/grid/../flex/../../../core/lv_obj_style_gen.h **** 
 433:Drivers/lvgl/lvgl/src/extra/layouts/grid/../flex/../../../core/lv_obj_style_gen.h **** static inline lv_opa_t lv_obj_get_style_arc_opa(const struct _lv_obj_t * obj, uint32_t part)
 434:Drivers/lvgl/lvgl/src/extra/layouts/grid/../flex/../../../core/lv_obj_style_gen.h **** {
 435:Drivers/lvgl/lvgl/src/extra/layouts/grid/../flex/../../../core/lv_obj_style_gen.h ****     lv_style_value_t v = lv_obj_get_style_prop(obj, part, LV_STYLE_ARC_OPA);
 436:Drivers/lvgl/lvgl/src/extra/layouts/grid/../flex/../../../core/lv_obj_style_gen.h ****     return (lv_opa_t)v.num;
 437:Drivers/lvgl/lvgl/src/extra/layouts/grid/../flex/../../../core/lv_obj_style_gen.h **** }
 438:Drivers/lvgl/lvgl/src/extra/layouts/grid/../flex/../../../core/lv_obj_style_gen.h **** 
 439:Drivers/lvgl/lvgl/src/extra/layouts/grid/../flex/../../../core/lv_obj_style_gen.h **** static inline const void * lv_obj_get_style_arc_img_src(const struct _lv_obj_t * obj, uint32_t part
 440:Drivers/lvgl/lvgl/src/extra/layouts/grid/../flex/../../../core/lv_obj_style_gen.h **** {
 441:Drivers/lvgl/lvgl/src/extra/layouts/grid/../flex/../../../core/lv_obj_style_gen.h ****     lv_style_value_t v = lv_obj_get_style_prop(obj, part, LV_STYLE_ARC_IMG_SRC);
 442:Drivers/lvgl/lvgl/src/extra/layouts/grid/../flex/../../../core/lv_obj_style_gen.h ****     return (const void *)v.ptr;
 443:Drivers/lvgl/lvgl/src/extra/layouts/grid/../flex/../../../core/lv_obj_style_gen.h **** }
 444:Drivers/lvgl/lvgl/src/extra/layouts/grid/../flex/../../../core/lv_obj_style_gen.h **** 
 445:Drivers/lvgl/lvgl/src/extra/layouts/grid/../flex/../../../core/lv_obj_style_gen.h **** static inline lv_color_t lv_obj_get_style_text_color(const struct _lv_obj_t * obj, uint32_t part)
 446:Drivers/lvgl/lvgl/src/extra/layouts/grid/../flex/../../../core/lv_obj_style_gen.h **** {
 447:Drivers/lvgl/lvgl/src/extra/layouts/grid/../flex/../../../core/lv_obj_style_gen.h ****     lv_style_value_t v = lv_obj_get_style_prop(obj, part, LV_STYLE_TEXT_COLOR);
 448:Drivers/lvgl/lvgl/src/extra/layouts/grid/../flex/../../../core/lv_obj_style_gen.h ****     return v.color;
 449:Drivers/lvgl/lvgl/src/extra/layouts/grid/../flex/../../../core/lv_obj_style_gen.h **** }
 450:Drivers/lvgl/lvgl/src/extra/layouts/grid/../flex/../../../core/lv_obj_style_gen.h **** 
 451:Drivers/lvgl/lvgl/src/extra/layouts/grid/../flex/../../../core/lv_obj_style_gen.h **** static inline lv_color_t lv_obj_get_style_text_color_filtered(const struct _lv_obj_t * obj, uint32_
 452:Drivers/lvgl/lvgl/src/extra/layouts/grid/../flex/../../../core/lv_obj_style_gen.h **** {
 453:Drivers/lvgl/lvgl/src/extra/layouts/grid/../flex/../../../core/lv_obj_style_gen.h ****     lv_style_value_t v = _lv_obj_style_apply_color_filter(obj, part, lv_obj_get_style_prop(obj, par
 454:Drivers/lvgl/lvgl/src/extra/layouts/grid/../flex/../../../core/lv_obj_style_gen.h ****     return v.color;
 455:Drivers/lvgl/lvgl/src/extra/layouts/grid/../flex/../../../core/lv_obj_style_gen.h **** }
 456:Drivers/lvgl/lvgl/src/extra/layouts/grid/../flex/../../../core/lv_obj_style_gen.h **** 
 457:Drivers/lvgl/lvgl/src/extra/layouts/grid/../flex/../../../core/lv_obj_style_gen.h **** static inline lv_opa_t lv_obj_get_style_text_opa(const struct _lv_obj_t * obj, uint32_t part)
 458:Drivers/lvgl/lvgl/src/extra/layouts/grid/../flex/../../../core/lv_obj_style_gen.h **** {
 459:Drivers/lvgl/lvgl/src/extra/layouts/grid/../flex/../../../core/lv_obj_style_gen.h ****     lv_style_value_t v = lv_obj_get_style_prop(obj, part, LV_STYLE_TEXT_OPA);
 460:Drivers/lvgl/lvgl/src/extra/layouts/grid/../flex/../../../core/lv_obj_style_gen.h ****     return (lv_opa_t)v.num;
 461:Drivers/lvgl/lvgl/src/extra/layouts/grid/../flex/../../../core/lv_obj_style_gen.h **** }
 462:Drivers/lvgl/lvgl/src/extra/layouts/grid/../flex/../../../core/lv_obj_style_gen.h **** 
 463:Drivers/lvgl/lvgl/src/extra/layouts/grid/../flex/../../../core/lv_obj_style_gen.h **** static inline const lv_font_t * lv_obj_get_style_text_font(const struct _lv_obj_t * obj, uint32_t p
 464:Drivers/lvgl/lvgl/src/extra/layouts/grid/../flex/../../../core/lv_obj_style_gen.h **** {
 465:Drivers/lvgl/lvgl/src/extra/layouts/grid/../flex/../../../core/lv_obj_style_gen.h ****     lv_style_value_t v = lv_obj_get_style_prop(obj, part, LV_STYLE_TEXT_FONT);
 466:Drivers/lvgl/lvgl/src/extra/layouts/grid/../flex/../../../core/lv_obj_style_gen.h ****     return (const lv_font_t *)v.ptr;
 467:Drivers/lvgl/lvgl/src/extra/layouts/grid/../flex/../../../core/lv_obj_style_gen.h **** }
 468:Drivers/lvgl/lvgl/src/extra/layouts/grid/../flex/../../../core/lv_obj_style_gen.h **** 
 469:Drivers/lvgl/lvgl/src/extra/layouts/grid/../flex/../../../core/lv_obj_style_gen.h **** static inline lv_coord_t lv_obj_get_style_text_letter_space(const struct _lv_obj_t * obj, uint32_t 
ARM GAS  /tmp/ccFQgg33.s 			page 48


 470:Drivers/lvgl/lvgl/src/extra/layouts/grid/../flex/../../../core/lv_obj_style_gen.h **** {
 471:Drivers/lvgl/lvgl/src/extra/layouts/grid/../flex/../../../core/lv_obj_style_gen.h ****     lv_style_value_t v = lv_obj_get_style_prop(obj, part, LV_STYLE_TEXT_LETTER_SPACE);
 472:Drivers/lvgl/lvgl/src/extra/layouts/grid/../flex/../../../core/lv_obj_style_gen.h ****     return (lv_coord_t)v.num;
 473:Drivers/lvgl/lvgl/src/extra/layouts/grid/../flex/../../../core/lv_obj_style_gen.h **** }
 474:Drivers/lvgl/lvgl/src/extra/layouts/grid/../flex/../../../core/lv_obj_style_gen.h **** 
 475:Drivers/lvgl/lvgl/src/extra/layouts/grid/../flex/../../../core/lv_obj_style_gen.h **** static inline lv_coord_t lv_obj_get_style_text_line_space(const struct _lv_obj_t * obj, uint32_t pa
 476:Drivers/lvgl/lvgl/src/extra/layouts/grid/../flex/../../../core/lv_obj_style_gen.h **** {
 477:Drivers/lvgl/lvgl/src/extra/layouts/grid/../flex/../../../core/lv_obj_style_gen.h ****     lv_style_value_t v = lv_obj_get_style_prop(obj, part, LV_STYLE_TEXT_LINE_SPACE);
 478:Drivers/lvgl/lvgl/src/extra/layouts/grid/../flex/../../../core/lv_obj_style_gen.h ****     return (lv_coord_t)v.num;
 479:Drivers/lvgl/lvgl/src/extra/layouts/grid/../flex/../../../core/lv_obj_style_gen.h **** }
 480:Drivers/lvgl/lvgl/src/extra/layouts/grid/../flex/../../../core/lv_obj_style_gen.h **** 
 481:Drivers/lvgl/lvgl/src/extra/layouts/grid/../flex/../../../core/lv_obj_style_gen.h **** static inline lv_text_decor_t lv_obj_get_style_text_decor(const struct _lv_obj_t * obj, uint32_t pa
 482:Drivers/lvgl/lvgl/src/extra/layouts/grid/../flex/../../../core/lv_obj_style_gen.h **** {
 483:Drivers/lvgl/lvgl/src/extra/layouts/grid/../flex/../../../core/lv_obj_style_gen.h ****     lv_style_value_t v = lv_obj_get_style_prop(obj, part, LV_STYLE_TEXT_DECOR);
 484:Drivers/lvgl/lvgl/src/extra/layouts/grid/../flex/../../../core/lv_obj_style_gen.h ****     return (lv_text_decor_t)v.num;
 485:Drivers/lvgl/lvgl/src/extra/layouts/grid/../flex/../../../core/lv_obj_style_gen.h **** }
 486:Drivers/lvgl/lvgl/src/extra/layouts/grid/../flex/../../../core/lv_obj_style_gen.h **** 
 487:Drivers/lvgl/lvgl/src/extra/layouts/grid/../flex/../../../core/lv_obj_style_gen.h **** static inline lv_text_align_t lv_obj_get_style_text_align(const struct _lv_obj_t * obj, uint32_t pa
 488:Drivers/lvgl/lvgl/src/extra/layouts/grid/../flex/../../../core/lv_obj_style_gen.h **** {
 489:Drivers/lvgl/lvgl/src/extra/layouts/grid/../flex/../../../core/lv_obj_style_gen.h ****     lv_style_value_t v = lv_obj_get_style_prop(obj, part, LV_STYLE_TEXT_ALIGN);
 490:Drivers/lvgl/lvgl/src/extra/layouts/grid/../flex/../../../core/lv_obj_style_gen.h ****     return (lv_text_align_t)v.num;
 491:Drivers/lvgl/lvgl/src/extra/layouts/grid/../flex/../../../core/lv_obj_style_gen.h **** }
 492:Drivers/lvgl/lvgl/src/extra/layouts/grid/../flex/../../../core/lv_obj_style_gen.h **** 
 493:Drivers/lvgl/lvgl/src/extra/layouts/grid/../flex/../../../core/lv_obj_style_gen.h **** static inline lv_coord_t lv_obj_get_style_radius(const struct _lv_obj_t * obj, uint32_t part)
 494:Drivers/lvgl/lvgl/src/extra/layouts/grid/../flex/../../../core/lv_obj_style_gen.h **** {
 495:Drivers/lvgl/lvgl/src/extra/layouts/grid/../flex/../../../core/lv_obj_style_gen.h ****     lv_style_value_t v = lv_obj_get_style_prop(obj, part, LV_STYLE_RADIUS);
 496:Drivers/lvgl/lvgl/src/extra/layouts/grid/../flex/../../../core/lv_obj_style_gen.h ****     return (lv_coord_t)v.num;
 497:Drivers/lvgl/lvgl/src/extra/layouts/grid/../flex/../../../core/lv_obj_style_gen.h **** }
 498:Drivers/lvgl/lvgl/src/extra/layouts/grid/../flex/../../../core/lv_obj_style_gen.h **** 
 499:Drivers/lvgl/lvgl/src/extra/layouts/grid/../flex/../../../core/lv_obj_style_gen.h **** static inline bool lv_obj_get_style_clip_corner(const struct _lv_obj_t * obj, uint32_t part)
 500:Drivers/lvgl/lvgl/src/extra/layouts/grid/../flex/../../../core/lv_obj_style_gen.h **** {
 501:Drivers/lvgl/lvgl/src/extra/layouts/grid/../flex/../../../core/lv_obj_style_gen.h ****     lv_style_value_t v = lv_obj_get_style_prop(obj, part, LV_STYLE_CLIP_CORNER);
 502:Drivers/lvgl/lvgl/src/extra/layouts/grid/../flex/../../../core/lv_obj_style_gen.h ****     return (bool)v.num;
 503:Drivers/lvgl/lvgl/src/extra/layouts/grid/../flex/../../../core/lv_obj_style_gen.h **** }
 504:Drivers/lvgl/lvgl/src/extra/layouts/grid/../flex/../../../core/lv_obj_style_gen.h **** 
 505:Drivers/lvgl/lvgl/src/extra/layouts/grid/../flex/../../../core/lv_obj_style_gen.h **** static inline lv_opa_t lv_obj_get_style_opa(const struct _lv_obj_t * obj, uint32_t part)
 506:Drivers/lvgl/lvgl/src/extra/layouts/grid/../flex/../../../core/lv_obj_style_gen.h **** {
 507:Drivers/lvgl/lvgl/src/extra/layouts/grid/../flex/../../../core/lv_obj_style_gen.h ****     lv_style_value_t v = lv_obj_get_style_prop(obj, part, LV_STYLE_OPA);
 508:Drivers/lvgl/lvgl/src/extra/layouts/grid/../flex/../../../core/lv_obj_style_gen.h ****     return (lv_opa_t)v.num;
 509:Drivers/lvgl/lvgl/src/extra/layouts/grid/../flex/../../../core/lv_obj_style_gen.h **** }
 510:Drivers/lvgl/lvgl/src/extra/layouts/grid/../flex/../../../core/lv_obj_style_gen.h **** 
 511:Drivers/lvgl/lvgl/src/extra/layouts/grid/../flex/../../../core/lv_obj_style_gen.h **** static inline const lv_color_filter_dsc_t * lv_obj_get_style_color_filter_dsc(const struct _lv_obj_
 512:Drivers/lvgl/lvgl/src/extra/layouts/grid/../flex/../../../core/lv_obj_style_gen.h **** {
 513:Drivers/lvgl/lvgl/src/extra/layouts/grid/../flex/../../../core/lv_obj_style_gen.h ****     lv_style_value_t v = lv_obj_get_style_prop(obj, part, LV_STYLE_COLOR_FILTER_DSC);
 514:Drivers/lvgl/lvgl/src/extra/layouts/grid/../flex/../../../core/lv_obj_style_gen.h ****     return (const lv_color_filter_dsc_t *)v.ptr;
 515:Drivers/lvgl/lvgl/src/extra/layouts/grid/../flex/../../../core/lv_obj_style_gen.h **** }
 516:Drivers/lvgl/lvgl/src/extra/layouts/grid/../flex/../../../core/lv_obj_style_gen.h **** 
 517:Drivers/lvgl/lvgl/src/extra/layouts/grid/../flex/../../../core/lv_obj_style_gen.h **** static inline lv_opa_t lv_obj_get_style_color_filter_opa(const struct _lv_obj_t * obj, uint32_t par
 518:Drivers/lvgl/lvgl/src/extra/layouts/grid/../flex/../../../core/lv_obj_style_gen.h **** {
 519:Drivers/lvgl/lvgl/src/extra/layouts/grid/../flex/../../../core/lv_obj_style_gen.h ****     lv_style_value_t v = lv_obj_get_style_prop(obj, part, LV_STYLE_COLOR_FILTER_OPA);
 520:Drivers/lvgl/lvgl/src/extra/layouts/grid/../flex/../../../core/lv_obj_style_gen.h ****     return (lv_opa_t)v.num;
 521:Drivers/lvgl/lvgl/src/extra/layouts/grid/../flex/../../../core/lv_obj_style_gen.h **** }
 522:Drivers/lvgl/lvgl/src/extra/layouts/grid/../flex/../../../core/lv_obj_style_gen.h **** 
 523:Drivers/lvgl/lvgl/src/extra/layouts/grid/../flex/../../../core/lv_obj_style_gen.h **** static inline const lv_anim_t * lv_obj_get_style_anim(const struct _lv_obj_t * obj, uint32_t part)
 524:Drivers/lvgl/lvgl/src/extra/layouts/grid/../flex/../../../core/lv_obj_style_gen.h **** {
 525:Drivers/lvgl/lvgl/src/extra/layouts/grid/../flex/../../../core/lv_obj_style_gen.h ****     lv_style_value_t v = lv_obj_get_style_prop(obj, part, LV_STYLE_ANIM);
 526:Drivers/lvgl/lvgl/src/extra/layouts/grid/../flex/../../../core/lv_obj_style_gen.h ****     return (const lv_anim_t *)v.ptr;
ARM GAS  /tmp/ccFQgg33.s 			page 49


 527:Drivers/lvgl/lvgl/src/extra/layouts/grid/../flex/../../../core/lv_obj_style_gen.h **** }
 528:Drivers/lvgl/lvgl/src/extra/layouts/grid/../flex/../../../core/lv_obj_style_gen.h **** 
 529:Drivers/lvgl/lvgl/src/extra/layouts/grid/../flex/../../../core/lv_obj_style_gen.h **** static inline uint32_t lv_obj_get_style_anim_time(const struct _lv_obj_t * obj, uint32_t part)
 530:Drivers/lvgl/lvgl/src/extra/layouts/grid/../flex/../../../core/lv_obj_style_gen.h **** {
 531:Drivers/lvgl/lvgl/src/extra/layouts/grid/../flex/../../../core/lv_obj_style_gen.h ****     lv_style_value_t v = lv_obj_get_style_prop(obj, part, LV_STYLE_ANIM_TIME);
 532:Drivers/lvgl/lvgl/src/extra/layouts/grid/../flex/../../../core/lv_obj_style_gen.h ****     return (uint32_t)v.num;
 533:Drivers/lvgl/lvgl/src/extra/layouts/grid/../flex/../../../core/lv_obj_style_gen.h **** }
 534:Drivers/lvgl/lvgl/src/extra/layouts/grid/../flex/../../../core/lv_obj_style_gen.h **** 
 535:Drivers/lvgl/lvgl/src/extra/layouts/grid/../flex/../../../core/lv_obj_style_gen.h **** static inline uint32_t lv_obj_get_style_anim_speed(const struct _lv_obj_t * obj, uint32_t part)
 536:Drivers/lvgl/lvgl/src/extra/layouts/grid/../flex/../../../core/lv_obj_style_gen.h **** {
 537:Drivers/lvgl/lvgl/src/extra/layouts/grid/../flex/../../../core/lv_obj_style_gen.h ****     lv_style_value_t v = lv_obj_get_style_prop(obj, part, LV_STYLE_ANIM_SPEED);
 538:Drivers/lvgl/lvgl/src/extra/layouts/grid/../flex/../../../core/lv_obj_style_gen.h ****     return (uint32_t)v.num;
 539:Drivers/lvgl/lvgl/src/extra/layouts/grid/../flex/../../../core/lv_obj_style_gen.h **** }
 540:Drivers/lvgl/lvgl/src/extra/layouts/grid/../flex/../../../core/lv_obj_style_gen.h **** 
 541:Drivers/lvgl/lvgl/src/extra/layouts/grid/../flex/../../../core/lv_obj_style_gen.h **** static inline const lv_style_transition_dsc_t * lv_obj_get_style_transition(const struct _lv_obj_t 
 542:Drivers/lvgl/lvgl/src/extra/layouts/grid/../flex/../../../core/lv_obj_style_gen.h **** {
 543:Drivers/lvgl/lvgl/src/extra/layouts/grid/../flex/../../../core/lv_obj_style_gen.h ****     lv_style_value_t v = lv_obj_get_style_prop(obj, part, LV_STYLE_TRANSITION);
 544:Drivers/lvgl/lvgl/src/extra/layouts/grid/../flex/../../../core/lv_obj_style_gen.h ****     return (const lv_style_transition_dsc_t *)v.ptr;
 545:Drivers/lvgl/lvgl/src/extra/layouts/grid/../flex/../../../core/lv_obj_style_gen.h **** }
 546:Drivers/lvgl/lvgl/src/extra/layouts/grid/../flex/../../../core/lv_obj_style_gen.h **** 
 547:Drivers/lvgl/lvgl/src/extra/layouts/grid/../flex/../../../core/lv_obj_style_gen.h **** static inline lv_blend_mode_t lv_obj_get_style_blend_mode(const struct _lv_obj_t * obj, uint32_t pa
 548:Drivers/lvgl/lvgl/src/extra/layouts/grid/../flex/../../../core/lv_obj_style_gen.h **** {
 549:Drivers/lvgl/lvgl/src/extra/layouts/grid/../flex/../../../core/lv_obj_style_gen.h ****     lv_style_value_t v = lv_obj_get_style_prop(obj, part, LV_STYLE_BLEND_MODE);
 550:Drivers/lvgl/lvgl/src/extra/layouts/grid/../flex/../../../core/lv_obj_style_gen.h ****     return (lv_blend_mode_t)v.num;
 551:Drivers/lvgl/lvgl/src/extra/layouts/grid/../flex/../../../core/lv_obj_style_gen.h **** }
 552:Drivers/lvgl/lvgl/src/extra/layouts/grid/../flex/../../../core/lv_obj_style_gen.h **** 
 553:Drivers/lvgl/lvgl/src/extra/layouts/grid/../flex/../../../core/lv_obj_style_gen.h **** static inline uint16_t lv_obj_get_style_layout(const struct _lv_obj_t * obj, uint32_t part)
 554:Drivers/lvgl/lvgl/src/extra/layouts/grid/../flex/../../../core/lv_obj_style_gen.h **** {
 555:Drivers/lvgl/lvgl/src/extra/layouts/grid/../flex/../../../core/lv_obj_style_gen.h ****     lv_style_value_t v = lv_obj_get_style_prop(obj, part, LV_STYLE_LAYOUT);
 556:Drivers/lvgl/lvgl/src/extra/layouts/grid/../flex/../../../core/lv_obj_style_gen.h ****     return (uint16_t)v.num;
 557:Drivers/lvgl/lvgl/src/extra/layouts/grid/../flex/../../../core/lv_obj_style_gen.h **** }
 558:Drivers/lvgl/lvgl/src/extra/layouts/grid/../flex/../../../core/lv_obj_style_gen.h **** 
 559:Drivers/lvgl/lvgl/src/extra/layouts/grid/../flex/../../../core/lv_obj_style_gen.h **** static inline lv_base_dir_t lv_obj_get_style_base_dir(const struct _lv_obj_t * obj, uint32_t part)
 560:Drivers/lvgl/lvgl/src/extra/layouts/grid/../flex/../../../core/lv_obj_style_gen.h **** {
 561:Drivers/lvgl/lvgl/src/extra/layouts/grid/../flex/../../../core/lv_obj_style_gen.h ****     lv_style_value_t v = lv_obj_get_style_prop(obj, part, LV_STYLE_BASE_DIR);
 1130              		.loc 3 561 0
 1131 0040 1622     		movs	r2, #22
 1132 0042 0021     		movs	r1, #0
 1133 0044 2046     		mov	r0, r4
 1134 0046 FFF7FEFF 		bl	lv_obj_get_style_prop
 1135              	.LVL184:
 562:Drivers/lvgl/lvgl/src/extra/layouts/grid/../flex/../../../core/lv_obj_style_gen.h ****     return (lv_base_dir_t)v.num;
 1136              		.loc 3 562 0
 1137 004a C0B2     		uxtb	r0, r0
 1138              	.LVL185:
 1139              	.LBE183:
 1140              	.LBE182:
 404:Drivers/lvgl/lvgl/src/extra/layouts/grid/lv_grid.c **** 
 1141              		.loc 1 404 0
 1142 004c 0128     		cmp	r0, #1
 1143 004e 14BF     		ite	ne
 1144 0050 0026     		movne	r6, #0
 1145 0052 0126     		moveq	r6, #1
 1146              	.LVL186:
 1147              	.LBB184:
 1148              	.LBB185:
   3:Drivers/lvgl/lvgl/src/extra/layouts/grid/../flex/../../../core/lv_obj_style_gen.h ****     return (lv_coord_t)v.num;
ARM GAS  /tmp/ccFQgg33.s 			page 50


 1149              		.loc 3 3 0
 1150 0054 0122     		movs	r2, #1
 1151 0056 0021     		movs	r1, #0
 1152 0058 2046     		mov	r0, r4
 1153 005a FFF7FEFF 		bl	lv_obj_get_style_prop
 1154              	.LVL187:
   4:Drivers/lvgl/lvgl/src/extra/layouts/grid/../flex/../../../core/lv_obj_style_gen.h **** }
 1155              		.loc 3 4 0
 1156 005e 07B2     		sxth	r7, r0
 1157              	.LVL188:
 1158              	.LBE185:
 1159              	.LBE184:
 1160              	.LBB186:
 1161              	.LBB187:
  21:Drivers/lvgl/lvgl/src/extra/layouts/grid/../flex/../../../core/lv_obj_style_gen.h ****     return (lv_coord_t)v.num;
 1162              		.loc 3 21 0
 1163 0060 0422     		movs	r2, #4
 1164 0062 0021     		movs	r1, #0
 1165 0064 2046     		mov	r0, r4
 1166 0066 FFF7FEFF 		bl	lv_obj_get_style_prop
 1167              	.LVL189:
  22:Drivers/lvgl/lvgl/src/extra/layouts/grid/../flex/../../../core/lv_obj_style_gen.h **** }
 1168              		.loc 3 22 0
 1169 006a 0FFA80F9 		sxth	r9, r0
 1170              	.LVL190:
 1171              	.LBE187:
 1172              	.LBE186:
 408:Drivers/lvgl/lvgl/src/extra/layouts/grid/lv_grid.c ****     lv_coord_t cont_w = lv_obj_get_content_width(cont);
 1173              		.loc 1 408 0
 1174 006e 42F2D173 		movw	r3, #10193
 1175 0072 9F42     		cmp	r7, r3
 1176 0074 3ED0     		beq	.L98
 1177 0076 0027     		movs	r7, #0
 1178              	.L90:
 1179              	.LVL191:
 409:Drivers/lvgl/lvgl/src/extra/layouts/grid/lv_grid.c ****     calc_out->grid_w = grid_align(cont_w, auto_w, get_grid_col_align(cont), col_gap, calc_out->col_
 1180              		.loc 1 409 0 discriminator 6
 1181 0078 2046     		mov	r0, r4
 1182 007a FFF7FEFF 		bl	lv_obj_get_content_width
 1183              	.LVL192:
 1184 007e 8246     		mov	r10, r0
 1185              	.LVL193:
 1186              	.LBB188:
 1187              	.LBB189:
 1188              	.LBB190:
 141:Drivers/lvgl/lvgl/src/extra/layouts/grid/../grid/lv_grid.h ****     return (lv_grid_align_t)v.num;
 1189              		.loc 2 141 0 discriminator 6
 1190 0080 254B     		ldr	r3, .L100
 1191 0082 1A88     		ldrh	r2, [r3]
 1192 0084 0021     		movs	r1, #0
 1193 0086 2046     		mov	r0, r4
 1194 0088 FFF7FEFF 		bl	lv_obj_get_style_prop
 1195              	.LVL194:
 1196              	.LBE190:
 1197              	.LBE189:
 1198              	.LBE188:
 410:Drivers/lvgl/lvgl/src/extra/layouts/grid/lv_grid.c ****                                   calc_out->x, rev);
ARM GAS  /tmp/ccFQgg33.s 			page 51


 1199              		.loc 1 410 0 discriminator 6
 1200 008c 0396     		str	r6, [sp, #12]
 1201 008e 2B68     		ldr	r3, [r5]
 1202 0090 0293     		str	r3, [sp, #8]
 1203 0092 AB68     		ldr	r3, [r5, #8]
 1204 0094 0193     		str	r3, [sp, #4]
 1205 0096 2B69     		ldr	r3, [r5, #16]
 1206 0098 0093     		str	r3, [sp]
 1207 009a 5B46     		mov	r3, fp
 1208 009c C2B2     		uxtb	r2, r0
 1209 009e 3946     		mov	r1, r7
 1210 00a0 5046     		mov	r0, r10
 1211 00a2 FFF7FEFF 		bl	grid_align
 1212              	.LVL195:
 1213 00a6 2883     		strh	r0, [r5, #24]	@ movhi
 413:Drivers/lvgl/lvgl/src/extra/layouts/grid/lv_grid.c ****     lv_coord_t cont_h = lv_obj_get_content_height(cont);
 1214              		.loc 1 413 0 discriminator 6
 1215 00a8 42F2D173 		movw	r3, #10193
 1216 00ac 9945     		cmp	r9, r3
 1217 00ae 2AD0     		beq	.L99
 413:Drivers/lvgl/lvgl/src/extra/layouts/grid/lv_grid.c ****     lv_coord_t cont_h = lv_obj_get_content_height(cont);
 1218              		.loc 1 413 0 is_stmt 0
 1219 00b0 0026     		movs	r6, #0
 1220              	.LVL196:
 1221              	.L91:
 414:Drivers/lvgl/lvgl/src/extra/layouts/grid/lv_grid.c ****     calc_out->grid_h = grid_align(cont_h, auto_h, get_grid_row_align(cont), row_gap, calc_out->row_
 1222              		.loc 1 414 0 is_stmt 1 discriminator 6
 1223 00b2 2046     		mov	r0, r4
 1224 00b4 FFF7FEFF 		bl	lv_obj_get_content_height
 1225              	.LVL197:
 1226 00b8 0746     		mov	r7, r0
 1227              	.LVL198:
 1228              	.LBB191:
 1229              	.LBB192:
 1230              	.LBB193:
 135:Drivers/lvgl/lvgl/src/extra/layouts/grid/../grid/lv_grid.h ****     return (lv_grid_align_t)v.num;
 1231              		.loc 2 135 0 discriminator 6
 1232 00ba 184B     		ldr	r3, .L100+4
 1233 00bc 1A88     		ldrh	r2, [r3]
 1234 00be 0021     		movs	r1, #0
 1235 00c0 2046     		mov	r0, r4
 1236 00c2 FFF7FEFF 		bl	lv_obj_get_style_prop
 1237              	.LVL199:
 1238              	.LBE193:
 1239              	.LBE192:
 1240              	.LBE191:
 415:Drivers/lvgl/lvgl/src/extra/layouts/grid/lv_grid.c ****                                   calc_out->y, false);
 1241              		.loc 1 415 0 discriminator 6
 1242 00c6 0023     		movs	r3, #0
 1243 00c8 0393     		str	r3, [sp, #12]
 1244 00ca 6B68     		ldr	r3, [r5, #4]
 1245 00cc 0293     		str	r3, [sp, #8]
 1246 00ce EB68     		ldr	r3, [r5, #12]
 1247 00d0 0193     		str	r3, [sp, #4]
 1248 00d2 6B69     		ldr	r3, [r5, #20]
 1249 00d4 0093     		str	r3, [sp]
 1250 00d6 4346     		mov	r3, r8
ARM GAS  /tmp/ccFQgg33.s 			page 52


 1251 00d8 C2B2     		uxtb	r2, r0
 1252 00da 3146     		mov	r1, r6
 1253 00dc 3846     		mov	r0, r7
 1254 00de FFF7FEFF 		bl	grid_align
 1255              	.LVL200:
 1256 00e2 6883     		strh	r0, [r5, #26]	@ movhi
 1257              	.LVL201:
 1258              	.L87:
 419:Drivers/lvgl/lvgl/src/extra/layouts/grid/lv_grid.c **** 
 1259              		.loc 1 419 0
 1260 00e4 05B0     		add	sp, sp, #20
 1261              	.LCFI7:
 1262              		.cfi_remember_state
 1263              		.cfi_def_cfa_offset 36
 1264              		@ sp needed
 1265 00e6 BDE8F08F 		pop	{r4, r5, r6, r7, r8, r9, r10, fp, pc}
 1266              	.LVL202:
 1267              	.L97:
 1268              	.LCFI8:
 1269              		.cfi_restore_state
 394:Drivers/lvgl/lvgl/src/extra/layouts/grid/lv_grid.c ****         return;
 1270              		.loc 1 394 0
 1271 00ea 1C21     		movs	r1, #28
 1272 00ec 2846     		mov	r0, r5
 1273 00ee FFF7FEFF 		bl	lv_memset_00
 1274              	.LVL203:
 395:Drivers/lvgl/lvgl/src/extra/layouts/grid/lv_grid.c ****     }
 1275              		.loc 1 395 0
 1276 00f2 F7E7     		b	.L87
 1277              	.LVL204:
 1278              	.L98:
 408:Drivers/lvgl/lvgl/src/extra/layouts/grid/lv_grid.c ****     lv_coord_t cont_w = lv_obj_get_content_width(cont);
 1279              		.loc 1 408 0 discriminator 1
 1280 00f4 94F82330 		ldrb	r3, [r4, #35]	@ zero_extendqisi2
 1281 00f8 13F0040F 		tst	r3, #4
 1282 00fc 01D0     		beq	.L93
 408:Drivers/lvgl/lvgl/src/extra/layouts/grid/lv_grid.c ****     lv_coord_t cont_w = lv_obj_get_content_width(cont);
 1283              		.loc 1 408 0 is_stmt 0
 1284 00fe 0027     		movs	r7, #0
 1285 0100 BAE7     		b	.L90
 1286              	.L93:
 1287 0102 0127     		movs	r7, #1
 1288 0104 B8E7     		b	.L90
 1289              	.LVL205:
 1290              	.L99:
 413:Drivers/lvgl/lvgl/src/extra/layouts/grid/lv_grid.c ****     lv_coord_t cont_h = lv_obj_get_content_height(cont);
 1291              		.loc 1 413 0 is_stmt 1 discriminator 1
 1292 0106 94F82330 		ldrb	r3, [r4, #35]	@ zero_extendqisi2
 1293 010a 13F0020F 		tst	r3, #2
 1294 010e 01D0     		beq	.L95
 413:Drivers/lvgl/lvgl/src/extra/layouts/grid/lv_grid.c ****     lv_coord_t cont_h = lv_obj_get_content_height(cont);
 1295              		.loc 1 413 0 is_stmt 0
 1296 0110 0026     		movs	r6, #0
 1297              	.LVL206:
 1298 0112 CEE7     		b	.L91
 1299              	.LVL207:
 1300              	.L95:
ARM GAS  /tmp/ccFQgg33.s 			page 53


 1301 0114 0126     		movs	r6, #1
 1302              	.LVL208:
 1303 0116 CCE7     		b	.L91
 1304              	.L101:
 1305              		.align	2
 1306              	.L100:
 1307 0118 00000000 		.word	LV_STYLE_GRID_COLUMN_ALIGN
 1308 011c 00000000 		.word	LV_STYLE_GRID_ROW_ALIGN
 1309              		.cfi_endproc
 1310              	.LFE210:
 1312              		.section	.text.item_repos,"ax",%progbits
 1313              		.align	1
 1314              		.syntax unified
 1315              		.thumb
 1316              		.thumb_func
 1317              		.fpu fpv5-d16
 1319              	item_repos:
 1320              	.LFB214:
 583:Drivers/lvgl/lvgl/src/extra/layouts/grid/lv_grid.c ****     if(lv_obj_has_flag_any(item, LV_OBJ_FLAG_IGNORE_LAYOUT | LV_OBJ_FLAG_HIDDEN | LV_OBJ_FLAG_FLOAT
 1321              		.loc 1 583 0 is_stmt 1
 1322              		.cfi_startproc
 1323              		@ args = 0, pretend = 0, frame = 32
 1324              		@ frame_needed = 0, uses_anonymous_args = 0
 1325              	.LVL209:
 1326 0000 2DE9F04F 		push	{r4, r5, r6, r7, r8, r9, r10, fp, lr}
 1327              	.LCFI9:
 1328              		.cfi_def_cfa_offset 36
 1329              		.cfi_offset 4, -36
 1330              		.cfi_offset 5, -32
 1331              		.cfi_offset 6, -28
 1332              		.cfi_offset 7, -24
 1333              		.cfi_offset 8, -20
 1334              		.cfi_offset 9, -16
 1335              		.cfi_offset 10, -12
 1336              		.cfi_offset 11, -8
 1337              		.cfi_offset 14, -4
 1338 0004 89B0     		sub	sp, sp, #36
 1339              	.LCFI10:
 1340              		.cfi_def_cfa_offset 72
 1341 0006 0446     		mov	r4, r0
 1342 0008 0D46     		mov	r5, r1
 1343 000a 9046     		mov	r8, r2
 584:Drivers/lvgl/lvgl/src/extra/layouts/grid/lv_grid.c ****     uint32_t col_span = get_col_span(item);
 1344              		.loc 1 584 0
 1345 000c CB49     		ldr	r1, .L135
 1346              	.LVL210:
 1347 000e FFF7FEFF 		bl	lv_obj_has_flag_any
 1348              	.LVL211:
 1349 0012 10B1     		cbz	r0, .L128
 1350              	.LVL212:
 1351              	.L102:
 692:Drivers/lvgl/lvgl/src/extra/layouts/grid/lv_grid.c **** 
 1352              		.loc 1 692 0
 1353 0014 09B0     		add	sp, sp, #36
 1354              	.LCFI11:
 1355              		.cfi_remember_state
 1356              		.cfi_def_cfa_offset 36
ARM GAS  /tmp/ccFQgg33.s 			page 54


 1357              		@ sp needed
 1358 0016 BDE8F08F 		pop	{r4, r5, r6, r7, r8, r9, r10, fp, pc}
 1359              	.LVL213:
 1360              	.L128:
 1361              	.LCFI12:
 1362              		.cfi_restore_state
 1363              	.LBB194:
 1364              	.LBB195:
 1365              	.LBB196:
 153:Drivers/lvgl/lvgl/src/extra/layouts/grid/../grid/lv_grid.h ****     return (lv_coord_t)v.num;
 1366              		.loc 2 153 0
 1367 001a C94B     		ldr	r3, .L135+4
 1368 001c 1A88     		ldrh	r2, [r3]
 1369 001e 0021     		movs	r1, #0
 1370 0020 2046     		mov	r0, r4
 1371 0022 FFF7FEFF 		bl	lv_obj_get_style_prop
 1372              	.LVL214:
 1373              	.LBE196:
 1374              	.LBE195:
 1375              	.LBE194:
 585:Drivers/lvgl/lvgl/src/extra/layouts/grid/lv_grid.c ****     uint32_t row_span = get_row_span(item);
 1376              		.loc 1 585 0
 1377 0026 C7B2     		uxtb	r7, r0
 1378              	.LVL215:
 1379              	.LBB197:
 1380              	.LBB198:
 1381              	.LBB199:
 1382              		.loc 2 165 0
 1383 0028 C64B     		ldr	r3, .L135+8
 1384 002a 1A88     		ldrh	r2, [r3]
 1385 002c 0021     		movs	r1, #0
 1386 002e 2046     		mov	r0, r4
 1387 0030 FFF7FEFF 		bl	lv_obj_get_style_prop
 1388              	.LVL216:
 1389              	.LBE199:
 1390              	.LBE198:
 1391              	.LBE197:
 586:Drivers/lvgl/lvgl/src/extra/layouts/grid/lv_grid.c ****     if(row_span == 0 || col_span == 0) return;
 1392              		.loc 1 586 0
 1393 0034 C6B2     		uxtb	r6, r0
 1394              	.LVL217:
 587:Drivers/lvgl/lvgl/src/extra/layouts/grid/lv_grid.c **** 
 1395              		.loc 1 587 0
 1396 0036 B7FA87F3 		clz	r3, r7
 1397 003a 5B09     		lsrs	r3, r3, #5
 1398 003c 002E     		cmp	r6, #0
 1399 003e 08BF     		it	eq
 1400 0040 0123     		moveq	r3, #1
 1401 0042 002B     		cmp	r3, #0
 1402 0044 E6D1     		bne	.L102
 1403              	.LVL218:
 1404              	.LBB200:
 1405              	.LBB201:
 1406              	.LBB202:
 147:Drivers/lvgl/lvgl/src/extra/layouts/grid/../grid/lv_grid.h ****     return (lv_coord_t)v.num;
 1407              		.loc 2 147 0
 1408 0046 C04B     		ldr	r3, .L135+12
ARM GAS  /tmp/ccFQgg33.s 			page 55


 1409 0048 1A88     		ldrh	r2, [r3]
 1410 004a 0021     		movs	r1, #0
 1411 004c 2046     		mov	r0, r4
 1412 004e FFF7FEFF 		bl	lv_obj_get_style_prop
 1413              	.LVL219:
 1414              	.LBE202:
 1415              	.LBE201:
 1416              	.LBE200:
 589:Drivers/lvgl/lvgl/src/extra/layouts/grid/lv_grid.c ****     uint32_t row_pos = get_row_pos(item);
 1417              		.loc 1 589 0
 1418 0052 5FFA80FA 		uxtb	r10, r0
 1419              	.LVL220:
 1420              	.LBB203:
 1421              	.LBB204:
 1422              	.LBB205:
 159:Drivers/lvgl/lvgl/src/extra/layouts/grid/../grid/lv_grid.h ****     return (lv_coord_t)v.num;
 1423              		.loc 2 159 0
 1424 0056 BD4B     		ldr	r3, .L135+16
 1425 0058 1A88     		ldrh	r2, [r3]
 1426 005a 0021     		movs	r1, #0
 1427 005c 2046     		mov	r0, r4
 1428 005e FFF7FEFF 		bl	lv_obj_get_style_prop
 1429              	.LVL221:
 1430              	.LBE205:
 1431              	.LBE204:
 1432              	.LBE203:
 590:Drivers/lvgl/lvgl/src/extra/layouts/grid/lv_grid.c ****     lv_grid_align_t col_align = get_cell_col_align(item);
 1433              		.loc 1 590 0
 1434 0062 5FFA80F9 		uxtb	r9, r0
 1435              	.LVL222:
 1436              	.LBB206:
 1437              	.LBB207:
 1438              	.LBB208:
 1439              	.LBB209:
 166:Drivers/lvgl/lvgl/src/extra/layouts/grid/../grid/lv_grid.h ****     return (lv_coord_t)v.num;
 167:Drivers/lvgl/lvgl/src/extra/layouts/grid/../grid/lv_grid.h **** }
 168:Drivers/lvgl/lvgl/src/extra/layouts/grid/../grid/lv_grid.h **** 
 169:Drivers/lvgl/lvgl/src/extra/layouts/grid/../grid/lv_grid.h **** static inline lv_coord_t lv_obj_get_style_grid_cell_x_align(const lv_obj_t * obj, uint32_t part)
 170:Drivers/lvgl/lvgl/src/extra/layouts/grid/../grid/lv_grid.h **** {
 171:Drivers/lvgl/lvgl/src/extra/layouts/grid/../grid/lv_grid.h ****     lv_style_value_t v = lv_obj_get_style_prop(obj, part, LV_STYLE_GRID_CELL_X_ALIGN);
 1440              		.loc 2 171 0
 1441 0066 BA4B     		ldr	r3, .L135+20
 1442 0068 1A88     		ldrh	r2, [r3]
 1443 006a 0021     		movs	r1, #0
 1444 006c 2046     		mov	r0, r4
 1445 006e FFF7FEFF 		bl	lv_obj_get_style_prop
 1446              	.LVL223:
 1447              	.LBE209:
 1448              	.LBE208:
  87:Drivers/lvgl/lvgl/src/extra/layouts/grid/lv_grid.c **** }
 1449              		.loc 1 87 0
 1450 0072 5FFA80FB 		uxtb	fp, r0
 1451              	.LVL224:
 1452              	.LBE207:
 1453              	.LBE206:
 1454              	.LBB210:
 1455              	.LBB211:
ARM GAS  /tmp/ccFQgg33.s 			page 56


 1456              	.LBB212:
 172:Drivers/lvgl/lvgl/src/extra/layouts/grid/../grid/lv_grid.h ****     return (lv_coord_t)v.num;
 173:Drivers/lvgl/lvgl/src/extra/layouts/grid/../grid/lv_grid.h **** }
 174:Drivers/lvgl/lvgl/src/extra/layouts/grid/../grid/lv_grid.h **** 
 175:Drivers/lvgl/lvgl/src/extra/layouts/grid/../grid/lv_grid.h **** static inline lv_coord_t lv_obj_get_style_grid_cell_y_align(const lv_obj_t * obj, uint32_t part)
 176:Drivers/lvgl/lvgl/src/extra/layouts/grid/../grid/lv_grid.h **** {
 177:Drivers/lvgl/lvgl/src/extra/layouts/grid/../grid/lv_grid.h ****     lv_style_value_t v = lv_obj_get_style_prop(obj, part, LV_STYLE_GRID_CELL_Y_ALIGN);
 1457              		.loc 2 177 0
 1458 0076 B74B     		ldr	r3, .L135+24
 1459 0078 1A88     		ldrh	r2, [r3]
 1460 007a 0021     		movs	r1, #0
 1461 007c 2046     		mov	r0, r4
 1462 007e FFF7FEFF 		bl	lv_obj_get_style_prop
 1463              	.LVL225:
 1464 0082 0190     		str	r0, [sp, #4]
 1465              	.LVL226:
 1466              	.LBE212:
 1467              	.LBE211:
 1468              	.LBE210:
 595:Drivers/lvgl/lvgl/src/extra/layouts/grid/lv_grid.c ****     lv_coord_t col_x2 = c->x[col_pos + col_span - 1] + c->w[col_pos + col_span - 1];
 1469              		.loc 1 595 0
 1470 0084 2B68     		ldr	r3, [r5]
 1471 0086 33F91A20 		ldrsh	r2, [r3, r10, lsl #1]
 1472              	.LVL227:
 596:Drivers/lvgl/lvgl/src/extra/layouts/grid/lv_grid.c ****     lv_coord_t col_w = col_x2 - col_x1;
 1473              		.loc 1 596 0
 1474 008a 5744     		add	r7, r7, r10
 1475              	.LVL228:
 1476 008c 6FF00041 		mvn	r1, #-2147483648
 1477 0090 0F44     		add	r7, r7, r1
 1478 0092 33F81730 		ldrh	r3, [r3, r7, lsl #1]
 1479 0096 A868     		ldr	r0, [r5, #8]
 1480 0098 30F81700 		ldrh	r0, [r0, r7, lsl #1]
 1481 009c 0344     		add	r3, r3, r0
 1482 009e 9BB2     		uxth	r3, r3
 1483              	.LVL229:
 597:Drivers/lvgl/lvgl/src/extra/layouts/grid/lv_grid.c **** 
 1484              		.loc 1 597 0
 1485 00a0 9B1A     		subs	r3, r3, r2
 1486              	.LVL230:
 1487 00a2 9BB2     		uxth	r3, r3
 1488 00a4 0493     		str	r3, [sp, #16]
 1489 00a6 1BB2     		sxth	r3, r3
 1490 00a8 0293     		str	r3, [sp, #8]
 1491              	.LVL231:
 599:Drivers/lvgl/lvgl/src/extra/layouts/grid/lv_grid.c ****     lv_coord_t row_y2 = c->y[row_pos + row_span - 1] + c->h[row_pos + row_span - 1];
 1492              		.loc 1 599 0
 1493 00aa 6B68     		ldr	r3, [r5, #4]
 1494 00ac 33F91920 		ldrsh	r2, [r3, r9, lsl #1]
 1495              	.LVL232:
 600:Drivers/lvgl/lvgl/src/extra/layouts/grid/lv_grid.c ****     lv_coord_t row_h = row_y2 - row_y1;
 1496              		.loc 1 600 0
 1497 00b0 4E44     		add	r6, r6, r9
 1498              	.LVL233:
 1499 00b2 0E44     		add	r6, r6, r1
 1500 00b4 33F81630 		ldrh	r3, [r3, r6, lsl #1]
 1501 00b8 E968     		ldr	r1, [r5, #12]
ARM GAS  /tmp/ccFQgg33.s 			page 57


 1502 00ba 31F81610 		ldrh	r1, [r1, r6, lsl #1]
 1503 00be 0B44     		add	r3, r3, r1
 1504 00c0 9BB2     		uxth	r3, r3
 1505              	.LVL234:
 601:Drivers/lvgl/lvgl/src/extra/layouts/grid/lv_grid.c **** 
 1506              		.loc 1 601 0
 1507 00c2 9B1A     		subs	r3, r3, r2
 1508              	.LVL235:
 1509 00c4 9BB2     		uxth	r3, r3
 1510 00c6 0593     		str	r3, [sp, #20]
 1511 00c8 1BB2     		sxth	r3, r3
 1512 00ca 0393     		str	r3, [sp, #12]
 1513              	.LVL236:
 1514              	.LBB213:
 1515              	.LBB214:
 561:Drivers/lvgl/lvgl/src/extra/layouts/grid/../flex/../../../core/lv_obj_style_gen.h ****     return (lv_base_dir_t)v.num;
 1516              		.loc 3 561 0
 1517 00cc 1622     		movs	r2, #22
 1518              	.LVL237:
 1519 00ce 0021     		movs	r1, #0
 1520              	.LVL238:
 1521 00d0 2046     		mov	r0, r4
 1522              	.LVL239:
 1523 00d2 FFF7FEFF 		bl	lv_obj_get_style_prop
 1524              	.LVL240:
 1525              		.loc 3 562 0
 1526 00d6 C0B2     		uxtb	r0, r0
 1527              	.LVL241:
 1528              	.LBE214:
 1529              	.LBE213:
 605:Drivers/lvgl/lvgl/src/extra/layouts/grid/lv_grid.c ****         if(col_align == LV_GRID_ALIGN_START) col_align = LV_GRID_ALIGN_END;
 1530              		.loc 1 605 0
 1531 00d8 0128     		cmp	r0, #1
 1532 00da 00F0BE80 		beq	.L129
 1533              	.L104:
 1534              	.LVL242:
 1535              	.LBB215:
 1536              	.LBB216:
 1537              		.file 4 "Drivers/lvgl/lvgl/src/extra/layouts/grid/../flex/../../../core/../misc/../font/../misc/lv
   1:Drivers/lvgl/lvgl/src/extra/layouts/grid/../flex/../../../core/../misc/../font/../misc/lv_area.h **** /**
   2:Drivers/lvgl/lvgl/src/extra/layouts/grid/../flex/../../../core/../misc/../font/../misc/lv_area.h ****  * @file lv_area.h
   3:Drivers/lvgl/lvgl/src/extra/layouts/grid/../flex/../../../core/../misc/../font/../misc/lv_area.h ****  *
   4:Drivers/lvgl/lvgl/src/extra/layouts/grid/../flex/../../../core/../misc/../font/../misc/lv_area.h ****  */
   5:Drivers/lvgl/lvgl/src/extra/layouts/grid/../flex/../../../core/../misc/../font/../misc/lv_area.h **** 
   6:Drivers/lvgl/lvgl/src/extra/layouts/grid/../flex/../../../core/../misc/../font/../misc/lv_area.h **** #ifndef LV_AREA_H
   7:Drivers/lvgl/lvgl/src/extra/layouts/grid/../flex/../../../core/../misc/../font/../misc/lv_area.h **** #define LV_AREA_H
   8:Drivers/lvgl/lvgl/src/extra/layouts/grid/../flex/../../../core/../misc/../font/../misc/lv_area.h **** 
   9:Drivers/lvgl/lvgl/src/extra/layouts/grid/../flex/../../../core/../misc/../font/../misc/lv_area.h **** #ifdef __cplusplus
  10:Drivers/lvgl/lvgl/src/extra/layouts/grid/../flex/../../../core/../misc/../font/../misc/lv_area.h **** extern "C" {
  11:Drivers/lvgl/lvgl/src/extra/layouts/grid/../flex/../../../core/../misc/../font/../misc/lv_area.h **** #endif
  12:Drivers/lvgl/lvgl/src/extra/layouts/grid/../flex/../../../core/../misc/../font/../misc/lv_area.h **** 
  13:Drivers/lvgl/lvgl/src/extra/layouts/grid/../flex/../../../core/../misc/../font/../misc/lv_area.h **** /*********************
  14:Drivers/lvgl/lvgl/src/extra/layouts/grid/../flex/../../../core/../misc/../font/../misc/lv_area.h ****  *      INCLUDES
  15:Drivers/lvgl/lvgl/src/extra/layouts/grid/../flex/../../../core/../misc/../font/../misc/lv_area.h ****  *********************/
  16:Drivers/lvgl/lvgl/src/extra/layouts/grid/../flex/../../../core/../misc/../font/../misc/lv_area.h **** #include "../lv_conf_internal.h"
  17:Drivers/lvgl/lvgl/src/extra/layouts/grid/../flex/../../../core/../misc/../font/../misc/lv_area.h **** #include <stdbool.h>
  18:Drivers/lvgl/lvgl/src/extra/layouts/grid/../flex/../../../core/../misc/../font/../misc/lv_area.h **** #include <stdint.h>
ARM GAS  /tmp/ccFQgg33.s 			page 58


  19:Drivers/lvgl/lvgl/src/extra/layouts/grid/../flex/../../../core/../misc/../font/../misc/lv_area.h **** 
  20:Drivers/lvgl/lvgl/src/extra/layouts/grid/../flex/../../../core/../misc/../font/../misc/lv_area.h **** /*********************
  21:Drivers/lvgl/lvgl/src/extra/layouts/grid/../flex/../../../core/../misc/../font/../misc/lv_area.h ****  *      DEFINES
  22:Drivers/lvgl/lvgl/src/extra/layouts/grid/../flex/../../../core/../misc/../font/../misc/lv_area.h ****  *********************/
  23:Drivers/lvgl/lvgl/src/extra/layouts/grid/../flex/../../../core/../misc/../font/../misc/lv_area.h **** 
  24:Drivers/lvgl/lvgl/src/extra/layouts/grid/../flex/../../../core/../misc/../font/../misc/lv_area.h **** #if LV_USE_LARGE_COORD
  25:Drivers/lvgl/lvgl/src/extra/layouts/grid/../flex/../../../core/../misc/../font/../misc/lv_area.h **** typedef int32_t lv_coord_t;
  26:Drivers/lvgl/lvgl/src/extra/layouts/grid/../flex/../../../core/../misc/../font/../misc/lv_area.h **** #else
  27:Drivers/lvgl/lvgl/src/extra/layouts/grid/../flex/../../../core/../misc/../font/../misc/lv_area.h **** typedef int16_t lv_coord_t;
  28:Drivers/lvgl/lvgl/src/extra/layouts/grid/../flex/../../../core/../misc/../font/../misc/lv_area.h **** #endif
  29:Drivers/lvgl/lvgl/src/extra/layouts/grid/../flex/../../../core/../misc/../font/../misc/lv_area.h **** 
  30:Drivers/lvgl/lvgl/src/extra/layouts/grid/../flex/../../../core/../misc/../font/../misc/lv_area.h **** /**********************
  31:Drivers/lvgl/lvgl/src/extra/layouts/grid/../flex/../../../core/../misc/../font/../misc/lv_area.h ****  *      TYPEDEFS
  32:Drivers/lvgl/lvgl/src/extra/layouts/grid/../flex/../../../core/../misc/../font/../misc/lv_area.h ****  **********************/
  33:Drivers/lvgl/lvgl/src/extra/layouts/grid/../flex/../../../core/../misc/../font/../misc/lv_area.h **** 
  34:Drivers/lvgl/lvgl/src/extra/layouts/grid/../flex/../../../core/../misc/../font/../misc/lv_area.h **** /**
  35:Drivers/lvgl/lvgl/src/extra/layouts/grid/../flex/../../../core/../misc/../font/../misc/lv_area.h ****  * Represents a point on the screen.
  36:Drivers/lvgl/lvgl/src/extra/layouts/grid/../flex/../../../core/../misc/../font/../misc/lv_area.h ****  */
  37:Drivers/lvgl/lvgl/src/extra/layouts/grid/../flex/../../../core/../misc/../font/../misc/lv_area.h **** typedef struct {
  38:Drivers/lvgl/lvgl/src/extra/layouts/grid/../flex/../../../core/../misc/../font/../misc/lv_area.h ****     lv_coord_t x;
  39:Drivers/lvgl/lvgl/src/extra/layouts/grid/../flex/../../../core/../misc/../font/../misc/lv_area.h ****     lv_coord_t y;
  40:Drivers/lvgl/lvgl/src/extra/layouts/grid/../flex/../../../core/../misc/../font/../misc/lv_area.h **** } lv_point_t;
  41:Drivers/lvgl/lvgl/src/extra/layouts/grid/../flex/../../../core/../misc/../font/../misc/lv_area.h **** 
  42:Drivers/lvgl/lvgl/src/extra/layouts/grid/../flex/../../../core/../misc/../font/../misc/lv_area.h **** /** Represents an area of the screen.*/
  43:Drivers/lvgl/lvgl/src/extra/layouts/grid/../flex/../../../core/../misc/../font/../misc/lv_area.h **** typedef struct {
  44:Drivers/lvgl/lvgl/src/extra/layouts/grid/../flex/../../../core/../misc/../font/../misc/lv_area.h ****     lv_coord_t x1;
  45:Drivers/lvgl/lvgl/src/extra/layouts/grid/../flex/../../../core/../misc/../font/../misc/lv_area.h ****     lv_coord_t y1;
  46:Drivers/lvgl/lvgl/src/extra/layouts/grid/../flex/../../../core/../misc/../font/../misc/lv_area.h ****     lv_coord_t x2;
  47:Drivers/lvgl/lvgl/src/extra/layouts/grid/../flex/../../../core/../misc/../font/../misc/lv_area.h ****     lv_coord_t y2;
  48:Drivers/lvgl/lvgl/src/extra/layouts/grid/../flex/../../../core/../misc/../font/../misc/lv_area.h **** } lv_area_t;
  49:Drivers/lvgl/lvgl/src/extra/layouts/grid/../flex/../../../core/../misc/../font/../misc/lv_area.h **** 
  50:Drivers/lvgl/lvgl/src/extra/layouts/grid/../flex/../../../core/../misc/../font/../misc/lv_area.h **** /** Alignments*/
  51:Drivers/lvgl/lvgl/src/extra/layouts/grid/../flex/../../../core/../misc/../font/../misc/lv_area.h **** enum {
  52:Drivers/lvgl/lvgl/src/extra/layouts/grid/../flex/../../../core/../misc/../font/../misc/lv_area.h ****     LV_ALIGN_DEFAULT = 0,
  53:Drivers/lvgl/lvgl/src/extra/layouts/grid/../flex/../../../core/../misc/../font/../misc/lv_area.h ****     LV_ALIGN_TOP_LEFT,
  54:Drivers/lvgl/lvgl/src/extra/layouts/grid/../flex/../../../core/../misc/../font/../misc/lv_area.h ****     LV_ALIGN_TOP_MID,
  55:Drivers/lvgl/lvgl/src/extra/layouts/grid/../flex/../../../core/../misc/../font/../misc/lv_area.h ****     LV_ALIGN_TOP_RIGHT,
  56:Drivers/lvgl/lvgl/src/extra/layouts/grid/../flex/../../../core/../misc/../font/../misc/lv_area.h ****     LV_ALIGN_BOTTOM_LEFT,
  57:Drivers/lvgl/lvgl/src/extra/layouts/grid/../flex/../../../core/../misc/../font/../misc/lv_area.h ****     LV_ALIGN_BOTTOM_MID,
  58:Drivers/lvgl/lvgl/src/extra/layouts/grid/../flex/../../../core/../misc/../font/../misc/lv_area.h ****     LV_ALIGN_BOTTOM_RIGHT,
  59:Drivers/lvgl/lvgl/src/extra/layouts/grid/../flex/../../../core/../misc/../font/../misc/lv_area.h ****     LV_ALIGN_LEFT_MID,
  60:Drivers/lvgl/lvgl/src/extra/layouts/grid/../flex/../../../core/../misc/../font/../misc/lv_area.h ****     LV_ALIGN_RIGHT_MID,
  61:Drivers/lvgl/lvgl/src/extra/layouts/grid/../flex/../../../core/../misc/../font/../misc/lv_area.h ****     LV_ALIGN_CENTER,
  62:Drivers/lvgl/lvgl/src/extra/layouts/grid/../flex/../../../core/../misc/../font/../misc/lv_area.h **** 
  63:Drivers/lvgl/lvgl/src/extra/layouts/grid/../flex/../../../core/../misc/../font/../misc/lv_area.h ****     LV_ALIGN_OUT_TOP_LEFT,
  64:Drivers/lvgl/lvgl/src/extra/layouts/grid/../flex/../../../core/../misc/../font/../misc/lv_area.h ****     LV_ALIGN_OUT_TOP_MID,
  65:Drivers/lvgl/lvgl/src/extra/layouts/grid/../flex/../../../core/../misc/../font/../misc/lv_area.h ****     LV_ALIGN_OUT_TOP_RIGHT,
  66:Drivers/lvgl/lvgl/src/extra/layouts/grid/../flex/../../../core/../misc/../font/../misc/lv_area.h ****     LV_ALIGN_OUT_BOTTOM_LEFT,
  67:Drivers/lvgl/lvgl/src/extra/layouts/grid/../flex/../../../core/../misc/../font/../misc/lv_area.h ****     LV_ALIGN_OUT_BOTTOM_MID,
  68:Drivers/lvgl/lvgl/src/extra/layouts/grid/../flex/../../../core/../misc/../font/../misc/lv_area.h ****     LV_ALIGN_OUT_BOTTOM_RIGHT,
  69:Drivers/lvgl/lvgl/src/extra/layouts/grid/../flex/../../../core/../misc/../font/../misc/lv_area.h ****     LV_ALIGN_OUT_LEFT_TOP,
  70:Drivers/lvgl/lvgl/src/extra/layouts/grid/../flex/../../../core/../misc/../font/../misc/lv_area.h ****     LV_ALIGN_OUT_LEFT_MID,
  71:Drivers/lvgl/lvgl/src/extra/layouts/grid/../flex/../../../core/../misc/../font/../misc/lv_area.h ****     LV_ALIGN_OUT_LEFT_BOTTOM,
  72:Drivers/lvgl/lvgl/src/extra/layouts/grid/../flex/../../../core/../misc/../font/../misc/lv_area.h ****     LV_ALIGN_OUT_RIGHT_TOP,
  73:Drivers/lvgl/lvgl/src/extra/layouts/grid/../flex/../../../core/../misc/../font/../misc/lv_area.h ****     LV_ALIGN_OUT_RIGHT_MID,
  74:Drivers/lvgl/lvgl/src/extra/layouts/grid/../flex/../../../core/../misc/../font/../misc/lv_area.h ****     LV_ALIGN_OUT_RIGHT_BOTTOM,
  75:Drivers/lvgl/lvgl/src/extra/layouts/grid/../flex/../../../core/../misc/../font/../misc/lv_area.h **** };
ARM GAS  /tmp/ccFQgg33.s 			page 59


  76:Drivers/lvgl/lvgl/src/extra/layouts/grid/../flex/../../../core/../misc/../font/../misc/lv_area.h **** typedef uint8_t lv_align_t;
  77:Drivers/lvgl/lvgl/src/extra/layouts/grid/../flex/../../../core/../misc/../font/../misc/lv_area.h **** 
  78:Drivers/lvgl/lvgl/src/extra/layouts/grid/../flex/../../../core/../misc/../font/../misc/lv_area.h **** enum {
  79:Drivers/lvgl/lvgl/src/extra/layouts/grid/../flex/../../../core/../misc/../font/../misc/lv_area.h ****     LV_DIR_NONE     = 0x00,
  80:Drivers/lvgl/lvgl/src/extra/layouts/grid/../flex/../../../core/../misc/../font/../misc/lv_area.h ****     LV_DIR_LEFT     = (1 << 0),
  81:Drivers/lvgl/lvgl/src/extra/layouts/grid/../flex/../../../core/../misc/../font/../misc/lv_area.h ****     LV_DIR_RIGHT    = (1 << 1),
  82:Drivers/lvgl/lvgl/src/extra/layouts/grid/../flex/../../../core/../misc/../font/../misc/lv_area.h ****     LV_DIR_TOP      = (1 << 2),
  83:Drivers/lvgl/lvgl/src/extra/layouts/grid/../flex/../../../core/../misc/../font/../misc/lv_area.h ****     LV_DIR_BOTTOM   = (1 << 3),
  84:Drivers/lvgl/lvgl/src/extra/layouts/grid/../flex/../../../core/../misc/../font/../misc/lv_area.h ****     LV_DIR_HOR      = LV_DIR_LEFT | LV_DIR_RIGHT,
  85:Drivers/lvgl/lvgl/src/extra/layouts/grid/../flex/../../../core/../misc/../font/../misc/lv_area.h ****     LV_DIR_VER      = LV_DIR_TOP | LV_DIR_BOTTOM,
  86:Drivers/lvgl/lvgl/src/extra/layouts/grid/../flex/../../../core/../misc/../font/../misc/lv_area.h ****     LV_DIR_ALL      = LV_DIR_HOR | LV_DIR_VER,
  87:Drivers/lvgl/lvgl/src/extra/layouts/grid/../flex/../../../core/../misc/../font/../misc/lv_area.h **** };
  88:Drivers/lvgl/lvgl/src/extra/layouts/grid/../flex/../../../core/../misc/../font/../misc/lv_area.h **** 
  89:Drivers/lvgl/lvgl/src/extra/layouts/grid/../flex/../../../core/../misc/../font/../misc/lv_area.h **** typedef uint8_t lv_dir_t;
  90:Drivers/lvgl/lvgl/src/extra/layouts/grid/../flex/../../../core/../misc/../font/../misc/lv_area.h **** 
  91:Drivers/lvgl/lvgl/src/extra/layouts/grid/../flex/../../../core/../misc/../font/../misc/lv_area.h **** /**********************
  92:Drivers/lvgl/lvgl/src/extra/layouts/grid/../flex/../../../core/../misc/../font/../misc/lv_area.h ****  * GLOBAL PROTOTYPES
  93:Drivers/lvgl/lvgl/src/extra/layouts/grid/../flex/../../../core/../misc/../font/../misc/lv_area.h ****  **********************/
  94:Drivers/lvgl/lvgl/src/extra/layouts/grid/../flex/../../../core/../misc/../font/../misc/lv_area.h **** 
  95:Drivers/lvgl/lvgl/src/extra/layouts/grid/../flex/../../../core/../misc/../font/../misc/lv_area.h **** /**
  96:Drivers/lvgl/lvgl/src/extra/layouts/grid/../flex/../../../core/../misc/../font/../misc/lv_area.h ****  * Initialize an area
  97:Drivers/lvgl/lvgl/src/extra/layouts/grid/../flex/../../../core/../misc/../font/../misc/lv_area.h ****  * @param area_p pointer to an area
  98:Drivers/lvgl/lvgl/src/extra/layouts/grid/../flex/../../../core/../misc/../font/../misc/lv_area.h ****  * @param x1 left coordinate of the area
  99:Drivers/lvgl/lvgl/src/extra/layouts/grid/../flex/../../../core/../misc/../font/../misc/lv_area.h ****  * @param y1 top coordinate of the area
 100:Drivers/lvgl/lvgl/src/extra/layouts/grid/../flex/../../../core/../misc/../font/../misc/lv_area.h ****  * @param x2 right coordinate of the area
 101:Drivers/lvgl/lvgl/src/extra/layouts/grid/../flex/../../../core/../misc/../font/../misc/lv_area.h ****  * @param y2 bottom coordinate of the area
 102:Drivers/lvgl/lvgl/src/extra/layouts/grid/../flex/../../../core/../misc/../font/../misc/lv_area.h ****  */
 103:Drivers/lvgl/lvgl/src/extra/layouts/grid/../flex/../../../core/../misc/../font/../misc/lv_area.h **** void lv_area_set(lv_area_t * area_p, lv_coord_t x1, lv_coord_t y1, lv_coord_t x2, lv_coord_t y2);
 104:Drivers/lvgl/lvgl/src/extra/layouts/grid/../flex/../../../core/../misc/../font/../misc/lv_area.h **** 
 105:Drivers/lvgl/lvgl/src/extra/layouts/grid/../flex/../../../core/../misc/../font/../misc/lv_area.h **** /**
 106:Drivers/lvgl/lvgl/src/extra/layouts/grid/../flex/../../../core/../misc/../font/../misc/lv_area.h ****  * Copy an area
 107:Drivers/lvgl/lvgl/src/extra/layouts/grid/../flex/../../../core/../misc/../font/../misc/lv_area.h ****  * @param dest pointer to the destination area
 108:Drivers/lvgl/lvgl/src/extra/layouts/grid/../flex/../../../core/../misc/../font/../misc/lv_area.h ****  * @param src pointer to the source area
 109:Drivers/lvgl/lvgl/src/extra/layouts/grid/../flex/../../../core/../misc/../font/../misc/lv_area.h ****  */
 110:Drivers/lvgl/lvgl/src/extra/layouts/grid/../flex/../../../core/../misc/../font/../misc/lv_area.h **** inline static void lv_area_copy(lv_area_t * dest, const lv_area_t * src)
