ARM GAS  /tmp/ccgzxQCw.s 			page 1


   1              		.cpu cortex-m7
   2              		.eabi_attribute 28, 1
   3              		.eabi_attribute 20, 1
   4              		.eabi_attribute 21, 1
   5              		.eabi_attribute 23, 3
   6              		.eabi_attribute 24, 1
   7              		.eabi_attribute 25, 1
   8              		.eabi_attribute 26, 1
   9              		.eabi_attribute 30, 1
  10              		.eabi_attribute 34, 1
  11              		.eabi_attribute 18, 4
  12              		.file	"lv_hal_disp.c"
  13              		.text
  14              	.Ltext0:
  15              		.cfi_sections	.debug_frame
  16              		.section	.text.set_px_true_color_alpha,"ax",%progbits
  17              		.align	1
  18              		.syntax unified
  19              		.thumb
  20              		.thumb_func
  21              		.fpu fpv5-d16
  23              	set_px_true_color_alpha:
  24              	.LFB187:
  25              		.file 1 "Drivers/lvgl/lvgl/src/hal/lv_hal_disp.c"
   1:Drivers/lvgl/lvgl/src/hal/lv_hal_disp.c **** /**
   2:Drivers/lvgl/lvgl/src/hal/lv_hal_disp.c ****  * @file lv_hal_disp.c
   3:Drivers/lvgl/lvgl/src/hal/lv_hal_disp.c ****  *
   4:Drivers/lvgl/lvgl/src/hal/lv_hal_disp.c ****  * @description HAL layer for display driver
   5:Drivers/lvgl/lvgl/src/hal/lv_hal_disp.c ****  *
   6:Drivers/lvgl/lvgl/src/hal/lv_hal_disp.c ****  */
   7:Drivers/lvgl/lvgl/src/hal/lv_hal_disp.c **** 
   8:Drivers/lvgl/lvgl/src/hal/lv_hal_disp.c **** /*********************
   9:Drivers/lvgl/lvgl/src/hal/lv_hal_disp.c ****  *      INCLUDES
  10:Drivers/lvgl/lvgl/src/hal/lv_hal_disp.c ****  *********************/
  11:Drivers/lvgl/lvgl/src/hal/lv_hal_disp.c **** #include <stdint.h>
  12:Drivers/lvgl/lvgl/src/hal/lv_hal_disp.c **** #include <stddef.h>
  13:Drivers/lvgl/lvgl/src/hal/lv_hal_disp.c **** #include "lv_hal.h"
  14:Drivers/lvgl/lvgl/src/hal/lv_hal_disp.c **** #include "../misc/lv_mem.h"
  15:Drivers/lvgl/lvgl/src/hal/lv_hal_disp.c **** #include "../misc/lv_gc.h"
  16:Drivers/lvgl/lvgl/src/hal/lv_hal_disp.c **** #include "../misc/lv_assert.h"
  17:Drivers/lvgl/lvgl/src/hal/lv_hal_disp.c **** #include "../core/lv_obj.h"
  18:Drivers/lvgl/lvgl/src/hal/lv_hal_disp.c **** #include "../core/lv_refr.h"
  19:Drivers/lvgl/lvgl/src/hal/lv_hal_disp.c **** #include "../core/lv_theme.h"
  20:Drivers/lvgl/lvgl/src/hal/lv_hal_disp.c **** #include "../draw/sdl/lv_draw_sdl.h"
  21:Drivers/lvgl/lvgl/src/hal/lv_hal_disp.c **** #include "../draw/sw/lv_draw_sw.h"
  22:Drivers/lvgl/lvgl/src/hal/lv_hal_disp.c **** #include "../draw/sdl/lv_draw_sdl.h"
  23:Drivers/lvgl/lvgl/src/hal/lv_hal_disp.c **** #include "../draw/stm32_dma2d/lv_gpu_stm32_dma2d.h"
  24:Drivers/lvgl/lvgl/src/hal/lv_hal_disp.c **** #include "../draw/swm341_dma2d/lv_gpu_swm341_dma2d.h"
  25:Drivers/lvgl/lvgl/src/hal/lv_hal_disp.c **** #include "../draw/arm2d/lv_gpu_arm2d.h"
  26:Drivers/lvgl/lvgl/src/hal/lv_hal_disp.c **** #include "../draw/nxp/vglite/lv_draw_vglite.h"
  27:Drivers/lvgl/lvgl/src/hal/lv_hal_disp.c **** #include "../draw/nxp/pxp/lv_draw_pxp.h"
  28:Drivers/lvgl/lvgl/src/hal/lv_hal_disp.c **** 
  29:Drivers/lvgl/lvgl/src/hal/lv_hal_disp.c **** #if LV_USE_THEME_DEFAULT
  30:Drivers/lvgl/lvgl/src/hal/lv_hal_disp.c ****     #include "../extra/themes/default/lv_theme_default.h"
  31:Drivers/lvgl/lvgl/src/hal/lv_hal_disp.c **** #endif
  32:Drivers/lvgl/lvgl/src/hal/lv_hal_disp.c **** 
  33:Drivers/lvgl/lvgl/src/hal/lv_hal_disp.c **** /*********************
ARM GAS  /tmp/ccgzxQCw.s 			page 2


  34:Drivers/lvgl/lvgl/src/hal/lv_hal_disp.c ****  *      DEFINES
  35:Drivers/lvgl/lvgl/src/hal/lv_hal_disp.c ****  *********************/
  36:Drivers/lvgl/lvgl/src/hal/lv_hal_disp.c **** 
  37:Drivers/lvgl/lvgl/src/hal/lv_hal_disp.c **** /**********************
  38:Drivers/lvgl/lvgl/src/hal/lv_hal_disp.c ****  *      TYPEDEFS
  39:Drivers/lvgl/lvgl/src/hal/lv_hal_disp.c ****  **********************/
  40:Drivers/lvgl/lvgl/src/hal/lv_hal_disp.c **** 
  41:Drivers/lvgl/lvgl/src/hal/lv_hal_disp.c **** /**********************
  42:Drivers/lvgl/lvgl/src/hal/lv_hal_disp.c ****  *  STATIC PROTOTYPES
  43:Drivers/lvgl/lvgl/src/hal/lv_hal_disp.c ****  **********************/
  44:Drivers/lvgl/lvgl/src/hal/lv_hal_disp.c **** static lv_obj_tree_walk_res_t invalidate_layout_cb(lv_obj_t * obj, void * user_data);
  45:Drivers/lvgl/lvgl/src/hal/lv_hal_disp.c **** 
  46:Drivers/lvgl/lvgl/src/hal/lv_hal_disp.c **** static void set_px_true_color_alpha(lv_disp_drv_t * disp_drv, uint8_t * buf, lv_coord_t buf_w, lv_c
  47:Drivers/lvgl/lvgl/src/hal/lv_hal_disp.c ****                                     lv_coord_t y,
  48:Drivers/lvgl/lvgl/src/hal/lv_hal_disp.c ****                                     lv_color_t color, lv_opa_t opa);
  49:Drivers/lvgl/lvgl/src/hal/lv_hal_disp.c **** 
  50:Drivers/lvgl/lvgl/src/hal/lv_hal_disp.c **** static void set_px_cb_alpha1(lv_disp_drv_t * disp_drv, uint8_t * buf, lv_coord_t buf_w, lv_coord_t 
  51:Drivers/lvgl/lvgl/src/hal/lv_hal_disp.c ****                              lv_color_t color, lv_opa_t opa);
  52:Drivers/lvgl/lvgl/src/hal/lv_hal_disp.c **** 
  53:Drivers/lvgl/lvgl/src/hal/lv_hal_disp.c **** static void set_px_cb_alpha2(lv_disp_drv_t * disp_drv, uint8_t * buf, lv_coord_t buf_w, lv_coord_t 
  54:Drivers/lvgl/lvgl/src/hal/lv_hal_disp.c ****                              lv_color_t color, lv_opa_t opa);
  55:Drivers/lvgl/lvgl/src/hal/lv_hal_disp.c **** 
  56:Drivers/lvgl/lvgl/src/hal/lv_hal_disp.c **** static void set_px_cb_alpha4(lv_disp_drv_t * disp_drv, uint8_t * buf, lv_coord_t buf_w, lv_coord_t 
  57:Drivers/lvgl/lvgl/src/hal/lv_hal_disp.c ****                              lv_color_t color, lv_opa_t opa);
  58:Drivers/lvgl/lvgl/src/hal/lv_hal_disp.c **** 
  59:Drivers/lvgl/lvgl/src/hal/lv_hal_disp.c **** static void set_px_cb_alpha8(lv_disp_drv_t * disp_drv, uint8_t * buf, lv_coord_t buf_w, lv_coord_t 
  60:Drivers/lvgl/lvgl/src/hal/lv_hal_disp.c ****                              lv_color_t color, lv_opa_t opa);
  61:Drivers/lvgl/lvgl/src/hal/lv_hal_disp.c **** 
  62:Drivers/lvgl/lvgl/src/hal/lv_hal_disp.c **** static void set_px_alpha_generic(lv_img_dsc_t * d, lv_coord_t x, lv_coord_t y, lv_color_t color, lv
  63:Drivers/lvgl/lvgl/src/hal/lv_hal_disp.c **** 
  64:Drivers/lvgl/lvgl/src/hal/lv_hal_disp.c **** /**********************
  65:Drivers/lvgl/lvgl/src/hal/lv_hal_disp.c ****  *  STATIC VARIABLES
  66:Drivers/lvgl/lvgl/src/hal/lv_hal_disp.c ****  **********************/
  67:Drivers/lvgl/lvgl/src/hal/lv_hal_disp.c **** static lv_disp_t * disp_def;
  68:Drivers/lvgl/lvgl/src/hal/lv_hal_disp.c **** 
  69:Drivers/lvgl/lvgl/src/hal/lv_hal_disp.c **** /**********************
  70:Drivers/lvgl/lvgl/src/hal/lv_hal_disp.c ****  *      MACROS
  71:Drivers/lvgl/lvgl/src/hal/lv_hal_disp.c ****  **********************/
  72:Drivers/lvgl/lvgl/src/hal/lv_hal_disp.c **** 
  73:Drivers/lvgl/lvgl/src/hal/lv_hal_disp.c **** /**********************
  74:Drivers/lvgl/lvgl/src/hal/lv_hal_disp.c ****  *   GLOBAL FUNCTIONS
  75:Drivers/lvgl/lvgl/src/hal/lv_hal_disp.c ****  **********************/
  76:Drivers/lvgl/lvgl/src/hal/lv_hal_disp.c **** 
  77:Drivers/lvgl/lvgl/src/hal/lv_hal_disp.c **** /**
  78:Drivers/lvgl/lvgl/src/hal/lv_hal_disp.c ****  * Initialize a display driver with default values.
  79:Drivers/lvgl/lvgl/src/hal/lv_hal_disp.c ****  * It is used to surly have known values in the fields ant not memory junk.
  80:Drivers/lvgl/lvgl/src/hal/lv_hal_disp.c ****  * After it you can set the fields.
  81:Drivers/lvgl/lvgl/src/hal/lv_hal_disp.c ****  * @param driver pointer to driver variable to initialize
  82:Drivers/lvgl/lvgl/src/hal/lv_hal_disp.c ****  */
  83:Drivers/lvgl/lvgl/src/hal/lv_hal_disp.c **** void lv_disp_drv_init(lv_disp_drv_t * driver)
  84:Drivers/lvgl/lvgl/src/hal/lv_hal_disp.c **** {
  85:Drivers/lvgl/lvgl/src/hal/lv_hal_disp.c ****     lv_memset_00(driver, sizeof(lv_disp_drv_t));
  86:Drivers/lvgl/lvgl/src/hal/lv_hal_disp.c **** 
  87:Drivers/lvgl/lvgl/src/hal/lv_hal_disp.c ****     driver->hor_res          = 320;
  88:Drivers/lvgl/lvgl/src/hal/lv_hal_disp.c ****     driver->ver_res          = 240;
  89:Drivers/lvgl/lvgl/src/hal/lv_hal_disp.c ****     driver->physical_hor_res = -1;
  90:Drivers/lvgl/lvgl/src/hal/lv_hal_disp.c ****     driver->physical_ver_res = -1;
ARM GAS  /tmp/ccgzxQCw.s 			page 3


  91:Drivers/lvgl/lvgl/src/hal/lv_hal_disp.c ****     driver->offset_x         = 0;
  92:Drivers/lvgl/lvgl/src/hal/lv_hal_disp.c ****     driver->offset_y         = 0;
  93:Drivers/lvgl/lvgl/src/hal/lv_hal_disp.c ****     driver->antialiasing     = LV_COLOR_DEPTH > 8 ? 1 : 0;
  94:Drivers/lvgl/lvgl/src/hal/lv_hal_disp.c ****     driver->screen_transp    = 0;
  95:Drivers/lvgl/lvgl/src/hal/lv_hal_disp.c ****     driver->dpi              = LV_DPI_DEF;
  96:Drivers/lvgl/lvgl/src/hal/lv_hal_disp.c ****     driver->color_chroma_key = LV_COLOR_CHROMA_KEY;
  97:Drivers/lvgl/lvgl/src/hal/lv_hal_disp.c **** 
  98:Drivers/lvgl/lvgl/src/hal/lv_hal_disp.c **** 
  99:Drivers/lvgl/lvgl/src/hal/lv_hal_disp.c **** #if LV_USE_GPU_STM32_DMA2D
 100:Drivers/lvgl/lvgl/src/hal/lv_hal_disp.c ****     driver->draw_ctx_init = lv_draw_stm32_dma2d_ctx_init;
 101:Drivers/lvgl/lvgl/src/hal/lv_hal_disp.c ****     driver->draw_ctx_deinit = lv_draw_stm32_dma2d_ctx_init;
 102:Drivers/lvgl/lvgl/src/hal/lv_hal_disp.c ****     driver->draw_ctx_size = sizeof(lv_draw_stm32_dma2d_ctx_t);
 103:Drivers/lvgl/lvgl/src/hal/lv_hal_disp.c **** #elif LV_USE_GPU_SWM341_DMA2D
 104:Drivers/lvgl/lvgl/src/hal/lv_hal_disp.c ****     driver->draw_ctx_init = lv_draw_swm341_dma2d_ctx_init;
 105:Drivers/lvgl/lvgl/src/hal/lv_hal_disp.c ****     driver->draw_ctx_deinit = lv_draw_swm341_dma2d_ctx_init;
 106:Drivers/lvgl/lvgl/src/hal/lv_hal_disp.c ****     driver->draw_ctx_size = sizeof(lv_draw_swm341_dma2d_ctx_t);
 107:Drivers/lvgl/lvgl/src/hal/lv_hal_disp.c **** #elif LV_USE_GPU_NXP_VG_LITE
 108:Drivers/lvgl/lvgl/src/hal/lv_hal_disp.c ****     driver->draw_ctx_init = lv_draw_vglite_ctx_init;
 109:Drivers/lvgl/lvgl/src/hal/lv_hal_disp.c ****     driver->draw_ctx_deinit = lv_draw_vglite_ctx_deinit;
 110:Drivers/lvgl/lvgl/src/hal/lv_hal_disp.c ****     driver->draw_ctx_size = sizeof(lv_draw_vglite_ctx_t);
 111:Drivers/lvgl/lvgl/src/hal/lv_hal_disp.c **** #elif LV_USE_GPU_NXP_PXP
 112:Drivers/lvgl/lvgl/src/hal/lv_hal_disp.c ****     driver->draw_ctx_init = lv_draw_pxp_ctx_init;
 113:Drivers/lvgl/lvgl/src/hal/lv_hal_disp.c ****     driver->draw_ctx_deinit = lv_draw_pxp_ctx_deinit;
 114:Drivers/lvgl/lvgl/src/hal/lv_hal_disp.c ****     driver->draw_ctx_size = sizeof(lv_draw_pxp_ctx_t);
 115:Drivers/lvgl/lvgl/src/hal/lv_hal_disp.c **** #elif LV_USE_GPU_SDL
 116:Drivers/lvgl/lvgl/src/hal/lv_hal_disp.c ****     driver->draw_ctx_init = lv_draw_sdl_init_ctx;
 117:Drivers/lvgl/lvgl/src/hal/lv_hal_disp.c ****     driver->draw_ctx_deinit = lv_draw_sdl_deinit_ctx;
 118:Drivers/lvgl/lvgl/src/hal/lv_hal_disp.c ****     driver->draw_ctx_size = sizeof(lv_draw_sdl_ctx_t);
 119:Drivers/lvgl/lvgl/src/hal/lv_hal_disp.c **** #elif LV_USE_GPU_ARM2D
 120:Drivers/lvgl/lvgl/src/hal/lv_hal_disp.c ****     driver->draw_ctx_init = lv_draw_arm2d_ctx_init;
 121:Drivers/lvgl/lvgl/src/hal/lv_hal_disp.c ****     driver->draw_ctx_deinit = lv_draw_arm2d_ctx_init;
 122:Drivers/lvgl/lvgl/src/hal/lv_hal_disp.c ****     driver->draw_ctx_size = sizeof(lv_draw_arm2d_ctx_t);
 123:Drivers/lvgl/lvgl/src/hal/lv_hal_disp.c **** #else
 124:Drivers/lvgl/lvgl/src/hal/lv_hal_disp.c ****     driver->draw_ctx_init = lv_draw_sw_init_ctx;
 125:Drivers/lvgl/lvgl/src/hal/lv_hal_disp.c ****     driver->draw_ctx_deinit = lv_draw_sw_init_ctx;
 126:Drivers/lvgl/lvgl/src/hal/lv_hal_disp.c ****     driver->draw_ctx_size = sizeof(lv_draw_sw_ctx_t);
 127:Drivers/lvgl/lvgl/src/hal/lv_hal_disp.c **** #endif
 128:Drivers/lvgl/lvgl/src/hal/lv_hal_disp.c **** 
 129:Drivers/lvgl/lvgl/src/hal/lv_hal_disp.c **** }
 130:Drivers/lvgl/lvgl/src/hal/lv_hal_disp.c **** 
 131:Drivers/lvgl/lvgl/src/hal/lv_hal_disp.c **** /**
 132:Drivers/lvgl/lvgl/src/hal/lv_hal_disp.c ****  * Initialize a display buffer
 133:Drivers/lvgl/lvgl/src/hal/lv_hal_disp.c ****  * @param draw_buf pointer `lv_disp_draw_buf_t` variable to initialize
 134:Drivers/lvgl/lvgl/src/hal/lv_hal_disp.c ****  * @param buf1 A buffer to be used by LVGL to draw the image.
 135:Drivers/lvgl/lvgl/src/hal/lv_hal_disp.c ****  *             Always has to specified and can't be NULL.
 136:Drivers/lvgl/lvgl/src/hal/lv_hal_disp.c ****  *             Can be an array allocated by the user. E.g. `static lv_color_t disp_buf1[1024 * 10]`
 137:Drivers/lvgl/lvgl/src/hal/lv_hal_disp.c ****  *             Or a memory address e.g. in external SRAM
 138:Drivers/lvgl/lvgl/src/hal/lv_hal_disp.c ****  * @param buf2 Optionally specify a second buffer to make image rendering and image flushing
 139:Drivers/lvgl/lvgl/src/hal/lv_hal_disp.c ****  *             (sending to the display) parallel.
 140:Drivers/lvgl/lvgl/src/hal/lv_hal_disp.c ****  *             In the `disp_drv->flush` you should use DMA or similar hardware to send
 141:Drivers/lvgl/lvgl/src/hal/lv_hal_disp.c ****  *             the image to the display in the background.
 142:Drivers/lvgl/lvgl/src/hal/lv_hal_disp.c ****  *             It lets LVGL to render next frame into the other buffer while previous is being
 143:Drivers/lvgl/lvgl/src/hal/lv_hal_disp.c ****  * sent. Set to `NULL` if unused.
 144:Drivers/lvgl/lvgl/src/hal/lv_hal_disp.c ****  * @param size_in_px_cnt size of the `buf1` and `buf2` in pixel count.
 145:Drivers/lvgl/lvgl/src/hal/lv_hal_disp.c ****  */
 146:Drivers/lvgl/lvgl/src/hal/lv_hal_disp.c **** void lv_disp_draw_buf_init(lv_disp_draw_buf_t * draw_buf, void * buf1, void * buf2, uint32_t size_i
 147:Drivers/lvgl/lvgl/src/hal/lv_hal_disp.c **** {
ARM GAS  /tmp/ccgzxQCw.s 			page 4


 148:Drivers/lvgl/lvgl/src/hal/lv_hal_disp.c ****     lv_memset_00(draw_buf, sizeof(lv_disp_draw_buf_t));
 149:Drivers/lvgl/lvgl/src/hal/lv_hal_disp.c **** 
 150:Drivers/lvgl/lvgl/src/hal/lv_hal_disp.c ****     draw_buf->buf1    = buf1;
 151:Drivers/lvgl/lvgl/src/hal/lv_hal_disp.c ****     draw_buf->buf2    = buf2;
 152:Drivers/lvgl/lvgl/src/hal/lv_hal_disp.c ****     draw_buf->buf_act = draw_buf->buf1;
 153:Drivers/lvgl/lvgl/src/hal/lv_hal_disp.c ****     draw_buf->size    = size_in_px_cnt;
 154:Drivers/lvgl/lvgl/src/hal/lv_hal_disp.c **** }
 155:Drivers/lvgl/lvgl/src/hal/lv_hal_disp.c **** 
 156:Drivers/lvgl/lvgl/src/hal/lv_hal_disp.c **** /**
 157:Drivers/lvgl/lvgl/src/hal/lv_hal_disp.c ****  * Register an initialized display driver.
 158:Drivers/lvgl/lvgl/src/hal/lv_hal_disp.c ****  * Automatically set the first display as active.
 159:Drivers/lvgl/lvgl/src/hal/lv_hal_disp.c ****  * @param driver pointer to an initialized 'lv_disp_drv_t' variable. Only its pointer is saved!
 160:Drivers/lvgl/lvgl/src/hal/lv_hal_disp.c ****  * @return pointer to the new display or NULL on error
 161:Drivers/lvgl/lvgl/src/hal/lv_hal_disp.c ****  */
 162:Drivers/lvgl/lvgl/src/hal/lv_hal_disp.c **** lv_disp_t * lv_disp_drv_register(lv_disp_drv_t * driver)
 163:Drivers/lvgl/lvgl/src/hal/lv_hal_disp.c **** {
 164:Drivers/lvgl/lvgl/src/hal/lv_hal_disp.c ****     lv_disp_t * disp = _lv_ll_ins_head(&LV_GC_ROOT(_lv_disp_ll));
 165:Drivers/lvgl/lvgl/src/hal/lv_hal_disp.c ****     LV_ASSERT_MALLOC(disp);
 166:Drivers/lvgl/lvgl/src/hal/lv_hal_disp.c ****     if(!disp) {
 167:Drivers/lvgl/lvgl/src/hal/lv_hal_disp.c ****         return NULL;
 168:Drivers/lvgl/lvgl/src/hal/lv_hal_disp.c ****     }
 169:Drivers/lvgl/lvgl/src/hal/lv_hal_disp.c **** 
 170:Drivers/lvgl/lvgl/src/hal/lv_hal_disp.c ****     /*Create a draw context if not created yet*/
 171:Drivers/lvgl/lvgl/src/hal/lv_hal_disp.c ****     if(driver->draw_ctx == NULL) {
 172:Drivers/lvgl/lvgl/src/hal/lv_hal_disp.c ****         lv_draw_ctx_t * draw_ctx = lv_mem_alloc(driver->draw_ctx_size);
 173:Drivers/lvgl/lvgl/src/hal/lv_hal_disp.c ****         LV_ASSERT_MALLOC(draw_ctx);
 174:Drivers/lvgl/lvgl/src/hal/lv_hal_disp.c ****         if(draw_ctx == NULL) return NULL;
 175:Drivers/lvgl/lvgl/src/hal/lv_hal_disp.c ****         driver->draw_ctx_init(driver, draw_ctx);
 176:Drivers/lvgl/lvgl/src/hal/lv_hal_disp.c ****         driver->draw_ctx = draw_ctx;
 177:Drivers/lvgl/lvgl/src/hal/lv_hal_disp.c ****     }
 178:Drivers/lvgl/lvgl/src/hal/lv_hal_disp.c **** 
 179:Drivers/lvgl/lvgl/src/hal/lv_hal_disp.c ****     lv_memset_00(disp, sizeof(lv_disp_t));
 180:Drivers/lvgl/lvgl/src/hal/lv_hal_disp.c **** 
 181:Drivers/lvgl/lvgl/src/hal/lv_hal_disp.c ****     disp->driver = driver;
 182:Drivers/lvgl/lvgl/src/hal/lv_hal_disp.c **** 
 183:Drivers/lvgl/lvgl/src/hal/lv_hal_disp.c ****     disp->inv_en_cnt = 1;
 184:Drivers/lvgl/lvgl/src/hal/lv_hal_disp.c **** 
 185:Drivers/lvgl/lvgl/src/hal/lv_hal_disp.c ****     lv_disp_t * disp_def_tmp = disp_def;
 186:Drivers/lvgl/lvgl/src/hal/lv_hal_disp.c ****     disp_def                 = disp; /*Temporarily change the default screen to create the default 
 187:Drivers/lvgl/lvgl/src/hal/lv_hal_disp.c ****                                         new display*/
 188:Drivers/lvgl/lvgl/src/hal/lv_hal_disp.c ****     /*Create a refresh timer*/
 189:Drivers/lvgl/lvgl/src/hal/lv_hal_disp.c ****     disp->refr_timer = lv_timer_create(_lv_disp_refr_timer, LV_DISP_DEF_REFR_PERIOD, disp);
 190:Drivers/lvgl/lvgl/src/hal/lv_hal_disp.c ****     LV_ASSERT_MALLOC(disp->refr_timer);
 191:Drivers/lvgl/lvgl/src/hal/lv_hal_disp.c ****     if(disp->refr_timer == NULL) {
 192:Drivers/lvgl/lvgl/src/hal/lv_hal_disp.c ****         lv_mem_free(disp);
 193:Drivers/lvgl/lvgl/src/hal/lv_hal_disp.c ****         return NULL;
 194:Drivers/lvgl/lvgl/src/hal/lv_hal_disp.c ****     }
 195:Drivers/lvgl/lvgl/src/hal/lv_hal_disp.c **** 
 196:Drivers/lvgl/lvgl/src/hal/lv_hal_disp.c ****     if(driver->full_refresh && driver->draw_buf->size < (uint32_t)driver->hor_res * driver->ver_res
 197:Drivers/lvgl/lvgl/src/hal/lv_hal_disp.c ****         driver->full_refresh = 0;
 198:Drivers/lvgl/lvgl/src/hal/lv_hal_disp.c ****         LV_LOG_WARN("full_refresh requires at least screen sized draw buffer(s)");
 199:Drivers/lvgl/lvgl/src/hal/lv_hal_disp.c ****     }
 200:Drivers/lvgl/lvgl/src/hal/lv_hal_disp.c **** 
 201:Drivers/lvgl/lvgl/src/hal/lv_hal_disp.c ****     disp->bg_color = lv_color_white();
 202:Drivers/lvgl/lvgl/src/hal/lv_hal_disp.c **** #if LV_COLOR_SCREEN_TRANSP
 203:Drivers/lvgl/lvgl/src/hal/lv_hal_disp.c ****     disp->bg_opa = LV_OPA_TRANSP;
 204:Drivers/lvgl/lvgl/src/hal/lv_hal_disp.c **** #else
ARM GAS  /tmp/ccgzxQCw.s 			page 5


 205:Drivers/lvgl/lvgl/src/hal/lv_hal_disp.c ****     disp->bg_opa = LV_OPA_COVER;
 206:Drivers/lvgl/lvgl/src/hal/lv_hal_disp.c **** #endif
 207:Drivers/lvgl/lvgl/src/hal/lv_hal_disp.c **** 
 208:Drivers/lvgl/lvgl/src/hal/lv_hal_disp.c **** #if LV_USE_THEME_DEFAULT
 209:Drivers/lvgl/lvgl/src/hal/lv_hal_disp.c ****     if(lv_theme_default_is_inited() == false) {
 210:Drivers/lvgl/lvgl/src/hal/lv_hal_disp.c ****         disp->theme = lv_theme_default_init(disp, lv_palette_main(LV_PALETTE_BLUE), lv_palette_main
 211:Drivers/lvgl/lvgl/src/hal/lv_hal_disp.c ****                                             LV_THEME_DEFAULT_DARK, LV_FONT_DEFAULT);
 212:Drivers/lvgl/lvgl/src/hal/lv_hal_disp.c ****     }
 213:Drivers/lvgl/lvgl/src/hal/lv_hal_disp.c ****     else {
 214:Drivers/lvgl/lvgl/src/hal/lv_hal_disp.c ****         disp->theme = lv_theme_default_get();
 215:Drivers/lvgl/lvgl/src/hal/lv_hal_disp.c ****     }
 216:Drivers/lvgl/lvgl/src/hal/lv_hal_disp.c **** #endif
 217:Drivers/lvgl/lvgl/src/hal/lv_hal_disp.c **** 
 218:Drivers/lvgl/lvgl/src/hal/lv_hal_disp.c ****     disp->act_scr   = lv_obj_create(NULL); /*Create a default screen on the display*/
 219:Drivers/lvgl/lvgl/src/hal/lv_hal_disp.c ****     disp->top_layer = lv_obj_create(NULL); /*Create top layer on the display*/
 220:Drivers/lvgl/lvgl/src/hal/lv_hal_disp.c ****     disp->sys_layer = lv_obj_create(NULL); /*Create sys layer on the display*/
 221:Drivers/lvgl/lvgl/src/hal/lv_hal_disp.c ****     lv_obj_remove_style_all(disp->top_layer);
 222:Drivers/lvgl/lvgl/src/hal/lv_hal_disp.c ****     lv_obj_remove_style_all(disp->sys_layer);
 223:Drivers/lvgl/lvgl/src/hal/lv_hal_disp.c ****     lv_obj_clear_flag(disp->top_layer, LV_OBJ_FLAG_CLICKABLE);
 224:Drivers/lvgl/lvgl/src/hal/lv_hal_disp.c ****     lv_obj_clear_flag(disp->sys_layer, LV_OBJ_FLAG_CLICKABLE);
 225:Drivers/lvgl/lvgl/src/hal/lv_hal_disp.c **** 
 226:Drivers/lvgl/lvgl/src/hal/lv_hal_disp.c ****     lv_obj_set_scrollbar_mode(disp->top_layer, LV_SCROLLBAR_MODE_OFF);
 227:Drivers/lvgl/lvgl/src/hal/lv_hal_disp.c ****     lv_obj_set_scrollbar_mode(disp->sys_layer, LV_SCROLLBAR_MODE_OFF);
 228:Drivers/lvgl/lvgl/src/hal/lv_hal_disp.c **** 
 229:Drivers/lvgl/lvgl/src/hal/lv_hal_disp.c ****     lv_obj_invalidate(disp->act_scr);
 230:Drivers/lvgl/lvgl/src/hal/lv_hal_disp.c **** 
 231:Drivers/lvgl/lvgl/src/hal/lv_hal_disp.c ****     disp_def = disp_def_tmp; /*Revert the default display*/
 232:Drivers/lvgl/lvgl/src/hal/lv_hal_disp.c ****     if(disp_def == NULL) disp_def = disp; /*Initialize the default display*/
 233:Drivers/lvgl/lvgl/src/hal/lv_hal_disp.c **** 
 234:Drivers/lvgl/lvgl/src/hal/lv_hal_disp.c ****     lv_timer_ready(disp->refr_timer); /*Be sure the screen will be refreshed immediately on start u
 235:Drivers/lvgl/lvgl/src/hal/lv_hal_disp.c **** 
 236:Drivers/lvgl/lvgl/src/hal/lv_hal_disp.c ****     return disp;
 237:Drivers/lvgl/lvgl/src/hal/lv_hal_disp.c **** }
 238:Drivers/lvgl/lvgl/src/hal/lv_hal_disp.c **** 
 239:Drivers/lvgl/lvgl/src/hal/lv_hal_disp.c **** /**
 240:Drivers/lvgl/lvgl/src/hal/lv_hal_disp.c ****  * Update the driver in run time.
 241:Drivers/lvgl/lvgl/src/hal/lv_hal_disp.c ****  * @param disp pointer to a display. (return value of `lv_disp_drv_register`)
 242:Drivers/lvgl/lvgl/src/hal/lv_hal_disp.c ****  * @param new_drv pointer to the new driver
 243:Drivers/lvgl/lvgl/src/hal/lv_hal_disp.c ****  */
 244:Drivers/lvgl/lvgl/src/hal/lv_hal_disp.c **** void lv_disp_drv_update(lv_disp_t * disp, lv_disp_drv_t * new_drv)
 245:Drivers/lvgl/lvgl/src/hal/lv_hal_disp.c **** {
 246:Drivers/lvgl/lvgl/src/hal/lv_hal_disp.c ****     disp->driver = new_drv;
 247:Drivers/lvgl/lvgl/src/hal/lv_hal_disp.c **** 
 248:Drivers/lvgl/lvgl/src/hal/lv_hal_disp.c ****     if(disp->driver->full_refresh &&
 249:Drivers/lvgl/lvgl/src/hal/lv_hal_disp.c ****        disp->driver->draw_buf->size < (uint32_t)disp->driver->hor_res * disp->driver->ver_res) {
 250:Drivers/lvgl/lvgl/src/hal/lv_hal_disp.c ****         disp->driver->full_refresh = 0;
 251:Drivers/lvgl/lvgl/src/hal/lv_hal_disp.c ****         LV_LOG_WARN("full_refresh requires at least screen sized draw buffer(s)");
 252:Drivers/lvgl/lvgl/src/hal/lv_hal_disp.c ****     }
 253:Drivers/lvgl/lvgl/src/hal/lv_hal_disp.c **** 
 254:Drivers/lvgl/lvgl/src/hal/lv_hal_disp.c ****     lv_coord_t w = lv_disp_get_hor_res(disp);
 255:Drivers/lvgl/lvgl/src/hal/lv_hal_disp.c ****     lv_coord_t h = lv_disp_get_ver_res(disp);
 256:Drivers/lvgl/lvgl/src/hal/lv_hal_disp.c ****     uint32_t i;
 257:Drivers/lvgl/lvgl/src/hal/lv_hal_disp.c ****     for(i = 0; i < disp->screen_cnt; i++) {
 258:Drivers/lvgl/lvgl/src/hal/lv_hal_disp.c ****         lv_area_t prev_coords;
 259:Drivers/lvgl/lvgl/src/hal/lv_hal_disp.c ****         lv_obj_get_coords(disp->screens[i], &prev_coords);
 260:Drivers/lvgl/lvgl/src/hal/lv_hal_disp.c ****         lv_area_set_width(&disp->screens[i]->coords, w);
 261:Drivers/lvgl/lvgl/src/hal/lv_hal_disp.c ****         lv_area_set_height(&disp->screens[i]->coords, h);
ARM GAS  /tmp/ccgzxQCw.s 			page 6


 262:Drivers/lvgl/lvgl/src/hal/lv_hal_disp.c ****         lv_event_send(disp->screens[i], LV_EVENT_SIZE_CHANGED, &prev_coords);
 263:Drivers/lvgl/lvgl/src/hal/lv_hal_disp.c ****     }
 264:Drivers/lvgl/lvgl/src/hal/lv_hal_disp.c **** 
 265:Drivers/lvgl/lvgl/src/hal/lv_hal_disp.c ****     /*
 266:Drivers/lvgl/lvgl/src/hal/lv_hal_disp.c ****      * This method is usually called upon orientation change, thus the screen is now a
 267:Drivers/lvgl/lvgl/src/hal/lv_hal_disp.c ****      * different size.
 268:Drivers/lvgl/lvgl/src/hal/lv_hal_disp.c ****      * The object invalidated its previous area. That area is now out of the screen area
 269:Drivers/lvgl/lvgl/src/hal/lv_hal_disp.c ****      * so we reset all invalidated areas and invalidate the active screen's new area only.
 270:Drivers/lvgl/lvgl/src/hal/lv_hal_disp.c ****      */
 271:Drivers/lvgl/lvgl/src/hal/lv_hal_disp.c ****     lv_memset_00(disp->inv_areas, sizeof(disp->inv_areas));
 272:Drivers/lvgl/lvgl/src/hal/lv_hal_disp.c ****     lv_memset_00(disp->inv_area_joined, sizeof(disp->inv_area_joined));
 273:Drivers/lvgl/lvgl/src/hal/lv_hal_disp.c ****     disp->inv_p = 0;
 274:Drivers/lvgl/lvgl/src/hal/lv_hal_disp.c ****     if(disp->act_scr != NULL) lv_obj_invalidate(disp->act_scr);
 275:Drivers/lvgl/lvgl/src/hal/lv_hal_disp.c **** 
 276:Drivers/lvgl/lvgl/src/hal/lv_hal_disp.c ****     lv_obj_tree_walk(NULL, invalidate_layout_cb, NULL);
 277:Drivers/lvgl/lvgl/src/hal/lv_hal_disp.c **** 
 278:Drivers/lvgl/lvgl/src/hal/lv_hal_disp.c ****     if(disp->driver->drv_update_cb) disp->driver->drv_update_cb(disp->driver);
 279:Drivers/lvgl/lvgl/src/hal/lv_hal_disp.c **** }
 280:Drivers/lvgl/lvgl/src/hal/lv_hal_disp.c **** 
 281:Drivers/lvgl/lvgl/src/hal/lv_hal_disp.c **** /**
 282:Drivers/lvgl/lvgl/src/hal/lv_hal_disp.c ****  * Remove a display
 283:Drivers/lvgl/lvgl/src/hal/lv_hal_disp.c ****  * @param disp pointer to display
 284:Drivers/lvgl/lvgl/src/hal/lv_hal_disp.c ****  */
 285:Drivers/lvgl/lvgl/src/hal/lv_hal_disp.c **** void lv_disp_remove(lv_disp_t * disp)
 286:Drivers/lvgl/lvgl/src/hal/lv_hal_disp.c **** {
 287:Drivers/lvgl/lvgl/src/hal/lv_hal_disp.c ****     bool was_default = false;
 288:Drivers/lvgl/lvgl/src/hal/lv_hal_disp.c ****     if(disp == lv_disp_get_default()) was_default = true;
 289:Drivers/lvgl/lvgl/src/hal/lv_hal_disp.c **** 
 290:Drivers/lvgl/lvgl/src/hal/lv_hal_disp.c ****     /*Detach the input devices*/
 291:Drivers/lvgl/lvgl/src/hal/lv_hal_disp.c ****     lv_indev_t * indev;
 292:Drivers/lvgl/lvgl/src/hal/lv_hal_disp.c ****     indev = lv_indev_get_next(NULL);
 293:Drivers/lvgl/lvgl/src/hal/lv_hal_disp.c ****     while(indev) {
 294:Drivers/lvgl/lvgl/src/hal/lv_hal_disp.c ****         if(indev->driver->disp == disp) {
 295:Drivers/lvgl/lvgl/src/hal/lv_hal_disp.c ****             indev->driver->disp = NULL;
 296:Drivers/lvgl/lvgl/src/hal/lv_hal_disp.c ****         }
 297:Drivers/lvgl/lvgl/src/hal/lv_hal_disp.c ****         indev = lv_indev_get_next(indev);
 298:Drivers/lvgl/lvgl/src/hal/lv_hal_disp.c ****     }
 299:Drivers/lvgl/lvgl/src/hal/lv_hal_disp.c **** 
 300:Drivers/lvgl/lvgl/src/hal/lv_hal_disp.c ****     /** delete screen and other obj */
 301:Drivers/lvgl/lvgl/src/hal/lv_hal_disp.c ****     if(disp->sys_layer) {
 302:Drivers/lvgl/lvgl/src/hal/lv_hal_disp.c ****         lv_obj_del(disp->sys_layer);
 303:Drivers/lvgl/lvgl/src/hal/lv_hal_disp.c ****         disp->sys_layer = NULL;
 304:Drivers/lvgl/lvgl/src/hal/lv_hal_disp.c ****     }
 305:Drivers/lvgl/lvgl/src/hal/lv_hal_disp.c ****     if(disp->top_layer) {
 306:Drivers/lvgl/lvgl/src/hal/lv_hal_disp.c ****         lv_obj_del(disp->top_layer);
 307:Drivers/lvgl/lvgl/src/hal/lv_hal_disp.c ****         disp->top_layer = NULL;
 308:Drivers/lvgl/lvgl/src/hal/lv_hal_disp.c ****     }
 309:Drivers/lvgl/lvgl/src/hal/lv_hal_disp.c ****     while(disp->screen_cnt != 0) {
 310:Drivers/lvgl/lvgl/src/hal/lv_hal_disp.c ****         /*Delete the screenst*/
 311:Drivers/lvgl/lvgl/src/hal/lv_hal_disp.c ****         lv_obj_del(disp->screens[0]);
 312:Drivers/lvgl/lvgl/src/hal/lv_hal_disp.c ****     }
 313:Drivers/lvgl/lvgl/src/hal/lv_hal_disp.c **** 
 314:Drivers/lvgl/lvgl/src/hal/lv_hal_disp.c ****     _lv_ll_remove(&LV_GC_ROOT(_lv_disp_ll), disp);
 315:Drivers/lvgl/lvgl/src/hal/lv_hal_disp.c ****     if(disp->refr_timer) lv_timer_del(disp->refr_timer);
 316:Drivers/lvgl/lvgl/src/hal/lv_hal_disp.c ****     lv_mem_free(disp);
 317:Drivers/lvgl/lvgl/src/hal/lv_hal_disp.c **** 
 318:Drivers/lvgl/lvgl/src/hal/lv_hal_disp.c ****     if(was_default) lv_disp_set_default(_lv_ll_get_head(&LV_GC_ROOT(_lv_disp_ll)));
ARM GAS  /tmp/ccgzxQCw.s 			page 7


 319:Drivers/lvgl/lvgl/src/hal/lv_hal_disp.c **** }
 320:Drivers/lvgl/lvgl/src/hal/lv_hal_disp.c **** 
 321:Drivers/lvgl/lvgl/src/hal/lv_hal_disp.c **** /**
 322:Drivers/lvgl/lvgl/src/hal/lv_hal_disp.c ****  * Set a default display. The new screens will be created on it by default.
 323:Drivers/lvgl/lvgl/src/hal/lv_hal_disp.c ****  * @param disp pointer to a display
 324:Drivers/lvgl/lvgl/src/hal/lv_hal_disp.c ****  */
 325:Drivers/lvgl/lvgl/src/hal/lv_hal_disp.c **** void lv_disp_set_default(lv_disp_t * disp)
 326:Drivers/lvgl/lvgl/src/hal/lv_hal_disp.c **** {
 327:Drivers/lvgl/lvgl/src/hal/lv_hal_disp.c ****     disp_def = disp;
 328:Drivers/lvgl/lvgl/src/hal/lv_hal_disp.c **** }
 329:Drivers/lvgl/lvgl/src/hal/lv_hal_disp.c **** 
 330:Drivers/lvgl/lvgl/src/hal/lv_hal_disp.c **** /**
 331:Drivers/lvgl/lvgl/src/hal/lv_hal_disp.c ****  * Get the default display
 332:Drivers/lvgl/lvgl/src/hal/lv_hal_disp.c ****  * @return pointer to the default display
 333:Drivers/lvgl/lvgl/src/hal/lv_hal_disp.c ****  */
 334:Drivers/lvgl/lvgl/src/hal/lv_hal_disp.c **** lv_disp_t * lv_disp_get_default(void)
 335:Drivers/lvgl/lvgl/src/hal/lv_hal_disp.c **** {
 336:Drivers/lvgl/lvgl/src/hal/lv_hal_disp.c ****     return disp_def;
 337:Drivers/lvgl/lvgl/src/hal/lv_hal_disp.c **** }
 338:Drivers/lvgl/lvgl/src/hal/lv_hal_disp.c **** 
 339:Drivers/lvgl/lvgl/src/hal/lv_hal_disp.c **** /**
 340:Drivers/lvgl/lvgl/src/hal/lv_hal_disp.c ****  * Get the horizontal resolution of a display
 341:Drivers/lvgl/lvgl/src/hal/lv_hal_disp.c ****  * @param disp pointer to a display (NULL to use the default display)
 342:Drivers/lvgl/lvgl/src/hal/lv_hal_disp.c ****  * @return the horizontal resolution of the display
 343:Drivers/lvgl/lvgl/src/hal/lv_hal_disp.c ****  */
 344:Drivers/lvgl/lvgl/src/hal/lv_hal_disp.c **** lv_coord_t lv_disp_get_hor_res(lv_disp_t * disp)
 345:Drivers/lvgl/lvgl/src/hal/lv_hal_disp.c **** {
 346:Drivers/lvgl/lvgl/src/hal/lv_hal_disp.c ****     if(disp == NULL) disp = lv_disp_get_default();
 347:Drivers/lvgl/lvgl/src/hal/lv_hal_disp.c **** 
 348:Drivers/lvgl/lvgl/src/hal/lv_hal_disp.c ****     if(disp == NULL) {
 349:Drivers/lvgl/lvgl/src/hal/lv_hal_disp.c ****         return 0;
 350:Drivers/lvgl/lvgl/src/hal/lv_hal_disp.c ****     }
 351:Drivers/lvgl/lvgl/src/hal/lv_hal_disp.c ****     else {
 352:Drivers/lvgl/lvgl/src/hal/lv_hal_disp.c ****         switch(disp->driver->rotated) {
 353:Drivers/lvgl/lvgl/src/hal/lv_hal_disp.c ****             case LV_DISP_ROT_90:
 354:Drivers/lvgl/lvgl/src/hal/lv_hal_disp.c ****             case LV_DISP_ROT_270:
 355:Drivers/lvgl/lvgl/src/hal/lv_hal_disp.c ****                 return disp->driver->ver_res;
 356:Drivers/lvgl/lvgl/src/hal/lv_hal_disp.c ****             default:
 357:Drivers/lvgl/lvgl/src/hal/lv_hal_disp.c ****                 return disp->driver->hor_res;
 358:Drivers/lvgl/lvgl/src/hal/lv_hal_disp.c ****         }
 359:Drivers/lvgl/lvgl/src/hal/lv_hal_disp.c ****     }
 360:Drivers/lvgl/lvgl/src/hal/lv_hal_disp.c **** }
 361:Drivers/lvgl/lvgl/src/hal/lv_hal_disp.c **** 
 362:Drivers/lvgl/lvgl/src/hal/lv_hal_disp.c **** /**
 363:Drivers/lvgl/lvgl/src/hal/lv_hal_disp.c ****  * Get the vertical resolution of a display
 364:Drivers/lvgl/lvgl/src/hal/lv_hal_disp.c ****  * @param disp pointer to a display (NULL to use the default display)
 365:Drivers/lvgl/lvgl/src/hal/lv_hal_disp.c ****  * @return the vertical resolution of the display
 366:Drivers/lvgl/lvgl/src/hal/lv_hal_disp.c ****  */
 367:Drivers/lvgl/lvgl/src/hal/lv_hal_disp.c **** lv_coord_t lv_disp_get_ver_res(lv_disp_t * disp)
 368:Drivers/lvgl/lvgl/src/hal/lv_hal_disp.c **** {
 369:Drivers/lvgl/lvgl/src/hal/lv_hal_disp.c ****     if(disp == NULL) disp = lv_disp_get_default();
 370:Drivers/lvgl/lvgl/src/hal/lv_hal_disp.c **** 
 371:Drivers/lvgl/lvgl/src/hal/lv_hal_disp.c ****     if(disp == NULL) {
 372:Drivers/lvgl/lvgl/src/hal/lv_hal_disp.c ****         return 0;
 373:Drivers/lvgl/lvgl/src/hal/lv_hal_disp.c ****     }
 374:Drivers/lvgl/lvgl/src/hal/lv_hal_disp.c ****     else {
 375:Drivers/lvgl/lvgl/src/hal/lv_hal_disp.c ****         switch(disp->driver->rotated) {
ARM GAS  /tmp/ccgzxQCw.s 			page 8


 376:Drivers/lvgl/lvgl/src/hal/lv_hal_disp.c ****             case LV_DISP_ROT_90:
 377:Drivers/lvgl/lvgl/src/hal/lv_hal_disp.c ****             case LV_DISP_ROT_270:
 378:Drivers/lvgl/lvgl/src/hal/lv_hal_disp.c ****                 return disp->driver->hor_res;
 379:Drivers/lvgl/lvgl/src/hal/lv_hal_disp.c ****             default:
 380:Drivers/lvgl/lvgl/src/hal/lv_hal_disp.c ****                 return disp->driver->ver_res;
 381:Drivers/lvgl/lvgl/src/hal/lv_hal_disp.c ****         }
 382:Drivers/lvgl/lvgl/src/hal/lv_hal_disp.c ****     }
 383:Drivers/lvgl/lvgl/src/hal/lv_hal_disp.c **** }
 384:Drivers/lvgl/lvgl/src/hal/lv_hal_disp.c **** 
 385:Drivers/lvgl/lvgl/src/hal/lv_hal_disp.c **** /**
 386:Drivers/lvgl/lvgl/src/hal/lv_hal_disp.c ****  * Get the full / physical horizontal resolution of a display
 387:Drivers/lvgl/lvgl/src/hal/lv_hal_disp.c ****  * @param disp pointer to a display (NULL to use the default display)
 388:Drivers/lvgl/lvgl/src/hal/lv_hal_disp.c ****  * @return the full / physical horizontal resolution of the display
 389:Drivers/lvgl/lvgl/src/hal/lv_hal_disp.c ****  */
 390:Drivers/lvgl/lvgl/src/hal/lv_hal_disp.c **** lv_coord_t lv_disp_get_physical_hor_res(lv_disp_t * disp)
 391:Drivers/lvgl/lvgl/src/hal/lv_hal_disp.c **** {
 392:Drivers/lvgl/lvgl/src/hal/lv_hal_disp.c ****     if(disp == NULL) disp = lv_disp_get_default();
 393:Drivers/lvgl/lvgl/src/hal/lv_hal_disp.c **** 
 394:Drivers/lvgl/lvgl/src/hal/lv_hal_disp.c ****     if(disp == NULL) {
 395:Drivers/lvgl/lvgl/src/hal/lv_hal_disp.c ****         return 0;
 396:Drivers/lvgl/lvgl/src/hal/lv_hal_disp.c ****     }
 397:Drivers/lvgl/lvgl/src/hal/lv_hal_disp.c ****     else {
 398:Drivers/lvgl/lvgl/src/hal/lv_hal_disp.c ****         switch(disp->driver->rotated) {
 399:Drivers/lvgl/lvgl/src/hal/lv_hal_disp.c ****             case LV_DISP_ROT_90:
 400:Drivers/lvgl/lvgl/src/hal/lv_hal_disp.c ****             case LV_DISP_ROT_270:
 401:Drivers/lvgl/lvgl/src/hal/lv_hal_disp.c ****                 return disp->driver->physical_ver_res > 0 ? disp->driver->physical_ver_res : disp->
 402:Drivers/lvgl/lvgl/src/hal/lv_hal_disp.c ****             default:
 403:Drivers/lvgl/lvgl/src/hal/lv_hal_disp.c ****                 return disp->driver->physical_hor_res > 0 ? disp->driver->physical_hor_res : disp->
 404:Drivers/lvgl/lvgl/src/hal/lv_hal_disp.c ****         }
 405:Drivers/lvgl/lvgl/src/hal/lv_hal_disp.c ****     }
 406:Drivers/lvgl/lvgl/src/hal/lv_hal_disp.c **** }
 407:Drivers/lvgl/lvgl/src/hal/lv_hal_disp.c **** 
 408:Drivers/lvgl/lvgl/src/hal/lv_hal_disp.c **** /**
 409:Drivers/lvgl/lvgl/src/hal/lv_hal_disp.c ****  * Get the full / physical vertical resolution of a display
 410:Drivers/lvgl/lvgl/src/hal/lv_hal_disp.c ****  * @param disp pointer to a display (NULL to use the default display)
 411:Drivers/lvgl/lvgl/src/hal/lv_hal_disp.c ****  * @return the full / physical vertical resolution of the display
 412:Drivers/lvgl/lvgl/src/hal/lv_hal_disp.c ****  */
 413:Drivers/lvgl/lvgl/src/hal/lv_hal_disp.c **** lv_coord_t lv_disp_get_physical_ver_res(lv_disp_t * disp)
 414:Drivers/lvgl/lvgl/src/hal/lv_hal_disp.c **** {
 415:Drivers/lvgl/lvgl/src/hal/lv_hal_disp.c ****     if(disp == NULL) disp = lv_disp_get_default();
 416:Drivers/lvgl/lvgl/src/hal/lv_hal_disp.c **** 
 417:Drivers/lvgl/lvgl/src/hal/lv_hal_disp.c ****     if(disp == NULL) {
 418:Drivers/lvgl/lvgl/src/hal/lv_hal_disp.c ****         return 0;
 419:Drivers/lvgl/lvgl/src/hal/lv_hal_disp.c ****     }
 420:Drivers/lvgl/lvgl/src/hal/lv_hal_disp.c ****     else {
 421:Drivers/lvgl/lvgl/src/hal/lv_hal_disp.c ****         switch(disp->driver->rotated) {
 422:Drivers/lvgl/lvgl/src/hal/lv_hal_disp.c ****             case LV_DISP_ROT_90:
 423:Drivers/lvgl/lvgl/src/hal/lv_hal_disp.c ****             case LV_DISP_ROT_270:
 424:Drivers/lvgl/lvgl/src/hal/lv_hal_disp.c ****                 return disp->driver->physical_hor_res > 0 ? disp->driver->physical_hor_res : disp->
 425:Drivers/lvgl/lvgl/src/hal/lv_hal_disp.c ****             default:
 426:Drivers/lvgl/lvgl/src/hal/lv_hal_disp.c ****                 return disp->driver->physical_ver_res > 0 ? disp->driver->physical_ver_res : disp->
 427:Drivers/lvgl/lvgl/src/hal/lv_hal_disp.c ****         }
 428:Drivers/lvgl/lvgl/src/hal/lv_hal_disp.c ****     }
 429:Drivers/lvgl/lvgl/src/hal/lv_hal_disp.c **** }
 430:Drivers/lvgl/lvgl/src/hal/lv_hal_disp.c **** 
 431:Drivers/lvgl/lvgl/src/hal/lv_hal_disp.c **** /**
 432:Drivers/lvgl/lvgl/src/hal/lv_hal_disp.c ****  * Get the horizontal offset from the full / physical display
ARM GAS  /tmp/ccgzxQCw.s 			page 9


 433:Drivers/lvgl/lvgl/src/hal/lv_hal_disp.c ****  * @param disp pointer to a display (NULL to use the default display)
 434:Drivers/lvgl/lvgl/src/hal/lv_hal_disp.c ****  * @return the horizontal offset from the full / physical display
 435:Drivers/lvgl/lvgl/src/hal/lv_hal_disp.c ****  */
 436:Drivers/lvgl/lvgl/src/hal/lv_hal_disp.c **** lv_coord_t lv_disp_get_offset_x(lv_disp_t * disp)
 437:Drivers/lvgl/lvgl/src/hal/lv_hal_disp.c **** {
 438:Drivers/lvgl/lvgl/src/hal/lv_hal_disp.c ****     if(disp == NULL) disp = lv_disp_get_default();
 439:Drivers/lvgl/lvgl/src/hal/lv_hal_disp.c **** 
 440:Drivers/lvgl/lvgl/src/hal/lv_hal_disp.c ****     if(disp == NULL) {
 441:Drivers/lvgl/lvgl/src/hal/lv_hal_disp.c ****         return 0;
 442:Drivers/lvgl/lvgl/src/hal/lv_hal_disp.c ****     }
 443:Drivers/lvgl/lvgl/src/hal/lv_hal_disp.c ****     else {
 444:Drivers/lvgl/lvgl/src/hal/lv_hal_disp.c ****         switch(disp->driver->rotated) {
 445:Drivers/lvgl/lvgl/src/hal/lv_hal_disp.c ****             case LV_DISP_ROT_90:
 446:Drivers/lvgl/lvgl/src/hal/lv_hal_disp.c ****                 return disp->driver->offset_y;
 447:Drivers/lvgl/lvgl/src/hal/lv_hal_disp.c ****             case LV_DISP_ROT_180:
 448:Drivers/lvgl/lvgl/src/hal/lv_hal_disp.c ****                 return lv_disp_get_physical_hor_res(disp) - disp->driver->offset_x;
 449:Drivers/lvgl/lvgl/src/hal/lv_hal_disp.c ****             case LV_DISP_ROT_270:
 450:Drivers/lvgl/lvgl/src/hal/lv_hal_disp.c ****                 return lv_disp_get_physical_hor_res(disp) - disp->driver->offset_y;
 451:Drivers/lvgl/lvgl/src/hal/lv_hal_disp.c ****             default:
 452:Drivers/lvgl/lvgl/src/hal/lv_hal_disp.c ****                 return disp->driver->offset_x;
 453:Drivers/lvgl/lvgl/src/hal/lv_hal_disp.c ****         }
 454:Drivers/lvgl/lvgl/src/hal/lv_hal_disp.c ****     }
 455:Drivers/lvgl/lvgl/src/hal/lv_hal_disp.c **** }
 456:Drivers/lvgl/lvgl/src/hal/lv_hal_disp.c **** 
 457:Drivers/lvgl/lvgl/src/hal/lv_hal_disp.c **** /**
 458:Drivers/lvgl/lvgl/src/hal/lv_hal_disp.c ****  * Get the vertical offset from the full / physical display
 459:Drivers/lvgl/lvgl/src/hal/lv_hal_disp.c ****  * @param disp pointer to a display (NULL to use the default display)
 460:Drivers/lvgl/lvgl/src/hal/lv_hal_disp.c ****  * @return the horizontal offset from the full / physical display
 461:Drivers/lvgl/lvgl/src/hal/lv_hal_disp.c ****  */
 462:Drivers/lvgl/lvgl/src/hal/lv_hal_disp.c **** lv_coord_t lv_disp_get_offset_y(lv_disp_t * disp)
 463:Drivers/lvgl/lvgl/src/hal/lv_hal_disp.c **** {
 464:Drivers/lvgl/lvgl/src/hal/lv_hal_disp.c ****     if(disp == NULL) disp = lv_disp_get_default();
 465:Drivers/lvgl/lvgl/src/hal/lv_hal_disp.c **** 
 466:Drivers/lvgl/lvgl/src/hal/lv_hal_disp.c ****     if(disp == NULL) {
 467:Drivers/lvgl/lvgl/src/hal/lv_hal_disp.c ****         return 0;
 468:Drivers/lvgl/lvgl/src/hal/lv_hal_disp.c ****     }
 469:Drivers/lvgl/lvgl/src/hal/lv_hal_disp.c ****     else {
 470:Drivers/lvgl/lvgl/src/hal/lv_hal_disp.c ****         switch(disp->driver->rotated) {
 471:Drivers/lvgl/lvgl/src/hal/lv_hal_disp.c ****             case LV_DISP_ROT_90:
 472:Drivers/lvgl/lvgl/src/hal/lv_hal_disp.c ****                 return disp->driver->offset_x;
 473:Drivers/lvgl/lvgl/src/hal/lv_hal_disp.c ****             case LV_DISP_ROT_180:
 474:Drivers/lvgl/lvgl/src/hal/lv_hal_disp.c ****                 return lv_disp_get_physical_ver_res(disp) - disp->driver->offset_y;
 475:Drivers/lvgl/lvgl/src/hal/lv_hal_disp.c ****             case LV_DISP_ROT_270:
 476:Drivers/lvgl/lvgl/src/hal/lv_hal_disp.c ****                 return lv_disp_get_physical_ver_res(disp) - disp->driver->offset_x;
 477:Drivers/lvgl/lvgl/src/hal/lv_hal_disp.c ****             default:
 478:Drivers/lvgl/lvgl/src/hal/lv_hal_disp.c ****                 return disp->driver->offset_y;
 479:Drivers/lvgl/lvgl/src/hal/lv_hal_disp.c ****         }
 480:Drivers/lvgl/lvgl/src/hal/lv_hal_disp.c ****     }
 481:Drivers/lvgl/lvgl/src/hal/lv_hal_disp.c **** }
 482:Drivers/lvgl/lvgl/src/hal/lv_hal_disp.c **** 
 483:Drivers/lvgl/lvgl/src/hal/lv_hal_disp.c **** /**
 484:Drivers/lvgl/lvgl/src/hal/lv_hal_disp.c ****  * Get if anti-aliasing is enabled for a display or not
 485:Drivers/lvgl/lvgl/src/hal/lv_hal_disp.c ****  * @param disp pointer to a display (NULL to use the default display)
 486:Drivers/lvgl/lvgl/src/hal/lv_hal_disp.c ****  * @return true: anti-aliasing is enabled; false: disabled
 487:Drivers/lvgl/lvgl/src/hal/lv_hal_disp.c ****  */
 488:Drivers/lvgl/lvgl/src/hal/lv_hal_disp.c **** bool lv_disp_get_antialiasing(lv_disp_t * disp)
 489:Drivers/lvgl/lvgl/src/hal/lv_hal_disp.c **** {
ARM GAS  /tmp/ccgzxQCw.s 			page 10


 490:Drivers/lvgl/lvgl/src/hal/lv_hal_disp.c ****     if(disp == NULL) disp = lv_disp_get_default();
 491:Drivers/lvgl/lvgl/src/hal/lv_hal_disp.c ****     if(disp == NULL) return false;
 492:Drivers/lvgl/lvgl/src/hal/lv_hal_disp.c **** 
 493:Drivers/lvgl/lvgl/src/hal/lv_hal_disp.c ****     return disp->driver->antialiasing ? true : false;
 494:Drivers/lvgl/lvgl/src/hal/lv_hal_disp.c **** }
 495:Drivers/lvgl/lvgl/src/hal/lv_hal_disp.c **** 
 496:Drivers/lvgl/lvgl/src/hal/lv_hal_disp.c **** /**
 497:Drivers/lvgl/lvgl/src/hal/lv_hal_disp.c ****  * Get the DPI of the display
 498:Drivers/lvgl/lvgl/src/hal/lv_hal_disp.c ****  * @param disp pointer to a display (NULL to use the default display)
 499:Drivers/lvgl/lvgl/src/hal/lv_hal_disp.c ****  * @return dpi of the display
 500:Drivers/lvgl/lvgl/src/hal/lv_hal_disp.c ****  */
 501:Drivers/lvgl/lvgl/src/hal/lv_hal_disp.c **** lv_coord_t lv_disp_get_dpi(const lv_disp_t * disp)
 502:Drivers/lvgl/lvgl/src/hal/lv_hal_disp.c **** {
 503:Drivers/lvgl/lvgl/src/hal/lv_hal_disp.c ****     if(disp == NULL) disp = lv_disp_get_default();
 504:Drivers/lvgl/lvgl/src/hal/lv_hal_disp.c ****     if(disp == NULL) return LV_DPI_DEF;  /*Do not return 0 because it might be a divider*/
 505:Drivers/lvgl/lvgl/src/hal/lv_hal_disp.c ****     return disp->driver->dpi;
 506:Drivers/lvgl/lvgl/src/hal/lv_hal_disp.c **** }
 507:Drivers/lvgl/lvgl/src/hal/lv_hal_disp.c **** 
 508:Drivers/lvgl/lvgl/src/hal/lv_hal_disp.c **** /**
 509:Drivers/lvgl/lvgl/src/hal/lv_hal_disp.c ****  * Call in the display driver's `flush_cb` function when the flushing is finished
 510:Drivers/lvgl/lvgl/src/hal/lv_hal_disp.c ****  * @param disp_drv pointer to display driver in `flush_cb` where this function is called
 511:Drivers/lvgl/lvgl/src/hal/lv_hal_disp.c ****  */
 512:Drivers/lvgl/lvgl/src/hal/lv_hal_disp.c **** LV_ATTRIBUTE_FLUSH_READY void lv_disp_flush_ready(lv_disp_drv_t * disp_drv)
 513:Drivers/lvgl/lvgl/src/hal/lv_hal_disp.c **** {
 514:Drivers/lvgl/lvgl/src/hal/lv_hal_disp.c ****     disp_drv->draw_buf->flushing = 0;
 515:Drivers/lvgl/lvgl/src/hal/lv_hal_disp.c ****     disp_drv->draw_buf->flushing_last = 0;
 516:Drivers/lvgl/lvgl/src/hal/lv_hal_disp.c **** }
 517:Drivers/lvgl/lvgl/src/hal/lv_hal_disp.c **** 
 518:Drivers/lvgl/lvgl/src/hal/lv_hal_disp.c **** /**
 519:Drivers/lvgl/lvgl/src/hal/lv_hal_disp.c ****  * Tell if it's the last area of the refreshing process.
 520:Drivers/lvgl/lvgl/src/hal/lv_hal_disp.c ****  * Can be called from `flush_cb` to execute some special display refreshing if needed when all area
 521:Drivers/lvgl/lvgl/src/hal/lv_hal_disp.c ****  * @param disp_drv pointer to display driver
 522:Drivers/lvgl/lvgl/src/hal/lv_hal_disp.c ****  * @return true: it's the last area to flush; false: there are other areas too which will be refres
 523:Drivers/lvgl/lvgl/src/hal/lv_hal_disp.c ****  */
 524:Drivers/lvgl/lvgl/src/hal/lv_hal_disp.c **** LV_ATTRIBUTE_FLUSH_READY bool lv_disp_flush_is_last(lv_disp_drv_t * disp_drv)
 525:Drivers/lvgl/lvgl/src/hal/lv_hal_disp.c **** {
 526:Drivers/lvgl/lvgl/src/hal/lv_hal_disp.c ****     return disp_drv->draw_buf->flushing_last;
 527:Drivers/lvgl/lvgl/src/hal/lv_hal_disp.c **** }
 528:Drivers/lvgl/lvgl/src/hal/lv_hal_disp.c **** 
 529:Drivers/lvgl/lvgl/src/hal/lv_hal_disp.c **** /**
 530:Drivers/lvgl/lvgl/src/hal/lv_hal_disp.c ****  * Get the next display.
 531:Drivers/lvgl/lvgl/src/hal/lv_hal_disp.c ****  * @param disp pointer to the current display. NULL to initialize.
 532:Drivers/lvgl/lvgl/src/hal/lv_hal_disp.c ****  * @return the next display or NULL if no more. Give the first display when the parameter is NULL
 533:Drivers/lvgl/lvgl/src/hal/lv_hal_disp.c ****  */
 534:Drivers/lvgl/lvgl/src/hal/lv_hal_disp.c **** lv_disp_t * lv_disp_get_next(lv_disp_t * disp)
 535:Drivers/lvgl/lvgl/src/hal/lv_hal_disp.c **** {
 536:Drivers/lvgl/lvgl/src/hal/lv_hal_disp.c ****     if(disp == NULL)
 537:Drivers/lvgl/lvgl/src/hal/lv_hal_disp.c ****         return _lv_ll_get_head(&LV_GC_ROOT(_lv_disp_ll));
 538:Drivers/lvgl/lvgl/src/hal/lv_hal_disp.c ****     else
 539:Drivers/lvgl/lvgl/src/hal/lv_hal_disp.c ****         return _lv_ll_get_next(&LV_GC_ROOT(_lv_disp_ll), disp);
 540:Drivers/lvgl/lvgl/src/hal/lv_hal_disp.c **** }
 541:Drivers/lvgl/lvgl/src/hal/lv_hal_disp.c **** 
 542:Drivers/lvgl/lvgl/src/hal/lv_hal_disp.c **** /**
 543:Drivers/lvgl/lvgl/src/hal/lv_hal_disp.c ****  * Get the internal buffer of a display
 544:Drivers/lvgl/lvgl/src/hal/lv_hal_disp.c ****  * @param disp pointer to a display
 545:Drivers/lvgl/lvgl/src/hal/lv_hal_disp.c ****  * @return pointer to the internal buffers
 546:Drivers/lvgl/lvgl/src/hal/lv_hal_disp.c ****  */
ARM GAS  /tmp/ccgzxQCw.s 			page 11


 547:Drivers/lvgl/lvgl/src/hal/lv_hal_disp.c **** lv_disp_draw_buf_t * lv_disp_get_draw_buf(lv_disp_t * disp)
 548:Drivers/lvgl/lvgl/src/hal/lv_hal_disp.c **** {
 549:Drivers/lvgl/lvgl/src/hal/lv_hal_disp.c ****     return disp->driver->draw_buf;
 550:Drivers/lvgl/lvgl/src/hal/lv_hal_disp.c **** }
 551:Drivers/lvgl/lvgl/src/hal/lv_hal_disp.c **** 
 552:Drivers/lvgl/lvgl/src/hal/lv_hal_disp.c **** /**
 553:Drivers/lvgl/lvgl/src/hal/lv_hal_disp.c ****  * Set the rotation of this display.
 554:Drivers/lvgl/lvgl/src/hal/lv_hal_disp.c ****  * @param disp pointer to a display (NULL to use the default display)
 555:Drivers/lvgl/lvgl/src/hal/lv_hal_disp.c ****  * @param rotation rotation angle
 556:Drivers/lvgl/lvgl/src/hal/lv_hal_disp.c ****  */
 557:Drivers/lvgl/lvgl/src/hal/lv_hal_disp.c **** void lv_disp_set_rotation(lv_disp_t * disp, lv_disp_rot_t rotation)
 558:Drivers/lvgl/lvgl/src/hal/lv_hal_disp.c **** {
 559:Drivers/lvgl/lvgl/src/hal/lv_hal_disp.c ****     if(disp == NULL) disp = lv_disp_get_default();
 560:Drivers/lvgl/lvgl/src/hal/lv_hal_disp.c ****     if(disp == NULL) return;
 561:Drivers/lvgl/lvgl/src/hal/lv_hal_disp.c **** 
 562:Drivers/lvgl/lvgl/src/hal/lv_hal_disp.c ****     disp->driver->rotated = rotation;
 563:Drivers/lvgl/lvgl/src/hal/lv_hal_disp.c ****     lv_disp_drv_update(disp, disp->driver);
 564:Drivers/lvgl/lvgl/src/hal/lv_hal_disp.c **** }
 565:Drivers/lvgl/lvgl/src/hal/lv_hal_disp.c **** 
 566:Drivers/lvgl/lvgl/src/hal/lv_hal_disp.c **** /**
 567:Drivers/lvgl/lvgl/src/hal/lv_hal_disp.c ****  * Get the current rotation of this display.
 568:Drivers/lvgl/lvgl/src/hal/lv_hal_disp.c ****  * @param disp pointer to a display (NULL to use the default display)
 569:Drivers/lvgl/lvgl/src/hal/lv_hal_disp.c ****  * @return rotation angle
 570:Drivers/lvgl/lvgl/src/hal/lv_hal_disp.c ****  */
 571:Drivers/lvgl/lvgl/src/hal/lv_hal_disp.c **** lv_disp_rot_t lv_disp_get_rotation(lv_disp_t * disp)
 572:Drivers/lvgl/lvgl/src/hal/lv_hal_disp.c **** {
 573:Drivers/lvgl/lvgl/src/hal/lv_hal_disp.c ****     if(disp == NULL) disp = lv_disp_get_default();
 574:Drivers/lvgl/lvgl/src/hal/lv_hal_disp.c ****     if(disp == NULL) return LV_DISP_ROT_NONE;
 575:Drivers/lvgl/lvgl/src/hal/lv_hal_disp.c ****     return disp->driver->rotated;
 576:Drivers/lvgl/lvgl/src/hal/lv_hal_disp.c **** }
 577:Drivers/lvgl/lvgl/src/hal/lv_hal_disp.c **** 
 578:Drivers/lvgl/lvgl/src/hal/lv_hal_disp.c **** void lv_disp_drv_use_generic_set_px_cb(lv_disp_drv_t * disp_drv, lv_img_cf_t cf)
 579:Drivers/lvgl/lvgl/src/hal/lv_hal_disp.c **** {
 580:Drivers/lvgl/lvgl/src/hal/lv_hal_disp.c ****     switch(cf) {
 581:Drivers/lvgl/lvgl/src/hal/lv_hal_disp.c ****         case LV_IMG_CF_TRUE_COLOR_ALPHA:
 582:Drivers/lvgl/lvgl/src/hal/lv_hal_disp.c ****             disp_drv->set_px_cb = set_px_true_color_alpha;
 583:Drivers/lvgl/lvgl/src/hal/lv_hal_disp.c ****             break;
 584:Drivers/lvgl/lvgl/src/hal/lv_hal_disp.c ****         case LV_IMG_CF_ALPHA_1BIT:
 585:Drivers/lvgl/lvgl/src/hal/lv_hal_disp.c ****             disp_drv->set_px_cb = set_px_cb_alpha1;
 586:Drivers/lvgl/lvgl/src/hal/lv_hal_disp.c ****             break;
 587:Drivers/lvgl/lvgl/src/hal/lv_hal_disp.c ****         case LV_IMG_CF_ALPHA_2BIT:
 588:Drivers/lvgl/lvgl/src/hal/lv_hal_disp.c ****             disp_drv->set_px_cb = set_px_cb_alpha2;
 589:Drivers/lvgl/lvgl/src/hal/lv_hal_disp.c ****             break;
 590:Drivers/lvgl/lvgl/src/hal/lv_hal_disp.c ****         case LV_IMG_CF_ALPHA_4BIT:
 591:Drivers/lvgl/lvgl/src/hal/lv_hal_disp.c ****             disp_drv->set_px_cb = set_px_cb_alpha4;
 592:Drivers/lvgl/lvgl/src/hal/lv_hal_disp.c ****             break;
 593:Drivers/lvgl/lvgl/src/hal/lv_hal_disp.c ****         case LV_IMG_CF_ALPHA_8BIT:
 594:Drivers/lvgl/lvgl/src/hal/lv_hal_disp.c ****             disp_drv->set_px_cb = set_px_cb_alpha8;
 595:Drivers/lvgl/lvgl/src/hal/lv_hal_disp.c ****             break;
 596:Drivers/lvgl/lvgl/src/hal/lv_hal_disp.c ****         default:
 597:Drivers/lvgl/lvgl/src/hal/lv_hal_disp.c ****             disp_drv->set_px_cb = NULL;
 598:Drivers/lvgl/lvgl/src/hal/lv_hal_disp.c ****     }
 599:Drivers/lvgl/lvgl/src/hal/lv_hal_disp.c **** }
 600:Drivers/lvgl/lvgl/src/hal/lv_hal_disp.c **** 
 601:Drivers/lvgl/lvgl/src/hal/lv_hal_disp.c **** /**********************
 602:Drivers/lvgl/lvgl/src/hal/lv_hal_disp.c ****  *   STATIC FUNCTIONS
 603:Drivers/lvgl/lvgl/src/hal/lv_hal_disp.c ****  **********************/
ARM GAS  /tmp/ccgzxQCw.s 			page 12


 604:Drivers/lvgl/lvgl/src/hal/lv_hal_disp.c **** 
 605:Drivers/lvgl/lvgl/src/hal/lv_hal_disp.c **** static lv_obj_tree_walk_res_t invalidate_layout_cb(lv_obj_t * obj, void * user_data)
 606:Drivers/lvgl/lvgl/src/hal/lv_hal_disp.c **** {
 607:Drivers/lvgl/lvgl/src/hal/lv_hal_disp.c ****     LV_UNUSED(user_data);
 608:Drivers/lvgl/lvgl/src/hal/lv_hal_disp.c ****     lv_obj_mark_layout_as_dirty(obj);
 609:Drivers/lvgl/lvgl/src/hal/lv_hal_disp.c ****     return LV_OBJ_TREE_WALK_NEXT;
 610:Drivers/lvgl/lvgl/src/hal/lv_hal_disp.c **** }
 611:Drivers/lvgl/lvgl/src/hal/lv_hal_disp.c **** 
 612:Drivers/lvgl/lvgl/src/hal/lv_hal_disp.c **** static void set_px_cb_alpha1(lv_disp_drv_t * disp_drv, uint8_t * buf, lv_coord_t buf_w, lv_coord_t 
 613:Drivers/lvgl/lvgl/src/hal/lv_hal_disp.c ****                              lv_color_t color, lv_opa_t opa)
 614:Drivers/lvgl/lvgl/src/hal/lv_hal_disp.c **** {
 615:Drivers/lvgl/lvgl/src/hal/lv_hal_disp.c ****     (void) disp_drv; /*Unused*/
 616:Drivers/lvgl/lvgl/src/hal/lv_hal_disp.c **** 
 617:Drivers/lvgl/lvgl/src/hal/lv_hal_disp.c ****     if(opa <= LV_OPA_MIN) return;
 618:Drivers/lvgl/lvgl/src/hal/lv_hal_disp.c ****     lv_img_dsc_t d;
 619:Drivers/lvgl/lvgl/src/hal/lv_hal_disp.c ****     d.data = buf;
 620:Drivers/lvgl/lvgl/src/hal/lv_hal_disp.c ****     d.header.w = buf_w;
 621:Drivers/lvgl/lvgl/src/hal/lv_hal_disp.c ****     d.header.cf = LV_IMG_CF_ALPHA_1BIT;
 622:Drivers/lvgl/lvgl/src/hal/lv_hal_disp.c **** 
 623:Drivers/lvgl/lvgl/src/hal/lv_hal_disp.c ****     set_px_alpha_generic(&d, x, y, color, opa);
 624:Drivers/lvgl/lvgl/src/hal/lv_hal_disp.c **** }
 625:Drivers/lvgl/lvgl/src/hal/lv_hal_disp.c **** 
 626:Drivers/lvgl/lvgl/src/hal/lv_hal_disp.c **** static void set_px_cb_alpha2(lv_disp_drv_t * disp_drv, uint8_t * buf, lv_coord_t buf_w, lv_coord_t 
 627:Drivers/lvgl/lvgl/src/hal/lv_hal_disp.c ****                              lv_color_t color, lv_opa_t opa)
 628:Drivers/lvgl/lvgl/src/hal/lv_hal_disp.c **** {
 629:Drivers/lvgl/lvgl/src/hal/lv_hal_disp.c ****     (void) disp_drv; /*Unused*/
 630:Drivers/lvgl/lvgl/src/hal/lv_hal_disp.c **** 
 631:Drivers/lvgl/lvgl/src/hal/lv_hal_disp.c ****     if(opa <= LV_OPA_MIN) return;
 632:Drivers/lvgl/lvgl/src/hal/lv_hal_disp.c ****     lv_img_dsc_t d;
 633:Drivers/lvgl/lvgl/src/hal/lv_hal_disp.c ****     d.data = buf;
 634:Drivers/lvgl/lvgl/src/hal/lv_hal_disp.c ****     d.header.w = buf_w;
 635:Drivers/lvgl/lvgl/src/hal/lv_hal_disp.c ****     d.header.cf = LV_IMG_CF_ALPHA_2BIT;
 636:Drivers/lvgl/lvgl/src/hal/lv_hal_disp.c **** 
 637:Drivers/lvgl/lvgl/src/hal/lv_hal_disp.c ****     set_px_alpha_generic(&d, x, y, color, opa);
 638:Drivers/lvgl/lvgl/src/hal/lv_hal_disp.c **** }
 639:Drivers/lvgl/lvgl/src/hal/lv_hal_disp.c **** 
 640:Drivers/lvgl/lvgl/src/hal/lv_hal_disp.c **** static void set_px_cb_alpha4(lv_disp_drv_t * disp_drv, uint8_t * buf, lv_coord_t buf_w, lv_coord_t 
 641:Drivers/lvgl/lvgl/src/hal/lv_hal_disp.c ****                              lv_color_t color, lv_opa_t opa)
 642:Drivers/lvgl/lvgl/src/hal/lv_hal_disp.c **** {
 643:Drivers/lvgl/lvgl/src/hal/lv_hal_disp.c ****     (void) disp_drv; /*Unused*/
 644:Drivers/lvgl/lvgl/src/hal/lv_hal_disp.c **** 
 645:Drivers/lvgl/lvgl/src/hal/lv_hal_disp.c ****     if(opa <= LV_OPA_MIN) return;
 646:Drivers/lvgl/lvgl/src/hal/lv_hal_disp.c ****     lv_img_dsc_t d;
 647:Drivers/lvgl/lvgl/src/hal/lv_hal_disp.c ****     d.data = buf;
 648:Drivers/lvgl/lvgl/src/hal/lv_hal_disp.c ****     d.header.w = buf_w;
 649:Drivers/lvgl/lvgl/src/hal/lv_hal_disp.c ****     d.header.cf = LV_IMG_CF_ALPHA_4BIT;
 650:Drivers/lvgl/lvgl/src/hal/lv_hal_disp.c **** 
 651:Drivers/lvgl/lvgl/src/hal/lv_hal_disp.c ****     set_px_alpha_generic(&d, x, y, color, opa);
 652:Drivers/lvgl/lvgl/src/hal/lv_hal_disp.c **** }
 653:Drivers/lvgl/lvgl/src/hal/lv_hal_disp.c **** 
 654:Drivers/lvgl/lvgl/src/hal/lv_hal_disp.c **** static void set_px_cb_alpha8(lv_disp_drv_t * disp_drv, uint8_t * buf, lv_coord_t buf_w, lv_coord_t 
 655:Drivers/lvgl/lvgl/src/hal/lv_hal_disp.c ****                              lv_color_t color, lv_opa_t opa)
 656:Drivers/lvgl/lvgl/src/hal/lv_hal_disp.c **** {
 657:Drivers/lvgl/lvgl/src/hal/lv_hal_disp.c ****     (void) disp_drv; /*Unused*/
 658:Drivers/lvgl/lvgl/src/hal/lv_hal_disp.c **** 
 659:Drivers/lvgl/lvgl/src/hal/lv_hal_disp.c ****     if(opa <= LV_OPA_MIN) return;
 660:Drivers/lvgl/lvgl/src/hal/lv_hal_disp.c ****     lv_img_dsc_t d;
ARM GAS  /tmp/ccgzxQCw.s 			page 13


 661:Drivers/lvgl/lvgl/src/hal/lv_hal_disp.c ****     d.data = buf;
 662:Drivers/lvgl/lvgl/src/hal/lv_hal_disp.c ****     d.header.w = buf_w;
 663:Drivers/lvgl/lvgl/src/hal/lv_hal_disp.c ****     d.header.cf = LV_IMG_CF_ALPHA_8BIT;
 664:Drivers/lvgl/lvgl/src/hal/lv_hal_disp.c **** 
 665:Drivers/lvgl/lvgl/src/hal/lv_hal_disp.c ****     set_px_alpha_generic(&d, x, y, color, opa);
 666:Drivers/lvgl/lvgl/src/hal/lv_hal_disp.c **** }
 667:Drivers/lvgl/lvgl/src/hal/lv_hal_disp.c **** 
 668:Drivers/lvgl/lvgl/src/hal/lv_hal_disp.c **** static void set_px_alpha_generic(lv_img_dsc_t * d, lv_coord_t x, lv_coord_t y, lv_color_t color, lv
 669:Drivers/lvgl/lvgl/src/hal/lv_hal_disp.c **** {
 670:Drivers/lvgl/lvgl/src/hal/lv_hal_disp.c ****     d->header.always_zero = 0;
 671:Drivers/lvgl/lvgl/src/hal/lv_hal_disp.c ****     d->header.h = 1;    /*Doesn't matter*/
 672:Drivers/lvgl/lvgl/src/hal/lv_hal_disp.c **** 
 673:Drivers/lvgl/lvgl/src/hal/lv_hal_disp.c ****     uint8_t br = lv_color_brightness(color);
 674:Drivers/lvgl/lvgl/src/hal/lv_hal_disp.c ****     if(opa < LV_OPA_MAX) {
 675:Drivers/lvgl/lvgl/src/hal/lv_hal_disp.c ****         uint8_t bg = lv_img_buf_get_px_alpha(d, x, y);
 676:Drivers/lvgl/lvgl/src/hal/lv_hal_disp.c ****         br = (uint16_t)((uint16_t)br * opa + (bg * (255 - opa))) >> 8;
 677:Drivers/lvgl/lvgl/src/hal/lv_hal_disp.c ****     }
 678:Drivers/lvgl/lvgl/src/hal/lv_hal_disp.c **** 
 679:Drivers/lvgl/lvgl/src/hal/lv_hal_disp.c ****     lv_img_buf_set_px_alpha(d, x, y, br);
 680:Drivers/lvgl/lvgl/src/hal/lv_hal_disp.c **** }
 681:Drivers/lvgl/lvgl/src/hal/lv_hal_disp.c **** 
 682:Drivers/lvgl/lvgl/src/hal/lv_hal_disp.c **** static void set_px_true_color_alpha(lv_disp_drv_t * disp_drv, uint8_t * buf, lv_coord_t buf_w,
 683:Drivers/lvgl/lvgl/src/hal/lv_hal_disp.c ****                                     lv_coord_t x, lv_coord_t y,
 684:Drivers/lvgl/lvgl/src/hal/lv_hal_disp.c ****                                     lv_color_t color, lv_opa_t opa)
 685:Drivers/lvgl/lvgl/src/hal/lv_hal_disp.c **** {
  26              		.loc 1 685 0
  27              		.cfi_startproc
  28              		@ args = 12, pretend = 0, frame = 0
  29              		@ frame_needed = 0, uses_anonymous_args = 0
  30              		@ link register save eliminated.
  31              	.LVL0:
  32 0000 F0B4     		push	{r4, r5, r6, r7}
  33              	.LCFI0:
  34              		.cfi_def_cfa_offset 16
  35              		.cfi_offset 4, -16
  36              		.cfi_offset 5, -12
  37              		.cfi_offset 6, -8
  38              		.cfi_offset 7, -4
  39 0002 BDF81460 		ldrh	r6, [sp, #20]
  40 0006 9DF81850 		ldrb	r5, [sp, #24]	@ zero_extendqisi2
 686:Drivers/lvgl/lvgl/src/hal/lv_hal_disp.c ****     (void) disp_drv; /*Unused*/
 687:Drivers/lvgl/lvgl/src/hal/lv_hal_disp.c **** 
 688:Drivers/lvgl/lvgl/src/hal/lv_hal_disp.c ****     uint8_t * buf_px = buf + (buf_w * y * LV_IMG_PX_SIZE_ALPHA_BYTE + x * LV_IMG_PX_SIZE_ALPHA_BYTE
  41              		.loc 1 688 0
  42 000a BDF91040 		ldrsh	r4, [sp, #16]
  43 000e 04FB0234 		mla	r4, r4, r2, r3
  44 0012 04EB4404 		add	r4, r4, r4, lsl #1
  45 0016 0819     		adds	r0, r1, r4
  46              	.LVL1:
 689:Drivers/lvgl/lvgl/src/hal/lv_hal_disp.c **** 
 690:Drivers/lvgl/lvgl/src/hal/lv_hal_disp.c ****     lv_color_t bg_color;
 691:Drivers/lvgl/lvgl/src/hal/lv_hal_disp.c ****     lv_color_t res_color;
 692:Drivers/lvgl/lvgl/src/hal/lv_hal_disp.c ****     lv_opa_t bg_opa = buf_px[LV_IMG_PX_SIZE_ALPHA_BYTE - 1];
  47              		.loc 1 692 0
  48 0018 8278     		ldrb	r2, [r0, #2]	@ zero_extendqisi2
  49              	.LVL2:
 693:Drivers/lvgl/lvgl/src/hal/lv_hal_disp.c **** #if LV_COLOR_DEPTH == 8 || LV_COLOR_DEPTH == 1
ARM GAS  /tmp/ccgzxQCw.s 			page 14


 694:Drivers/lvgl/lvgl/src/hal/lv_hal_disp.c ****     bg_color.full = buf_px[0];
 695:Drivers/lvgl/lvgl/src/hal/lv_hal_disp.c ****     lv_color_mix_with_alpha(bg_color, bg_opa, color, opa, &res_color, &buf_px[2]);
 696:Drivers/lvgl/lvgl/src/hal/lv_hal_disp.c ****     if(buf_px[1] <= LV_OPA_MIN) return;
 697:Drivers/lvgl/lvgl/src/hal/lv_hal_disp.c ****     buf_px[0] = res_color.full;
 698:Drivers/lvgl/lvgl/src/hal/lv_hal_disp.c **** #elif LV_COLOR_DEPTH == 16
 699:Drivers/lvgl/lvgl/src/hal/lv_hal_disp.c ****     bg_color.full = buf_px[0] + (buf_px[1] << 8);
  50              		.loc 1 699 0
  51 001a 0B5D     		ldrb	r3, [r1, r4]	@ zero_extendqisi2
  52              	.LVL3:
  53 001c 4778     		ldrb	r7, [r0, #1]	@ zero_extendqisi2
  54 001e 03EB0723 		add	r3, r3, r7, lsl #8
  55              	.LVL4:
  56              	.LBB31:
  57              	.LBB32:
  58              		.file 2 "Drivers/lvgl/lvgl/src/hal/../draw/../misc/lv_color.h"
   1:Drivers/lvgl/lvgl/src/hal/../draw/../misc/lv_color.h **** /**
   2:Drivers/lvgl/lvgl/src/hal/../draw/../misc/lv_color.h ****  * @file lv_color.h
   3:Drivers/lvgl/lvgl/src/hal/../draw/../misc/lv_color.h ****  *
   4:Drivers/lvgl/lvgl/src/hal/../draw/../misc/lv_color.h ****  */
   5:Drivers/lvgl/lvgl/src/hal/../draw/../misc/lv_color.h **** 
   6:Drivers/lvgl/lvgl/src/hal/../draw/../misc/lv_color.h **** #ifndef LV_COLOR_H
   7:Drivers/lvgl/lvgl/src/hal/../draw/../misc/lv_color.h **** #define LV_COLOR_H
   8:Drivers/lvgl/lvgl/src/hal/../draw/../misc/lv_color.h **** 
   9:Drivers/lvgl/lvgl/src/hal/../draw/../misc/lv_color.h **** #ifdef __cplusplus
  10:Drivers/lvgl/lvgl/src/hal/../draw/../misc/lv_color.h **** extern "C" {
  11:Drivers/lvgl/lvgl/src/hal/../draw/../misc/lv_color.h **** #endif
  12:Drivers/lvgl/lvgl/src/hal/../draw/../misc/lv_color.h **** 
  13:Drivers/lvgl/lvgl/src/hal/../draw/../misc/lv_color.h **** /*********************
  14:Drivers/lvgl/lvgl/src/hal/../draw/../misc/lv_color.h ****  *      INCLUDES
  15:Drivers/lvgl/lvgl/src/hal/../draw/../misc/lv_color.h ****  *********************/
  16:Drivers/lvgl/lvgl/src/hal/../draw/../misc/lv_color.h **** #include "../lv_conf_internal.h"
  17:Drivers/lvgl/lvgl/src/hal/../draw/../misc/lv_color.h **** #include "lv_assert.h"
  18:Drivers/lvgl/lvgl/src/hal/../draw/../misc/lv_color.h **** #include "lv_math.h"
  19:Drivers/lvgl/lvgl/src/hal/../draw/../misc/lv_color.h **** #include "lv_types.h"
  20:Drivers/lvgl/lvgl/src/hal/../draw/../misc/lv_color.h **** 
  21:Drivers/lvgl/lvgl/src/hal/../draw/../misc/lv_color.h **** /*Error checking*/
  22:Drivers/lvgl/lvgl/src/hal/../draw/../misc/lv_color.h **** #if LV_COLOR_DEPTH == 24
  23:Drivers/lvgl/lvgl/src/hal/../draw/../misc/lv_color.h **** #error "LV_COLOR_DEPTH 24 is deprecated. Use LV_COLOR_DEPTH 32 instead (lv_conf.h)"
  24:Drivers/lvgl/lvgl/src/hal/../draw/../misc/lv_color.h **** #endif
  25:Drivers/lvgl/lvgl/src/hal/../draw/../misc/lv_color.h **** 
  26:Drivers/lvgl/lvgl/src/hal/../draw/../misc/lv_color.h **** #if LV_COLOR_DEPTH != 16 && LV_COLOR_16_SWAP != 0
  27:Drivers/lvgl/lvgl/src/hal/../draw/../misc/lv_color.h **** #error "LV_COLOR_16_SWAP requires LV_COLOR_DEPTH == 16. Set it in lv_conf.h"
  28:Drivers/lvgl/lvgl/src/hal/../draw/../misc/lv_color.h **** #endif
  29:Drivers/lvgl/lvgl/src/hal/../draw/../misc/lv_color.h **** 
  30:Drivers/lvgl/lvgl/src/hal/../draw/../misc/lv_color.h **** #include <stdint.h>
  31:Drivers/lvgl/lvgl/src/hal/../draw/../misc/lv_color.h **** 
  32:Drivers/lvgl/lvgl/src/hal/../draw/../misc/lv_color.h **** /*********************
  33:Drivers/lvgl/lvgl/src/hal/../draw/../misc/lv_color.h ****  *      DEFINES
  34:Drivers/lvgl/lvgl/src/hal/../draw/../misc/lv_color.h ****  *********************/
  35:Drivers/lvgl/lvgl/src/hal/../draw/../misc/lv_color.h **** LV_EXPORT_CONST_INT(LV_COLOR_DEPTH);
  36:Drivers/lvgl/lvgl/src/hal/../draw/../misc/lv_color.h **** LV_EXPORT_CONST_INT(LV_COLOR_16_SWAP);
  37:Drivers/lvgl/lvgl/src/hal/../draw/../misc/lv_color.h **** 
  38:Drivers/lvgl/lvgl/src/hal/../draw/../misc/lv_color.h **** /**
  39:Drivers/lvgl/lvgl/src/hal/../draw/../misc/lv_color.h ****  * Opacity percentages.
  40:Drivers/lvgl/lvgl/src/hal/../draw/../misc/lv_color.h ****  */
  41:Drivers/lvgl/lvgl/src/hal/../draw/../misc/lv_color.h **** enum {
  42:Drivers/lvgl/lvgl/src/hal/../draw/../misc/lv_color.h ****     LV_OPA_TRANSP = 0,
ARM GAS  /tmp/ccgzxQCw.s 			page 15


  43:Drivers/lvgl/lvgl/src/hal/../draw/../misc/lv_color.h ****     LV_OPA_0      = 0,
  44:Drivers/lvgl/lvgl/src/hal/../draw/../misc/lv_color.h ****     LV_OPA_10     = 25,
  45:Drivers/lvgl/lvgl/src/hal/../draw/../misc/lv_color.h ****     LV_OPA_20     = 51,
  46:Drivers/lvgl/lvgl/src/hal/../draw/../misc/lv_color.h ****     LV_OPA_30     = 76,
  47:Drivers/lvgl/lvgl/src/hal/../draw/../misc/lv_color.h ****     LV_OPA_40     = 102,
  48:Drivers/lvgl/lvgl/src/hal/../draw/../misc/lv_color.h ****     LV_OPA_50     = 127,
  49:Drivers/lvgl/lvgl/src/hal/../draw/../misc/lv_color.h ****     LV_OPA_60     = 153,
  50:Drivers/lvgl/lvgl/src/hal/../draw/../misc/lv_color.h ****     LV_OPA_70     = 178,
  51:Drivers/lvgl/lvgl/src/hal/../draw/../misc/lv_color.h ****     LV_OPA_80     = 204,
  52:Drivers/lvgl/lvgl/src/hal/../draw/../misc/lv_color.h ****     LV_OPA_90     = 229,
  53:Drivers/lvgl/lvgl/src/hal/../draw/../misc/lv_color.h ****     LV_OPA_100    = 255,
  54:Drivers/lvgl/lvgl/src/hal/../draw/../misc/lv_color.h ****     LV_OPA_COVER  = 255,
  55:Drivers/lvgl/lvgl/src/hal/../draw/../misc/lv_color.h **** };
  56:Drivers/lvgl/lvgl/src/hal/../draw/../misc/lv_color.h **** 
  57:Drivers/lvgl/lvgl/src/hal/../draw/../misc/lv_color.h **** #define LV_OPA_MIN 2    /*Opacities below this will be transparent*/
  58:Drivers/lvgl/lvgl/src/hal/../draw/../misc/lv_color.h **** #define LV_OPA_MAX 253  /*Opacities above this will fully cover*/
  59:Drivers/lvgl/lvgl/src/hal/../draw/../misc/lv_color.h **** 
  60:Drivers/lvgl/lvgl/src/hal/../draw/../misc/lv_color.h **** #if LV_COLOR_DEPTH == 1
  61:Drivers/lvgl/lvgl/src/hal/../draw/../misc/lv_color.h **** #define LV_COLOR_SIZE 8
  62:Drivers/lvgl/lvgl/src/hal/../draw/../misc/lv_color.h **** #elif LV_COLOR_DEPTH == 8
  63:Drivers/lvgl/lvgl/src/hal/../draw/../misc/lv_color.h **** #define LV_COLOR_SIZE 8
  64:Drivers/lvgl/lvgl/src/hal/../draw/../misc/lv_color.h **** #elif LV_COLOR_DEPTH == 16
  65:Drivers/lvgl/lvgl/src/hal/../draw/../misc/lv_color.h **** #define LV_COLOR_SIZE 16
  66:Drivers/lvgl/lvgl/src/hal/../draw/../misc/lv_color.h **** #elif LV_COLOR_DEPTH == 32
  67:Drivers/lvgl/lvgl/src/hal/../draw/../misc/lv_color.h **** #define LV_COLOR_SIZE 32
  68:Drivers/lvgl/lvgl/src/hal/../draw/../misc/lv_color.h **** #else
  69:Drivers/lvgl/lvgl/src/hal/../draw/../misc/lv_color.h **** #error "Invalid LV_COLOR_DEPTH in lv_conf.h! Set it to 1, 8, 16 or 32!"
  70:Drivers/lvgl/lvgl/src/hal/../draw/../misc/lv_color.h **** #endif
  71:Drivers/lvgl/lvgl/src/hal/../draw/../misc/lv_color.h **** 
  72:Drivers/lvgl/lvgl/src/hal/../draw/../misc/lv_color.h **** #if defined(__cplusplus) && !defined(_LV_COLOR_HAS_MODERN_CPP)
  73:Drivers/lvgl/lvgl/src/hal/../draw/../misc/lv_color.h **** /**
  74:Drivers/lvgl/lvgl/src/hal/../draw/../misc/lv_color.h **** * MSVC compiler's definition of the __cplusplus indicating 199711L regardless to C++ standard versi
  75:Drivers/lvgl/lvgl/src/hal/../draw/../misc/lv_color.h **** * see https://devblogs.microsoft.com/cppblog/msvc-now-correctly-reports-cplusplus
  76:Drivers/lvgl/lvgl/src/hal/../draw/../misc/lv_color.h **** * so we use _MSC_VER macro instead of __cplusplus
  77:Drivers/lvgl/lvgl/src/hal/../draw/../misc/lv_color.h **** */
  78:Drivers/lvgl/lvgl/src/hal/../draw/../misc/lv_color.h **** #ifdef _MSC_VER
  79:Drivers/lvgl/lvgl/src/hal/../draw/../misc/lv_color.h **** #if _MSC_VER >= 1900 /*Visual Studio 2015*/
  80:Drivers/lvgl/lvgl/src/hal/../draw/../misc/lv_color.h **** #define _LV_COLOR_HAS_MODERN_CPP 1
  81:Drivers/lvgl/lvgl/src/hal/../draw/../misc/lv_color.h **** #endif
  82:Drivers/lvgl/lvgl/src/hal/../draw/../misc/lv_color.h **** #else
  83:Drivers/lvgl/lvgl/src/hal/../draw/../misc/lv_color.h **** #if __cplusplus >= 201103L
  84:Drivers/lvgl/lvgl/src/hal/../draw/../misc/lv_color.h **** #define _LV_COLOR_HAS_MODERN_CPP 1
  85:Drivers/lvgl/lvgl/src/hal/../draw/../misc/lv_color.h **** #endif
  86:Drivers/lvgl/lvgl/src/hal/../draw/../misc/lv_color.h **** #endif
  87:Drivers/lvgl/lvgl/src/hal/../draw/../misc/lv_color.h **** #endif /*__cplusplus*/
  88:Drivers/lvgl/lvgl/src/hal/../draw/../misc/lv_color.h **** 
  89:Drivers/lvgl/lvgl/src/hal/../draw/../misc/lv_color.h **** #ifndef _LV_COLOR_HAS_MODERN_CPP
  90:Drivers/lvgl/lvgl/src/hal/../draw/../misc/lv_color.h **** #define _LV_COLOR_HAS_MODERN_CPP 0
  91:Drivers/lvgl/lvgl/src/hal/../draw/../misc/lv_color.h **** #endif
  92:Drivers/lvgl/lvgl/src/hal/../draw/../misc/lv_color.h **** 
  93:Drivers/lvgl/lvgl/src/hal/../draw/../misc/lv_color.h **** #if _LV_COLOR_HAS_MODERN_CPP
  94:Drivers/lvgl/lvgl/src/hal/../draw/../misc/lv_color.h **** /*Fix msvc compiler error C4576 inside C++ code*/
  95:Drivers/lvgl/lvgl/src/hal/../draw/../misc/lv_color.h **** #define _LV_COLOR_MAKE_TYPE_HELPER lv_color_t
  96:Drivers/lvgl/lvgl/src/hal/../draw/../misc/lv_color.h **** #else
  97:Drivers/lvgl/lvgl/src/hal/../draw/../misc/lv_color.h **** #define _LV_COLOR_MAKE_TYPE_HELPER (lv_color_t)
  98:Drivers/lvgl/lvgl/src/hal/../draw/../misc/lv_color.h **** #endif
  99:Drivers/lvgl/lvgl/src/hal/../draw/../misc/lv_color.h **** 
ARM GAS  /tmp/ccgzxQCw.s 			page 16


 100:Drivers/lvgl/lvgl/src/hal/../draw/../misc/lv_color.h **** /*---------------------------------------
 101:Drivers/lvgl/lvgl/src/hal/../draw/../misc/lv_color.h ****  * Macros for all existing color depths
 102:Drivers/lvgl/lvgl/src/hal/../draw/../misc/lv_color.h ****  * to set/get values of the color channels
 103:Drivers/lvgl/lvgl/src/hal/../draw/../misc/lv_color.h ****  *------------------------------------------*/
 104:Drivers/lvgl/lvgl/src/hal/../draw/../misc/lv_color.h **** # define LV_COLOR_SET_R1(c, v) (c).ch.red = (uint8_t)((v) & 0x1)
 105:Drivers/lvgl/lvgl/src/hal/../draw/../misc/lv_color.h **** # define LV_COLOR_SET_G1(c, v) (c).ch.green = (uint8_t)((v) & 0x1)
 106:Drivers/lvgl/lvgl/src/hal/../draw/../misc/lv_color.h **** # define LV_COLOR_SET_B1(c, v) (c).ch.blue = (uint8_t)((v) & 0x1)
 107:Drivers/lvgl/lvgl/src/hal/../draw/../misc/lv_color.h **** # define LV_COLOR_SET_A1(c, v) do {} while(0)
 108:Drivers/lvgl/lvgl/src/hal/../draw/../misc/lv_color.h **** 
 109:Drivers/lvgl/lvgl/src/hal/../draw/../misc/lv_color.h **** # define LV_COLOR_GET_R1(c) (c).ch.red
 110:Drivers/lvgl/lvgl/src/hal/../draw/../misc/lv_color.h **** # define LV_COLOR_GET_G1(c) (c).ch.green
 111:Drivers/lvgl/lvgl/src/hal/../draw/../misc/lv_color.h **** # define LV_COLOR_GET_B1(c) (c).ch.blue
 112:Drivers/lvgl/lvgl/src/hal/../draw/../misc/lv_color.h **** # define LV_COLOR_GET_A1(c) 0xFF
 113:Drivers/lvgl/lvgl/src/hal/../draw/../misc/lv_color.h **** 
 114:Drivers/lvgl/lvgl/src/hal/../draw/../misc/lv_color.h **** # define _LV_COLOR_ZERO_INITIALIZER1 {0x00}
 115:Drivers/lvgl/lvgl/src/hal/../draw/../misc/lv_color.h **** # define LV_COLOR_MAKE1(r8, g8, b8)  {(uint8_t)((b8 >> 7) | (g8 >> 7) | (r8 >> 7))}
 116:Drivers/lvgl/lvgl/src/hal/../draw/../misc/lv_color.h **** 
 117:Drivers/lvgl/lvgl/src/hal/../draw/../misc/lv_color.h **** # define LV_COLOR_SET_R8(c, v) (c).ch.red = (uint8_t)((v) & 0x7U)
 118:Drivers/lvgl/lvgl/src/hal/../draw/../misc/lv_color.h **** # define LV_COLOR_SET_G8(c, v) (c).ch.green = (uint8_t)((v) & 0x7U)
 119:Drivers/lvgl/lvgl/src/hal/../draw/../misc/lv_color.h **** # define LV_COLOR_SET_B8(c, v) (c).ch.blue = (uint8_t)((v) & 0x3U)
 120:Drivers/lvgl/lvgl/src/hal/../draw/../misc/lv_color.h **** # define LV_COLOR_SET_A8(c, v) do {} while(0)
 121:Drivers/lvgl/lvgl/src/hal/../draw/../misc/lv_color.h **** 
 122:Drivers/lvgl/lvgl/src/hal/../draw/../misc/lv_color.h **** # define LV_COLOR_GET_R8(c) (c).ch.red
 123:Drivers/lvgl/lvgl/src/hal/../draw/../misc/lv_color.h **** # define LV_COLOR_GET_G8(c) (c).ch.green
 124:Drivers/lvgl/lvgl/src/hal/../draw/../misc/lv_color.h **** # define LV_COLOR_GET_B8(c) (c).ch.blue
 125:Drivers/lvgl/lvgl/src/hal/../draw/../misc/lv_color.h **** # define LV_COLOR_GET_A8(c) 0xFF
 126:Drivers/lvgl/lvgl/src/hal/../draw/../misc/lv_color.h **** 
 127:Drivers/lvgl/lvgl/src/hal/../draw/../misc/lv_color.h **** # define _LV_COLOR_ZERO_INITIALIZER8 {{0x00, 0x00, 0x00}}
 128:Drivers/lvgl/lvgl/src/hal/../draw/../misc/lv_color.h **** # define LV_COLOR_MAKE8(r8, g8, b8) {{(uint8_t)((b8 >> 6) & 0x3U), (uint8_t)((g8 >> 5) & 0x7U), (ui
 129:Drivers/lvgl/lvgl/src/hal/../draw/../misc/lv_color.h **** 
 130:Drivers/lvgl/lvgl/src/hal/../draw/../misc/lv_color.h **** # define LV_COLOR_SET_R16(c, v) (c).ch.red = (uint8_t)((v) & 0x1FU)
 131:Drivers/lvgl/lvgl/src/hal/../draw/../misc/lv_color.h **** #if LV_COLOR_16_SWAP == 0
 132:Drivers/lvgl/lvgl/src/hal/../draw/../misc/lv_color.h **** # define LV_COLOR_SET_G16(c, v) (c).ch.green = (uint8_t)((v) & 0x3FU)
 133:Drivers/lvgl/lvgl/src/hal/../draw/../misc/lv_color.h **** #else
 134:Drivers/lvgl/lvgl/src/hal/../draw/../misc/lv_color.h **** # define LV_COLOR_SET_G16(c, v) {(c).ch.green_h = (uint8_t)(((v) >> 3) & 0x7); (c).ch.green_l = (ui
 135:Drivers/lvgl/lvgl/src/hal/../draw/../misc/lv_color.h **** #endif
 136:Drivers/lvgl/lvgl/src/hal/../draw/../misc/lv_color.h **** # define LV_COLOR_SET_B16(c, v) (c).ch.blue = (uint8_t)((v) & 0x1FU)
 137:Drivers/lvgl/lvgl/src/hal/../draw/../misc/lv_color.h **** # define LV_COLOR_SET_A16(c, v) do {} while(0)
 138:Drivers/lvgl/lvgl/src/hal/../draw/../misc/lv_color.h **** 
 139:Drivers/lvgl/lvgl/src/hal/../draw/../misc/lv_color.h **** # define LV_COLOR_GET_R16(c) (c).ch.red
 140:Drivers/lvgl/lvgl/src/hal/../draw/../misc/lv_color.h **** #if LV_COLOR_16_SWAP == 0
 141:Drivers/lvgl/lvgl/src/hal/../draw/../misc/lv_color.h **** # define LV_COLOR_GET_G16(c) (c).ch.green
 142:Drivers/lvgl/lvgl/src/hal/../draw/../misc/lv_color.h **** #else
 143:Drivers/lvgl/lvgl/src/hal/../draw/../misc/lv_color.h **** # define LV_COLOR_GET_G16(c) (((c).ch.green_h << 3) + (c).ch.green_l)
 144:Drivers/lvgl/lvgl/src/hal/../draw/../misc/lv_color.h **** #endif
 145:Drivers/lvgl/lvgl/src/hal/../draw/../misc/lv_color.h **** # define LV_COLOR_GET_B16(c) (c).ch.blue
 146:Drivers/lvgl/lvgl/src/hal/../draw/../misc/lv_color.h **** # define LV_COLOR_GET_A16(c) 0xFF
 147:Drivers/lvgl/lvgl/src/hal/../draw/../misc/lv_color.h **** 
 148:Drivers/lvgl/lvgl/src/hal/../draw/../misc/lv_color.h **** #if LV_COLOR_16_SWAP == 0
 149:Drivers/lvgl/lvgl/src/hal/../draw/../misc/lv_color.h **** # define _LV_COLOR_ZERO_INITIALIZER16  {{0x00, 0x00, 0x00}}
 150:Drivers/lvgl/lvgl/src/hal/../draw/../misc/lv_color.h **** # define LV_COLOR_MAKE16(r8, g8, b8) {{(uint8_t)((b8 >> 3) & 0x1FU), (uint8_t)((g8 >> 2) & 0x3FU), 
 151:Drivers/lvgl/lvgl/src/hal/../draw/../misc/lv_color.h **** #else
 152:Drivers/lvgl/lvgl/src/hal/../draw/../misc/lv_color.h **** # define _LV_COLOR_ZERO_INITIALIZER16 {{0x00, 0x00, 0x00, 0x00}}
 153:Drivers/lvgl/lvgl/src/hal/../draw/../misc/lv_color.h **** # define LV_COLOR_MAKE16(r8, g8, b8) {{(uint8_t)((g8 >> 5) & 0x7U), (uint8_t)((r8 >> 3) & 0x1FU), (
 154:Drivers/lvgl/lvgl/src/hal/../draw/../misc/lv_color.h **** #endif
 155:Drivers/lvgl/lvgl/src/hal/../draw/../misc/lv_color.h **** 
 156:Drivers/lvgl/lvgl/src/hal/../draw/../misc/lv_color.h **** # define LV_COLOR_SET_R32(c, v) (c).ch.red = (uint8_t)((v) & 0xFF)
ARM GAS  /tmp/ccgzxQCw.s 			page 17


 157:Drivers/lvgl/lvgl/src/hal/../draw/../misc/lv_color.h **** # define LV_COLOR_SET_G32(c, v) (c).ch.green = (uint8_t)((v) & 0xFF)
 158:Drivers/lvgl/lvgl/src/hal/../draw/../misc/lv_color.h **** # define LV_COLOR_SET_B32(c, v) (c).ch.blue = (uint8_t)((v) & 0xFF)
 159:Drivers/lvgl/lvgl/src/hal/../draw/../misc/lv_color.h **** # define LV_COLOR_SET_A32(c, v) (c).ch.alpha = (uint8_t)((v) & 0xFF)
 160:Drivers/lvgl/lvgl/src/hal/../draw/../misc/lv_color.h **** 
 161:Drivers/lvgl/lvgl/src/hal/../draw/../misc/lv_color.h **** # define LV_COLOR_GET_R32(c) (c).ch.red
 162:Drivers/lvgl/lvgl/src/hal/../draw/../misc/lv_color.h **** # define LV_COLOR_GET_G32(c) (c).ch.green
 163:Drivers/lvgl/lvgl/src/hal/../draw/../misc/lv_color.h **** # define LV_COLOR_GET_B32(c) (c).ch.blue
 164:Drivers/lvgl/lvgl/src/hal/../draw/../misc/lv_color.h **** # define LV_COLOR_GET_A32(c) (c).ch.alpha
 165:Drivers/lvgl/lvgl/src/hal/../draw/../misc/lv_color.h **** 
 166:Drivers/lvgl/lvgl/src/hal/../draw/../misc/lv_color.h **** # define _LV_COLOR_ZERO_INITIALIZER32  {{0x00, 0x00, 0x00, 0x00}}
 167:Drivers/lvgl/lvgl/src/hal/../draw/../misc/lv_color.h **** # define LV_COLOR_MAKE32(r8, g8, b8) {{b8, g8, r8, 0xff}} /*Fix 0xff alpha*/
 168:Drivers/lvgl/lvgl/src/hal/../draw/../misc/lv_color.h **** 
 169:Drivers/lvgl/lvgl/src/hal/../draw/../misc/lv_color.h **** /*---------------------------------------
 170:Drivers/lvgl/lvgl/src/hal/../draw/../misc/lv_color.h ****  * Macros for the current color depth
 171:Drivers/lvgl/lvgl/src/hal/../draw/../misc/lv_color.h ****  * to set/get values of the color channels
 172:Drivers/lvgl/lvgl/src/hal/../draw/../misc/lv_color.h ****  *------------------------------------------*/
 173:Drivers/lvgl/lvgl/src/hal/../draw/../misc/lv_color.h **** #define LV_COLOR_SET_R(c, v) LV_CONCAT(LV_COLOR_SET_R, LV_COLOR_DEPTH)(c, v)
 174:Drivers/lvgl/lvgl/src/hal/../draw/../misc/lv_color.h **** #define LV_COLOR_SET_G(c, v) LV_CONCAT(LV_COLOR_SET_G, LV_COLOR_DEPTH)(c, v)
 175:Drivers/lvgl/lvgl/src/hal/../draw/../misc/lv_color.h **** #define LV_COLOR_SET_B(c, v) LV_CONCAT(LV_COLOR_SET_B, LV_COLOR_DEPTH)(c, v)
 176:Drivers/lvgl/lvgl/src/hal/../draw/../misc/lv_color.h **** #define LV_COLOR_SET_A(c, v) LV_CONCAT(LV_COLOR_SET_A, LV_COLOR_DEPTH)(c, v)
 177:Drivers/lvgl/lvgl/src/hal/../draw/../misc/lv_color.h **** 
 178:Drivers/lvgl/lvgl/src/hal/../draw/../misc/lv_color.h **** #define LV_COLOR_GET_R(c) LV_CONCAT(LV_COLOR_GET_R, LV_COLOR_DEPTH)(c)
 179:Drivers/lvgl/lvgl/src/hal/../draw/../misc/lv_color.h **** #define LV_COLOR_GET_G(c) LV_CONCAT(LV_COLOR_GET_G, LV_COLOR_DEPTH)(c)
 180:Drivers/lvgl/lvgl/src/hal/../draw/../misc/lv_color.h **** #define LV_COLOR_GET_B(c) LV_CONCAT(LV_COLOR_GET_B, LV_COLOR_DEPTH)(c)
 181:Drivers/lvgl/lvgl/src/hal/../draw/../misc/lv_color.h **** #define LV_COLOR_GET_A(c) LV_CONCAT(LV_COLOR_GET_A, LV_COLOR_DEPTH)(c)
 182:Drivers/lvgl/lvgl/src/hal/../draw/../misc/lv_color.h **** 
 183:Drivers/lvgl/lvgl/src/hal/../draw/../misc/lv_color.h **** #define _LV_COLOR_ZERO_INITIALIZER LV_CONCAT(_LV_COLOR_ZERO_INITIALIZER, LV_COLOR_DEPTH)
 184:Drivers/lvgl/lvgl/src/hal/../draw/../misc/lv_color.h **** #define LV_COLOR_MAKE(r8, g8, b8) LV_CONCAT(LV_COLOR_MAKE, LV_COLOR_DEPTH)(r8, g8, b8)
 185:Drivers/lvgl/lvgl/src/hal/../draw/../misc/lv_color.h **** 
 186:Drivers/lvgl/lvgl/src/hal/../draw/../misc/lv_color.h **** /**********************
 187:Drivers/lvgl/lvgl/src/hal/../draw/../misc/lv_color.h ****  *      TYPEDEFS
 188:Drivers/lvgl/lvgl/src/hal/../draw/../misc/lv_color.h ****  **********************/
 189:Drivers/lvgl/lvgl/src/hal/../draw/../misc/lv_color.h **** 
 190:Drivers/lvgl/lvgl/src/hal/../draw/../misc/lv_color.h **** typedef union {
 191:Drivers/lvgl/lvgl/src/hal/../draw/../misc/lv_color.h ****     uint8_t full; /*must be declared first to set all bits of byte via initializer list*/
 192:Drivers/lvgl/lvgl/src/hal/../draw/../misc/lv_color.h ****     union {
 193:Drivers/lvgl/lvgl/src/hal/../draw/../misc/lv_color.h ****         uint8_t blue : 1;
 194:Drivers/lvgl/lvgl/src/hal/../draw/../misc/lv_color.h ****         uint8_t green : 1;
 195:Drivers/lvgl/lvgl/src/hal/../draw/../misc/lv_color.h ****         uint8_t red : 1;
 196:Drivers/lvgl/lvgl/src/hal/../draw/../misc/lv_color.h ****     } ch;
 197:Drivers/lvgl/lvgl/src/hal/../draw/../misc/lv_color.h **** } lv_color1_t;
 198:Drivers/lvgl/lvgl/src/hal/../draw/../misc/lv_color.h **** 
 199:Drivers/lvgl/lvgl/src/hal/../draw/../misc/lv_color.h **** typedef union {
 200:Drivers/lvgl/lvgl/src/hal/../draw/../misc/lv_color.h ****     struct {
 201:Drivers/lvgl/lvgl/src/hal/../draw/../misc/lv_color.h ****         uint8_t blue : 2;
 202:Drivers/lvgl/lvgl/src/hal/../draw/../misc/lv_color.h ****         uint8_t green : 3;
 203:Drivers/lvgl/lvgl/src/hal/../draw/../misc/lv_color.h ****         uint8_t red : 3;
 204:Drivers/lvgl/lvgl/src/hal/../draw/../misc/lv_color.h ****     } ch;
 205:Drivers/lvgl/lvgl/src/hal/../draw/../misc/lv_color.h ****     uint8_t full;
 206:Drivers/lvgl/lvgl/src/hal/../draw/../misc/lv_color.h **** } lv_color8_t;
 207:Drivers/lvgl/lvgl/src/hal/../draw/../misc/lv_color.h **** 
 208:Drivers/lvgl/lvgl/src/hal/../draw/../misc/lv_color.h **** typedef union {
 209:Drivers/lvgl/lvgl/src/hal/../draw/../misc/lv_color.h ****     struct {
 210:Drivers/lvgl/lvgl/src/hal/../draw/../misc/lv_color.h **** #if LV_COLOR_16_SWAP == 0
 211:Drivers/lvgl/lvgl/src/hal/../draw/../misc/lv_color.h ****         uint16_t blue : 5;
 212:Drivers/lvgl/lvgl/src/hal/../draw/../misc/lv_color.h ****         uint16_t green : 6;
 213:Drivers/lvgl/lvgl/src/hal/../draw/../misc/lv_color.h ****         uint16_t red : 5;
ARM GAS  /tmp/ccgzxQCw.s 			page 18


 214:Drivers/lvgl/lvgl/src/hal/../draw/../misc/lv_color.h **** #else
 215:Drivers/lvgl/lvgl/src/hal/../draw/../misc/lv_color.h ****         uint16_t green_h : 3;
 216:Drivers/lvgl/lvgl/src/hal/../draw/../misc/lv_color.h ****         uint16_t red : 5;
 217:Drivers/lvgl/lvgl/src/hal/../draw/../misc/lv_color.h ****         uint16_t blue : 5;
 218:Drivers/lvgl/lvgl/src/hal/../draw/../misc/lv_color.h ****         uint16_t green_l : 3;
 219:Drivers/lvgl/lvgl/src/hal/../draw/../misc/lv_color.h **** #endif
 220:Drivers/lvgl/lvgl/src/hal/../draw/../misc/lv_color.h ****     } ch;
 221:Drivers/lvgl/lvgl/src/hal/../draw/../misc/lv_color.h ****     uint16_t full;
 222:Drivers/lvgl/lvgl/src/hal/../draw/../misc/lv_color.h **** } lv_color16_t;
 223:Drivers/lvgl/lvgl/src/hal/../draw/../misc/lv_color.h **** 
 224:Drivers/lvgl/lvgl/src/hal/../draw/../misc/lv_color.h **** typedef union {
 225:Drivers/lvgl/lvgl/src/hal/../draw/../misc/lv_color.h ****     struct {
 226:Drivers/lvgl/lvgl/src/hal/../draw/../misc/lv_color.h ****         uint8_t blue;
 227:Drivers/lvgl/lvgl/src/hal/../draw/../misc/lv_color.h ****         uint8_t green;
 228:Drivers/lvgl/lvgl/src/hal/../draw/../misc/lv_color.h ****         uint8_t red;
 229:Drivers/lvgl/lvgl/src/hal/../draw/../misc/lv_color.h ****         uint8_t alpha;
 230:Drivers/lvgl/lvgl/src/hal/../draw/../misc/lv_color.h ****     } ch;
 231:Drivers/lvgl/lvgl/src/hal/../draw/../misc/lv_color.h ****     uint32_t full;
 232:Drivers/lvgl/lvgl/src/hal/../draw/../misc/lv_color.h **** } lv_color32_t;
 233:Drivers/lvgl/lvgl/src/hal/../draw/../misc/lv_color.h **** 
 234:Drivers/lvgl/lvgl/src/hal/../draw/../misc/lv_color.h **** typedef LV_CONCAT3(uint, LV_COLOR_SIZE, _t) lv_color_int_t;
 235:Drivers/lvgl/lvgl/src/hal/../draw/../misc/lv_color.h **** typedef LV_CONCAT3(lv_color, LV_COLOR_DEPTH, _t) lv_color_t;
 236:Drivers/lvgl/lvgl/src/hal/../draw/../misc/lv_color.h **** 
 237:Drivers/lvgl/lvgl/src/hal/../draw/../misc/lv_color.h **** typedef struct {
 238:Drivers/lvgl/lvgl/src/hal/../draw/../misc/lv_color.h ****     uint16_t h;
 239:Drivers/lvgl/lvgl/src/hal/../draw/../misc/lv_color.h ****     uint8_t s;
 240:Drivers/lvgl/lvgl/src/hal/../draw/../misc/lv_color.h ****     uint8_t v;
 241:Drivers/lvgl/lvgl/src/hal/../draw/../misc/lv_color.h **** } lv_color_hsv_t;
 242:Drivers/lvgl/lvgl/src/hal/../draw/../misc/lv_color.h **** 
 243:Drivers/lvgl/lvgl/src/hal/../draw/../misc/lv_color.h **** //! @cond Doxygen_Suppress
 244:Drivers/lvgl/lvgl/src/hal/../draw/../misc/lv_color.h **** /*No idea where the guard is required but else throws warnings in the docs*/
 245:Drivers/lvgl/lvgl/src/hal/../draw/../misc/lv_color.h **** typedef uint8_t lv_opa_t;
 246:Drivers/lvgl/lvgl/src/hal/../draw/../misc/lv_color.h **** //! @endcond
 247:Drivers/lvgl/lvgl/src/hal/../draw/../misc/lv_color.h **** 
 248:Drivers/lvgl/lvgl/src/hal/../draw/../misc/lv_color.h **** struct _lv_color_filter_dsc_t;
 249:Drivers/lvgl/lvgl/src/hal/../draw/../misc/lv_color.h **** 
 250:Drivers/lvgl/lvgl/src/hal/../draw/../misc/lv_color.h **** typedef lv_color_t (*lv_color_filter_cb_t)(const struct _lv_color_filter_dsc_t *, lv_color_t, lv_op
 251:Drivers/lvgl/lvgl/src/hal/../draw/../misc/lv_color.h **** 
 252:Drivers/lvgl/lvgl/src/hal/../draw/../misc/lv_color.h **** typedef struct _lv_color_filter_dsc_t {
 253:Drivers/lvgl/lvgl/src/hal/../draw/../misc/lv_color.h ****     lv_color_filter_cb_t filter_cb;
 254:Drivers/lvgl/lvgl/src/hal/../draw/../misc/lv_color.h ****     void * user_data;
 255:Drivers/lvgl/lvgl/src/hal/../draw/../misc/lv_color.h **** } lv_color_filter_dsc_t;
 256:Drivers/lvgl/lvgl/src/hal/../draw/../misc/lv_color.h **** 
 257:Drivers/lvgl/lvgl/src/hal/../draw/../misc/lv_color.h **** 
 258:Drivers/lvgl/lvgl/src/hal/../draw/../misc/lv_color.h **** typedef enum {
 259:Drivers/lvgl/lvgl/src/hal/../draw/../misc/lv_color.h ****     LV_PALETTE_RED,
 260:Drivers/lvgl/lvgl/src/hal/../draw/../misc/lv_color.h ****     LV_PALETTE_PINK,
 261:Drivers/lvgl/lvgl/src/hal/../draw/../misc/lv_color.h ****     LV_PALETTE_PURPLE,
 262:Drivers/lvgl/lvgl/src/hal/../draw/../misc/lv_color.h ****     LV_PALETTE_DEEP_PURPLE,
 263:Drivers/lvgl/lvgl/src/hal/../draw/../misc/lv_color.h ****     LV_PALETTE_INDIGO,
 264:Drivers/lvgl/lvgl/src/hal/../draw/../misc/lv_color.h ****     LV_PALETTE_BLUE,
 265:Drivers/lvgl/lvgl/src/hal/../draw/../misc/lv_color.h ****     LV_PALETTE_LIGHT_BLUE,
 266:Drivers/lvgl/lvgl/src/hal/../draw/../misc/lv_color.h ****     LV_PALETTE_CYAN,
 267:Drivers/lvgl/lvgl/src/hal/../draw/../misc/lv_color.h ****     LV_PALETTE_TEAL,
 268:Drivers/lvgl/lvgl/src/hal/../draw/../misc/lv_color.h ****     LV_PALETTE_GREEN,
 269:Drivers/lvgl/lvgl/src/hal/../draw/../misc/lv_color.h ****     LV_PALETTE_LIGHT_GREEN,
 270:Drivers/lvgl/lvgl/src/hal/../draw/../misc/lv_color.h ****     LV_PALETTE_LIME,
ARM GAS  /tmp/ccgzxQCw.s 			page 19


 271:Drivers/lvgl/lvgl/src/hal/../draw/../misc/lv_color.h ****     LV_PALETTE_YELLOW,
 272:Drivers/lvgl/lvgl/src/hal/../draw/../misc/lv_color.h ****     LV_PALETTE_AMBER,
 273:Drivers/lvgl/lvgl/src/hal/../draw/../misc/lv_color.h ****     LV_PALETTE_ORANGE,
 274:Drivers/lvgl/lvgl/src/hal/../draw/../misc/lv_color.h ****     LV_PALETTE_DEEP_ORANGE,
 275:Drivers/lvgl/lvgl/src/hal/../draw/../misc/lv_color.h ****     LV_PALETTE_BROWN,
 276:Drivers/lvgl/lvgl/src/hal/../draw/../misc/lv_color.h ****     LV_PALETTE_BLUE_GREY,
 277:Drivers/lvgl/lvgl/src/hal/../draw/../misc/lv_color.h ****     LV_PALETTE_GREY,
 278:Drivers/lvgl/lvgl/src/hal/../draw/../misc/lv_color.h ****     _LV_PALETTE_LAST,
 279:Drivers/lvgl/lvgl/src/hal/../draw/../misc/lv_color.h ****     LV_PALETTE_NONE = 0xff,
 280:Drivers/lvgl/lvgl/src/hal/../draw/../misc/lv_color.h **** } lv_palette_t;
 281:Drivers/lvgl/lvgl/src/hal/../draw/../misc/lv_color.h **** 
 282:Drivers/lvgl/lvgl/src/hal/../draw/../misc/lv_color.h **** /**********************
 283:Drivers/lvgl/lvgl/src/hal/../draw/../misc/lv_color.h ****  * GLOBAL PROTOTYPES
 284:Drivers/lvgl/lvgl/src/hal/../draw/../misc/lv_color.h ****  **********************/
 285:Drivers/lvgl/lvgl/src/hal/../draw/../misc/lv_color.h **** 
 286:Drivers/lvgl/lvgl/src/hal/../draw/../misc/lv_color.h **** /*In color conversations:
 287:Drivers/lvgl/lvgl/src/hal/../draw/../misc/lv_color.h ****  * - When converting to bigger color type the LSB weight of 1 LSB is calculated
 288:Drivers/lvgl/lvgl/src/hal/../draw/../misc/lv_color.h ****  *   E.g. 16 bit Red has 5 bits
 289:Drivers/lvgl/lvgl/src/hal/../draw/../misc/lv_color.h ****  *         8 bit Red has 3 bits
 290:Drivers/lvgl/lvgl/src/hal/../draw/../misc/lv_color.h ****  *        ----------------------
 291:Drivers/lvgl/lvgl/src/hal/../draw/../misc/lv_color.h ****  *        8 bit red LSB = (2^5 - 1) / (2^3 - 1) = 31 / 7 = 4
 292:Drivers/lvgl/lvgl/src/hal/../draw/../misc/lv_color.h ****  *
 293:Drivers/lvgl/lvgl/src/hal/../draw/../misc/lv_color.h ****  * - When calculating to smaller color type simply shift out the LSBs
 294:Drivers/lvgl/lvgl/src/hal/../draw/../misc/lv_color.h ****  *   E.g.  8 bit Red has 3 bits
 295:Drivers/lvgl/lvgl/src/hal/../draw/../misc/lv_color.h ****  *        16 bit Red has 5 bits
 296:Drivers/lvgl/lvgl/src/hal/../draw/../misc/lv_color.h ****  *        ----------------------
 297:Drivers/lvgl/lvgl/src/hal/../draw/../misc/lv_color.h ****  *         Shift right with 5 - 3 = 2
 298:Drivers/lvgl/lvgl/src/hal/../draw/../misc/lv_color.h ****  */
 299:Drivers/lvgl/lvgl/src/hal/../draw/../misc/lv_color.h **** static inline uint8_t lv_color_to1(lv_color_t color)
 300:Drivers/lvgl/lvgl/src/hal/../draw/../misc/lv_color.h **** {
 301:Drivers/lvgl/lvgl/src/hal/../draw/../misc/lv_color.h **** #if LV_COLOR_DEPTH == 1
 302:Drivers/lvgl/lvgl/src/hal/../draw/../misc/lv_color.h ****     return color.full;
 303:Drivers/lvgl/lvgl/src/hal/../draw/../misc/lv_color.h **** #elif LV_COLOR_DEPTH == 8
 304:Drivers/lvgl/lvgl/src/hal/../draw/../misc/lv_color.h ****     if((LV_COLOR_GET_R(color) & 0x4) || (LV_COLOR_GET_G(color) & 0x4) || (LV_COLOR_GET_B(color) & 0
 305:Drivers/lvgl/lvgl/src/hal/../draw/../misc/lv_color.h ****         return 1;
 306:Drivers/lvgl/lvgl/src/hal/../draw/../misc/lv_color.h ****     }
 307:Drivers/lvgl/lvgl/src/hal/../draw/../misc/lv_color.h ****     else {
 308:Drivers/lvgl/lvgl/src/hal/../draw/../misc/lv_color.h ****         return 0;
 309:Drivers/lvgl/lvgl/src/hal/../draw/../misc/lv_color.h ****     }
 310:Drivers/lvgl/lvgl/src/hal/../draw/../misc/lv_color.h **** #elif LV_COLOR_DEPTH == 16
 311:Drivers/lvgl/lvgl/src/hal/../draw/../misc/lv_color.h ****     if((LV_COLOR_GET_R(color) & 0x10) || (LV_COLOR_GET_G(color) & 0x20) || (LV_COLOR_GET_B(color) &
 312:Drivers/lvgl/lvgl/src/hal/../draw/../misc/lv_color.h ****         return 1;
 313:Drivers/lvgl/lvgl/src/hal/../draw/../misc/lv_color.h ****     }
 314:Drivers/lvgl/lvgl/src/hal/../draw/../misc/lv_color.h ****     else {
 315:Drivers/lvgl/lvgl/src/hal/../draw/../misc/lv_color.h ****         return 0;
 316:Drivers/lvgl/lvgl/src/hal/../draw/../misc/lv_color.h ****     }
 317:Drivers/lvgl/lvgl/src/hal/../draw/../misc/lv_color.h **** #elif LV_COLOR_DEPTH == 32
 318:Drivers/lvgl/lvgl/src/hal/../draw/../misc/lv_color.h ****     if((LV_COLOR_GET_R(color) & 0x80) || (LV_COLOR_GET_G(color) & 0x80) || (LV_COLOR_GET_B(color) &
 319:Drivers/lvgl/lvgl/src/hal/../draw/../misc/lv_color.h ****         return 1;
 320:Drivers/lvgl/lvgl/src/hal/../draw/../misc/lv_color.h ****     }
 321:Drivers/lvgl/lvgl/src/hal/../draw/../misc/lv_color.h ****     else {
 322:Drivers/lvgl/lvgl/src/hal/../draw/../misc/lv_color.h ****         return 0;
 323:Drivers/lvgl/lvgl/src/hal/../draw/../misc/lv_color.h ****     }
 324:Drivers/lvgl/lvgl/src/hal/../draw/../misc/lv_color.h **** #endif
 325:Drivers/lvgl/lvgl/src/hal/../draw/../misc/lv_color.h **** }
 326:Drivers/lvgl/lvgl/src/hal/../draw/../misc/lv_color.h **** 
 327:Drivers/lvgl/lvgl/src/hal/../draw/../misc/lv_color.h **** static inline uint8_t lv_color_to8(lv_color_t color)
ARM GAS  /tmp/ccgzxQCw.s 			page 20


 328:Drivers/lvgl/lvgl/src/hal/../draw/../misc/lv_color.h **** {
 329:Drivers/lvgl/lvgl/src/hal/../draw/../misc/lv_color.h **** #if LV_COLOR_DEPTH == 1
 330:Drivers/lvgl/lvgl/src/hal/../draw/../misc/lv_color.h ****     if(color.full == 0)
 331:Drivers/lvgl/lvgl/src/hal/../draw/../misc/lv_color.h ****         return 0;
 332:Drivers/lvgl/lvgl/src/hal/../draw/../misc/lv_color.h ****     else
 333:Drivers/lvgl/lvgl/src/hal/../draw/../misc/lv_color.h ****         return 0xFF;
 334:Drivers/lvgl/lvgl/src/hal/../draw/../misc/lv_color.h **** #elif LV_COLOR_DEPTH == 8
 335:Drivers/lvgl/lvgl/src/hal/../draw/../misc/lv_color.h ****     return color.full;
 336:Drivers/lvgl/lvgl/src/hal/../draw/../misc/lv_color.h **** #elif LV_COLOR_DEPTH == 16
 337:Drivers/lvgl/lvgl/src/hal/../draw/../misc/lv_color.h ****     lv_color8_t ret;
 338:Drivers/lvgl/lvgl/src/hal/../draw/../misc/lv_color.h ****     LV_COLOR_SET_R8(ret, LV_COLOR_GET_R(color) >> 2); /*5 - 3  = 2*/
 339:Drivers/lvgl/lvgl/src/hal/../draw/../misc/lv_color.h ****     LV_COLOR_SET_G8(ret, LV_COLOR_GET_G(color) >> 3); /*6 - 3  = 3*/
 340:Drivers/lvgl/lvgl/src/hal/../draw/../misc/lv_color.h ****     LV_COLOR_SET_B8(ret, LV_COLOR_GET_B(color) >> 3); /*5 - 2  = 3*/
 341:Drivers/lvgl/lvgl/src/hal/../draw/../misc/lv_color.h ****     return ret.full;
 342:Drivers/lvgl/lvgl/src/hal/../draw/../misc/lv_color.h **** #elif LV_COLOR_DEPTH == 32
 343:Drivers/lvgl/lvgl/src/hal/../draw/../misc/lv_color.h ****     lv_color8_t ret;
 344:Drivers/lvgl/lvgl/src/hal/../draw/../misc/lv_color.h ****     LV_COLOR_SET_R8(ret, LV_COLOR_GET_R(color) >> 5); /*8 - 3  = 5*/
 345:Drivers/lvgl/lvgl/src/hal/../draw/../misc/lv_color.h ****     LV_COLOR_SET_G8(ret, LV_COLOR_GET_G(color) >> 5); /*8 - 3  = 5*/
 346:Drivers/lvgl/lvgl/src/hal/../draw/../misc/lv_color.h ****     LV_COLOR_SET_B8(ret, LV_COLOR_GET_B(color) >> 6); /*8 - 2  = 6*/
 347:Drivers/lvgl/lvgl/src/hal/../draw/../misc/lv_color.h ****     return ret.full;
 348:Drivers/lvgl/lvgl/src/hal/../draw/../misc/lv_color.h **** #endif
 349:Drivers/lvgl/lvgl/src/hal/../draw/../misc/lv_color.h **** }
 350:Drivers/lvgl/lvgl/src/hal/../draw/../misc/lv_color.h **** 
 351:Drivers/lvgl/lvgl/src/hal/../draw/../misc/lv_color.h **** static inline uint16_t lv_color_to16(lv_color_t color)
 352:Drivers/lvgl/lvgl/src/hal/../draw/../misc/lv_color.h **** {
 353:Drivers/lvgl/lvgl/src/hal/../draw/../misc/lv_color.h **** #if LV_COLOR_DEPTH == 1
 354:Drivers/lvgl/lvgl/src/hal/../draw/../misc/lv_color.h ****     if(color.full == 0)
 355:Drivers/lvgl/lvgl/src/hal/../draw/../misc/lv_color.h ****         return 0;
 356:Drivers/lvgl/lvgl/src/hal/../draw/../misc/lv_color.h ****     else
 357:Drivers/lvgl/lvgl/src/hal/../draw/../misc/lv_color.h ****         return 0xFFFF;
 358:Drivers/lvgl/lvgl/src/hal/../draw/../misc/lv_color.h **** #elif LV_COLOR_DEPTH == 8
 359:Drivers/lvgl/lvgl/src/hal/../draw/../misc/lv_color.h ****     lv_color16_t ret;
 360:Drivers/lvgl/lvgl/src/hal/../draw/../misc/lv_color.h ****     LV_COLOR_SET_R16(ret, LV_COLOR_GET_R(color) * 4);  /*(2^5 - 1)/(2^3 - 1) = 31/7 = 4*/
 361:Drivers/lvgl/lvgl/src/hal/../draw/../misc/lv_color.h ****     LV_COLOR_SET_G16(ret, LV_COLOR_GET_G(color) * 9);  /*(2^6 - 1)/(2^3 - 1) = 63/7 = 9*/
 362:Drivers/lvgl/lvgl/src/hal/../draw/../misc/lv_color.h ****     LV_COLOR_SET_B16(ret, LV_COLOR_GET_B(color) * 10); /*(2^5 - 1)/(2^2 - 1) = 31/3 = 10*/
 363:Drivers/lvgl/lvgl/src/hal/../draw/../misc/lv_color.h ****     return ret.full;
 364:Drivers/lvgl/lvgl/src/hal/../draw/../misc/lv_color.h **** #elif LV_COLOR_DEPTH == 16
 365:Drivers/lvgl/lvgl/src/hal/../draw/../misc/lv_color.h ****     return color.full;
 366:Drivers/lvgl/lvgl/src/hal/../draw/../misc/lv_color.h **** #elif LV_COLOR_DEPTH == 32
 367:Drivers/lvgl/lvgl/src/hal/../draw/../misc/lv_color.h ****     lv_color16_t ret;
 368:Drivers/lvgl/lvgl/src/hal/../draw/../misc/lv_color.h ****     LV_COLOR_SET_R16(ret, LV_COLOR_GET_R(color) >> 3); /*8 - 5  = 3*/
 369:Drivers/lvgl/lvgl/src/hal/../draw/../misc/lv_color.h ****     LV_COLOR_SET_G16(ret, LV_COLOR_GET_G(color) >> 2); /*8 - 6  = 2*/
 370:Drivers/lvgl/lvgl/src/hal/../draw/../misc/lv_color.h ****     LV_COLOR_SET_B16(ret, LV_COLOR_GET_B(color) >> 3); /*8 - 5  = 3*/
 371:Drivers/lvgl/lvgl/src/hal/../draw/../misc/lv_color.h ****     return ret.full;
 372:Drivers/lvgl/lvgl/src/hal/../draw/../misc/lv_color.h **** #endif
 373:Drivers/lvgl/lvgl/src/hal/../draw/../misc/lv_color.h **** }
 374:Drivers/lvgl/lvgl/src/hal/../draw/../misc/lv_color.h **** 
 375:Drivers/lvgl/lvgl/src/hal/../draw/../misc/lv_color.h **** static inline uint32_t lv_color_to32(lv_color_t color)
 376:Drivers/lvgl/lvgl/src/hal/../draw/../misc/lv_color.h **** {
 377:Drivers/lvgl/lvgl/src/hal/../draw/../misc/lv_color.h **** #if LV_COLOR_DEPTH == 1
 378:Drivers/lvgl/lvgl/src/hal/../draw/../misc/lv_color.h ****     if(color.full == 0)
 379:Drivers/lvgl/lvgl/src/hal/../draw/../misc/lv_color.h ****         return 0xFF000000;
 380:Drivers/lvgl/lvgl/src/hal/../draw/../misc/lv_color.h ****     else
 381:Drivers/lvgl/lvgl/src/hal/../draw/../misc/lv_color.h ****         return 0xFFFFFFFF;
 382:Drivers/lvgl/lvgl/src/hal/../draw/../misc/lv_color.h **** #elif LV_COLOR_DEPTH == 8
 383:Drivers/lvgl/lvgl/src/hal/../draw/../misc/lv_color.h ****     lv_color32_t ret;
 384:Drivers/lvgl/lvgl/src/hal/../draw/../misc/lv_color.h ****     LV_COLOR_SET_R32(ret, LV_COLOR_GET_R(color) * 36); /*(2^8 - 1)/(2^3 - 1) = 255/7 = 36*/
ARM GAS  /tmp/ccgzxQCw.s 			page 21


 385:Drivers/lvgl/lvgl/src/hal/../draw/../misc/lv_color.h ****     LV_COLOR_SET_G32(ret, LV_COLOR_GET_G(color) * 36); /*(2^8 - 1)/(2^3 - 1) = 255/7 = 36*/
 386:Drivers/lvgl/lvgl/src/hal/../draw/../misc/lv_color.h ****     LV_COLOR_SET_B32(ret, LV_COLOR_GET_B(color) * 85); /*(2^8 - 1)/(2^2 - 1) = 255/3 = 85*/
 387:Drivers/lvgl/lvgl/src/hal/../draw/../misc/lv_color.h ****     LV_COLOR_SET_A32(ret, 0xFF);
 388:Drivers/lvgl/lvgl/src/hal/../draw/../misc/lv_color.h ****     return ret.full;
 389:Drivers/lvgl/lvgl/src/hal/../draw/../misc/lv_color.h **** #elif LV_COLOR_DEPTH == 16
 390:Drivers/lvgl/lvgl/src/hal/../draw/../misc/lv_color.h ****     /**
 391:Drivers/lvgl/lvgl/src/hal/../draw/../misc/lv_color.h ****      * The floating point math for conversion is:
 392:Drivers/lvgl/lvgl/src/hal/../draw/../misc/lv_color.h ****      *  valueto = valuefrom * ( (2^bitsto - 1) / (float)(2^bitsfrom - 1) )
 393:Drivers/lvgl/lvgl/src/hal/../draw/../misc/lv_color.h ****      * The faster integer math for conversion is:
 394:Drivers/lvgl/lvgl/src/hal/../draw/../misc/lv_color.h ****      *  valueto = ( valuefrom * multiplier + adder ) >> divisor
 395:Drivers/lvgl/lvgl/src/hal/../draw/../misc/lv_color.h ****      *   multiplier = FLOOR( ( (2^bitsto - 1) << divisor ) / (float)(2^bitsfrom - 1) )
 396:Drivers/lvgl/lvgl/src/hal/../draw/../misc/lv_color.h ****      *
 397:Drivers/lvgl/lvgl/src/hal/../draw/../misc/lv_color.h ****      * Find the first divisor where ( adder >> divisor ) <= 0
 398:Drivers/lvgl/lvgl/src/hal/../draw/../misc/lv_color.h ****      *
 399:Drivers/lvgl/lvgl/src/hal/../draw/../misc/lv_color.h ****      * 5-bit to 8-bit: ( 31 * multiplier + adder ) >> divisor = 255
 400:Drivers/lvgl/lvgl/src/hal/../draw/../misc/lv_color.h ****      * divisor  multiplier  adder  min (0)  max (31)
 401:Drivers/lvgl/lvgl/src/hal/../draw/../misc/lv_color.h ****      *       0           8      7        7       255
 402:Drivers/lvgl/lvgl/src/hal/../draw/../misc/lv_color.h ****      *       1          16     14        7       255
 403:Drivers/lvgl/lvgl/src/hal/../draw/../misc/lv_color.h ****      *       2          32     28        7       255
 404:Drivers/lvgl/lvgl/src/hal/../draw/../misc/lv_color.h ****      *       3          65     25        3       255
 405:Drivers/lvgl/lvgl/src/hal/../draw/../misc/lv_color.h ****      *       4         131     19        1       255
 406:Drivers/lvgl/lvgl/src/hal/../draw/../misc/lv_color.h ****      *       5         263      7        0       255
 407:Drivers/lvgl/lvgl/src/hal/../draw/../misc/lv_color.h ****      *
 408:Drivers/lvgl/lvgl/src/hal/../draw/../misc/lv_color.h ****      * 6-bit to 8-bit: 255 = ( 63 * multiplier + adder ) >> divisor
 409:Drivers/lvgl/lvgl/src/hal/../draw/../misc/lv_color.h ****      * divisor  multiplier  adder  min (0)  max (63)
 410:Drivers/lvgl/lvgl/src/hal/../draw/../misc/lv_color.h ****      *       0           4      3        3       255
 411:Drivers/lvgl/lvgl/src/hal/../draw/../misc/lv_color.h ****      *       1           8      6        3       255
 412:Drivers/lvgl/lvgl/src/hal/../draw/../misc/lv_color.h ****      *       2          16     12        3       255
 413:Drivers/lvgl/lvgl/src/hal/../draw/../misc/lv_color.h ****      *       3          32     24        3       255
 414:Drivers/lvgl/lvgl/src/hal/../draw/../misc/lv_color.h ****      *       4          64     48        3       255
 415:Drivers/lvgl/lvgl/src/hal/../draw/../misc/lv_color.h ****      *       5         129     33        1       255
 416:Drivers/lvgl/lvgl/src/hal/../draw/../misc/lv_color.h ****      *       6         259      3        0       255
 417:Drivers/lvgl/lvgl/src/hal/../draw/../misc/lv_color.h ****      */
 418:Drivers/lvgl/lvgl/src/hal/../draw/../misc/lv_color.h **** 
 419:Drivers/lvgl/lvgl/src/hal/../draw/../misc/lv_color.h ****     lv_color32_t ret;
 420:Drivers/lvgl/lvgl/src/hal/../draw/../misc/lv_color.h ****     LV_COLOR_SET_R32(ret, (LV_COLOR_GET_R(color) * 263 + 7) >> 5);
 421:Drivers/lvgl/lvgl/src/hal/../draw/../misc/lv_color.h ****     LV_COLOR_SET_G32(ret, (LV_COLOR_GET_G(color) * 259 + 3) >> 6);
 422:Drivers/lvgl/lvgl/src/hal/../draw/../misc/lv_color.h ****     LV_COLOR_SET_B32(ret, (LV_COLOR_GET_B(color) * 263 + 7) >> 5);
 423:Drivers/lvgl/lvgl/src/hal/../draw/../misc/lv_color.h ****     LV_COLOR_SET_A32(ret, 0xFF);
 424:Drivers/lvgl/lvgl/src/hal/../draw/../misc/lv_color.h ****     return ret.full;
 425:Drivers/lvgl/lvgl/src/hal/../draw/../misc/lv_color.h **** #elif LV_COLOR_DEPTH == 32
 426:Drivers/lvgl/lvgl/src/hal/../draw/../misc/lv_color.h ****     return color.full;
 427:Drivers/lvgl/lvgl/src/hal/../draw/../misc/lv_color.h **** #endif
 428:Drivers/lvgl/lvgl/src/hal/../draw/../misc/lv_color.h **** }
 429:Drivers/lvgl/lvgl/src/hal/../draw/../misc/lv_color.h **** 
 430:Drivers/lvgl/lvgl/src/hal/../draw/../misc/lv_color.h **** //! @cond Doxygen_Suppress
 431:Drivers/lvgl/lvgl/src/hal/../draw/../misc/lv_color.h **** 
 432:Drivers/lvgl/lvgl/src/hal/../draw/../misc/lv_color.h **** /**
 433:Drivers/lvgl/lvgl/src/hal/../draw/../misc/lv_color.h ****  * Mix two colors with a given ratio.
 434:Drivers/lvgl/lvgl/src/hal/../draw/../misc/lv_color.h ****  * @param c1 the first color to mix (usually the foreground)
 435:Drivers/lvgl/lvgl/src/hal/../draw/../misc/lv_color.h ****  * @param c2 the second color to mix (usually the background)
 436:Drivers/lvgl/lvgl/src/hal/../draw/../misc/lv_color.h ****  * @param mix The ratio of the colors. 0: full `c2`, 255: full `c1`, 127: half `c1` and half`c2`
 437:Drivers/lvgl/lvgl/src/hal/../draw/../misc/lv_color.h ****  * @return the mixed color
 438:Drivers/lvgl/lvgl/src/hal/../draw/../misc/lv_color.h ****  */
 439:Drivers/lvgl/lvgl/src/hal/../draw/../misc/lv_color.h **** LV_ATTRIBUTE_FAST_MEM static inline lv_color_t lv_color_mix(lv_color_t c1, lv_color_t c2, uint8_t m
 440:Drivers/lvgl/lvgl/src/hal/../draw/../misc/lv_color.h **** {
 441:Drivers/lvgl/lvgl/src/hal/../draw/../misc/lv_color.h ****     lv_color_t ret;
ARM GAS  /tmp/ccgzxQCw.s 			page 22


 442:Drivers/lvgl/lvgl/src/hal/../draw/../misc/lv_color.h **** 
 443:Drivers/lvgl/lvgl/src/hal/../draw/../misc/lv_color.h **** #if LV_COLOR_DEPTH == 16 && LV_COLOR_MIX_ROUND_OFS == 0
 444:Drivers/lvgl/lvgl/src/hal/../draw/../misc/lv_color.h **** #if LV_COLOR_16_SWAP == 1
 445:Drivers/lvgl/lvgl/src/hal/../draw/../misc/lv_color.h ****     c1.full = c1.full << 8 | c1.full >> 8;
 446:Drivers/lvgl/lvgl/src/hal/../draw/../misc/lv_color.h ****     c2.full = c2.full << 8 | c2.full >> 8;
 447:Drivers/lvgl/lvgl/src/hal/../draw/../misc/lv_color.h **** #endif
 448:Drivers/lvgl/lvgl/src/hal/../draw/../misc/lv_color.h ****     /*Source: https://stackoverflow.com/a/50012418/1999969*/
 449:Drivers/lvgl/lvgl/src/hal/../draw/../misc/lv_color.h ****     mix = (uint32_t)((uint32_t)mix + 4) >> 3;
 450:Drivers/lvgl/lvgl/src/hal/../draw/../misc/lv_color.h ****     uint32_t bg = (uint32_t)((uint32_t)c2.full | ((uint32_t)c2.full << 16)) &
 451:Drivers/lvgl/lvgl/src/hal/../draw/../misc/lv_color.h ****                   0x7E0F81F; /*0b00000111111000001111100000011111*/
 452:Drivers/lvgl/lvgl/src/hal/../draw/../misc/lv_color.h ****     uint32_t fg = (uint32_t)((uint32_t)c1.full | ((uint32_t)c1.full << 16)) & 0x7E0F81F;
 453:Drivers/lvgl/lvgl/src/hal/../draw/../misc/lv_color.h ****     uint32_t result = ((((fg - bg) * mix) >> 5) + bg) & 0x7E0F81F;
 454:Drivers/lvgl/lvgl/src/hal/../draw/../misc/lv_color.h ****     ret.full = (uint16_t)((result >> 16) | result);
 455:Drivers/lvgl/lvgl/src/hal/../draw/../misc/lv_color.h **** #if LV_COLOR_16_SWAP == 1
 456:Drivers/lvgl/lvgl/src/hal/../draw/../misc/lv_color.h ****     ret.full = ret.full << 8 | ret.full >> 8;
 457:Drivers/lvgl/lvgl/src/hal/../draw/../misc/lv_color.h **** #endif
 458:Drivers/lvgl/lvgl/src/hal/../draw/../misc/lv_color.h **** #elif LV_COLOR_DEPTH != 1
 459:Drivers/lvgl/lvgl/src/hal/../draw/../misc/lv_color.h ****     /*LV_COLOR_DEPTH == 8, 16 or 32*/
 460:Drivers/lvgl/lvgl/src/hal/../draw/../misc/lv_color.h ****     LV_COLOR_SET_R(ret, LV_UDIV255((uint16_t)LV_COLOR_GET_R(c1) * mix + LV_COLOR_GET_R(c2) *
 461:Drivers/lvgl/lvgl/src/hal/../draw/../misc/lv_color.h ****                                    (255 - mix) + LV_COLOR_MIX_ROUND_OFS));
 462:Drivers/lvgl/lvgl/src/hal/../draw/../misc/lv_color.h ****     LV_COLOR_SET_G(ret, LV_UDIV255((uint16_t)LV_COLOR_GET_G(c1) * mix + LV_COLOR_GET_G(c2) *
 463:Drivers/lvgl/lvgl/src/hal/../draw/../misc/lv_color.h ****                                    (255 - mix) + LV_COLOR_MIX_ROUND_OFS));
 464:Drivers/lvgl/lvgl/src/hal/../draw/../misc/lv_color.h ****     LV_COLOR_SET_B(ret, LV_UDIV255((uint16_t)LV_COLOR_GET_B(c1) * mix + LV_COLOR_GET_B(c2) *
 465:Drivers/lvgl/lvgl/src/hal/../draw/../misc/lv_color.h ****                                    (255 - mix) + LV_COLOR_MIX_ROUND_OFS));
 466:Drivers/lvgl/lvgl/src/hal/../draw/../misc/lv_color.h ****     LV_COLOR_SET_A(ret, 0xFF);
 467:Drivers/lvgl/lvgl/src/hal/../draw/../misc/lv_color.h **** #else
 468:Drivers/lvgl/lvgl/src/hal/../draw/../misc/lv_color.h ****     /*LV_COLOR_DEPTH == 1*/
 469:Drivers/lvgl/lvgl/src/hal/../draw/../misc/lv_color.h ****     ret.full = mix > LV_OPA_50 ? c1.full : c2.full;
 470:Drivers/lvgl/lvgl/src/hal/../draw/../misc/lv_color.h **** #endif
 471:Drivers/lvgl/lvgl/src/hal/../draw/../misc/lv_color.h **** 
 472:Drivers/lvgl/lvgl/src/hal/../draw/../misc/lv_color.h ****     return ret;
 473:Drivers/lvgl/lvgl/src/hal/../draw/../misc/lv_color.h **** }
 474:Drivers/lvgl/lvgl/src/hal/../draw/../misc/lv_color.h **** 
 475:Drivers/lvgl/lvgl/src/hal/../draw/../misc/lv_color.h **** LV_ATTRIBUTE_FAST_MEM static inline void lv_color_premult(lv_color_t c, uint8_t mix, uint16_t * out
 476:Drivers/lvgl/lvgl/src/hal/../draw/../misc/lv_color.h **** {
 477:Drivers/lvgl/lvgl/src/hal/../draw/../misc/lv_color.h **** #if LV_COLOR_DEPTH != 1
 478:Drivers/lvgl/lvgl/src/hal/../draw/../misc/lv_color.h ****     out[0] = (uint16_t)LV_COLOR_GET_R(c) * mix;
 479:Drivers/lvgl/lvgl/src/hal/../draw/../misc/lv_color.h ****     out[1] = (uint16_t)LV_COLOR_GET_G(c) * mix;
 480:Drivers/lvgl/lvgl/src/hal/../draw/../misc/lv_color.h ****     out[2] = (uint16_t)LV_COLOR_GET_B(c) * mix;
 481:Drivers/lvgl/lvgl/src/hal/../draw/../misc/lv_color.h **** #else
 482:Drivers/lvgl/lvgl/src/hal/../draw/../misc/lv_color.h ****     (void) mix;
 483:Drivers/lvgl/lvgl/src/hal/../draw/../misc/lv_color.h ****     /*Pre-multiplication can't be used with 1 bpp*/
 484:Drivers/lvgl/lvgl/src/hal/../draw/../misc/lv_color.h ****     out[0] = LV_COLOR_GET_R(c);
 485:Drivers/lvgl/lvgl/src/hal/../draw/../misc/lv_color.h ****     out[1] = LV_COLOR_GET_G(c);
 486:Drivers/lvgl/lvgl/src/hal/../draw/../misc/lv_color.h ****     out[2] = LV_COLOR_GET_B(c);
 487:Drivers/lvgl/lvgl/src/hal/../draw/../misc/lv_color.h **** #endif
 488:Drivers/lvgl/lvgl/src/hal/../draw/../misc/lv_color.h **** 
 489:Drivers/lvgl/lvgl/src/hal/../draw/../misc/lv_color.h **** }
 490:Drivers/lvgl/lvgl/src/hal/../draw/../misc/lv_color.h **** 
 491:Drivers/lvgl/lvgl/src/hal/../draw/../misc/lv_color.h **** /**
 492:Drivers/lvgl/lvgl/src/hal/../draw/../misc/lv_color.h ****  * Mix two colors with a given ratio. It runs faster then `lv_color_mix` but requires some pre comp
 493:Drivers/lvgl/lvgl/src/hal/../draw/../misc/lv_color.h ****  * @param premult_c1 The first color. Should be preprocessed with `lv_color_premult(c1)`
 494:Drivers/lvgl/lvgl/src/hal/../draw/../misc/lv_color.h ****  * @param c2 The second color. As it is no pre computation required on it
 495:Drivers/lvgl/lvgl/src/hal/../draw/../misc/lv_color.h ****  * @param mix The ratio of the colors. 0: full `c1`, 255: full `c2`, 127: half `c1` and half `c2`.
 496:Drivers/lvgl/lvgl/src/hal/../draw/../misc/lv_color.h ****  *            Should be modified like mix = `255 - mix`
 497:Drivers/lvgl/lvgl/src/hal/../draw/../misc/lv_color.h ****  * @return the mixed color
 498:Drivers/lvgl/lvgl/src/hal/../draw/../misc/lv_color.h ****  * @note 255 won't give clearly `c1`.
ARM GAS  /tmp/ccgzxQCw.s 			page 23


 499:Drivers/lvgl/lvgl/src/hal/../draw/../misc/lv_color.h ****  */
 500:Drivers/lvgl/lvgl/src/hal/../draw/../misc/lv_color.h **** LV_ATTRIBUTE_FAST_MEM static inline lv_color_t lv_color_mix_premult(uint16_t * premult_c1, lv_color
 501:Drivers/lvgl/lvgl/src/hal/../draw/../misc/lv_color.h **** {
 502:Drivers/lvgl/lvgl/src/hal/../draw/../misc/lv_color.h ****     lv_color_t ret;
 503:Drivers/lvgl/lvgl/src/hal/../draw/../misc/lv_color.h **** #if LV_COLOR_DEPTH != 1
 504:Drivers/lvgl/lvgl/src/hal/../draw/../misc/lv_color.h ****     /*LV_COLOR_DEPTH == 8 or 32*/
 505:Drivers/lvgl/lvgl/src/hal/../draw/../misc/lv_color.h ****     LV_COLOR_SET_R(ret, LV_UDIV255(premult_c1[0] + LV_COLOR_GET_R(c2) * mix + LV_COLOR_MIX_ROUND_OF
 506:Drivers/lvgl/lvgl/src/hal/../draw/../misc/lv_color.h ****     LV_COLOR_SET_G(ret, LV_UDIV255(premult_c1[1] + LV_COLOR_GET_G(c2) * mix + LV_COLOR_MIX_ROUND_OF
 507:Drivers/lvgl/lvgl/src/hal/../draw/../misc/lv_color.h ****     LV_COLOR_SET_B(ret, LV_UDIV255(premult_c1[2] + LV_COLOR_GET_B(c2) * mix + LV_COLOR_MIX_ROUND_OF
 508:Drivers/lvgl/lvgl/src/hal/../draw/../misc/lv_color.h ****     LV_COLOR_SET_A(ret, 0xFF);
 509:Drivers/lvgl/lvgl/src/hal/../draw/../misc/lv_color.h **** #else
 510:Drivers/lvgl/lvgl/src/hal/../draw/../misc/lv_color.h ****     /*LV_COLOR_DEPTH == 1*/
 511:Drivers/lvgl/lvgl/src/hal/../draw/../misc/lv_color.h ****     /*Restore color1*/
 512:Drivers/lvgl/lvgl/src/hal/../draw/../misc/lv_color.h ****     lv_color_t c1;
 513:Drivers/lvgl/lvgl/src/hal/../draw/../misc/lv_color.h ****     LV_COLOR_SET_R(c1, premult_c1[0]);
 514:Drivers/lvgl/lvgl/src/hal/../draw/../misc/lv_color.h ****     LV_COLOR_SET_G(c1, premult_c1[1]);
 515:Drivers/lvgl/lvgl/src/hal/../draw/../misc/lv_color.h ****     LV_COLOR_SET_B(c1, premult_c1[2]);
 516:Drivers/lvgl/lvgl/src/hal/../draw/../misc/lv_color.h ****     ret.full = mix > LV_OPA_50 ? c2.full : c1.full;
 517:Drivers/lvgl/lvgl/src/hal/../draw/../misc/lv_color.h **** #endif
 518:Drivers/lvgl/lvgl/src/hal/../draw/../misc/lv_color.h **** 
 519:Drivers/lvgl/lvgl/src/hal/../draw/../misc/lv_color.h ****     return ret;
 520:Drivers/lvgl/lvgl/src/hal/../draw/../misc/lv_color.h **** }
 521:Drivers/lvgl/lvgl/src/hal/../draw/../misc/lv_color.h **** 
 522:Drivers/lvgl/lvgl/src/hal/../draw/../misc/lv_color.h **** /**
 523:Drivers/lvgl/lvgl/src/hal/../draw/../misc/lv_color.h ****  * Mix two colors. Both color can have alpha value.
 524:Drivers/lvgl/lvgl/src/hal/../draw/../misc/lv_color.h ****  * @param bg_color background color
 525:Drivers/lvgl/lvgl/src/hal/../draw/../misc/lv_color.h ****  * @param bg_opa alpha of the background color
 526:Drivers/lvgl/lvgl/src/hal/../draw/../misc/lv_color.h ****  * @param fg_color foreground color
 527:Drivers/lvgl/lvgl/src/hal/../draw/../misc/lv_color.h ****  * @param fg_opa alpha of the foreground color
 528:Drivers/lvgl/lvgl/src/hal/../draw/../misc/lv_color.h ****  * @param res_color the result color
 529:Drivers/lvgl/lvgl/src/hal/../draw/../misc/lv_color.h ****  * @param res_opa the result opacity
 530:Drivers/lvgl/lvgl/src/hal/../draw/../misc/lv_color.h ****  */
 531:Drivers/lvgl/lvgl/src/hal/../draw/../misc/lv_color.h **** LV_ATTRIBUTE_FAST_MEM static inline void lv_color_mix_with_alpha(lv_color_t bg_color, lv_opa_t bg_o
 532:Drivers/lvgl/lvgl/src/hal/../draw/../misc/lv_color.h ****                                                                  lv_color_t fg_color, lv_opa_t fg_o
 533:Drivers/lvgl/lvgl/src/hal/../draw/../misc/lv_color.h ****                                                                  lv_color_t * res_color, lv_opa_t *
 534:Drivers/lvgl/lvgl/src/hal/../draw/../misc/lv_color.h **** {
 535:Drivers/lvgl/lvgl/src/hal/../draw/../misc/lv_color.h ****     /*Pick the foreground if it's fully opaque or the Background is fully transparent*/
 536:Drivers/lvgl/lvgl/src/hal/../draw/../misc/lv_color.h ****     if(fg_opa >= LV_OPA_MAX || bg_opa <= LV_OPA_MIN) {
  59              		.loc 2 536 0
  60 0022 022A     		cmp	r2, #2
  61 0024 8CBF     		ite	hi
  62 0026 0027     		movhi	r7, #0
  63 0028 0127     		movls	r7, #1
  64 002a FC2D     		cmp	r5, #252
  65 002c 88BF     		it	hi
  66 002e 47F00107 		orrhi	r7, r7, #1
  67 0032 CFB9     		cbnz	r7, .L13
  68 0034 9BB2     		uxth	r3, r3
 537:Drivers/lvgl/lvgl/src/hal/../draw/../misc/lv_color.h ****         res_color->full = fg_color.full;
 538:Drivers/lvgl/lvgl/src/hal/../draw/../misc/lv_color.h ****         *res_opa = fg_opa;
 539:Drivers/lvgl/lvgl/src/hal/../draw/../misc/lv_color.h ****     }
 540:Drivers/lvgl/lvgl/src/hal/../draw/../misc/lv_color.h ****     /*Transparent foreground: use the Background*/
 541:Drivers/lvgl/lvgl/src/hal/../draw/../misc/lv_color.h ****     else if(fg_opa <= LV_OPA_MIN) {
  69              		.loc 2 541 0
  70 0036 022D     		cmp	r5, #2
  71 0038 21D9     		bls	.L14
 542:Drivers/lvgl/lvgl/src/hal/../draw/../misc/lv_color.h ****         res_color->full = bg_color.full;
ARM GAS  /tmp/ccgzxQCw.s 			page 24


 543:Drivers/lvgl/lvgl/src/hal/../draw/../misc/lv_color.h ****         *res_opa = bg_opa;
 544:Drivers/lvgl/lvgl/src/hal/../draw/../misc/lv_color.h ****     }
 545:Drivers/lvgl/lvgl/src/hal/../draw/../misc/lv_color.h ****     /*Opaque background: use simple mix*/
 546:Drivers/lvgl/lvgl/src/hal/../draw/../misc/lv_color.h ****     else if(bg_opa >= LV_OPA_MAX) {
  72              		.loc 2 546 0
  73 003a FC2A     		cmp	r2, #252
  74 003c 21D9     		bls	.L5
  75              	.LVL5:
  76              	.LBB33:
  77              	.LBB34:
 449:Drivers/lvgl/lvgl/src/hal/../draw/../misc/lv_color.h ****     uint32_t bg = (uint32_t)((uint32_t)c2.full | ((uint32_t)c2.full << 16)) &
  78              		.loc 2 449 0
  79 003e 0435     		adds	r5, r5, #4
  80              	.LVL6:
 450:Drivers/lvgl/lvgl/src/hal/../draw/../misc/lv_color.h ****                   0x7E0F81F; /*0b00000111111000001111100000011111*/
  81              		.loc 2 450 0
  82 0040 43EA0343 		orr	r3, r3, r3, lsl #16
  83 0044 344F     		ldr	r7, .L16
  84 0046 03EA0702 		and	r2, r3, r7
  85              	.LVL7:
 452:Drivers/lvgl/lvgl/src/hal/../draw/../misc/lv_color.h ****     uint32_t result = ((((fg - bg) * mix) >> 5) + bg) & 0x7E0F81F;
  86              		.loc 2 452 0
  87 004a 46EA0643 		orr	r3, r6, r6, lsl #16
  88 004e 3B40     		ands	r3, r3, r7
  89              	.LVL8:
 453:Drivers/lvgl/lvgl/src/hal/../draw/../misc/lv_color.h ****     ret.full = (uint16_t)((result >> 16) | result);
  90              		.loc 2 453 0
  91 0050 9B1A     		subs	r3, r3, r2
  92              	.LVL9:
  93 0052 ED08     		lsrs	r5, r5, #3
  94              	.LVL10:
  95 0054 03FB05F3 		mul	r3, r3, r5
  96 0058 02EB5313 		add	r3, r2, r3, lsr #5
  97 005c 3B40     		ands	r3, r3, r7
  98              	.LVL11:
  99              	.LBE34:
 100              	.LBE33:
 547:Drivers/lvgl/lvgl/src/hal/../draw/../misc/lv_color.h ****         *res_color = lv_color_mix(fg_color, bg_color, fg_opa);
 101              		.loc 2 547 0
 102 005e 43EA1343 		orr	r3, r3, r3, lsr #16
 103              	.LVL12:
 548:Drivers/lvgl/lvgl/src/hal/../draw/../misc/lv_color.h ****         *res_opa = LV_OPA_COVER;
 104              		.loc 2 548 0
 105 0062 FF22     		movs	r2, #255
 106 0064 8270     		strb	r2, [r0, #2]
 107              	.LVL13:
 108 0066 01E0     		b	.L3
 109              	.LVL14:
 110              	.L13:
 537:Drivers/lvgl/lvgl/src/hal/../draw/../misc/lv_color.h ****         *res_opa = fg_opa;
 111              		.loc 2 537 0
 112 0068 3346     		mov	r3, r6	@ movhi
 538:Drivers/lvgl/lvgl/src/hal/../draw/../misc/lv_color.h ****     }
 113              		.loc 2 538 0
 114 006a 8570     		strb	r5, [r0, #2]
 115              	.LVL15:
 116              	.L3:
ARM GAS  /tmp/ccgzxQCw.s 			page 25


 117              	.LBE32:
 118              	.LBE31:
 700:Drivers/lvgl/lvgl/src/hal/lv_hal_disp.c ****     lv_color_mix_with_alpha(bg_color, bg_opa, color, opa, &res_color, &buf_px[2]);
 701:Drivers/lvgl/lvgl/src/hal/lv_hal_disp.c ****     if(buf_px[2] <= LV_OPA_MIN) return;
 119              		.loc 1 701 0
 120 006c 8278     		ldrb	r2, [r0, #2]	@ zero_extendqisi2
 121 006e 022A     		cmp	r2, #2
 122 0070 03D9     		bls	.L1
 123              	.LVL16:
 702:Drivers/lvgl/lvgl/src/hal/lv_hal_disp.c ****     buf_px[0] = res_color.full & 0xff;
 124              		.loc 1 702 0
 125 0072 9BB2     		uxth	r3, r3
 126              	.LVL17:
 127 0074 0B55     		strb	r3, [r1, r4]
 703:Drivers/lvgl/lvgl/src/hal/lv_hal_disp.c ****     buf_px[1] = res_color.full >> 8;
 128              		.loc 1 703 0
 129 0076 1B0A     		lsrs	r3, r3, #8
 130 0078 4370     		strb	r3, [r0, #1]
 131              	.L1:
 704:Drivers/lvgl/lvgl/src/hal/lv_hal_disp.c **** #elif LV_COLOR_DEPTH == 32
 705:Drivers/lvgl/lvgl/src/hal/lv_hal_disp.c ****     bg_color = *((lv_color_t *)buf_px);
 706:Drivers/lvgl/lvgl/src/hal/lv_hal_disp.c ****     lv_color_mix_with_alpha(bg_color, bg_opa, color, opa, &res_color, &buf_px[3]);
 707:Drivers/lvgl/lvgl/src/hal/lv_hal_disp.c ****     if(buf_px[3] <= LV_OPA_MIN) return;
 708:Drivers/lvgl/lvgl/src/hal/lv_hal_disp.c ****     buf_px[0] = res_color.ch.blue;
 709:Drivers/lvgl/lvgl/src/hal/lv_hal_disp.c ****     buf_px[1] = res_color.ch.green;
 710:Drivers/lvgl/lvgl/src/hal/lv_hal_disp.c ****     buf_px[2] = res_color.ch.red;
 711:Drivers/lvgl/lvgl/src/hal/lv_hal_disp.c **** #endif
 712:Drivers/lvgl/lvgl/src/hal/lv_hal_disp.c **** 
 713:Drivers/lvgl/lvgl/src/hal/lv_hal_disp.c **** }
 132              		.loc 1 713 0
 133 007a F0BC     		pop	{r4, r5, r6, r7}
 134              	.LCFI1:
 135              		.cfi_remember_state
 136              		.cfi_restore 7
 137              		.cfi_restore 6
 138              		.cfi_restore 5
 139              		.cfi_restore 4
 140              		.cfi_def_cfa_offset 0
 141              	.LVL18:
 142 007c 7047     		bx	lr
 143              	.LVL19:
 144              	.L14:
 145              	.LCFI2:
 146              		.cfi_restore_state
 147              	.LBB41:
 148              	.LBB40:
 543:Drivers/lvgl/lvgl/src/hal/../draw/../misc/lv_color.h ****     }
 149              		.loc 2 543 0
 150 007e 8270     		strb	r2, [r0, #2]
 151 0080 F4E7     		b	.L3
 152              	.L5:
 153              	.LBB35:
 549:Drivers/lvgl/lvgl/src/hal/../draw/../misc/lv_color.h ****     }
 550:Drivers/lvgl/lvgl/src/hal/../draw/../misc/lv_color.h ****     /*Both colors have alpha. Expensive calculation need to be applied*/
 551:Drivers/lvgl/lvgl/src/hal/../draw/../misc/lv_color.h ****     else {
 552:Drivers/lvgl/lvgl/src/hal/../draw/../misc/lv_color.h ****         /*Save the parameters and the result. If they will be asked again don't compute again*/
 553:Drivers/lvgl/lvgl/src/hal/../draw/../misc/lv_color.h ****         static lv_opa_t fg_opa_save     = 0;
ARM GAS  /tmp/ccgzxQCw.s 			page 26


 554:Drivers/lvgl/lvgl/src/hal/../draw/../misc/lv_color.h ****         static lv_opa_t bg_opa_save     = 0;
 555:Drivers/lvgl/lvgl/src/hal/../draw/../misc/lv_color.h ****         static lv_color_t fg_color_save = _LV_COLOR_ZERO_INITIALIZER;
 556:Drivers/lvgl/lvgl/src/hal/../draw/../misc/lv_color.h ****         static lv_color_t bg_color_save = _LV_COLOR_ZERO_INITIALIZER;
 557:Drivers/lvgl/lvgl/src/hal/../draw/../misc/lv_color.h ****         static lv_color_t res_color_saved = _LV_COLOR_ZERO_INITIALIZER;
 558:Drivers/lvgl/lvgl/src/hal/../draw/../misc/lv_color.h ****         static lv_opa_t res_opa_saved = 0;
 559:Drivers/lvgl/lvgl/src/hal/../draw/../misc/lv_color.h **** 
 560:Drivers/lvgl/lvgl/src/hal/../draw/../misc/lv_color.h ****         if(fg_opa != fg_opa_save || bg_opa != bg_opa_save || fg_color.full != fg_color_save.full ||
 154              		.loc 2 560 0
 155 0082 264F     		ldr	r7, .L16+4
 156 0084 3F78     		ldrb	r7, [r7]	@ zero_extendqisi2
 157 0086 BD42     		cmp	r5, r7
 158 0088 03D1     		bne	.L6
 159 008a 254F     		ldr	r7, .L16+8
 160 008c 3F78     		ldrb	r7, [r7]	@ zero_extendqisi2
 161 008e BA42     		cmp	r2, r7
 162 0090 17D0     		beq	.L15
 163              	.LVL20:
 164              	.L6:
 165              	.LBB36:
 561:Drivers/lvgl/lvgl/src/hal/../draw/../misc/lv_color.h ****            bg_color.full != bg_color_save.full) {
 562:Drivers/lvgl/lvgl/src/hal/../draw/../misc/lv_color.h ****             fg_opa_save        = fg_opa;
 166              		.loc 2 562 0
 167 0092 224F     		ldr	r7, .L16+4
 168 0094 3D70     		strb	r5, [r7]
 563:Drivers/lvgl/lvgl/src/hal/../draw/../misc/lv_color.h ****             bg_opa_save        = bg_opa;
 169              		.loc 2 563 0
 170 0096 224F     		ldr	r7, .L16+8
 171 0098 3A70     		strb	r2, [r7]
 564:Drivers/lvgl/lvgl/src/hal/../draw/../misc/lv_color.h ****             fg_color_save.full = fg_color.full;
 172              		.loc 2 564 0
 173 009a B6B2     		uxth	r6, r6
 174              	.LVL21:
 175 009c 214F     		ldr	r7, .L16+12
 176 009e 3E80     		strh	r6, [r7]	@ movhi
 565:Drivers/lvgl/lvgl/src/hal/../draw/../misc/lv_color.h ****             bg_color_save.full = bg_color.full;
 177              		.loc 2 565 0
 178 00a0 214F     		ldr	r7, .L16+16
 179 00a2 3B80     		strh	r3, [r7]	@ movhi
 566:Drivers/lvgl/lvgl/src/hal/../draw/../misc/lv_color.h ****             /*Info:
 567:Drivers/lvgl/lvgl/src/hal/../draw/../misc/lv_color.h ****              * https://en.wikipedia.org/wiki/Alpha_compositing#Analytical_derivation_of_the_over_op
 568:Drivers/lvgl/lvgl/src/hal/../draw/../misc/lv_color.h ****             res_opa_saved = 255 - ((uint16_t)((uint16_t)(255 - fg_opa) * (255 - bg_opa)) >> 8);
 180              		.loc 2 568 0
 181 00a4 ADB2     		uxth	r5, r5
 182              	.LVL22:
 183 00a6 C5F1FF07 		rsb	r7, r5, #255
 184 00aa C2F1FF02 		rsb	r2, r2, #255
 185              	.LVL23:
 186 00ae 02FB07F2 		mul	r2, r2, r7
 187 00b2 C2F30722 		ubfx	r2, r2, #8, #8
 188 00b6 D243     		mvns	r2, r2
 189 00b8 D7B2     		uxtb	r7, r2
 190 00ba 1C4A     		ldr	r2, .L16+20
 191 00bc 1770     		strb	r7, [r2]
 569:Drivers/lvgl/lvgl/src/hal/../draw/../misc/lv_color.h ****             LV_ASSERT(res_opa_saved != 0);
 192              		.loc 2 569 0
 193 00be 5FB9     		cbnz	r7, .L8
 194              	.L9:
ARM GAS  /tmp/ccgzxQCw.s 			page 27


 195 00c0 FEE7     		b	.L9
 196              	.LVL24:
 197              	.L15:
 198              	.LBE36:
 560:Drivers/lvgl/lvgl/src/hal/../draw/../misc/lv_color.h ****            bg_color.full != bg_color_save.full) {
 199              		.loc 2 560 0
 200 00c2 1FFA86FC 		uxth	ip, r6
 201 00c6 174F     		ldr	r7, .L16+12
 202 00c8 3F88     		ldrh	r7, [r7]
 203 00ca BC45     		cmp	ip, r7
 204 00cc E1D1     		bne	.L6
 561:Drivers/lvgl/lvgl/src/hal/../draw/../misc/lv_color.h ****             fg_opa_save        = fg_opa;
 205              		.loc 2 561 0
 206 00ce 164F     		ldr	r7, .L16+16
 207 00d0 3F88     		ldrh	r7, [r7]
 560:Drivers/lvgl/lvgl/src/hal/../draw/../misc/lv_color.h ****            bg_color.full != bg_color_save.full) {
 208              		.loc 2 560 0
 209 00d2 BB42     		cmp	r3, r7
 210 00d4 DDD1     		bne	.L6
 211 00d6 18E0     		b	.L7
 212              	.LVL25:
 213              	.L8:
 214              	.LBB39:
 570:Drivers/lvgl/lvgl/src/hal/../draw/../misc/lv_color.h ****             lv_opa_t ratio = (uint16_t)((uint16_t)fg_opa * 255) / res_opa_saved;
 215              		.loc 2 570 0
 216 00d8 C5EB0525 		rsb	r5, r5, r5, lsl #8
 217 00dc AAB2     		uxth	r2, r5
 218 00de 92FBF7F2 		sdiv	r2, r2, r7
 219              	.LVL26:
 220              	.LBB37:
 221              	.LBB38:
 449:Drivers/lvgl/lvgl/src/hal/../draw/../misc/lv_color.h ****     uint32_t bg = (uint32_t)((uint32_t)c2.full | ((uint32_t)c2.full << 16)) &
 222              		.loc 2 449 0
 223 00e2 D2B2     		uxtb	r2, r2
 224 00e4 0432     		adds	r2, r2, #4
 225              	.LVL27:
 450:Drivers/lvgl/lvgl/src/hal/../draw/../misc/lv_color.h ****                   0x7E0F81F; /*0b00000111111000001111100000011111*/
 226              		.loc 2 450 0
 227 00e6 43EA0343 		orr	r3, r3, r3, lsl #16
 228 00ea 0B4F     		ldr	r7, .L16
 229 00ec 3B40     		ands	r3, r3, r7
 230              	.LVL28:
 452:Drivers/lvgl/lvgl/src/hal/../draw/../misc/lv_color.h ****     uint32_t result = ((((fg - bg) * mix) >> 5) + bg) & 0x7E0F81F;
 231              		.loc 2 452 0
 232 00ee 46EA0645 		orr	r5, r6, r6, lsl #16
 233 00f2 3D40     		ands	r5, r5, r7
 234              	.LVL29:
 453:Drivers/lvgl/lvgl/src/hal/../draw/../misc/lv_color.h ****     ret.full = (uint16_t)((result >> 16) | result);
 235              		.loc 2 453 0
 236 00f4 ED1A     		subs	r5, r5, r3
 237              	.LVL30:
 238 00f6 D208     		lsrs	r2, r2, #3
 239              	.LVL31:
 240 00f8 05FB02F2 		mul	r2, r5, r2
 241 00fc 03EB5213 		add	r3, r3, r2, lsr #5
 242              	.LVL32:
 243 0100 3B40     		ands	r3, r3, r7
ARM GAS  /tmp/ccgzxQCw.s 			page 28


 244              	.LVL33:
 454:Drivers/lvgl/lvgl/src/hal/../draw/../misc/lv_color.h **** #if LV_COLOR_16_SWAP == 1
 245              		.loc 2 454 0
 246 0102 43EA1343 		orr	r3, r3, r3, lsr #16
 247              	.LVL34:
 248              	.LBE38:
 249              	.LBE37:
 571:Drivers/lvgl/lvgl/src/hal/../draw/../misc/lv_color.h ****             res_color_saved = lv_color_mix(fg_color, bg_color, ratio);
 250              		.loc 2 571 0
 251 0106 0A4A     		ldr	r2, .L16+24
 252 0108 1380     		strh	r3, [r2]	@ movhi
 253              	.LVL35:
 254              	.L7:
 255              	.LBE39:
 572:Drivers/lvgl/lvgl/src/hal/../draw/../misc/lv_color.h **** 
 573:Drivers/lvgl/lvgl/src/hal/../draw/../misc/lv_color.h ****         }
 574:Drivers/lvgl/lvgl/src/hal/../draw/../misc/lv_color.h **** 
 575:Drivers/lvgl/lvgl/src/hal/../draw/../misc/lv_color.h ****         res_color->full = res_color_saved.full;
 256              		.loc 2 575 0
 257 010a 094B     		ldr	r3, .L16+24
 258 010c 1B88     		ldrh	r3, [r3]
 576:Drivers/lvgl/lvgl/src/hal/../draw/../misc/lv_color.h ****         *res_opa = res_opa_saved;
 259              		.loc 2 576 0
 260 010e 074A     		ldr	r2, .L16+20
 261 0110 1278     		ldrb	r2, [r2]	@ zero_extendqisi2
 262 0112 8270     		strb	r2, [r0, #2]
 263              	.LVL36:
 264 0114 AAE7     		b	.L3
 265              	.L17:
 266 0116 00BF     		.align	2
 267              	.L16:
 268 0118 1FF8E007 		.word	132184095
 269 011c 00000000 		.word	.LANCHOR0
 270 0120 00000000 		.word	.LANCHOR1
 271 0124 00000000 		.word	.LANCHOR2
 272 0128 00000000 		.word	.LANCHOR3
 273 012c 00000000 		.word	.LANCHOR4
 274 0130 00000000 		.word	.LANCHOR5
 275              	.LBE35:
 276              	.LBE40:
 277              	.LBE41:
 278              		.cfi_endproc
 279              	.LFE187:
 281              		.section	.text.invalidate_layout_cb,"ax",%progbits
 282              		.align	1
 283              		.syntax unified
 284              		.thumb
 285              		.thumb_func
 286              		.fpu fpv5-d16
 288              	invalidate_layout_cb:
 289              	.LFB181:
 606:Drivers/lvgl/lvgl/src/hal/lv_hal_disp.c ****     LV_UNUSED(user_data);
 290              		.loc 1 606 0
 291              		.cfi_startproc
 292              		@ args = 0, pretend = 0, frame = 0
 293              		@ frame_needed = 0, uses_anonymous_args = 0
 294              	.LVL37:
ARM GAS  /tmp/ccgzxQCw.s 			page 29


 295 0000 08B5     		push	{r3, lr}
 296              	.LCFI3:
 297              		.cfi_def_cfa_offset 8
 298              		.cfi_offset 3, -8
 299              		.cfi_offset 14, -4
 608:Drivers/lvgl/lvgl/src/hal/lv_hal_disp.c ****     return LV_OBJ_TREE_WALK_NEXT;
 300              		.loc 1 608 0
 301 0002 FFF7FEFF 		bl	lv_obj_mark_layout_as_dirty
 302              	.LVL38:
 610:Drivers/lvgl/lvgl/src/hal/lv_hal_disp.c **** 
 303              		.loc 1 610 0
 304 0006 0020     		movs	r0, #0
 305 0008 08BD     		pop	{r3, pc}
 306              		.cfi_endproc
 307              	.LFE181:
 309              		.section	.text.set_px_alpha_generic,"ax",%progbits
 310              		.align	1
 311              		.syntax unified
 312              		.thumb
 313              		.thumb_func
 314              		.fpu fpv5-d16
 316              	set_px_alpha_generic:
 317              	.LFB186:
 669:Drivers/lvgl/lvgl/src/hal/lv_hal_disp.c ****     d->header.always_zero = 0;
 318              		.loc 1 669 0
 319              		.cfi_startproc
 320              		@ args = 4, pretend = 0, frame = 0
 321              		@ frame_needed = 0, uses_anonymous_args = 0
 322              	.LVL39:
 323 0000 2DE9F041 		push	{r4, r5, r6, r7, r8, lr}
 324              	.LCFI4:
 325              		.cfi_def_cfa_offset 24
 326              		.cfi_offset 4, -24
 327              		.cfi_offset 5, -20
 328              		.cfi_offset 6, -16
 329              		.cfi_offset 7, -12
 330              		.cfi_offset 8, -8
 331              		.cfi_offset 14, -4
 332 0004 0546     		mov	r5, r0
 333 0006 0E46     		mov	r6, r1
 334 0008 1746     		mov	r7, r2
 335 000a 9DF81880 		ldrb	r8, [sp, #24]	@ zero_extendqisi2
 670:Drivers/lvgl/lvgl/src/hal/lv_hal_disp.c ****     d->header.h = 1;    /*Doesn't matter*/
 336              		.loc 1 670 0
 337 000e 0278     		ldrb	r2, [r0]	@ zero_extendqisi2
 338              	.LVL40:
 339 0010 6FF34712 		bfc	r2, #5, #3
 340 0014 0270     		strb	r2, [r0]
 671:Drivers/lvgl/lvgl/src/hal/lv_hal_disp.c **** 
 341              		.loc 1 671 0
 342 0016 4288     		ldrh	r2, [r0, #2]
 343 0018 0121     		movs	r1, #1
 344              	.LVL41:
 345 001a 61F34F12 		bfi	r2, r1, #5, #11
 346 001e 4280     		strh	r2, [r0, #2]	@ movhi
 347              	.LBB47:
 348              	.LBB48:
ARM GAS  /tmp/ccgzxQCw.s 			page 30


 349              	.LBB49:
 350              	.LBB50:
 420:Drivers/lvgl/lvgl/src/hal/../draw/../misc/lv_color.h ****     LV_COLOR_SET_G32(ret, (LV_COLOR_GET_G(color) * 259 + 3) >> 6);
 351              		.loc 2 420 0
 352 0020 C3F3C422 		ubfx	r2, r3, #11, #5
 353 0024 02EB4211 		add	r1, r2, r2, lsl #5
 354 0028 C2EBC101 		rsb	r1, r2, r1, lsl #3
 355 002c 0731     		adds	r1, r1, #7
 356 002e C1F34711 		ubfx	r1, r1, #5, #8
 357 0032 0022     		movs	r2, #0
 358              	.LVL42:
 359 0034 61F31742 		bfi	r2, r1, #16, #8
 360              	.LVL43:
 421:Drivers/lvgl/lvgl/src/hal/../draw/../misc/lv_color.h ****     LV_COLOR_SET_B32(ret, (LV_COLOR_GET_B(color) * 263 + 7) >> 5);
 361              		.loc 2 421 0
 362 0038 C3F34511 		ubfx	r1, r3, #5, #6
 363 003c 01EBC110 		add	r0, r1, r1, lsl #7
 364              	.LVL44:
 365 0040 01EB4001 		add	r1, r1, r0, lsl #1
 366 0044 0331     		adds	r1, r1, #3
 367 0046 C1F38711 		ubfx	r1, r1, #6, #8
 368 004a 61F30F22 		bfi	r2, r1, #8, #8
 422:Drivers/lvgl/lvgl/src/hal/../draw/../misc/lv_color.h ****     LV_COLOR_SET_A32(ret, 0xFF);
 369              		.loc 2 422 0
 370 004e 03F01F03 		and	r3, r3, #31
 371              	.LVL45:
 372 0052 03EB4311 		add	r1, r3, r3, lsl #5
 373 0056 C3EBC103 		rsb	r3, r3, r1, lsl #3
 374 005a 0733     		adds	r3, r3, #7
 375 005c C3F34713 		ubfx	r3, r3, #5, #8
 376 0060 63F30702 		bfi	r2, r3, #0, #8
 423:Drivers/lvgl/lvgl/src/hal/../draw/../misc/lv_color.h ****     return ret.full;
 377              		.loc 2 423 0
 378 0064 42F07F42 		orr	r2, r2, #-16777216
 379              	.LVL46:
 380              	.LBE50:
 381              	.LBE49:
 577:Drivers/lvgl/lvgl/src/hal/../draw/../misc/lv_color.h ****     }
 578:Drivers/lvgl/lvgl/src/hal/../draw/../misc/lv_color.h **** }
 579:Drivers/lvgl/lvgl/src/hal/../draw/../misc/lv_color.h **** 
 580:Drivers/lvgl/lvgl/src/hal/../draw/../misc/lv_color.h **** //! @endcond
 581:Drivers/lvgl/lvgl/src/hal/../draw/../misc/lv_color.h **** 
 582:Drivers/lvgl/lvgl/src/hal/../draw/../misc/lv_color.h **** /**
 583:Drivers/lvgl/lvgl/src/hal/../draw/../misc/lv_color.h ****  * Get the brightness of a color
 584:Drivers/lvgl/lvgl/src/hal/../draw/../misc/lv_color.h ****  * @param color a color
 585:Drivers/lvgl/lvgl/src/hal/../draw/../misc/lv_color.h ****  * @return the brightness [0..255]
 586:Drivers/lvgl/lvgl/src/hal/../draw/../misc/lv_color.h ****  */
 587:Drivers/lvgl/lvgl/src/hal/../draw/../misc/lv_color.h **** static inline uint8_t lv_color_brightness(lv_color_t color)
 588:Drivers/lvgl/lvgl/src/hal/../draw/../misc/lv_color.h **** {
 589:Drivers/lvgl/lvgl/src/hal/../draw/../misc/lv_color.h ****     lv_color32_t c32;
 590:Drivers/lvgl/lvgl/src/hal/../draw/../misc/lv_color.h ****     c32.full        = lv_color_to32(color);
 591:Drivers/lvgl/lvgl/src/hal/../draw/../misc/lv_color.h ****     uint16_t bright = (uint16_t)(3u * LV_COLOR_GET_R32(c32) + LV_COLOR_GET_B32(c32) + 4u * LV_COLOR
 382              		.loc 2 591 0
 383 0068 C2F30744 		ubfx	r4, r2, #16, #8
 384 006c 04EB4404 		add	r4, r4, r4, lsl #1
 385 0070 C2F30723 		ubfx	r3, r2, #8, #8
 386 0074 04EB8304 		add	r4, r4, r3, lsl #2
ARM GAS  /tmp/ccgzxQCw.s 			page 31


 387 0078 54FA82F2 		uxtab	r2, r4, r2
 388              	.LVL47:
 592:Drivers/lvgl/lvgl/src/hal/../draw/../misc/lv_color.h ****     return (uint8_t)(bright >> 3);
 389              		.loc 2 592 0
 390 007c C2F3C704 		ubfx	r4, r2, #3, #8
 391              	.LVL48:
 392              	.LBE48:
 393              	.LBE47:
 674:Drivers/lvgl/lvgl/src/hal/lv_hal_disp.c ****         uint8_t bg = lv_img_buf_get_px_alpha(d, x, y);
 394              		.loc 1 674 0
 395 0080 B8F1FC0F 		cmp	r8, #252
 396 0084 07D9     		bls	.L23
 397              	.L21:
 398              	.LVL49:
 679:Drivers/lvgl/lvgl/src/hal/lv_hal_disp.c **** }
 399              		.loc 1 679 0
 400 0086 2346     		mov	r3, r4
 401 0088 3A46     		mov	r2, r7
 402 008a 3146     		mov	r1, r6
 403 008c 2846     		mov	r0, r5
 404 008e FFF7FEFF 		bl	lv_img_buf_set_px_alpha
 405              	.LVL50:
 680:Drivers/lvgl/lvgl/src/hal/lv_hal_disp.c **** 
 406              		.loc 1 680 0
 407 0092 BDE8F081 		pop	{r4, r5, r6, r7, r8, pc}
 408              	.LVL51:
 409              	.L23:
 410              	.LBB51:
 675:Drivers/lvgl/lvgl/src/hal/lv_hal_disp.c ****         br = (uint16_t)((uint16_t)br * opa + (bg * (255 - opa))) >> 8;
 411              		.loc 1 675 0
 412 0096 3A46     		mov	r2, r7
 413 0098 3146     		mov	r1, r6
 414 009a 2846     		mov	r0, r5
 415 009c FFF7FEFF 		bl	lv_img_buf_get_px_alpha
 416              	.LVL52:
 676:Drivers/lvgl/lvgl/src/hal/lv_hal_disp.c ****     }
 417              		.loc 1 676 0
 418 00a0 C8F1FF02 		rsb	r2, r8, #255
 419 00a4 10FB02F0 		smulbb	r0, r0, r2
 420              	.LVL53:
 421 00a8 04FB0804 		mla	r4, r4, r8, r0
 422 00ac C4F30724 		ubfx	r4, r4, #8, #8
 423              	.LVL54:
 424 00b0 E9E7     		b	.L21
 425              	.LBE51:
 426              		.cfi_endproc
 427              	.LFE186:
 429              		.section	.text.set_px_cb_alpha8,"ax",%progbits
 430              		.align	1
 431              		.syntax unified
 432              		.thumb
 433              		.thumb_func
 434              		.fpu fpv5-d16
 436              	set_px_cb_alpha8:
 437              	.LFB185:
 656:Drivers/lvgl/lvgl/src/hal/lv_hal_disp.c ****     (void) disp_drv; /*Unused*/
 438              		.loc 1 656 0
ARM GAS  /tmp/ccgzxQCw.s 			page 32


 439              		.cfi_startproc
 440              		@ args = 12, pretend = 0, frame = 16
 441              		@ frame_needed = 0, uses_anonymous_args = 0
 442              	.LVL55:
 443 0000 30B5     		push	{r4, r5, lr}
 444              	.LCFI5:
 445              		.cfi_def_cfa_offset 12
 446              		.cfi_offset 4, -12
 447              		.cfi_offset 5, -8
 448              		.cfi_offset 14, -4
 449 0002 87B0     		sub	sp, sp, #28
 450              	.LCFI6:
 451              		.cfi_def_cfa_offset 40
 452 0004 9DF83040 		ldrb	r4, [sp, #48]	@ zero_extendqisi2
 659:Drivers/lvgl/lvgl/src/hal/lv_hal_disp.c ****     lv_img_dsc_t d;
 453              		.loc 1 659 0
 454 0008 022C     		cmp	r4, #2
 455 000a 01D8     		bhi	.L28
 456              	.LVL56:
 457              	.L24:
 666:Drivers/lvgl/lvgl/src/hal/lv_hal_disp.c **** 
 458              		.loc 1 666 0
 459 000c 07B0     		add	sp, sp, #28
 460              	.LCFI7:
 461              		.cfi_remember_state
 462              		.cfi_def_cfa_offset 12
 463              		@ sp needed
 464 000e 30BD     		pop	{r4, r5, pc}
 465              	.LVL57:
 466              	.L28:
 467              	.LCFI8:
 468              		.cfi_restore_state
 469 0010 1D46     		mov	r5, r3
 661:Drivers/lvgl/lvgl/src/hal/lv_hal_disp.c ****     d.header.w = buf_w;
 470              		.loc 1 661 0
 471 0012 0591     		str	r1, [sp, #20]
 662:Drivers/lvgl/lvgl/src/hal/lv_hal_disp.c ****     d.header.cf = LV_IMG_CF_ALPHA_8BIT;
 472              		.loc 1 662 0
 473 0014 0398     		ldr	r0, [sp, #12]
 474              	.LVL58:
 475 0016 62F39420 		bfi	r0, r2, #10, #11
 476 001a 0390     		str	r0, [sp, #12]
 663:Drivers/lvgl/lvgl/src/hal/lv_hal_disp.c **** 
 477              		.loc 1 663 0
 478 001c 0246     		mov	r2, r0
 479              	.LVL59:
 480 001e 0E23     		movs	r3, #14
 481              	.LVL60:
 482 0020 63F30402 		bfi	r2, r3, #0, #5
 483 0024 06A8     		add	r0, sp, #24
 484 0026 00F80C2D 		strb	r2, [r0, #-12]!
 665:Drivers/lvgl/lvgl/src/hal/lv_hal_disp.c **** }
 485              		.loc 1 665 0
 486 002a 0094     		str	r4, [sp]
 487 002c BDF82C30 		ldrh	r3, [sp, #44]
 488 0030 BDF92820 		ldrsh	r2, [sp, #40]
 489 0034 2946     		mov	r1, r5
ARM GAS  /tmp/ccgzxQCw.s 			page 33


 490              	.LVL61:
 491 0036 FFF7FEFF 		bl	set_px_alpha_generic
 492              	.LVL62:
 493 003a E7E7     		b	.L24
 494              		.cfi_endproc
 495              	.LFE185:
 497              		.section	.text.set_px_cb_alpha4,"ax",%progbits
 498              		.align	1
 499              		.syntax unified
 500              		.thumb
 501              		.thumb_func
 502              		.fpu fpv5-d16
 504              	set_px_cb_alpha4:
 505              	.LFB184:
 642:Drivers/lvgl/lvgl/src/hal/lv_hal_disp.c ****     (void) disp_drv; /*Unused*/
 506              		.loc 1 642 0
 507              		.cfi_startproc
 508              		@ args = 12, pretend = 0, frame = 16
 509              		@ frame_needed = 0, uses_anonymous_args = 0
 510              	.LVL63:
 511 0000 30B5     		push	{r4, r5, lr}
 512              	.LCFI9:
 513              		.cfi_def_cfa_offset 12
 514              		.cfi_offset 4, -12
 515              		.cfi_offset 5, -8
 516              		.cfi_offset 14, -4
 517 0002 87B0     		sub	sp, sp, #28
 518              	.LCFI10:
 519              		.cfi_def_cfa_offset 40
 520 0004 9DF83040 		ldrb	r4, [sp, #48]	@ zero_extendqisi2
 645:Drivers/lvgl/lvgl/src/hal/lv_hal_disp.c ****     lv_img_dsc_t d;
 521              		.loc 1 645 0
 522 0008 022C     		cmp	r4, #2
 523 000a 01D8     		bhi	.L33
 524              	.LVL64:
 525              	.L29:
 652:Drivers/lvgl/lvgl/src/hal/lv_hal_disp.c **** 
 526              		.loc 1 652 0
 527 000c 07B0     		add	sp, sp, #28
 528              	.LCFI11:
 529              		.cfi_remember_state
 530              		.cfi_def_cfa_offset 12
 531              		@ sp needed
 532 000e 30BD     		pop	{r4, r5, pc}
 533              	.LVL65:
 534              	.L33:
 535              	.LCFI12:
 536              		.cfi_restore_state
 537 0010 1D46     		mov	r5, r3
 647:Drivers/lvgl/lvgl/src/hal/lv_hal_disp.c ****     d.header.w = buf_w;
 538              		.loc 1 647 0
 539 0012 0591     		str	r1, [sp, #20]
 648:Drivers/lvgl/lvgl/src/hal/lv_hal_disp.c ****     d.header.cf = LV_IMG_CF_ALPHA_4BIT;
 540              		.loc 1 648 0
 541 0014 0398     		ldr	r0, [sp, #12]
 542              	.LVL66:
 543 0016 62F39420 		bfi	r0, r2, #10, #11
ARM GAS  /tmp/ccgzxQCw.s 			page 34


 544 001a 0390     		str	r0, [sp, #12]
 649:Drivers/lvgl/lvgl/src/hal/lv_hal_disp.c **** 
 545              		.loc 1 649 0
 546 001c 0246     		mov	r2, r0
 547              	.LVL67:
 548 001e 0D23     		movs	r3, #13
 549              	.LVL68:
 550 0020 63F30402 		bfi	r2, r3, #0, #5
 551 0024 06A8     		add	r0, sp, #24
 552 0026 00F80C2D 		strb	r2, [r0, #-12]!
 651:Drivers/lvgl/lvgl/src/hal/lv_hal_disp.c **** }
 553              		.loc 1 651 0
 554 002a 0094     		str	r4, [sp]
 555 002c BDF82C30 		ldrh	r3, [sp, #44]
 556 0030 BDF92820 		ldrsh	r2, [sp, #40]
 557 0034 2946     		mov	r1, r5
 558              	.LVL69:
 559 0036 FFF7FEFF 		bl	set_px_alpha_generic
 560              	.LVL70:
 561 003a E7E7     		b	.L29
 562              		.cfi_endproc
 563              	.LFE184:
 565              		.section	.text.set_px_cb_alpha2,"ax",%progbits
 566              		.align	1
 567              		.syntax unified
 568              		.thumb
 569              		.thumb_func
 570              		.fpu fpv5-d16
 572              	set_px_cb_alpha2:
 573              	.LFB183:
 628:Drivers/lvgl/lvgl/src/hal/lv_hal_disp.c ****     (void) disp_drv; /*Unused*/
 574              		.loc 1 628 0
 575              		.cfi_startproc
 576              		@ args = 12, pretend = 0, frame = 16
 577              		@ frame_needed = 0, uses_anonymous_args = 0
 578              	.LVL71:
 579 0000 30B5     		push	{r4, r5, lr}
 580              	.LCFI13:
 581              		.cfi_def_cfa_offset 12
 582              		.cfi_offset 4, -12
 583              		.cfi_offset 5, -8
 584              		.cfi_offset 14, -4
 585 0002 87B0     		sub	sp, sp, #28
 586              	.LCFI14:
 587              		.cfi_def_cfa_offset 40
 588 0004 9DF83040 		ldrb	r4, [sp, #48]	@ zero_extendqisi2
 631:Drivers/lvgl/lvgl/src/hal/lv_hal_disp.c ****     lv_img_dsc_t d;
 589              		.loc 1 631 0
 590 0008 022C     		cmp	r4, #2
 591 000a 01D8     		bhi	.L38
 592              	.LVL72:
 593              	.L34:
 638:Drivers/lvgl/lvgl/src/hal/lv_hal_disp.c **** 
 594              		.loc 1 638 0
 595 000c 07B0     		add	sp, sp, #28
 596              	.LCFI15:
 597              		.cfi_remember_state
ARM GAS  /tmp/ccgzxQCw.s 			page 35


 598              		.cfi_def_cfa_offset 12
 599              		@ sp needed
 600 000e 30BD     		pop	{r4, r5, pc}
 601              	.LVL73:
 602              	.L38:
 603              	.LCFI16:
 604              		.cfi_restore_state
 605 0010 1D46     		mov	r5, r3
 633:Drivers/lvgl/lvgl/src/hal/lv_hal_disp.c ****     d.header.w = buf_w;
 606              		.loc 1 633 0
 607 0012 0591     		str	r1, [sp, #20]
 634:Drivers/lvgl/lvgl/src/hal/lv_hal_disp.c ****     d.header.cf = LV_IMG_CF_ALPHA_2BIT;
 608              		.loc 1 634 0
 609 0014 0398     		ldr	r0, [sp, #12]
 610              	.LVL74:
 611 0016 62F39420 		bfi	r0, r2, #10, #11
 612 001a 0390     		str	r0, [sp, #12]
 635:Drivers/lvgl/lvgl/src/hal/lv_hal_disp.c **** 
 613              		.loc 1 635 0
 614 001c 0246     		mov	r2, r0
 615              	.LVL75:
 616 001e 0C23     		movs	r3, #12
 617              	.LVL76:
 618 0020 63F30402 		bfi	r2, r3, #0, #5
 619 0024 06A8     		add	r0, sp, #24
 620 0026 00F80C2D 		strb	r2, [r0, #-12]!
 637:Drivers/lvgl/lvgl/src/hal/lv_hal_disp.c **** }
 621              		.loc 1 637 0
 622 002a 0094     		str	r4, [sp]
 623 002c BDF82C30 		ldrh	r3, [sp, #44]
 624 0030 BDF92820 		ldrsh	r2, [sp, #40]
 625 0034 2946     		mov	r1, r5
 626              	.LVL77:
 627 0036 FFF7FEFF 		bl	set_px_alpha_generic
 628              	.LVL78:
 629 003a E7E7     		b	.L34
 630              		.cfi_endproc
 631              	.LFE183:
 633              		.section	.text.set_px_cb_alpha1,"ax",%progbits
 634              		.align	1
 635              		.syntax unified
 636              		.thumb
 637              		.thumb_func
 638              		.fpu fpv5-d16
 640              	set_px_cb_alpha1:
 641              	.LFB182:
 614:Drivers/lvgl/lvgl/src/hal/lv_hal_disp.c ****     (void) disp_drv; /*Unused*/
 642              		.loc 1 614 0
 643              		.cfi_startproc
 644              		@ args = 12, pretend = 0, frame = 16
 645              		@ frame_needed = 0, uses_anonymous_args = 0
 646              	.LVL79:
 647 0000 30B5     		push	{r4, r5, lr}
 648              	.LCFI17:
 649              		.cfi_def_cfa_offset 12
 650              		.cfi_offset 4, -12
 651              		.cfi_offset 5, -8
ARM GAS  /tmp/ccgzxQCw.s 			page 36


 652              		.cfi_offset 14, -4
 653 0002 87B0     		sub	sp, sp, #28
 654              	.LCFI18:
 655              		.cfi_def_cfa_offset 40
 656 0004 9DF83040 		ldrb	r4, [sp, #48]	@ zero_extendqisi2
 617:Drivers/lvgl/lvgl/src/hal/lv_hal_disp.c ****     lv_img_dsc_t d;
 657              		.loc 1 617 0
 658 0008 022C     		cmp	r4, #2
 659 000a 01D8     		bhi	.L43
 660              	.LVL80:
 661              	.L39:
 624:Drivers/lvgl/lvgl/src/hal/lv_hal_disp.c **** 
 662              		.loc 1 624 0
 663 000c 07B0     		add	sp, sp, #28
 664              	.LCFI19:
 665              		.cfi_remember_state
 666              		.cfi_def_cfa_offset 12
 667              		@ sp needed
 668 000e 30BD     		pop	{r4, r5, pc}
 669              	.LVL81:
 670              	.L43:
 671              	.LCFI20:
 672              		.cfi_restore_state
 673 0010 1D46     		mov	r5, r3
 619:Drivers/lvgl/lvgl/src/hal/lv_hal_disp.c ****     d.header.w = buf_w;
 674              		.loc 1 619 0
 675 0012 0591     		str	r1, [sp, #20]
 620:Drivers/lvgl/lvgl/src/hal/lv_hal_disp.c ****     d.header.cf = LV_IMG_CF_ALPHA_1BIT;
 676              		.loc 1 620 0
 677 0014 0398     		ldr	r0, [sp, #12]
 678              	.LVL82:
 679 0016 62F39420 		bfi	r0, r2, #10, #11
 680 001a 0390     		str	r0, [sp, #12]
 621:Drivers/lvgl/lvgl/src/hal/lv_hal_disp.c **** 
 681              		.loc 1 621 0
 682 001c 0246     		mov	r2, r0
 683              	.LVL83:
 684 001e 0B23     		movs	r3, #11
 685              	.LVL84:
 686 0020 63F30402 		bfi	r2, r3, #0, #5
 687 0024 06A8     		add	r0, sp, #24
 688 0026 00F80C2D 		strb	r2, [r0, #-12]!
 623:Drivers/lvgl/lvgl/src/hal/lv_hal_disp.c **** }
 689              		.loc 1 623 0
 690 002a 0094     		str	r4, [sp]
 691 002c BDF82C30 		ldrh	r3, [sp, #44]
 692 0030 BDF92820 		ldrsh	r2, [sp, #40]
 693 0034 2946     		mov	r1, r5
 694              	.LVL85:
 695 0036 FFF7FEFF 		bl	set_px_alpha_generic
 696              	.LVL86:
 697 003a E7E7     		b	.L39
 698              		.cfi_endproc
 699              	.LFE182:
 701              		.section	.text.lv_disp_drv_init,"ax",%progbits
 702              		.align	1
 703              		.global	lv_disp_drv_init
ARM GAS  /tmp/ccgzxQCw.s 			page 37


 704              		.syntax unified
 705              		.thumb
 706              		.thumb_func
 707              		.fpu fpv5-d16
 709              	lv_disp_drv_init:
 710              	.LFB159:
  84:Drivers/lvgl/lvgl/src/hal/lv_hal_disp.c ****     lv_memset_00(driver, sizeof(lv_disp_drv_t));
 711              		.loc 1 84 0
 712              		.cfi_startproc
 713              		@ args = 0, pretend = 0, frame = 0
 714              		@ frame_needed = 0, uses_anonymous_args = 0
 715              	.LVL87:
 716 0000 10B5     		push	{r4, lr}
 717              	.LCFI21:
 718              		.cfi_def_cfa_offset 8
 719              		.cfi_offset 4, -8
 720              		.cfi_offset 14, -4
 721 0002 0446     		mov	r4, r0
  85:Drivers/lvgl/lvgl/src/hal/lv_hal_disp.c **** 
 722              		.loc 1 85 0
 723 0004 5021     		movs	r1, #80
 724 0006 FFF7FEFF 		bl	lv_memset_00
 725              	.LVL88:
  87:Drivers/lvgl/lvgl/src/hal/lv_hal_disp.c ****     driver->ver_res          = 240;
 726              		.loc 1 87 0
 727 000a 4FF4A073 		mov	r3, #320
 728 000e 2380     		strh	r3, [r4]	@ movhi
  88:Drivers/lvgl/lvgl/src/hal/lv_hal_disp.c ****     driver->physical_hor_res = -1;
 729              		.loc 1 88 0
 730 0010 F023     		movs	r3, #240
 731 0012 6380     		strh	r3, [r4, #2]	@ movhi
  89:Drivers/lvgl/lvgl/src/hal/lv_hal_disp.c ****     driver->physical_ver_res = -1;
 732              		.loc 1 89 0
 733 0014 4FF6FF73 		movw	r3, #65535
 734 0018 A380     		strh	r3, [r4, #4]	@ movhi
  90:Drivers/lvgl/lvgl/src/hal/lv_hal_disp.c ****     driver->offset_x         = 0;
 735              		.loc 1 90 0
 736 001a E380     		strh	r3, [r4, #6]	@ movhi
  91:Drivers/lvgl/lvgl/src/hal/lv_hal_disp.c ****     driver->offset_y         = 0;
 737              		.loc 1 91 0
 738 001c 0022     		movs	r2, #0
 739 001e 2281     		strh	r2, [r4, #8]	@ movhi
  92:Drivers/lvgl/lvgl/src/hal/lv_hal_disp.c ****     driver->antialiasing     = LV_COLOR_DEPTH > 8 ? 1 : 0;
 740              		.loc 1 92 0
 741 0020 6281     		strh	r2, [r4, #10]	@ movhi
  93:Drivers/lvgl/lvgl/src/hal/lv_hal_disp.c ****     driver->screen_transp    = 0;
 742              		.loc 1 93 0
 743 0022 237C     		ldrb	r3, [r4, #16]	@ zero_extendqisi2
  94:Drivers/lvgl/lvgl/src/hal/lv_hal_disp.c ****     driver->dpi              = LV_DPI_DEF;
 744              		.loc 1 94 0
 745 0024 43F00803 		orr	r3, r3, #8
 746 0028 62F38613 		bfi	r3, r2, #6, #1
 747 002c 2374     		strb	r3, [r4, #16]
  95:Drivers/lvgl/lvgl/src/hal/lv_hal_disp.c ****     driver->color_chroma_key = LV_COLOR_CHROMA_KEY;
 748              		.loc 1 95 0
 749 002e 2369     		ldr	r3, [r4, #16]
 750 0030 8222     		movs	r2, #130
ARM GAS  /tmp/ccgzxQCw.s 			page 38


 751 0032 62F3D013 		bfi	r3, r2, #7, #10
 752 0036 2361     		str	r3, [r4, #16]
 753              	.LVL89:
 754              	.LBB52:
 755              	.LBB53:
 593:Drivers/lvgl/lvgl/src/hal/../draw/../misc/lv_color.h **** }
 594:Drivers/lvgl/lvgl/src/hal/../draw/../misc/lv_color.h **** 
 595:Drivers/lvgl/lvgl/src/hal/../draw/../misc/lv_color.h **** static inline lv_color_t lv_color_make(uint8_t r, uint8_t g, uint8_t b)
 596:Drivers/lvgl/lvgl/src/hal/../draw/../misc/lv_color.h **** {
 597:Drivers/lvgl/lvgl/src/hal/../draw/../misc/lv_color.h ****     return _LV_COLOR_MAKE_TYPE_HELPER LV_COLOR_MAKE(r, g, b);
 598:Drivers/lvgl/lvgl/src/hal/../draw/../misc/lv_color.h **** }
 599:Drivers/lvgl/lvgl/src/hal/../draw/../misc/lv_color.h **** 
 600:Drivers/lvgl/lvgl/src/hal/../draw/../misc/lv_color.h **** static inline lv_color_t lv_color_hex(uint32_t c)
 601:Drivers/lvgl/lvgl/src/hal/../draw/../misc/lv_color.h **** {
 602:Drivers/lvgl/lvgl/src/hal/../draw/../misc/lv_color.h **** #if LV_COLOR_DEPTH == 16
 603:Drivers/lvgl/lvgl/src/hal/../draw/../misc/lv_color.h ****     lv_color_t r;
 604:Drivers/lvgl/lvgl/src/hal/../draw/../misc/lv_color.h **** #if LV_COLOR_16_SWAP == 0
 605:Drivers/lvgl/lvgl/src/hal/../draw/../misc/lv_color.h ****     /* Convert a 4 bytes per pixel in format ARGB32 to R5G6B5 format
 606:Drivers/lvgl/lvgl/src/hal/../draw/../misc/lv_color.h ****         naive way (by calling lv_color_make with components):
 607:Drivers/lvgl/lvgl/src/hal/../draw/../misc/lv_color.h ****                     r = ((c & 0xFF0000) >> 19)
 608:Drivers/lvgl/lvgl/src/hal/../draw/../misc/lv_color.h ****                     g = ((c & 0xFF00) >> 10)
 609:Drivers/lvgl/lvgl/src/hal/../draw/../misc/lv_color.h ****                     b = ((c & 0xFF) >> 3)
 610:Drivers/lvgl/lvgl/src/hal/../draw/../misc/lv_color.h ****                     rgb565 = (r << 11) | (g << 5) | b
 611:Drivers/lvgl/lvgl/src/hal/../draw/../misc/lv_color.h ****         That's 3 mask, 5 bitshift and 2 or operations
 612:Drivers/lvgl/lvgl/src/hal/../draw/../misc/lv_color.h **** 
 613:Drivers/lvgl/lvgl/src/hal/../draw/../misc/lv_color.h ****         A bit better:
 614:Drivers/lvgl/lvgl/src/hal/../draw/../misc/lv_color.h ****                     r = ((c & 0xF80000) >> 8)
 615:Drivers/lvgl/lvgl/src/hal/../draw/../misc/lv_color.h ****                     g = ((c & 0xFC00) >> 5)
 616:Drivers/lvgl/lvgl/src/hal/../draw/../misc/lv_color.h ****                     b = ((c & 0xFF) >> 3)
 617:Drivers/lvgl/lvgl/src/hal/../draw/../misc/lv_color.h ****                     rgb565 = r | g | b
 618:Drivers/lvgl/lvgl/src/hal/../draw/../misc/lv_color.h ****         That's 3 mask, 3 bitshifts and 2 or operations */
 619:Drivers/lvgl/lvgl/src/hal/../draw/../misc/lv_color.h ****     r.full = (uint16_t)(((c & 0xF80000) >> 8) | ((c & 0xFC00) >> 5) | ((c & 0xFF) >> 3));
 756              		.loc 2 619 0
 757 0038 4FF4FC63 		mov	r3, #2016
 758              	.LVL90:
 759              	.LBE53:
 760              	.LBE52:
  96:Drivers/lvgl/lvgl/src/hal/lv_hal_disp.c **** 
 761              		.loc 1 96 0
 762 003c 2387     		strh	r3, [r4, #56]	@ movhi
 124:Drivers/lvgl/lvgl/src/hal/lv_hal_disp.c ****     driver->draw_ctx_deinit = lv_draw_sw_init_ctx;
 763              		.loc 1 124 0
 764 003e 034B     		ldr	r3, .L46
 765 0040 2364     		str	r3, [r4, #64]
 125:Drivers/lvgl/lvgl/src/hal/lv_hal_disp.c ****     driver->draw_ctx_size = sizeof(lv_draw_sw_ctx_t);
 766              		.loc 1 125 0
 767 0042 6364     		str	r3, [r4, #68]
 126:Drivers/lvgl/lvgl/src/hal/lv_hal_disp.c **** #endif
 768              		.loc 1 126 0
 769 0044 5823     		movs	r3, #88
 770 0046 A364     		str	r3, [r4, #72]
 129:Drivers/lvgl/lvgl/src/hal/lv_hal_disp.c **** 
 771              		.loc 1 129 0
 772 0048 10BD     		pop	{r4, pc}
 773              	.LVL91:
 774              	.L47:
 775 004a 00BF     		.align	2
ARM GAS  /tmp/ccgzxQCw.s 			page 39


 776              	.L46:
 777 004c 00000000 		.word	lv_draw_sw_init_ctx
 778              		.cfi_endproc
 779              	.LFE159:
 781              		.section	.text.lv_disp_draw_buf_init,"ax",%progbits
 782              		.align	1
 783              		.global	lv_disp_draw_buf_init
 784              		.syntax unified
 785              		.thumb
 786              		.thumb_func
 787              		.fpu fpv5-d16
 789              	lv_disp_draw_buf_init:
 790              	.LFB160:
 147:Drivers/lvgl/lvgl/src/hal/lv_hal_disp.c ****     lv_memset_00(draw_buf, sizeof(lv_disp_draw_buf_t));
 791              		.loc 1 147 0
 792              		.cfi_startproc
 793              		@ args = 0, pretend = 0, frame = 0
 794              		@ frame_needed = 0, uses_anonymous_args = 0
 795              	.LVL92:
 796 0000 F8B5     		push	{r3, r4, r5, r6, r7, lr}
 797              	.LCFI22:
 798              		.cfi_def_cfa_offset 24
 799              		.cfi_offset 3, -24
 800              		.cfi_offset 4, -20
 801              		.cfi_offset 5, -16
 802              		.cfi_offset 6, -12
 803              		.cfi_offset 7, -8
 804              		.cfi_offset 14, -4
 805 0002 0446     		mov	r4, r0
 806 0004 0D46     		mov	r5, r1
 807 0006 1746     		mov	r7, r2
 808 0008 1E46     		mov	r6, r3
 148:Drivers/lvgl/lvgl/src/hal/lv_hal_disp.c **** 
 809              		.loc 1 148 0
 810 000a 1C21     		movs	r1, #28
 811              	.LVL93:
 812 000c FFF7FEFF 		bl	lv_memset_00
 813              	.LVL94:
 150:Drivers/lvgl/lvgl/src/hal/lv_hal_disp.c ****     draw_buf->buf2    = buf2;
 814              		.loc 1 150 0
 815 0010 2560     		str	r5, [r4]
 151:Drivers/lvgl/lvgl/src/hal/lv_hal_disp.c ****     draw_buf->buf_act = draw_buf->buf1;
 816              		.loc 1 151 0
 817 0012 6760     		str	r7, [r4, #4]
 152:Drivers/lvgl/lvgl/src/hal/lv_hal_disp.c ****     draw_buf->size    = size_in_px_cnt;
 818              		.loc 1 152 0
 819 0014 A560     		str	r5, [r4, #8]
 153:Drivers/lvgl/lvgl/src/hal/lv_hal_disp.c **** }
 820              		.loc 1 153 0
 821 0016 E660     		str	r6, [r4, #12]
 154:Drivers/lvgl/lvgl/src/hal/lv_hal_disp.c **** 
 822              		.loc 1 154 0
 823 0018 F8BD     		pop	{r3, r4, r5, r6, r7, pc}
 824              		.cfi_endproc
 825              	.LFE160:
 827              		.section	.text.lv_disp_drv_register,"ax",%progbits
 828              		.align	1
ARM GAS  /tmp/ccgzxQCw.s 			page 40


 829              		.global	lv_disp_drv_register
 830              		.syntax unified
 831              		.thumb
 832              		.thumb_func
 833              		.fpu fpv5-d16
 835              	lv_disp_drv_register:
 836              	.LFB161:
 163:Drivers/lvgl/lvgl/src/hal/lv_hal_disp.c ****     lv_disp_t * disp = _lv_ll_ins_head(&LV_GC_ROOT(_lv_disp_ll));
 837              		.loc 1 163 0
 838              		.cfi_startproc
 839              		@ args = 0, pretend = 0, frame = 0
 840              		@ frame_needed = 0, uses_anonymous_args = 0
 841              	.LVL95:
 842 0000 70B5     		push	{r4, r5, r6, lr}
 843              	.LCFI23:
 844              		.cfi_def_cfa_offset 16
 845              		.cfi_offset 4, -16
 846              		.cfi_offset 5, -12
 847              		.cfi_offset 6, -8
 848              		.cfi_offset 14, -4
 849 0002 82B0     		sub	sp, sp, #8
 850              	.LCFI24:
 851              		.cfi_def_cfa_offset 24
 852 0004 0546     		mov	r5, r0
 164:Drivers/lvgl/lvgl/src/hal/lv_hal_disp.c ****     LV_ASSERT_MALLOC(disp);
 853              		.loc 1 164 0
 854 0006 4548     		ldr	r0, .L63
 855              	.LVL96:
 856 0008 FFF7FEFF 		bl	_lv_ll_ins_head
 857              	.LVL97:
 165:Drivers/lvgl/lvgl/src/hal/lv_hal_disp.c ****     if(!disp) {
 858              		.loc 1 165 0
 859 000c 00B3     		cbz	r0, .L52
 860 000e 0446     		mov	r4, r0
 171:Drivers/lvgl/lvgl/src/hal/lv_hal_disp.c ****         lv_draw_ctx_t * draw_ctx = lv_mem_alloc(driver->draw_ctx_size);
 861              		.loc 1 171 0
 862 0010 EB6B     		ldr	r3, [r5, #60]
 863 0012 4BB9     		cbnz	r3, .L53
 864              	.LBB54:
 172:Drivers/lvgl/lvgl/src/hal/lv_hal_disp.c ****         LV_ASSERT_MALLOC(draw_ctx);
 865              		.loc 1 172 0
 866 0014 A86C     		ldr	r0, [r5, #72]
 867              	.LVL98:
 868 0016 FFF7FEFF 		bl	lv_mem_alloc
 869              	.LVL99:
 173:Drivers/lvgl/lvgl/src/hal/lv_hal_disp.c ****         if(draw_ctx == NULL) return NULL;
 870              		.loc 1 173 0
 871 001a 0646     		mov	r6, r0
 872 001c C8B1     		cbz	r0, .L55
 175:Drivers/lvgl/lvgl/src/hal/lv_hal_disp.c ****         driver->draw_ctx = draw_ctx;
 873              		.loc 1 175 0
 874 001e 2B6C     		ldr	r3, [r5, #64]
 875 0020 0146     		mov	r1, r0
 876 0022 2846     		mov	r0, r5
 877              	.LVL100:
 878 0024 9847     		blx	r3
 879              	.LVL101:
ARM GAS  /tmp/ccgzxQCw.s 			page 41


 176:Drivers/lvgl/lvgl/src/hal/lv_hal_disp.c ****     }
 880              		.loc 1 176 0
 881 0026 EE63     		str	r6, [r5, #60]
 882              	.LVL102:
 883              	.L53:
 884              	.LBE54:
 179:Drivers/lvgl/lvgl/src/hal/lv_hal_disp.c **** 
 885              		.loc 1 179 0
 886 0028 4FF4AE71 		mov	r1, #348
 887 002c 2046     		mov	r0, r4
 888 002e FFF7FEFF 		bl	lv_memset_00
 889              	.LVL103:
 181:Drivers/lvgl/lvgl/src/hal/lv_hal_disp.c **** 
 890              		.loc 1 181 0
 891 0032 2560     		str	r5, [r4]
 183:Drivers/lvgl/lvgl/src/hal/lv_hal_disp.c **** 
 892              		.loc 1 183 0
 893 0034 0123     		movs	r3, #1
 894 0036 C4F85431 		str	r3, [r4, #340]
 185:Drivers/lvgl/lvgl/src/hal/lv_hal_disp.c ****     disp_def                 = disp; /*Temporarily change the default screen to create the default 
 895              		.loc 1 185 0
 896 003a 394B     		ldr	r3, .L63+4
 897 003c 1E68     		ldr	r6, [r3]
 898              	.LVL104:
 186:Drivers/lvgl/lvgl/src/hal/lv_hal_disp.c ****                                         new display*/
 899              		.loc 1 186 0
 900 003e 1C60     		str	r4, [r3]
 189:Drivers/lvgl/lvgl/src/hal/lv_hal_disp.c ****     LV_ASSERT_MALLOC(disp->refr_timer);
 901              		.loc 1 189 0
 902 0040 2246     		mov	r2, r4
 903 0042 1421     		movs	r1, #20
 904 0044 3748     		ldr	r0, .L63+8
 905 0046 FFF7FEFF 		bl	lv_timer_create
 906              	.LVL105:
 907 004a 6060     		str	r0, [r4, #4]
 190:Drivers/lvgl/lvgl/src/hal/lv_hal_disp.c ****     if(disp->refr_timer == NULL) {
 908              		.loc 1 190 0
 909 004c 10B9     		cbnz	r0, .L56
 910              	.L57:
 911 004e FEE7     		b	.L57
 912              	.LVL106:
 913              	.L52:
 914 0050 FEE7     		b	.L52
 915              	.LVL107:
 916              	.L55:
 917 0052 FEE7     		b	.L55
 918              	.LVL108:
 919              	.L56:
 196:Drivers/lvgl/lvgl/src/hal/lv_hal_disp.c ****         driver->full_refresh = 0;
 920              		.loc 1 196 0
 921 0054 2B7C     		ldrb	r3, [r5, #16]	@ zero_extendqisi2
 922 0056 13F0020F 		tst	r3, #2
 923 005a 0DD0     		beq	.L58
 196:Drivers/lvgl/lvgl/src/hal/lv_hal_disp.c ****         driver->full_refresh = 0;
 924              		.loc 1 196 0 is_stmt 0 discriminator 1
 925 005c EB68     		ldr	r3, [r5, #12]
 926 005e DA68     		ldr	r2, [r3, #12]
ARM GAS  /tmp/ccgzxQCw.s 			page 42


 927 0060 B5F90010 		ldrsh	r1, [r5]
 928 0064 B5F90230 		ldrsh	r3, [r5, #2]
 929 0068 03FB01F3 		mul	r3, r3, r1
 930 006c 9A42     		cmp	r2, r3
 931 006e 03D2     		bcs	.L58
 197:Drivers/lvgl/lvgl/src/hal/lv_hal_disp.c ****         LV_LOG_WARN("full_refresh requires at least screen sized draw buffer(s)");
 932              		.loc 1 197 0 is_stmt 1
 933 0070 2B7C     		ldrb	r3, [r5, #16]	@ zero_extendqisi2
 934 0072 6FF34103 		bfc	r3, #1, #1
 935 0076 2B74     		strb	r3, [r5, #16]
 936              	.L58:
 937              	.LVL109:
 938              	.LBB55:
 939              	.LBB56:
 940              	.LBB57:
 597:Drivers/lvgl/lvgl/src/hal/../draw/../misc/lv_color.h **** }
 941              		.loc 2 597 0
 942 0078 4FF6FF73 		movw	r3, #65535
 943              	.LVL110:
 944              	.LBE57:
 945              	.LBE56:
 946              	.LBE55:
 201:Drivers/lvgl/lvgl/src/hal/lv_hal_disp.c **** #if LV_COLOR_SCREEN_TRANSP
 947              		.loc 1 201 0
 948 007c 6385     		strh	r3, [r4, #42]	@ movhi
 205:Drivers/lvgl/lvgl/src/hal/lv_hal_disp.c **** #endif
 949              		.loc 1 205 0
 950 007e FF23     		movs	r3, #255
 951 0080 84F82930 		strb	r3, [r4, #41]
 209:Drivers/lvgl/lvgl/src/hal/lv_hal_disp.c ****         disp->theme = lv_theme_default_init(disp, lv_palette_main(LV_PALETTE_BLUE), lv_palette_main
 952              		.loc 1 209 0
 953 0084 FFF7FEFF 		bl	lv_theme_default_is_inited
 954              	.LVL111:
 955 0088 0028     		cmp	r0, #0
 956 008a 43D1     		bne	.L59
 210:Drivers/lvgl/lvgl/src/hal/lv_hal_disp.c ****                                             LV_THEME_DEFAULT_DARK, LV_FONT_DEFAULT);
 957              		.loc 1 210 0
 958 008c 0520     		movs	r0, #5
 959 008e FFF7FEFF 		bl	lv_palette_main
 960              	.LVL112:
 961 0092 0546     		mov	r5, r0	@ movhi
 962              	.LVL113:
 963 0094 0020     		movs	r0, #0
 964 0096 FFF7FEFF 		bl	lv_palette_main
 965              	.LVL114:
 966 009a 234B     		ldr	r3, .L63+12
 967 009c 0093     		str	r3, [sp]
 968 009e 0023     		movs	r3, #0
 969 00a0 0246     		mov	r2, r0	@ movhi
 970 00a2 2946     		mov	r1, r5	@ movhi
 971 00a4 2046     		mov	r0, r4
 972 00a6 FFF7FEFF 		bl	lv_theme_default_init
 973              	.LVL115:
 974 00aa A060     		str	r0, [r4, #8]
 975              	.L60:
 218:Drivers/lvgl/lvgl/src/hal/lv_hal_disp.c ****     disp->top_layer = lv_obj_create(NULL); /*Create top layer on the display*/
 976              		.loc 1 218 0
ARM GAS  /tmp/ccgzxQCw.s 			page 43


 977 00ac 0020     		movs	r0, #0
 978 00ae FFF7FEFF 		bl	lv_obj_create
 979              	.LVL116:
 980 00b2 2061     		str	r0, [r4, #16]
 219:Drivers/lvgl/lvgl/src/hal/lv_hal_disp.c ****     disp->sys_layer = lv_obj_create(NULL); /*Create sys layer on the display*/
 981              		.loc 1 219 0
 982 00b4 0020     		movs	r0, #0
 983 00b6 FFF7FEFF 		bl	lv_obj_create
 984              	.LVL117:
 985 00ba E061     		str	r0, [r4, #28]
 220:Drivers/lvgl/lvgl/src/hal/lv_hal_disp.c ****     lv_obj_remove_style_all(disp->top_layer);
 986              		.loc 1 220 0
 987 00bc 0020     		movs	r0, #0
 988 00be FFF7FEFF 		bl	lv_obj_create
 989              	.LVL118:
 990 00c2 2062     		str	r0, [r4, #32]
 991              	.LVL119:
 992              	.LBB58:
 993              	.LBB59:
 994              		.file 3 "Drivers/lvgl/lvgl/src/hal/../core/lv_obj_style.h"
   1:Drivers/lvgl/lvgl/src/hal/../core/lv_obj_style.h **** /**
   2:Drivers/lvgl/lvgl/src/hal/../core/lv_obj_style.h ****  * @file lv_obj_style.h
   3:Drivers/lvgl/lvgl/src/hal/../core/lv_obj_style.h ****  *
   4:Drivers/lvgl/lvgl/src/hal/../core/lv_obj_style.h ****  */
   5:Drivers/lvgl/lvgl/src/hal/../core/lv_obj_style.h **** 
   6:Drivers/lvgl/lvgl/src/hal/../core/lv_obj_style.h **** #ifndef LV_OBJ_STYLE_H
   7:Drivers/lvgl/lvgl/src/hal/../core/lv_obj_style.h **** #define LV_OBJ_STYLE_H
   8:Drivers/lvgl/lvgl/src/hal/../core/lv_obj_style.h **** 
   9:Drivers/lvgl/lvgl/src/hal/../core/lv_obj_style.h **** #ifdef __cplusplus
  10:Drivers/lvgl/lvgl/src/hal/../core/lv_obj_style.h **** extern "C" {
  11:Drivers/lvgl/lvgl/src/hal/../core/lv_obj_style.h **** #endif
  12:Drivers/lvgl/lvgl/src/hal/../core/lv_obj_style.h **** 
  13:Drivers/lvgl/lvgl/src/hal/../core/lv_obj_style.h **** /*********************
  14:Drivers/lvgl/lvgl/src/hal/../core/lv_obj_style.h ****  *      INCLUDES
  15:Drivers/lvgl/lvgl/src/hal/../core/lv_obj_style.h ****  *********************/
  16:Drivers/lvgl/lvgl/src/hal/../core/lv_obj_style.h **** #include <stdint.h>
  17:Drivers/lvgl/lvgl/src/hal/../core/lv_obj_style.h **** #include <stdbool.h>
  18:Drivers/lvgl/lvgl/src/hal/../core/lv_obj_style.h **** #include "../misc/lv_bidi.h"
  19:Drivers/lvgl/lvgl/src/hal/../core/lv_obj_style.h **** 
  20:Drivers/lvgl/lvgl/src/hal/../core/lv_obj_style.h **** /*********************
  21:Drivers/lvgl/lvgl/src/hal/../core/lv_obj_style.h ****  *      DEFINES
  22:Drivers/lvgl/lvgl/src/hal/../core/lv_obj_style.h ****  *********************/
  23:Drivers/lvgl/lvgl/src/hal/../core/lv_obj_style.h **** 
  24:Drivers/lvgl/lvgl/src/hal/../core/lv_obj_style.h **** /**********************
  25:Drivers/lvgl/lvgl/src/hal/../core/lv_obj_style.h ****  *      TYPEDEFS
  26:Drivers/lvgl/lvgl/src/hal/../core/lv_obj_style.h ****  **********************/
  27:Drivers/lvgl/lvgl/src/hal/../core/lv_obj_style.h **** /*Can't include lv_obj.h because it includes this header file*/
  28:Drivers/lvgl/lvgl/src/hal/../core/lv_obj_style.h **** struct _lv_obj_t;
  29:Drivers/lvgl/lvgl/src/hal/../core/lv_obj_style.h **** 
  30:Drivers/lvgl/lvgl/src/hal/../core/lv_obj_style.h **** typedef enum {
  31:Drivers/lvgl/lvgl/src/hal/../core/lv_obj_style.h ****     _LV_STYLE_STATE_CMP_SAME,           /*The style properties in the 2 states are identical*/
  32:Drivers/lvgl/lvgl/src/hal/../core/lv_obj_style.h ****     _LV_STYLE_STATE_CMP_DIFF_REDRAW,    /*The differences can be shown with a simple redraw*/
  33:Drivers/lvgl/lvgl/src/hal/../core/lv_obj_style.h ****     _LV_STYLE_STATE_CMP_DIFF_DRAW_PAD,  /*The differences can be shown with a simple redraw*/
  34:Drivers/lvgl/lvgl/src/hal/../core/lv_obj_style.h ****     _LV_STYLE_STATE_CMP_DIFF_LAYOUT,    /*The differences can be shown with a simple redraw*/
  35:Drivers/lvgl/lvgl/src/hal/../core/lv_obj_style.h **** } _lv_style_state_cmp_t;
  36:Drivers/lvgl/lvgl/src/hal/../core/lv_obj_style.h **** 
  37:Drivers/lvgl/lvgl/src/hal/../core/lv_obj_style.h **** typedef uint32_t lv_style_selector_t;
ARM GAS  /tmp/ccgzxQCw.s 			page 44


  38:Drivers/lvgl/lvgl/src/hal/../core/lv_obj_style.h **** 
  39:Drivers/lvgl/lvgl/src/hal/../core/lv_obj_style.h **** typedef struct {
  40:Drivers/lvgl/lvgl/src/hal/../core/lv_obj_style.h ****     lv_style_t * style;
  41:Drivers/lvgl/lvgl/src/hal/../core/lv_obj_style.h ****     uint32_t selector : 24;
  42:Drivers/lvgl/lvgl/src/hal/../core/lv_obj_style.h ****     uint32_t is_local : 1;
  43:Drivers/lvgl/lvgl/src/hal/../core/lv_obj_style.h ****     uint32_t is_trans : 1;
  44:Drivers/lvgl/lvgl/src/hal/../core/lv_obj_style.h **** } _lv_obj_style_t;
  45:Drivers/lvgl/lvgl/src/hal/../core/lv_obj_style.h **** 
  46:Drivers/lvgl/lvgl/src/hal/../core/lv_obj_style.h **** typedef struct {
  47:Drivers/lvgl/lvgl/src/hal/../core/lv_obj_style.h ****     uint16_t time;
  48:Drivers/lvgl/lvgl/src/hal/../core/lv_obj_style.h ****     uint16_t delay;
  49:Drivers/lvgl/lvgl/src/hal/../core/lv_obj_style.h ****     lv_style_selector_t selector;
  50:Drivers/lvgl/lvgl/src/hal/../core/lv_obj_style.h ****     lv_style_prop_t prop;
  51:Drivers/lvgl/lvgl/src/hal/../core/lv_obj_style.h ****     lv_anim_path_cb_t path_cb;
  52:Drivers/lvgl/lvgl/src/hal/../core/lv_obj_style.h **** #if LV_USE_USER_DATA
  53:Drivers/lvgl/lvgl/src/hal/../core/lv_obj_style.h ****     void * user_data;
  54:Drivers/lvgl/lvgl/src/hal/../core/lv_obj_style.h **** #endif
  55:Drivers/lvgl/lvgl/src/hal/../core/lv_obj_style.h **** } _lv_obj_style_transition_dsc_t;
  56:Drivers/lvgl/lvgl/src/hal/../core/lv_obj_style.h **** 
  57:Drivers/lvgl/lvgl/src/hal/../core/lv_obj_style.h **** /**********************
  58:Drivers/lvgl/lvgl/src/hal/../core/lv_obj_style.h ****  * GLOBAL PROTOTYPES
  59:Drivers/lvgl/lvgl/src/hal/../core/lv_obj_style.h ****  **********************/
  60:Drivers/lvgl/lvgl/src/hal/../core/lv_obj_style.h **** 
  61:Drivers/lvgl/lvgl/src/hal/../core/lv_obj_style.h **** /**
  62:Drivers/lvgl/lvgl/src/hal/../core/lv_obj_style.h ****  * Initialize the object related style manager module.
  63:Drivers/lvgl/lvgl/src/hal/../core/lv_obj_style.h ****  * Called by LVGL in `lv_init()`
  64:Drivers/lvgl/lvgl/src/hal/../core/lv_obj_style.h ****  */
  65:Drivers/lvgl/lvgl/src/hal/../core/lv_obj_style.h **** void _lv_obj_style_init(void);
  66:Drivers/lvgl/lvgl/src/hal/../core/lv_obj_style.h **** 
  67:Drivers/lvgl/lvgl/src/hal/../core/lv_obj_style.h **** /**
  68:Drivers/lvgl/lvgl/src/hal/../core/lv_obj_style.h ****  * Add a style to an object.
  69:Drivers/lvgl/lvgl/src/hal/../core/lv_obj_style.h ****  * @param obj       pointer to an object
  70:Drivers/lvgl/lvgl/src/hal/../core/lv_obj_style.h ****  * @param style     pointer to a style to add
  71:Drivers/lvgl/lvgl/src/hal/../core/lv_obj_style.h ****  * @param selector  OR-ed value of parts and state to which the style should be added
  72:Drivers/lvgl/lvgl/src/hal/../core/lv_obj_style.h ****  * @example         lv_obj_add_style(btn, &style_btn, 0); //Default button style
  73:Drivers/lvgl/lvgl/src/hal/../core/lv_obj_style.h ****  * @example         lv_obj_add_style(btn, &btn_red, LV_STATE_PRESSED); //Overwrite only some colors
  74:Drivers/lvgl/lvgl/src/hal/../core/lv_obj_style.h ****  */
  75:Drivers/lvgl/lvgl/src/hal/../core/lv_obj_style.h **** void lv_obj_add_style(struct _lv_obj_t * obj, lv_style_t * style, lv_style_selector_t selector);
  76:Drivers/lvgl/lvgl/src/hal/../core/lv_obj_style.h **** 
  77:Drivers/lvgl/lvgl/src/hal/../core/lv_obj_style.h **** /**
  78:Drivers/lvgl/lvgl/src/hal/../core/lv_obj_style.h ****  * Add a style to an object.
  79:Drivers/lvgl/lvgl/src/hal/../core/lv_obj_style.h ****  * @param obj       pointer to an object
  80:Drivers/lvgl/lvgl/src/hal/../core/lv_obj_style.h ****  * @param style     pointer to a style to remove. Can be NULL to check only the selector
  81:Drivers/lvgl/lvgl/src/hal/../core/lv_obj_style.h ****  * @param selector  OR-ed values of states and a part to remove only styles with matching selectors
  82:Drivers/lvgl/lvgl/src/hal/../core/lv_obj_style.h ****  * @example lv_obj_remove_style(obj, &style, LV_PART_ANY | LV_STATE_ANY); //Remove a specific style
  83:Drivers/lvgl/lvgl/src/hal/../core/lv_obj_style.h ****  * @example lv_obj_remove_style(obj, NULL, LV_PART_MAIN | LV_STATE_ANY); //Remove all styles from t
  84:Drivers/lvgl/lvgl/src/hal/../core/lv_obj_style.h ****  * @example lv_obj_remove_style(obj, NULL, LV_PART_ANY | LV_STATE_ANY); //Remove all styles
  85:Drivers/lvgl/lvgl/src/hal/../core/lv_obj_style.h ****  */
  86:Drivers/lvgl/lvgl/src/hal/../core/lv_obj_style.h **** void lv_obj_remove_style(struct _lv_obj_t * obj, lv_style_t * style, lv_style_selector_t selector);
  87:Drivers/lvgl/lvgl/src/hal/../core/lv_obj_style.h **** 
  88:Drivers/lvgl/lvgl/src/hal/../core/lv_obj_style.h **** /**
  89:Drivers/lvgl/lvgl/src/hal/../core/lv_obj_style.h ****  * Remove all styles from an object
  90:Drivers/lvgl/lvgl/src/hal/../core/lv_obj_style.h ****  * @param obj       pointer to an object
  91:Drivers/lvgl/lvgl/src/hal/../core/lv_obj_style.h ****  */
  92:Drivers/lvgl/lvgl/src/hal/../core/lv_obj_style.h **** static inline void lv_obj_remove_style_all(struct _lv_obj_t * obj)
  93:Drivers/lvgl/lvgl/src/hal/../core/lv_obj_style.h **** {
  94:Drivers/lvgl/lvgl/src/hal/../core/lv_obj_style.h ****     lv_obj_remove_style(obj, NULL, LV_PART_ANY | LV_STATE_ANY);
ARM GAS  /tmp/ccgzxQCw.s 			page 45


 995              		.loc 3 94 0
 996 00c4 194D     		ldr	r5, .L63+16
 997 00c6 2A46     		mov	r2, r5
 998 00c8 0021     		movs	r1, #0
 999 00ca E069     		ldr	r0, [r4, #28]
 1000 00cc FFF7FEFF 		bl	lv_obj_remove_style
 1001              	.LVL120:
 1002              	.LBE59:
 1003              	.LBE58:
 1004              	.LBB60:
 1005              	.LBB61:
 1006 00d0 2A46     		mov	r2, r5
 1007 00d2 0021     		movs	r1, #0
 1008 00d4 206A     		ldr	r0, [r4, #32]
 1009 00d6 FFF7FEFF 		bl	lv_obj_remove_style
 1010              	.LVL121:
 1011              	.LBE61:
 1012              	.LBE60:
 223:Drivers/lvgl/lvgl/src/hal/lv_hal_disp.c ****     lv_obj_clear_flag(disp->sys_layer, LV_OBJ_FLAG_CLICKABLE);
 1013              		.loc 1 223 0
 1014 00da 0221     		movs	r1, #2
 1015 00dc E069     		ldr	r0, [r4, #28]
 1016 00de FFF7FEFF 		bl	lv_obj_clear_flag
 1017              	.LVL122:
 224:Drivers/lvgl/lvgl/src/hal/lv_hal_disp.c **** 
 1018              		.loc 1 224 0
 1019 00e2 0221     		movs	r1, #2
 1020 00e4 206A     		ldr	r0, [r4, #32]
 1021 00e6 FFF7FEFF 		bl	lv_obj_clear_flag
 1022              	.LVL123:
 226:Drivers/lvgl/lvgl/src/hal/lv_hal_disp.c ****     lv_obj_set_scrollbar_mode(disp->sys_layer, LV_SCROLLBAR_MODE_OFF);
 1023              		.loc 1 226 0
 1024 00ea 0021     		movs	r1, #0
 1025 00ec E069     		ldr	r0, [r4, #28]
 1026 00ee FFF7FEFF 		bl	lv_obj_set_scrollbar_mode
 1027              	.LVL124:
 227:Drivers/lvgl/lvgl/src/hal/lv_hal_disp.c **** 
 1028              		.loc 1 227 0
 1029 00f2 0021     		movs	r1, #0
 1030 00f4 206A     		ldr	r0, [r4, #32]
 1031 00f6 FFF7FEFF 		bl	lv_obj_set_scrollbar_mode
 1032              	.LVL125:
 229:Drivers/lvgl/lvgl/src/hal/lv_hal_disp.c **** 
 1033              		.loc 1 229 0
 1034 00fa 2069     		ldr	r0, [r4, #16]
 1035 00fc FFF7FEFF 		bl	lv_obj_invalidate
 1036              	.LVL126:
 231:Drivers/lvgl/lvgl/src/hal/lv_hal_disp.c ****     if(disp_def == NULL) disp_def = disp; /*Initialize the default display*/
 1037              		.loc 1 231 0
 1038 0100 074B     		ldr	r3, .L63+4
 1039 0102 1E60     		str	r6, [r3]
 232:Drivers/lvgl/lvgl/src/hal/lv_hal_disp.c **** 
 1040              		.loc 1 232 0
 1041 0104 06B9     		cbnz	r6, .L61
 232:Drivers/lvgl/lvgl/src/hal/lv_hal_disp.c **** 
 1042              		.loc 1 232 0 is_stmt 0 discriminator 1
 1043 0106 1C60     		str	r4, [r3]
ARM GAS  /tmp/ccgzxQCw.s 			page 46


 1044              	.L61:
 234:Drivers/lvgl/lvgl/src/hal/lv_hal_disp.c **** 
 1045              		.loc 1 234 0 is_stmt 1
 1046 0108 6068     		ldr	r0, [r4, #4]
 1047 010a FFF7FEFF 		bl	lv_timer_ready
 1048              	.LVL127:
 237:Drivers/lvgl/lvgl/src/hal/lv_hal_disp.c **** 
 1049              		.loc 1 237 0
 1050 010e 2046     		mov	r0, r4
 1051 0110 02B0     		add	sp, sp, #8
 1052              	.LCFI25:
 1053              		.cfi_remember_state
 1054              		.cfi_def_cfa_offset 16
 1055              		@ sp needed
 1056 0112 70BD     		pop	{r4, r5, r6, pc}
 1057              	.LVL128:
 1058              	.L59:
 1059              	.LCFI26:
 1060              		.cfi_restore_state
 214:Drivers/lvgl/lvgl/src/hal/lv_hal_disp.c ****     }
 1061              		.loc 1 214 0
 1062 0114 FFF7FEFF 		bl	lv_theme_default_get
 1063              	.LVL129:
 1064 0118 A060     		str	r0, [r4, #8]
 1065 011a C7E7     		b	.L60
 1066              	.L64:
 1067              		.align	2
 1068              	.L63:
 1069 011c 00000000 		.word	_lv_disp_ll
 1070 0120 00000000 		.word	.LANCHOR6
 1071 0124 00000000 		.word	_lv_disp_refr_timer
 1072 0128 00000000 		.word	lv_font_montserrat_14
 1073 012c FFFF0F00 		.word	1048575
 1074              		.cfi_endproc
 1075              	.LFE161:
 1077              		.section	.text.lv_disp_set_default,"ax",%progbits
 1078              		.align	1
 1079              		.global	lv_disp_set_default
 1080              		.syntax unified
 1081              		.thumb
 1082              		.thumb_func
 1083              		.fpu fpv5-d16
 1085              	lv_disp_set_default:
 1086              	.LFB164:
 326:Drivers/lvgl/lvgl/src/hal/lv_hal_disp.c ****     disp_def = disp;
 1087              		.loc 1 326 0
 1088              		.cfi_startproc
 1089              		@ args = 0, pretend = 0, frame = 0
 1090              		@ frame_needed = 0, uses_anonymous_args = 0
 1091              		@ link register save eliminated.
 1092              	.LVL130:
 327:Drivers/lvgl/lvgl/src/hal/lv_hal_disp.c **** }
 1093              		.loc 1 327 0
 1094 0000 014B     		ldr	r3, .L66
 1095 0002 1860     		str	r0, [r3]
 328:Drivers/lvgl/lvgl/src/hal/lv_hal_disp.c **** 
 1096              		.loc 1 328 0
ARM GAS  /tmp/ccgzxQCw.s 			page 47


 1097 0004 7047     		bx	lr
 1098              	.L67:
 1099 0006 00BF     		.align	2
 1100              	.L66:
 1101 0008 00000000 		.word	.LANCHOR6
 1102              		.cfi_endproc
 1103              	.LFE164:
 1105              		.section	.text.lv_disp_get_default,"ax",%progbits
 1106              		.align	1
 1107              		.global	lv_disp_get_default
 1108              		.syntax unified
 1109              		.thumb
 1110              		.thumb_func
 1111              		.fpu fpv5-d16
 1113              	lv_disp_get_default:
 1114              	.LFB165:
 335:Drivers/lvgl/lvgl/src/hal/lv_hal_disp.c ****     return disp_def;
 1115              		.loc 1 335 0
 1116              		.cfi_startproc
 1117              		@ args = 0, pretend = 0, frame = 0
 1118              		@ frame_needed = 0, uses_anonymous_args = 0
 1119              		@ link register save eliminated.
 337:Drivers/lvgl/lvgl/src/hal/lv_hal_disp.c **** 
 1120              		.loc 1 337 0
 1121 0000 014B     		ldr	r3, .L69
 1122 0002 1868     		ldr	r0, [r3]
 1123 0004 7047     		bx	lr
 1124              	.L70:
 1125 0006 00BF     		.align	2
 1126              	.L69:
 1127 0008 00000000 		.word	.LANCHOR6
 1128              		.cfi_endproc
 1129              	.LFE165:
 1131              		.section	.text.lv_disp_remove,"ax",%progbits
 1132              		.align	1
 1133              		.global	lv_disp_remove
 1134              		.syntax unified
 1135              		.thumb
 1136              		.thumb_func
 1137              		.fpu fpv5-d16
 1139              	lv_disp_remove:
 1140              	.LFB163:
 286:Drivers/lvgl/lvgl/src/hal/lv_hal_disp.c ****     bool was_default = false;
 1141              		.loc 1 286 0
 1142              		.cfi_startproc
 1143              		@ args = 0, pretend = 0, frame = 0
 1144              		@ frame_needed = 0, uses_anonymous_args = 0
 1145              	.LVL131:
 1146 0000 38B5     		push	{r3, r4, r5, lr}
 1147              	.LCFI27:
 1148              		.cfi_def_cfa_offset 16
 1149              		.cfi_offset 3, -16
 1150              		.cfi_offset 4, -12
 1151              		.cfi_offset 5, -8
 1152              		.cfi_offset 14, -4
 1153 0002 0446     		mov	r4, r0
 1154              	.LVL132:
ARM GAS  /tmp/ccgzxQCw.s 			page 48


 288:Drivers/lvgl/lvgl/src/hal/lv_hal_disp.c **** 
 1155              		.loc 1 288 0
 1156 0004 FFF7FEFF 		bl	lv_disp_get_default
 1157              	.LVL133:
 1158 0008 8442     		cmp	r4, r0
 1159 000a 04D0     		beq	.L82
 287:Drivers/lvgl/lvgl/src/hal/lv_hal_disp.c ****     if(disp == lv_disp_get_default()) was_default = true;
 1160              		.loc 1 287 0
 1161 000c 0025     		movs	r5, #0
 1162              	.L72:
 1163              	.LVL134:
 292:Drivers/lvgl/lvgl/src/hal/lv_hal_disp.c ****     while(indev) {
 1164              		.loc 1 292 0
 1165 000e 0020     		movs	r0, #0
 1166 0010 FFF7FEFF 		bl	lv_indev_get_next
 1167              	.LVL135:
 293:Drivers/lvgl/lvgl/src/hal/lv_hal_disp.c ****         if(indev->driver->disp == disp) {
 1168              		.loc 1 293 0
 1169 0014 03E0     		b	.L73
 1170              	.LVL136:
 1171              	.L82:
 288:Drivers/lvgl/lvgl/src/hal/lv_hal_disp.c **** 
 1172              		.loc 1 288 0
 1173 0016 0125     		movs	r5, #1
 1174 0018 F9E7     		b	.L72
 1175              	.LVL137:
 1176              	.L74:
 297:Drivers/lvgl/lvgl/src/hal/lv_hal_disp.c ****     }
 1177              		.loc 1 297 0
 1178 001a FFF7FEFF 		bl	lv_indev_get_next
 1179              	.LVL138:
 1180              	.L73:
 293:Drivers/lvgl/lvgl/src/hal/lv_hal_disp.c ****         if(indev->driver->disp == disp) {
 1181              		.loc 1 293 0
 1182 001e 30B1     		cbz	r0, .L84
 294:Drivers/lvgl/lvgl/src/hal/lv_hal_disp.c ****             indev->driver->disp = NULL;
 1183              		.loc 1 294 0
 1184 0020 0368     		ldr	r3, [r0]
 1185 0022 1A69     		ldr	r2, [r3, #16]
 1186 0024 A242     		cmp	r2, r4
 1187 0026 F8D1     		bne	.L74
 295:Drivers/lvgl/lvgl/src/hal/lv_hal_disp.c ****         }
 1188              		.loc 1 295 0
 1189 0028 0022     		movs	r2, #0
 1190 002a 1A61     		str	r2, [r3, #16]
 1191 002c F5E7     		b	.L74
 1192              	.L84:
 301:Drivers/lvgl/lvgl/src/hal/lv_hal_disp.c ****         lv_obj_del(disp->sys_layer);
 1193              		.loc 1 301 0
 1194 002e 206A     		ldr	r0, [r4, #32]
 1195              	.LVL139:
 1196 0030 18B1     		cbz	r0, .L76
 302:Drivers/lvgl/lvgl/src/hal/lv_hal_disp.c ****         disp->sys_layer = NULL;
 1197              		.loc 1 302 0
 1198 0032 FFF7FEFF 		bl	lv_obj_del
 1199              	.LVL140:
 303:Drivers/lvgl/lvgl/src/hal/lv_hal_disp.c ****     }
ARM GAS  /tmp/ccgzxQCw.s 			page 49


 1200              		.loc 1 303 0
 1201 0036 0023     		movs	r3, #0
 1202 0038 2362     		str	r3, [r4, #32]
 1203              	.L76:
 305:Drivers/lvgl/lvgl/src/hal/lv_hal_disp.c ****         lv_obj_del(disp->top_layer);
 1204              		.loc 1 305 0
 1205 003a E069     		ldr	r0, [r4, #28]
 1206 003c 40B1     		cbz	r0, .L78
 306:Drivers/lvgl/lvgl/src/hal/lv_hal_disp.c ****         disp->top_layer = NULL;
 1207              		.loc 1 306 0
 1208 003e FFF7FEFF 		bl	lv_obj_del
 1209              	.LVL141:
 307:Drivers/lvgl/lvgl/src/hal/lv_hal_disp.c ****     }
 1210              		.loc 1 307 0
 1211 0042 0023     		movs	r3, #0
 1212 0044 E361     		str	r3, [r4, #28]
 1213 0046 03E0     		b	.L78
 1214              	.L79:
 311:Drivers/lvgl/lvgl/src/hal/lv_hal_disp.c ****     }
 1215              		.loc 1 311 0
 1216 0048 E368     		ldr	r3, [r4, #12]
 1217 004a 1868     		ldr	r0, [r3]
 1218 004c FFF7FEFF 		bl	lv_obj_del
 1219              	.LVL142:
 1220              	.L78:
 309:Drivers/lvgl/lvgl/src/hal/lv_hal_disp.c ****         /*Delete the screenst*/
 1221              		.loc 1 309 0
 1222 0050 636A     		ldr	r3, [r4, #36]
 1223 0052 002B     		cmp	r3, #0
 1224 0054 F8D1     		bne	.L79
 314:Drivers/lvgl/lvgl/src/hal/lv_hal_disp.c ****     if(disp->refr_timer) lv_timer_del(disp->refr_timer);
 1225              		.loc 1 314 0
 1226 0056 2146     		mov	r1, r4
 1227 0058 0848     		ldr	r0, .L86
 1228 005a FFF7FEFF 		bl	_lv_ll_remove
 1229              	.LVL143:
 315:Drivers/lvgl/lvgl/src/hal/lv_hal_disp.c ****     lv_mem_free(disp);
 1230              		.loc 1 315 0
 1231 005e 6068     		ldr	r0, [r4, #4]
 1232 0060 08B1     		cbz	r0, .L80
 315:Drivers/lvgl/lvgl/src/hal/lv_hal_disp.c ****     lv_mem_free(disp);
 1233              		.loc 1 315 0 is_stmt 0 discriminator 1
 1234 0062 FFF7FEFF 		bl	lv_timer_del
 1235              	.LVL144:
 1236              	.L80:
 316:Drivers/lvgl/lvgl/src/hal/lv_hal_disp.c **** 
 1237              		.loc 1 316 0 is_stmt 1
 1238 0066 2046     		mov	r0, r4
 1239 0068 FFF7FEFF 		bl	lv_mem_free
 1240              	.LVL145:
 318:Drivers/lvgl/lvgl/src/hal/lv_hal_disp.c **** }
 1241              		.loc 1 318 0
 1242 006c 05B9     		cbnz	r5, .L85
 1243              	.L71:
 319:Drivers/lvgl/lvgl/src/hal/lv_hal_disp.c **** 
 1244              		.loc 1 319 0
 1245 006e 38BD     		pop	{r3, r4, r5, pc}
ARM GAS  /tmp/ccgzxQCw.s 			page 50


 1246              	.LVL146:
 1247              	.L85:
 318:Drivers/lvgl/lvgl/src/hal/lv_hal_disp.c **** }
 1248              		.loc 1 318 0 discriminator 1
 1249 0070 0248     		ldr	r0, .L86
 1250 0072 FFF7FEFF 		bl	_lv_ll_get_head
 1251              	.LVL147:
 1252 0076 FFF7FEFF 		bl	lv_disp_set_default
 1253              	.LVL148:
 319:Drivers/lvgl/lvgl/src/hal/lv_hal_disp.c **** 
 1254              		.loc 1 319 0 discriminator 1
 1255 007a F8E7     		b	.L71
 1256              	.L87:
 1257              		.align	2
 1258              	.L86:
 1259 007c 00000000 		.word	_lv_disp_ll
 1260              		.cfi_endproc
 1261              	.LFE163:
 1263              		.section	.text.lv_disp_get_hor_res,"ax",%progbits
 1264              		.align	1
 1265              		.global	lv_disp_get_hor_res
 1266              		.syntax unified
 1267              		.thumb
 1268              		.thumb_func
 1269              		.fpu fpv5-d16
 1271              	lv_disp_get_hor_res:
 1272              	.LFB166:
 345:Drivers/lvgl/lvgl/src/hal/lv_hal_disp.c ****     if(disp == NULL) disp = lv_disp_get_default();
 1273              		.loc 1 345 0
 1274              		.cfi_startproc
 1275              		@ args = 0, pretend = 0, frame = 0
 1276              		@ frame_needed = 0, uses_anonymous_args = 0
 1277              	.LVL149:
 1278 0000 08B5     		push	{r3, lr}
 1279              	.LCFI28:
 1280              		.cfi_def_cfa_offset 8
 1281              		.cfi_offset 3, -8
 1282              		.cfi_offset 14, -4
 346:Drivers/lvgl/lvgl/src/hal/lv_hal_disp.c **** 
 1283              		.loc 1 346 0
 1284 0002 0346     		mov	r3, r0
 1285 0004 58B1     		cbz	r0, .L96
 1286              	.L89:
 348:Drivers/lvgl/lvgl/src/hal/lv_hal_disp.c ****         return 0;
 1287              		.loc 1 348 0
 1288 0006 8BB1     		cbz	r3, .L93
 352:Drivers/lvgl/lvgl/src/hal/lv_hal_disp.c ****             case LV_DISP_ROT_90:
 1289              		.loc 1 352 0
 1290 0008 1A68     		ldr	r2, [r3]
 1291 000a 137C     		ldrb	r3, [r2, #16]	@ zero_extendqisi2
 1292 000c C3F30113 		ubfx	r3, r3, #4, #2
 1293 0010 012B     		cmp	r3, #1
 1294 0012 08D0     		beq	.L92
 1295 0014 032B     		cmp	r3, #3
 1296 0016 06D0     		beq	.L92
 357:Drivers/lvgl/lvgl/src/hal/lv_hal_disp.c ****         }
 1297              		.loc 1 357 0
ARM GAS  /tmp/ccgzxQCw.s 			page 51


 1298 0018 B2F90000 		ldrsh	r0, [r2]
 1299              	.LVL150:
 1300              	.L90:
 360:Drivers/lvgl/lvgl/src/hal/lv_hal_disp.c **** 
 1301              		.loc 1 360 0
 1302 001c 08BD     		pop	{r3, pc}
 1303              	.LVL151:
 1304              	.L96:
 346:Drivers/lvgl/lvgl/src/hal/lv_hal_disp.c **** 
 1305              		.loc 1 346 0 discriminator 1
 1306 001e FFF7FEFF 		bl	lv_disp_get_default
 1307              	.LVL152:
 1308 0022 0346     		mov	r3, r0
 1309              	.LVL153:
 1310 0024 EFE7     		b	.L89
 1311              	.L92:
 355:Drivers/lvgl/lvgl/src/hal/lv_hal_disp.c ****             default:
 1312              		.loc 1 355 0
 1313 0026 B2F90200 		ldrsh	r0, [r2, #2]
 1314              	.LVL154:
 1315 002a F7E7     		b	.L90
 1316              	.LVL155:
 1317              	.L93:
 349:Drivers/lvgl/lvgl/src/hal/lv_hal_disp.c ****     }
 1318              		.loc 1 349 0
 1319 002c 0020     		movs	r0, #0
 1320              	.LVL156:
 1321 002e F5E7     		b	.L90
 1322              		.cfi_endproc
 1323              	.LFE166:
 1325              		.section	.text.lv_disp_get_ver_res,"ax",%progbits
 1326              		.align	1
 1327              		.global	lv_disp_get_ver_res
 1328              		.syntax unified
 1329              		.thumb
 1330              		.thumb_func
 1331              		.fpu fpv5-d16
 1333              	lv_disp_get_ver_res:
 1334              	.LFB167:
 368:Drivers/lvgl/lvgl/src/hal/lv_hal_disp.c ****     if(disp == NULL) disp = lv_disp_get_default();
 1335              		.loc 1 368 0
 1336              		.cfi_startproc
 1337              		@ args = 0, pretend = 0, frame = 0
 1338              		@ frame_needed = 0, uses_anonymous_args = 0
 1339              	.LVL157:
 1340 0000 08B5     		push	{r3, lr}
 1341              	.LCFI29:
 1342              		.cfi_def_cfa_offset 8
 1343              		.cfi_offset 3, -8
 1344              		.cfi_offset 14, -4
 369:Drivers/lvgl/lvgl/src/hal/lv_hal_disp.c **** 
 1345              		.loc 1 369 0
 1346 0002 0346     		mov	r3, r0
 1347 0004 58B1     		cbz	r0, .L105
 1348              	.L98:
 371:Drivers/lvgl/lvgl/src/hal/lv_hal_disp.c ****         return 0;
 1349              		.loc 1 371 0
ARM GAS  /tmp/ccgzxQCw.s 			page 52


 1350 0006 8BB1     		cbz	r3, .L102
 375:Drivers/lvgl/lvgl/src/hal/lv_hal_disp.c ****             case LV_DISP_ROT_90:
 1351              		.loc 1 375 0
 1352 0008 1A68     		ldr	r2, [r3]
 1353 000a 137C     		ldrb	r3, [r2, #16]	@ zero_extendqisi2
 1354 000c C3F30113 		ubfx	r3, r3, #4, #2
 1355 0010 012B     		cmp	r3, #1
 1356 0012 08D0     		beq	.L101
 1357 0014 032B     		cmp	r3, #3
 1358 0016 06D0     		beq	.L101
 380:Drivers/lvgl/lvgl/src/hal/lv_hal_disp.c ****         }
 1359              		.loc 1 380 0
 1360 0018 B2F90200 		ldrsh	r0, [r2, #2]
 1361              	.LVL158:
 1362              	.L99:
 383:Drivers/lvgl/lvgl/src/hal/lv_hal_disp.c **** 
 1363              		.loc 1 383 0
 1364 001c 08BD     		pop	{r3, pc}
 1365              	.LVL159:
 1366              	.L105:
 369:Drivers/lvgl/lvgl/src/hal/lv_hal_disp.c **** 
 1367              		.loc 1 369 0 discriminator 1
 1368 001e FFF7FEFF 		bl	lv_disp_get_default
 1369              	.LVL160:
 1370 0022 0346     		mov	r3, r0
 1371              	.LVL161:
 1372 0024 EFE7     		b	.L98
 1373              	.L101:
 378:Drivers/lvgl/lvgl/src/hal/lv_hal_disp.c ****             default:
 1374              		.loc 1 378 0
 1375 0026 B2F90000 		ldrsh	r0, [r2]
 1376              	.LVL162:
 1377 002a F7E7     		b	.L99
 1378              	.LVL163:
 1379              	.L102:
 372:Drivers/lvgl/lvgl/src/hal/lv_hal_disp.c ****     }
 1380              		.loc 1 372 0
 1381 002c 0020     		movs	r0, #0
 1382              	.LVL164:
 1383 002e F5E7     		b	.L99
 1384              		.cfi_endproc
 1385              	.LFE167:
 1387              		.section	.text.lv_disp_drv_update,"ax",%progbits
 1388              		.align	1
 1389              		.global	lv_disp_drv_update
 1390              		.syntax unified
 1391              		.thumb
 1392              		.thumb_func
 1393              		.fpu fpv5-d16
 1395              	lv_disp_drv_update:
 1396              	.LFB162:
 245:Drivers/lvgl/lvgl/src/hal/lv_hal_disp.c ****     disp->driver = new_drv;
 1397              		.loc 1 245 0
 1398              		.cfi_startproc
 1399              		@ args = 0, pretend = 0, frame = 8
 1400              		@ frame_needed = 0, uses_anonymous_args = 0
 1401              	.LVL165:
ARM GAS  /tmp/ccgzxQCw.s 			page 53


 1402 0000 F0B5     		push	{r4, r5, r6, r7, lr}
 1403              	.LCFI30:
 1404              		.cfi_def_cfa_offset 20
 1405              		.cfi_offset 4, -20
 1406              		.cfi_offset 5, -16
 1407              		.cfi_offset 6, -12
 1408              		.cfi_offset 7, -8
 1409              		.cfi_offset 14, -4
 1410 0002 83B0     		sub	sp, sp, #12
 1411              	.LCFI31:
 1412              		.cfi_def_cfa_offset 32
 1413 0004 0546     		mov	r5, r0
 246:Drivers/lvgl/lvgl/src/hal/lv_hal_disp.c **** 
 1414              		.loc 1 246 0
 1415 0006 0160     		str	r1, [r0]
 248:Drivers/lvgl/lvgl/src/hal/lv_hal_disp.c ****        disp->driver->draw_buf->size < (uint32_t)disp->driver->hor_res * disp->driver->ver_res) {
 1416              		.loc 1 248 0
 1417 0008 0B7C     		ldrb	r3, [r1, #16]	@ zero_extendqisi2
 1418 000a 13F0020F 		tst	r3, #2
 1419 000e 0DD0     		beq	.L107
 249:Drivers/lvgl/lvgl/src/hal/lv_hal_disp.c ****         disp->driver->full_refresh = 0;
 1420              		.loc 1 249 0 discriminator 1
 1421 0010 CB68     		ldr	r3, [r1, #12]
 1422 0012 DA68     		ldr	r2, [r3, #12]
 1423 0014 B1F90000 		ldrsh	r0, [r1]
 1424              	.LVL166:
 1425 0018 B1F90230 		ldrsh	r3, [r1, #2]
 1426 001c 03FB00F3 		mul	r3, r3, r0
 248:Drivers/lvgl/lvgl/src/hal/lv_hal_disp.c ****        disp->driver->draw_buf->size < (uint32_t)disp->driver->hor_res * disp->driver->ver_res) {
 1427              		.loc 1 248 0 discriminator 1
 1428 0020 9A42     		cmp	r2, r3
 1429 0022 03D2     		bcs	.L107
 250:Drivers/lvgl/lvgl/src/hal/lv_hal_disp.c ****         LV_LOG_WARN("full_refresh requires at least screen sized draw buffer(s)");
 1430              		.loc 1 250 0
 1431 0024 0B7C     		ldrb	r3, [r1, #16]	@ zero_extendqisi2
 1432 0026 6FF34103 		bfc	r3, #1, #1
 1433 002a 0B74     		strb	r3, [r1, #16]
 1434              	.L107:
 254:Drivers/lvgl/lvgl/src/hal/lv_hal_disp.c ****     lv_coord_t h = lv_disp_get_ver_res(disp);
 1435              		.loc 1 254 0
 1436 002c 2846     		mov	r0, r5
 1437 002e FFF7FEFF 		bl	lv_disp_get_hor_res
 1438              	.LVL167:
 1439 0032 0746     		mov	r7, r0
 1440              	.LVL168:
 255:Drivers/lvgl/lvgl/src/hal/lv_hal_disp.c ****     uint32_t i;
 1441              		.loc 1 255 0
 1442 0034 2846     		mov	r0, r5
 1443 0036 FFF7FEFF 		bl	lv_disp_get_ver_res
 1444              	.LVL169:
 1445 003a 0646     		mov	r6, r0
 1446              	.LVL170:
 257:Drivers/lvgl/lvgl/src/hal/lv_hal_disp.c ****         lv_area_t prev_coords;
 1447              		.loc 1 257 0
 1448 003c 0024     		movs	r4, #0
 1449 003e 1BE0     		b	.L108
 1450              	.LVL171:
ARM GAS  /tmp/ccgzxQCw.s 			page 54


 1451              	.L109:
 1452              	.LBB62:
 259:Drivers/lvgl/lvgl/src/hal/lv_hal_disp.c ****         lv_area_set_width(&disp->screens[i]->coords, w);
 1453              		.loc 1 259 0 discriminator 3
 1454 0040 EB68     		ldr	r3, [r5, #12]
 1455 0042 6946     		mov	r1, sp
 1456 0044 53F82400 		ldr	r0, [r3, r4, lsl #2]
 1457 0048 FFF7FEFF 		bl	lv_obj_get_coords
 1458              	.LVL172:
 260:Drivers/lvgl/lvgl/src/hal/lv_hal_disp.c ****         lv_area_set_height(&disp->screens[i]->coords, h);
 1459              		.loc 1 260 0 discriminator 3
 1460 004c EB68     		ldr	r3, [r5, #12]
 1461 004e 53F82400 		ldr	r0, [r3, r4, lsl #2]
 1462 0052 3946     		mov	r1, r7
 1463 0054 1430     		adds	r0, r0, #20
 1464 0056 FFF7FEFF 		bl	lv_area_set_width
 1465              	.LVL173:
 261:Drivers/lvgl/lvgl/src/hal/lv_hal_disp.c ****         lv_event_send(disp->screens[i], LV_EVENT_SIZE_CHANGED, &prev_coords);
 1466              		.loc 1 261 0 discriminator 3
 1467 005a EB68     		ldr	r3, [r5, #12]
 1468 005c 53F82400 		ldr	r0, [r3, r4, lsl #2]
 1469 0060 3146     		mov	r1, r6
 1470 0062 1430     		adds	r0, r0, #20
 1471 0064 FFF7FEFF 		bl	lv_area_set_height
 1472              	.LVL174:
 262:Drivers/lvgl/lvgl/src/hal/lv_hal_disp.c ****     }
 1473              		.loc 1 262 0 discriminator 3
 1474 0068 EB68     		ldr	r3, [r5, #12]
 1475 006a 6A46     		mov	r2, sp
 1476 006c 2921     		movs	r1, #41
 1477 006e 53F82400 		ldr	r0, [r3, r4, lsl #2]
 1478 0072 FFF7FEFF 		bl	lv_event_send
 1479              	.LVL175:
 1480              	.LBE62:
 257:Drivers/lvgl/lvgl/src/hal/lv_hal_disp.c ****         lv_area_t prev_coords;
 1481              		.loc 1 257 0 discriminator 3
 1482 0076 0134     		adds	r4, r4, #1
 1483              	.LVL176:
 1484              	.L108:
 257:Drivers/lvgl/lvgl/src/hal/lv_hal_disp.c ****         lv_area_t prev_coords;
 1485              		.loc 1 257 0 is_stmt 0 discriminator 1
 1486 0078 6B6A     		ldr	r3, [r5, #36]
 1487 007a A342     		cmp	r3, r4
 1488 007c E0D8     		bhi	.L109
 271:Drivers/lvgl/lvgl/src/hal/lv_hal_disp.c ****     lv_memset_00(disp->inv_area_joined, sizeof(disp->inv_area_joined));
 1489              		.loc 1 271 0 is_stmt 1
 1490 007e 4FF48071 		mov	r1, #256
 1491 0082 05F13000 		add	r0, r5, #48
 1492 0086 FFF7FEFF 		bl	lv_memset_00
 1493              	.LVL177:
 272:Drivers/lvgl/lvgl/src/hal/lv_hal_disp.c ****     disp->inv_p = 0;
 1494              		.loc 1 272 0
 1495 008a 2021     		movs	r1, #32
 1496 008c 05F59870 		add	r0, r5, #304
 1497 0090 FFF7FEFF 		bl	lv_memset_00
 1498              	.LVL178:
 273:Drivers/lvgl/lvgl/src/hal/lv_hal_disp.c ****     if(disp->act_scr != NULL) lv_obj_invalidate(disp->act_scr);
ARM GAS  /tmp/ccgzxQCw.s 			page 55


 1499              		.loc 1 273 0
 1500 0094 0023     		movs	r3, #0
 1501 0096 A5F85031 		strh	r3, [r5, #336]	@ movhi
 274:Drivers/lvgl/lvgl/src/hal/lv_hal_disp.c **** 
 1502              		.loc 1 274 0
 1503 009a 2869     		ldr	r0, [r5, #16]
 1504 009c 08B1     		cbz	r0, .L110
 274:Drivers/lvgl/lvgl/src/hal/lv_hal_disp.c **** 
 1505              		.loc 1 274 0 is_stmt 0 discriminator 1
 1506 009e FFF7FEFF 		bl	lv_obj_invalidate
 1507              	.LVL179:
 1508              	.L110:
 276:Drivers/lvgl/lvgl/src/hal/lv_hal_disp.c **** 
 1509              		.loc 1 276 0 is_stmt 1
 1510 00a2 0022     		movs	r2, #0
 1511 00a4 0449     		ldr	r1, .L113
 1512 00a6 1046     		mov	r0, r2
 1513 00a8 FFF7FEFF 		bl	lv_obj_tree_walk
 1514              	.LVL180:
 278:Drivers/lvgl/lvgl/src/hal/lv_hal_disp.c **** }
 1515              		.loc 1 278 0
 1516 00ac 2868     		ldr	r0, [r5]
 1517 00ae 036B     		ldr	r3, [r0, #48]
 1518 00b0 03B1     		cbz	r3, .L106
 278:Drivers/lvgl/lvgl/src/hal/lv_hal_disp.c **** }
 1519              		.loc 1 278 0 is_stmt 0 discriminator 1
 1520 00b2 9847     		blx	r3
 1521              	.LVL181:
 1522              	.L106:
 279:Drivers/lvgl/lvgl/src/hal/lv_hal_disp.c **** 
 1523              		.loc 1 279 0 is_stmt 1
 1524 00b4 03B0     		add	sp, sp, #12
 1525              	.LCFI32:
 1526              		.cfi_def_cfa_offset 20
 1527              		@ sp needed
 1528 00b6 F0BD     		pop	{r4, r5, r6, r7, pc}
 1529              	.LVL182:
 1530              	.L114:
 1531              		.align	2
 1532              	.L113:
 1533 00b8 00000000 		.word	invalidate_layout_cb
 1534              		.cfi_endproc
 1535              	.LFE162:
 1537              		.section	.text.lv_disp_get_physical_hor_res,"ax",%progbits
 1538              		.align	1
 1539              		.global	lv_disp_get_physical_hor_res
 1540              		.syntax unified
 1541              		.thumb
 1542              		.thumb_func
 1543              		.fpu fpv5-d16
 1545              	lv_disp_get_physical_hor_res:
 1546              	.LFB168:
 391:Drivers/lvgl/lvgl/src/hal/lv_hal_disp.c ****     if(disp == NULL) disp = lv_disp_get_default();
 1547              		.loc 1 391 0
 1548              		.cfi_startproc
 1549              		@ args = 0, pretend = 0, frame = 0
 1550              		@ frame_needed = 0, uses_anonymous_args = 0
ARM GAS  /tmp/ccgzxQCw.s 			page 56


 1551              	.LVL183:
 1552 0000 08B5     		push	{r3, lr}
 1553              	.LCFI33:
 1554              		.cfi_def_cfa_offset 8
 1555              		.cfi_offset 3, -8
 1556              		.cfi_offset 14, -4
 392:Drivers/lvgl/lvgl/src/hal/lv_hal_disp.c **** 
 1557              		.loc 1 392 0
 1558 0002 0346     		mov	r3, r0
 1559 0004 78B1     		cbz	r0, .L123
 1560              	.L116:
 394:Drivers/lvgl/lvgl/src/hal/lv_hal_disp.c ****         return 0;
 1561              		.loc 1 394 0
 1562 0006 CBB1     		cbz	r3, .L120
 398:Drivers/lvgl/lvgl/src/hal/lv_hal_disp.c ****             case LV_DISP_ROT_90:
 1563              		.loc 1 398 0
 1564 0008 1A68     		ldr	r2, [r3]
 1565 000a 137C     		ldrb	r3, [r2, #16]	@ zero_extendqisi2
 1566 000c C3F30113 		ubfx	r3, r3, #4, #2
 1567 0010 012B     		cmp	r3, #1
 1568 0012 0CD0     		beq	.L119
 1569 0014 032B     		cmp	r3, #3
 1570 0016 0AD0     		beq	.L119
 403:Drivers/lvgl/lvgl/src/hal/lv_hal_disp.c ****         }
 1571              		.loc 1 403 0
 1572 0018 B2F90400 		ldrsh	r0, [r2, #4]
 1573              	.LVL184:
 1574 001c 0028     		cmp	r0, #0
 1575 001e 0EDC     		bgt	.L117
 403:Drivers/lvgl/lvgl/src/hal/lv_hal_disp.c ****         }
 1576              		.loc 1 403 0 is_stmt 0 discriminator 2
 1577 0020 B2F90000 		ldrsh	r0, [r2]
 1578 0024 0BE0     		b	.L117
 1579              	.LVL185:
 1580              	.L123:
 392:Drivers/lvgl/lvgl/src/hal/lv_hal_disp.c **** 
 1581              		.loc 1 392 0 is_stmt 1 discriminator 1
 1582 0026 FFF7FEFF 		bl	lv_disp_get_default
 1583              	.LVL186:
 1584 002a 0346     		mov	r3, r0
 1585              	.LVL187:
 1586 002c EBE7     		b	.L116
 1587              	.L119:
 401:Drivers/lvgl/lvgl/src/hal/lv_hal_disp.c ****             default:
 1588              		.loc 1 401 0
 1589 002e B2F90600 		ldrsh	r0, [r2, #6]
 1590              	.LVL188:
 1591 0032 0028     		cmp	r0, #0
 1592 0034 03DC     		bgt	.L117
 401:Drivers/lvgl/lvgl/src/hal/lv_hal_disp.c ****             default:
 1593              		.loc 1 401 0 is_stmt 0 discriminator 2
 1594 0036 B2F90200 		ldrsh	r0, [r2, #2]
 1595 003a 00E0     		b	.L117
 1596              	.LVL189:
 1597              	.L120:
 395:Drivers/lvgl/lvgl/src/hal/lv_hal_disp.c ****     }
 1598              		.loc 1 395 0 is_stmt 1
ARM GAS  /tmp/ccgzxQCw.s 			page 57


 1599 003c 0020     		movs	r0, #0
 1600              	.LVL190:
 1601              	.L117:
 406:Drivers/lvgl/lvgl/src/hal/lv_hal_disp.c **** 
 1602              		.loc 1 406 0
 1603 003e 08BD     		pop	{r3, pc}
 1604              		.cfi_endproc
 1605              	.LFE168:
 1607              		.section	.text.lv_disp_get_physical_ver_res,"ax",%progbits
 1608              		.align	1
 1609              		.global	lv_disp_get_physical_ver_res
 1610              		.syntax unified
 1611              		.thumb
 1612              		.thumb_func
 1613              		.fpu fpv5-d16
 1615              	lv_disp_get_physical_ver_res:
 1616              	.LFB169:
 414:Drivers/lvgl/lvgl/src/hal/lv_hal_disp.c ****     if(disp == NULL) disp = lv_disp_get_default();
 1617              		.loc 1 414 0
 1618              		.cfi_startproc
 1619              		@ args = 0, pretend = 0, frame = 0
 1620              		@ frame_needed = 0, uses_anonymous_args = 0
 1621              	.LVL191:
 1622 0000 08B5     		push	{r3, lr}
 1623              	.LCFI34:
 1624              		.cfi_def_cfa_offset 8
 1625              		.cfi_offset 3, -8
 1626              		.cfi_offset 14, -4
 415:Drivers/lvgl/lvgl/src/hal/lv_hal_disp.c **** 
 1627              		.loc 1 415 0
 1628 0002 0346     		mov	r3, r0
 1629 0004 78B1     		cbz	r0, .L132
 1630              	.L125:
 417:Drivers/lvgl/lvgl/src/hal/lv_hal_disp.c ****         return 0;
 1631              		.loc 1 417 0
 1632 0006 CBB1     		cbz	r3, .L129
 421:Drivers/lvgl/lvgl/src/hal/lv_hal_disp.c ****             case LV_DISP_ROT_90:
 1633              		.loc 1 421 0
 1634 0008 1A68     		ldr	r2, [r3]
 1635 000a 137C     		ldrb	r3, [r2, #16]	@ zero_extendqisi2
 1636 000c C3F30113 		ubfx	r3, r3, #4, #2
 1637 0010 012B     		cmp	r3, #1
 1638 0012 0CD0     		beq	.L128
 1639 0014 032B     		cmp	r3, #3
 1640 0016 0AD0     		beq	.L128
 426:Drivers/lvgl/lvgl/src/hal/lv_hal_disp.c ****         }
 1641              		.loc 1 426 0
 1642 0018 B2F90600 		ldrsh	r0, [r2, #6]
 1643              	.LVL192:
 1644 001c 0028     		cmp	r0, #0
 1645 001e 0EDC     		bgt	.L126
 426:Drivers/lvgl/lvgl/src/hal/lv_hal_disp.c ****         }
 1646              		.loc 1 426 0 is_stmt 0 discriminator 2
 1647 0020 B2F90200 		ldrsh	r0, [r2, #2]
 1648 0024 0BE0     		b	.L126
 1649              	.LVL193:
 1650              	.L132:
ARM GAS  /tmp/ccgzxQCw.s 			page 58


 415:Drivers/lvgl/lvgl/src/hal/lv_hal_disp.c **** 
 1651              		.loc 1 415 0 is_stmt 1 discriminator 1
 1652 0026 FFF7FEFF 		bl	lv_disp_get_default
 1653              	.LVL194:
 1654 002a 0346     		mov	r3, r0
 1655              	.LVL195:
 1656 002c EBE7     		b	.L125
 1657              	.L128:
 424:Drivers/lvgl/lvgl/src/hal/lv_hal_disp.c ****             default:
 1658              		.loc 1 424 0
 1659 002e B2F90400 		ldrsh	r0, [r2, #4]
 1660              	.LVL196:
 1661 0032 0028     		cmp	r0, #0
 1662 0034 03DC     		bgt	.L126
 424:Drivers/lvgl/lvgl/src/hal/lv_hal_disp.c ****             default:
 1663              		.loc 1 424 0 is_stmt 0 discriminator 2
 1664 0036 B2F90000 		ldrsh	r0, [r2]
 1665 003a 00E0     		b	.L126
 1666              	.LVL197:
 1667              	.L129:
 418:Drivers/lvgl/lvgl/src/hal/lv_hal_disp.c ****     }
 1668              		.loc 1 418 0 is_stmt 1
 1669 003c 0020     		movs	r0, #0
 1670              	.LVL198:
 1671              	.L126:
 429:Drivers/lvgl/lvgl/src/hal/lv_hal_disp.c **** 
 1672              		.loc 1 429 0
 1673 003e 08BD     		pop	{r3, pc}
 1674              		.cfi_endproc
 1675              	.LFE169:
 1677              		.section	.text.lv_disp_get_offset_x,"ax",%progbits
 1678              		.align	1
 1679              		.global	lv_disp_get_offset_x
 1680              		.syntax unified
 1681              		.thumb
 1682              		.thumb_func
 1683              		.fpu fpv5-d16
 1685              	lv_disp_get_offset_x:
 1686              	.LFB170:
 437:Drivers/lvgl/lvgl/src/hal/lv_hal_disp.c ****     if(disp == NULL) disp = lv_disp_get_default();
 1687              		.loc 1 437 0
 1688              		.cfi_startproc
 1689              		@ args = 0, pretend = 0, frame = 0
 1690              		@ frame_needed = 0, uses_anonymous_args = 0
 1691              	.LVL199:
 1692 0000 10B5     		push	{r4, lr}
 1693              	.LCFI35:
 1694              		.cfi_def_cfa_offset 8
 1695              		.cfi_offset 4, -8
 1696              		.cfi_offset 14, -4
 438:Drivers/lvgl/lvgl/src/hal/lv_hal_disp.c **** 
 1697              		.loc 1 438 0
 1698 0002 0246     		mov	r2, r0
 1699 0004 60B1     		cbz	r0, .L143
 1700              	.L134:
 440:Drivers/lvgl/lvgl/src/hal/lv_hal_disp.c ****         return 0;
 1701              		.loc 1 440 0
ARM GAS  /tmp/ccgzxQCw.s 			page 59


 1702 0006 12B3     		cbz	r2, .L140
 444:Drivers/lvgl/lvgl/src/hal/lv_hal_disp.c ****             case LV_DISP_ROT_90:
 1703              		.loc 1 444 0
 1704 0008 1468     		ldr	r4, [r2]
 1705 000a 237C     		ldrb	r3, [r4, #16]	@ zero_extendqisi2
 1706 000c C3F30113 		ubfx	r3, r3, #4, #2
 1707 0010 022B     		cmp	r3, #2
 1708 0012 09D0     		beq	.L137
 1709 0014 10D8     		bhi	.L138
 1710 0016 012B     		cmp	r3, #1
 1711 0018 16D1     		bne	.L141
 446:Drivers/lvgl/lvgl/src/hal/lv_hal_disp.c ****             case LV_DISP_ROT_180:
 1712              		.loc 1 446 0
 1713 001a B4F90A00 		ldrsh	r0, [r4, #10]
 1714              	.LVL200:
 1715 001e 17E0     		b	.L135
 1716              	.LVL201:
 1717              	.L143:
 438:Drivers/lvgl/lvgl/src/hal/lv_hal_disp.c **** 
 1718              		.loc 1 438 0 discriminator 1
 1719 0020 FFF7FEFF 		bl	lv_disp_get_default
 1720              	.LVL202:
 1721 0024 0246     		mov	r2, r0
 1722              	.LVL203:
 1723 0026 EEE7     		b	.L134
 1724              	.L137:
 448:Drivers/lvgl/lvgl/src/hal/lv_hal_disp.c ****             case LV_DISP_ROT_270:
 1725              		.loc 1 448 0
 1726 0028 1046     		mov	r0, r2
 1727              	.LVL204:
 1728 002a FFF7FEFF 		bl	lv_disp_get_physical_hor_res
 1729              	.LVL205:
 1730 002e 80B2     		uxth	r0, r0
 1731 0030 2389     		ldrh	r3, [r4, #8]
 1732 0032 C01A     		subs	r0, r0, r3
 1733 0034 00B2     		sxth	r0, r0
 1734 0036 0BE0     		b	.L135
 1735              	.LVL206:
 1736              	.L138:
 450:Drivers/lvgl/lvgl/src/hal/lv_hal_disp.c ****             default:
 1737              		.loc 1 450 0
 1738 0038 1046     		mov	r0, r2
 1739              	.LVL207:
 1740 003a FFF7FEFF 		bl	lv_disp_get_physical_hor_res
 1741              	.LVL208:
 1742 003e 80B2     		uxth	r0, r0
 1743 0040 6389     		ldrh	r3, [r4, #10]
 1744 0042 C01A     		subs	r0, r0, r3
 1745 0044 00B2     		sxth	r0, r0
 1746 0046 03E0     		b	.L135
 1747              	.LVL209:
 1748              	.L141:
 452:Drivers/lvgl/lvgl/src/hal/lv_hal_disp.c ****         }
 1749              		.loc 1 452 0
 1750 0048 B4F90800 		ldrsh	r0, [r4, #8]
 1751              	.LVL210:
 1752 004c 00E0     		b	.L135
ARM GAS  /tmp/ccgzxQCw.s 			page 60


 1753              	.LVL211:
 1754              	.L140:
 441:Drivers/lvgl/lvgl/src/hal/lv_hal_disp.c ****     }
 1755              		.loc 1 441 0
 1756 004e 0020     		movs	r0, #0
 1757              	.LVL212:
 1758              	.L135:
 455:Drivers/lvgl/lvgl/src/hal/lv_hal_disp.c **** 
 1759              		.loc 1 455 0
 1760 0050 10BD     		pop	{r4, pc}
 1761              		.cfi_endproc
 1762              	.LFE170:
 1764              		.section	.text.lv_disp_get_offset_y,"ax",%progbits
 1765              		.align	1
 1766              		.global	lv_disp_get_offset_y
 1767              		.syntax unified
 1768              		.thumb
 1769              		.thumb_func
 1770              		.fpu fpv5-d16
 1772              	lv_disp_get_offset_y:
 1773              	.LFB171:
 463:Drivers/lvgl/lvgl/src/hal/lv_hal_disp.c ****     if(disp == NULL) disp = lv_disp_get_default();
 1774              		.loc 1 463 0
 1775              		.cfi_startproc
 1776              		@ args = 0, pretend = 0, frame = 0
 1777              		@ frame_needed = 0, uses_anonymous_args = 0
 1778              	.LVL213:
 1779 0000 10B5     		push	{r4, lr}
 1780              	.LCFI36:
 1781              		.cfi_def_cfa_offset 8
 1782              		.cfi_offset 4, -8
 1783              		.cfi_offset 14, -4
 464:Drivers/lvgl/lvgl/src/hal/lv_hal_disp.c **** 
 1784              		.loc 1 464 0
 1785 0002 0246     		mov	r2, r0
 1786 0004 60B1     		cbz	r0, .L154
 1787              	.L145:
 466:Drivers/lvgl/lvgl/src/hal/lv_hal_disp.c ****         return 0;
 1788              		.loc 1 466 0
 1789 0006 12B3     		cbz	r2, .L151
 470:Drivers/lvgl/lvgl/src/hal/lv_hal_disp.c ****             case LV_DISP_ROT_90:
 1790              		.loc 1 470 0
 1791 0008 1468     		ldr	r4, [r2]
 1792 000a 237C     		ldrb	r3, [r4, #16]	@ zero_extendqisi2
 1793 000c C3F30113 		ubfx	r3, r3, #4, #2
 1794 0010 022B     		cmp	r3, #2
 1795 0012 09D0     		beq	.L148
 1796 0014 10D8     		bhi	.L149
 1797 0016 012B     		cmp	r3, #1
 1798 0018 16D1     		bne	.L152
 472:Drivers/lvgl/lvgl/src/hal/lv_hal_disp.c ****             case LV_DISP_ROT_180:
 1799              		.loc 1 472 0
 1800 001a B4F90800 		ldrsh	r0, [r4, #8]
 1801              	.LVL214:
 1802 001e 17E0     		b	.L146
 1803              	.LVL215:
 1804              	.L154:
ARM GAS  /tmp/ccgzxQCw.s 			page 61


 464:Drivers/lvgl/lvgl/src/hal/lv_hal_disp.c **** 
 1805              		.loc 1 464 0 discriminator 1
 1806 0020 FFF7FEFF 		bl	lv_disp_get_default
 1807              	.LVL216:
 1808 0024 0246     		mov	r2, r0
 1809              	.LVL217:
 1810 0026 EEE7     		b	.L145
 1811              	.L148:
 474:Drivers/lvgl/lvgl/src/hal/lv_hal_disp.c ****             case LV_DISP_ROT_270:
 1812              		.loc 1 474 0
 1813 0028 1046     		mov	r0, r2
 1814              	.LVL218:
 1815 002a FFF7FEFF 		bl	lv_disp_get_physical_ver_res
 1816              	.LVL219:
 1817 002e 80B2     		uxth	r0, r0
 1818 0030 6389     		ldrh	r3, [r4, #10]
 1819 0032 C01A     		subs	r0, r0, r3
 1820 0034 00B2     		sxth	r0, r0
 1821 0036 0BE0     		b	.L146
 1822              	.LVL220:
 1823              	.L149:
 476:Drivers/lvgl/lvgl/src/hal/lv_hal_disp.c ****             default:
 1824              		.loc 1 476 0
 1825 0038 1046     		mov	r0, r2
 1826              	.LVL221:
 1827 003a FFF7FEFF 		bl	lv_disp_get_physical_ver_res
 1828              	.LVL222:
 1829 003e 80B2     		uxth	r0, r0
 1830 0040 2389     		ldrh	r3, [r4, #8]
 1831 0042 C01A     		subs	r0, r0, r3
 1832 0044 00B2     		sxth	r0, r0
 1833 0046 03E0     		b	.L146
 1834              	.LVL223:
 1835              	.L152:
 478:Drivers/lvgl/lvgl/src/hal/lv_hal_disp.c ****         }
 1836              		.loc 1 478 0
 1837 0048 B4F90A00 		ldrsh	r0, [r4, #10]
 1838              	.LVL224:
 1839 004c 00E0     		b	.L146
 1840              	.LVL225:
 1841              	.L151:
 467:Drivers/lvgl/lvgl/src/hal/lv_hal_disp.c ****     }
 1842              		.loc 1 467 0
 1843 004e 0020     		movs	r0, #0
 1844              	.LVL226:
 1845              	.L146:
 481:Drivers/lvgl/lvgl/src/hal/lv_hal_disp.c **** 
 1846              		.loc 1 481 0
 1847 0050 10BD     		pop	{r4, pc}
 1848              		.cfi_endproc
 1849              	.LFE171:
 1851              		.section	.text.lv_disp_get_antialiasing,"ax",%progbits
 1852              		.align	1
 1853              		.global	lv_disp_get_antialiasing
 1854              		.syntax unified
 1855              		.thumb
 1856              		.thumb_func
ARM GAS  /tmp/ccgzxQCw.s 			page 62


 1857              		.fpu fpv5-d16
 1859              	lv_disp_get_antialiasing:
 1860              	.LFB172:
 489:Drivers/lvgl/lvgl/src/hal/lv_hal_disp.c ****     if(disp == NULL) disp = lv_disp_get_default();
 1861              		.loc 1 489 0
 1862              		.cfi_startproc
 1863              		@ args = 0, pretend = 0, frame = 0
 1864              		@ frame_needed = 0, uses_anonymous_args = 0
 1865              	.LVL227:
 1866 0000 08B5     		push	{r3, lr}
 1867              	.LCFI37:
 1868              		.cfi_def_cfa_offset 8
 1869              		.cfi_offset 3, -8
 1870              		.cfi_offset 14, -4
 490:Drivers/lvgl/lvgl/src/hal/lv_hal_disp.c ****     if(disp == NULL) return false;
 1871              		.loc 1 490 0
 1872 0002 0346     		mov	r3, r0
 1873 0004 28B1     		cbz	r0, .L160
 1874              	.L156:
 491:Drivers/lvgl/lvgl/src/hal/lv_hal_disp.c **** 
 1875              		.loc 1 491 0
 1876 0006 43B1     		cbz	r3, .L158
 493:Drivers/lvgl/lvgl/src/hal/lv_hal_disp.c **** }
 1877              		.loc 1 493 0
 1878 0008 1B68     		ldr	r3, [r3]
 1879 000a 187C     		ldrb	r0, [r3, #16]	@ zero_extendqisi2
 1880              	.LVL228:
 1881 000c C0F3C000 		ubfx	r0, r0, #3, #1
 1882              	.L157:
 494:Drivers/lvgl/lvgl/src/hal/lv_hal_disp.c **** 
 1883              		.loc 1 494 0
 1884 0010 08BD     		pop	{r3, pc}
 1885              	.LVL229:
 1886              	.L160:
 490:Drivers/lvgl/lvgl/src/hal/lv_hal_disp.c ****     if(disp == NULL) return false;
 1887              		.loc 1 490 0 discriminator 1
 1888 0012 FFF7FEFF 		bl	lv_disp_get_default
 1889              	.LVL230:
 1890 0016 0346     		mov	r3, r0
 1891              	.LVL231:
 1892 0018 F5E7     		b	.L156
 1893              	.L158:
 491:Drivers/lvgl/lvgl/src/hal/lv_hal_disp.c **** 
 1894              		.loc 1 491 0
 1895 001a 0020     		movs	r0, #0
 1896              	.LVL232:
 1897 001c F8E7     		b	.L157
 1898              		.cfi_endproc
 1899              	.LFE172:
 1901              		.section	.text.lv_disp_get_dpi,"ax",%progbits
 1902              		.align	1
 1903              		.global	lv_disp_get_dpi
 1904              		.syntax unified
 1905              		.thumb
 1906              		.thumb_func
 1907              		.fpu fpv5-d16
 1909              	lv_disp_get_dpi:
ARM GAS  /tmp/ccgzxQCw.s 			page 63


 1910              	.LFB173:
 502:Drivers/lvgl/lvgl/src/hal/lv_hal_disp.c ****     if(disp == NULL) disp = lv_disp_get_default();
 1911              		.loc 1 502 0
 1912              		.cfi_startproc
 1913              		@ args = 0, pretend = 0, frame = 0
 1914              		@ frame_needed = 0, uses_anonymous_args = 0
 1915              	.LVL233:
 1916 0000 08B5     		push	{r3, lr}
 1917              	.LCFI38:
 1918              		.cfi_def_cfa_offset 8
 1919              		.cfi_offset 3, -8
 1920              		.cfi_offset 14, -4
 503:Drivers/lvgl/lvgl/src/hal/lv_hal_disp.c ****     if(disp == NULL) return LV_DPI_DEF;  /*Do not return 0 because it might be a divider*/
 1921              		.loc 1 503 0
 1922 0002 0346     		mov	r3, r0
 1923 0004 28B1     		cbz	r0, .L166
 1924              	.L162:
 504:Drivers/lvgl/lvgl/src/hal/lv_hal_disp.c ****     return disp->driver->dpi;
 1925              		.loc 1 504 0
 1926 0006 43B1     		cbz	r3, .L164
 505:Drivers/lvgl/lvgl/src/hal/lv_hal_disp.c **** }
 1927              		.loc 1 505 0
 1928 0008 1B68     		ldr	r3, [r3]
 1929 000a 1869     		ldr	r0, [r3, #16]
 1930              	.LVL234:
 1931 000c C0F3C910 		ubfx	r0, r0, #7, #10
 1932              	.L163:
 506:Drivers/lvgl/lvgl/src/hal/lv_hal_disp.c **** 
 1933              		.loc 1 506 0
 1934 0010 08BD     		pop	{r3, pc}
 1935              	.LVL235:
 1936              	.L166:
 503:Drivers/lvgl/lvgl/src/hal/lv_hal_disp.c ****     if(disp == NULL) return LV_DPI_DEF;  /*Do not return 0 because it might be a divider*/
 1937              		.loc 1 503 0 discriminator 1
 1938 0012 FFF7FEFF 		bl	lv_disp_get_default
 1939              	.LVL236:
 1940 0016 0346     		mov	r3, r0
 1941              	.LVL237:
 1942 0018 F5E7     		b	.L162
 1943              	.L164:
 504:Drivers/lvgl/lvgl/src/hal/lv_hal_disp.c ****     return disp->driver->dpi;
 1944              		.loc 1 504 0
 1945 001a 8220     		movs	r0, #130
 1946              	.LVL238:
 1947 001c F8E7     		b	.L163
 1948              		.cfi_endproc
 1949              	.LFE173:
 1951              		.section	.text.lv_disp_flush_ready,"ax",%progbits
 1952              		.align	1
 1953              		.global	lv_disp_flush_ready
 1954              		.syntax unified
 1955              		.thumb
 1956              		.thumb_func
 1957              		.fpu fpv5-d16
 1959              	lv_disp_flush_ready:
 1960              	.LFB174:
 513:Drivers/lvgl/lvgl/src/hal/lv_hal_disp.c ****     disp_drv->draw_buf->flushing = 0;
ARM GAS  /tmp/ccgzxQCw.s 			page 64


 1961              		.loc 1 513 0
 1962              		.cfi_startproc
 1963              		@ args = 0, pretend = 0, frame = 0
 1964              		@ frame_needed = 0, uses_anonymous_args = 0
 1965              		@ link register save eliminated.
 1966              	.LVL239:
 514:Drivers/lvgl/lvgl/src/hal/lv_hal_disp.c ****     disp_drv->draw_buf->flushing_last = 0;
 1967              		.loc 1 514 0
 1968 0000 C268     		ldr	r2, [r0, #12]
 1969 0002 0023     		movs	r3, #0
 1970 0004 1361     		str	r3, [r2, #16]
 515:Drivers/lvgl/lvgl/src/hal/lv_hal_disp.c **** }
 1971              		.loc 1 515 0
 1972 0006 C268     		ldr	r2, [r0, #12]
 1973 0008 5361     		str	r3, [r2, #20]
 516:Drivers/lvgl/lvgl/src/hal/lv_hal_disp.c **** 
 1974              		.loc 1 516 0
 1975 000a 7047     		bx	lr
 1976              		.cfi_endproc
 1977              	.LFE174:
 1979              		.section	.text.lv_disp_flush_is_last,"ax",%progbits
 1980              		.align	1
 1981              		.global	lv_disp_flush_is_last
 1982              		.syntax unified
 1983              		.thumb
 1984              		.thumb_func
 1985              		.fpu fpv5-d16
 1987              	lv_disp_flush_is_last:
 1988              	.LFB175:
 525:Drivers/lvgl/lvgl/src/hal/lv_hal_disp.c ****     return disp_drv->draw_buf->flushing_last;
 1989              		.loc 1 525 0
 1990              		.cfi_startproc
 1991              		@ args = 0, pretend = 0, frame = 0
 1992              		@ frame_needed = 0, uses_anonymous_args = 0
 1993              		@ link register save eliminated.
 1994              	.LVL240:
 526:Drivers/lvgl/lvgl/src/hal/lv_hal_disp.c **** }
 1995              		.loc 1 526 0
 1996 0000 C368     		ldr	r3, [r0, #12]
 1997 0002 5869     		ldr	r0, [r3, #20]
 1998              	.LVL241:
 527:Drivers/lvgl/lvgl/src/hal/lv_hal_disp.c **** 
 1999              		.loc 1 527 0
 2000 0004 0030     		adds	r0, r0, #0
 2001 0006 18BF     		it	ne
 2002 0008 0120     		movne	r0, #1
 2003 000a 7047     		bx	lr
 2004              		.cfi_endproc
 2005              	.LFE175:
 2007              		.section	.text.lv_disp_get_next,"ax",%progbits
 2008              		.align	1
 2009              		.global	lv_disp_get_next
 2010              		.syntax unified
 2011              		.thumb
 2012              		.thumb_func
 2013              		.fpu fpv5-d16
 2015              	lv_disp_get_next:
ARM GAS  /tmp/ccgzxQCw.s 			page 65


 2016              	.LFB176:
 535:Drivers/lvgl/lvgl/src/hal/lv_hal_disp.c ****     if(disp == NULL)
 2017              		.loc 1 535 0
 2018              		.cfi_startproc
 2019              		@ args = 0, pretend = 0, frame = 0
 2020              		@ frame_needed = 0, uses_anonymous_args = 0
 2021              	.LVL242:
 2022 0000 08B5     		push	{r3, lr}
 2023              	.LCFI39:
 2024              		.cfi_def_cfa_offset 8
 2025              		.cfi_offset 3, -8
 2026              		.cfi_offset 14, -4
 536:Drivers/lvgl/lvgl/src/hal/lv_hal_disp.c ****         return _lv_ll_get_head(&LV_GC_ROOT(_lv_disp_ll));
 2027              		.loc 1 536 0
 2028 0002 20B1     		cbz	r0, .L173
 2029 0004 0146     		mov	r1, r0
 539:Drivers/lvgl/lvgl/src/hal/lv_hal_disp.c **** }
 2030              		.loc 1 539 0
 2031 0006 0448     		ldr	r0, .L174
 2032              	.LVL243:
 2033 0008 FFF7FEFF 		bl	_lv_ll_get_next
 2034              	.LVL244:
 2035              	.L169:
 540:Drivers/lvgl/lvgl/src/hal/lv_hal_disp.c **** 
 2036              		.loc 1 540 0
 2037 000c 08BD     		pop	{r3, pc}
 2038              	.LVL245:
 2039              	.L173:
 537:Drivers/lvgl/lvgl/src/hal/lv_hal_disp.c ****     else
 2040              		.loc 1 537 0
 2041 000e 0248     		ldr	r0, .L174
 2042              	.LVL246:
 2043 0010 FFF7FEFF 		bl	_lv_ll_get_head
 2044              	.LVL247:
 2045 0014 FAE7     		b	.L169
 2046              	.L175:
 2047 0016 00BF     		.align	2
 2048              	.L174:
 2049 0018 00000000 		.word	_lv_disp_ll
 2050              		.cfi_endproc
 2051              	.LFE176:
 2053              		.section	.text.lv_disp_get_draw_buf,"ax",%progbits
 2054              		.align	1
 2055              		.global	lv_disp_get_draw_buf
 2056              		.syntax unified
 2057              		.thumb
 2058              		.thumb_func
 2059              		.fpu fpv5-d16
 2061              	lv_disp_get_draw_buf:
 2062              	.LFB177:
 548:Drivers/lvgl/lvgl/src/hal/lv_hal_disp.c ****     return disp->driver->draw_buf;
 2063              		.loc 1 548 0
 2064              		.cfi_startproc
 2065              		@ args = 0, pretend = 0, frame = 0
 2066              		@ frame_needed = 0, uses_anonymous_args = 0
 2067              		@ link register save eliminated.
 2068              	.LVL248:
ARM GAS  /tmp/ccgzxQCw.s 			page 66


 549:Drivers/lvgl/lvgl/src/hal/lv_hal_disp.c **** }
 2069              		.loc 1 549 0
 2070 0000 0368     		ldr	r3, [r0]
 550:Drivers/lvgl/lvgl/src/hal/lv_hal_disp.c **** 
 2071              		.loc 1 550 0
 2072 0002 D868     		ldr	r0, [r3, #12]
 2073              	.LVL249:
 2074 0004 7047     		bx	lr
 2075              		.cfi_endproc
 2076              	.LFE177:
 2078              		.section	.text.lv_disp_set_rotation,"ax",%progbits
 2079              		.align	1
 2080              		.global	lv_disp_set_rotation
 2081              		.syntax unified
 2082              		.thumb
 2083              		.thumb_func
 2084              		.fpu fpv5-d16
 2086              	lv_disp_set_rotation:
 2087              	.LFB178:
 558:Drivers/lvgl/lvgl/src/hal/lv_hal_disp.c ****     if(disp == NULL) disp = lv_disp_get_default();
 2088              		.loc 1 558 0
 2089              		.cfi_startproc
 2090              		@ args = 0, pretend = 0, frame = 0
 2091              		@ frame_needed = 0, uses_anonymous_args = 0
 2092              	.LVL250:
 2093 0000 10B5     		push	{r4, lr}
 2094              	.LCFI40:
 2095              		.cfi_def_cfa_offset 8
 2096              		.cfi_offset 4, -8
 2097              		.cfi_offset 14, -4
 2098 0002 0C46     		mov	r4, r1
 559:Drivers/lvgl/lvgl/src/hal/lv_hal_disp.c ****     if(disp == NULL) return;
 2099              		.loc 1 559 0
 2100 0004 0346     		mov	r3, r0
 2101 0006 50B1     		cbz	r0, .L181
 2102              	.LVL251:
 2103              	.L178:
 560:Drivers/lvgl/lvgl/src/hal/lv_hal_disp.c **** 
 2104              		.loc 1 560 0
 2105 0008 43B1     		cbz	r3, .L177
 562:Drivers/lvgl/lvgl/src/hal/lv_hal_disp.c ****     lv_disp_drv_update(disp, disp->driver);
 2106              		.loc 1 562 0
 2107 000a 1A68     		ldr	r2, [r3]
 2108 000c 117C     		ldrb	r1, [r2, #16]	@ zero_extendqisi2
 2109 000e 64F30511 		bfi	r1, r4, #4, #2
 2110 0012 1174     		strb	r1, [r2, #16]
 563:Drivers/lvgl/lvgl/src/hal/lv_hal_disp.c **** }
 2111              		.loc 1 563 0
 2112 0014 1968     		ldr	r1, [r3]
 2113 0016 1846     		mov	r0, r3
 2114 0018 FFF7FEFF 		bl	lv_disp_drv_update
 2115              	.LVL252:
 2116              	.L177:
 564:Drivers/lvgl/lvgl/src/hal/lv_hal_disp.c **** 
 2117              		.loc 1 564 0
 2118 001c 10BD     		pop	{r4, pc}
 2119              	.LVL253:
ARM GAS  /tmp/ccgzxQCw.s 			page 67


 2120              	.L181:
 559:Drivers/lvgl/lvgl/src/hal/lv_hal_disp.c ****     if(disp == NULL) return;
 2121              		.loc 1 559 0 discriminator 1
 2122 001e FFF7FEFF 		bl	lv_disp_get_default
 2123              	.LVL254:
 2124 0022 0346     		mov	r3, r0
 2125              	.LVL255:
 2126 0024 F0E7     		b	.L178
 2127              		.cfi_endproc
 2128              	.LFE178:
 2130              		.section	.text.lv_disp_get_rotation,"ax",%progbits
 2131              		.align	1
 2132              		.global	lv_disp_get_rotation
 2133              		.syntax unified
 2134              		.thumb
 2135              		.thumb_func
 2136              		.fpu fpv5-d16
 2138              	lv_disp_get_rotation:
 2139              	.LFB179:
 572:Drivers/lvgl/lvgl/src/hal/lv_hal_disp.c ****     if(disp == NULL) disp = lv_disp_get_default();
 2140              		.loc 1 572 0
 2141              		.cfi_startproc
 2142              		@ args = 0, pretend = 0, frame = 0
 2143              		@ frame_needed = 0, uses_anonymous_args = 0
 2144              	.LVL256:
 2145 0000 08B5     		push	{r3, lr}
 2146              	.LCFI41:
 2147              		.cfi_def_cfa_offset 8
 2148              		.cfi_offset 3, -8
 2149              		.cfi_offset 14, -4
 573:Drivers/lvgl/lvgl/src/hal/lv_hal_disp.c ****     if(disp == NULL) return LV_DISP_ROT_NONE;
 2150              		.loc 1 573 0
 2151 0002 0346     		mov	r3, r0
 2152 0004 28B1     		cbz	r0, .L187
 2153              	.L183:
 574:Drivers/lvgl/lvgl/src/hal/lv_hal_disp.c ****     return disp->driver->rotated;
 2154              		.loc 1 574 0
 2155 0006 43B1     		cbz	r3, .L185
 575:Drivers/lvgl/lvgl/src/hal/lv_hal_disp.c **** }
 2156              		.loc 1 575 0
 2157 0008 1B68     		ldr	r3, [r3]
 2158 000a 187C     		ldrb	r0, [r3, #16]	@ zero_extendqisi2
 2159              	.LVL257:
 2160 000c C0F30110 		ubfx	r0, r0, #4, #2
 2161              	.L184:
 576:Drivers/lvgl/lvgl/src/hal/lv_hal_disp.c **** 
 2162              		.loc 1 576 0
 2163 0010 08BD     		pop	{r3, pc}
 2164              	.LVL258:
 2165              	.L187:
 573:Drivers/lvgl/lvgl/src/hal/lv_hal_disp.c ****     if(disp == NULL) return LV_DISP_ROT_NONE;
 2166              		.loc 1 573 0 discriminator 1
 2167 0012 FFF7FEFF 		bl	lv_disp_get_default
 2168              	.LVL259:
 2169 0016 0346     		mov	r3, r0
 2170              	.LVL260:
 2171 0018 F5E7     		b	.L183
ARM GAS  /tmp/ccgzxQCw.s 			page 68


 2172              	.L185:
 574:Drivers/lvgl/lvgl/src/hal/lv_hal_disp.c ****     return disp->driver->rotated;
 2173              		.loc 1 574 0
 2174 001a 0020     		movs	r0, #0
 2175              	.LVL261:
 2176 001c F8E7     		b	.L184
 2177              		.cfi_endproc
 2178              	.LFE179:
 2180              		.section	.text.lv_disp_drv_use_generic_set_px_cb,"ax",%progbits
 2181              		.align	1
 2182              		.global	lv_disp_drv_use_generic_set_px_cb
 2183              		.syntax unified
 2184              		.thumb
 2185              		.thumb_func
 2186              		.fpu fpv5-d16
 2188              	lv_disp_drv_use_generic_set_px_cb:
 2189              	.LFB180:
 579:Drivers/lvgl/lvgl/src/hal/lv_hal_disp.c ****     switch(cf) {
 2190              		.loc 1 579 0
 2191              		.cfi_startproc
 2192              		@ args = 0, pretend = 0, frame = 0
 2193              		@ frame_needed = 0, uses_anonymous_args = 0
 2194              		@ link register save eliminated.
 2195              	.LVL262:
 580:Drivers/lvgl/lvgl/src/hal/lv_hal_disp.c ****         case LV_IMG_CF_TRUE_COLOR_ALPHA:
 2196              		.loc 1 580 0
 2197 0000 0539     		subs	r1, r1, #5
 2198              	.LVL263:
 2199 0002 0929     		cmp	r1, #9
 2200 0004 15D8     		bhi	.L189
 2201 0006 DFE801F0 		tbb	[pc, r1]
 2202              	.L191:
 2203 000a 05       		.byte	(.L190-.L191)/2
 2204 000b 14       		.byte	(.L189-.L191)/2
 2205 000c 14       		.byte	(.L189-.L191)/2
 2206 000d 14       		.byte	(.L189-.L191)/2
 2207 000e 14       		.byte	(.L189-.L191)/2
 2208 000f 14       		.byte	(.L189-.L191)/2
 2209 0010 08       		.byte	(.L192-.L191)/2
 2210 0011 0B       		.byte	(.L193-.L191)/2
 2211 0012 0E       		.byte	(.L194-.L191)/2
 2212 0013 11       		.byte	(.L195-.L191)/2
 2213              		.p2align 1
 2214              	.L190:
 582:Drivers/lvgl/lvgl/src/hal/lv_hal_disp.c ****             break;
 2215              		.loc 1 582 0
 2216 0014 084B     		ldr	r3, .L197
 2217 0016 C361     		str	r3, [r0, #28]
 583:Drivers/lvgl/lvgl/src/hal/lv_hal_disp.c ****         case LV_IMG_CF_ALPHA_1BIT:
 2218              		.loc 1 583 0
 2219 0018 7047     		bx	lr
 2220              	.L192:
 585:Drivers/lvgl/lvgl/src/hal/lv_hal_disp.c ****             break;
 2221              		.loc 1 585 0
 2222 001a 084B     		ldr	r3, .L197+4
 2223 001c C361     		str	r3, [r0, #28]
 586:Drivers/lvgl/lvgl/src/hal/lv_hal_disp.c ****         case LV_IMG_CF_ALPHA_2BIT:
ARM GAS  /tmp/ccgzxQCw.s 			page 69


 2224              		.loc 1 586 0
 2225 001e 7047     		bx	lr
 2226              	.L193:
 588:Drivers/lvgl/lvgl/src/hal/lv_hal_disp.c ****             break;
 2227              		.loc 1 588 0
 2228 0020 074B     		ldr	r3, .L197+8
 2229 0022 C361     		str	r3, [r0, #28]
 589:Drivers/lvgl/lvgl/src/hal/lv_hal_disp.c ****         case LV_IMG_CF_ALPHA_4BIT:
 2230              		.loc 1 589 0
 2231 0024 7047     		bx	lr
 2232              	.L194:
 591:Drivers/lvgl/lvgl/src/hal/lv_hal_disp.c ****             break;
 2233              		.loc 1 591 0
 2234 0026 074B     		ldr	r3, .L197+12
 2235 0028 C361     		str	r3, [r0, #28]
 592:Drivers/lvgl/lvgl/src/hal/lv_hal_disp.c ****         case LV_IMG_CF_ALPHA_8BIT:
 2236              		.loc 1 592 0
 2237 002a 7047     		bx	lr
 2238              	.L195:
 594:Drivers/lvgl/lvgl/src/hal/lv_hal_disp.c ****             break;
 2239              		.loc 1 594 0
 2240 002c 064B     		ldr	r3, .L197+16
 2241 002e C361     		str	r3, [r0, #28]
 595:Drivers/lvgl/lvgl/src/hal/lv_hal_disp.c ****         default:
 2242              		.loc 1 595 0
 2243 0030 7047     		bx	lr
 2244              	.L189:
 597:Drivers/lvgl/lvgl/src/hal/lv_hal_disp.c ****     }
 2245              		.loc 1 597 0
 2246 0032 0023     		movs	r3, #0
 2247 0034 C361     		str	r3, [r0, #28]
 599:Drivers/lvgl/lvgl/src/hal/lv_hal_disp.c **** 
 2248              		.loc 1 599 0
 2249 0036 7047     		bx	lr
 2250              	.L198:
 2251              		.align	2
 2252              	.L197:
 2253 0038 00000000 		.word	set_px_true_color_alpha
 2254 003c 00000000 		.word	set_px_cb_alpha1
 2255 0040 00000000 		.word	set_px_cb_alpha2
 2256 0044 00000000 		.word	set_px_cb_alpha4
 2257 0048 00000000 		.word	set_px_cb_alpha8
 2258              		.cfi_endproc
 2259              	.LFE180:
 2261              		.section	.bss.bg_color_save.6304,"aw",%nobits
 2262              		.align	2
 2263              		.set	.LANCHOR3,. + 0
 2266              	bg_color_save.6304:
 2267 0000 0000     		.space	2
 2268              		.section	.bss.bg_opa_save.6302,"aw",%nobits
 2269              		.set	.LANCHOR1,. + 0
 2272              	bg_opa_save.6302:
 2273 0000 00       		.space	1
 2274              		.section	.bss.disp_def,"aw",%nobits
 2275              		.align	2
 2276              		.set	.LANCHOR6,. + 0
 2279              	disp_def:
ARM GAS  /tmp/ccgzxQCw.s 			page 70


 2280 0000 00000000 		.space	4
 2281              		.section	.bss.fg_color_save.6303,"aw",%nobits
 2282              		.align	2
 2283              		.set	.LANCHOR2,. + 0
 2286              	fg_color_save.6303:
 2287 0000 0000     		.space	2
 2288              		.section	.bss.fg_opa_save.6301,"aw",%nobits
 2289              		.set	.LANCHOR0,. + 0
 2292              	fg_opa_save.6301:
 2293 0000 00       		.space	1
 2294              		.section	.bss.res_color_saved.6305,"aw",%nobits
 2295              		.align	2
 2296              		.set	.LANCHOR5,. + 0
 2299              	res_color_saved.6305:
 2300 0000 0000     		.space	2
 2301              		.section	.bss.res_opa_saved.6306,"aw",%nobits
 2302              		.set	.LANCHOR4,. + 0
 2305              	res_opa_saved.6306:
 2306 0000 00       		.space	1
 2307              		.text
 2308              	.Letext0:
 2309              		.file 4 "/opt/gcc-arm-none-eabi-7-2017-q4-major/arm-none-eabi/include/machine/_default_types.h"
 2310              		.file 5 "/opt/gcc-arm-none-eabi-7-2017-q4-major/arm-none-eabi/include/sys/_stdint.h"
 2311              		.file 6 "/opt/gcc-arm-none-eabi-7-2017-q4-major/lib/gcc/arm-none-eabi/7.2.1/include/stddef.h"
 2312              		.file 7 "Drivers/lvgl/lvgl/src/hal/../draw/../misc/../font/../misc/lv_area.h"
 2313              		.file 8 "Drivers/lvgl/lvgl/src/hal/../draw/../misc/../font/lv_font.h"
 2314              		.file 9 "Drivers/lvgl/lvgl/src/hal/../draw/../misc/lv_types.h"
 2315              		.file 10 "/opt/gcc-arm-none-eabi-7-2017-q4-major/arm-none-eabi/include/sys/lock.h"
 2316              		.file 11 "/opt/gcc-arm-none-eabi-7-2017-q4-major/arm-none-eabi/include/sys/_types.h"
 2317              		.file 12 "/opt/gcc-arm-none-eabi-7-2017-q4-major/arm-none-eabi/include/sys/reent.h"
 2318              		.file 13 "Drivers/lvgl/lvgl/src/hal/../draw/../misc/lv_mem.h"
 2319              		.file 14 "Drivers/lvgl/lvgl/src/hal/../draw/../misc/lv_txt.h"
 2320              		.file 15 "Drivers/lvgl/lvgl/src/hal/../draw/../misc/lv_bidi.h"
 2321              		.file 16 "Drivers/lvgl/lvgl/src/hal/../draw/../misc/lv_style.h"
 2322              		.file 17 "Drivers/lvgl/lvgl/src/hal/../draw/lv_img_buf.h"
 2323              		.file 18 "Drivers/lvgl/lvgl/src/hal/../draw/lv_img_decoder.h"
 2324              		.file 19 "Drivers/lvgl/lvgl/src/hal/../draw/lv_img_cache.h"
 2325              		.file 20 "Drivers/lvgl/lvgl/src/hal/../draw/sw/../../core/lv_obj_pos.h"
 2326              		.file 21 "Drivers/lvgl/lvgl/src/hal/../core/lv_obj.h"
 2327              		.file 22 "Drivers/lvgl/lvgl/src/hal/../draw/lv_draw_rect.h"
 2328              		.file 23 "Drivers/lvgl/lvgl/src/hal/../draw/lv_draw_label.h"
 2329              		.file 24 "Drivers/lvgl/lvgl/src/hal/../draw/lv_draw_img.h"
 2330              		.file 25 "Drivers/lvgl/lvgl/src/hal/../draw/lv_draw_line.h"
 2331              		.file 26 "Drivers/lvgl/lvgl/src/hal/../draw/lv_draw_arc.h"
 2332              		.file 27 "Drivers/lvgl/lvgl/src/hal/../draw/lv_draw_mask.h"
 2333              		.file 28 "Drivers/lvgl/lvgl/src/hal/../draw/lv_draw_layer.h"
 2334              		.file 29 "Drivers/lvgl/lvgl/src/hal/../draw/lv_draw.h"
 2335              		.file 30 "Drivers/lvgl/lvgl/src/hal/../misc/lv_ll.h"
 2336              		.file 31 "Drivers/lvgl/lvgl/src/hal/../misc/lv_timer.h"
 2337              		.file 32 "Drivers/lvgl/lvgl/src/hal/lv_hal_disp.h"
 2338              		.file 33 "Drivers/lvgl/lvgl/src/hal/../core/lv_theme.h"
 2339              		.file 34 "Drivers/lvgl/lvgl/src/hal/lv_hal_indev.h"
 2340              		.file 35 "Drivers/lvgl/lvgl/src/hal/../core/lv_group.h"
 2341              		.file 36 "Drivers/lvgl/lvgl/src/hal/../misc/lv_gc.h"
 2342              		.file 37 "Drivers/lvgl/lvgl/src/hal/../core/lv_obj_tree.h"
 2343              		.file 38 "Drivers/lvgl/lvgl/src/hal/../core/lv_obj_scroll.h"
 2344              		.file 39 "Drivers/lvgl/lvgl/src/hal/../core/lv_obj_class.h"
ARM GAS  /tmp/ccgzxQCw.s 			page 71


 2345              		.file 40 "Drivers/lvgl/lvgl/src/hal/../core/lv_event.h"
 2346              		.file 41 "Drivers/lvgl/lvgl/src/hal/../extra/themes/default/lv_theme_default.h"
ARM GAS  /tmp/ccgzxQCw.s 			page 72

