ARM GAS  /tmp/ccDoLsau.s 			page 1


   1              		.cpu cortex-m7
   2              		.eabi_attribute 28, 1
   3              		.eabi_attribute 20, 1
   4              		.eabi_attribute 21, 1
   5              		.eabi_attribute 23, 3
   6              		.eabi_attribute 24, 1
   7              		.eabi_attribute 25, 1
   8              		.eabi_attribute 26, 1
   9              		.eabi_attribute 30, 1
  10              		.eabi_attribute 34, 1
  11              		.eabi_attribute 18, 4
  12              		.file	"lv_indev.c"
  13              		.text
  14              	.Ltext0:
  15              		.cfi_sections	.debug_frame
  16              		.section	.text.indev_proc_reset_query_handler,"ax",%progbits
  17              		.align	1
  18              		.syntax unified
  19              		.thumb
  20              		.thumb_func
  21              		.fpu fpv5-d16
  23              	indev_proc_reset_query_handler:
  24              	.LFB190:
  25              		.file 1 "Drivers/lvgl/lvgl/src/core/lv_indev.c"
   1:Drivers/lvgl/lvgl/src/core/lv_indev.c **** /**
   2:Drivers/lvgl/lvgl/src/core/lv_indev.c ****  * @file lv_indev.c
   3:Drivers/lvgl/lvgl/src/core/lv_indev.c ****  *
   4:Drivers/lvgl/lvgl/src/core/lv_indev.c ****  */
   5:Drivers/lvgl/lvgl/src/core/lv_indev.c **** 
   6:Drivers/lvgl/lvgl/src/core/lv_indev.c **** /*********************
   7:Drivers/lvgl/lvgl/src/core/lv_indev.c ****  *      INCLUDES
   8:Drivers/lvgl/lvgl/src/core/lv_indev.c ****  ********************/
   9:Drivers/lvgl/lvgl/src/core/lv_indev.c **** #include "lv_indev.h"
  10:Drivers/lvgl/lvgl/src/core/lv_indev.c **** #include "lv_disp.h"
  11:Drivers/lvgl/lvgl/src/core/lv_indev.c **** #include "lv_obj.h"
  12:Drivers/lvgl/lvgl/src/core/lv_indev.c **** #include "lv_indev_scroll.h"
  13:Drivers/lvgl/lvgl/src/core/lv_indev.c **** #include "lv_group.h"
  14:Drivers/lvgl/lvgl/src/core/lv_indev.c **** #include "lv_refr.h"
  15:Drivers/lvgl/lvgl/src/core/lv_indev.c **** 
  16:Drivers/lvgl/lvgl/src/core/lv_indev.c **** #include "../hal/lv_hal_tick.h"
  17:Drivers/lvgl/lvgl/src/core/lv_indev.c **** #include "../misc/lv_timer.h"
  18:Drivers/lvgl/lvgl/src/core/lv_indev.c **** #include "../misc/lv_math.h"
  19:Drivers/lvgl/lvgl/src/core/lv_indev.c **** 
  20:Drivers/lvgl/lvgl/src/core/lv_indev.c **** /*********************
  21:Drivers/lvgl/lvgl/src/core/lv_indev.c ****  *      DEFINES
  22:Drivers/lvgl/lvgl/src/core/lv_indev.c ****  *********************/
  23:Drivers/lvgl/lvgl/src/core/lv_indev.c **** #if LV_INDEV_DEF_SCROLL_THROW <= 0
  24:Drivers/lvgl/lvgl/src/core/lv_indev.c ****     #warning "LV_INDEV_DRAG_THROW must be greater than 0"
  25:Drivers/lvgl/lvgl/src/core/lv_indev.c **** #endif
  26:Drivers/lvgl/lvgl/src/core/lv_indev.c **** 
  27:Drivers/lvgl/lvgl/src/core/lv_indev.c **** /**********************
  28:Drivers/lvgl/lvgl/src/core/lv_indev.c ****  *      TYPEDEFS
  29:Drivers/lvgl/lvgl/src/core/lv_indev.c ****  **********************/
  30:Drivers/lvgl/lvgl/src/core/lv_indev.c **** 
  31:Drivers/lvgl/lvgl/src/core/lv_indev.c **** /**********************
  32:Drivers/lvgl/lvgl/src/core/lv_indev.c ****  *  STATIC PROTOTYPES
  33:Drivers/lvgl/lvgl/src/core/lv_indev.c ****  **********************/
ARM GAS  /tmp/ccDoLsau.s 			page 2


  34:Drivers/lvgl/lvgl/src/core/lv_indev.c **** static void indev_pointer_proc(lv_indev_t * i, lv_indev_data_t * data);
  35:Drivers/lvgl/lvgl/src/core/lv_indev.c **** static void indev_keypad_proc(lv_indev_t * i, lv_indev_data_t * data);
  36:Drivers/lvgl/lvgl/src/core/lv_indev.c **** static void indev_encoder_proc(lv_indev_t * i, lv_indev_data_t * data);
  37:Drivers/lvgl/lvgl/src/core/lv_indev.c **** static void indev_button_proc(lv_indev_t * i, lv_indev_data_t * data);
  38:Drivers/lvgl/lvgl/src/core/lv_indev.c **** static void indev_proc_press(_lv_indev_proc_t * proc);
  39:Drivers/lvgl/lvgl/src/core/lv_indev.c **** static void indev_proc_release(_lv_indev_proc_t * proc);
  40:Drivers/lvgl/lvgl/src/core/lv_indev.c **** static void indev_proc_reset_query_handler(lv_indev_t * indev);
  41:Drivers/lvgl/lvgl/src/core/lv_indev.c **** static void indev_click_focus(_lv_indev_proc_t * proc);
  42:Drivers/lvgl/lvgl/src/core/lv_indev.c **** static void indev_gesture(_lv_indev_proc_t * proc);
  43:Drivers/lvgl/lvgl/src/core/lv_indev.c **** static bool indev_reset_check(_lv_indev_proc_t * proc);
  44:Drivers/lvgl/lvgl/src/core/lv_indev.c **** 
  45:Drivers/lvgl/lvgl/src/core/lv_indev.c **** /**********************
  46:Drivers/lvgl/lvgl/src/core/lv_indev.c ****  *  STATIC VARIABLES
  47:Drivers/lvgl/lvgl/src/core/lv_indev.c ****  **********************/
  48:Drivers/lvgl/lvgl/src/core/lv_indev.c **** static lv_indev_t * indev_act;
  49:Drivers/lvgl/lvgl/src/core/lv_indev.c **** static lv_obj_t * indev_obj_act = NULL;
  50:Drivers/lvgl/lvgl/src/core/lv_indev.c **** 
  51:Drivers/lvgl/lvgl/src/core/lv_indev.c **** /**********************
  52:Drivers/lvgl/lvgl/src/core/lv_indev.c ****  *      MACROS
  53:Drivers/lvgl/lvgl/src/core/lv_indev.c ****  **********************/
  54:Drivers/lvgl/lvgl/src/core/lv_indev.c **** #if LV_LOG_TRACE_INDEV
  55:Drivers/lvgl/lvgl/src/core/lv_indev.c ****     #define INDEV_TRACE(...) LV_LOG_TRACE(__VA_ARGS__)
  56:Drivers/lvgl/lvgl/src/core/lv_indev.c **** #else
  57:Drivers/lvgl/lvgl/src/core/lv_indev.c ****     #define INDEV_TRACE(...)
  58:Drivers/lvgl/lvgl/src/core/lv_indev.c **** #endif
  59:Drivers/lvgl/lvgl/src/core/lv_indev.c **** 
  60:Drivers/lvgl/lvgl/src/core/lv_indev.c **** /**********************
  61:Drivers/lvgl/lvgl/src/core/lv_indev.c ****  *   GLOBAL FUNCTIONS
  62:Drivers/lvgl/lvgl/src/core/lv_indev.c ****  **********************/
  63:Drivers/lvgl/lvgl/src/core/lv_indev.c **** 
  64:Drivers/lvgl/lvgl/src/core/lv_indev.c **** void lv_indev_read_timer_cb(lv_timer_t * timer)
  65:Drivers/lvgl/lvgl/src/core/lv_indev.c **** {
  66:Drivers/lvgl/lvgl/src/core/lv_indev.c ****     INDEV_TRACE("begin");
  67:Drivers/lvgl/lvgl/src/core/lv_indev.c **** 
  68:Drivers/lvgl/lvgl/src/core/lv_indev.c ****     lv_indev_data_t data;
  69:Drivers/lvgl/lvgl/src/core/lv_indev.c **** 
  70:Drivers/lvgl/lvgl/src/core/lv_indev.c ****     indev_act = timer->user_data;
  71:Drivers/lvgl/lvgl/src/core/lv_indev.c **** 
  72:Drivers/lvgl/lvgl/src/core/lv_indev.c ****     /*Read and process all indevs*/
  73:Drivers/lvgl/lvgl/src/core/lv_indev.c ****     if(indev_act->driver->disp == NULL) return; /*Not assigned to any displays*/
  74:Drivers/lvgl/lvgl/src/core/lv_indev.c **** 
  75:Drivers/lvgl/lvgl/src/core/lv_indev.c ****     /*Handle reset query before processing the point*/
  76:Drivers/lvgl/lvgl/src/core/lv_indev.c ****     indev_proc_reset_query_handler(indev_act);
  77:Drivers/lvgl/lvgl/src/core/lv_indev.c **** 
  78:Drivers/lvgl/lvgl/src/core/lv_indev.c ****     if(indev_act->proc.disabled ||
  79:Drivers/lvgl/lvgl/src/core/lv_indev.c ****        indev_act->driver->disp->prev_scr != NULL) return; /*Input disabled or screen animation acti
  80:Drivers/lvgl/lvgl/src/core/lv_indev.c ****     bool continue_reading;
  81:Drivers/lvgl/lvgl/src/core/lv_indev.c ****     do {
  82:Drivers/lvgl/lvgl/src/core/lv_indev.c ****         /*Read the data*/
  83:Drivers/lvgl/lvgl/src/core/lv_indev.c ****         _lv_indev_read(indev_act, &data);
  84:Drivers/lvgl/lvgl/src/core/lv_indev.c ****         continue_reading = data.continue_reading;
  85:Drivers/lvgl/lvgl/src/core/lv_indev.c **** 
  86:Drivers/lvgl/lvgl/src/core/lv_indev.c ****         /*The active object might be deleted even in the read function*/
  87:Drivers/lvgl/lvgl/src/core/lv_indev.c ****         indev_proc_reset_query_handler(indev_act);
  88:Drivers/lvgl/lvgl/src/core/lv_indev.c ****         indev_obj_act = NULL;
  89:Drivers/lvgl/lvgl/src/core/lv_indev.c **** 
  90:Drivers/lvgl/lvgl/src/core/lv_indev.c ****         indev_act->proc.state = data.state;
ARM GAS  /tmp/ccDoLsau.s 			page 3


  91:Drivers/lvgl/lvgl/src/core/lv_indev.c **** 
  92:Drivers/lvgl/lvgl/src/core/lv_indev.c ****         /*Save the last activity time*/
  93:Drivers/lvgl/lvgl/src/core/lv_indev.c ****         if(indev_act->proc.state == LV_INDEV_STATE_PRESSED) {
  94:Drivers/lvgl/lvgl/src/core/lv_indev.c ****             indev_act->driver->disp->last_activity_time = lv_tick_get();
  95:Drivers/lvgl/lvgl/src/core/lv_indev.c ****         }
  96:Drivers/lvgl/lvgl/src/core/lv_indev.c ****         else if(indev_act->driver->type == LV_INDEV_TYPE_ENCODER && data.enc_diff) {
  97:Drivers/lvgl/lvgl/src/core/lv_indev.c ****             indev_act->driver->disp->last_activity_time = lv_tick_get();
  98:Drivers/lvgl/lvgl/src/core/lv_indev.c ****         }
  99:Drivers/lvgl/lvgl/src/core/lv_indev.c **** 
 100:Drivers/lvgl/lvgl/src/core/lv_indev.c ****         if(indev_act->driver->type == LV_INDEV_TYPE_POINTER) {
 101:Drivers/lvgl/lvgl/src/core/lv_indev.c ****             indev_pointer_proc(indev_act, &data);
 102:Drivers/lvgl/lvgl/src/core/lv_indev.c ****         }
 103:Drivers/lvgl/lvgl/src/core/lv_indev.c ****         else if(indev_act->driver->type == LV_INDEV_TYPE_KEYPAD) {
 104:Drivers/lvgl/lvgl/src/core/lv_indev.c ****             indev_keypad_proc(indev_act, &data);
 105:Drivers/lvgl/lvgl/src/core/lv_indev.c ****         }
 106:Drivers/lvgl/lvgl/src/core/lv_indev.c ****         else if(indev_act->driver->type == LV_INDEV_TYPE_ENCODER) {
 107:Drivers/lvgl/lvgl/src/core/lv_indev.c ****             indev_encoder_proc(indev_act, &data);
 108:Drivers/lvgl/lvgl/src/core/lv_indev.c ****         }
 109:Drivers/lvgl/lvgl/src/core/lv_indev.c ****         else if(indev_act->driver->type == LV_INDEV_TYPE_BUTTON) {
 110:Drivers/lvgl/lvgl/src/core/lv_indev.c ****             indev_button_proc(indev_act, &data);
 111:Drivers/lvgl/lvgl/src/core/lv_indev.c ****         }
 112:Drivers/lvgl/lvgl/src/core/lv_indev.c ****         /*Handle reset query if it happened in during processing*/
 113:Drivers/lvgl/lvgl/src/core/lv_indev.c ****         indev_proc_reset_query_handler(indev_act);
 114:Drivers/lvgl/lvgl/src/core/lv_indev.c ****     } while(continue_reading);
 115:Drivers/lvgl/lvgl/src/core/lv_indev.c **** 
 116:Drivers/lvgl/lvgl/src/core/lv_indev.c ****     /*End of indev processing, so no act indev*/
 117:Drivers/lvgl/lvgl/src/core/lv_indev.c ****     indev_act     = NULL;
 118:Drivers/lvgl/lvgl/src/core/lv_indev.c ****     indev_obj_act = NULL;
 119:Drivers/lvgl/lvgl/src/core/lv_indev.c **** 
 120:Drivers/lvgl/lvgl/src/core/lv_indev.c ****     INDEV_TRACE("finished");
 121:Drivers/lvgl/lvgl/src/core/lv_indev.c **** }
 122:Drivers/lvgl/lvgl/src/core/lv_indev.c **** 
 123:Drivers/lvgl/lvgl/src/core/lv_indev.c **** void lv_indev_enable(lv_indev_t * indev, bool en)
 124:Drivers/lvgl/lvgl/src/core/lv_indev.c **** {
 125:Drivers/lvgl/lvgl/src/core/lv_indev.c ****     uint8_t enable = en ? 0 : 1;
 126:Drivers/lvgl/lvgl/src/core/lv_indev.c **** 
 127:Drivers/lvgl/lvgl/src/core/lv_indev.c ****     if(indev) {
 128:Drivers/lvgl/lvgl/src/core/lv_indev.c ****         indev->proc.disabled = enable;
 129:Drivers/lvgl/lvgl/src/core/lv_indev.c ****     }
 130:Drivers/lvgl/lvgl/src/core/lv_indev.c ****     else {
 131:Drivers/lvgl/lvgl/src/core/lv_indev.c ****         lv_indev_t * i = lv_indev_get_next(NULL);
 132:Drivers/lvgl/lvgl/src/core/lv_indev.c ****         while(i) {
 133:Drivers/lvgl/lvgl/src/core/lv_indev.c ****             i->proc.disabled = enable;
 134:Drivers/lvgl/lvgl/src/core/lv_indev.c ****             i = lv_indev_get_next(i);
 135:Drivers/lvgl/lvgl/src/core/lv_indev.c ****         }
 136:Drivers/lvgl/lvgl/src/core/lv_indev.c ****     }
 137:Drivers/lvgl/lvgl/src/core/lv_indev.c **** }
 138:Drivers/lvgl/lvgl/src/core/lv_indev.c **** 
 139:Drivers/lvgl/lvgl/src/core/lv_indev.c **** lv_indev_t * lv_indev_get_act(void)
 140:Drivers/lvgl/lvgl/src/core/lv_indev.c **** {
 141:Drivers/lvgl/lvgl/src/core/lv_indev.c ****     return indev_act;
 142:Drivers/lvgl/lvgl/src/core/lv_indev.c **** }
 143:Drivers/lvgl/lvgl/src/core/lv_indev.c **** 
 144:Drivers/lvgl/lvgl/src/core/lv_indev.c **** lv_indev_type_t lv_indev_get_type(const lv_indev_t * indev)
 145:Drivers/lvgl/lvgl/src/core/lv_indev.c **** {
 146:Drivers/lvgl/lvgl/src/core/lv_indev.c ****     if(indev == NULL) return LV_INDEV_TYPE_NONE;
 147:Drivers/lvgl/lvgl/src/core/lv_indev.c **** 
ARM GAS  /tmp/ccDoLsau.s 			page 4


 148:Drivers/lvgl/lvgl/src/core/lv_indev.c ****     return indev->driver->type;
 149:Drivers/lvgl/lvgl/src/core/lv_indev.c **** }
 150:Drivers/lvgl/lvgl/src/core/lv_indev.c **** 
 151:Drivers/lvgl/lvgl/src/core/lv_indev.c **** void lv_indev_reset(lv_indev_t * indev, lv_obj_t * obj)
 152:Drivers/lvgl/lvgl/src/core/lv_indev.c **** {
 153:Drivers/lvgl/lvgl/src/core/lv_indev.c ****     if(indev) {
 154:Drivers/lvgl/lvgl/src/core/lv_indev.c ****         indev->proc.reset_query = 1;
 155:Drivers/lvgl/lvgl/src/core/lv_indev.c ****         if(indev_act == indev) indev_obj_act = NULL;
 156:Drivers/lvgl/lvgl/src/core/lv_indev.c ****         if(indev->driver->type == LV_INDEV_TYPE_POINTER || indev->driver->type == LV_INDEV_TYPE_KEY
 157:Drivers/lvgl/lvgl/src/core/lv_indev.c ****             if(obj == NULL || indev->proc.types.pointer.last_pressed == obj) {
 158:Drivers/lvgl/lvgl/src/core/lv_indev.c ****                 indev->proc.types.pointer.last_pressed = NULL;
 159:Drivers/lvgl/lvgl/src/core/lv_indev.c ****             }
 160:Drivers/lvgl/lvgl/src/core/lv_indev.c ****             if(obj == NULL || indev->proc.types.pointer.act_obj == obj) {
 161:Drivers/lvgl/lvgl/src/core/lv_indev.c ****                 indev->proc.types.pointer.act_obj = NULL;
 162:Drivers/lvgl/lvgl/src/core/lv_indev.c ****             }
 163:Drivers/lvgl/lvgl/src/core/lv_indev.c ****             if(obj == NULL || indev->proc.types.pointer.last_obj == obj) {
 164:Drivers/lvgl/lvgl/src/core/lv_indev.c ****                 indev->proc.types.pointer.last_obj = NULL;
 165:Drivers/lvgl/lvgl/src/core/lv_indev.c ****             }
 166:Drivers/lvgl/lvgl/src/core/lv_indev.c ****         }
 167:Drivers/lvgl/lvgl/src/core/lv_indev.c ****     }
 168:Drivers/lvgl/lvgl/src/core/lv_indev.c ****     else {
 169:Drivers/lvgl/lvgl/src/core/lv_indev.c ****         lv_indev_t * i = lv_indev_get_next(NULL);
 170:Drivers/lvgl/lvgl/src/core/lv_indev.c ****         while(i) {
 171:Drivers/lvgl/lvgl/src/core/lv_indev.c ****             i->proc.reset_query = 1;
 172:Drivers/lvgl/lvgl/src/core/lv_indev.c ****             if(i->driver->type == LV_INDEV_TYPE_POINTER || i->driver->type == LV_INDEV_TYPE_KEYPAD)
 173:Drivers/lvgl/lvgl/src/core/lv_indev.c ****                 if(obj == NULL || i->proc.types.pointer.last_pressed == obj) {
 174:Drivers/lvgl/lvgl/src/core/lv_indev.c ****                     i->proc.types.pointer.last_pressed = NULL;
 175:Drivers/lvgl/lvgl/src/core/lv_indev.c ****                 }
 176:Drivers/lvgl/lvgl/src/core/lv_indev.c ****                 if(obj == NULL || i->proc.types.pointer.act_obj == obj) {
 177:Drivers/lvgl/lvgl/src/core/lv_indev.c ****                     i->proc.types.pointer.act_obj = NULL;
 178:Drivers/lvgl/lvgl/src/core/lv_indev.c ****                 }
 179:Drivers/lvgl/lvgl/src/core/lv_indev.c ****                 if(obj == NULL || i->proc.types.pointer.last_obj == obj) {
 180:Drivers/lvgl/lvgl/src/core/lv_indev.c ****                     i->proc.types.pointer.last_obj = NULL;
 181:Drivers/lvgl/lvgl/src/core/lv_indev.c ****                 }
 182:Drivers/lvgl/lvgl/src/core/lv_indev.c ****             }
 183:Drivers/lvgl/lvgl/src/core/lv_indev.c ****             i = lv_indev_get_next(i);
 184:Drivers/lvgl/lvgl/src/core/lv_indev.c ****         }
 185:Drivers/lvgl/lvgl/src/core/lv_indev.c ****         indev_obj_act = NULL;
 186:Drivers/lvgl/lvgl/src/core/lv_indev.c ****     }
 187:Drivers/lvgl/lvgl/src/core/lv_indev.c **** }
 188:Drivers/lvgl/lvgl/src/core/lv_indev.c **** 
 189:Drivers/lvgl/lvgl/src/core/lv_indev.c **** void lv_indev_reset_long_press(lv_indev_t * indev)
 190:Drivers/lvgl/lvgl/src/core/lv_indev.c **** {
 191:Drivers/lvgl/lvgl/src/core/lv_indev.c ****     indev->proc.long_pr_sent         = 0;
 192:Drivers/lvgl/lvgl/src/core/lv_indev.c ****     indev->proc.longpr_rep_timestamp = lv_tick_get();
 193:Drivers/lvgl/lvgl/src/core/lv_indev.c ****     indev->proc.pr_timestamp         = lv_tick_get();
 194:Drivers/lvgl/lvgl/src/core/lv_indev.c **** }
 195:Drivers/lvgl/lvgl/src/core/lv_indev.c **** 
 196:Drivers/lvgl/lvgl/src/core/lv_indev.c **** void lv_indev_set_cursor(lv_indev_t * indev, lv_obj_t * cur_obj)
 197:Drivers/lvgl/lvgl/src/core/lv_indev.c **** {
 198:Drivers/lvgl/lvgl/src/core/lv_indev.c ****     if(indev->driver->type != LV_INDEV_TYPE_POINTER) return;
 199:Drivers/lvgl/lvgl/src/core/lv_indev.c **** 
 200:Drivers/lvgl/lvgl/src/core/lv_indev.c ****     indev->cursor = cur_obj;
 201:Drivers/lvgl/lvgl/src/core/lv_indev.c ****     lv_obj_set_parent(indev->cursor, lv_disp_get_layer_sys(indev->driver->disp));
 202:Drivers/lvgl/lvgl/src/core/lv_indev.c ****     lv_obj_set_pos(indev->cursor, indev->proc.types.pointer.act_point.x, indev->proc.types.pointer.
 203:Drivers/lvgl/lvgl/src/core/lv_indev.c ****     lv_obj_clear_flag(indev->cursor, LV_OBJ_FLAG_CLICKABLE);
 204:Drivers/lvgl/lvgl/src/core/lv_indev.c ****     lv_obj_add_flag(indev->cursor, LV_OBJ_FLAG_IGNORE_LAYOUT | LV_OBJ_FLAG_FLOATING);
ARM GAS  /tmp/ccDoLsau.s 			page 5


 205:Drivers/lvgl/lvgl/src/core/lv_indev.c **** }
 206:Drivers/lvgl/lvgl/src/core/lv_indev.c **** 
 207:Drivers/lvgl/lvgl/src/core/lv_indev.c **** void lv_indev_set_group(lv_indev_t * indev, lv_group_t * group)
 208:Drivers/lvgl/lvgl/src/core/lv_indev.c **** {
 209:Drivers/lvgl/lvgl/src/core/lv_indev.c ****     if(indev->driver->type == LV_INDEV_TYPE_KEYPAD || indev->driver->type == LV_INDEV_TYPE_ENCODER)
 210:Drivers/lvgl/lvgl/src/core/lv_indev.c ****         indev->group = group;
 211:Drivers/lvgl/lvgl/src/core/lv_indev.c ****     }
 212:Drivers/lvgl/lvgl/src/core/lv_indev.c **** }
 213:Drivers/lvgl/lvgl/src/core/lv_indev.c **** 
 214:Drivers/lvgl/lvgl/src/core/lv_indev.c **** void lv_indev_set_button_points(lv_indev_t * indev, const lv_point_t points[])
 215:Drivers/lvgl/lvgl/src/core/lv_indev.c **** {
 216:Drivers/lvgl/lvgl/src/core/lv_indev.c ****     if(indev->driver->type == LV_INDEV_TYPE_BUTTON) {
 217:Drivers/lvgl/lvgl/src/core/lv_indev.c ****         indev->btn_points = points;
 218:Drivers/lvgl/lvgl/src/core/lv_indev.c ****     }
 219:Drivers/lvgl/lvgl/src/core/lv_indev.c **** }
 220:Drivers/lvgl/lvgl/src/core/lv_indev.c **** 
 221:Drivers/lvgl/lvgl/src/core/lv_indev.c **** void lv_indev_get_point(const lv_indev_t * indev, lv_point_t * point)
 222:Drivers/lvgl/lvgl/src/core/lv_indev.c **** {
 223:Drivers/lvgl/lvgl/src/core/lv_indev.c ****     if(indev == NULL) {
 224:Drivers/lvgl/lvgl/src/core/lv_indev.c ****         point->x = 0;
 225:Drivers/lvgl/lvgl/src/core/lv_indev.c ****         point->y = 0;
 226:Drivers/lvgl/lvgl/src/core/lv_indev.c ****         return;
 227:Drivers/lvgl/lvgl/src/core/lv_indev.c ****     }
 228:Drivers/lvgl/lvgl/src/core/lv_indev.c ****     if(indev->driver->type != LV_INDEV_TYPE_POINTER && indev->driver->type != LV_INDEV_TYPE_BUTTON)
 229:Drivers/lvgl/lvgl/src/core/lv_indev.c ****         point->x = -1;
 230:Drivers/lvgl/lvgl/src/core/lv_indev.c ****         point->y = -1;
 231:Drivers/lvgl/lvgl/src/core/lv_indev.c ****     }
 232:Drivers/lvgl/lvgl/src/core/lv_indev.c ****     else {
 233:Drivers/lvgl/lvgl/src/core/lv_indev.c ****         point->x = indev->proc.types.pointer.act_point.x;
 234:Drivers/lvgl/lvgl/src/core/lv_indev.c ****         point->y = indev->proc.types.pointer.act_point.y;
 235:Drivers/lvgl/lvgl/src/core/lv_indev.c ****     }
 236:Drivers/lvgl/lvgl/src/core/lv_indev.c **** }
 237:Drivers/lvgl/lvgl/src/core/lv_indev.c **** 
 238:Drivers/lvgl/lvgl/src/core/lv_indev.c **** lv_dir_t lv_indev_get_gesture_dir(const lv_indev_t * indev)
 239:Drivers/lvgl/lvgl/src/core/lv_indev.c **** {
 240:Drivers/lvgl/lvgl/src/core/lv_indev.c ****     return indev->proc.types.pointer.gesture_dir;
 241:Drivers/lvgl/lvgl/src/core/lv_indev.c **** }
 242:Drivers/lvgl/lvgl/src/core/lv_indev.c **** 
 243:Drivers/lvgl/lvgl/src/core/lv_indev.c **** uint32_t lv_indev_get_key(const lv_indev_t * indev)
 244:Drivers/lvgl/lvgl/src/core/lv_indev.c **** {
 245:Drivers/lvgl/lvgl/src/core/lv_indev.c ****     if(indev->driver->type != LV_INDEV_TYPE_KEYPAD)
 246:Drivers/lvgl/lvgl/src/core/lv_indev.c ****         return 0;
 247:Drivers/lvgl/lvgl/src/core/lv_indev.c ****     else
 248:Drivers/lvgl/lvgl/src/core/lv_indev.c ****         return indev->proc.types.keypad.last_key;
 249:Drivers/lvgl/lvgl/src/core/lv_indev.c **** }
 250:Drivers/lvgl/lvgl/src/core/lv_indev.c **** 
 251:Drivers/lvgl/lvgl/src/core/lv_indev.c **** lv_dir_t lv_indev_get_scroll_dir(const lv_indev_t * indev)
 252:Drivers/lvgl/lvgl/src/core/lv_indev.c **** {
 253:Drivers/lvgl/lvgl/src/core/lv_indev.c ****     if(indev == NULL) return false;
 254:Drivers/lvgl/lvgl/src/core/lv_indev.c ****     if(indev->driver->type != LV_INDEV_TYPE_POINTER && indev->driver->type != LV_INDEV_TYPE_BUTTON)
 255:Drivers/lvgl/lvgl/src/core/lv_indev.c ****     return indev->proc.types.pointer.scroll_dir;
 256:Drivers/lvgl/lvgl/src/core/lv_indev.c **** }
 257:Drivers/lvgl/lvgl/src/core/lv_indev.c **** 
 258:Drivers/lvgl/lvgl/src/core/lv_indev.c **** lv_obj_t * lv_indev_get_scroll_obj(const lv_indev_t * indev)
 259:Drivers/lvgl/lvgl/src/core/lv_indev.c **** {
 260:Drivers/lvgl/lvgl/src/core/lv_indev.c ****     if(indev == NULL) return NULL;
 261:Drivers/lvgl/lvgl/src/core/lv_indev.c ****     if(indev->driver->type != LV_INDEV_TYPE_POINTER && indev->driver->type != LV_INDEV_TYPE_BUTTON)
ARM GAS  /tmp/ccDoLsau.s 			page 6


 262:Drivers/lvgl/lvgl/src/core/lv_indev.c ****     return indev->proc.types.pointer.scroll_obj;
 263:Drivers/lvgl/lvgl/src/core/lv_indev.c **** }
 264:Drivers/lvgl/lvgl/src/core/lv_indev.c **** 
 265:Drivers/lvgl/lvgl/src/core/lv_indev.c **** void lv_indev_get_vect(const lv_indev_t * indev, lv_point_t * point)
 266:Drivers/lvgl/lvgl/src/core/lv_indev.c **** {
 267:Drivers/lvgl/lvgl/src/core/lv_indev.c ****     point->x = 0;
 268:Drivers/lvgl/lvgl/src/core/lv_indev.c ****     point->y = 0;
 269:Drivers/lvgl/lvgl/src/core/lv_indev.c **** 
 270:Drivers/lvgl/lvgl/src/core/lv_indev.c ****     if(indev == NULL) return;
 271:Drivers/lvgl/lvgl/src/core/lv_indev.c **** 
 272:Drivers/lvgl/lvgl/src/core/lv_indev.c ****     if(indev->driver->type == LV_INDEV_TYPE_POINTER || indev->driver->type == LV_INDEV_TYPE_BUTTON)
 273:Drivers/lvgl/lvgl/src/core/lv_indev.c ****         point->x = indev->proc.types.pointer.vect.x;
 274:Drivers/lvgl/lvgl/src/core/lv_indev.c ****         point->y = indev->proc.types.pointer.vect.y;
 275:Drivers/lvgl/lvgl/src/core/lv_indev.c ****     }
 276:Drivers/lvgl/lvgl/src/core/lv_indev.c **** }
 277:Drivers/lvgl/lvgl/src/core/lv_indev.c **** 
 278:Drivers/lvgl/lvgl/src/core/lv_indev.c **** void lv_indev_wait_release(lv_indev_t * indev)
 279:Drivers/lvgl/lvgl/src/core/lv_indev.c **** {
 280:Drivers/lvgl/lvgl/src/core/lv_indev.c ****     if(indev == NULL)return;
 281:Drivers/lvgl/lvgl/src/core/lv_indev.c ****     indev->proc.wait_until_release = 1;
 282:Drivers/lvgl/lvgl/src/core/lv_indev.c **** }
 283:Drivers/lvgl/lvgl/src/core/lv_indev.c **** 
 284:Drivers/lvgl/lvgl/src/core/lv_indev.c **** lv_obj_t * lv_indev_get_obj_act(void)
 285:Drivers/lvgl/lvgl/src/core/lv_indev.c **** {
 286:Drivers/lvgl/lvgl/src/core/lv_indev.c ****     return indev_obj_act;
 287:Drivers/lvgl/lvgl/src/core/lv_indev.c **** }
 288:Drivers/lvgl/lvgl/src/core/lv_indev.c **** 
 289:Drivers/lvgl/lvgl/src/core/lv_indev.c **** lv_timer_t * lv_indev_get_read_timer(lv_disp_t * indev)
 290:Drivers/lvgl/lvgl/src/core/lv_indev.c **** {
 291:Drivers/lvgl/lvgl/src/core/lv_indev.c ****     if(!indev) {
 292:Drivers/lvgl/lvgl/src/core/lv_indev.c ****         LV_LOG_WARN("lv_indev_get_read_timer: indev was NULL");
 293:Drivers/lvgl/lvgl/src/core/lv_indev.c ****         return NULL;
 294:Drivers/lvgl/lvgl/src/core/lv_indev.c ****     }
 295:Drivers/lvgl/lvgl/src/core/lv_indev.c **** 
 296:Drivers/lvgl/lvgl/src/core/lv_indev.c ****     return indev->refr_timer;
 297:Drivers/lvgl/lvgl/src/core/lv_indev.c **** }
 298:Drivers/lvgl/lvgl/src/core/lv_indev.c **** 
 299:Drivers/lvgl/lvgl/src/core/lv_indev.c **** 
 300:Drivers/lvgl/lvgl/src/core/lv_indev.c **** lv_obj_t * lv_indev_search_obj(lv_obj_t * obj, lv_point_t * point)
 301:Drivers/lvgl/lvgl/src/core/lv_indev.c **** {
 302:Drivers/lvgl/lvgl/src/core/lv_indev.c ****     lv_obj_t * found_p = NULL;
 303:Drivers/lvgl/lvgl/src/core/lv_indev.c **** 
 304:Drivers/lvgl/lvgl/src/core/lv_indev.c ****     /*If this obj is hidden the children are hidden too so return immediately*/
 305:Drivers/lvgl/lvgl/src/core/lv_indev.c ****     if(lv_obj_has_flag(obj, LV_OBJ_FLAG_HIDDEN)) return NULL;
 306:Drivers/lvgl/lvgl/src/core/lv_indev.c **** 
 307:Drivers/lvgl/lvgl/src/core/lv_indev.c ****     lv_point_t p_trans = *point;
 308:Drivers/lvgl/lvgl/src/core/lv_indev.c ****     lv_obj_transform_point(obj, &p_trans, false, true);
 309:Drivers/lvgl/lvgl/src/core/lv_indev.c **** 
 310:Drivers/lvgl/lvgl/src/core/lv_indev.c ****     bool hit_test_ok = lv_obj_hit_test(obj, &p_trans);
 311:Drivers/lvgl/lvgl/src/core/lv_indev.c **** 
 312:Drivers/lvgl/lvgl/src/core/lv_indev.c ****     /*If the point is on this object or has overflow visible check its children too*/
 313:Drivers/lvgl/lvgl/src/core/lv_indev.c ****     if(_lv_area_is_point_on(&obj->coords, &p_trans, 0) || lv_obj_has_flag(obj, LV_OBJ_FLAG_OVERFLOW
 314:Drivers/lvgl/lvgl/src/core/lv_indev.c ****         int32_t i;
 315:Drivers/lvgl/lvgl/src/core/lv_indev.c ****         uint32_t child_cnt = lv_obj_get_child_cnt(obj);
 316:Drivers/lvgl/lvgl/src/core/lv_indev.c **** 
 317:Drivers/lvgl/lvgl/src/core/lv_indev.c ****         /*If a child matches use it*/
 318:Drivers/lvgl/lvgl/src/core/lv_indev.c ****         for(i = child_cnt - 1; i >= 0; i--) {
ARM GAS  /tmp/ccDoLsau.s 			page 7


 319:Drivers/lvgl/lvgl/src/core/lv_indev.c ****             lv_obj_t * child = obj->spec_attr->children[i];
 320:Drivers/lvgl/lvgl/src/core/lv_indev.c ****             found_p = lv_indev_search_obj(child, &p_trans);
 321:Drivers/lvgl/lvgl/src/core/lv_indev.c ****             if(found_p) return found_p;
 322:Drivers/lvgl/lvgl/src/core/lv_indev.c ****         }
 323:Drivers/lvgl/lvgl/src/core/lv_indev.c ****     }
 324:Drivers/lvgl/lvgl/src/core/lv_indev.c **** 
 325:Drivers/lvgl/lvgl/src/core/lv_indev.c ****     /*If not return earlier for a clicked child and this obj's hittest was ok use it
 326:Drivers/lvgl/lvgl/src/core/lv_indev.c ****      *else return NULL*/
 327:Drivers/lvgl/lvgl/src/core/lv_indev.c ****     if(hit_test_ok) return obj;
 328:Drivers/lvgl/lvgl/src/core/lv_indev.c ****     else return NULL;
 329:Drivers/lvgl/lvgl/src/core/lv_indev.c **** }
 330:Drivers/lvgl/lvgl/src/core/lv_indev.c **** 
 331:Drivers/lvgl/lvgl/src/core/lv_indev.c **** /**********************
 332:Drivers/lvgl/lvgl/src/core/lv_indev.c ****  *   STATIC FUNCTIONS
 333:Drivers/lvgl/lvgl/src/core/lv_indev.c ****  **********************/
 334:Drivers/lvgl/lvgl/src/core/lv_indev.c **** 
 335:Drivers/lvgl/lvgl/src/core/lv_indev.c **** /**
 336:Drivers/lvgl/lvgl/src/core/lv_indev.c ****  * Process a new point from LV_INDEV_TYPE_POINTER input device
 337:Drivers/lvgl/lvgl/src/core/lv_indev.c ****  * @param i pointer to an input device
 338:Drivers/lvgl/lvgl/src/core/lv_indev.c ****  * @param data pointer to the data read from the input device
 339:Drivers/lvgl/lvgl/src/core/lv_indev.c ****  */
 340:Drivers/lvgl/lvgl/src/core/lv_indev.c **** static void indev_pointer_proc(lv_indev_t * i, lv_indev_data_t * data)
 341:Drivers/lvgl/lvgl/src/core/lv_indev.c **** {
 342:Drivers/lvgl/lvgl/src/core/lv_indev.c ****     lv_disp_t * disp = i->driver->disp;
 343:Drivers/lvgl/lvgl/src/core/lv_indev.c ****     /*Save the raw points so they can be used again in _lv_indev_read*/
 344:Drivers/lvgl/lvgl/src/core/lv_indev.c ****     i->proc.types.pointer.last_raw_point.x = data->point.x;
 345:Drivers/lvgl/lvgl/src/core/lv_indev.c ****     i->proc.types.pointer.last_raw_point.y = data->point.y;
 346:Drivers/lvgl/lvgl/src/core/lv_indev.c **** 
 347:Drivers/lvgl/lvgl/src/core/lv_indev.c ****     if(disp->driver->rotated == LV_DISP_ROT_180 || disp->driver->rotated == LV_DISP_ROT_270) {
 348:Drivers/lvgl/lvgl/src/core/lv_indev.c ****         data->point.x = disp->driver->hor_res - data->point.x - 1;
 349:Drivers/lvgl/lvgl/src/core/lv_indev.c ****         data->point.y = disp->driver->ver_res - data->point.y - 1;
 350:Drivers/lvgl/lvgl/src/core/lv_indev.c ****     }
 351:Drivers/lvgl/lvgl/src/core/lv_indev.c ****     if(disp->driver->rotated == LV_DISP_ROT_90 || disp->driver->rotated == LV_DISP_ROT_270) {
 352:Drivers/lvgl/lvgl/src/core/lv_indev.c ****         lv_coord_t tmp = data->point.y;
 353:Drivers/lvgl/lvgl/src/core/lv_indev.c ****         data->point.y = data->point.x;
 354:Drivers/lvgl/lvgl/src/core/lv_indev.c ****         data->point.x = disp->driver->ver_res - tmp - 1;
 355:Drivers/lvgl/lvgl/src/core/lv_indev.c ****     }
 356:Drivers/lvgl/lvgl/src/core/lv_indev.c **** 
 357:Drivers/lvgl/lvgl/src/core/lv_indev.c ****     /*Simple sanity check*/
 358:Drivers/lvgl/lvgl/src/core/lv_indev.c ****     if(data->point.x < 0) {
 359:Drivers/lvgl/lvgl/src/core/lv_indev.c ****         LV_LOG_WARN("X is %d which is smaller than zero", data->point.x);
 360:Drivers/lvgl/lvgl/src/core/lv_indev.c ****     }
 361:Drivers/lvgl/lvgl/src/core/lv_indev.c ****     if(data->point.x >= lv_disp_get_hor_res(i->driver->disp)) {
 362:Drivers/lvgl/lvgl/src/core/lv_indev.c ****         LV_LOG_WARN("X is %d which is greater than hor. res", data->point.x);
 363:Drivers/lvgl/lvgl/src/core/lv_indev.c ****     }
 364:Drivers/lvgl/lvgl/src/core/lv_indev.c ****     if(data->point.y < 0) {
 365:Drivers/lvgl/lvgl/src/core/lv_indev.c ****         LV_LOG_WARN("Y is %d which is smaller than zero", data->point.y);
 366:Drivers/lvgl/lvgl/src/core/lv_indev.c ****     }
 367:Drivers/lvgl/lvgl/src/core/lv_indev.c ****     if(data->point.y >= lv_disp_get_ver_res(i->driver->disp)) {
 368:Drivers/lvgl/lvgl/src/core/lv_indev.c ****         LV_LOG_WARN("Y is %d which is greater than ver. res", data->point.y);
 369:Drivers/lvgl/lvgl/src/core/lv_indev.c ****     }
 370:Drivers/lvgl/lvgl/src/core/lv_indev.c **** 
 371:Drivers/lvgl/lvgl/src/core/lv_indev.c ****     /*Move the cursor if set and moved*/
 372:Drivers/lvgl/lvgl/src/core/lv_indev.c ****     if(i->cursor != NULL &&
 373:Drivers/lvgl/lvgl/src/core/lv_indev.c ****        (i->proc.types.pointer.last_point.x != data->point.x || i->proc.types.pointer.last_point.y !
 374:Drivers/lvgl/lvgl/src/core/lv_indev.c ****         lv_obj_set_pos(i->cursor, data->point.x, data->point.y);
 375:Drivers/lvgl/lvgl/src/core/lv_indev.c ****     }
ARM GAS  /tmp/ccDoLsau.s 			page 8


 376:Drivers/lvgl/lvgl/src/core/lv_indev.c **** 
 377:Drivers/lvgl/lvgl/src/core/lv_indev.c ****     i->proc.types.pointer.act_point.x = data->point.x;
 378:Drivers/lvgl/lvgl/src/core/lv_indev.c ****     i->proc.types.pointer.act_point.y = data->point.y;
 379:Drivers/lvgl/lvgl/src/core/lv_indev.c **** 
 380:Drivers/lvgl/lvgl/src/core/lv_indev.c ****     if(i->proc.state == LV_INDEV_STATE_PRESSED) {
 381:Drivers/lvgl/lvgl/src/core/lv_indev.c ****         indev_proc_press(&i->proc);
 382:Drivers/lvgl/lvgl/src/core/lv_indev.c ****     }
 383:Drivers/lvgl/lvgl/src/core/lv_indev.c ****     else {
 384:Drivers/lvgl/lvgl/src/core/lv_indev.c ****         indev_proc_release(&i->proc);
 385:Drivers/lvgl/lvgl/src/core/lv_indev.c ****     }
 386:Drivers/lvgl/lvgl/src/core/lv_indev.c **** 
 387:Drivers/lvgl/lvgl/src/core/lv_indev.c ****     i->proc.types.pointer.last_point.x = i->proc.types.pointer.act_point.x;
 388:Drivers/lvgl/lvgl/src/core/lv_indev.c ****     i->proc.types.pointer.last_point.y = i->proc.types.pointer.act_point.y;
 389:Drivers/lvgl/lvgl/src/core/lv_indev.c **** }
 390:Drivers/lvgl/lvgl/src/core/lv_indev.c **** 
 391:Drivers/lvgl/lvgl/src/core/lv_indev.c **** /**
 392:Drivers/lvgl/lvgl/src/core/lv_indev.c ****  * Process a new point from LV_INDEV_TYPE_KEYPAD input device
 393:Drivers/lvgl/lvgl/src/core/lv_indev.c ****  * @param i pointer to an input device
 394:Drivers/lvgl/lvgl/src/core/lv_indev.c ****  * @param data pointer to the data read from the input device
 395:Drivers/lvgl/lvgl/src/core/lv_indev.c ****  */
 396:Drivers/lvgl/lvgl/src/core/lv_indev.c **** static void indev_keypad_proc(lv_indev_t * i, lv_indev_data_t * data)
 397:Drivers/lvgl/lvgl/src/core/lv_indev.c **** {
 398:Drivers/lvgl/lvgl/src/core/lv_indev.c ****     if(data->state == LV_INDEV_STATE_PRESSED && i->proc.wait_until_release) return;
 399:Drivers/lvgl/lvgl/src/core/lv_indev.c **** 
 400:Drivers/lvgl/lvgl/src/core/lv_indev.c ****     if(i->proc.wait_until_release) {
 401:Drivers/lvgl/lvgl/src/core/lv_indev.c ****         i->proc.wait_until_release      = 0;
 402:Drivers/lvgl/lvgl/src/core/lv_indev.c ****         i->proc.pr_timestamp            = 0;
 403:Drivers/lvgl/lvgl/src/core/lv_indev.c ****         i->proc.long_pr_sent            = 0;
 404:Drivers/lvgl/lvgl/src/core/lv_indev.c ****         i->proc.types.keypad.last_state = LV_INDEV_STATE_RELEASED; /*To skip the processing of rele
 405:Drivers/lvgl/lvgl/src/core/lv_indev.c ****     }
 406:Drivers/lvgl/lvgl/src/core/lv_indev.c **** 
 407:Drivers/lvgl/lvgl/src/core/lv_indev.c ****     lv_group_t * g = i->group;
 408:Drivers/lvgl/lvgl/src/core/lv_indev.c ****     if(g == NULL) return;
 409:Drivers/lvgl/lvgl/src/core/lv_indev.c **** 
 410:Drivers/lvgl/lvgl/src/core/lv_indev.c ****     indev_obj_act = lv_group_get_focused(g);
 411:Drivers/lvgl/lvgl/src/core/lv_indev.c ****     if(indev_obj_act == NULL) return;
 412:Drivers/lvgl/lvgl/src/core/lv_indev.c **** 
 413:Drivers/lvgl/lvgl/src/core/lv_indev.c ****     bool dis = lv_obj_has_state(indev_obj_act, LV_STATE_DISABLED);
 414:Drivers/lvgl/lvgl/src/core/lv_indev.c **** 
 415:Drivers/lvgl/lvgl/src/core/lv_indev.c ****     /*Save the last key to compare it with the current latter on RELEASE*/
 416:Drivers/lvgl/lvgl/src/core/lv_indev.c ****     uint32_t prev_key = i->proc.types.keypad.last_key;
 417:Drivers/lvgl/lvgl/src/core/lv_indev.c **** 
 418:Drivers/lvgl/lvgl/src/core/lv_indev.c ****     /*Save the last key.
 419:Drivers/lvgl/lvgl/src/core/lv_indev.c ****      *It must be done here else `lv_indev_get_key` will return the last key in events*/
 420:Drivers/lvgl/lvgl/src/core/lv_indev.c ****     i->proc.types.keypad.last_key = data->key;
 421:Drivers/lvgl/lvgl/src/core/lv_indev.c **** 
 422:Drivers/lvgl/lvgl/src/core/lv_indev.c ****     /*Save the previous state so we can detect state changes below and also set the last state now
 423:Drivers/lvgl/lvgl/src/core/lv_indev.c ****      *so if any event handler on the way returns `LV_RES_INV` the last state is remembered
 424:Drivers/lvgl/lvgl/src/core/lv_indev.c ****      *for the next time*/
 425:Drivers/lvgl/lvgl/src/core/lv_indev.c ****     uint32_t prev_state             = i->proc.types.keypad.last_state;
 426:Drivers/lvgl/lvgl/src/core/lv_indev.c ****     i->proc.types.keypad.last_state = data->state;
 427:Drivers/lvgl/lvgl/src/core/lv_indev.c **** 
 428:Drivers/lvgl/lvgl/src/core/lv_indev.c ****     /*Key press happened*/
 429:Drivers/lvgl/lvgl/src/core/lv_indev.c ****     if(data->state == LV_INDEV_STATE_PRESSED && prev_state == LV_INDEV_STATE_RELEASED) {
 430:Drivers/lvgl/lvgl/src/core/lv_indev.c ****         LV_LOG_INFO("%" LV_PRIu32 " key is pressed", data->key);
 431:Drivers/lvgl/lvgl/src/core/lv_indev.c ****         i->proc.pr_timestamp = lv_tick_get();
 432:Drivers/lvgl/lvgl/src/core/lv_indev.c **** 
ARM GAS  /tmp/ccDoLsau.s 			page 9


 433:Drivers/lvgl/lvgl/src/core/lv_indev.c ****         /*Move the focus on NEXT*/
 434:Drivers/lvgl/lvgl/src/core/lv_indev.c ****         if(data->key == LV_KEY_NEXT) {
 435:Drivers/lvgl/lvgl/src/core/lv_indev.c ****             lv_group_set_editing(g, false); /*Editing is not used by KEYPAD is be sure it is disabl
 436:Drivers/lvgl/lvgl/src/core/lv_indev.c ****             lv_group_focus_next(g);
 437:Drivers/lvgl/lvgl/src/core/lv_indev.c ****             if(indev_reset_check(&i->proc)) return;
 438:Drivers/lvgl/lvgl/src/core/lv_indev.c ****         }
 439:Drivers/lvgl/lvgl/src/core/lv_indev.c ****         /*Move the focus on PREV*/
 440:Drivers/lvgl/lvgl/src/core/lv_indev.c ****         else if(data->key == LV_KEY_PREV) {
 441:Drivers/lvgl/lvgl/src/core/lv_indev.c ****             lv_group_set_editing(g, false); /*Editing is not used by KEYPAD is be sure it is disabl
 442:Drivers/lvgl/lvgl/src/core/lv_indev.c ****             lv_group_focus_prev(g);
 443:Drivers/lvgl/lvgl/src/core/lv_indev.c ****             if(indev_reset_check(&i->proc)) return;
 444:Drivers/lvgl/lvgl/src/core/lv_indev.c ****         }
 445:Drivers/lvgl/lvgl/src/core/lv_indev.c ****         else if(!dis) {
 446:Drivers/lvgl/lvgl/src/core/lv_indev.c ****             /*Simulate a press on the object if ENTER was pressed*/
 447:Drivers/lvgl/lvgl/src/core/lv_indev.c ****             if(data->key == LV_KEY_ENTER) {
 448:Drivers/lvgl/lvgl/src/core/lv_indev.c ****                 /*Send the ENTER as a normal KEY*/
 449:Drivers/lvgl/lvgl/src/core/lv_indev.c ****                 lv_group_send_data(g, LV_KEY_ENTER);
 450:Drivers/lvgl/lvgl/src/core/lv_indev.c ****                 if(indev_reset_check(&i->proc)) return;
 451:Drivers/lvgl/lvgl/src/core/lv_indev.c **** 
 452:Drivers/lvgl/lvgl/src/core/lv_indev.c ****                 if(!dis) lv_event_send(indev_obj_act, LV_EVENT_PRESSED, indev_act);
 453:Drivers/lvgl/lvgl/src/core/lv_indev.c ****                 if(indev_reset_check(&i->proc)) return;
 454:Drivers/lvgl/lvgl/src/core/lv_indev.c ****             }
 455:Drivers/lvgl/lvgl/src/core/lv_indev.c ****             else if(data->key == LV_KEY_ESC) {
 456:Drivers/lvgl/lvgl/src/core/lv_indev.c ****                 /*Send the ESC as a normal KEY*/
 457:Drivers/lvgl/lvgl/src/core/lv_indev.c ****                 lv_group_send_data(g, LV_KEY_ESC);
 458:Drivers/lvgl/lvgl/src/core/lv_indev.c ****                 if(indev_reset_check(&i->proc)) return;
 459:Drivers/lvgl/lvgl/src/core/lv_indev.c **** 
 460:Drivers/lvgl/lvgl/src/core/lv_indev.c ****                 lv_event_send(indev_obj_act, LV_EVENT_CANCEL, indev_act);
 461:Drivers/lvgl/lvgl/src/core/lv_indev.c ****                 if(indev_reset_check(&i->proc)) return;
 462:Drivers/lvgl/lvgl/src/core/lv_indev.c ****             }
 463:Drivers/lvgl/lvgl/src/core/lv_indev.c ****             /*Just send other keys to the object (e.g. 'A' or `LV_GROUP_KEY_RIGHT`)*/
 464:Drivers/lvgl/lvgl/src/core/lv_indev.c ****             else {
 465:Drivers/lvgl/lvgl/src/core/lv_indev.c ****                 lv_group_send_data(g, data->key);
 466:Drivers/lvgl/lvgl/src/core/lv_indev.c ****                 if(indev_reset_check(&i->proc)) return;
 467:Drivers/lvgl/lvgl/src/core/lv_indev.c ****             }
 468:Drivers/lvgl/lvgl/src/core/lv_indev.c ****         }
 469:Drivers/lvgl/lvgl/src/core/lv_indev.c ****     }
 470:Drivers/lvgl/lvgl/src/core/lv_indev.c ****     /*Pressing*/
 471:Drivers/lvgl/lvgl/src/core/lv_indev.c ****     else if(!dis && data->state == LV_INDEV_STATE_PRESSED && prev_state == LV_INDEV_STATE_PRESSED) 
 472:Drivers/lvgl/lvgl/src/core/lv_indev.c **** 
 473:Drivers/lvgl/lvgl/src/core/lv_indev.c ****         if(data->key == LV_KEY_ENTER) {
 474:Drivers/lvgl/lvgl/src/core/lv_indev.c ****             lv_event_send(indev_obj_act, LV_EVENT_PRESSING, indev_act);
 475:Drivers/lvgl/lvgl/src/core/lv_indev.c ****             if(indev_reset_check(&i->proc)) return;
 476:Drivers/lvgl/lvgl/src/core/lv_indev.c ****         }
 477:Drivers/lvgl/lvgl/src/core/lv_indev.c **** 
 478:Drivers/lvgl/lvgl/src/core/lv_indev.c ****         /*Long press time has elapsed?*/
 479:Drivers/lvgl/lvgl/src/core/lv_indev.c ****         if(i->proc.long_pr_sent == 0 && lv_tick_elaps(i->proc.pr_timestamp) > i->driver->long_press
 480:Drivers/lvgl/lvgl/src/core/lv_indev.c ****             i->proc.long_pr_sent = 1;
 481:Drivers/lvgl/lvgl/src/core/lv_indev.c ****             if(data->key == LV_KEY_ENTER) {
 482:Drivers/lvgl/lvgl/src/core/lv_indev.c ****                 i->proc.longpr_rep_timestamp = lv_tick_get();
 483:Drivers/lvgl/lvgl/src/core/lv_indev.c ****                 lv_event_send(indev_obj_act, LV_EVENT_LONG_PRESSED, indev_act);
 484:Drivers/lvgl/lvgl/src/core/lv_indev.c ****                 if(indev_reset_check(&i->proc)) return;
 485:Drivers/lvgl/lvgl/src/core/lv_indev.c ****             }
 486:Drivers/lvgl/lvgl/src/core/lv_indev.c ****         }
 487:Drivers/lvgl/lvgl/src/core/lv_indev.c ****         /*Long press repeated time has elapsed?*/
 488:Drivers/lvgl/lvgl/src/core/lv_indev.c ****         else if(i->proc.long_pr_sent != 0 &&
 489:Drivers/lvgl/lvgl/src/core/lv_indev.c ****                 lv_tick_elaps(i->proc.longpr_rep_timestamp) > i->driver->long_press_repeat_time) {
ARM GAS  /tmp/ccDoLsau.s 			page 10


 490:Drivers/lvgl/lvgl/src/core/lv_indev.c **** 
 491:Drivers/lvgl/lvgl/src/core/lv_indev.c ****             i->proc.longpr_rep_timestamp = lv_tick_get();
 492:Drivers/lvgl/lvgl/src/core/lv_indev.c **** 
 493:Drivers/lvgl/lvgl/src/core/lv_indev.c ****             /*Send LONG_PRESS_REP on ENTER*/
 494:Drivers/lvgl/lvgl/src/core/lv_indev.c ****             if(data->key == LV_KEY_ENTER) {
 495:Drivers/lvgl/lvgl/src/core/lv_indev.c ****                 lv_event_send(indev_obj_act, LV_EVENT_LONG_PRESSED_REPEAT, indev_act);
 496:Drivers/lvgl/lvgl/src/core/lv_indev.c ****                 if(indev_reset_check(&i->proc)) return;
 497:Drivers/lvgl/lvgl/src/core/lv_indev.c ****             }
 498:Drivers/lvgl/lvgl/src/core/lv_indev.c ****             /*Move the focus on NEXT again*/
 499:Drivers/lvgl/lvgl/src/core/lv_indev.c ****             else if(data->key == LV_KEY_NEXT) {
 500:Drivers/lvgl/lvgl/src/core/lv_indev.c ****                 lv_group_set_editing(g, false); /*Editing is not used by KEYPAD is be sure it is di
 501:Drivers/lvgl/lvgl/src/core/lv_indev.c ****                 lv_group_focus_next(g);
 502:Drivers/lvgl/lvgl/src/core/lv_indev.c ****                 if(indev_reset_check(&i->proc)) return;
 503:Drivers/lvgl/lvgl/src/core/lv_indev.c ****             }
 504:Drivers/lvgl/lvgl/src/core/lv_indev.c ****             /*Move the focus on PREV again*/
 505:Drivers/lvgl/lvgl/src/core/lv_indev.c ****             else if(data->key == LV_KEY_PREV) {
 506:Drivers/lvgl/lvgl/src/core/lv_indev.c ****                 lv_group_set_editing(g, false); /*Editing is not used by KEYPAD is be sure it is di
 507:Drivers/lvgl/lvgl/src/core/lv_indev.c ****                 lv_group_focus_prev(g);
 508:Drivers/lvgl/lvgl/src/core/lv_indev.c ****                 if(indev_reset_check(&i->proc)) return;
 509:Drivers/lvgl/lvgl/src/core/lv_indev.c ****             }
 510:Drivers/lvgl/lvgl/src/core/lv_indev.c ****             /*Just send other keys again to the object (e.g. 'A' or `LV_GROUP_KEY_RIGHT)*/
 511:Drivers/lvgl/lvgl/src/core/lv_indev.c ****             else {
 512:Drivers/lvgl/lvgl/src/core/lv_indev.c ****                 lv_group_send_data(g, data->key);
 513:Drivers/lvgl/lvgl/src/core/lv_indev.c ****                 if(indev_reset_check(&i->proc)) return;
 514:Drivers/lvgl/lvgl/src/core/lv_indev.c ****             }
 515:Drivers/lvgl/lvgl/src/core/lv_indev.c ****         }
 516:Drivers/lvgl/lvgl/src/core/lv_indev.c ****     }
 517:Drivers/lvgl/lvgl/src/core/lv_indev.c ****     /*Release happened*/
 518:Drivers/lvgl/lvgl/src/core/lv_indev.c ****     else if(!dis && data->state == LV_INDEV_STATE_RELEASED && prev_state == LV_INDEV_STATE_PRESSED)
 519:Drivers/lvgl/lvgl/src/core/lv_indev.c ****         LV_LOG_INFO("%" LV_PRIu32 " key is released", data->key);
 520:Drivers/lvgl/lvgl/src/core/lv_indev.c ****         /*The user might clear the key when it was released. Always release the pressed key*/
 521:Drivers/lvgl/lvgl/src/core/lv_indev.c ****         data->key = prev_key;
 522:Drivers/lvgl/lvgl/src/core/lv_indev.c ****         if(data->key == LV_KEY_ENTER) {
 523:Drivers/lvgl/lvgl/src/core/lv_indev.c **** 
 524:Drivers/lvgl/lvgl/src/core/lv_indev.c ****             lv_event_send(indev_obj_act, LV_EVENT_RELEASED, indev_act);
 525:Drivers/lvgl/lvgl/src/core/lv_indev.c ****             if(indev_reset_check(&i->proc)) return;
 526:Drivers/lvgl/lvgl/src/core/lv_indev.c **** 
 527:Drivers/lvgl/lvgl/src/core/lv_indev.c ****             if(i->proc.long_pr_sent == 0) {
 528:Drivers/lvgl/lvgl/src/core/lv_indev.c ****                 lv_event_send(indev_obj_act, LV_EVENT_SHORT_CLICKED, indev_act);
 529:Drivers/lvgl/lvgl/src/core/lv_indev.c ****                 if(indev_reset_check(&i->proc)) return;
 530:Drivers/lvgl/lvgl/src/core/lv_indev.c ****             }
 531:Drivers/lvgl/lvgl/src/core/lv_indev.c **** 
 532:Drivers/lvgl/lvgl/src/core/lv_indev.c ****             lv_event_send(indev_obj_act, LV_EVENT_CLICKED, indev_act);
 533:Drivers/lvgl/lvgl/src/core/lv_indev.c ****             if(indev_reset_check(&i->proc)) return;
 534:Drivers/lvgl/lvgl/src/core/lv_indev.c **** 
 535:Drivers/lvgl/lvgl/src/core/lv_indev.c ****         }
 536:Drivers/lvgl/lvgl/src/core/lv_indev.c ****         i->proc.pr_timestamp = 0;
 537:Drivers/lvgl/lvgl/src/core/lv_indev.c ****         i->proc.long_pr_sent = 0;
 538:Drivers/lvgl/lvgl/src/core/lv_indev.c ****     }
 539:Drivers/lvgl/lvgl/src/core/lv_indev.c ****     indev_obj_act = NULL;
 540:Drivers/lvgl/lvgl/src/core/lv_indev.c **** }
 541:Drivers/lvgl/lvgl/src/core/lv_indev.c **** 
 542:Drivers/lvgl/lvgl/src/core/lv_indev.c **** /**
 543:Drivers/lvgl/lvgl/src/core/lv_indev.c ****  * Process a new point from LV_INDEV_TYPE_ENCODER input device
 544:Drivers/lvgl/lvgl/src/core/lv_indev.c ****  * @param i pointer to an input device
 545:Drivers/lvgl/lvgl/src/core/lv_indev.c ****  * @param data pointer to the data read from the input device
 546:Drivers/lvgl/lvgl/src/core/lv_indev.c ****  */
ARM GAS  /tmp/ccDoLsau.s 			page 11


 547:Drivers/lvgl/lvgl/src/core/lv_indev.c **** static void indev_encoder_proc(lv_indev_t * i, lv_indev_data_t * data)
 548:Drivers/lvgl/lvgl/src/core/lv_indev.c **** {
 549:Drivers/lvgl/lvgl/src/core/lv_indev.c ****     if(data->state == LV_INDEV_STATE_PRESSED && i->proc.wait_until_release) return;
 550:Drivers/lvgl/lvgl/src/core/lv_indev.c **** 
 551:Drivers/lvgl/lvgl/src/core/lv_indev.c ****     if(i->proc.wait_until_release) {
 552:Drivers/lvgl/lvgl/src/core/lv_indev.c ****         i->proc.wait_until_release      = 0;
 553:Drivers/lvgl/lvgl/src/core/lv_indev.c ****         i->proc.pr_timestamp            = 0;
 554:Drivers/lvgl/lvgl/src/core/lv_indev.c ****         i->proc.long_pr_sent            = 0;
 555:Drivers/lvgl/lvgl/src/core/lv_indev.c ****         i->proc.types.keypad.last_state = LV_INDEV_STATE_RELEASED; /*To skip the processing of rele
 556:Drivers/lvgl/lvgl/src/core/lv_indev.c ****     }
 557:Drivers/lvgl/lvgl/src/core/lv_indev.c **** 
 558:Drivers/lvgl/lvgl/src/core/lv_indev.c ****     /*Save the last keys before anything else.
 559:Drivers/lvgl/lvgl/src/core/lv_indev.c ****      *They need to be already saved if the function returns for any reason*/
 560:Drivers/lvgl/lvgl/src/core/lv_indev.c ****     lv_indev_state_t last_state     = i->proc.types.keypad.last_state;
 561:Drivers/lvgl/lvgl/src/core/lv_indev.c ****     i->proc.types.keypad.last_state = data->state;
 562:Drivers/lvgl/lvgl/src/core/lv_indev.c ****     i->proc.types.keypad.last_key   = data->key;
 563:Drivers/lvgl/lvgl/src/core/lv_indev.c **** 
 564:Drivers/lvgl/lvgl/src/core/lv_indev.c ****     lv_group_t * g = i->group;
 565:Drivers/lvgl/lvgl/src/core/lv_indev.c ****     if(g == NULL) return;
 566:Drivers/lvgl/lvgl/src/core/lv_indev.c **** 
 567:Drivers/lvgl/lvgl/src/core/lv_indev.c ****     indev_obj_act = lv_group_get_focused(g);
 568:Drivers/lvgl/lvgl/src/core/lv_indev.c ****     if(indev_obj_act == NULL) return;
 569:Drivers/lvgl/lvgl/src/core/lv_indev.c **** 
 570:Drivers/lvgl/lvgl/src/core/lv_indev.c ****     /*Process the steps they are valid only with released button*/
 571:Drivers/lvgl/lvgl/src/core/lv_indev.c ****     if(data->state != LV_INDEV_STATE_RELEASED) {
 572:Drivers/lvgl/lvgl/src/core/lv_indev.c ****         data->enc_diff = 0;
 573:Drivers/lvgl/lvgl/src/core/lv_indev.c ****     }
 574:Drivers/lvgl/lvgl/src/core/lv_indev.c **** 
 575:Drivers/lvgl/lvgl/src/core/lv_indev.c ****     /*Refresh the focused object. It might change due to lv_group_focus_prev/next*/
 576:Drivers/lvgl/lvgl/src/core/lv_indev.c ****     indev_obj_act = lv_group_get_focused(g);
 577:Drivers/lvgl/lvgl/src/core/lv_indev.c ****     if(indev_obj_act == NULL) return;
 578:Drivers/lvgl/lvgl/src/core/lv_indev.c **** 
 579:Drivers/lvgl/lvgl/src/core/lv_indev.c ****     /*Button press happened*/
 580:Drivers/lvgl/lvgl/src/core/lv_indev.c ****     if(data->state == LV_INDEV_STATE_PRESSED && last_state == LV_INDEV_STATE_RELEASED) {
 581:Drivers/lvgl/lvgl/src/core/lv_indev.c ****         LV_LOG_INFO("pressed");
 582:Drivers/lvgl/lvgl/src/core/lv_indev.c **** 
 583:Drivers/lvgl/lvgl/src/core/lv_indev.c ****         i->proc.pr_timestamp = lv_tick_get();
 584:Drivers/lvgl/lvgl/src/core/lv_indev.c **** 
 585:Drivers/lvgl/lvgl/src/core/lv_indev.c ****         if(data->key == LV_KEY_ENTER) {
 586:Drivers/lvgl/lvgl/src/core/lv_indev.c ****             bool editable_or_scrollable = lv_obj_is_editable(indev_obj_act) ||
 587:Drivers/lvgl/lvgl/src/core/lv_indev.c ****                                           lv_obj_has_flag(indev_obj_act, LV_OBJ_FLAG_SCROLLABLE);
 588:Drivers/lvgl/lvgl/src/core/lv_indev.c ****             if(lv_group_get_editing(g) == true || editable_or_scrollable == false) {
 589:Drivers/lvgl/lvgl/src/core/lv_indev.c ****                 lv_event_send(indev_obj_act, LV_EVENT_PRESSED, indev_act);
 590:Drivers/lvgl/lvgl/src/core/lv_indev.c ****                 if(indev_reset_check(&i->proc)) return;
 591:Drivers/lvgl/lvgl/src/core/lv_indev.c ****             }
 592:Drivers/lvgl/lvgl/src/core/lv_indev.c ****         }
 593:Drivers/lvgl/lvgl/src/core/lv_indev.c ****         else if(data->key == LV_KEY_LEFT) {
 594:Drivers/lvgl/lvgl/src/core/lv_indev.c ****             /*emulate encoder left*/
 595:Drivers/lvgl/lvgl/src/core/lv_indev.c ****             data->enc_diff--;
 596:Drivers/lvgl/lvgl/src/core/lv_indev.c ****         }
 597:Drivers/lvgl/lvgl/src/core/lv_indev.c ****         else if(data->key == LV_KEY_RIGHT) {
 598:Drivers/lvgl/lvgl/src/core/lv_indev.c ****             /*emulate encoder right*/
 599:Drivers/lvgl/lvgl/src/core/lv_indev.c ****             data->enc_diff++;
 600:Drivers/lvgl/lvgl/src/core/lv_indev.c ****         }
 601:Drivers/lvgl/lvgl/src/core/lv_indev.c ****         else if(data->key == LV_KEY_ESC) {
 602:Drivers/lvgl/lvgl/src/core/lv_indev.c ****             /*Send the ESC as a normal KEY*/
 603:Drivers/lvgl/lvgl/src/core/lv_indev.c ****             lv_group_send_data(g, LV_KEY_ESC);
ARM GAS  /tmp/ccDoLsau.s 			page 12


 604:Drivers/lvgl/lvgl/src/core/lv_indev.c ****             if(indev_reset_check(&i->proc)) return;
 605:Drivers/lvgl/lvgl/src/core/lv_indev.c **** 
 606:Drivers/lvgl/lvgl/src/core/lv_indev.c ****             lv_event_send(indev_obj_act, LV_EVENT_CANCEL, indev_act);
 607:Drivers/lvgl/lvgl/src/core/lv_indev.c ****             if(indev_reset_check(&i->proc)) return;
 608:Drivers/lvgl/lvgl/src/core/lv_indev.c ****         }
 609:Drivers/lvgl/lvgl/src/core/lv_indev.c ****         /*Just send other keys to the object (e.g. 'A' or `LV_GROUP_KEY_RIGHT`)*/
 610:Drivers/lvgl/lvgl/src/core/lv_indev.c ****         else {
 611:Drivers/lvgl/lvgl/src/core/lv_indev.c ****             lv_group_send_data(g, data->key);
 612:Drivers/lvgl/lvgl/src/core/lv_indev.c ****             if(indev_reset_check(&i->proc)) return;
 613:Drivers/lvgl/lvgl/src/core/lv_indev.c ****         }
 614:Drivers/lvgl/lvgl/src/core/lv_indev.c ****     }
 615:Drivers/lvgl/lvgl/src/core/lv_indev.c ****     /*Pressing*/
 616:Drivers/lvgl/lvgl/src/core/lv_indev.c ****     else if(data->state == LV_INDEV_STATE_PRESSED && last_state == LV_INDEV_STATE_PRESSED) {
 617:Drivers/lvgl/lvgl/src/core/lv_indev.c ****         /*Long press*/
 618:Drivers/lvgl/lvgl/src/core/lv_indev.c ****         if(i->proc.long_pr_sent == 0 && lv_tick_elaps(i->proc.pr_timestamp) > i->driver->long_press
 619:Drivers/lvgl/lvgl/src/core/lv_indev.c **** 
 620:Drivers/lvgl/lvgl/src/core/lv_indev.c ****             i->proc.long_pr_sent = 1;
 621:Drivers/lvgl/lvgl/src/core/lv_indev.c ****             i->proc.longpr_rep_timestamp = lv_tick_get();
 622:Drivers/lvgl/lvgl/src/core/lv_indev.c **** 
 623:Drivers/lvgl/lvgl/src/core/lv_indev.c ****             if(data->key == LV_KEY_ENTER) {
 624:Drivers/lvgl/lvgl/src/core/lv_indev.c ****                 bool editable_or_scrollable = lv_obj_is_editable(indev_obj_act) ||
 625:Drivers/lvgl/lvgl/src/core/lv_indev.c ****                                               lv_obj_has_flag(indev_obj_act, LV_OBJ_FLAG_SCROLLABLE
 626:Drivers/lvgl/lvgl/src/core/lv_indev.c **** 
 627:Drivers/lvgl/lvgl/src/core/lv_indev.c ****                 /*On enter long press toggle edit mode.*/
 628:Drivers/lvgl/lvgl/src/core/lv_indev.c ****                 if(editable_or_scrollable) {
 629:Drivers/lvgl/lvgl/src/core/lv_indev.c ****                     /*Don't leave edit mode if there is only one object (nowhere to navigate)*/
 630:Drivers/lvgl/lvgl/src/core/lv_indev.c ****                     if(lv_group_get_obj_count(g) > 1) {
 631:Drivers/lvgl/lvgl/src/core/lv_indev.c ****                         LV_LOG_INFO("toggling edit mode");
 632:Drivers/lvgl/lvgl/src/core/lv_indev.c ****                         lv_group_set_editing(g, lv_group_get_editing(g) ? false : true); /*Toggle e
 633:Drivers/lvgl/lvgl/src/core/lv_indev.c ****                         lv_obj_clear_state(indev_obj_act, LV_STATE_PRESSED);    /*Remove the presse
 634:Drivers/lvgl/lvgl/src/core/lv_indev.c ****                     }
 635:Drivers/lvgl/lvgl/src/core/lv_indev.c ****                 }
 636:Drivers/lvgl/lvgl/src/core/lv_indev.c ****                 /*If not editable then just send a long press Call the ancestor's event handler*/
 637:Drivers/lvgl/lvgl/src/core/lv_indev.c ****                 else {
 638:Drivers/lvgl/lvgl/src/core/lv_indev.c ****                     lv_event_send(indev_obj_act, LV_EVENT_LONG_PRESSED, indev_act);
 639:Drivers/lvgl/lvgl/src/core/lv_indev.c ****                     if(indev_reset_check(&i->proc)) return;
 640:Drivers/lvgl/lvgl/src/core/lv_indev.c ****                 }
 641:Drivers/lvgl/lvgl/src/core/lv_indev.c ****             }
 642:Drivers/lvgl/lvgl/src/core/lv_indev.c **** 
 643:Drivers/lvgl/lvgl/src/core/lv_indev.c ****             i->proc.long_pr_sent = 1;
 644:Drivers/lvgl/lvgl/src/core/lv_indev.c ****         }
 645:Drivers/lvgl/lvgl/src/core/lv_indev.c ****         /*Long press repeated time has elapsed?*/
 646:Drivers/lvgl/lvgl/src/core/lv_indev.c ****         else if(i->proc.long_pr_sent != 0 && lv_tick_elaps(i->proc.longpr_rep_timestamp) > i->drive
 647:Drivers/lvgl/lvgl/src/core/lv_indev.c **** 
 648:Drivers/lvgl/lvgl/src/core/lv_indev.c ****             i->proc.longpr_rep_timestamp = lv_tick_get();
 649:Drivers/lvgl/lvgl/src/core/lv_indev.c **** 
 650:Drivers/lvgl/lvgl/src/core/lv_indev.c ****             if(data->key == LV_KEY_ENTER) {
 651:Drivers/lvgl/lvgl/src/core/lv_indev.c ****                 lv_event_send(indev_obj_act, LV_EVENT_LONG_PRESSED_REPEAT, indev_act);
 652:Drivers/lvgl/lvgl/src/core/lv_indev.c ****                 if(indev_reset_check(&i->proc)) return;
 653:Drivers/lvgl/lvgl/src/core/lv_indev.c ****             }
 654:Drivers/lvgl/lvgl/src/core/lv_indev.c ****             else if(data->key == LV_KEY_LEFT) {
 655:Drivers/lvgl/lvgl/src/core/lv_indev.c ****                 /*emulate encoder left*/
 656:Drivers/lvgl/lvgl/src/core/lv_indev.c ****                 data->enc_diff--;
 657:Drivers/lvgl/lvgl/src/core/lv_indev.c ****             }
 658:Drivers/lvgl/lvgl/src/core/lv_indev.c ****             else if(data->key == LV_KEY_RIGHT) {
 659:Drivers/lvgl/lvgl/src/core/lv_indev.c ****                 /*emulate encoder right*/
 660:Drivers/lvgl/lvgl/src/core/lv_indev.c ****                 data->enc_diff++;
ARM GAS  /tmp/ccDoLsau.s 			page 13


 661:Drivers/lvgl/lvgl/src/core/lv_indev.c ****             }
 662:Drivers/lvgl/lvgl/src/core/lv_indev.c ****             else {
 663:Drivers/lvgl/lvgl/src/core/lv_indev.c ****                 lv_group_send_data(g, data->key);
 664:Drivers/lvgl/lvgl/src/core/lv_indev.c ****                 if(indev_reset_check(&i->proc)) return;
 665:Drivers/lvgl/lvgl/src/core/lv_indev.c ****             }
 666:Drivers/lvgl/lvgl/src/core/lv_indev.c **** 
 667:Drivers/lvgl/lvgl/src/core/lv_indev.c ****         }
 668:Drivers/lvgl/lvgl/src/core/lv_indev.c **** 
 669:Drivers/lvgl/lvgl/src/core/lv_indev.c ****     }
 670:Drivers/lvgl/lvgl/src/core/lv_indev.c ****     /*Release happened*/
 671:Drivers/lvgl/lvgl/src/core/lv_indev.c ****     else if(data->state == LV_INDEV_STATE_RELEASED && last_state == LV_INDEV_STATE_PRESSED) {
 672:Drivers/lvgl/lvgl/src/core/lv_indev.c ****         LV_LOG_INFO("released");
 673:Drivers/lvgl/lvgl/src/core/lv_indev.c **** 
 674:Drivers/lvgl/lvgl/src/core/lv_indev.c ****         if(data->key == LV_KEY_ENTER) {
 675:Drivers/lvgl/lvgl/src/core/lv_indev.c ****             bool editable_or_scrollable = lv_obj_is_editable(indev_obj_act) ||
 676:Drivers/lvgl/lvgl/src/core/lv_indev.c ****                                           lv_obj_has_flag(indev_obj_act, LV_OBJ_FLAG_SCROLLABLE);
 677:Drivers/lvgl/lvgl/src/core/lv_indev.c **** 
 678:Drivers/lvgl/lvgl/src/core/lv_indev.c ****             /*The button was released on a non-editable object. Just send enter*/
 679:Drivers/lvgl/lvgl/src/core/lv_indev.c ****             if(editable_or_scrollable == false) {
 680:Drivers/lvgl/lvgl/src/core/lv_indev.c ****                 lv_event_send(indev_obj_act, LV_EVENT_RELEASED, indev_act);
 681:Drivers/lvgl/lvgl/src/core/lv_indev.c ****                 if(indev_reset_check(&i->proc)) return;
 682:Drivers/lvgl/lvgl/src/core/lv_indev.c **** 
 683:Drivers/lvgl/lvgl/src/core/lv_indev.c ****                 if(i->proc.long_pr_sent == 0) lv_event_send(indev_obj_act, LV_EVENT_SHORT_CLICKED, 
 684:Drivers/lvgl/lvgl/src/core/lv_indev.c ****                 if(indev_reset_check(&i->proc)) return;
 685:Drivers/lvgl/lvgl/src/core/lv_indev.c **** 
 686:Drivers/lvgl/lvgl/src/core/lv_indev.c ****                 lv_event_send(indev_obj_act, LV_EVENT_CLICKED, indev_act);
 687:Drivers/lvgl/lvgl/src/core/lv_indev.c ****                 if(indev_reset_check(&i->proc)) return;
 688:Drivers/lvgl/lvgl/src/core/lv_indev.c **** 
 689:Drivers/lvgl/lvgl/src/core/lv_indev.c ****             }
 690:Drivers/lvgl/lvgl/src/core/lv_indev.c ****             /*An object is being edited and the button is released.*/
 691:Drivers/lvgl/lvgl/src/core/lv_indev.c ****             else if(lv_group_get_editing(g)) {
 692:Drivers/lvgl/lvgl/src/core/lv_indev.c ****                 /*Ignore long pressed enter release because it comes from mode switch*/
 693:Drivers/lvgl/lvgl/src/core/lv_indev.c ****                 if(!i->proc.long_pr_sent || lv_group_get_obj_count(g) <= 1) {
 694:Drivers/lvgl/lvgl/src/core/lv_indev.c ****                     lv_event_send(indev_obj_act, LV_EVENT_RELEASED, indev_act);
 695:Drivers/lvgl/lvgl/src/core/lv_indev.c ****                     if(indev_reset_check(&i->proc)) return;
 696:Drivers/lvgl/lvgl/src/core/lv_indev.c **** 
 697:Drivers/lvgl/lvgl/src/core/lv_indev.c ****                     lv_event_send(indev_obj_act, LV_EVENT_SHORT_CLICKED, indev_act);
 698:Drivers/lvgl/lvgl/src/core/lv_indev.c ****                     if(indev_reset_check(&i->proc)) return;
 699:Drivers/lvgl/lvgl/src/core/lv_indev.c **** 
 700:Drivers/lvgl/lvgl/src/core/lv_indev.c ****                     lv_event_send(indev_obj_act, LV_EVENT_CLICKED, indev_act);
 701:Drivers/lvgl/lvgl/src/core/lv_indev.c ****                     if(indev_reset_check(&i->proc)) return;
 702:Drivers/lvgl/lvgl/src/core/lv_indev.c **** 
 703:Drivers/lvgl/lvgl/src/core/lv_indev.c ****                     lv_group_send_data(g, LV_KEY_ENTER);
 704:Drivers/lvgl/lvgl/src/core/lv_indev.c ****                     if(indev_reset_check(&i->proc)) return;
 705:Drivers/lvgl/lvgl/src/core/lv_indev.c ****                 }
 706:Drivers/lvgl/lvgl/src/core/lv_indev.c ****                 else {
 707:Drivers/lvgl/lvgl/src/core/lv_indev.c ****                     lv_obj_clear_state(indev_obj_act, LV_STATE_PRESSED);    /*Remove the pressed st
 708:Drivers/lvgl/lvgl/src/core/lv_indev.c ****                 }
 709:Drivers/lvgl/lvgl/src/core/lv_indev.c ****             }
 710:Drivers/lvgl/lvgl/src/core/lv_indev.c ****             /*If the focused object is editable and now in navigate mode then on enter switch edit
 711:Drivers/lvgl/lvgl/src/core/lv_indev.c ****                mode*/
 712:Drivers/lvgl/lvgl/src/core/lv_indev.c ****             else if(!i->proc.long_pr_sent) {
 713:Drivers/lvgl/lvgl/src/core/lv_indev.c ****                 LV_LOG_INFO("entering edit mode");
 714:Drivers/lvgl/lvgl/src/core/lv_indev.c ****                 lv_group_set_editing(g, true); /*Set edit mode*/
 715:Drivers/lvgl/lvgl/src/core/lv_indev.c ****             }
 716:Drivers/lvgl/lvgl/src/core/lv_indev.c ****         }
 717:Drivers/lvgl/lvgl/src/core/lv_indev.c **** 
ARM GAS  /tmp/ccDoLsau.s 			page 14


 718:Drivers/lvgl/lvgl/src/core/lv_indev.c ****         i->proc.pr_timestamp = 0;
 719:Drivers/lvgl/lvgl/src/core/lv_indev.c ****         i->proc.long_pr_sent = 0;
 720:Drivers/lvgl/lvgl/src/core/lv_indev.c ****     }
 721:Drivers/lvgl/lvgl/src/core/lv_indev.c ****     indev_obj_act = NULL;
 722:Drivers/lvgl/lvgl/src/core/lv_indev.c **** 
 723:Drivers/lvgl/lvgl/src/core/lv_indev.c ****     /*if encoder steps or simulated steps via left/right keys*/
 724:Drivers/lvgl/lvgl/src/core/lv_indev.c ****     if(data->enc_diff != 0) {
 725:Drivers/lvgl/lvgl/src/core/lv_indev.c ****         /*In edit mode send LEFT/RIGHT keys*/
 726:Drivers/lvgl/lvgl/src/core/lv_indev.c ****         if(lv_group_get_editing(g)) {
 727:Drivers/lvgl/lvgl/src/core/lv_indev.c ****             LV_LOG_INFO("rotated by %+d (edit)", data->enc_diff);
 728:Drivers/lvgl/lvgl/src/core/lv_indev.c ****             int32_t s;
 729:Drivers/lvgl/lvgl/src/core/lv_indev.c ****             if(data->enc_diff < 0) {
 730:Drivers/lvgl/lvgl/src/core/lv_indev.c ****                 for(s = 0; s < -data->enc_diff; s++) {
 731:Drivers/lvgl/lvgl/src/core/lv_indev.c ****                     lv_group_send_data(g, LV_KEY_LEFT);
 732:Drivers/lvgl/lvgl/src/core/lv_indev.c ****                     if(indev_reset_check(&i->proc)) return;
 733:Drivers/lvgl/lvgl/src/core/lv_indev.c ****                 }
 734:Drivers/lvgl/lvgl/src/core/lv_indev.c ****             }
 735:Drivers/lvgl/lvgl/src/core/lv_indev.c ****             else if(data->enc_diff > 0) {
 736:Drivers/lvgl/lvgl/src/core/lv_indev.c ****                 for(s = 0; s < data->enc_diff; s++) {
 737:Drivers/lvgl/lvgl/src/core/lv_indev.c ****                     lv_group_send_data(g, LV_KEY_RIGHT);
 738:Drivers/lvgl/lvgl/src/core/lv_indev.c ****                     if(indev_reset_check(&i->proc)) return;
 739:Drivers/lvgl/lvgl/src/core/lv_indev.c ****                 }
 740:Drivers/lvgl/lvgl/src/core/lv_indev.c ****             }
 741:Drivers/lvgl/lvgl/src/core/lv_indev.c ****         }
 742:Drivers/lvgl/lvgl/src/core/lv_indev.c ****         /*In navigate mode focus on the next/prev objects*/
 743:Drivers/lvgl/lvgl/src/core/lv_indev.c ****         else {
 744:Drivers/lvgl/lvgl/src/core/lv_indev.c ****             LV_LOG_INFO("rotated by %+d (nav)", data->enc_diff);
 745:Drivers/lvgl/lvgl/src/core/lv_indev.c ****             int32_t s;
 746:Drivers/lvgl/lvgl/src/core/lv_indev.c ****             if(data->enc_diff < 0) {
 747:Drivers/lvgl/lvgl/src/core/lv_indev.c ****                 for(s = 0; s < -data->enc_diff; s++) {
 748:Drivers/lvgl/lvgl/src/core/lv_indev.c ****                     lv_group_focus_prev(g);
 749:Drivers/lvgl/lvgl/src/core/lv_indev.c ****                     if(indev_reset_check(&i->proc)) return;
 750:Drivers/lvgl/lvgl/src/core/lv_indev.c ****                 }
 751:Drivers/lvgl/lvgl/src/core/lv_indev.c ****             }
 752:Drivers/lvgl/lvgl/src/core/lv_indev.c ****             else if(data->enc_diff > 0) {
 753:Drivers/lvgl/lvgl/src/core/lv_indev.c ****                 for(s = 0; s < data->enc_diff; s++) {
 754:Drivers/lvgl/lvgl/src/core/lv_indev.c ****                     lv_group_focus_next(g);
 755:Drivers/lvgl/lvgl/src/core/lv_indev.c ****                     if(indev_reset_check(&i->proc)) return;
 756:Drivers/lvgl/lvgl/src/core/lv_indev.c ****                 }
 757:Drivers/lvgl/lvgl/src/core/lv_indev.c ****             }
 758:Drivers/lvgl/lvgl/src/core/lv_indev.c ****         }
 759:Drivers/lvgl/lvgl/src/core/lv_indev.c ****     }
 760:Drivers/lvgl/lvgl/src/core/lv_indev.c **** }
 761:Drivers/lvgl/lvgl/src/core/lv_indev.c **** 
 762:Drivers/lvgl/lvgl/src/core/lv_indev.c **** /**
 763:Drivers/lvgl/lvgl/src/core/lv_indev.c ****  * Process new points from an input device. indev->state.pressed has to be set
 764:Drivers/lvgl/lvgl/src/core/lv_indev.c ****  * @param indev pointer to an input device state
 765:Drivers/lvgl/lvgl/src/core/lv_indev.c ****  * @param x x coordinate of the next point
 766:Drivers/lvgl/lvgl/src/core/lv_indev.c ****  * @param y y coordinate of the next point
 767:Drivers/lvgl/lvgl/src/core/lv_indev.c ****  */
 768:Drivers/lvgl/lvgl/src/core/lv_indev.c **** static void indev_button_proc(lv_indev_t * i, lv_indev_data_t * data)
 769:Drivers/lvgl/lvgl/src/core/lv_indev.c **** {
 770:Drivers/lvgl/lvgl/src/core/lv_indev.c ****     /*Die gracefully if i->btn_points is NULL*/
 771:Drivers/lvgl/lvgl/src/core/lv_indev.c ****     if(i->btn_points == NULL) {
 772:Drivers/lvgl/lvgl/src/core/lv_indev.c ****         LV_LOG_WARN("btn_points is NULL");
 773:Drivers/lvgl/lvgl/src/core/lv_indev.c ****         return;
 774:Drivers/lvgl/lvgl/src/core/lv_indev.c ****     }
ARM GAS  /tmp/ccDoLsau.s 			page 15


 775:Drivers/lvgl/lvgl/src/core/lv_indev.c **** 
 776:Drivers/lvgl/lvgl/src/core/lv_indev.c ****     lv_coord_t x = i->btn_points[data->btn_id].x;
 777:Drivers/lvgl/lvgl/src/core/lv_indev.c ****     lv_coord_t y = i->btn_points[data->btn_id].y;
 778:Drivers/lvgl/lvgl/src/core/lv_indev.c **** 
 779:Drivers/lvgl/lvgl/src/core/lv_indev.c ****     static lv_indev_state_t prev_state = LV_INDEV_STATE_RELEASED;
 780:Drivers/lvgl/lvgl/src/core/lv_indev.c ****     if(prev_state != data->state) {
 781:Drivers/lvgl/lvgl/src/core/lv_indev.c ****         if(data->state == LV_INDEV_STATE_PRESSED) {
 782:Drivers/lvgl/lvgl/src/core/lv_indev.c ****             LV_LOG_INFO("button %" LV_PRIu32 " is pressed (x:%d y:%d)", data->btn_id, x, y);
 783:Drivers/lvgl/lvgl/src/core/lv_indev.c ****         }
 784:Drivers/lvgl/lvgl/src/core/lv_indev.c ****         else {
 785:Drivers/lvgl/lvgl/src/core/lv_indev.c ****             LV_LOG_INFO("button %" LV_PRIu32 " is released (x:%d y:%d)", data->btn_id, x, y);
 786:Drivers/lvgl/lvgl/src/core/lv_indev.c ****         }
 787:Drivers/lvgl/lvgl/src/core/lv_indev.c ****     }
 788:Drivers/lvgl/lvgl/src/core/lv_indev.c **** 
 789:Drivers/lvgl/lvgl/src/core/lv_indev.c ****     /*If a new point comes always make a release*/
 790:Drivers/lvgl/lvgl/src/core/lv_indev.c ****     if(data->state == LV_INDEV_STATE_PRESSED) {
 791:Drivers/lvgl/lvgl/src/core/lv_indev.c ****         if(i->proc.types.pointer.last_point.x != x ||
 792:Drivers/lvgl/lvgl/src/core/lv_indev.c ****            i->proc.types.pointer.last_point.y != y) {
 793:Drivers/lvgl/lvgl/src/core/lv_indev.c ****             indev_proc_release(&i->proc);
 794:Drivers/lvgl/lvgl/src/core/lv_indev.c ****         }
 795:Drivers/lvgl/lvgl/src/core/lv_indev.c ****     }
 796:Drivers/lvgl/lvgl/src/core/lv_indev.c **** 
 797:Drivers/lvgl/lvgl/src/core/lv_indev.c ****     if(indev_reset_check(&i->proc)) return;
 798:Drivers/lvgl/lvgl/src/core/lv_indev.c **** 
 799:Drivers/lvgl/lvgl/src/core/lv_indev.c ****     /*Save the new points*/
 800:Drivers/lvgl/lvgl/src/core/lv_indev.c ****     i->proc.types.pointer.act_point.x = x;
 801:Drivers/lvgl/lvgl/src/core/lv_indev.c ****     i->proc.types.pointer.act_point.y = y;
 802:Drivers/lvgl/lvgl/src/core/lv_indev.c **** 
 803:Drivers/lvgl/lvgl/src/core/lv_indev.c ****     if(data->state == LV_INDEV_STATE_PRESSED) indev_proc_press(&i->proc);
 804:Drivers/lvgl/lvgl/src/core/lv_indev.c ****     else indev_proc_release(&i->proc);
 805:Drivers/lvgl/lvgl/src/core/lv_indev.c **** 
 806:Drivers/lvgl/lvgl/src/core/lv_indev.c ****     if(indev_reset_check(&i->proc)) return;
 807:Drivers/lvgl/lvgl/src/core/lv_indev.c **** 
 808:Drivers/lvgl/lvgl/src/core/lv_indev.c ****     i->proc.types.pointer.last_point.x = i->proc.types.pointer.act_point.x;
 809:Drivers/lvgl/lvgl/src/core/lv_indev.c ****     i->proc.types.pointer.last_point.y = i->proc.types.pointer.act_point.y;
 810:Drivers/lvgl/lvgl/src/core/lv_indev.c **** }
 811:Drivers/lvgl/lvgl/src/core/lv_indev.c **** 
 812:Drivers/lvgl/lvgl/src/core/lv_indev.c **** /**
 813:Drivers/lvgl/lvgl/src/core/lv_indev.c ****  * Process the pressed state of LV_INDEV_TYPE_POINTER input devices
 814:Drivers/lvgl/lvgl/src/core/lv_indev.c ****  * @param indev pointer to an input device 'proc'
 815:Drivers/lvgl/lvgl/src/core/lv_indev.c ****  * @return LV_RES_OK: no indev reset required; LV_RES_INV: indev reset is required
 816:Drivers/lvgl/lvgl/src/core/lv_indev.c ****  */
 817:Drivers/lvgl/lvgl/src/core/lv_indev.c **** static void indev_proc_press(_lv_indev_proc_t * proc)
 818:Drivers/lvgl/lvgl/src/core/lv_indev.c **** {
 819:Drivers/lvgl/lvgl/src/core/lv_indev.c ****     LV_LOG_INFO("pressed at x:%d y:%d", proc->types.pointer.act_point.x, proc->types.pointer.act_po
 820:Drivers/lvgl/lvgl/src/core/lv_indev.c ****     indev_obj_act = proc->types.pointer.act_obj;
 821:Drivers/lvgl/lvgl/src/core/lv_indev.c **** 
 822:Drivers/lvgl/lvgl/src/core/lv_indev.c ****     if(proc->wait_until_release != 0) return;
 823:Drivers/lvgl/lvgl/src/core/lv_indev.c **** 
 824:Drivers/lvgl/lvgl/src/core/lv_indev.c ****     lv_disp_t * disp = indev_act->driver->disp;
 825:Drivers/lvgl/lvgl/src/core/lv_indev.c ****     bool new_obj_searched = false;
 826:Drivers/lvgl/lvgl/src/core/lv_indev.c **** 
 827:Drivers/lvgl/lvgl/src/core/lv_indev.c ****     /*If there is no last object then search*/
 828:Drivers/lvgl/lvgl/src/core/lv_indev.c ****     if(indev_obj_act == NULL) {
 829:Drivers/lvgl/lvgl/src/core/lv_indev.c ****         indev_obj_act = lv_indev_search_obj(lv_disp_get_layer_sys(disp), &proc->types.pointer.act_p
 830:Drivers/lvgl/lvgl/src/core/lv_indev.c ****         if(indev_obj_act == NULL) indev_obj_act = lv_indev_search_obj(lv_disp_get_layer_top(disp),
 831:Drivers/lvgl/lvgl/src/core/lv_indev.c ****                                                                           &proc->types.pointer.act_
ARM GAS  /tmp/ccDoLsau.s 			page 16


 832:Drivers/lvgl/lvgl/src/core/lv_indev.c ****         if(indev_obj_act == NULL) indev_obj_act = lv_indev_search_obj(lv_disp_get_scr_act(disp),
 833:Drivers/lvgl/lvgl/src/core/lv_indev.c ****                                                                           &proc->types.pointer.act_
 834:Drivers/lvgl/lvgl/src/core/lv_indev.c ****         new_obj_searched = true;
 835:Drivers/lvgl/lvgl/src/core/lv_indev.c ****     }
 836:Drivers/lvgl/lvgl/src/core/lv_indev.c ****     /*If there is last object but it is not scrolled and not protected also search*/
 837:Drivers/lvgl/lvgl/src/core/lv_indev.c ****     else if(proc->types.pointer.scroll_obj == NULL &&
 838:Drivers/lvgl/lvgl/src/core/lv_indev.c ****             lv_obj_has_flag(indev_obj_act, LV_OBJ_FLAG_PRESS_LOCK) == false) {
 839:Drivers/lvgl/lvgl/src/core/lv_indev.c ****         indev_obj_act = lv_indev_search_obj(lv_disp_get_layer_sys(disp), &proc->types.pointer.act_p
 840:Drivers/lvgl/lvgl/src/core/lv_indev.c ****         if(indev_obj_act == NULL) indev_obj_act = lv_indev_search_obj(lv_disp_get_layer_top(disp),
 841:Drivers/lvgl/lvgl/src/core/lv_indev.c ****                                                                           &proc->types.pointer.act_
 842:Drivers/lvgl/lvgl/src/core/lv_indev.c ****         if(indev_obj_act == NULL) indev_obj_act = lv_indev_search_obj(lv_disp_get_scr_act(disp),
 843:Drivers/lvgl/lvgl/src/core/lv_indev.c ****                                                                           &proc->types.pointer.act_
 844:Drivers/lvgl/lvgl/src/core/lv_indev.c ****         new_obj_searched = true;
 845:Drivers/lvgl/lvgl/src/core/lv_indev.c ****     }
 846:Drivers/lvgl/lvgl/src/core/lv_indev.c **** 
 847:Drivers/lvgl/lvgl/src/core/lv_indev.c ****     /*The last object might have scroll throw. Stop it manually*/
 848:Drivers/lvgl/lvgl/src/core/lv_indev.c ****     if(new_obj_searched && proc->types.pointer.last_obj) {
 849:Drivers/lvgl/lvgl/src/core/lv_indev.c ****         proc->types.pointer.scroll_throw_vect.x = 0;
 850:Drivers/lvgl/lvgl/src/core/lv_indev.c ****         proc->types.pointer.scroll_throw_vect.y = 0;
 851:Drivers/lvgl/lvgl/src/core/lv_indev.c ****         _lv_indev_scroll_throw_handler(proc);
 852:Drivers/lvgl/lvgl/src/core/lv_indev.c ****         if(indev_reset_check(proc)) return;
 853:Drivers/lvgl/lvgl/src/core/lv_indev.c ****     }
 854:Drivers/lvgl/lvgl/src/core/lv_indev.c **** 
 855:Drivers/lvgl/lvgl/src/core/lv_indev.c ****     /*If a new object was found reset some variables and send a pressed event handler*/
 856:Drivers/lvgl/lvgl/src/core/lv_indev.c ****     if(indev_obj_act != proc->types.pointer.act_obj) {
 857:Drivers/lvgl/lvgl/src/core/lv_indev.c ****         proc->types.pointer.last_point.x = proc->types.pointer.act_point.x;
 858:Drivers/lvgl/lvgl/src/core/lv_indev.c ****         proc->types.pointer.last_point.y = proc->types.pointer.act_point.y;
 859:Drivers/lvgl/lvgl/src/core/lv_indev.c **** 
 860:Drivers/lvgl/lvgl/src/core/lv_indev.c ****         /*If a new object found the previous was lost, so send a Call the ancestor's event handler*
 861:Drivers/lvgl/lvgl/src/core/lv_indev.c ****         if(proc->types.pointer.act_obj != NULL) {
 862:Drivers/lvgl/lvgl/src/core/lv_indev.c ****             /*Save the obj because in special cases `act_obj` can change in the Call the ancestor's
 863:Drivers/lvgl/lvgl/src/core/lv_indev.c ****             lv_obj_t * last_obj = proc->types.pointer.act_obj;
 864:Drivers/lvgl/lvgl/src/core/lv_indev.c **** 
 865:Drivers/lvgl/lvgl/src/core/lv_indev.c ****             lv_event_send(last_obj, LV_EVENT_PRESS_LOST, indev_act);
 866:Drivers/lvgl/lvgl/src/core/lv_indev.c ****             if(indev_reset_check(proc)) return;
 867:Drivers/lvgl/lvgl/src/core/lv_indev.c ****         }
 868:Drivers/lvgl/lvgl/src/core/lv_indev.c **** 
 869:Drivers/lvgl/lvgl/src/core/lv_indev.c ****         proc->types.pointer.act_obj  = indev_obj_act; /*Save the pressed object*/
 870:Drivers/lvgl/lvgl/src/core/lv_indev.c ****         proc->types.pointer.last_obj = indev_obj_act;
 871:Drivers/lvgl/lvgl/src/core/lv_indev.c **** 
 872:Drivers/lvgl/lvgl/src/core/lv_indev.c ****         if(indev_obj_act != NULL) {
 873:Drivers/lvgl/lvgl/src/core/lv_indev.c ****             /*Save the time when the obj pressed to count long press time.*/
 874:Drivers/lvgl/lvgl/src/core/lv_indev.c ****             proc->pr_timestamp                 = lv_tick_get();
 875:Drivers/lvgl/lvgl/src/core/lv_indev.c ****             proc->long_pr_sent                 = 0;
 876:Drivers/lvgl/lvgl/src/core/lv_indev.c ****             proc->types.pointer.scroll_sum.x     = 0;
 877:Drivers/lvgl/lvgl/src/core/lv_indev.c ****             proc->types.pointer.scroll_sum.y     = 0;
 878:Drivers/lvgl/lvgl/src/core/lv_indev.c ****             proc->types.pointer.scroll_dir = LV_DIR_NONE;
 879:Drivers/lvgl/lvgl/src/core/lv_indev.c ****             proc->types.pointer.gesture_dir = LV_DIR_NONE;
 880:Drivers/lvgl/lvgl/src/core/lv_indev.c ****             proc->types.pointer.gesture_sent   = 0;
 881:Drivers/lvgl/lvgl/src/core/lv_indev.c ****             proc->types.pointer.gesture_sum.x  = 0;
 882:Drivers/lvgl/lvgl/src/core/lv_indev.c ****             proc->types.pointer.gesture_sum.y  = 0;
 883:Drivers/lvgl/lvgl/src/core/lv_indev.c ****             proc->types.pointer.vect.x         = 0;
 884:Drivers/lvgl/lvgl/src/core/lv_indev.c ****             proc->types.pointer.vect.y         = 0;
 885:Drivers/lvgl/lvgl/src/core/lv_indev.c **** 
 886:Drivers/lvgl/lvgl/src/core/lv_indev.c ****             /*Call the ancestor's event handler about the press*/
 887:Drivers/lvgl/lvgl/src/core/lv_indev.c ****             lv_event_send(indev_obj_act, LV_EVENT_PRESSED, indev_act);
 888:Drivers/lvgl/lvgl/src/core/lv_indev.c ****             if(indev_reset_check(proc)) return;
ARM GAS  /tmp/ccDoLsau.s 			page 17


 889:Drivers/lvgl/lvgl/src/core/lv_indev.c **** 
 890:Drivers/lvgl/lvgl/src/core/lv_indev.c ****             if(indev_act->proc.wait_until_release) return;
 891:Drivers/lvgl/lvgl/src/core/lv_indev.c **** 
 892:Drivers/lvgl/lvgl/src/core/lv_indev.c ****             /*Handle focus*/
 893:Drivers/lvgl/lvgl/src/core/lv_indev.c ****             indev_click_focus(&indev_act->proc);
 894:Drivers/lvgl/lvgl/src/core/lv_indev.c ****             if(indev_reset_check(proc)) return;
 895:Drivers/lvgl/lvgl/src/core/lv_indev.c **** 
 896:Drivers/lvgl/lvgl/src/core/lv_indev.c ****         }
 897:Drivers/lvgl/lvgl/src/core/lv_indev.c ****     }
 898:Drivers/lvgl/lvgl/src/core/lv_indev.c **** 
 899:Drivers/lvgl/lvgl/src/core/lv_indev.c ****     /*Calculate the vector and apply a low pass filter: new value = 0.5 * old_value + 0.5 * new_val
 900:Drivers/lvgl/lvgl/src/core/lv_indev.c ****     proc->types.pointer.vect.x = proc->types.pointer.act_point.x - proc->types.pointer.last_point.x
 901:Drivers/lvgl/lvgl/src/core/lv_indev.c ****     proc->types.pointer.vect.y = proc->types.pointer.act_point.y - proc->types.pointer.last_point.y
 902:Drivers/lvgl/lvgl/src/core/lv_indev.c **** 
 903:Drivers/lvgl/lvgl/src/core/lv_indev.c ****     proc->types.pointer.scroll_throw_vect.x = (proc->types.pointer.scroll_throw_vect.x + proc->type
 904:Drivers/lvgl/lvgl/src/core/lv_indev.c ****     proc->types.pointer.scroll_throw_vect.y = (proc->types.pointer.scroll_throw_vect.y + proc->type
 905:Drivers/lvgl/lvgl/src/core/lv_indev.c **** 
 906:Drivers/lvgl/lvgl/src/core/lv_indev.c ****     proc->types.pointer.scroll_throw_vect_ori = proc->types.pointer.scroll_throw_vect;
 907:Drivers/lvgl/lvgl/src/core/lv_indev.c **** 
 908:Drivers/lvgl/lvgl/src/core/lv_indev.c ****     if(indev_obj_act) {
 909:Drivers/lvgl/lvgl/src/core/lv_indev.c ****         lv_event_send(indev_obj_act, LV_EVENT_PRESSING, indev_act);
 910:Drivers/lvgl/lvgl/src/core/lv_indev.c ****         if(indev_reset_check(proc)) return;
 911:Drivers/lvgl/lvgl/src/core/lv_indev.c **** 
 912:Drivers/lvgl/lvgl/src/core/lv_indev.c ****         if(indev_act->proc.wait_until_release) return;
 913:Drivers/lvgl/lvgl/src/core/lv_indev.c **** 
 914:Drivers/lvgl/lvgl/src/core/lv_indev.c ****         _lv_indev_scroll_handler(proc);
 915:Drivers/lvgl/lvgl/src/core/lv_indev.c ****         if(indev_reset_check(proc)) return;
 916:Drivers/lvgl/lvgl/src/core/lv_indev.c ****         indev_gesture(proc);
 917:Drivers/lvgl/lvgl/src/core/lv_indev.c ****         if(indev_reset_check(proc)) return;
 918:Drivers/lvgl/lvgl/src/core/lv_indev.c **** 
 919:Drivers/lvgl/lvgl/src/core/lv_indev.c ****         /*If there is no scrolling then check for long press time*/
 920:Drivers/lvgl/lvgl/src/core/lv_indev.c ****         if(proc->types.pointer.scroll_obj == NULL && proc->long_pr_sent == 0) {
 921:Drivers/lvgl/lvgl/src/core/lv_indev.c ****             /*Call the ancestor's event handler about the long press if enough time elapsed*/
 922:Drivers/lvgl/lvgl/src/core/lv_indev.c ****             if(lv_tick_elaps(proc->pr_timestamp) > indev_act->driver->long_press_time) {
 923:Drivers/lvgl/lvgl/src/core/lv_indev.c ****                 lv_event_send(indev_obj_act, LV_EVENT_LONG_PRESSED, indev_act);
 924:Drivers/lvgl/lvgl/src/core/lv_indev.c ****                 if(indev_reset_check(proc)) return;
 925:Drivers/lvgl/lvgl/src/core/lv_indev.c **** 
 926:Drivers/lvgl/lvgl/src/core/lv_indev.c ****                 /*Mark the Call the ancestor's event handler sending to do not send it again*/
 927:Drivers/lvgl/lvgl/src/core/lv_indev.c ****                 proc->long_pr_sent = 1;
 928:Drivers/lvgl/lvgl/src/core/lv_indev.c **** 
 929:Drivers/lvgl/lvgl/src/core/lv_indev.c ****                 /*Save the long press time stamp for the long press repeat handler*/
 930:Drivers/lvgl/lvgl/src/core/lv_indev.c ****                 proc->longpr_rep_timestamp = lv_tick_get();
 931:Drivers/lvgl/lvgl/src/core/lv_indev.c ****             }
 932:Drivers/lvgl/lvgl/src/core/lv_indev.c ****         }
 933:Drivers/lvgl/lvgl/src/core/lv_indev.c **** 
 934:Drivers/lvgl/lvgl/src/core/lv_indev.c ****         /*Send long press repeated Call the ancestor's event handler*/
 935:Drivers/lvgl/lvgl/src/core/lv_indev.c ****         if(proc->types.pointer.scroll_obj == NULL && proc->long_pr_sent == 1) {
 936:Drivers/lvgl/lvgl/src/core/lv_indev.c ****             /*Call the ancestor's event handler about the long press repeat if enough time elapsed*
 937:Drivers/lvgl/lvgl/src/core/lv_indev.c ****             if(lv_tick_elaps(proc->longpr_rep_timestamp) > indev_act->driver->long_press_repeat_tim
 938:Drivers/lvgl/lvgl/src/core/lv_indev.c ****                 lv_event_send(indev_obj_act, LV_EVENT_LONG_PRESSED_REPEAT, indev_act);
 939:Drivers/lvgl/lvgl/src/core/lv_indev.c ****                 if(indev_reset_check(proc)) return;
 940:Drivers/lvgl/lvgl/src/core/lv_indev.c ****                 proc->longpr_rep_timestamp = lv_tick_get();
 941:Drivers/lvgl/lvgl/src/core/lv_indev.c ****             }
 942:Drivers/lvgl/lvgl/src/core/lv_indev.c ****         }
 943:Drivers/lvgl/lvgl/src/core/lv_indev.c ****     }
 944:Drivers/lvgl/lvgl/src/core/lv_indev.c **** }
 945:Drivers/lvgl/lvgl/src/core/lv_indev.c **** 
ARM GAS  /tmp/ccDoLsau.s 			page 18


 946:Drivers/lvgl/lvgl/src/core/lv_indev.c **** /**
 947:Drivers/lvgl/lvgl/src/core/lv_indev.c ****  * Process the released state of LV_INDEV_TYPE_POINTER input devices
 948:Drivers/lvgl/lvgl/src/core/lv_indev.c ****  * @param proc pointer to an input device 'proc'
 949:Drivers/lvgl/lvgl/src/core/lv_indev.c ****  */
 950:Drivers/lvgl/lvgl/src/core/lv_indev.c **** static void indev_proc_release(_lv_indev_proc_t * proc)
 951:Drivers/lvgl/lvgl/src/core/lv_indev.c **** {
 952:Drivers/lvgl/lvgl/src/core/lv_indev.c ****     if(proc->wait_until_release != 0) {
 953:Drivers/lvgl/lvgl/src/core/lv_indev.c ****         lv_event_send(proc->types.pointer.act_obj, LV_EVENT_PRESS_LOST, indev_act);
 954:Drivers/lvgl/lvgl/src/core/lv_indev.c ****         if(indev_reset_check(proc)) return;
 955:Drivers/lvgl/lvgl/src/core/lv_indev.c **** 
 956:Drivers/lvgl/lvgl/src/core/lv_indev.c ****         proc->types.pointer.act_obj  = NULL;
 957:Drivers/lvgl/lvgl/src/core/lv_indev.c ****         proc->types.pointer.last_obj = NULL;
 958:Drivers/lvgl/lvgl/src/core/lv_indev.c ****         proc->pr_timestamp           = 0;
 959:Drivers/lvgl/lvgl/src/core/lv_indev.c ****         proc->longpr_rep_timestamp   = 0;
 960:Drivers/lvgl/lvgl/src/core/lv_indev.c ****         proc->wait_until_release     = 0;
 961:Drivers/lvgl/lvgl/src/core/lv_indev.c ****     }
 962:Drivers/lvgl/lvgl/src/core/lv_indev.c ****     indev_obj_act = proc->types.pointer.act_obj;
 963:Drivers/lvgl/lvgl/src/core/lv_indev.c ****     lv_obj_t * scroll_obj = proc->types.pointer.scroll_obj;
 964:Drivers/lvgl/lvgl/src/core/lv_indev.c **** 
 965:Drivers/lvgl/lvgl/src/core/lv_indev.c ****     /*Forget the act obj and send a released Call the ancestor's event handler*/
 966:Drivers/lvgl/lvgl/src/core/lv_indev.c ****     if(indev_obj_act) {
 967:Drivers/lvgl/lvgl/src/core/lv_indev.c ****         LV_LOG_INFO("released");
 968:Drivers/lvgl/lvgl/src/core/lv_indev.c **** 
 969:Drivers/lvgl/lvgl/src/core/lv_indev.c ****         /*Send RELEASE Call the ancestor's event handler and event*/
 970:Drivers/lvgl/lvgl/src/core/lv_indev.c ****         lv_event_send(indev_obj_act, LV_EVENT_RELEASED, indev_act);
 971:Drivers/lvgl/lvgl/src/core/lv_indev.c ****         if(indev_reset_check(proc)) return;
 972:Drivers/lvgl/lvgl/src/core/lv_indev.c **** 
 973:Drivers/lvgl/lvgl/src/core/lv_indev.c ****         /*Send CLICK if no scrolling*/
 974:Drivers/lvgl/lvgl/src/core/lv_indev.c ****         if(scroll_obj == NULL) {
 975:Drivers/lvgl/lvgl/src/core/lv_indev.c ****             if(proc->long_pr_sent == 0) {
 976:Drivers/lvgl/lvgl/src/core/lv_indev.c ****                 lv_event_send(indev_obj_act, LV_EVENT_SHORT_CLICKED, indev_act);
 977:Drivers/lvgl/lvgl/src/core/lv_indev.c ****                 if(indev_reset_check(proc)) return;
 978:Drivers/lvgl/lvgl/src/core/lv_indev.c ****             }
 979:Drivers/lvgl/lvgl/src/core/lv_indev.c **** 
 980:Drivers/lvgl/lvgl/src/core/lv_indev.c ****             lv_event_send(indev_obj_act, LV_EVENT_CLICKED, indev_act);
 981:Drivers/lvgl/lvgl/src/core/lv_indev.c ****             if(indev_reset_check(proc)) return;
 982:Drivers/lvgl/lvgl/src/core/lv_indev.c ****         }
 983:Drivers/lvgl/lvgl/src/core/lv_indev.c **** 
 984:Drivers/lvgl/lvgl/src/core/lv_indev.c ****         proc->types.pointer.act_obj = NULL;
 985:Drivers/lvgl/lvgl/src/core/lv_indev.c ****         proc->pr_timestamp          = 0;
 986:Drivers/lvgl/lvgl/src/core/lv_indev.c ****         proc->longpr_rep_timestamp  = 0;
 987:Drivers/lvgl/lvgl/src/core/lv_indev.c **** 
 988:Drivers/lvgl/lvgl/src/core/lv_indev.c **** 
 989:Drivers/lvgl/lvgl/src/core/lv_indev.c ****         /*Get the transformed vector with this object*/
 990:Drivers/lvgl/lvgl/src/core/lv_indev.c ****         if(scroll_obj) {
 991:Drivers/lvgl/lvgl/src/core/lv_indev.c ****             int16_t angle = 0;
 992:Drivers/lvgl/lvgl/src/core/lv_indev.c ****             int16_t zoom = 256;
 993:Drivers/lvgl/lvgl/src/core/lv_indev.c ****             lv_point_t pivot = { 0, 0 };
 994:Drivers/lvgl/lvgl/src/core/lv_indev.c ****             lv_obj_t * parent = scroll_obj;
 995:Drivers/lvgl/lvgl/src/core/lv_indev.c ****             while(parent) {
 996:Drivers/lvgl/lvgl/src/core/lv_indev.c ****                 angle += lv_obj_get_style_transform_angle(parent, 0);
 997:Drivers/lvgl/lvgl/src/core/lv_indev.c ****                 zoom *= (lv_obj_get_style_transform_zoom(parent, 0) / 256);
 998:Drivers/lvgl/lvgl/src/core/lv_indev.c ****                 parent = lv_obj_get_parent(parent);
 999:Drivers/lvgl/lvgl/src/core/lv_indev.c ****             }
1000:Drivers/lvgl/lvgl/src/core/lv_indev.c **** 
1001:Drivers/lvgl/lvgl/src/core/lv_indev.c ****             if(angle != 0 || zoom != LV_IMG_ZOOM_NONE) {
1002:Drivers/lvgl/lvgl/src/core/lv_indev.c ****                 angle = -angle;
ARM GAS  /tmp/ccDoLsau.s 			page 19


1003:Drivers/lvgl/lvgl/src/core/lv_indev.c ****                 zoom = (256 * 256) / zoom;
1004:Drivers/lvgl/lvgl/src/core/lv_indev.c ****                 lv_point_transform(&proc->types.pointer.scroll_throw_vect, angle, zoom, &pivot);
1005:Drivers/lvgl/lvgl/src/core/lv_indev.c ****                 lv_point_transform(&proc->types.pointer.scroll_throw_vect_ori, angle, zoom, &pivot)
1006:Drivers/lvgl/lvgl/src/core/lv_indev.c ****             }
1007:Drivers/lvgl/lvgl/src/core/lv_indev.c ****         }
1008:Drivers/lvgl/lvgl/src/core/lv_indev.c **** 
1009:Drivers/lvgl/lvgl/src/core/lv_indev.c ****     }
1010:Drivers/lvgl/lvgl/src/core/lv_indev.c **** 
1011:Drivers/lvgl/lvgl/src/core/lv_indev.c ****     /*The reset can be set in the Call the ancestor's event handler function.
1012:Drivers/lvgl/lvgl/src/core/lv_indev.c ****      * In case of reset query ignore the remaining parts.*/
1013:Drivers/lvgl/lvgl/src/core/lv_indev.c ****     if(scroll_obj) {
1014:Drivers/lvgl/lvgl/src/core/lv_indev.c ****         _lv_indev_scroll_throw_handler(proc);
1015:Drivers/lvgl/lvgl/src/core/lv_indev.c ****         if(indev_reset_check(proc)) return;
1016:Drivers/lvgl/lvgl/src/core/lv_indev.c ****     }
1017:Drivers/lvgl/lvgl/src/core/lv_indev.c **** }
1018:Drivers/lvgl/lvgl/src/core/lv_indev.c **** 
1019:Drivers/lvgl/lvgl/src/core/lv_indev.c **** /**
1020:Drivers/lvgl/lvgl/src/core/lv_indev.c ****  * Process a new point from LV_INDEV_TYPE_BUTTON input device
1021:Drivers/lvgl/lvgl/src/core/lv_indev.c ****  * @param i pointer to an input device
1022:Drivers/lvgl/lvgl/src/core/lv_indev.c ****  * @param data pointer to the data read from the input device
1023:Drivers/lvgl/lvgl/src/core/lv_indev.c ****  * Reset input device if a reset query has been sent to it
1024:Drivers/lvgl/lvgl/src/core/lv_indev.c ****  * @param indev pointer to an input device
1025:Drivers/lvgl/lvgl/src/core/lv_indev.c ****  */
1026:Drivers/lvgl/lvgl/src/core/lv_indev.c **** static void indev_proc_reset_query_handler(lv_indev_t * indev)
1027:Drivers/lvgl/lvgl/src/core/lv_indev.c **** {
  26              		.loc 1 1027 0
  27              		.cfi_startproc
  28              		@ args = 0, pretend = 0, frame = 0
  29              		@ frame_needed = 0, uses_anonymous_args = 0
  30              		@ link register save eliminated.
  31              	.LVL0:
1028:Drivers/lvgl/lvgl/src/core/lv_indev.c ****     if(indev->proc.reset_query) {
  32              		.loc 1 1028 0
  33 0000 4379     		ldrb	r3, [r0, #5]	@ zero_extendqisi2
  34 0002 13F0020F 		tst	r3, #2
  35 0006 1BD0     		beq	.L1
1029:Drivers/lvgl/lvgl/src/core/lv_indev.c ****         indev->proc.types.pointer.act_obj           = NULL;
  36              		.loc 1 1029 0
  37 0008 0023     		movs	r3, #0
  38 000a 8362     		str	r3, [r0, #40]
1030:Drivers/lvgl/lvgl/src/core/lv_indev.c ****         indev->proc.types.pointer.last_obj          = NULL;
  39              		.loc 1 1030 0
  40 000c C362     		str	r3, [r0, #44]
1031:Drivers/lvgl/lvgl/src/core/lv_indev.c ****         indev->proc.types.pointer.scroll_obj          = NULL;
  41              		.loc 1 1031 0
  42 000e 0363     		str	r3, [r0, #48]
1032:Drivers/lvgl/lvgl/src/core/lv_indev.c ****         indev->proc.long_pr_sent                    = 0;
  43              		.loc 1 1032 0
  44 0010 4279     		ldrb	r2, [r0, #5]	@ zero_extendqisi2
1033:Drivers/lvgl/lvgl/src/core/lv_indev.c ****         indev->proc.pr_timestamp                    = 0;
  45              		.loc 1 1033 0
  46 0012 8364     		str	r3, [r0, #72]
1034:Drivers/lvgl/lvgl/src/core/lv_indev.c ****         indev->proc.longpr_rep_timestamp            = 0;
  47              		.loc 1 1034 0
  48 0014 C364     		str	r3, [r0, #76]
1035:Drivers/lvgl/lvgl/src/core/lv_indev.c ****         indev->proc.types.pointer.scroll_sum.x        = 0;
  49              		.loc 1 1035 0
ARM GAS  /tmp/ccDoLsau.s 			page 20


  50 0016 8383     		strh	r3, [r0, #28]	@ movhi
1036:Drivers/lvgl/lvgl/src/core/lv_indev.c ****         indev->proc.types.pointer.scroll_sum.y        = 0;
  51              		.loc 1 1036 0
  52 0018 C383     		strh	r3, [r0, #30]	@ movhi
1037:Drivers/lvgl/lvgl/src/core/lv_indev.c ****         indev->proc.types.pointer.scroll_dir = LV_DIR_NONE;
  53              		.loc 1 1037 0
  54 001a 90F84410 		ldrb	r1, [r0, #68]	@ zero_extendqisi2
  55 001e 63F30301 		bfi	r1, r3, #0, #4
  56 0022 80F84410 		strb	r1, [r0, #68]
1038:Drivers/lvgl/lvgl/src/core/lv_indev.c ****         indev->proc.types.pointer.scroll_throw_vect.x = 0;
  57              		.loc 1 1038 0
  58 0026 0384     		strh	r3, [r0, #32]	@ movhi
1039:Drivers/lvgl/lvgl/src/core/lv_indev.c ****         indev->proc.types.pointer.scroll_throw_vect.y = 0;
  59              		.loc 1 1039 0
  60 0028 4384     		strh	r3, [r0, #34]	@ movhi
1040:Drivers/lvgl/lvgl/src/core/lv_indev.c ****         indev->proc.types.pointer.gesture_sum.x     = 0;
  61              		.loc 1 1040 0
  62 002a A0F84030 		strh	r3, [r0, #64]	@ movhi
1041:Drivers/lvgl/lvgl/src/core/lv_indev.c ****         indev->proc.types.pointer.gesture_sum.y     = 0;
  63              		.loc 1 1041 0
  64 002e A0F84230 		strh	r3, [r0, #66]	@ movhi
1042:Drivers/lvgl/lvgl/src/core/lv_indev.c ****         indev->proc.reset_query                     = 0;
  65              		.loc 1 1042 0
  66 0032 02F0FE02 		and	r2, r2, #254
  67 0036 63F34102 		bfi	r2, r3, #1, #1
  68 003a 4271     		strb	r2, [r0, #5]
1043:Drivers/lvgl/lvgl/src/core/lv_indev.c ****         indev_obj_act                               = NULL;
  69              		.loc 1 1043 0
  70 003c 014A     		ldr	r2, .L3
  71 003e 1360     		str	r3, [r2]
  72              	.L1:
1044:Drivers/lvgl/lvgl/src/core/lv_indev.c ****     }
1045:Drivers/lvgl/lvgl/src/core/lv_indev.c **** }
  73              		.loc 1 1045 0
  74 0040 7047     		bx	lr
  75              	.L4:
  76 0042 00BF     		.align	2
  77              	.L3:
  78 0044 00000000 		.word	.LANCHOR0
  79              		.cfi_endproc
  80              	.LFE190:
  82              		.section	.text.indev_reset_check,"ax",%progbits
  83              		.align	1
  84              		.syntax unified
  85              		.thumb
  86              		.thumb_func
  87              		.fpu fpv5-d16
  89              	indev_reset_check:
  90              	.LFB193:
1046:Drivers/lvgl/lvgl/src/core/lv_indev.c **** 
1047:Drivers/lvgl/lvgl/src/core/lv_indev.c **** /**
1048:Drivers/lvgl/lvgl/src/core/lv_indev.c ****  * Handle focus/defocus on click for POINTER input devices
1049:Drivers/lvgl/lvgl/src/core/lv_indev.c ****  * @param proc pointer to the state of the indev
1050:Drivers/lvgl/lvgl/src/core/lv_indev.c ****  */
1051:Drivers/lvgl/lvgl/src/core/lv_indev.c **** static void indev_click_focus(_lv_indev_proc_t * proc)
1052:Drivers/lvgl/lvgl/src/core/lv_indev.c **** {
1053:Drivers/lvgl/lvgl/src/core/lv_indev.c ****     /*Handle click focus*/
ARM GAS  /tmp/ccDoLsau.s 			page 21


1054:Drivers/lvgl/lvgl/src/core/lv_indev.c ****     if(lv_obj_has_flag(indev_obj_act, LV_OBJ_FLAG_CLICK_FOCUSABLE) == false ||
1055:Drivers/lvgl/lvgl/src/core/lv_indev.c ****        proc->types.pointer.last_pressed == indev_obj_act) {
1056:Drivers/lvgl/lvgl/src/core/lv_indev.c ****         return;
1057:Drivers/lvgl/lvgl/src/core/lv_indev.c ****     }
1058:Drivers/lvgl/lvgl/src/core/lv_indev.c **** 
1059:Drivers/lvgl/lvgl/src/core/lv_indev.c ****     lv_group_t * g_act = lv_obj_get_group(indev_obj_act);
1060:Drivers/lvgl/lvgl/src/core/lv_indev.c ****     lv_group_t * g_prev = proc->types.pointer.last_pressed ? lv_obj_get_group(proc->types.pointer.l
1061:Drivers/lvgl/lvgl/src/core/lv_indev.c **** 
1062:Drivers/lvgl/lvgl/src/core/lv_indev.c ****     /*If both the last and act. obj. are in the same group (or have no group)*/
1063:Drivers/lvgl/lvgl/src/core/lv_indev.c ****     if(g_act == g_prev) {
1064:Drivers/lvgl/lvgl/src/core/lv_indev.c ****         /*The objects are in a group*/
1065:Drivers/lvgl/lvgl/src/core/lv_indev.c ****         if(g_act) {
1066:Drivers/lvgl/lvgl/src/core/lv_indev.c ****             lv_group_focus_obj(indev_obj_act);
1067:Drivers/lvgl/lvgl/src/core/lv_indev.c ****             if(indev_reset_check(proc)) return;
1068:Drivers/lvgl/lvgl/src/core/lv_indev.c ****         }
1069:Drivers/lvgl/lvgl/src/core/lv_indev.c ****         /*The object are not in group*/
1070:Drivers/lvgl/lvgl/src/core/lv_indev.c ****         else {
1071:Drivers/lvgl/lvgl/src/core/lv_indev.c ****             if(proc->types.pointer.last_pressed) {
1072:Drivers/lvgl/lvgl/src/core/lv_indev.c ****                 lv_event_send(proc->types.pointer.last_pressed, LV_EVENT_DEFOCUSED, indev_act);
1073:Drivers/lvgl/lvgl/src/core/lv_indev.c ****                 if(indev_reset_check(proc)) return;
1074:Drivers/lvgl/lvgl/src/core/lv_indev.c ****             }
1075:Drivers/lvgl/lvgl/src/core/lv_indev.c **** 
1076:Drivers/lvgl/lvgl/src/core/lv_indev.c ****             lv_event_send(indev_obj_act, LV_EVENT_FOCUSED, indev_act);
1077:Drivers/lvgl/lvgl/src/core/lv_indev.c ****             if(indev_reset_check(proc)) return;
1078:Drivers/lvgl/lvgl/src/core/lv_indev.c ****         }
1079:Drivers/lvgl/lvgl/src/core/lv_indev.c ****     }
1080:Drivers/lvgl/lvgl/src/core/lv_indev.c ****     /*The object are not in the same group (in different groups or one has no group)*/
1081:Drivers/lvgl/lvgl/src/core/lv_indev.c ****     else {
1082:Drivers/lvgl/lvgl/src/core/lv_indev.c ****         /*If the prev. obj. is not in a group then defocus it.*/
1083:Drivers/lvgl/lvgl/src/core/lv_indev.c ****         if(g_prev == NULL && proc->types.pointer.last_pressed) {
1084:Drivers/lvgl/lvgl/src/core/lv_indev.c ****             lv_event_send(proc->types.pointer.last_pressed, LV_EVENT_DEFOCUSED, indev_act);
1085:Drivers/lvgl/lvgl/src/core/lv_indev.c ****             if(indev_reset_check(proc)) return;
1086:Drivers/lvgl/lvgl/src/core/lv_indev.c ****         }
1087:Drivers/lvgl/lvgl/src/core/lv_indev.c ****         /*Focus on a non-group object*/
1088:Drivers/lvgl/lvgl/src/core/lv_indev.c ****         else {
1089:Drivers/lvgl/lvgl/src/core/lv_indev.c ****             if(proc->types.pointer.last_pressed) {
1090:Drivers/lvgl/lvgl/src/core/lv_indev.c ****                 /*If the prev. object also wasn't in a group defocus it*/
1091:Drivers/lvgl/lvgl/src/core/lv_indev.c ****                 if(g_prev == NULL) {
1092:Drivers/lvgl/lvgl/src/core/lv_indev.c ****                     lv_event_send(proc->types.pointer.last_pressed, LV_EVENT_DEFOCUSED, indev_act);
1093:Drivers/lvgl/lvgl/src/core/lv_indev.c ****                     if(indev_reset_check(proc)) return;
1094:Drivers/lvgl/lvgl/src/core/lv_indev.c ****                 }
1095:Drivers/lvgl/lvgl/src/core/lv_indev.c ****                 /*If the prev. object also was in a group at least "LEAVE" it instead of defocus*/
1096:Drivers/lvgl/lvgl/src/core/lv_indev.c ****                 else {
1097:Drivers/lvgl/lvgl/src/core/lv_indev.c ****                     lv_event_send(proc->types.pointer.last_pressed, LV_EVENT_LEAVE, indev_act);
1098:Drivers/lvgl/lvgl/src/core/lv_indev.c ****                     if(indev_reset_check(proc)) return;
1099:Drivers/lvgl/lvgl/src/core/lv_indev.c ****                 }
1100:Drivers/lvgl/lvgl/src/core/lv_indev.c ****             }
1101:Drivers/lvgl/lvgl/src/core/lv_indev.c ****         }
1102:Drivers/lvgl/lvgl/src/core/lv_indev.c **** 
1103:Drivers/lvgl/lvgl/src/core/lv_indev.c ****         /*Focus to the act. in its group*/
1104:Drivers/lvgl/lvgl/src/core/lv_indev.c ****         if(g_act) {
1105:Drivers/lvgl/lvgl/src/core/lv_indev.c ****             lv_group_focus_obj(indev_obj_act);
1106:Drivers/lvgl/lvgl/src/core/lv_indev.c ****             if(indev_reset_check(proc)) return;
1107:Drivers/lvgl/lvgl/src/core/lv_indev.c ****         }
1108:Drivers/lvgl/lvgl/src/core/lv_indev.c ****         else {
1109:Drivers/lvgl/lvgl/src/core/lv_indev.c ****             lv_event_send(indev_obj_act, LV_EVENT_FOCUSED, indev_act);
1110:Drivers/lvgl/lvgl/src/core/lv_indev.c ****             if(indev_reset_check(proc)) return;
ARM GAS  /tmp/ccDoLsau.s 			page 22


1111:Drivers/lvgl/lvgl/src/core/lv_indev.c ****         }
1112:Drivers/lvgl/lvgl/src/core/lv_indev.c ****     }
1113:Drivers/lvgl/lvgl/src/core/lv_indev.c ****     proc->types.pointer.last_pressed = indev_obj_act;
1114:Drivers/lvgl/lvgl/src/core/lv_indev.c **** }
1115:Drivers/lvgl/lvgl/src/core/lv_indev.c **** 
1116:Drivers/lvgl/lvgl/src/core/lv_indev.c **** /**
1117:Drivers/lvgl/lvgl/src/core/lv_indev.c **** * Handle the gesture of indev_proc_p->types.pointer.act_obj
1118:Drivers/lvgl/lvgl/src/core/lv_indev.c **** * @param indev pointer to an input device state
1119:Drivers/lvgl/lvgl/src/core/lv_indev.c **** */
1120:Drivers/lvgl/lvgl/src/core/lv_indev.c **** void indev_gesture(_lv_indev_proc_t * proc)
1121:Drivers/lvgl/lvgl/src/core/lv_indev.c **** {
1122:Drivers/lvgl/lvgl/src/core/lv_indev.c **** 
1123:Drivers/lvgl/lvgl/src/core/lv_indev.c ****     if(proc->types.pointer.scroll_obj) return;
1124:Drivers/lvgl/lvgl/src/core/lv_indev.c ****     if(proc->types.pointer.gesture_sent) return;
1125:Drivers/lvgl/lvgl/src/core/lv_indev.c **** 
1126:Drivers/lvgl/lvgl/src/core/lv_indev.c ****     lv_obj_t * gesture_obj = proc->types.pointer.act_obj;
1127:Drivers/lvgl/lvgl/src/core/lv_indev.c **** 
1128:Drivers/lvgl/lvgl/src/core/lv_indev.c ****     /*If gesture parent is active check recursively the gesture attribute*/
1129:Drivers/lvgl/lvgl/src/core/lv_indev.c ****     while(gesture_obj && lv_obj_has_flag(gesture_obj, LV_OBJ_FLAG_GESTURE_BUBBLE)) {
1130:Drivers/lvgl/lvgl/src/core/lv_indev.c ****         gesture_obj = lv_obj_get_parent(gesture_obj);
1131:Drivers/lvgl/lvgl/src/core/lv_indev.c ****     }
1132:Drivers/lvgl/lvgl/src/core/lv_indev.c **** 
1133:Drivers/lvgl/lvgl/src/core/lv_indev.c ****     if(gesture_obj == NULL) return;
1134:Drivers/lvgl/lvgl/src/core/lv_indev.c **** 
1135:Drivers/lvgl/lvgl/src/core/lv_indev.c ****     if((LV_ABS(proc->types.pointer.vect.x) < indev_act->driver->gesture_min_velocity) &&
1136:Drivers/lvgl/lvgl/src/core/lv_indev.c ****        (LV_ABS(proc->types.pointer.vect.y) < indev_act->driver->gesture_min_velocity)) {
1137:Drivers/lvgl/lvgl/src/core/lv_indev.c ****         proc->types.pointer.gesture_sum.x = 0;
1138:Drivers/lvgl/lvgl/src/core/lv_indev.c ****         proc->types.pointer.gesture_sum.y = 0;
1139:Drivers/lvgl/lvgl/src/core/lv_indev.c ****     }
1140:Drivers/lvgl/lvgl/src/core/lv_indev.c **** 
1141:Drivers/lvgl/lvgl/src/core/lv_indev.c ****     /*Count the movement by gesture*/
1142:Drivers/lvgl/lvgl/src/core/lv_indev.c ****     proc->types.pointer.gesture_sum.x += proc->types.pointer.vect.x;
1143:Drivers/lvgl/lvgl/src/core/lv_indev.c ****     proc->types.pointer.gesture_sum.y += proc->types.pointer.vect.y;
1144:Drivers/lvgl/lvgl/src/core/lv_indev.c **** 
1145:Drivers/lvgl/lvgl/src/core/lv_indev.c ****     if((LV_ABS(proc->types.pointer.gesture_sum.x) > indev_act->driver->gesture_limit) ||
1146:Drivers/lvgl/lvgl/src/core/lv_indev.c ****        (LV_ABS(proc->types.pointer.gesture_sum.y) > indev_act->driver->gesture_limit)) {
1147:Drivers/lvgl/lvgl/src/core/lv_indev.c **** 
1148:Drivers/lvgl/lvgl/src/core/lv_indev.c ****         proc->types.pointer.gesture_sent = 1;
1149:Drivers/lvgl/lvgl/src/core/lv_indev.c **** 
1150:Drivers/lvgl/lvgl/src/core/lv_indev.c ****         if(LV_ABS(proc->types.pointer.gesture_sum.x) > LV_ABS(proc->types.pointer.gesture_sum.y)) {
1151:Drivers/lvgl/lvgl/src/core/lv_indev.c ****             if(proc->types.pointer.gesture_sum.x > 0)
1152:Drivers/lvgl/lvgl/src/core/lv_indev.c ****                 proc->types.pointer.gesture_dir = LV_DIR_RIGHT;
1153:Drivers/lvgl/lvgl/src/core/lv_indev.c ****             else
1154:Drivers/lvgl/lvgl/src/core/lv_indev.c ****                 proc->types.pointer.gesture_dir = LV_DIR_LEFT;
1155:Drivers/lvgl/lvgl/src/core/lv_indev.c ****         }
1156:Drivers/lvgl/lvgl/src/core/lv_indev.c ****         else {
1157:Drivers/lvgl/lvgl/src/core/lv_indev.c ****             if(proc->types.pointer.gesture_sum.y > 0)
1158:Drivers/lvgl/lvgl/src/core/lv_indev.c ****                 proc->types.pointer.gesture_dir = LV_DIR_BOTTOM;
1159:Drivers/lvgl/lvgl/src/core/lv_indev.c ****             else
1160:Drivers/lvgl/lvgl/src/core/lv_indev.c ****                 proc->types.pointer.gesture_dir = LV_DIR_TOP;
1161:Drivers/lvgl/lvgl/src/core/lv_indev.c ****         }
1162:Drivers/lvgl/lvgl/src/core/lv_indev.c **** 
1163:Drivers/lvgl/lvgl/src/core/lv_indev.c ****         lv_event_send(gesture_obj, LV_EVENT_GESTURE, indev_act);
1164:Drivers/lvgl/lvgl/src/core/lv_indev.c ****         if(indev_reset_check(proc)) return;
1165:Drivers/lvgl/lvgl/src/core/lv_indev.c ****     }
1166:Drivers/lvgl/lvgl/src/core/lv_indev.c **** }
1167:Drivers/lvgl/lvgl/src/core/lv_indev.c **** 
ARM GAS  /tmp/ccDoLsau.s 			page 23


1168:Drivers/lvgl/lvgl/src/core/lv_indev.c **** /**
1169:Drivers/lvgl/lvgl/src/core/lv_indev.c ****  * Checks if the reset_query flag has been set. If so, perform necessary global indev cleanup actio
1170:Drivers/lvgl/lvgl/src/core/lv_indev.c ****  * @param proc pointer to an input device 'proc'
1171:Drivers/lvgl/lvgl/src/core/lv_indev.c ****  * @return true if indev query should be immediately truncated.
1172:Drivers/lvgl/lvgl/src/core/lv_indev.c ****  */
1173:Drivers/lvgl/lvgl/src/core/lv_indev.c **** static bool indev_reset_check(_lv_indev_proc_t * proc)
1174:Drivers/lvgl/lvgl/src/core/lv_indev.c **** {
  91              		.loc 1 1174 0
  92              		.cfi_startproc
  93              		@ args = 0, pretend = 0, frame = 0
  94              		@ frame_needed = 0, uses_anonymous_args = 0
  95              		@ link register save eliminated.
  96              	.LVL1:
1175:Drivers/lvgl/lvgl/src/core/lv_indev.c ****     if(proc->reset_query) {
  97              		.loc 1 1175 0
  98 0000 4078     		ldrb	r0, [r0, #1]	@ zero_extendqisi2
  99              	.LVL2:
 100 0002 10F0020F 		tst	r0, #2
 101 0006 02D0     		beq	.L6
1176:Drivers/lvgl/lvgl/src/core/lv_indev.c ****         indev_obj_act = NULL;
 102              		.loc 1 1176 0
 103 0008 024B     		ldr	r3, .L7
 104 000a 0022     		movs	r2, #0
 105 000c 1A60     		str	r2, [r3]
 106              	.L6:
1177:Drivers/lvgl/lvgl/src/core/lv_indev.c ****     }
1178:Drivers/lvgl/lvgl/src/core/lv_indev.c **** 
1179:Drivers/lvgl/lvgl/src/core/lv_indev.c ****     return proc->reset_query ? true : false;
1180:Drivers/lvgl/lvgl/src/core/lv_indev.c **** }
 107              		.loc 1 1180 0
 108 000e C0F34000 		ubfx	r0, r0, #1, #1
 109 0012 7047     		bx	lr
 110              	.L8:
 111              		.align	2
 112              	.L7:
 113 0014 00000000 		.word	.LANCHOR0
 114              		.cfi_endproc
 115              	.LFE193:
 117              		.section	.text.indev_click_focus,"ax",%progbits
 118              		.align	1
 119              		.syntax unified
 120              		.thumb
 121              		.thumb_func
 122              		.fpu fpv5-d16
 124              	indev_click_focus:
 125              	.LFB191:
1052:Drivers/lvgl/lvgl/src/core/lv_indev.c ****     /*Handle click focus*/
 126              		.loc 1 1052 0
 127              		.cfi_startproc
 128              		@ args = 0, pretend = 0, frame = 0
 129              		@ frame_needed = 0, uses_anonymous_args = 0
 130              	.LVL3:
 131 0000 38B5     		push	{r3, r4, r5, lr}
 132              	.LCFI0:
 133              		.cfi_def_cfa_offset 16
 134              		.cfi_offset 3, -16
 135              		.cfi_offset 4, -12
ARM GAS  /tmp/ccDoLsau.s 			page 24


 136              		.cfi_offset 5, -8
 137              		.cfi_offset 14, -4
 138 0002 0446     		mov	r4, r0
1054:Drivers/lvgl/lvgl/src/core/lv_indev.c ****        proc->types.pointer.last_pressed == indev_obj_act) {
 139              		.loc 1 1054 0
 140 0004 0421     		movs	r1, #4
 141 0006 3F4B     		ldr	r3, .L25
 142 0008 1868     		ldr	r0, [r3]
 143              	.LVL4:
 144 000a FFF7FEFF 		bl	lv_obj_has_flag
 145              	.LVL5:
 146 000e 50B3     		cbz	r0, .L9
1055:Drivers/lvgl/lvgl/src/core/lv_indev.c ****         return;
 147              		.loc 1 1055 0 discriminator 1
 148 0010 236B     		ldr	r3, [r4, #48]
 149 0012 3C4A     		ldr	r2, .L25
 150 0014 1068     		ldr	r0, [r2]
1054:Drivers/lvgl/lvgl/src/core/lv_indev.c ****        proc->types.pointer.last_pressed == indev_obj_act) {
 151              		.loc 1 1054 0 discriminator 1
 152 0016 8342     		cmp	r3, r0
 153 0018 25D0     		beq	.L9
1059:Drivers/lvgl/lvgl/src/core/lv_indev.c ****     lv_group_t * g_prev = proc->types.pointer.last_pressed ? lv_obj_get_group(proc->types.pointer.l
 154              		.loc 1 1059 0
 155 001a FFF7FEFF 		bl	lv_obj_get_group
 156              	.LVL6:
 157 001e 0546     		mov	r5, r0
 158              	.LVL7:
1060:Drivers/lvgl/lvgl/src/core/lv_indev.c **** 
 159              		.loc 1 1060 0
 160 0020 206B     		ldr	r0, [r4, #48]
 161              	.LVL8:
 162 0022 08B3     		cbz	r0, .L20
1060:Drivers/lvgl/lvgl/src/core/lv_indev.c **** 
 163              		.loc 1 1060 0 is_stmt 0 discriminator 1
 164 0024 FFF7FEFF 		bl	lv_obj_get_group
 165              	.LVL9:
 166              	.L11:
1063:Drivers/lvgl/lvgl/src/core/lv_indev.c ****         /*The objects are in a group*/
 167              		.loc 1 1063 0 is_stmt 1 discriminator 4
 168 0028 A842     		cmp	r0, r5
 169 002a 1FD0     		beq	.L22
1083:Drivers/lvgl/lvgl/src/core/lv_indev.c ****             lv_event_send(proc->types.pointer.last_pressed, LV_EVENT_DEFOCUSED, indev_act);
 170              		.loc 1 1083 0
 171 002c 0028     		cmp	r0, #0
 172 002e 41D0     		beq	.L23
 173              	.L16:
1089:Drivers/lvgl/lvgl/src/core/lv_indev.c ****                 /*If the prev. object also wasn't in a group defocus it*/
 174              		.loc 1 1089 0
 175 0030 236B     		ldr	r3, [r4, #48]
 176 0032 5BB1     		cbz	r3, .L17
1091:Drivers/lvgl/lvgl/src/core/lv_indev.c ****                     lv_event_send(proc->types.pointer.last_pressed, LV_EVENT_DEFOCUSED, indev_act);
 177              		.loc 1 1091 0
 178 0034 0028     		cmp	r0, #0
 179 0036 4CD0     		beq	.L24
1097:Drivers/lvgl/lvgl/src/core/lv_indev.c ****                     if(indev_reset_check(proc)) return;
 180              		.loc 1 1097 0
 181 0038 334A     		ldr	r2, .L25+4
ARM GAS  /tmp/ccDoLsau.s 			page 25


 182 003a 1268     		ldr	r2, [r2]
 183 003c 1021     		movs	r1, #16
 184 003e 1846     		mov	r0, r3
 185              	.LVL10:
 186 0040 FFF7FEFF 		bl	lv_event_send
 187              	.LVL11:
1098:Drivers/lvgl/lvgl/src/core/lv_indev.c ****                 }
 188              		.loc 1 1098 0
 189 0044 2046     		mov	r0, r4
 190 0046 FFF7FEFF 		bl	indev_reset_check
 191              	.LVL12:
 192 004a 60B9     		cbnz	r0, .L9
 193              	.L17:
1104:Drivers/lvgl/lvgl/src/core/lv_indev.c ****             lv_group_focus_obj(indev_obj_act);
 194              		.loc 1 1104 0
 195 004c 002D     		cmp	r5, #0
 196 004e 4CD0     		beq	.L19
1105:Drivers/lvgl/lvgl/src/core/lv_indev.c ****             if(indev_reset_check(proc)) return;
 197              		.loc 1 1105 0
 198 0050 2C4B     		ldr	r3, .L25
 199 0052 1868     		ldr	r0, [r3]
 200 0054 FFF7FEFF 		bl	lv_group_focus_obj
 201              	.LVL13:
1106:Drivers/lvgl/lvgl/src/core/lv_indev.c ****         }
 202              		.loc 1 1106 0
 203 0058 2046     		mov	r0, r4
 204 005a FFF7FEFF 		bl	indev_reset_check
 205              	.LVL14:
 206 005e 10B9     		cbnz	r0, .L9
 207              	.L14:
1113:Drivers/lvgl/lvgl/src/core/lv_indev.c **** }
 208              		.loc 1 1113 0
 209 0060 284B     		ldr	r3, .L25
 210 0062 1B68     		ldr	r3, [r3]
 211 0064 2363     		str	r3, [r4, #48]
 212              	.LVL15:
 213              	.L9:
1114:Drivers/lvgl/lvgl/src/core/lv_indev.c **** 
 214              		.loc 1 1114 0
 215 0066 38BD     		pop	{r3, r4, r5, pc}
 216              	.LVL16:
 217              	.L20:
1060:Drivers/lvgl/lvgl/src/core/lv_indev.c **** 
 218              		.loc 1 1060 0
 219 0068 0020     		movs	r0, #0
 220 006a DDE7     		b	.L11
 221              	.LVL17:
 222              	.L22:
1065:Drivers/lvgl/lvgl/src/core/lv_indev.c ****             lv_group_focus_obj(indev_obj_act);
 223              		.loc 1 1065 0
 224 006c 4DB1     		cbz	r5, .L13
1066:Drivers/lvgl/lvgl/src/core/lv_indev.c ****             if(indev_reset_check(proc)) return;
 225              		.loc 1 1066 0
 226 006e 254B     		ldr	r3, .L25
 227 0070 1868     		ldr	r0, [r3]
 228              	.LVL18:
 229 0072 FFF7FEFF 		bl	lv_group_focus_obj
ARM GAS  /tmp/ccDoLsau.s 			page 26


 230              	.LVL19:
1067:Drivers/lvgl/lvgl/src/core/lv_indev.c ****         }
 231              		.loc 1 1067 0
 232 0076 2046     		mov	r0, r4
 233 0078 FFF7FEFF 		bl	indev_reset_check
 234              	.LVL20:
 235 007c 0028     		cmp	r0, #0
 236 007e EFD0     		beq	.L14
 237 0080 F1E7     		b	.L9
 238              	.LVL21:
 239              	.L13:
1071:Drivers/lvgl/lvgl/src/core/lv_indev.c ****                 lv_event_send(proc->types.pointer.last_pressed, LV_EVENT_DEFOCUSED, indev_act);
 240              		.loc 1 1071 0
 241 0082 206B     		ldr	r0, [r4, #48]
 242              	.LVL22:
 243 0084 48B1     		cbz	r0, .L15
1072:Drivers/lvgl/lvgl/src/core/lv_indev.c ****                 if(indev_reset_check(proc)) return;
 244              		.loc 1 1072 0
 245 0086 204B     		ldr	r3, .L25+4
 246 0088 1A68     		ldr	r2, [r3]
 247 008a 0F21     		movs	r1, #15
 248 008c FFF7FEFF 		bl	lv_event_send
 249              	.LVL23:
1073:Drivers/lvgl/lvgl/src/core/lv_indev.c ****             }
 250              		.loc 1 1073 0
 251 0090 2046     		mov	r0, r4
 252 0092 FFF7FEFF 		bl	indev_reset_check
 253              	.LVL24:
 254 0096 0028     		cmp	r0, #0
 255 0098 E5D1     		bne	.L9
 256              	.L15:
1076:Drivers/lvgl/lvgl/src/core/lv_indev.c ****             if(indev_reset_check(proc)) return;
 257              		.loc 1 1076 0
 258 009a 1B4B     		ldr	r3, .L25+4
 259 009c 1A68     		ldr	r2, [r3]
 260 009e 0E21     		movs	r1, #14
 261 00a0 184B     		ldr	r3, .L25
 262 00a2 1868     		ldr	r0, [r3]
 263 00a4 FFF7FEFF 		bl	lv_event_send
 264              	.LVL25:
1077:Drivers/lvgl/lvgl/src/core/lv_indev.c ****         }
 265              		.loc 1 1077 0
 266 00a8 2046     		mov	r0, r4
 267 00aa FFF7FEFF 		bl	indev_reset_check
 268              	.LVL26:
 269 00ae 0028     		cmp	r0, #0
 270 00b0 D6D0     		beq	.L14
 271 00b2 D8E7     		b	.L9
 272              	.LVL27:
 273              	.L23:
1083:Drivers/lvgl/lvgl/src/core/lv_indev.c ****             lv_event_send(proc->types.pointer.last_pressed, LV_EVENT_DEFOCUSED, indev_act);
 274              		.loc 1 1083 0 discriminator 1
 275 00b4 236B     		ldr	r3, [r4, #48]
 276 00b6 002B     		cmp	r3, #0
 277 00b8 BAD0     		beq	.L16
1084:Drivers/lvgl/lvgl/src/core/lv_indev.c ****             if(indev_reset_check(proc)) return;
 278              		.loc 1 1084 0
ARM GAS  /tmp/ccDoLsau.s 			page 27


 279 00ba 134A     		ldr	r2, .L25+4
 280 00bc 1268     		ldr	r2, [r2]
 281 00be 0F21     		movs	r1, #15
 282 00c0 1846     		mov	r0, r3
 283              	.LVL28:
 284 00c2 FFF7FEFF 		bl	lv_event_send
 285              	.LVL29:
1085:Drivers/lvgl/lvgl/src/core/lv_indev.c ****         }
 286              		.loc 1 1085 0
 287 00c6 2046     		mov	r0, r4
 288 00c8 FFF7FEFF 		bl	indev_reset_check
 289              	.LVL30:
 290 00cc 0028     		cmp	r0, #0
 291 00ce BDD0     		beq	.L17
 292 00d0 C9E7     		b	.L9
 293              	.LVL31:
 294              	.L24:
1092:Drivers/lvgl/lvgl/src/core/lv_indev.c ****                     if(indev_reset_check(proc)) return;
 295              		.loc 1 1092 0
 296 00d2 0D4A     		ldr	r2, .L25+4
 297 00d4 1268     		ldr	r2, [r2]
 298 00d6 0F21     		movs	r1, #15
 299 00d8 1846     		mov	r0, r3
 300              	.LVL32:
 301 00da FFF7FEFF 		bl	lv_event_send
 302              	.LVL33:
1093:Drivers/lvgl/lvgl/src/core/lv_indev.c ****                 }
 303              		.loc 1 1093 0
 304 00de 2046     		mov	r0, r4
 305 00e0 FFF7FEFF 		bl	indev_reset_check
 306              	.LVL34:
 307 00e4 0028     		cmp	r0, #0
 308 00e6 B1D0     		beq	.L17
 309 00e8 BDE7     		b	.L9
 310              	.L19:
1109:Drivers/lvgl/lvgl/src/core/lv_indev.c ****             if(indev_reset_check(proc)) return;
 311              		.loc 1 1109 0
 312 00ea 074B     		ldr	r3, .L25+4
 313 00ec 1A68     		ldr	r2, [r3]
 314 00ee 0E21     		movs	r1, #14
 315 00f0 044B     		ldr	r3, .L25
 316 00f2 1868     		ldr	r0, [r3]
 317 00f4 FFF7FEFF 		bl	lv_event_send
 318              	.LVL35:
1110:Drivers/lvgl/lvgl/src/core/lv_indev.c ****         }
 319              		.loc 1 1110 0
 320 00f8 2046     		mov	r0, r4
 321 00fa FFF7FEFF 		bl	indev_reset_check
 322              	.LVL36:
 323 00fe 0028     		cmp	r0, #0
 324 0100 AED0     		beq	.L14
 325 0102 B0E7     		b	.L9
 326              	.L26:
 327              		.align	2
 328              	.L25:
 329 0104 00000000 		.word	.LANCHOR0
 330 0108 00000000 		.word	.LANCHOR1
ARM GAS  /tmp/ccDoLsau.s 			page 28


 331              		.cfi_endproc
 332              	.LFE191:
 334              		.section	.text.indev_gesture,"ax",%progbits
 335              		.align	1
 336              		.syntax unified
 337              		.thumb
 338              		.thumb_func
 339              		.fpu fpv5-d16
 341              	indev_gesture:
 342              	.LFB192:
1121:Drivers/lvgl/lvgl/src/core/lv_indev.c **** 
 343              		.loc 1 1121 0
 344              		.cfi_startproc
 345              		@ args = 0, pretend = 0, frame = 0
 346              		@ frame_needed = 0, uses_anonymous_args = 0
 347              	.LVL37:
 348 0000 F8B5     		push	{r3, r4, r5, r6, r7, lr}
 349              	.LCFI1:
 350              		.cfi_def_cfa_offset 24
 351              		.cfi_offset 3, -24
 352              		.cfi_offset 4, -20
 353              		.cfi_offset 5, -16
 354              		.cfi_offset 6, -12
 355              		.cfi_offset 7, -8
 356              		.cfi_offset 14, -4
1123:Drivers/lvgl/lvgl/src/core/lv_indev.c ****     if(proc->types.pointer.gesture_sent) return;
 357              		.loc 1 1123 0
 358 0002 C36A     		ldr	r3, [r0, #44]
 359 0004 03B1     		cbz	r3, .L39
 360              	.LVL38:
 361              	.L27:
1166:Drivers/lvgl/lvgl/src/core/lv_indev.c **** 
 362              		.loc 1 1166 0
 363 0006 F8BD     		pop	{r3, r4, r5, r6, r7, pc}
 364              	.LVL39:
 365              	.L39:
1124:Drivers/lvgl/lvgl/src/core/lv_indev.c **** 
 366              		.loc 1 1124 0
 367 0008 90F84130 		ldrb	r3, [r0, #65]	@ zero_extendqisi2
 368 000c 13F0010F 		tst	r3, #1
 369 0010 F9D1     		bne	.L27
 370 0012 0546     		mov	r5, r0
1126:Drivers/lvgl/lvgl/src/core/lv_indev.c **** 
 371              		.loc 1 1126 0
 372 0014 446A     		ldr	r4, [r0, #36]
 373              	.LVL40:
1129:Drivers/lvgl/lvgl/src/core/lv_indev.c ****         gesture_obj = lv_obj_get_parent(gesture_obj);
 374              		.loc 1 1129 0
 375 0016 03E0     		b	.L29
 376              	.LVL41:
 377              	.L31:
1130:Drivers/lvgl/lvgl/src/core/lv_indev.c ****     }
 378              		.loc 1 1130 0
 379 0018 2046     		mov	r0, r4
 380 001a FFF7FEFF 		bl	lv_obj_get_parent
 381              	.LVL42:
 382 001e 0446     		mov	r4, r0
ARM GAS  /tmp/ccDoLsau.s 			page 29


 383              	.LVL43:
 384              	.L29:
1129:Drivers/lvgl/lvgl/src/core/lv_indev.c ****         gesture_obj = lv_obj_get_parent(gesture_obj);
 385              		.loc 1 1129 0
 386 0020 34B1     		cbz	r4, .L30
1129:Drivers/lvgl/lvgl/src/core/lv_indev.c ****         gesture_obj = lv_obj_get_parent(gesture_obj);
 387              		.loc 1 1129 0 is_stmt 0 discriminator 1
 388 0022 4FF40041 		mov	r1, #32768
 389 0026 2046     		mov	r0, r4
 390 0028 FFF7FEFF 		bl	lv_obj_has_flag
 391              	.LVL44:
 392 002c 0028     		cmp	r0, #0
 393 002e F3D1     		bne	.L31
 394              	.L30:
1133:Drivers/lvgl/lvgl/src/core/lv_indev.c **** 
 395              		.loc 1 1133 0 is_stmt 1
 396 0030 002C     		cmp	r4, #0
 397 0032 E8D0     		beq	.L27
1135:Drivers/lvgl/lvgl/src/core/lv_indev.c ****        (LV_ABS(proc->types.pointer.vect.y) < indev_act->driver->gesture_min_velocity)) {
 398              		.loc 1 1135 0
 399 0034 B5F91430 		ldrsh	r3, [r5, #20]
 400 0038 83EAE370 		eor	r0, r3, r3, asr #31
 401 003c A0EBE370 		sub	r0, r0, r3, asr #31
 402 0040 2F4A     		ldr	r2, .L40
 403 0042 1268     		ldr	r2, [r2]
 404 0044 1168     		ldr	r1, [r2]
 405 0046 897E     		ldrb	r1, [r1, #26]	@ zero_extendqisi2
 406 0048 8842     		cmp	r0, r1
 407 004a 09DA     		bge	.L32
1136:Drivers/lvgl/lvgl/src/core/lv_indev.c ****         proc->types.pointer.gesture_sum.x = 0;
 408              		.loc 1 1136 0 discriminator 1
 409 004c B5F91600 		ldrsh	r0, [r5, #22]
 410 0050 0028     		cmp	r0, #0
 411 0052 B8BF     		it	lt
 412 0054 4042     		rsblt	r0, r0, #0
1135:Drivers/lvgl/lvgl/src/core/lv_indev.c ****        (LV_ABS(proc->types.pointer.vect.y) < indev_act->driver->gesture_min_velocity)) {
 413              		.loc 1 1135 0 discriminator 1
 414 0056 8142     		cmp	r1, r0
 415 0058 02DD     		ble	.L32
1137:Drivers/lvgl/lvgl/src/core/lv_indev.c ****         proc->types.pointer.gesture_sum.y = 0;
 416              		.loc 1 1137 0
 417 005a 0021     		movs	r1, #0
 418 005c A987     		strh	r1, [r5, #60]	@ movhi
1138:Drivers/lvgl/lvgl/src/core/lv_indev.c ****     }
 419              		.loc 1 1138 0
 420 005e E987     		strh	r1, [r5, #62]	@ movhi
 421              	.L32:
1142:Drivers/lvgl/lvgl/src/core/lv_indev.c ****     proc->types.pointer.gesture_sum.y += proc->types.pointer.vect.y;
 422              		.loc 1 1142 0
 423 0060 A98F     		ldrh	r1, [r5, #60]
 424 0062 11FA83F3 		uxtah	r3, r1, r3
 425 0066 1BB2     		sxth	r3, r3
 426 0068 AB87     		strh	r3, [r5, #60]	@ movhi
1143:Drivers/lvgl/lvgl/src/core/lv_indev.c **** 
 427              		.loc 1 1143 0
 428 006a E98A     		ldrh	r1, [r5, #22]
 429 006c E88F     		ldrh	r0, [r5, #62]
ARM GAS  /tmp/ccDoLsau.s 			page 30


 430 006e 0144     		add	r1, r1, r0
 431 0070 09B2     		sxth	r1, r1
 432 0072 E987     		strh	r1, [r5, #62]	@ movhi
1145:Drivers/lvgl/lvgl/src/core/lv_indev.c ****        (LV_ABS(proc->types.pointer.gesture_sum.y) > indev_act->driver->gesture_limit)) {
 433              		.loc 1 1145 0
 434 0074 83EAE376 		eor	r6, r3, r3, asr #31
 435 0078 A6EBE376 		sub	r6, r6, r3, asr #31
 436 007c 1068     		ldr	r0, [r2]
 437 007e C07E     		ldrb	r0, [r0, #27]	@ zero_extendqisi2
 438 0080 8642     		cmp	r6, r0
 439 0082 05DC     		bgt	.L33
1146:Drivers/lvgl/lvgl/src/core/lv_indev.c **** 
 440              		.loc 1 1146 0 discriminator 1
 441 0084 81EAE177 		eor	r7, r1, r1, asr #31
 442 0088 A7EBE177 		sub	r7, r7, r1, asr #31
1145:Drivers/lvgl/lvgl/src/core/lv_indev.c ****        (LV_ABS(proc->types.pointer.gesture_sum.y) > indev_act->driver->gesture_limit)) {
 443              		.loc 1 1145 0 discriminator 1
 444 008c B842     		cmp	r0, r7
 445 008e BADA     		bge	.L27
 446              	.L33:
1148:Drivers/lvgl/lvgl/src/core/lv_indev.c **** 
 447              		.loc 1 1148 0
 448 0090 95F84100 		ldrb	r0, [r5, #65]	@ zero_extendqisi2
 449 0094 40F00100 		orr	r0, r0, #1
 450 0098 85F84100 		strb	r0, [r5, #65]
1150:Drivers/lvgl/lvgl/src/core/lv_indev.c ****             if(proc->types.pointer.gesture_sum.x > 0)
 451              		.loc 1 1150 0
 452 009c 81EAE170 		eor	r0, r1, r1, asr #31
 453 00a0 A0EBE170 		sub	r0, r0, r1, asr #31
 454 00a4 8642     		cmp	r6, r0
 455 00a6 18DD     		ble	.L34
1151:Drivers/lvgl/lvgl/src/core/lv_indev.c ****                 proc->types.pointer.gesture_dir = LV_DIR_RIGHT;
 456              		.loc 1 1151 0
 457 00a8 002B     		cmp	r3, #0
 458 00aa 0EDD     		ble	.L35
1152:Drivers/lvgl/lvgl/src/core/lv_indev.c ****             else
 459              		.loc 1 1152 0
 460 00ac 95F84030 		ldrb	r3, [r5, #64]	@ zero_extendqisi2
 461 00b0 0221     		movs	r1, #2
 462 00b2 61F30713 		bfi	r3, r1, #4, #4
 463 00b6 85F84030 		strb	r3, [r5, #64]
 464              	.L36:
1163:Drivers/lvgl/lvgl/src/core/lv_indev.c ****         if(indev_reset_check(proc)) return;
 465              		.loc 1 1163 0
 466 00ba 0C21     		movs	r1, #12
 467 00bc 2046     		mov	r0, r4
 468 00be FFF7FEFF 		bl	lv_event_send
 469              	.LVL45:
1164:Drivers/lvgl/lvgl/src/core/lv_indev.c ****     }
 470              		.loc 1 1164 0
 471 00c2 2846     		mov	r0, r5
 472 00c4 FFF7FEFF 		bl	indev_reset_check
 473              	.LVL46:
 474 00c8 9DE7     		b	.L27
 475              	.L35:
1154:Drivers/lvgl/lvgl/src/core/lv_indev.c ****         }
 476              		.loc 1 1154 0
ARM GAS  /tmp/ccDoLsau.s 			page 31


 477 00ca 95F84030 		ldrb	r3, [r5, #64]	@ zero_extendqisi2
 478 00ce 0121     		movs	r1, #1
 479 00d0 61F30713 		bfi	r3, r1, #4, #4
 480 00d4 85F84030 		strb	r3, [r5, #64]
 481 00d8 EFE7     		b	.L36
 482              	.L34:
1157:Drivers/lvgl/lvgl/src/core/lv_indev.c ****                 proc->types.pointer.gesture_dir = LV_DIR_BOTTOM;
 483              		.loc 1 1157 0
 484 00da 0029     		cmp	r1, #0
 485 00dc 07DD     		ble	.L37
1158:Drivers/lvgl/lvgl/src/core/lv_indev.c ****             else
 486              		.loc 1 1158 0
 487 00de 95F84030 		ldrb	r3, [r5, #64]	@ zero_extendqisi2
 488 00e2 0821     		movs	r1, #8
 489 00e4 61F30713 		bfi	r3, r1, #4, #4
 490 00e8 85F84030 		strb	r3, [r5, #64]
 491 00ec E5E7     		b	.L36
 492              	.L37:
1160:Drivers/lvgl/lvgl/src/core/lv_indev.c ****         }
 493              		.loc 1 1160 0
 494 00ee 95F84030 		ldrb	r3, [r5, #64]	@ zero_extendqisi2
 495 00f2 0421     		movs	r1, #4
 496 00f4 61F30713 		bfi	r3, r1, #4, #4
 497 00f8 85F84030 		strb	r3, [r5, #64]
 498 00fc DDE7     		b	.L36
 499              	.L41:
 500 00fe 00BF     		.align	2
 501              	.L40:
 502 0100 00000000 		.word	.LANCHOR1
 503              		.cfi_endproc
 504              	.LFE192:
 506              		.section	.text.indev_proc_release,"ax",%progbits
 507              		.align	1
 508              		.syntax unified
 509              		.thumb
 510              		.thumb_func
 511              		.fpu fpv5-d16
 513              	indev_proc_release:
 514              	.LFB189:
 951:Drivers/lvgl/lvgl/src/core/lv_indev.c ****     if(proc->wait_until_release != 0) {
 515              		.loc 1 951 0
 516              		.cfi_startproc
 517              		@ args = 0, pretend = 0, frame = 8
 518              		@ frame_needed = 0, uses_anonymous_args = 0
 519              	.LVL47:
 520 0000 2DE9F041 		push	{r4, r5, r6, r7, r8, lr}
 521              	.LCFI2:
 522              		.cfi_def_cfa_offset 24
 523              		.cfi_offset 4, -24
 524              		.cfi_offset 5, -20
 525              		.cfi_offset 6, -16
 526              		.cfi_offset 7, -12
 527              		.cfi_offset 8, -8
 528              		.cfi_offset 14, -4
 529 0004 82B0     		sub	sp, sp, #8
 530              	.LCFI3:
 531              		.cfi_def_cfa_offset 32
ARM GAS  /tmp/ccDoLsau.s 			page 32


 532 0006 0446     		mov	r4, r0
 952:Drivers/lvgl/lvgl/src/core/lv_indev.c ****         lv_event_send(proc->types.pointer.act_obj, LV_EVENT_PRESS_LOST, indev_act);
 533              		.loc 1 952 0
 534 0008 4378     		ldrb	r3, [r0, #1]	@ zero_extendqisi2
 535 000a 13F0080F 		tst	r3, #8
 536 000e 1FD1     		bne	.L53
 537              	.LVL48:
 538              	.L43:
 962:Drivers/lvgl/lvgl/src/core/lv_indev.c ****     lv_obj_t * scroll_obj = proc->types.pointer.scroll_obj;
 539              		.loc 1 962 0
 540 0010 606A     		ldr	r0, [r4, #36]
 541 0012 4B4B     		ldr	r3, .L57
 542 0014 1860     		str	r0, [r3]
 963:Drivers/lvgl/lvgl/src/core/lv_indev.c **** 
 543              		.loc 1 963 0
 544 0016 E66A     		ldr	r6, [r4, #44]
 545              	.LVL49:
 966:Drivers/lvgl/lvgl/src/core/lv_indev.c ****         LV_LOG_INFO("released");
 546              		.loc 1 966 0
 547 0018 0028     		cmp	r0, #0
 548 001a 70D0     		beq	.L45
 970:Drivers/lvgl/lvgl/src/core/lv_indev.c ****         if(indev_reset_check(proc)) return;
 549              		.loc 1 970 0
 550 001c 494B     		ldr	r3, .L57+4
 551 001e 1A68     		ldr	r2, [r3]
 552 0020 0821     		movs	r1, #8
 553 0022 FFF7FEFF 		bl	lv_event_send
 554              	.LVL50:
 971:Drivers/lvgl/lvgl/src/core/lv_indev.c **** 
 555              		.loc 1 971 0
 556 0026 2046     		mov	r0, r4
 557 0028 FFF7FEFF 		bl	indev_reset_check
 558              	.LVL51:
 559 002c 0028     		cmp	r0, #0
 560 002e 6DD1     		bne	.L42
 974:Drivers/lvgl/lvgl/src/core/lv_indev.c ****             if(proc->long_pr_sent == 0) {
 561              		.loc 1 974 0
 562 0030 1EB3     		cbz	r6, .L54
 563              	.L46:
 984:Drivers/lvgl/lvgl/src/core/lv_indev.c ****         proc->pr_timestamp          = 0;
 564              		.loc 1 984 0
 565 0032 0023     		movs	r3, #0
 566 0034 6362     		str	r3, [r4, #36]
 985:Drivers/lvgl/lvgl/src/core/lv_indev.c ****         proc->longpr_rep_timestamp  = 0;
 567              		.loc 1 985 0
 568 0036 6364     		str	r3, [r4, #68]
 986:Drivers/lvgl/lvgl/src/core/lv_indev.c **** 
 569              		.loc 1 986 0
 570 0038 A364     		str	r3, [r4, #72]
 990:Drivers/lvgl/lvgl/src/core/lv_indev.c ****             int16_t angle = 0;
 571              		.loc 1 990 0
 572 003a 002E     		cmp	r6, #0
 573 003c 5FD0     		beq	.L45
 574              	.LVL52:
 575              	.LBB7:
 993:Drivers/lvgl/lvgl/src/core/lv_indev.c ****             lv_obj_t * parent = scroll_obj;
 576              		.loc 1 993 0
ARM GAS  /tmp/ccDoLsau.s 			page 33


 577 003e 1D46     		mov	r5, r3
 578 0040 ADF80430 		strh	r3, [sp, #4]	@ movhi
 579 0044 ADF80630 		strh	r3, [sp, #6]	@ movhi
 580              	.LVL53:
 994:Drivers/lvgl/lvgl/src/core/lv_indev.c ****             while(parent) {
 581              		.loc 1 994 0
 582 0048 B046     		mov	r8, r6
 992:Drivers/lvgl/lvgl/src/core/lv_indev.c ****             lv_point_t pivot = { 0, 0 };
 583              		.loc 1 992 0
 584 004a 4FF48077 		mov	r7, #256
 995:Drivers/lvgl/lvgl/src/core/lv_indev.c ****                 angle += lv_obj_get_style_transform_angle(parent, 0);
 585              		.loc 1 995 0
 586 004e 39E0     		b	.L48
 587              	.LVL54:
 588              	.L53:
 589              	.LBE7:
 953:Drivers/lvgl/lvgl/src/core/lv_indev.c ****         if(indev_reset_check(proc)) return;
 590              		.loc 1 953 0
 591 0050 3C4B     		ldr	r3, .L57+4
 592 0052 1A68     		ldr	r2, [r3]
 593 0054 0321     		movs	r1, #3
 594 0056 406A     		ldr	r0, [r0, #36]
 595              	.LVL55:
 596 0058 FFF7FEFF 		bl	lv_event_send
 597              	.LVL56:
 954:Drivers/lvgl/lvgl/src/core/lv_indev.c **** 
 598              		.loc 1 954 0
 599 005c 2046     		mov	r0, r4
 600 005e FFF7FEFF 		bl	indev_reset_check
 601              	.LVL57:
 602 0062 0028     		cmp	r0, #0
 603 0064 52D1     		bne	.L42
 956:Drivers/lvgl/lvgl/src/core/lv_indev.c ****         proc->types.pointer.last_obj = NULL;
 604              		.loc 1 956 0
 605 0066 0023     		movs	r3, #0
 606 0068 6362     		str	r3, [r4, #36]
 957:Drivers/lvgl/lvgl/src/core/lv_indev.c ****         proc->pr_timestamp           = 0;
 607              		.loc 1 957 0
 608 006a A362     		str	r3, [r4, #40]
 958:Drivers/lvgl/lvgl/src/core/lv_indev.c ****         proc->longpr_rep_timestamp   = 0;
 609              		.loc 1 958 0
 610 006c 6364     		str	r3, [r4, #68]
 959:Drivers/lvgl/lvgl/src/core/lv_indev.c ****         proc->wait_until_release     = 0;
 611              		.loc 1 959 0
 612 006e A364     		str	r3, [r4, #72]
 960:Drivers/lvgl/lvgl/src/core/lv_indev.c ****     }
 613              		.loc 1 960 0
 614 0070 6278     		ldrb	r2, [r4, #1]	@ zero_extendqisi2
 615 0072 63F3C302 		bfi	r2, r3, #3, #1
 616 0076 6270     		strb	r2, [r4, #1]
 617 0078 CAE7     		b	.L43
 618              	.LVL58:
 619              	.L54:
 975:Drivers/lvgl/lvgl/src/core/lv_indev.c ****                 lv_event_send(indev_obj_act, LV_EVENT_SHORT_CLICKED, indev_act);
 620              		.loc 1 975 0
 621 007a 6378     		ldrb	r3, [r4, #1]	@ zero_extendqisi2
 622 007c 13F0010F 		tst	r3, #1
ARM GAS  /tmp/ccDoLsau.s 			page 34


 623 0080 0BD1     		bne	.L47
 976:Drivers/lvgl/lvgl/src/core/lv_indev.c ****                 if(indev_reset_check(proc)) return;
 624              		.loc 1 976 0
 625 0082 304B     		ldr	r3, .L57+4
 626 0084 1A68     		ldr	r2, [r3]
 627 0086 0421     		movs	r1, #4
 628 0088 2D4B     		ldr	r3, .L57
 629 008a 1868     		ldr	r0, [r3]
 630 008c FFF7FEFF 		bl	lv_event_send
 631              	.LVL59:
 977:Drivers/lvgl/lvgl/src/core/lv_indev.c ****             }
 632              		.loc 1 977 0
 633 0090 2046     		mov	r0, r4
 634 0092 FFF7FEFF 		bl	indev_reset_check
 635              	.LVL60:
 636 0096 0028     		cmp	r0, #0
 637 0098 38D1     		bne	.L42
 638              	.L47:
 980:Drivers/lvgl/lvgl/src/core/lv_indev.c ****             if(indev_reset_check(proc)) return;
 639              		.loc 1 980 0
 640 009a 2A4B     		ldr	r3, .L57+4
 641 009c 1A68     		ldr	r2, [r3]
 642 009e 0721     		movs	r1, #7
 643 00a0 274B     		ldr	r3, .L57
 644 00a2 1868     		ldr	r0, [r3]
 645 00a4 FFF7FEFF 		bl	lv_event_send
 646              	.LVL61:
 981:Drivers/lvgl/lvgl/src/core/lv_indev.c ****         }
 647              		.loc 1 981 0
 648 00a8 2046     		mov	r0, r4
 649 00aa FFF7FEFF 		bl	indev_reset_check
 650              	.LVL62:
 651 00ae 0028     		cmp	r0, #0
 652 00b0 BFD0     		beq	.L46
 653 00b2 2BE0     		b	.L42
 654              	.LVL63:
 655              	.L49:
 656              	.LBB12:
 997:Drivers/lvgl/lvgl/src/core/lv_indev.c ****                 parent = lv_obj_get_parent(parent);
 657              		.loc 1 997 0
 658 00b4 0012     		asrs	r0, r0, #8
 659 00b6 10FB07F0 		smulbb	r0, r0, r7
 660 00ba 07B2     		sxth	r7, r0
 661              	.LVL64:
 998:Drivers/lvgl/lvgl/src/core/lv_indev.c ****             }
 662              		.loc 1 998 0
 663 00bc 4046     		mov	r0, r8
 664 00be FFF7FEFF 		bl	lv_obj_get_parent
 665              	.LVL65:
 666 00c2 8046     		mov	r8, r0
 667              	.LVL66:
 668              	.L48:
 995:Drivers/lvgl/lvgl/src/core/lv_indev.c ****                 angle += lv_obj_get_style_transform_angle(parent, 0);
 669              		.loc 1 995 0
 670 00c4 B8F1000F 		cmp	r8, #0
 671 00c8 11D0     		beq	.L55
 672              	.LVL67:
ARM GAS  /tmp/ccDoLsau.s 			page 35


 673              	.LBB8:
 674              	.LBB9:
 675              		.file 2 "Drivers/lvgl/lvgl/src/core/lv_obj_style_gen.h"
   1:Drivers/lvgl/lvgl/src/core/lv_obj_style_gen.h **** static inline lv_coord_t lv_obj_get_style_width(const struct _lv_obj_t * obj, uint32_t part)
   2:Drivers/lvgl/lvgl/src/core/lv_obj_style_gen.h **** {
   3:Drivers/lvgl/lvgl/src/core/lv_obj_style_gen.h ****     lv_style_value_t v = lv_obj_get_style_prop(obj, part, LV_STYLE_WIDTH);
   4:Drivers/lvgl/lvgl/src/core/lv_obj_style_gen.h ****     return (lv_coord_t)v.num;
   5:Drivers/lvgl/lvgl/src/core/lv_obj_style_gen.h **** }
   6:Drivers/lvgl/lvgl/src/core/lv_obj_style_gen.h **** 
   7:Drivers/lvgl/lvgl/src/core/lv_obj_style_gen.h **** static inline lv_coord_t lv_obj_get_style_min_width(const struct _lv_obj_t * obj, uint32_t part)
   8:Drivers/lvgl/lvgl/src/core/lv_obj_style_gen.h **** {
   9:Drivers/lvgl/lvgl/src/core/lv_obj_style_gen.h ****     lv_style_value_t v = lv_obj_get_style_prop(obj, part, LV_STYLE_MIN_WIDTH);
  10:Drivers/lvgl/lvgl/src/core/lv_obj_style_gen.h ****     return (lv_coord_t)v.num;
  11:Drivers/lvgl/lvgl/src/core/lv_obj_style_gen.h **** }
  12:Drivers/lvgl/lvgl/src/core/lv_obj_style_gen.h **** 
  13:Drivers/lvgl/lvgl/src/core/lv_obj_style_gen.h **** static inline lv_coord_t lv_obj_get_style_max_width(const struct _lv_obj_t * obj, uint32_t part)
  14:Drivers/lvgl/lvgl/src/core/lv_obj_style_gen.h **** {
  15:Drivers/lvgl/lvgl/src/core/lv_obj_style_gen.h ****     lv_style_value_t v = lv_obj_get_style_prop(obj, part, LV_STYLE_MAX_WIDTH);
  16:Drivers/lvgl/lvgl/src/core/lv_obj_style_gen.h ****     return (lv_coord_t)v.num;
  17:Drivers/lvgl/lvgl/src/core/lv_obj_style_gen.h **** }
  18:Drivers/lvgl/lvgl/src/core/lv_obj_style_gen.h **** 
  19:Drivers/lvgl/lvgl/src/core/lv_obj_style_gen.h **** static inline lv_coord_t lv_obj_get_style_height(const struct _lv_obj_t * obj, uint32_t part)
  20:Drivers/lvgl/lvgl/src/core/lv_obj_style_gen.h **** {
  21:Drivers/lvgl/lvgl/src/core/lv_obj_style_gen.h ****     lv_style_value_t v = lv_obj_get_style_prop(obj, part, LV_STYLE_HEIGHT);
  22:Drivers/lvgl/lvgl/src/core/lv_obj_style_gen.h ****     return (lv_coord_t)v.num;
  23:Drivers/lvgl/lvgl/src/core/lv_obj_style_gen.h **** }
  24:Drivers/lvgl/lvgl/src/core/lv_obj_style_gen.h **** 
  25:Drivers/lvgl/lvgl/src/core/lv_obj_style_gen.h **** static inline lv_coord_t lv_obj_get_style_min_height(const struct _lv_obj_t * obj, uint32_t part)
  26:Drivers/lvgl/lvgl/src/core/lv_obj_style_gen.h **** {
  27:Drivers/lvgl/lvgl/src/core/lv_obj_style_gen.h ****     lv_style_value_t v = lv_obj_get_style_prop(obj, part, LV_STYLE_MIN_HEIGHT);
  28:Drivers/lvgl/lvgl/src/core/lv_obj_style_gen.h ****     return (lv_coord_t)v.num;
  29:Drivers/lvgl/lvgl/src/core/lv_obj_style_gen.h **** }
  30:Drivers/lvgl/lvgl/src/core/lv_obj_style_gen.h **** 
  31:Drivers/lvgl/lvgl/src/core/lv_obj_style_gen.h **** static inline lv_coord_t lv_obj_get_style_max_height(const struct _lv_obj_t * obj, uint32_t part)
  32:Drivers/lvgl/lvgl/src/core/lv_obj_style_gen.h **** {
  33:Drivers/lvgl/lvgl/src/core/lv_obj_style_gen.h ****     lv_style_value_t v = lv_obj_get_style_prop(obj, part, LV_STYLE_MAX_HEIGHT);
  34:Drivers/lvgl/lvgl/src/core/lv_obj_style_gen.h ****     return (lv_coord_t)v.num;
  35:Drivers/lvgl/lvgl/src/core/lv_obj_style_gen.h **** }
  36:Drivers/lvgl/lvgl/src/core/lv_obj_style_gen.h **** 
  37:Drivers/lvgl/lvgl/src/core/lv_obj_style_gen.h **** static inline lv_coord_t lv_obj_get_style_x(const struct _lv_obj_t * obj, uint32_t part)
  38:Drivers/lvgl/lvgl/src/core/lv_obj_style_gen.h **** {
  39:Drivers/lvgl/lvgl/src/core/lv_obj_style_gen.h ****     lv_style_value_t v = lv_obj_get_style_prop(obj, part, LV_STYLE_X);
  40:Drivers/lvgl/lvgl/src/core/lv_obj_style_gen.h ****     return (lv_coord_t)v.num;
  41:Drivers/lvgl/lvgl/src/core/lv_obj_style_gen.h **** }
  42:Drivers/lvgl/lvgl/src/core/lv_obj_style_gen.h **** 
  43:Drivers/lvgl/lvgl/src/core/lv_obj_style_gen.h **** static inline lv_coord_t lv_obj_get_style_y(const struct _lv_obj_t * obj, uint32_t part)
  44:Drivers/lvgl/lvgl/src/core/lv_obj_style_gen.h **** {
  45:Drivers/lvgl/lvgl/src/core/lv_obj_style_gen.h ****     lv_style_value_t v = lv_obj_get_style_prop(obj, part, LV_STYLE_Y);
  46:Drivers/lvgl/lvgl/src/core/lv_obj_style_gen.h ****     return (lv_coord_t)v.num;
  47:Drivers/lvgl/lvgl/src/core/lv_obj_style_gen.h **** }
  48:Drivers/lvgl/lvgl/src/core/lv_obj_style_gen.h **** 
  49:Drivers/lvgl/lvgl/src/core/lv_obj_style_gen.h **** static inline lv_align_t lv_obj_get_style_align(const struct _lv_obj_t * obj, uint32_t part)
  50:Drivers/lvgl/lvgl/src/core/lv_obj_style_gen.h **** {
  51:Drivers/lvgl/lvgl/src/core/lv_obj_style_gen.h ****     lv_style_value_t v = lv_obj_get_style_prop(obj, part, LV_STYLE_ALIGN);
  52:Drivers/lvgl/lvgl/src/core/lv_obj_style_gen.h ****     return (lv_align_t)v.num;
  53:Drivers/lvgl/lvgl/src/core/lv_obj_style_gen.h **** }
  54:Drivers/lvgl/lvgl/src/core/lv_obj_style_gen.h **** 
ARM GAS  /tmp/ccDoLsau.s 			page 36


  55:Drivers/lvgl/lvgl/src/core/lv_obj_style_gen.h **** static inline lv_coord_t lv_obj_get_style_transform_width(const struct _lv_obj_t * obj, uint32_t pa
  56:Drivers/lvgl/lvgl/src/core/lv_obj_style_gen.h **** {
  57:Drivers/lvgl/lvgl/src/core/lv_obj_style_gen.h ****     lv_style_value_t v = lv_obj_get_style_prop(obj, part, LV_STYLE_TRANSFORM_WIDTH);
  58:Drivers/lvgl/lvgl/src/core/lv_obj_style_gen.h ****     return (lv_coord_t)v.num;
  59:Drivers/lvgl/lvgl/src/core/lv_obj_style_gen.h **** }
  60:Drivers/lvgl/lvgl/src/core/lv_obj_style_gen.h **** 
  61:Drivers/lvgl/lvgl/src/core/lv_obj_style_gen.h **** static inline lv_coord_t lv_obj_get_style_transform_height(const struct _lv_obj_t * obj, uint32_t p
  62:Drivers/lvgl/lvgl/src/core/lv_obj_style_gen.h **** {
  63:Drivers/lvgl/lvgl/src/core/lv_obj_style_gen.h ****     lv_style_value_t v = lv_obj_get_style_prop(obj, part, LV_STYLE_TRANSFORM_HEIGHT);
  64:Drivers/lvgl/lvgl/src/core/lv_obj_style_gen.h ****     return (lv_coord_t)v.num;
  65:Drivers/lvgl/lvgl/src/core/lv_obj_style_gen.h **** }
  66:Drivers/lvgl/lvgl/src/core/lv_obj_style_gen.h **** 
  67:Drivers/lvgl/lvgl/src/core/lv_obj_style_gen.h **** static inline lv_coord_t lv_obj_get_style_translate_x(const struct _lv_obj_t * obj, uint32_t part)
  68:Drivers/lvgl/lvgl/src/core/lv_obj_style_gen.h **** {
  69:Drivers/lvgl/lvgl/src/core/lv_obj_style_gen.h ****     lv_style_value_t v = lv_obj_get_style_prop(obj, part, LV_STYLE_TRANSLATE_X);
  70:Drivers/lvgl/lvgl/src/core/lv_obj_style_gen.h ****     return (lv_coord_t)v.num;
  71:Drivers/lvgl/lvgl/src/core/lv_obj_style_gen.h **** }
  72:Drivers/lvgl/lvgl/src/core/lv_obj_style_gen.h **** 
  73:Drivers/lvgl/lvgl/src/core/lv_obj_style_gen.h **** static inline lv_coord_t lv_obj_get_style_translate_y(const struct _lv_obj_t * obj, uint32_t part)
  74:Drivers/lvgl/lvgl/src/core/lv_obj_style_gen.h **** {
  75:Drivers/lvgl/lvgl/src/core/lv_obj_style_gen.h ****     lv_style_value_t v = lv_obj_get_style_prop(obj, part, LV_STYLE_TRANSLATE_Y);
  76:Drivers/lvgl/lvgl/src/core/lv_obj_style_gen.h ****     return (lv_coord_t)v.num;
  77:Drivers/lvgl/lvgl/src/core/lv_obj_style_gen.h **** }
  78:Drivers/lvgl/lvgl/src/core/lv_obj_style_gen.h **** 
  79:Drivers/lvgl/lvgl/src/core/lv_obj_style_gen.h **** static inline lv_coord_t lv_obj_get_style_transform_zoom(const struct _lv_obj_t * obj, uint32_t par
  80:Drivers/lvgl/lvgl/src/core/lv_obj_style_gen.h **** {
  81:Drivers/lvgl/lvgl/src/core/lv_obj_style_gen.h ****     lv_style_value_t v = lv_obj_get_style_prop(obj, part, LV_STYLE_TRANSFORM_ZOOM);
  82:Drivers/lvgl/lvgl/src/core/lv_obj_style_gen.h ****     return (lv_coord_t)v.num;
  83:Drivers/lvgl/lvgl/src/core/lv_obj_style_gen.h **** }
  84:Drivers/lvgl/lvgl/src/core/lv_obj_style_gen.h **** 
  85:Drivers/lvgl/lvgl/src/core/lv_obj_style_gen.h **** static inline lv_coord_t lv_obj_get_style_transform_angle(const struct _lv_obj_t * obj, uint32_t pa
  86:Drivers/lvgl/lvgl/src/core/lv_obj_style_gen.h **** {
  87:Drivers/lvgl/lvgl/src/core/lv_obj_style_gen.h ****     lv_style_value_t v = lv_obj_get_style_prop(obj, part, LV_STYLE_TRANSFORM_ANGLE);
 676              		.loc 2 87 0
 677 00ca 6D22     		movs	r2, #109
 678 00cc 0021     		movs	r1, #0
 679 00ce 4046     		mov	r0, r8
 680 00d0 FFF7FEFF 		bl	lv_obj_get_style_prop
 681              	.LVL68:
 682              	.LBE9:
 683              	.LBE8:
 996:Drivers/lvgl/lvgl/src/core/lv_indev.c ****                 zoom *= (lv_obj_get_style_transform_zoom(parent, 0) / 256);
 684              		.loc 1 996 0
 685 00d4 15FA80F5 		uxtah	r5, r5, r0
 686              	.LVL69:
 687 00d8 2DB2     		sxth	r5, r5
 688              	.LVL70:
 689              	.LBB10:
 690              	.LBB11:
  81:Drivers/lvgl/lvgl/src/core/lv_obj_style_gen.h ****     return (lv_coord_t)v.num;
 691              		.loc 2 81 0
 692 00da 6C22     		movs	r2, #108
 693 00dc 0021     		movs	r1, #0
 694 00de 4046     		mov	r0, r8
 695 00e0 FFF7FEFF 		bl	lv_obj_get_style_prop
 696              	.LVL71:
  82:Drivers/lvgl/lvgl/src/core/lv_obj_style_gen.h **** }
ARM GAS  /tmp/ccDoLsau.s 			page 37


 697              		.loc 2 82 0
 698 00e4 00B2     		sxth	r0, r0
 699              	.LVL72:
 700              	.LBE11:
 701              	.LBE10:
 997:Drivers/lvgl/lvgl/src/core/lv_indev.c ****                 parent = lv_obj_get_parent(parent);
 702              		.loc 1 997 0
 703 00e6 0028     		cmp	r0, #0
 704 00e8 E4DA     		bge	.L49
 705 00ea FF30     		adds	r0, r0, #255
 706 00ec E2E7     		b	.L49
 707              	.L55:
1001:Drivers/lvgl/lvgl/src/core/lv_indev.c ****                 angle = -angle;
 708              		.loc 1 1001 0
 709 00ee B7F58073 		subs	r3, r7, #256
 710 00f2 18BF     		it	ne
 711 00f4 0123     		movne	r3, #1
 712 00f6 002D     		cmp	r5, #0
 713 00f8 18BF     		it	ne
 714 00fa 0123     		movne	r3, #1
 715 00fc 4BB9     		cbnz	r3, .L56
 716              	.LVL73:
 717              	.L45:
 718              	.LBE12:
1013:Drivers/lvgl/lvgl/src/core/lv_indev.c ****         _lv_indev_scroll_throw_handler(proc);
 719              		.loc 1 1013 0
 720 00fe 2EB1     		cbz	r6, .L42
1014:Drivers/lvgl/lvgl/src/core/lv_indev.c ****         if(indev_reset_check(proc)) return;
 721              		.loc 1 1014 0
 722 0100 2046     		mov	r0, r4
 723 0102 FFF7FEFF 		bl	_lv_indev_scroll_throw_handler
 724              	.LVL74:
1015:Drivers/lvgl/lvgl/src/core/lv_indev.c ****     }
 725              		.loc 1 1015 0
 726 0106 2046     		mov	r0, r4
 727 0108 FFF7FEFF 		bl	indev_reset_check
 728              	.LVL75:
 729              	.L42:
1017:Drivers/lvgl/lvgl/src/core/lv_indev.c **** 
 730              		.loc 1 1017 0
 731 010c 02B0     		add	sp, sp, #8
 732              	.LCFI4:
 733              		.cfi_remember_state
 734              		.cfi_def_cfa_offset 24
 735              		@ sp needed
 736 010e BDE8F081 		pop	{r4, r5, r6, r7, r8, pc}
 737              	.LVL76:
 738              	.L56:
 739              	.LCFI5:
 740              		.cfi_restore_state
 741              	.LBB13:
1002:Drivers/lvgl/lvgl/src/core/lv_indev.c ****                 zoom = (256 * 256) / zoom;
 742              		.loc 1 1002 0
 743 0112 6D42     		negs	r5, r5
 744              	.LVL77:
 745 0114 2DB2     		sxth	r5, r5
 746              	.LVL78:
ARM GAS  /tmp/ccDoLsau.s 			page 38


1003:Drivers/lvgl/lvgl/src/core/lv_indev.c ****                 lv_point_transform(&proc->types.pointer.scroll_throw_vect, angle, zoom, &pivot);
 747              		.loc 1 1003 0
 748 0116 4FF48030 		mov	r0, #65536
 749 011a 90FBF7F7 		sdiv	r7, r0, r7
 750              	.LVL79:
 751 011e 3FB2     		sxth	r7, r7
 752              	.LVL80:
1004:Drivers/lvgl/lvgl/src/core/lv_indev.c ****                 lv_point_transform(&proc->types.pointer.scroll_throw_vect_ori, angle, zoom, &pivot)
 753              		.loc 1 1004 0
 754 0120 01AB     		add	r3, sp, #4
 755 0122 3A46     		mov	r2, r7
 756 0124 2946     		mov	r1, r5
 757 0126 04F11C00 		add	r0, r4, #28
 758 012a FFF7FEFF 		bl	lv_point_transform
 759              	.LVL81:
1005:Drivers/lvgl/lvgl/src/core/lv_indev.c ****             }
 760              		.loc 1 1005 0
 761 012e 01AB     		add	r3, sp, #4
 762 0130 3A46     		mov	r2, r7
 763 0132 2946     		mov	r1, r5
 764 0134 04F12000 		add	r0, r4, #32
 765 0138 FFF7FEFF 		bl	lv_point_transform
 766              	.LVL82:
 767 013c DFE7     		b	.L45
 768              	.L58:
 769 013e 00BF     		.align	2
 770              	.L57:
 771 0140 00000000 		.word	.LANCHOR0
 772 0144 00000000 		.word	.LANCHOR1
 773              	.LBE13:
 774              		.cfi_endproc
 775              	.LFE189:
 777              		.section	.text.indev_keypad_proc,"ax",%progbits
 778              		.align	1
 779              		.syntax unified
 780              		.thumb
 781              		.thumb_func
 782              		.fpu fpv5-d16
 784              	indev_keypad_proc:
 785              	.LFB185:
 397:Drivers/lvgl/lvgl/src/core/lv_indev.c ****     if(data->state == LV_INDEV_STATE_PRESSED && i->proc.wait_until_release) return;
 786              		.loc 1 397 0
 787              		.cfi_startproc
 788              		@ args = 0, pretend = 0, frame = 0
 789              		@ frame_needed = 0, uses_anonymous_args = 0
 790              	.LVL83:
 791 0000 F8B5     		push	{r3, r4, r5, r6, r7, lr}
 792              	.LCFI6:
 793              		.cfi_def_cfa_offset 24
 794              		.cfi_offset 3, -24
 795              		.cfi_offset 4, -20
 796              		.cfi_offset 5, -16
 797              		.cfi_offset 6, -12
 798              		.cfi_offset 7, -8
 799              		.cfi_offset 14, -4
 398:Drivers/lvgl/lvgl/src/core/lv_indev.c **** 
 800              		.loc 1 398 0
ARM GAS  /tmp/ccDoLsau.s 			page 39


 801 0002 8B7B     		ldrb	r3, [r1, #14]	@ zero_extendqisi2
 802 0004 012B     		cmp	r3, #1
 803 0006 2FD0     		beq	.L78
 804              	.L60:
 400:Drivers/lvgl/lvgl/src/core/lv_indev.c ****         i->proc.wait_until_release      = 0;
 805              		.loc 1 400 0
 806 0008 4379     		ldrb	r3, [r0, #5]	@ zero_extendqisi2
 807 000a 13F0080F 		tst	r3, #8
 808 000e 08D0     		beq	.L62
 401:Drivers/lvgl/lvgl/src/core/lv_indev.c ****         i->proc.pr_timestamp            = 0;
 809              		.loc 1 401 0
 810 0010 4379     		ldrb	r3, [r0, #5]	@ zero_extendqisi2
 402:Drivers/lvgl/lvgl/src/core/lv_indev.c ****         i->proc.long_pr_sent            = 0;
 811              		.loc 1 402 0
 812 0012 0022     		movs	r2, #0
 813 0014 8264     		str	r2, [r0, #72]
 403:Drivers/lvgl/lvgl/src/core/lv_indev.c ****         i->proc.types.keypad.last_state = LV_INDEV_STATE_RELEASED; /*To skip the processing of rele
 814              		.loc 1 403 0
 815 0016 03F0F703 		and	r3, r3, #247
 816 001a 62F30003 		bfi	r3, r2, #0, #1
 817 001e 4371     		strb	r3, [r0, #5]
 404:Drivers/lvgl/lvgl/src/core/lv_indev.c ****     }
 818              		.loc 1 404 0
 819 0020 0272     		strb	r2, [r0, #8]
 820              	.L62:
 407:Drivers/lvgl/lvgl/src/core/lv_indev.c ****     if(g == NULL) return;
 821              		.loc 1 407 0
 822 0022 466D     		ldr	r6, [r0, #84]
 823              	.LVL84:
 408:Drivers/lvgl/lvgl/src/core/lv_indev.c **** 
 824              		.loc 1 408 0
 825 0024 FEB1     		cbz	r6, .L59
 826 0026 0D46     		mov	r5, r1
 827 0028 0446     		mov	r4, r0
 410:Drivers/lvgl/lvgl/src/core/lv_indev.c ****     if(indev_obj_act == NULL) return;
 828              		.loc 1 410 0
 829 002a 3046     		mov	r0, r6
 830              	.LVL85:
 831 002c FFF7FEFF 		bl	lv_group_get_focused
 832              	.LVL86:
 833 0030 9A4B     		ldr	r3, .L92
 834 0032 1860     		str	r0, [r3]
 411:Drivers/lvgl/lvgl/src/core/lv_indev.c **** 
 835              		.loc 1 411 0
 836 0034 B8B1     		cbz	r0, .L59
 413:Drivers/lvgl/lvgl/src/core/lv_indev.c **** 
 837              		.loc 1 413 0
 838 0036 8021     		movs	r1, #128
 839 0038 FFF7FEFF 		bl	lv_obj_has_state
 840              	.LVL87:
 841 003c 0746     		mov	r7, r0
 842              	.LVL88:
 416:Drivers/lvgl/lvgl/src/core/lv_indev.c **** 
 843              		.loc 1 416 0
 844 003e E168     		ldr	r1, [r4, #12]
 845              	.LVL89:
 420:Drivers/lvgl/lvgl/src/core/lv_indev.c **** 
ARM GAS  /tmp/ccDoLsau.s 			page 40


 846              		.loc 1 420 0
 847 0040 6B68     		ldr	r3, [r5, #4]
 848 0042 E360     		str	r3, [r4, #12]
 425:Drivers/lvgl/lvgl/src/core/lv_indev.c ****     i->proc.types.keypad.last_state = data->state;
 849              		.loc 1 425 0
 850 0044 227A     		ldrb	r2, [r4, #8]	@ zero_extendqisi2
 851              	.LVL90:
 426:Drivers/lvgl/lvgl/src/core/lv_indev.c **** 
 852              		.loc 1 426 0
 853 0046 AB7B     		ldrb	r3, [r5, #14]	@ zero_extendqisi2
 854 0048 2372     		strb	r3, [r4, #8]
 429:Drivers/lvgl/lvgl/src/core/lv_indev.c ****         LV_LOG_INFO("%" LV_PRIu32 " key is pressed", data->key);
 855              		.loc 1 429 0
 856 004a AB7B     		ldrb	r3, [r5, #14]	@ zero_extendqisi2
 857 004c 012B     		cmp	r3, #1
 858 004e 10D0     		beq	.L79
 859              	.L63:
 471:Drivers/lvgl/lvgl/src/core/lv_indev.c **** 
 860              		.loc 1 471 0
 861 0050 0FB9     		cbnz	r7, .L69
 471:Drivers/lvgl/lvgl/src/core/lv_indev.c **** 
 862              		.loc 1 471 0 is_stmt 0 discriminator 1
 863 0052 012B     		cmp	r3, #1
 864 0054 6CD0     		beq	.L80
 865              	.L69:
 518:Drivers/lvgl/lvgl/src/core/lv_indev.c ****         LV_LOG_INFO("%" LV_PRIu32 " key is released", data->key);
 866              		.loc 1 518 0 is_stmt 1
 867 0056 1FB9     		cbnz	r7, .L65
 518:Drivers/lvgl/lvgl/src/core/lv_indev.c ****         LV_LOG_INFO("%" LV_PRIu32 " key is released", data->key);
 868              		.loc 1 518 0 is_stmt 0 discriminator 1
 869 0058 13B9     		cbnz	r3, .L65
 518:Drivers/lvgl/lvgl/src/core/lv_indev.c ****         LV_LOG_INFO("%" LV_PRIu32 " key is released", data->key);
 870              		.loc 1 518 0 discriminator 2
 871 005a 012A     		cmp	r2, #1
 872 005c 00F0E780 		beq	.L81
 873              	.LVL91:
 874              	.L65:
 539:Drivers/lvgl/lvgl/src/core/lv_indev.c **** }
 875              		.loc 1 539 0 is_stmt 1
 876 0060 8E4B     		ldr	r3, .L92
 877 0062 0022     		movs	r2, #0
 878 0064 1A60     		str	r2, [r3]
 879              	.LVL92:
 880              	.L59:
 540:Drivers/lvgl/lvgl/src/core/lv_indev.c **** 
 881              		.loc 1 540 0
 882 0066 F8BD     		pop	{r3, r4, r5, r6, r7, pc}
 883              	.LVL93:
 884              	.L78:
 398:Drivers/lvgl/lvgl/src/core/lv_indev.c **** 
 885              		.loc 1 398 0 discriminator 1
 886 0068 4379     		ldrb	r3, [r0, #5]	@ zero_extendqisi2
 887 006a 13F0080F 		tst	r3, #8
 888 006e CBD0     		beq	.L60
 889 0070 F9E7     		b	.L59
 890              	.LVL94:
 891              	.L79:
ARM GAS  /tmp/ccDoLsau.s 			page 41


 429:Drivers/lvgl/lvgl/src/core/lv_indev.c ****         LV_LOG_INFO("%" LV_PRIu32 " key is pressed", data->key);
 892              		.loc 1 429 0 discriminator 1
 893 0072 002A     		cmp	r2, #0
 894 0074 ECD1     		bne	.L63
 431:Drivers/lvgl/lvgl/src/core/lv_indev.c **** 
 895              		.loc 1 431 0
 896 0076 FFF7FEFF 		bl	lv_tick_get
 897              	.LVL95:
 898 007a A064     		str	r0, [r4, #72]
 434:Drivers/lvgl/lvgl/src/core/lv_indev.c ****             lv_group_set_editing(g, false); /*Editing is not used by KEYPAD is be sure it is disabl
 899              		.loc 1 434 0
 900 007c 6968     		ldr	r1, [r5, #4]
 901 007e 0929     		cmp	r1, #9
 902 0080 10D0     		beq	.L82
 440:Drivers/lvgl/lvgl/src/core/lv_indev.c ****             lv_group_set_editing(g, false); /*Editing is not used by KEYPAD is be sure it is disabl
 903              		.loc 1 440 0
 904 0082 0B29     		cmp	r1, #11
 905 0084 1BD0     		beq	.L83
 445:Drivers/lvgl/lvgl/src/core/lv_indev.c ****             /*Simulate a press on the object if ENTER was pressed*/
 906              		.loc 1 445 0
 907 0086 002F     		cmp	r7, #0
 908 0088 EAD1     		bne	.L65
 447:Drivers/lvgl/lvgl/src/core/lv_indev.c ****                 /*Send the ENTER as a normal KEY*/
 909              		.loc 1 447 0
 910 008a 0A29     		cmp	r1, #10
 911 008c 24D0     		beq	.L84
 455:Drivers/lvgl/lvgl/src/core/lv_indev.c ****                 /*Send the ESC as a normal KEY*/
 912              		.loc 1 455 0
 913 008e 1B29     		cmp	r1, #27
 914 0090 38D0     		beq	.L85
 465:Drivers/lvgl/lvgl/src/core/lv_indev.c ****                 if(indev_reset_check(&i->proc)) return;
 915              		.loc 1 465 0
 916 0092 3046     		mov	r0, r6
 917 0094 FFF7FEFF 		bl	lv_group_send_data
 918              	.LVL96:
 466:Drivers/lvgl/lvgl/src/core/lv_indev.c ****             }
 919              		.loc 1 466 0
 920 0098 201D     		adds	r0, r4, #4
 921 009a FFF7FEFF 		bl	indev_reset_check
 922              	.LVL97:
 923 009e 0028     		cmp	r0, #0
 924 00a0 DED0     		beq	.L65
 925 00a2 E0E7     		b	.L59
 926              	.L82:
 435:Drivers/lvgl/lvgl/src/core/lv_indev.c ****             lv_group_focus_next(g);
 927              		.loc 1 435 0
 928 00a4 0021     		movs	r1, #0
 929 00a6 3046     		mov	r0, r6
 930 00a8 FFF7FEFF 		bl	lv_group_set_editing
 931              	.LVL98:
 436:Drivers/lvgl/lvgl/src/core/lv_indev.c ****             if(indev_reset_check(&i->proc)) return;
 932              		.loc 1 436 0
 933 00ac 3046     		mov	r0, r6
 934 00ae FFF7FEFF 		bl	lv_group_focus_next
 935              	.LVL99:
 437:Drivers/lvgl/lvgl/src/core/lv_indev.c ****         }
 936              		.loc 1 437 0
ARM GAS  /tmp/ccDoLsau.s 			page 42


 937 00b2 201D     		adds	r0, r4, #4
 938 00b4 FFF7FEFF 		bl	indev_reset_check
 939              	.LVL100:
 940 00b8 0028     		cmp	r0, #0
 941 00ba D1D0     		beq	.L65
 942 00bc D3E7     		b	.L59
 943              	.L83:
 441:Drivers/lvgl/lvgl/src/core/lv_indev.c ****             lv_group_focus_prev(g);
 944              		.loc 1 441 0
 945 00be 0021     		movs	r1, #0
 946 00c0 3046     		mov	r0, r6
 947 00c2 FFF7FEFF 		bl	lv_group_set_editing
 948              	.LVL101:
 442:Drivers/lvgl/lvgl/src/core/lv_indev.c ****             if(indev_reset_check(&i->proc)) return;
 949              		.loc 1 442 0
 950 00c6 3046     		mov	r0, r6
 951 00c8 FFF7FEFF 		bl	lv_group_focus_prev
 952              	.LVL102:
 443:Drivers/lvgl/lvgl/src/core/lv_indev.c ****         }
 953              		.loc 1 443 0
 954 00cc 201D     		adds	r0, r4, #4
 955 00ce FFF7FEFF 		bl	indev_reset_check
 956              	.LVL103:
 957 00d2 0028     		cmp	r0, #0
 958 00d4 C4D0     		beq	.L65
 959 00d6 C6E7     		b	.L59
 960              	.L84:
 449:Drivers/lvgl/lvgl/src/core/lv_indev.c ****                 if(indev_reset_check(&i->proc)) return;
 961              		.loc 1 449 0
 962 00d8 3046     		mov	r0, r6
 963 00da FFF7FEFF 		bl	lv_group_send_data
 964              	.LVL104:
 450:Drivers/lvgl/lvgl/src/core/lv_indev.c **** 
 965              		.loc 1 450 0
 966 00de 0434     		adds	r4, r4, #4
 967              	.LVL105:
 968 00e0 2046     		mov	r0, r4
 969 00e2 FFF7FEFF 		bl	indev_reset_check
 970              	.LVL106:
 971 00e6 0028     		cmp	r0, #0
 972 00e8 BDD1     		bne	.L59
 452:Drivers/lvgl/lvgl/src/core/lv_indev.c ****                 if(indev_reset_check(&i->proc)) return;
 973              		.loc 1 452 0 discriminator 1
 974 00ea 6D4B     		ldr	r3, .L92+4
 975 00ec 1A68     		ldr	r2, [r3]
 976 00ee 0121     		movs	r1, #1
 977 00f0 6A4B     		ldr	r3, .L92
 978 00f2 1868     		ldr	r0, [r3]
 979 00f4 FFF7FEFF 		bl	lv_event_send
 980              	.LVL107:
 453:Drivers/lvgl/lvgl/src/core/lv_indev.c ****             }
 981              		.loc 1 453 0 discriminator 1
 982 00f8 2046     		mov	r0, r4
 983 00fa FFF7FEFF 		bl	indev_reset_check
 984              	.LVL108:
 985 00fe 0028     		cmp	r0, #0
 986 0100 AED0     		beq	.L65
ARM GAS  /tmp/ccDoLsau.s 			page 43


 987 0102 B0E7     		b	.L59
 988              	.LVL109:
 989              	.L85:
 457:Drivers/lvgl/lvgl/src/core/lv_indev.c ****                 if(indev_reset_check(&i->proc)) return;
 990              		.loc 1 457 0
 991 0104 3046     		mov	r0, r6
 992 0106 FFF7FEFF 		bl	lv_group_send_data
 993              	.LVL110:
 458:Drivers/lvgl/lvgl/src/core/lv_indev.c **** 
 994              		.loc 1 458 0
 995 010a 0434     		adds	r4, r4, #4
 996              	.LVL111:
 997 010c 2046     		mov	r0, r4
 998 010e FFF7FEFF 		bl	indev_reset_check
 999              	.LVL112:
 1000 0112 0028     		cmp	r0, #0
 1001 0114 A7D1     		bne	.L59
 460:Drivers/lvgl/lvgl/src/core/lv_indev.c ****                 if(indev_reset_check(&i->proc)) return;
 1002              		.loc 1 460 0
 1003 0116 624B     		ldr	r3, .L92+4
 1004 0118 1A68     		ldr	r2, [r3]
 1005 011a 2021     		movs	r1, #32
 1006 011c 5F4B     		ldr	r3, .L92
 1007 011e 1868     		ldr	r0, [r3]
 1008 0120 FFF7FEFF 		bl	lv_event_send
 1009              	.LVL113:
 461:Drivers/lvgl/lvgl/src/core/lv_indev.c ****             }
 1010              		.loc 1 461 0
 1011 0124 2046     		mov	r0, r4
 1012 0126 FFF7FEFF 		bl	indev_reset_check
 1013              	.LVL114:
 1014 012a 0028     		cmp	r0, #0
 1015 012c 98D0     		beq	.L65
 1016 012e 9AE7     		b	.L59
 1017              	.LVL115:
 1018              	.L80:
 471:Drivers/lvgl/lvgl/src/core/lv_indev.c **** 
 1019              		.loc 1 471 0 discriminator 2
 1020 0130 012A     		cmp	r2, #1
 1021 0132 90D1     		bne	.L69
 473:Drivers/lvgl/lvgl/src/core/lv_indev.c ****             lv_event_send(indev_obj_act, LV_EVENT_PRESSING, indev_act);
 1022              		.loc 1 473 0
 1023 0134 6B68     		ldr	r3, [r5, #4]
 1024 0136 0A2B     		cmp	r3, #10
 1025 0138 22D0     		beq	.L86
 1026              	.LVL116:
 1027              	.L70:
 479:Drivers/lvgl/lvgl/src/core/lv_indev.c ****             i->proc.long_pr_sent = 1;
 1028              		.loc 1 479 0
 1029 013a 6379     		ldrb	r3, [r4, #5]	@ zero_extendqisi2
 1030 013c 13F0010F 		tst	r3, #1
 1031 0140 2BD0     		beq	.L87
 1032              	.L71:
 488:Drivers/lvgl/lvgl/src/core/lv_indev.c ****                 lv_tick_elaps(i->proc.longpr_rep_timestamp) > i->driver->long_press_repeat_time) {
 1033              		.loc 1 488 0
 1034 0142 6379     		ldrb	r3, [r4, #5]	@ zero_extendqisi2
 1035 0144 13F0010F 		tst	r3, #1
ARM GAS  /tmp/ccDoLsau.s 			page 44


 1036 0148 8AD0     		beq	.L65
 489:Drivers/lvgl/lvgl/src/core/lv_indev.c **** 
 1037              		.loc 1 489 0 discriminator 1
 1038 014a E06C     		ldr	r0, [r4, #76]
 1039 014c FFF7FEFF 		bl	lv_tick_elaps
 1040              	.LVL117:
 1041 0150 2368     		ldr	r3, [r4]
 1042 0152 DB8B     		ldrh	r3, [r3, #30]
 488:Drivers/lvgl/lvgl/src/core/lv_indev.c ****                 lv_tick_elaps(i->proc.longpr_rep_timestamp) > i->driver->long_press_repeat_time) {
 1043              		.loc 1 488 0 discriminator 1
 1044 0154 9842     		cmp	r0, r3
 1045 0156 83D9     		bls	.L65
 491:Drivers/lvgl/lvgl/src/core/lv_indev.c **** 
 1046              		.loc 1 491 0
 1047 0158 FFF7FEFF 		bl	lv_tick_get
 1048              	.LVL118:
 1049 015c E064     		str	r0, [r4, #76]
 494:Drivers/lvgl/lvgl/src/core/lv_indev.c ****                 lv_event_send(indev_obj_act, LV_EVENT_LONG_PRESSED_REPEAT, indev_act);
 1050              		.loc 1 494 0
 1051 015e 6968     		ldr	r1, [r5, #4]
 1052 0160 0A29     		cmp	r1, #10
 1053 0162 3AD0     		beq	.L88
 499:Drivers/lvgl/lvgl/src/core/lv_indev.c ****                 lv_group_set_editing(g, false); /*Editing is not used by KEYPAD is be sure it is di
 1054              		.loc 1 499 0
 1055 0164 0929     		cmp	r1, #9
 1056 0166 46D0     		beq	.L89
 505:Drivers/lvgl/lvgl/src/core/lv_indev.c ****                 lv_group_set_editing(g, false); /*Editing is not used by KEYPAD is be sure it is di
 1057              		.loc 1 505 0
 1058 0168 0B29     		cmp	r1, #11
 1059 016a 52D0     		beq	.L90
 512:Drivers/lvgl/lvgl/src/core/lv_indev.c ****                 if(indev_reset_check(&i->proc)) return;
 1060              		.loc 1 512 0
 1061 016c 3046     		mov	r0, r6
 1062 016e FFF7FEFF 		bl	lv_group_send_data
 1063              	.LVL119:
 513:Drivers/lvgl/lvgl/src/core/lv_indev.c ****             }
 1064              		.loc 1 513 0
 1065 0172 201D     		adds	r0, r4, #4
 1066 0174 FFF7FEFF 		bl	indev_reset_check
 1067              	.LVL120:
 1068 0178 0028     		cmp	r0, #0
 1069 017a 3FF471AF 		beq	.L65
 1070 017e 72E7     		b	.L59
 1071              	.LVL121:
 1072              	.L86:
 474:Drivers/lvgl/lvgl/src/core/lv_indev.c ****             if(indev_reset_check(&i->proc)) return;
 1073              		.loc 1 474 0
 1074 0180 474B     		ldr	r3, .L92+4
 1075 0182 1A68     		ldr	r2, [r3]
 1076              	.LVL122:
 1077 0184 0221     		movs	r1, #2
 1078              	.LVL123:
 1079 0186 454B     		ldr	r3, .L92
 1080 0188 1868     		ldr	r0, [r3]
 1081 018a FFF7FEFF 		bl	lv_event_send
 1082              	.LVL124:
 475:Drivers/lvgl/lvgl/src/core/lv_indev.c ****         }
ARM GAS  /tmp/ccDoLsau.s 			page 45


 1083              		.loc 1 475 0
 1084 018e 201D     		adds	r0, r4, #4
 1085 0190 FFF7FEFF 		bl	indev_reset_check
 1086              	.LVL125:
 1087 0194 0028     		cmp	r0, #0
 1088 0196 D0D0     		beq	.L70
 1089 0198 65E7     		b	.L59
 1090              	.L87:
 479:Drivers/lvgl/lvgl/src/core/lv_indev.c ****             i->proc.long_pr_sent = 1;
 1091              		.loc 1 479 0 discriminator 1
 1092 019a A06C     		ldr	r0, [r4, #72]
 1093 019c FFF7FEFF 		bl	lv_tick_elaps
 1094              	.LVL126:
 1095 01a0 2368     		ldr	r3, [r4]
 1096 01a2 9B8B     		ldrh	r3, [r3, #28]
 1097 01a4 9842     		cmp	r0, r3
 1098 01a6 CCD9     		bls	.L71
 480:Drivers/lvgl/lvgl/src/core/lv_indev.c ****             if(data->key == LV_KEY_ENTER) {
 1099              		.loc 1 480 0
 1100 01a8 6379     		ldrb	r3, [r4, #5]	@ zero_extendqisi2
 1101 01aa 43F00103 		orr	r3, r3, #1
 1102 01ae 6371     		strb	r3, [r4, #5]
 481:Drivers/lvgl/lvgl/src/core/lv_indev.c ****                 i->proc.longpr_rep_timestamp = lv_tick_get();
 1103              		.loc 1 481 0
 1104 01b0 6B68     		ldr	r3, [r5, #4]
 1105 01b2 0A2B     		cmp	r3, #10
 1106 01b4 7FF454AF 		bne	.L65
 482:Drivers/lvgl/lvgl/src/core/lv_indev.c ****                 lv_event_send(indev_obj_act, LV_EVENT_LONG_PRESSED, indev_act);
 1107              		.loc 1 482 0
 1108 01b8 FFF7FEFF 		bl	lv_tick_get
 1109              	.LVL127:
 1110 01bc E064     		str	r0, [r4, #76]
 483:Drivers/lvgl/lvgl/src/core/lv_indev.c ****                 if(indev_reset_check(&i->proc)) return;
 1111              		.loc 1 483 0
 1112 01be 384B     		ldr	r3, .L92+4
 1113 01c0 1A68     		ldr	r2, [r3]
 1114 01c2 0521     		movs	r1, #5
 1115 01c4 354B     		ldr	r3, .L92
 1116 01c6 1868     		ldr	r0, [r3]
 1117 01c8 FFF7FEFF 		bl	lv_event_send
 1118              	.LVL128:
 484:Drivers/lvgl/lvgl/src/core/lv_indev.c ****             }
 1119              		.loc 1 484 0
 1120 01cc 201D     		adds	r0, r4, #4
 1121 01ce FFF7FEFF 		bl	indev_reset_check
 1122              	.LVL129:
 1123 01d2 0028     		cmp	r0, #0
 1124 01d4 3FF444AF 		beq	.L65
 1125 01d8 45E7     		b	.L59
 1126              	.L88:
 495:Drivers/lvgl/lvgl/src/core/lv_indev.c ****                 if(indev_reset_check(&i->proc)) return;
 1127              		.loc 1 495 0
 1128 01da 314B     		ldr	r3, .L92+4
 1129 01dc 1A68     		ldr	r2, [r3]
 1130 01de 0621     		movs	r1, #6
 1131 01e0 2E4B     		ldr	r3, .L92
 1132 01e2 1868     		ldr	r0, [r3]
ARM GAS  /tmp/ccDoLsau.s 			page 46


 1133 01e4 FFF7FEFF 		bl	lv_event_send
 1134              	.LVL130:
 496:Drivers/lvgl/lvgl/src/core/lv_indev.c ****             }
 1135              		.loc 1 496 0
 1136 01e8 201D     		adds	r0, r4, #4
 1137 01ea FFF7FEFF 		bl	indev_reset_check
 1138              	.LVL131:
 1139 01ee 0028     		cmp	r0, #0
 1140 01f0 3FF436AF 		beq	.L65
 1141 01f4 37E7     		b	.L59
 1142              	.L89:
 500:Drivers/lvgl/lvgl/src/core/lv_indev.c ****                 lv_group_focus_next(g);
 1143              		.loc 1 500 0
 1144 01f6 0021     		movs	r1, #0
 1145 01f8 3046     		mov	r0, r6
 1146 01fa FFF7FEFF 		bl	lv_group_set_editing
 1147              	.LVL132:
 501:Drivers/lvgl/lvgl/src/core/lv_indev.c ****                 if(indev_reset_check(&i->proc)) return;
 1148              		.loc 1 501 0
 1149 01fe 3046     		mov	r0, r6
 1150 0200 FFF7FEFF 		bl	lv_group_focus_next
 1151              	.LVL133:
 502:Drivers/lvgl/lvgl/src/core/lv_indev.c ****             }
 1152              		.loc 1 502 0
 1153 0204 201D     		adds	r0, r4, #4
 1154 0206 FFF7FEFF 		bl	indev_reset_check
 1155              	.LVL134:
 1156 020a 0028     		cmp	r0, #0
 1157 020c 3FF428AF 		beq	.L65
 1158 0210 29E7     		b	.L59
 1159              	.L90:
 506:Drivers/lvgl/lvgl/src/core/lv_indev.c ****                 lv_group_focus_prev(g);
 1160              		.loc 1 506 0
 1161 0212 0021     		movs	r1, #0
 1162 0214 3046     		mov	r0, r6
 1163 0216 FFF7FEFF 		bl	lv_group_set_editing
 1164              	.LVL135:
 507:Drivers/lvgl/lvgl/src/core/lv_indev.c ****                 if(indev_reset_check(&i->proc)) return;
 1165              		.loc 1 507 0
 1166 021a 3046     		mov	r0, r6
 1167 021c FFF7FEFF 		bl	lv_group_focus_prev
 1168              	.LVL136:
 508:Drivers/lvgl/lvgl/src/core/lv_indev.c ****             }
 1169              		.loc 1 508 0
 1170 0220 201D     		adds	r0, r4, #4
 1171 0222 FFF7FEFF 		bl	indev_reset_check
 1172              	.LVL137:
 1173 0226 0028     		cmp	r0, #0
 1174 0228 3FF41AAF 		beq	.L65
 1175 022c 1BE7     		b	.L59
 1176              	.LVL138:
 1177              	.L81:
 521:Drivers/lvgl/lvgl/src/core/lv_indev.c ****         if(data->key == LV_KEY_ENTER) {
 1178              		.loc 1 521 0
 1179 022e 6960     		str	r1, [r5, #4]
 522:Drivers/lvgl/lvgl/src/core/lv_indev.c **** 
 1180              		.loc 1 522 0
ARM GAS  /tmp/ccDoLsau.s 			page 47


 1181 0230 0A29     		cmp	r1, #10
 1182 0232 06D0     		beq	.L91
 1183              	.LVL139:
 1184              	.L75:
 536:Drivers/lvgl/lvgl/src/core/lv_indev.c ****         i->proc.long_pr_sent = 0;
 1185              		.loc 1 536 0
 1186 0234 0022     		movs	r2, #0
 1187 0236 A264     		str	r2, [r4, #72]
 537:Drivers/lvgl/lvgl/src/core/lv_indev.c ****     }
 1188              		.loc 1 537 0
 1189 0238 6379     		ldrb	r3, [r4, #5]	@ zero_extendqisi2
 1190 023a 62F30003 		bfi	r3, r2, #0, #1
 1191 023e 6371     		strb	r3, [r4, #5]
 1192 0240 0EE7     		b	.L65
 1193              	.LVL140:
 1194              	.L91:
 524:Drivers/lvgl/lvgl/src/core/lv_indev.c ****             if(indev_reset_check(&i->proc)) return;
 1195              		.loc 1 524 0
 1196 0242 174B     		ldr	r3, .L92+4
 1197 0244 1A68     		ldr	r2, [r3]
 1198              	.LVL141:
 1199 0246 0821     		movs	r1, #8
 1200              	.LVL142:
 1201 0248 144B     		ldr	r3, .L92
 1202 024a 1868     		ldr	r0, [r3]
 1203 024c FFF7FEFF 		bl	lv_event_send
 1204              	.LVL143:
 525:Drivers/lvgl/lvgl/src/core/lv_indev.c **** 
 1205              		.loc 1 525 0
 1206 0250 251D     		adds	r5, r4, #4
 1207              	.LVL144:
 1208 0252 2846     		mov	r0, r5
 1209 0254 FFF7FEFF 		bl	indev_reset_check
 1210              	.LVL145:
 1211 0258 0028     		cmp	r0, #0
 1212 025a 7FF404AF 		bne	.L59
 527:Drivers/lvgl/lvgl/src/core/lv_indev.c ****                 lv_event_send(indev_obj_act, LV_EVENT_SHORT_CLICKED, indev_act);
 1213              		.loc 1 527 0
 1214 025e 6379     		ldrb	r3, [r4, #5]	@ zero_extendqisi2
 1215 0260 13F0010F 		tst	r3, #1
 1216 0264 0CD1     		bne	.L76
 528:Drivers/lvgl/lvgl/src/core/lv_indev.c ****                 if(indev_reset_check(&i->proc)) return;
 1217              		.loc 1 528 0
 1218 0266 0E4B     		ldr	r3, .L92+4
 1219 0268 1A68     		ldr	r2, [r3]
 1220 026a 0421     		movs	r1, #4
 1221 026c 0B4B     		ldr	r3, .L92
 1222 026e 1868     		ldr	r0, [r3]
 1223 0270 FFF7FEFF 		bl	lv_event_send
 1224              	.LVL146:
 529:Drivers/lvgl/lvgl/src/core/lv_indev.c ****             }
 1225              		.loc 1 529 0
 1226 0274 2846     		mov	r0, r5
 1227 0276 FFF7FEFF 		bl	indev_reset_check
 1228              	.LVL147:
 1229 027a 0028     		cmp	r0, #0
 1230 027c 7FF4F3AE 		bne	.L59
ARM GAS  /tmp/ccDoLsau.s 			page 48


 1231              	.L76:
 532:Drivers/lvgl/lvgl/src/core/lv_indev.c ****             if(indev_reset_check(&i->proc)) return;
 1232              		.loc 1 532 0
 1233 0280 074B     		ldr	r3, .L92+4
 1234 0282 1A68     		ldr	r2, [r3]
 1235 0284 0721     		movs	r1, #7
 1236 0286 054B     		ldr	r3, .L92
 1237 0288 1868     		ldr	r0, [r3]
 1238 028a FFF7FEFF 		bl	lv_event_send
 1239              	.LVL148:
 533:Drivers/lvgl/lvgl/src/core/lv_indev.c **** 
 1240              		.loc 1 533 0
 1241 028e 2846     		mov	r0, r5
 1242 0290 FFF7FEFF 		bl	indev_reset_check
 1243              	.LVL149:
 1244 0294 0028     		cmp	r0, #0
 1245 0296 CDD0     		beq	.L75
 1246 0298 E5E6     		b	.L59
 1247              	.L93:
 1248 029a 00BF     		.align	2
 1249              	.L92:
 1250 029c 00000000 		.word	.LANCHOR0
 1251 02a0 00000000 		.word	.LANCHOR1
 1252              		.cfi_endproc
 1253              	.LFE185:
 1255              		.section	.text.indev_encoder_proc,"ax",%progbits
 1256              		.align	1
 1257              		.syntax unified
 1258              		.thumb
 1259              		.thumb_func
 1260              		.fpu fpv5-d16
 1262              	indev_encoder_proc:
 1263              	.LFB186:
 548:Drivers/lvgl/lvgl/src/core/lv_indev.c ****     if(data->state == LV_INDEV_STATE_PRESSED && i->proc.wait_until_release) return;
 1264              		.loc 1 548 0
 1265              		.cfi_startproc
 1266              		@ args = 0, pretend = 0, frame = 0
 1267              		@ frame_needed = 0, uses_anonymous_args = 0
 1268              	.LVL150:
 1269 0000 F8B5     		push	{r3, r4, r5, r6, r7, lr}
 1270              	.LCFI7:
 1271              		.cfi_def_cfa_offset 24
 1272              		.cfi_offset 3, -24
 1273              		.cfi_offset 4, -20
 1274              		.cfi_offset 5, -16
 1275              		.cfi_offset 6, -12
 1276              		.cfi_offset 7, -8
 1277              		.cfi_offset 14, -4
 549:Drivers/lvgl/lvgl/src/core/lv_indev.c **** 
 1278              		.loc 1 549 0
 1279 0002 8B7B     		ldrb	r3, [r1, #14]	@ zero_extendqisi2
 1280 0004 012B     		cmp	r3, #1
 1281 0006 37D0     		beq	.L146
 1282              	.L95:
 551:Drivers/lvgl/lvgl/src/core/lv_indev.c ****         i->proc.wait_until_release      = 0;
 1283              		.loc 1 551 0
 1284 0008 4379     		ldrb	r3, [r0, #5]	@ zero_extendqisi2
ARM GAS  /tmp/ccDoLsau.s 			page 49


 1285 000a 13F0080F 		tst	r3, #8
 1286 000e 08D0     		beq	.L97
 552:Drivers/lvgl/lvgl/src/core/lv_indev.c ****         i->proc.pr_timestamp            = 0;
 1287              		.loc 1 552 0
 1288 0010 4379     		ldrb	r3, [r0, #5]	@ zero_extendqisi2
 553:Drivers/lvgl/lvgl/src/core/lv_indev.c ****         i->proc.long_pr_sent            = 0;
 1289              		.loc 1 553 0
 1290 0012 0022     		movs	r2, #0
 1291 0014 8264     		str	r2, [r0, #72]
 554:Drivers/lvgl/lvgl/src/core/lv_indev.c ****         i->proc.types.keypad.last_state = LV_INDEV_STATE_RELEASED; /*To skip the processing of rele
 1292              		.loc 1 554 0
 1293 0016 03F0F703 		and	r3, r3, #247
 1294 001a 62F30003 		bfi	r3, r2, #0, #1
 1295 001e 4371     		strb	r3, [r0, #5]
 555:Drivers/lvgl/lvgl/src/core/lv_indev.c ****     }
 1296              		.loc 1 555 0
 1297 0020 0272     		strb	r2, [r0, #8]
 1298              	.L97:
 560:Drivers/lvgl/lvgl/src/core/lv_indev.c ****     i->proc.types.keypad.last_state = data->state;
 1299              		.loc 1 560 0
 1300 0022 077A     		ldrb	r7, [r0, #8]	@ zero_extendqisi2
 1301              	.LVL151:
 561:Drivers/lvgl/lvgl/src/core/lv_indev.c ****     i->proc.types.keypad.last_key   = data->key;
 1302              		.loc 1 561 0
 1303 0024 8B7B     		ldrb	r3, [r1, #14]	@ zero_extendqisi2
 1304 0026 0372     		strb	r3, [r0, #8]
 562:Drivers/lvgl/lvgl/src/core/lv_indev.c **** 
 1305              		.loc 1 562 0
 1306 0028 4B68     		ldr	r3, [r1, #4]
 1307 002a C360     		str	r3, [r0, #12]
 564:Drivers/lvgl/lvgl/src/core/lv_indev.c ****     if(g == NULL) return;
 1308              		.loc 1 564 0
 1309 002c 466D     		ldr	r6, [r0, #84]
 1310              	.LVL152:
 565:Drivers/lvgl/lvgl/src/core/lv_indev.c **** 
 1311              		.loc 1 565 0
 1312 002e 16B3     		cbz	r6, .L94
 1313 0030 0D46     		mov	r5, r1
 1314 0032 0446     		mov	r4, r0
 567:Drivers/lvgl/lvgl/src/core/lv_indev.c ****     if(indev_obj_act == NULL) return;
 1315              		.loc 1 567 0
 1316 0034 3046     		mov	r0, r6
 1317              	.LVL153:
 1318 0036 FFF7FEFF 		bl	lv_group_get_focused
 1319              	.LVL154:
 1320 003a A54B     		ldr	r3, .L166
 1321 003c 1860     		str	r0, [r3]
 568:Drivers/lvgl/lvgl/src/core/lv_indev.c **** 
 1322              		.loc 1 568 0
 1323 003e D0B1     		cbz	r0, .L94
 571:Drivers/lvgl/lvgl/src/core/lv_indev.c ****         data->enc_diff = 0;
 1324              		.loc 1 571 0
 1325 0040 AB7B     		ldrb	r3, [r5, #14]	@ zero_extendqisi2
 1326 0042 0BB1     		cbz	r3, .L98
 572:Drivers/lvgl/lvgl/src/core/lv_indev.c ****     }
 1327              		.loc 1 572 0
 1328 0044 0023     		movs	r3, #0
ARM GAS  /tmp/ccDoLsau.s 			page 50


 1329 0046 AB81     		strh	r3, [r5, #12]	@ movhi
 1330              	.L98:
 576:Drivers/lvgl/lvgl/src/core/lv_indev.c ****     if(indev_obj_act == NULL) return;
 1331              		.loc 1 576 0
 1332 0048 3046     		mov	r0, r6
 1333 004a FFF7FEFF 		bl	lv_group_get_focused
 1334              	.LVL155:
 1335 004e A04B     		ldr	r3, .L166
 1336 0050 1860     		str	r0, [r3]
 577:Drivers/lvgl/lvgl/src/core/lv_indev.c **** 
 1337              		.loc 1 577 0
 1338 0052 80B1     		cbz	r0, .L94
 580:Drivers/lvgl/lvgl/src/core/lv_indev.c ****         LV_LOG_INFO("pressed");
 1339              		.loc 1 580 0
 1340 0054 AB7B     		ldrb	r3, [r5, #14]	@ zero_extendqisi2
 1341 0056 012B     		cmp	r3, #1
 1342 0058 13D0     		beq	.L147
 1343              	.L99:
 616:Drivers/lvgl/lvgl/src/core/lv_indev.c ****         /*Long press*/
 1344              		.loc 1 616 0
 1345 005a 012B     		cmp	r3, #1
 1346 005c 6CD0     		beq	.L148
 1347              	.L107:
 671:Drivers/lvgl/lvgl/src/core/lv_indev.c ****         LV_LOG_INFO("released");
 1348              		.loc 1 671 0
 1349 005e 13B9     		cbnz	r3, .L103
 671:Drivers/lvgl/lvgl/src/core/lv_indev.c ****         LV_LOG_INFO("released");
 1350              		.loc 1 671 0 is_stmt 0 discriminator 1
 1351 0060 012F     		cmp	r7, #1
 1352 0062 00F0EE80 		beq	.L149
 1353              	.LVL156:
 1354              	.L103:
 721:Drivers/lvgl/lvgl/src/core/lv_indev.c **** 
 1355              		.loc 1 721 0 is_stmt 1
 1356 0066 9A4B     		ldr	r3, .L166
 1357 0068 0022     		movs	r2, #0
 1358 006a 1A60     		str	r2, [r3]
 724:Drivers/lvgl/lvgl/src/core/lv_indev.c ****         /*In edit mode send LEFT/RIGHT keys*/
 1359              		.loc 1 724 0
 1360 006c B5F90C30 		ldrsh	r3, [r5, #12]
 1361 0070 002B     		cmp	r3, #0
 1362 0072 40F08281 		bne	.L150
 1363              	.LVL157:
 1364              	.L94:
 760:Drivers/lvgl/lvgl/src/core/lv_indev.c **** 
 1365              		.loc 1 760 0
 1366 0076 F8BD     		pop	{r3, r4, r5, r6, r7, pc}
 1367              	.LVL158:
 1368              	.L146:
 549:Drivers/lvgl/lvgl/src/core/lv_indev.c **** 
 1369              		.loc 1 549 0 discriminator 1
 1370 0078 4379     		ldrb	r3, [r0, #5]	@ zero_extendqisi2
 1371 007a 13F0080F 		tst	r3, #8
 1372 007e C3D0     		beq	.L95
 1373 0080 F9E7     		b	.L94
 1374              	.LVL159:
 1375              	.L147:
ARM GAS  /tmp/ccDoLsau.s 			page 51


 580:Drivers/lvgl/lvgl/src/core/lv_indev.c ****         LV_LOG_INFO("pressed");
 1376              		.loc 1 580 0 discriminator 1
 1377 0082 002F     		cmp	r7, #0
 1378 0084 E9D1     		bne	.L99
 583:Drivers/lvgl/lvgl/src/core/lv_indev.c **** 
 1379              		.loc 1 583 0
 1380 0086 FFF7FEFF 		bl	lv_tick_get
 1381              	.LVL160:
 1382 008a A064     		str	r0, [r4, #72]
 585:Drivers/lvgl/lvgl/src/core/lv_indev.c ****             bool editable_or_scrollable = lv_obj_is_editable(indev_obj_act) ||
 1383              		.loc 1 585 0
 1384 008c 6968     		ldr	r1, [r5, #4]
 1385 008e 0A29     		cmp	r1, #10
 1386 0090 0ED0     		beq	.L151
 593:Drivers/lvgl/lvgl/src/core/lv_indev.c ****             /*emulate encoder left*/
 1387              		.loc 1 593 0
 1388 0092 1429     		cmp	r1, #20
 1389 0094 30D0     		beq	.L152
 597:Drivers/lvgl/lvgl/src/core/lv_indev.c ****             /*emulate encoder right*/
 1390              		.loc 1 597 0
 1391 0096 1329     		cmp	r1, #19
 1392 0098 33D0     		beq	.L153
 601:Drivers/lvgl/lvgl/src/core/lv_indev.c ****             /*Send the ESC as a normal KEY*/
 1393              		.loc 1 601 0
 1394 009a 1B29     		cmp	r1, #27
 1395 009c 36D0     		beq	.L154
 611:Drivers/lvgl/lvgl/src/core/lv_indev.c ****             if(indev_reset_check(&i->proc)) return;
 1396              		.loc 1 611 0
 1397 009e 3046     		mov	r0, r6
 1398 00a0 FFF7FEFF 		bl	lv_group_send_data
 1399              	.LVL161:
 612:Drivers/lvgl/lvgl/src/core/lv_indev.c ****         }
 1400              		.loc 1 612 0
 1401 00a4 201D     		adds	r0, r4, #4
 1402 00a6 FFF7FEFF 		bl	indev_reset_check
 1403              	.LVL162:
 1404 00aa 0028     		cmp	r0, #0
 1405 00ac DBD0     		beq	.L103
 1406 00ae E2E7     		b	.L94
 1407              	.L151:
 1408              	.LBB14:
 586:Drivers/lvgl/lvgl/src/core/lv_indev.c ****                                           lv_obj_has_flag(indev_obj_act, LV_OBJ_FLAG_SCROLLABLE);
 1409              		.loc 1 586 0
 1410 00b0 874B     		ldr	r3, .L166
 1411 00b2 1868     		ldr	r0, [r3]
 1412 00b4 FFF7FEFF 		bl	lv_obj_is_editable
 1413              	.LVL163:
 1414 00b8 A0B1     		cbz	r0, .L155
 1415 00ba 0123     		movs	r3, #1
 1416              	.L101:
 586:Drivers/lvgl/lvgl/src/core/lv_indev.c ****                                           lv_obj_has_flag(indev_obj_act, LV_OBJ_FLAG_SCROLLABLE);
 1417              		.loc 1 586 0 is_stmt 0 discriminator 6
 1418 00bc 1F46     		mov	r7, r3
 1419              	.LVL164:
 588:Drivers/lvgl/lvgl/src/core/lv_indev.c ****                 lv_event_send(indev_obj_act, LV_EVENT_PRESSED, indev_act);
 1420              		.loc 1 588 0 is_stmt 1 discriminator 6
 1421 00be 3046     		mov	r0, r6
ARM GAS  /tmp/ccDoLsau.s 			page 52


 1422 00c0 FFF7FEFF 		bl	lv_group_get_editing
 1423              	.LVL165:
 1424 00c4 08B9     		cbnz	r0, .L102
 588:Drivers/lvgl/lvgl/src/core/lv_indev.c ****                 lv_event_send(indev_obj_act, LV_EVENT_PRESSED, indev_act);
 1425              		.loc 1 588 0 is_stmt 0 discriminator 1
 1426 00c6 002F     		cmp	r7, #0
 1427 00c8 CDD1     		bne	.L103
 1428              	.L102:
 589:Drivers/lvgl/lvgl/src/core/lv_indev.c ****                 if(indev_reset_check(&i->proc)) return;
 1429              		.loc 1 589 0 is_stmt 1
 1430 00ca 824B     		ldr	r3, .L166+4
 1431 00cc 1A68     		ldr	r2, [r3]
 1432 00ce 0121     		movs	r1, #1
 1433 00d0 7F4B     		ldr	r3, .L166
 1434 00d2 1868     		ldr	r0, [r3]
 1435 00d4 FFF7FEFF 		bl	lv_event_send
 1436              	.LVL166:
 590:Drivers/lvgl/lvgl/src/core/lv_indev.c ****             }
 1437              		.loc 1 590 0
 1438 00d8 201D     		adds	r0, r4, #4
 1439 00da FFF7FEFF 		bl	indev_reset_check
 1440              	.LVL167:
 1441 00de 0028     		cmp	r0, #0
 1442 00e0 C1D0     		beq	.L103
 1443 00e2 C8E7     		b	.L94
 1444              	.LVL168:
 1445              	.L155:
 587:Drivers/lvgl/lvgl/src/core/lv_indev.c ****             if(lv_group_get_editing(g) == true || editable_or_scrollable == false) {
 1446              		.loc 1 587 0 discriminator 2
 1447 00e4 1021     		movs	r1, #16
 1448 00e6 7A4B     		ldr	r3, .L166
 1449 00e8 1868     		ldr	r0, [r3]
 1450 00ea FFF7FEFF 		bl	lv_obj_has_flag
 1451              	.LVL169:
 586:Drivers/lvgl/lvgl/src/core/lv_indev.c ****                                           lv_obj_has_flag(indev_obj_act, LV_OBJ_FLAG_SCROLLABLE);
 1452              		.loc 1 586 0 discriminator 2
 1453 00ee 08B9     		cbnz	r0, .L134
 586:Drivers/lvgl/lvgl/src/core/lv_indev.c ****                                           lv_obj_has_flag(indev_obj_act, LV_OBJ_FLAG_SCROLLABLE);
 1454              		.loc 1 586 0 is_stmt 0
 1455 00f0 0023     		movs	r3, #0
 1456 00f2 E3E7     		b	.L101
 1457              	.L134:
 1458 00f4 0123     		movs	r3, #1
 1459 00f6 E1E7     		b	.L101
 1460              	.L152:
 1461              	.LBE14:
 595:Drivers/lvgl/lvgl/src/core/lv_indev.c ****         }
 1462              		.loc 1 595 0 is_stmt 1
 1463 00f8 B5F90C30 		ldrsh	r3, [r5, #12]
 1464 00fc 013B     		subs	r3, r3, #1
 1465 00fe AB81     		strh	r3, [r5, #12]	@ movhi
 1466 0100 B1E7     		b	.L103
 1467              	.L153:
 599:Drivers/lvgl/lvgl/src/core/lv_indev.c ****         }
 1468              		.loc 1 599 0
 1469 0102 B5F90C30 		ldrsh	r3, [r5, #12]
 1470 0106 0133     		adds	r3, r3, #1
ARM GAS  /tmp/ccDoLsau.s 			page 53


 1471 0108 AB81     		strh	r3, [r5, #12]	@ movhi
 1472 010a ACE7     		b	.L103
 1473              	.L154:
 603:Drivers/lvgl/lvgl/src/core/lv_indev.c ****             if(indev_reset_check(&i->proc)) return;
 1474              		.loc 1 603 0
 1475 010c 3046     		mov	r0, r6
 1476 010e FFF7FEFF 		bl	lv_group_send_data
 1477              	.LVL170:
 604:Drivers/lvgl/lvgl/src/core/lv_indev.c **** 
 1478              		.loc 1 604 0
 1479 0112 271D     		adds	r7, r4, #4
 1480              	.LVL171:
 1481 0114 3846     		mov	r0, r7
 1482 0116 FFF7FEFF 		bl	indev_reset_check
 1483              	.LVL172:
 1484 011a 0028     		cmp	r0, #0
 1485 011c ABD1     		bne	.L94
 606:Drivers/lvgl/lvgl/src/core/lv_indev.c ****             if(indev_reset_check(&i->proc)) return;
 1486              		.loc 1 606 0
 1487 011e 6D4B     		ldr	r3, .L166+4
 1488 0120 1A68     		ldr	r2, [r3]
 1489 0122 2021     		movs	r1, #32
 1490 0124 6A4B     		ldr	r3, .L166
 1491 0126 1868     		ldr	r0, [r3]
 1492 0128 FFF7FEFF 		bl	lv_event_send
 1493              	.LVL173:
 607:Drivers/lvgl/lvgl/src/core/lv_indev.c ****         }
 1494              		.loc 1 607 0
 1495 012c 3846     		mov	r0, r7
 1496 012e FFF7FEFF 		bl	indev_reset_check
 1497              	.LVL174:
 1498 0132 0028     		cmp	r0, #0
 1499 0134 97D0     		beq	.L103
 1500 0136 9EE7     		b	.L94
 1501              	.LVL175:
 1502              	.L148:
 616:Drivers/lvgl/lvgl/src/core/lv_indev.c ****         /*Long press*/
 1503              		.loc 1 616 0 discriminator 1
 1504 0138 012F     		cmp	r7, #1
 1505 013a 90D1     		bne	.L107
 618:Drivers/lvgl/lvgl/src/core/lv_indev.c **** 
 1506              		.loc 1 618 0
 1507 013c 6379     		ldrb	r3, [r4, #5]	@ zero_extendqisi2
 1508 013e 13F0010F 		tst	r3, #1
 1509 0142 19D0     		beq	.L156
 1510              	.L108:
 646:Drivers/lvgl/lvgl/src/core/lv_indev.c **** 
 1511              		.loc 1 646 0
 1512 0144 6379     		ldrb	r3, [r4, #5]	@ zero_extendqisi2
 1513 0146 13F0010F 		tst	r3, #1
 1514 014a 8CD0     		beq	.L103
 646:Drivers/lvgl/lvgl/src/core/lv_indev.c **** 
 1515              		.loc 1 646 0 is_stmt 0 discriminator 1
 1516 014c E06C     		ldr	r0, [r4, #76]
 1517 014e FFF7FEFF 		bl	lv_tick_elaps
 1518              	.LVL176:
 1519 0152 2368     		ldr	r3, [r4]
ARM GAS  /tmp/ccDoLsau.s 			page 54


 1520 0154 DB8B     		ldrh	r3, [r3, #30]
 1521 0156 9842     		cmp	r0, r3
 1522 0158 85D9     		bls	.L103
 648:Drivers/lvgl/lvgl/src/core/lv_indev.c **** 
 1523              		.loc 1 648 0 is_stmt 1
 1524 015a FFF7FEFF 		bl	lv_tick_get
 1525              	.LVL177:
 1526 015e E064     		str	r0, [r4, #76]
 650:Drivers/lvgl/lvgl/src/core/lv_indev.c ****                 lv_event_send(indev_obj_act, LV_EVENT_LONG_PRESSED_REPEAT, indev_act);
 1527              		.loc 1 650 0
 1528 0160 6968     		ldr	r1, [r5, #4]
 1529 0162 0A29     		cmp	r1, #10
 1530 0164 50D0     		beq	.L157
 654:Drivers/lvgl/lvgl/src/core/lv_indev.c ****                 /*emulate encoder left*/
 1531              		.loc 1 654 0
 1532 0166 1429     		cmp	r1, #20
 1533 0168 5CD0     		beq	.L158
 658:Drivers/lvgl/lvgl/src/core/lv_indev.c ****                 /*emulate encoder right*/
 1534              		.loc 1 658 0
 1535 016a 1329     		cmp	r1, #19
 1536 016c 5FD1     		bne	.L114
 660:Drivers/lvgl/lvgl/src/core/lv_indev.c ****             }
 1537              		.loc 1 660 0
 1538 016e B5F90C30 		ldrsh	r3, [r5, #12]
 1539 0172 0133     		adds	r3, r3, #1
 1540 0174 AB81     		strh	r3, [r5, #12]	@ movhi
 1541 0176 76E7     		b	.L103
 1542              	.L156:
 618:Drivers/lvgl/lvgl/src/core/lv_indev.c **** 
 1543              		.loc 1 618 0 discriminator 1
 1544 0178 A06C     		ldr	r0, [r4, #72]
 1545 017a FFF7FEFF 		bl	lv_tick_elaps
 1546              	.LVL178:
 1547 017e 2368     		ldr	r3, [r4]
 1548 0180 9B8B     		ldrh	r3, [r3, #28]
 1549 0182 9842     		cmp	r0, r3
 1550 0184 DED9     		bls	.L108
 620:Drivers/lvgl/lvgl/src/core/lv_indev.c ****             i->proc.longpr_rep_timestamp = lv_tick_get();
 1551              		.loc 1 620 0
 1552 0186 6379     		ldrb	r3, [r4, #5]	@ zero_extendqisi2
 1553 0188 43F00103 		orr	r3, r3, #1
 1554 018c 6371     		strb	r3, [r4, #5]
 621:Drivers/lvgl/lvgl/src/core/lv_indev.c **** 
 1555              		.loc 1 621 0
 1556 018e FFF7FEFF 		bl	lv_tick_get
 1557              	.LVL179:
 1558 0192 E064     		str	r0, [r4, #76]
 623:Drivers/lvgl/lvgl/src/core/lv_indev.c ****                 bool editable_or_scrollable = lv_obj_is_editable(indev_obj_act) ||
 1559              		.loc 1 623 0
 1560 0194 6B68     		ldr	r3, [r5, #4]
 1561 0196 0A2B     		cmp	r3, #10
 1562 0198 04D0     		beq	.L159
 1563              	.L109:
 643:Drivers/lvgl/lvgl/src/core/lv_indev.c ****         }
 1564              		.loc 1 643 0
 1565 019a 6379     		ldrb	r3, [r4, #5]	@ zero_extendqisi2
 1566 019c 43F00103 		orr	r3, r3, #1
ARM GAS  /tmp/ccDoLsau.s 			page 55


 1567 01a0 6371     		strb	r3, [r4, #5]
 1568 01a2 60E7     		b	.L103
 1569              	.L159:
 1570              	.LBB15:
 624:Drivers/lvgl/lvgl/src/core/lv_indev.c ****                                               lv_obj_has_flag(indev_obj_act, LV_OBJ_FLAG_SCROLLABLE
 1571              		.loc 1 624 0
 1572 01a4 4A4B     		ldr	r3, .L166
 1573 01a6 1868     		ldr	r0, [r3]
 1574 01a8 FFF7FEFF 		bl	lv_obj_is_editable
 1575              	.LVL180:
 1576 01ac A8B1     		cbz	r0, .L160
 1577 01ae 0123     		movs	r3, #1
 1578              	.L110:
 1579              	.LVL181:
 628:Drivers/lvgl/lvgl/src/core/lv_indev.c ****                     /*Don't leave edit mode if there is only one object (nowhere to navigate)*/
 1580              		.loc 1 628 0 discriminator 6
 1581 01b0 EBB1     		cbz	r3, .L111
 630:Drivers/lvgl/lvgl/src/core/lv_indev.c ****                         LV_LOG_INFO("toggling edit mode");
 1582              		.loc 1 630 0
 1583 01b2 3046     		mov	r0, r6
 1584 01b4 FFF7FEFF 		bl	lv_group_get_obj_count
 1585              	.LVL182:
 1586 01b8 0128     		cmp	r0, #1
 1587 01ba EED9     		bls	.L109
 632:Drivers/lvgl/lvgl/src/core/lv_indev.c ****                         lv_obj_clear_state(indev_obj_act, LV_STATE_PRESSED);    /*Remove the presse
 1588              		.loc 1 632 0
 1589 01bc 3046     		mov	r0, r6
 1590 01be FFF7FEFF 		bl	lv_group_get_editing
 1591              	.LVL183:
 1592 01c2 80F00101 		eor	r1, r0, #1
 1593 01c6 C9B2     		uxtb	r1, r1
 1594 01c8 3046     		mov	r0, r6
 1595 01ca FFF7FEFF 		bl	lv_group_set_editing
 1596              	.LVL184:
 633:Drivers/lvgl/lvgl/src/core/lv_indev.c ****                     }
 1597              		.loc 1 633 0
 1598 01ce 2021     		movs	r1, #32
 1599 01d0 3F4B     		ldr	r3, .L166
 1600 01d2 1868     		ldr	r0, [r3]
 1601 01d4 FFF7FEFF 		bl	lv_obj_clear_state
 1602              	.LVL185:
 1603 01d8 DFE7     		b	.L109
 1604              	.L160:
 625:Drivers/lvgl/lvgl/src/core/lv_indev.c **** 
 1605              		.loc 1 625 0 discriminator 2
 1606 01da 1021     		movs	r1, #16
 1607 01dc 3C4B     		ldr	r3, .L166
 1608 01de 1868     		ldr	r0, [r3]
 1609 01e0 FFF7FEFF 		bl	lv_obj_has_flag
 1610              	.LVL186:
 624:Drivers/lvgl/lvgl/src/core/lv_indev.c ****                                               lv_obj_has_flag(indev_obj_act, LV_OBJ_FLAG_SCROLLABLE
 1611              		.loc 1 624 0 discriminator 2
 1612 01e4 08B9     		cbnz	r0, .L136
 624:Drivers/lvgl/lvgl/src/core/lv_indev.c ****                                               lv_obj_has_flag(indev_obj_act, LV_OBJ_FLAG_SCROLLABLE
 1613              		.loc 1 624 0 is_stmt 0
 1614 01e6 0023     		movs	r3, #0
 1615 01e8 E2E7     		b	.L110
ARM GAS  /tmp/ccDoLsau.s 			page 56


 1616              	.L136:
 1617 01ea 0123     		movs	r3, #1
 1618 01ec E0E7     		b	.L110
 1619              	.LVL187:
 1620              	.L111:
 638:Drivers/lvgl/lvgl/src/core/lv_indev.c ****                     if(indev_reset_check(&i->proc)) return;
 1621              		.loc 1 638 0 is_stmt 1
 1622 01ee 394B     		ldr	r3, .L166+4
 1623              	.LVL188:
 1624 01f0 1A68     		ldr	r2, [r3]
 1625 01f2 0521     		movs	r1, #5
 1626 01f4 364B     		ldr	r3, .L166
 1627 01f6 1868     		ldr	r0, [r3]
 1628 01f8 FFF7FEFF 		bl	lv_event_send
 1629              	.LVL189:
 639:Drivers/lvgl/lvgl/src/core/lv_indev.c ****                 }
 1630              		.loc 1 639 0
 1631 01fc 201D     		adds	r0, r4, #4
 1632 01fe FFF7FEFF 		bl	indev_reset_check
 1633              	.LVL190:
 1634 0202 0028     		cmp	r0, #0
 1635 0204 C9D0     		beq	.L109
 1636 0206 36E7     		b	.L94
 1637              	.L157:
 1638              	.LBE15:
 651:Drivers/lvgl/lvgl/src/core/lv_indev.c ****                 if(indev_reset_check(&i->proc)) return;
 1639              		.loc 1 651 0
 1640 0208 324B     		ldr	r3, .L166+4
 1641 020a 1A68     		ldr	r2, [r3]
 1642 020c 0621     		movs	r1, #6
 1643 020e 304B     		ldr	r3, .L166
 1644 0210 1868     		ldr	r0, [r3]
 1645 0212 FFF7FEFF 		bl	lv_event_send
 1646              	.LVL191:
 652:Drivers/lvgl/lvgl/src/core/lv_indev.c ****             }
 1647              		.loc 1 652 0
 1648 0216 201D     		adds	r0, r4, #4
 1649 0218 FFF7FEFF 		bl	indev_reset_check
 1650              	.LVL192:
 1651 021c 0028     		cmp	r0, #0
 1652 021e 3FF422AF 		beq	.L103
 1653 0222 28E7     		b	.L94
 1654              	.L158:
 656:Drivers/lvgl/lvgl/src/core/lv_indev.c ****             }
 1655              		.loc 1 656 0
 1656 0224 B5F90C30 		ldrsh	r3, [r5, #12]
 1657 0228 013B     		subs	r3, r3, #1
 1658 022a AB81     		strh	r3, [r5, #12]	@ movhi
 1659 022c 1BE7     		b	.L103
 1660              	.L114:
 663:Drivers/lvgl/lvgl/src/core/lv_indev.c ****                 if(indev_reset_check(&i->proc)) return;
 1661              		.loc 1 663 0
 1662 022e 3046     		mov	r0, r6
 1663 0230 FFF7FEFF 		bl	lv_group_send_data
 1664              	.LVL193:
 664:Drivers/lvgl/lvgl/src/core/lv_indev.c ****             }
 1665              		.loc 1 664 0
ARM GAS  /tmp/ccDoLsau.s 			page 57


 1666 0234 201D     		adds	r0, r4, #4
 1667 0236 FFF7FEFF 		bl	indev_reset_check
 1668              	.LVL194:
 1669 023a 0028     		cmp	r0, #0
 1670 023c 3FF413AF 		beq	.L103
 1671 0240 19E7     		b	.L94
 1672              	.L149:
 674:Drivers/lvgl/lvgl/src/core/lv_indev.c ****             bool editable_or_scrollable = lv_obj_is_editable(indev_obj_act) ||
 1673              		.loc 1 674 0
 1674 0242 6B68     		ldr	r3, [r5, #4]
 1675 0244 0A2B     		cmp	r3, #10
 1676 0246 06D0     		beq	.L161
 1677              	.LVL195:
 1678              	.L115:
 718:Drivers/lvgl/lvgl/src/core/lv_indev.c ****         i->proc.long_pr_sent = 0;
 1679              		.loc 1 718 0
 1680 0248 0022     		movs	r2, #0
 1681 024a A264     		str	r2, [r4, #72]
 719:Drivers/lvgl/lvgl/src/core/lv_indev.c ****     }
 1682              		.loc 1 719 0
 1683 024c 6379     		ldrb	r3, [r4, #5]	@ zero_extendqisi2
 1684 024e 62F30003 		bfi	r3, r2, #0, #1
 1685 0252 6371     		strb	r3, [r4, #5]
 1686 0254 07E7     		b	.L103
 1687              	.LVL196:
 1688              	.L161:
 1689              	.LBB16:
 675:Drivers/lvgl/lvgl/src/core/lv_indev.c ****                                           lv_obj_has_flag(indev_obj_act, LV_OBJ_FLAG_SCROLLABLE);
 1690              		.loc 1 675 0
 1691 0256 FFF7FEFF 		bl	lv_obj_is_editable
 1692              	.LVL197:
 1693 025a 38B3     		cbz	r0, .L162
 1694 025c 0123     		movs	r3, #1
 1695              	.L116:
 1696              	.LVL198:
 679:Drivers/lvgl/lvgl/src/core/lv_indev.c ****                 lv_event_send(indev_obj_act, LV_EVENT_RELEASED, indev_act);
 1697              		.loc 1 679 0 discriminator 6
 1698 025e 002B     		cmp	r3, #0
 1699 0260 3AD1     		bne	.L117
 680:Drivers/lvgl/lvgl/src/core/lv_indev.c ****                 if(indev_reset_check(&i->proc)) return;
 1700              		.loc 1 680 0
 1701 0262 1C4B     		ldr	r3, .L166+4
 1702              	.LVL199:
 1703 0264 1A68     		ldr	r2, [r3]
 1704 0266 0821     		movs	r1, #8
 1705 0268 194B     		ldr	r3, .L166
 1706 026a 1868     		ldr	r0, [r3]
 1707 026c FFF7FEFF 		bl	lv_event_send
 1708              	.LVL200:
 681:Drivers/lvgl/lvgl/src/core/lv_indev.c **** 
 1709              		.loc 1 681 0
 1710 0270 271D     		adds	r7, r4, #4
 1711              	.LVL201:
 1712 0272 3846     		mov	r0, r7
 1713 0274 FFF7FEFF 		bl	indev_reset_check
 1714              	.LVL202:
 1715 0278 0028     		cmp	r0, #0
ARM GAS  /tmp/ccDoLsau.s 			page 58


 1716 027a 7FF4FCAE 		bne	.L94
 683:Drivers/lvgl/lvgl/src/core/lv_indev.c ****                 if(indev_reset_check(&i->proc)) return;
 1717              		.loc 1 683 0
 1718 027e 6379     		ldrb	r3, [r4, #5]	@ zero_extendqisi2
 1719 0280 13F0010F 		tst	r3, #1
 1720 0284 1CD0     		beq	.L163
 1721              	.L118:
 684:Drivers/lvgl/lvgl/src/core/lv_indev.c **** 
 1722              		.loc 1 684 0
 1723 0286 3846     		mov	r0, r7
 1724 0288 FFF7FEFF 		bl	indev_reset_check
 1725              	.LVL203:
 1726 028c 0028     		cmp	r0, #0
 1727 028e 7FF4F2AE 		bne	.L94
 686:Drivers/lvgl/lvgl/src/core/lv_indev.c ****                 if(indev_reset_check(&i->proc)) return;
 1728              		.loc 1 686 0
 1729 0292 104B     		ldr	r3, .L166+4
 1730 0294 1A68     		ldr	r2, [r3]
 1731 0296 0721     		movs	r1, #7
 1732 0298 0D4B     		ldr	r3, .L166
 1733 029a 1868     		ldr	r0, [r3]
 1734 029c FFF7FEFF 		bl	lv_event_send
 1735              	.LVL204:
 687:Drivers/lvgl/lvgl/src/core/lv_indev.c **** 
 1736              		.loc 1 687 0
 1737 02a0 3846     		mov	r0, r7
 1738 02a2 FFF7FEFF 		bl	indev_reset_check
 1739              	.LVL205:
 1740 02a6 0028     		cmp	r0, #0
 1741 02a8 CED0     		beq	.L115
 1742 02aa E4E6     		b	.L94
 1743              	.LVL206:
 1744              	.L162:
 676:Drivers/lvgl/lvgl/src/core/lv_indev.c **** 
 1745              		.loc 1 676 0 discriminator 2
 1746 02ac 1021     		movs	r1, #16
 1747 02ae 084B     		ldr	r3, .L166
 1748 02b0 1868     		ldr	r0, [r3]
 1749 02b2 FFF7FEFF 		bl	lv_obj_has_flag
 1750              	.LVL207:
 675:Drivers/lvgl/lvgl/src/core/lv_indev.c ****                                           lv_obj_has_flag(indev_obj_act, LV_OBJ_FLAG_SCROLLABLE);
 1751              		.loc 1 675 0 discriminator 2
 1752 02b6 08B9     		cbnz	r0, .L138
 675:Drivers/lvgl/lvgl/src/core/lv_indev.c ****                                           lv_obj_has_flag(indev_obj_act, LV_OBJ_FLAG_SCROLLABLE);
 1753              		.loc 1 675 0 is_stmt 0
 1754 02b8 0023     		movs	r3, #0
 1755 02ba D0E7     		b	.L116
 1756              	.L138:
 1757 02bc 0123     		movs	r3, #1
 1758 02be CEE7     		b	.L116
 1759              	.LVL208:
 1760              	.L163:
 683:Drivers/lvgl/lvgl/src/core/lv_indev.c ****                 if(indev_reset_check(&i->proc)) return;
 1761              		.loc 1 683 0 is_stmt 1 discriminator 1
 1762 02c0 044B     		ldr	r3, .L166+4
 1763 02c2 1A68     		ldr	r2, [r3]
 1764 02c4 0421     		movs	r1, #4
ARM GAS  /tmp/ccDoLsau.s 			page 59


 1765 02c6 024B     		ldr	r3, .L166
 1766 02c8 1868     		ldr	r0, [r3]
 1767 02ca FFF7FEFF 		bl	lv_event_send
 1768              	.LVL209:
 1769 02ce DAE7     		b	.L118
 1770              	.L167:
 1771              		.align	2
 1772              	.L166:
 1773 02d0 00000000 		.word	.LANCHOR0
 1774 02d4 00000000 		.word	.LANCHOR1
 1775              	.LVL210:
 1776              	.L117:
 691:Drivers/lvgl/lvgl/src/core/lv_indev.c ****                 /*Ignore long pressed enter release because it comes from mode switch*/
 1777              		.loc 1 691 0
 1778 02d8 3046     		mov	r0, r6
 1779 02da FFF7FEFF 		bl	lv_group_get_editing
 1780              	.LVL211:
 1781 02de 0028     		cmp	r0, #0
 1782 02e0 41D0     		beq	.L119
 693:Drivers/lvgl/lvgl/src/core/lv_indev.c ****                     lv_event_send(indev_obj_act, LV_EVENT_RELEASED, indev_act);
 1783              		.loc 1 693 0
 1784 02e2 6379     		ldrb	r3, [r4, #5]	@ zero_extendqisi2
 1785 02e4 13F0010F 		tst	r3, #1
 1786 02e8 04D0     		beq	.L120
 693:Drivers/lvgl/lvgl/src/core/lv_indev.c ****                     lv_event_send(indev_obj_act, LV_EVENT_RELEASED, indev_act);
 1787              		.loc 1 693 0 is_stmt 0 discriminator 1
 1788 02ea 3046     		mov	r0, r6
 1789 02ec FFF7FEFF 		bl	lv_group_get_obj_count
 1790              	.LVL212:
 1791 02f0 0128     		cmp	r0, #1
 1792 02f2 32D8     		bhi	.L121
 1793              	.L120:
 694:Drivers/lvgl/lvgl/src/core/lv_indev.c ****                     if(indev_reset_check(&i->proc)) return;
 1794              		.loc 1 694 0 is_stmt 1
 1795 02f4 4E4B     		ldr	r3, .L168
 1796 02f6 1A68     		ldr	r2, [r3]
 1797 02f8 0821     		movs	r1, #8
 1798 02fa 4E4B     		ldr	r3, .L168+4
 1799 02fc 1868     		ldr	r0, [r3]
 1800 02fe FFF7FEFF 		bl	lv_event_send
 1801              	.LVL213:
 695:Drivers/lvgl/lvgl/src/core/lv_indev.c **** 
 1802              		.loc 1 695 0
 1803 0302 271D     		adds	r7, r4, #4
 1804              	.LVL214:
 1805 0304 3846     		mov	r0, r7
 1806 0306 FFF7FEFF 		bl	indev_reset_check
 1807              	.LVL215:
 1808 030a 0028     		cmp	r0, #0
 1809 030c 7FF4B3AE 		bne	.L94
 697:Drivers/lvgl/lvgl/src/core/lv_indev.c ****                     if(indev_reset_check(&i->proc)) return;
 1810              		.loc 1 697 0
 1811 0310 474B     		ldr	r3, .L168
 1812 0312 1A68     		ldr	r2, [r3]
 1813 0314 0421     		movs	r1, #4
 1814 0316 474B     		ldr	r3, .L168+4
 1815 0318 1868     		ldr	r0, [r3]
ARM GAS  /tmp/ccDoLsau.s 			page 60


 1816 031a FFF7FEFF 		bl	lv_event_send
 1817              	.LVL216:
 698:Drivers/lvgl/lvgl/src/core/lv_indev.c **** 
 1818              		.loc 1 698 0
 1819 031e 3846     		mov	r0, r7
 1820 0320 FFF7FEFF 		bl	indev_reset_check
 1821              	.LVL217:
 1822 0324 0028     		cmp	r0, #0
 1823 0326 7FF4A6AE 		bne	.L94
 700:Drivers/lvgl/lvgl/src/core/lv_indev.c ****                     if(indev_reset_check(&i->proc)) return;
 1824              		.loc 1 700 0
 1825 032a 414B     		ldr	r3, .L168
 1826 032c 1A68     		ldr	r2, [r3]
 1827 032e 0721     		movs	r1, #7
 1828 0330 404B     		ldr	r3, .L168+4
 1829 0332 1868     		ldr	r0, [r3]
 1830 0334 FFF7FEFF 		bl	lv_event_send
 1831              	.LVL218:
 701:Drivers/lvgl/lvgl/src/core/lv_indev.c **** 
 1832              		.loc 1 701 0
 1833 0338 3846     		mov	r0, r7
 1834 033a FFF7FEFF 		bl	indev_reset_check
 1835              	.LVL219:
 1836 033e 0028     		cmp	r0, #0
 1837 0340 7FF499AE 		bne	.L94
 703:Drivers/lvgl/lvgl/src/core/lv_indev.c ****                     if(indev_reset_check(&i->proc)) return;
 1838              		.loc 1 703 0
 1839 0344 0A21     		movs	r1, #10
 1840 0346 3046     		mov	r0, r6
 1841 0348 FFF7FEFF 		bl	lv_group_send_data
 1842              	.LVL220:
 704:Drivers/lvgl/lvgl/src/core/lv_indev.c ****                 }
 1843              		.loc 1 704 0
 1844 034c 3846     		mov	r0, r7
 1845 034e FFF7FEFF 		bl	indev_reset_check
 1846              	.LVL221:
 1847 0352 0028     		cmp	r0, #0
 1848 0354 3FF478AF 		beq	.L115
 1849 0358 8DE6     		b	.L94
 1850              	.LVL222:
 1851              	.L121:
 707:Drivers/lvgl/lvgl/src/core/lv_indev.c ****                 }
 1852              		.loc 1 707 0
 1853 035a 2021     		movs	r1, #32
 1854 035c 354B     		ldr	r3, .L168+4
 1855 035e 1868     		ldr	r0, [r3]
 1856 0360 FFF7FEFF 		bl	lv_obj_clear_state
 1857              	.LVL223:
 1858 0364 70E7     		b	.L115
 1859              	.L119:
 712:Drivers/lvgl/lvgl/src/core/lv_indev.c ****                 LV_LOG_INFO("entering edit mode");
 1860              		.loc 1 712 0
 1861 0366 6379     		ldrb	r3, [r4, #5]	@ zero_extendqisi2
 1862 0368 13F0010F 		tst	r3, #1
 1863 036c 7FF46CAF 		bne	.L115
 714:Drivers/lvgl/lvgl/src/core/lv_indev.c ****             }
 1864              		.loc 1 714 0
ARM GAS  /tmp/ccDoLsau.s 			page 61


 1865 0370 0121     		movs	r1, #1
 1866 0372 3046     		mov	r0, r6
 1867 0374 FFF7FEFF 		bl	lv_group_set_editing
 1868              	.LVL224:
 1869 0378 66E7     		b	.L115
 1870              	.LVL225:
 1871              	.L150:
 1872              	.LBE16:
 726:Drivers/lvgl/lvgl/src/core/lv_indev.c ****             LV_LOG_INFO("rotated by %+d (edit)", data->enc_diff);
 1873              		.loc 1 726 0
 1874 037a 3046     		mov	r0, r6
 1875 037c FFF7FEFF 		bl	lv_group_get_editing
 1876              	.LVL226:
 1877 0380 58B3     		cbz	r0, .L122
 1878              	.LBB17:
 729:Drivers/lvgl/lvgl/src/core/lv_indev.c ****                 for(s = 0; s < -data->enc_diff; s++) {
 1879              		.loc 1 729 0
 1880 0382 B5F90C30 		ldrsh	r3, [r5, #12]
 1881 0386 002B     		cmp	r3, #0
 1882 0388 14DB     		blt	.L164
 735:Drivers/lvgl/lvgl/src/core/lv_indev.c ****                 for(s = 0; s < data->enc_diff; s++) {
 1883              		.loc 1 735 0
 1884 038a 002B     		cmp	r3, #0
 1885 038c 7FF773AE 		ble	.L94
 736:Drivers/lvgl/lvgl/src/core/lv_indev.c ****                     lv_group_send_data(g, LV_KEY_RIGHT);
 1886              		.loc 1 736 0
 1887 0390 0027     		movs	r7, #0
 1888              	.L126:
 1889              	.LVL227:
 736:Drivers/lvgl/lvgl/src/core/lv_indev.c ****                     lv_group_send_data(g, LV_KEY_RIGHT);
 1890              		.loc 1 736 0 is_stmt 0 discriminator 1
 1891 0392 B5F90C30 		ldrsh	r3, [r5, #12]
 1892 0396 BB42     		cmp	r3, r7
 1893 0398 7FF76DAE 		ble	.L94
 737:Drivers/lvgl/lvgl/src/core/lv_indev.c ****                     if(indev_reset_check(&i->proc)) return;
 1894              		.loc 1 737 0 is_stmt 1
 1895 039c 1321     		movs	r1, #19
 1896 039e 3046     		mov	r0, r6
 1897 03a0 FFF7FEFF 		bl	lv_group_send_data
 1898              	.LVL228:
 738:Drivers/lvgl/lvgl/src/core/lv_indev.c ****                 }
 1899              		.loc 1 738 0
 1900 03a4 201D     		adds	r0, r4, #4
 1901 03a6 FFF7FEFF 		bl	indev_reset_check
 1902              	.LVL229:
 1903 03aa 0028     		cmp	r0, #0
 1904 03ac 7FF463AE 		bne	.L94
 736:Drivers/lvgl/lvgl/src/core/lv_indev.c ****                     lv_group_send_data(g, LV_KEY_RIGHT);
 1905              		.loc 1 736 0 discriminator 2
 1906 03b0 0137     		adds	r7, r7, #1
 1907              	.LVL230:
 1908 03b2 EEE7     		b	.L126
 1909              	.LVL231:
 1910              	.L164:
 730:Drivers/lvgl/lvgl/src/core/lv_indev.c ****                     lv_group_send_data(g, LV_KEY_LEFT);
 1911              		.loc 1 730 0
 1912 03b4 0027     		movs	r7, #0
ARM GAS  /tmp/ccDoLsau.s 			page 62


 1913              	.L123:
 1914              	.LVL232:
 730:Drivers/lvgl/lvgl/src/core/lv_indev.c ****                     lv_group_send_data(g, LV_KEY_LEFT);
 1915              		.loc 1 730 0 is_stmt 0 discriminator 1
 1916 03b6 B5F90C30 		ldrsh	r3, [r5, #12]
 1917 03ba 5B42     		negs	r3, r3
 1918 03bc BB42     		cmp	r3, r7
 1919 03be 7FF75AAE 		ble	.L94
 731:Drivers/lvgl/lvgl/src/core/lv_indev.c ****                     if(indev_reset_check(&i->proc)) return;
 1920              		.loc 1 731 0 is_stmt 1
 1921 03c2 1421     		movs	r1, #20
 1922 03c4 3046     		mov	r0, r6
 1923 03c6 FFF7FEFF 		bl	lv_group_send_data
 1924              	.LVL233:
 732:Drivers/lvgl/lvgl/src/core/lv_indev.c ****                 }
 1925              		.loc 1 732 0
 1926 03ca 201D     		adds	r0, r4, #4
 1927 03cc FFF7FEFF 		bl	indev_reset_check
 1928              	.LVL234:
 1929 03d0 0028     		cmp	r0, #0
 1930 03d2 7FF450AE 		bne	.L94
 730:Drivers/lvgl/lvgl/src/core/lv_indev.c ****                     lv_group_send_data(g, LV_KEY_LEFT);
 1931              		.loc 1 730 0 discriminator 2
 1932 03d6 0137     		adds	r7, r7, #1
 1933              	.LVL235:
 1934 03d8 EDE7     		b	.L123
 1935              	.LVL236:
 1936              	.L122:
 1937              	.LBE17:
 1938              	.LBB18:
 746:Drivers/lvgl/lvgl/src/core/lv_indev.c ****                 for(s = 0; s < -data->enc_diff; s++) {
 1939              		.loc 1 746 0
 1940 03da B5F90C30 		ldrsh	r3, [r5, #12]
 1941 03de 002B     		cmp	r3, #0
 1942 03e0 13DB     		blt	.L165
 752:Drivers/lvgl/lvgl/src/core/lv_indev.c ****                 for(s = 0; s < data->enc_diff; s++) {
 1943              		.loc 1 752 0
 1944 03e2 002B     		cmp	r3, #0
 1945 03e4 7FF747AE 		ble	.L94
 753:Drivers/lvgl/lvgl/src/core/lv_indev.c ****                     lv_group_focus_next(g);
 1946              		.loc 1 753 0
 1947 03e8 0027     		movs	r7, #0
 1948              	.L131:
 1949              	.LVL237:
 753:Drivers/lvgl/lvgl/src/core/lv_indev.c ****                     lv_group_focus_next(g);
 1950              		.loc 1 753 0 is_stmt 0 discriminator 1
 1951 03ea B5F90C30 		ldrsh	r3, [r5, #12]
 1952 03ee BB42     		cmp	r3, r7
 1953 03f0 7FF741AE 		ble	.L94
 754:Drivers/lvgl/lvgl/src/core/lv_indev.c ****                     if(indev_reset_check(&i->proc)) return;
 1954              		.loc 1 754 0 is_stmt 1
 1955 03f4 3046     		mov	r0, r6
 1956 03f6 FFF7FEFF 		bl	lv_group_focus_next
 1957              	.LVL238:
 755:Drivers/lvgl/lvgl/src/core/lv_indev.c ****                 }
 1958              		.loc 1 755 0
 1959 03fa 201D     		adds	r0, r4, #4
ARM GAS  /tmp/ccDoLsau.s 			page 63


 1960 03fc FFF7FEFF 		bl	indev_reset_check
 1961              	.LVL239:
 1962 0400 0028     		cmp	r0, #0
 1963 0402 7FF438AE 		bne	.L94
 753:Drivers/lvgl/lvgl/src/core/lv_indev.c ****                     lv_group_focus_next(g);
 1964              		.loc 1 753 0 discriminator 2
 1965 0406 0137     		adds	r7, r7, #1
 1966              	.LVL240:
 1967 0408 EFE7     		b	.L131
 1968              	.LVL241:
 1969              	.L165:
 747:Drivers/lvgl/lvgl/src/core/lv_indev.c ****                     lv_group_focus_prev(g);
 1970              		.loc 1 747 0
 1971 040a 0027     		movs	r7, #0
 1972              	.L128:
 1973              	.LVL242:
 747:Drivers/lvgl/lvgl/src/core/lv_indev.c ****                     lv_group_focus_prev(g);
 1974              		.loc 1 747 0 is_stmt 0 discriminator 1
 1975 040c B5F90C30 		ldrsh	r3, [r5, #12]
 1976 0410 5B42     		negs	r3, r3
 1977 0412 BB42     		cmp	r3, r7
 1978 0414 7FF72FAE 		ble	.L94
 748:Drivers/lvgl/lvgl/src/core/lv_indev.c ****                     if(indev_reset_check(&i->proc)) return;
 1979              		.loc 1 748 0 is_stmt 1
 1980 0418 3046     		mov	r0, r6
 1981 041a FFF7FEFF 		bl	lv_group_focus_prev
 1982              	.LVL243:
 749:Drivers/lvgl/lvgl/src/core/lv_indev.c ****                 }
 1983              		.loc 1 749 0
 1984 041e 201D     		adds	r0, r4, #4
 1985 0420 FFF7FEFF 		bl	indev_reset_check
 1986              	.LVL244:
 1987 0424 0028     		cmp	r0, #0
 1988 0426 7FF426AE 		bne	.L94
 747:Drivers/lvgl/lvgl/src/core/lv_indev.c ****                     lv_group_focus_prev(g);
 1989              		.loc 1 747 0 discriminator 2
 1990 042a 0137     		adds	r7, r7, #1
 1991              	.LVL245:
 1992 042c EEE7     		b	.L128
 1993              	.L169:
 1994 042e 00BF     		.align	2
 1995              	.L168:
 1996 0430 00000000 		.word	.LANCHOR1
 1997 0434 00000000 		.word	.LANCHOR0
 1998              	.LBE18:
 1999              		.cfi_endproc
 2000              	.LFE186:
 2002              		.section	.text.lv_indev_enable,"ax",%progbits
 2003              		.align	1
 2004              		.global	lv_indev_enable
 2005              		.syntax unified
 2006              		.thumb
 2007              		.thumb_func
 2008              		.fpu fpv5-d16
 2010              	lv_indev_enable:
 2011              	.LFB166:
 124:Drivers/lvgl/lvgl/src/core/lv_indev.c ****     uint8_t enable = en ? 0 : 1;
ARM GAS  /tmp/ccDoLsau.s 			page 64


 2012              		.loc 1 124 0
 2013              		.cfi_startproc
 2014              		@ args = 0, pretend = 0, frame = 0
 2015              		@ frame_needed = 0, uses_anonymous_args = 0
 2016              	.LVL246:
 2017 0000 10B5     		push	{r4, lr}
 2018              	.LCFI8:
 2019              		.cfi_def_cfa_offset 8
 2020              		.cfi_offset 4, -8
 2021              		.cfi_offset 14, -4
 125:Drivers/lvgl/lvgl/src/core/lv_indev.c **** 
 2022              		.loc 1 125 0
 2023 0002 81F00104 		eor	r4, r1, #1
 2024              	.LVL247:
 127:Drivers/lvgl/lvgl/src/core/lv_indev.c ****         indev->proc.disabled = enable;
 2025              		.loc 1 127 0
 2026 0006 20B1     		cbz	r0, .L171
 128:Drivers/lvgl/lvgl/src/core/lv_indev.c ****     }
 2027              		.loc 1 128 0
 2028 0008 4279     		ldrb	r2, [r0, #5]	@ zero_extendqisi2
 2029 000a 64F38202 		bfi	r2, r4, #2, #1
 2030 000e 4271     		strb	r2, [r0, #5]
 2031              	.LVL248:
 2032              	.L170:
 137:Drivers/lvgl/lvgl/src/core/lv_indev.c **** 
 2033              		.loc 1 137 0
 2034 0010 10BD     		pop	{r4, pc}
 2035              	.LVL249:
 2036              	.L171:
 2037              	.LBB19:
 131:Drivers/lvgl/lvgl/src/core/lv_indev.c ****         while(i) {
 2038              		.loc 1 131 0
 2039 0012 0020     		movs	r0, #0
 2040              	.LVL250:
 2041 0014 FFF7FEFF 		bl	lv_indev_get_next
 2042              	.LVL251:
 132:Drivers/lvgl/lvgl/src/core/lv_indev.c ****             i->proc.disabled = enable;
 2043              		.loc 1 132 0
 2044 0018 05E0     		b	.L173
 2045              	.L174:
 133:Drivers/lvgl/lvgl/src/core/lv_indev.c ****             i = lv_indev_get_next(i);
 2046              		.loc 1 133 0
 2047 001a 4379     		ldrb	r3, [r0, #5]	@ zero_extendqisi2
 2048 001c 64F38203 		bfi	r3, r4, #2, #1
 2049 0020 4371     		strb	r3, [r0, #5]
 134:Drivers/lvgl/lvgl/src/core/lv_indev.c ****         }
 2050              		.loc 1 134 0
 2051 0022 FFF7FEFF 		bl	lv_indev_get_next
 2052              	.LVL252:
 2053              	.L173:
 132:Drivers/lvgl/lvgl/src/core/lv_indev.c ****             i->proc.disabled = enable;
 2054              		.loc 1 132 0
 2055 0026 0028     		cmp	r0, #0
 2056 0028 F7D1     		bne	.L174
 2057 002a F1E7     		b	.L170
 2058              	.LBE19:
 2059              		.cfi_endproc
ARM GAS  /tmp/ccDoLsau.s 			page 65


 2060              	.LFE166:
 2062              		.section	.text.lv_indev_get_act,"ax",%progbits
 2063              		.align	1
 2064              		.global	lv_indev_get_act
 2065              		.syntax unified
 2066              		.thumb
 2067              		.thumb_func
 2068              		.fpu fpv5-d16
 2070              	lv_indev_get_act:
 2071              	.LFB167:
 140:Drivers/lvgl/lvgl/src/core/lv_indev.c ****     return indev_act;
 2072              		.loc 1 140 0
 2073              		.cfi_startproc
 2074              		@ args = 0, pretend = 0, frame = 0
 2075              		@ frame_needed = 0, uses_anonymous_args = 0
 2076              		@ link register save eliminated.
 142:Drivers/lvgl/lvgl/src/core/lv_indev.c **** 
 2077              		.loc 1 142 0
 2078 0000 014B     		ldr	r3, .L177
 2079 0002 1868     		ldr	r0, [r3]
 2080 0004 7047     		bx	lr
 2081              	.L178:
 2082 0006 00BF     		.align	2
 2083              	.L177:
 2084 0008 00000000 		.word	.LANCHOR1
 2085              		.cfi_endproc
 2086              	.LFE167:
 2088              		.section	.text.lv_indev_get_type,"ax",%progbits
 2089              		.align	1
 2090              		.global	lv_indev_get_type
 2091              		.syntax unified
 2092              		.thumb
 2093              		.thumb_func
 2094              		.fpu fpv5-d16
 2096              	lv_indev_get_type:
 2097              	.LFB168:
 145:Drivers/lvgl/lvgl/src/core/lv_indev.c ****     if(indev == NULL) return LV_INDEV_TYPE_NONE;
 2098              		.loc 1 145 0
 2099              		.cfi_startproc
 2100              		@ args = 0, pretend = 0, frame = 0
 2101              		@ frame_needed = 0, uses_anonymous_args = 0
 2102              		@ link register save eliminated.
 2103              	.LVL253:
 146:Drivers/lvgl/lvgl/src/core/lv_indev.c **** 
 2104              		.loc 1 146 0
 2105 0000 10B1     		cbz	r0, .L181
 148:Drivers/lvgl/lvgl/src/core/lv_indev.c **** }
 2106              		.loc 1 148 0
 2107 0002 0368     		ldr	r3, [r0]
 2108 0004 1878     		ldrb	r0, [r3]	@ zero_extendqisi2
 2109              	.LVL254:
 2110 0006 7047     		bx	lr
 2111              	.LVL255:
 2112              	.L181:
 146:Drivers/lvgl/lvgl/src/core/lv_indev.c **** 
 2113              		.loc 1 146 0
 2114 0008 0020     		movs	r0, #0
ARM GAS  /tmp/ccDoLsau.s 			page 66


 2115              	.LVL256:
 149:Drivers/lvgl/lvgl/src/core/lv_indev.c **** 
 2116              		.loc 1 149 0
 2117 000a 7047     		bx	lr
 2118              		.cfi_endproc
 2119              	.LFE168:
 2121              		.section	.text.lv_indev_reset,"ax",%progbits
 2122              		.align	1
 2123              		.global	lv_indev_reset
 2124              		.syntax unified
 2125              		.thumb
 2126              		.thumb_func
 2127              		.fpu fpv5-d16
 2129              	lv_indev_reset:
 2130              	.LFB169:
 152:Drivers/lvgl/lvgl/src/core/lv_indev.c ****     if(indev) {
 2131              		.loc 1 152 0
 2132              		.cfi_startproc
 2133              		@ args = 0, pretend = 0, frame = 0
 2134              		@ frame_needed = 0, uses_anonymous_args = 0
 2135              	.LVL257:
 153:Drivers/lvgl/lvgl/src/core/lv_indev.c ****         indev->proc.reset_query = 1;
 2136              		.loc 1 153 0
 2137 0000 30B3     		cbz	r0, .L183
 2138 0002 0346     		mov	r3, r0
 154:Drivers/lvgl/lvgl/src/core/lv_indev.c ****         if(indev_act == indev) indev_obj_act = NULL;
 2139              		.loc 1 154 0
 2140 0004 4279     		ldrb	r2, [r0, #5]	@ zero_extendqisi2
 2141 0006 42F00202 		orr	r2, r2, #2
 2142 000a 4271     		strb	r2, [r0, #5]
 155:Drivers/lvgl/lvgl/src/core/lv_indev.c ****         if(indev->driver->type == LV_INDEV_TYPE_POINTER || indev->driver->type == LV_INDEV_TYPE_KEY
 2143              		.loc 1 155 0
 2144 000c 264A     		ldr	r2, .L205
 2145 000e 1268     		ldr	r2, [r2]
 2146 0010 8242     		cmp	r2, r0
 2147 0012 06D0     		beq	.L202
 2148              	.LVL258:
 2149              	.L184:
 156:Drivers/lvgl/lvgl/src/core/lv_indev.c ****             if(obj == NULL || indev->proc.types.pointer.last_pressed == obj) {
 2150              		.loc 1 156 0
 2151 0014 1A68     		ldr	r2, [r3]
 2152 0016 1278     		ldrb	r2, [r2]	@ zero_extendqisi2
 2153 0018 013A     		subs	r2, r2, #1
 2154 001a D2B2     		uxtb	r2, r2
 2155 001c 012A     		cmp	r2, #1
 2156 001e 04D9     		bls	.L203
 2157              	.L200:
 2158 0020 7047     		bx	lr
 2159              	.LVL259:
 2160              	.L202:
 155:Drivers/lvgl/lvgl/src/core/lv_indev.c ****         if(indev->driver->type == LV_INDEV_TYPE_POINTER || indev->driver->type == LV_INDEV_TYPE_KEY
 2161              		.loc 1 155 0 discriminator 1
 2162 0022 224A     		ldr	r2, .L205+4
 2163 0024 0020     		movs	r0, #0
 2164              	.LVL260:
 2165 0026 1060     		str	r0, [r2]
 2166 0028 F4E7     		b	.L184
ARM GAS  /tmp/ccDoLsau.s 			page 67


 2167              	.L203:
 157:Drivers/lvgl/lvgl/src/core/lv_indev.c ****                 indev->proc.types.pointer.last_pressed = NULL;
 2168              		.loc 1 157 0
 2169 002a 11B1     		cbz	r1, .L186
 157:Drivers/lvgl/lvgl/src/core/lv_indev.c ****                 indev->proc.types.pointer.last_pressed = NULL;
 2170              		.loc 1 157 0 is_stmt 0 discriminator 1
 2171 002c 5A6B     		ldr	r2, [r3, #52]
 2172 002e 8A42     		cmp	r2, r1
 2173 0030 01D1     		bne	.L187
 2174              	.L186:
 158:Drivers/lvgl/lvgl/src/core/lv_indev.c ****             }
 2175              		.loc 1 158 0 is_stmt 1
 2176 0032 0022     		movs	r2, #0
 2177 0034 5A63     		str	r2, [r3, #52]
 2178              	.L187:
 160:Drivers/lvgl/lvgl/src/core/lv_indev.c ****                 indev->proc.types.pointer.act_obj = NULL;
 2179              		.loc 1 160 0
 2180 0036 11B1     		cbz	r1, .L188
 160:Drivers/lvgl/lvgl/src/core/lv_indev.c ****                 indev->proc.types.pointer.act_obj = NULL;
 2181              		.loc 1 160 0 is_stmt 0 discriminator 1
 2182 0038 9A6A     		ldr	r2, [r3, #40]
 2183 003a 8A42     		cmp	r2, r1
 2184 003c 01D1     		bne	.L189
 2185              	.L188:
 161:Drivers/lvgl/lvgl/src/core/lv_indev.c ****             }
 2186              		.loc 1 161 0 is_stmt 1
 2187 003e 0022     		movs	r2, #0
 2188 0040 9A62     		str	r2, [r3, #40]
 2189              	.L189:
 163:Drivers/lvgl/lvgl/src/core/lv_indev.c ****                 indev->proc.types.pointer.last_obj = NULL;
 2190              		.loc 1 163 0
 2191 0042 11B1     		cbz	r1, .L190
 163:Drivers/lvgl/lvgl/src/core/lv_indev.c ****                 indev->proc.types.pointer.last_obj = NULL;
 2192              		.loc 1 163 0 is_stmt 0 discriminator 1
 2193 0044 DA6A     		ldr	r2, [r3, #44]
 2194 0046 8A42     		cmp	r2, r1
 2195 0048 EAD1     		bne	.L200
 2196              	.L190:
 164:Drivers/lvgl/lvgl/src/core/lv_indev.c ****             }
 2197              		.loc 1 164 0 is_stmt 1
 2198 004a 0022     		movs	r2, #0
 2199 004c DA62     		str	r2, [r3, #44]
 2200 004e 7047     		bx	lr
 2201              	.LVL261:
 2202              	.L183:
 152:Drivers/lvgl/lvgl/src/core/lv_indev.c ****     if(indev) {
 2203              		.loc 1 152 0
 2204 0050 10B5     		push	{r4, lr}
 2205              	.LCFI9:
 2206              		.cfi_def_cfa_offset 8
 2207              		.cfi_offset 4, -8
 2208              		.cfi_offset 14, -4
 2209 0052 0C46     		mov	r4, r1
 2210              	.LBB20:
 169:Drivers/lvgl/lvgl/src/core/lv_indev.c ****         while(i) {
 2211              		.loc 1 169 0
 2212 0054 0020     		movs	r0, #0
ARM GAS  /tmp/ccDoLsau.s 			page 68


 2213              	.LVL262:
 2214 0056 FFF7FEFF 		bl	lv_indev_get_next
 2215              	.LVL263:
 170:Drivers/lvgl/lvgl/src/core/lv_indev.c ****             i->proc.reset_query = 1;
 2216              		.loc 1 170 0
 2217 005a 03E0     		b	.L191
 2218              	.L197:
 180:Drivers/lvgl/lvgl/src/core/lv_indev.c ****                 }
 2219              		.loc 1 180 0
 2220 005c 0023     		movs	r3, #0
 2221 005e C362     		str	r3, [r0, #44]
 2222              	.L192:
 183:Drivers/lvgl/lvgl/src/core/lv_indev.c ****         }
 2223              		.loc 1 183 0
 2224 0060 FFF7FEFF 		bl	lv_indev_get_next
 2225              	.LVL264:
 2226              	.L191:
 170:Drivers/lvgl/lvgl/src/core/lv_indev.c ****             i->proc.reset_query = 1;
 2227              		.loc 1 170 0
 2228 0064 D8B1     		cbz	r0, .L204
 171:Drivers/lvgl/lvgl/src/core/lv_indev.c ****             if(i->driver->type == LV_INDEV_TYPE_POINTER || i->driver->type == LV_INDEV_TYPE_KEYPAD)
 2229              		.loc 1 171 0
 2230 0066 4379     		ldrb	r3, [r0, #5]	@ zero_extendqisi2
 2231 0068 43F00203 		orr	r3, r3, #2
 2232 006c 4371     		strb	r3, [r0, #5]
 172:Drivers/lvgl/lvgl/src/core/lv_indev.c ****                 if(obj == NULL || i->proc.types.pointer.last_pressed == obj) {
 2233              		.loc 1 172 0
 2234 006e 0368     		ldr	r3, [r0]
 2235 0070 1B78     		ldrb	r3, [r3]	@ zero_extendqisi2
 2236 0072 013B     		subs	r3, r3, #1
 2237 0074 DBB2     		uxtb	r3, r3
 2238 0076 012B     		cmp	r3, #1
 2239 0078 F2D8     		bhi	.L192
 173:Drivers/lvgl/lvgl/src/core/lv_indev.c ****                     i->proc.types.pointer.last_pressed = NULL;
 2240              		.loc 1 173 0
 2241 007a 14B1     		cbz	r4, .L193
 173:Drivers/lvgl/lvgl/src/core/lv_indev.c ****                     i->proc.types.pointer.last_pressed = NULL;
 2242              		.loc 1 173 0 is_stmt 0 discriminator 1
 2243 007c 436B     		ldr	r3, [r0, #52]
 2244 007e A342     		cmp	r3, r4
 2245 0080 01D1     		bne	.L194
 2246              	.L193:
 174:Drivers/lvgl/lvgl/src/core/lv_indev.c ****                 }
 2247              		.loc 1 174 0 is_stmt 1
 2248 0082 0023     		movs	r3, #0
 2249 0084 4363     		str	r3, [r0, #52]
 2250              	.L194:
 176:Drivers/lvgl/lvgl/src/core/lv_indev.c ****                     i->proc.types.pointer.act_obj = NULL;
 2251              		.loc 1 176 0
 2252 0086 14B1     		cbz	r4, .L195
 176:Drivers/lvgl/lvgl/src/core/lv_indev.c ****                     i->proc.types.pointer.act_obj = NULL;
 2253              		.loc 1 176 0 is_stmt 0 discriminator 1
 2254 0088 836A     		ldr	r3, [r0, #40]
 2255 008a A342     		cmp	r3, r4
 2256 008c 01D1     		bne	.L196
 2257              	.L195:
 177:Drivers/lvgl/lvgl/src/core/lv_indev.c ****                 }
ARM GAS  /tmp/ccDoLsau.s 			page 69


 2258              		.loc 1 177 0 is_stmt 1
 2259 008e 0023     		movs	r3, #0
 2260 0090 8362     		str	r3, [r0, #40]
 2261              	.L196:
 179:Drivers/lvgl/lvgl/src/core/lv_indev.c ****                     i->proc.types.pointer.last_obj = NULL;
 2262              		.loc 1 179 0
 2263 0092 002C     		cmp	r4, #0
 2264 0094 E2D0     		beq	.L197
 179:Drivers/lvgl/lvgl/src/core/lv_indev.c ****                     i->proc.types.pointer.last_obj = NULL;
 2265              		.loc 1 179 0 is_stmt 0 discriminator 1
 2266 0096 C36A     		ldr	r3, [r0, #44]
 2267 0098 A342     		cmp	r3, r4
 2268 009a E1D1     		bne	.L192
 2269 009c DEE7     		b	.L197
 2270              	.L204:
 185:Drivers/lvgl/lvgl/src/core/lv_indev.c ****     }
 2271              		.loc 1 185 0 is_stmt 1
 2272 009e 034B     		ldr	r3, .L205+4
 2273 00a0 0022     		movs	r2, #0
 2274 00a2 1A60     		str	r2, [r3]
 2275              	.LBE20:
 187:Drivers/lvgl/lvgl/src/core/lv_indev.c **** 
 2276              		.loc 1 187 0
 2277 00a4 10BD     		pop	{r4, pc}
 2278              	.LVL265:
 2279              	.L206:
 2280 00a6 00BF     		.align	2
 2281              	.L205:
 2282 00a8 00000000 		.word	.LANCHOR1
 2283 00ac 00000000 		.word	.LANCHOR0
 2284              		.cfi_endproc
 2285              	.LFE169:
 2287              		.section	.text.lv_indev_reset_long_press,"ax",%progbits
 2288              		.align	1
 2289              		.global	lv_indev_reset_long_press
 2290              		.syntax unified
 2291              		.thumb
 2292              		.thumb_func
 2293              		.fpu fpv5-d16
 2295              	lv_indev_reset_long_press:
 2296              	.LFB170:
 190:Drivers/lvgl/lvgl/src/core/lv_indev.c ****     indev->proc.long_pr_sent         = 0;
 2297              		.loc 1 190 0
 2298              		.cfi_startproc
 2299              		@ args = 0, pretend = 0, frame = 0
 2300              		@ frame_needed = 0, uses_anonymous_args = 0
 2301              	.LVL266:
 2302 0000 10B5     		push	{r4, lr}
 2303              	.LCFI10:
 2304              		.cfi_def_cfa_offset 8
 2305              		.cfi_offset 4, -8
 2306              		.cfi_offset 14, -4
 2307 0002 0446     		mov	r4, r0
 191:Drivers/lvgl/lvgl/src/core/lv_indev.c ****     indev->proc.longpr_rep_timestamp = lv_tick_get();
 2308              		.loc 1 191 0
 2309 0004 4379     		ldrb	r3, [r0, #5]	@ zero_extendqisi2
 2310 0006 6FF30003 		bfc	r3, #0, #1
ARM GAS  /tmp/ccDoLsau.s 			page 70


 2311 000a 4371     		strb	r3, [r0, #5]
 192:Drivers/lvgl/lvgl/src/core/lv_indev.c ****     indev->proc.pr_timestamp         = lv_tick_get();
 2312              		.loc 1 192 0
 2313 000c FFF7FEFF 		bl	lv_tick_get
 2314              	.LVL267:
 2315 0010 E064     		str	r0, [r4, #76]
 193:Drivers/lvgl/lvgl/src/core/lv_indev.c **** }
 2316              		.loc 1 193 0
 2317 0012 FFF7FEFF 		bl	lv_tick_get
 2318              	.LVL268:
 2319 0016 A064     		str	r0, [r4, #72]
 194:Drivers/lvgl/lvgl/src/core/lv_indev.c **** 
 2320              		.loc 1 194 0
 2321 0018 10BD     		pop	{r4, pc}
 2322              		.cfi_endproc
 2323              	.LFE170:
 2325              		.section	.text.lv_indev_set_cursor,"ax",%progbits
 2326              		.align	1
 2327              		.global	lv_indev_set_cursor
 2328              		.syntax unified
 2329              		.thumb
 2330              		.thumb_func
 2331              		.fpu fpv5-d16
 2333              	lv_indev_set_cursor:
 2334              	.LFB171:
 197:Drivers/lvgl/lvgl/src/core/lv_indev.c ****     if(indev->driver->type != LV_INDEV_TYPE_POINTER) return;
 2335              		.loc 1 197 0
 2336              		.cfi_startproc
 2337              		@ args = 0, pretend = 0, frame = 0
 2338              		@ frame_needed = 0, uses_anonymous_args = 0
 2339              	.LVL269:
 2340 0000 38B5     		push	{r3, r4, r5, lr}
 2341              	.LCFI11:
 2342              		.cfi_def_cfa_offset 16
 2343              		.cfi_offset 3, -16
 2344              		.cfi_offset 4, -12
 2345              		.cfi_offset 5, -8
 2346              		.cfi_offset 14, -4
 198:Drivers/lvgl/lvgl/src/core/lv_indev.c **** 
 2347              		.loc 1 198 0
 2348 0002 0368     		ldr	r3, [r0]
 2349 0004 1A78     		ldrb	r2, [r3]	@ zero_extendqisi2
 2350 0006 012A     		cmp	r2, #1
 2351 0008 00D0     		beq	.L212
 2352              	.LVL270:
 2353              	.L209:
 205:Drivers/lvgl/lvgl/src/core/lv_indev.c **** 
 2354              		.loc 1 205 0
 2355 000a 38BD     		pop	{r3, r4, r5, pc}
 2356              	.LVL271:
 2357              	.L212:
 2358 000c 0D46     		mov	r5, r1
 2359 000e 0446     		mov	r4, r0
 200:Drivers/lvgl/lvgl/src/core/lv_indev.c ****     lv_obj_set_parent(indev->cursor, lv_disp_get_layer_sys(indev->driver->disp));
 2360              		.loc 1 200 0
 2361 0010 2165     		str	r1, [r4, #80]
 201:Drivers/lvgl/lvgl/src/core/lv_indev.c ****     lv_obj_set_pos(indev->cursor, indev->proc.types.pointer.act_point.x, indev->proc.types.pointer.
ARM GAS  /tmp/ccDoLsau.s 			page 71


 2362              		.loc 1 201 0
 2363 0012 1869     		ldr	r0, [r3, #16]
 2364              	.LVL272:
 2365 0014 FFF7FEFF 		bl	lv_disp_get_layer_sys
 2366              	.LVL273:
 2367 0018 0146     		mov	r1, r0
 2368 001a 2846     		mov	r0, r5
 2369 001c FFF7FEFF 		bl	lv_obj_set_parent
 2370              	.LVL274:
 202:Drivers/lvgl/lvgl/src/core/lv_indev.c ****     lv_obj_clear_flag(indev->cursor, LV_OBJ_FLAG_CLICKABLE);
 2371              		.loc 1 202 0
 2372 0020 B4F90A20 		ldrsh	r2, [r4, #10]
 2373 0024 B4F90810 		ldrsh	r1, [r4, #8]
 2374 0028 206D     		ldr	r0, [r4, #80]
 2375 002a FFF7FEFF 		bl	lv_obj_set_pos
 2376              	.LVL275:
 203:Drivers/lvgl/lvgl/src/core/lv_indev.c ****     lv_obj_add_flag(indev->cursor, LV_OBJ_FLAG_IGNORE_LAYOUT | LV_OBJ_FLAG_FLOATING);
 2377              		.loc 1 203 0
 2378 002e 0221     		movs	r1, #2
 2379 0030 206D     		ldr	r0, [r4, #80]
 2380 0032 FFF7FEFF 		bl	lv_obj_clear_flag
 2381              	.LVL276:
 204:Drivers/lvgl/lvgl/src/core/lv_indev.c **** }
 2382              		.loc 1 204 0
 2383 0036 4FF4C021 		mov	r1, #393216
 2384 003a 206D     		ldr	r0, [r4, #80]
 2385 003c FFF7FEFF 		bl	lv_obj_add_flag
 2386              	.LVL277:
 2387 0040 E3E7     		b	.L209
 2388              		.cfi_endproc
 2389              	.LFE171:
 2391              		.section	.text.lv_indev_set_group,"ax",%progbits
 2392              		.align	1
 2393              		.global	lv_indev_set_group
 2394              		.syntax unified
 2395              		.thumb
 2396              		.thumb_func
 2397              		.fpu fpv5-d16
 2399              	lv_indev_set_group:
 2400              	.LFB172:
 208:Drivers/lvgl/lvgl/src/core/lv_indev.c ****     if(indev->driver->type == LV_INDEV_TYPE_KEYPAD || indev->driver->type == LV_INDEV_TYPE_ENCODER)
 2401              		.loc 1 208 0
 2402              		.cfi_startproc
 2403              		@ args = 0, pretend = 0, frame = 0
 2404              		@ frame_needed = 0, uses_anonymous_args = 0
 2405              		@ link register save eliminated.
 2406              	.LVL278:
 209:Drivers/lvgl/lvgl/src/core/lv_indev.c ****         indev->group = group;
 2407              		.loc 1 209 0
 2408 0000 0368     		ldr	r3, [r0]
 2409 0002 1B78     		ldrb	r3, [r3]	@ zero_extendqisi2
 2410 0004 042B     		cmp	r3, #4
 2411 0006 18BF     		it	ne
 2412 0008 022B     		cmpne	r3, #2
 2413 000a 00D1     		bne	.L213
 210:Drivers/lvgl/lvgl/src/core/lv_indev.c ****     }
 2414              		.loc 1 210 0
ARM GAS  /tmp/ccDoLsau.s 			page 72


 2415 000c 4165     		str	r1, [r0, #84]
 2416              	.L213:
 212:Drivers/lvgl/lvgl/src/core/lv_indev.c **** 
 2417              		.loc 1 212 0
 2418 000e 7047     		bx	lr
 2419              		.cfi_endproc
 2420              	.LFE172:
 2422              		.section	.text.lv_indev_set_button_points,"ax",%progbits
 2423              		.align	1
 2424              		.global	lv_indev_set_button_points
 2425              		.syntax unified
 2426              		.thumb
 2427              		.thumb_func
 2428              		.fpu fpv5-d16
 2430              	lv_indev_set_button_points:
 2431              	.LFB173:
 215:Drivers/lvgl/lvgl/src/core/lv_indev.c ****     if(indev->driver->type == LV_INDEV_TYPE_BUTTON) {
 2432              		.loc 1 215 0
 2433              		.cfi_startproc
 2434              		@ args = 0, pretend = 0, frame = 0
 2435              		@ frame_needed = 0, uses_anonymous_args = 0
 2436              		@ link register save eliminated.
 2437              	.LVL279:
 216:Drivers/lvgl/lvgl/src/core/lv_indev.c ****         indev->btn_points = points;
 2438              		.loc 1 216 0
 2439 0000 0368     		ldr	r3, [r0]
 2440 0002 1B78     		ldrb	r3, [r3]	@ zero_extendqisi2
 2441 0004 032B     		cmp	r3, #3
 2442 0006 00D0     		beq	.L217
 2443              	.L215:
 219:Drivers/lvgl/lvgl/src/core/lv_indev.c **** 
 2444              		.loc 1 219 0
 2445 0008 7047     		bx	lr
 2446              	.L217:
 217:Drivers/lvgl/lvgl/src/core/lv_indev.c ****     }
 2447              		.loc 1 217 0
 2448 000a 8165     		str	r1, [r0, #88]
 219:Drivers/lvgl/lvgl/src/core/lv_indev.c **** 
 2449              		.loc 1 219 0
 2450 000c FCE7     		b	.L215
 2451              		.cfi_endproc
 2452              	.LFE173:
 2454              		.section	.text.lv_indev_get_point,"ax",%progbits
 2455              		.align	1
 2456              		.global	lv_indev_get_point
 2457              		.syntax unified
 2458              		.thumb
 2459              		.thumb_func
 2460              		.fpu fpv5-d16
 2462              	lv_indev_get_point:
 2463              	.LFB174:
 222:Drivers/lvgl/lvgl/src/core/lv_indev.c ****     if(indev == NULL) {
 2464              		.loc 1 222 0
 2465              		.cfi_startproc
 2466              		@ args = 0, pretend = 0, frame = 0
 2467              		@ frame_needed = 0, uses_anonymous_args = 0
 2468              		@ link register save eliminated.
ARM GAS  /tmp/ccDoLsau.s 			page 73


 2469              	.LVL280:
 223:Drivers/lvgl/lvgl/src/core/lv_indev.c ****         point->x = 0;
 2470              		.loc 1 223 0
 2471 0000 60B1     		cbz	r0, .L222
 228:Drivers/lvgl/lvgl/src/core/lv_indev.c ****         point->x = -1;
 2472              		.loc 1 228 0
 2473 0002 0268     		ldr	r2, [r0]
 2474 0004 1278     		ldrb	r2, [r2]	@ zero_extendqisi2
 2475 0006 012A     		cmp	r2, #1
 2476 0008 18BF     		it	ne
 2477 000a 032A     		cmpne	r2, #3
 2478 000c 0AD1     		bne	.L223
 233:Drivers/lvgl/lvgl/src/core/lv_indev.c ****         point->y = indev->proc.types.pointer.act_point.y;
 2479              		.loc 1 233 0
 2480 000e B0F90820 		ldrsh	r2, [r0, #8]
 2481 0012 0A80     		strh	r2, [r1]	@ movhi
 234:Drivers/lvgl/lvgl/src/core/lv_indev.c ****     }
 2482              		.loc 1 234 0
 2483 0014 B0F90A30 		ldrsh	r3, [r0, #10]
 2484 0018 4B80     		strh	r3, [r1, #2]	@ movhi
 236:Drivers/lvgl/lvgl/src/core/lv_indev.c **** 
 2485              		.loc 1 236 0
 2486 001a 7047     		bx	lr
 2487              	.L222:
 224:Drivers/lvgl/lvgl/src/core/lv_indev.c ****         point->y = 0;
 2488              		.loc 1 224 0
 2489 001c 0023     		movs	r3, #0
 2490 001e 0B80     		strh	r3, [r1]	@ movhi
 225:Drivers/lvgl/lvgl/src/core/lv_indev.c ****         return;
 2491              		.loc 1 225 0
 2492 0020 4B80     		strh	r3, [r1, #2]	@ movhi
 226:Drivers/lvgl/lvgl/src/core/lv_indev.c ****     }
 2493              		.loc 1 226 0
 2494 0022 7047     		bx	lr
 2495              	.L223:
 229:Drivers/lvgl/lvgl/src/core/lv_indev.c ****         point->y = -1;
 2496              		.loc 1 229 0
 2497 0024 4FF6FF73 		movw	r3, #65535
 2498 0028 0B80     		strh	r3, [r1]	@ movhi
 230:Drivers/lvgl/lvgl/src/core/lv_indev.c ****     }
 2499              		.loc 1 230 0
 2500 002a 4B80     		strh	r3, [r1, #2]	@ movhi
 2501 002c 7047     		bx	lr
 2502              		.cfi_endproc
 2503              	.LFE174:
 2505              		.section	.text.lv_indev_get_gesture_dir,"ax",%progbits
 2506              		.align	1
 2507              		.global	lv_indev_get_gesture_dir
 2508              		.syntax unified
 2509              		.thumb
 2510              		.thumb_func
 2511              		.fpu fpv5-d16
 2513              	lv_indev_get_gesture_dir:
 2514              	.LFB175:
 239:Drivers/lvgl/lvgl/src/core/lv_indev.c ****     return indev->proc.types.pointer.gesture_dir;
 2515              		.loc 1 239 0
 2516              		.cfi_startproc
ARM GAS  /tmp/ccDoLsau.s 			page 74


 2517              		@ args = 0, pretend = 0, frame = 0
 2518              		@ frame_needed = 0, uses_anonymous_args = 0
 2519              		@ link register save eliminated.
 2520              	.LVL281:
 240:Drivers/lvgl/lvgl/src/core/lv_indev.c **** }
 2521              		.loc 1 240 0
 2522 0000 90F84400 		ldrb	r0, [r0, #68]	@ zero_extendqisi2
 2523              	.LVL282:
 241:Drivers/lvgl/lvgl/src/core/lv_indev.c **** 
 2524              		.loc 1 241 0
 2525 0004 0009     		lsrs	r0, r0, #4
 2526 0006 7047     		bx	lr
 2527              		.cfi_endproc
 2528              	.LFE175:
 2530              		.section	.text.lv_indev_get_key,"ax",%progbits
 2531              		.align	1
 2532              		.global	lv_indev_get_key
 2533              		.syntax unified
 2534              		.thumb
 2535              		.thumb_func
 2536              		.fpu fpv5-d16
 2538              	lv_indev_get_key:
 2539              	.LFB176:
 244:Drivers/lvgl/lvgl/src/core/lv_indev.c ****     if(indev->driver->type != LV_INDEV_TYPE_KEYPAD)
 2540              		.loc 1 244 0
 2541              		.cfi_startproc
 2542              		@ args = 0, pretend = 0, frame = 0
 2543              		@ frame_needed = 0, uses_anonymous_args = 0
 2544              		@ link register save eliminated.
 2545              	.LVL283:
 245:Drivers/lvgl/lvgl/src/core/lv_indev.c ****         return 0;
 2546              		.loc 1 245 0
 2547 0000 0368     		ldr	r3, [r0]
 2548 0002 1B78     		ldrb	r3, [r3]	@ zero_extendqisi2
 2549 0004 022B     		cmp	r3, #2
 2550 0006 01D0     		beq	.L228
 246:Drivers/lvgl/lvgl/src/core/lv_indev.c ****     else
 2551              		.loc 1 246 0
 2552 0008 0020     		movs	r0, #0
 2553              	.LVL284:
 249:Drivers/lvgl/lvgl/src/core/lv_indev.c **** 
 2554              		.loc 1 249 0
 2555 000a 7047     		bx	lr
 2556              	.LVL285:
 2557              	.L228:
 248:Drivers/lvgl/lvgl/src/core/lv_indev.c **** }
 2558              		.loc 1 248 0
 2559 000c C068     		ldr	r0, [r0, #12]
 2560              	.LVL286:
 2561 000e 7047     		bx	lr
 2562              		.cfi_endproc
 2563              	.LFE176:
 2565              		.section	.text.lv_indev_get_scroll_dir,"ax",%progbits
 2566              		.align	1
 2567              		.global	lv_indev_get_scroll_dir
 2568              		.syntax unified
 2569              		.thumb
ARM GAS  /tmp/ccDoLsau.s 			page 75


 2570              		.thumb_func
 2571              		.fpu fpv5-d16
 2573              	lv_indev_get_scroll_dir:
 2574              	.LFB177:
 252:Drivers/lvgl/lvgl/src/core/lv_indev.c ****     if(indev == NULL) return false;
 2575              		.loc 1 252 0
 2576              		.cfi_startproc
 2577              		@ args = 0, pretend = 0, frame = 0
 2578              		@ frame_needed = 0, uses_anonymous_args = 0
 2579              		@ link register save eliminated.
 2580              	.LVL287:
 253:Drivers/lvgl/lvgl/src/core/lv_indev.c ****     if(indev->driver->type != LV_INDEV_TYPE_POINTER && indev->driver->type != LV_INDEV_TYPE_BUTTON)
 2581              		.loc 1 253 0
 2582 0000 50B1     		cbz	r0, .L231
 254:Drivers/lvgl/lvgl/src/core/lv_indev.c ****     return indev->proc.types.pointer.scroll_dir;
 2583              		.loc 1 254 0
 2584 0002 0368     		ldr	r3, [r0]
 2585 0004 1B78     		ldrb	r3, [r3]	@ zero_extendqisi2
 2586 0006 012B     		cmp	r3, #1
 2587 0008 18BF     		it	ne
 2588 000a 032B     		cmpne	r3, #3
 2589 000c 06D1     		bne	.L232
 255:Drivers/lvgl/lvgl/src/core/lv_indev.c **** }
 2590              		.loc 1 255 0
 2591 000e 90F84400 		ldrb	r0, [r0, #68]	@ zero_extendqisi2
 2592              	.LVL288:
 2593 0012 00F00F00 		and	r0, r0, #15
 2594 0016 7047     		bx	lr
 2595              	.LVL289:
 2596              	.L231:
 253:Drivers/lvgl/lvgl/src/core/lv_indev.c ****     if(indev->driver->type != LV_INDEV_TYPE_POINTER && indev->driver->type != LV_INDEV_TYPE_BUTTON)
 2597              		.loc 1 253 0
 2598 0018 0020     		movs	r0, #0
 2599              	.LVL290:
 2600 001a 7047     		bx	lr
 2601              	.LVL291:
 2602              	.L232:
 254:Drivers/lvgl/lvgl/src/core/lv_indev.c ****     return indev->proc.types.pointer.scroll_dir;
 2603              		.loc 1 254 0
 2604 001c 0020     		movs	r0, #0
 2605              	.LVL292:
 256:Drivers/lvgl/lvgl/src/core/lv_indev.c **** 
 2606              		.loc 1 256 0
 2607 001e 7047     		bx	lr
 2608              		.cfi_endproc
 2609              	.LFE177:
 2611              		.section	.text.lv_indev_get_scroll_obj,"ax",%progbits
 2612              		.align	1
 2613              		.global	lv_indev_get_scroll_obj
 2614              		.syntax unified
 2615              		.thumb
 2616              		.thumb_func
 2617              		.fpu fpv5-d16
 2619              	lv_indev_get_scroll_obj:
 2620              	.LFB178:
 259:Drivers/lvgl/lvgl/src/core/lv_indev.c ****     if(indev == NULL) return NULL;
 2621              		.loc 1 259 0
ARM GAS  /tmp/ccDoLsau.s 			page 76


 2622              		.cfi_startproc
 2623              		@ args = 0, pretend = 0, frame = 0
 2624              		@ frame_needed = 0, uses_anonymous_args = 0
 2625              		@ link register save eliminated.
 2626              	.LVL293:
 260:Drivers/lvgl/lvgl/src/core/lv_indev.c ****     if(indev->driver->type != LV_INDEV_TYPE_POINTER && indev->driver->type != LV_INDEV_TYPE_BUTTON)
 2627              		.loc 1 260 0
 2628 0000 38B1     		cbz	r0, .L235
 261:Drivers/lvgl/lvgl/src/core/lv_indev.c ****     return indev->proc.types.pointer.scroll_obj;
 2629              		.loc 1 261 0
 2630 0002 0368     		ldr	r3, [r0]
 2631 0004 1B78     		ldrb	r3, [r3]	@ zero_extendqisi2
 2632 0006 012B     		cmp	r3, #1
 2633 0008 18BF     		it	ne
 2634 000a 032B     		cmpne	r3, #3
 2635 000c 03D1     		bne	.L236
 262:Drivers/lvgl/lvgl/src/core/lv_indev.c **** }
 2636              		.loc 1 262 0
 2637 000e 006B     		ldr	r0, [r0, #48]
 2638              	.LVL294:
 2639 0010 7047     		bx	lr
 2640              	.LVL295:
 2641              	.L235:
 260:Drivers/lvgl/lvgl/src/core/lv_indev.c ****     if(indev->driver->type != LV_INDEV_TYPE_POINTER && indev->driver->type != LV_INDEV_TYPE_BUTTON)
 2642              		.loc 1 260 0
 2643 0012 0020     		movs	r0, #0
 2644              	.LVL296:
 2645 0014 7047     		bx	lr
 2646              	.LVL297:
 2647              	.L236:
 261:Drivers/lvgl/lvgl/src/core/lv_indev.c ****     return indev->proc.types.pointer.scroll_obj;
 2648              		.loc 1 261 0
 2649 0016 0020     		movs	r0, #0
 2650              	.LVL298:
 263:Drivers/lvgl/lvgl/src/core/lv_indev.c **** 
 2651              		.loc 1 263 0
 2652 0018 7047     		bx	lr
 2653              		.cfi_endproc
 2654              	.LFE178:
 2656              		.section	.text.lv_indev_get_vect,"ax",%progbits
 2657              		.align	1
 2658              		.global	lv_indev_get_vect
 2659              		.syntax unified
 2660              		.thumb
 2661              		.thumb_func
 2662              		.fpu fpv5-d16
 2664              	lv_indev_get_vect:
 2665              	.LFB179:
 266:Drivers/lvgl/lvgl/src/core/lv_indev.c ****     point->x = 0;
 2666              		.loc 1 266 0
 2667              		.cfi_startproc
 2668              		@ args = 0, pretend = 0, frame = 0
 2669              		@ frame_needed = 0, uses_anonymous_args = 0
 2670              		@ link register save eliminated.
 2671              	.LVL299:
 267:Drivers/lvgl/lvgl/src/core/lv_indev.c ****     point->y = 0;
 2672              		.loc 1 267 0
ARM GAS  /tmp/ccDoLsau.s 			page 77


 2673 0000 0023     		movs	r3, #0
 2674 0002 0B80     		strh	r3, [r1]	@ movhi
 268:Drivers/lvgl/lvgl/src/core/lv_indev.c **** 
 2675              		.loc 1 268 0
 2676 0004 4B80     		strh	r3, [r1, #2]	@ movhi
 270:Drivers/lvgl/lvgl/src/core/lv_indev.c **** 
 2677              		.loc 1 270 0
 2678 0006 58B1     		cbz	r0, .L237
 272:Drivers/lvgl/lvgl/src/core/lv_indev.c ****         point->x = indev->proc.types.pointer.vect.x;
 2679              		.loc 1 272 0
 2680 0008 0268     		ldr	r2, [r0]
 2681 000a 1278     		ldrb	r2, [r2]	@ zero_extendqisi2
 2682 000c 032A     		cmp	r2, #3
 2683 000e 18BF     		it	ne
 2684 0010 012A     		cmpne	r2, #1
 2685 0012 05D1     		bne	.L237
 273:Drivers/lvgl/lvgl/src/core/lv_indev.c ****         point->y = indev->proc.types.pointer.vect.y;
 2686              		.loc 1 273 0
 2687 0014 B0F91820 		ldrsh	r2, [r0, #24]
 2688 0018 0A80     		strh	r2, [r1]	@ movhi
 274:Drivers/lvgl/lvgl/src/core/lv_indev.c ****     }
 2689              		.loc 1 274 0
 2690 001a B0F91A30 		ldrsh	r3, [r0, #26]
 2691 001e 4B80     		strh	r3, [r1, #2]	@ movhi
 2692              	.L237:
 276:Drivers/lvgl/lvgl/src/core/lv_indev.c **** 
 2693              		.loc 1 276 0
 2694 0020 7047     		bx	lr
 2695              		.cfi_endproc
 2696              	.LFE179:
 2698              		.section	.text.lv_indev_wait_release,"ax",%progbits
 2699              		.align	1
 2700              		.global	lv_indev_wait_release
 2701              		.syntax unified
 2702              		.thumb
 2703              		.thumb_func
 2704              		.fpu fpv5-d16
 2706              	lv_indev_wait_release:
 2707              	.LFB180:
 279:Drivers/lvgl/lvgl/src/core/lv_indev.c ****     if(indev == NULL)return;
 2708              		.loc 1 279 0
 2709              		.cfi_startproc
 2710              		@ args = 0, pretend = 0, frame = 0
 2711              		@ frame_needed = 0, uses_anonymous_args = 0
 2712              		@ link register save eliminated.
 2713              	.LVL300:
 280:Drivers/lvgl/lvgl/src/core/lv_indev.c ****     indev->proc.wait_until_release = 1;
 2714              		.loc 1 280 0
 2715 0000 18B1     		cbz	r0, .L239
 281:Drivers/lvgl/lvgl/src/core/lv_indev.c **** }
 2716              		.loc 1 281 0
 2717 0002 4379     		ldrb	r3, [r0, #5]	@ zero_extendqisi2
 2718 0004 43F00803 		orr	r3, r3, #8
 2719 0008 4371     		strb	r3, [r0, #5]
 2720              	.L239:
 282:Drivers/lvgl/lvgl/src/core/lv_indev.c **** 
 2721              		.loc 1 282 0
ARM GAS  /tmp/ccDoLsau.s 			page 78


 2722 000a 7047     		bx	lr
 2723              		.cfi_endproc
 2724              	.LFE180:
 2726              		.section	.text.lv_indev_get_obj_act,"ax",%progbits
 2727              		.align	1
 2728              		.global	lv_indev_get_obj_act
 2729              		.syntax unified
 2730              		.thumb
 2731              		.thumb_func
 2732              		.fpu fpv5-d16
 2734              	lv_indev_get_obj_act:
 2735              	.LFB181:
 285:Drivers/lvgl/lvgl/src/core/lv_indev.c ****     return indev_obj_act;
 2736              		.loc 1 285 0
 2737              		.cfi_startproc
 2738              		@ args = 0, pretend = 0, frame = 0
 2739              		@ frame_needed = 0, uses_anonymous_args = 0
 2740              		@ link register save eliminated.
 287:Drivers/lvgl/lvgl/src/core/lv_indev.c **** 
 2741              		.loc 1 287 0
 2742 0000 014B     		ldr	r3, .L242
 2743 0002 1868     		ldr	r0, [r3]
 2744 0004 7047     		bx	lr
 2745              	.L243:
 2746 0006 00BF     		.align	2
 2747              	.L242:
 2748 0008 00000000 		.word	.LANCHOR0
 2749              		.cfi_endproc
 2750              	.LFE181:
 2752              		.section	.text.lv_indev_get_read_timer,"ax",%progbits
 2753              		.align	1
 2754              		.global	lv_indev_get_read_timer
 2755              		.syntax unified
 2756              		.thumb
 2757              		.thumb_func
 2758              		.fpu fpv5-d16
 2760              	lv_indev_get_read_timer:
 2761              	.LFB182:
 290:Drivers/lvgl/lvgl/src/core/lv_indev.c ****     if(!indev) {
 2762              		.loc 1 290 0
 2763              		.cfi_startproc
 2764              		@ args = 0, pretend = 0, frame = 0
 2765              		@ frame_needed = 0, uses_anonymous_args = 0
 2766              		@ link register save eliminated.
 2767              	.LVL301:
 291:Drivers/lvgl/lvgl/src/core/lv_indev.c ****         LV_LOG_WARN("lv_indev_get_read_timer: indev was NULL");
 2768              		.loc 1 291 0
 2769 0000 08B1     		cbz	r0, .L246
 296:Drivers/lvgl/lvgl/src/core/lv_indev.c **** }
 2770              		.loc 1 296 0
 2771 0002 4068     		ldr	r0, [r0, #4]
 2772              	.LVL302:
 2773 0004 7047     		bx	lr
 2774              	.LVL303:
 2775              	.L246:
 293:Drivers/lvgl/lvgl/src/core/lv_indev.c ****     }
 2776              		.loc 1 293 0
ARM GAS  /tmp/ccDoLsau.s 			page 79


 2777 0006 0020     		movs	r0, #0
 2778              	.LVL304:
 297:Drivers/lvgl/lvgl/src/core/lv_indev.c **** 
 2779              		.loc 1 297 0
 2780 0008 7047     		bx	lr
 2781              		.cfi_endproc
 2782              	.LFE182:
 2784              		.section	.text.lv_indev_search_obj,"ax",%progbits
 2785              		.align	1
 2786              		.global	lv_indev_search_obj
 2787              		.syntax unified
 2788              		.thumb
 2789              		.thumb_func
 2790              		.fpu fpv5-d16
 2792              	lv_indev_search_obj:
 2793              	.LFB183:
 301:Drivers/lvgl/lvgl/src/core/lv_indev.c ****     lv_obj_t * found_p = NULL;
 2794              		.loc 1 301 0
 2795              		.cfi_startproc
 2796              		@ args = 0, pretend = 0, frame = 8
 2797              		@ frame_needed = 0, uses_anonymous_args = 0
 2798              	.LVL305:
 2799 0000 70B5     		push	{r4, r5, r6, lr}
 2800              	.LCFI12:
 2801              		.cfi_def_cfa_offset 16
 2802              		.cfi_offset 4, -16
 2803              		.cfi_offset 5, -12
 2804              		.cfi_offset 6, -8
 2805              		.cfi_offset 14, -4
 2806 0002 82B0     		sub	sp, sp, #8
 2807              	.LCFI13:
 2808              		.cfi_def_cfa_offset 24
 2809 0004 0546     		mov	r5, r0
 2810 0006 0C46     		mov	r4, r1
 2811              	.LVL306:
 305:Drivers/lvgl/lvgl/src/core/lv_indev.c **** 
 2812              		.loc 1 305 0
 2813 0008 0121     		movs	r1, #1
 2814              	.LVL307:
 2815 000a FFF7FEFF 		bl	lv_obj_has_flag
 2816              	.LVL308:
 2817 000e 78BB     		cbnz	r0, .L253
 307:Drivers/lvgl/lvgl/src/core/lv_indev.c ****     lv_obj_transform_point(obj, &p_trans, false, true);
 2818              		.loc 1 307 0
 2819 0010 2068     		ldr	r0, [r4]	@ unaligned
 2820 0012 0190     		str	r0, [sp, #4]
 308:Drivers/lvgl/lvgl/src/core/lv_indev.c **** 
 2821              		.loc 1 308 0
 2822 0014 0123     		movs	r3, #1
 2823 0016 0022     		movs	r2, #0
 2824 0018 01A9     		add	r1, sp, #4
 2825 001a 2846     		mov	r0, r5
 2826 001c FFF7FEFF 		bl	lv_obj_transform_point
 2827              	.LVL309:
 310:Drivers/lvgl/lvgl/src/core/lv_indev.c **** 
 2828              		.loc 1 310 0
 2829 0020 01A9     		add	r1, sp, #4
ARM GAS  /tmp/ccDoLsau.s 			page 80


 2830 0022 2846     		mov	r0, r5
 2831 0024 FFF7FEFF 		bl	lv_obj_hit_test
 2832              	.LVL310:
 2833 0028 0646     		mov	r6, r0
 2834              	.LVL311:
 313:Drivers/lvgl/lvgl/src/core/lv_indev.c ****         int32_t i;
 2835              		.loc 1 313 0
 2836 002a 0022     		movs	r2, #0
 2837 002c 01A9     		add	r1, sp, #4
 2838 002e 05F11400 		add	r0, r5, #20
 2839 0032 FFF7FEFF 		bl	_lv_area_is_point_on
 2840              	.LVL312:
 2841 0036 28B9     		cbnz	r0, .L249
 313:Drivers/lvgl/lvgl/src/core/lv_indev.c ****         int32_t i;
 2842              		.loc 1 313 0 is_stmt 0 discriminator 1
 2843 0038 4FF40021 		mov	r1, #524288
 2844 003c 2846     		mov	r0, r5
 2845 003e FFF7FEFF 		bl	lv_obj_has_flag
 2846              	.LVL313:
 2847 0042 80B1     		cbz	r0, .L250
 2848              	.L249:
 2849              	.LBB21:
 315:Drivers/lvgl/lvgl/src/core/lv_indev.c **** 
 2850              		.loc 1 315 0 is_stmt 1
 2851 0044 2846     		mov	r0, r5
 2852 0046 FFF7FEFF 		bl	lv_obj_get_child_cnt
 2853              	.LVL314:
 318:Drivers/lvgl/lvgl/src/core/lv_indev.c ****             lv_obj_t * child = obj->spec_attr->children[i];
 2854              		.loc 1 318 0
 2855 004a 441E     		subs	r4, r0, #1
 2856              	.LVL315:
 2857              	.L251:
 318:Drivers/lvgl/lvgl/src/core/lv_indev.c ****             lv_obj_t * child = obj->spec_attr->children[i];
 2858              		.loc 1 318 0 is_stmt 0 discriminator 1
 2859 004c 002C     		cmp	r4, #0
 2860 004e 0ADB     		blt	.L250
 2861              	.LBB22:
 319:Drivers/lvgl/lvgl/src/core/lv_indev.c ****             found_p = lv_indev_search_obj(child, &p_trans);
 2862              		.loc 1 319 0 is_stmt 1
 2863 0050 AB68     		ldr	r3, [r5, #8]
 2864 0052 1B68     		ldr	r3, [r3]
 2865              	.LVL316:
 320:Drivers/lvgl/lvgl/src/core/lv_indev.c ****             if(found_p) return found_p;
 2866              		.loc 1 320 0
 2867 0054 01A9     		add	r1, sp, #4
 2868 0056 53F82400 		ldr	r0, [r3, r4, lsl #2]
 2869 005a FFF7FEFF 		bl	lv_indev_search_obj
 2870              	.LVL317:
 321:Drivers/lvgl/lvgl/src/core/lv_indev.c ****         }
 2871              		.loc 1 321 0
 2872 005e 0346     		mov	r3, r0
 2873 0060 18B9     		cbnz	r0, .L247
 2874              	.LBE22:
 318:Drivers/lvgl/lvgl/src/core/lv_indev.c ****             lv_obj_t * child = obj->spec_attr->children[i];
 2875              		.loc 1 318 0 discriminator 2
 2876 0062 013C     		subs	r4, r4, #1
 2877              	.LVL318:
ARM GAS  /tmp/ccDoLsau.s 			page 81


 2878 0064 F2E7     		b	.L251
 2879              	.LVL319:
 2880              	.L250:
 2881              	.LBE21:
 327:Drivers/lvgl/lvgl/src/core/lv_indev.c ****     else return NULL;
 2882              		.loc 1 327 0
 2883 0066 2EB1     		cbz	r6, .L254
 2884 0068 2B46     		mov	r3, r5
 2885              	.LVL320:
 2886              	.L247:
 329:Drivers/lvgl/lvgl/src/core/lv_indev.c **** 
 2887              		.loc 1 329 0
 2888 006a 1846     		mov	r0, r3
 2889 006c 02B0     		add	sp, sp, #8
 2890              	.LCFI14:
 2891              		.cfi_remember_state
 2892              		.cfi_def_cfa_offset 16
 2893              		@ sp needed
 2894 006e 70BD     		pop	{r4, r5, r6, pc}
 2895              	.LVL321:
 2896              	.L253:
 2897              	.LCFI15:
 2898              		.cfi_restore_state
 305:Drivers/lvgl/lvgl/src/core/lv_indev.c **** 
 2899              		.loc 1 305 0
 2900 0070 0023     		movs	r3, #0
 2901 0072 FAE7     		b	.L247
 2902              	.LVL322:
 2903              	.L254:
 328:Drivers/lvgl/lvgl/src/core/lv_indev.c **** }
 2904              		.loc 1 328 0
 2905 0074 0023     		movs	r3, #0
 2906 0076 F8E7     		b	.L247
 2907              		.cfi_endproc
 2908              	.LFE183:
 2910              		.section	.text.indev_proc_press,"ax",%progbits
 2911              		.align	1
 2912              		.syntax unified
 2913              		.thumb
 2914              		.thumb_func
 2915              		.fpu fpv5-d16
 2917              	indev_proc_press:
 2918              	.LFB188:
 818:Drivers/lvgl/lvgl/src/core/lv_indev.c ****     LV_LOG_INFO("pressed at x:%d y:%d", proc->types.pointer.act_point.x, proc->types.pointer.act_po
 2919              		.loc 1 818 0
 2920              		.cfi_startproc
 2921              		@ args = 0, pretend = 0, frame = 0
 2922              		@ frame_needed = 0, uses_anonymous_args = 0
 2923              	.LVL323:
 820:Drivers/lvgl/lvgl/src/core/lv_indev.c **** 
 2924              		.loc 1 820 0
 2925 0000 436A     		ldr	r3, [r0, #36]
 2926 0002 9E4A     		ldr	r2, .L281
 2927 0004 1360     		str	r3, [r2]
 822:Drivers/lvgl/lvgl/src/core/lv_indev.c **** 
 2928              		.loc 1 822 0
 2929 0006 4278     		ldrb	r2, [r0, #1]	@ zero_extendqisi2
ARM GAS  /tmp/ccDoLsau.s 			page 82


 2930 0008 12F0080F 		tst	r2, #8
 2931 000c 40F03581 		bne	.L269
 818:Drivers/lvgl/lvgl/src/core/lv_indev.c ****     LV_LOG_INFO("pressed at x:%d y:%d", proc->types.pointer.act_point.x, proc->types.pointer.act_po
 2932              		.loc 1 818 0
 2933 0010 70B5     		push	{r4, r5, r6, lr}
 2934              	.LCFI16:
 2935              		.cfi_def_cfa_offset 16
 2936              		.cfi_offset 4, -16
 2937              		.cfi_offset 5, -12
 2938              		.cfi_offset 6, -8
 2939              		.cfi_offset 14, -4
 2940 0012 0446     		mov	r4, r0
 824:Drivers/lvgl/lvgl/src/core/lv_indev.c ****     bool new_obj_searched = false;
 2941              		.loc 1 824 0
 2942 0014 9A4A     		ldr	r2, .L281+4
 2943 0016 1268     		ldr	r2, [r2]
 2944 0018 1268     		ldr	r2, [r2]
 2945 001a 1569     		ldr	r5, [r2, #16]
 2946              	.LVL324:
 828:Drivers/lvgl/lvgl/src/core/lv_indev.c ****         indev_obj_act = lv_indev_search_obj(lv_disp_get_layer_sys(disp), &proc->types.pointer.act_p
 2947              		.loc 1 828 0
 2948 001c 002B     		cmp	r3, #0
 2949 001e 7FD0     		beq	.L272
 837:Drivers/lvgl/lvgl/src/core/lv_indev.c ****             lv_obj_has_flag(indev_obj_act, LV_OBJ_FLAG_PRESS_LOCK) == false) {
 2950              		.loc 1 837 0
 2951 0020 C26A     		ldr	r2, [r0, #44]
 2952 0022 002A     		cmp	r2, #0
 2953 0024 00F0AC80 		beq	.L273
 2954              	.LVL325:
 2955              	.L261:
 856:Drivers/lvgl/lvgl/src/core/lv_indev.c ****         proc->types.pointer.last_point.x = proc->types.pointer.act_point.x;
 2956              		.loc 1 856 0
 2957 0028 606A     		ldr	r0, [r4, #36]
 2958 002a 944B     		ldr	r3, .L281
 2959 002c 1B68     		ldr	r3, [r3]
 2960 002e 9842     		cmp	r0, r3
 2961 0030 4BD0     		beq	.L263
 857:Drivers/lvgl/lvgl/src/core/lv_indev.c ****         proc->types.pointer.last_point.y = proc->types.pointer.act_point.y;
 2962              		.loc 1 857 0
 2963 0032 B4F90430 		ldrsh	r3, [r4, #4]
 2964 0036 A381     		strh	r3, [r4, #12]	@ movhi
 858:Drivers/lvgl/lvgl/src/core/lv_indev.c **** 
 2965              		.loc 1 858 0
 2966 0038 B4F90630 		ldrsh	r3, [r4, #6]
 2967 003c E381     		strh	r3, [r4, #14]	@ movhi
 861:Drivers/lvgl/lvgl/src/core/lv_indev.c ****             /*Save the obj because in special cases `act_obj` can change in the Call the ancestor's
 2968              		.loc 1 861 0
 2969 003e 48B1     		cbz	r0, .L264
 2970              	.LVL326:
 2971              	.LBB23:
 865:Drivers/lvgl/lvgl/src/core/lv_indev.c ****             if(indev_reset_check(proc)) return;
 2972              		.loc 1 865 0
 2973 0040 8F4B     		ldr	r3, .L281+4
 2974 0042 1A68     		ldr	r2, [r3]
 2975 0044 0321     		movs	r1, #3
 2976 0046 FFF7FEFF 		bl	lv_event_send
 2977              	.LVL327:
ARM GAS  /tmp/ccDoLsau.s 			page 83


 866:Drivers/lvgl/lvgl/src/core/lv_indev.c ****         }
 2978              		.loc 1 866 0
 2979 004a 2046     		mov	r0, r4
 2980 004c FFF7FEFF 		bl	indev_reset_check
 2981              	.LVL328:
 2982 0050 0028     		cmp	r0, #0
 2983 0052 64D1     		bne	.L256
 2984              	.L264:
 2985              	.LBE23:
 869:Drivers/lvgl/lvgl/src/core/lv_indev.c ****         proc->types.pointer.last_obj = indev_obj_act;
 2986              		.loc 1 869 0
 2987 0054 894B     		ldr	r3, .L281
 2988 0056 1B68     		ldr	r3, [r3]
 2989 0058 6362     		str	r3, [r4, #36]
 870:Drivers/lvgl/lvgl/src/core/lv_indev.c **** 
 2990              		.loc 1 870 0
 2991 005a A362     		str	r3, [r4, #40]
 872:Drivers/lvgl/lvgl/src/core/lv_indev.c ****             /*Save the time when the obj pressed to count long press time.*/
 2992              		.loc 1 872 0
 2993 005c 002B     		cmp	r3, #0
 2994 005e 34D0     		beq	.L263
 874:Drivers/lvgl/lvgl/src/core/lv_indev.c ****             proc->long_pr_sent                 = 0;
 2995              		.loc 1 874 0
 2996 0060 FFF7FEFF 		bl	lv_tick_get
 2997              	.LVL329:
 2998 0064 6064     		str	r0, [r4, #68]
 875:Drivers/lvgl/lvgl/src/core/lv_indev.c ****             proc->types.pointer.scroll_sum.x     = 0;
 2999              		.loc 1 875 0
 3000 0066 6378     		ldrb	r3, [r4, #1]	@ zero_extendqisi2
 3001 0068 6FF30003 		bfc	r3, #0, #1
 3002 006c 6370     		strb	r3, [r4, #1]
 876:Drivers/lvgl/lvgl/src/core/lv_indev.c ****             proc->types.pointer.scroll_sum.y     = 0;
 3003              		.loc 1 876 0
 3004 006e 0023     		movs	r3, #0
 3005 0070 2383     		strh	r3, [r4, #24]	@ movhi
 877:Drivers/lvgl/lvgl/src/core/lv_indev.c ****             proc->types.pointer.scroll_dir = LV_DIR_NONE;
 3006              		.loc 1 877 0
 3007 0072 6383     		strh	r3, [r4, #26]	@ movhi
 878:Drivers/lvgl/lvgl/src/core/lv_indev.c ****             proc->types.pointer.gesture_dir = LV_DIR_NONE;
 3008              		.loc 1 878 0
 3009 0074 94F84020 		ldrb	r2, [r4, #64]	@ zero_extendqisi2
 879:Drivers/lvgl/lvgl/src/core/lv_indev.c ****             proc->types.pointer.gesture_sent   = 0;
 3010              		.loc 1 879 0
 3011 0078 02F0F002 		and	r2, r2, #240
 3012 007c 63F30712 		bfi	r2, r3, #4, #4
 3013 0080 84F84020 		strb	r2, [r4, #64]
 880:Drivers/lvgl/lvgl/src/core/lv_indev.c ****             proc->types.pointer.gesture_sum.x  = 0;
 3014              		.loc 1 880 0
 3015 0084 94F84120 		ldrb	r2, [r4, #65]	@ zero_extendqisi2
 3016 0088 63F30002 		bfi	r2, r3, #0, #1
 3017 008c 84F84120 		strb	r2, [r4, #65]
 881:Drivers/lvgl/lvgl/src/core/lv_indev.c ****             proc->types.pointer.gesture_sum.y  = 0;
 3018              		.loc 1 881 0
 3019 0090 A387     		strh	r3, [r4, #60]	@ movhi
 882:Drivers/lvgl/lvgl/src/core/lv_indev.c ****             proc->types.pointer.vect.x         = 0;
 3020              		.loc 1 882 0
 3021 0092 E387     		strh	r3, [r4, #62]	@ movhi
ARM GAS  /tmp/ccDoLsau.s 			page 84


 883:Drivers/lvgl/lvgl/src/core/lv_indev.c ****             proc->types.pointer.vect.y         = 0;
 3022              		.loc 1 883 0
 3023 0094 A382     		strh	r3, [r4, #20]	@ movhi
 884:Drivers/lvgl/lvgl/src/core/lv_indev.c **** 
 3024              		.loc 1 884 0
 3025 0096 E382     		strh	r3, [r4, #22]	@ movhi
 887:Drivers/lvgl/lvgl/src/core/lv_indev.c ****             if(indev_reset_check(proc)) return;
 3026              		.loc 1 887 0
 3027 0098 794B     		ldr	r3, .L281+4
 3028 009a 1A68     		ldr	r2, [r3]
 3029 009c 0121     		movs	r1, #1
 3030 009e 774B     		ldr	r3, .L281
 3031 00a0 1868     		ldr	r0, [r3]
 3032 00a2 FFF7FEFF 		bl	lv_event_send
 3033              	.LVL330:
 888:Drivers/lvgl/lvgl/src/core/lv_indev.c **** 
 3034              		.loc 1 888 0
 3035 00a6 2046     		mov	r0, r4
 3036 00a8 FFF7FEFF 		bl	indev_reset_check
 3037              	.LVL331:
 3038 00ac 0028     		cmp	r0, #0
 3039 00ae 36D1     		bne	.L256
 890:Drivers/lvgl/lvgl/src/core/lv_indev.c **** 
 3040              		.loc 1 890 0
 3041 00b0 734B     		ldr	r3, .L281+4
 3042 00b2 1868     		ldr	r0, [r3]
 3043 00b4 4379     		ldrb	r3, [r0, #5]	@ zero_extendqisi2
 3044 00b6 13F0080F 		tst	r3, #8
 3045 00ba 30D1     		bne	.L256
 893:Drivers/lvgl/lvgl/src/core/lv_indev.c ****             if(indev_reset_check(proc)) return;
 3046              		.loc 1 893 0
 3047 00bc 0430     		adds	r0, r0, #4
 3048 00be FFF7FEFF 		bl	indev_click_focus
 3049              	.LVL332:
 894:Drivers/lvgl/lvgl/src/core/lv_indev.c **** 
 3050              		.loc 1 894 0
 3051 00c2 2046     		mov	r0, r4
 3052 00c4 FFF7FEFF 		bl	indev_reset_check
 3053              	.LVL333:
 3054 00c8 48BB     		cbnz	r0, .L256
 3055              	.L263:
 900:Drivers/lvgl/lvgl/src/core/lv_indev.c ****     proc->types.pointer.vect.y = proc->types.pointer.act_point.y - proc->types.pointer.last_point.y
 3056              		.loc 1 900 0
 3057 00ca A288     		ldrh	r2, [r4, #4]
 3058 00cc A389     		ldrh	r3, [r4, #12]
 3059 00ce D21A     		subs	r2, r2, r3
 3060 00d0 12B2     		sxth	r2, r2
 3061 00d2 A282     		strh	r2, [r4, #20]	@ movhi
 901:Drivers/lvgl/lvgl/src/core/lv_indev.c **** 
 3062              		.loc 1 901 0
 3063 00d4 E388     		ldrh	r3, [r4, #6]
 3064 00d6 E189     		ldrh	r1, [r4, #14]
 3065 00d8 5B1A     		subs	r3, r3, r1
 3066 00da 1BB2     		sxth	r3, r3
 3067 00dc E382     		strh	r3, [r4, #22]	@ movhi
 903:Drivers/lvgl/lvgl/src/core/lv_indev.c ****     proc->types.pointer.scroll_throw_vect.y = (proc->types.pointer.scroll_throw_vect.y + proc->type
 3068              		.loc 1 903 0
ARM GAS  /tmp/ccDoLsau.s 			page 85


 3069 00de B4F91C10 		ldrsh	r1, [r4, #28]
 3070 00e2 8A18     		adds	r2, r1, r2
 3071 00e4 74D4     		bmi	.L274
 3072              	.L265:
 3073 00e6 5210     		asrs	r2, r2, #1
 3074 00e8 A283     		strh	r2, [r4, #28]	@ movhi
 904:Drivers/lvgl/lvgl/src/core/lv_indev.c **** 
 3075              		.loc 1 904 0
 3076 00ea B4F91E20 		ldrsh	r2, [r4, #30]
 3077 00ee D318     		adds	r3, r2, r3
 3078 00f0 70D4     		bmi	.L275
 3079              	.L266:
 3080 00f2 5B10     		asrs	r3, r3, #1
 3081 00f4 E383     		strh	r3, [r4, #30]	@ movhi
 906:Drivers/lvgl/lvgl/src/core/lv_indev.c **** 
 3082              		.loc 1 906 0
 3083 00f6 E369     		ldr	r3, [r4, #28]
 3084 00f8 2362     		str	r3, [r4, #32]
 908:Drivers/lvgl/lvgl/src/core/lv_indev.c ****         lv_event_send(indev_obj_act, LV_EVENT_PRESSING, indev_act);
 3085              		.loc 1 908 0
 3086 00fa 604B     		ldr	r3, .L281
 3087 00fc 1868     		ldr	r0, [r3]
 3088 00fe 70B1     		cbz	r0, .L256
 909:Drivers/lvgl/lvgl/src/core/lv_indev.c ****         if(indev_reset_check(proc)) return;
 3089              		.loc 1 909 0
 3090 0100 5F4B     		ldr	r3, .L281+4
 3091 0102 1A68     		ldr	r2, [r3]
 3092 0104 0221     		movs	r1, #2
 3093 0106 FFF7FEFF 		bl	lv_event_send
 3094              	.LVL334:
 910:Drivers/lvgl/lvgl/src/core/lv_indev.c **** 
 3095              		.loc 1 910 0
 3096 010a 2046     		mov	r0, r4
 3097 010c FFF7FEFF 		bl	indev_reset_check
 3098              	.LVL335:
 3099 0110 28B9     		cbnz	r0, .L256
 912:Drivers/lvgl/lvgl/src/core/lv_indev.c **** 
 3100              		.loc 1 912 0
 3101 0112 5B4B     		ldr	r3, .L281+4
 3102 0114 1B68     		ldr	r3, [r3]
 3103 0116 5B79     		ldrb	r3, [r3, #5]	@ zero_extendqisi2
 3104 0118 13F0080F 		tst	r3, #8
 3105 011c 5CD0     		beq	.L276
 3106              	.L256:
 944:Drivers/lvgl/lvgl/src/core/lv_indev.c **** 
 3107              		.loc 1 944 0
 3108 011e 70BD     		pop	{r4, r5, r6, pc}
 3109              	.LVL336:
 3110              	.L272:
 829:Drivers/lvgl/lvgl/src/core/lv_indev.c ****         if(indev_obj_act == NULL) indev_obj_act = lv_indev_search_obj(lv_disp_get_layer_top(disp),
 3111              		.loc 1 829 0
 3112 0120 2846     		mov	r0, r5
 3113              	.LVL337:
 3114 0122 FFF7FEFF 		bl	lv_disp_get_layer_sys
 3115              	.LVL338:
 3116 0126 261D     		adds	r6, r4, #4
 3117 0128 3146     		mov	r1, r6
ARM GAS  /tmp/ccDoLsau.s 			page 86


 3118 012a FFF7FEFF 		bl	lv_indev_search_obj
 3119              	.LVL339:
 3120 012e 534B     		ldr	r3, .L281
 3121 0130 1860     		str	r0, [r3]
 830:Drivers/lvgl/lvgl/src/core/lv_indev.c ****                                                                           &proc->types.pointer.act_
 3122              		.loc 1 830 0
 3123 0132 98B1     		cbz	r0, .L277
 3124              	.L259:
 832:Drivers/lvgl/lvgl/src/core/lv_indev.c ****                                                                           &proc->types.pointer.act_
 3125              		.loc 1 832 0
 3126 0134 514B     		ldr	r3, .L281
 3127 0136 1B68     		ldr	r3, [r3]
 3128 0138 CBB1     		cbz	r3, .L278
 3129              	.L260:
 848:Drivers/lvgl/lvgl/src/core/lv_indev.c ****         proc->types.pointer.scroll_throw_vect.x = 0;
 3130              		.loc 1 848 0 discriminator 1
 3131 013a A36A     		ldr	r3, [r4, #40]
 3132 013c 002B     		cmp	r3, #0
 3133 013e 3FF473AF 		beq	.L261
 849:Drivers/lvgl/lvgl/src/core/lv_indev.c ****         proc->types.pointer.scroll_throw_vect.y = 0;
 3134              		.loc 1 849 0
 3135 0142 0023     		movs	r3, #0
 3136 0144 A383     		strh	r3, [r4, #28]	@ movhi
 850:Drivers/lvgl/lvgl/src/core/lv_indev.c ****         _lv_indev_scroll_throw_handler(proc);
 3137              		.loc 1 850 0
 3138 0146 E383     		strh	r3, [r4, #30]	@ movhi
 851:Drivers/lvgl/lvgl/src/core/lv_indev.c ****         if(indev_reset_check(proc)) return;
 3139              		.loc 1 851 0
 3140 0148 2046     		mov	r0, r4
 3141 014a FFF7FEFF 		bl	_lv_indev_scroll_throw_handler
 3142              	.LVL340:
 852:Drivers/lvgl/lvgl/src/core/lv_indev.c ****     }
 3143              		.loc 1 852 0
 3144 014e 2046     		mov	r0, r4
 3145 0150 FFF7FEFF 		bl	indev_reset_check
 3146              	.LVL341:
 3147 0154 0028     		cmp	r0, #0
 3148 0156 3FF467AF 		beq	.L261
 3149 015a E0E7     		b	.L256
 3150              	.L277:
 830:Drivers/lvgl/lvgl/src/core/lv_indev.c ****                                                                           &proc->types.pointer.act_
 3151              		.loc 1 830 0 discriminator 1
 3152 015c 2846     		mov	r0, r5
 3153 015e FFF7FEFF 		bl	lv_disp_get_layer_top
 3154              	.LVL342:
 3155 0162 3146     		mov	r1, r6
 3156 0164 FFF7FEFF 		bl	lv_indev_search_obj
 3157              	.LVL343:
 3158 0168 444B     		ldr	r3, .L281
 3159 016a 1860     		str	r0, [r3]
 3160 016c E2E7     		b	.L259
 3161              	.L278:
 832:Drivers/lvgl/lvgl/src/core/lv_indev.c ****                                                                           &proc->types.pointer.act_
 3162              		.loc 1 832 0 discriminator 1
 3163 016e 2846     		mov	r0, r5
 3164 0170 FFF7FEFF 		bl	lv_disp_get_scr_act
 3165              	.LVL344:
ARM GAS  /tmp/ccDoLsau.s 			page 87


 3166 0174 3146     		mov	r1, r6
 3167 0176 FFF7FEFF 		bl	lv_indev_search_obj
 3168              	.LVL345:
 3169 017a 404B     		ldr	r3, .L281
 3170 017c 1860     		str	r0, [r3]
 3171 017e DCE7     		b	.L260
 3172              	.LVL346:
 3173              	.L273:
 838:Drivers/lvgl/lvgl/src/core/lv_indev.c ****         indev_obj_act = lv_indev_search_obj(lv_disp_get_layer_sys(disp), &proc->types.pointer.act_p
 3174              		.loc 1 838 0 discriminator 1
 3175 0180 4FF40051 		mov	r1, #8192
 3176 0184 1846     		mov	r0, r3
 3177              	.LVL347:
 3178 0186 FFF7FEFF 		bl	lv_obj_has_flag
 3179              	.LVL348:
 837:Drivers/lvgl/lvgl/src/core/lv_indev.c ****             lv_obj_has_flag(indev_obj_act, LV_OBJ_FLAG_PRESS_LOCK) == false) {
 3180              		.loc 1 837 0 discriminator 1
 3181 018a 0028     		cmp	r0, #0
 3182 018c 7FF44CAF 		bne	.L261
 839:Drivers/lvgl/lvgl/src/core/lv_indev.c ****         if(indev_obj_act == NULL) indev_obj_act = lv_indev_search_obj(lv_disp_get_layer_top(disp),
 3183              		.loc 1 839 0
 3184 0190 2846     		mov	r0, r5
 3185 0192 FFF7FEFF 		bl	lv_disp_get_layer_sys
 3186              	.LVL349:
 3187 0196 261D     		adds	r6, r4, #4
 3188 0198 3146     		mov	r1, r6
 3189 019a FFF7FEFF 		bl	lv_indev_search_obj
 3190              	.LVL350:
 3191 019e 374B     		ldr	r3, .L281
 3192 01a0 1860     		str	r0, [r3]
 840:Drivers/lvgl/lvgl/src/core/lv_indev.c ****                                                                           &proc->types.pointer.act_
 3193              		.loc 1 840 0
 3194 01a2 60B1     		cbz	r0, .L279
 3195              	.L262:
 842:Drivers/lvgl/lvgl/src/core/lv_indev.c ****                                                                           &proc->types.pointer.act_
 3196              		.loc 1 842 0
 3197 01a4 354B     		ldr	r3, .L281
 3198 01a6 1B68     		ldr	r3, [r3]
 3199 01a8 002B     		cmp	r3, #0
 3200 01aa C6D1     		bne	.L260
 842:Drivers/lvgl/lvgl/src/core/lv_indev.c ****                                                                           &proc->types.pointer.act_
 3201              		.loc 1 842 0 is_stmt 0 discriminator 1
 3202 01ac 2846     		mov	r0, r5
 3203 01ae FFF7FEFF 		bl	lv_disp_get_scr_act
 3204              	.LVL351:
 3205 01b2 3146     		mov	r1, r6
 3206 01b4 FFF7FEFF 		bl	lv_indev_search_obj
 3207              	.LVL352:
 3208 01b8 304B     		ldr	r3, .L281
 3209 01ba 1860     		str	r0, [r3]
 3210 01bc BDE7     		b	.L260
 3211              	.L279:
 840:Drivers/lvgl/lvgl/src/core/lv_indev.c ****                                                                           &proc->types.pointer.act_
 3212              		.loc 1 840 0 is_stmt 1 discriminator 1
 3213 01be 2846     		mov	r0, r5
 3214 01c0 FFF7FEFF 		bl	lv_disp_get_layer_top
 3215              	.LVL353:
ARM GAS  /tmp/ccDoLsau.s 			page 88


 3216 01c4 3146     		mov	r1, r6
 3217 01c6 FFF7FEFF 		bl	lv_indev_search_obj
 3218              	.LVL354:
 3219 01ca 2C4B     		ldr	r3, .L281
 3220 01cc 1860     		str	r0, [r3]
 3221 01ce E9E7     		b	.L262
 3222              	.L274:
 903:Drivers/lvgl/lvgl/src/core/lv_indev.c ****     proc->types.pointer.scroll_throw_vect.y = (proc->types.pointer.scroll_throw_vect.y + proc->type
 3223              		.loc 1 903 0
 3224 01d0 0132     		adds	r2, r2, #1
 3225 01d2 88E7     		b	.L265
 3226              	.L275:
 904:Drivers/lvgl/lvgl/src/core/lv_indev.c **** 
 3227              		.loc 1 904 0
 3228 01d4 0133     		adds	r3, r3, #1
 3229 01d6 8CE7     		b	.L266
 3230              	.L276:
 914:Drivers/lvgl/lvgl/src/core/lv_indev.c ****         if(indev_reset_check(proc)) return;
 3231              		.loc 1 914 0
 3232 01d8 2046     		mov	r0, r4
 3233 01da FFF7FEFF 		bl	_lv_indev_scroll_handler
 3234              	.LVL355:
 915:Drivers/lvgl/lvgl/src/core/lv_indev.c ****         indev_gesture(proc);
 3235              		.loc 1 915 0
 3236 01de 2046     		mov	r0, r4
 3237 01e0 FFF7FEFF 		bl	indev_reset_check
 3238              	.LVL356:
 3239 01e4 0028     		cmp	r0, #0
 3240 01e6 9AD1     		bne	.L256
 916:Drivers/lvgl/lvgl/src/core/lv_indev.c ****         if(indev_reset_check(proc)) return;
 3241              		.loc 1 916 0
 3242 01e8 2046     		mov	r0, r4
 3243 01ea FFF7FEFF 		bl	indev_gesture
 3244              	.LVL357:
 917:Drivers/lvgl/lvgl/src/core/lv_indev.c **** 
 3245              		.loc 1 917 0
 3246 01ee 2046     		mov	r0, r4
 3247 01f0 FFF7FEFF 		bl	indev_reset_check
 3248              	.LVL358:
 3249 01f4 0028     		cmp	r0, #0
 3250 01f6 92D1     		bne	.L256
 920:Drivers/lvgl/lvgl/src/core/lv_indev.c ****             /*Call the ancestor's event handler about the long press if enough time elapsed*/
 3251              		.loc 1 920 0
 3252 01f8 E36A     		ldr	r3, [r4, #44]
 3253 01fa F3B1     		cbz	r3, .L280
 3254              	.L267:
 935:Drivers/lvgl/lvgl/src/core/lv_indev.c ****             /*Call the ancestor's event handler about the long press repeat if enough time elapsed*
 3255              		.loc 1 935 0
 3256 01fc E36A     		ldr	r3, [r4, #44]
 3257 01fe 002B     		cmp	r3, #0
 3258 0200 8DD1     		bne	.L256
 935:Drivers/lvgl/lvgl/src/core/lv_indev.c ****             /*Call the ancestor's event handler about the long press repeat if enough time elapsed*
 3259              		.loc 1 935 0 is_stmt 0 discriminator 1
 3260 0202 6378     		ldrb	r3, [r4, #1]	@ zero_extendqisi2
 3261 0204 13F0010F 		tst	r3, #1
 3262 0208 89D0     		beq	.L256
 937:Drivers/lvgl/lvgl/src/core/lv_indev.c ****                 lv_event_send(indev_obj_act, LV_EVENT_LONG_PRESSED_REPEAT, indev_act);
ARM GAS  /tmp/ccDoLsau.s 			page 89


 3263              		.loc 1 937 0 is_stmt 1
 3264 020a A06C     		ldr	r0, [r4, #72]
 3265 020c FFF7FEFF 		bl	lv_tick_elaps
 3266              	.LVL359:
 3267 0210 1B4B     		ldr	r3, .L281+4
 3268 0212 1A68     		ldr	r2, [r3]
 3269 0214 1368     		ldr	r3, [r2]
 3270 0216 DB8B     		ldrh	r3, [r3, #30]
 3271 0218 9842     		cmp	r0, r3
 3272 021a 80D9     		bls	.L256
 938:Drivers/lvgl/lvgl/src/core/lv_indev.c ****                 if(indev_reset_check(proc)) return;
 3273              		.loc 1 938 0
 3274 021c 0621     		movs	r1, #6
 3275 021e 174B     		ldr	r3, .L281
 3276 0220 1868     		ldr	r0, [r3]
 3277 0222 FFF7FEFF 		bl	lv_event_send
 3278              	.LVL360:
 939:Drivers/lvgl/lvgl/src/core/lv_indev.c ****                 proc->longpr_rep_timestamp = lv_tick_get();
 3279              		.loc 1 939 0
 3280 0226 2046     		mov	r0, r4
 3281 0228 FFF7FEFF 		bl	indev_reset_check
 3282              	.LVL361:
 3283 022c 0028     		cmp	r0, #0
 3284 022e 7FF476AF 		bne	.L256
 940:Drivers/lvgl/lvgl/src/core/lv_indev.c ****             }
 3285              		.loc 1 940 0
 3286 0232 FFF7FEFF 		bl	lv_tick_get
 3287              	.LVL362:
 3288 0236 A064     		str	r0, [r4, #72]
 3289 0238 71E7     		b	.L256
 3290              	.L280:
 920:Drivers/lvgl/lvgl/src/core/lv_indev.c ****             /*Call the ancestor's event handler about the long press if enough time elapsed*/
 3291              		.loc 1 920 0 discriminator 1
 3292 023a 6378     		ldrb	r3, [r4, #1]	@ zero_extendqisi2
 3293 023c 13F0010F 		tst	r3, #1
 3294 0240 DCD1     		bne	.L267
 922:Drivers/lvgl/lvgl/src/core/lv_indev.c ****                 lv_event_send(indev_obj_act, LV_EVENT_LONG_PRESSED, indev_act);
 3295              		.loc 1 922 0
 3296 0242 606C     		ldr	r0, [r4, #68]
 3297 0244 FFF7FEFF 		bl	lv_tick_elaps
 3298              	.LVL363:
 3299 0248 0D4B     		ldr	r3, .L281+4
 3300 024a 1A68     		ldr	r2, [r3]
 3301 024c 1368     		ldr	r3, [r2]
 3302 024e 9B8B     		ldrh	r3, [r3, #28]
 3303 0250 9842     		cmp	r0, r3
 3304 0252 D3D9     		bls	.L267
 923:Drivers/lvgl/lvgl/src/core/lv_indev.c ****                 if(indev_reset_check(proc)) return;
 3305              		.loc 1 923 0
 3306 0254 0521     		movs	r1, #5
 3307 0256 094B     		ldr	r3, .L281
 3308 0258 1868     		ldr	r0, [r3]
 3309 025a FFF7FEFF 		bl	lv_event_send
 3310              	.LVL364:
 924:Drivers/lvgl/lvgl/src/core/lv_indev.c **** 
 3311              		.loc 1 924 0
 3312 025e 2046     		mov	r0, r4
ARM GAS  /tmp/ccDoLsau.s 			page 90


 3313 0260 FFF7FEFF 		bl	indev_reset_check
 3314              	.LVL365:
 3315 0264 0028     		cmp	r0, #0
 3316 0266 7FF45AAF 		bne	.L256
 927:Drivers/lvgl/lvgl/src/core/lv_indev.c **** 
 3317              		.loc 1 927 0
 3318 026a 6378     		ldrb	r3, [r4, #1]	@ zero_extendqisi2
 3319 026c 43F00103 		orr	r3, r3, #1
 3320 0270 6370     		strb	r3, [r4, #1]
 930:Drivers/lvgl/lvgl/src/core/lv_indev.c ****             }
 3321              		.loc 1 930 0
 3322 0272 FFF7FEFF 		bl	lv_tick_get
 3323              	.LVL366:
 3324 0276 A064     		str	r0, [r4, #72]
 3325 0278 C0E7     		b	.L267
 3326              	.LVL367:
 3327              	.L269:
 3328              	.LCFI17:
 3329              		.cfi_def_cfa_offset 0
 3330              		.cfi_restore 4
 3331              		.cfi_restore 5
 3332              		.cfi_restore 6
 3333              		.cfi_restore 14
 3334 027a 7047     		bx	lr
 3335              	.L282:
 3336              		.align	2
 3337              	.L281:
 3338 027c 00000000 		.word	.LANCHOR0
 3339 0280 00000000 		.word	.LANCHOR1
 3340              		.cfi_endproc
 3341              	.LFE188:
 3343              		.section	.text.indev_pointer_proc,"ax",%progbits
 3344              		.align	1
 3345              		.syntax unified
 3346              		.thumb
 3347              		.thumb_func
 3348              		.fpu fpv5-d16
 3350              	indev_pointer_proc:
 3351              	.LFB184:
 341:Drivers/lvgl/lvgl/src/core/lv_indev.c ****     lv_disp_t * disp = i->driver->disp;
 3352              		.loc 1 341 0
 3353              		.cfi_startproc
 3354              		@ args = 0, pretend = 0, frame = 0
 3355              		@ frame_needed = 0, uses_anonymous_args = 0
 3356              	.LVL368:
 3357 0000 38B5     		push	{r3, r4, r5, lr}
 3358              	.LCFI18:
 3359              		.cfi_def_cfa_offset 16
 3360              		.cfi_offset 3, -16
 3361              		.cfi_offset 4, -12
 3362              		.cfi_offset 5, -8
 3363              		.cfi_offset 14, -4
 3364 0002 0446     		mov	r4, r0
 3365 0004 0D46     		mov	r5, r1
 342:Drivers/lvgl/lvgl/src/core/lv_indev.c ****     /*Save the raw points so they can be used again in _lv_indev_read*/
 3366              		.loc 1 342 0
 3367 0006 0368     		ldr	r3, [r0]
ARM GAS  /tmp/ccDoLsau.s 			page 91


 3368 0008 1A69     		ldr	r2, [r3, #16]
 3369              	.LVL369:
 344:Drivers/lvgl/lvgl/src/core/lv_indev.c ****     i->proc.types.pointer.last_raw_point.y = data->point.y;
 3370              		.loc 1 344 0
 3371 000a B1F90030 		ldrsh	r3, [r1]
 3372 000e 8382     		strh	r3, [r0, #20]	@ movhi
 345:Drivers/lvgl/lvgl/src/core/lv_indev.c **** 
 3373              		.loc 1 345 0
 3374 0010 B1F90230 		ldrsh	r3, [r1, #2]
 3375 0014 C382     		strh	r3, [r0, #22]	@ movhi
 347:Drivers/lvgl/lvgl/src/core/lv_indev.c ****         data->point.x = disp->driver->hor_res - data->point.x - 1;
 3376              		.loc 1 347 0
 3377 0016 1168     		ldr	r1, [r2]
 3378              	.LVL370:
 3379 0018 0B7C     		ldrb	r3, [r1, #16]	@ zero_extendqisi2
 3380 001a 03F03003 		and	r3, r3, #48
 3381 001e 302B     		cmp	r3, #48
 3382 0020 18BF     		it	ne
 3383 0022 202B     		cmpne	r3, #32
 3384 0024 0CD1     		bne	.L284
 348:Drivers/lvgl/lvgl/src/core/lv_indev.c ****         data->point.y = disp->driver->ver_res - data->point.y - 1;
 3385              		.loc 1 348 0
 3386 0026 0B88     		ldrh	r3, [r1]
 3387 0028 2988     		ldrh	r1, [r5]
 3388 002a 5B1A     		subs	r3, r3, r1
 3389 002c 9BB2     		uxth	r3, r3
 3390 002e 013B     		subs	r3, r3, #1
 3391 0030 2B80     		strh	r3, [r5]	@ movhi
 349:Drivers/lvgl/lvgl/src/core/lv_indev.c ****     }
 3392              		.loc 1 349 0
 3393 0032 1368     		ldr	r3, [r2]
 3394 0034 5B88     		ldrh	r3, [r3, #2]
 3395 0036 6988     		ldrh	r1, [r5, #2]
 3396 0038 5B1A     		subs	r3, r3, r1
 3397 003a 9BB2     		uxth	r3, r3
 3398 003c 013B     		subs	r3, r3, #1
 3399 003e 6B80     		strh	r3, [r5, #2]	@ movhi
 3400              	.L284:
 351:Drivers/lvgl/lvgl/src/core/lv_indev.c ****         lv_coord_t tmp = data->point.y;
 3401              		.loc 1 351 0
 3402 0040 1368     		ldr	r3, [r2]
 3403 0042 1B7C     		ldrb	r3, [r3, #16]	@ zero_extendqisi2
 3404 0044 03F03003 		and	r3, r3, #48
 3405 0048 302B     		cmp	r3, #48
 3406 004a 18BF     		it	ne
 3407 004c 102B     		cmpne	r3, #16
 3408 004e 0AD1     		bne	.L285
 3409              	.LBB24:
 352:Drivers/lvgl/lvgl/src/core/lv_indev.c ****         data->point.y = data->point.x;
 3410              		.loc 1 352 0
 3411 0050 B5F90210 		ldrsh	r1, [r5, #2]
 3412              	.LVL371:
 353:Drivers/lvgl/lvgl/src/core/lv_indev.c ****         data->point.x = disp->driver->ver_res - tmp - 1;
 3413              		.loc 1 353 0
 3414 0054 B5F90030 		ldrsh	r3, [r5]
 3415 0058 6B80     		strh	r3, [r5, #2]	@ movhi
 354:Drivers/lvgl/lvgl/src/core/lv_indev.c ****     }
ARM GAS  /tmp/ccDoLsau.s 			page 92


 3416              		.loc 1 354 0
 3417 005a 1368     		ldr	r3, [r2]
 3418 005c 5B88     		ldrh	r3, [r3, #2]
 3419 005e 5B1A     		subs	r3, r3, r1
 3420 0060 9BB2     		uxth	r3, r3
 3421 0062 013B     		subs	r3, r3, #1
 3422 0064 2B80     		strh	r3, [r5]	@ movhi
 3423              	.LVL372:
 3424              	.L285:
 3425              	.LBE24:
 361:Drivers/lvgl/lvgl/src/core/lv_indev.c ****         LV_LOG_WARN("X is %d which is greater than hor. res", data->point.x);
 3426              		.loc 1 361 0
 3427 0066 2368     		ldr	r3, [r4]
 3428 0068 1869     		ldr	r0, [r3, #16]
 3429              	.LVL373:
 3430 006a FFF7FEFF 		bl	lv_disp_get_hor_res
 3431              	.LVL374:
 367:Drivers/lvgl/lvgl/src/core/lv_indev.c ****         LV_LOG_WARN("Y is %d which is greater than ver. res", data->point.y);
 3432              		.loc 1 367 0
 3433 006e 2368     		ldr	r3, [r4]
 3434 0070 1869     		ldr	r0, [r3, #16]
 3435 0072 FFF7FEFF 		bl	lv_disp_get_ver_res
 3436              	.LVL375:
 372:Drivers/lvgl/lvgl/src/core/lv_indev.c ****        (i->proc.types.pointer.last_point.x != data->point.x || i->proc.types.pointer.last_point.y !
 3437              		.loc 1 372 0
 3438 0076 206D     		ldr	r0, [r4, #80]
 3439 0078 18B1     		cbz	r0, .L286
 373:Drivers/lvgl/lvgl/src/core/lv_indev.c ****         lv_obj_set_pos(i->cursor, data->point.x, data->point.y);
 3440              		.loc 1 373 0 discriminator 1
 3441 007a 2269     		ldr	r2, [r4, #16]
 3442 007c 2B68     		ldr	r3, [r5]
 372:Drivers/lvgl/lvgl/src/core/lv_indev.c ****        (i->proc.types.pointer.last_point.x != data->point.x || i->proc.types.pointer.last_point.y !
 3443              		.loc 1 372 0 discriminator 1
 3444 007e 9A42     		cmp	r2, r3
 3445 0080 12D1     		bne	.L290
 3446              	.L286:
 377:Drivers/lvgl/lvgl/src/core/lv_indev.c ****     i->proc.types.pointer.act_point.y = data->point.y;
 3447              		.loc 1 377 0
 3448 0082 B5F90030 		ldrsh	r3, [r5]
 3449 0086 2381     		strh	r3, [r4, #8]	@ movhi
 378:Drivers/lvgl/lvgl/src/core/lv_indev.c **** 
 3450              		.loc 1 378 0
 3451 0088 B5F90230 		ldrsh	r3, [r5, #2]
 3452 008c 6381     		strh	r3, [r4, #10]	@ movhi
 380:Drivers/lvgl/lvgl/src/core/lv_indev.c ****         indev_proc_press(&i->proc);
 3453              		.loc 1 380 0
 3454 008e 2379     		ldrb	r3, [r4, #4]	@ zero_extendqisi2
 3455 0090 012B     		cmp	r3, #1
 3456 0092 10D0     		beq	.L291
 384:Drivers/lvgl/lvgl/src/core/lv_indev.c ****     }
 3457              		.loc 1 384 0
 3458 0094 201D     		adds	r0, r4, #4
 3459 0096 FFF7FEFF 		bl	indev_proc_release
 3460              	.LVL376:
 3461              	.L288:
 387:Drivers/lvgl/lvgl/src/core/lv_indev.c ****     i->proc.types.pointer.last_point.y = i->proc.types.pointer.act_point.y;
 3462              		.loc 1 387 0
ARM GAS  /tmp/ccDoLsau.s 			page 93


 3463 009a B4F90830 		ldrsh	r3, [r4, #8]
 3464 009e 2382     		strh	r3, [r4, #16]	@ movhi
 388:Drivers/lvgl/lvgl/src/core/lv_indev.c **** }
 3465              		.loc 1 388 0
 3466 00a0 B4F90A30 		ldrsh	r3, [r4, #10]
 3467 00a4 6382     		strh	r3, [r4, #18]	@ movhi
 389:Drivers/lvgl/lvgl/src/core/lv_indev.c **** 
 3468              		.loc 1 389 0
 3469 00a6 38BD     		pop	{r3, r4, r5, pc}
 3470              	.LVL377:
 3471              	.L290:
 374:Drivers/lvgl/lvgl/src/core/lv_indev.c ****     }
 3472              		.loc 1 374 0
 3473 00a8 B5F90220 		ldrsh	r2, [r5, #2]
 3474 00ac B5F90010 		ldrsh	r1, [r5]
 3475 00b0 FFF7FEFF 		bl	lv_obj_set_pos
 3476              	.LVL378:
 3477 00b4 E5E7     		b	.L286
 3478              	.L291:
 381:Drivers/lvgl/lvgl/src/core/lv_indev.c ****     }
 3479              		.loc 1 381 0
 3480 00b6 201D     		adds	r0, r4, #4
 3481 00b8 FFF7FEFF 		bl	indev_proc_press
 3482              	.LVL379:
 3483 00bc EDE7     		b	.L288
 3484              		.cfi_endproc
 3485              	.LFE184:
 3487              		.section	.text.indev_button_proc,"ax",%progbits
 3488              		.align	1
 3489              		.syntax unified
 3490              		.thumb
 3491              		.thumb_func
 3492              		.fpu fpv5-d16
 3494              	indev_button_proc:
 3495              	.LFB187:
 769:Drivers/lvgl/lvgl/src/core/lv_indev.c ****     /*Die gracefully if i->btn_points is NULL*/
 3496              		.loc 1 769 0
 3497              		.cfi_startproc
 3498              		@ args = 0, pretend = 0, frame = 0
 3499              		@ frame_needed = 0, uses_anonymous_args = 0
 3500              	.LVL380:
 771:Drivers/lvgl/lvgl/src/core/lv_indev.c ****         LV_LOG_WARN("btn_points is NULL");
 3501              		.loc 1 771 0
 3502 0000 836D     		ldr	r3, [r0, #88]
 3503 0002 BBB3     		cbz	r3, .L299
 769:Drivers/lvgl/lvgl/src/core/lv_indev.c ****     /*Die gracefully if i->btn_points is NULL*/
 3504              		.loc 1 769 0
 3505 0004 2DE9F041 		push	{r4, r5, r6, r7, r8, lr}
 3506              	.LCFI19:
 3507              		.cfi_def_cfa_offset 24
 3508              		.cfi_offset 4, -24
 3509              		.cfi_offset 5, -20
 3510              		.cfi_offset 6, -16
 3511              		.cfi_offset 7, -12
 3512              		.cfi_offset 8, -8
 3513              		.cfi_offset 14, -4
 3514 0008 0D46     		mov	r5, r1
ARM GAS  /tmp/ccDoLsau.s 			page 94


 3515 000a 0446     		mov	r4, r0
 776:Drivers/lvgl/lvgl/src/core/lv_indev.c ****     lv_coord_t y = i->btn_points[data->btn_id].y;
 3516              		.loc 1 776 0
 3517 000c 8A68     		ldr	r2, [r1, #8]
 3518 000e 03EB8201 		add	r1, r3, r2, lsl #2
 3519              	.LVL381:
 3520 0012 33F92270 		ldrsh	r7, [r3, r2, lsl #2]
 3521              	.LVL382:
 777:Drivers/lvgl/lvgl/src/core/lv_indev.c **** 
 3522              		.loc 1 777 0
 3523 0016 B1F90280 		ldrsh	r8, [r1, #2]
 3524              	.LVL383:
 780:Drivers/lvgl/lvgl/src/core/lv_indev.c ****         if(data->state == LV_INDEV_STATE_PRESSED) {
 3525              		.loc 1 780 0
 3526 001a AB7B     		ldrb	r3, [r5, #14]	@ zero_extendqisi2
 790:Drivers/lvgl/lvgl/src/core/lv_indev.c ****         if(i->proc.types.pointer.last_point.x != x ||
 3527              		.loc 1 790 0
 3528 001c 012B     		cmp	r3, #1
 3529 001e 19D0     		beq	.L302
 3530              	.LVL384:
 3531              	.L294:
 797:Drivers/lvgl/lvgl/src/core/lv_indev.c **** 
 3532              		.loc 1 797 0
 3533 0020 261D     		adds	r6, r4, #4
 3534 0022 3046     		mov	r0, r6
 3535 0024 FFF7FEFF 		bl	indev_reset_check
 3536              	.LVL385:
 3537 0028 90B9     		cbnz	r0, .L292
 800:Drivers/lvgl/lvgl/src/core/lv_indev.c ****     i->proc.types.pointer.act_point.y = y;
 3538              		.loc 1 800 0
 3539 002a 2781     		strh	r7, [r4, #8]	@ movhi
 801:Drivers/lvgl/lvgl/src/core/lv_indev.c **** 
 3540              		.loc 1 801 0
 3541 002c A4F80A80 		strh	r8, [r4, #10]	@ movhi
 803:Drivers/lvgl/lvgl/src/core/lv_indev.c ****     else indev_proc_release(&i->proc);
 3542              		.loc 1 803 0
 3543 0030 AB7B     		ldrb	r3, [r5, #14]	@ zero_extendqisi2
 3544 0032 012B     		cmp	r3, #1
 3545 0034 1AD0     		beq	.L303
 804:Drivers/lvgl/lvgl/src/core/lv_indev.c **** 
 3546              		.loc 1 804 0
 3547 0036 3046     		mov	r0, r6
 3548 0038 FFF7FEFF 		bl	indev_proc_release
 3549              	.LVL386:
 3550              	.L297:
 806:Drivers/lvgl/lvgl/src/core/lv_indev.c **** 
 3551              		.loc 1 806 0
 3552 003c 3046     		mov	r0, r6
 3553 003e FFF7FEFF 		bl	indev_reset_check
 3554              	.LVL387:
 3555 0042 28B9     		cbnz	r0, .L292
 808:Drivers/lvgl/lvgl/src/core/lv_indev.c ****     i->proc.types.pointer.last_point.y = i->proc.types.pointer.act_point.y;
 3556              		.loc 1 808 0
 3557 0044 B4F90830 		ldrsh	r3, [r4, #8]
 3558 0048 2382     		strh	r3, [r4, #16]	@ movhi
 809:Drivers/lvgl/lvgl/src/core/lv_indev.c **** }
 3559              		.loc 1 809 0
ARM GAS  /tmp/ccDoLsau.s 			page 95


 3560 004a B4F90A30 		ldrsh	r3, [r4, #10]
 3561 004e 6382     		strh	r3, [r4, #18]	@ movhi
 3562              	.L292:
 810:Drivers/lvgl/lvgl/src/core/lv_indev.c **** 
 3563              		.loc 1 810 0
 3564 0050 BDE8F081 		pop	{r4, r5, r6, r7, r8, pc}
 3565              	.LVL388:
 3566              	.L302:
 791:Drivers/lvgl/lvgl/src/core/lv_indev.c ****            i->proc.types.pointer.last_point.y != y) {
 3567              		.loc 1 791 0
 3568 0054 B0F91030 		ldrsh	r3, [r0, #16]
 3569 0058 BB42     		cmp	r3, r7
 3570 005a 03D1     		bne	.L295
 792:Drivers/lvgl/lvgl/src/core/lv_indev.c ****             indev_proc_release(&i->proc);
 3571              		.loc 1 792 0 discriminator 1
 3572 005c B0F91230 		ldrsh	r3, [r0, #18]
 791:Drivers/lvgl/lvgl/src/core/lv_indev.c ****            i->proc.types.pointer.last_point.y != y) {
 3573              		.loc 1 791 0 discriminator 1
 3574 0060 4345     		cmp	r3, r8
 3575 0062 DDD0     		beq	.L294
 3576              	.L295:
 793:Drivers/lvgl/lvgl/src/core/lv_indev.c ****         }
 3577              		.loc 1 793 0
 3578 0064 201D     		adds	r0, r4, #4
 3579              	.LVL389:
 3580 0066 FFF7FEFF 		bl	indev_proc_release
 3581              	.LVL390:
 3582 006a D9E7     		b	.L294
 3583              	.L303:
 803:Drivers/lvgl/lvgl/src/core/lv_indev.c ****     else indev_proc_release(&i->proc);
 3584              		.loc 1 803 0 discriminator 1
 3585 006c 3046     		mov	r0, r6
 3586 006e FFF7FEFF 		bl	indev_proc_press
 3587              	.LVL391:
 3588 0072 E3E7     		b	.L297
 3589              	.LVL392:
 3590              	.L299:
 3591              	.LCFI20:
 3592              		.cfi_def_cfa_offset 0
 3593              		.cfi_restore 4
 3594              		.cfi_restore 5
 3595              		.cfi_restore 6
 3596              		.cfi_restore 7
 3597              		.cfi_restore 8
 3598              		.cfi_restore 14
 3599 0074 7047     		bx	lr
 3600              		.cfi_endproc
 3601              	.LFE187:
 3603              		.section	.text.lv_indev_read_timer_cb,"ax",%progbits
 3604              		.align	1
 3605              		.global	lv_indev_read_timer_cb
 3606              		.syntax unified
 3607              		.thumb
 3608              		.thumb_func
 3609              		.fpu fpv5-d16
 3611              	lv_indev_read_timer_cb:
 3612              	.LFB165:
ARM GAS  /tmp/ccDoLsau.s 			page 96


  65:Drivers/lvgl/lvgl/src/core/lv_indev.c ****     INDEV_TRACE("begin");
 3613              		.loc 1 65 0
 3614              		.cfi_startproc
 3615              		@ args = 0, pretend = 0, frame = 16
 3616              		@ frame_needed = 0, uses_anonymous_args = 0
 3617              	.LVL393:
  70:Drivers/lvgl/lvgl/src/core/lv_indev.c **** 
 3618              		.loc 1 70 0
 3619 0000 C068     		ldr	r0, [r0, #12]
 3620              	.LVL394:
 3621 0002 324B     		ldr	r3, .L324
 3622 0004 1860     		str	r0, [r3]
  73:Drivers/lvgl/lvgl/src/core/lv_indev.c **** 
 3623              		.loc 1 73 0
 3624 0006 0368     		ldr	r3, [r0]
 3625 0008 1B69     		ldr	r3, [r3, #16]
 3626 000a 002B     		cmp	r3, #0
 3627 000c 5CD0     		beq	.L315
  65:Drivers/lvgl/lvgl/src/core/lv_indev.c ****     INDEV_TRACE("begin");
 3628              		.loc 1 65 0
 3629 000e 30B5     		push	{r4, r5, lr}
 3630              	.LCFI21:
 3631              		.cfi_def_cfa_offset 12
 3632              		.cfi_offset 4, -12
 3633              		.cfi_offset 5, -8
 3634              		.cfi_offset 14, -4
 3635 0010 85B0     		sub	sp, sp, #20
 3636              	.LCFI22:
 3637              		.cfi_def_cfa_offset 32
  76:Drivers/lvgl/lvgl/src/core/lv_indev.c **** 
 3638              		.loc 1 76 0
 3639 0012 FFF7FEFF 		bl	indev_proc_reset_query_handler
 3640              	.LVL395:
  78:Drivers/lvgl/lvgl/src/core/lv_indev.c ****        indev_act->driver->disp->prev_scr != NULL) return; /*Input disabled or screen animation acti
 3641              		.loc 1 78 0
 3642 0016 2D4B     		ldr	r3, .L324
 3643 0018 1B68     		ldr	r3, [r3]
 3644 001a 5A79     		ldrb	r2, [r3, #5]	@ zero_extendqisi2
 3645 001c 12F0040F 		tst	r2, #4
 3646 0020 03D1     		bne	.L304
  79:Drivers/lvgl/lvgl/src/core/lv_indev.c ****     bool continue_reading;
 3647              		.loc 1 79 0 discriminator 1
 3648 0022 1B68     		ldr	r3, [r3]
 3649 0024 1B69     		ldr	r3, [r3, #16]
 3650 0026 5B69     		ldr	r3, [r3, #20]
  78:Drivers/lvgl/lvgl/src/core/lv_indev.c ****        indev_act->driver->disp->prev_scr != NULL) return; /*Input disabled or screen animation acti
 3651              		.loc 1 78 0 discriminator 1
 3652 0028 CBB1     		cbz	r3, .L312
 3653              	.L304:
 121:Drivers/lvgl/lvgl/src/core/lv_indev.c **** 
 3654              		.loc 1 121 0
 3655 002a 05B0     		add	sp, sp, #20
 3656              	.LCFI23:
 3657              		.cfi_remember_state
 3658              		.cfi_def_cfa_offset 12
 3659              		@ sp needed
 3660 002c 30BD     		pop	{r4, r5, pc}
ARM GAS  /tmp/ccDoLsau.s 			page 97


 3661              	.LVL396:
 3662              	.L319:
 3663              	.LCFI24:
 3664              		.cfi_restore_state
  94:Drivers/lvgl/lvgl/src/core/lv_indev.c ****         }
 3665              		.loc 1 94 0
 3666 002e 1B68     		ldr	r3, [r3]
 3667 0030 1C69     		ldr	r4, [r3, #16]
 3668 0032 FFF7FEFF 		bl	lv_tick_get
 3669              	.LVL397:
 3670 0036 C4F85801 		str	r0, [r4, #344]
 3671 003a 27E0     		b	.L307
 3672              	.L320:
  96:Drivers/lvgl/lvgl/src/core/lv_indev.c ****             indev_act->driver->disp->last_activity_time = lv_tick_get();
 3673              		.loc 1 96 0 discriminator 1
 3674 003c BDF90C20 		ldrsh	r2, [sp, #12]
 3675 0040 22B3     		cbz	r2, .L307
  97:Drivers/lvgl/lvgl/src/core/lv_indev.c ****         }
 3676              		.loc 1 97 0
 3677 0042 1C69     		ldr	r4, [r3, #16]
 3678 0044 FFF7FEFF 		bl	lv_tick_get
 3679              	.LVL398:
 3680 0048 C4F85801 		str	r0, [r4, #344]
 3681 004c 1EE0     		b	.L307
 3682              	.L321:
 101:Drivers/lvgl/lvgl/src/core/lv_indev.c ****         }
 3683              		.loc 1 101 0
 3684 004e 6946     		mov	r1, sp
 3685 0050 FFF7FEFF 		bl	indev_pointer_proc
 3686              	.LVL399:
 3687              	.L309:
 113:Drivers/lvgl/lvgl/src/core/lv_indev.c ****     } while(continue_reading);
 3688              		.loc 1 113 0
 3689 0054 1D4B     		ldr	r3, .L324
 3690 0056 1868     		ldr	r0, [r3]
 3691 0058 FFF7FEFF 		bl	indev_proc_reset_query_handler
 3692              	.LVL400:
 114:Drivers/lvgl/lvgl/src/core/lv_indev.c **** 
 3693              		.loc 1 114 0
 3694 005c 75B3     		cbz	r5, .L318
 3695              	.LVL401:
 3696              	.L312:
  83:Drivers/lvgl/lvgl/src/core/lv_indev.c ****         continue_reading = data.continue_reading;
 3697              		.loc 1 83 0
 3698 005e 1B4C     		ldr	r4, .L324
 3699 0060 6946     		mov	r1, sp
 3700 0062 2068     		ldr	r0, [r4]
 3701 0064 FFF7FEFF 		bl	_lv_indev_read
 3702              	.LVL402:
  84:Drivers/lvgl/lvgl/src/core/lv_indev.c **** 
 3703              		.loc 1 84 0
 3704 0068 9DF80F50 		ldrb	r5, [sp, #15]	@ zero_extendqisi2
 3705              	.LVL403:
  87:Drivers/lvgl/lvgl/src/core/lv_indev.c ****         indev_obj_act = NULL;
 3706              		.loc 1 87 0
 3707 006c 2068     		ldr	r0, [r4]
 3708 006e FFF7FEFF 		bl	indev_proc_reset_query_handler
ARM GAS  /tmp/ccDoLsau.s 			page 98


 3709              	.LVL404:
  88:Drivers/lvgl/lvgl/src/core/lv_indev.c **** 
 3710              		.loc 1 88 0
 3711 0072 174B     		ldr	r3, .L324+4
 3712 0074 0022     		movs	r2, #0
 3713 0076 1A60     		str	r2, [r3]
  90:Drivers/lvgl/lvgl/src/core/lv_indev.c **** 
 3714              		.loc 1 90 0
 3715 0078 2368     		ldr	r3, [r4]
 3716 007a 9DF80E20 		ldrb	r2, [sp, #14]	@ zero_extendqisi2
 3717 007e 1A71     		strb	r2, [r3, #4]
  93:Drivers/lvgl/lvgl/src/core/lv_indev.c ****             indev_act->driver->disp->last_activity_time = lv_tick_get();
 3718              		.loc 1 93 0
 3719 0080 012A     		cmp	r2, #1
 3720 0082 D4D0     		beq	.L319
  96:Drivers/lvgl/lvgl/src/core/lv_indev.c ****             indev_act->driver->disp->last_activity_time = lv_tick_get();
 3721              		.loc 1 96 0
 3722 0084 1B68     		ldr	r3, [r3]
 3723 0086 1A78     		ldrb	r2, [r3]	@ zero_extendqisi2
 3724 0088 042A     		cmp	r2, #4
 3725 008a D7D0     		beq	.L320
 3726              	.L307:
 100:Drivers/lvgl/lvgl/src/core/lv_indev.c ****             indev_pointer_proc(indev_act, &data);
 3727              		.loc 1 100 0
 3728 008c 0F4B     		ldr	r3, .L324
 3729 008e 1868     		ldr	r0, [r3]
 3730 0090 0368     		ldr	r3, [r0]
 3731 0092 1B78     		ldrb	r3, [r3]	@ zero_extendqisi2
 3732 0094 012B     		cmp	r3, #1
 3733 0096 DAD0     		beq	.L321
 103:Drivers/lvgl/lvgl/src/core/lv_indev.c ****             indev_keypad_proc(indev_act, &data);
 3734              		.loc 1 103 0
 3735 0098 022B     		cmp	r3, #2
 3736 009a 07D0     		beq	.L322
 106:Drivers/lvgl/lvgl/src/core/lv_indev.c ****             indev_encoder_proc(indev_act, &data);
 3737              		.loc 1 106 0
 3738 009c 042B     		cmp	r3, #4
 3739 009e 09D0     		beq	.L323
 109:Drivers/lvgl/lvgl/src/core/lv_indev.c ****             indev_button_proc(indev_act, &data);
 3740              		.loc 1 109 0
 3741 00a0 032B     		cmp	r3, #3
 3742 00a2 D7D1     		bne	.L309
 110:Drivers/lvgl/lvgl/src/core/lv_indev.c ****         }
 3743              		.loc 1 110 0
 3744 00a4 6946     		mov	r1, sp
 3745 00a6 FFF7FEFF 		bl	indev_button_proc
 3746              	.LVL405:
 3747 00aa D3E7     		b	.L309
 3748              	.L322:
 104:Drivers/lvgl/lvgl/src/core/lv_indev.c ****         }
 3749              		.loc 1 104 0
 3750 00ac 6946     		mov	r1, sp
 3751 00ae FFF7FEFF 		bl	indev_keypad_proc
 3752              	.LVL406:
 3753 00b2 CFE7     		b	.L309
 3754              	.L323:
 107:Drivers/lvgl/lvgl/src/core/lv_indev.c ****         }
ARM GAS  /tmp/ccDoLsau.s 			page 99


 3755              		.loc 1 107 0
 3756 00b4 6946     		mov	r1, sp
 3757 00b6 FFF7FEFF 		bl	indev_encoder_proc
 3758              	.LVL407:
 3759 00ba CBE7     		b	.L309
 3760              	.L318:
 117:Drivers/lvgl/lvgl/src/core/lv_indev.c ****     indev_obj_act = NULL;
 3761              		.loc 1 117 0
 3762 00bc 0023     		movs	r3, #0
 3763 00be 034A     		ldr	r2, .L324
 3764 00c0 1360     		str	r3, [r2]
 118:Drivers/lvgl/lvgl/src/core/lv_indev.c **** 
 3765              		.loc 1 118 0
 3766 00c2 034A     		ldr	r2, .L324+4
 3767 00c4 1360     		str	r3, [r2]
 3768 00c6 B0E7     		b	.L304
 3769              	.LVL408:
 3770              	.L315:
 3771              	.LCFI25:
 3772              		.cfi_def_cfa_offset 0
 3773              		.cfi_restore 4
 3774              		.cfi_restore 5
 3775              		.cfi_restore 14
 3776 00c8 7047     		bx	lr
 3777              	.L325:
 3778 00ca 00BF     		.align	2
 3779              	.L324:
 3780 00cc 00000000 		.word	.LANCHOR1
 3781 00d0 00000000 		.word	.LANCHOR0
 3782              		.cfi_endproc
 3783              	.LFE165:
 3785              		.section	.bss.indev_act,"aw",%nobits
 3786              		.align	2
 3787              		.set	.LANCHOR1,. + 0
 3790              	indev_act:
 3791 0000 00000000 		.space	4
 3792              		.section	.bss.indev_obj_act,"aw",%nobits
 3793              		.align	2
 3794              		.set	.LANCHOR0,. + 0
 3797              	indev_obj_act:
 3798 0000 00000000 		.space	4
 3799              		.text
 3800              	.Letext0:
 3801              		.file 3 "/opt/gcc-arm-none-eabi-7-2017-q4-major/arm-none-eabi/include/machine/_default_types.h"
 3802              		.file 4 "/opt/gcc-arm-none-eabi-7-2017-q4-major/arm-none-eabi/include/sys/_stdint.h"
 3803              		.file 5 "/opt/gcc-arm-none-eabi-7-2017-q4-major/lib/gcc/arm-none-eabi/7.2.1/include/stddef.h"
 3804              		.file 6 "Drivers/lvgl/lvgl/src/core/../misc/../font/../misc/lv_area.h"
 3805              		.file 7 "Drivers/lvgl/lvgl/src/core/../misc/../font/lv_font.h"
 3806              		.file 8 "Drivers/lvgl/lvgl/src/core/../misc/lv_types.h"
 3807              		.file 9 "/opt/gcc-arm-none-eabi-7-2017-q4-major/arm-none-eabi/include/sys/lock.h"
 3808              		.file 10 "/opt/gcc-arm-none-eabi-7-2017-q4-major/arm-none-eabi/include/sys/_types.h"
 3809              		.file 11 "/opt/gcc-arm-none-eabi-7-2017-q4-major/arm-none-eabi/include/sys/reent.h"
 3810              		.file 12 "Drivers/lvgl/lvgl/src/core/../misc/lv_color.h"
 3811              		.file 13 "Drivers/lvgl/lvgl/src/core/../misc/lv_txt.h"
 3812              		.file 14 "Drivers/lvgl/lvgl/src/core/../misc/lv_bidi.h"
 3813              		.file 15 "Drivers/lvgl/lvgl/src/core/../misc/lv_style.h"
 3814              		.file 16 "Drivers/lvgl/lvgl/src/core/../hal/../draw/lv_img_buf.h"
ARM GAS  /tmp/ccDoLsau.s 			page 100


 3815              		.file 17 "Drivers/lvgl/lvgl/src/core/lv_obj.h"
 3816              		.file 18 "Drivers/lvgl/lvgl/src/core/../hal/../draw/lv_draw_rect.h"
 3817              		.file 19 "Drivers/lvgl/lvgl/src/core/../hal/../draw/lv_draw_label.h"
 3818              		.file 20 "Drivers/lvgl/lvgl/src/core/../hal/../draw/lv_draw_img.h"
 3819              		.file 21 "Drivers/lvgl/lvgl/src/core/../hal/../draw/lv_draw_line.h"
 3820              		.file 22 "Drivers/lvgl/lvgl/src/core/../hal/../draw/lv_draw_arc.h"
 3821              		.file 23 "Drivers/lvgl/lvgl/src/core/../hal/../draw/lv_draw_layer.h"
 3822              		.file 24 "Drivers/lvgl/lvgl/src/core/../hal/../draw/lv_draw.h"
 3823              		.file 25 "Drivers/lvgl/lvgl/src/core/../hal/../misc/lv_ll.h"
 3824              		.file 26 "Drivers/lvgl/lvgl/src/core/../hal/../misc/lv_timer.h"
 3825              		.file 27 "Drivers/lvgl/lvgl/src/core/../hal/lv_hal_disp.h"
 3826              		.file 28 "Drivers/lvgl/lvgl/src/core/lv_theme.h"
 3827              		.file 29 "Drivers/lvgl/lvgl/src/core/../hal/lv_hal_indev.h"
 3828              		.file 30 "Drivers/lvgl/lvgl/src/core/lv_group.h"
 3829              		.file 31 "Drivers/lvgl/lvgl/src/core/lv_obj_scroll.h"
 3830              		.file 32 "Drivers/lvgl/lvgl/src/core/lv_obj_style.h"
 3831              		.file 33 "Drivers/lvgl/lvgl/src/core/lv_obj_class.h"
 3832              		.file 34 "Drivers/lvgl/lvgl/src/core/lv_event.h"
 3833              		.file 35 "Drivers/lvgl/lvgl/src/core/lv_obj_tree.h"
 3834              		.file 36 "Drivers/lvgl/lvgl/src/core/lv_indev_scroll.h"
 3835              		.file 37 "Drivers/lvgl/lvgl/src/core/../hal/../misc/../hal/lv_hal_tick.h"
 3836              		.file 38 "Drivers/lvgl/lvgl/src/core/lv_disp.h"
 3837              		.file 39 "Drivers/lvgl/lvgl/src/core/../hal/../draw/sw/../../core/lv_obj_pos.h"
ARM GAS  /tmp/ccDoLsau.s 			page 101


DEFINED SYMBOLS
                            *ABS*:0000000000000000 lv_indev.c
     /tmp/ccDoLsau.s:17     .text.indev_proc_reset_query_handler:0000000000000000 $t
     /tmp/ccDoLsau.s:23     .text.indev_proc_reset_query_handler:0000000000000000 indev_proc_reset_query_handler
     /tmp/ccDoLsau.s:78     .text.indev_proc_reset_query_handler:0000000000000044 $d
     /tmp/ccDoLsau.s:83     .text.indev_reset_check:0000000000000000 $t
     /tmp/ccDoLsau.s:89     .text.indev_reset_check:0000000000000000 indev_reset_check
     /tmp/ccDoLsau.s:113    .text.indev_reset_check:0000000000000014 $d
     /tmp/ccDoLsau.s:118    .text.indev_click_focus:0000000000000000 $t
     /tmp/ccDoLsau.s:124    .text.indev_click_focus:0000000000000000 indev_click_focus
     /tmp/ccDoLsau.s:329    .text.indev_click_focus:0000000000000104 $d
     /tmp/ccDoLsau.s:335    .text.indev_gesture:0000000000000000 $t
     /tmp/ccDoLsau.s:341    .text.indev_gesture:0000000000000000 indev_gesture
     /tmp/ccDoLsau.s:502    .text.indev_gesture:0000000000000100 $d
     /tmp/ccDoLsau.s:507    .text.indev_proc_release:0000000000000000 $t
     /tmp/ccDoLsau.s:513    .text.indev_proc_release:0000000000000000 indev_proc_release
     /tmp/ccDoLsau.s:771    .text.indev_proc_release:0000000000000140 $d
     /tmp/ccDoLsau.s:778    .text.indev_keypad_proc:0000000000000000 $t
     /tmp/ccDoLsau.s:784    .text.indev_keypad_proc:0000000000000000 indev_keypad_proc
     /tmp/ccDoLsau.s:1250   .text.indev_keypad_proc:000000000000029c $d
     /tmp/ccDoLsau.s:1256   .text.indev_encoder_proc:0000000000000000 $t
     /tmp/ccDoLsau.s:1262   .text.indev_encoder_proc:0000000000000000 indev_encoder_proc
     /tmp/ccDoLsau.s:1773   .text.indev_encoder_proc:00000000000002d0 $d
     /tmp/ccDoLsau.s:1778   .text.indev_encoder_proc:00000000000002d8 $t
     /tmp/ccDoLsau.s:1996   .text.indev_encoder_proc:0000000000000430 $d
     /tmp/ccDoLsau.s:2003   .text.lv_indev_enable:0000000000000000 $t
     /tmp/ccDoLsau.s:2010   .text.lv_indev_enable:0000000000000000 lv_indev_enable
     /tmp/ccDoLsau.s:2063   .text.lv_indev_get_act:0000000000000000 $t
     /tmp/ccDoLsau.s:2070   .text.lv_indev_get_act:0000000000000000 lv_indev_get_act
     /tmp/ccDoLsau.s:2084   .text.lv_indev_get_act:0000000000000008 $d
     /tmp/ccDoLsau.s:2089   .text.lv_indev_get_type:0000000000000000 $t
     /tmp/ccDoLsau.s:2096   .text.lv_indev_get_type:0000000000000000 lv_indev_get_type
     /tmp/ccDoLsau.s:2122   .text.lv_indev_reset:0000000000000000 $t
     /tmp/ccDoLsau.s:2129   .text.lv_indev_reset:0000000000000000 lv_indev_reset
     /tmp/ccDoLsau.s:2282   .text.lv_indev_reset:00000000000000a8 $d
     /tmp/ccDoLsau.s:2288   .text.lv_indev_reset_long_press:0000000000000000 $t
     /tmp/ccDoLsau.s:2295   .text.lv_indev_reset_long_press:0000000000000000 lv_indev_reset_long_press
     /tmp/ccDoLsau.s:2326   .text.lv_indev_set_cursor:0000000000000000 $t
     /tmp/ccDoLsau.s:2333   .text.lv_indev_set_cursor:0000000000000000 lv_indev_set_cursor
     /tmp/ccDoLsau.s:2392   .text.lv_indev_set_group:0000000000000000 $t
     /tmp/ccDoLsau.s:2399   .text.lv_indev_set_group:0000000000000000 lv_indev_set_group
     /tmp/ccDoLsau.s:2423   .text.lv_indev_set_button_points:0000000000000000 $t
     /tmp/ccDoLsau.s:2430   .text.lv_indev_set_button_points:0000000000000000 lv_indev_set_button_points
     /tmp/ccDoLsau.s:2455   .text.lv_indev_get_point:0000000000000000 $t
     /tmp/ccDoLsau.s:2462   .text.lv_indev_get_point:0000000000000000 lv_indev_get_point
     /tmp/ccDoLsau.s:2506   .text.lv_indev_get_gesture_dir:0000000000000000 $t
     /tmp/ccDoLsau.s:2513   .text.lv_indev_get_gesture_dir:0000000000000000 lv_indev_get_gesture_dir
     /tmp/ccDoLsau.s:2531   .text.lv_indev_get_key:0000000000000000 $t
     /tmp/ccDoLsau.s:2538   .text.lv_indev_get_key:0000000000000000 lv_indev_get_key
     /tmp/ccDoLsau.s:2566   .text.lv_indev_get_scroll_dir:0000000000000000 $t
     /tmp/ccDoLsau.s:2573   .text.lv_indev_get_scroll_dir:0000000000000000 lv_indev_get_scroll_dir
     /tmp/ccDoLsau.s:2612   .text.lv_indev_get_scroll_obj:0000000000000000 $t
     /tmp/ccDoLsau.s:2619   .text.lv_indev_get_scroll_obj:0000000000000000 lv_indev_get_scroll_obj
     /tmp/ccDoLsau.s:2657   .text.lv_indev_get_vect:0000000000000000 $t
     /tmp/ccDoLsau.s:2664   .text.lv_indev_get_vect:0000000000000000 lv_indev_get_vect
     /tmp/ccDoLsau.s:2699   .text.lv_indev_wait_release:0000000000000000 $t
     /tmp/ccDoLsau.s:2706   .text.lv_indev_wait_release:0000000000000000 lv_indev_wait_release
ARM GAS  /tmp/ccDoLsau.s 			page 102


     /tmp/ccDoLsau.s:2727   .text.lv_indev_get_obj_act:0000000000000000 $t
     /tmp/ccDoLsau.s:2734   .text.lv_indev_get_obj_act:0000000000000000 lv_indev_get_obj_act
     /tmp/ccDoLsau.s:2748   .text.lv_indev_get_obj_act:0000000000000008 $d
     /tmp/ccDoLsau.s:2753   .text.lv_indev_get_read_timer:0000000000000000 $t
     /tmp/ccDoLsau.s:2760   .text.lv_indev_get_read_timer:0000000000000000 lv_indev_get_read_timer
     /tmp/ccDoLsau.s:2785   .text.lv_indev_search_obj:0000000000000000 $t
     /tmp/ccDoLsau.s:2792   .text.lv_indev_search_obj:0000000000000000 lv_indev_search_obj
     /tmp/ccDoLsau.s:2911   .text.indev_proc_press:0000000000000000 $t
     /tmp/ccDoLsau.s:2917   .text.indev_proc_press:0000000000000000 indev_proc_press
     /tmp/ccDoLsau.s:3338   .text.indev_proc_press:000000000000027c $d
     /tmp/ccDoLsau.s:3344   .text.indev_pointer_proc:0000000000000000 $t
     /tmp/ccDoLsau.s:3350   .text.indev_pointer_proc:0000000000000000 indev_pointer_proc
     /tmp/ccDoLsau.s:3488   .text.indev_button_proc:0000000000000000 $t
     /tmp/ccDoLsau.s:3494   .text.indev_button_proc:0000000000000000 indev_button_proc
     /tmp/ccDoLsau.s:3604   .text.lv_indev_read_timer_cb:0000000000000000 $t
     /tmp/ccDoLsau.s:3611   .text.lv_indev_read_timer_cb:0000000000000000 lv_indev_read_timer_cb
     /tmp/ccDoLsau.s:3780   .text.lv_indev_read_timer_cb:00000000000000cc $d
     /tmp/ccDoLsau.s:3786   .bss.indev_act:0000000000000000 $d
     /tmp/ccDoLsau.s:3790   .bss.indev_act:0000000000000000 indev_act
     /tmp/ccDoLsau.s:3793   .bss.indev_obj_act:0000000000000000 $d
     /tmp/ccDoLsau.s:3797   .bss.indev_obj_act:0000000000000000 indev_obj_act

UNDEFINED SYMBOLS
lv_obj_has_flag
lv_obj_get_group
lv_event_send
lv_group_focus_obj
lv_obj_get_parent
lv_obj_get_style_prop
_lv_indev_scroll_throw_handler
lv_point_transform
lv_group_get_focused
lv_obj_has_state
lv_tick_get
lv_group_send_data
lv_group_set_editing
lv_group_focus_next
lv_group_focus_prev
lv_tick_elaps
lv_obj_is_editable
lv_group_get_editing
lv_group_get_obj_count
lv_obj_clear_state
lv_indev_get_next
lv_disp_get_layer_sys
lv_obj_set_parent
lv_obj_set_pos
lv_obj_clear_flag
lv_obj_add_flag
lv_obj_transform_point
lv_obj_hit_test
_lv_area_is_point_on
lv_obj_get_child_cnt
lv_disp_get_layer_top
lv_disp_get_scr_act
_lv_indev_scroll_handler
lv_disp_get_hor_res
ARM GAS  /tmp/ccDoLsau.s 			page 103


lv_disp_get_ver_res
_lv_indev_read
