ARM GAS  /tmp/ccJyF0Mv.s 			page 1


   1              		.cpu cortex-m7
   2              		.eabi_attribute 28, 1
   3              		.eabi_attribute 20, 1
   4              		.eabi_attribute 21, 1
   5              		.eabi_attribute 23, 3
   6              		.eabi_attribute 24, 1
   7              		.eabi_attribute 25, 1
   8              		.eabi_attribute 26, 1
   9              		.eabi_attribute 30, 1
  10              		.eabi_attribute 34, 1
  11              		.eabi_attribute 18, 4
  12              		.file	"lv_imgbtn.c"
  13              		.text
  14              	.Ltext0:
  15              		.cfi_sections	.debug_frame
  16              		.section	.text.suggest_state,"ax",%progbits
  17              		.align	1
  18              		.syntax unified
  19              		.thumb
  20              		.thumb_func
  21              		.fpu fpv5-d16
  23              	suggest_state:
  24              	.LFB212:
  25              		.file 1 "Drivers/lvgl/lvgl/src/extra/widgets/imgbtn/lv_imgbtn.c"
   1:Drivers/lvgl/lvgl/src/extra/widgets/imgbtn/lv_imgbtn.c **** /**
   2:Drivers/lvgl/lvgl/src/extra/widgets/imgbtn/lv_imgbtn.c ****  * @file lv_imgbtn.c
   3:Drivers/lvgl/lvgl/src/extra/widgets/imgbtn/lv_imgbtn.c ****  *
   4:Drivers/lvgl/lvgl/src/extra/widgets/imgbtn/lv_imgbtn.c ****  */
   5:Drivers/lvgl/lvgl/src/extra/widgets/imgbtn/lv_imgbtn.c **** 
   6:Drivers/lvgl/lvgl/src/extra/widgets/imgbtn/lv_imgbtn.c **** /*********************
   7:Drivers/lvgl/lvgl/src/extra/widgets/imgbtn/lv_imgbtn.c ****  *      INCLUDES
   8:Drivers/lvgl/lvgl/src/extra/widgets/imgbtn/lv_imgbtn.c ****  *********************/
   9:Drivers/lvgl/lvgl/src/extra/widgets/imgbtn/lv_imgbtn.c **** 
  10:Drivers/lvgl/lvgl/src/extra/widgets/imgbtn/lv_imgbtn.c **** #include "lv_imgbtn.h"
  11:Drivers/lvgl/lvgl/src/extra/widgets/imgbtn/lv_imgbtn.c **** 
  12:Drivers/lvgl/lvgl/src/extra/widgets/imgbtn/lv_imgbtn.c **** #if LV_USE_IMGBTN != 0
  13:Drivers/lvgl/lvgl/src/extra/widgets/imgbtn/lv_imgbtn.c **** 
  14:Drivers/lvgl/lvgl/src/extra/widgets/imgbtn/lv_imgbtn.c **** /*********************
  15:Drivers/lvgl/lvgl/src/extra/widgets/imgbtn/lv_imgbtn.c ****  *      DEFINES
  16:Drivers/lvgl/lvgl/src/extra/widgets/imgbtn/lv_imgbtn.c ****  *********************/
  17:Drivers/lvgl/lvgl/src/extra/widgets/imgbtn/lv_imgbtn.c **** #define MY_CLASS &lv_imgbtn_class
  18:Drivers/lvgl/lvgl/src/extra/widgets/imgbtn/lv_imgbtn.c **** 
  19:Drivers/lvgl/lvgl/src/extra/widgets/imgbtn/lv_imgbtn.c **** /**********************
  20:Drivers/lvgl/lvgl/src/extra/widgets/imgbtn/lv_imgbtn.c ****  *      TYPEDEFS
  21:Drivers/lvgl/lvgl/src/extra/widgets/imgbtn/lv_imgbtn.c ****  **********************/
  22:Drivers/lvgl/lvgl/src/extra/widgets/imgbtn/lv_imgbtn.c **** 
  23:Drivers/lvgl/lvgl/src/extra/widgets/imgbtn/lv_imgbtn.c **** /**********************
  24:Drivers/lvgl/lvgl/src/extra/widgets/imgbtn/lv_imgbtn.c ****  *  STATIC PROTOTYPES
  25:Drivers/lvgl/lvgl/src/extra/widgets/imgbtn/lv_imgbtn.c ****  **********************/
  26:Drivers/lvgl/lvgl/src/extra/widgets/imgbtn/lv_imgbtn.c **** static void lv_imgbtn_constructor(const lv_obj_class_t * class_p, lv_obj_t * obj);
  27:Drivers/lvgl/lvgl/src/extra/widgets/imgbtn/lv_imgbtn.c **** static void draw_main(lv_event_t * e);
  28:Drivers/lvgl/lvgl/src/extra/widgets/imgbtn/lv_imgbtn.c **** static void lv_imgbtn_event(const lv_obj_class_t * class_p, lv_event_t * e);
  29:Drivers/lvgl/lvgl/src/extra/widgets/imgbtn/lv_imgbtn.c **** static void refr_img(lv_obj_t * imgbtn);
  30:Drivers/lvgl/lvgl/src/extra/widgets/imgbtn/lv_imgbtn.c **** static lv_imgbtn_state_t suggest_state(lv_obj_t * imgbtn, lv_imgbtn_state_t state);
  31:Drivers/lvgl/lvgl/src/extra/widgets/imgbtn/lv_imgbtn.c **** lv_imgbtn_state_t get_state(const lv_obj_t * imgbtn);
  32:Drivers/lvgl/lvgl/src/extra/widgets/imgbtn/lv_imgbtn.c **** 
  33:Drivers/lvgl/lvgl/src/extra/widgets/imgbtn/lv_imgbtn.c **** /**********************
ARM GAS  /tmp/ccJyF0Mv.s 			page 2


  34:Drivers/lvgl/lvgl/src/extra/widgets/imgbtn/lv_imgbtn.c ****  *  STATIC VARIABLES
  35:Drivers/lvgl/lvgl/src/extra/widgets/imgbtn/lv_imgbtn.c ****  **********************/
  36:Drivers/lvgl/lvgl/src/extra/widgets/imgbtn/lv_imgbtn.c **** const lv_obj_class_t lv_imgbtn_class = {
  37:Drivers/lvgl/lvgl/src/extra/widgets/imgbtn/lv_imgbtn.c ****     .base_class = &lv_obj_class,
  38:Drivers/lvgl/lvgl/src/extra/widgets/imgbtn/lv_imgbtn.c ****     .instance_size = sizeof(lv_imgbtn_t),
  39:Drivers/lvgl/lvgl/src/extra/widgets/imgbtn/lv_imgbtn.c ****     .constructor_cb = lv_imgbtn_constructor,
  40:Drivers/lvgl/lvgl/src/extra/widgets/imgbtn/lv_imgbtn.c ****     .event_cb = lv_imgbtn_event,
  41:Drivers/lvgl/lvgl/src/extra/widgets/imgbtn/lv_imgbtn.c **** };
  42:Drivers/lvgl/lvgl/src/extra/widgets/imgbtn/lv_imgbtn.c **** 
  43:Drivers/lvgl/lvgl/src/extra/widgets/imgbtn/lv_imgbtn.c **** /**********************
  44:Drivers/lvgl/lvgl/src/extra/widgets/imgbtn/lv_imgbtn.c ****  *      MACROS
  45:Drivers/lvgl/lvgl/src/extra/widgets/imgbtn/lv_imgbtn.c ****  **********************/
  46:Drivers/lvgl/lvgl/src/extra/widgets/imgbtn/lv_imgbtn.c **** 
  47:Drivers/lvgl/lvgl/src/extra/widgets/imgbtn/lv_imgbtn.c **** /**********************
  48:Drivers/lvgl/lvgl/src/extra/widgets/imgbtn/lv_imgbtn.c ****  *   GLOBAL FUNCTIONS
  49:Drivers/lvgl/lvgl/src/extra/widgets/imgbtn/lv_imgbtn.c ****  **********************/
  50:Drivers/lvgl/lvgl/src/extra/widgets/imgbtn/lv_imgbtn.c **** 
  51:Drivers/lvgl/lvgl/src/extra/widgets/imgbtn/lv_imgbtn.c **** /**
  52:Drivers/lvgl/lvgl/src/extra/widgets/imgbtn/lv_imgbtn.c ****  * Create an image button object
  53:Drivers/lvgl/lvgl/src/extra/widgets/imgbtn/lv_imgbtn.c ****  * @param parent pointer to an object, it will be the parent of the new image button
  54:Drivers/lvgl/lvgl/src/extra/widgets/imgbtn/lv_imgbtn.c ****  * @return pointer to the created image button
  55:Drivers/lvgl/lvgl/src/extra/widgets/imgbtn/lv_imgbtn.c ****  */
  56:Drivers/lvgl/lvgl/src/extra/widgets/imgbtn/lv_imgbtn.c **** lv_obj_t * lv_imgbtn_create(lv_obj_t * parent)
  57:Drivers/lvgl/lvgl/src/extra/widgets/imgbtn/lv_imgbtn.c **** {
  58:Drivers/lvgl/lvgl/src/extra/widgets/imgbtn/lv_imgbtn.c ****     LV_LOG_INFO("begin");
  59:Drivers/lvgl/lvgl/src/extra/widgets/imgbtn/lv_imgbtn.c ****     lv_obj_t * obj = lv_obj_class_create_obj(MY_CLASS, parent);
  60:Drivers/lvgl/lvgl/src/extra/widgets/imgbtn/lv_imgbtn.c ****     lv_obj_class_init_obj(obj);
  61:Drivers/lvgl/lvgl/src/extra/widgets/imgbtn/lv_imgbtn.c ****     return obj;
  62:Drivers/lvgl/lvgl/src/extra/widgets/imgbtn/lv_imgbtn.c **** }
  63:Drivers/lvgl/lvgl/src/extra/widgets/imgbtn/lv_imgbtn.c **** 
  64:Drivers/lvgl/lvgl/src/extra/widgets/imgbtn/lv_imgbtn.c **** /*=====================
  65:Drivers/lvgl/lvgl/src/extra/widgets/imgbtn/lv_imgbtn.c ****  * Setter functions
  66:Drivers/lvgl/lvgl/src/extra/widgets/imgbtn/lv_imgbtn.c ****  *====================*/
  67:Drivers/lvgl/lvgl/src/extra/widgets/imgbtn/lv_imgbtn.c **** 
  68:Drivers/lvgl/lvgl/src/extra/widgets/imgbtn/lv_imgbtn.c **** /**
  69:Drivers/lvgl/lvgl/src/extra/widgets/imgbtn/lv_imgbtn.c ****  * Set images for a state of the image button
  70:Drivers/lvgl/lvgl/src/extra/widgets/imgbtn/lv_imgbtn.c ****  * @param obj pointer to an image button object
  71:Drivers/lvgl/lvgl/src/extra/widgets/imgbtn/lv_imgbtn.c ****  * @param state for which state set the new image
  72:Drivers/lvgl/lvgl/src/extra/widgets/imgbtn/lv_imgbtn.c ****  * @param src_left pointer to an image source for the left side of the button (a C array or path to
  73:Drivers/lvgl/lvgl/src/extra/widgets/imgbtn/lv_imgbtn.c ****  * a file)
  74:Drivers/lvgl/lvgl/src/extra/widgets/imgbtn/lv_imgbtn.c ****  * @param src_mid pointer to an image source for the middle of the button (ideally 1px wide) (a C
  75:Drivers/lvgl/lvgl/src/extra/widgets/imgbtn/lv_imgbtn.c ****  * array or path to a file)
  76:Drivers/lvgl/lvgl/src/extra/widgets/imgbtn/lv_imgbtn.c ****  * @param src_right pointer to an image source for the right side of the button (a C array or path
  77:Drivers/lvgl/lvgl/src/extra/widgets/imgbtn/lv_imgbtn.c ****  * to a file)
  78:Drivers/lvgl/lvgl/src/extra/widgets/imgbtn/lv_imgbtn.c ****  */
  79:Drivers/lvgl/lvgl/src/extra/widgets/imgbtn/lv_imgbtn.c **** void lv_imgbtn_set_src(lv_obj_t * obj, lv_imgbtn_state_t state, const void * src_left, const void *
  80:Drivers/lvgl/lvgl/src/extra/widgets/imgbtn/lv_imgbtn.c ****                        const void * src_right)
  81:Drivers/lvgl/lvgl/src/extra/widgets/imgbtn/lv_imgbtn.c **** {
  82:Drivers/lvgl/lvgl/src/extra/widgets/imgbtn/lv_imgbtn.c ****     LV_ASSERT_OBJ(obj, MY_CLASS);
  83:Drivers/lvgl/lvgl/src/extra/widgets/imgbtn/lv_imgbtn.c **** 
  84:Drivers/lvgl/lvgl/src/extra/widgets/imgbtn/lv_imgbtn.c ****     lv_imgbtn_t * imgbtn = (lv_imgbtn_t *)obj;
  85:Drivers/lvgl/lvgl/src/extra/widgets/imgbtn/lv_imgbtn.c **** 
  86:Drivers/lvgl/lvgl/src/extra/widgets/imgbtn/lv_imgbtn.c ****     imgbtn->img_src_left[state] = src_left;
  87:Drivers/lvgl/lvgl/src/extra/widgets/imgbtn/lv_imgbtn.c ****     imgbtn->img_src_mid[state] = src_mid;
  88:Drivers/lvgl/lvgl/src/extra/widgets/imgbtn/lv_imgbtn.c ****     imgbtn->img_src_right[state] = src_right;
  89:Drivers/lvgl/lvgl/src/extra/widgets/imgbtn/lv_imgbtn.c **** 
  90:Drivers/lvgl/lvgl/src/extra/widgets/imgbtn/lv_imgbtn.c ****     refr_img(obj);
ARM GAS  /tmp/ccJyF0Mv.s 			page 3


  91:Drivers/lvgl/lvgl/src/extra/widgets/imgbtn/lv_imgbtn.c **** }
  92:Drivers/lvgl/lvgl/src/extra/widgets/imgbtn/lv_imgbtn.c **** 
  93:Drivers/lvgl/lvgl/src/extra/widgets/imgbtn/lv_imgbtn.c **** void lv_imgbtn_set_state(lv_obj_t * obj, lv_imgbtn_state_t state)
  94:Drivers/lvgl/lvgl/src/extra/widgets/imgbtn/lv_imgbtn.c **** {
  95:Drivers/lvgl/lvgl/src/extra/widgets/imgbtn/lv_imgbtn.c ****     LV_ASSERT_OBJ(obj, MY_CLASS);
  96:Drivers/lvgl/lvgl/src/extra/widgets/imgbtn/lv_imgbtn.c **** 
  97:Drivers/lvgl/lvgl/src/extra/widgets/imgbtn/lv_imgbtn.c ****     lv_state_t obj_state = LV_STATE_DEFAULT;
  98:Drivers/lvgl/lvgl/src/extra/widgets/imgbtn/lv_imgbtn.c ****     if(state == LV_IMGBTN_STATE_PRESSED || state == LV_IMGBTN_STATE_CHECKED_PRESSED) obj_state |= L
  99:Drivers/lvgl/lvgl/src/extra/widgets/imgbtn/lv_imgbtn.c ****     if(state == LV_IMGBTN_STATE_DISABLED || state == LV_IMGBTN_STATE_CHECKED_DISABLED) obj_state |=
 100:Drivers/lvgl/lvgl/src/extra/widgets/imgbtn/lv_imgbtn.c ****     if(state == LV_IMGBTN_STATE_CHECKED_DISABLED || state == LV_IMGBTN_STATE_CHECKED_PRESSED ||
 101:Drivers/lvgl/lvgl/src/extra/widgets/imgbtn/lv_imgbtn.c ****        state == LV_IMGBTN_STATE_CHECKED_RELEASED) {
 102:Drivers/lvgl/lvgl/src/extra/widgets/imgbtn/lv_imgbtn.c ****         obj_state |= LV_STATE_CHECKED;
 103:Drivers/lvgl/lvgl/src/extra/widgets/imgbtn/lv_imgbtn.c ****     }
 104:Drivers/lvgl/lvgl/src/extra/widgets/imgbtn/lv_imgbtn.c **** 
 105:Drivers/lvgl/lvgl/src/extra/widgets/imgbtn/lv_imgbtn.c ****     lv_obj_clear_state(obj, LV_STATE_CHECKED | LV_STATE_PRESSED | LV_STATE_DISABLED);
 106:Drivers/lvgl/lvgl/src/extra/widgets/imgbtn/lv_imgbtn.c ****     lv_obj_add_state(obj, obj_state);
 107:Drivers/lvgl/lvgl/src/extra/widgets/imgbtn/lv_imgbtn.c **** 
 108:Drivers/lvgl/lvgl/src/extra/widgets/imgbtn/lv_imgbtn.c ****     refr_img(obj);
 109:Drivers/lvgl/lvgl/src/extra/widgets/imgbtn/lv_imgbtn.c **** }
 110:Drivers/lvgl/lvgl/src/extra/widgets/imgbtn/lv_imgbtn.c **** 
 111:Drivers/lvgl/lvgl/src/extra/widgets/imgbtn/lv_imgbtn.c **** /*=====================
 112:Drivers/lvgl/lvgl/src/extra/widgets/imgbtn/lv_imgbtn.c ****  * Getter functions
 113:Drivers/lvgl/lvgl/src/extra/widgets/imgbtn/lv_imgbtn.c ****  *====================*/
 114:Drivers/lvgl/lvgl/src/extra/widgets/imgbtn/lv_imgbtn.c **** 
 115:Drivers/lvgl/lvgl/src/extra/widgets/imgbtn/lv_imgbtn.c **** 
 116:Drivers/lvgl/lvgl/src/extra/widgets/imgbtn/lv_imgbtn.c **** /**
 117:Drivers/lvgl/lvgl/src/extra/widgets/imgbtn/lv_imgbtn.c ****  * Get the left image in a given state
 118:Drivers/lvgl/lvgl/src/extra/widgets/imgbtn/lv_imgbtn.c ****  * @param obj pointer to an image button object
 119:Drivers/lvgl/lvgl/src/extra/widgets/imgbtn/lv_imgbtn.c ****  * @param state the state where to get the image (from `lv_btn_state_t`) `
 120:Drivers/lvgl/lvgl/src/extra/widgets/imgbtn/lv_imgbtn.c ****  * @return pointer to the left image source (a C array or path to a file)
 121:Drivers/lvgl/lvgl/src/extra/widgets/imgbtn/lv_imgbtn.c ****  */
 122:Drivers/lvgl/lvgl/src/extra/widgets/imgbtn/lv_imgbtn.c **** const void * lv_imgbtn_get_src_left(lv_obj_t * obj, lv_imgbtn_state_t state)
 123:Drivers/lvgl/lvgl/src/extra/widgets/imgbtn/lv_imgbtn.c **** {
 124:Drivers/lvgl/lvgl/src/extra/widgets/imgbtn/lv_imgbtn.c ****     LV_ASSERT_OBJ(obj, MY_CLASS);
 125:Drivers/lvgl/lvgl/src/extra/widgets/imgbtn/lv_imgbtn.c **** 
 126:Drivers/lvgl/lvgl/src/extra/widgets/imgbtn/lv_imgbtn.c ****     lv_imgbtn_t * imgbtn = (lv_imgbtn_t *)obj;
 127:Drivers/lvgl/lvgl/src/extra/widgets/imgbtn/lv_imgbtn.c **** 
 128:Drivers/lvgl/lvgl/src/extra/widgets/imgbtn/lv_imgbtn.c ****     return imgbtn->img_src_left[state];
 129:Drivers/lvgl/lvgl/src/extra/widgets/imgbtn/lv_imgbtn.c **** }
 130:Drivers/lvgl/lvgl/src/extra/widgets/imgbtn/lv_imgbtn.c **** 
 131:Drivers/lvgl/lvgl/src/extra/widgets/imgbtn/lv_imgbtn.c **** /**
 132:Drivers/lvgl/lvgl/src/extra/widgets/imgbtn/lv_imgbtn.c ****  * Get the middle image in a given state
 133:Drivers/lvgl/lvgl/src/extra/widgets/imgbtn/lv_imgbtn.c ****  * @param obj pointer to an image button object
 134:Drivers/lvgl/lvgl/src/extra/widgets/imgbtn/lv_imgbtn.c ****  * @param state the state where to get the image (from `lv_btn_state_t`) `
 135:Drivers/lvgl/lvgl/src/extra/widgets/imgbtn/lv_imgbtn.c ****  * @return pointer to the middle image source (a C array or path to a file)
 136:Drivers/lvgl/lvgl/src/extra/widgets/imgbtn/lv_imgbtn.c ****  */
 137:Drivers/lvgl/lvgl/src/extra/widgets/imgbtn/lv_imgbtn.c **** const void * lv_imgbtn_get_src_middle(lv_obj_t * obj, lv_imgbtn_state_t state)
 138:Drivers/lvgl/lvgl/src/extra/widgets/imgbtn/lv_imgbtn.c **** {
 139:Drivers/lvgl/lvgl/src/extra/widgets/imgbtn/lv_imgbtn.c ****     LV_ASSERT_OBJ(obj, MY_CLASS);
 140:Drivers/lvgl/lvgl/src/extra/widgets/imgbtn/lv_imgbtn.c ****     lv_imgbtn_t * imgbtn = (lv_imgbtn_t *)obj;
 141:Drivers/lvgl/lvgl/src/extra/widgets/imgbtn/lv_imgbtn.c **** 
 142:Drivers/lvgl/lvgl/src/extra/widgets/imgbtn/lv_imgbtn.c ****     return imgbtn->img_src_mid[state];
 143:Drivers/lvgl/lvgl/src/extra/widgets/imgbtn/lv_imgbtn.c **** }
 144:Drivers/lvgl/lvgl/src/extra/widgets/imgbtn/lv_imgbtn.c **** 
 145:Drivers/lvgl/lvgl/src/extra/widgets/imgbtn/lv_imgbtn.c **** /**
 146:Drivers/lvgl/lvgl/src/extra/widgets/imgbtn/lv_imgbtn.c ****  * Get the right image in a given state
 147:Drivers/lvgl/lvgl/src/extra/widgets/imgbtn/lv_imgbtn.c ****  * @param obj pointer to an image button object
ARM GAS  /tmp/ccJyF0Mv.s 			page 4


 148:Drivers/lvgl/lvgl/src/extra/widgets/imgbtn/lv_imgbtn.c ****  * @param state the state where to get the image (from `lv_btn_state_t`) `
 149:Drivers/lvgl/lvgl/src/extra/widgets/imgbtn/lv_imgbtn.c ****  * @return pointer to the left image source (a C array or path to a file)
 150:Drivers/lvgl/lvgl/src/extra/widgets/imgbtn/lv_imgbtn.c ****  */
 151:Drivers/lvgl/lvgl/src/extra/widgets/imgbtn/lv_imgbtn.c **** const void * lv_imgbtn_get_src_right(lv_obj_t * obj, lv_imgbtn_state_t state)
 152:Drivers/lvgl/lvgl/src/extra/widgets/imgbtn/lv_imgbtn.c **** {
 153:Drivers/lvgl/lvgl/src/extra/widgets/imgbtn/lv_imgbtn.c ****     LV_ASSERT_OBJ(obj, MY_CLASS);
 154:Drivers/lvgl/lvgl/src/extra/widgets/imgbtn/lv_imgbtn.c ****     lv_imgbtn_t * imgbtn = (lv_imgbtn_t *)obj;
 155:Drivers/lvgl/lvgl/src/extra/widgets/imgbtn/lv_imgbtn.c **** 
 156:Drivers/lvgl/lvgl/src/extra/widgets/imgbtn/lv_imgbtn.c ****     return imgbtn->img_src_right[state];
 157:Drivers/lvgl/lvgl/src/extra/widgets/imgbtn/lv_imgbtn.c **** }
 158:Drivers/lvgl/lvgl/src/extra/widgets/imgbtn/lv_imgbtn.c **** 
 159:Drivers/lvgl/lvgl/src/extra/widgets/imgbtn/lv_imgbtn.c **** 
 160:Drivers/lvgl/lvgl/src/extra/widgets/imgbtn/lv_imgbtn.c **** /**********************
 161:Drivers/lvgl/lvgl/src/extra/widgets/imgbtn/lv_imgbtn.c ****  *   STATIC FUNCTIONS
 162:Drivers/lvgl/lvgl/src/extra/widgets/imgbtn/lv_imgbtn.c ****  **********************/
 163:Drivers/lvgl/lvgl/src/extra/widgets/imgbtn/lv_imgbtn.c **** 
 164:Drivers/lvgl/lvgl/src/extra/widgets/imgbtn/lv_imgbtn.c **** static void lv_imgbtn_constructor(const lv_obj_class_t * class_p, lv_obj_t * obj)
 165:Drivers/lvgl/lvgl/src/extra/widgets/imgbtn/lv_imgbtn.c **** {
 166:Drivers/lvgl/lvgl/src/extra/widgets/imgbtn/lv_imgbtn.c ****     LV_UNUSED(class_p);
 167:Drivers/lvgl/lvgl/src/extra/widgets/imgbtn/lv_imgbtn.c ****     lv_imgbtn_t * imgbtn = (lv_imgbtn_t *)obj;
 168:Drivers/lvgl/lvgl/src/extra/widgets/imgbtn/lv_imgbtn.c ****     /*Initialize the allocated 'ext'*/
 169:Drivers/lvgl/lvgl/src/extra/widgets/imgbtn/lv_imgbtn.c ****     lv_memset_00((void *)imgbtn->img_src_mid, sizeof(imgbtn->img_src_mid));
 170:Drivers/lvgl/lvgl/src/extra/widgets/imgbtn/lv_imgbtn.c ****     lv_memset_00(imgbtn->img_src_left, sizeof(imgbtn->img_src_left));
 171:Drivers/lvgl/lvgl/src/extra/widgets/imgbtn/lv_imgbtn.c ****     lv_memset_00(imgbtn->img_src_right, sizeof(imgbtn->img_src_right));
 172:Drivers/lvgl/lvgl/src/extra/widgets/imgbtn/lv_imgbtn.c **** 
 173:Drivers/lvgl/lvgl/src/extra/widgets/imgbtn/lv_imgbtn.c ****     imgbtn->act_cf = LV_IMG_CF_UNKNOWN;
 174:Drivers/lvgl/lvgl/src/extra/widgets/imgbtn/lv_imgbtn.c **** }
 175:Drivers/lvgl/lvgl/src/extra/widgets/imgbtn/lv_imgbtn.c **** 
 176:Drivers/lvgl/lvgl/src/extra/widgets/imgbtn/lv_imgbtn.c **** 
 177:Drivers/lvgl/lvgl/src/extra/widgets/imgbtn/lv_imgbtn.c **** static void lv_imgbtn_event(const lv_obj_class_t * class_p, lv_event_t * e)
 178:Drivers/lvgl/lvgl/src/extra/widgets/imgbtn/lv_imgbtn.c **** {
 179:Drivers/lvgl/lvgl/src/extra/widgets/imgbtn/lv_imgbtn.c ****     LV_UNUSED(class_p);
 180:Drivers/lvgl/lvgl/src/extra/widgets/imgbtn/lv_imgbtn.c **** 
 181:Drivers/lvgl/lvgl/src/extra/widgets/imgbtn/lv_imgbtn.c ****     lv_res_t res = lv_obj_event_base(&lv_imgbtn_class, e);
 182:Drivers/lvgl/lvgl/src/extra/widgets/imgbtn/lv_imgbtn.c ****     if(res != LV_RES_OK) return;
 183:Drivers/lvgl/lvgl/src/extra/widgets/imgbtn/lv_imgbtn.c **** 
 184:Drivers/lvgl/lvgl/src/extra/widgets/imgbtn/lv_imgbtn.c ****     lv_event_code_t code = lv_event_get_code(e);
 185:Drivers/lvgl/lvgl/src/extra/widgets/imgbtn/lv_imgbtn.c ****     lv_obj_t * obj = lv_event_get_target(e);
 186:Drivers/lvgl/lvgl/src/extra/widgets/imgbtn/lv_imgbtn.c ****     if(code == LV_EVENT_PRESSED || code == LV_EVENT_RELEASED || code == LV_EVENT_PRESS_LOST) {
 187:Drivers/lvgl/lvgl/src/extra/widgets/imgbtn/lv_imgbtn.c ****         refr_img(obj);
 188:Drivers/lvgl/lvgl/src/extra/widgets/imgbtn/lv_imgbtn.c ****     }
 189:Drivers/lvgl/lvgl/src/extra/widgets/imgbtn/lv_imgbtn.c ****     else if(code == LV_EVENT_DRAW_MAIN) {
 190:Drivers/lvgl/lvgl/src/extra/widgets/imgbtn/lv_imgbtn.c ****         draw_main(e);
 191:Drivers/lvgl/lvgl/src/extra/widgets/imgbtn/lv_imgbtn.c ****     }
 192:Drivers/lvgl/lvgl/src/extra/widgets/imgbtn/lv_imgbtn.c ****     else if(code == LV_EVENT_COVER_CHECK) {
 193:Drivers/lvgl/lvgl/src/extra/widgets/imgbtn/lv_imgbtn.c ****         lv_cover_check_info_t * info = lv_event_get_param(e);
 194:Drivers/lvgl/lvgl/src/extra/widgets/imgbtn/lv_imgbtn.c ****         if(info->res != LV_COVER_RES_MASKED) info->res = LV_COVER_RES_NOT_COVER;
 195:Drivers/lvgl/lvgl/src/extra/widgets/imgbtn/lv_imgbtn.c ****     }
 196:Drivers/lvgl/lvgl/src/extra/widgets/imgbtn/lv_imgbtn.c ****     else if(code == LV_EVENT_GET_SELF_SIZE) {
 197:Drivers/lvgl/lvgl/src/extra/widgets/imgbtn/lv_imgbtn.c ****         lv_point_t * p = lv_event_get_self_size_info(e);
 198:Drivers/lvgl/lvgl/src/extra/widgets/imgbtn/lv_imgbtn.c ****         lv_imgbtn_t * imgbtn = (lv_imgbtn_t *)obj;
 199:Drivers/lvgl/lvgl/src/extra/widgets/imgbtn/lv_imgbtn.c ****         lv_imgbtn_state_t state  = suggest_state(obj, get_state(obj));
 200:Drivers/lvgl/lvgl/src/extra/widgets/imgbtn/lv_imgbtn.c ****         if(imgbtn->img_src_left[state] == NULL &&
 201:Drivers/lvgl/lvgl/src/extra/widgets/imgbtn/lv_imgbtn.c ****            imgbtn->img_src_mid[state] != NULL &&
 202:Drivers/lvgl/lvgl/src/extra/widgets/imgbtn/lv_imgbtn.c ****            imgbtn->img_src_right[state] == NULL) {
 203:Drivers/lvgl/lvgl/src/extra/widgets/imgbtn/lv_imgbtn.c ****             lv_img_header_t header;
 204:Drivers/lvgl/lvgl/src/extra/widgets/imgbtn/lv_imgbtn.c ****             lv_img_decoder_get_info(imgbtn->img_src_mid[state], &header);
ARM GAS  /tmp/ccJyF0Mv.s 			page 5


 205:Drivers/lvgl/lvgl/src/extra/widgets/imgbtn/lv_imgbtn.c ****             p->x = LV_MAX(p->x, header.w);
 206:Drivers/lvgl/lvgl/src/extra/widgets/imgbtn/lv_imgbtn.c ****         }
 207:Drivers/lvgl/lvgl/src/extra/widgets/imgbtn/lv_imgbtn.c ****     }
 208:Drivers/lvgl/lvgl/src/extra/widgets/imgbtn/lv_imgbtn.c **** }
 209:Drivers/lvgl/lvgl/src/extra/widgets/imgbtn/lv_imgbtn.c **** 
 210:Drivers/lvgl/lvgl/src/extra/widgets/imgbtn/lv_imgbtn.c **** static void draw_main(lv_event_t * e)
 211:Drivers/lvgl/lvgl/src/extra/widgets/imgbtn/lv_imgbtn.c **** {
 212:Drivers/lvgl/lvgl/src/extra/widgets/imgbtn/lv_imgbtn.c ****     lv_obj_t * obj = lv_event_get_target(e);
 213:Drivers/lvgl/lvgl/src/extra/widgets/imgbtn/lv_imgbtn.c ****     lv_imgbtn_t * imgbtn = (lv_imgbtn_t *)obj;
 214:Drivers/lvgl/lvgl/src/extra/widgets/imgbtn/lv_imgbtn.c ****     lv_draw_ctx_t * draw_ctx = lv_event_get_draw_ctx(e);
 215:Drivers/lvgl/lvgl/src/extra/widgets/imgbtn/lv_imgbtn.c **** 
 216:Drivers/lvgl/lvgl/src/extra/widgets/imgbtn/lv_imgbtn.c ****     /*Just draw_main an image*/
 217:Drivers/lvgl/lvgl/src/extra/widgets/imgbtn/lv_imgbtn.c ****     lv_imgbtn_state_t state  = suggest_state(obj, get_state(obj));
 218:Drivers/lvgl/lvgl/src/extra/widgets/imgbtn/lv_imgbtn.c **** 
 219:Drivers/lvgl/lvgl/src/extra/widgets/imgbtn/lv_imgbtn.c ****     /*Simply draw the middle src if no tiled*/
 220:Drivers/lvgl/lvgl/src/extra/widgets/imgbtn/lv_imgbtn.c ****     const void * src = imgbtn->img_src_left[state];
 221:Drivers/lvgl/lvgl/src/extra/widgets/imgbtn/lv_imgbtn.c **** 
 222:Drivers/lvgl/lvgl/src/extra/widgets/imgbtn/lv_imgbtn.c ****     lv_coord_t tw = lv_obj_get_style_transform_width(obj, LV_PART_MAIN);
 223:Drivers/lvgl/lvgl/src/extra/widgets/imgbtn/lv_imgbtn.c ****     lv_coord_t th = lv_obj_get_style_transform_height(obj, LV_PART_MAIN);
 224:Drivers/lvgl/lvgl/src/extra/widgets/imgbtn/lv_imgbtn.c ****     lv_area_t coords;
 225:Drivers/lvgl/lvgl/src/extra/widgets/imgbtn/lv_imgbtn.c ****     lv_area_copy(&coords, &obj->coords);
 226:Drivers/lvgl/lvgl/src/extra/widgets/imgbtn/lv_imgbtn.c ****     coords.x1 -= tw;
 227:Drivers/lvgl/lvgl/src/extra/widgets/imgbtn/lv_imgbtn.c ****     coords.x2 += tw;
 228:Drivers/lvgl/lvgl/src/extra/widgets/imgbtn/lv_imgbtn.c ****     coords.y1 -= th;
 229:Drivers/lvgl/lvgl/src/extra/widgets/imgbtn/lv_imgbtn.c ****     coords.y2 += th;
 230:Drivers/lvgl/lvgl/src/extra/widgets/imgbtn/lv_imgbtn.c **** 
 231:Drivers/lvgl/lvgl/src/extra/widgets/imgbtn/lv_imgbtn.c ****     lv_draw_img_dsc_t img_dsc;
 232:Drivers/lvgl/lvgl/src/extra/widgets/imgbtn/lv_imgbtn.c ****     lv_draw_img_dsc_init(&img_dsc);
 233:Drivers/lvgl/lvgl/src/extra/widgets/imgbtn/lv_imgbtn.c ****     lv_obj_init_draw_img_dsc(obj, LV_PART_MAIN, &img_dsc);
 234:Drivers/lvgl/lvgl/src/extra/widgets/imgbtn/lv_imgbtn.c **** 
 235:Drivers/lvgl/lvgl/src/extra/widgets/imgbtn/lv_imgbtn.c ****     lv_img_header_t header;
 236:Drivers/lvgl/lvgl/src/extra/widgets/imgbtn/lv_imgbtn.c ****     lv_area_t coords_part;
 237:Drivers/lvgl/lvgl/src/extra/widgets/imgbtn/lv_imgbtn.c ****     lv_coord_t left_w = 0;
 238:Drivers/lvgl/lvgl/src/extra/widgets/imgbtn/lv_imgbtn.c ****     lv_coord_t right_w = 0;
 239:Drivers/lvgl/lvgl/src/extra/widgets/imgbtn/lv_imgbtn.c **** 
 240:Drivers/lvgl/lvgl/src/extra/widgets/imgbtn/lv_imgbtn.c ****     if(src) {
 241:Drivers/lvgl/lvgl/src/extra/widgets/imgbtn/lv_imgbtn.c ****         lv_img_decoder_get_info(src, &header);
 242:Drivers/lvgl/lvgl/src/extra/widgets/imgbtn/lv_imgbtn.c ****         left_w = header.w;
 243:Drivers/lvgl/lvgl/src/extra/widgets/imgbtn/lv_imgbtn.c ****         coords_part.x1 = coords.x1;
 244:Drivers/lvgl/lvgl/src/extra/widgets/imgbtn/lv_imgbtn.c ****         coords_part.y1 = coords.y1;
 245:Drivers/lvgl/lvgl/src/extra/widgets/imgbtn/lv_imgbtn.c ****         coords_part.x2 = coords.x1 + header.w - 1;
 246:Drivers/lvgl/lvgl/src/extra/widgets/imgbtn/lv_imgbtn.c ****         coords_part.y2 = coords.y1 + header.h - 1;
 247:Drivers/lvgl/lvgl/src/extra/widgets/imgbtn/lv_imgbtn.c ****         lv_draw_img(draw_ctx, &img_dsc, &coords_part, src);
 248:Drivers/lvgl/lvgl/src/extra/widgets/imgbtn/lv_imgbtn.c ****     }
 249:Drivers/lvgl/lvgl/src/extra/widgets/imgbtn/lv_imgbtn.c **** 
 250:Drivers/lvgl/lvgl/src/extra/widgets/imgbtn/lv_imgbtn.c ****     src = imgbtn->img_src_right[state];
 251:Drivers/lvgl/lvgl/src/extra/widgets/imgbtn/lv_imgbtn.c ****     if(src) {
 252:Drivers/lvgl/lvgl/src/extra/widgets/imgbtn/lv_imgbtn.c ****         lv_img_decoder_get_info(src, &header);
 253:Drivers/lvgl/lvgl/src/extra/widgets/imgbtn/lv_imgbtn.c ****         right_w = header.w;
 254:Drivers/lvgl/lvgl/src/extra/widgets/imgbtn/lv_imgbtn.c ****         coords_part.x1 = coords.x2 - header.w + 1;
 255:Drivers/lvgl/lvgl/src/extra/widgets/imgbtn/lv_imgbtn.c ****         coords_part.y1 = coords.y1;
 256:Drivers/lvgl/lvgl/src/extra/widgets/imgbtn/lv_imgbtn.c ****         coords_part.x2 = coords.x2;
 257:Drivers/lvgl/lvgl/src/extra/widgets/imgbtn/lv_imgbtn.c ****         coords_part.y2 = coords.y1 + header.h - 1;
 258:Drivers/lvgl/lvgl/src/extra/widgets/imgbtn/lv_imgbtn.c ****         lv_draw_img(draw_ctx, &img_dsc, &coords_part, src);
 259:Drivers/lvgl/lvgl/src/extra/widgets/imgbtn/lv_imgbtn.c ****     }
 260:Drivers/lvgl/lvgl/src/extra/widgets/imgbtn/lv_imgbtn.c **** 
 261:Drivers/lvgl/lvgl/src/extra/widgets/imgbtn/lv_imgbtn.c ****     src = imgbtn->img_src_mid[state];
ARM GAS  /tmp/ccJyF0Mv.s 			page 6


 262:Drivers/lvgl/lvgl/src/extra/widgets/imgbtn/lv_imgbtn.c ****     if(src) {
 263:Drivers/lvgl/lvgl/src/extra/widgets/imgbtn/lv_imgbtn.c ****         lv_area_t clip_area_center;
 264:Drivers/lvgl/lvgl/src/extra/widgets/imgbtn/lv_imgbtn.c ****         clip_area_center.x1 = coords.x1 + left_w;
 265:Drivers/lvgl/lvgl/src/extra/widgets/imgbtn/lv_imgbtn.c ****         clip_area_center.x2 = coords.x2 - right_w;
 266:Drivers/lvgl/lvgl/src/extra/widgets/imgbtn/lv_imgbtn.c ****         clip_area_center.y1 = coords.y1;
 267:Drivers/lvgl/lvgl/src/extra/widgets/imgbtn/lv_imgbtn.c ****         clip_area_center.y2 = coords.y2;
 268:Drivers/lvgl/lvgl/src/extra/widgets/imgbtn/lv_imgbtn.c **** 
 269:Drivers/lvgl/lvgl/src/extra/widgets/imgbtn/lv_imgbtn.c **** 
 270:Drivers/lvgl/lvgl/src/extra/widgets/imgbtn/lv_imgbtn.c ****         bool comm_res;
 271:Drivers/lvgl/lvgl/src/extra/widgets/imgbtn/lv_imgbtn.c ****         comm_res = _lv_area_intersect(&clip_area_center, &clip_area_center, draw_ctx->clip_area);
 272:Drivers/lvgl/lvgl/src/extra/widgets/imgbtn/lv_imgbtn.c ****         if(comm_res) {
 273:Drivers/lvgl/lvgl/src/extra/widgets/imgbtn/lv_imgbtn.c ****             lv_coord_t i;
 274:Drivers/lvgl/lvgl/src/extra/widgets/imgbtn/lv_imgbtn.c ****             lv_img_decoder_get_info(src, &header);
 275:Drivers/lvgl/lvgl/src/extra/widgets/imgbtn/lv_imgbtn.c **** 
 276:Drivers/lvgl/lvgl/src/extra/widgets/imgbtn/lv_imgbtn.c ****             const lv_area_t * clip_area_ori = draw_ctx->clip_area;
 277:Drivers/lvgl/lvgl/src/extra/widgets/imgbtn/lv_imgbtn.c ****             draw_ctx->clip_area = &clip_area_center;
 278:Drivers/lvgl/lvgl/src/extra/widgets/imgbtn/lv_imgbtn.c **** 
 279:Drivers/lvgl/lvgl/src/extra/widgets/imgbtn/lv_imgbtn.c ****             coords_part.x1 = coords.x1 + left_w;
 280:Drivers/lvgl/lvgl/src/extra/widgets/imgbtn/lv_imgbtn.c ****             coords_part.y1 = coords.y1;
 281:Drivers/lvgl/lvgl/src/extra/widgets/imgbtn/lv_imgbtn.c ****             coords_part.x2 = coords_part.x1 + header.w - 1;
 282:Drivers/lvgl/lvgl/src/extra/widgets/imgbtn/lv_imgbtn.c ****             coords_part.y2 = coords_part.y1 + header.h - 1;
 283:Drivers/lvgl/lvgl/src/extra/widgets/imgbtn/lv_imgbtn.c **** 
 284:Drivers/lvgl/lvgl/src/extra/widgets/imgbtn/lv_imgbtn.c ****             for(i = coords_part.x1; i < (lv_coord_t)(clip_area_center.x2 + header.w - 1); i += head
 285:Drivers/lvgl/lvgl/src/extra/widgets/imgbtn/lv_imgbtn.c ****                 lv_draw_img(draw_ctx, &img_dsc, &coords_part, src);
 286:Drivers/lvgl/lvgl/src/extra/widgets/imgbtn/lv_imgbtn.c ****                 coords_part.x1 = coords_part.x2 + 1;
 287:Drivers/lvgl/lvgl/src/extra/widgets/imgbtn/lv_imgbtn.c ****                 coords_part.x2 += header.w;
 288:Drivers/lvgl/lvgl/src/extra/widgets/imgbtn/lv_imgbtn.c ****             }
 289:Drivers/lvgl/lvgl/src/extra/widgets/imgbtn/lv_imgbtn.c ****             draw_ctx->clip_area = clip_area_ori;
 290:Drivers/lvgl/lvgl/src/extra/widgets/imgbtn/lv_imgbtn.c ****         }
 291:Drivers/lvgl/lvgl/src/extra/widgets/imgbtn/lv_imgbtn.c ****     }
 292:Drivers/lvgl/lvgl/src/extra/widgets/imgbtn/lv_imgbtn.c **** }
 293:Drivers/lvgl/lvgl/src/extra/widgets/imgbtn/lv_imgbtn.c **** 
 294:Drivers/lvgl/lvgl/src/extra/widgets/imgbtn/lv_imgbtn.c **** static void refr_img(lv_obj_t * obj)
 295:Drivers/lvgl/lvgl/src/extra/widgets/imgbtn/lv_imgbtn.c **** {
 296:Drivers/lvgl/lvgl/src/extra/widgets/imgbtn/lv_imgbtn.c ****     lv_imgbtn_t * imgbtn = (lv_imgbtn_t *)obj;
 297:Drivers/lvgl/lvgl/src/extra/widgets/imgbtn/lv_imgbtn.c ****     lv_imgbtn_state_t state  = suggest_state(obj, get_state(obj));
 298:Drivers/lvgl/lvgl/src/extra/widgets/imgbtn/lv_imgbtn.c ****     lv_img_header_t header;
 299:Drivers/lvgl/lvgl/src/extra/widgets/imgbtn/lv_imgbtn.c **** 
 300:Drivers/lvgl/lvgl/src/extra/widgets/imgbtn/lv_imgbtn.c ****     const void * src = imgbtn->img_src_mid[state];
 301:Drivers/lvgl/lvgl/src/extra/widgets/imgbtn/lv_imgbtn.c ****     if(src == NULL) return;
 302:Drivers/lvgl/lvgl/src/extra/widgets/imgbtn/lv_imgbtn.c **** 
 303:Drivers/lvgl/lvgl/src/extra/widgets/imgbtn/lv_imgbtn.c ****     lv_res_t info_res = LV_RES_OK;
 304:Drivers/lvgl/lvgl/src/extra/widgets/imgbtn/lv_imgbtn.c ****     info_res = lv_img_decoder_get_info(src, &header);
 305:Drivers/lvgl/lvgl/src/extra/widgets/imgbtn/lv_imgbtn.c **** 
 306:Drivers/lvgl/lvgl/src/extra/widgets/imgbtn/lv_imgbtn.c ****     if(info_res == LV_RES_OK) {
 307:Drivers/lvgl/lvgl/src/extra/widgets/imgbtn/lv_imgbtn.c ****         imgbtn->act_cf = header.cf;
 308:Drivers/lvgl/lvgl/src/extra/widgets/imgbtn/lv_imgbtn.c ****         lv_obj_refresh_self_size(obj);
 309:Drivers/lvgl/lvgl/src/extra/widgets/imgbtn/lv_imgbtn.c ****         lv_obj_set_height(obj, header.h); /*Keep the user defined width*/
 310:Drivers/lvgl/lvgl/src/extra/widgets/imgbtn/lv_imgbtn.c ****     }
 311:Drivers/lvgl/lvgl/src/extra/widgets/imgbtn/lv_imgbtn.c ****     else {
 312:Drivers/lvgl/lvgl/src/extra/widgets/imgbtn/lv_imgbtn.c ****         imgbtn->act_cf = LV_IMG_CF_UNKNOWN;
 313:Drivers/lvgl/lvgl/src/extra/widgets/imgbtn/lv_imgbtn.c ****     }
 314:Drivers/lvgl/lvgl/src/extra/widgets/imgbtn/lv_imgbtn.c **** 
 315:Drivers/lvgl/lvgl/src/extra/widgets/imgbtn/lv_imgbtn.c ****     lv_obj_invalidate(obj);
 316:Drivers/lvgl/lvgl/src/extra/widgets/imgbtn/lv_imgbtn.c **** }
 317:Drivers/lvgl/lvgl/src/extra/widgets/imgbtn/lv_imgbtn.c **** 
 318:Drivers/lvgl/lvgl/src/extra/widgets/imgbtn/lv_imgbtn.c **** /**
ARM GAS  /tmp/ccJyF0Mv.s 			page 7


 319:Drivers/lvgl/lvgl/src/extra/widgets/imgbtn/lv_imgbtn.c ****  * If `src` is not defined for the current state try to get a state which is related to the current
 320:Drivers/lvgl/lvgl/src/extra/widgets/imgbtn/lv_imgbtn.c ****  * E.g. if the PRESSED src is not set but the RELEASED does, use the RELEASED.
 321:Drivers/lvgl/lvgl/src/extra/widgets/imgbtn/lv_imgbtn.c ****  * @param imgbtn pointer to an image button
 322:Drivers/lvgl/lvgl/src/extra/widgets/imgbtn/lv_imgbtn.c ****  * @param state the state to convert
 323:Drivers/lvgl/lvgl/src/extra/widgets/imgbtn/lv_imgbtn.c ****  * @return the suggested state
 324:Drivers/lvgl/lvgl/src/extra/widgets/imgbtn/lv_imgbtn.c ****  */
 325:Drivers/lvgl/lvgl/src/extra/widgets/imgbtn/lv_imgbtn.c **** static lv_imgbtn_state_t suggest_state(lv_obj_t * obj, lv_imgbtn_state_t state)
 326:Drivers/lvgl/lvgl/src/extra/widgets/imgbtn/lv_imgbtn.c **** {
  26              		.loc 1 326 0
  27              		.cfi_startproc
  28              		@ args = 0, pretend = 0, frame = 0
  29              		@ frame_needed = 0, uses_anonymous_args = 0
  30              		@ link register save eliminated.
  31              	.LVL0:
 327:Drivers/lvgl/lvgl/src/extra/widgets/imgbtn/lv_imgbtn.c ****     lv_imgbtn_t * imgbtn = (lv_imgbtn_t *)obj;
 328:Drivers/lvgl/lvgl/src/extra/widgets/imgbtn/lv_imgbtn.c ****     if(imgbtn->img_src_mid[state] == NULL) {
  32              		.loc 1 328 0
  33 0000 01F10803 		add	r3, r1, #8
  34 0004 00EB8303 		add	r3, r0, r3, lsl #2
  35 0008 5B68     		ldr	r3, [r3, #4]
  36 000a 0BB1     		cbz	r3, .L17
  37              	.LVL1:
  38              	.L2:
 329:Drivers/lvgl/lvgl/src/extra/widgets/imgbtn/lv_imgbtn.c ****         switch(state) {
 330:Drivers/lvgl/lvgl/src/extra/widgets/imgbtn/lv_imgbtn.c ****             case LV_IMGBTN_STATE_PRESSED:
 331:Drivers/lvgl/lvgl/src/extra/widgets/imgbtn/lv_imgbtn.c ****                 if(imgbtn->img_src_mid[LV_IMGBTN_STATE_RELEASED]) return LV_IMGBTN_STATE_RELEASED;
 332:Drivers/lvgl/lvgl/src/extra/widgets/imgbtn/lv_imgbtn.c ****                 break;
 333:Drivers/lvgl/lvgl/src/extra/widgets/imgbtn/lv_imgbtn.c ****             case LV_IMGBTN_STATE_CHECKED_RELEASED:
 334:Drivers/lvgl/lvgl/src/extra/widgets/imgbtn/lv_imgbtn.c ****                 if(imgbtn->img_src_mid[LV_IMGBTN_STATE_RELEASED]) return LV_IMGBTN_STATE_RELEASED;
 335:Drivers/lvgl/lvgl/src/extra/widgets/imgbtn/lv_imgbtn.c ****                 break;
 336:Drivers/lvgl/lvgl/src/extra/widgets/imgbtn/lv_imgbtn.c ****             case LV_IMGBTN_STATE_CHECKED_PRESSED:
 337:Drivers/lvgl/lvgl/src/extra/widgets/imgbtn/lv_imgbtn.c ****                 if(imgbtn->img_src_mid[LV_IMGBTN_STATE_CHECKED_RELEASED]) return LV_IMGBTN_STATE_CH
 338:Drivers/lvgl/lvgl/src/extra/widgets/imgbtn/lv_imgbtn.c ****                 if(imgbtn->img_src_mid[LV_IMGBTN_STATE_PRESSED]) return LV_IMGBTN_STATE_PRESSED;
 339:Drivers/lvgl/lvgl/src/extra/widgets/imgbtn/lv_imgbtn.c ****                 if(imgbtn->img_src_mid[LV_IMGBTN_STATE_RELEASED]) return LV_IMGBTN_STATE_RELEASED;
 340:Drivers/lvgl/lvgl/src/extra/widgets/imgbtn/lv_imgbtn.c ****                 break;
 341:Drivers/lvgl/lvgl/src/extra/widgets/imgbtn/lv_imgbtn.c ****             case LV_IMGBTN_STATE_DISABLED:
 342:Drivers/lvgl/lvgl/src/extra/widgets/imgbtn/lv_imgbtn.c ****                 if(imgbtn->img_src_mid[LV_IMGBTN_STATE_RELEASED]) return LV_IMGBTN_STATE_RELEASED;
 343:Drivers/lvgl/lvgl/src/extra/widgets/imgbtn/lv_imgbtn.c ****                 break;
 344:Drivers/lvgl/lvgl/src/extra/widgets/imgbtn/lv_imgbtn.c ****             case LV_IMGBTN_STATE_CHECKED_DISABLED:
 345:Drivers/lvgl/lvgl/src/extra/widgets/imgbtn/lv_imgbtn.c ****                 if(imgbtn->img_src_mid[LV_IMGBTN_STATE_CHECKED_RELEASED]) return LV_IMGBTN_STATE_CH
 346:Drivers/lvgl/lvgl/src/extra/widgets/imgbtn/lv_imgbtn.c ****                 if(imgbtn->img_src_mid[LV_IMGBTN_STATE_RELEASED]) return LV_IMGBTN_STATE_RELEASED;
 347:Drivers/lvgl/lvgl/src/extra/widgets/imgbtn/lv_imgbtn.c ****                 break;
 348:Drivers/lvgl/lvgl/src/extra/widgets/imgbtn/lv_imgbtn.c ****             default:
 349:Drivers/lvgl/lvgl/src/extra/widgets/imgbtn/lv_imgbtn.c ****                 break;
 350:Drivers/lvgl/lvgl/src/extra/widgets/imgbtn/lv_imgbtn.c ****         }
 351:Drivers/lvgl/lvgl/src/extra/widgets/imgbtn/lv_imgbtn.c ****     }
 352:Drivers/lvgl/lvgl/src/extra/widgets/imgbtn/lv_imgbtn.c **** 
 353:Drivers/lvgl/lvgl/src/extra/widgets/imgbtn/lv_imgbtn.c ****     return state;
 354:Drivers/lvgl/lvgl/src/extra/widgets/imgbtn/lv_imgbtn.c **** }
  39              		.loc 1 354 0
  40 000c 0846     		mov	r0, r1
  41              	.LVL2:
  42 000e 7047     		bx	lr
  43              	.LVL3:
  44              	.L17:
 329:Drivers/lvgl/lvgl/src/extra/widgets/imgbtn/lv_imgbtn.c ****         switch(state) {
  45              		.loc 1 329 0
ARM GAS  /tmp/ccJyF0Mv.s 			page 8


  46 0010 4B1E     		subs	r3, r1, #1
  47 0012 042B     		cmp	r3, #4
  48 0014 FAD8     		bhi	.L2
  49 0016 DFE803F0 		tbb	[pc, r3]
  50              	.L4:
  51 001a 03       		.byte	(.L3-.L4)/2
  52 001b 1A       		.byte	(.L5-.L4)/2
  53 001c 08       		.byte	(.L6-.L4)/2
  54 001d 0D       		.byte	(.L7-.L4)/2
  55 001e 1F       		.byte	(.L8-.L4)/2
  56 001f 00       		.p2align 1
  57              	.L3:
 331:Drivers/lvgl/lvgl/src/extra/widgets/imgbtn/lv_imgbtn.c ****                 break;
  58              		.loc 1 331 0
  59 0020 436A     		ldr	r3, [r0, #36]
  60 0022 002B     		cmp	r3, #0
  61 0024 F2D0     		beq	.L2
  62 0026 0021     		movs	r1, #0
  63              	.LVL4:
  64 0028 F0E7     		b	.L2
  65              	.LVL5:
  66              	.L6:
 334:Drivers/lvgl/lvgl/src/extra/widgets/imgbtn/lv_imgbtn.c ****                 break;
  67              		.loc 1 334 0
  68 002a 436A     		ldr	r3, [r0, #36]
  69 002c 002B     		cmp	r3, #0
  70 002e EDD0     		beq	.L2
  71 0030 0021     		movs	r1, #0
  72              	.LVL6:
  73 0032 EBE7     		b	.L2
  74              	.LVL7:
  75              	.L7:
 337:Drivers/lvgl/lvgl/src/extra/widgets/imgbtn/lv_imgbtn.c ****                 if(imgbtn->img_src_mid[LV_IMGBTN_STATE_PRESSED]) return LV_IMGBTN_STATE_PRESSED;
  76              		.loc 1 337 0
  77 0034 036B     		ldr	r3, [r0, #48]
  78 0036 0BB1     		cbz	r3, .L18
  79 0038 0321     		movs	r1, #3
  80              	.LVL8:
  81 003a E7E7     		b	.L2
  82              	.LVL9:
  83              	.L18:
 338:Drivers/lvgl/lvgl/src/extra/widgets/imgbtn/lv_imgbtn.c ****                 if(imgbtn->img_src_mid[LV_IMGBTN_STATE_RELEASED]) return LV_IMGBTN_STATE_RELEASED;
  84              		.loc 1 338 0
  85 003c 836A     		ldr	r3, [r0, #40]
  86 003e 0BB1     		cbz	r3, .L19
  87 0040 0121     		movs	r1, #1
  88              	.LVL10:
  89 0042 E3E7     		b	.L2
  90              	.LVL11:
  91              	.L19:
 339:Drivers/lvgl/lvgl/src/extra/widgets/imgbtn/lv_imgbtn.c ****                 break;
  92              		.loc 1 339 0
  93 0044 436A     		ldr	r3, [r0, #36]
  94 0046 002B     		cmp	r3, #0
  95 0048 E0D0     		beq	.L2
  96 004a 0021     		movs	r1, #0
  97              	.LVL12:
ARM GAS  /tmp/ccJyF0Mv.s 			page 9


  98 004c DEE7     		b	.L2
  99              	.LVL13:
 100              	.L5:
 342:Drivers/lvgl/lvgl/src/extra/widgets/imgbtn/lv_imgbtn.c ****                 break;
 101              		.loc 1 342 0
 102 004e 436A     		ldr	r3, [r0, #36]
 103 0050 002B     		cmp	r3, #0
 104 0052 DBD0     		beq	.L2
 105 0054 0021     		movs	r1, #0
 106              	.LVL14:
 107 0056 D9E7     		b	.L2
 108              	.LVL15:
 109              	.L8:
 345:Drivers/lvgl/lvgl/src/extra/widgets/imgbtn/lv_imgbtn.c ****                 if(imgbtn->img_src_mid[LV_IMGBTN_STATE_RELEASED]) return LV_IMGBTN_STATE_RELEASED;
 110              		.loc 1 345 0
 111 0058 036B     		ldr	r3, [r0, #48]
 112 005a 0BB1     		cbz	r3, .L20
 113 005c 0321     		movs	r1, #3
 114              	.LVL16:
 115 005e D5E7     		b	.L2
 116              	.LVL17:
 117              	.L20:
 346:Drivers/lvgl/lvgl/src/extra/widgets/imgbtn/lv_imgbtn.c ****                 break;
 118              		.loc 1 346 0
 119 0060 436A     		ldr	r3, [r0, #36]
 120 0062 002B     		cmp	r3, #0
 121 0064 D2D0     		beq	.L2
 122 0066 0021     		movs	r1, #0
 123              	.LVL18:
 124 0068 D0E7     		b	.L2
 125              		.cfi_endproc
 126              	.LFE212:
 128              		.section	.text.lv_imgbtn_constructor,"ax",%progbits
 129              		.align	1
 130              		.syntax unified
 131              		.thumb
 132              		.thumb_func
 133              		.fpu fpv5-d16
 135              	lv_imgbtn_constructor:
 136              	.LFB208:
 165:Drivers/lvgl/lvgl/src/extra/widgets/imgbtn/lv_imgbtn.c ****     LV_UNUSED(class_p);
 137              		.loc 1 165 0
 138              		.cfi_startproc
 139              		@ args = 0, pretend = 0, frame = 0
 140              		@ frame_needed = 0, uses_anonymous_args = 0
 141              	.LVL19:
 142 0000 10B5     		push	{r4, lr}
 143              	.LCFI0:
 144              		.cfi_def_cfa_offset 8
 145              		.cfi_offset 4, -8
 146              		.cfi_offset 14, -4
 147 0002 0C46     		mov	r4, r1
 148              	.LVL20:
 169:Drivers/lvgl/lvgl/src/extra/widgets/imgbtn/lv_imgbtn.c ****     lv_memset_00(imgbtn->img_src_left, sizeof(imgbtn->img_src_left));
 149              		.loc 1 169 0
 150 0004 1821     		movs	r1, #24
 151              	.LVL21:
ARM GAS  /tmp/ccJyF0Mv.s 			page 10


 152 0006 04F12400 		add	r0, r4, #36
 153              	.LVL22:
 154 000a FFF7FEFF 		bl	lv_memset_00
 155              	.LVL23:
 170:Drivers/lvgl/lvgl/src/extra/widgets/imgbtn/lv_imgbtn.c ****     lv_memset_00(imgbtn->img_src_right, sizeof(imgbtn->img_src_right));
 156              		.loc 1 170 0
 157 000e 1821     		movs	r1, #24
 158 0010 04F13C00 		add	r0, r4, #60
 159 0014 FFF7FEFF 		bl	lv_memset_00
 160              	.LVL24:
 171:Drivers/lvgl/lvgl/src/extra/widgets/imgbtn/lv_imgbtn.c **** 
 161              		.loc 1 171 0
 162 0018 1821     		movs	r1, #24
 163 001a 04F15400 		add	r0, r4, #84
 164 001e FFF7FEFF 		bl	lv_memset_00
 165              	.LVL25:
 173:Drivers/lvgl/lvgl/src/extra/widgets/imgbtn/lv_imgbtn.c **** }
 166              		.loc 1 173 0
 167 0022 0023     		movs	r3, #0
 168 0024 84F86C30 		strb	r3, [r4, #108]
 174:Drivers/lvgl/lvgl/src/extra/widgets/imgbtn/lv_imgbtn.c **** 
 169              		.loc 1 174 0
 170 0028 10BD     		pop	{r4, pc}
 171              		.cfi_endproc
 172              	.LFE208:
 174              		.section	.text.lv_imgbtn_create,"ax",%progbits
 175              		.align	1
 176              		.global	lv_imgbtn_create
 177              		.syntax unified
 178              		.thumb
 179              		.thumb_func
 180              		.fpu fpv5-d16
 182              	lv_imgbtn_create:
 183              	.LFB202:
  57:Drivers/lvgl/lvgl/src/extra/widgets/imgbtn/lv_imgbtn.c ****     LV_LOG_INFO("begin");
 184              		.loc 1 57 0
 185              		.cfi_startproc
 186              		@ args = 0, pretend = 0, frame = 0
 187              		@ frame_needed = 0, uses_anonymous_args = 0
 188              	.LVL26:
 189 0000 10B5     		push	{r4, lr}
 190              	.LCFI1:
 191              		.cfi_def_cfa_offset 8
 192              		.cfi_offset 4, -8
 193              		.cfi_offset 14, -4
  59:Drivers/lvgl/lvgl/src/extra/widgets/imgbtn/lv_imgbtn.c ****     lv_obj_class_init_obj(obj);
 194              		.loc 1 59 0
 195 0002 0146     		mov	r1, r0
 196 0004 0348     		ldr	r0, .L25
 197              	.LVL27:
 198 0006 FFF7FEFF 		bl	lv_obj_class_create_obj
 199              	.LVL28:
 200 000a 0446     		mov	r4, r0
 201              	.LVL29:
  60:Drivers/lvgl/lvgl/src/extra/widgets/imgbtn/lv_imgbtn.c ****     return obj;
 202              		.loc 1 60 0
 203 000c FFF7FEFF 		bl	lv_obj_class_init_obj
ARM GAS  /tmp/ccJyF0Mv.s 			page 11


 204              	.LVL30:
  62:Drivers/lvgl/lvgl/src/extra/widgets/imgbtn/lv_imgbtn.c **** 
 205              		.loc 1 62 0
 206 0010 2046     		mov	r0, r4
 207 0012 10BD     		pop	{r4, pc}
 208              	.LVL31:
 209              	.L26:
 210              		.align	2
 211              	.L25:
 212 0014 00000000 		.word	.LANCHOR0
 213              		.cfi_endproc
 214              	.LFE202:
 216              		.section	.text.lv_imgbtn_get_src_left,"ax",%progbits
 217              		.align	1
 218              		.global	lv_imgbtn_get_src_left
 219              		.syntax unified
 220              		.thumb
 221              		.thumb_func
 222              		.fpu fpv5-d16
 224              	lv_imgbtn_get_src_left:
 225              	.LFB205:
 123:Drivers/lvgl/lvgl/src/extra/widgets/imgbtn/lv_imgbtn.c ****     LV_ASSERT_OBJ(obj, MY_CLASS);
 226              		.loc 1 123 0
 227              		.cfi_startproc
 228              		@ args = 0, pretend = 0, frame = 0
 229              		@ frame_needed = 0, uses_anonymous_args = 0
 230              		@ link register save eliminated.
 231              	.LVL32:
 128:Drivers/lvgl/lvgl/src/extra/widgets/imgbtn/lv_imgbtn.c **** }
 232              		.loc 1 128 0
 233 0000 0E31     		adds	r1, r1, #14
 234              	.LVL33:
 235 0002 00EB8101 		add	r1, r0, r1, lsl #2
 129:Drivers/lvgl/lvgl/src/extra/widgets/imgbtn/lv_imgbtn.c **** 
 236              		.loc 1 129 0
 237 0006 4868     		ldr	r0, [r1, #4]
 238              	.LVL34:
 239 0008 7047     		bx	lr
 240              		.cfi_endproc
 241              	.LFE205:
 243              		.section	.text.lv_imgbtn_get_src_middle,"ax",%progbits
 244              		.align	1
 245              		.global	lv_imgbtn_get_src_middle
 246              		.syntax unified
 247              		.thumb
 248              		.thumb_func
 249              		.fpu fpv5-d16
 251              	lv_imgbtn_get_src_middle:
 252              	.LFB206:
 138:Drivers/lvgl/lvgl/src/extra/widgets/imgbtn/lv_imgbtn.c ****     LV_ASSERT_OBJ(obj, MY_CLASS);
 253              		.loc 1 138 0
 254              		.cfi_startproc
 255              		@ args = 0, pretend = 0, frame = 0
 256              		@ frame_needed = 0, uses_anonymous_args = 0
 257              		@ link register save eliminated.
 258              	.LVL35:
 142:Drivers/lvgl/lvgl/src/extra/widgets/imgbtn/lv_imgbtn.c **** }
ARM GAS  /tmp/ccJyF0Mv.s 			page 12


 259              		.loc 1 142 0
 260 0000 0831     		adds	r1, r1, #8
 261              	.LVL36:
 262 0002 00EB8101 		add	r1, r0, r1, lsl #2
 143:Drivers/lvgl/lvgl/src/extra/widgets/imgbtn/lv_imgbtn.c **** 
 263              		.loc 1 143 0
 264 0006 4868     		ldr	r0, [r1, #4]
 265              	.LVL37:
 266 0008 7047     		bx	lr
 267              		.cfi_endproc
 268              	.LFE206:
 270              		.section	.text.lv_imgbtn_get_src_right,"ax",%progbits
 271              		.align	1
 272              		.global	lv_imgbtn_get_src_right
 273              		.syntax unified
 274              		.thumb
 275              		.thumb_func
 276              		.fpu fpv5-d16
 278              	lv_imgbtn_get_src_right:
 279              	.LFB207:
 152:Drivers/lvgl/lvgl/src/extra/widgets/imgbtn/lv_imgbtn.c ****     LV_ASSERT_OBJ(obj, MY_CLASS);
 280              		.loc 1 152 0
 281              		.cfi_startproc
 282              		@ args = 0, pretend = 0, frame = 0
 283              		@ frame_needed = 0, uses_anonymous_args = 0
 284              		@ link register save eliminated.
 285              	.LVL38:
 156:Drivers/lvgl/lvgl/src/extra/widgets/imgbtn/lv_imgbtn.c **** }
 286              		.loc 1 156 0
 287 0000 1431     		adds	r1, r1, #20
 288              	.LVL39:
 289 0002 00EB8101 		add	r1, r0, r1, lsl #2
 157:Drivers/lvgl/lvgl/src/extra/widgets/imgbtn/lv_imgbtn.c **** 
 290              		.loc 1 157 0
 291 0006 4868     		ldr	r0, [r1, #4]
 292              	.LVL40:
 293 0008 7047     		bx	lr
 294              		.cfi_endproc
 295              	.LFE207:
 297              		.section	.text.get_state,"ax",%progbits
 298              		.align	1
 299              		.global	get_state
 300              		.syntax unified
 301              		.thumb
 302              		.thumb_func
 303              		.fpu fpv5-d16
 305              	get_state:
 306              	.LFB213:
 355:Drivers/lvgl/lvgl/src/extra/widgets/imgbtn/lv_imgbtn.c **** 
 356:Drivers/lvgl/lvgl/src/extra/widgets/imgbtn/lv_imgbtn.c **** lv_imgbtn_state_t get_state(const lv_obj_t * imgbtn)
 357:Drivers/lvgl/lvgl/src/extra/widgets/imgbtn/lv_imgbtn.c **** {
 307              		.loc 1 357 0
 308              		.cfi_startproc
 309              		@ args = 0, pretend = 0, frame = 0
 310              		@ frame_needed = 0, uses_anonymous_args = 0
 311              	.LVL41:
 312 0000 08B5     		push	{r3, lr}
ARM GAS  /tmp/ccJyF0Mv.s 			page 13


 313              	.LCFI2:
 314              		.cfi_def_cfa_offset 8
 315              		.cfi_offset 3, -8
 316              		.cfi_offset 14, -4
 358:Drivers/lvgl/lvgl/src/extra/widgets/imgbtn/lv_imgbtn.c ****     LV_ASSERT_OBJ(imgbtn, MY_CLASS);
 359:Drivers/lvgl/lvgl/src/extra/widgets/imgbtn/lv_imgbtn.c **** 
 360:Drivers/lvgl/lvgl/src/extra/widgets/imgbtn/lv_imgbtn.c ****     lv_state_t obj_state = lv_obj_get_state(imgbtn);
 317              		.loc 1 360 0
 318 0002 FFF7FEFF 		bl	lv_obj_get_state
 319              	.LVL42:
 361:Drivers/lvgl/lvgl/src/extra/widgets/imgbtn/lv_imgbtn.c **** 
 362:Drivers/lvgl/lvgl/src/extra/widgets/imgbtn/lv_imgbtn.c ****     if(obj_state & LV_STATE_DISABLED) {
 320              		.loc 1 362 0
 321 0006 10F0800F 		tst	r0, #128
 322 000a 04D0     		beq	.L31
 363:Drivers/lvgl/lvgl/src/extra/widgets/imgbtn/lv_imgbtn.c ****         if(obj_state & LV_STATE_CHECKED) return LV_IMGBTN_STATE_CHECKED_DISABLED;
 323              		.loc 1 363 0
 324 000c 10F0010F 		tst	r0, #1
 325 0010 10D0     		beq	.L34
 326 0012 0520     		movs	r0, #5
 327              	.LVL43:
 328              	.L32:
 364:Drivers/lvgl/lvgl/src/extra/widgets/imgbtn/lv_imgbtn.c ****         else return LV_IMGBTN_STATE_DISABLED;
 365:Drivers/lvgl/lvgl/src/extra/widgets/imgbtn/lv_imgbtn.c ****     }
 366:Drivers/lvgl/lvgl/src/extra/widgets/imgbtn/lv_imgbtn.c **** 
 367:Drivers/lvgl/lvgl/src/extra/widgets/imgbtn/lv_imgbtn.c ****     if(obj_state & LV_STATE_CHECKED) {
 368:Drivers/lvgl/lvgl/src/extra/widgets/imgbtn/lv_imgbtn.c ****         if(obj_state & LV_STATE_PRESSED) return LV_IMGBTN_STATE_CHECKED_PRESSED;
 369:Drivers/lvgl/lvgl/src/extra/widgets/imgbtn/lv_imgbtn.c ****         else return LV_IMGBTN_STATE_CHECKED_RELEASED;
 370:Drivers/lvgl/lvgl/src/extra/widgets/imgbtn/lv_imgbtn.c ****     }
 371:Drivers/lvgl/lvgl/src/extra/widgets/imgbtn/lv_imgbtn.c ****     else {
 372:Drivers/lvgl/lvgl/src/extra/widgets/imgbtn/lv_imgbtn.c ****         if(obj_state & LV_STATE_PRESSED) return LV_IMGBTN_STATE_PRESSED;
 373:Drivers/lvgl/lvgl/src/extra/widgets/imgbtn/lv_imgbtn.c ****         else return LV_IMGBTN_STATE_RELEASED;
 374:Drivers/lvgl/lvgl/src/extra/widgets/imgbtn/lv_imgbtn.c ****     }
 375:Drivers/lvgl/lvgl/src/extra/widgets/imgbtn/lv_imgbtn.c **** }
 329              		.loc 1 375 0
 330 0014 08BD     		pop	{r3, pc}
 331              	.LVL44:
 332              	.L31:
 367:Drivers/lvgl/lvgl/src/extra/widgets/imgbtn/lv_imgbtn.c ****         if(obj_state & LV_STATE_PRESSED) return LV_IMGBTN_STATE_CHECKED_PRESSED;
 333              		.loc 1 367 0
 334 0016 10F0010F 		tst	r0, #1
 335 001a 04D0     		beq	.L33
 368:Drivers/lvgl/lvgl/src/extra/widgets/imgbtn/lv_imgbtn.c ****         else return LV_IMGBTN_STATE_CHECKED_RELEASED;
 336              		.loc 1 368 0
 337 001c 10F0200F 		tst	r0, #32
 338 0020 0AD0     		beq	.L35
 339 0022 0420     		movs	r0, #4
 340              	.LVL45:
 341 0024 F6E7     		b	.L32
 342              	.LVL46:
 343              	.L33:
 372:Drivers/lvgl/lvgl/src/extra/widgets/imgbtn/lv_imgbtn.c ****         else return LV_IMGBTN_STATE_RELEASED;
 344              		.loc 1 372 0
 345 0026 10F0200F 		tst	r0, #32
 346 002a 01D1     		bne	.L38
 373:Drivers/lvgl/lvgl/src/extra/widgets/imgbtn/lv_imgbtn.c ****     }
 347              		.loc 1 373 0
ARM GAS  /tmp/ccJyF0Mv.s 			page 14


 348 002c 0020     		movs	r0, #0
 349              	.LVL47:
 350 002e F1E7     		b	.L32
 351              	.LVL48:
 352              	.L38:
 372:Drivers/lvgl/lvgl/src/extra/widgets/imgbtn/lv_imgbtn.c ****         else return LV_IMGBTN_STATE_RELEASED;
 353              		.loc 1 372 0
 354 0030 0120     		movs	r0, #1
 355              	.LVL49:
 356 0032 EFE7     		b	.L32
 357              	.LVL50:
 358              	.L34:
 364:Drivers/lvgl/lvgl/src/extra/widgets/imgbtn/lv_imgbtn.c ****     }
 359              		.loc 1 364 0
 360 0034 0220     		movs	r0, #2
 361              	.LVL51:
 362 0036 EDE7     		b	.L32
 363              	.LVL52:
 364              	.L35:
 369:Drivers/lvgl/lvgl/src/extra/widgets/imgbtn/lv_imgbtn.c ****     }
 365              		.loc 1 369 0
 366 0038 0320     		movs	r0, #3
 367              	.LVL53:
 368 003a EBE7     		b	.L32
 369              		.cfi_endproc
 370              	.LFE213:
 372              		.section	.text.refr_img,"ax",%progbits
 373              		.align	1
 374              		.syntax unified
 375              		.thumb
 376              		.thumb_func
 377              		.fpu fpv5-d16
 379              	refr_img:
 380              	.LFB211:
 295:Drivers/lvgl/lvgl/src/extra/widgets/imgbtn/lv_imgbtn.c ****     lv_imgbtn_t * imgbtn = (lv_imgbtn_t *)obj;
 381              		.loc 1 295 0
 382              		.cfi_startproc
 383              		@ args = 0, pretend = 0, frame = 8
 384              		@ frame_needed = 0, uses_anonymous_args = 0
 385              	.LVL54:
 386 0000 10B5     		push	{r4, lr}
 387              	.LCFI3:
 388              		.cfi_def_cfa_offset 8
 389              		.cfi_offset 4, -8
 390              		.cfi_offset 14, -4
 391 0002 82B0     		sub	sp, sp, #8
 392              	.LCFI4:
 393              		.cfi_def_cfa_offset 16
 394 0004 0446     		mov	r4, r0
 395              	.LVL55:
 297:Drivers/lvgl/lvgl/src/extra/widgets/imgbtn/lv_imgbtn.c ****     lv_img_header_t header;
 396              		.loc 1 297 0
 397 0006 FFF7FEFF 		bl	get_state
 398              	.LVL56:
 399 000a 0146     		mov	r1, r0
 400 000c 2046     		mov	r0, r4
 401 000e FFF7FEFF 		bl	suggest_state
ARM GAS  /tmp/ccJyF0Mv.s 			page 15


 402              	.LVL57:
 300:Drivers/lvgl/lvgl/src/extra/widgets/imgbtn/lv_imgbtn.c ****     if(src == NULL) return;
 403              		.loc 1 300 0
 404 0012 0830     		adds	r0, r0, #8
 405              	.LVL58:
 406 0014 04EB8000 		add	r0, r4, r0, lsl #2
 407 0018 4068     		ldr	r0, [r0, #4]
 408              	.LVL59:
 301:Drivers/lvgl/lvgl/src/extra/widgets/imgbtn/lv_imgbtn.c **** 
 409              		.loc 1 301 0
 410 001a 50B1     		cbz	r0, .L39
 411              	.LVL60:
 304:Drivers/lvgl/lvgl/src/extra/widgets/imgbtn/lv_imgbtn.c **** 
 412              		.loc 1 304 0
 413 001c 01A9     		add	r1, sp, #4
 414 001e FFF7FEFF 		bl	lv_img_decoder_get_info
 415              	.LVL61:
 306:Drivers/lvgl/lvgl/src/extra/widgets/imgbtn/lv_imgbtn.c ****         imgbtn->act_cf = header.cf;
 416              		.loc 1 306 0
 417 0022 0128     		cmp	r0, #1
 418 0024 07D0     		beq	.L45
 312:Drivers/lvgl/lvgl/src/extra/widgets/imgbtn/lv_imgbtn.c ****     }
 419              		.loc 1 312 0
 420 0026 0023     		movs	r3, #0
 421 0028 84F86C30 		strb	r3, [r4, #108]
 422              	.LVL62:
 423              	.L42:
 315:Drivers/lvgl/lvgl/src/extra/widgets/imgbtn/lv_imgbtn.c **** }
 424              		.loc 1 315 0
 425 002c 2046     		mov	r0, r4
 426 002e FFF7FEFF 		bl	lv_obj_invalidate
 427              	.LVL63:
 428              	.L39:
 316:Drivers/lvgl/lvgl/src/extra/widgets/imgbtn/lv_imgbtn.c **** 
 429              		.loc 1 316 0
 430 0032 02B0     		add	sp, sp, #8
 431              	.LCFI5:
 432              		.cfi_remember_state
 433              		.cfi_def_cfa_offset 8
 434              		@ sp needed
 435 0034 10BD     		pop	{r4, pc}
 436              	.LVL64:
 437              	.L45:
 438              	.LCFI6:
 439              		.cfi_restore_state
 307:Drivers/lvgl/lvgl/src/extra/widgets/imgbtn/lv_imgbtn.c ****         lv_obj_refresh_self_size(obj);
 440              		.loc 1 307 0
 441 0036 9DF80430 		ldrb	r3, [sp, #4]	@ zero_extendqisi2
 442 003a C3F30403 		ubfx	r3, r3, #0, #5
 443 003e 84F86C30 		strb	r3, [r4, #108]
 308:Drivers/lvgl/lvgl/src/extra/widgets/imgbtn/lv_imgbtn.c ****         lv_obj_set_height(obj, header.h); /*Keep the user defined width*/
 444              		.loc 1 308 0
 445 0042 2046     		mov	r0, r4
 446              	.LVL65:
 447 0044 FFF7FEFF 		bl	lv_obj_refresh_self_size
 448              	.LVL66:
 309:Drivers/lvgl/lvgl/src/extra/widgets/imgbtn/lv_imgbtn.c ****     }
ARM GAS  /tmp/ccJyF0Mv.s 			page 16


 449              		.loc 1 309 0
 450 0048 BDF80610 		ldrh	r1, [sp, #6]
 451 004c 4909     		lsrs	r1, r1, #5
 452 004e 2046     		mov	r0, r4
 453 0050 FFF7FEFF 		bl	lv_obj_set_height
 454              	.LVL67:
 455 0054 EAE7     		b	.L42
 456              		.cfi_endproc
 457              	.LFE211:
 459              		.section	.text.lv_imgbtn_set_src,"ax",%progbits
 460              		.align	1
 461              		.global	lv_imgbtn_set_src
 462              		.syntax unified
 463              		.thumb
 464              		.thumb_func
 465              		.fpu fpv5-d16
 467              	lv_imgbtn_set_src:
 468              	.LFB203:
  81:Drivers/lvgl/lvgl/src/extra/widgets/imgbtn/lv_imgbtn.c ****     LV_ASSERT_OBJ(obj, MY_CLASS);
 469              		.loc 1 81 0
 470              		.cfi_startproc
 471              		@ args = 4, pretend = 0, frame = 0
 472              		@ frame_needed = 0, uses_anonymous_args = 0
 473              	.LVL68:
 474 0000 38B5     		push	{r3, r4, r5, lr}
 475              	.LCFI7:
 476              		.cfi_def_cfa_offset 16
 477              		.cfi_offset 3, -16
 478              		.cfi_offset 4, -12
 479              		.cfi_offset 5, -8
 480              		.cfi_offset 14, -4
 481              	.LVL69:
  86:Drivers/lvgl/lvgl/src/extra/widgets/imgbtn/lv_imgbtn.c ****     imgbtn->img_src_mid[state] = src_mid;
 482              		.loc 1 86 0
 483 0002 01F10E05 		add	r5, r1, #14
 484 0006 00EB8505 		add	r5, r0, r5, lsl #2
 485 000a 6A60     		str	r2, [r5, #4]
  87:Drivers/lvgl/lvgl/src/extra/widgets/imgbtn/lv_imgbtn.c ****     imgbtn->img_src_right[state] = src_right;
 486              		.loc 1 87 0
 487 000c 01F10802 		add	r2, r1, #8
 488              	.LVL70:
 489 0010 00EB8202 		add	r2, r0, r2, lsl #2
 490 0014 5360     		str	r3, [r2, #4]
 491              	.LVL71:
  88:Drivers/lvgl/lvgl/src/extra/widgets/imgbtn/lv_imgbtn.c **** 
 492              		.loc 1 88 0
 493 0016 1431     		adds	r1, r1, #20
 494              	.LVL72:
 495 0018 00EB8104 		add	r4, r0, r1, lsl #2
 496 001c 049B     		ldr	r3, [sp, #16]
 497              	.LVL73:
 498 001e 6360     		str	r3, [r4, #4]
 499              	.LVL74:
  90:Drivers/lvgl/lvgl/src/extra/widgets/imgbtn/lv_imgbtn.c **** }
 500              		.loc 1 90 0
 501 0020 FFF7FEFF 		bl	refr_img
 502              	.LVL75:
ARM GAS  /tmp/ccJyF0Mv.s 			page 17


  91:Drivers/lvgl/lvgl/src/extra/widgets/imgbtn/lv_imgbtn.c **** 
 503              		.loc 1 91 0
 504 0024 38BD     		pop	{r3, r4, r5, pc}
 505              		.cfi_endproc
 506              	.LFE203:
 508              		.section	.text.lv_imgbtn_set_state,"ax",%progbits
 509              		.align	1
 510              		.global	lv_imgbtn_set_state
 511              		.syntax unified
 512              		.thumb
 513              		.thumb_func
 514              		.fpu fpv5-d16
 516              	lv_imgbtn_set_state:
 517              	.LFB204:
  94:Drivers/lvgl/lvgl/src/extra/widgets/imgbtn/lv_imgbtn.c ****     LV_ASSERT_OBJ(obj, MY_CLASS);
 518              		.loc 1 94 0
 519              		.cfi_startproc
 520              		@ args = 0, pretend = 0, frame = 0
 521              		@ frame_needed = 0, uses_anonymous_args = 0
 522              	.LVL76:
 523 0000 38B5     		push	{r3, r4, r5, lr}
 524              	.LCFI8:
 525              		.cfi_def_cfa_offset 16
 526              		.cfi_offset 3, -16
 527              		.cfi_offset 4, -12
 528              		.cfi_offset 5, -8
 529              		.cfi_offset 14, -4
 530 0002 0546     		mov	r5, r0
 531              	.LVL77:
  98:Drivers/lvgl/lvgl/src/extra/widgets/imgbtn/lv_imgbtn.c ****     if(state == LV_IMGBTN_STATE_DISABLED || state == LV_IMGBTN_STATE_CHECKED_DISABLED) obj_state |=
 532              		.loc 1 98 0
 533 0004 0429     		cmp	r1, #4
 534 0006 18BF     		it	ne
 535 0008 0129     		cmpne	r1, #1
 536 000a 18D0     		beq	.L52
  97:Drivers/lvgl/lvgl/src/extra/widgets/imgbtn/lv_imgbtn.c ****     if(state == LV_IMGBTN_STATE_PRESSED || state == LV_IMGBTN_STATE_CHECKED_PRESSED) obj_state |= L
 537              		.loc 1 97 0
 538 000c 0024     		movs	r4, #0
 539              	.L49:
 540              	.LVL78:
  99:Drivers/lvgl/lvgl/src/extra/widgets/imgbtn/lv_imgbtn.c ****     if(state == LV_IMGBTN_STATE_CHECKED_DISABLED || state == LV_IMGBTN_STATE_CHECKED_PRESSED ||
 541              		.loc 1 99 0
 542 000e 0529     		cmp	r1, #5
 543 0010 18BF     		it	ne
 544 0012 0229     		cmpne	r1, #2
 545 0014 01D1     		bne	.L50
  99:Drivers/lvgl/lvgl/src/extra/widgets/imgbtn/lv_imgbtn.c ****     if(state == LV_IMGBTN_STATE_CHECKED_DISABLED || state == LV_IMGBTN_STATE_CHECKED_PRESSED ||
 546              		.loc 1 99 0 is_stmt 0 discriminator 1
 547 0016 44F08004 		orr	r4, r4, #128
 548              	.LVL79:
 549              	.L50:
 100:Drivers/lvgl/lvgl/src/extra/widgets/imgbtn/lv_imgbtn.c ****        state == LV_IMGBTN_STATE_CHECKED_RELEASED) {
 550              		.loc 1 100 0 is_stmt 1
 551 001a 0339     		subs	r1, r1, #3
 552              	.LVL80:
 553 001c C9B2     		uxtb	r1, r1
 554 001e 0229     		cmp	r1, #2
ARM GAS  /tmp/ccJyF0Mv.s 			page 18


 555 0020 01D8     		bhi	.L51
 102:Drivers/lvgl/lvgl/src/extra/widgets/imgbtn/lv_imgbtn.c ****     }
 556              		.loc 1 102 0
 557 0022 44F00104 		orr	r4, r4, #1
 558              	.LVL81:
 559              	.L51:
 105:Drivers/lvgl/lvgl/src/extra/widgets/imgbtn/lv_imgbtn.c ****     lv_obj_add_state(obj, obj_state);
 560              		.loc 1 105 0
 561 0026 A121     		movs	r1, #161
 562 0028 2846     		mov	r0, r5
 563              	.LVL82:
 564 002a FFF7FEFF 		bl	lv_obj_clear_state
 565              	.LVL83:
 106:Drivers/lvgl/lvgl/src/extra/widgets/imgbtn/lv_imgbtn.c **** 
 566              		.loc 1 106 0
 567 002e 2146     		mov	r1, r4
 568 0030 2846     		mov	r0, r5
 569 0032 FFF7FEFF 		bl	lv_obj_add_state
 570              	.LVL84:
 108:Drivers/lvgl/lvgl/src/extra/widgets/imgbtn/lv_imgbtn.c **** }
 571              		.loc 1 108 0
 572 0036 2846     		mov	r0, r5
 573 0038 FFF7FEFF 		bl	refr_img
 574              	.LVL85:
 109:Drivers/lvgl/lvgl/src/extra/widgets/imgbtn/lv_imgbtn.c **** 
 575              		.loc 1 109 0
 576 003c 38BD     		pop	{r3, r4, r5, pc}
 577              	.LVL86:
 578              	.L52:
  98:Drivers/lvgl/lvgl/src/extra/widgets/imgbtn/lv_imgbtn.c ****     if(state == LV_IMGBTN_STATE_DISABLED || state == LV_IMGBTN_STATE_CHECKED_DISABLED) obj_state |=
 579              		.loc 1 98 0
 580 003e 2024     		movs	r4, #32
 581 0040 E5E7     		b	.L49
 582              		.cfi_endproc
 583              	.LFE204:
 585              		.section	.text.draw_main,"ax",%progbits
 586              		.align	1
 587              		.syntax unified
 588              		.thumb
 589              		.thumb_func
 590              		.fpu fpv5-d16
 592              	draw_main:
 593              	.LFB210:
 211:Drivers/lvgl/lvgl/src/extra/widgets/imgbtn/lv_imgbtn.c ****     lv_obj_t * obj = lv_event_get_target(e);
 594              		.loc 1 211 0
 595              		.cfi_startproc
 596              		@ args = 0, pretend = 0, frame = 64
 597              		@ frame_needed = 0, uses_anonymous_args = 0
 598              	.LVL87:
 599 0000 2DE9F04F 		push	{r4, r5, r6, r7, r8, r9, r10, fp, lr}
 600              	.LCFI9:
 601              		.cfi_def_cfa_offset 36
 602              		.cfi_offset 4, -36
 603              		.cfi_offset 5, -32
 604              		.cfi_offset 6, -28
 605              		.cfi_offset 7, -24
 606              		.cfi_offset 8, -20
ARM GAS  /tmp/ccJyF0Mv.s 			page 19


 607              		.cfi_offset 9, -16
 608              		.cfi_offset 10, -12
 609              		.cfi_offset 11, -8
 610              		.cfi_offset 14, -4
 611 0004 91B0     		sub	sp, sp, #68
 612              	.LCFI10:
 613              		.cfi_def_cfa_offset 104
 614 0006 0546     		mov	r5, r0
 212:Drivers/lvgl/lvgl/src/extra/widgets/imgbtn/lv_imgbtn.c ****     lv_imgbtn_t * imgbtn = (lv_imgbtn_t *)obj;
 615              		.loc 1 212 0
 616 0008 FFF7FEFF 		bl	lv_event_get_target
 617              	.LVL88:
 618 000c 0446     		mov	r4, r0
 619              	.LVL89:
 214:Drivers/lvgl/lvgl/src/extra/widgets/imgbtn/lv_imgbtn.c **** 
 620              		.loc 1 214 0
 621 000e 2846     		mov	r0, r5
 622              	.LVL90:
 623 0010 FFF7FEFF 		bl	lv_event_get_draw_ctx
 624              	.LVL91:
 625 0014 0090     		str	r0, [sp]
 626              	.LVL92:
 217:Drivers/lvgl/lvgl/src/extra/widgets/imgbtn/lv_imgbtn.c **** 
 627              		.loc 1 217 0
 628 0016 2046     		mov	r0, r4
 629              	.LVL93:
 630 0018 FFF7FEFF 		bl	get_state
 631              	.LVL94:
 632 001c 0146     		mov	r1, r0
 633 001e 2046     		mov	r0, r4
 634 0020 FFF7FEFF 		bl	suggest_state
 635              	.LVL95:
 636 0024 0746     		mov	r7, r0
 637              	.LVL96:
 220:Drivers/lvgl/lvgl/src/extra/widgets/imgbtn/lv_imgbtn.c **** 
 638              		.loc 1 220 0
 639 0026 00F10E03 		add	r3, r0, #14
 640 002a 04EB8303 		add	r3, r4, r3, lsl #2
 641 002e D3F80490 		ldr	r9, [r3, #4]
 642              	.LVL97:
 643              	.LBB10:
 644              	.LBB11:
 645              		.file 2 "Drivers/lvgl/lvgl/src/extra/widgets/imgbtn/../../../../src/core/lv_obj_style_gen.h"
   1:Drivers/lvgl/lvgl/src/extra/widgets/imgbtn/../../../../src/core/lv_obj_style_gen.h **** static inline lv_coord_t lv_obj_get_style_width(const struct _lv_obj_t * obj, uint32_t part)
   2:Drivers/lvgl/lvgl/src/extra/widgets/imgbtn/../../../../src/core/lv_obj_style_gen.h **** {
   3:Drivers/lvgl/lvgl/src/extra/widgets/imgbtn/../../../../src/core/lv_obj_style_gen.h ****     lv_style_value_t v = lv_obj_get_style_prop(obj, part, LV_STYLE_WIDTH);
   4:Drivers/lvgl/lvgl/src/extra/widgets/imgbtn/../../../../src/core/lv_obj_style_gen.h ****     return (lv_coord_t)v.num;
   5:Drivers/lvgl/lvgl/src/extra/widgets/imgbtn/../../../../src/core/lv_obj_style_gen.h **** }
   6:Drivers/lvgl/lvgl/src/extra/widgets/imgbtn/../../../../src/core/lv_obj_style_gen.h **** 
   7:Drivers/lvgl/lvgl/src/extra/widgets/imgbtn/../../../../src/core/lv_obj_style_gen.h **** static inline lv_coord_t lv_obj_get_style_min_width(const struct _lv_obj_t * obj, uint32_t part)
   8:Drivers/lvgl/lvgl/src/extra/widgets/imgbtn/../../../../src/core/lv_obj_style_gen.h **** {
   9:Drivers/lvgl/lvgl/src/extra/widgets/imgbtn/../../../../src/core/lv_obj_style_gen.h ****     lv_style_value_t v = lv_obj_get_style_prop(obj, part, LV_STYLE_MIN_WIDTH);
  10:Drivers/lvgl/lvgl/src/extra/widgets/imgbtn/../../../../src/core/lv_obj_style_gen.h ****     return (lv_coord_t)v.num;
  11:Drivers/lvgl/lvgl/src/extra/widgets/imgbtn/../../../../src/core/lv_obj_style_gen.h **** }
  12:Drivers/lvgl/lvgl/src/extra/widgets/imgbtn/../../../../src/core/lv_obj_style_gen.h **** 
  13:Drivers/lvgl/lvgl/src/extra/widgets/imgbtn/../../../../src/core/lv_obj_style_gen.h **** static inline lv_coord_t lv_obj_get_style_max_width(const struct _lv_obj_t * obj, uint32_t part)
  14:Drivers/lvgl/lvgl/src/extra/widgets/imgbtn/../../../../src/core/lv_obj_style_gen.h **** {
ARM GAS  /tmp/ccJyF0Mv.s 			page 20


  15:Drivers/lvgl/lvgl/src/extra/widgets/imgbtn/../../../../src/core/lv_obj_style_gen.h ****     lv_style_value_t v = lv_obj_get_style_prop(obj, part, LV_STYLE_MAX_WIDTH);
  16:Drivers/lvgl/lvgl/src/extra/widgets/imgbtn/../../../../src/core/lv_obj_style_gen.h ****     return (lv_coord_t)v.num;
  17:Drivers/lvgl/lvgl/src/extra/widgets/imgbtn/../../../../src/core/lv_obj_style_gen.h **** }
  18:Drivers/lvgl/lvgl/src/extra/widgets/imgbtn/../../../../src/core/lv_obj_style_gen.h **** 
  19:Drivers/lvgl/lvgl/src/extra/widgets/imgbtn/../../../../src/core/lv_obj_style_gen.h **** static inline lv_coord_t lv_obj_get_style_height(const struct _lv_obj_t * obj, uint32_t part)
  20:Drivers/lvgl/lvgl/src/extra/widgets/imgbtn/../../../../src/core/lv_obj_style_gen.h **** {
  21:Drivers/lvgl/lvgl/src/extra/widgets/imgbtn/../../../../src/core/lv_obj_style_gen.h ****     lv_style_value_t v = lv_obj_get_style_prop(obj, part, LV_STYLE_HEIGHT);
  22:Drivers/lvgl/lvgl/src/extra/widgets/imgbtn/../../../../src/core/lv_obj_style_gen.h ****     return (lv_coord_t)v.num;
  23:Drivers/lvgl/lvgl/src/extra/widgets/imgbtn/../../../../src/core/lv_obj_style_gen.h **** }
  24:Drivers/lvgl/lvgl/src/extra/widgets/imgbtn/../../../../src/core/lv_obj_style_gen.h **** 
  25:Drivers/lvgl/lvgl/src/extra/widgets/imgbtn/../../../../src/core/lv_obj_style_gen.h **** static inline lv_coord_t lv_obj_get_style_min_height(const struct _lv_obj_t * obj, uint32_t part)
  26:Drivers/lvgl/lvgl/src/extra/widgets/imgbtn/../../../../src/core/lv_obj_style_gen.h **** {
  27:Drivers/lvgl/lvgl/src/extra/widgets/imgbtn/../../../../src/core/lv_obj_style_gen.h ****     lv_style_value_t v = lv_obj_get_style_prop(obj, part, LV_STYLE_MIN_HEIGHT);
  28:Drivers/lvgl/lvgl/src/extra/widgets/imgbtn/../../../../src/core/lv_obj_style_gen.h ****     return (lv_coord_t)v.num;
  29:Drivers/lvgl/lvgl/src/extra/widgets/imgbtn/../../../../src/core/lv_obj_style_gen.h **** }
  30:Drivers/lvgl/lvgl/src/extra/widgets/imgbtn/../../../../src/core/lv_obj_style_gen.h **** 
  31:Drivers/lvgl/lvgl/src/extra/widgets/imgbtn/../../../../src/core/lv_obj_style_gen.h **** static inline lv_coord_t lv_obj_get_style_max_height(const struct _lv_obj_t * obj, uint32_t part)
  32:Drivers/lvgl/lvgl/src/extra/widgets/imgbtn/../../../../src/core/lv_obj_style_gen.h **** {
  33:Drivers/lvgl/lvgl/src/extra/widgets/imgbtn/../../../../src/core/lv_obj_style_gen.h ****     lv_style_value_t v = lv_obj_get_style_prop(obj, part, LV_STYLE_MAX_HEIGHT);
  34:Drivers/lvgl/lvgl/src/extra/widgets/imgbtn/../../../../src/core/lv_obj_style_gen.h ****     return (lv_coord_t)v.num;
  35:Drivers/lvgl/lvgl/src/extra/widgets/imgbtn/../../../../src/core/lv_obj_style_gen.h **** }
  36:Drivers/lvgl/lvgl/src/extra/widgets/imgbtn/../../../../src/core/lv_obj_style_gen.h **** 
  37:Drivers/lvgl/lvgl/src/extra/widgets/imgbtn/../../../../src/core/lv_obj_style_gen.h **** static inline lv_coord_t lv_obj_get_style_x(const struct _lv_obj_t * obj, uint32_t part)
  38:Drivers/lvgl/lvgl/src/extra/widgets/imgbtn/../../../../src/core/lv_obj_style_gen.h **** {
  39:Drivers/lvgl/lvgl/src/extra/widgets/imgbtn/../../../../src/core/lv_obj_style_gen.h ****     lv_style_value_t v = lv_obj_get_style_prop(obj, part, LV_STYLE_X);
  40:Drivers/lvgl/lvgl/src/extra/widgets/imgbtn/../../../../src/core/lv_obj_style_gen.h ****     return (lv_coord_t)v.num;
  41:Drivers/lvgl/lvgl/src/extra/widgets/imgbtn/../../../../src/core/lv_obj_style_gen.h **** }
  42:Drivers/lvgl/lvgl/src/extra/widgets/imgbtn/../../../../src/core/lv_obj_style_gen.h **** 
  43:Drivers/lvgl/lvgl/src/extra/widgets/imgbtn/../../../../src/core/lv_obj_style_gen.h **** static inline lv_coord_t lv_obj_get_style_y(const struct _lv_obj_t * obj, uint32_t part)
  44:Drivers/lvgl/lvgl/src/extra/widgets/imgbtn/../../../../src/core/lv_obj_style_gen.h **** {
  45:Drivers/lvgl/lvgl/src/extra/widgets/imgbtn/../../../../src/core/lv_obj_style_gen.h ****     lv_style_value_t v = lv_obj_get_style_prop(obj, part, LV_STYLE_Y);
  46:Drivers/lvgl/lvgl/src/extra/widgets/imgbtn/../../../../src/core/lv_obj_style_gen.h ****     return (lv_coord_t)v.num;
  47:Drivers/lvgl/lvgl/src/extra/widgets/imgbtn/../../../../src/core/lv_obj_style_gen.h **** }
  48:Drivers/lvgl/lvgl/src/extra/widgets/imgbtn/../../../../src/core/lv_obj_style_gen.h **** 
  49:Drivers/lvgl/lvgl/src/extra/widgets/imgbtn/../../../../src/core/lv_obj_style_gen.h **** static inline lv_align_t lv_obj_get_style_align(const struct _lv_obj_t * obj, uint32_t part)
  50:Drivers/lvgl/lvgl/src/extra/widgets/imgbtn/../../../../src/core/lv_obj_style_gen.h **** {
  51:Drivers/lvgl/lvgl/src/extra/widgets/imgbtn/../../../../src/core/lv_obj_style_gen.h ****     lv_style_value_t v = lv_obj_get_style_prop(obj, part, LV_STYLE_ALIGN);
  52:Drivers/lvgl/lvgl/src/extra/widgets/imgbtn/../../../../src/core/lv_obj_style_gen.h ****     return (lv_align_t)v.num;
  53:Drivers/lvgl/lvgl/src/extra/widgets/imgbtn/../../../../src/core/lv_obj_style_gen.h **** }
  54:Drivers/lvgl/lvgl/src/extra/widgets/imgbtn/../../../../src/core/lv_obj_style_gen.h **** 
  55:Drivers/lvgl/lvgl/src/extra/widgets/imgbtn/../../../../src/core/lv_obj_style_gen.h **** static inline lv_coord_t lv_obj_get_style_transform_width(const struct _lv_obj_t * obj, uint32_t pa
  56:Drivers/lvgl/lvgl/src/extra/widgets/imgbtn/../../../../src/core/lv_obj_style_gen.h **** {
  57:Drivers/lvgl/lvgl/src/extra/widgets/imgbtn/../../../../src/core/lv_obj_style_gen.h ****     lv_style_value_t v = lv_obj_get_style_prop(obj, part, LV_STYLE_TRANSFORM_WIDTH);
 646              		.loc 2 57 0
 647 0032 6822     		movs	r2, #104
 648 0034 0021     		movs	r1, #0
 649 0036 2046     		mov	r0, r4
 650              	.LVL98:
 651 0038 FFF7FEFF 		bl	lv_obj_get_style_prop
 652              	.LVL99:
 653 003c 8346     		mov	fp, r0
 654              	.LVL100:
 655              	.LBE11:
 656              	.LBE10:
 657              	.LBB12:
 658              	.LBB13:
  58:Drivers/lvgl/lvgl/src/extra/widgets/imgbtn/../../../../src/core/lv_obj_style_gen.h ****     return (lv_coord_t)v.num;
ARM GAS  /tmp/ccJyF0Mv.s 			page 21


  59:Drivers/lvgl/lvgl/src/extra/widgets/imgbtn/../../../../src/core/lv_obj_style_gen.h **** }
  60:Drivers/lvgl/lvgl/src/extra/widgets/imgbtn/../../../../src/core/lv_obj_style_gen.h **** 
  61:Drivers/lvgl/lvgl/src/extra/widgets/imgbtn/../../../../src/core/lv_obj_style_gen.h **** static inline lv_coord_t lv_obj_get_style_transform_height(const struct _lv_obj_t * obj, uint32_t p
  62:Drivers/lvgl/lvgl/src/extra/widgets/imgbtn/../../../../src/core/lv_obj_style_gen.h **** {
  63:Drivers/lvgl/lvgl/src/extra/widgets/imgbtn/../../../../src/core/lv_obj_style_gen.h ****     lv_style_value_t v = lv_obj_get_style_prop(obj, part, LV_STYLE_TRANSFORM_HEIGHT);
 659              		.loc 2 63 0
 660 003e 6922     		movs	r2, #105
 661 0040 0021     		movs	r1, #0
 662 0042 2046     		mov	r0, r4
 663 0044 FFF7FEFF 		bl	lv_obj_get_style_prop
 664              	.LVL101:
 665              	.LBE13:
 666              	.LBE12:
 667              	.LBB14:
 668              	.LBB15:
 669              		.file 3 "Drivers/lvgl/lvgl/src/extra/widgets/imgbtn/../../../../src/hal/../draw/../misc/../font/..
   1:Drivers/lvgl/lvgl/src/extra/widgets/imgbtn/../../../../src/hal/../draw/../misc/../font/../misc/lv_area.h **** /**
   2:Drivers/lvgl/lvgl/src/extra/widgets/imgbtn/../../../../src/hal/../draw/../misc/../font/../misc/lv_area.h ****  * @file lv_area.h
   3:Drivers/lvgl/lvgl/src/extra/widgets/imgbtn/../../../../src/hal/../draw/../misc/../font/../misc/lv_area.h ****  *
   4:Drivers/lvgl/lvgl/src/extra/widgets/imgbtn/../../../../src/hal/../draw/../misc/../font/../misc/lv_area.h ****  */
   5:Drivers/lvgl/lvgl/src/extra/widgets/imgbtn/../../../../src/hal/../draw/../misc/../font/../misc/lv_area.h **** 
   6:Drivers/lvgl/lvgl/src/extra/widgets/imgbtn/../../../../src/hal/../draw/../misc/../font/../misc/lv_area.h **** #ifndef LV_AREA_H
   7:Drivers/lvgl/lvgl/src/extra/widgets/imgbtn/../../../../src/hal/../draw/../misc/../font/../misc/lv_area.h **** #define LV_AREA_H
   8:Drivers/lvgl/lvgl/src/extra/widgets/imgbtn/../../../../src/hal/../draw/../misc/../font/../misc/lv_area.h **** 
   9:Drivers/lvgl/lvgl/src/extra/widgets/imgbtn/../../../../src/hal/../draw/../misc/../font/../misc/lv_area.h **** #ifdef __cplusplus
  10:Drivers/lvgl/lvgl/src/extra/widgets/imgbtn/../../../../src/hal/../draw/../misc/../font/../misc/lv_area.h **** extern "C" {
  11:Drivers/lvgl/lvgl/src/extra/widgets/imgbtn/../../../../src/hal/../draw/../misc/../font/../misc/lv_area.h **** #endif
  12:Drivers/lvgl/lvgl/src/extra/widgets/imgbtn/../../../../src/hal/../draw/../misc/../font/../misc/lv_area.h **** 
  13:Drivers/lvgl/lvgl/src/extra/widgets/imgbtn/../../../../src/hal/../draw/../misc/../font/../misc/lv_area.h **** /*********************
  14:Drivers/lvgl/lvgl/src/extra/widgets/imgbtn/../../../../src/hal/../draw/../misc/../font/../misc/lv_area.h ****  *      INCLUDES
  15:Drivers/lvgl/lvgl/src/extra/widgets/imgbtn/../../../../src/hal/../draw/../misc/../font/../misc/lv_area.h ****  *********************/
  16:Drivers/lvgl/lvgl/src/extra/widgets/imgbtn/../../../../src/hal/../draw/../misc/../font/../misc/lv_area.h **** #include "../lv_conf_internal.h"
  17:Drivers/lvgl/lvgl/src/extra/widgets/imgbtn/../../../../src/hal/../draw/../misc/../font/../misc/lv_area.h **** #include <stdbool.h>
  18:Drivers/lvgl/lvgl/src/extra/widgets/imgbtn/../../../../src/hal/../draw/../misc/../font/../misc/lv_area.h **** #include <stdint.h>
  19:Drivers/lvgl/lvgl/src/extra/widgets/imgbtn/../../../../src/hal/../draw/../misc/../font/../misc/lv_area.h **** 
  20:Drivers/lvgl/lvgl/src/extra/widgets/imgbtn/../../../../src/hal/../draw/../misc/../font/../misc/lv_area.h **** /*********************
  21:Drivers/lvgl/lvgl/src/extra/widgets/imgbtn/../../../../src/hal/../draw/../misc/../font/../misc/lv_area.h ****  *      DEFINES
  22:Drivers/lvgl/lvgl/src/extra/widgets/imgbtn/../../../../src/hal/../draw/../misc/../font/../misc/lv_area.h ****  *********************/
  23:Drivers/lvgl/lvgl/src/extra/widgets/imgbtn/../../../../src/hal/../draw/../misc/../font/../misc/lv_area.h **** 
  24:Drivers/lvgl/lvgl/src/extra/widgets/imgbtn/../../../../src/hal/../draw/../misc/../font/../misc/lv_area.h **** #if LV_USE_LARGE_COORD
  25:Drivers/lvgl/lvgl/src/extra/widgets/imgbtn/../../../../src/hal/../draw/../misc/../font/../misc/lv_area.h **** typedef int32_t lv_coord_t;
  26:Drivers/lvgl/lvgl/src/extra/widgets/imgbtn/../../../../src/hal/../draw/../misc/../font/../misc/lv_area.h **** #else
  27:Drivers/lvgl/lvgl/src/extra/widgets/imgbtn/../../../../src/hal/../draw/../misc/../font/../misc/lv_area.h **** typedef int16_t lv_coord_t;
  28:Drivers/lvgl/lvgl/src/extra/widgets/imgbtn/../../../../src/hal/../draw/../misc/../font/../misc/lv_area.h **** #endif
  29:Drivers/lvgl/lvgl/src/extra/widgets/imgbtn/../../../../src/hal/../draw/../misc/../font/../misc/lv_area.h **** 
  30:Drivers/lvgl/lvgl/src/extra/widgets/imgbtn/../../../../src/hal/../draw/../misc/../font/../misc/lv_area.h **** /**********************
  31:Drivers/lvgl/lvgl/src/extra/widgets/imgbtn/../../../../src/hal/../draw/../misc/../font/../misc/lv_area.h ****  *      TYPEDEFS
  32:Drivers/lvgl/lvgl/src/extra/widgets/imgbtn/../../../../src/hal/../draw/../misc/../font/../misc/lv_area.h ****  **********************/
  33:Drivers/lvgl/lvgl/src/extra/widgets/imgbtn/../../../../src/hal/../draw/../misc/../font/../misc/lv_area.h **** 
  34:Drivers/lvgl/lvgl/src/extra/widgets/imgbtn/../../../../src/hal/../draw/../misc/../font/../misc/lv_area.h **** /**
  35:Drivers/lvgl/lvgl/src/extra/widgets/imgbtn/../../../../src/hal/../draw/../misc/../font/../misc/lv_area.h ****  * Represents a point on the screen.
  36:Drivers/lvgl/lvgl/src/extra/widgets/imgbtn/../../../../src/hal/../draw/../misc/../font/../misc/lv_area.h ****  */
  37:Drivers/lvgl/lvgl/src/extra/widgets/imgbtn/../../../../src/hal/../draw/../misc/../font/../misc/lv_area.h **** typedef struct {
  38:Drivers/lvgl/lvgl/src/extra/widgets/imgbtn/../../../../src/hal/../draw/../misc/../font/../misc/lv_area.h ****     lv_coord_t x;
  39:Drivers/lvgl/lvgl/src/extra/widgets/imgbtn/../../../../src/hal/../draw/../misc/../font/../misc/lv_area.h ****     lv_coord_t y;
  40:Drivers/lvgl/lvgl/src/extra/widgets/imgbtn/../../../../src/hal/../draw/../misc/../font/../misc/lv_area.h **** } lv_point_t;
  41:Drivers/lvgl/lvgl/src/extra/widgets/imgbtn/../../../../src/hal/../draw/../misc/../font/../misc/lv_area.h **** 
ARM GAS  /tmp/ccJyF0Mv.s 			page 22


  42:Drivers/lvgl/lvgl/src/extra/widgets/imgbtn/../../../../src/hal/../draw/../misc/../font/../misc/lv_area.h **** /** Represents an area of the screen.*/
  43:Drivers/lvgl/lvgl/src/extra/widgets/imgbtn/../../../../src/hal/../draw/../misc/../font/../misc/lv_area.h **** typedef struct {
  44:Drivers/lvgl/lvgl/src/extra/widgets/imgbtn/../../../../src/hal/../draw/../misc/../font/../misc/lv_area.h ****     lv_coord_t x1;
  45:Drivers/lvgl/lvgl/src/extra/widgets/imgbtn/../../../../src/hal/../draw/../misc/../font/../misc/lv_area.h ****     lv_coord_t y1;
  46:Drivers/lvgl/lvgl/src/extra/widgets/imgbtn/../../../../src/hal/../draw/../misc/../font/../misc/lv_area.h ****     lv_coord_t x2;
  47:Drivers/lvgl/lvgl/src/extra/widgets/imgbtn/../../../../src/hal/../draw/../misc/../font/../misc/lv_area.h ****     lv_coord_t y2;
  48:Drivers/lvgl/lvgl/src/extra/widgets/imgbtn/../../../../src/hal/../draw/../misc/../font/../misc/lv_area.h **** } lv_area_t;
  49:Drivers/lvgl/lvgl/src/extra/widgets/imgbtn/../../../../src/hal/../draw/../misc/../font/../misc/lv_area.h **** 
  50:Drivers/lvgl/lvgl/src/extra/widgets/imgbtn/../../../../src/hal/../draw/../misc/../font/../misc/lv_area.h **** /** Alignments*/
  51:Drivers/lvgl/lvgl/src/extra/widgets/imgbtn/../../../../src/hal/../draw/../misc/../font/../misc/lv_area.h **** enum {
  52:Drivers/lvgl/lvgl/src/extra/widgets/imgbtn/../../../../src/hal/../draw/../misc/../font/../misc/lv_area.h ****     LV_ALIGN_DEFAULT = 0,
  53:Drivers/lvgl/lvgl/src/extra/widgets/imgbtn/../../../../src/hal/../draw/../misc/../font/../misc/lv_area.h ****     LV_ALIGN_TOP_LEFT,
  54:Drivers/lvgl/lvgl/src/extra/widgets/imgbtn/../../../../src/hal/../draw/../misc/../font/../misc/lv_area.h ****     LV_ALIGN_TOP_MID,
  55:Drivers/lvgl/lvgl/src/extra/widgets/imgbtn/../../../../src/hal/../draw/../misc/../font/../misc/lv_area.h ****     LV_ALIGN_TOP_RIGHT,
  56:Drivers/lvgl/lvgl/src/extra/widgets/imgbtn/../../../../src/hal/../draw/../misc/../font/../misc/lv_area.h ****     LV_ALIGN_BOTTOM_LEFT,
  57:Drivers/lvgl/lvgl/src/extra/widgets/imgbtn/../../../../src/hal/../draw/../misc/../font/../misc/lv_area.h ****     LV_ALIGN_BOTTOM_MID,
  58:Drivers/lvgl/lvgl/src/extra/widgets/imgbtn/../../../../src/hal/../draw/../misc/../font/../misc/lv_area.h ****     LV_ALIGN_BOTTOM_RIGHT,
  59:Drivers/lvgl/lvgl/src/extra/widgets/imgbtn/../../../../src/hal/../draw/../misc/../font/../misc/lv_area.h ****     LV_ALIGN_LEFT_MID,
  60:Drivers/lvgl/lvgl/src/extra/widgets/imgbtn/../../../../src/hal/../draw/../misc/../font/../misc/lv_area.h ****     LV_ALIGN_RIGHT_MID,
  61:Drivers/lvgl/lvgl/src/extra/widgets/imgbtn/../../../../src/hal/../draw/../misc/../font/../misc/lv_area.h ****     LV_ALIGN_CENTER,
  62:Drivers/lvgl/lvgl/src/extra/widgets/imgbtn/../../../../src/hal/../draw/../misc/../font/../misc/lv_area.h **** 
  63:Drivers/lvgl/lvgl/src/extra/widgets/imgbtn/../../../../src/hal/../draw/../misc/../font/../misc/lv_area.h ****     LV_ALIGN_OUT_TOP_LEFT,
  64:Drivers/lvgl/lvgl/src/extra/widgets/imgbtn/../../../../src/hal/../draw/../misc/../font/../misc/lv_area.h ****     LV_ALIGN_OUT_TOP_MID,
  65:Drivers/lvgl/lvgl/src/extra/widgets/imgbtn/../../../../src/hal/../draw/../misc/../font/../misc/lv_area.h ****     LV_ALIGN_OUT_TOP_RIGHT,
  66:Drivers/lvgl/lvgl/src/extra/widgets/imgbtn/../../../../src/hal/../draw/../misc/../font/../misc/lv_area.h ****     LV_ALIGN_OUT_BOTTOM_LEFT,
  67:Drivers/lvgl/lvgl/src/extra/widgets/imgbtn/../../../../src/hal/../draw/../misc/../font/../misc/lv_area.h ****     LV_ALIGN_OUT_BOTTOM_MID,
  68:Drivers/lvgl/lvgl/src/extra/widgets/imgbtn/../../../../src/hal/../draw/../misc/../font/../misc/lv_area.h ****     LV_ALIGN_OUT_BOTTOM_RIGHT,
  69:Drivers/lvgl/lvgl/src/extra/widgets/imgbtn/../../../../src/hal/../draw/../misc/../font/../misc/lv_area.h ****     LV_ALIGN_OUT_LEFT_TOP,
  70:Drivers/lvgl/lvgl/src/extra/widgets/imgbtn/../../../../src/hal/../draw/../misc/../font/../misc/lv_area.h ****     LV_ALIGN_OUT_LEFT_MID,
  71:Drivers/lvgl/lvgl/src/extra/widgets/imgbtn/../../../../src/hal/../draw/../misc/../font/../misc/lv_area.h ****     LV_ALIGN_OUT_LEFT_BOTTOM,
  72:Drivers/lvgl/lvgl/src/extra/widgets/imgbtn/../../../../src/hal/../draw/../misc/../font/../misc/lv_area.h ****     LV_ALIGN_OUT_RIGHT_TOP,
  73:Drivers/lvgl/lvgl/src/extra/widgets/imgbtn/../../../../src/hal/../draw/../misc/../font/../misc/lv_area.h ****     LV_ALIGN_OUT_RIGHT_MID,
  74:Drivers/lvgl/lvgl/src/extra/widgets/imgbtn/../../../../src/hal/../draw/../misc/../font/../misc/lv_area.h ****     LV_ALIGN_OUT_RIGHT_BOTTOM,
  75:Drivers/lvgl/lvgl/src/extra/widgets/imgbtn/../../../../src/hal/../draw/../misc/../font/../misc/lv_area.h **** };
  76:Drivers/lvgl/lvgl/src/extra/widgets/imgbtn/../../../../src/hal/../draw/../misc/../font/../misc/lv_area.h **** typedef uint8_t lv_align_t;
  77:Drivers/lvgl/lvgl/src/extra/widgets/imgbtn/../../../../src/hal/../draw/../misc/../font/../misc/lv_area.h **** 
  78:Drivers/lvgl/lvgl/src/extra/widgets/imgbtn/../../../../src/hal/../draw/../misc/../font/../misc/lv_area.h **** enum {
  79:Drivers/lvgl/lvgl/src/extra/widgets/imgbtn/../../../../src/hal/../draw/../misc/../font/../misc/lv_area.h ****     LV_DIR_NONE     = 0x00,
  80:Drivers/lvgl/lvgl/src/extra/widgets/imgbtn/../../../../src/hal/../draw/../misc/../font/../misc/lv_area.h ****     LV_DIR_LEFT     = (1 << 0),
  81:Drivers/lvgl/lvgl/src/extra/widgets/imgbtn/../../../../src/hal/../draw/../misc/../font/../misc/lv_area.h ****     LV_DIR_RIGHT    = (1 << 1),
  82:Drivers/lvgl/lvgl/src/extra/widgets/imgbtn/../../../../src/hal/../draw/../misc/../font/../misc/lv_area.h ****     LV_DIR_TOP      = (1 << 2),
  83:Drivers/lvgl/lvgl/src/extra/widgets/imgbtn/../../../../src/hal/../draw/../misc/../font/../misc/lv_area.h ****     LV_DIR_BOTTOM   = (1 << 3),
  84:Drivers/lvgl/lvgl/src/extra/widgets/imgbtn/../../../../src/hal/../draw/../misc/../font/../misc/lv_area.h ****     LV_DIR_HOR      = LV_DIR_LEFT | LV_DIR_RIGHT,
  85:Drivers/lvgl/lvgl/src/extra/widgets/imgbtn/../../../../src/hal/../draw/../misc/../font/../misc/lv_area.h ****     LV_DIR_VER      = LV_DIR_TOP | LV_DIR_BOTTOM,
  86:Drivers/lvgl/lvgl/src/extra/widgets/imgbtn/../../../../src/hal/../draw/../misc/../font/../misc/lv_area.h ****     LV_DIR_ALL      = LV_DIR_HOR | LV_DIR_VER,
  87:Drivers/lvgl/lvgl/src/extra/widgets/imgbtn/../../../../src/hal/../draw/../misc/../font/../misc/lv_area.h **** };
  88:Drivers/lvgl/lvgl/src/extra/widgets/imgbtn/../../../../src/hal/../draw/../misc/../font/../misc/lv_area.h **** 
  89:Drivers/lvgl/lvgl/src/extra/widgets/imgbtn/../../../../src/hal/../draw/../misc/../font/../misc/lv_area.h **** typedef uint8_t lv_dir_t;
  90:Drivers/lvgl/lvgl/src/extra/widgets/imgbtn/../../../../src/hal/../draw/../misc/../font/../misc/lv_area.h **** 
  91:Drivers/lvgl/lvgl/src/extra/widgets/imgbtn/../../../../src/hal/../draw/../misc/../font/../misc/lv_area.h **** /**********************
  92:Drivers/lvgl/lvgl/src/extra/widgets/imgbtn/../../../../src/hal/../draw/../misc/../font/../misc/lv_area.h ****  * GLOBAL PROTOTYPES
  93:Drivers/lvgl/lvgl/src/extra/widgets/imgbtn/../../../../src/hal/../draw/../misc/../font/../misc/lv_area.h ****  **********************/
  94:Drivers/lvgl/lvgl/src/extra/widgets/imgbtn/../../../../src/hal/../draw/../misc/../font/../misc/lv_area.h **** 
  95:Drivers/lvgl/lvgl/src/extra/widgets/imgbtn/../../../../src/hal/../draw/../misc/../font/../misc/lv_area.h **** /**
  96:Drivers/lvgl/lvgl/src/extra/widgets/imgbtn/../../../../src/hal/../draw/../misc/../font/../misc/lv_area.h ****  * Initialize an area
  97:Drivers/lvgl/lvgl/src/extra/widgets/imgbtn/../../../../src/hal/../draw/../misc/../font/../misc/lv_area.h ****  * @param area_p pointer to an area
  98:Drivers/lvgl/lvgl/src/extra/widgets/imgbtn/../../../../src/hal/../draw/../misc/../font/../misc/lv_area.h ****  * @param x1 left coordinate of the area
ARM GAS  /tmp/ccJyF0Mv.s 			page 23


  99:Drivers/lvgl/lvgl/src/extra/widgets/imgbtn/../../../../src/hal/../draw/../misc/../font/../misc/lv_area.h ****  * @param y1 top coordinate of the area
 100:Drivers/lvgl/lvgl/src/extra/widgets/imgbtn/../../../../src/hal/../draw/../misc/../font/../misc/lv_area.h ****  * @param x2 right coordinate of the area
 101:Drivers/lvgl/lvgl/src/extra/widgets/imgbtn/../../../../src/hal/../draw/../misc/../font/../misc/lv_area.h ****  * @param y2 bottom coordinate of the area
 102:Drivers/lvgl/lvgl/src/extra/widgets/imgbtn/../../../../src/hal/../draw/../misc/../font/../misc/lv_area.h ****  */
 103:Drivers/lvgl/lvgl/src/extra/widgets/imgbtn/../../../../src/hal/../draw/../misc/../font/../misc/lv_area.h **** void lv_area_set(lv_area_t * area_p, lv_coord_t x1, lv_coord_t y1, lv_coord_t x2, lv_coord_t y2);
 104:Drivers/lvgl/lvgl/src/extra/widgets/imgbtn/../../../../src/hal/../draw/../misc/../font/../misc/lv_area.h **** 
 105:Drivers/lvgl/lvgl/src/extra/widgets/imgbtn/../../../../src/hal/../draw/../misc/../font/../misc/lv_area.h **** /**
 106:Drivers/lvgl/lvgl/src/extra/widgets/imgbtn/../../../../src/hal/../draw/../misc/../font/../misc/lv_area.h ****  * Copy an area
 107:Drivers/lvgl/lvgl/src/extra/widgets/imgbtn/../../../../src/hal/../draw/../misc/../font/../misc/lv_area.h ****  * @param dest pointer to the destination area
 108:Drivers/lvgl/lvgl/src/extra/widgets/imgbtn/../../../../src/hal/../draw/../misc/../font/../misc/lv_area.h ****  * @param src pointer to the source area
 109:Drivers/lvgl/lvgl/src/extra/widgets/imgbtn/../../../../src/hal/../draw/../misc/../font/../misc/lv_area.h ****  */
 110:Drivers/lvgl/lvgl/src/extra/widgets/imgbtn/../../../../src/hal/../draw/../misc/../font/../misc/lv_area.h **** inline static void lv_area_copy(lv_area_t * dest, const lv_area_t * src)
 111:Drivers/lvgl/lvgl/src/extra/widgets/imgbtn/../../../../src/hal/../draw/../misc/../font/../misc/lv_area.h **** {
 112:Drivers/lvgl/lvgl/src/extra/widgets/imgbtn/../../../../src/hal/../draw/../misc/../font/../misc/lv_area.h ****     dest->x1 = src->x1;
 670              		.loc 3 112 0
 671 0048 B4F91450 		ldrsh	r5, [r4, #20]
 672              	.LVL102:
 113:Drivers/lvgl/lvgl/src/extra/widgets/imgbtn/../../../../src/hal/../draw/../misc/../font/../misc/lv_area.h ****     dest->y1 = src->y1;
 673              		.loc 3 113 0
 674 004c B4F91660 		ldrsh	r6, [r4, #22]
 114:Drivers/lvgl/lvgl/src/extra/widgets/imgbtn/../../../../src/hal/../draw/../misc/../font/../misc/lv_area.h ****     dest->x2 = src->x2;
 675              		.loc 3 114 0
 676 0050 B4F91810 		ldrsh	r1, [r4, #24]
 115:Drivers/lvgl/lvgl/src/extra/widgets/imgbtn/../../../../src/hal/../draw/../misc/../font/../misc/lv_area.h ****     dest->y2 = src->y2;
 677              		.loc 3 115 0
 678 0054 B4F91A20 		ldrsh	r2, [r4, #26]
 679              	.LVL103:
 680              	.LBE15:
 681              	.LBE14:
 226:Drivers/lvgl/lvgl/src/extra/widgets/imgbtn/lv_imgbtn.c ****     coords.x2 += tw;
 682              		.loc 1 226 0
 683 0058 1FFA8BF3 		uxth	r3, fp
 684 005c ED1A     		subs	r5, r5, r3
 685 005e ADB2     		uxth	r5, r5
 227:Drivers/lvgl/lvgl/src/extra/widgets/imgbtn/lv_imgbtn.c ****     coords.y1 -= th;
 686              		.loc 1 227 0
 687 0060 0B44     		add	r3, r3, r1
 688 0062 1FFA83F8 		uxth	r8, r3
 689 0066 0FFA88F3 		sxth	r3, r8
 690 006a 0393     		str	r3, [sp, #12]
 228:Drivers/lvgl/lvgl/src/extra/widgets/imgbtn/lv_imgbtn.c ****     coords.y2 += th;
 691              		.loc 1 228 0
 692 006c 80B2     		uxth	r0, r0
 693 006e 361A     		subs	r6, r6, r0
 694 0070 B6B2     		uxth	r6, r6
 695 0072 0FFA86FA 		sxth	r10, r6
 229:Drivers/lvgl/lvgl/src/extra/widgets/imgbtn/lv_imgbtn.c **** 
 696              		.loc 1 229 0
 697 0076 1044     		add	r0, r0, r2
 698 0078 03B2     		sxth	r3, r0
 699 007a 0193     		str	r3, [sp, #4]
 232:Drivers/lvgl/lvgl/src/extra/widgets/imgbtn/lv_imgbtn.c ****     lv_obj_init_draw_img_dsc(obj, LV_PART_MAIN, &img_dsc);
 700              		.loc 1 232 0
 701 007c 0AAB     		add	r3, sp, #40
 702 007e 1846     		mov	r0, r3
 703 0080 FFF7FEFF 		bl	lv_draw_img_dsc_init
 704              	.LVL104:
ARM GAS  /tmp/ccJyF0Mv.s 			page 24


 233:Drivers/lvgl/lvgl/src/extra/widgets/imgbtn/lv_imgbtn.c **** 
 705              		.loc 1 233 0
 706 0084 0AAA     		add	r2, sp, #40
 707 0086 0021     		movs	r1, #0
 708 0088 2046     		mov	r0, r4
 709 008a FFF7FEFF 		bl	lv_obj_init_draw_img_dsc
 710              	.LVL105:
 240:Drivers/lvgl/lvgl/src/extra/widgets/imgbtn/lv_imgbtn.c ****         lv_img_decoder_get_info(src, &header);
 711              		.loc 1 240 0
 712 008e B9F1000F 		cmp	r9, #0
 713 0092 6CD0     		beq	.L61
 714 0094 0FFA85FB 		sxth	fp, r5
 241:Drivers/lvgl/lvgl/src/extra/widgets/imgbtn/lv_imgbtn.c ****         left_w = header.w;
 715              		.loc 1 241 0
 716 0098 09A9     		add	r1, sp, #36
 717 009a 4846     		mov	r0, r9
 718 009c FFF7FEFF 		bl	lv_img_decoder_get_info
 719              	.LVL106:
 242:Drivers/lvgl/lvgl/src/extra/widgets/imgbtn/lv_imgbtn.c ****         coords_part.x1 = coords.x1;
 720              		.loc 1 242 0
 721 00a0 099B     		ldr	r3, [sp, #36]
 722 00a2 C3F38A23 		ubfx	r3, r3, #10, #11
 723 00a6 1AB2     		sxth	r2, r3
 724 00a8 0292     		str	r2, [sp, #8]
 725              	.LVL107:
 243:Drivers/lvgl/lvgl/src/extra/widgets/imgbtn/lv_imgbtn.c ****         coords_part.y1 = coords.y1;
 726              		.loc 1 243 0
 727 00aa ADF81CB0 		strh	fp, [sp, #28]	@ movhi
 244:Drivers/lvgl/lvgl/src/extra/widgets/imgbtn/lv_imgbtn.c ****         coords_part.x2 = coords.x1 + header.w - 1;
 728              		.loc 1 244 0
 729 00ae ADF81EA0 		strh	r10, [sp, #30]	@ movhi
 245:Drivers/lvgl/lvgl/src/extra/widgets/imgbtn/lv_imgbtn.c ****         coords_part.y2 = coords.y1 + header.h - 1;
 730              		.loc 1 245 0
 731 00b2 2B44     		add	r3, r3, r5
 732              	.LVL108:
 733 00b4 9BB2     		uxth	r3, r3
 734 00b6 013B     		subs	r3, r3, #1
 735 00b8 ADF82030 		strh	r3, [sp, #32]	@ movhi
 246:Drivers/lvgl/lvgl/src/extra/widgets/imgbtn/lv_imgbtn.c ****         lv_draw_img(draw_ctx, &img_dsc, &coords_part, src);
 736              		.loc 1 246 0
 737 00bc BDF82630 		ldrh	r3, [sp, #38]
 738 00c0 06EB5313 		add	r3, r6, r3, lsr #5
 739 00c4 9BB2     		uxth	r3, r3
 740 00c6 013B     		subs	r3, r3, #1
 741 00c8 ADF82230 		strh	r3, [sp, #34]	@ movhi
 247:Drivers/lvgl/lvgl/src/extra/widgets/imgbtn/lv_imgbtn.c ****     }
 742              		.loc 1 247 0
 743 00cc 4B46     		mov	r3, r9
 744 00ce 07AA     		add	r2, sp, #28
 745              	.LVL109:
 746 00d0 0AA9     		add	r1, sp, #40
 747 00d2 0098     		ldr	r0, [sp]
 748 00d4 FFF7FEFF 		bl	lv_draw_img
 749              	.LVL110:
 750              	.L55:
 250:Drivers/lvgl/lvgl/src/extra/widgets/imgbtn/lv_imgbtn.c ****     if(src) {
 751              		.loc 1 250 0
ARM GAS  /tmp/ccJyF0Mv.s 			page 25


 752 00d8 07F11403 		add	r3, r7, #20
 753 00dc 04EB8303 		add	r3, r4, r3, lsl #2
 754 00e0 D3F80490 		ldr	r9, [r3, #4]
 755              	.LVL111:
 251:Drivers/lvgl/lvgl/src/extra/widgets/imgbtn/lv_imgbtn.c ****         lv_img_decoder_get_info(src, &header);
 756              		.loc 1 251 0
 757 00e4 B9F1000F 		cmp	r9, #0
 758 00e8 44D0     		beq	.L62
 252:Drivers/lvgl/lvgl/src/extra/widgets/imgbtn/lv_imgbtn.c ****         right_w = header.w;
 759              		.loc 1 252 0
 760 00ea 09A9     		add	r1, sp, #36
 761 00ec 4846     		mov	r0, r9
 762 00ee FFF7FEFF 		bl	lv_img_decoder_get_info
 763              	.LVL112:
 253:Drivers/lvgl/lvgl/src/extra/widgets/imgbtn/lv_imgbtn.c ****         coords_part.x1 = coords.x2 - header.w + 1;
 764              		.loc 1 253 0
 765 00f2 099B     		ldr	r3, [sp, #36]
 766 00f4 C3F38A23 		ubfx	r3, r3, #10, #11
 767 00f8 0FFA83FB 		sxth	fp, r3
 768              	.LVL113:
 254:Drivers/lvgl/lvgl/src/extra/widgets/imgbtn/lv_imgbtn.c ****         coords_part.y1 = coords.y1;
 769              		.loc 1 254 0
 770 00fc A8EB0303 		sub	r3, r8, r3
 771              	.LVL114:
 772 0100 9BB2     		uxth	r3, r3
 773 0102 0133     		adds	r3, r3, #1
 774 0104 ADF81C30 		strh	r3, [sp, #28]	@ movhi
 255:Drivers/lvgl/lvgl/src/extra/widgets/imgbtn/lv_imgbtn.c ****         coords_part.x2 = coords.x2;
 775              		.loc 1 255 0
 776 0108 ADF81EA0 		strh	r10, [sp, #30]	@ movhi
 256:Drivers/lvgl/lvgl/src/extra/widgets/imgbtn/lv_imgbtn.c ****         coords_part.y2 = coords.y1 + header.h - 1;
 777              		.loc 1 256 0
 778 010c BDF80C30 		ldrh	r3, [sp, #12]
 779 0110 ADF82030 		strh	r3, [sp, #32]	@ movhi
 257:Drivers/lvgl/lvgl/src/extra/widgets/imgbtn/lv_imgbtn.c ****         lv_draw_img(draw_ctx, &img_dsc, &coords_part, src);
 780              		.loc 1 257 0
 781 0114 BDF82630 		ldrh	r3, [sp, #38]
 782 0118 06EB5313 		add	r3, r6, r3, lsr #5
 783 011c 9BB2     		uxth	r3, r3
 784 011e 013B     		subs	r3, r3, #1
 785 0120 ADF82230 		strh	r3, [sp, #34]	@ movhi
 258:Drivers/lvgl/lvgl/src/extra/widgets/imgbtn/lv_imgbtn.c ****     }
 786              		.loc 1 258 0
 787 0124 4B46     		mov	r3, r9
 788 0126 07AA     		add	r2, sp, #28
 789 0128 0AA9     		add	r1, sp, #40
 790 012a 0098     		ldr	r0, [sp]
 791 012c FFF7FEFF 		bl	lv_draw_img
 792              	.LVL115:
 793              	.L56:
 261:Drivers/lvgl/lvgl/src/extra/widgets/imgbtn/lv_imgbtn.c ****     if(src) {
 794              		.loc 1 261 0
 795 0130 0837     		adds	r7, r7, #8
 796 0132 04EB8704 		add	r4, r4, r7, lsl #2
 797              	.LVL116:
 798 0136 6468     		ldr	r4, [r4, #4]
 799              	.LVL117:
ARM GAS  /tmp/ccJyF0Mv.s 			page 26


 262:Drivers/lvgl/lvgl/src/extra/widgets/imgbtn/lv_imgbtn.c ****         lv_area_t clip_area_center;
 800              		.loc 1 262 0
 801 0138 B4B1     		cbz	r4, .L54
 802              	.LBB16:
 264:Drivers/lvgl/lvgl/src/extra/widgets/imgbtn/lv_imgbtn.c ****         clip_area_center.x2 = coords.x2 - right_w;
 803              		.loc 1 264 0
 804 013a 029B     		ldr	r3, [sp, #8]
 805 013c 1D44     		add	r5, r5, r3
 806 013e ADB2     		uxth	r5, r5
 807 0140 2FB2     		sxth	r7, r5
 808 0142 ADF81470 		strh	r7, [sp, #20]	@ movhi
 265:Drivers/lvgl/lvgl/src/extra/widgets/imgbtn/lv_imgbtn.c ****         clip_area_center.y1 = coords.y1;
 809              		.loc 1 265 0
 810 0146 A8EB0B0B 		sub	fp, r8, fp
 811              	.LVL118:
 812 014a ADF818B0 		strh	fp, [sp, #24]	@ movhi
 266:Drivers/lvgl/lvgl/src/extra/widgets/imgbtn/lv_imgbtn.c ****         clip_area_center.y2 = coords.y2;
 813              		.loc 1 266 0
 814 014e ADF816A0 		strh	r10, [sp, #22]	@ movhi
 267:Drivers/lvgl/lvgl/src/extra/widgets/imgbtn/lv_imgbtn.c **** 
 815              		.loc 1 267 0
 816 0152 BDF80430 		ldrh	r3, [sp, #4]
 817 0156 ADF81A30 		strh	r3, [sp, #26]	@ movhi
 271:Drivers/lvgl/lvgl/src/extra/widgets/imgbtn/lv_imgbtn.c ****         if(comm_res) {
 818              		.loc 1 271 0
 819 015a 009B     		ldr	r3, [sp]
 820 015c 9A68     		ldr	r2, [r3, #8]
 821 015e 05A9     		add	r1, sp, #20
 822 0160 0846     		mov	r0, r1
 823 0162 FFF7FEFF 		bl	_lv_area_intersect
 824              	.LVL119:
 272:Drivers/lvgl/lvgl/src/extra/widgets/imgbtn/lv_imgbtn.c ****             lv_coord_t i;
 825              		.loc 1 272 0
 826 0166 40B9     		cbnz	r0, .L64
 827              	.LVL120:
 828              	.L54:
 829              	.LBE16:
 292:Drivers/lvgl/lvgl/src/extra/widgets/imgbtn/lv_imgbtn.c **** 
 830              		.loc 1 292 0
 831 0168 11B0     		add	sp, sp, #68
 832              	.LCFI11:
 833              		.cfi_remember_state
 834              		.cfi_def_cfa_offset 36
 835              	.LVL121:
 836              		@ sp needed
 837 016a BDE8F08F 		pop	{r4, r5, r6, r7, r8, r9, r10, fp, pc}
 838              	.LVL122:
 839              	.L61:
 840              	.LCFI12:
 841              		.cfi_restore_state
 237:Drivers/lvgl/lvgl/src/extra/widgets/imgbtn/lv_imgbtn.c ****     lv_coord_t right_w = 0;
 842              		.loc 1 237 0
 843 016e 0023     		movs	r3, #0
 844 0170 0293     		str	r3, [sp, #8]
 845 0172 B1E7     		b	.L55
 846              	.LVL123:
 847              	.L62:
ARM GAS  /tmp/ccJyF0Mv.s 			page 27


 238:Drivers/lvgl/lvgl/src/extra/widgets/imgbtn/lv_imgbtn.c **** 
 848              		.loc 1 238 0
 849 0174 4FF0000B 		mov	fp, #0
 850 0178 DAE7     		b	.L56
 851              	.LVL124:
 852              	.L64:
 853              	.LBB18:
 854              	.LBB17:
 274:Drivers/lvgl/lvgl/src/extra/widgets/imgbtn/lv_imgbtn.c **** 
 855              		.loc 1 274 0
 856 017a 09A9     		add	r1, sp, #36
 857 017c 2046     		mov	r0, r4
 858              	.LVL125:
 859 017e FFF7FEFF 		bl	lv_img_decoder_get_info
 860              	.LVL126:
 276:Drivers/lvgl/lvgl/src/extra/widgets/imgbtn/lv_imgbtn.c ****             draw_ctx->clip_area = &clip_area_center;
 861              		.loc 1 276 0
 862 0182 009A     		ldr	r2, [sp]
 863 0184 D2F80890 		ldr	r9, [r2, #8]
 864              	.LVL127:
 277:Drivers/lvgl/lvgl/src/extra/widgets/imgbtn/lv_imgbtn.c **** 
 865              		.loc 1 277 0
 866 0188 05AB     		add	r3, sp, #20
 867 018a 9360     		str	r3, [r2, #8]
 279:Drivers/lvgl/lvgl/src/extra/widgets/imgbtn/lv_imgbtn.c ****             coords_part.y1 = coords.y1;
 868              		.loc 1 279 0
 869 018c ADF81C70 		strh	r7, [sp, #28]	@ movhi
 280:Drivers/lvgl/lvgl/src/extra/widgets/imgbtn/lv_imgbtn.c ****             coords_part.x2 = coords_part.x1 + header.w - 1;
 870              		.loc 1 280 0
 871 0190 ADF81EA0 		strh	r10, [sp, #30]	@ movhi
 281:Drivers/lvgl/lvgl/src/extra/widgets/imgbtn/lv_imgbtn.c ****             coords_part.y2 = coords_part.y1 + header.h - 1;
 872              		.loc 1 281 0
 873 0194 099B     		ldr	r3, [sp, #36]
 874 0196 C3F38A23 		ubfx	r3, r3, #10, #11
 875 019a 1D44     		add	r5, r5, r3
 876 019c ADB2     		uxth	r5, r5
 877 019e 013D     		subs	r5, r5, #1
 878 01a0 ADF82050 		strh	r5, [sp, #32]	@ movhi
 282:Drivers/lvgl/lvgl/src/extra/widgets/imgbtn/lv_imgbtn.c **** 
 879              		.loc 1 282 0
 880 01a4 BDF82630 		ldrh	r3, [sp, #38]
 881 01a8 06EB5316 		add	r6, r6, r3, lsr #5
 882 01ac B6B2     		uxth	r6, r6
 883 01ae 013E     		subs	r6, r6, #1
 884 01b0 ADF82260 		strh	r6, [sp, #34]	@ movhi
 885              	.LVL128:
 284:Drivers/lvgl/lvgl/src/extra/widgets/imgbtn/lv_imgbtn.c ****                 lv_draw_img(draw_ctx, &img_dsc, &coords_part, src);
 886              		.loc 1 284 0
 887 01b4 12E0     		b	.L59
 888              	.LVL129:
 889              	.L60:
 285:Drivers/lvgl/lvgl/src/extra/widgets/imgbtn/lv_imgbtn.c ****                 coords_part.x1 = coords_part.x2 + 1;
 890              		.loc 1 285 0 discriminator 3
 891 01b6 2346     		mov	r3, r4
 892 01b8 07AA     		add	r2, sp, #28
 893 01ba 0AA9     		add	r1, sp, #40
 894 01bc 0098     		ldr	r0, [sp]
ARM GAS  /tmp/ccJyF0Mv.s 			page 28


 895 01be FFF7FEFF 		bl	lv_draw_img
 896              	.LVL130:
 286:Drivers/lvgl/lvgl/src/extra/widgets/imgbtn/lv_imgbtn.c ****                 coords_part.x2 += header.w;
 897              		.loc 1 286 0 discriminator 3
 898 01c2 BDF82020 		ldrh	r2, [sp, #32]
 899 01c6 531C     		adds	r3, r2, #1
 900 01c8 ADF81C30 		strh	r3, [sp, #28]	@ movhi
 287:Drivers/lvgl/lvgl/src/extra/widgets/imgbtn/lv_imgbtn.c ****             }
 901              		.loc 1 287 0 discriminator 3
 902 01cc 099B     		ldr	r3, [sp, #36]
 903 01ce C3F38A23 		ubfx	r3, r3, #10, #11
 904 01d2 1A44     		add	r2, r2, r3
 905 01d4 ADF82020 		strh	r2, [sp, #32]	@ movhi
 284:Drivers/lvgl/lvgl/src/extra/widgets/imgbtn/lv_imgbtn.c ****                 lv_draw_img(draw_ctx, &img_dsc, &coords_part, src);
 906              		.loc 1 284 0 discriminator 3
 907 01d8 1F44     		add	r7, r7, r3
 908              	.LVL131:
 909 01da 3FB2     		sxth	r7, r7
 910              	.LVL132:
 911              	.L59:
 284:Drivers/lvgl/lvgl/src/extra/widgets/imgbtn/lv_imgbtn.c ****                 lv_draw_img(draw_ctx, &img_dsc, &coords_part, src);
 912              		.loc 1 284 0 is_stmt 0 discriminator 1
 913 01dc BDF81830 		ldrh	r3, [sp, #24]
 914 01e0 099A     		ldr	r2, [sp, #36]
 915 01e2 C2F38A22 		ubfx	r2, r2, #10, #11
 916 01e6 1344     		add	r3, r3, r2
 917 01e8 9BB2     		uxth	r3, r3
 918 01ea 013B     		subs	r3, r3, #1
 919 01ec 1BB2     		sxth	r3, r3
 920 01ee BB42     		cmp	r3, r7
 921 01f0 E1DC     		bgt	.L60
 289:Drivers/lvgl/lvgl/src/extra/widgets/imgbtn/lv_imgbtn.c ****         }
 922              		.loc 1 289 0 is_stmt 1
 923 01f2 009B     		ldr	r3, [sp]
 924 01f4 C3F80890 		str	r9, [r3, #8]
 925              	.LBE17:
 926              	.LBE18:
 292:Drivers/lvgl/lvgl/src/extra/widgets/imgbtn/lv_imgbtn.c **** 
 927              		.loc 1 292 0
 928 01f8 B6E7     		b	.L54
 929              		.cfi_endproc
 930              	.LFE210:
 932              		.section	.text.lv_imgbtn_event,"ax",%progbits
 933              		.align	1
 934              		.syntax unified
 935              		.thumb
 936              		.thumb_func
 937              		.fpu fpv5-d16
 939              	lv_imgbtn_event:
 940              	.LFB209:
 178:Drivers/lvgl/lvgl/src/extra/widgets/imgbtn/lv_imgbtn.c ****     LV_UNUSED(class_p);
 941              		.loc 1 178 0
 942              		.cfi_startproc
 943              		@ args = 0, pretend = 0, frame = 8
 944              		@ frame_needed = 0, uses_anonymous_args = 0
 945              	.LVL133:
 946 0000 70B5     		push	{r4, r5, r6, lr}
ARM GAS  /tmp/ccJyF0Mv.s 			page 29


 947              	.LCFI13:
 948              		.cfi_def_cfa_offset 16
 949              		.cfi_offset 4, -16
 950              		.cfi_offset 5, -12
 951              		.cfi_offset 6, -8
 952              		.cfi_offset 14, -4
 953 0002 82B0     		sub	sp, sp, #8
 954              	.LCFI14:
 955              		.cfi_def_cfa_offset 24
 956 0004 0C46     		mov	r4, r1
 181:Drivers/lvgl/lvgl/src/extra/widgets/imgbtn/lv_imgbtn.c ****     if(res != LV_RES_OK) return;
 957              		.loc 1 181 0
 958 0006 2D48     		ldr	r0, .L75
 959              	.LVL134:
 960 0008 FFF7FEFF 		bl	lv_obj_event_base
 961              	.LVL135:
 182:Drivers/lvgl/lvgl/src/extra/widgets/imgbtn/lv_imgbtn.c **** 
 962              		.loc 1 182 0
 963 000c 0128     		cmp	r0, #1
 964 000e 01D0     		beq	.L72
 965              	.LVL136:
 966              	.L65:
 208:Drivers/lvgl/lvgl/src/extra/widgets/imgbtn/lv_imgbtn.c **** 
 967              		.loc 1 208 0
 968 0010 02B0     		add	sp, sp, #8
 969              	.LCFI15:
 970              		.cfi_remember_state
 971              		.cfi_def_cfa_offset 16
 972              		@ sp needed
 973 0012 70BD     		pop	{r4, r5, r6, pc}
 974              	.LVL137:
 975              	.L72:
 976              	.LCFI16:
 977              		.cfi_restore_state
 184:Drivers/lvgl/lvgl/src/extra/widgets/imgbtn/lv_imgbtn.c ****     lv_obj_t * obj = lv_event_get_target(e);
 978              		.loc 1 184 0
 979 0014 2046     		mov	r0, r4
 980              	.LVL138:
 981 0016 FFF7FEFF 		bl	lv_event_get_code
 982              	.LVL139:
 983 001a 0546     		mov	r5, r0
 984              	.LVL140:
 185:Drivers/lvgl/lvgl/src/extra/widgets/imgbtn/lv_imgbtn.c ****     if(code == LV_EVENT_PRESSED || code == LV_EVENT_RELEASED || code == LV_EVENT_PRESS_LOST) {
 985              		.loc 1 185 0
 986 001c 2046     		mov	r0, r4
 987 001e FFF7FEFF 		bl	lv_event_get_target
 988              	.LVL141:
 989 0022 0646     		mov	r6, r0
 990              	.LVL142:
 186:Drivers/lvgl/lvgl/src/extra/widgets/imgbtn/lv_imgbtn.c ****         refr_img(obj);
 991              		.loc 1 186 0
 992 0024 082D     		cmp	r5, #8
 993 0026 18BF     		it	ne
 994 0028 012D     		cmpne	r5, #1
 995 002a 35D0     		beq	.L67
 186:Drivers/lvgl/lvgl/src/extra/widgets/imgbtn/lv_imgbtn.c ****         refr_img(obj);
 996              		.loc 1 186 0 is_stmt 0 discriminator 1
ARM GAS  /tmp/ccJyF0Mv.s 			page 30


 997 002c 032D     		cmp	r5, #3
 998 002e 33D0     		beq	.L67
 189:Drivers/lvgl/lvgl/src/extra/widgets/imgbtn/lv_imgbtn.c ****         draw_main(e);
 999              		.loc 1 189 0 is_stmt 1
 1000 0030 152D     		cmp	r5, #21
 1001 0032 35D0     		beq	.L73
 192:Drivers/lvgl/lvgl/src/extra/widgets/imgbtn/lv_imgbtn.c ****         lv_cover_check_info_t * info = lv_event_get_param(e);
 1002              		.loc 1 192 0
 1003 0034 122D     		cmp	r5, #18
 1004 0036 37D0     		beq	.L74
 196:Drivers/lvgl/lvgl/src/extra/widgets/imgbtn/lv_imgbtn.c ****         lv_point_t * p = lv_event_get_self_size_info(e);
 1005              		.loc 1 196 0
 1006 0038 2C2D     		cmp	r5, #44
 1007 003a E9D1     		bne	.L65
 1008              	.LBB19:
 197:Drivers/lvgl/lvgl/src/extra/widgets/imgbtn/lv_imgbtn.c ****         lv_imgbtn_t * imgbtn = (lv_imgbtn_t *)obj;
 1009              		.loc 1 197 0
 1010 003c 2046     		mov	r0, r4
 1011              	.LVL143:
 1012 003e FFF7FEFF 		bl	lv_event_get_self_size_info
 1013              	.LVL144:
 1014 0042 0446     		mov	r4, r0
 1015              	.LVL145:
 199:Drivers/lvgl/lvgl/src/extra/widgets/imgbtn/lv_imgbtn.c ****         if(imgbtn->img_src_left[state] == NULL &&
 1016              		.loc 1 199 0
 1017 0044 3046     		mov	r0, r6
 1018              	.LVL146:
 1019 0046 FFF7FEFF 		bl	get_state
 1020              	.LVL147:
 1021 004a 0146     		mov	r1, r0
 1022 004c 3046     		mov	r0, r6
 1023 004e FFF7FEFF 		bl	suggest_state
 1024              	.LVL148:
 200:Drivers/lvgl/lvgl/src/extra/widgets/imgbtn/lv_imgbtn.c ****            imgbtn->img_src_mid[state] != NULL &&
 1025              		.loc 1 200 0
 1026 0052 00F10E03 		add	r3, r0, #14
 1027 0056 06EB8303 		add	r3, r6, r3, lsl #2
 1028 005a 5B68     		ldr	r3, [r3, #4]
 1029 005c 002B     		cmp	r3, #0
 1030 005e D7D1     		bne	.L65
 201:Drivers/lvgl/lvgl/src/extra/widgets/imgbtn/lv_imgbtn.c ****            imgbtn->img_src_right[state] == NULL) {
 1031              		.loc 1 201 0 discriminator 1
 1032 0060 00F10803 		add	r3, r0, #8
 1033 0064 06EB8303 		add	r3, r6, r3, lsl #2
 1034 0068 5A68     		ldr	r2, [r3, #4]
 200:Drivers/lvgl/lvgl/src/extra/widgets/imgbtn/lv_imgbtn.c ****            imgbtn->img_src_mid[state] != NULL &&
 1035              		.loc 1 200 0 discriminator 1
 1036 006a 002A     		cmp	r2, #0
 1037 006c D0D0     		beq	.L65
 202:Drivers/lvgl/lvgl/src/extra/widgets/imgbtn/lv_imgbtn.c ****             lv_img_header_t header;
 1038              		.loc 1 202 0
 1039 006e 00F11403 		add	r3, r0, #20
 1040 0072 06EB8306 		add	r6, r6, r3, lsl #2
 1041              	.LVL149:
 1042 0076 7368     		ldr	r3, [r6, #4]
 201:Drivers/lvgl/lvgl/src/extra/widgets/imgbtn/lv_imgbtn.c ****            imgbtn->img_src_right[state] == NULL) {
 1043              		.loc 1 201 0
ARM GAS  /tmp/ccJyF0Mv.s 			page 31


 1044 0078 002B     		cmp	r3, #0
 1045 007a C9D1     		bne	.L65
 1046              	.LBB20:
 204:Drivers/lvgl/lvgl/src/extra/widgets/imgbtn/lv_imgbtn.c ****             p->x = LV_MAX(p->x, header.w);
 1047              		.loc 1 204 0 discriminator 3
 1048 007c 01A9     		add	r1, sp, #4
 1049 007e 1046     		mov	r0, r2
 1050              	.LVL150:
 1051 0080 FFF7FEFF 		bl	lv_img_decoder_get_info
 1052              	.LVL151:
 205:Drivers/lvgl/lvgl/src/extra/widgets/imgbtn/lv_imgbtn.c ****         }
 1053              		.loc 1 205 0 discriminator 3
 1054 0084 019B     		ldr	r3, [sp, #4]
 1055 0086 C3F38A23 		ubfx	r3, r3, #10, #11
 1056 008a B4F90020 		ldrsh	r2, [r4]
 1057 008e 9342     		cmp	r3, r2
 1058 0090 B8BF     		it	lt
 1059 0092 1346     		movlt	r3, r2
 1060 0094 2380     		strh	r3, [r4]	@ movhi
 1061 0096 BBE7     		b	.L65
 1062              	.LVL152:
 1063              	.L67:
 1064              	.LBE20:
 1065              	.LBE19:
 187:Drivers/lvgl/lvgl/src/extra/widgets/imgbtn/lv_imgbtn.c ****     }
 1066              		.loc 1 187 0
 1067 0098 3046     		mov	r0, r6
 1068              	.LVL153:
 1069 009a FFF7FEFF 		bl	refr_img
 1070              	.LVL154:
 1071 009e B7E7     		b	.L65
 1072              	.LVL155:
 1073              	.L73:
 190:Drivers/lvgl/lvgl/src/extra/widgets/imgbtn/lv_imgbtn.c ****     }
 1074              		.loc 1 190 0
 1075 00a0 2046     		mov	r0, r4
 1076              	.LVL156:
 1077 00a2 FFF7FEFF 		bl	draw_main
 1078              	.LVL157:
 1079 00a6 B3E7     		b	.L65
 1080              	.LVL158:
 1081              	.L74:
 1082              	.LBB21:
 193:Drivers/lvgl/lvgl/src/extra/widgets/imgbtn/lv_imgbtn.c ****         if(info->res != LV_COVER_RES_MASKED) info->res = LV_COVER_RES_NOT_COVER;
 1083              		.loc 1 193 0
 1084 00a8 2046     		mov	r0, r4
 1085              	.LVL159:
 1086 00aa FFF7FEFF 		bl	lv_event_get_param
 1087              	.LVL160:
 194:Drivers/lvgl/lvgl/src/extra/widgets/imgbtn/lv_imgbtn.c ****     }
 1088              		.loc 1 194 0
 1089 00ae 0378     		ldrb	r3, [r0]	@ zero_extendqisi2
 1090 00b0 022B     		cmp	r3, #2
 1091 00b2 ADD0     		beq	.L65
 194:Drivers/lvgl/lvgl/src/extra/widgets/imgbtn/lv_imgbtn.c ****     }
 1092              		.loc 1 194 0 is_stmt 0 discriminator 1
 1093 00b4 0123     		movs	r3, #1
ARM GAS  /tmp/ccJyF0Mv.s 			page 32


 1094 00b6 0370     		strb	r3, [r0]
 1095 00b8 AAE7     		b	.L65
 1096              	.L76:
 1097 00ba 00BF     		.align	2
 1098              	.L75:
 1099 00bc 00000000 		.word	.LANCHOR0
 1100              	.LBE21:
 1101              		.cfi_endproc
 1102              	.LFE209:
 1104              		.global	lv_imgbtn_class
 1105              		.section	.rodata.lv_imgbtn_class,"a",%progbits
 1106              		.align	2
 1107              		.set	.LANCHOR0,. + 0
 1110              	lv_imgbtn_class:
 1111 0000 00000000 		.word	lv_obj_class
 1112 0004 00000000 		.word	lv_imgbtn_constructor
 1113 0008 00000000 		.space	8
 1113      00000000 
 1114 0010 00000000 		.word	lv_imgbtn_event
 1115 0014 00000000 		.space	4
 1116 0018 00       		.byte	0
 1117 0019 07       		.byte	7
 1118 001a 00       		.byte	0
 1119 001b 00       		.space	1
 1120              		.text
 1121              	.Letext0:
 1122              		.file 4 "/opt/gcc-arm-none-eabi-7-2017-q4-major/arm-none-eabi/include/machine/_default_types.h"
 1123              		.file 5 "/opt/gcc-arm-none-eabi-7-2017-q4-major/arm-none-eabi/include/sys/_stdint.h"
 1124              		.file 6 "Drivers/lvgl/lvgl/src/extra/widgets/imgbtn/../../../../src/misc/lv_types.h"
 1125              		.file 7 "/opt/gcc-arm-none-eabi-7-2017-q4-major/lib/gcc/arm-none-eabi/7.2.1/include/stddef.h"
 1126              		.file 8 "/opt/gcc-arm-none-eabi-7-2017-q4-major/arm-none-eabi/include/sys/lock.h"
 1127              		.file 9 "/opt/gcc-arm-none-eabi-7-2017-q4-major/arm-none-eabi/include/sys/_types.h"
 1128              		.file 10 "/opt/gcc-arm-none-eabi-7-2017-q4-major/arm-none-eabi/include/sys/reent.h"
 1129              		.file 11 "Drivers/lvgl/lvgl/src/extra/widgets/imgbtn/../../../../src/hal/../draw/../misc/../font/l
 1130              		.file 12 "Drivers/lvgl/lvgl/src/extra/widgets/imgbtn/../../../../src/hal/../draw/../misc/lv_color.
 1131              		.file 13 "Drivers/lvgl/lvgl/src/extra/widgets/imgbtn/../../../../src/hal/../draw/../misc/lv_txt.h"
 1132              		.file 14 "Drivers/lvgl/lvgl/src/extra/widgets/imgbtn/../../../../src/hal/../draw/../misc/lv_bidi.h
 1133              		.file 15 "Drivers/lvgl/lvgl/src/extra/widgets/imgbtn/../../../../src/hal/../draw/../misc/lv_style.
 1134              		.file 16 "Drivers/lvgl/lvgl/src/extra/widgets/imgbtn/../../../../src/hal/../draw/lv_img_buf.h"
 1135              		.file 17 "Drivers/lvgl/lvgl/src/extra/widgets/imgbtn/../../../../src/core/lv_obj.h"
 1136              		.file 18 "Drivers/lvgl/lvgl/src/extra/widgets/imgbtn/../../../../src/hal/../draw/lv_draw_rect.h"
 1137              		.file 19 "Drivers/lvgl/lvgl/src/extra/widgets/imgbtn/../../../../src/hal/../draw/lv_draw_label.h"
 1138              		.file 20 "Drivers/lvgl/lvgl/src/extra/widgets/imgbtn/../../../../src/hal/../draw/lv_draw_img.h"
 1139              		.file 21 "Drivers/lvgl/lvgl/src/extra/widgets/imgbtn/../../../../src/hal/../draw/lv_draw_line.h"
 1140              		.file 22 "Drivers/lvgl/lvgl/src/extra/widgets/imgbtn/../../../../src/hal/../draw/lv_draw_arc.h"
 1141              		.file 23 "Drivers/lvgl/lvgl/src/extra/widgets/imgbtn/../../../../src/hal/../draw/lv_draw_layer.h"
 1142              		.file 24 "Drivers/lvgl/lvgl/src/extra/widgets/imgbtn/../../../../src/hal/../draw/lv_draw.h"
 1143              		.file 25 "Drivers/lvgl/lvgl/src/extra/widgets/imgbtn/../../../../src/hal/../misc/lv_ll.h"
 1144              		.file 26 "Drivers/lvgl/lvgl/src/extra/widgets/imgbtn/../../../../src/core/lv_group.h"
 1145              		.file 27 "Drivers/lvgl/lvgl/src/extra/widgets/imgbtn/../../../../src/core/lv_obj_scroll.h"
 1146              		.file 28 "Drivers/lvgl/lvgl/src/extra/widgets/imgbtn/../../../../src/core/lv_obj_style.h"
 1147              		.file 29 "Drivers/lvgl/lvgl/src/extra/widgets/imgbtn/../../../../src/core/lv_obj_draw.h"
 1148              		.file 30 "Drivers/lvgl/lvgl/src/extra/widgets/imgbtn/../../../../src/core/lv_obj_class.h"
 1149              		.file 31 "Drivers/lvgl/lvgl/src/extra/widgets/imgbtn/../../../../src/core/lv_event.h"
 1150              		.file 32 "Drivers/lvgl/lvgl/src/extra/widgets/imgbtn/../../../../src/widgets/lv_arc.h"
 1151              		.file 33 "Drivers/lvgl/lvgl/src/extra/widgets/imgbtn/../../../../src/widgets/lv_btn.h"
 1152              		.file 34 "Drivers/lvgl/lvgl/src/extra/widgets/imgbtn/../../../../src/widgets/lv_img.h"
ARM GAS  /tmp/ccJyF0Mv.s 			page 33


 1153              		.file 35 "Drivers/lvgl/lvgl/src/extra/widgets/imgbtn/../../../../src/widgets/lv_label.h"
 1154              		.file 36 "Drivers/lvgl/lvgl/src/extra/widgets/imgbtn/../../../../src/widgets/lv_line.h"
 1155              		.file 37 "Drivers/lvgl/lvgl/src/extra/widgets/imgbtn/../../../../src/widgets/lv_table.h"
 1156              		.file 38 "Drivers/lvgl/lvgl/src/extra/widgets/imgbtn/../../../../src/widgets/lv_checkbox.h"
 1157              		.file 39 "Drivers/lvgl/lvgl/src/extra/widgets/imgbtn/../../../../src/widgets/lv_bar.h"
 1158              		.file 40 "Drivers/lvgl/lvgl/src/extra/widgets/imgbtn/../../../../src/widgets/lv_slider.h"
 1159              		.file 41 "Drivers/lvgl/lvgl/src/extra/widgets/imgbtn/../../../../src/widgets/lv_btnmatrix.h"
 1160              		.file 42 "Drivers/lvgl/lvgl/src/extra/widgets/imgbtn/../../../../src/widgets/lv_dropdown.h"
 1161              		.file 43 "Drivers/lvgl/lvgl/src/extra/widgets/imgbtn/../../../../src/widgets/lv_roller.h"
 1162              		.file 44 "Drivers/lvgl/lvgl/src/extra/widgets/imgbtn/../../../../src/widgets/lv_textarea.h"
 1163              		.file 45 "Drivers/lvgl/lvgl/src/extra/widgets/imgbtn/../../../../src/widgets/lv_canvas.h"
 1164              		.file 46 "Drivers/lvgl/lvgl/src/extra/widgets/imgbtn/../../../../src/widgets/lv_switch.h"
 1165              		.file 47 "Drivers/lvgl/lvgl/src/extra/widgets/imgbtn/../../../../src/extra/layouts/flex/lv_flex.h"
 1166              		.file 48 "Drivers/lvgl/lvgl/src/extra/widgets/imgbtn/../../../../src/extra/layouts/grid/lv_grid.h"
 1167              		.file 49 "Drivers/lvgl/lvgl/src/extra/widgets/imgbtn/../../../../src/extra/widgets/animimg/lv_anim
 1168              		.file 50 "Drivers/lvgl/lvgl/src/extra/widgets/imgbtn/../../../../src/extra/widgets/calendar/lv_cal
 1169              		.file 51 "Drivers/lvgl/lvgl/src/extra/widgets/imgbtn/../../../../src/extra/widgets/calendar/lv_cal
 1170              		.file 52 "Drivers/lvgl/lvgl/src/extra/widgets/imgbtn/../../../../src/extra/widgets/calendar/lv_cal
 1171              		.file 53 "Drivers/lvgl/lvgl/src/extra/widgets/imgbtn/../../../../src/extra/widgets/chart/lv_chart.
 1172              		.file 54 "Drivers/lvgl/lvgl/src/extra/widgets/imgbtn/../../../../src/extra/widgets/keyboard/lv_key
 1173              		.file 55 "Drivers/lvgl/lvgl/src/extra/widgets/imgbtn/../../../../src/extra/widgets/list/lv_list.h"
 1174              		.file 56 "Drivers/lvgl/lvgl/src/extra/widgets/imgbtn/../../../../src/extra/widgets/menu/lv_menu.h"
 1175              		.file 57 "Drivers/lvgl/lvgl/src/extra/widgets/imgbtn/../../../../src/extra/widgets/msgbox/lv_msgbo
 1176              		.file 58 "Drivers/lvgl/lvgl/src/extra/widgets/imgbtn/../../../../src/extra/widgets/meter/lv_meter.
 1177              		.file 59 "Drivers/lvgl/lvgl/src/extra/widgets/imgbtn/../../../../src/extra/widgets/spinbox/lv_spin
 1178              		.file 60 "Drivers/lvgl/lvgl/src/extra/widgets/imgbtn/../../../../src/extra/widgets/spinner/lv_spin
 1179              		.file 61 "Drivers/lvgl/lvgl/src/extra/widgets/imgbtn/../../../../src/extra/widgets/tabview/lv_tabv
 1180              		.file 62 "Drivers/lvgl/lvgl/src/extra/widgets/imgbtn/../../../../src/extra/widgets/tileview/lv_til
 1181              		.file 63 "Drivers/lvgl/lvgl/src/extra/widgets/imgbtn/../../../../src/extra/widgets/win/lv_win.h"
 1182              		.file 64 "Drivers/lvgl/lvgl/src/extra/widgets/imgbtn/../../../../src/extra/widgets/colorwheel/lv_c
 1183              		.file 65 "Drivers/lvgl/lvgl/src/extra/widgets/imgbtn/../../../../src/extra/widgets/led/lv_led.h"
 1184              		.file 66 "Drivers/lvgl/lvgl/src/extra/widgets/imgbtn/../../../../src/extra/widgets/span/lv_span.h"
 1185              		.file 67 "Drivers/lvgl/lvgl/src/extra/widgets/imgbtn/lv_imgbtn.h"
 1186              		.file 68 "Drivers/lvgl/lvgl/src/extra/widgets/imgbtn/../../../../src/hal/../draw/lv_img_decoder.h"
 1187              		.file 69 "Drivers/lvgl/lvgl/src/extra/widgets/imgbtn/../../../../src/hal/../draw/sw/../../core/lv_
 1188              		.file 70 "Drivers/lvgl/lvgl/src/extra/widgets/imgbtn/../../../../src/misc/lv_mem.h"
ARM GAS  /tmp/ccJyF0Mv.s 			page 34

