ARM GAS  /tmp/ccNaDK0X.s 			page 1


   1              		.cpu cortex-m7
   2              		.eabi_attribute 28, 1
   3              		.eabi_attribute 20, 1
   4              		.eabi_attribute 21, 1
   5              		.eabi_attribute 23, 3
   6              		.eabi_attribute 24, 1
   7              		.eabi_attribute 25, 1
   8              		.eabi_attribute 26, 1
   9              		.eabi_attribute 30, 1
  10              		.eabi_attribute 34, 1
  11              		.eabi_attribute 18, 4
  12              		.file	"lv_img.c"
  13              		.text
  14              	.Ltext0:
  15              		.cfi_sections	.debug_frame
  16              		.section	.text.lv_img_get_transformed_size,"ax",%progbits
  17              		.align	1
  18              		.syntax unified
  19              		.thumb
  20              		.thumb_func
  21              		.fpu fpv5-d16
  23              	lv_img_get_transformed_size:
  24              	.LFB184:
  25              		.file 1 "Drivers/lvgl/lvgl/src/widgets/lv_img.c"
   1:Drivers/lvgl/lvgl/src/widgets/lv_img.c **** /**
   2:Drivers/lvgl/lvgl/src/widgets/lv_img.c ****  * @file lv_img.c
   3:Drivers/lvgl/lvgl/src/widgets/lv_img.c ****  *
   4:Drivers/lvgl/lvgl/src/widgets/lv_img.c ****  */
   5:Drivers/lvgl/lvgl/src/widgets/lv_img.c **** 
   6:Drivers/lvgl/lvgl/src/widgets/lv_img.c **** /*********************
   7:Drivers/lvgl/lvgl/src/widgets/lv_img.c ****  *      INCLUDES
   8:Drivers/lvgl/lvgl/src/widgets/lv_img.c ****  *********************/
   9:Drivers/lvgl/lvgl/src/widgets/lv_img.c **** #include "lv_img.h"
  10:Drivers/lvgl/lvgl/src/widgets/lv_img.c **** #if LV_USE_IMG != 0
  11:Drivers/lvgl/lvgl/src/widgets/lv_img.c **** 
  12:Drivers/lvgl/lvgl/src/widgets/lv_img.c **** #include "../core/lv_disp.h"
  13:Drivers/lvgl/lvgl/src/widgets/lv_img.c **** #include "../misc/lv_assert.h"
  14:Drivers/lvgl/lvgl/src/widgets/lv_img.c **** #include "../draw/lv_img_decoder.h"
  15:Drivers/lvgl/lvgl/src/widgets/lv_img.c **** #include "../misc/lv_fs.h"
  16:Drivers/lvgl/lvgl/src/widgets/lv_img.c **** #include "../misc/lv_txt.h"
  17:Drivers/lvgl/lvgl/src/widgets/lv_img.c **** #include "../misc/lv_math.h"
  18:Drivers/lvgl/lvgl/src/widgets/lv_img.c **** #include "../misc/lv_log.h"
  19:Drivers/lvgl/lvgl/src/widgets/lv_img.c **** 
  20:Drivers/lvgl/lvgl/src/widgets/lv_img.c **** /*********************
  21:Drivers/lvgl/lvgl/src/widgets/lv_img.c ****  *      DEFINES
  22:Drivers/lvgl/lvgl/src/widgets/lv_img.c ****  *********************/
  23:Drivers/lvgl/lvgl/src/widgets/lv_img.c **** #define MY_CLASS &lv_img_class
  24:Drivers/lvgl/lvgl/src/widgets/lv_img.c **** 
  25:Drivers/lvgl/lvgl/src/widgets/lv_img.c **** /**********************
  26:Drivers/lvgl/lvgl/src/widgets/lv_img.c ****  *      TYPEDEFS
  27:Drivers/lvgl/lvgl/src/widgets/lv_img.c ****  **********************/
  28:Drivers/lvgl/lvgl/src/widgets/lv_img.c **** 
  29:Drivers/lvgl/lvgl/src/widgets/lv_img.c **** /**********************
  30:Drivers/lvgl/lvgl/src/widgets/lv_img.c ****  *  STATIC PROTOTYPES
  31:Drivers/lvgl/lvgl/src/widgets/lv_img.c ****  **********************/
  32:Drivers/lvgl/lvgl/src/widgets/lv_img.c **** static void lv_img_constructor(const lv_obj_class_t * class_p, lv_obj_t * obj);
  33:Drivers/lvgl/lvgl/src/widgets/lv_img.c **** static void lv_img_destructor(const lv_obj_class_t * class_p, lv_obj_t * obj);
ARM GAS  /tmp/ccNaDK0X.s 			page 2


  34:Drivers/lvgl/lvgl/src/widgets/lv_img.c **** static void lv_img_event(const lv_obj_class_t * class_p, lv_event_t * e);
  35:Drivers/lvgl/lvgl/src/widgets/lv_img.c **** static void draw_img(lv_event_t * e);
  36:Drivers/lvgl/lvgl/src/widgets/lv_img.c **** 
  37:Drivers/lvgl/lvgl/src/widgets/lv_img.c **** /**********************
  38:Drivers/lvgl/lvgl/src/widgets/lv_img.c ****  *  STATIC VARIABLES
  39:Drivers/lvgl/lvgl/src/widgets/lv_img.c ****  **********************/
  40:Drivers/lvgl/lvgl/src/widgets/lv_img.c **** const lv_obj_class_t lv_img_class = {
  41:Drivers/lvgl/lvgl/src/widgets/lv_img.c ****     .constructor_cb = lv_img_constructor,
  42:Drivers/lvgl/lvgl/src/widgets/lv_img.c ****     .destructor_cb = lv_img_destructor,
  43:Drivers/lvgl/lvgl/src/widgets/lv_img.c ****     .event_cb = lv_img_event,
  44:Drivers/lvgl/lvgl/src/widgets/lv_img.c ****     .width_def = LV_SIZE_CONTENT,
  45:Drivers/lvgl/lvgl/src/widgets/lv_img.c ****     .height_def = LV_SIZE_CONTENT,
  46:Drivers/lvgl/lvgl/src/widgets/lv_img.c ****     .instance_size = sizeof(lv_img_t),
  47:Drivers/lvgl/lvgl/src/widgets/lv_img.c ****     .base_class = &lv_obj_class
  48:Drivers/lvgl/lvgl/src/widgets/lv_img.c **** };
  49:Drivers/lvgl/lvgl/src/widgets/lv_img.c **** 
  50:Drivers/lvgl/lvgl/src/widgets/lv_img.c **** /**********************
  51:Drivers/lvgl/lvgl/src/widgets/lv_img.c ****  *      MACROS
  52:Drivers/lvgl/lvgl/src/widgets/lv_img.c ****  **********************/
  53:Drivers/lvgl/lvgl/src/widgets/lv_img.c **** 
  54:Drivers/lvgl/lvgl/src/widgets/lv_img.c **** /**********************
  55:Drivers/lvgl/lvgl/src/widgets/lv_img.c ****  *   GLOBAL FUNCTIONS
  56:Drivers/lvgl/lvgl/src/widgets/lv_img.c ****  **********************/
  57:Drivers/lvgl/lvgl/src/widgets/lv_img.c **** 
  58:Drivers/lvgl/lvgl/src/widgets/lv_img.c **** lv_obj_t * lv_img_create(lv_obj_t * parent)
  59:Drivers/lvgl/lvgl/src/widgets/lv_img.c **** {
  60:Drivers/lvgl/lvgl/src/widgets/lv_img.c ****     LV_LOG_INFO("begin");
  61:Drivers/lvgl/lvgl/src/widgets/lv_img.c ****     lv_obj_t * obj = lv_obj_class_create_obj(MY_CLASS, parent);
  62:Drivers/lvgl/lvgl/src/widgets/lv_img.c ****     lv_obj_class_init_obj(obj);
  63:Drivers/lvgl/lvgl/src/widgets/lv_img.c ****     return obj;
  64:Drivers/lvgl/lvgl/src/widgets/lv_img.c **** }
  65:Drivers/lvgl/lvgl/src/widgets/lv_img.c **** 
  66:Drivers/lvgl/lvgl/src/widgets/lv_img.c **** /*=====================
  67:Drivers/lvgl/lvgl/src/widgets/lv_img.c ****  * Setter functions
  68:Drivers/lvgl/lvgl/src/widgets/lv_img.c ****  *====================*/
  69:Drivers/lvgl/lvgl/src/widgets/lv_img.c **** 
  70:Drivers/lvgl/lvgl/src/widgets/lv_img.c **** void lv_img_set_src(lv_obj_t * obj, const void * src)
  71:Drivers/lvgl/lvgl/src/widgets/lv_img.c **** {
  72:Drivers/lvgl/lvgl/src/widgets/lv_img.c ****     LV_ASSERT_OBJ(obj, MY_CLASS);
  73:Drivers/lvgl/lvgl/src/widgets/lv_img.c **** 
  74:Drivers/lvgl/lvgl/src/widgets/lv_img.c ****     lv_obj_invalidate(obj);
  75:Drivers/lvgl/lvgl/src/widgets/lv_img.c **** 
  76:Drivers/lvgl/lvgl/src/widgets/lv_img.c ****     lv_img_src_t src_type = lv_img_src_get_type(src);
  77:Drivers/lvgl/lvgl/src/widgets/lv_img.c ****     lv_img_t * img = (lv_img_t *)obj;
  78:Drivers/lvgl/lvgl/src/widgets/lv_img.c **** 
  79:Drivers/lvgl/lvgl/src/widgets/lv_img.c **** #if LV_USE_LOG && LV_LOG_LEVEL >= LV_LOG_LEVEL_INFO
  80:Drivers/lvgl/lvgl/src/widgets/lv_img.c ****     switch(src_type) {
  81:Drivers/lvgl/lvgl/src/widgets/lv_img.c ****         case LV_IMG_SRC_FILE:
  82:Drivers/lvgl/lvgl/src/widgets/lv_img.c ****             LV_LOG_TRACE("lv_img_set_src: `LV_IMG_SRC_FILE` type found");
  83:Drivers/lvgl/lvgl/src/widgets/lv_img.c ****             break;
  84:Drivers/lvgl/lvgl/src/widgets/lv_img.c ****         case LV_IMG_SRC_VARIABLE:
  85:Drivers/lvgl/lvgl/src/widgets/lv_img.c ****             LV_LOG_TRACE("lv_img_set_src: `LV_IMG_SRC_VARIABLE` type found");
  86:Drivers/lvgl/lvgl/src/widgets/lv_img.c ****             break;
  87:Drivers/lvgl/lvgl/src/widgets/lv_img.c ****         case LV_IMG_SRC_SYMBOL:
  88:Drivers/lvgl/lvgl/src/widgets/lv_img.c ****             LV_LOG_TRACE("lv_img_set_src: `LV_IMG_SRC_SYMBOL` type found");
  89:Drivers/lvgl/lvgl/src/widgets/lv_img.c ****             break;
  90:Drivers/lvgl/lvgl/src/widgets/lv_img.c ****         default:
ARM GAS  /tmp/ccNaDK0X.s 			page 3


  91:Drivers/lvgl/lvgl/src/widgets/lv_img.c ****             LV_LOG_WARN("lv_img_set_src: unknown type");
  92:Drivers/lvgl/lvgl/src/widgets/lv_img.c ****     }
  93:Drivers/lvgl/lvgl/src/widgets/lv_img.c **** #endif
  94:Drivers/lvgl/lvgl/src/widgets/lv_img.c **** 
  95:Drivers/lvgl/lvgl/src/widgets/lv_img.c ****     /*If the new source type is unknown free the memories of the old source*/
  96:Drivers/lvgl/lvgl/src/widgets/lv_img.c ****     if(src_type == LV_IMG_SRC_UNKNOWN) {
  97:Drivers/lvgl/lvgl/src/widgets/lv_img.c ****         LV_LOG_WARN("lv_img_set_src: unknown image type");
  98:Drivers/lvgl/lvgl/src/widgets/lv_img.c ****         if(img->src_type == LV_IMG_SRC_SYMBOL || img->src_type == LV_IMG_SRC_FILE) {
  99:Drivers/lvgl/lvgl/src/widgets/lv_img.c ****             lv_mem_free((void *)img->src);
 100:Drivers/lvgl/lvgl/src/widgets/lv_img.c ****         }
 101:Drivers/lvgl/lvgl/src/widgets/lv_img.c ****         img->src      = NULL;
 102:Drivers/lvgl/lvgl/src/widgets/lv_img.c ****         img->src_type = LV_IMG_SRC_UNKNOWN;
 103:Drivers/lvgl/lvgl/src/widgets/lv_img.c ****         return;
 104:Drivers/lvgl/lvgl/src/widgets/lv_img.c ****     }
 105:Drivers/lvgl/lvgl/src/widgets/lv_img.c **** 
 106:Drivers/lvgl/lvgl/src/widgets/lv_img.c ****     lv_img_header_t header;
 107:Drivers/lvgl/lvgl/src/widgets/lv_img.c ****     lv_img_decoder_get_info(src, &header);
 108:Drivers/lvgl/lvgl/src/widgets/lv_img.c **** 
 109:Drivers/lvgl/lvgl/src/widgets/lv_img.c ****     /*Save the source*/
 110:Drivers/lvgl/lvgl/src/widgets/lv_img.c ****     if(src_type == LV_IMG_SRC_VARIABLE) {
 111:Drivers/lvgl/lvgl/src/widgets/lv_img.c ****         /*If memory was allocated because of the previous `src_type` then free it*/
 112:Drivers/lvgl/lvgl/src/widgets/lv_img.c ****         if(img->src_type == LV_IMG_SRC_FILE || img->src_type == LV_IMG_SRC_SYMBOL) {
 113:Drivers/lvgl/lvgl/src/widgets/lv_img.c ****             lv_mem_free((void *)img->src);
 114:Drivers/lvgl/lvgl/src/widgets/lv_img.c ****         }
 115:Drivers/lvgl/lvgl/src/widgets/lv_img.c ****         img->src = src;
 116:Drivers/lvgl/lvgl/src/widgets/lv_img.c ****     }
 117:Drivers/lvgl/lvgl/src/widgets/lv_img.c ****     else if(src_type == LV_IMG_SRC_FILE || src_type == LV_IMG_SRC_SYMBOL) {
 118:Drivers/lvgl/lvgl/src/widgets/lv_img.c ****         /*If the new and the old src are the same then it was only a refresh.*/
 119:Drivers/lvgl/lvgl/src/widgets/lv_img.c ****         if(img->src != src) {
 120:Drivers/lvgl/lvgl/src/widgets/lv_img.c ****             const void * old_src = NULL;
 121:Drivers/lvgl/lvgl/src/widgets/lv_img.c ****             /*If memory was allocated because of the previous `src_type` then save its pointer and 
 122:Drivers/lvgl/lvgl/src/widgets/lv_img.c ****              *It's important to allocate first to be sure the new data will be on a new address.
 123:Drivers/lvgl/lvgl/src/widgets/lv_img.c ****              *Else `img_cache` wouldn't see the change in source.*/
 124:Drivers/lvgl/lvgl/src/widgets/lv_img.c ****             if(img->src_type == LV_IMG_SRC_FILE || img->src_type == LV_IMG_SRC_SYMBOL) {
 125:Drivers/lvgl/lvgl/src/widgets/lv_img.c ****                 old_src = img->src;
 126:Drivers/lvgl/lvgl/src/widgets/lv_img.c ****             }
 127:Drivers/lvgl/lvgl/src/widgets/lv_img.c ****             char * new_str = lv_mem_alloc(strlen(src) + 1);
 128:Drivers/lvgl/lvgl/src/widgets/lv_img.c ****             LV_ASSERT_MALLOC(new_str);
 129:Drivers/lvgl/lvgl/src/widgets/lv_img.c ****             if(new_str == NULL) return;
 130:Drivers/lvgl/lvgl/src/widgets/lv_img.c ****             strcpy(new_str, src);
 131:Drivers/lvgl/lvgl/src/widgets/lv_img.c ****             img->src = new_str;
 132:Drivers/lvgl/lvgl/src/widgets/lv_img.c **** 
 133:Drivers/lvgl/lvgl/src/widgets/lv_img.c ****             if(old_src) lv_mem_free((void *)old_src);
 134:Drivers/lvgl/lvgl/src/widgets/lv_img.c ****         }
 135:Drivers/lvgl/lvgl/src/widgets/lv_img.c ****     }
 136:Drivers/lvgl/lvgl/src/widgets/lv_img.c **** 
 137:Drivers/lvgl/lvgl/src/widgets/lv_img.c ****     if(src_type == LV_IMG_SRC_SYMBOL) {
 138:Drivers/lvgl/lvgl/src/widgets/lv_img.c ****         /*`lv_img_dsc_get_info` couldn't set the width and height of a font so set it here*/
 139:Drivers/lvgl/lvgl/src/widgets/lv_img.c ****         const lv_font_t * font = lv_obj_get_style_text_font(obj, LV_PART_MAIN);
 140:Drivers/lvgl/lvgl/src/widgets/lv_img.c ****         lv_coord_t letter_space = lv_obj_get_style_text_letter_space(obj, LV_PART_MAIN);
 141:Drivers/lvgl/lvgl/src/widgets/lv_img.c ****         lv_coord_t line_space = lv_obj_get_style_text_line_space(obj, LV_PART_MAIN);
 142:Drivers/lvgl/lvgl/src/widgets/lv_img.c ****         lv_point_t size;
 143:Drivers/lvgl/lvgl/src/widgets/lv_img.c ****         lv_txt_get_size(&size, src, font, letter_space, line_space, LV_COORD_MAX, LV_TEXT_FLAG_NONE
 144:Drivers/lvgl/lvgl/src/widgets/lv_img.c ****         header.w = size.x;
 145:Drivers/lvgl/lvgl/src/widgets/lv_img.c ****         header.h = size.y;
 146:Drivers/lvgl/lvgl/src/widgets/lv_img.c ****     }
 147:Drivers/lvgl/lvgl/src/widgets/lv_img.c **** 
ARM GAS  /tmp/ccNaDK0X.s 			page 4


 148:Drivers/lvgl/lvgl/src/widgets/lv_img.c ****     img->src_type = src_type;
 149:Drivers/lvgl/lvgl/src/widgets/lv_img.c ****     img->w        = header.w;
 150:Drivers/lvgl/lvgl/src/widgets/lv_img.c ****     img->h        = header.h;
 151:Drivers/lvgl/lvgl/src/widgets/lv_img.c ****     img->cf       = header.cf;
 152:Drivers/lvgl/lvgl/src/widgets/lv_img.c ****     img->pivot.x = header.w / 2;
 153:Drivers/lvgl/lvgl/src/widgets/lv_img.c ****     img->pivot.y = header.h / 2;
 154:Drivers/lvgl/lvgl/src/widgets/lv_img.c **** 
 155:Drivers/lvgl/lvgl/src/widgets/lv_img.c ****     lv_obj_refresh_self_size(obj);
 156:Drivers/lvgl/lvgl/src/widgets/lv_img.c **** 
 157:Drivers/lvgl/lvgl/src/widgets/lv_img.c ****     /*Provide enough room for the rotated corners*/
 158:Drivers/lvgl/lvgl/src/widgets/lv_img.c ****     if(img->angle || img->zoom != LV_IMG_ZOOM_NONE) lv_obj_refresh_ext_draw_size(obj);
 159:Drivers/lvgl/lvgl/src/widgets/lv_img.c **** 
 160:Drivers/lvgl/lvgl/src/widgets/lv_img.c ****     lv_obj_invalidate(obj);
 161:Drivers/lvgl/lvgl/src/widgets/lv_img.c **** }
 162:Drivers/lvgl/lvgl/src/widgets/lv_img.c **** 
 163:Drivers/lvgl/lvgl/src/widgets/lv_img.c **** void lv_img_set_offset_x(lv_obj_t * obj, lv_coord_t x)
 164:Drivers/lvgl/lvgl/src/widgets/lv_img.c **** {
 165:Drivers/lvgl/lvgl/src/widgets/lv_img.c ****     LV_ASSERT_OBJ(obj, MY_CLASS);
 166:Drivers/lvgl/lvgl/src/widgets/lv_img.c **** 
 167:Drivers/lvgl/lvgl/src/widgets/lv_img.c ****     lv_img_t * img = (lv_img_t *)obj;
 168:Drivers/lvgl/lvgl/src/widgets/lv_img.c **** 
 169:Drivers/lvgl/lvgl/src/widgets/lv_img.c ****     img->offset.x = x;
 170:Drivers/lvgl/lvgl/src/widgets/lv_img.c ****     lv_obj_invalidate(obj);
 171:Drivers/lvgl/lvgl/src/widgets/lv_img.c **** }
 172:Drivers/lvgl/lvgl/src/widgets/lv_img.c **** 
 173:Drivers/lvgl/lvgl/src/widgets/lv_img.c **** void lv_img_set_offset_y(lv_obj_t * obj, lv_coord_t y)
 174:Drivers/lvgl/lvgl/src/widgets/lv_img.c **** {
 175:Drivers/lvgl/lvgl/src/widgets/lv_img.c ****     LV_ASSERT_OBJ(obj, MY_CLASS);
 176:Drivers/lvgl/lvgl/src/widgets/lv_img.c **** 
 177:Drivers/lvgl/lvgl/src/widgets/lv_img.c ****     lv_img_t * img = (lv_img_t *)obj;
 178:Drivers/lvgl/lvgl/src/widgets/lv_img.c **** 
 179:Drivers/lvgl/lvgl/src/widgets/lv_img.c ****     img->offset.y = y;
 180:Drivers/lvgl/lvgl/src/widgets/lv_img.c ****     lv_obj_invalidate(obj);
 181:Drivers/lvgl/lvgl/src/widgets/lv_img.c **** }
 182:Drivers/lvgl/lvgl/src/widgets/lv_img.c **** 
 183:Drivers/lvgl/lvgl/src/widgets/lv_img.c **** void lv_img_set_angle(lv_obj_t * obj, int16_t angle)
 184:Drivers/lvgl/lvgl/src/widgets/lv_img.c **** {
 185:Drivers/lvgl/lvgl/src/widgets/lv_img.c ****     while(angle >= 3600) angle -= 3600;
 186:Drivers/lvgl/lvgl/src/widgets/lv_img.c ****     while(angle < 0) angle += 3600;
 187:Drivers/lvgl/lvgl/src/widgets/lv_img.c **** 
 188:Drivers/lvgl/lvgl/src/widgets/lv_img.c ****     lv_img_t * img = (lv_img_t *)obj;
 189:Drivers/lvgl/lvgl/src/widgets/lv_img.c ****     if(angle == img->angle) return;
 190:Drivers/lvgl/lvgl/src/widgets/lv_img.c **** 
 191:Drivers/lvgl/lvgl/src/widgets/lv_img.c ****     lv_obj_update_layout(obj);  /*Be sure the object's size is calculated*/
 192:Drivers/lvgl/lvgl/src/widgets/lv_img.c ****     lv_coord_t w = lv_obj_get_width(obj);
 193:Drivers/lvgl/lvgl/src/widgets/lv_img.c ****     lv_coord_t h = lv_obj_get_height(obj);
 194:Drivers/lvgl/lvgl/src/widgets/lv_img.c ****     lv_area_t a;
 195:Drivers/lvgl/lvgl/src/widgets/lv_img.c ****     _lv_img_buf_get_transformed_area(&a, w, h, img->angle, img->zoom, &img->pivot);
 196:Drivers/lvgl/lvgl/src/widgets/lv_img.c ****     a.x1 += obj->coords.x1;
 197:Drivers/lvgl/lvgl/src/widgets/lv_img.c ****     a.y1 += obj->coords.y1;
 198:Drivers/lvgl/lvgl/src/widgets/lv_img.c ****     a.x2 += obj->coords.x1;
 199:Drivers/lvgl/lvgl/src/widgets/lv_img.c ****     a.y2 += obj->coords.y1;
 200:Drivers/lvgl/lvgl/src/widgets/lv_img.c ****     lv_obj_invalidate_area(obj, &a);
 201:Drivers/lvgl/lvgl/src/widgets/lv_img.c **** 
 202:Drivers/lvgl/lvgl/src/widgets/lv_img.c ****     img->angle = angle;
 203:Drivers/lvgl/lvgl/src/widgets/lv_img.c **** 
 204:Drivers/lvgl/lvgl/src/widgets/lv_img.c ****     /* Disable invalidations because lv_obj_refresh_ext_draw_size would invalidate
ARM GAS  /tmp/ccNaDK0X.s 			page 5


 205:Drivers/lvgl/lvgl/src/widgets/lv_img.c ****      * the whole ext draw area */
 206:Drivers/lvgl/lvgl/src/widgets/lv_img.c ****     lv_disp_t * disp = lv_obj_get_disp(obj);
 207:Drivers/lvgl/lvgl/src/widgets/lv_img.c ****     lv_disp_enable_invalidation(disp, false);
 208:Drivers/lvgl/lvgl/src/widgets/lv_img.c ****     lv_obj_refresh_ext_draw_size(obj);
 209:Drivers/lvgl/lvgl/src/widgets/lv_img.c ****     lv_disp_enable_invalidation(disp, true);
 210:Drivers/lvgl/lvgl/src/widgets/lv_img.c **** 
 211:Drivers/lvgl/lvgl/src/widgets/lv_img.c ****     _lv_img_buf_get_transformed_area(&a, w, h, img->angle, img->zoom, &img->pivot);
 212:Drivers/lvgl/lvgl/src/widgets/lv_img.c ****     a.x1 += obj->coords.x1;
 213:Drivers/lvgl/lvgl/src/widgets/lv_img.c ****     a.y1 += obj->coords.y1;
 214:Drivers/lvgl/lvgl/src/widgets/lv_img.c ****     a.x2 += obj->coords.x1;
 215:Drivers/lvgl/lvgl/src/widgets/lv_img.c ****     a.y2 += obj->coords.y1;
 216:Drivers/lvgl/lvgl/src/widgets/lv_img.c ****     lv_obj_invalidate_area(obj, &a);
 217:Drivers/lvgl/lvgl/src/widgets/lv_img.c **** }
 218:Drivers/lvgl/lvgl/src/widgets/lv_img.c **** 
 219:Drivers/lvgl/lvgl/src/widgets/lv_img.c **** void lv_img_set_pivot(lv_obj_t * obj, lv_coord_t x, lv_coord_t y)
 220:Drivers/lvgl/lvgl/src/widgets/lv_img.c **** {
 221:Drivers/lvgl/lvgl/src/widgets/lv_img.c ****     lv_img_t * img = (lv_img_t *)obj;
 222:Drivers/lvgl/lvgl/src/widgets/lv_img.c ****     if(img->pivot.x == x && img->pivot.y == y) return;
 223:Drivers/lvgl/lvgl/src/widgets/lv_img.c **** 
 224:Drivers/lvgl/lvgl/src/widgets/lv_img.c ****     lv_obj_update_layout(obj);  /*Be sure the object's size is calculated*/
 225:Drivers/lvgl/lvgl/src/widgets/lv_img.c ****     lv_coord_t w = lv_obj_get_width(obj);
 226:Drivers/lvgl/lvgl/src/widgets/lv_img.c ****     lv_coord_t h = lv_obj_get_height(obj);
 227:Drivers/lvgl/lvgl/src/widgets/lv_img.c ****     lv_area_t a;
 228:Drivers/lvgl/lvgl/src/widgets/lv_img.c ****     _lv_img_buf_get_transformed_area(&a, w, h, img->angle, img->zoom, &img->pivot);
 229:Drivers/lvgl/lvgl/src/widgets/lv_img.c ****     a.x1 += obj->coords.x1;
 230:Drivers/lvgl/lvgl/src/widgets/lv_img.c ****     a.y1 += obj->coords.y1;
 231:Drivers/lvgl/lvgl/src/widgets/lv_img.c ****     a.x2 += obj->coords.x1;
 232:Drivers/lvgl/lvgl/src/widgets/lv_img.c ****     a.y2 += obj->coords.y1;
 233:Drivers/lvgl/lvgl/src/widgets/lv_img.c ****     lv_obj_invalidate_area(obj, &a);
 234:Drivers/lvgl/lvgl/src/widgets/lv_img.c **** 
 235:Drivers/lvgl/lvgl/src/widgets/lv_img.c ****     img->pivot.x = x;
 236:Drivers/lvgl/lvgl/src/widgets/lv_img.c ****     img->pivot.y = y;
 237:Drivers/lvgl/lvgl/src/widgets/lv_img.c **** 
 238:Drivers/lvgl/lvgl/src/widgets/lv_img.c ****     /* Disable invalidations because lv_obj_refresh_ext_draw_size would invalidate
 239:Drivers/lvgl/lvgl/src/widgets/lv_img.c ****      * the whole ext draw area */
 240:Drivers/lvgl/lvgl/src/widgets/lv_img.c ****     lv_disp_t * disp = lv_obj_get_disp(obj);
 241:Drivers/lvgl/lvgl/src/widgets/lv_img.c ****     lv_disp_enable_invalidation(disp, false);
 242:Drivers/lvgl/lvgl/src/widgets/lv_img.c ****     lv_obj_refresh_ext_draw_size(obj);
 243:Drivers/lvgl/lvgl/src/widgets/lv_img.c ****     lv_disp_enable_invalidation(disp, true);
 244:Drivers/lvgl/lvgl/src/widgets/lv_img.c **** 
 245:Drivers/lvgl/lvgl/src/widgets/lv_img.c ****     _lv_img_buf_get_transformed_area(&a, w, h, img->angle, img->zoom, &img->pivot);
 246:Drivers/lvgl/lvgl/src/widgets/lv_img.c ****     a.x1 += obj->coords.x1;
 247:Drivers/lvgl/lvgl/src/widgets/lv_img.c ****     a.y1 += obj->coords.y1;
 248:Drivers/lvgl/lvgl/src/widgets/lv_img.c ****     a.x2 += obj->coords.x1;
 249:Drivers/lvgl/lvgl/src/widgets/lv_img.c ****     a.y2 += obj->coords.y1;
 250:Drivers/lvgl/lvgl/src/widgets/lv_img.c ****     lv_obj_invalidate_area(obj, &a);
 251:Drivers/lvgl/lvgl/src/widgets/lv_img.c **** }
 252:Drivers/lvgl/lvgl/src/widgets/lv_img.c **** 
 253:Drivers/lvgl/lvgl/src/widgets/lv_img.c **** void lv_img_set_zoom(lv_obj_t * obj, uint16_t zoom)
 254:Drivers/lvgl/lvgl/src/widgets/lv_img.c **** {
 255:Drivers/lvgl/lvgl/src/widgets/lv_img.c ****     lv_img_t * img = (lv_img_t *)obj;
 256:Drivers/lvgl/lvgl/src/widgets/lv_img.c ****     if(zoom == img->zoom) return;
 257:Drivers/lvgl/lvgl/src/widgets/lv_img.c **** 
 258:Drivers/lvgl/lvgl/src/widgets/lv_img.c ****     if(zoom == 0) zoom = 1;
 259:Drivers/lvgl/lvgl/src/widgets/lv_img.c **** 
 260:Drivers/lvgl/lvgl/src/widgets/lv_img.c ****     lv_obj_update_layout(obj);  /*Be sure the object's size is calculated*/
 261:Drivers/lvgl/lvgl/src/widgets/lv_img.c ****     lv_coord_t w = lv_obj_get_width(obj);
ARM GAS  /tmp/ccNaDK0X.s 			page 6


 262:Drivers/lvgl/lvgl/src/widgets/lv_img.c ****     lv_coord_t h = lv_obj_get_height(obj);
 263:Drivers/lvgl/lvgl/src/widgets/lv_img.c ****     lv_area_t a;
 264:Drivers/lvgl/lvgl/src/widgets/lv_img.c ****     _lv_img_buf_get_transformed_area(&a, w, h, img->angle, img->zoom >> 8, &img->pivot);
 265:Drivers/lvgl/lvgl/src/widgets/lv_img.c ****     a.x1 += obj->coords.x1 - 1;
 266:Drivers/lvgl/lvgl/src/widgets/lv_img.c ****     a.y1 += obj->coords.y1 - 1;
 267:Drivers/lvgl/lvgl/src/widgets/lv_img.c ****     a.x2 += obj->coords.x1 + 1;
 268:Drivers/lvgl/lvgl/src/widgets/lv_img.c ****     a.y2 += obj->coords.y1 + 1;
 269:Drivers/lvgl/lvgl/src/widgets/lv_img.c ****     lv_obj_invalidate_area(obj, &a);
 270:Drivers/lvgl/lvgl/src/widgets/lv_img.c **** 
 271:Drivers/lvgl/lvgl/src/widgets/lv_img.c ****     img->zoom = zoom;
 272:Drivers/lvgl/lvgl/src/widgets/lv_img.c **** 
 273:Drivers/lvgl/lvgl/src/widgets/lv_img.c ****     /* Disable invalidations because lv_obj_refresh_ext_draw_size would invalidate
 274:Drivers/lvgl/lvgl/src/widgets/lv_img.c ****      * the whole ext draw area */
 275:Drivers/lvgl/lvgl/src/widgets/lv_img.c ****     lv_disp_t * disp = lv_obj_get_disp(obj);
 276:Drivers/lvgl/lvgl/src/widgets/lv_img.c ****     lv_disp_enable_invalidation(disp, false);
 277:Drivers/lvgl/lvgl/src/widgets/lv_img.c ****     lv_obj_refresh_ext_draw_size(obj);
 278:Drivers/lvgl/lvgl/src/widgets/lv_img.c ****     lv_disp_enable_invalidation(disp, true);
 279:Drivers/lvgl/lvgl/src/widgets/lv_img.c **** 
 280:Drivers/lvgl/lvgl/src/widgets/lv_img.c ****     _lv_img_buf_get_transformed_area(&a, w, h, img->angle, img->zoom, &img->pivot);
 281:Drivers/lvgl/lvgl/src/widgets/lv_img.c ****     a.x1 += obj->coords.x1 - 1;
 282:Drivers/lvgl/lvgl/src/widgets/lv_img.c ****     a.y1 += obj->coords.y1 - 1;
 283:Drivers/lvgl/lvgl/src/widgets/lv_img.c ****     a.x2 += obj->coords.x1 + 1;
 284:Drivers/lvgl/lvgl/src/widgets/lv_img.c ****     a.y2 += obj->coords.y1 + 1;
 285:Drivers/lvgl/lvgl/src/widgets/lv_img.c ****     lv_obj_invalidate_area(obj, &a);
 286:Drivers/lvgl/lvgl/src/widgets/lv_img.c **** }
 287:Drivers/lvgl/lvgl/src/widgets/lv_img.c **** 
 288:Drivers/lvgl/lvgl/src/widgets/lv_img.c **** void lv_img_set_antialias(lv_obj_t * obj, bool antialias)
 289:Drivers/lvgl/lvgl/src/widgets/lv_img.c **** {
 290:Drivers/lvgl/lvgl/src/widgets/lv_img.c ****     lv_img_t * img = (lv_img_t *)obj;
 291:Drivers/lvgl/lvgl/src/widgets/lv_img.c ****     if(antialias == img->antialias) return;
 292:Drivers/lvgl/lvgl/src/widgets/lv_img.c **** 
 293:Drivers/lvgl/lvgl/src/widgets/lv_img.c ****     img->antialias = antialias;
 294:Drivers/lvgl/lvgl/src/widgets/lv_img.c ****     lv_obj_invalidate(obj);
 295:Drivers/lvgl/lvgl/src/widgets/lv_img.c **** }
 296:Drivers/lvgl/lvgl/src/widgets/lv_img.c **** 
 297:Drivers/lvgl/lvgl/src/widgets/lv_img.c **** void lv_img_set_size_mode(lv_obj_t * obj, lv_img_size_mode_t mode)
 298:Drivers/lvgl/lvgl/src/widgets/lv_img.c **** {
 299:Drivers/lvgl/lvgl/src/widgets/lv_img.c ****     LV_ASSERT_OBJ(obj, MY_CLASS);
 300:Drivers/lvgl/lvgl/src/widgets/lv_img.c ****     lv_img_t * img = (lv_img_t *)obj;
 301:Drivers/lvgl/lvgl/src/widgets/lv_img.c ****     if(mode == img->obj_size_mode) return;
 302:Drivers/lvgl/lvgl/src/widgets/lv_img.c **** 
 303:Drivers/lvgl/lvgl/src/widgets/lv_img.c ****     img->obj_size_mode = mode;
 304:Drivers/lvgl/lvgl/src/widgets/lv_img.c ****     lv_obj_invalidate(obj);
 305:Drivers/lvgl/lvgl/src/widgets/lv_img.c **** }
 306:Drivers/lvgl/lvgl/src/widgets/lv_img.c **** 
 307:Drivers/lvgl/lvgl/src/widgets/lv_img.c **** /*=====================
 308:Drivers/lvgl/lvgl/src/widgets/lv_img.c ****  * Getter functions
 309:Drivers/lvgl/lvgl/src/widgets/lv_img.c ****  *====================*/
 310:Drivers/lvgl/lvgl/src/widgets/lv_img.c **** 
 311:Drivers/lvgl/lvgl/src/widgets/lv_img.c **** const void * lv_img_get_src(lv_obj_t * obj)
 312:Drivers/lvgl/lvgl/src/widgets/lv_img.c **** {
 313:Drivers/lvgl/lvgl/src/widgets/lv_img.c ****     LV_ASSERT_OBJ(obj, MY_CLASS);
 314:Drivers/lvgl/lvgl/src/widgets/lv_img.c **** 
 315:Drivers/lvgl/lvgl/src/widgets/lv_img.c ****     lv_img_t * img = (lv_img_t *)obj;
 316:Drivers/lvgl/lvgl/src/widgets/lv_img.c **** 
 317:Drivers/lvgl/lvgl/src/widgets/lv_img.c ****     return img->src;
 318:Drivers/lvgl/lvgl/src/widgets/lv_img.c **** }
ARM GAS  /tmp/ccNaDK0X.s 			page 7


 319:Drivers/lvgl/lvgl/src/widgets/lv_img.c **** 
 320:Drivers/lvgl/lvgl/src/widgets/lv_img.c **** lv_coord_t lv_img_get_offset_x(lv_obj_t * obj)
 321:Drivers/lvgl/lvgl/src/widgets/lv_img.c **** {
 322:Drivers/lvgl/lvgl/src/widgets/lv_img.c ****     LV_ASSERT_OBJ(obj, MY_CLASS);
 323:Drivers/lvgl/lvgl/src/widgets/lv_img.c **** 
 324:Drivers/lvgl/lvgl/src/widgets/lv_img.c ****     lv_img_t * img = (lv_img_t *)obj;
 325:Drivers/lvgl/lvgl/src/widgets/lv_img.c **** 
 326:Drivers/lvgl/lvgl/src/widgets/lv_img.c ****     return img->offset.x;
 327:Drivers/lvgl/lvgl/src/widgets/lv_img.c **** }
 328:Drivers/lvgl/lvgl/src/widgets/lv_img.c **** 
 329:Drivers/lvgl/lvgl/src/widgets/lv_img.c **** lv_coord_t lv_img_get_offset_y(lv_obj_t * obj)
 330:Drivers/lvgl/lvgl/src/widgets/lv_img.c **** {
 331:Drivers/lvgl/lvgl/src/widgets/lv_img.c ****     LV_ASSERT_OBJ(obj, MY_CLASS);
 332:Drivers/lvgl/lvgl/src/widgets/lv_img.c **** 
 333:Drivers/lvgl/lvgl/src/widgets/lv_img.c ****     lv_img_t * img = (lv_img_t *)obj;
 334:Drivers/lvgl/lvgl/src/widgets/lv_img.c **** 
 335:Drivers/lvgl/lvgl/src/widgets/lv_img.c ****     return img->offset.y;
 336:Drivers/lvgl/lvgl/src/widgets/lv_img.c **** }
 337:Drivers/lvgl/lvgl/src/widgets/lv_img.c **** 
 338:Drivers/lvgl/lvgl/src/widgets/lv_img.c **** uint16_t lv_img_get_angle(lv_obj_t * obj)
 339:Drivers/lvgl/lvgl/src/widgets/lv_img.c **** {
 340:Drivers/lvgl/lvgl/src/widgets/lv_img.c ****     LV_ASSERT_OBJ(obj, MY_CLASS);
 341:Drivers/lvgl/lvgl/src/widgets/lv_img.c **** 
 342:Drivers/lvgl/lvgl/src/widgets/lv_img.c ****     lv_img_t * img = (lv_img_t *)obj;
 343:Drivers/lvgl/lvgl/src/widgets/lv_img.c **** 
 344:Drivers/lvgl/lvgl/src/widgets/lv_img.c ****     return img->angle;
 345:Drivers/lvgl/lvgl/src/widgets/lv_img.c **** }
 346:Drivers/lvgl/lvgl/src/widgets/lv_img.c **** 
 347:Drivers/lvgl/lvgl/src/widgets/lv_img.c **** void lv_img_get_pivot(lv_obj_t * obj, lv_point_t * pivot)
 348:Drivers/lvgl/lvgl/src/widgets/lv_img.c **** {
 349:Drivers/lvgl/lvgl/src/widgets/lv_img.c ****     LV_ASSERT_OBJ(obj, MY_CLASS);
 350:Drivers/lvgl/lvgl/src/widgets/lv_img.c **** 
 351:Drivers/lvgl/lvgl/src/widgets/lv_img.c ****     lv_img_t * img = (lv_img_t *)obj;
 352:Drivers/lvgl/lvgl/src/widgets/lv_img.c **** 
 353:Drivers/lvgl/lvgl/src/widgets/lv_img.c ****     *pivot = img->pivot;
 354:Drivers/lvgl/lvgl/src/widgets/lv_img.c **** }
 355:Drivers/lvgl/lvgl/src/widgets/lv_img.c **** 
 356:Drivers/lvgl/lvgl/src/widgets/lv_img.c **** uint16_t lv_img_get_zoom(lv_obj_t * obj)
 357:Drivers/lvgl/lvgl/src/widgets/lv_img.c **** {
 358:Drivers/lvgl/lvgl/src/widgets/lv_img.c ****     LV_ASSERT_OBJ(obj, MY_CLASS);
 359:Drivers/lvgl/lvgl/src/widgets/lv_img.c **** 
 360:Drivers/lvgl/lvgl/src/widgets/lv_img.c ****     lv_img_t * img = (lv_img_t *)obj;
 361:Drivers/lvgl/lvgl/src/widgets/lv_img.c **** 
 362:Drivers/lvgl/lvgl/src/widgets/lv_img.c ****     return img->zoom;
 363:Drivers/lvgl/lvgl/src/widgets/lv_img.c **** }
 364:Drivers/lvgl/lvgl/src/widgets/lv_img.c **** 
 365:Drivers/lvgl/lvgl/src/widgets/lv_img.c **** bool lv_img_get_antialias(lv_obj_t * obj)
 366:Drivers/lvgl/lvgl/src/widgets/lv_img.c **** {
 367:Drivers/lvgl/lvgl/src/widgets/lv_img.c ****     LV_ASSERT_OBJ(obj, MY_CLASS);
 368:Drivers/lvgl/lvgl/src/widgets/lv_img.c **** 
 369:Drivers/lvgl/lvgl/src/widgets/lv_img.c ****     lv_img_t * img = (lv_img_t *)obj;
 370:Drivers/lvgl/lvgl/src/widgets/lv_img.c **** 
 371:Drivers/lvgl/lvgl/src/widgets/lv_img.c ****     return img->antialias ? true : false;
 372:Drivers/lvgl/lvgl/src/widgets/lv_img.c **** }
 373:Drivers/lvgl/lvgl/src/widgets/lv_img.c **** 
 374:Drivers/lvgl/lvgl/src/widgets/lv_img.c **** lv_img_size_mode_t lv_img_get_size_mode(lv_obj_t * obj)
 375:Drivers/lvgl/lvgl/src/widgets/lv_img.c **** {
ARM GAS  /tmp/ccNaDK0X.s 			page 8


 376:Drivers/lvgl/lvgl/src/widgets/lv_img.c ****     LV_ASSERT_OBJ(obj, MY_CLASS);
 377:Drivers/lvgl/lvgl/src/widgets/lv_img.c ****     lv_img_t * img = (lv_img_t *)obj;
 378:Drivers/lvgl/lvgl/src/widgets/lv_img.c ****     return img->obj_size_mode;
 379:Drivers/lvgl/lvgl/src/widgets/lv_img.c **** }
 380:Drivers/lvgl/lvgl/src/widgets/lv_img.c **** 
 381:Drivers/lvgl/lvgl/src/widgets/lv_img.c **** /**********************
 382:Drivers/lvgl/lvgl/src/widgets/lv_img.c ****  *   STATIC FUNCTIONS
 383:Drivers/lvgl/lvgl/src/widgets/lv_img.c ****  **********************/
 384:Drivers/lvgl/lvgl/src/widgets/lv_img.c **** 
 385:Drivers/lvgl/lvgl/src/widgets/lv_img.c **** static void lv_img_constructor(const lv_obj_class_t * class_p, lv_obj_t * obj)
 386:Drivers/lvgl/lvgl/src/widgets/lv_img.c **** {
 387:Drivers/lvgl/lvgl/src/widgets/lv_img.c ****     LV_UNUSED(class_p);
 388:Drivers/lvgl/lvgl/src/widgets/lv_img.c ****     LV_TRACE_OBJ_CREATE("begin");
 389:Drivers/lvgl/lvgl/src/widgets/lv_img.c **** 
 390:Drivers/lvgl/lvgl/src/widgets/lv_img.c ****     lv_img_t * img = (lv_img_t *)obj;
 391:Drivers/lvgl/lvgl/src/widgets/lv_img.c **** 
 392:Drivers/lvgl/lvgl/src/widgets/lv_img.c ****     img->src       = NULL;
 393:Drivers/lvgl/lvgl/src/widgets/lv_img.c ****     img->src_type  = LV_IMG_SRC_UNKNOWN;
 394:Drivers/lvgl/lvgl/src/widgets/lv_img.c ****     img->cf        = LV_IMG_CF_UNKNOWN;
 395:Drivers/lvgl/lvgl/src/widgets/lv_img.c ****     img->w         = lv_obj_get_width(obj);
 396:Drivers/lvgl/lvgl/src/widgets/lv_img.c ****     img->h         = lv_obj_get_height(obj);
 397:Drivers/lvgl/lvgl/src/widgets/lv_img.c ****     img->angle = 0;
 398:Drivers/lvgl/lvgl/src/widgets/lv_img.c ****     img->zoom = LV_IMG_ZOOM_NONE;
 399:Drivers/lvgl/lvgl/src/widgets/lv_img.c ****     img->antialias = LV_COLOR_DEPTH > 8 ? 1 : 0;
 400:Drivers/lvgl/lvgl/src/widgets/lv_img.c ****     img->offset.x  = 0;
 401:Drivers/lvgl/lvgl/src/widgets/lv_img.c ****     img->offset.y  = 0;
 402:Drivers/lvgl/lvgl/src/widgets/lv_img.c ****     img->pivot.x = 0;
 403:Drivers/lvgl/lvgl/src/widgets/lv_img.c ****     img->pivot.y = 0;
 404:Drivers/lvgl/lvgl/src/widgets/lv_img.c ****     img->obj_size_mode = LV_IMG_SIZE_MODE_VIRTUAL;
 405:Drivers/lvgl/lvgl/src/widgets/lv_img.c **** 
 406:Drivers/lvgl/lvgl/src/widgets/lv_img.c ****     lv_obj_clear_flag(obj, LV_OBJ_FLAG_CLICKABLE);
 407:Drivers/lvgl/lvgl/src/widgets/lv_img.c ****     lv_obj_add_flag(obj, LV_OBJ_FLAG_ADV_HITTEST);
 408:Drivers/lvgl/lvgl/src/widgets/lv_img.c **** 
 409:Drivers/lvgl/lvgl/src/widgets/lv_img.c ****     LV_TRACE_OBJ_CREATE("finished");
 410:Drivers/lvgl/lvgl/src/widgets/lv_img.c **** }
 411:Drivers/lvgl/lvgl/src/widgets/lv_img.c **** 
 412:Drivers/lvgl/lvgl/src/widgets/lv_img.c **** static void lv_img_destructor(const lv_obj_class_t * class_p, lv_obj_t * obj)
 413:Drivers/lvgl/lvgl/src/widgets/lv_img.c **** {
 414:Drivers/lvgl/lvgl/src/widgets/lv_img.c ****     LV_UNUSED(class_p);
 415:Drivers/lvgl/lvgl/src/widgets/lv_img.c ****     lv_img_t * img = (lv_img_t *)obj;
 416:Drivers/lvgl/lvgl/src/widgets/lv_img.c ****     if(img->src_type == LV_IMG_SRC_FILE || img->src_type == LV_IMG_SRC_SYMBOL) {
 417:Drivers/lvgl/lvgl/src/widgets/lv_img.c ****         lv_mem_free((void *)img->src);
 418:Drivers/lvgl/lvgl/src/widgets/lv_img.c ****         img->src      = NULL;
 419:Drivers/lvgl/lvgl/src/widgets/lv_img.c ****         img->src_type = LV_IMG_SRC_UNKNOWN;
 420:Drivers/lvgl/lvgl/src/widgets/lv_img.c ****     }
 421:Drivers/lvgl/lvgl/src/widgets/lv_img.c **** }
 422:Drivers/lvgl/lvgl/src/widgets/lv_img.c **** 
 423:Drivers/lvgl/lvgl/src/widgets/lv_img.c **** static lv_point_t lv_img_get_transformed_size(lv_obj_t * obj)
 424:Drivers/lvgl/lvgl/src/widgets/lv_img.c **** {
  26              		.loc 1 424 0
  27              		.cfi_startproc
  28              		@ args = 0, pretend = 0, frame = 16
  29              		@ frame_needed = 0, uses_anonymous_args = 0
  30              	.LVL0:
  31 0000 10B5     		push	{r4, lr}
  32              	.LCFI0:
  33              		.cfi_def_cfa_offset 8
ARM GAS  /tmp/ccNaDK0X.s 			page 9


  34              		.cfi_offset 4, -8
  35              		.cfi_offset 14, -4
  36 0002 86B0     		sub	sp, sp, #24
  37              	.LCFI1:
  38              		.cfi_def_cfa_offset 32
  39              	.LVL1:
 425:Drivers/lvgl/lvgl/src/widgets/lv_img.c ****     lv_img_t * img = (lv_img_t *)obj;
 426:Drivers/lvgl/lvgl/src/widgets/lv_img.c **** 
 427:Drivers/lvgl/lvgl/src/widgets/lv_img.c **** 
 428:Drivers/lvgl/lvgl/src/widgets/lv_img.c ****     lv_area_t area_transform;
 429:Drivers/lvgl/lvgl/src/widgets/lv_img.c ****     _lv_img_buf_get_transformed_area(&area_transform, img->w, img->h,
 430:Drivers/lvgl/lvgl/src/widgets/lv_img.c ****                                      img->angle, img->zoom, &img->pivot);
  40              		.loc 1 430 0
  41 0004 00F13204 		add	r4, r0, #50
 429:Drivers/lvgl/lvgl/src/widgets/lv_img.c ****                                      img->angle, img->zoom, &img->pivot);
  42              		.loc 1 429 0
  43 0008 B0F93030 		ldrsh	r3, [r0, #48]
  44 000c B0F92E20 		ldrsh	r2, [r0, #46]
  45 0010 B0F92C10 		ldrsh	r1, [r0, #44]
  46 0014 0194     		str	r4, [sp, #4]
  47 0016 C08E     		ldrh	r0, [r0, #54]
  48              	.LVL2:
  49 0018 0090     		str	r0, [sp]
  50 001a 03A8     		add	r0, sp, #12
  51 001c FFF7FEFF 		bl	_lv_img_buf_get_transformed_area
  52              	.LVL3:
  53              	.LBB44:
  54              	.LBB45:
  55              		.file 2 "Drivers/lvgl/lvgl/src/widgets/../core/../misc/../font/../misc/lv_area.h"
   1:Drivers/lvgl/lvgl/src/widgets/../core/../misc/../font/../misc/lv_area.h **** /**
   2:Drivers/lvgl/lvgl/src/widgets/../core/../misc/../font/../misc/lv_area.h ****  * @file lv_area.h
   3:Drivers/lvgl/lvgl/src/widgets/../core/../misc/../font/../misc/lv_area.h ****  *
   4:Drivers/lvgl/lvgl/src/widgets/../core/../misc/../font/../misc/lv_area.h ****  */
   5:Drivers/lvgl/lvgl/src/widgets/../core/../misc/../font/../misc/lv_area.h **** 
   6:Drivers/lvgl/lvgl/src/widgets/../core/../misc/../font/../misc/lv_area.h **** #ifndef LV_AREA_H
   7:Drivers/lvgl/lvgl/src/widgets/../core/../misc/../font/../misc/lv_area.h **** #define LV_AREA_H
   8:Drivers/lvgl/lvgl/src/widgets/../core/../misc/../font/../misc/lv_area.h **** 
   9:Drivers/lvgl/lvgl/src/widgets/../core/../misc/../font/../misc/lv_area.h **** #ifdef __cplusplus
  10:Drivers/lvgl/lvgl/src/widgets/../core/../misc/../font/../misc/lv_area.h **** extern "C" {
  11:Drivers/lvgl/lvgl/src/widgets/../core/../misc/../font/../misc/lv_area.h **** #endif
  12:Drivers/lvgl/lvgl/src/widgets/../core/../misc/../font/../misc/lv_area.h **** 
  13:Drivers/lvgl/lvgl/src/widgets/../core/../misc/../font/../misc/lv_area.h **** /*********************
  14:Drivers/lvgl/lvgl/src/widgets/../core/../misc/../font/../misc/lv_area.h ****  *      INCLUDES
  15:Drivers/lvgl/lvgl/src/widgets/../core/../misc/../font/../misc/lv_area.h ****  *********************/
  16:Drivers/lvgl/lvgl/src/widgets/../core/../misc/../font/../misc/lv_area.h **** #include "../lv_conf_internal.h"
  17:Drivers/lvgl/lvgl/src/widgets/../core/../misc/../font/../misc/lv_area.h **** #include <stdbool.h>
  18:Drivers/lvgl/lvgl/src/widgets/../core/../misc/../font/../misc/lv_area.h **** #include <stdint.h>
  19:Drivers/lvgl/lvgl/src/widgets/../core/../misc/../font/../misc/lv_area.h **** 
  20:Drivers/lvgl/lvgl/src/widgets/../core/../misc/../font/../misc/lv_area.h **** /*********************
  21:Drivers/lvgl/lvgl/src/widgets/../core/../misc/../font/../misc/lv_area.h ****  *      DEFINES
  22:Drivers/lvgl/lvgl/src/widgets/../core/../misc/../font/../misc/lv_area.h ****  *********************/
  23:Drivers/lvgl/lvgl/src/widgets/../core/../misc/../font/../misc/lv_area.h **** 
  24:Drivers/lvgl/lvgl/src/widgets/../core/../misc/../font/../misc/lv_area.h **** #if LV_USE_LARGE_COORD
  25:Drivers/lvgl/lvgl/src/widgets/../core/../misc/../font/../misc/lv_area.h **** typedef int32_t lv_coord_t;
  26:Drivers/lvgl/lvgl/src/widgets/../core/../misc/../font/../misc/lv_area.h **** #else
  27:Drivers/lvgl/lvgl/src/widgets/../core/../misc/../font/../misc/lv_area.h **** typedef int16_t lv_coord_t;
  28:Drivers/lvgl/lvgl/src/widgets/../core/../misc/../font/../misc/lv_area.h **** #endif
ARM GAS  /tmp/ccNaDK0X.s 			page 10


  29:Drivers/lvgl/lvgl/src/widgets/../core/../misc/../font/../misc/lv_area.h **** 
  30:Drivers/lvgl/lvgl/src/widgets/../core/../misc/../font/../misc/lv_area.h **** /**********************
  31:Drivers/lvgl/lvgl/src/widgets/../core/../misc/../font/../misc/lv_area.h ****  *      TYPEDEFS
  32:Drivers/lvgl/lvgl/src/widgets/../core/../misc/../font/../misc/lv_area.h ****  **********************/
  33:Drivers/lvgl/lvgl/src/widgets/../core/../misc/../font/../misc/lv_area.h **** 
  34:Drivers/lvgl/lvgl/src/widgets/../core/../misc/../font/../misc/lv_area.h **** /**
  35:Drivers/lvgl/lvgl/src/widgets/../core/../misc/../font/../misc/lv_area.h ****  * Represents a point on the screen.
  36:Drivers/lvgl/lvgl/src/widgets/../core/../misc/../font/../misc/lv_area.h ****  */
  37:Drivers/lvgl/lvgl/src/widgets/../core/../misc/../font/../misc/lv_area.h **** typedef struct {
  38:Drivers/lvgl/lvgl/src/widgets/../core/../misc/../font/../misc/lv_area.h ****     lv_coord_t x;
  39:Drivers/lvgl/lvgl/src/widgets/../core/../misc/../font/../misc/lv_area.h ****     lv_coord_t y;
  40:Drivers/lvgl/lvgl/src/widgets/../core/../misc/../font/../misc/lv_area.h **** } lv_point_t;
  41:Drivers/lvgl/lvgl/src/widgets/../core/../misc/../font/../misc/lv_area.h **** 
  42:Drivers/lvgl/lvgl/src/widgets/../core/../misc/../font/../misc/lv_area.h **** /** Represents an area of the screen.*/
  43:Drivers/lvgl/lvgl/src/widgets/../core/../misc/../font/../misc/lv_area.h **** typedef struct {
  44:Drivers/lvgl/lvgl/src/widgets/../core/../misc/../font/../misc/lv_area.h ****     lv_coord_t x1;
  45:Drivers/lvgl/lvgl/src/widgets/../core/../misc/../font/../misc/lv_area.h ****     lv_coord_t y1;
  46:Drivers/lvgl/lvgl/src/widgets/../core/../misc/../font/../misc/lv_area.h ****     lv_coord_t x2;
  47:Drivers/lvgl/lvgl/src/widgets/../core/../misc/../font/../misc/lv_area.h ****     lv_coord_t y2;
  48:Drivers/lvgl/lvgl/src/widgets/../core/../misc/../font/../misc/lv_area.h **** } lv_area_t;
  49:Drivers/lvgl/lvgl/src/widgets/../core/../misc/../font/../misc/lv_area.h **** 
  50:Drivers/lvgl/lvgl/src/widgets/../core/../misc/../font/../misc/lv_area.h **** /** Alignments*/
  51:Drivers/lvgl/lvgl/src/widgets/../core/../misc/../font/../misc/lv_area.h **** enum {
  52:Drivers/lvgl/lvgl/src/widgets/../core/../misc/../font/../misc/lv_area.h ****     LV_ALIGN_DEFAULT = 0,
  53:Drivers/lvgl/lvgl/src/widgets/../core/../misc/../font/../misc/lv_area.h ****     LV_ALIGN_TOP_LEFT,
  54:Drivers/lvgl/lvgl/src/widgets/../core/../misc/../font/../misc/lv_area.h ****     LV_ALIGN_TOP_MID,
  55:Drivers/lvgl/lvgl/src/widgets/../core/../misc/../font/../misc/lv_area.h ****     LV_ALIGN_TOP_RIGHT,
  56:Drivers/lvgl/lvgl/src/widgets/../core/../misc/../font/../misc/lv_area.h ****     LV_ALIGN_BOTTOM_LEFT,
  57:Drivers/lvgl/lvgl/src/widgets/../core/../misc/../font/../misc/lv_area.h ****     LV_ALIGN_BOTTOM_MID,
  58:Drivers/lvgl/lvgl/src/widgets/../core/../misc/../font/../misc/lv_area.h ****     LV_ALIGN_BOTTOM_RIGHT,
  59:Drivers/lvgl/lvgl/src/widgets/../core/../misc/../font/../misc/lv_area.h ****     LV_ALIGN_LEFT_MID,
  60:Drivers/lvgl/lvgl/src/widgets/../core/../misc/../font/../misc/lv_area.h ****     LV_ALIGN_RIGHT_MID,
  61:Drivers/lvgl/lvgl/src/widgets/../core/../misc/../font/../misc/lv_area.h ****     LV_ALIGN_CENTER,
  62:Drivers/lvgl/lvgl/src/widgets/../core/../misc/../font/../misc/lv_area.h **** 
  63:Drivers/lvgl/lvgl/src/widgets/../core/../misc/../font/../misc/lv_area.h ****     LV_ALIGN_OUT_TOP_LEFT,
  64:Drivers/lvgl/lvgl/src/widgets/../core/../misc/../font/../misc/lv_area.h ****     LV_ALIGN_OUT_TOP_MID,
  65:Drivers/lvgl/lvgl/src/widgets/../core/../misc/../font/../misc/lv_area.h ****     LV_ALIGN_OUT_TOP_RIGHT,
  66:Drivers/lvgl/lvgl/src/widgets/../core/../misc/../font/../misc/lv_area.h ****     LV_ALIGN_OUT_BOTTOM_LEFT,
  67:Drivers/lvgl/lvgl/src/widgets/../core/../misc/../font/../misc/lv_area.h ****     LV_ALIGN_OUT_BOTTOM_MID,
  68:Drivers/lvgl/lvgl/src/widgets/../core/../misc/../font/../misc/lv_area.h ****     LV_ALIGN_OUT_BOTTOM_RIGHT,
  69:Drivers/lvgl/lvgl/src/widgets/../core/../misc/../font/../misc/lv_area.h ****     LV_ALIGN_OUT_LEFT_TOP,
  70:Drivers/lvgl/lvgl/src/widgets/../core/../misc/../font/../misc/lv_area.h ****     LV_ALIGN_OUT_LEFT_MID,
  71:Drivers/lvgl/lvgl/src/widgets/../core/../misc/../font/../misc/lv_area.h ****     LV_ALIGN_OUT_LEFT_BOTTOM,
  72:Drivers/lvgl/lvgl/src/widgets/../core/../misc/../font/../misc/lv_area.h ****     LV_ALIGN_OUT_RIGHT_TOP,
  73:Drivers/lvgl/lvgl/src/widgets/../core/../misc/../font/../misc/lv_area.h ****     LV_ALIGN_OUT_RIGHT_MID,
  74:Drivers/lvgl/lvgl/src/widgets/../core/../misc/../font/../misc/lv_area.h ****     LV_ALIGN_OUT_RIGHT_BOTTOM,
  75:Drivers/lvgl/lvgl/src/widgets/../core/../misc/../font/../misc/lv_area.h **** };
  76:Drivers/lvgl/lvgl/src/widgets/../core/../misc/../font/../misc/lv_area.h **** typedef uint8_t lv_align_t;
  77:Drivers/lvgl/lvgl/src/widgets/../core/../misc/../font/../misc/lv_area.h **** 
  78:Drivers/lvgl/lvgl/src/widgets/../core/../misc/../font/../misc/lv_area.h **** enum {
  79:Drivers/lvgl/lvgl/src/widgets/../core/../misc/../font/../misc/lv_area.h ****     LV_DIR_NONE     = 0x00,
  80:Drivers/lvgl/lvgl/src/widgets/../core/../misc/../font/../misc/lv_area.h ****     LV_DIR_LEFT     = (1 << 0),
  81:Drivers/lvgl/lvgl/src/widgets/../core/../misc/../font/../misc/lv_area.h ****     LV_DIR_RIGHT    = (1 << 1),
  82:Drivers/lvgl/lvgl/src/widgets/../core/../misc/../font/../misc/lv_area.h ****     LV_DIR_TOP      = (1 << 2),
  83:Drivers/lvgl/lvgl/src/widgets/../core/../misc/../font/../misc/lv_area.h ****     LV_DIR_BOTTOM   = (1 << 3),
  84:Drivers/lvgl/lvgl/src/widgets/../core/../misc/../font/../misc/lv_area.h ****     LV_DIR_HOR      = LV_DIR_LEFT | LV_DIR_RIGHT,
  85:Drivers/lvgl/lvgl/src/widgets/../core/../misc/../font/../misc/lv_area.h ****     LV_DIR_VER      = LV_DIR_TOP | LV_DIR_BOTTOM,
ARM GAS  /tmp/ccNaDK0X.s 			page 11


  86:Drivers/lvgl/lvgl/src/widgets/../core/../misc/../font/../misc/lv_area.h ****     LV_DIR_ALL      = LV_DIR_HOR | LV_DIR_VER,
  87:Drivers/lvgl/lvgl/src/widgets/../core/../misc/../font/../misc/lv_area.h **** };
  88:Drivers/lvgl/lvgl/src/widgets/../core/../misc/../font/../misc/lv_area.h **** 
  89:Drivers/lvgl/lvgl/src/widgets/../core/../misc/../font/../misc/lv_area.h **** typedef uint8_t lv_dir_t;
  90:Drivers/lvgl/lvgl/src/widgets/../core/../misc/../font/../misc/lv_area.h **** 
  91:Drivers/lvgl/lvgl/src/widgets/../core/../misc/../font/../misc/lv_area.h **** /**********************
  92:Drivers/lvgl/lvgl/src/widgets/../core/../misc/../font/../misc/lv_area.h ****  * GLOBAL PROTOTYPES
  93:Drivers/lvgl/lvgl/src/widgets/../core/../misc/../font/../misc/lv_area.h ****  **********************/
  94:Drivers/lvgl/lvgl/src/widgets/../core/../misc/../font/../misc/lv_area.h **** 
  95:Drivers/lvgl/lvgl/src/widgets/../core/../misc/../font/../misc/lv_area.h **** /**
  96:Drivers/lvgl/lvgl/src/widgets/../core/../misc/../font/../misc/lv_area.h ****  * Initialize an area
  97:Drivers/lvgl/lvgl/src/widgets/../core/../misc/../font/../misc/lv_area.h ****  * @param area_p pointer to an area
  98:Drivers/lvgl/lvgl/src/widgets/../core/../misc/../font/../misc/lv_area.h ****  * @param x1 left coordinate of the area
  99:Drivers/lvgl/lvgl/src/widgets/../core/../misc/../font/../misc/lv_area.h ****  * @param y1 top coordinate of the area
 100:Drivers/lvgl/lvgl/src/widgets/../core/../misc/../font/../misc/lv_area.h ****  * @param x2 right coordinate of the area
 101:Drivers/lvgl/lvgl/src/widgets/../core/../misc/../font/../misc/lv_area.h ****  * @param y2 bottom coordinate of the area
 102:Drivers/lvgl/lvgl/src/widgets/../core/../misc/../font/../misc/lv_area.h ****  */
 103:Drivers/lvgl/lvgl/src/widgets/../core/../misc/../font/../misc/lv_area.h **** void lv_area_set(lv_area_t * area_p, lv_coord_t x1, lv_coord_t y1, lv_coord_t x2, lv_coord_t y2);
 104:Drivers/lvgl/lvgl/src/widgets/../core/../misc/../font/../misc/lv_area.h **** 
 105:Drivers/lvgl/lvgl/src/widgets/../core/../misc/../font/../misc/lv_area.h **** /**
 106:Drivers/lvgl/lvgl/src/widgets/../core/../misc/../font/../misc/lv_area.h ****  * Copy an area
 107:Drivers/lvgl/lvgl/src/widgets/../core/../misc/../font/../misc/lv_area.h ****  * @param dest pointer to the destination area
 108:Drivers/lvgl/lvgl/src/widgets/../core/../misc/../font/../misc/lv_area.h ****  * @param src pointer to the source area
 109:Drivers/lvgl/lvgl/src/widgets/../core/../misc/../font/../misc/lv_area.h ****  */
 110:Drivers/lvgl/lvgl/src/widgets/../core/../misc/../font/../misc/lv_area.h **** inline static void lv_area_copy(lv_area_t * dest, const lv_area_t * src)
 111:Drivers/lvgl/lvgl/src/widgets/../core/../misc/../font/../misc/lv_area.h **** {
 112:Drivers/lvgl/lvgl/src/widgets/../core/../misc/../font/../misc/lv_area.h ****     dest->x1 = src->x1;
 113:Drivers/lvgl/lvgl/src/widgets/../core/../misc/../font/../misc/lv_area.h ****     dest->y1 = src->y1;
 114:Drivers/lvgl/lvgl/src/widgets/../core/../misc/../font/../misc/lv_area.h ****     dest->x2 = src->x2;
 115:Drivers/lvgl/lvgl/src/widgets/../core/../misc/../font/../misc/lv_area.h ****     dest->y2 = src->y2;
 116:Drivers/lvgl/lvgl/src/widgets/../core/../misc/../font/../misc/lv_area.h **** }
 117:Drivers/lvgl/lvgl/src/widgets/../core/../misc/../font/../misc/lv_area.h **** 
 118:Drivers/lvgl/lvgl/src/widgets/../core/../misc/../font/../misc/lv_area.h **** /**
 119:Drivers/lvgl/lvgl/src/widgets/../core/../misc/../font/../misc/lv_area.h ****  * Get the width of an area
 120:Drivers/lvgl/lvgl/src/widgets/../core/../misc/../font/../misc/lv_area.h ****  * @param area_p pointer to an area
 121:Drivers/lvgl/lvgl/src/widgets/../core/../misc/../font/../misc/lv_area.h ****  * @return the width of the area (if x1 == x2 -> width = 1)
 122:Drivers/lvgl/lvgl/src/widgets/../core/../misc/../font/../misc/lv_area.h ****  */
 123:Drivers/lvgl/lvgl/src/widgets/../core/../misc/../font/../misc/lv_area.h **** static inline lv_coord_t lv_area_get_width(const lv_area_t * area_p)
 124:Drivers/lvgl/lvgl/src/widgets/../core/../misc/../font/../misc/lv_area.h **** {
 125:Drivers/lvgl/lvgl/src/widgets/../core/../misc/../font/../misc/lv_area.h ****     return (lv_coord_t)(area_p->x2 - area_p->x1 + 1);
  56              		.loc 2 125 0
  57 0020 BDF81020 		ldrh	r2, [sp, #16]
  58 0024 BDF80C30 		ldrh	r3, [sp, #12]
  59 0028 D21A     		subs	r2, r2, r3
  60 002a 92B2     		uxth	r2, r2
  61              	.LVL4:
  62              	.LBE45:
  63              	.LBE44:
  64              	.LBB46:
  65              	.LBB47:
 126:Drivers/lvgl/lvgl/src/widgets/../core/../misc/../font/../misc/lv_area.h **** }
 127:Drivers/lvgl/lvgl/src/widgets/../core/../misc/../font/../misc/lv_area.h **** 
 128:Drivers/lvgl/lvgl/src/widgets/../core/../misc/../font/../misc/lv_area.h **** /**
 129:Drivers/lvgl/lvgl/src/widgets/../core/../misc/../font/../misc/lv_area.h ****  * Get the height of an area
 130:Drivers/lvgl/lvgl/src/widgets/../core/../misc/../font/../misc/lv_area.h ****  * @param area_p pointer to an area
 131:Drivers/lvgl/lvgl/src/widgets/../core/../misc/../font/../misc/lv_area.h ****  * @return the height of the area (if y1 == y2 -> height = 1)
 132:Drivers/lvgl/lvgl/src/widgets/../core/../misc/../font/../misc/lv_area.h ****  */
ARM GAS  /tmp/ccNaDK0X.s 			page 12


 133:Drivers/lvgl/lvgl/src/widgets/../core/../misc/../font/../misc/lv_area.h **** static inline lv_coord_t lv_area_get_height(const lv_area_t * area_p)
 134:Drivers/lvgl/lvgl/src/widgets/../core/../misc/../font/../misc/lv_area.h **** {
 135:Drivers/lvgl/lvgl/src/widgets/../core/../misc/../font/../misc/lv_area.h ****     return (lv_coord_t)(area_p->y2 - area_p->y1 + 1);
  66              		.loc 2 135 0
  67 002c BDF81230 		ldrh	r3, [sp, #18]
  68 0030 BDF80E10 		ldrh	r1, [sp, #14]
  69 0034 5B1A     		subs	r3, r3, r1
  70 0036 9BB2     		uxth	r3, r3
  71              	.LVL5:
  72              	.LBE47:
  73              	.LBE46:
 431:Drivers/lvgl/lvgl/src/widgets/lv_img.c **** 
 432:Drivers/lvgl/lvgl/src/widgets/lv_img.c ****     return (lv_point_t) {
  74              		.loc 1 432 0
  75 0038 0132     		adds	r2, r2, #1
  76 003a 0133     		adds	r3, r3, #1
  77 003c 0020     		movs	r0, #0
  78 003e 92B2     		uxth	r2, r2
  79 0040 62F30F00 		bfi	r0, r2, #0, #16
  80 0044 9BB2     		uxth	r3, r3
  81 0046 63F31F40 		bfi	r0, r3, #16, #16
 433:Drivers/lvgl/lvgl/src/widgets/lv_img.c ****         lv_area_get_width(&area_transform), lv_area_get_height(&area_transform)
 434:Drivers/lvgl/lvgl/src/widgets/lv_img.c ****     };
 435:Drivers/lvgl/lvgl/src/widgets/lv_img.c **** }
  82              		.loc 1 435 0
  83 004a 06B0     		add	sp, sp, #24
  84              	.LCFI2:
  85              		.cfi_def_cfa_offset 8
  86              		@ sp needed
  87 004c 10BD     		pop	{r4, pc}
  88              		.cfi_endproc
  89              	.LFE184:
  91              		.section	.text.draw_img,"ax",%progbits
  92              		.align	1
  93              		.syntax unified
  94              		.thumb
  95              		.thumb_func
  96              		.fpu fpv5-d16
  98              	draw_img:
  99              	.LFB186:
 436:Drivers/lvgl/lvgl/src/widgets/lv_img.c **** 
 437:Drivers/lvgl/lvgl/src/widgets/lv_img.c **** static void lv_img_event(const lv_obj_class_t * class_p, lv_event_t * e)
 438:Drivers/lvgl/lvgl/src/widgets/lv_img.c **** {
 439:Drivers/lvgl/lvgl/src/widgets/lv_img.c ****     LV_UNUSED(class_p);
 440:Drivers/lvgl/lvgl/src/widgets/lv_img.c **** 
 441:Drivers/lvgl/lvgl/src/widgets/lv_img.c ****     lv_event_code_t code = lv_event_get_code(e);
 442:Drivers/lvgl/lvgl/src/widgets/lv_img.c **** 
 443:Drivers/lvgl/lvgl/src/widgets/lv_img.c ****     /*Ancestor events will be called during drawing*/
 444:Drivers/lvgl/lvgl/src/widgets/lv_img.c ****     if(code != LV_EVENT_DRAW_MAIN && code != LV_EVENT_DRAW_POST) {
 445:Drivers/lvgl/lvgl/src/widgets/lv_img.c ****         /*Call the ancestor's event handler*/
 446:Drivers/lvgl/lvgl/src/widgets/lv_img.c ****         lv_res_t res = lv_obj_event_base(MY_CLASS, e);
 447:Drivers/lvgl/lvgl/src/widgets/lv_img.c ****         if(res != LV_RES_OK) return;
 448:Drivers/lvgl/lvgl/src/widgets/lv_img.c ****     }
 449:Drivers/lvgl/lvgl/src/widgets/lv_img.c **** 
 450:Drivers/lvgl/lvgl/src/widgets/lv_img.c ****     lv_obj_t * obj = lv_event_get_target(e);
 451:Drivers/lvgl/lvgl/src/widgets/lv_img.c ****     lv_img_t * img = (lv_img_t *)obj;
 452:Drivers/lvgl/lvgl/src/widgets/lv_img.c **** 
ARM GAS  /tmp/ccNaDK0X.s 			page 13


 453:Drivers/lvgl/lvgl/src/widgets/lv_img.c ****     if(code == LV_EVENT_STYLE_CHANGED) {
 454:Drivers/lvgl/lvgl/src/widgets/lv_img.c ****         /*Refresh the file name to refresh the symbol text size*/
 455:Drivers/lvgl/lvgl/src/widgets/lv_img.c ****         if(img->src_type == LV_IMG_SRC_SYMBOL) {
 456:Drivers/lvgl/lvgl/src/widgets/lv_img.c ****             lv_img_set_src(obj, img->src);
 457:Drivers/lvgl/lvgl/src/widgets/lv_img.c ****         }
 458:Drivers/lvgl/lvgl/src/widgets/lv_img.c ****         else {
 459:Drivers/lvgl/lvgl/src/widgets/lv_img.c ****             /*With transformation it might change*/
 460:Drivers/lvgl/lvgl/src/widgets/lv_img.c ****             lv_obj_refresh_ext_draw_size(obj);
 461:Drivers/lvgl/lvgl/src/widgets/lv_img.c ****         }
 462:Drivers/lvgl/lvgl/src/widgets/lv_img.c ****     }
 463:Drivers/lvgl/lvgl/src/widgets/lv_img.c ****     else if(code == LV_EVENT_REFR_EXT_DRAW_SIZE) {
 464:Drivers/lvgl/lvgl/src/widgets/lv_img.c **** 
 465:Drivers/lvgl/lvgl/src/widgets/lv_img.c ****         lv_coord_t * s = lv_event_get_param(e);
 466:Drivers/lvgl/lvgl/src/widgets/lv_img.c **** 
 467:Drivers/lvgl/lvgl/src/widgets/lv_img.c ****         /*If the image has angle provide enough room for the rotated corners*/
 468:Drivers/lvgl/lvgl/src/widgets/lv_img.c ****         if(img->angle || img->zoom != LV_IMG_ZOOM_NONE) {
 469:Drivers/lvgl/lvgl/src/widgets/lv_img.c ****             lv_area_t a;
 470:Drivers/lvgl/lvgl/src/widgets/lv_img.c ****             lv_coord_t w = lv_obj_get_width(obj);
 471:Drivers/lvgl/lvgl/src/widgets/lv_img.c ****             lv_coord_t h = lv_obj_get_height(obj);
 472:Drivers/lvgl/lvgl/src/widgets/lv_img.c ****             _lv_img_buf_get_transformed_area(&a, w, h, img->angle, img->zoom, &img->pivot);
 473:Drivers/lvgl/lvgl/src/widgets/lv_img.c ****             *s = LV_MAX(*s, -a.x1);
 474:Drivers/lvgl/lvgl/src/widgets/lv_img.c ****             *s = LV_MAX(*s, -a.y1);
 475:Drivers/lvgl/lvgl/src/widgets/lv_img.c ****             *s = LV_MAX(*s, a.x2 - w);
 476:Drivers/lvgl/lvgl/src/widgets/lv_img.c ****             *s = LV_MAX(*s, a.y2 - h);
 477:Drivers/lvgl/lvgl/src/widgets/lv_img.c ****         }
 478:Drivers/lvgl/lvgl/src/widgets/lv_img.c ****     }
 479:Drivers/lvgl/lvgl/src/widgets/lv_img.c ****     else if(code == LV_EVENT_HIT_TEST) {
 480:Drivers/lvgl/lvgl/src/widgets/lv_img.c ****         lv_hit_test_info_t * info = lv_event_get_param(e);
 481:Drivers/lvgl/lvgl/src/widgets/lv_img.c **** 
 482:Drivers/lvgl/lvgl/src/widgets/lv_img.c ****         /*If the object is exactly image sized (not cropped, not mosaic) and transformed
 483:Drivers/lvgl/lvgl/src/widgets/lv_img.c ****          *perform hit test on its transformed area*/
 484:Drivers/lvgl/lvgl/src/widgets/lv_img.c ****         if(img->w == lv_obj_get_width(obj) && img->h == lv_obj_get_height(obj) &&
 485:Drivers/lvgl/lvgl/src/widgets/lv_img.c ****            (img->zoom != LV_IMG_ZOOM_NONE || img->angle != 0 || img->pivot.x != img->w / 2 || img->
 486:Drivers/lvgl/lvgl/src/widgets/lv_img.c **** 
 487:Drivers/lvgl/lvgl/src/widgets/lv_img.c ****             lv_coord_t w = lv_obj_get_width(obj);
 488:Drivers/lvgl/lvgl/src/widgets/lv_img.c ****             lv_coord_t h = lv_obj_get_height(obj);
 489:Drivers/lvgl/lvgl/src/widgets/lv_img.c ****             lv_area_t coords;
 490:Drivers/lvgl/lvgl/src/widgets/lv_img.c ****             _lv_img_buf_get_transformed_area(&coords, w, h, img->angle, img->zoom, &img->pivot);
 491:Drivers/lvgl/lvgl/src/widgets/lv_img.c ****             coords.x1 += obj->coords.x1;
 492:Drivers/lvgl/lvgl/src/widgets/lv_img.c ****             coords.y1 += obj->coords.y1;
 493:Drivers/lvgl/lvgl/src/widgets/lv_img.c ****             coords.x2 += obj->coords.x1;
 494:Drivers/lvgl/lvgl/src/widgets/lv_img.c ****             coords.y2 += obj->coords.y1;
 495:Drivers/lvgl/lvgl/src/widgets/lv_img.c **** 
 496:Drivers/lvgl/lvgl/src/widgets/lv_img.c ****             info->res = _lv_area_is_point_on(&coords, info->point, 0);
 497:Drivers/lvgl/lvgl/src/widgets/lv_img.c ****         }
 498:Drivers/lvgl/lvgl/src/widgets/lv_img.c ****         else {
 499:Drivers/lvgl/lvgl/src/widgets/lv_img.c ****             lv_area_t a;
 500:Drivers/lvgl/lvgl/src/widgets/lv_img.c ****             lv_obj_get_click_area(obj, &a);
 501:Drivers/lvgl/lvgl/src/widgets/lv_img.c ****             info->res = _lv_area_is_point_on(&a, info->point, 0);
 502:Drivers/lvgl/lvgl/src/widgets/lv_img.c ****         }
 503:Drivers/lvgl/lvgl/src/widgets/lv_img.c ****     }
 504:Drivers/lvgl/lvgl/src/widgets/lv_img.c ****     else if(code == LV_EVENT_GET_SELF_SIZE) {
 505:Drivers/lvgl/lvgl/src/widgets/lv_img.c ****         lv_point_t * p = lv_event_get_param(e);
 506:Drivers/lvgl/lvgl/src/widgets/lv_img.c ****         if(img->obj_size_mode == LV_IMG_SIZE_MODE_REAL) {
 507:Drivers/lvgl/lvgl/src/widgets/lv_img.c ****             *p = lv_img_get_transformed_size(obj);
 508:Drivers/lvgl/lvgl/src/widgets/lv_img.c ****         }
 509:Drivers/lvgl/lvgl/src/widgets/lv_img.c ****         else {
ARM GAS  /tmp/ccNaDK0X.s 			page 14


 510:Drivers/lvgl/lvgl/src/widgets/lv_img.c ****             p->x = img->w;
 511:Drivers/lvgl/lvgl/src/widgets/lv_img.c ****             p->y = img->h;
 512:Drivers/lvgl/lvgl/src/widgets/lv_img.c ****         }
 513:Drivers/lvgl/lvgl/src/widgets/lv_img.c ****     }
 514:Drivers/lvgl/lvgl/src/widgets/lv_img.c ****     else if(code == LV_EVENT_DRAW_MAIN || code == LV_EVENT_DRAW_POST || code == LV_EVENT_COVER_CHEC
 515:Drivers/lvgl/lvgl/src/widgets/lv_img.c ****         draw_img(e);
 516:Drivers/lvgl/lvgl/src/widgets/lv_img.c ****     }
 517:Drivers/lvgl/lvgl/src/widgets/lv_img.c **** }
 518:Drivers/lvgl/lvgl/src/widgets/lv_img.c **** 
 519:Drivers/lvgl/lvgl/src/widgets/lv_img.c **** static void draw_img(lv_event_t * e)
 520:Drivers/lvgl/lvgl/src/widgets/lv_img.c **** {
 100              		.loc 1 520 0
 101              		.cfi_startproc
 102              		@ args = 0, pretend = 0, frame = 96
 103              		@ frame_needed = 0, uses_anonymous_args = 0
 104              	.LVL6:
 105 0000 2DE9F04F 		push	{r4, r5, r6, r7, r8, r9, r10, fp, lr}
 106              	.LCFI3:
 107              		.cfi_def_cfa_offset 36
 108              		.cfi_offset 4, -36
 109              		.cfi_offset 5, -32
 110              		.cfi_offset 6, -28
 111              		.cfi_offset 7, -24
 112              		.cfi_offset 8, -20
 113              		.cfi_offset 9, -16
 114              		.cfi_offset 10, -12
 115              		.cfi_offset 11, -8
 116              		.cfi_offset 14, -4
 117 0004 9BB0     		sub	sp, sp, #108
 118              	.LCFI4:
 119              		.cfi_def_cfa_offset 144
 120 0006 0446     		mov	r4, r0
 121 0008 0390     		str	r0, [sp, #12]
 521:Drivers/lvgl/lvgl/src/widgets/lv_img.c ****     lv_event_code_t code = lv_event_get_code(e);
 122              		.loc 1 521 0
 123 000a FFF7FEFF 		bl	lv_event_get_code
 124              	.LVL7:
 125 000e 0546     		mov	r5, r0
 126              	.LVL8:
 522:Drivers/lvgl/lvgl/src/widgets/lv_img.c ****     lv_obj_t * obj = lv_event_get_target(e);
 127              		.loc 1 522 0
 128 0010 2046     		mov	r0, r4
 129 0012 FFF7FEFF 		bl	lv_event_get_target
 130              	.LVL9:
 131 0016 0446     		mov	r4, r0
 132              	.LVL10:
 523:Drivers/lvgl/lvgl/src/widgets/lv_img.c ****     lv_img_t * img = (lv_img_t *)obj;
 524:Drivers/lvgl/lvgl/src/widgets/lv_img.c ****     if(code == LV_EVENT_COVER_CHECK) {
 133              		.loc 1 524 0
 134 0018 122D     		cmp	r5, #18
 135 001a 06D0     		beq	.L32
 525:Drivers/lvgl/lvgl/src/widgets/lv_img.c ****         lv_cover_check_info_t * info = lv_event_get_param(e);
 526:Drivers/lvgl/lvgl/src/widgets/lv_img.c ****         if(info->res == LV_COVER_RES_MASKED) return;
 527:Drivers/lvgl/lvgl/src/widgets/lv_img.c ****         if(img->src_type == LV_IMG_SRC_UNKNOWN || img->src_type == LV_IMG_SRC_SYMBOL) {
 528:Drivers/lvgl/lvgl/src/widgets/lv_img.c ****             info->res = LV_COVER_RES_NOT_COVER;
 529:Drivers/lvgl/lvgl/src/widgets/lv_img.c ****             return;
 530:Drivers/lvgl/lvgl/src/widgets/lv_img.c ****         }
ARM GAS  /tmp/ccNaDK0X.s 			page 15


 531:Drivers/lvgl/lvgl/src/widgets/lv_img.c **** 
 532:Drivers/lvgl/lvgl/src/widgets/lv_img.c ****         /*Non true color format might have "holes"*/
 533:Drivers/lvgl/lvgl/src/widgets/lv_img.c ****         if(img->cf != LV_IMG_CF_TRUE_COLOR && img->cf != LV_IMG_CF_RAW) {
 534:Drivers/lvgl/lvgl/src/widgets/lv_img.c ****             info->res = LV_COVER_RES_NOT_COVER;
 535:Drivers/lvgl/lvgl/src/widgets/lv_img.c ****             return;
 536:Drivers/lvgl/lvgl/src/widgets/lv_img.c ****         }
 537:Drivers/lvgl/lvgl/src/widgets/lv_img.c **** 
 538:Drivers/lvgl/lvgl/src/widgets/lv_img.c ****         /*With not LV_OPA_COVER images can't cover an area */
 539:Drivers/lvgl/lvgl/src/widgets/lv_img.c ****         if(lv_obj_get_style_img_opa(obj, LV_PART_MAIN) != LV_OPA_COVER) {
 540:Drivers/lvgl/lvgl/src/widgets/lv_img.c ****             info->res = LV_COVER_RES_NOT_COVER;
 541:Drivers/lvgl/lvgl/src/widgets/lv_img.c ****             return;
 542:Drivers/lvgl/lvgl/src/widgets/lv_img.c ****         }
 543:Drivers/lvgl/lvgl/src/widgets/lv_img.c **** 
 544:Drivers/lvgl/lvgl/src/widgets/lv_img.c ****         if(img->angle != 0) {
 545:Drivers/lvgl/lvgl/src/widgets/lv_img.c ****             info->res = LV_COVER_RES_NOT_COVER;
 546:Drivers/lvgl/lvgl/src/widgets/lv_img.c ****             return;
 547:Drivers/lvgl/lvgl/src/widgets/lv_img.c ****         }
 548:Drivers/lvgl/lvgl/src/widgets/lv_img.c **** 
 549:Drivers/lvgl/lvgl/src/widgets/lv_img.c ****         const lv_area_t * clip_area = lv_event_get_param(e);
 550:Drivers/lvgl/lvgl/src/widgets/lv_img.c ****         if(img->zoom == LV_IMG_ZOOM_NONE) {
 551:Drivers/lvgl/lvgl/src/widgets/lv_img.c ****             if(_lv_area_is_in(clip_area, &obj->coords, 0) == false) {
 552:Drivers/lvgl/lvgl/src/widgets/lv_img.c ****                 info->res = LV_COVER_RES_NOT_COVER;
 553:Drivers/lvgl/lvgl/src/widgets/lv_img.c ****                 return;
 554:Drivers/lvgl/lvgl/src/widgets/lv_img.c ****             }
 555:Drivers/lvgl/lvgl/src/widgets/lv_img.c ****         }
 556:Drivers/lvgl/lvgl/src/widgets/lv_img.c ****         else {
 557:Drivers/lvgl/lvgl/src/widgets/lv_img.c ****             lv_area_t a;
 558:Drivers/lvgl/lvgl/src/widgets/lv_img.c ****             _lv_img_buf_get_transformed_area(&a, lv_obj_get_width(obj), lv_obj_get_height(obj), 0, 
 559:Drivers/lvgl/lvgl/src/widgets/lv_img.c ****             a.x1 += obj->coords.x1;
 560:Drivers/lvgl/lvgl/src/widgets/lv_img.c ****             a.y1 += obj->coords.y1;
 561:Drivers/lvgl/lvgl/src/widgets/lv_img.c ****             a.x2 += obj->coords.x1;
 562:Drivers/lvgl/lvgl/src/widgets/lv_img.c ****             a.y2 += obj->coords.y1;
 563:Drivers/lvgl/lvgl/src/widgets/lv_img.c **** 
 564:Drivers/lvgl/lvgl/src/widgets/lv_img.c ****             if(_lv_area_is_in(clip_area, &a, 0) == false) {
 565:Drivers/lvgl/lvgl/src/widgets/lv_img.c ****                 info->res = LV_COVER_RES_NOT_COVER;
 566:Drivers/lvgl/lvgl/src/widgets/lv_img.c ****                 return;
 567:Drivers/lvgl/lvgl/src/widgets/lv_img.c ****             }
 568:Drivers/lvgl/lvgl/src/widgets/lv_img.c ****         }
 569:Drivers/lvgl/lvgl/src/widgets/lv_img.c ****     }
 570:Drivers/lvgl/lvgl/src/widgets/lv_img.c ****     else if(code == LV_EVENT_DRAW_MAIN || code == LV_EVENT_DRAW_POST) {
 136              		.loc 1 570 0
 137 001c 182D     		cmp	r5, #24
 138 001e 18BF     		it	ne
 139 0020 152D     		cmpne	r5, #21
 140 0022 71D0     		beq	.L33
 141              	.LVL11:
 142              	.L3:
 571:Drivers/lvgl/lvgl/src/widgets/lv_img.c **** 
 572:Drivers/lvgl/lvgl/src/widgets/lv_img.c ****         lv_coord_t obj_w = lv_obj_get_width(obj);
 573:Drivers/lvgl/lvgl/src/widgets/lv_img.c ****         lv_coord_t obj_h = lv_obj_get_height(obj);
 574:Drivers/lvgl/lvgl/src/widgets/lv_img.c **** 
 575:Drivers/lvgl/lvgl/src/widgets/lv_img.c ****         lv_coord_t border_width = lv_obj_get_style_border_width(obj, LV_PART_MAIN);
 576:Drivers/lvgl/lvgl/src/widgets/lv_img.c ****         lv_coord_t pleft = lv_obj_get_style_pad_left(obj, LV_PART_MAIN) + border_width;
 577:Drivers/lvgl/lvgl/src/widgets/lv_img.c ****         lv_coord_t pright = lv_obj_get_style_pad_right(obj, LV_PART_MAIN) + border_width;
 578:Drivers/lvgl/lvgl/src/widgets/lv_img.c ****         lv_coord_t ptop = lv_obj_get_style_pad_top(obj, LV_PART_MAIN) + border_width;
 579:Drivers/lvgl/lvgl/src/widgets/lv_img.c ****         lv_coord_t pbottom = lv_obj_get_style_pad_bottom(obj, LV_PART_MAIN) + border_width;
 580:Drivers/lvgl/lvgl/src/widgets/lv_img.c **** 
ARM GAS  /tmp/ccNaDK0X.s 			page 16


 581:Drivers/lvgl/lvgl/src/widgets/lv_img.c ****         lv_point_t bg_pivot;
 582:Drivers/lvgl/lvgl/src/widgets/lv_img.c ****         bg_pivot.x = img->pivot.x + pleft;
 583:Drivers/lvgl/lvgl/src/widgets/lv_img.c ****         bg_pivot.y = img->pivot.y + ptop;
 584:Drivers/lvgl/lvgl/src/widgets/lv_img.c ****         lv_area_t bg_coords;
 585:Drivers/lvgl/lvgl/src/widgets/lv_img.c **** 
 586:Drivers/lvgl/lvgl/src/widgets/lv_img.c ****         if(img->obj_size_mode == LV_IMG_SIZE_MODE_REAL) {
 587:Drivers/lvgl/lvgl/src/widgets/lv_img.c ****             /*Object size equals to transformed image size*/
 588:Drivers/lvgl/lvgl/src/widgets/lv_img.c ****             lv_obj_get_coords(obj, &bg_coords);
 589:Drivers/lvgl/lvgl/src/widgets/lv_img.c ****         }
 590:Drivers/lvgl/lvgl/src/widgets/lv_img.c ****         else {
 591:Drivers/lvgl/lvgl/src/widgets/lv_img.c ****             _lv_img_buf_get_transformed_area(&bg_coords, obj_w, obj_h,
 592:Drivers/lvgl/lvgl/src/widgets/lv_img.c ****                                              img->angle, img->zoom, &bg_pivot);
 593:Drivers/lvgl/lvgl/src/widgets/lv_img.c **** 
 594:Drivers/lvgl/lvgl/src/widgets/lv_img.c ****             /*Modify the coordinates to draw the background for the rotated and scaled coordinates*
 595:Drivers/lvgl/lvgl/src/widgets/lv_img.c ****             bg_coords.x1 += obj->coords.x1;
 596:Drivers/lvgl/lvgl/src/widgets/lv_img.c ****             bg_coords.y1 += obj->coords.y1;
 597:Drivers/lvgl/lvgl/src/widgets/lv_img.c ****             bg_coords.x2 += obj->coords.x1;
 598:Drivers/lvgl/lvgl/src/widgets/lv_img.c ****             bg_coords.y2 += obj->coords.y1;
 599:Drivers/lvgl/lvgl/src/widgets/lv_img.c ****         }
 600:Drivers/lvgl/lvgl/src/widgets/lv_img.c **** 
 601:Drivers/lvgl/lvgl/src/widgets/lv_img.c ****         lv_area_t ori_coords;
 602:Drivers/lvgl/lvgl/src/widgets/lv_img.c ****         lv_area_copy(&ori_coords, &obj->coords);
 603:Drivers/lvgl/lvgl/src/widgets/lv_img.c ****         lv_area_copy(&obj->coords, &bg_coords);
 604:Drivers/lvgl/lvgl/src/widgets/lv_img.c **** 
 605:Drivers/lvgl/lvgl/src/widgets/lv_img.c ****         lv_res_t res = lv_obj_event_base(MY_CLASS, e);
 606:Drivers/lvgl/lvgl/src/widgets/lv_img.c ****         if(res != LV_RES_OK) return;
 607:Drivers/lvgl/lvgl/src/widgets/lv_img.c **** 
 608:Drivers/lvgl/lvgl/src/widgets/lv_img.c ****         lv_area_copy(&obj->coords, &ori_coords);
 609:Drivers/lvgl/lvgl/src/widgets/lv_img.c **** 
 610:Drivers/lvgl/lvgl/src/widgets/lv_img.c ****         if(code == LV_EVENT_DRAW_MAIN) {
 611:Drivers/lvgl/lvgl/src/widgets/lv_img.c ****             if(img->h == 0 || img->w == 0) return;
 612:Drivers/lvgl/lvgl/src/widgets/lv_img.c ****             if(img->zoom == 0) return;
 613:Drivers/lvgl/lvgl/src/widgets/lv_img.c **** 
 614:Drivers/lvgl/lvgl/src/widgets/lv_img.c ****             lv_draw_ctx_t * draw_ctx = lv_event_get_draw_ctx(e);
 615:Drivers/lvgl/lvgl/src/widgets/lv_img.c **** 
 616:Drivers/lvgl/lvgl/src/widgets/lv_img.c ****             lv_area_t img_max_area;
 617:Drivers/lvgl/lvgl/src/widgets/lv_img.c ****             lv_area_copy(&img_max_area, &obj->coords);
 618:Drivers/lvgl/lvgl/src/widgets/lv_img.c **** 
 619:Drivers/lvgl/lvgl/src/widgets/lv_img.c ****             lv_point_t img_size_final = lv_img_get_transformed_size(obj);
 620:Drivers/lvgl/lvgl/src/widgets/lv_img.c **** 
 621:Drivers/lvgl/lvgl/src/widgets/lv_img.c ****             if(img->obj_size_mode == LV_IMG_SIZE_MODE_REAL) {
 622:Drivers/lvgl/lvgl/src/widgets/lv_img.c ****                 img_max_area.x1 -= ((img->w - img_size_final.x) + 1) / 2;
 623:Drivers/lvgl/lvgl/src/widgets/lv_img.c ****                 img_max_area.x2 -= ((img->w - img_size_final.x) + 1) / 2;
 624:Drivers/lvgl/lvgl/src/widgets/lv_img.c ****                 img_max_area.y1 -= ((img->h - img_size_final.y) + 1) / 2;
 625:Drivers/lvgl/lvgl/src/widgets/lv_img.c ****                 img_max_area.y2 -= ((img->h - img_size_final.y) + 1) / 2;
 626:Drivers/lvgl/lvgl/src/widgets/lv_img.c ****             }
 627:Drivers/lvgl/lvgl/src/widgets/lv_img.c ****             else {
 628:Drivers/lvgl/lvgl/src/widgets/lv_img.c ****                 img_max_area.x2 = img_max_area.x1 + lv_area_get_width(&bg_coords) - 1;
 629:Drivers/lvgl/lvgl/src/widgets/lv_img.c ****                 img_max_area.y2 = img_max_area.y1 + lv_area_get_height(&bg_coords) - 1;
 630:Drivers/lvgl/lvgl/src/widgets/lv_img.c ****             }
 631:Drivers/lvgl/lvgl/src/widgets/lv_img.c **** 
 632:Drivers/lvgl/lvgl/src/widgets/lv_img.c ****             img_max_area.x1 += pleft;
 633:Drivers/lvgl/lvgl/src/widgets/lv_img.c ****             img_max_area.y1 += ptop;
 634:Drivers/lvgl/lvgl/src/widgets/lv_img.c ****             img_max_area.x2 -= pright;
 635:Drivers/lvgl/lvgl/src/widgets/lv_img.c ****             img_max_area.y2 -= pbottom;
 636:Drivers/lvgl/lvgl/src/widgets/lv_img.c **** 
 637:Drivers/lvgl/lvgl/src/widgets/lv_img.c ****             if(img->src_type == LV_IMG_SRC_FILE || img->src_type == LV_IMG_SRC_VARIABLE) {
ARM GAS  /tmp/ccNaDK0X.s 			page 17


 638:Drivers/lvgl/lvgl/src/widgets/lv_img.c ****                 lv_draw_img_dsc_t img_dsc;
 639:Drivers/lvgl/lvgl/src/widgets/lv_img.c ****                 lv_draw_img_dsc_init(&img_dsc);
 640:Drivers/lvgl/lvgl/src/widgets/lv_img.c ****                 lv_obj_init_draw_img_dsc(obj, LV_PART_MAIN, &img_dsc);
 641:Drivers/lvgl/lvgl/src/widgets/lv_img.c **** 
 642:Drivers/lvgl/lvgl/src/widgets/lv_img.c ****                 img_dsc.zoom = img->zoom;
 643:Drivers/lvgl/lvgl/src/widgets/lv_img.c ****                 img_dsc.angle = img->angle;
 644:Drivers/lvgl/lvgl/src/widgets/lv_img.c ****                 img_dsc.pivot.x = img->pivot.x;
 645:Drivers/lvgl/lvgl/src/widgets/lv_img.c ****                 img_dsc.pivot.y = img->pivot.y;
 646:Drivers/lvgl/lvgl/src/widgets/lv_img.c ****                 img_dsc.antialias = img->antialias;
 647:Drivers/lvgl/lvgl/src/widgets/lv_img.c **** 
 648:Drivers/lvgl/lvgl/src/widgets/lv_img.c ****                 lv_area_t img_clip_area;
 649:Drivers/lvgl/lvgl/src/widgets/lv_img.c ****                 img_clip_area.x1 = bg_coords.x1 + pleft;
 650:Drivers/lvgl/lvgl/src/widgets/lv_img.c ****                 img_clip_area.y1 = bg_coords.y1 + ptop;
 651:Drivers/lvgl/lvgl/src/widgets/lv_img.c ****                 img_clip_area.x2 = bg_coords.x2 - pright;
 652:Drivers/lvgl/lvgl/src/widgets/lv_img.c ****                 img_clip_area.y2 = bg_coords.y2 - pbottom;
 653:Drivers/lvgl/lvgl/src/widgets/lv_img.c ****                 const lv_area_t * clip_area_ori = draw_ctx->clip_area;
 654:Drivers/lvgl/lvgl/src/widgets/lv_img.c **** 
 655:Drivers/lvgl/lvgl/src/widgets/lv_img.c ****                 if(!_lv_area_intersect(&img_clip_area, draw_ctx->clip_area, &img_clip_area)) return
 656:Drivers/lvgl/lvgl/src/widgets/lv_img.c ****                 draw_ctx->clip_area = &img_clip_area;
 657:Drivers/lvgl/lvgl/src/widgets/lv_img.c **** 
 658:Drivers/lvgl/lvgl/src/widgets/lv_img.c ****                 lv_area_t coords_tmp;
 659:Drivers/lvgl/lvgl/src/widgets/lv_img.c ****                 lv_coord_t offset_x = img->offset.x % img->w;
 660:Drivers/lvgl/lvgl/src/widgets/lv_img.c ****                 lv_coord_t offset_y = img->offset.y % img->h;
 661:Drivers/lvgl/lvgl/src/widgets/lv_img.c ****                 coords_tmp.y1 = img_max_area.y1 + offset_y;
 662:Drivers/lvgl/lvgl/src/widgets/lv_img.c ****                 if(coords_tmp.y1 > img_max_area.y1) coords_tmp.y1 -= img->h;
 663:Drivers/lvgl/lvgl/src/widgets/lv_img.c ****                 coords_tmp.y2 = coords_tmp.y1 + img->h - 1;
 664:Drivers/lvgl/lvgl/src/widgets/lv_img.c **** 
 665:Drivers/lvgl/lvgl/src/widgets/lv_img.c ****                 for(; coords_tmp.y1 < img_max_area.y2; coords_tmp.y1 += img_size_final.y, coords_tm
 666:Drivers/lvgl/lvgl/src/widgets/lv_img.c ****                     coords_tmp.x1 = img_max_area.x1 + offset_x;
 667:Drivers/lvgl/lvgl/src/widgets/lv_img.c ****                     if(coords_tmp.x1 > img_max_area.x1) coords_tmp.x1 -= img->w;
 668:Drivers/lvgl/lvgl/src/widgets/lv_img.c ****                     coords_tmp.x2 = coords_tmp.x1 + img->w - 1;
 669:Drivers/lvgl/lvgl/src/widgets/lv_img.c **** 
 670:Drivers/lvgl/lvgl/src/widgets/lv_img.c ****                     for(; coords_tmp.x1 < img_max_area.x2; coords_tmp.x1 += img_size_final.x, coord
 671:Drivers/lvgl/lvgl/src/widgets/lv_img.c ****                         lv_draw_img(draw_ctx, &img_dsc, &coords_tmp, img->src);
 672:Drivers/lvgl/lvgl/src/widgets/lv_img.c ****                     }
 673:Drivers/lvgl/lvgl/src/widgets/lv_img.c ****                 }
 674:Drivers/lvgl/lvgl/src/widgets/lv_img.c ****                 draw_ctx->clip_area = clip_area_ori;
 675:Drivers/lvgl/lvgl/src/widgets/lv_img.c ****             }
 676:Drivers/lvgl/lvgl/src/widgets/lv_img.c ****             else if(img->src_type == LV_IMG_SRC_SYMBOL) {
 677:Drivers/lvgl/lvgl/src/widgets/lv_img.c ****                 lv_draw_label_dsc_t label_dsc;
 678:Drivers/lvgl/lvgl/src/widgets/lv_img.c ****                 lv_draw_label_dsc_init(&label_dsc);
 679:Drivers/lvgl/lvgl/src/widgets/lv_img.c ****                 lv_obj_init_draw_label_dsc(obj, LV_PART_MAIN, &label_dsc);
 680:Drivers/lvgl/lvgl/src/widgets/lv_img.c **** 
 681:Drivers/lvgl/lvgl/src/widgets/lv_img.c ****                 lv_draw_label(draw_ctx, &label_dsc, &obj->coords, img->src, NULL);
 682:Drivers/lvgl/lvgl/src/widgets/lv_img.c ****             }
 683:Drivers/lvgl/lvgl/src/widgets/lv_img.c ****             else {
 684:Drivers/lvgl/lvgl/src/widgets/lv_img.c ****                 /*Trigger the error handler of image draw*/
 685:Drivers/lvgl/lvgl/src/widgets/lv_img.c ****                 LV_LOG_WARN("draw_img: image source type is unknown");
 686:Drivers/lvgl/lvgl/src/widgets/lv_img.c ****                 lv_draw_img(draw_ctx, NULL, &obj->coords, NULL);
 687:Drivers/lvgl/lvgl/src/widgets/lv_img.c ****             }
 688:Drivers/lvgl/lvgl/src/widgets/lv_img.c ****         }
 689:Drivers/lvgl/lvgl/src/widgets/lv_img.c ****     }
 690:Drivers/lvgl/lvgl/src/widgets/lv_img.c **** }
 143              		.loc 1 690 0
 144 0024 1BB0     		add	sp, sp, #108
 145              	.LCFI5:
 146              		.cfi_remember_state
ARM GAS  /tmp/ccNaDK0X.s 			page 18


 147              		.cfi_def_cfa_offset 36
 148              		@ sp needed
 149 0026 BDE8F08F 		pop	{r4, r5, r6, r7, r8, r9, r10, fp, pc}
 150              	.LVL12:
 151              	.L32:
 152              	.LCFI6:
 153              		.cfi_restore_state
 154              	.LBB48:
 525:Drivers/lvgl/lvgl/src/widgets/lv_img.c ****         lv_cover_check_info_t * info = lv_event_get_param(e);
 155              		.loc 1 525 0
 156 002a 0398     		ldr	r0, [sp, #12]
 157              	.LVL13:
 158 002c FFF7FEFF 		bl	lv_event_get_param
 159              	.LVL14:
 160 0030 0546     		mov	r5, r0
 161              	.LVL15:
 526:Drivers/lvgl/lvgl/src/widgets/lv_img.c ****         if(img->src_type == LV_IMG_SRC_UNKNOWN || img->src_type == LV_IMG_SRC_SYMBOL) {
 162              		.loc 1 526 0
 163 0032 0378     		ldrb	r3, [r0]	@ zero_extendqisi2
 164 0034 022B     		cmp	r3, #2
 165 0036 F5D0     		beq	.L3
 527:Drivers/lvgl/lvgl/src/widgets/lv_img.c ****             info->res = LV_COVER_RES_NOT_COVER;
 166              		.loc 1 527 0
 167 0038 94F83820 		ldrb	r2, [r4, #56]	@ zero_extendqisi2
 168 003c 02F00303 		and	r3, r2, #3
 169 0040 023B     		subs	r3, r3, #2
 170 0042 DBB2     		uxtb	r3, r3
 171 0044 012B     		cmp	r3, #1
 172 0046 08D9     		bls	.L34
 533:Drivers/lvgl/lvgl/src/widgets/lv_img.c ****             info->res = LV_COVER_RES_NOT_COVER;
 173              		.loc 1 533 0
 174 0048 02F07C02 		and	r2, r2, #124
 175 004c 102A     		cmp	r2, #16
 176 004e 18BF     		it	ne
 177 0050 042A     		cmpne	r2, #4
 178 0052 05D0     		beq	.L7
 534:Drivers/lvgl/lvgl/src/widgets/lv_img.c ****             return;
 179              		.loc 1 534 0
 180 0054 0123     		movs	r3, #1
 181 0056 0370     		strb	r3, [r0]
 535:Drivers/lvgl/lvgl/src/widgets/lv_img.c ****         }
 182              		.loc 1 535 0
 183 0058 E4E7     		b	.L3
 184              	.L34:
 528:Drivers/lvgl/lvgl/src/widgets/lv_img.c ****             return;
 185              		.loc 1 528 0
 186 005a 0123     		movs	r3, #1
 187 005c 0370     		strb	r3, [r0]
 529:Drivers/lvgl/lvgl/src/widgets/lv_img.c ****         }
 188              		.loc 1 529 0
 189 005e E1E7     		b	.L3
 190              	.L7:
 191              	.LVL16:
 192              	.LBB49:
 193              	.LBB50:
 194              		.file 3 "Drivers/lvgl/lvgl/src/widgets/../core/lv_obj_style_gen.h"
   1:Drivers/lvgl/lvgl/src/widgets/../core/lv_obj_style_gen.h **** static inline lv_coord_t lv_obj_get_style_width(const struct _lv_obj_t * obj, uint32_t part)
ARM GAS  /tmp/ccNaDK0X.s 			page 19


   2:Drivers/lvgl/lvgl/src/widgets/../core/lv_obj_style_gen.h **** {
   3:Drivers/lvgl/lvgl/src/widgets/../core/lv_obj_style_gen.h ****     lv_style_value_t v = lv_obj_get_style_prop(obj, part, LV_STYLE_WIDTH);
   4:Drivers/lvgl/lvgl/src/widgets/../core/lv_obj_style_gen.h ****     return (lv_coord_t)v.num;
   5:Drivers/lvgl/lvgl/src/widgets/../core/lv_obj_style_gen.h **** }
   6:Drivers/lvgl/lvgl/src/widgets/../core/lv_obj_style_gen.h **** 
   7:Drivers/lvgl/lvgl/src/widgets/../core/lv_obj_style_gen.h **** static inline lv_coord_t lv_obj_get_style_min_width(const struct _lv_obj_t * obj, uint32_t part)
   8:Drivers/lvgl/lvgl/src/widgets/../core/lv_obj_style_gen.h **** {
   9:Drivers/lvgl/lvgl/src/widgets/../core/lv_obj_style_gen.h ****     lv_style_value_t v = lv_obj_get_style_prop(obj, part, LV_STYLE_MIN_WIDTH);
  10:Drivers/lvgl/lvgl/src/widgets/../core/lv_obj_style_gen.h ****     return (lv_coord_t)v.num;
  11:Drivers/lvgl/lvgl/src/widgets/../core/lv_obj_style_gen.h **** }
  12:Drivers/lvgl/lvgl/src/widgets/../core/lv_obj_style_gen.h **** 
  13:Drivers/lvgl/lvgl/src/widgets/../core/lv_obj_style_gen.h **** static inline lv_coord_t lv_obj_get_style_max_width(const struct _lv_obj_t * obj, uint32_t part)
  14:Drivers/lvgl/lvgl/src/widgets/../core/lv_obj_style_gen.h **** {
  15:Drivers/lvgl/lvgl/src/widgets/../core/lv_obj_style_gen.h ****     lv_style_value_t v = lv_obj_get_style_prop(obj, part, LV_STYLE_MAX_WIDTH);
  16:Drivers/lvgl/lvgl/src/widgets/../core/lv_obj_style_gen.h ****     return (lv_coord_t)v.num;
  17:Drivers/lvgl/lvgl/src/widgets/../core/lv_obj_style_gen.h **** }
  18:Drivers/lvgl/lvgl/src/widgets/../core/lv_obj_style_gen.h **** 
  19:Drivers/lvgl/lvgl/src/widgets/../core/lv_obj_style_gen.h **** static inline lv_coord_t lv_obj_get_style_height(const struct _lv_obj_t * obj, uint32_t part)
  20:Drivers/lvgl/lvgl/src/widgets/../core/lv_obj_style_gen.h **** {
  21:Drivers/lvgl/lvgl/src/widgets/../core/lv_obj_style_gen.h ****     lv_style_value_t v = lv_obj_get_style_prop(obj, part, LV_STYLE_HEIGHT);
  22:Drivers/lvgl/lvgl/src/widgets/../core/lv_obj_style_gen.h ****     return (lv_coord_t)v.num;
  23:Drivers/lvgl/lvgl/src/widgets/../core/lv_obj_style_gen.h **** }
  24:Drivers/lvgl/lvgl/src/widgets/../core/lv_obj_style_gen.h **** 
  25:Drivers/lvgl/lvgl/src/widgets/../core/lv_obj_style_gen.h **** static inline lv_coord_t lv_obj_get_style_min_height(const struct _lv_obj_t * obj, uint32_t part)
  26:Drivers/lvgl/lvgl/src/widgets/../core/lv_obj_style_gen.h **** {
  27:Drivers/lvgl/lvgl/src/widgets/../core/lv_obj_style_gen.h ****     lv_style_value_t v = lv_obj_get_style_prop(obj, part, LV_STYLE_MIN_HEIGHT);
  28:Drivers/lvgl/lvgl/src/widgets/../core/lv_obj_style_gen.h ****     return (lv_coord_t)v.num;
  29:Drivers/lvgl/lvgl/src/widgets/../core/lv_obj_style_gen.h **** }
  30:Drivers/lvgl/lvgl/src/widgets/../core/lv_obj_style_gen.h **** 
  31:Drivers/lvgl/lvgl/src/widgets/../core/lv_obj_style_gen.h **** static inline lv_coord_t lv_obj_get_style_max_height(const struct _lv_obj_t * obj, uint32_t part)
  32:Drivers/lvgl/lvgl/src/widgets/../core/lv_obj_style_gen.h **** {
  33:Drivers/lvgl/lvgl/src/widgets/../core/lv_obj_style_gen.h ****     lv_style_value_t v = lv_obj_get_style_prop(obj, part, LV_STYLE_MAX_HEIGHT);
  34:Drivers/lvgl/lvgl/src/widgets/../core/lv_obj_style_gen.h ****     return (lv_coord_t)v.num;
  35:Drivers/lvgl/lvgl/src/widgets/../core/lv_obj_style_gen.h **** }
  36:Drivers/lvgl/lvgl/src/widgets/../core/lv_obj_style_gen.h **** 
  37:Drivers/lvgl/lvgl/src/widgets/../core/lv_obj_style_gen.h **** static inline lv_coord_t lv_obj_get_style_x(const struct _lv_obj_t * obj, uint32_t part)
  38:Drivers/lvgl/lvgl/src/widgets/../core/lv_obj_style_gen.h **** {
  39:Drivers/lvgl/lvgl/src/widgets/../core/lv_obj_style_gen.h ****     lv_style_value_t v = lv_obj_get_style_prop(obj, part, LV_STYLE_X);
  40:Drivers/lvgl/lvgl/src/widgets/../core/lv_obj_style_gen.h ****     return (lv_coord_t)v.num;
  41:Drivers/lvgl/lvgl/src/widgets/../core/lv_obj_style_gen.h **** }
  42:Drivers/lvgl/lvgl/src/widgets/../core/lv_obj_style_gen.h **** 
  43:Drivers/lvgl/lvgl/src/widgets/../core/lv_obj_style_gen.h **** static inline lv_coord_t lv_obj_get_style_y(const struct _lv_obj_t * obj, uint32_t part)
  44:Drivers/lvgl/lvgl/src/widgets/../core/lv_obj_style_gen.h **** {
  45:Drivers/lvgl/lvgl/src/widgets/../core/lv_obj_style_gen.h ****     lv_style_value_t v = lv_obj_get_style_prop(obj, part, LV_STYLE_Y);
  46:Drivers/lvgl/lvgl/src/widgets/../core/lv_obj_style_gen.h ****     return (lv_coord_t)v.num;
  47:Drivers/lvgl/lvgl/src/widgets/../core/lv_obj_style_gen.h **** }
  48:Drivers/lvgl/lvgl/src/widgets/../core/lv_obj_style_gen.h **** 
  49:Drivers/lvgl/lvgl/src/widgets/../core/lv_obj_style_gen.h **** static inline lv_align_t lv_obj_get_style_align(const struct _lv_obj_t * obj, uint32_t part)
  50:Drivers/lvgl/lvgl/src/widgets/../core/lv_obj_style_gen.h **** {
  51:Drivers/lvgl/lvgl/src/widgets/../core/lv_obj_style_gen.h ****     lv_style_value_t v = lv_obj_get_style_prop(obj, part, LV_STYLE_ALIGN);
  52:Drivers/lvgl/lvgl/src/widgets/../core/lv_obj_style_gen.h ****     return (lv_align_t)v.num;
  53:Drivers/lvgl/lvgl/src/widgets/../core/lv_obj_style_gen.h **** }
  54:Drivers/lvgl/lvgl/src/widgets/../core/lv_obj_style_gen.h **** 
  55:Drivers/lvgl/lvgl/src/widgets/../core/lv_obj_style_gen.h **** static inline lv_coord_t lv_obj_get_style_transform_width(const struct _lv_obj_t * obj, uint32_t pa
  56:Drivers/lvgl/lvgl/src/widgets/../core/lv_obj_style_gen.h **** {
  57:Drivers/lvgl/lvgl/src/widgets/../core/lv_obj_style_gen.h ****     lv_style_value_t v = lv_obj_get_style_prop(obj, part, LV_STYLE_TRANSFORM_WIDTH);
  58:Drivers/lvgl/lvgl/src/widgets/../core/lv_obj_style_gen.h ****     return (lv_coord_t)v.num;
ARM GAS  /tmp/ccNaDK0X.s 			page 20


  59:Drivers/lvgl/lvgl/src/widgets/../core/lv_obj_style_gen.h **** }
  60:Drivers/lvgl/lvgl/src/widgets/../core/lv_obj_style_gen.h **** 
  61:Drivers/lvgl/lvgl/src/widgets/../core/lv_obj_style_gen.h **** static inline lv_coord_t lv_obj_get_style_transform_height(const struct _lv_obj_t * obj, uint32_t p
  62:Drivers/lvgl/lvgl/src/widgets/../core/lv_obj_style_gen.h **** {
  63:Drivers/lvgl/lvgl/src/widgets/../core/lv_obj_style_gen.h ****     lv_style_value_t v = lv_obj_get_style_prop(obj, part, LV_STYLE_TRANSFORM_HEIGHT);
  64:Drivers/lvgl/lvgl/src/widgets/../core/lv_obj_style_gen.h ****     return (lv_coord_t)v.num;
  65:Drivers/lvgl/lvgl/src/widgets/../core/lv_obj_style_gen.h **** }
  66:Drivers/lvgl/lvgl/src/widgets/../core/lv_obj_style_gen.h **** 
  67:Drivers/lvgl/lvgl/src/widgets/../core/lv_obj_style_gen.h **** static inline lv_coord_t lv_obj_get_style_translate_x(const struct _lv_obj_t * obj, uint32_t part)
  68:Drivers/lvgl/lvgl/src/widgets/../core/lv_obj_style_gen.h **** {
  69:Drivers/lvgl/lvgl/src/widgets/../core/lv_obj_style_gen.h ****     lv_style_value_t v = lv_obj_get_style_prop(obj, part, LV_STYLE_TRANSLATE_X);
  70:Drivers/lvgl/lvgl/src/widgets/../core/lv_obj_style_gen.h ****     return (lv_coord_t)v.num;
  71:Drivers/lvgl/lvgl/src/widgets/../core/lv_obj_style_gen.h **** }
  72:Drivers/lvgl/lvgl/src/widgets/../core/lv_obj_style_gen.h **** 
  73:Drivers/lvgl/lvgl/src/widgets/../core/lv_obj_style_gen.h **** static inline lv_coord_t lv_obj_get_style_translate_y(const struct _lv_obj_t * obj, uint32_t part)
  74:Drivers/lvgl/lvgl/src/widgets/../core/lv_obj_style_gen.h **** {
  75:Drivers/lvgl/lvgl/src/widgets/../core/lv_obj_style_gen.h ****     lv_style_value_t v = lv_obj_get_style_prop(obj, part, LV_STYLE_TRANSLATE_Y);
  76:Drivers/lvgl/lvgl/src/widgets/../core/lv_obj_style_gen.h ****     return (lv_coord_t)v.num;
  77:Drivers/lvgl/lvgl/src/widgets/../core/lv_obj_style_gen.h **** }
  78:Drivers/lvgl/lvgl/src/widgets/../core/lv_obj_style_gen.h **** 
  79:Drivers/lvgl/lvgl/src/widgets/../core/lv_obj_style_gen.h **** static inline lv_coord_t lv_obj_get_style_transform_zoom(const struct _lv_obj_t * obj, uint32_t par
  80:Drivers/lvgl/lvgl/src/widgets/../core/lv_obj_style_gen.h **** {
  81:Drivers/lvgl/lvgl/src/widgets/../core/lv_obj_style_gen.h ****     lv_style_value_t v = lv_obj_get_style_prop(obj, part, LV_STYLE_TRANSFORM_ZOOM);
  82:Drivers/lvgl/lvgl/src/widgets/../core/lv_obj_style_gen.h ****     return (lv_coord_t)v.num;
  83:Drivers/lvgl/lvgl/src/widgets/../core/lv_obj_style_gen.h **** }
  84:Drivers/lvgl/lvgl/src/widgets/../core/lv_obj_style_gen.h **** 
  85:Drivers/lvgl/lvgl/src/widgets/../core/lv_obj_style_gen.h **** static inline lv_coord_t lv_obj_get_style_transform_angle(const struct _lv_obj_t * obj, uint32_t pa
  86:Drivers/lvgl/lvgl/src/widgets/../core/lv_obj_style_gen.h **** {
  87:Drivers/lvgl/lvgl/src/widgets/../core/lv_obj_style_gen.h ****     lv_style_value_t v = lv_obj_get_style_prop(obj, part, LV_STYLE_TRANSFORM_ANGLE);
  88:Drivers/lvgl/lvgl/src/widgets/../core/lv_obj_style_gen.h ****     return (lv_coord_t)v.num;
  89:Drivers/lvgl/lvgl/src/widgets/../core/lv_obj_style_gen.h **** }
  90:Drivers/lvgl/lvgl/src/widgets/../core/lv_obj_style_gen.h **** 
  91:Drivers/lvgl/lvgl/src/widgets/../core/lv_obj_style_gen.h **** static inline lv_coord_t lv_obj_get_style_transform_pivot_x(const struct _lv_obj_t * obj, uint32_t 
  92:Drivers/lvgl/lvgl/src/widgets/../core/lv_obj_style_gen.h **** {
  93:Drivers/lvgl/lvgl/src/widgets/../core/lv_obj_style_gen.h ****     lv_style_value_t v = lv_obj_get_style_prop(obj, part, LV_STYLE_TRANSFORM_PIVOT_X);
  94:Drivers/lvgl/lvgl/src/widgets/../core/lv_obj_style_gen.h ****     return (lv_coord_t)v.num;
  95:Drivers/lvgl/lvgl/src/widgets/../core/lv_obj_style_gen.h **** }
  96:Drivers/lvgl/lvgl/src/widgets/../core/lv_obj_style_gen.h **** 
  97:Drivers/lvgl/lvgl/src/widgets/../core/lv_obj_style_gen.h **** static inline lv_coord_t lv_obj_get_style_transform_pivot_y(const struct _lv_obj_t * obj, uint32_t 
  98:Drivers/lvgl/lvgl/src/widgets/../core/lv_obj_style_gen.h **** {
  99:Drivers/lvgl/lvgl/src/widgets/../core/lv_obj_style_gen.h ****     lv_style_value_t v = lv_obj_get_style_prop(obj, part, LV_STYLE_TRANSFORM_PIVOT_Y);
 100:Drivers/lvgl/lvgl/src/widgets/../core/lv_obj_style_gen.h ****     return (lv_coord_t)v.num;
 101:Drivers/lvgl/lvgl/src/widgets/../core/lv_obj_style_gen.h **** }
 102:Drivers/lvgl/lvgl/src/widgets/../core/lv_obj_style_gen.h **** 
 103:Drivers/lvgl/lvgl/src/widgets/../core/lv_obj_style_gen.h **** static inline lv_coord_t lv_obj_get_style_pad_top(const struct _lv_obj_t * obj, uint32_t part)
 104:Drivers/lvgl/lvgl/src/widgets/../core/lv_obj_style_gen.h **** {
 105:Drivers/lvgl/lvgl/src/widgets/../core/lv_obj_style_gen.h ****     lv_style_value_t v = lv_obj_get_style_prop(obj, part, LV_STYLE_PAD_TOP);
 106:Drivers/lvgl/lvgl/src/widgets/../core/lv_obj_style_gen.h ****     return (lv_coord_t)v.num;
 107:Drivers/lvgl/lvgl/src/widgets/../core/lv_obj_style_gen.h **** }
 108:Drivers/lvgl/lvgl/src/widgets/../core/lv_obj_style_gen.h **** 
 109:Drivers/lvgl/lvgl/src/widgets/../core/lv_obj_style_gen.h **** static inline lv_coord_t lv_obj_get_style_pad_bottom(const struct _lv_obj_t * obj, uint32_t part)
 110:Drivers/lvgl/lvgl/src/widgets/../core/lv_obj_style_gen.h **** {
 111:Drivers/lvgl/lvgl/src/widgets/../core/lv_obj_style_gen.h ****     lv_style_value_t v = lv_obj_get_style_prop(obj, part, LV_STYLE_PAD_BOTTOM);
 112:Drivers/lvgl/lvgl/src/widgets/../core/lv_obj_style_gen.h ****     return (lv_coord_t)v.num;
 113:Drivers/lvgl/lvgl/src/widgets/../core/lv_obj_style_gen.h **** }
 114:Drivers/lvgl/lvgl/src/widgets/../core/lv_obj_style_gen.h **** 
 115:Drivers/lvgl/lvgl/src/widgets/../core/lv_obj_style_gen.h **** static inline lv_coord_t lv_obj_get_style_pad_left(const struct _lv_obj_t * obj, uint32_t part)
ARM GAS  /tmp/ccNaDK0X.s 			page 21


 116:Drivers/lvgl/lvgl/src/widgets/../core/lv_obj_style_gen.h **** {
 117:Drivers/lvgl/lvgl/src/widgets/../core/lv_obj_style_gen.h ****     lv_style_value_t v = lv_obj_get_style_prop(obj, part, LV_STYLE_PAD_LEFT);
 118:Drivers/lvgl/lvgl/src/widgets/../core/lv_obj_style_gen.h ****     return (lv_coord_t)v.num;
 119:Drivers/lvgl/lvgl/src/widgets/../core/lv_obj_style_gen.h **** }
 120:Drivers/lvgl/lvgl/src/widgets/../core/lv_obj_style_gen.h **** 
 121:Drivers/lvgl/lvgl/src/widgets/../core/lv_obj_style_gen.h **** static inline lv_coord_t lv_obj_get_style_pad_right(const struct _lv_obj_t * obj, uint32_t part)
 122:Drivers/lvgl/lvgl/src/widgets/../core/lv_obj_style_gen.h **** {
 123:Drivers/lvgl/lvgl/src/widgets/../core/lv_obj_style_gen.h ****     lv_style_value_t v = lv_obj_get_style_prop(obj, part, LV_STYLE_PAD_RIGHT);
 124:Drivers/lvgl/lvgl/src/widgets/../core/lv_obj_style_gen.h ****     return (lv_coord_t)v.num;
 125:Drivers/lvgl/lvgl/src/widgets/../core/lv_obj_style_gen.h **** }
 126:Drivers/lvgl/lvgl/src/widgets/../core/lv_obj_style_gen.h **** 
 127:Drivers/lvgl/lvgl/src/widgets/../core/lv_obj_style_gen.h **** static inline lv_coord_t lv_obj_get_style_pad_row(const struct _lv_obj_t * obj, uint32_t part)
 128:Drivers/lvgl/lvgl/src/widgets/../core/lv_obj_style_gen.h **** {
 129:Drivers/lvgl/lvgl/src/widgets/../core/lv_obj_style_gen.h ****     lv_style_value_t v = lv_obj_get_style_prop(obj, part, LV_STYLE_PAD_ROW);
 130:Drivers/lvgl/lvgl/src/widgets/../core/lv_obj_style_gen.h ****     return (lv_coord_t)v.num;
 131:Drivers/lvgl/lvgl/src/widgets/../core/lv_obj_style_gen.h **** }
 132:Drivers/lvgl/lvgl/src/widgets/../core/lv_obj_style_gen.h **** 
 133:Drivers/lvgl/lvgl/src/widgets/../core/lv_obj_style_gen.h **** static inline lv_coord_t lv_obj_get_style_pad_column(const struct _lv_obj_t * obj, uint32_t part)
 134:Drivers/lvgl/lvgl/src/widgets/../core/lv_obj_style_gen.h **** {
 135:Drivers/lvgl/lvgl/src/widgets/../core/lv_obj_style_gen.h ****     lv_style_value_t v = lv_obj_get_style_prop(obj, part, LV_STYLE_PAD_COLUMN);
 136:Drivers/lvgl/lvgl/src/widgets/../core/lv_obj_style_gen.h ****     return (lv_coord_t)v.num;
 137:Drivers/lvgl/lvgl/src/widgets/../core/lv_obj_style_gen.h **** }
 138:Drivers/lvgl/lvgl/src/widgets/../core/lv_obj_style_gen.h **** 
 139:Drivers/lvgl/lvgl/src/widgets/../core/lv_obj_style_gen.h **** static inline lv_color_t lv_obj_get_style_bg_color(const struct _lv_obj_t * obj, uint32_t part)
 140:Drivers/lvgl/lvgl/src/widgets/../core/lv_obj_style_gen.h **** {
 141:Drivers/lvgl/lvgl/src/widgets/../core/lv_obj_style_gen.h ****     lv_style_value_t v = lv_obj_get_style_prop(obj, part, LV_STYLE_BG_COLOR);
 142:Drivers/lvgl/lvgl/src/widgets/../core/lv_obj_style_gen.h ****     return v.color;
 143:Drivers/lvgl/lvgl/src/widgets/../core/lv_obj_style_gen.h **** }
 144:Drivers/lvgl/lvgl/src/widgets/../core/lv_obj_style_gen.h **** 
 145:Drivers/lvgl/lvgl/src/widgets/../core/lv_obj_style_gen.h **** static inline lv_color_t lv_obj_get_style_bg_color_filtered(const struct _lv_obj_t * obj, uint32_t 
 146:Drivers/lvgl/lvgl/src/widgets/../core/lv_obj_style_gen.h **** {
 147:Drivers/lvgl/lvgl/src/widgets/../core/lv_obj_style_gen.h ****     lv_style_value_t v = _lv_obj_style_apply_color_filter(obj, part, lv_obj_get_style_prop(obj, par
 148:Drivers/lvgl/lvgl/src/widgets/../core/lv_obj_style_gen.h ****     return v.color;
 149:Drivers/lvgl/lvgl/src/widgets/../core/lv_obj_style_gen.h **** }
 150:Drivers/lvgl/lvgl/src/widgets/../core/lv_obj_style_gen.h **** 
 151:Drivers/lvgl/lvgl/src/widgets/../core/lv_obj_style_gen.h **** static inline lv_opa_t lv_obj_get_style_bg_opa(const struct _lv_obj_t * obj, uint32_t part)
 152:Drivers/lvgl/lvgl/src/widgets/../core/lv_obj_style_gen.h **** {
 153:Drivers/lvgl/lvgl/src/widgets/../core/lv_obj_style_gen.h ****     lv_style_value_t v = lv_obj_get_style_prop(obj, part, LV_STYLE_BG_OPA);
 154:Drivers/lvgl/lvgl/src/widgets/../core/lv_obj_style_gen.h ****     return (lv_opa_t)v.num;
 155:Drivers/lvgl/lvgl/src/widgets/../core/lv_obj_style_gen.h **** }
 156:Drivers/lvgl/lvgl/src/widgets/../core/lv_obj_style_gen.h **** 
 157:Drivers/lvgl/lvgl/src/widgets/../core/lv_obj_style_gen.h **** static inline lv_color_t lv_obj_get_style_bg_grad_color(const struct _lv_obj_t * obj, uint32_t part
 158:Drivers/lvgl/lvgl/src/widgets/../core/lv_obj_style_gen.h **** {
 159:Drivers/lvgl/lvgl/src/widgets/../core/lv_obj_style_gen.h ****     lv_style_value_t v = lv_obj_get_style_prop(obj, part, LV_STYLE_BG_GRAD_COLOR);
 160:Drivers/lvgl/lvgl/src/widgets/../core/lv_obj_style_gen.h ****     return v.color;
 161:Drivers/lvgl/lvgl/src/widgets/../core/lv_obj_style_gen.h **** }
 162:Drivers/lvgl/lvgl/src/widgets/../core/lv_obj_style_gen.h **** 
 163:Drivers/lvgl/lvgl/src/widgets/../core/lv_obj_style_gen.h **** static inline lv_color_t lv_obj_get_style_bg_grad_color_filtered(const struct _lv_obj_t * obj, uint
 164:Drivers/lvgl/lvgl/src/widgets/../core/lv_obj_style_gen.h **** {
 165:Drivers/lvgl/lvgl/src/widgets/../core/lv_obj_style_gen.h ****     lv_style_value_t v = _lv_obj_style_apply_color_filter(obj, part, lv_obj_get_style_prop(obj, par
 166:Drivers/lvgl/lvgl/src/widgets/../core/lv_obj_style_gen.h ****     return v.color;
 167:Drivers/lvgl/lvgl/src/widgets/../core/lv_obj_style_gen.h **** }
 168:Drivers/lvgl/lvgl/src/widgets/../core/lv_obj_style_gen.h **** 
 169:Drivers/lvgl/lvgl/src/widgets/../core/lv_obj_style_gen.h **** static inline lv_grad_dir_t lv_obj_get_style_bg_grad_dir(const struct _lv_obj_t * obj, uint32_t par
 170:Drivers/lvgl/lvgl/src/widgets/../core/lv_obj_style_gen.h **** {
 171:Drivers/lvgl/lvgl/src/widgets/../core/lv_obj_style_gen.h ****     lv_style_value_t v = lv_obj_get_style_prop(obj, part, LV_STYLE_BG_GRAD_DIR);
 172:Drivers/lvgl/lvgl/src/widgets/../core/lv_obj_style_gen.h ****     return (lv_grad_dir_t)v.num;
ARM GAS  /tmp/ccNaDK0X.s 			page 22


 173:Drivers/lvgl/lvgl/src/widgets/../core/lv_obj_style_gen.h **** }
 174:Drivers/lvgl/lvgl/src/widgets/../core/lv_obj_style_gen.h **** 
 175:Drivers/lvgl/lvgl/src/widgets/../core/lv_obj_style_gen.h **** static inline lv_coord_t lv_obj_get_style_bg_main_stop(const struct _lv_obj_t * obj, uint32_t part)
 176:Drivers/lvgl/lvgl/src/widgets/../core/lv_obj_style_gen.h **** {
 177:Drivers/lvgl/lvgl/src/widgets/../core/lv_obj_style_gen.h ****     lv_style_value_t v = lv_obj_get_style_prop(obj, part, LV_STYLE_BG_MAIN_STOP);
 178:Drivers/lvgl/lvgl/src/widgets/../core/lv_obj_style_gen.h ****     return (lv_coord_t)v.num;
 179:Drivers/lvgl/lvgl/src/widgets/../core/lv_obj_style_gen.h **** }
 180:Drivers/lvgl/lvgl/src/widgets/../core/lv_obj_style_gen.h **** 
 181:Drivers/lvgl/lvgl/src/widgets/../core/lv_obj_style_gen.h **** static inline lv_coord_t lv_obj_get_style_bg_grad_stop(const struct _lv_obj_t * obj, uint32_t part)
 182:Drivers/lvgl/lvgl/src/widgets/../core/lv_obj_style_gen.h **** {
 183:Drivers/lvgl/lvgl/src/widgets/../core/lv_obj_style_gen.h ****     lv_style_value_t v = lv_obj_get_style_prop(obj, part, LV_STYLE_BG_GRAD_STOP);
 184:Drivers/lvgl/lvgl/src/widgets/../core/lv_obj_style_gen.h ****     return (lv_coord_t)v.num;
 185:Drivers/lvgl/lvgl/src/widgets/../core/lv_obj_style_gen.h **** }
 186:Drivers/lvgl/lvgl/src/widgets/../core/lv_obj_style_gen.h **** 
 187:Drivers/lvgl/lvgl/src/widgets/../core/lv_obj_style_gen.h **** static inline const lv_grad_dsc_t * lv_obj_get_style_bg_grad(const struct _lv_obj_t * obj, uint32_t
 188:Drivers/lvgl/lvgl/src/widgets/../core/lv_obj_style_gen.h **** {
 189:Drivers/lvgl/lvgl/src/widgets/../core/lv_obj_style_gen.h ****     lv_style_value_t v = lv_obj_get_style_prop(obj, part, LV_STYLE_BG_GRAD);
 190:Drivers/lvgl/lvgl/src/widgets/../core/lv_obj_style_gen.h ****     return (const lv_grad_dsc_t *)v.ptr;
 191:Drivers/lvgl/lvgl/src/widgets/../core/lv_obj_style_gen.h **** }
 192:Drivers/lvgl/lvgl/src/widgets/../core/lv_obj_style_gen.h **** 
 193:Drivers/lvgl/lvgl/src/widgets/../core/lv_obj_style_gen.h **** static inline lv_dither_mode_t lv_obj_get_style_bg_dither_mode(const struct _lv_obj_t * obj, uint32
 194:Drivers/lvgl/lvgl/src/widgets/../core/lv_obj_style_gen.h **** {
 195:Drivers/lvgl/lvgl/src/widgets/../core/lv_obj_style_gen.h ****     lv_style_value_t v = lv_obj_get_style_prop(obj, part, LV_STYLE_BG_DITHER_MODE);
 196:Drivers/lvgl/lvgl/src/widgets/../core/lv_obj_style_gen.h ****     return (lv_dither_mode_t)v.num;
 197:Drivers/lvgl/lvgl/src/widgets/../core/lv_obj_style_gen.h **** }
 198:Drivers/lvgl/lvgl/src/widgets/../core/lv_obj_style_gen.h **** 
 199:Drivers/lvgl/lvgl/src/widgets/../core/lv_obj_style_gen.h **** static inline const void * lv_obj_get_style_bg_img_src(const struct _lv_obj_t * obj, uint32_t part)
 200:Drivers/lvgl/lvgl/src/widgets/../core/lv_obj_style_gen.h **** {
 201:Drivers/lvgl/lvgl/src/widgets/../core/lv_obj_style_gen.h ****     lv_style_value_t v = lv_obj_get_style_prop(obj, part, LV_STYLE_BG_IMG_SRC);
 202:Drivers/lvgl/lvgl/src/widgets/../core/lv_obj_style_gen.h ****     return (const void *)v.ptr;
 203:Drivers/lvgl/lvgl/src/widgets/../core/lv_obj_style_gen.h **** }
 204:Drivers/lvgl/lvgl/src/widgets/../core/lv_obj_style_gen.h **** 
 205:Drivers/lvgl/lvgl/src/widgets/../core/lv_obj_style_gen.h **** static inline lv_opa_t lv_obj_get_style_bg_img_opa(const struct _lv_obj_t * obj, uint32_t part)
 206:Drivers/lvgl/lvgl/src/widgets/../core/lv_obj_style_gen.h **** {
 207:Drivers/lvgl/lvgl/src/widgets/../core/lv_obj_style_gen.h ****     lv_style_value_t v = lv_obj_get_style_prop(obj, part, LV_STYLE_BG_IMG_OPA);
 208:Drivers/lvgl/lvgl/src/widgets/../core/lv_obj_style_gen.h ****     return (lv_opa_t)v.num;
 209:Drivers/lvgl/lvgl/src/widgets/../core/lv_obj_style_gen.h **** }
 210:Drivers/lvgl/lvgl/src/widgets/../core/lv_obj_style_gen.h **** 
 211:Drivers/lvgl/lvgl/src/widgets/../core/lv_obj_style_gen.h **** static inline lv_color_t lv_obj_get_style_bg_img_recolor(const struct _lv_obj_t * obj, uint32_t par
 212:Drivers/lvgl/lvgl/src/widgets/../core/lv_obj_style_gen.h **** {
 213:Drivers/lvgl/lvgl/src/widgets/../core/lv_obj_style_gen.h ****     lv_style_value_t v = lv_obj_get_style_prop(obj, part, LV_STYLE_BG_IMG_RECOLOR);
 214:Drivers/lvgl/lvgl/src/widgets/../core/lv_obj_style_gen.h ****     return v.color;
 215:Drivers/lvgl/lvgl/src/widgets/../core/lv_obj_style_gen.h **** }
 216:Drivers/lvgl/lvgl/src/widgets/../core/lv_obj_style_gen.h **** 
 217:Drivers/lvgl/lvgl/src/widgets/../core/lv_obj_style_gen.h **** static inline lv_color_t lv_obj_get_style_bg_img_recolor_filtered(const struct _lv_obj_t * obj, uin
 218:Drivers/lvgl/lvgl/src/widgets/../core/lv_obj_style_gen.h **** {
 219:Drivers/lvgl/lvgl/src/widgets/../core/lv_obj_style_gen.h ****     lv_style_value_t v = _lv_obj_style_apply_color_filter(obj, part, lv_obj_get_style_prop(obj, par
 220:Drivers/lvgl/lvgl/src/widgets/../core/lv_obj_style_gen.h ****     return v.color;
 221:Drivers/lvgl/lvgl/src/widgets/../core/lv_obj_style_gen.h **** }
 222:Drivers/lvgl/lvgl/src/widgets/../core/lv_obj_style_gen.h **** 
 223:Drivers/lvgl/lvgl/src/widgets/../core/lv_obj_style_gen.h **** static inline lv_opa_t lv_obj_get_style_bg_img_recolor_opa(const struct _lv_obj_t * obj, uint32_t p
 224:Drivers/lvgl/lvgl/src/widgets/../core/lv_obj_style_gen.h **** {
 225:Drivers/lvgl/lvgl/src/widgets/../core/lv_obj_style_gen.h ****     lv_style_value_t v = lv_obj_get_style_prop(obj, part, LV_STYLE_BG_IMG_RECOLOR_OPA);
 226:Drivers/lvgl/lvgl/src/widgets/../core/lv_obj_style_gen.h ****     return (lv_opa_t)v.num;
 227:Drivers/lvgl/lvgl/src/widgets/../core/lv_obj_style_gen.h **** }
 228:Drivers/lvgl/lvgl/src/widgets/../core/lv_obj_style_gen.h **** 
 229:Drivers/lvgl/lvgl/src/widgets/../core/lv_obj_style_gen.h **** static inline bool lv_obj_get_style_bg_img_tiled(const struct _lv_obj_t * obj, uint32_t part)
ARM GAS  /tmp/ccNaDK0X.s 			page 23


 230:Drivers/lvgl/lvgl/src/widgets/../core/lv_obj_style_gen.h **** {
 231:Drivers/lvgl/lvgl/src/widgets/../core/lv_obj_style_gen.h ****     lv_style_value_t v = lv_obj_get_style_prop(obj, part, LV_STYLE_BG_IMG_TILED);
 232:Drivers/lvgl/lvgl/src/widgets/../core/lv_obj_style_gen.h ****     return (bool)v.num;
 233:Drivers/lvgl/lvgl/src/widgets/../core/lv_obj_style_gen.h **** }
 234:Drivers/lvgl/lvgl/src/widgets/../core/lv_obj_style_gen.h **** 
 235:Drivers/lvgl/lvgl/src/widgets/../core/lv_obj_style_gen.h **** static inline lv_color_t lv_obj_get_style_border_color(const struct _lv_obj_t * obj, uint32_t part)
 236:Drivers/lvgl/lvgl/src/widgets/../core/lv_obj_style_gen.h **** {
 237:Drivers/lvgl/lvgl/src/widgets/../core/lv_obj_style_gen.h ****     lv_style_value_t v = lv_obj_get_style_prop(obj, part, LV_STYLE_BORDER_COLOR);
 238:Drivers/lvgl/lvgl/src/widgets/../core/lv_obj_style_gen.h ****     return v.color;
 239:Drivers/lvgl/lvgl/src/widgets/../core/lv_obj_style_gen.h **** }
 240:Drivers/lvgl/lvgl/src/widgets/../core/lv_obj_style_gen.h **** 
 241:Drivers/lvgl/lvgl/src/widgets/../core/lv_obj_style_gen.h **** static inline lv_color_t lv_obj_get_style_border_color_filtered(const struct _lv_obj_t * obj, uint3
 242:Drivers/lvgl/lvgl/src/widgets/../core/lv_obj_style_gen.h **** {
 243:Drivers/lvgl/lvgl/src/widgets/../core/lv_obj_style_gen.h ****     lv_style_value_t v = _lv_obj_style_apply_color_filter(obj, part, lv_obj_get_style_prop(obj, par
 244:Drivers/lvgl/lvgl/src/widgets/../core/lv_obj_style_gen.h ****     return v.color;
 245:Drivers/lvgl/lvgl/src/widgets/../core/lv_obj_style_gen.h **** }
 246:Drivers/lvgl/lvgl/src/widgets/../core/lv_obj_style_gen.h **** 
 247:Drivers/lvgl/lvgl/src/widgets/../core/lv_obj_style_gen.h **** static inline lv_opa_t lv_obj_get_style_border_opa(const struct _lv_obj_t * obj, uint32_t part)
 248:Drivers/lvgl/lvgl/src/widgets/../core/lv_obj_style_gen.h **** {
 249:Drivers/lvgl/lvgl/src/widgets/../core/lv_obj_style_gen.h ****     lv_style_value_t v = lv_obj_get_style_prop(obj, part, LV_STYLE_BORDER_OPA);
 250:Drivers/lvgl/lvgl/src/widgets/../core/lv_obj_style_gen.h ****     return (lv_opa_t)v.num;
 251:Drivers/lvgl/lvgl/src/widgets/../core/lv_obj_style_gen.h **** }
 252:Drivers/lvgl/lvgl/src/widgets/../core/lv_obj_style_gen.h **** 
 253:Drivers/lvgl/lvgl/src/widgets/../core/lv_obj_style_gen.h **** static inline lv_coord_t lv_obj_get_style_border_width(const struct _lv_obj_t * obj, uint32_t part)
 254:Drivers/lvgl/lvgl/src/widgets/../core/lv_obj_style_gen.h **** {
 255:Drivers/lvgl/lvgl/src/widgets/../core/lv_obj_style_gen.h ****     lv_style_value_t v = lv_obj_get_style_prop(obj, part, LV_STYLE_BORDER_WIDTH);
 256:Drivers/lvgl/lvgl/src/widgets/../core/lv_obj_style_gen.h ****     return (lv_coord_t)v.num;
 257:Drivers/lvgl/lvgl/src/widgets/../core/lv_obj_style_gen.h **** }
 258:Drivers/lvgl/lvgl/src/widgets/../core/lv_obj_style_gen.h **** 
 259:Drivers/lvgl/lvgl/src/widgets/../core/lv_obj_style_gen.h **** static inline lv_border_side_t lv_obj_get_style_border_side(const struct _lv_obj_t * obj, uint32_t 
 260:Drivers/lvgl/lvgl/src/widgets/../core/lv_obj_style_gen.h **** {
 261:Drivers/lvgl/lvgl/src/widgets/../core/lv_obj_style_gen.h ****     lv_style_value_t v = lv_obj_get_style_prop(obj, part, LV_STYLE_BORDER_SIDE);
 262:Drivers/lvgl/lvgl/src/widgets/../core/lv_obj_style_gen.h ****     return (lv_border_side_t)v.num;
 263:Drivers/lvgl/lvgl/src/widgets/../core/lv_obj_style_gen.h **** }
 264:Drivers/lvgl/lvgl/src/widgets/../core/lv_obj_style_gen.h **** 
 265:Drivers/lvgl/lvgl/src/widgets/../core/lv_obj_style_gen.h **** static inline bool lv_obj_get_style_border_post(const struct _lv_obj_t * obj, uint32_t part)
 266:Drivers/lvgl/lvgl/src/widgets/../core/lv_obj_style_gen.h **** {
 267:Drivers/lvgl/lvgl/src/widgets/../core/lv_obj_style_gen.h ****     lv_style_value_t v = lv_obj_get_style_prop(obj, part, LV_STYLE_BORDER_POST);
 268:Drivers/lvgl/lvgl/src/widgets/../core/lv_obj_style_gen.h ****     return (bool)v.num;
 269:Drivers/lvgl/lvgl/src/widgets/../core/lv_obj_style_gen.h **** }
 270:Drivers/lvgl/lvgl/src/widgets/../core/lv_obj_style_gen.h **** 
 271:Drivers/lvgl/lvgl/src/widgets/../core/lv_obj_style_gen.h **** static inline lv_coord_t lv_obj_get_style_outline_width(const struct _lv_obj_t * obj, uint32_t part
 272:Drivers/lvgl/lvgl/src/widgets/../core/lv_obj_style_gen.h **** {
 273:Drivers/lvgl/lvgl/src/widgets/../core/lv_obj_style_gen.h ****     lv_style_value_t v = lv_obj_get_style_prop(obj, part, LV_STYLE_OUTLINE_WIDTH);
 274:Drivers/lvgl/lvgl/src/widgets/../core/lv_obj_style_gen.h ****     return (lv_coord_t)v.num;
 275:Drivers/lvgl/lvgl/src/widgets/../core/lv_obj_style_gen.h **** }
 276:Drivers/lvgl/lvgl/src/widgets/../core/lv_obj_style_gen.h **** 
 277:Drivers/lvgl/lvgl/src/widgets/../core/lv_obj_style_gen.h **** static inline lv_color_t lv_obj_get_style_outline_color(const struct _lv_obj_t * obj, uint32_t part
 278:Drivers/lvgl/lvgl/src/widgets/../core/lv_obj_style_gen.h **** {
 279:Drivers/lvgl/lvgl/src/widgets/../core/lv_obj_style_gen.h ****     lv_style_value_t v = lv_obj_get_style_prop(obj, part, LV_STYLE_OUTLINE_COLOR);
 280:Drivers/lvgl/lvgl/src/widgets/../core/lv_obj_style_gen.h ****     return v.color;
 281:Drivers/lvgl/lvgl/src/widgets/../core/lv_obj_style_gen.h **** }
 282:Drivers/lvgl/lvgl/src/widgets/../core/lv_obj_style_gen.h **** 
 283:Drivers/lvgl/lvgl/src/widgets/../core/lv_obj_style_gen.h **** static inline lv_color_t lv_obj_get_style_outline_color_filtered(const struct _lv_obj_t * obj, uint
 284:Drivers/lvgl/lvgl/src/widgets/../core/lv_obj_style_gen.h **** {
 285:Drivers/lvgl/lvgl/src/widgets/../core/lv_obj_style_gen.h ****     lv_style_value_t v = _lv_obj_style_apply_color_filter(obj, part, lv_obj_get_style_prop(obj, par
 286:Drivers/lvgl/lvgl/src/widgets/../core/lv_obj_style_gen.h ****     return v.color;
ARM GAS  /tmp/ccNaDK0X.s 			page 24


 287:Drivers/lvgl/lvgl/src/widgets/../core/lv_obj_style_gen.h **** }
 288:Drivers/lvgl/lvgl/src/widgets/../core/lv_obj_style_gen.h **** 
 289:Drivers/lvgl/lvgl/src/widgets/../core/lv_obj_style_gen.h **** static inline lv_opa_t lv_obj_get_style_outline_opa(const struct _lv_obj_t * obj, uint32_t part)
 290:Drivers/lvgl/lvgl/src/widgets/../core/lv_obj_style_gen.h **** {
 291:Drivers/lvgl/lvgl/src/widgets/../core/lv_obj_style_gen.h ****     lv_style_value_t v = lv_obj_get_style_prop(obj, part, LV_STYLE_OUTLINE_OPA);
 292:Drivers/lvgl/lvgl/src/widgets/../core/lv_obj_style_gen.h ****     return (lv_opa_t)v.num;
 293:Drivers/lvgl/lvgl/src/widgets/../core/lv_obj_style_gen.h **** }
 294:Drivers/lvgl/lvgl/src/widgets/../core/lv_obj_style_gen.h **** 
 295:Drivers/lvgl/lvgl/src/widgets/../core/lv_obj_style_gen.h **** static inline lv_coord_t lv_obj_get_style_outline_pad(const struct _lv_obj_t * obj, uint32_t part)
 296:Drivers/lvgl/lvgl/src/widgets/../core/lv_obj_style_gen.h **** {
 297:Drivers/lvgl/lvgl/src/widgets/../core/lv_obj_style_gen.h ****     lv_style_value_t v = lv_obj_get_style_prop(obj, part, LV_STYLE_OUTLINE_PAD);
 298:Drivers/lvgl/lvgl/src/widgets/../core/lv_obj_style_gen.h ****     return (lv_coord_t)v.num;
 299:Drivers/lvgl/lvgl/src/widgets/../core/lv_obj_style_gen.h **** }
 300:Drivers/lvgl/lvgl/src/widgets/../core/lv_obj_style_gen.h **** 
 301:Drivers/lvgl/lvgl/src/widgets/../core/lv_obj_style_gen.h **** static inline lv_coord_t lv_obj_get_style_shadow_width(const struct _lv_obj_t * obj, uint32_t part)
 302:Drivers/lvgl/lvgl/src/widgets/../core/lv_obj_style_gen.h **** {
 303:Drivers/lvgl/lvgl/src/widgets/../core/lv_obj_style_gen.h ****     lv_style_value_t v = lv_obj_get_style_prop(obj, part, LV_STYLE_SHADOW_WIDTH);
 304:Drivers/lvgl/lvgl/src/widgets/../core/lv_obj_style_gen.h ****     return (lv_coord_t)v.num;
 305:Drivers/lvgl/lvgl/src/widgets/../core/lv_obj_style_gen.h **** }
 306:Drivers/lvgl/lvgl/src/widgets/../core/lv_obj_style_gen.h **** 
 307:Drivers/lvgl/lvgl/src/widgets/../core/lv_obj_style_gen.h **** static inline lv_coord_t lv_obj_get_style_shadow_ofs_x(const struct _lv_obj_t * obj, uint32_t part)
 308:Drivers/lvgl/lvgl/src/widgets/../core/lv_obj_style_gen.h **** {
 309:Drivers/lvgl/lvgl/src/widgets/../core/lv_obj_style_gen.h ****     lv_style_value_t v = lv_obj_get_style_prop(obj, part, LV_STYLE_SHADOW_OFS_X);
 310:Drivers/lvgl/lvgl/src/widgets/../core/lv_obj_style_gen.h ****     return (lv_coord_t)v.num;
 311:Drivers/lvgl/lvgl/src/widgets/../core/lv_obj_style_gen.h **** }
 312:Drivers/lvgl/lvgl/src/widgets/../core/lv_obj_style_gen.h **** 
 313:Drivers/lvgl/lvgl/src/widgets/../core/lv_obj_style_gen.h **** static inline lv_coord_t lv_obj_get_style_shadow_ofs_y(const struct _lv_obj_t * obj, uint32_t part)
 314:Drivers/lvgl/lvgl/src/widgets/../core/lv_obj_style_gen.h **** {
 315:Drivers/lvgl/lvgl/src/widgets/../core/lv_obj_style_gen.h ****     lv_style_value_t v = lv_obj_get_style_prop(obj, part, LV_STYLE_SHADOW_OFS_Y);
 316:Drivers/lvgl/lvgl/src/widgets/../core/lv_obj_style_gen.h ****     return (lv_coord_t)v.num;
 317:Drivers/lvgl/lvgl/src/widgets/../core/lv_obj_style_gen.h **** }
 318:Drivers/lvgl/lvgl/src/widgets/../core/lv_obj_style_gen.h **** 
 319:Drivers/lvgl/lvgl/src/widgets/../core/lv_obj_style_gen.h **** static inline lv_coord_t lv_obj_get_style_shadow_spread(const struct _lv_obj_t * obj, uint32_t part
 320:Drivers/lvgl/lvgl/src/widgets/../core/lv_obj_style_gen.h **** {
 321:Drivers/lvgl/lvgl/src/widgets/../core/lv_obj_style_gen.h ****     lv_style_value_t v = lv_obj_get_style_prop(obj, part, LV_STYLE_SHADOW_SPREAD);
 322:Drivers/lvgl/lvgl/src/widgets/../core/lv_obj_style_gen.h ****     return (lv_coord_t)v.num;
 323:Drivers/lvgl/lvgl/src/widgets/../core/lv_obj_style_gen.h **** }
 324:Drivers/lvgl/lvgl/src/widgets/../core/lv_obj_style_gen.h **** 
 325:Drivers/lvgl/lvgl/src/widgets/../core/lv_obj_style_gen.h **** static inline lv_color_t lv_obj_get_style_shadow_color(const struct _lv_obj_t * obj, uint32_t part)
 326:Drivers/lvgl/lvgl/src/widgets/../core/lv_obj_style_gen.h **** {
 327:Drivers/lvgl/lvgl/src/widgets/../core/lv_obj_style_gen.h ****     lv_style_value_t v = lv_obj_get_style_prop(obj, part, LV_STYLE_SHADOW_COLOR);
 328:Drivers/lvgl/lvgl/src/widgets/../core/lv_obj_style_gen.h ****     return v.color;
 329:Drivers/lvgl/lvgl/src/widgets/../core/lv_obj_style_gen.h **** }
 330:Drivers/lvgl/lvgl/src/widgets/../core/lv_obj_style_gen.h **** 
 331:Drivers/lvgl/lvgl/src/widgets/../core/lv_obj_style_gen.h **** static inline lv_color_t lv_obj_get_style_shadow_color_filtered(const struct _lv_obj_t * obj, uint3
 332:Drivers/lvgl/lvgl/src/widgets/../core/lv_obj_style_gen.h **** {
 333:Drivers/lvgl/lvgl/src/widgets/../core/lv_obj_style_gen.h ****     lv_style_value_t v = _lv_obj_style_apply_color_filter(obj, part, lv_obj_get_style_prop(obj, par
 334:Drivers/lvgl/lvgl/src/widgets/../core/lv_obj_style_gen.h ****     return v.color;
 335:Drivers/lvgl/lvgl/src/widgets/../core/lv_obj_style_gen.h **** }
 336:Drivers/lvgl/lvgl/src/widgets/../core/lv_obj_style_gen.h **** 
 337:Drivers/lvgl/lvgl/src/widgets/../core/lv_obj_style_gen.h **** static inline lv_opa_t lv_obj_get_style_shadow_opa(const struct _lv_obj_t * obj, uint32_t part)
 338:Drivers/lvgl/lvgl/src/widgets/../core/lv_obj_style_gen.h **** {
 339:Drivers/lvgl/lvgl/src/widgets/../core/lv_obj_style_gen.h ****     lv_style_value_t v = lv_obj_get_style_prop(obj, part, LV_STYLE_SHADOW_OPA);
 340:Drivers/lvgl/lvgl/src/widgets/../core/lv_obj_style_gen.h ****     return (lv_opa_t)v.num;
 341:Drivers/lvgl/lvgl/src/widgets/../core/lv_obj_style_gen.h **** }
 342:Drivers/lvgl/lvgl/src/widgets/../core/lv_obj_style_gen.h **** 
 343:Drivers/lvgl/lvgl/src/widgets/../core/lv_obj_style_gen.h **** static inline lv_opa_t lv_obj_get_style_img_opa(const struct _lv_obj_t * obj, uint32_t part)
ARM GAS  /tmp/ccNaDK0X.s 			page 25


 344:Drivers/lvgl/lvgl/src/widgets/../core/lv_obj_style_gen.h **** {
 345:Drivers/lvgl/lvgl/src/widgets/../core/lv_obj_style_gen.h ****     lv_style_value_t v = lv_obj_get_style_prop(obj, part, LV_STYLE_IMG_OPA);
 195              		.loc 3 345 0
 196 0060 4622     		movs	r2, #70
 197 0062 0021     		movs	r1, #0
 198 0064 2046     		mov	r0, r4
 199              	.LVL17:
 200 0066 FFF7FEFF 		bl	lv_obj_get_style_prop
 201              	.LVL18:
 346:Drivers/lvgl/lvgl/src/widgets/../core/lv_obj_style_gen.h ****     return (lv_opa_t)v.num;
 202              		.loc 3 346 0
 203 006a C0B2     		uxtb	r0, r0
 204              	.LVL19:
 205              	.LBE50:
 206              	.LBE49:
 539:Drivers/lvgl/lvgl/src/widgets/lv_img.c ****             info->res = LV_COVER_RES_NOT_COVER;
 207              		.loc 1 539 0
 208 006c FF28     		cmp	r0, #255
 209 006e 02D0     		beq	.L8
 540:Drivers/lvgl/lvgl/src/widgets/lv_img.c ****             return;
 210              		.loc 1 540 0
 211 0070 0123     		movs	r3, #1
 212 0072 2B70     		strb	r3, [r5]
 541:Drivers/lvgl/lvgl/src/widgets/lv_img.c ****         }
 213              		.loc 1 541 0
 214 0074 D6E7     		b	.L3
 215              	.L8:
 544:Drivers/lvgl/lvgl/src/widgets/lv_img.c ****             info->res = LV_COVER_RES_NOT_COVER;
 216              		.loc 1 544 0
 217 0076 238E     		ldrh	r3, [r4, #48]
 218 0078 13B1     		cbz	r3, .L9
 545:Drivers/lvgl/lvgl/src/widgets/lv_img.c ****             return;
 219              		.loc 1 545 0
 220 007a 0123     		movs	r3, #1
 221 007c 2B70     		strb	r3, [r5]
 546:Drivers/lvgl/lvgl/src/widgets/lv_img.c ****         }
 222              		.loc 1 546 0
 223 007e D1E7     		b	.L3
 224              	.L9:
 549:Drivers/lvgl/lvgl/src/widgets/lv_img.c ****         if(img->zoom == LV_IMG_ZOOM_NONE) {
 225              		.loc 1 549 0
 226 0080 0398     		ldr	r0, [sp, #12]
 227 0082 FFF7FEFF 		bl	lv_event_get_param
 228              	.LVL20:
 229 0086 0646     		mov	r6, r0
 230              	.LVL21:
 550:Drivers/lvgl/lvgl/src/widgets/lv_img.c ****             if(_lv_area_is_in(clip_area, &obj->coords, 0) == false) {
 231              		.loc 1 550 0
 232 0088 E38E     		ldrh	r3, [r4, #54]
 233 008a B3F5807F 		cmp	r3, #256
 234 008e 31D0     		beq	.L35
 235              	.LBB51:
 558:Drivers/lvgl/lvgl/src/widgets/lv_img.c ****             a.x1 += obj->coords.x1;
 236              		.loc 1 558 0
 237 0090 2046     		mov	r0, r4
 238              	.LVL22:
 239 0092 FFF7FEFF 		bl	lv_obj_get_width
ARM GAS  /tmp/ccNaDK0X.s 			page 26


 240              	.LVL23:
 241 0096 0746     		mov	r7, r0
 242 0098 2046     		mov	r0, r4
 243 009a FFF7FEFF 		bl	lv_obj_get_height
 244              	.LVL24:
 245 009e 04F13203 		add	r3, r4, #50
 246 00a2 0193     		str	r3, [sp, #4]
 247 00a4 E38E     		ldrh	r3, [r4, #54]
 248 00a6 0093     		str	r3, [sp]
 249 00a8 0023     		movs	r3, #0
 250 00aa 0246     		mov	r2, r0
 251 00ac 3946     		mov	r1, r7
 252 00ae 12A8     		add	r0, sp, #72
 253 00b0 FFF7FEFF 		bl	_lv_img_buf_get_transformed_area
 254              	.LVL25:
 559:Drivers/lvgl/lvgl/src/widgets/lv_img.c ****             a.y1 += obj->coords.y1;
 255              		.loc 1 559 0
 256 00b4 A28A     		ldrh	r2, [r4, #20]
 257 00b6 BDF84830 		ldrh	r3, [sp, #72]
 258 00ba 1344     		add	r3, r3, r2
 259 00bc ADF84830 		strh	r3, [sp, #72]	@ movhi
 560:Drivers/lvgl/lvgl/src/widgets/lv_img.c ****             a.x2 += obj->coords.x1;
 260              		.loc 1 560 0
 261 00c0 E38A     		ldrh	r3, [r4, #22]
 262 00c2 BDF84A10 		ldrh	r1, [sp, #74]
 263 00c6 1944     		add	r1, r1, r3
 264 00c8 ADF84A10 		strh	r1, [sp, #74]	@ movhi
 561:Drivers/lvgl/lvgl/src/widgets/lv_img.c ****             a.y2 += obj->coords.y1;
 265              		.loc 1 561 0
 266 00cc BDF84C10 		ldrh	r1, [sp, #76]
 267 00d0 0A44     		add	r2, r2, r1
 268 00d2 ADF84C20 		strh	r2, [sp, #76]	@ movhi
 562:Drivers/lvgl/lvgl/src/widgets/lv_img.c **** 
 269              		.loc 1 562 0
 270 00d6 BDF84E20 		ldrh	r2, [sp, #78]
 271 00da 1344     		add	r3, r3, r2
 272 00dc ADF84E30 		strh	r3, [sp, #78]	@ movhi
 564:Drivers/lvgl/lvgl/src/widgets/lv_img.c ****                 info->res = LV_COVER_RES_NOT_COVER;
 273              		.loc 1 564 0
 274 00e0 0022     		movs	r2, #0
 275 00e2 12A9     		add	r1, sp, #72
 276 00e4 3046     		mov	r0, r6
 277 00e6 FFF7FEFF 		bl	_lv_area_is_in
 278              	.LVL26:
 279 00ea 0028     		cmp	r0, #0
 280 00ec 9AD1     		bne	.L3
 565:Drivers/lvgl/lvgl/src/widgets/lv_img.c ****                 return;
 281              		.loc 1 565 0
 282 00ee 0123     		movs	r3, #1
 283 00f0 2B70     		strb	r3, [r5]
 284 00f2 97E7     		b	.L3
 285              	.LVL27:
 286              	.L35:
 287              	.LBE51:
 551:Drivers/lvgl/lvgl/src/widgets/lv_img.c ****                 info->res = LV_COVER_RES_NOT_COVER;
 288              		.loc 1 551 0
 289 00f4 0022     		movs	r2, #0
ARM GAS  /tmp/ccNaDK0X.s 			page 27


 290 00f6 04F11401 		add	r1, r4, #20
 291 00fa FFF7FEFF 		bl	_lv_area_is_in
 292              	.LVL28:
 293 00fe 0028     		cmp	r0, #0
 294 0100 90D1     		bne	.L3
 552:Drivers/lvgl/lvgl/src/widgets/lv_img.c ****                 return;
 295              		.loc 1 552 0
 296 0102 0123     		movs	r3, #1
 297 0104 2B70     		strb	r3, [r5]
 553:Drivers/lvgl/lvgl/src/widgets/lv_img.c ****             }
 298              		.loc 1 553 0
 299 0106 8DE7     		b	.L3
 300              	.LVL29:
 301              	.L33:
 302              	.LBE48:
 303              	.LBB52:
 572:Drivers/lvgl/lvgl/src/widgets/lv_img.c ****         lv_coord_t obj_h = lv_obj_get_height(obj);
 304              		.loc 1 572 0
 305 0108 FFF7FEFF 		bl	lv_obj_get_width
 306              	.LVL30:
 307 010c 8146     		mov	r9, r0
 308              	.LVL31:
 573:Drivers/lvgl/lvgl/src/widgets/lv_img.c **** 
 309              		.loc 1 573 0
 310 010e 2046     		mov	r0, r4
 311 0110 FFF7FEFF 		bl	lv_obj_get_height
 312              	.LVL32:
 313 0114 8246     		mov	r10, r0
 314              	.LVL33:
 315              	.LBB53:
 316              	.LBB54:
 255:Drivers/lvgl/lvgl/src/widgets/../core/lv_obj_style_gen.h ****     return (lv_coord_t)v.num;
 317              		.loc 3 255 0
 318 0116 3222     		movs	r2, #50
 319 0118 0021     		movs	r1, #0
 320 011a 2046     		mov	r0, r4
 321 011c FFF7FEFF 		bl	lv_obj_get_style_prop
 322              	.LVL34:
 323 0120 8046     		mov	r8, r0
 324              	.LVL35:
 325              	.LBE54:
 326              	.LBE53:
 327              	.LBB55:
 328              	.LBB56:
 117:Drivers/lvgl/lvgl/src/widgets/../core/lv_obj_style_gen.h ****     return (lv_coord_t)v.num;
 329              		.loc 3 117 0
 330 0122 1222     		movs	r2, #18
 331 0124 0021     		movs	r1, #0
 332 0126 2046     		mov	r0, r4
 333 0128 FFF7FEFF 		bl	lv_obj_get_style_prop
 334              	.LVL36:
 335              	.LBE56:
 336              	.LBE55:
 576:Drivers/lvgl/lvgl/src/widgets/lv_img.c ****         lv_coord_t pright = lv_obj_get_style_pad_right(obj, LV_PART_MAIN) + border_width;
 337              		.loc 1 576 0
 338 012c 1FFA88F8 		uxth	r8, r8
 339 0130 18FA80F0 		uxtah	r0, r8, r0
ARM GAS  /tmp/ccNaDK0X.s 			page 28


 340 0134 87B2     		uxth	r7, r0
 341              	.LVL37:
 342              	.LBB57:
 343              	.LBB58:
 123:Drivers/lvgl/lvgl/src/widgets/../core/lv_obj_style_gen.h ****     return (lv_coord_t)v.num;
 344              		.loc 3 123 0
 345 0136 1322     		movs	r2, #19
 346 0138 0021     		movs	r1, #0
 347 013a 2046     		mov	r0, r4
 348 013c FFF7FEFF 		bl	lv_obj_get_style_prop
 349              	.LVL38:
 350              	.LBE58:
 351              	.LBE57:
 577:Drivers/lvgl/lvgl/src/widgets/lv_img.c ****         lv_coord_t ptop = lv_obj_get_style_pad_top(obj, LV_PART_MAIN) + border_width;
 352              		.loc 1 577 0
 353 0140 18FA80F0 		uxtah	r0, r8, r0
 354 0144 83B2     		uxth	r3, r0
 355 0146 0493     		str	r3, [sp, #16]
 356              	.LVL39:
 357              	.LBB59:
 358              	.LBB60:
 105:Drivers/lvgl/lvgl/src/widgets/../core/lv_obj_style_gen.h ****     return (lv_coord_t)v.num;
 359              		.loc 3 105 0
 360 0148 1022     		movs	r2, #16
 361 014a 0021     		movs	r1, #0
 362 014c 2046     		mov	r0, r4
 363 014e FFF7FEFF 		bl	lv_obj_get_style_prop
 364              	.LVL40:
 365              	.LBE60:
 366              	.LBE59:
 578:Drivers/lvgl/lvgl/src/widgets/lv_img.c ****         lv_coord_t pbottom = lv_obj_get_style_pad_bottom(obj, LV_PART_MAIN) + border_width;
 367              		.loc 1 578 0
 368 0152 18FA80F0 		uxtah	r0, r8, r0
 369 0156 86B2     		uxth	r6, r0
 370              	.LVL41:
 371              	.LBB61:
 372              	.LBB62:
 111:Drivers/lvgl/lvgl/src/widgets/../core/lv_obj_style_gen.h ****     return (lv_coord_t)v.num;
 373              		.loc 3 111 0
 374 0158 1122     		movs	r2, #17
 375 015a 0021     		movs	r1, #0
 376 015c 2046     		mov	r0, r4
 377 015e FFF7FEFF 		bl	lv_obj_get_style_prop
 378              	.LVL42:
 379              	.LBE62:
 380              	.LBE61:
 579:Drivers/lvgl/lvgl/src/widgets/lv_img.c **** 
 381              		.loc 1 579 0
 382 0162 18FA80F0 		uxtah	r0, r8, r0
 383 0166 83B2     		uxth	r3, r0
 384 0168 0593     		str	r3, [sp, #20]
 385              	.LVL43:
 582:Drivers/lvgl/lvgl/src/widgets/lv_img.c ****         bg_pivot.y = img->pivot.y + ptop;
 386              		.loc 1 582 0
 387 016a 638E     		ldrh	r3, [r4, #50]
 388 016c 3B44     		add	r3, r3, r7
 389 016e ADF82030 		strh	r3, [sp, #32]	@ movhi
ARM GAS  /tmp/ccNaDK0X.s 			page 29


 583:Drivers/lvgl/lvgl/src/widgets/lv_img.c ****         lv_area_t bg_coords;
 390              		.loc 1 583 0
 391 0172 A38E     		ldrh	r3, [r4, #52]
 392 0174 3344     		add	r3, r3, r6
 393 0176 ADF82230 		strh	r3, [sp, #34]	@ movhi
 586:Drivers/lvgl/lvgl/src/widgets/lv_img.c ****             /*Object size equals to transformed image size*/
 394              		.loc 1 586 0
 395 017a 94F83930 		ldrb	r3, [r4, #57]	@ zero_extendqisi2
 396 017e 03F00303 		and	r3, r3, #3
 397 0182 012B     		cmp	r3, #1
 398 0184 00F0B980 		beq	.L36
 591:Drivers/lvgl/lvgl/src/widgets/lv_img.c ****                                              img->angle, img->zoom, &bg_pivot);
 399              		.loc 1 591 0
 400 0188 B4F93030 		ldrsh	r3, [r4, #48]
 401 018c 08AA     		add	r2, sp, #32
 402 018e 0192     		str	r2, [sp, #4]
 403 0190 E28E     		ldrh	r2, [r4, #54]
 404 0192 0092     		str	r2, [sp]
 405 0194 5246     		mov	r2, r10
 406 0196 4946     		mov	r1, r9
 407 0198 0AA8     		add	r0, sp, #40
 408 019a FFF7FEFF 		bl	_lv_img_buf_get_transformed_area
 409              	.LVL44:
 595:Drivers/lvgl/lvgl/src/widgets/lv_img.c ****             bg_coords.y1 += obj->coords.y1;
 410              		.loc 1 595 0
 411 019e A28A     		ldrh	r2, [r4, #20]
 412 01a0 BDF82830 		ldrh	r3, [sp, #40]
 413 01a4 1344     		add	r3, r3, r2
 414 01a6 ADF82830 		strh	r3, [sp, #40]	@ movhi
 596:Drivers/lvgl/lvgl/src/widgets/lv_img.c ****             bg_coords.x2 += obj->coords.x1;
 415              		.loc 1 596 0
 416 01aa E38A     		ldrh	r3, [r4, #22]
 417 01ac BDF82A10 		ldrh	r1, [sp, #42]
 418 01b0 1944     		add	r1, r1, r3
 419 01b2 ADF82A10 		strh	r1, [sp, #42]	@ movhi
 597:Drivers/lvgl/lvgl/src/widgets/lv_img.c ****             bg_coords.y2 += obj->coords.y1;
 420              		.loc 1 597 0
 421 01b6 BDF82C10 		ldrh	r1, [sp, #44]
 422 01ba 0A44     		add	r2, r2, r1
 423 01bc ADF82C20 		strh	r2, [sp, #44]	@ movhi
 598:Drivers/lvgl/lvgl/src/widgets/lv_img.c ****         }
 424              		.loc 1 598 0
 425 01c0 BDF82E20 		ldrh	r2, [sp, #46]
 426 01c4 1344     		add	r3, r3, r2
 427 01c6 ADF82E30 		strh	r3, [sp, #46]	@ movhi
 428              	.L13:
 429              	.LVL45:
 430              	.LBB63:
 431              	.LBB64:
 112:Drivers/lvgl/lvgl/src/widgets/../core/../misc/../font/../misc/lv_area.h ****     dest->y1 = src->y1;
 432              		.loc 2 112 0
 433 01ca B4F914B0 		ldrsh	fp, [r4, #20]
 113:Drivers/lvgl/lvgl/src/widgets/../core/../misc/../font/../misc/lv_area.h ****     dest->x2 = src->x2;
 434              		.loc 2 113 0
 435 01ce B4F916A0 		ldrsh	r10, [r4, #22]
 436              	.LVL46:
 114:Drivers/lvgl/lvgl/src/widgets/../core/../misc/../font/../misc/lv_area.h ****     dest->y2 = src->y2;
ARM GAS  /tmp/ccNaDK0X.s 			page 30


 437              		.loc 2 114 0
 438 01d2 B4F91890 		ldrsh	r9, [r4, #24]
 439              	.LVL47:
 115:Drivers/lvgl/lvgl/src/widgets/../core/../misc/../font/../misc/lv_area.h **** }
 440              		.loc 2 115 0
 441 01d6 B4F91A80 		ldrsh	r8, [r4, #26]
 442              	.LVL48:
 443              	.LBE64:
 444              	.LBE63:
 603:Drivers/lvgl/lvgl/src/widgets/lv_img.c **** 
 445              		.loc 1 603 0
 446 01da 04F11403 		add	r3, r4, #20
 447 01de 0693     		str	r3, [sp, #24]
 448              	.LVL49:
 449              	.LBB65:
 450              	.LBB66:
 112:Drivers/lvgl/lvgl/src/widgets/../core/../misc/../font/../misc/lv_area.h ****     dest->y1 = src->y1;
 451              		.loc 2 112 0
 452 01e0 BDF92830 		ldrsh	r3, [sp, #40]
 453              	.LVL50:
 454 01e4 A382     		strh	r3, [r4, #20]	@ movhi
 113:Drivers/lvgl/lvgl/src/widgets/../core/../misc/../font/../misc/lv_area.h ****     dest->x2 = src->x2;
 455              		.loc 2 113 0
 456 01e6 BDF92A30 		ldrsh	r3, [sp, #42]
 457 01ea E382     		strh	r3, [r4, #22]	@ movhi
 114:Drivers/lvgl/lvgl/src/widgets/../core/../misc/../font/../misc/lv_area.h ****     dest->y2 = src->y2;
 458              		.loc 2 114 0
 459 01ec BDF92C30 		ldrsh	r3, [sp, #44]
 460 01f0 2383     		strh	r3, [r4, #24]	@ movhi
 115:Drivers/lvgl/lvgl/src/widgets/../core/../misc/../font/../misc/lv_area.h **** }
 461              		.loc 2 115 0
 462 01f2 BDF92E30 		ldrsh	r3, [sp, #46]
 463 01f6 6383     		strh	r3, [r4, #26]	@ movhi
 464              	.LVL51:
 465              	.LBE66:
 466              	.LBE65:
 605:Drivers/lvgl/lvgl/src/widgets/lv_img.c ****         if(res != LV_RES_OK) return;
 467              		.loc 1 605 0
 468 01f8 0399     		ldr	r1, [sp, #12]
 469 01fa B148     		ldr	r0, .L43
 470 01fc FFF7FEFF 		bl	lv_obj_event_base
 471              	.LVL52:
 606:Drivers/lvgl/lvgl/src/widgets/lv_img.c **** 
 472              		.loc 1 606 0
 473 0200 0128     		cmp	r0, #1
 474 0202 7FF40FAF 		bne	.L3
 475              	.LVL53:
 476              	.LBB67:
 477              	.LBB68:
 112:Drivers/lvgl/lvgl/src/widgets/../core/../misc/../font/../misc/lv_area.h ****     dest->y1 = src->y1;
 478              		.loc 2 112 0
 479 0206 A4F814B0 		strh	fp, [r4, #20]	@ movhi
 113:Drivers/lvgl/lvgl/src/widgets/../core/../misc/../font/../misc/lv_area.h ****     dest->x2 = src->x2;
 480              		.loc 2 113 0
 481 020a A4F816A0 		strh	r10, [r4, #22]	@ movhi
 114:Drivers/lvgl/lvgl/src/widgets/../core/../misc/../font/../misc/lv_area.h ****     dest->y2 = src->y2;
 482              		.loc 2 114 0
ARM GAS  /tmp/ccNaDK0X.s 			page 31


 483 020e A4F81890 		strh	r9, [r4, #24]	@ movhi
 115:Drivers/lvgl/lvgl/src/widgets/../core/../misc/../font/../misc/lv_area.h **** }
 484              		.loc 2 115 0
 485 0212 A4F81A80 		strh	r8, [r4, #26]	@ movhi
 486              	.LVL54:
 487              	.LBE68:
 488              	.LBE67:
 610:Drivers/lvgl/lvgl/src/widgets/lv_img.c ****             if(img->h == 0 || img->w == 0) return;
 489              		.loc 1 610 0
 490 0216 152D     		cmp	r5, #21
 491 0218 7FF404AF 		bne	.L3
 492              	.LBB69:
 611:Drivers/lvgl/lvgl/src/widgets/lv_img.c ****             if(img->zoom == 0) return;
 493              		.loc 1 611 0
 494 021c B4F92E30 		ldrsh	r3, [r4, #46]
 495 0220 002B     		cmp	r3, #0
 496 0222 3FF4FFAE 		beq	.L3
 611:Drivers/lvgl/lvgl/src/widgets/lv_img.c ****             if(img->zoom == 0) return;
 497              		.loc 1 611 0 is_stmt 0 discriminator 1
 498 0226 B4F92C30 		ldrsh	r3, [r4, #44]
 499 022a 002B     		cmp	r3, #0
 500 022c 3FF4FAAE 		beq	.L3
 612:Drivers/lvgl/lvgl/src/widgets/lv_img.c **** 
 501              		.loc 1 612 0 is_stmt 1
 502 0230 E38E     		ldrh	r3, [r4, #54]
 503 0232 002B     		cmp	r3, #0
 504 0234 3FF4F6AE 		beq	.L3
 614:Drivers/lvgl/lvgl/src/widgets/lv_img.c **** 
 505              		.loc 1 614 0
 506 0238 0398     		ldr	r0, [sp, #12]
 507              	.LVL55:
 508 023a FFF7FEFF 		bl	lv_event_get_draw_ctx
 509              	.LVL56:
 510 023e 8246     		mov	r10, r0
 511              	.LVL57:
 512              	.LBB70:
 513              	.LBB71:
 112:Drivers/lvgl/lvgl/src/widgets/../core/../misc/../font/../misc/lv_area.h ****     dest->y1 = src->y1;
 514              		.loc 2 112 0
 515 0240 B4F914B0 		ldrsh	fp, [r4, #20]
 516 0244 ADF830B0 		strh	fp, [sp, #48]	@ movhi
 113:Drivers/lvgl/lvgl/src/widgets/../core/../misc/../font/../misc/lv_area.h ****     dest->x2 = src->x2;
 517              		.loc 2 113 0
 518 0248 B4F91650 		ldrsh	r5, [r4, #22]
 519              	.LVL58:
 520 024c ADF83250 		strh	r5, [sp, #50]	@ movhi
 114:Drivers/lvgl/lvgl/src/widgets/../core/../misc/../font/../misc/lv_area.h ****     dest->y2 = src->y2;
 521              		.loc 2 114 0
 522 0250 B4F91880 		ldrsh	r8, [r4, #24]
 115:Drivers/lvgl/lvgl/src/widgets/../core/../misc/../font/../misc/lv_area.h **** }
 523              		.loc 2 115 0
 524 0254 B4F91A90 		ldrsh	r9, [r4, #26]
 525              	.LVL59:
 526              	.LBE71:
 527              	.LBE70:
 619:Drivers/lvgl/lvgl/src/widgets/lv_img.c **** 
 528              		.loc 1 619 0
ARM GAS  /tmp/ccNaDK0X.s 			page 32


 529 0258 2046     		mov	r0, r4
 530              	.LVL60:
 531 025a FFF7FEFF 		bl	lv_img_get_transformed_size
 532              	.LVL61:
 533 025e 0990     		str	r0, [sp, #36]
 621:Drivers/lvgl/lvgl/src/widgets/lv_img.c ****                 img_max_area.x1 -= ((img->w - img_size_final.x) + 1) / 2;
 534              		.loc 1 621 0
 535 0260 94F83930 		ldrb	r3, [r4, #57]	@ zero_extendqisi2
 536 0264 03F00303 		and	r3, r3, #3
 537 0268 012B     		cmp	r3, #1
 538 026a 4BD0     		beq	.L37
 539              	.LVL62:
 540              	.LBB72:
 541              	.LBB73:
 125:Drivers/lvgl/lvgl/src/widgets/../core/../misc/../font/../misc/lv_area.h **** }
 542              		.loc 2 125 0
 543 026c BDF82C30 		ldrh	r3, [sp, #44]
 544 0270 BDF82820 		ldrh	r2, [sp, #40]
 545 0274 9B1A     		subs	r3, r3, r2
 546 0276 9BB2     		uxth	r3, r3
 547 0278 0133     		adds	r3, r3, #1
 548 027a 9BB2     		uxth	r3, r3
 549              	.LVL63:
 550              	.LBE73:
 551              	.LBE72:
 628:Drivers/lvgl/lvgl/src/widgets/lv_img.c ****                 img_max_area.y2 = img_max_area.y1 + lv_area_get_height(&bg_coords) - 1;
 552              		.loc 1 628 0
 553 027c 13FA8BF3 		uxtah	r3, r3, fp
 554 0280 9BB2     		uxth	r3, r3
 555 0282 013B     		subs	r3, r3, #1
 556 0284 ADF83430 		strh	r3, [sp, #52]	@ movhi
 557              	.LVL64:
 558              	.LBB74:
 559              	.LBB75:
 560              		.loc 2 135 0
 561 0288 BDF82E30 		ldrh	r3, [sp, #46]
 562 028c BDF82A20 		ldrh	r2, [sp, #42]
 563 0290 9B1A     		subs	r3, r3, r2
 564 0292 9BB2     		uxth	r3, r3
 565 0294 0133     		adds	r3, r3, #1
 566 0296 9BB2     		uxth	r3, r3
 567              	.LVL65:
 568              	.LBE75:
 569              	.LBE74:
 629:Drivers/lvgl/lvgl/src/widgets/lv_img.c ****             }
 570              		.loc 1 629 0
 571 0298 13FA85F3 		uxtah	r3, r3, r5
 572 029c 9BB2     		uxth	r3, r3
 573 029e 013B     		subs	r3, r3, #1
 574 02a0 ADF83630 		strh	r3, [sp, #54]	@ movhi
 575              	.L20:
 632:Drivers/lvgl/lvgl/src/widgets/lv_img.c ****             img_max_area.y1 += ptop;
 576              		.loc 1 632 0
 577 02a4 BDF83090 		ldrh	r9, [sp, #48]
 578 02a8 B944     		add	r9, r9, r7
 579 02aa 1FFA89F9 		uxth	r9, r9
 580 02ae 0FFA89F3 		sxth	r3, r9
ARM GAS  /tmp/ccNaDK0X.s 			page 33


 581 02b2 0393     		str	r3, [sp, #12]
 582              	.LVL66:
 633:Drivers/lvgl/lvgl/src/widgets/lv_img.c ****             img_max_area.x2 -= pright;
 583              		.loc 1 633 0
 584 02b4 BDF83280 		ldrh	r8, [sp, #50]
 585 02b8 B044     		add	r8, r8, r6
 586 02ba 1FFA88F8 		uxth	r8, r8
 587 02be 0FFA88F3 		sxth	r3, r8
 588 02c2 0793     		str	r3, [sp, #28]
 634:Drivers/lvgl/lvgl/src/widgets/lv_img.c ****             img_max_area.y2 -= pbottom;
 589              		.loc 1 634 0
 590 02c4 BDF83450 		ldrh	r5, [sp, #52]
 591 02c8 049B     		ldr	r3, [sp, #16]
 592 02ca ED1A     		subs	r5, r5, r3
 593 02cc 2DB2     		sxth	r5, r5
 635:Drivers/lvgl/lvgl/src/widgets/lv_img.c **** 
 594              		.loc 1 635 0
 595 02ce BDF83630 		ldrh	r3, [sp, #54]
 596 02d2 059A     		ldr	r2, [sp, #20]
 597 02d4 9B1A     		subs	r3, r3, r2
 598 02d6 0FFA83FB 		sxth	fp, r3
 637:Drivers/lvgl/lvgl/src/widgets/lv_img.c ****                 lv_draw_img_dsc_t img_dsc;
 599              		.loc 1 637 0
 600 02da 94F83830 		ldrb	r3, [r4, #56]	@ zero_extendqisi2
 601 02de 03F00303 		and	r3, r3, #3
 602 02e2 012B     		cmp	r3, #1
 603 02e4 34D9     		bls	.L38
 676:Drivers/lvgl/lvgl/src/widgets/lv_img.c ****                 lv_draw_label_dsc_t label_dsc;
 604              		.loc 1 676 0
 605 02e6 022B     		cmp	r3, #2
 606 02e8 00F0D980 		beq	.L39
 686:Drivers/lvgl/lvgl/src/widgets/lv_img.c ****             }
 607              		.loc 1 686 0
 608 02ec 0023     		movs	r3, #0
 609 02ee 069A     		ldr	r2, [sp, #24]
 610 02f0 1946     		mov	r1, r3
 611 02f2 5046     		mov	r0, r10
 612 02f4 FFF7FEFF 		bl	lv_draw_img
 613              	.LVL67:
 614 02f8 94E6     		b	.L3
 615              	.LVL68:
 616              	.L36:
 617              	.LBE69:
 588:Drivers/lvgl/lvgl/src/widgets/lv_img.c ****         }
 618              		.loc 1 588 0
 619 02fa 0AA9     		add	r1, sp, #40
 620 02fc 2046     		mov	r0, r4
 621 02fe FFF7FEFF 		bl	lv_obj_get_coords
 622              	.LVL69:
 623 0302 62E7     		b	.L13
 624              	.LVL70:
 625              	.L37:
 626              	.LBB78:
 622:Drivers/lvgl/lvgl/src/widgets/lv_img.c ****                 img_max_area.x2 -= ((img->w - img_size_final.x) + 1) / 2;
 627              		.loc 1 622 0
 628 0304 B4F92C30 		ldrsh	r3, [r4, #44]
 629 0308 BDF92420 		ldrsh	r2, [sp, #36]
ARM GAS  /tmp/ccNaDK0X.s 			page 34


 630 030c 9B1A     		subs	r3, r3, r2
 631 030e 0133     		adds	r3, r3, #1
 632 0310 1AD4     		bmi	.L40
 633              	.L18:
 634 0312 5B10     		asrs	r3, r3, #1
 635 0314 5B42     		negs	r3, r3
 636 0316 9BB2     		uxth	r3, r3
 637 0318 03EB0B02 		add	r2, r3, fp
 638 031c ADF83020 		strh	r2, [sp, #48]	@ movhi
 623:Drivers/lvgl/lvgl/src/widgets/lv_img.c ****                 img_max_area.y1 -= ((img->h - img_size_final.y) + 1) / 2;
 639              		.loc 1 623 0
 640 0320 4344     		add	r3, r3, r8
 641 0322 ADF83430 		strh	r3, [sp, #52]	@ movhi
 624:Drivers/lvgl/lvgl/src/widgets/lv_img.c ****                 img_max_area.y2 -= ((img->h - img_size_final.y) + 1) / 2;
 642              		.loc 1 624 0
 643 0326 B4F92E30 		ldrsh	r3, [r4, #46]
 644 032a BDF92620 		ldrsh	r2, [sp, #38]
 645 032e 9B1A     		subs	r3, r3, r2
 646 0330 0133     		adds	r3, r3, #1
 647 0332 0BD4     		bmi	.L41
 648              	.L19:
 649 0334 5B10     		asrs	r3, r3, #1
 650 0336 5B42     		negs	r3, r3
 651 0338 9BB2     		uxth	r3, r3
 652 033a 1D44     		add	r5, r5, r3
 653 033c ADF83250 		strh	r5, [sp, #50]	@ movhi
 625:Drivers/lvgl/lvgl/src/widgets/lv_img.c ****             }
 654              		.loc 1 625 0
 655 0340 4B44     		add	r3, r3, r9
 656 0342 ADF83630 		strh	r3, [sp, #54]	@ movhi
 657 0346 ADE7     		b	.L20
 658              	.L40:
 622:Drivers/lvgl/lvgl/src/widgets/lv_img.c ****                 img_max_area.x2 -= ((img->w - img_size_final.x) + 1) / 2;
 659              		.loc 1 622 0
 660 0348 0133     		adds	r3, r3, #1
 661 034a E2E7     		b	.L18
 662              	.L41:
 624:Drivers/lvgl/lvgl/src/widgets/lv_img.c ****                 img_max_area.y2 -= ((img->h - img_size_final.y) + 1) / 2;
 663              		.loc 1 624 0
 664 034c 0133     		adds	r3, r3, #1
 665 034e F1E7     		b	.L19
 666              	.LVL71:
 667              	.L38:
 668              	.LBB76:
 639:Drivers/lvgl/lvgl/src/widgets/lv_img.c ****                 lv_obj_init_draw_img_dsc(obj, LV_PART_MAIN, &img_dsc);
 669              		.loc 1 639 0
 670 0350 12A8     		add	r0, sp, #72
 671 0352 FFF7FEFF 		bl	lv_draw_img_dsc_init
 672              	.LVL72:
 640:Drivers/lvgl/lvgl/src/widgets/lv_img.c **** 
 673              		.loc 1 640 0
 674 0356 12AA     		add	r2, sp, #72
 675 0358 0021     		movs	r1, #0
 676 035a 2046     		mov	r0, r4
 677 035c FFF7FEFF 		bl	lv_obj_init_draw_img_dsc
 678              	.LVL73:
 642:Drivers/lvgl/lvgl/src/widgets/lv_img.c ****                 img_dsc.angle = img->angle;
ARM GAS  /tmp/ccNaDK0X.s 			page 35


 679              		.loc 1 642 0
 680 0360 E38E     		ldrh	r3, [r4, #54]
 681 0362 ADF84A30 		strh	r3, [sp, #74]	@ movhi
 643:Drivers/lvgl/lvgl/src/widgets/lv_img.c ****                 img_dsc.pivot.x = img->pivot.x;
 682              		.loc 1 643 0
 683 0366 B4F93030 		ldrsh	r3, [r4, #48]
 684 036a ADF84830 		strh	r3, [sp, #72]	@ movhi
 644:Drivers/lvgl/lvgl/src/widgets/lv_img.c ****                 img_dsc.pivot.y = img->pivot.y;
 685              		.loc 1 644 0
 686 036e B4F93230 		ldrsh	r3, [r4, #50]
 687 0372 ADF84C30 		strh	r3, [sp, #76]	@ movhi
 645:Drivers/lvgl/lvgl/src/widgets/lv_img.c ****                 img_dsc.antialias = img->antialias;
 688              		.loc 1 645 0
 689 0376 B4F93430 		ldrsh	r3, [r4, #52]
 690 037a ADF84E30 		strh	r3, [sp, #78]	@ movhi
 646:Drivers/lvgl/lvgl/src/widgets/lv_img.c **** 
 691              		.loc 1 646 0
 692 037e 94F83830 		ldrb	r3, [r4, #56]	@ zero_extendqisi2
 693 0382 DB09     		lsrs	r3, r3, #7
 694 0384 9DF85C20 		ldrb	r2, [sp, #92]	@ zero_extendqisi2
 695 0388 63F30002 		bfi	r2, r3, #0, #1
 696 038c 8DF85C20 		strb	r2, [sp, #92]
 649:Drivers/lvgl/lvgl/src/widgets/lv_img.c ****                 img_clip_area.y1 = bg_coords.y1 + ptop;
 697              		.loc 1 649 0
 698 0390 BDF82830 		ldrh	r3, [sp, #40]
 699 0394 1F44     		add	r7, r7, r3
 700              	.LVL74:
 701 0396 ADF83870 		strh	r7, [sp, #56]	@ movhi
 650:Drivers/lvgl/lvgl/src/widgets/lv_img.c ****                 img_clip_area.x2 = bg_coords.x2 - pright;
 702              		.loc 1 650 0
 703 039a BDF82A30 		ldrh	r3, [sp, #42]
 704 039e 3344     		add	r3, r3, r6
 705 03a0 ADF83A30 		strh	r3, [sp, #58]	@ movhi
 651:Drivers/lvgl/lvgl/src/widgets/lv_img.c ****                 img_clip_area.y2 = bg_coords.y2 - pbottom;
 706              		.loc 1 651 0
 707 03a4 BDF82C30 		ldrh	r3, [sp, #44]
 708 03a8 049A     		ldr	r2, [sp, #16]
 709 03aa 9B1A     		subs	r3, r3, r2
 710 03ac ADF83C30 		strh	r3, [sp, #60]	@ movhi
 652:Drivers/lvgl/lvgl/src/widgets/lv_img.c ****                 const lv_area_t * clip_area_ori = draw_ctx->clip_area;
 711              		.loc 1 652 0
 712 03b0 BDF82E30 		ldrh	r3, [sp, #46]
 713 03b4 059A     		ldr	r2, [sp, #20]
 714 03b6 9B1A     		subs	r3, r3, r2
 715 03b8 ADF83E30 		strh	r3, [sp, #62]	@ movhi
 653:Drivers/lvgl/lvgl/src/widgets/lv_img.c **** 
 716              		.loc 1 653 0
 717 03bc DAF80860 		ldr	r6, [r10, #8]
 718              	.LVL75:
 655:Drivers/lvgl/lvgl/src/widgets/lv_img.c ****                 draw_ctx->clip_area = &img_clip_area;
 719              		.loc 1 655 0
 720 03c0 0EAA     		add	r2, sp, #56
 721 03c2 3146     		mov	r1, r6
 722 03c4 1046     		mov	r0, r2
 723 03c6 FFF7FEFF 		bl	_lv_area_intersect
 724              	.LVL76:
 725 03ca 0028     		cmp	r0, #0
ARM GAS  /tmp/ccNaDK0X.s 			page 36


 726 03cc 3FF42AAE 		beq	.L3
 656:Drivers/lvgl/lvgl/src/widgets/lv_img.c **** 
 727              		.loc 1 656 0
 728 03d0 0EAB     		add	r3, sp, #56
 729 03d2 CAF80830 		str	r3, [r10, #8]
 659:Drivers/lvgl/lvgl/src/widgets/lv_img.c ****                 lv_coord_t offset_y = img->offset.y % img->h;
 730              		.loc 1 659 0
 731 03d6 B4F92820 		ldrsh	r2, [r4, #40]
 732 03da B4F92C30 		ldrsh	r3, [r4, #44]
 733 03de 92FBF3F7 		sdiv	r7, r2, r3
 734 03e2 03FB1727 		mls	r7, r3, r7, r2
 735              	.LVL77:
 660:Drivers/lvgl/lvgl/src/widgets/lv_img.c ****                 coords_tmp.y1 = img_max_area.y1 + offset_y;
 736              		.loc 1 660 0
 737 03e6 B4F92A10 		ldrsh	r1, [r4, #42]
 738 03ea B4F92E20 		ldrsh	r2, [r4, #46]
 739 03ee 91FBF2F3 		sdiv	r3, r1, r2
 740 03f2 02FB1313 		mls	r3, r2, r3, r1
 741              	.LVL78:
 661:Drivers/lvgl/lvgl/src/widgets/lv_img.c ****                 if(coords_tmp.y1 > img_max_area.y1) coords_tmp.y1 -= img->h;
 742              		.loc 1 661 0
 743 03f6 4344     		add	r3, r3, r8
 744              	.LVL79:
 745 03f8 9BB2     		uxth	r3, r3
 746 03fa 19B2     		sxth	r1, r3
 747              	.LVL80:
 748 03fc ADF84210 		strh	r1, [sp, #66]	@ movhi
 662:Drivers/lvgl/lvgl/src/widgets/lv_img.c ****                 coords_tmp.y2 = coords_tmp.y1 + img->h - 1;
 749              		.loc 1 662 0
 750 0400 0798     		ldr	r0, [sp, #28]
 751 0402 8842     		cmp	r0, r1
 752 0404 03DA     		bge	.L23
 662:Drivers/lvgl/lvgl/src/widgets/lv_img.c ****                 coords_tmp.y2 = coords_tmp.y1 + img->h - 1;
 753              		.loc 1 662 0 is_stmt 0 discriminator 1
 754 0406 91B2     		uxth	r1, r2
 755 0408 5B1A     		subs	r3, r3, r1
 756 040a ADF84230 		strh	r3, [sp, #66]	@ movhi
 757              	.L23:
 663:Drivers/lvgl/lvgl/src/widgets/lv_img.c **** 
 758              		.loc 1 663 0 is_stmt 1
 759 040e BDF84230 		ldrh	r3, [sp, #66]
 760 0412 13FA82F3 		uxtah	r3, r3, r2
 761 0416 9BB2     		uxth	r3, r3
 762 0418 013B     		subs	r3, r3, #1
 763 041a ADF84630 		strh	r3, [sp, #70]	@ movhi
 665:Drivers/lvgl/lvgl/src/widgets/lv_img.c ****                     coords_tmp.x1 = img_max_area.x1 + offset_x;
 764              		.loc 1 665 0
 765 041e 21E0     		b	.L24
 766              	.LVL81:
 767              	.L27:
 671:Drivers/lvgl/lvgl/src/widgets/lv_img.c ****                     }
 768              		.loc 1 671 0 discriminator 2
 769 0420 636A     		ldr	r3, [r4, #36]
 770 0422 10AA     		add	r2, sp, #64
 771 0424 12A9     		add	r1, sp, #72
 772 0426 5046     		mov	r0, r10
 773 0428 FFF7FEFF 		bl	lv_draw_img
ARM GAS  /tmp/ccNaDK0X.s 			page 37


 774              	.LVL82:
 670:Drivers/lvgl/lvgl/src/widgets/lv_img.c ****                         lv_draw_img(draw_ctx, &img_dsc, &coords_tmp, img->src);
 775              		.loc 1 670 0 discriminator 2
 776 042c BDF82430 		ldrh	r3, [sp, #36]
 777 0430 BDF84020 		ldrh	r2, [sp, #64]
 778 0434 1A44     		add	r2, r2, r3
 779 0436 ADF84020 		strh	r2, [sp, #64]	@ movhi
 780 043a BDF84420 		ldrh	r2, [sp, #68]
 781 043e 1344     		add	r3, r3, r2
 782 0440 ADF84430 		strh	r3, [sp, #68]	@ movhi
 783              	.L26:
 670:Drivers/lvgl/lvgl/src/widgets/lv_img.c ****                         lv_draw_img(draw_ctx, &img_dsc, &coords_tmp, img->src);
 784              		.loc 1 670 0 is_stmt 0 discriminator 1
 785 0444 BDF94030 		ldrsh	r3, [sp, #64]
 786 0448 9D42     		cmp	r5, r3
 787 044a E9DC     		bgt	.L27
 665:Drivers/lvgl/lvgl/src/widgets/lv_img.c ****                     coords_tmp.x1 = img_max_area.x1 + offset_x;
 788              		.loc 1 665 0 is_stmt 1
 789 044c BDF82630 		ldrh	r3, [sp, #38]
 790 0450 BDF84220 		ldrh	r2, [sp, #66]
 791 0454 1A44     		add	r2, r2, r3
 792 0456 ADF84220 		strh	r2, [sp, #66]	@ movhi
 793 045a BDF84620 		ldrh	r2, [sp, #70]
 794 045e 1344     		add	r3, r3, r2
 795 0460 ADF84630 		strh	r3, [sp, #70]	@ movhi
 796              	.L24:
 665:Drivers/lvgl/lvgl/src/widgets/lv_img.c ****                     coords_tmp.x1 = img_max_area.x1 + offset_x;
 797              		.loc 1 665 0 is_stmt 0 discriminator 1
 798 0464 BDF94230 		ldrsh	r3, [sp, #66]
 799 0468 9B45     		cmp	fp, r3
 800 046a 15DD     		ble	.L42
 666:Drivers/lvgl/lvgl/src/widgets/lv_img.c ****                     if(coords_tmp.x1 > img_max_area.x1) coords_tmp.x1 -= img->w;
 801              		.loc 1 666 0 is_stmt 1
 802 046c 09EB0703 		add	r3, r9, r7
 803 0470 9BB2     		uxth	r3, r3
 804 0472 1AB2     		sxth	r2, r3
 805 0474 ADF84020 		strh	r2, [sp, #64]	@ movhi
 667:Drivers/lvgl/lvgl/src/widgets/lv_img.c ****                     coords_tmp.x2 = coords_tmp.x1 + img->w - 1;
 806              		.loc 1 667 0
 807 0478 0399     		ldr	r1, [sp, #12]
 808 047a 9142     		cmp	r1, r2
 809 047c 03DA     		bge	.L25
 667:Drivers/lvgl/lvgl/src/widgets/lv_img.c ****                     coords_tmp.x2 = coords_tmp.x1 + img->w - 1;
 810              		.loc 1 667 0 is_stmt 0 discriminator 1
 811 047e A28D     		ldrh	r2, [r4, #44]
 812 0480 9B1A     		subs	r3, r3, r2
 813 0482 ADF84030 		strh	r3, [sp, #64]	@ movhi
 814              	.L25:
 668:Drivers/lvgl/lvgl/src/widgets/lv_img.c **** 
 815              		.loc 1 668 0 is_stmt 1
 816 0486 BDF84030 		ldrh	r3, [sp, #64]
 817 048a A28D     		ldrh	r2, [r4, #44]
 818 048c 1344     		add	r3, r3, r2
 819 048e 9BB2     		uxth	r3, r3
 820 0490 013B     		subs	r3, r3, #1
 821 0492 ADF84430 		strh	r3, [sp, #68]	@ movhi
 670:Drivers/lvgl/lvgl/src/widgets/lv_img.c ****                         lv_draw_img(draw_ctx, &img_dsc, &coords_tmp, img->src);
ARM GAS  /tmp/ccNaDK0X.s 			page 38


 822              		.loc 1 670 0
 823 0496 D5E7     		b	.L26
 824              	.L42:
 674:Drivers/lvgl/lvgl/src/widgets/lv_img.c ****             }
 825              		.loc 1 674 0
 826 0498 CAF80860 		str	r6, [r10, #8]
 827              	.LBE76:
 828 049c C2E5     		b	.L3
 829              	.LVL83:
 830              	.L39:
 831              	.LBB77:
 678:Drivers/lvgl/lvgl/src/widgets/lv_img.c ****                 lv_obj_init_draw_label_dsc(obj, LV_PART_MAIN, &label_dsc);
 832              		.loc 1 678 0
 833 049e 12A8     		add	r0, sp, #72
 834 04a0 FFF7FEFF 		bl	lv_draw_label_dsc_init
 835              	.LVL84:
 679:Drivers/lvgl/lvgl/src/widgets/lv_img.c **** 
 836              		.loc 1 679 0
 837 04a4 12AA     		add	r2, sp, #72
 838 04a6 0021     		movs	r1, #0
 839 04a8 2046     		mov	r0, r4
 840 04aa FFF7FEFF 		bl	lv_obj_init_draw_label_dsc
 841              	.LVL85:
 681:Drivers/lvgl/lvgl/src/widgets/lv_img.c ****             }
 842              		.loc 1 681 0
 843 04ae 636A     		ldr	r3, [r4, #36]
 844 04b0 0022     		movs	r2, #0
 845 04b2 0092     		str	r2, [sp]
 846 04b4 069A     		ldr	r2, [sp, #24]
 847 04b6 12A9     		add	r1, sp, #72
 848 04b8 5046     		mov	r0, r10
 849 04ba FFF7FEFF 		bl	lv_draw_label
 850              	.LVL86:
 851              	.LBE77:
 852 04be B1E5     		b	.L3
 853              	.L44:
 854              		.align	2
 855              	.L43:
 856 04c0 00000000 		.word	.LANCHOR0
 857              	.LBE78:
 858              	.LBE52:
 859              		.cfi_endproc
 860              	.LFE186:
 862              		.section	.text.lv_img_destructor,"ax",%progbits
 863              		.align	1
 864              		.syntax unified
 865              		.thumb
 866              		.thumb_func
 867              		.fpu fpv5-d16
 869              	lv_img_destructor:
 870              	.LFB183:
 413:Drivers/lvgl/lvgl/src/widgets/lv_img.c ****     LV_UNUSED(class_p);
 871              		.loc 1 413 0
 872              		.cfi_startproc
 873              		@ args = 0, pretend = 0, frame = 0
 874              		@ frame_needed = 0, uses_anonymous_args = 0
 875              	.LVL87:
ARM GAS  /tmp/ccNaDK0X.s 			page 39


 416:Drivers/lvgl/lvgl/src/widgets/lv_img.c ****         lv_mem_free((void *)img->src);
 876              		.loc 1 416 0
 877 0000 91F83830 		ldrb	r3, [r1, #56]	@ zero_extendqisi2
 878 0004 03F00303 		and	r3, r3, #3
 879 0008 013B     		subs	r3, r3, #1
 880 000a DBB2     		uxtb	r3, r3
 881 000c 012B     		cmp	r3, #1
 882 000e 00D9     		bls	.L51
 883 0010 7047     		bx	lr
 884              	.L51:
 413:Drivers/lvgl/lvgl/src/widgets/lv_img.c ****     LV_UNUSED(class_p);
 885              		.loc 1 413 0
 886 0012 10B5     		push	{r4, lr}
 887              	.LCFI7:
 888              		.cfi_def_cfa_offset 8
 889              		.cfi_offset 4, -8
 890              		.cfi_offset 14, -4
 891 0014 0C46     		mov	r4, r1
 417:Drivers/lvgl/lvgl/src/widgets/lv_img.c ****         img->src      = NULL;
 892              		.loc 1 417 0
 893 0016 486A     		ldr	r0, [r1, #36]
 894              	.LVL88:
 895 0018 FFF7FEFF 		bl	lv_mem_free
 896              	.LVL89:
 418:Drivers/lvgl/lvgl/src/widgets/lv_img.c ****         img->src_type = LV_IMG_SRC_UNKNOWN;
 897              		.loc 1 418 0
 898 001c 0023     		movs	r3, #0
 899 001e 6362     		str	r3, [r4, #36]
 419:Drivers/lvgl/lvgl/src/widgets/lv_img.c ****     }
 900              		.loc 1 419 0
 901 0020 94F83830 		ldrb	r3, [r4, #56]	@ zero_extendqisi2
 902 0024 43F00303 		orr	r3, r3, #3
 903 0028 84F83830 		strb	r3, [r4, #56]
 421:Drivers/lvgl/lvgl/src/widgets/lv_img.c **** 
 904              		.loc 1 421 0
 905 002c 10BD     		pop	{r4, pc}
 906              		.cfi_endproc
 907              	.LFE183:
 909              		.section	.text.lv_img_constructor,"ax",%progbits
 910              		.align	1
 911              		.syntax unified
 912              		.thumb
 913              		.thumb_func
 914              		.fpu fpv5-d16
 916              	lv_img_constructor:
 917              	.LFB182:
 386:Drivers/lvgl/lvgl/src/widgets/lv_img.c ****     LV_UNUSED(class_p);
 918              		.loc 1 386 0
 919              		.cfi_startproc
 920              		@ args = 0, pretend = 0, frame = 0
 921              		@ frame_needed = 0, uses_anonymous_args = 0
 922              	.LVL90:
 923 0000 38B5     		push	{r3, r4, r5, lr}
 924              	.LCFI8:
 925              		.cfi_def_cfa_offset 16
 926              		.cfi_offset 3, -16
 927              		.cfi_offset 4, -12
ARM GAS  /tmp/ccNaDK0X.s 			page 40


 928              		.cfi_offset 5, -8
 929              		.cfi_offset 14, -4
 930 0002 0C46     		mov	r4, r1
 931              	.LVL91:
 392:Drivers/lvgl/lvgl/src/widgets/lv_img.c ****     img->src_type  = LV_IMG_SRC_UNKNOWN;
 932              		.loc 1 392 0
 933 0004 0025     		movs	r5, #0
 934 0006 4D62     		str	r5, [r1, #36]
 393:Drivers/lvgl/lvgl/src/widgets/lv_img.c ****     img->cf        = LV_IMG_CF_UNKNOWN;
 935              		.loc 1 393 0
 936 0008 91F83830 		ldrb	r3, [r1, #56]	@ zero_extendqisi2
 394:Drivers/lvgl/lvgl/src/widgets/lv_img.c ****     img->w         = lv_obj_get_width(obj);
 937              		.loc 1 394 0
 938 000c 43F00303 		orr	r3, r3, #3
 939 0010 65F38603 		bfi	r3, r5, #2, #5
 940 0014 81F83830 		strb	r3, [r1, #56]
 395:Drivers/lvgl/lvgl/src/widgets/lv_img.c ****     img->h         = lv_obj_get_height(obj);
 941              		.loc 1 395 0
 942 0018 0846     		mov	r0, r1
 943              	.LVL92:
 944 001a FFF7FEFF 		bl	lv_obj_get_width
 945              	.LVL93:
 946 001e A085     		strh	r0, [r4, #44]	@ movhi
 396:Drivers/lvgl/lvgl/src/widgets/lv_img.c ****     img->angle = 0;
 947              		.loc 1 396 0
 948 0020 2046     		mov	r0, r4
 949 0022 FFF7FEFF 		bl	lv_obj_get_height
 950              	.LVL94:
 951 0026 E085     		strh	r0, [r4, #46]	@ movhi
 397:Drivers/lvgl/lvgl/src/widgets/lv_img.c ****     img->zoom = LV_IMG_ZOOM_NONE;
 952              		.loc 1 397 0
 953 0028 2586     		strh	r5, [r4, #48]	@ movhi
 398:Drivers/lvgl/lvgl/src/widgets/lv_img.c ****     img->antialias = LV_COLOR_DEPTH > 8 ? 1 : 0;
 954              		.loc 1 398 0
 955 002a 4FF48073 		mov	r3, #256
 956 002e E386     		strh	r3, [r4, #54]	@ movhi
 399:Drivers/lvgl/lvgl/src/widgets/lv_img.c ****     img->offset.x  = 0;
 957              		.loc 1 399 0
 958 0030 94F83830 		ldrb	r3, [r4, #56]	@ zero_extendqisi2
 959 0034 43F08003 		orr	r3, r3, #128
 960 0038 84F83830 		strb	r3, [r4, #56]
 400:Drivers/lvgl/lvgl/src/widgets/lv_img.c ****     img->offset.y  = 0;
 961              		.loc 1 400 0
 962 003c 2585     		strh	r5, [r4, #40]	@ movhi
 401:Drivers/lvgl/lvgl/src/widgets/lv_img.c ****     img->pivot.x = 0;
 963              		.loc 1 401 0
 964 003e 6585     		strh	r5, [r4, #42]	@ movhi
 402:Drivers/lvgl/lvgl/src/widgets/lv_img.c ****     img->pivot.y = 0;
 965              		.loc 1 402 0
 966 0040 6586     		strh	r5, [r4, #50]	@ movhi
 403:Drivers/lvgl/lvgl/src/widgets/lv_img.c ****     img->obj_size_mode = LV_IMG_SIZE_MODE_VIRTUAL;
 967              		.loc 1 403 0
 968 0042 A586     		strh	r5, [r4, #52]	@ movhi
 404:Drivers/lvgl/lvgl/src/widgets/lv_img.c **** 
 969              		.loc 1 404 0
 970 0044 94F83930 		ldrb	r3, [r4, #57]	@ zero_extendqisi2
 971 0048 65F30103 		bfi	r3, r5, #0, #2
ARM GAS  /tmp/ccNaDK0X.s 			page 41


 972 004c 84F83930 		strb	r3, [r4, #57]
 406:Drivers/lvgl/lvgl/src/widgets/lv_img.c ****     lv_obj_add_flag(obj, LV_OBJ_FLAG_ADV_HITTEST);
 973              		.loc 1 406 0
 974 0050 0221     		movs	r1, #2
 975 0052 2046     		mov	r0, r4
 976 0054 FFF7FEFF 		bl	lv_obj_clear_flag
 977              	.LVL95:
 407:Drivers/lvgl/lvgl/src/widgets/lv_img.c **** 
 978              		.loc 1 407 0
 979 0058 4FF48031 		mov	r1, #65536
 980 005c 2046     		mov	r0, r4
 981 005e FFF7FEFF 		bl	lv_obj_add_flag
 982              	.LVL96:
 410:Drivers/lvgl/lvgl/src/widgets/lv_img.c **** 
 983              		.loc 1 410 0
 984 0062 38BD     		pop	{r3, r4, r5, pc}
 985              		.cfi_endproc
 986              	.LFE182:
 988              		.section	.text.lv_img_create,"ax",%progbits
 989              		.align	1
 990              		.global	lv_img_create
 991              		.syntax unified
 992              		.thumb
 993              		.thumb_func
 994              		.fpu fpv5-d16
 996              	lv_img_create:
 997              	.LFB165:
  59:Drivers/lvgl/lvgl/src/widgets/lv_img.c ****     LV_LOG_INFO("begin");
 998              		.loc 1 59 0
 999              		.cfi_startproc
 1000              		@ args = 0, pretend = 0, frame = 0
 1001              		@ frame_needed = 0, uses_anonymous_args = 0
 1002              	.LVL97:
 1003 0000 10B5     		push	{r4, lr}
 1004              	.LCFI9:
 1005              		.cfi_def_cfa_offset 8
 1006              		.cfi_offset 4, -8
 1007              		.cfi_offset 14, -4
  61:Drivers/lvgl/lvgl/src/widgets/lv_img.c ****     lv_obj_class_init_obj(obj);
 1008              		.loc 1 61 0
 1009 0002 0146     		mov	r1, r0
 1010 0004 0348     		ldr	r0, .L56
 1011              	.LVL98:
 1012 0006 FFF7FEFF 		bl	lv_obj_class_create_obj
 1013              	.LVL99:
 1014 000a 0446     		mov	r4, r0
 1015              	.LVL100:
  62:Drivers/lvgl/lvgl/src/widgets/lv_img.c ****     return obj;
 1016              		.loc 1 62 0
 1017 000c FFF7FEFF 		bl	lv_obj_class_init_obj
 1018              	.LVL101:
  64:Drivers/lvgl/lvgl/src/widgets/lv_img.c **** 
 1019              		.loc 1 64 0
 1020 0010 2046     		mov	r0, r4
 1021 0012 10BD     		pop	{r4, pc}
 1022              	.LVL102:
 1023              	.L57:
ARM GAS  /tmp/ccNaDK0X.s 			page 42


 1024              		.align	2
 1025              	.L56:
 1026 0014 00000000 		.word	.LANCHOR0
 1027              		.cfi_endproc
 1028              	.LFE165:
 1030              		.section	.text.lv_img_set_src,"ax",%progbits
 1031              		.align	1
 1032              		.global	lv_img_set_src
 1033              		.syntax unified
 1034              		.thumb
 1035              		.thumb_func
 1036              		.fpu fpv5-d16
 1038              	lv_img_set_src:
 1039              	.LFB166:
  71:Drivers/lvgl/lvgl/src/widgets/lv_img.c ****     LV_ASSERT_OBJ(obj, MY_CLASS);
 1040              		.loc 1 71 0
 1041              		.cfi_startproc
 1042              		@ args = 0, pretend = 0, frame = 8
 1043              		@ frame_needed = 0, uses_anonymous_args = 0
 1044              	.LVL103:
 1045 0000 2DE9F041 		push	{r4, r5, r6, r7, r8, lr}
 1046              	.LCFI10:
 1047              		.cfi_def_cfa_offset 24
 1048              		.cfi_offset 4, -24
 1049              		.cfi_offset 5, -20
 1050              		.cfi_offset 6, -16
 1051              		.cfi_offset 7, -12
 1052              		.cfi_offset 8, -8
 1053              		.cfi_offset 14, -4
 1054 0004 86B0     		sub	sp, sp, #24
 1055              	.LCFI11:
 1056              		.cfi_def_cfa_offset 48
 1057 0006 0446     		mov	r4, r0
 1058 0008 0D46     		mov	r5, r1
  74:Drivers/lvgl/lvgl/src/widgets/lv_img.c **** 
 1059              		.loc 1 74 0
 1060 000a FFF7FEFF 		bl	lv_obj_invalidate
 1061              	.LVL104:
  76:Drivers/lvgl/lvgl/src/widgets/lv_img.c ****     lv_img_t * img = (lv_img_t *)obj;
 1062              		.loc 1 76 0
 1063 000e 2846     		mov	r0, r5
 1064 0010 FFF7FEFF 		bl	lv_img_src_get_type
 1065              	.LVL105:
  96:Drivers/lvgl/lvgl/src/widgets/lv_img.c ****         LV_LOG_WARN("lv_img_set_src: unknown image type");
 1066              		.loc 1 96 0
 1067 0014 0328     		cmp	r0, #3
 1068 0016 16D1     		bne	.L59
  98:Drivers/lvgl/lvgl/src/widgets/lv_img.c ****             lv_mem_free((void *)img->src);
 1069              		.loc 1 98 0
 1070 0018 94F83830 		ldrb	r3, [r4, #56]	@ zero_extendqisi2
 1071 001c 03F00303 		and	r3, r3, #3
 1072 0020 013B     		subs	r3, r3, #1
 1073 0022 DBB2     		uxtb	r3, r3
 1074 0024 012B     		cmp	r3, #1
 1075 0026 0AD9     		bls	.L74
 1076              	.LVL106:
 1077              	.L60:
ARM GAS  /tmp/ccNaDK0X.s 			page 43


 101:Drivers/lvgl/lvgl/src/widgets/lv_img.c ****         img->src_type = LV_IMG_SRC_UNKNOWN;
 1078              		.loc 1 101 0
 1079 0028 0023     		movs	r3, #0
 1080 002a 6362     		str	r3, [r4, #36]
 102:Drivers/lvgl/lvgl/src/widgets/lv_img.c ****         return;
 1081              		.loc 1 102 0
 1082 002c 94F83830 		ldrb	r3, [r4, #56]	@ zero_extendqisi2
 1083 0030 43F00303 		orr	r3, r3, #3
 1084 0034 84F83830 		strb	r3, [r4, #56]
 1085              	.LVL107:
 1086              	.L58:
 161:Drivers/lvgl/lvgl/src/widgets/lv_img.c **** 
 1087              		.loc 1 161 0
 1088 0038 06B0     		add	sp, sp, #24
 1089              	.LCFI12:
 1090              		.cfi_remember_state
 1091              		.cfi_def_cfa_offset 24
 1092              		@ sp needed
 1093 003a BDE8F081 		pop	{r4, r5, r6, r7, r8, pc}
 1094              	.LVL108:
 1095              	.L74:
 1096              	.LCFI13:
 1097              		.cfi_restore_state
  99:Drivers/lvgl/lvgl/src/widgets/lv_img.c ****         }
 1098              		.loc 1 99 0
 1099 003e 606A     		ldr	r0, [r4, #36]
 1100              	.LVL109:
 1101 0040 FFF7FEFF 		bl	lv_mem_free
 1102              	.LVL110:
 1103 0044 F0E7     		b	.L60
 1104              	.LVL111:
 1105              	.L59:
 1106 0046 0646     		mov	r6, r0
 107:Drivers/lvgl/lvgl/src/widgets/lv_img.c **** 
 1107              		.loc 1 107 0
 1108 0048 05A9     		add	r1, sp, #20
 1109 004a 2846     		mov	r0, r5
 1110              	.LVL112:
 1111 004c FFF7FEFF 		bl	lv_img_decoder_get_info
 1112              	.LVL113:
 110:Drivers/lvgl/lvgl/src/widgets/lv_img.c ****         /*If memory was allocated because of the previous `src_type` then free it*/
 1113              		.loc 1 110 0
 1114 0050 002E     		cmp	r6, #0
 1115 0052 36D1     		bne	.L62
 112:Drivers/lvgl/lvgl/src/widgets/lv_img.c ****             lv_mem_free((void *)img->src);
 1116              		.loc 1 112 0
 1117 0054 94F83830 		ldrb	r3, [r4, #56]	@ zero_extendqisi2
 1118 0058 03F00303 		and	r3, r3, #3
 1119 005c 013B     		subs	r3, r3, #1
 1120 005e DBB2     		uxtb	r3, r3
 1121 0060 012B     		cmp	r3, #1
 1122 0062 2AD9     		bls	.L75
 1123              	.L63:
 115:Drivers/lvgl/lvgl/src/widgets/lv_img.c ****     }
 1124              		.loc 1 115 0
 1125 0064 6562     		str	r5, [r4, #36]
 1126              	.L64:
ARM GAS  /tmp/ccNaDK0X.s 			page 44


 137:Drivers/lvgl/lvgl/src/widgets/lv_img.c ****         /*`lv_img_dsc_get_info` couldn't set the width and height of a font so set it here*/
 1127              		.loc 1 137 0
 1128 0066 022E     		cmp	r6, #2
 1129 0068 4FD0     		beq	.L76
 1130              	.LVL114:
 1131              	.L68:
 148:Drivers/lvgl/lvgl/src/widgets/lv_img.c ****     img->w        = header.w;
 1132              		.loc 1 148 0
 1133 006a 94F83810 		ldrb	r1, [r4, #56]	@ zero_extendqisi2
 1134 006e 66F30101 		bfi	r1, r6, #0, #2
 149:Drivers/lvgl/lvgl/src/widgets/lv_img.c ****     img->h        = header.h;
 1135              		.loc 1 149 0
 1136 0072 059B     		ldr	r3, [sp, #20]
 1137 0074 C3F38A23 		ubfx	r3, r3, #10, #11
 1138 0078 A385     		strh	r3, [r4, #44]	@ movhi
 150:Drivers/lvgl/lvgl/src/widgets/lv_img.c ****     img->cf       = header.cf;
 1139              		.loc 1 150 0
 1140 007a BDF81600 		ldrh	r0, [sp, #22]
 1141 007e C0F34A10 		ubfx	r0, r0, #5, #11
 1142 0082 82B2     		uxth	r2, r0
 1143 0084 E085     		strh	r0, [r4, #46]	@ movhi
 151:Drivers/lvgl/lvgl/src/widgets/lv_img.c ****     img->pivot.x = header.w / 2;
 1144              		.loc 1 151 0
 1145 0086 9DF81400 		ldrb	r0, [sp, #20]	@ zero_extendqisi2
 1146 008a 60F38601 		bfi	r1, r0, #2, #5
 1147 008e 84F83810 		strb	r1, [r4, #56]
 152:Drivers/lvgl/lvgl/src/widgets/lv_img.c ****     img->pivot.y = header.h / 2;
 1148              		.loc 1 152 0
 1149 0092 5B08     		lsrs	r3, r3, #1
 1150 0094 6386     		strh	r3, [r4, #50]	@ movhi
 153:Drivers/lvgl/lvgl/src/widgets/lv_img.c **** 
 1151              		.loc 1 153 0
 1152 0096 5310     		asrs	r3, r2, #1
 1153 0098 A386     		strh	r3, [r4, #52]	@ movhi
 155:Drivers/lvgl/lvgl/src/widgets/lv_img.c **** 
 1154              		.loc 1 155 0
 1155 009a 2046     		mov	r0, r4
 1156 009c FFF7FEFF 		bl	lv_obj_refresh_self_size
 1157              	.LVL115:
 158:Drivers/lvgl/lvgl/src/widgets/lv_img.c **** 
 1158              		.loc 1 158 0
 1159 00a0 238E     		ldrh	r3, [r4, #48]
 1160 00a2 1BB9     		cbnz	r3, .L71
 158:Drivers/lvgl/lvgl/src/widgets/lv_img.c **** 
 1161              		.loc 1 158 0 is_stmt 0 discriminator 2
 1162 00a4 E38E     		ldrh	r3, [r4, #54]
 1163 00a6 B3F5807F 		cmp	r3, #256
 1164 00aa 02D0     		beq	.L72
 1165              	.L71:
 158:Drivers/lvgl/lvgl/src/widgets/lv_img.c **** 
 1166              		.loc 1 158 0 discriminator 3
 1167 00ac 2046     		mov	r0, r4
 1168 00ae FFF7FEFF 		bl	lv_obj_refresh_ext_draw_size
 1169              	.LVL116:
 1170              	.L72:
 160:Drivers/lvgl/lvgl/src/widgets/lv_img.c **** }
 1171              		.loc 1 160 0 is_stmt 1
ARM GAS  /tmp/ccNaDK0X.s 			page 45


 1172 00b2 2046     		mov	r0, r4
 1173 00b4 FFF7FEFF 		bl	lv_obj_invalidate
 1174              	.LVL117:
 1175 00b8 BEE7     		b	.L58
 1176              	.LVL118:
 1177              	.L75:
 113:Drivers/lvgl/lvgl/src/widgets/lv_img.c ****         }
 1178              		.loc 1 113 0
 1179 00ba 606A     		ldr	r0, [r4, #36]
 1180 00bc FFF7FEFF 		bl	lv_mem_free
 1181              	.LVL119:
 1182 00c0 D0E7     		b	.L63
 1183              	.L62:
 117:Drivers/lvgl/lvgl/src/widgets/lv_img.c ****         /*If the new and the old src are the same then it was only a refresh.*/
 1184              		.loc 1 117 0
 1185 00c2 731E     		subs	r3, r6, #1
 1186 00c4 DBB2     		uxtb	r3, r3
 1187 00c6 012B     		cmp	r3, #1
 1188 00c8 CDD8     		bhi	.L64
 119:Drivers/lvgl/lvgl/src/widgets/lv_img.c ****             const void * old_src = NULL;
 1189              		.loc 1 119 0
 1190 00ca 676A     		ldr	r7, [r4, #36]
 1191 00cc AF42     		cmp	r7, r5
 1192 00ce CAD0     		beq	.L64
 1193              	.LVL120:
 1194              	.LBB79:
 124:Drivers/lvgl/lvgl/src/widgets/lv_img.c ****                 old_src = img->src;
 1195              		.loc 1 124 0
 1196 00d0 94F83830 		ldrb	r3, [r4, #56]	@ zero_extendqisi2
 1197 00d4 03F00303 		and	r3, r3, #3
 1198 00d8 013B     		subs	r3, r3, #1
 1199 00da DBB2     		uxtb	r3, r3
 1200 00dc 012B     		cmp	r3, #1
 1201 00de 00D9     		bls	.L65
 120:Drivers/lvgl/lvgl/src/widgets/lv_img.c ****             /*If memory was allocated because of the previous `src_type` then save its pointer and 
 1202              		.loc 1 120 0
 1203 00e0 0027     		movs	r7, #0
 1204              	.L65:
 1205              	.LVL121:
 127:Drivers/lvgl/lvgl/src/widgets/lv_img.c ****             LV_ASSERT_MALLOC(new_str);
 1206              		.loc 1 127 0
 1207 00e2 2846     		mov	r0, r5
 1208 00e4 FFF7FEFF 		bl	strlen
 1209              	.LVL122:
 1210 00e8 0130     		adds	r0, r0, #1
 1211 00ea FFF7FEFF 		bl	lv_mem_alloc
 1212              	.LVL123:
 128:Drivers/lvgl/lvgl/src/widgets/lv_img.c ****             if(new_str == NULL) return;
 1213              		.loc 1 128 0
 1214 00ee 8046     		mov	r8, r0
 1215 00f0 00B9     		cbnz	r0, .L66
 1216              	.L67:
 1217 00f2 FEE7     		b	.L67
 1218              	.L66:
 130:Drivers/lvgl/lvgl/src/widgets/lv_img.c ****             img->src = new_str;
 1219              		.loc 1 130 0
 1220 00f4 2946     		mov	r1, r5
ARM GAS  /tmp/ccNaDK0X.s 			page 46


 1221 00f6 FFF7FEFF 		bl	strcpy
 1222              	.LVL124:
 131:Drivers/lvgl/lvgl/src/widgets/lv_img.c **** 
 1223              		.loc 1 131 0
 1224 00fa C4F82480 		str	r8, [r4, #36]
 133:Drivers/lvgl/lvgl/src/widgets/lv_img.c ****         }
 1225              		.loc 1 133 0
 1226 00fe 002F     		cmp	r7, #0
 1227 0100 B1D0     		beq	.L64
 133:Drivers/lvgl/lvgl/src/widgets/lv_img.c ****         }
 1228              		.loc 1 133 0 is_stmt 0 discriminator 1
 1229 0102 3846     		mov	r0, r7
 1230 0104 FFF7FEFF 		bl	lv_mem_free
 1231              	.LVL125:
 1232 0108 ADE7     		b	.L64
 1233              	.LVL126:
 1234              	.L76:
 1235              	.LBE79:
 1236              	.LBB80:
 1237              	.LBB81:
 1238              	.LBB82:
 347:Drivers/lvgl/lvgl/src/widgets/../core/lv_obj_style_gen.h **** }
 348:Drivers/lvgl/lvgl/src/widgets/../core/lv_obj_style_gen.h **** 
 349:Drivers/lvgl/lvgl/src/widgets/../core/lv_obj_style_gen.h **** static inline lv_color_t lv_obj_get_style_img_recolor(const struct _lv_obj_t * obj, uint32_t part)
 350:Drivers/lvgl/lvgl/src/widgets/../core/lv_obj_style_gen.h **** {
 351:Drivers/lvgl/lvgl/src/widgets/../core/lv_obj_style_gen.h ****     lv_style_value_t v = lv_obj_get_style_prop(obj, part, LV_STYLE_IMG_RECOLOR);
 352:Drivers/lvgl/lvgl/src/widgets/../core/lv_obj_style_gen.h ****     return v.color;
 353:Drivers/lvgl/lvgl/src/widgets/../core/lv_obj_style_gen.h **** }
 354:Drivers/lvgl/lvgl/src/widgets/../core/lv_obj_style_gen.h **** 
 355:Drivers/lvgl/lvgl/src/widgets/../core/lv_obj_style_gen.h **** static inline lv_color_t lv_obj_get_style_img_recolor_filtered(const struct _lv_obj_t * obj, uint32
 356:Drivers/lvgl/lvgl/src/widgets/../core/lv_obj_style_gen.h **** {
 357:Drivers/lvgl/lvgl/src/widgets/../core/lv_obj_style_gen.h ****     lv_style_value_t v = _lv_obj_style_apply_color_filter(obj, part, lv_obj_get_style_prop(obj, par
 358:Drivers/lvgl/lvgl/src/widgets/../core/lv_obj_style_gen.h ****     return v.color;
 359:Drivers/lvgl/lvgl/src/widgets/../core/lv_obj_style_gen.h **** }
 360:Drivers/lvgl/lvgl/src/widgets/../core/lv_obj_style_gen.h **** 
 361:Drivers/lvgl/lvgl/src/widgets/../core/lv_obj_style_gen.h **** static inline lv_opa_t lv_obj_get_style_img_recolor_opa(const struct _lv_obj_t * obj, uint32_t part
 362:Drivers/lvgl/lvgl/src/widgets/../core/lv_obj_style_gen.h **** {
 363:Drivers/lvgl/lvgl/src/widgets/../core/lv_obj_style_gen.h ****     lv_style_value_t v = lv_obj_get_style_prop(obj, part, LV_STYLE_IMG_RECOLOR_OPA);
 364:Drivers/lvgl/lvgl/src/widgets/../core/lv_obj_style_gen.h ****     return (lv_opa_t)v.num;
 365:Drivers/lvgl/lvgl/src/widgets/../core/lv_obj_style_gen.h **** }
 366:Drivers/lvgl/lvgl/src/widgets/../core/lv_obj_style_gen.h **** 
 367:Drivers/lvgl/lvgl/src/widgets/../core/lv_obj_style_gen.h **** static inline lv_coord_t lv_obj_get_style_line_width(const struct _lv_obj_t * obj, uint32_t part)
 368:Drivers/lvgl/lvgl/src/widgets/../core/lv_obj_style_gen.h **** {
 369:Drivers/lvgl/lvgl/src/widgets/../core/lv_obj_style_gen.h ****     lv_style_value_t v = lv_obj_get_style_prop(obj, part, LV_STYLE_LINE_WIDTH);
 370:Drivers/lvgl/lvgl/src/widgets/../core/lv_obj_style_gen.h ****     return (lv_coord_t)v.num;
 371:Drivers/lvgl/lvgl/src/widgets/../core/lv_obj_style_gen.h **** }
 372:Drivers/lvgl/lvgl/src/widgets/../core/lv_obj_style_gen.h **** 
 373:Drivers/lvgl/lvgl/src/widgets/../core/lv_obj_style_gen.h **** static inline lv_coord_t lv_obj_get_style_line_dash_width(const struct _lv_obj_t * obj, uint32_t pa
 374:Drivers/lvgl/lvgl/src/widgets/../core/lv_obj_style_gen.h **** {
 375:Drivers/lvgl/lvgl/src/widgets/../core/lv_obj_style_gen.h ****     lv_style_value_t v = lv_obj_get_style_prop(obj, part, LV_STYLE_LINE_DASH_WIDTH);
 376:Drivers/lvgl/lvgl/src/widgets/../core/lv_obj_style_gen.h ****     return (lv_coord_t)v.num;
 377:Drivers/lvgl/lvgl/src/widgets/../core/lv_obj_style_gen.h **** }
 378:Drivers/lvgl/lvgl/src/widgets/../core/lv_obj_style_gen.h **** 
 379:Drivers/lvgl/lvgl/src/widgets/../core/lv_obj_style_gen.h **** static inline lv_coord_t lv_obj_get_style_line_dash_gap(const struct _lv_obj_t * obj, uint32_t part
 380:Drivers/lvgl/lvgl/src/widgets/../core/lv_obj_style_gen.h **** {
 381:Drivers/lvgl/lvgl/src/widgets/../core/lv_obj_style_gen.h ****     lv_style_value_t v = lv_obj_get_style_prop(obj, part, LV_STYLE_LINE_DASH_GAP);
 382:Drivers/lvgl/lvgl/src/widgets/../core/lv_obj_style_gen.h ****     return (lv_coord_t)v.num;
ARM GAS  /tmp/ccNaDK0X.s 			page 47


 383:Drivers/lvgl/lvgl/src/widgets/../core/lv_obj_style_gen.h **** }
 384:Drivers/lvgl/lvgl/src/widgets/../core/lv_obj_style_gen.h **** 
 385:Drivers/lvgl/lvgl/src/widgets/../core/lv_obj_style_gen.h **** static inline bool lv_obj_get_style_line_rounded(const struct _lv_obj_t * obj, uint32_t part)
 386:Drivers/lvgl/lvgl/src/widgets/../core/lv_obj_style_gen.h **** {
 387:Drivers/lvgl/lvgl/src/widgets/../core/lv_obj_style_gen.h ****     lv_style_value_t v = lv_obj_get_style_prop(obj, part, LV_STYLE_LINE_ROUNDED);
 388:Drivers/lvgl/lvgl/src/widgets/../core/lv_obj_style_gen.h ****     return (bool)v.num;
 389:Drivers/lvgl/lvgl/src/widgets/../core/lv_obj_style_gen.h **** }
 390:Drivers/lvgl/lvgl/src/widgets/../core/lv_obj_style_gen.h **** 
 391:Drivers/lvgl/lvgl/src/widgets/../core/lv_obj_style_gen.h **** static inline lv_color_t lv_obj_get_style_line_color(const struct _lv_obj_t * obj, uint32_t part)
 392:Drivers/lvgl/lvgl/src/widgets/../core/lv_obj_style_gen.h **** {
 393:Drivers/lvgl/lvgl/src/widgets/../core/lv_obj_style_gen.h ****     lv_style_value_t v = lv_obj_get_style_prop(obj, part, LV_STYLE_LINE_COLOR);
 394:Drivers/lvgl/lvgl/src/widgets/../core/lv_obj_style_gen.h ****     return v.color;
 395:Drivers/lvgl/lvgl/src/widgets/../core/lv_obj_style_gen.h **** }
 396:Drivers/lvgl/lvgl/src/widgets/../core/lv_obj_style_gen.h **** 
 397:Drivers/lvgl/lvgl/src/widgets/../core/lv_obj_style_gen.h **** static inline lv_color_t lv_obj_get_style_line_color_filtered(const struct _lv_obj_t * obj, uint32_
 398:Drivers/lvgl/lvgl/src/widgets/../core/lv_obj_style_gen.h **** {
 399:Drivers/lvgl/lvgl/src/widgets/../core/lv_obj_style_gen.h ****     lv_style_value_t v = _lv_obj_style_apply_color_filter(obj, part, lv_obj_get_style_prop(obj, par
 400:Drivers/lvgl/lvgl/src/widgets/../core/lv_obj_style_gen.h ****     return v.color;
 401:Drivers/lvgl/lvgl/src/widgets/../core/lv_obj_style_gen.h **** }
 402:Drivers/lvgl/lvgl/src/widgets/../core/lv_obj_style_gen.h **** 
 403:Drivers/lvgl/lvgl/src/widgets/../core/lv_obj_style_gen.h **** static inline lv_opa_t lv_obj_get_style_line_opa(const struct _lv_obj_t * obj, uint32_t part)
 404:Drivers/lvgl/lvgl/src/widgets/../core/lv_obj_style_gen.h **** {
 405:Drivers/lvgl/lvgl/src/widgets/../core/lv_obj_style_gen.h ****     lv_style_value_t v = lv_obj_get_style_prop(obj, part, LV_STYLE_LINE_OPA);
 406:Drivers/lvgl/lvgl/src/widgets/../core/lv_obj_style_gen.h ****     return (lv_opa_t)v.num;
 407:Drivers/lvgl/lvgl/src/widgets/../core/lv_obj_style_gen.h **** }
 408:Drivers/lvgl/lvgl/src/widgets/../core/lv_obj_style_gen.h **** 
 409:Drivers/lvgl/lvgl/src/widgets/../core/lv_obj_style_gen.h **** static inline lv_coord_t lv_obj_get_style_arc_width(const struct _lv_obj_t * obj, uint32_t part)
 410:Drivers/lvgl/lvgl/src/widgets/../core/lv_obj_style_gen.h **** {
 411:Drivers/lvgl/lvgl/src/widgets/../core/lv_obj_style_gen.h ****     lv_style_value_t v = lv_obj_get_style_prop(obj, part, LV_STYLE_ARC_WIDTH);
 412:Drivers/lvgl/lvgl/src/widgets/../core/lv_obj_style_gen.h ****     return (lv_coord_t)v.num;
 413:Drivers/lvgl/lvgl/src/widgets/../core/lv_obj_style_gen.h **** }
 414:Drivers/lvgl/lvgl/src/widgets/../core/lv_obj_style_gen.h **** 
 415:Drivers/lvgl/lvgl/src/widgets/../core/lv_obj_style_gen.h **** static inline bool lv_obj_get_style_arc_rounded(const struct _lv_obj_t * obj, uint32_t part)
 416:Drivers/lvgl/lvgl/src/widgets/../core/lv_obj_style_gen.h **** {
 417:Drivers/lvgl/lvgl/src/widgets/../core/lv_obj_style_gen.h ****     lv_style_value_t v = lv_obj_get_style_prop(obj, part, LV_STYLE_ARC_ROUNDED);
 418:Drivers/lvgl/lvgl/src/widgets/../core/lv_obj_style_gen.h ****     return (bool)v.num;
 419:Drivers/lvgl/lvgl/src/widgets/../core/lv_obj_style_gen.h **** }
 420:Drivers/lvgl/lvgl/src/widgets/../core/lv_obj_style_gen.h **** 
 421:Drivers/lvgl/lvgl/src/widgets/../core/lv_obj_style_gen.h **** static inline lv_color_t lv_obj_get_style_arc_color(const struct _lv_obj_t * obj, uint32_t part)
 422:Drivers/lvgl/lvgl/src/widgets/../core/lv_obj_style_gen.h **** {
 423:Drivers/lvgl/lvgl/src/widgets/../core/lv_obj_style_gen.h ****     lv_style_value_t v = lv_obj_get_style_prop(obj, part, LV_STYLE_ARC_COLOR);
 424:Drivers/lvgl/lvgl/src/widgets/../core/lv_obj_style_gen.h ****     return v.color;
 425:Drivers/lvgl/lvgl/src/widgets/../core/lv_obj_style_gen.h **** }
 426:Drivers/lvgl/lvgl/src/widgets/../core/lv_obj_style_gen.h **** 
 427:Drivers/lvgl/lvgl/src/widgets/../core/lv_obj_style_gen.h **** static inline lv_color_t lv_obj_get_style_arc_color_filtered(const struct _lv_obj_t * obj, uint32_t
 428:Drivers/lvgl/lvgl/src/widgets/../core/lv_obj_style_gen.h **** {
 429:Drivers/lvgl/lvgl/src/widgets/../core/lv_obj_style_gen.h ****     lv_style_value_t v = _lv_obj_style_apply_color_filter(obj, part, lv_obj_get_style_prop(obj, par
 430:Drivers/lvgl/lvgl/src/widgets/../core/lv_obj_style_gen.h ****     return v.color;
 431:Drivers/lvgl/lvgl/src/widgets/../core/lv_obj_style_gen.h **** }
 432:Drivers/lvgl/lvgl/src/widgets/../core/lv_obj_style_gen.h **** 
 433:Drivers/lvgl/lvgl/src/widgets/../core/lv_obj_style_gen.h **** static inline lv_opa_t lv_obj_get_style_arc_opa(const struct _lv_obj_t * obj, uint32_t part)
 434:Drivers/lvgl/lvgl/src/widgets/../core/lv_obj_style_gen.h **** {
 435:Drivers/lvgl/lvgl/src/widgets/../core/lv_obj_style_gen.h ****     lv_style_value_t v = lv_obj_get_style_prop(obj, part, LV_STYLE_ARC_OPA);
 436:Drivers/lvgl/lvgl/src/widgets/../core/lv_obj_style_gen.h ****     return (lv_opa_t)v.num;
 437:Drivers/lvgl/lvgl/src/widgets/../core/lv_obj_style_gen.h **** }
 438:Drivers/lvgl/lvgl/src/widgets/../core/lv_obj_style_gen.h **** 
 439:Drivers/lvgl/lvgl/src/widgets/../core/lv_obj_style_gen.h **** static inline const void * lv_obj_get_style_arc_img_src(const struct _lv_obj_t * obj, uint32_t part
ARM GAS  /tmp/ccNaDK0X.s 			page 48


 440:Drivers/lvgl/lvgl/src/widgets/../core/lv_obj_style_gen.h **** {
 441:Drivers/lvgl/lvgl/src/widgets/../core/lv_obj_style_gen.h ****     lv_style_value_t v = lv_obj_get_style_prop(obj, part, LV_STYLE_ARC_IMG_SRC);
 442:Drivers/lvgl/lvgl/src/widgets/../core/lv_obj_style_gen.h ****     return (const void *)v.ptr;
 443:Drivers/lvgl/lvgl/src/widgets/../core/lv_obj_style_gen.h **** }
 444:Drivers/lvgl/lvgl/src/widgets/../core/lv_obj_style_gen.h **** 
 445:Drivers/lvgl/lvgl/src/widgets/../core/lv_obj_style_gen.h **** static inline lv_color_t lv_obj_get_style_text_color(const struct _lv_obj_t * obj, uint32_t part)
 446:Drivers/lvgl/lvgl/src/widgets/../core/lv_obj_style_gen.h **** {
 447:Drivers/lvgl/lvgl/src/widgets/../core/lv_obj_style_gen.h ****     lv_style_value_t v = lv_obj_get_style_prop(obj, part, LV_STYLE_TEXT_COLOR);
 448:Drivers/lvgl/lvgl/src/widgets/../core/lv_obj_style_gen.h ****     return v.color;
 449:Drivers/lvgl/lvgl/src/widgets/../core/lv_obj_style_gen.h **** }
 450:Drivers/lvgl/lvgl/src/widgets/../core/lv_obj_style_gen.h **** 
 451:Drivers/lvgl/lvgl/src/widgets/../core/lv_obj_style_gen.h **** static inline lv_color_t lv_obj_get_style_text_color_filtered(const struct _lv_obj_t * obj, uint32_
 452:Drivers/lvgl/lvgl/src/widgets/../core/lv_obj_style_gen.h **** {
 453:Drivers/lvgl/lvgl/src/widgets/../core/lv_obj_style_gen.h ****     lv_style_value_t v = _lv_obj_style_apply_color_filter(obj, part, lv_obj_get_style_prop(obj, par
 454:Drivers/lvgl/lvgl/src/widgets/../core/lv_obj_style_gen.h ****     return v.color;
 455:Drivers/lvgl/lvgl/src/widgets/../core/lv_obj_style_gen.h **** }
 456:Drivers/lvgl/lvgl/src/widgets/../core/lv_obj_style_gen.h **** 
 457:Drivers/lvgl/lvgl/src/widgets/../core/lv_obj_style_gen.h **** static inline lv_opa_t lv_obj_get_style_text_opa(const struct _lv_obj_t * obj, uint32_t part)
 458:Drivers/lvgl/lvgl/src/widgets/../core/lv_obj_style_gen.h **** {
 459:Drivers/lvgl/lvgl/src/widgets/../core/lv_obj_style_gen.h ****     lv_style_value_t v = lv_obj_get_style_prop(obj, part, LV_STYLE_TEXT_OPA);
 460:Drivers/lvgl/lvgl/src/widgets/../core/lv_obj_style_gen.h ****     return (lv_opa_t)v.num;
 461:Drivers/lvgl/lvgl/src/widgets/../core/lv_obj_style_gen.h **** }
 462:Drivers/lvgl/lvgl/src/widgets/../core/lv_obj_style_gen.h **** 
 463:Drivers/lvgl/lvgl/src/widgets/../core/lv_obj_style_gen.h **** static inline const lv_font_t * lv_obj_get_style_text_font(const struct _lv_obj_t * obj, uint32_t p
 464:Drivers/lvgl/lvgl/src/widgets/../core/lv_obj_style_gen.h **** {
 465:Drivers/lvgl/lvgl/src/widgets/../core/lv_obj_style_gen.h ****     lv_style_value_t v = lv_obj_get_style_prop(obj, part, LV_STYLE_TEXT_FONT);
 1239              		.loc 3 465 0 is_stmt 1
 1240 010a 5722     		movs	r2, #87
 1241 010c 0021     		movs	r1, #0
 1242 010e 2046     		mov	r0, r4
 1243 0110 FFF7FEFF 		bl	lv_obj_get_style_prop
 1244              	.LVL127:
 1245 0114 0746     		mov	r7, r0
 1246              	.LVL128:
 1247              	.LBE82:
 1248              	.LBE81:
 1249              	.LBB83:
 1250              	.LBB84:
 466:Drivers/lvgl/lvgl/src/widgets/../core/lv_obj_style_gen.h ****     return (const lv_font_t *)v.ptr;
 467:Drivers/lvgl/lvgl/src/widgets/../core/lv_obj_style_gen.h **** }
 468:Drivers/lvgl/lvgl/src/widgets/../core/lv_obj_style_gen.h **** 
 469:Drivers/lvgl/lvgl/src/widgets/../core/lv_obj_style_gen.h **** static inline lv_coord_t lv_obj_get_style_text_letter_space(const struct _lv_obj_t * obj, uint32_t 
 470:Drivers/lvgl/lvgl/src/widgets/../core/lv_obj_style_gen.h **** {
 471:Drivers/lvgl/lvgl/src/widgets/../core/lv_obj_style_gen.h ****     lv_style_value_t v = lv_obj_get_style_prop(obj, part, LV_STYLE_TEXT_LETTER_SPACE);
 1251              		.loc 3 471 0
 1252 0116 5822     		movs	r2, #88
 1253 0118 0021     		movs	r1, #0
 1254 011a 2046     		mov	r0, r4
 1255 011c FFF7FEFF 		bl	lv_obj_get_style_prop
 1256              	.LVL129:
 472:Drivers/lvgl/lvgl/src/widgets/../core/lv_obj_style_gen.h ****     return (lv_coord_t)v.num;
 1257              		.loc 3 472 0
 1258 0120 0FFA80F8 		sxth	r8, r0
 1259              	.LVL130:
 1260              	.LBE84:
 1261              	.LBE83:
 1262              	.LBB85:
ARM GAS  /tmp/ccNaDK0X.s 			page 49


 1263              	.LBB86:
 473:Drivers/lvgl/lvgl/src/widgets/../core/lv_obj_style_gen.h **** }
 474:Drivers/lvgl/lvgl/src/widgets/../core/lv_obj_style_gen.h **** 
 475:Drivers/lvgl/lvgl/src/widgets/../core/lv_obj_style_gen.h **** static inline lv_coord_t lv_obj_get_style_text_line_space(const struct _lv_obj_t * obj, uint32_t pa
 476:Drivers/lvgl/lvgl/src/widgets/../core/lv_obj_style_gen.h **** {
 477:Drivers/lvgl/lvgl/src/widgets/../core/lv_obj_style_gen.h ****     lv_style_value_t v = lv_obj_get_style_prop(obj, part, LV_STYLE_TEXT_LINE_SPACE);
 1264              		.loc 3 477 0
 1265 0124 5922     		movs	r2, #89
 1266 0126 0021     		movs	r1, #0
 1267 0128 2046     		mov	r0, r4
 1268 012a FFF7FEFF 		bl	lv_obj_get_style_prop
 1269              	.LVL131:
 478:Drivers/lvgl/lvgl/src/widgets/../core/lv_obj_style_gen.h ****     return (lv_coord_t)v.num;
 1270              		.loc 3 478 0
 1271 012e 00B2     		sxth	r0, r0
 1272              	.LVL132:
 1273              	.LBE86:
 1274              	.LBE85:
 143:Drivers/lvgl/lvgl/src/widgets/lv_img.c ****         header.w = size.x;
 1275              		.loc 1 143 0
 1276 0130 0023     		movs	r3, #0
 1277 0132 0293     		str	r3, [sp, #8]
 1278 0134 41F6FF73 		movw	r3, #8191
 1279 0138 0193     		str	r3, [sp, #4]
 1280 013a 0090     		str	r0, [sp]
 1281 013c 4346     		mov	r3, r8
 1282              	.LVL133:
 1283 013e 3A46     		mov	r2, r7
 1284 0140 2946     		mov	r1, r5
 1285 0142 04A8     		add	r0, sp, #16
 1286 0144 FFF7FEFF 		bl	lv_txt_get_size
 1287              	.LVL134:
 144:Drivers/lvgl/lvgl/src/widgets/lv_img.c ****         header.h = size.y;
 1288              		.loc 1 144 0
 1289 0148 BDF81020 		ldrh	r2, [sp, #16]
 1290 014c 059B     		ldr	r3, [sp, #20]
 1291 014e 62F39423 		bfi	r3, r2, #10, #11
 1292 0152 0593     		str	r3, [sp, #20]
 145:Drivers/lvgl/lvgl/src/widgets/lv_img.c ****     }
 1293              		.loc 1 145 0
 1294 0154 BDF81220 		ldrh	r2, [sp, #18]
 1295 0158 C3F30F43 		ubfx	r3, r3, #16, #16
 1296 015c 62F34F13 		bfi	r3, r2, #5, #11
 1297 0160 ADF81630 		strh	r3, [sp, #22]	@ movhi
 1298 0164 81E7     		b	.L68
 1299              	.LBE80:
 1300              		.cfi_endproc
 1301              	.LFE166:
 1303              		.section	.text.lv_img_event,"ax",%progbits
 1304              		.align	1
 1305              		.syntax unified
 1306              		.thumb
 1307              		.thumb_func
 1308              		.fpu fpv5-d16
 1310              	lv_img_event:
 1311              	.LFB185:
 438:Drivers/lvgl/lvgl/src/widgets/lv_img.c ****     LV_UNUSED(class_p);
ARM GAS  /tmp/ccNaDK0X.s 			page 50


 1312              		.loc 1 438 0
 1313              		.cfi_startproc
 1314              		@ args = 0, pretend = 0, frame = 8
 1315              		@ frame_needed = 0, uses_anonymous_args = 0
 1316              	.LVL135:
 1317 0000 F0B5     		push	{r4, r5, r6, r7, lr}
 1318              	.LCFI14:
 1319              		.cfi_def_cfa_offset 20
 1320              		.cfi_offset 4, -20
 1321              		.cfi_offset 5, -16
 1322              		.cfi_offset 6, -12
 1323              		.cfi_offset 7, -8
 1324              		.cfi_offset 14, -4
 1325 0002 85B0     		sub	sp, sp, #20
 1326              	.LCFI15:
 1327              		.cfi_def_cfa_offset 40
 1328 0004 0D46     		mov	r5, r1
 441:Drivers/lvgl/lvgl/src/widgets/lv_img.c **** 
 1329              		.loc 1 441 0
 1330 0006 0846     		mov	r0, r1
 1331              	.LVL136:
 1332 0008 FFF7FEFF 		bl	lv_event_get_code
 1333              	.LVL137:
 1334 000c 0446     		mov	r4, r0
 1335              	.LVL138:
 444:Drivers/lvgl/lvgl/src/widgets/lv_img.c ****         /*Call the ancestor's event handler*/
 1336              		.loc 1 444 0
 1337 000e 1528     		cmp	r0, #21
 1338 0010 18BF     		it	ne
 1339 0012 1828     		cmpne	r0, #24
 1340 0014 07D0     		beq	.L78
 1341              	.LBB87:
 446:Drivers/lvgl/lvgl/src/widgets/lv_img.c ****         if(res != LV_RES_OK) return;
 1342              		.loc 1 446 0
 1343 0016 2946     		mov	r1, r5
 1344 0018 7648     		ldr	r0, .L103
 1345              	.LVL139:
 1346 001a FFF7FEFF 		bl	lv_obj_event_base
 1347              	.LVL140:
 447:Drivers/lvgl/lvgl/src/widgets/lv_img.c ****     }
 1348              		.loc 1 447 0
 1349 001e 0128     		cmp	r0, #1
 1350 0020 01D0     		beq	.L78
 1351              	.LVL141:
 1352              	.L77:
 1353              	.LBE87:
 517:Drivers/lvgl/lvgl/src/widgets/lv_img.c **** 
 1354              		.loc 1 517 0
 1355 0022 05B0     		add	sp, sp, #20
 1356              	.LCFI16:
 1357              		.cfi_remember_state
 1358              		.cfi_def_cfa_offset 20
 1359              		@ sp needed
 1360 0024 F0BD     		pop	{r4, r5, r6, r7, pc}
 1361              	.LVL142:
 1362              	.L78:
 1363              	.LCFI17:
ARM GAS  /tmp/ccNaDK0X.s 			page 51


 1364              		.cfi_restore_state
 450:Drivers/lvgl/lvgl/src/widgets/lv_img.c ****     lv_img_t * img = (lv_img_t *)obj;
 1365              		.loc 1 450 0
 1366 0026 2846     		mov	r0, r5
 1367 0028 FFF7FEFF 		bl	lv_event_get_target
 1368              	.LVL143:
 1369 002c 0646     		mov	r6, r0
 1370              	.LVL144:
 453:Drivers/lvgl/lvgl/src/widgets/lv_img.c ****         /*Refresh the file name to refresh the symbol text size*/
 1371              		.loc 1 453 0
 1372 002e 2A2C     		cmp	r4, #42
 1373 0030 10D0     		beq	.L93
 463:Drivers/lvgl/lvgl/src/widgets/lv_img.c **** 
 1374              		.loc 1 463 0
 1375 0032 132C     		cmp	r4, #19
 1376 0034 1BD0     		beq	.L94
 479:Drivers/lvgl/lvgl/src/widgets/lv_img.c ****         lv_hit_test_info_t * info = lv_event_get_param(e);
 1377              		.loc 1 479 0
 1378 0036 112C     		cmp	r4, #17
 1379 0038 59D0     		beq	.L95
 504:Drivers/lvgl/lvgl/src/widgets/lv_img.c ****         lv_point_t * p = lv_event_get_param(e);
 1380              		.loc 1 504 0
 1381 003a 2C2C     		cmp	r4, #44
 1382 003c 00F0C180 		beq	.L96
 514:Drivers/lvgl/lvgl/src/widgets/lv_img.c ****         draw_img(e);
 1383              		.loc 1 514 0
 1384 0040 182C     		cmp	r4, #24
 1385 0042 18BF     		it	ne
 1386 0044 152C     		cmpne	r4, #21
 1387 0046 01D0     		beq	.L91
 514:Drivers/lvgl/lvgl/src/widgets/lv_img.c ****         draw_img(e);
 1388              		.loc 1 514 0 is_stmt 0 discriminator 1
 1389 0048 122C     		cmp	r4, #18
 1390 004a EAD1     		bne	.L77
 1391              	.L91:
 515:Drivers/lvgl/lvgl/src/widgets/lv_img.c ****     }
 1392              		.loc 1 515 0 is_stmt 1
 1393 004c 2846     		mov	r0, r5
 1394              	.LVL145:
 1395 004e FFF7FEFF 		bl	draw_img
 1396              	.LVL146:
 1397 0052 E6E7     		b	.L77
 1398              	.LVL147:
 1399              	.L93:
 455:Drivers/lvgl/lvgl/src/widgets/lv_img.c ****             lv_img_set_src(obj, img->src);
 1400              		.loc 1 455 0
 1401 0054 90F83830 		ldrb	r3, [r0, #56]	@ zero_extendqisi2
 1402 0058 03F00303 		and	r3, r3, #3
 1403 005c 022B     		cmp	r3, #2
 1404 005e 02D0     		beq	.L97
 460:Drivers/lvgl/lvgl/src/widgets/lv_img.c ****         }
 1405              		.loc 1 460 0
 1406 0060 FFF7FEFF 		bl	lv_obj_refresh_ext_draw_size
 1407              	.LVL148:
 1408 0064 DDE7     		b	.L77
 1409              	.LVL149:
 1410              	.L97:
ARM GAS  /tmp/ccNaDK0X.s 			page 52


 456:Drivers/lvgl/lvgl/src/widgets/lv_img.c ****         }
 1411              		.loc 1 456 0
 1412 0066 416A     		ldr	r1, [r0, #36]
 1413 0068 FFF7FEFF 		bl	lv_img_set_src
 1414              	.LVL150:
 1415 006c D9E7     		b	.L77
 1416              	.LVL151:
 1417              	.L94:
 1418              	.LBB88:
 465:Drivers/lvgl/lvgl/src/widgets/lv_img.c **** 
 1419              		.loc 1 465 0
 1420 006e 2846     		mov	r0, r5
 1421              	.LVL152:
 1422 0070 FFF7FEFF 		bl	lv_event_get_param
 1423              	.LVL153:
 1424 0074 0446     		mov	r4, r0
 1425              	.LVL154:
 468:Drivers/lvgl/lvgl/src/widgets/lv_img.c ****             lv_area_t a;
 1426              		.loc 1 468 0
 1427 0076 338E     		ldrh	r3, [r6, #48]
 1428 0078 1BB9     		cbnz	r3, .L83
 468:Drivers/lvgl/lvgl/src/widgets/lv_img.c ****             lv_area_t a;
 1429              		.loc 1 468 0 is_stmt 0 discriminator 1
 1430 007a F38E     		ldrh	r3, [r6, #54]
 1431 007c B3F5807F 		cmp	r3, #256
 1432 0080 CFD0     		beq	.L77
 1433              	.L83:
 1434              	.LBB89:
 470:Drivers/lvgl/lvgl/src/widgets/lv_img.c ****             lv_coord_t h = lv_obj_get_height(obj);
 1435              		.loc 1 470 0 is_stmt 1
 1436 0082 3046     		mov	r0, r6
 1437              	.LVL155:
 1438 0084 FFF7FEFF 		bl	lv_obj_get_width
 1439              	.LVL156:
 1440 0088 0746     		mov	r7, r0
 1441              	.LVL157:
 471:Drivers/lvgl/lvgl/src/widgets/lv_img.c ****             _lv_img_buf_get_transformed_area(&a, w, h, img->angle, img->zoom, &img->pivot);
 1442              		.loc 1 471 0
 1443 008a 3046     		mov	r0, r6
 1444 008c FFF7FEFF 		bl	lv_obj_get_height
 1445              	.LVL158:
 1446 0090 0546     		mov	r5, r0
 1447              	.LVL159:
 472:Drivers/lvgl/lvgl/src/widgets/lv_img.c ****             *s = LV_MAX(*s, -a.x1);
 1448              		.loc 1 472 0
 1449 0092 06F13202 		add	r2, r6, #50
 1450 0096 B6F93030 		ldrsh	r3, [r6, #48]
 1451 009a 0192     		str	r2, [sp, #4]
 1452 009c F28E     		ldrh	r2, [r6, #54]
 1453 009e 0092     		str	r2, [sp]
 1454 00a0 0246     		mov	r2, r0
 1455 00a2 3946     		mov	r1, r7
 1456 00a4 02A8     		add	r0, sp, #8
 1457              	.LVL160:
 1458 00a6 FFF7FEFF 		bl	_lv_img_buf_get_transformed_area
 1459              	.LVL161:
 473:Drivers/lvgl/lvgl/src/widgets/lv_img.c ****             *s = LV_MAX(*s, -a.y1);
ARM GAS  /tmp/ccNaDK0X.s 			page 53


 1460              		.loc 1 473 0
 1461 00aa BDF90810 		ldrsh	r1, [sp, #8]
 1462 00ae 4942     		negs	r1, r1
 1463 00b0 B4F90030 		ldrsh	r3, [r4]
 1464 00b4 9942     		cmp	r1, r3
 1465 00b6 B8BF     		it	lt
 1466 00b8 1946     		movlt	r1, r3
 1467 00ba 09B2     		sxth	r1, r1
 1468 00bc 2180     		strh	r1, [r4]	@ movhi
 474:Drivers/lvgl/lvgl/src/widgets/lv_img.c ****             *s = LV_MAX(*s, a.x2 - w);
 1469              		.loc 1 474 0
 1470 00be BDF90A20 		ldrsh	r2, [sp, #10]
 1471 00c2 5342     		negs	r3, r2
 1472 00c4 8B42     		cmp	r3, r1
 1473 00c6 B8BF     		it	lt
 1474 00c8 0B46     		movlt	r3, r1
 1475 00ca 19B2     		sxth	r1, r3
 1476 00cc 2180     		strh	r1, [r4]	@ movhi
 475:Drivers/lvgl/lvgl/src/widgets/lv_img.c ****             *s = LV_MAX(*s, a.y2 - h);
 1477              		.loc 1 475 0
 1478 00ce BDF90C20 		ldrsh	r2, [sp, #12]
 1479 00d2 D31B     		subs	r3, r2, r7
 1480 00d4 8B42     		cmp	r3, r1
 1481 00d6 B8BF     		it	lt
 1482 00d8 0B46     		movlt	r3, r1
 1483 00da 1BB2     		sxth	r3, r3
 1484 00dc 2380     		strh	r3, [r4]	@ movhi
 476:Drivers/lvgl/lvgl/src/widgets/lv_img.c ****         }
 1485              		.loc 1 476 0
 1486 00de BDF90E20 		ldrsh	r2, [sp, #14]
 1487 00e2 551B     		subs	r5, r2, r5
 1488 00e4 AB42     		cmp	r3, r5
 1489 00e6 B8BF     		it	lt
 1490 00e8 2B46     		movlt	r3, r5
 1491 00ea 2380     		strh	r3, [r4]	@ movhi
 1492 00ec 99E7     		b	.L77
 1493              	.LVL162:
 1494              	.L95:
 1495              	.LBE89:
 1496              	.LBE88:
 1497              	.LBB90:
 480:Drivers/lvgl/lvgl/src/widgets/lv_img.c **** 
 1498              		.loc 1 480 0
 1499 00ee 2846     		mov	r0, r5
 1500              	.LVL163:
 1501 00f0 FFF7FEFF 		bl	lv_event_get_param
 1502              	.LVL164:
 1503 00f4 0446     		mov	r4, r0
 1504              	.LVL165:
 484:Drivers/lvgl/lvgl/src/widgets/lv_img.c ****            (img->zoom != LV_IMG_ZOOM_NONE || img->angle != 0 || img->pivot.x != img->w / 2 || img->
 1505              		.loc 1 484 0
 1506 00f6 B6F92C50 		ldrsh	r5, [r6, #44]
 1507              	.LVL166:
 1508 00fa 3046     		mov	r0, r6
 1509              	.LVL167:
 1510 00fc FFF7FEFF 		bl	lv_obj_get_width
 1511              	.LVL168:
ARM GAS  /tmp/ccNaDK0X.s 			page 54


 1512 0100 8542     		cmp	r5, r0
 1513 0102 0AD0     		beq	.L98
 1514              	.L85:
 1515              	.LBB91:
 500:Drivers/lvgl/lvgl/src/widgets/lv_img.c ****             info->res = _lv_area_is_point_on(&a, info->point, 0);
 1516              		.loc 1 500 0 discriminator 6
 1517 0104 02A9     		add	r1, sp, #8
 1518 0106 3046     		mov	r0, r6
 1519 0108 FFF7FEFF 		bl	lv_obj_get_click_area
 1520              	.LVL169:
 501:Drivers/lvgl/lvgl/src/widgets/lv_img.c ****         }
 1521              		.loc 1 501 0 discriminator 6
 1522 010c 0022     		movs	r2, #0
 1523 010e 2168     		ldr	r1, [r4]
 1524 0110 02A8     		add	r0, sp, #8
 1525 0112 FFF7FEFF 		bl	_lv_area_is_point_on
 1526              	.LVL170:
 1527 0116 2071     		strb	r0, [r4, #4]
 1528 0118 83E7     		b	.L77
 1529              	.L98:
 1530              	.LBE91:
 484:Drivers/lvgl/lvgl/src/widgets/lv_img.c ****            (img->zoom != LV_IMG_ZOOM_NONE || img->angle != 0 || img->pivot.x != img->w / 2 || img->
 1531              		.loc 1 484 0 discriminator 1
 1532 011a B6F92E50 		ldrsh	r5, [r6, #46]
 1533 011e 3046     		mov	r0, r6
 1534 0120 FFF7FEFF 		bl	lv_obj_get_height
 1535              	.LVL171:
 1536 0124 8542     		cmp	r5, r0
 1537 0126 EDD1     		bne	.L85
 485:Drivers/lvgl/lvgl/src/widgets/lv_img.c **** 
 1538              		.loc 1 485 0 discriminator 2
 1539 0128 F38E     		ldrh	r3, [r6, #54]
 484:Drivers/lvgl/lvgl/src/widgets/lv_img.c ****            (img->zoom != LV_IMG_ZOOM_NONE || img->angle != 0 || img->pivot.x != img->w / 2 || img->
 1540              		.loc 1 484 0 discriminator 2
 1541 012a B3F5807F 		cmp	r3, #256
 1542 012e 0AD1     		bne	.L86
 485:Drivers/lvgl/lvgl/src/widgets/lv_img.c **** 
 1543              		.loc 1 485 0
 1544 0130 338E     		ldrh	r3, [r6, #48]
 1545 0132 43B9     		cbnz	r3, .L86
 485:Drivers/lvgl/lvgl/src/widgets/lv_img.c **** 
 1546              		.loc 1 485 0 is_stmt 0 discriminator 1
 1547 0134 B6F93220 		ldrsh	r2, [r6, #50]
 1548 0138 B6F92C30 		ldrsh	r3, [r6, #44]
 1549 013c 002B     		cmp	r3, #0
 1550 013e 32DB     		blt	.L99
 1551              	.L87:
 1552 0140 B2EB630F 		cmp	r2, r3, asr #1
 1553 0144 31D0     		beq	.L100
 1554              	.L86:
 1555              	.LBB92:
 487:Drivers/lvgl/lvgl/src/widgets/lv_img.c ****             lv_coord_t h = lv_obj_get_height(obj);
 1556              		.loc 1 487 0 is_stmt 1
 1557 0146 3046     		mov	r0, r6
 1558 0148 FFF7FEFF 		bl	lv_obj_get_width
 1559              	.LVL172:
 1560 014c 0546     		mov	r5, r0
ARM GAS  /tmp/ccNaDK0X.s 			page 55


 1561              	.LVL173:
 488:Drivers/lvgl/lvgl/src/widgets/lv_img.c ****             lv_area_t coords;
 1562              		.loc 1 488 0
 1563 014e 3046     		mov	r0, r6
 1564 0150 FFF7FEFF 		bl	lv_obj_get_height
 1565              	.LVL174:
 490:Drivers/lvgl/lvgl/src/widgets/lv_img.c ****             coords.x1 += obj->coords.x1;
 1566              		.loc 1 490 0
 1567 0154 06F13202 		add	r2, r6, #50
 1568 0158 B6F93030 		ldrsh	r3, [r6, #48]
 1569 015c 0192     		str	r2, [sp, #4]
 1570 015e F28E     		ldrh	r2, [r6, #54]
 1571 0160 0092     		str	r2, [sp]
 1572 0162 0246     		mov	r2, r0
 1573 0164 2946     		mov	r1, r5
 1574 0166 02A8     		add	r0, sp, #8
 1575              	.LVL175:
 1576 0168 FFF7FEFF 		bl	_lv_img_buf_get_transformed_area
 1577              	.LVL176:
 491:Drivers/lvgl/lvgl/src/widgets/lv_img.c ****             coords.y1 += obj->coords.y1;
 1578              		.loc 1 491 0
 1579 016c B28A     		ldrh	r2, [r6, #20]
 1580 016e BDF80830 		ldrh	r3, [sp, #8]
 1581 0172 1344     		add	r3, r3, r2
 1582 0174 ADF80830 		strh	r3, [sp, #8]	@ movhi
 492:Drivers/lvgl/lvgl/src/widgets/lv_img.c ****             coords.x2 += obj->coords.x1;
 1583              		.loc 1 492 0
 1584 0178 F38A     		ldrh	r3, [r6, #22]
 1585 017a BDF80A10 		ldrh	r1, [sp, #10]
 1586 017e 1944     		add	r1, r1, r3
 1587 0180 ADF80A10 		strh	r1, [sp, #10]	@ movhi
 493:Drivers/lvgl/lvgl/src/widgets/lv_img.c ****             coords.y2 += obj->coords.y1;
 1588              		.loc 1 493 0
 1589 0184 BDF80C10 		ldrh	r1, [sp, #12]
 1590 0188 0A44     		add	r2, r2, r1
 1591 018a ADF80C20 		strh	r2, [sp, #12]	@ movhi
 494:Drivers/lvgl/lvgl/src/widgets/lv_img.c **** 
 1592              		.loc 1 494 0
 1593 018e BDF80E20 		ldrh	r2, [sp, #14]
 1594 0192 1344     		add	r3, r3, r2
 1595 0194 ADF80E30 		strh	r3, [sp, #14]	@ movhi
 496:Drivers/lvgl/lvgl/src/widgets/lv_img.c ****         }
 1596              		.loc 1 496 0
 1597 0198 0022     		movs	r2, #0
 1598 019a 2168     		ldr	r1, [r4]
 1599 019c 02A8     		add	r0, sp, #8
 1600 019e FFF7FEFF 		bl	_lv_area_is_point_on
 1601              	.LVL177:
 1602 01a2 2071     		strb	r0, [r4, #4]
 1603              	.LBE92:
 485:Drivers/lvgl/lvgl/src/widgets/lv_img.c **** 
 1604              		.loc 1 485 0
 1605 01a4 3DE7     		b	.L77
 1606              	.LVL178:
 1607              	.L99:
 485:Drivers/lvgl/lvgl/src/widgets/lv_img.c **** 
 1608              		.loc 1 485 0 is_stmt 0 discriminator 1
ARM GAS  /tmp/ccNaDK0X.s 			page 56


 1609 01a6 0133     		adds	r3, r3, #1
 1610 01a8 CAE7     		b	.L87
 1611              	.L100:
 485:Drivers/lvgl/lvgl/src/widgets/lv_img.c **** 
 1612              		.loc 1 485 0 discriminator 2
 1613 01aa B6F93420 		ldrsh	r2, [r6, #52]
 1614 01ae B6F92E30 		ldrsh	r3, [r6, #46]
 1615 01b2 002B     		cmp	r3, #0
 1616 01b4 03DB     		blt	.L101
 1617              	.L88:
 1618 01b6 B2EB630F 		cmp	r2, r3, asr #1
 1619 01ba C4D1     		bne	.L86
 1620 01bc A2E7     		b	.L85
 1621              	.L101:
 1622 01be 0133     		adds	r3, r3, #1
 1623 01c0 F9E7     		b	.L88
 1624              	.LVL179:
 1625              	.L96:
 1626              	.LBE90:
 1627              	.LBB93:
 505:Drivers/lvgl/lvgl/src/widgets/lv_img.c ****         if(img->obj_size_mode == LV_IMG_SIZE_MODE_REAL) {
 1628              		.loc 1 505 0 is_stmt 1
 1629 01c2 2846     		mov	r0, r5
 1630              	.LVL180:
 1631 01c4 FFF7FEFF 		bl	lv_event_get_param
 1632              	.LVL181:
 1633 01c8 0446     		mov	r4, r0
 1634              	.LVL182:
 506:Drivers/lvgl/lvgl/src/widgets/lv_img.c ****             *p = lv_img_get_transformed_size(obj);
 1635              		.loc 1 506 0
 1636 01ca 96F83930 		ldrb	r3, [r6, #57]	@ zero_extendqisi2
 1637 01ce 03F00303 		and	r3, r3, #3
 1638 01d2 012B     		cmp	r3, #1
 1639 01d4 06D0     		beq	.L102
 510:Drivers/lvgl/lvgl/src/widgets/lv_img.c ****             p->y = img->h;
 1640              		.loc 1 510 0
 1641 01d6 B6F92C30 		ldrsh	r3, [r6, #44]
 1642 01da 0380     		strh	r3, [r0]	@ movhi
 511:Drivers/lvgl/lvgl/src/widgets/lv_img.c ****         }
 1643              		.loc 1 511 0
 1644 01dc B6F92E30 		ldrsh	r3, [r6, #46]
 1645 01e0 4380     		strh	r3, [r0, #2]	@ movhi
 1646 01e2 1EE7     		b	.L77
 1647              	.L102:
 507:Drivers/lvgl/lvgl/src/widgets/lv_img.c ****         }
 1648              		.loc 1 507 0
 1649 01e4 3046     		mov	r0, r6
 1650              	.LVL183:
 1651 01e6 FFF7FEFF 		bl	lv_img_get_transformed_size
 1652              	.LVL184:
 1653 01ea 2080     		strh	r0, [r4]	@ movhi
 1654 01ec C0F30F40 		ubfx	r0, r0, #16, #16
 1655 01f0 6080     		strh	r0, [r4, #2]	@ movhi
 1656 01f2 16E7     		b	.L77
 1657              	.L104:
 1658              		.align	2
 1659              	.L103:
ARM GAS  /tmp/ccNaDK0X.s 			page 57


 1660 01f4 00000000 		.word	.LANCHOR0
 1661              	.LBE93:
 1662              		.cfi_endproc
 1663              	.LFE185:
 1665              		.section	.text.lv_img_set_offset_x,"ax",%progbits
 1666              		.align	1
 1667              		.global	lv_img_set_offset_x
 1668              		.syntax unified
 1669              		.thumb
 1670              		.thumb_func
 1671              		.fpu fpv5-d16
 1673              	lv_img_set_offset_x:
 1674              	.LFB167:
 164:Drivers/lvgl/lvgl/src/widgets/lv_img.c ****     LV_ASSERT_OBJ(obj, MY_CLASS);
 1675              		.loc 1 164 0
 1676              		.cfi_startproc
 1677              		@ args = 0, pretend = 0, frame = 0
 1678              		@ frame_needed = 0, uses_anonymous_args = 0
 1679              	.LVL185:
 1680 0000 08B5     		push	{r3, lr}
 1681              	.LCFI18:
 1682              		.cfi_def_cfa_offset 8
 1683              		.cfi_offset 3, -8
 1684              		.cfi_offset 14, -4
 1685              	.LVL186:
 169:Drivers/lvgl/lvgl/src/widgets/lv_img.c ****     lv_obj_invalidate(obj);
 1686              		.loc 1 169 0
 1687 0002 0185     		strh	r1, [r0, #40]	@ movhi
 170:Drivers/lvgl/lvgl/src/widgets/lv_img.c **** }
 1688              		.loc 1 170 0
 1689 0004 FFF7FEFF 		bl	lv_obj_invalidate
 1690              	.LVL187:
 171:Drivers/lvgl/lvgl/src/widgets/lv_img.c **** 
 1691              		.loc 1 171 0
 1692 0008 08BD     		pop	{r3, pc}
 1693              		.cfi_endproc
 1694              	.LFE167:
 1696              		.section	.text.lv_img_set_offset_y,"ax",%progbits
 1697              		.align	1
 1698              		.global	lv_img_set_offset_y
 1699              		.syntax unified
 1700              		.thumb
 1701              		.thumb_func
 1702              		.fpu fpv5-d16
 1704              	lv_img_set_offset_y:
 1705              	.LFB168:
 174:Drivers/lvgl/lvgl/src/widgets/lv_img.c ****     LV_ASSERT_OBJ(obj, MY_CLASS);
 1706              		.loc 1 174 0
 1707              		.cfi_startproc
 1708              		@ args = 0, pretend = 0, frame = 0
 1709              		@ frame_needed = 0, uses_anonymous_args = 0
 1710              	.LVL188:
 1711 0000 08B5     		push	{r3, lr}
 1712              	.LCFI19:
 1713              		.cfi_def_cfa_offset 8
 1714              		.cfi_offset 3, -8
 1715              		.cfi_offset 14, -4
ARM GAS  /tmp/ccNaDK0X.s 			page 58


 1716              	.LVL189:
 179:Drivers/lvgl/lvgl/src/widgets/lv_img.c ****     lv_obj_invalidate(obj);
 1717              		.loc 1 179 0
 1718 0002 4185     		strh	r1, [r0, #42]	@ movhi
 180:Drivers/lvgl/lvgl/src/widgets/lv_img.c **** }
 1719              		.loc 1 180 0
 1720 0004 FFF7FEFF 		bl	lv_obj_invalidate
 1721              	.LVL190:
 181:Drivers/lvgl/lvgl/src/widgets/lv_img.c **** 
 1722              		.loc 1 181 0
 1723 0008 08BD     		pop	{r3, pc}
 1724              		.cfi_endproc
 1725              	.LFE168:
 1727              		.section	.text.lv_img_set_angle,"ax",%progbits
 1728              		.align	1
 1729              		.global	lv_img_set_angle
 1730              		.syntax unified
 1731              		.thumb
 1732              		.thumb_func
 1733              		.fpu fpv5-d16
 1735              	lv_img_set_angle:
 1736              	.LFB169:
 184:Drivers/lvgl/lvgl/src/widgets/lv_img.c ****     while(angle >= 3600) angle -= 3600;
 1737              		.loc 1 184 0
 1738              		.cfi_startproc
 1739              		@ args = 0, pretend = 0, frame = 8
 1740              		@ frame_needed = 0, uses_anonymous_args = 0
 1741              	.LVL191:
 1742 0000 2DE9F041 		push	{r4, r5, r6, r7, r8, lr}
 1743              	.LCFI20:
 1744              		.cfi_def_cfa_offset 24
 1745              		.cfi_offset 4, -24
 1746              		.cfi_offset 5, -20
 1747              		.cfi_offset 6, -16
 1748              		.cfi_offset 7, -12
 1749              		.cfi_offset 8, -8
 1750              		.cfi_offset 14, -4
 1751 0004 84B0     		sub	sp, sp, #16
 1752              	.LCFI21:
 1753              		.cfi_def_cfa_offset 40
 1754 0006 0546     		mov	r5, r0
 1755 0008 0C46     		mov	r4, r1
 185:Drivers/lvgl/lvgl/src/widgets/lv_img.c ****     while(angle < 0) angle += 3600;
 1756              		.loc 1 185 0
 1757 000a 02E0     		b	.L110
 1758              	.LVL192:
 1759              	.L111:
 185:Drivers/lvgl/lvgl/src/widgets/lv_img.c ****     while(angle < 0) angle += 3600;
 1760              		.loc 1 185 0 is_stmt 0 discriminator 2
 1761 000c A4F56164 		sub	r4, r4, #3600
 1762              	.LVL193:
 1763 0010 24B2     		sxth	r4, r4
 1764              	.LVL194:
 1765              	.L110:
 185:Drivers/lvgl/lvgl/src/widgets/lv_img.c ****     while(angle < 0) angle += 3600;
 1766              		.loc 1 185 0 discriminator 1
 1767 0012 B4F5616F 		cmp	r4, #3600
ARM GAS  /tmp/ccNaDK0X.s 			page 59


 1768 0016 F9DA     		bge	.L111
 1769 0018 02E0     		b	.L112
 1770              	.L113:
 186:Drivers/lvgl/lvgl/src/widgets/lv_img.c **** 
 1771              		.loc 1 186 0 is_stmt 1 discriminator 2
 1772 001a 04F56164 		add	r4, r4, #3600
 1773              	.LVL195:
 1774 001e 24B2     		sxth	r4, r4
 1775              	.LVL196:
 1776              	.L112:
 186:Drivers/lvgl/lvgl/src/widgets/lv_img.c **** 
 1777              		.loc 1 186 0 is_stmt 0 discriminator 1
 1778 0020 002C     		cmp	r4, #0
 1779 0022 FADB     		blt	.L113
 1780              	.LVL197:
 189:Drivers/lvgl/lvgl/src/widgets/lv_img.c **** 
 1781              		.loc 1 189 0 is_stmt 1
 1782 0024 2B8E     		ldrh	r3, [r5, #48]
 1783 0026 9C42     		cmp	r4, r3
 1784 0028 02D1     		bne	.L117
 1785              	.LVL198:
 1786              	.L109:
 217:Drivers/lvgl/lvgl/src/widgets/lv_img.c **** 
 1787              		.loc 1 217 0
 1788 002a 04B0     		add	sp, sp, #16
 1789              	.LCFI22:
 1790              		.cfi_remember_state
 1791              		.cfi_def_cfa_offset 24
 1792              		@ sp needed
 1793 002c BDE8F081 		pop	{r4, r5, r6, r7, r8, pc}
 1794              	.LVL199:
 1795              	.L117:
 1796              	.LCFI23:
 1797              		.cfi_restore_state
 191:Drivers/lvgl/lvgl/src/widgets/lv_img.c ****     lv_coord_t w = lv_obj_get_width(obj);
 1798              		.loc 1 191 0
 1799 0030 2846     		mov	r0, r5
 1800              	.LVL200:
 1801 0032 FFF7FEFF 		bl	lv_obj_update_layout
 1802              	.LVL201:
 192:Drivers/lvgl/lvgl/src/widgets/lv_img.c ****     lv_coord_t h = lv_obj_get_height(obj);
 1803              		.loc 1 192 0
 1804 0036 2846     		mov	r0, r5
 1805 0038 FFF7FEFF 		bl	lv_obj_get_width
 1806              	.LVL202:
 1807 003c 8046     		mov	r8, r0
 1808              	.LVL203:
 193:Drivers/lvgl/lvgl/src/widgets/lv_img.c ****     lv_area_t a;
 1809              		.loc 1 193 0
 1810 003e 2846     		mov	r0, r5
 1811 0040 FFF7FEFF 		bl	lv_obj_get_height
 1812              	.LVL204:
 1813 0044 0746     		mov	r7, r0
 1814              	.LVL205:
 195:Drivers/lvgl/lvgl/src/widgets/lv_img.c ****     a.x1 += obj->coords.x1;
 1815              		.loc 1 195 0
 1816 0046 05F13206 		add	r6, r5, #50
ARM GAS  /tmp/ccNaDK0X.s 			page 60


 1817 004a B5F93030 		ldrsh	r3, [r5, #48]
 1818 004e 0196     		str	r6, [sp, #4]
 1819 0050 EA8E     		ldrh	r2, [r5, #54]
 1820 0052 0092     		str	r2, [sp]
 1821 0054 0246     		mov	r2, r0
 1822 0056 4146     		mov	r1, r8
 1823 0058 02A8     		add	r0, sp, #8
 1824              	.LVL206:
 1825 005a FFF7FEFF 		bl	_lv_img_buf_get_transformed_area
 1826              	.LVL207:
 196:Drivers/lvgl/lvgl/src/widgets/lv_img.c ****     a.y1 += obj->coords.y1;
 1827              		.loc 1 196 0
 1828 005e AA8A     		ldrh	r2, [r5, #20]
 1829 0060 BDF80830 		ldrh	r3, [sp, #8]
 1830 0064 1344     		add	r3, r3, r2
 1831 0066 ADF80830 		strh	r3, [sp, #8]	@ movhi
 197:Drivers/lvgl/lvgl/src/widgets/lv_img.c ****     a.x2 += obj->coords.x1;
 1832              		.loc 1 197 0
 1833 006a EB8A     		ldrh	r3, [r5, #22]
 1834 006c BDF80A10 		ldrh	r1, [sp, #10]
 1835 0070 1944     		add	r1, r1, r3
 1836 0072 ADF80A10 		strh	r1, [sp, #10]	@ movhi
 198:Drivers/lvgl/lvgl/src/widgets/lv_img.c ****     a.y2 += obj->coords.y1;
 1837              		.loc 1 198 0
 1838 0076 BDF80C10 		ldrh	r1, [sp, #12]
 1839 007a 0A44     		add	r2, r2, r1
 1840 007c ADF80C20 		strh	r2, [sp, #12]	@ movhi
 199:Drivers/lvgl/lvgl/src/widgets/lv_img.c ****     lv_obj_invalidate_area(obj, &a);
 1841              		.loc 1 199 0
 1842 0080 BDF80E20 		ldrh	r2, [sp, #14]
 1843 0084 1344     		add	r3, r3, r2
 1844 0086 ADF80E30 		strh	r3, [sp, #14]	@ movhi
 200:Drivers/lvgl/lvgl/src/widgets/lv_img.c **** 
 1845              		.loc 1 200 0
 1846 008a 02A9     		add	r1, sp, #8
 1847 008c 2846     		mov	r0, r5
 1848 008e FFF7FEFF 		bl	lv_obj_invalidate_area
 1849              	.LVL208:
 202:Drivers/lvgl/lvgl/src/widgets/lv_img.c **** 
 1850              		.loc 1 202 0
 1851 0092 2C86     		strh	r4, [r5, #48]	@ movhi
 206:Drivers/lvgl/lvgl/src/widgets/lv_img.c ****     lv_disp_enable_invalidation(disp, false);
 1852              		.loc 1 206 0
 1853 0094 2846     		mov	r0, r5
 1854 0096 FFF7FEFF 		bl	lv_obj_get_disp
 1855              	.LVL209:
 1856 009a 0446     		mov	r4, r0
 1857              	.LVL210:
 207:Drivers/lvgl/lvgl/src/widgets/lv_img.c ****     lv_obj_refresh_ext_draw_size(obj);
 1858              		.loc 1 207 0
 1859 009c 0021     		movs	r1, #0
 1860 009e FFF7FEFF 		bl	lv_disp_enable_invalidation
 1861              	.LVL211:
 208:Drivers/lvgl/lvgl/src/widgets/lv_img.c ****     lv_disp_enable_invalidation(disp, true);
 1862              		.loc 1 208 0
 1863 00a2 2846     		mov	r0, r5
 1864 00a4 FFF7FEFF 		bl	lv_obj_refresh_ext_draw_size
ARM GAS  /tmp/ccNaDK0X.s 			page 61


 1865              	.LVL212:
 209:Drivers/lvgl/lvgl/src/widgets/lv_img.c **** 
 1866              		.loc 1 209 0
 1867 00a8 0121     		movs	r1, #1
 1868 00aa 2046     		mov	r0, r4
 1869 00ac FFF7FEFF 		bl	lv_disp_enable_invalidation
 1870              	.LVL213:
 211:Drivers/lvgl/lvgl/src/widgets/lv_img.c ****     a.x1 += obj->coords.x1;
 1871              		.loc 1 211 0
 1872 00b0 B5F93030 		ldrsh	r3, [r5, #48]
 1873 00b4 0196     		str	r6, [sp, #4]
 1874 00b6 EA8E     		ldrh	r2, [r5, #54]
 1875 00b8 0092     		str	r2, [sp]
 1876 00ba 3A46     		mov	r2, r7
 1877 00bc 4146     		mov	r1, r8
 1878 00be 02A8     		add	r0, sp, #8
 1879 00c0 FFF7FEFF 		bl	_lv_img_buf_get_transformed_area
 1880              	.LVL214:
 212:Drivers/lvgl/lvgl/src/widgets/lv_img.c ****     a.y1 += obj->coords.y1;
 1881              		.loc 1 212 0
 1882 00c4 AA8A     		ldrh	r2, [r5, #20]
 1883 00c6 BDF80830 		ldrh	r3, [sp, #8]
 1884 00ca 1344     		add	r3, r3, r2
 1885 00cc ADF80830 		strh	r3, [sp, #8]	@ movhi
 213:Drivers/lvgl/lvgl/src/widgets/lv_img.c ****     a.x2 += obj->coords.x1;
 1886              		.loc 1 213 0
 1887 00d0 EB8A     		ldrh	r3, [r5, #22]
 1888 00d2 BDF80A10 		ldrh	r1, [sp, #10]
 1889 00d6 1944     		add	r1, r1, r3
 1890 00d8 ADF80A10 		strh	r1, [sp, #10]	@ movhi
 214:Drivers/lvgl/lvgl/src/widgets/lv_img.c ****     a.y2 += obj->coords.y1;
 1891              		.loc 1 214 0
 1892 00dc BDF80C10 		ldrh	r1, [sp, #12]
 1893 00e0 0A44     		add	r2, r2, r1
 1894 00e2 ADF80C20 		strh	r2, [sp, #12]	@ movhi
 215:Drivers/lvgl/lvgl/src/widgets/lv_img.c ****     lv_obj_invalidate_area(obj, &a);
 1895              		.loc 1 215 0
 1896 00e6 BDF80E20 		ldrh	r2, [sp, #14]
 1897 00ea 1344     		add	r3, r3, r2
 1898 00ec ADF80E30 		strh	r3, [sp, #14]	@ movhi
 216:Drivers/lvgl/lvgl/src/widgets/lv_img.c **** }
 1899              		.loc 1 216 0
 1900 00f0 02A9     		add	r1, sp, #8
 1901 00f2 2846     		mov	r0, r5
 1902 00f4 FFF7FEFF 		bl	lv_obj_invalidate_area
 1903              	.LVL215:
 1904 00f8 97E7     		b	.L109
 1905              		.cfi_endproc
 1906              	.LFE169:
 1908              		.section	.text.lv_img_set_pivot,"ax",%progbits
 1909              		.align	1
 1910              		.global	lv_img_set_pivot
 1911              		.syntax unified
 1912              		.thumb
 1913              		.thumb_func
 1914              		.fpu fpv5-d16
 1916              	lv_img_set_pivot:
ARM GAS  /tmp/ccNaDK0X.s 			page 62


 1917              	.LFB170:
 220:Drivers/lvgl/lvgl/src/widgets/lv_img.c ****     lv_img_t * img = (lv_img_t *)obj;
 1918              		.loc 1 220 0
 1919              		.cfi_startproc
 1920              		@ args = 0, pretend = 0, frame = 8
 1921              		@ frame_needed = 0, uses_anonymous_args = 0
 1922              	.LVL216:
 222:Drivers/lvgl/lvgl/src/widgets/lv_img.c **** 
 1923              		.loc 1 222 0
 1924 0000 B0F93230 		ldrsh	r3, [r0, #50]
 1925 0004 8B42     		cmp	r3, r1
 1926 0006 03D1     		bne	.L119
 222:Drivers/lvgl/lvgl/src/widgets/lv_img.c **** 
 1927              		.loc 1 222 0 is_stmt 0 discriminator 1
 1928 0008 B0F93430 		ldrsh	r3, [r0, #52]
 1929 000c 9342     		cmp	r3, r2
 1930 000e 6CD0     		beq	.L123
 1931              	.L119:
 220:Drivers/lvgl/lvgl/src/widgets/lv_img.c ****     lv_img_t * img = (lv_img_t *)obj;
 1932              		.loc 1 220 0 is_stmt 1
 1933 0010 2DE9F043 		push	{r4, r5, r6, r7, r8, r9, lr}
 1934              	.LCFI24:
 1935              		.cfi_def_cfa_offset 28
 1936              		.cfi_offset 4, -28
 1937              		.cfi_offset 5, -24
 1938              		.cfi_offset 6, -20
 1939              		.cfi_offset 7, -16
 1940              		.cfi_offset 8, -12
 1941              		.cfi_offset 9, -8
 1942              		.cfi_offset 14, -4
 1943 0014 85B0     		sub	sp, sp, #20
 1944              	.LCFI25:
 1945              		.cfi_def_cfa_offset 48
 1946 0016 1646     		mov	r6, r2
 1947 0018 0D46     		mov	r5, r1
 1948 001a 0446     		mov	r4, r0
 224:Drivers/lvgl/lvgl/src/widgets/lv_img.c ****     lv_coord_t w = lv_obj_get_width(obj);
 1949              		.loc 1 224 0
 1950 001c FFF7FEFF 		bl	lv_obj_update_layout
 1951              	.LVL217:
 225:Drivers/lvgl/lvgl/src/widgets/lv_img.c ****     lv_coord_t h = lv_obj_get_height(obj);
 1952              		.loc 1 225 0
 1953 0020 2046     		mov	r0, r4
 1954 0022 FFF7FEFF 		bl	lv_obj_get_width
 1955              	.LVL218:
 1956 0026 8146     		mov	r9, r0
 1957              	.LVL219:
 226:Drivers/lvgl/lvgl/src/widgets/lv_img.c ****     lv_area_t a;
 1958              		.loc 1 226 0
 1959 0028 2046     		mov	r0, r4
 1960 002a FFF7FEFF 		bl	lv_obj_get_height
 1961              	.LVL220:
 1962 002e 8046     		mov	r8, r0
 1963              	.LVL221:
 228:Drivers/lvgl/lvgl/src/widgets/lv_img.c ****     a.x1 += obj->coords.x1;
 1964              		.loc 1 228 0
 1965 0030 04F13207 		add	r7, r4, #50
ARM GAS  /tmp/ccNaDK0X.s 			page 63


 1966 0034 B4F93030 		ldrsh	r3, [r4, #48]
 1967 0038 0197     		str	r7, [sp, #4]
 1968 003a E28E     		ldrh	r2, [r4, #54]
 1969 003c 0092     		str	r2, [sp]
 1970 003e 0246     		mov	r2, r0
 1971 0040 4946     		mov	r1, r9
 1972 0042 02A8     		add	r0, sp, #8
 1973              	.LVL222:
 1974 0044 FFF7FEFF 		bl	_lv_img_buf_get_transformed_area
 1975              	.LVL223:
 229:Drivers/lvgl/lvgl/src/widgets/lv_img.c ****     a.y1 += obj->coords.y1;
 1976              		.loc 1 229 0
 1977 0048 A28A     		ldrh	r2, [r4, #20]
 1978 004a BDF80830 		ldrh	r3, [sp, #8]
 1979 004e 1344     		add	r3, r3, r2
 1980 0050 ADF80830 		strh	r3, [sp, #8]	@ movhi
 230:Drivers/lvgl/lvgl/src/widgets/lv_img.c ****     a.x2 += obj->coords.x1;
 1981              		.loc 1 230 0
 1982 0054 E38A     		ldrh	r3, [r4, #22]
 1983 0056 BDF80A10 		ldrh	r1, [sp, #10]
 1984 005a 1944     		add	r1, r1, r3
 1985 005c ADF80A10 		strh	r1, [sp, #10]	@ movhi
 231:Drivers/lvgl/lvgl/src/widgets/lv_img.c ****     a.y2 += obj->coords.y1;
 1986              		.loc 1 231 0
 1987 0060 BDF80C10 		ldrh	r1, [sp, #12]
 1988 0064 0A44     		add	r2, r2, r1
 1989 0066 ADF80C20 		strh	r2, [sp, #12]	@ movhi
 232:Drivers/lvgl/lvgl/src/widgets/lv_img.c ****     lv_obj_invalidate_area(obj, &a);
 1990              		.loc 1 232 0
 1991 006a BDF80E20 		ldrh	r2, [sp, #14]
 1992 006e 1344     		add	r3, r3, r2
 1993 0070 ADF80E30 		strh	r3, [sp, #14]	@ movhi
 233:Drivers/lvgl/lvgl/src/widgets/lv_img.c **** 
 1994              		.loc 1 233 0
 1995 0074 02A9     		add	r1, sp, #8
 1996 0076 2046     		mov	r0, r4
 1997 0078 FFF7FEFF 		bl	lv_obj_invalidate_area
 1998              	.LVL224:
 235:Drivers/lvgl/lvgl/src/widgets/lv_img.c ****     img->pivot.y = y;
 1999              		.loc 1 235 0
 2000 007c 6586     		strh	r5, [r4, #50]	@ movhi
 236:Drivers/lvgl/lvgl/src/widgets/lv_img.c **** 
 2001              		.loc 1 236 0
 2002 007e A686     		strh	r6, [r4, #52]	@ movhi
 240:Drivers/lvgl/lvgl/src/widgets/lv_img.c ****     lv_disp_enable_invalidation(disp, false);
 2003              		.loc 1 240 0
 2004 0080 2046     		mov	r0, r4
 2005 0082 FFF7FEFF 		bl	lv_obj_get_disp
 2006              	.LVL225:
 2007 0086 0546     		mov	r5, r0
 2008              	.LVL226:
 241:Drivers/lvgl/lvgl/src/widgets/lv_img.c ****     lv_obj_refresh_ext_draw_size(obj);
 2009              		.loc 1 241 0
 2010 0088 0021     		movs	r1, #0
 2011 008a FFF7FEFF 		bl	lv_disp_enable_invalidation
 2012              	.LVL227:
 242:Drivers/lvgl/lvgl/src/widgets/lv_img.c ****     lv_disp_enable_invalidation(disp, true);
ARM GAS  /tmp/ccNaDK0X.s 			page 64


 2013              		.loc 1 242 0
 2014 008e 2046     		mov	r0, r4
 2015 0090 FFF7FEFF 		bl	lv_obj_refresh_ext_draw_size
 2016              	.LVL228:
 243:Drivers/lvgl/lvgl/src/widgets/lv_img.c **** 
 2017              		.loc 1 243 0
 2018 0094 0121     		movs	r1, #1
 2019 0096 2846     		mov	r0, r5
 2020 0098 FFF7FEFF 		bl	lv_disp_enable_invalidation
 2021              	.LVL229:
 245:Drivers/lvgl/lvgl/src/widgets/lv_img.c ****     a.x1 += obj->coords.x1;
 2022              		.loc 1 245 0
 2023 009c B4F93030 		ldrsh	r3, [r4, #48]
 2024 00a0 0197     		str	r7, [sp, #4]
 2025 00a2 E28E     		ldrh	r2, [r4, #54]
 2026 00a4 0092     		str	r2, [sp]
 2027 00a6 4246     		mov	r2, r8
 2028 00a8 4946     		mov	r1, r9
 2029 00aa 02A8     		add	r0, sp, #8
 2030 00ac FFF7FEFF 		bl	_lv_img_buf_get_transformed_area
 2031              	.LVL230:
 246:Drivers/lvgl/lvgl/src/widgets/lv_img.c ****     a.y1 += obj->coords.y1;
 2032              		.loc 1 246 0
 2033 00b0 A28A     		ldrh	r2, [r4, #20]
 2034 00b2 BDF80830 		ldrh	r3, [sp, #8]
 2035 00b6 1344     		add	r3, r3, r2
 2036 00b8 ADF80830 		strh	r3, [sp, #8]	@ movhi
 247:Drivers/lvgl/lvgl/src/widgets/lv_img.c ****     a.x2 += obj->coords.x1;
 2037              		.loc 1 247 0
 2038 00bc E38A     		ldrh	r3, [r4, #22]
 2039 00be BDF80A10 		ldrh	r1, [sp, #10]
 2040 00c2 1944     		add	r1, r1, r3
 2041 00c4 ADF80A10 		strh	r1, [sp, #10]	@ movhi
 248:Drivers/lvgl/lvgl/src/widgets/lv_img.c ****     a.y2 += obj->coords.y1;
 2042              		.loc 1 248 0
 2043 00c8 BDF80C10 		ldrh	r1, [sp, #12]
 2044 00cc 0A44     		add	r2, r2, r1
 2045 00ce ADF80C20 		strh	r2, [sp, #12]	@ movhi
 249:Drivers/lvgl/lvgl/src/widgets/lv_img.c ****     lv_obj_invalidate_area(obj, &a);
 2046              		.loc 1 249 0
 2047 00d2 BDF80E20 		ldrh	r2, [sp, #14]
 2048 00d6 1344     		add	r3, r3, r2
 2049 00d8 ADF80E30 		strh	r3, [sp, #14]	@ movhi
 250:Drivers/lvgl/lvgl/src/widgets/lv_img.c **** }
 2050              		.loc 1 250 0
 2051 00dc 02A9     		add	r1, sp, #8
 2052 00de 2046     		mov	r0, r4
 2053 00e0 FFF7FEFF 		bl	lv_obj_invalidate_area
 2054              	.LVL231:
 251:Drivers/lvgl/lvgl/src/widgets/lv_img.c **** 
 2055              		.loc 1 251 0
 2056 00e4 05B0     		add	sp, sp, #20
 2057              	.LCFI26:
 2058              		.cfi_def_cfa_offset 28
 2059              		@ sp needed
 2060 00e6 BDE8F083 		pop	{r4, r5, r6, r7, r8, r9, pc}
 2061              	.LVL232:
ARM GAS  /tmp/ccNaDK0X.s 			page 65


 2062              	.L123:
 2063              	.LCFI27:
 2064              		.cfi_def_cfa_offset 0
 2065              		.cfi_restore 4
 2066              		.cfi_restore 5
 2067              		.cfi_restore 6
 2068              		.cfi_restore 7
 2069              		.cfi_restore 8
 2070              		.cfi_restore 9
 2071              		.cfi_restore 14
 2072 00ea 7047     		bx	lr
 2073              		.cfi_endproc
 2074              	.LFE170:
 2076              		.section	.text.lv_img_set_zoom,"ax",%progbits
 2077              		.align	1
 2078              		.global	lv_img_set_zoom
 2079              		.syntax unified
 2080              		.thumb
 2081              		.thumb_func
 2082              		.fpu fpv5-d16
 2084              	lv_img_set_zoom:
 2085              	.LFB171:
 254:Drivers/lvgl/lvgl/src/widgets/lv_img.c ****     lv_img_t * img = (lv_img_t *)obj;
 2086              		.loc 1 254 0
 2087              		.cfi_startproc
 2088              		@ args = 0, pretend = 0, frame = 8
 2089              		@ frame_needed = 0, uses_anonymous_args = 0
 2090              	.LVL233:
 256:Drivers/lvgl/lvgl/src/widgets/lv_img.c **** 
 2091              		.loc 1 256 0
 2092 0000 C38E     		ldrh	r3, [r0, #54]
 2093 0002 8B42     		cmp	r3, r1
 2094 0004 76D0     		beq	.L131
 254:Drivers/lvgl/lvgl/src/widgets/lv_img.c ****     lv_img_t * img = (lv_img_t *)obj;
 2095              		.loc 1 254 0
 2096 0006 2DE9F041 		push	{r4, r5, r6, r7, r8, lr}
 2097              	.LCFI28:
 2098              		.cfi_def_cfa_offset 24
 2099              		.cfi_offset 4, -24
 2100              		.cfi_offset 5, -20
 2101              		.cfi_offset 6, -16
 2102              		.cfi_offset 7, -12
 2103              		.cfi_offset 8, -8
 2104              		.cfi_offset 14, -4
 2105 000a 84B0     		sub	sp, sp, #16
 2106              	.LCFI29:
 2107              		.cfi_def_cfa_offset 40
 2108 000c 0446     		mov	r4, r0
 2109 000e 0D46     		mov	r5, r1
 258:Drivers/lvgl/lvgl/src/widgets/lv_img.c **** 
 2110              		.loc 1 258 0
 2111 0010 01B9     		cbnz	r1, .L127
 2112 0012 0125     		movs	r5, #1
 2113              	.L127:
 2114              	.LVL234:
 260:Drivers/lvgl/lvgl/src/widgets/lv_img.c ****     lv_coord_t w = lv_obj_get_width(obj);
 2115              		.loc 1 260 0
ARM GAS  /tmp/ccNaDK0X.s 			page 66


 2116 0014 2046     		mov	r0, r4
 2117              	.LVL235:
 2118 0016 FFF7FEFF 		bl	lv_obj_update_layout
 2119              	.LVL236:
 261:Drivers/lvgl/lvgl/src/widgets/lv_img.c ****     lv_coord_t h = lv_obj_get_height(obj);
 2120              		.loc 1 261 0
 2121 001a 2046     		mov	r0, r4
 2122 001c FFF7FEFF 		bl	lv_obj_get_width
 2123              	.LVL237:
 2124 0020 8046     		mov	r8, r0
 2125              	.LVL238:
 262:Drivers/lvgl/lvgl/src/widgets/lv_img.c ****     lv_area_t a;
 2126              		.loc 1 262 0
 2127 0022 2046     		mov	r0, r4
 2128 0024 FFF7FEFF 		bl	lv_obj_get_height
 2129              	.LVL239:
 2130 0028 0746     		mov	r7, r0
 2131              	.LVL240:
 264:Drivers/lvgl/lvgl/src/widgets/lv_img.c ****     a.x1 += obj->coords.x1 - 1;
 2132              		.loc 1 264 0
 2133 002a E28E     		ldrh	r2, [r4, #54]
 2134 002c 04F13206 		add	r6, r4, #50
 2135 0030 B4F93030 		ldrsh	r3, [r4, #48]
 2136 0034 0196     		str	r6, [sp, #4]
 2137 0036 120A     		lsrs	r2, r2, #8
 2138 0038 0092     		str	r2, [sp]
 2139 003a 0246     		mov	r2, r0
 2140 003c 4146     		mov	r1, r8
 2141 003e 02A8     		add	r0, sp, #8
 2142              	.LVL241:
 2143 0040 FFF7FEFF 		bl	_lv_img_buf_get_transformed_area
 2144              	.LVL242:
 265:Drivers/lvgl/lvgl/src/widgets/lv_img.c ****     a.y1 += obj->coords.y1 - 1;
 2145              		.loc 1 265 0
 2146 0044 A28A     		ldrh	r2, [r4, #20]
 2147 0046 BDF80830 		ldrh	r3, [sp, #8]
 2148 004a 1344     		add	r3, r3, r2
 2149 004c 013B     		subs	r3, r3, #1
 2150 004e ADF80830 		strh	r3, [sp, #8]	@ movhi
 266:Drivers/lvgl/lvgl/src/widgets/lv_img.c ****     a.x2 += obj->coords.x1 + 1;
 2151              		.loc 1 266 0
 2152 0052 E38A     		ldrh	r3, [r4, #22]
 2153 0054 BDF80A10 		ldrh	r1, [sp, #10]
 2154 0058 1944     		add	r1, r1, r3
 2155 005a 0139     		subs	r1, r1, #1
 2156 005c ADF80A10 		strh	r1, [sp, #10]	@ movhi
 267:Drivers/lvgl/lvgl/src/widgets/lv_img.c ****     a.y2 += obj->coords.y1 + 1;
 2157              		.loc 1 267 0
 2158 0060 BDF80C10 		ldrh	r1, [sp, #12]
 2159 0064 0A44     		add	r2, r2, r1
 2160 0066 0132     		adds	r2, r2, #1
 2161 0068 ADF80C20 		strh	r2, [sp, #12]	@ movhi
 268:Drivers/lvgl/lvgl/src/widgets/lv_img.c ****     lv_obj_invalidate_area(obj, &a);
 2162              		.loc 1 268 0
 2163 006c BDF80E20 		ldrh	r2, [sp, #14]
 2164 0070 1344     		add	r3, r3, r2
 2165 0072 0133     		adds	r3, r3, #1
ARM GAS  /tmp/ccNaDK0X.s 			page 67


 2166 0074 ADF80E30 		strh	r3, [sp, #14]	@ movhi
 269:Drivers/lvgl/lvgl/src/widgets/lv_img.c **** 
 2167              		.loc 1 269 0
 2168 0078 02A9     		add	r1, sp, #8
 2169 007a 2046     		mov	r0, r4
 2170 007c FFF7FEFF 		bl	lv_obj_invalidate_area
 2171              	.LVL243:
 271:Drivers/lvgl/lvgl/src/widgets/lv_img.c **** 
 2172              		.loc 1 271 0
 2173 0080 E586     		strh	r5, [r4, #54]	@ movhi
 275:Drivers/lvgl/lvgl/src/widgets/lv_img.c ****     lv_disp_enable_invalidation(disp, false);
 2174              		.loc 1 275 0
 2175 0082 2046     		mov	r0, r4
 2176 0084 FFF7FEFF 		bl	lv_obj_get_disp
 2177              	.LVL244:
 2178 0088 0546     		mov	r5, r0
 2179              	.LVL245:
 276:Drivers/lvgl/lvgl/src/widgets/lv_img.c ****     lv_obj_refresh_ext_draw_size(obj);
 2180              		.loc 1 276 0
 2181 008a 0021     		movs	r1, #0
 2182 008c FFF7FEFF 		bl	lv_disp_enable_invalidation
 2183              	.LVL246:
 277:Drivers/lvgl/lvgl/src/widgets/lv_img.c ****     lv_disp_enable_invalidation(disp, true);
 2184              		.loc 1 277 0
 2185 0090 2046     		mov	r0, r4
 2186 0092 FFF7FEFF 		bl	lv_obj_refresh_ext_draw_size
 2187              	.LVL247:
 278:Drivers/lvgl/lvgl/src/widgets/lv_img.c **** 
 2188              		.loc 1 278 0
 2189 0096 0121     		movs	r1, #1
 2190 0098 2846     		mov	r0, r5
 2191 009a FFF7FEFF 		bl	lv_disp_enable_invalidation
 2192              	.LVL248:
 280:Drivers/lvgl/lvgl/src/widgets/lv_img.c ****     a.x1 += obj->coords.x1 - 1;
 2193              		.loc 1 280 0
 2194 009e B4F93030 		ldrsh	r3, [r4, #48]
 2195 00a2 0196     		str	r6, [sp, #4]
 2196 00a4 E28E     		ldrh	r2, [r4, #54]
 2197 00a6 0092     		str	r2, [sp]
 2198 00a8 3A46     		mov	r2, r7
 2199 00aa 4146     		mov	r1, r8
 2200 00ac 02A8     		add	r0, sp, #8
 2201 00ae FFF7FEFF 		bl	_lv_img_buf_get_transformed_area
 2202              	.LVL249:
 281:Drivers/lvgl/lvgl/src/widgets/lv_img.c ****     a.y1 += obj->coords.y1 - 1;
 2203              		.loc 1 281 0
 2204 00b2 A28A     		ldrh	r2, [r4, #20]
 2205 00b4 BDF80830 		ldrh	r3, [sp, #8]
 2206 00b8 1344     		add	r3, r3, r2
 2207 00ba 013B     		subs	r3, r3, #1
 2208 00bc ADF80830 		strh	r3, [sp, #8]	@ movhi
 282:Drivers/lvgl/lvgl/src/widgets/lv_img.c ****     a.x2 += obj->coords.x1 + 1;
 2209              		.loc 1 282 0
 2210 00c0 E38A     		ldrh	r3, [r4, #22]
 2211 00c2 BDF80A10 		ldrh	r1, [sp, #10]
 2212 00c6 1944     		add	r1, r1, r3
 2213 00c8 0139     		subs	r1, r1, #1
ARM GAS  /tmp/ccNaDK0X.s 			page 68


 2214 00ca ADF80A10 		strh	r1, [sp, #10]	@ movhi
 283:Drivers/lvgl/lvgl/src/widgets/lv_img.c ****     a.y2 += obj->coords.y1 + 1;
 2215              		.loc 1 283 0
 2216 00ce BDF80C10 		ldrh	r1, [sp, #12]
 2217 00d2 0A44     		add	r2, r2, r1
 2218 00d4 0132     		adds	r2, r2, #1
 2219 00d6 ADF80C20 		strh	r2, [sp, #12]	@ movhi
 284:Drivers/lvgl/lvgl/src/widgets/lv_img.c ****     lv_obj_invalidate_area(obj, &a);
 2220              		.loc 1 284 0
 2221 00da BDF80E20 		ldrh	r2, [sp, #14]
 2222 00de 1344     		add	r3, r3, r2
 2223 00e0 0133     		adds	r3, r3, #1
 2224 00e2 ADF80E30 		strh	r3, [sp, #14]	@ movhi
 285:Drivers/lvgl/lvgl/src/widgets/lv_img.c **** }
 2225              		.loc 1 285 0
 2226 00e6 02A9     		add	r1, sp, #8
 2227 00e8 2046     		mov	r0, r4
 2228 00ea FFF7FEFF 		bl	lv_obj_invalidate_area
 2229              	.LVL250:
 286:Drivers/lvgl/lvgl/src/widgets/lv_img.c **** 
 2230              		.loc 1 286 0
 2231 00ee 04B0     		add	sp, sp, #16
 2232              	.LCFI30:
 2233              		.cfi_def_cfa_offset 24
 2234              		@ sp needed
 2235 00f0 BDE8F081 		pop	{r4, r5, r6, r7, r8, pc}
 2236              	.LVL251:
 2237              	.L131:
 2238              	.LCFI31:
 2239              		.cfi_def_cfa_offset 0
 2240              		.cfi_restore 4
 2241              		.cfi_restore 5
 2242              		.cfi_restore 6
 2243              		.cfi_restore 7
 2244              		.cfi_restore 8
 2245              		.cfi_restore 14
 2246 00f4 7047     		bx	lr
 2247              		.cfi_endproc
 2248              	.LFE171:
 2250              		.section	.text.lv_img_set_antialias,"ax",%progbits
 2251              		.align	1
 2252              		.global	lv_img_set_antialias
 2253              		.syntax unified
 2254              		.thumb
 2255              		.thumb_func
 2256              		.fpu fpv5-d16
 2258              	lv_img_set_antialias:
 2259              	.LFB172:
 289:Drivers/lvgl/lvgl/src/widgets/lv_img.c ****     lv_img_t * img = (lv_img_t *)obj;
 2260              		.loc 1 289 0
 2261              		.cfi_startproc
 2262              		@ args = 0, pretend = 0, frame = 0
 2263              		@ frame_needed = 0, uses_anonymous_args = 0
 2264              	.LVL252:
 2265 0000 08B5     		push	{r3, lr}
 2266              	.LCFI32:
 2267              		.cfi_def_cfa_offset 8
ARM GAS  /tmp/ccNaDK0X.s 			page 69


 2268              		.cfi_offset 3, -8
 2269              		.cfi_offset 14, -4
 2270              	.LVL253:
 291:Drivers/lvgl/lvgl/src/widgets/lv_img.c **** 
 2271              		.loc 1 291 0
 2272 0002 90F83830 		ldrb	r3, [r0, #56]	@ zero_extendqisi2
 2273 0006 B1EBD31F 		cmp	r1, r3, lsr #7
 2274 000a 07D0     		beq	.L134
 293:Drivers/lvgl/lvgl/src/widgets/lv_img.c ****     lv_obj_invalidate(obj);
 2275              		.loc 1 293 0
 2276 000c 90F83830 		ldrb	r3, [r0, #56]	@ zero_extendqisi2
 2277 0010 61F3C713 		bfi	r3, r1, #7, #1
 2278 0014 80F83830 		strb	r3, [r0, #56]
 294:Drivers/lvgl/lvgl/src/widgets/lv_img.c **** }
 2279              		.loc 1 294 0
 2280 0018 FFF7FEFF 		bl	lv_obj_invalidate
 2281              	.LVL254:
 2282              	.L134:
 295:Drivers/lvgl/lvgl/src/widgets/lv_img.c **** 
 2283              		.loc 1 295 0
 2284 001c 08BD     		pop	{r3, pc}
 2285              		.cfi_endproc
 2286              	.LFE172:
 2288              		.section	.text.lv_img_set_size_mode,"ax",%progbits
 2289              		.align	1
 2290              		.global	lv_img_set_size_mode
 2291              		.syntax unified
 2292              		.thumb
 2293              		.thumb_func
 2294              		.fpu fpv5-d16
 2296              	lv_img_set_size_mode:
 2297              	.LFB173:
 298:Drivers/lvgl/lvgl/src/widgets/lv_img.c ****     LV_ASSERT_OBJ(obj, MY_CLASS);
 2298              		.loc 1 298 0
 2299              		.cfi_startproc
 2300              		@ args = 0, pretend = 0, frame = 0
 2301              		@ frame_needed = 0, uses_anonymous_args = 0
 2302              	.LVL255:
 2303 0000 08B5     		push	{r3, lr}
 2304              	.LCFI33:
 2305              		.cfi_def_cfa_offset 8
 2306              		.cfi_offset 3, -8
 2307              		.cfi_offset 14, -4
 2308              	.LVL256:
 301:Drivers/lvgl/lvgl/src/widgets/lv_img.c **** 
 2309              		.loc 1 301 0
 2310 0002 90F83930 		ldrb	r3, [r0, #57]	@ zero_extendqisi2
 2311 0006 03F00303 		and	r3, r3, #3
 2312 000a 8B42     		cmp	r3, r1
 2313 000c 07D0     		beq	.L137
 303:Drivers/lvgl/lvgl/src/widgets/lv_img.c ****     lv_obj_invalidate(obj);
 2314              		.loc 1 303 0
 2315 000e 90F83930 		ldrb	r3, [r0, #57]	@ zero_extendqisi2
 2316 0012 61F30103 		bfi	r3, r1, #0, #2
 2317              	.LVL257:
 2318 0016 80F83930 		strb	r3, [r0, #57]
 304:Drivers/lvgl/lvgl/src/widgets/lv_img.c **** }
ARM GAS  /tmp/ccNaDK0X.s 			page 70


 2319              		.loc 1 304 0
 2320 001a FFF7FEFF 		bl	lv_obj_invalidate
 2321              	.LVL258:
 2322              	.L137:
 305:Drivers/lvgl/lvgl/src/widgets/lv_img.c **** 
 2323              		.loc 1 305 0
 2324 001e 08BD     		pop	{r3, pc}
 2325              		.cfi_endproc
 2326              	.LFE173:
 2328              		.section	.text.lv_img_get_src,"ax",%progbits
 2329              		.align	1
 2330              		.global	lv_img_get_src
 2331              		.syntax unified
 2332              		.thumb
 2333              		.thumb_func
 2334              		.fpu fpv5-d16
 2336              	lv_img_get_src:
 2337              	.LFB174:
 312:Drivers/lvgl/lvgl/src/widgets/lv_img.c ****     LV_ASSERT_OBJ(obj, MY_CLASS);
 2338              		.loc 1 312 0
 2339              		.cfi_startproc
 2340              		@ args = 0, pretend = 0, frame = 0
 2341              		@ frame_needed = 0, uses_anonymous_args = 0
 2342              		@ link register save eliminated.
 2343              	.LVL259:
 318:Drivers/lvgl/lvgl/src/widgets/lv_img.c **** 
 2344              		.loc 1 318 0
 2345 0000 406A     		ldr	r0, [r0, #36]
 2346              	.LVL260:
 2347 0002 7047     		bx	lr
 2348              		.cfi_endproc
 2349              	.LFE174:
 2351              		.section	.text.lv_img_get_offset_x,"ax",%progbits
 2352              		.align	1
 2353              		.global	lv_img_get_offset_x
 2354              		.syntax unified
 2355              		.thumb
 2356              		.thumb_func
 2357              		.fpu fpv5-d16
 2359              	lv_img_get_offset_x:
 2360              	.LFB175:
 321:Drivers/lvgl/lvgl/src/widgets/lv_img.c ****     LV_ASSERT_OBJ(obj, MY_CLASS);
 2361              		.loc 1 321 0
 2362              		.cfi_startproc
 2363              		@ args = 0, pretend = 0, frame = 0
 2364              		@ frame_needed = 0, uses_anonymous_args = 0
 2365              		@ link register save eliminated.
 2366              	.LVL261:
 327:Drivers/lvgl/lvgl/src/widgets/lv_img.c **** 
 2367              		.loc 1 327 0
 2368 0000 B0F92800 		ldrsh	r0, [r0, #40]
 2369              	.LVL262:
 2370 0004 7047     		bx	lr
 2371              		.cfi_endproc
 2372              	.LFE175:
 2374              		.section	.text.lv_img_get_offset_y,"ax",%progbits
 2375              		.align	1
ARM GAS  /tmp/ccNaDK0X.s 			page 71


 2376              		.global	lv_img_get_offset_y
 2377              		.syntax unified
 2378              		.thumb
 2379              		.thumb_func
 2380              		.fpu fpv5-d16
 2382              	lv_img_get_offset_y:
 2383              	.LFB176:
 330:Drivers/lvgl/lvgl/src/widgets/lv_img.c ****     LV_ASSERT_OBJ(obj, MY_CLASS);
 2384              		.loc 1 330 0
 2385              		.cfi_startproc
 2386              		@ args = 0, pretend = 0, frame = 0
 2387              		@ frame_needed = 0, uses_anonymous_args = 0
 2388              		@ link register save eliminated.
 2389              	.LVL263:
 336:Drivers/lvgl/lvgl/src/widgets/lv_img.c **** 
 2390              		.loc 1 336 0
 2391 0000 B0F92A00 		ldrsh	r0, [r0, #42]
 2392              	.LVL264:
 2393 0004 7047     		bx	lr
 2394              		.cfi_endproc
 2395              	.LFE176:
 2397              		.section	.text.lv_img_get_angle,"ax",%progbits
 2398              		.align	1
 2399              		.global	lv_img_get_angle
 2400              		.syntax unified
 2401              		.thumb
 2402              		.thumb_func
 2403              		.fpu fpv5-d16
 2405              	lv_img_get_angle:
 2406              	.LFB177:
 339:Drivers/lvgl/lvgl/src/widgets/lv_img.c ****     LV_ASSERT_OBJ(obj, MY_CLASS);
 2407              		.loc 1 339 0
 2408              		.cfi_startproc
 2409              		@ args = 0, pretend = 0, frame = 0
 2410              		@ frame_needed = 0, uses_anonymous_args = 0
 2411              		@ link register save eliminated.
 2412              	.LVL265:
 345:Drivers/lvgl/lvgl/src/widgets/lv_img.c **** 
 2413              		.loc 1 345 0
 2414 0000 008E     		ldrh	r0, [r0, #48]
 2415              	.LVL266:
 2416 0002 7047     		bx	lr
 2417              		.cfi_endproc
 2418              	.LFE177:
 2420              		.section	.text.lv_img_get_pivot,"ax",%progbits
 2421              		.align	1
 2422              		.global	lv_img_get_pivot
 2423              		.syntax unified
 2424              		.thumb
 2425              		.thumb_func
 2426              		.fpu fpv5-d16
 2428              	lv_img_get_pivot:
 2429              	.LFB178:
 348:Drivers/lvgl/lvgl/src/widgets/lv_img.c ****     LV_ASSERT_OBJ(obj, MY_CLASS);
 2430              		.loc 1 348 0
 2431              		.cfi_startproc
 2432              		@ args = 0, pretend = 0, frame = 0
ARM GAS  /tmp/ccNaDK0X.s 			page 72


 2433              		@ frame_needed = 0, uses_anonymous_args = 0
 2434              		@ link register save eliminated.
 2435              	.LVL267:
 353:Drivers/lvgl/lvgl/src/widgets/lv_img.c **** }
 2436              		.loc 1 353 0
 2437 0000 D0F83230 		ldr	r3, [r0, #50]	@ unaligned
 2438 0004 0B60     		str	r3, [r1]	@ unaligned
 354:Drivers/lvgl/lvgl/src/widgets/lv_img.c **** 
 2439              		.loc 1 354 0
 2440 0006 7047     		bx	lr
 2441              		.cfi_endproc
 2442              	.LFE178:
 2444              		.section	.text.lv_img_get_zoom,"ax",%progbits
 2445              		.align	1
 2446              		.global	lv_img_get_zoom
 2447              		.syntax unified
 2448              		.thumb
 2449              		.thumb_func
 2450              		.fpu fpv5-d16
 2452              	lv_img_get_zoom:
 2453              	.LFB179:
 357:Drivers/lvgl/lvgl/src/widgets/lv_img.c ****     LV_ASSERT_OBJ(obj, MY_CLASS);
 2454              		.loc 1 357 0
 2455              		.cfi_startproc
 2456              		@ args = 0, pretend = 0, frame = 0
 2457              		@ frame_needed = 0, uses_anonymous_args = 0
 2458              		@ link register save eliminated.
 2459              	.LVL268:
 363:Drivers/lvgl/lvgl/src/widgets/lv_img.c **** 
 2460              		.loc 1 363 0
 2461 0000 C08E     		ldrh	r0, [r0, #54]
 2462              	.LVL269:
 2463 0002 7047     		bx	lr
 2464              		.cfi_endproc
 2465              	.LFE179:
 2467              		.section	.text.lv_img_get_antialias,"ax",%progbits
 2468              		.align	1
 2469              		.global	lv_img_get_antialias
 2470              		.syntax unified
 2471              		.thumb
 2472              		.thumb_func
 2473              		.fpu fpv5-d16
 2475              	lv_img_get_antialias:
 2476              	.LFB180:
 366:Drivers/lvgl/lvgl/src/widgets/lv_img.c ****     LV_ASSERT_OBJ(obj, MY_CLASS);
 2477              		.loc 1 366 0
 2478              		.cfi_startproc
 2479              		@ args = 0, pretend = 0, frame = 0
 2480              		@ frame_needed = 0, uses_anonymous_args = 0
 2481              		@ link register save eliminated.
 2482              	.LVL270:
 371:Drivers/lvgl/lvgl/src/widgets/lv_img.c **** }
 2483              		.loc 1 371 0
 2484 0000 90F83800 		ldrb	r0, [r0, #56]	@ zero_extendqisi2
 2485              	.LVL271:
 372:Drivers/lvgl/lvgl/src/widgets/lv_img.c **** 
 2486              		.loc 1 372 0
ARM GAS  /tmp/ccNaDK0X.s 			page 73


 2487 0004 C009     		lsrs	r0, r0, #7
 2488 0006 7047     		bx	lr
 2489              		.cfi_endproc
 2490              	.LFE180:
 2492              		.section	.text.lv_img_get_size_mode,"ax",%progbits
 2493              		.align	1
 2494              		.global	lv_img_get_size_mode
 2495              		.syntax unified
 2496              		.thumb
 2497              		.thumb_func
 2498              		.fpu fpv5-d16
 2500              	lv_img_get_size_mode:
 2501              	.LFB181:
 375:Drivers/lvgl/lvgl/src/widgets/lv_img.c ****     LV_ASSERT_OBJ(obj, MY_CLASS);
 2502              		.loc 1 375 0
 2503              		.cfi_startproc
 2504              		@ args = 0, pretend = 0, frame = 0
 2505              		@ frame_needed = 0, uses_anonymous_args = 0
 2506              		@ link register save eliminated.
 2507              	.LVL272:
 378:Drivers/lvgl/lvgl/src/widgets/lv_img.c **** }
 2508              		.loc 1 378 0
 2509 0000 90F83900 		ldrb	r0, [r0, #57]	@ zero_extendqisi2
 2510              	.LVL273:
 379:Drivers/lvgl/lvgl/src/widgets/lv_img.c **** 
 2511              		.loc 1 379 0
 2512 0004 00F00300 		and	r0, r0, #3
 2513 0008 7047     		bx	lr
 2514              		.cfi_endproc
 2515              	.LFE181:
 2517              		.global	lv_img_class
 2518              		.section	.rodata.lv_img_class,"a",%progbits
 2519              		.align	2
 2520              		.set	.LANCHOR0,. + 0
 2523              	lv_img_class:
 2524 0000 00000000 		.word	lv_obj_class
 2525 0004 00000000 		.word	lv_img_constructor
 2526 0008 00000000 		.word	lv_img_destructor
 2527 000c 00000000 		.space	4
 2528 0010 00000000 		.word	lv_img_event
 2529 0014 D127     		.short	10193
 2530 0016 D127     		.short	10193
 2531 0018 C0       		.byte	192
 2532 0019 03       		.byte	3
 2533 001a 00       		.byte	0
 2534 001b 00       		.space	1
 2535              		.text
 2536              	.Letext0:
 2537              		.file 4 "/opt/gcc-arm-none-eabi-7-2017-q4-major/arm-none-eabi/include/machine/_default_types.h"
 2538              		.file 5 "/opt/gcc-arm-none-eabi-7-2017-q4-major/arm-none-eabi/include/sys/_stdint.h"
 2539              		.file 6 "/opt/gcc-arm-none-eabi-7-2017-q4-major/lib/gcc/arm-none-eabi/7.2.1/include/stddef.h"
 2540              		.file 7 "Drivers/lvgl/lvgl/src/widgets/../core/../misc/../font/lv_font.h"
 2541              		.file 8 "Drivers/lvgl/lvgl/src/widgets/../core/../misc/lv_types.h"
 2542              		.file 9 "/opt/gcc-arm-none-eabi-7-2017-q4-major/arm-none-eabi/include/sys/lock.h"
 2543              		.file 10 "/opt/gcc-arm-none-eabi-7-2017-q4-major/arm-none-eabi/include/sys/_types.h"
 2544              		.file 11 "/opt/gcc-arm-none-eabi-7-2017-q4-major/arm-none-eabi/include/sys/reent.h"
 2545              		.file 12 "Drivers/lvgl/lvgl/src/widgets/../core/../misc/lv_color.h"
ARM GAS  /tmp/ccNaDK0X.s 			page 74


 2546              		.file 13 "Drivers/lvgl/lvgl/src/widgets/../core/../misc/lv_txt.h"
 2547              		.file 14 "Drivers/lvgl/lvgl/src/widgets/../core/../misc/lv_bidi.h"
 2548              		.file 15 "Drivers/lvgl/lvgl/src/widgets/../core/../misc/lv_style.h"
 2549              		.file 16 "Drivers/lvgl/lvgl/src/widgets/../core/../hal/../draw/lv_img_buf.h"
 2550              		.file 17 "Drivers/lvgl/lvgl/src/widgets/../core/../hal/../draw/lv_img_decoder.h"
 2551              		.file 18 "Drivers/lvgl/lvgl/src/widgets/../core/lv_obj.h"
 2552              		.file 19 "Drivers/lvgl/lvgl/src/widgets/../core/../hal/../draw/lv_draw_rect.h"
 2553              		.file 20 "Drivers/lvgl/lvgl/src/widgets/../core/../hal/../draw/lv_draw_label.h"
 2554              		.file 21 "Drivers/lvgl/lvgl/src/widgets/../core/../hal/../draw/lv_draw_img.h"
 2555              		.file 22 "Drivers/lvgl/lvgl/src/widgets/../core/../hal/../draw/lv_draw_line.h"
 2556              		.file 23 "Drivers/lvgl/lvgl/src/widgets/../core/../hal/../draw/lv_draw_arc.h"
 2557              		.file 24 "Drivers/lvgl/lvgl/src/widgets/../core/../hal/../draw/lv_draw_layer.h"
 2558              		.file 25 "Drivers/lvgl/lvgl/src/widgets/../core/../hal/../draw/lv_draw.h"
 2559              		.file 26 "Drivers/lvgl/lvgl/src/widgets/../core/../hal/../misc/lv_ll.h"
 2560              		.file 27 "Drivers/lvgl/lvgl/src/widgets/../core/../hal/../misc/lv_timer.h"
 2561              		.file 28 "Drivers/lvgl/lvgl/src/widgets/../core/../hal/lv_hal_disp.h"
 2562              		.file 29 "Drivers/lvgl/lvgl/src/widgets/../core/lv_theme.h"
 2563              		.file 30 "Drivers/lvgl/lvgl/src/widgets/../core/lv_group.h"
 2564              		.file 31 "Drivers/lvgl/lvgl/src/widgets/../core/lv_obj_scroll.h"
 2565              		.file 32 "Drivers/lvgl/lvgl/src/widgets/../core/lv_obj_style.h"
 2566              		.file 33 "Drivers/lvgl/lvgl/src/widgets/../core/lv_obj_draw.h"
 2567              		.file 34 "Drivers/lvgl/lvgl/src/widgets/../core/lv_obj_class.h"
 2568              		.file 35 "Drivers/lvgl/lvgl/src/widgets/../core/lv_event.h"
 2569              		.file 36 "Drivers/lvgl/lvgl/src/widgets/lv_img.h"
 2570              		.file 37 "Drivers/lvgl/lvgl/src/widgets/../core/../hal/../draw/sw/../../core/lv_obj_pos.h"
 2571              		.file 38 "Drivers/lvgl/lvgl/src/widgets/../core/../misc/lv_mem.h"
 2572              		.file 39 "Drivers/lvgl/lvgl/src/widgets/../core/lv_obj_tree.h"
 2573              		.file 40 "Drivers/lvgl/lvgl/src/widgets/../core/lv_disp.h"
 2574              		.file 41 "/opt/gcc-arm-none-eabi-7-2017-q4-major/arm-none-eabi/include/string.h"
ARM GAS  /tmp/ccNaDK0X.s 			page 75

