ARM GAS  /tmp/cc8EH4Zz.s 			page 1


   1              		.cpu cortex-m7
   2              		.eabi_attribute 28, 1
   3              		.eabi_attribute 20, 1
   4              		.eabi_attribute 21, 1
   5              		.eabi_attribute 23, 3
   6              		.eabi_attribute 24, 1
   7              		.eabi_attribute 25, 1
   8              		.eabi_attribute 26, 1
   9              		.eabi_attribute 30, 1
  10              		.eabi_attribute 34, 1
  11              		.eabi_attribute 18, 4
  12              		.file	"lv_lru.c"
  13              		.text
  14              	.Ltext0:
  15              		.cfi_sections	.debug_frame
  16              		.section	.text.lv_lru_hash,"ax",%progbits
  17              		.align	1
  18              		.syntax unified
  19              		.thumb
  20              		.thumb_func
  21              		.fpu fpv5-d16
  23              	lv_lru_hash:
  24              	.LFB8:
  25              		.file 1 "Drivers/lvgl/lvgl/src/misc/lv_lru.c"
   1:Drivers/lvgl/lvgl/src/misc/lv_lru.c **** /**
   2:Drivers/lvgl/lvgl/src/misc/lv_lru.c ****  * @file lv_lru.c
   3:Drivers/lvgl/lvgl/src/misc/lv_lru.c ****  *
   4:Drivers/lvgl/lvgl/src/misc/lv_lru.c ****  * @see https://github.com/willcannings/C-LRU-Cache
   5:Drivers/lvgl/lvgl/src/misc/lv_lru.c ****  */
   6:Drivers/lvgl/lvgl/src/misc/lv_lru.c **** 
   7:Drivers/lvgl/lvgl/src/misc/lv_lru.c **** /*********************
   8:Drivers/lvgl/lvgl/src/misc/lv_lru.c ****  *      INCLUDES
   9:Drivers/lvgl/lvgl/src/misc/lv_lru.c ****  *********************/
  10:Drivers/lvgl/lvgl/src/misc/lv_lru.c **** 
  11:Drivers/lvgl/lvgl/src/misc/lv_lru.c **** #include "lv_lru.h"
  12:Drivers/lvgl/lvgl/src/misc/lv_lru.c **** #include "lv_math.h"
  13:Drivers/lvgl/lvgl/src/misc/lv_lru.c **** #include "lv_mem.h"
  14:Drivers/lvgl/lvgl/src/misc/lv_lru.c **** #include "lv_assert.h"
  15:Drivers/lvgl/lvgl/src/misc/lv_lru.c **** #include "lv_log.h"
  16:Drivers/lvgl/lvgl/src/misc/lv_lru.c **** 
  17:Drivers/lvgl/lvgl/src/misc/lv_lru.c **** /*********************
  18:Drivers/lvgl/lvgl/src/misc/lv_lru.c ****  *      DEFINES
  19:Drivers/lvgl/lvgl/src/misc/lv_lru.c ****  *********************/
  20:Drivers/lvgl/lvgl/src/misc/lv_lru.c **** 
  21:Drivers/lvgl/lvgl/src/misc/lv_lru.c **** /**********************
  22:Drivers/lvgl/lvgl/src/misc/lv_lru.c ****  *      TYPEDEFS
  23:Drivers/lvgl/lvgl/src/misc/lv_lru.c ****  **********************/
  24:Drivers/lvgl/lvgl/src/misc/lv_lru.c **** 
  25:Drivers/lvgl/lvgl/src/misc/lv_lru.c **** struct _lv_lru_item_t {
  26:Drivers/lvgl/lvgl/src/misc/lv_lru.c ****     void * value;
  27:Drivers/lvgl/lvgl/src/misc/lv_lru.c ****     void * key;
  28:Drivers/lvgl/lvgl/src/misc/lv_lru.c ****     size_t value_length;
  29:Drivers/lvgl/lvgl/src/misc/lv_lru.c ****     size_t key_length;
  30:Drivers/lvgl/lvgl/src/misc/lv_lru.c ****     uint64_t access_count;
  31:Drivers/lvgl/lvgl/src/misc/lv_lru.c ****     struct _lv_lru_item_t * next;
  32:Drivers/lvgl/lvgl/src/misc/lv_lru.c **** };
  33:Drivers/lvgl/lvgl/src/misc/lv_lru.c **** 
ARM GAS  /tmp/cc8EH4Zz.s 			page 2


  34:Drivers/lvgl/lvgl/src/misc/lv_lru.c **** /**********************
  35:Drivers/lvgl/lvgl/src/misc/lv_lru.c ****  *  STATIC PROTOTYPES
  36:Drivers/lvgl/lvgl/src/misc/lv_lru.c ****  **********************/
  37:Drivers/lvgl/lvgl/src/misc/lv_lru.c **** 
  38:Drivers/lvgl/lvgl/src/misc/lv_lru.c **** /**
  39:Drivers/lvgl/lvgl/src/misc/lv_lru.c ****  * MurmurHash2
  40:Drivers/lvgl/lvgl/src/misc/lv_lru.c ****  * @author Austin Appleby
  41:Drivers/lvgl/lvgl/src/misc/lv_lru.c ****  * @see http://sites.google.com/site/murmurhash/
  42:Drivers/lvgl/lvgl/src/misc/lv_lru.c ****  */
  43:Drivers/lvgl/lvgl/src/misc/lv_lru.c **** static uint32_t lv_lru_hash(lv_lru_t * cache, const void * key, uint32_t key_length);
  44:Drivers/lvgl/lvgl/src/misc/lv_lru.c **** 
  45:Drivers/lvgl/lvgl/src/misc/lv_lru.c **** /** compare a key against an existing item's key */
  46:Drivers/lvgl/lvgl/src/misc/lv_lru.c **** static int lv_lru_cmp_keys(lv_lru_item_t * item, const void * key, uint32_t key_length);
  47:Drivers/lvgl/lvgl/src/misc/lv_lru.c **** 
  48:Drivers/lvgl/lvgl/src/misc/lv_lru.c **** /** remove an item and push it to the free items queue */
  49:Drivers/lvgl/lvgl/src/misc/lv_lru.c **** static void lv_lru_remove_item(lv_lru_t * cache, lv_lru_item_t * prev, lv_lru_item_t * item, uint32
  50:Drivers/lvgl/lvgl/src/misc/lv_lru.c **** 
  51:Drivers/lvgl/lvgl/src/misc/lv_lru.c **** /** pop an existing item off the free queue, or create a new one */
  52:Drivers/lvgl/lvgl/src/misc/lv_lru.c **** static lv_lru_item_t * lv_lru_pop_or_create_item(lv_lru_t * cache);
  53:Drivers/lvgl/lvgl/src/misc/lv_lru.c **** 
  54:Drivers/lvgl/lvgl/src/misc/lv_lru.c **** /**********************
  55:Drivers/lvgl/lvgl/src/misc/lv_lru.c ****  *  STATIC VARIABLES
  56:Drivers/lvgl/lvgl/src/misc/lv_lru.c ****  **********************/
  57:Drivers/lvgl/lvgl/src/misc/lv_lru.c **** 
  58:Drivers/lvgl/lvgl/src/misc/lv_lru.c **** /**********************
  59:Drivers/lvgl/lvgl/src/misc/lv_lru.c ****  *      MACROS
  60:Drivers/lvgl/lvgl/src/misc/lv_lru.c ****  **********************/
  61:Drivers/lvgl/lvgl/src/misc/lv_lru.c **** 
  62:Drivers/lvgl/lvgl/src/misc/lv_lru.c **** /* error helpers */
  63:Drivers/lvgl/lvgl/src/misc/lv_lru.c **** #define error_for(conditions, error)  if(conditions) {return error;}
  64:Drivers/lvgl/lvgl/src/misc/lv_lru.c **** #define test_for_missing_cache()      error_for(!cache, LV_LRU_MISSING_CACHE)
  65:Drivers/lvgl/lvgl/src/misc/lv_lru.c **** #define test_for_missing_key()        error_for(!key, LV_LRU_MISSING_KEY)
  66:Drivers/lvgl/lvgl/src/misc/lv_lru.c **** #define test_for_missing_value()      error_for(!value || value_length == 0, LV_LRU_MISSING_VALUE)
  67:Drivers/lvgl/lvgl/src/misc/lv_lru.c **** #define test_for_value_too_large()    error_for(value_length > cache->total_memory, LV_LRU_VALUE_TO
  68:Drivers/lvgl/lvgl/src/misc/lv_lru.c **** 
  69:Drivers/lvgl/lvgl/src/misc/lv_lru.c **** /**********************
  70:Drivers/lvgl/lvgl/src/misc/lv_lru.c ****  *   GLOBAL FUNCTIONS
  71:Drivers/lvgl/lvgl/src/misc/lv_lru.c ****  **********************/
  72:Drivers/lvgl/lvgl/src/misc/lv_lru.c **** 
  73:Drivers/lvgl/lvgl/src/misc/lv_lru.c **** lv_lru_t * lv_lru_create(size_t cache_size, size_t average_length, lv_lru_free_t * value_free,
  74:Drivers/lvgl/lvgl/src/misc/lv_lru.c ****                          lv_lru_free_t * key_free)
  75:Drivers/lvgl/lvgl/src/misc/lv_lru.c **** {
  76:Drivers/lvgl/lvgl/src/misc/lv_lru.c ****     // create the cache
  77:Drivers/lvgl/lvgl/src/misc/lv_lru.c ****     lv_lru_t * cache = (lv_lru_t *) lv_mem_alloc(sizeof(lv_lru_t));
  78:Drivers/lvgl/lvgl/src/misc/lv_lru.c ****     lv_memset_00(cache, sizeof(lv_lru_t));
  79:Drivers/lvgl/lvgl/src/misc/lv_lru.c ****     if(!cache) {
  80:Drivers/lvgl/lvgl/src/misc/lv_lru.c ****         LV_LOG_WARN("LRU Cache unable to create cache object");
  81:Drivers/lvgl/lvgl/src/misc/lv_lru.c ****         return NULL;
  82:Drivers/lvgl/lvgl/src/misc/lv_lru.c ****     }
  83:Drivers/lvgl/lvgl/src/misc/lv_lru.c ****     cache->hash_table_size = cache_size / average_length;
  84:Drivers/lvgl/lvgl/src/misc/lv_lru.c ****     cache->average_item_length = average_length;
  85:Drivers/lvgl/lvgl/src/misc/lv_lru.c ****     cache->free_memory = cache_size;
  86:Drivers/lvgl/lvgl/src/misc/lv_lru.c ****     cache->total_memory = cache_size;
  87:Drivers/lvgl/lvgl/src/misc/lv_lru.c ****     cache->seed = lv_rand(1, UINT32_MAX);
  88:Drivers/lvgl/lvgl/src/misc/lv_lru.c ****     cache->value_free = value_free ? value_free : lv_mem_free;
  89:Drivers/lvgl/lvgl/src/misc/lv_lru.c ****     cache->key_free = key_free ? key_free : lv_mem_free;
  90:Drivers/lvgl/lvgl/src/misc/lv_lru.c **** 
ARM GAS  /tmp/cc8EH4Zz.s 			page 3


  91:Drivers/lvgl/lvgl/src/misc/lv_lru.c ****     // size the hash table to a guestimate of the number of slots required (assuming a perfect hash
  92:Drivers/lvgl/lvgl/src/misc/lv_lru.c ****     cache->items = (lv_lru_item_t **) lv_mem_alloc(sizeof(lv_lru_item_t *) * cache->hash_table_size
  93:Drivers/lvgl/lvgl/src/misc/lv_lru.c ****     lv_memset_00(cache->items, sizeof(lv_lru_item_t *) * cache->hash_table_size);
  94:Drivers/lvgl/lvgl/src/misc/lv_lru.c ****     if(!cache->items) {
  95:Drivers/lvgl/lvgl/src/misc/lv_lru.c ****         LV_LOG_WARN("LRU Cache unable to create cache hash table");
  96:Drivers/lvgl/lvgl/src/misc/lv_lru.c ****         lv_mem_free(cache);
  97:Drivers/lvgl/lvgl/src/misc/lv_lru.c ****         return NULL;
  98:Drivers/lvgl/lvgl/src/misc/lv_lru.c ****     }
  99:Drivers/lvgl/lvgl/src/misc/lv_lru.c ****     return cache;
 100:Drivers/lvgl/lvgl/src/misc/lv_lru.c **** }
 101:Drivers/lvgl/lvgl/src/misc/lv_lru.c **** 
 102:Drivers/lvgl/lvgl/src/misc/lv_lru.c **** 
 103:Drivers/lvgl/lvgl/src/misc/lv_lru.c **** void lv_lru_del(lv_lru_t * cache)
 104:Drivers/lvgl/lvgl/src/misc/lv_lru.c **** {
 105:Drivers/lvgl/lvgl/src/misc/lv_lru.c ****     LV_ASSERT_NULL(cache);
 106:Drivers/lvgl/lvgl/src/misc/lv_lru.c **** 
 107:Drivers/lvgl/lvgl/src/misc/lv_lru.c ****     // free each of the cached items, and the hash table
 108:Drivers/lvgl/lvgl/src/misc/lv_lru.c ****     lv_lru_item_t * item = NULL, *next = NULL;
 109:Drivers/lvgl/lvgl/src/misc/lv_lru.c ****     uint32_t i = 0;
 110:Drivers/lvgl/lvgl/src/misc/lv_lru.c ****     if(cache->items) {
 111:Drivers/lvgl/lvgl/src/misc/lv_lru.c ****         for(; i < cache->hash_table_size; i++) {
 112:Drivers/lvgl/lvgl/src/misc/lv_lru.c ****             item = cache->items[i];
 113:Drivers/lvgl/lvgl/src/misc/lv_lru.c ****             while(item) {
 114:Drivers/lvgl/lvgl/src/misc/lv_lru.c ****                 next = (lv_lru_item_t *) item->next;
 115:Drivers/lvgl/lvgl/src/misc/lv_lru.c ****                 cache->value_free(item->value);
 116:Drivers/lvgl/lvgl/src/misc/lv_lru.c ****                 cache->key_free(item->key);
 117:Drivers/lvgl/lvgl/src/misc/lv_lru.c ****                 cache->free_memory += item->value_length;
 118:Drivers/lvgl/lvgl/src/misc/lv_lru.c ****                 lv_mem_free(item);
 119:Drivers/lvgl/lvgl/src/misc/lv_lru.c ****                 item = next;
 120:Drivers/lvgl/lvgl/src/misc/lv_lru.c ****             }
 121:Drivers/lvgl/lvgl/src/misc/lv_lru.c ****         }
 122:Drivers/lvgl/lvgl/src/misc/lv_lru.c ****         lv_mem_free(cache->items);
 123:Drivers/lvgl/lvgl/src/misc/lv_lru.c ****     }
 124:Drivers/lvgl/lvgl/src/misc/lv_lru.c **** 
 125:Drivers/lvgl/lvgl/src/misc/lv_lru.c ****     if(cache->free_items) {
 126:Drivers/lvgl/lvgl/src/misc/lv_lru.c ****         item = cache->free_items;
 127:Drivers/lvgl/lvgl/src/misc/lv_lru.c ****         while(item) {
 128:Drivers/lvgl/lvgl/src/misc/lv_lru.c ****             next = (lv_lru_item_t *) item->next;
 129:Drivers/lvgl/lvgl/src/misc/lv_lru.c ****             lv_mem_free(item);
 130:Drivers/lvgl/lvgl/src/misc/lv_lru.c ****             item = next;
 131:Drivers/lvgl/lvgl/src/misc/lv_lru.c ****         }
 132:Drivers/lvgl/lvgl/src/misc/lv_lru.c ****     }
 133:Drivers/lvgl/lvgl/src/misc/lv_lru.c **** 
 134:Drivers/lvgl/lvgl/src/misc/lv_lru.c ****     // free the cache
 135:Drivers/lvgl/lvgl/src/misc/lv_lru.c ****     lv_mem_free(cache);
 136:Drivers/lvgl/lvgl/src/misc/lv_lru.c **** }
 137:Drivers/lvgl/lvgl/src/misc/lv_lru.c **** 
 138:Drivers/lvgl/lvgl/src/misc/lv_lru.c **** 
 139:Drivers/lvgl/lvgl/src/misc/lv_lru.c **** lv_lru_res_t lv_lru_set(lv_lru_t * cache, const void * key, size_t key_length, void * value, size_t
 140:Drivers/lvgl/lvgl/src/misc/lv_lru.c **** {
 141:Drivers/lvgl/lvgl/src/misc/lv_lru.c ****     test_for_missing_cache();
 142:Drivers/lvgl/lvgl/src/misc/lv_lru.c ****     test_for_missing_key();
 143:Drivers/lvgl/lvgl/src/misc/lv_lru.c ****     test_for_missing_value();
 144:Drivers/lvgl/lvgl/src/misc/lv_lru.c ****     test_for_value_too_large();
 145:Drivers/lvgl/lvgl/src/misc/lv_lru.c **** 
 146:Drivers/lvgl/lvgl/src/misc/lv_lru.c ****     // see if the key already exists
 147:Drivers/lvgl/lvgl/src/misc/lv_lru.c ****     uint32_t hash_index = lv_lru_hash(cache, key, key_length);
ARM GAS  /tmp/cc8EH4Zz.s 			page 4


 148:Drivers/lvgl/lvgl/src/misc/lv_lru.c ****     int required = 0;
 149:Drivers/lvgl/lvgl/src/misc/lv_lru.c ****     lv_lru_item_t * item = NULL, *prev = NULL;
 150:Drivers/lvgl/lvgl/src/misc/lv_lru.c ****     item = cache->items[hash_index];
 151:Drivers/lvgl/lvgl/src/misc/lv_lru.c **** 
 152:Drivers/lvgl/lvgl/src/misc/lv_lru.c ****     while(item && lv_lru_cmp_keys(item, key, key_length)) {
 153:Drivers/lvgl/lvgl/src/misc/lv_lru.c ****         prev = item;
 154:Drivers/lvgl/lvgl/src/misc/lv_lru.c ****         item = (lv_lru_item_t *) item->next;
 155:Drivers/lvgl/lvgl/src/misc/lv_lru.c ****     }
 156:Drivers/lvgl/lvgl/src/misc/lv_lru.c **** 
 157:Drivers/lvgl/lvgl/src/misc/lv_lru.c ****     if(item) {
 158:Drivers/lvgl/lvgl/src/misc/lv_lru.c ****         // update the value and value_lengths
 159:Drivers/lvgl/lvgl/src/misc/lv_lru.c ****         required = (int)(value_length - item->value_length);
 160:Drivers/lvgl/lvgl/src/misc/lv_lru.c ****         cache->value_free(item->value);
 161:Drivers/lvgl/lvgl/src/misc/lv_lru.c ****         item->value = value;
 162:Drivers/lvgl/lvgl/src/misc/lv_lru.c ****         item->value_length = value_length;
 163:Drivers/lvgl/lvgl/src/misc/lv_lru.c **** 
 164:Drivers/lvgl/lvgl/src/misc/lv_lru.c ****     }
 165:Drivers/lvgl/lvgl/src/misc/lv_lru.c ****     else {
 166:Drivers/lvgl/lvgl/src/misc/lv_lru.c ****         // insert a new item
 167:Drivers/lvgl/lvgl/src/misc/lv_lru.c ****         item = lv_lru_pop_or_create_item(cache);
 168:Drivers/lvgl/lvgl/src/misc/lv_lru.c ****         item->value = value;
 169:Drivers/lvgl/lvgl/src/misc/lv_lru.c ****         item->key = lv_mem_alloc(key_length);
 170:Drivers/lvgl/lvgl/src/misc/lv_lru.c ****         memcpy(item->key, key, key_length);
 171:Drivers/lvgl/lvgl/src/misc/lv_lru.c ****         item->value_length = value_length;
 172:Drivers/lvgl/lvgl/src/misc/lv_lru.c ****         item->key_length = key_length;
 173:Drivers/lvgl/lvgl/src/misc/lv_lru.c ****         required = (int) value_length;
 174:Drivers/lvgl/lvgl/src/misc/lv_lru.c **** 
 175:Drivers/lvgl/lvgl/src/misc/lv_lru.c ****         if(prev)
 176:Drivers/lvgl/lvgl/src/misc/lv_lru.c ****             prev->next = item;
 177:Drivers/lvgl/lvgl/src/misc/lv_lru.c ****         else
 178:Drivers/lvgl/lvgl/src/misc/lv_lru.c ****             cache->items[hash_index] = item;
 179:Drivers/lvgl/lvgl/src/misc/lv_lru.c ****     }
 180:Drivers/lvgl/lvgl/src/misc/lv_lru.c ****     item->access_count = ++cache->access_count;
 181:Drivers/lvgl/lvgl/src/misc/lv_lru.c **** 
 182:Drivers/lvgl/lvgl/src/misc/lv_lru.c ****     // remove as many items as necessary to free enough space
 183:Drivers/lvgl/lvgl/src/misc/lv_lru.c ****     if(required > 0 && (size_t) required > cache->free_memory) {
 184:Drivers/lvgl/lvgl/src/misc/lv_lru.c ****         while(cache->free_memory < (size_t) required)
 185:Drivers/lvgl/lvgl/src/misc/lv_lru.c ****             lv_lru_remove_lru_item(cache);
 186:Drivers/lvgl/lvgl/src/misc/lv_lru.c ****     }
 187:Drivers/lvgl/lvgl/src/misc/lv_lru.c ****     cache->free_memory -= required;
 188:Drivers/lvgl/lvgl/src/misc/lv_lru.c ****     return LV_LRU_OK;
 189:Drivers/lvgl/lvgl/src/misc/lv_lru.c **** }
 190:Drivers/lvgl/lvgl/src/misc/lv_lru.c **** 
 191:Drivers/lvgl/lvgl/src/misc/lv_lru.c **** 
 192:Drivers/lvgl/lvgl/src/misc/lv_lru.c **** lv_lru_res_t lv_lru_get(lv_lru_t * cache, const void * key, size_t key_size, void ** value)
 193:Drivers/lvgl/lvgl/src/misc/lv_lru.c **** {
 194:Drivers/lvgl/lvgl/src/misc/lv_lru.c ****     test_for_missing_cache();
 195:Drivers/lvgl/lvgl/src/misc/lv_lru.c ****     test_for_missing_key();
 196:Drivers/lvgl/lvgl/src/misc/lv_lru.c **** 
 197:Drivers/lvgl/lvgl/src/misc/lv_lru.c ****     // loop until we find the item, or hit the end of a chain
 198:Drivers/lvgl/lvgl/src/misc/lv_lru.c ****     uint32_t hash_index = lv_lru_hash(cache, key, key_size);
 199:Drivers/lvgl/lvgl/src/misc/lv_lru.c ****     lv_lru_item_t * item = cache->items[hash_index];
 200:Drivers/lvgl/lvgl/src/misc/lv_lru.c **** 
 201:Drivers/lvgl/lvgl/src/misc/lv_lru.c ****     while(item && lv_lru_cmp_keys(item, key, key_size))
 202:Drivers/lvgl/lvgl/src/misc/lv_lru.c ****         item = (lv_lru_item_t *) item->next;
 203:Drivers/lvgl/lvgl/src/misc/lv_lru.c **** 
 204:Drivers/lvgl/lvgl/src/misc/lv_lru.c ****     if(item) {
ARM GAS  /tmp/cc8EH4Zz.s 			page 5


 205:Drivers/lvgl/lvgl/src/misc/lv_lru.c ****         *value = item->value;
 206:Drivers/lvgl/lvgl/src/misc/lv_lru.c ****         item->access_count = ++cache->access_count;
 207:Drivers/lvgl/lvgl/src/misc/lv_lru.c ****     }
 208:Drivers/lvgl/lvgl/src/misc/lv_lru.c ****     else {
 209:Drivers/lvgl/lvgl/src/misc/lv_lru.c ****         *value = NULL;
 210:Drivers/lvgl/lvgl/src/misc/lv_lru.c ****     }
 211:Drivers/lvgl/lvgl/src/misc/lv_lru.c **** 
 212:Drivers/lvgl/lvgl/src/misc/lv_lru.c ****     return LV_LRU_OK;
 213:Drivers/lvgl/lvgl/src/misc/lv_lru.c **** }
 214:Drivers/lvgl/lvgl/src/misc/lv_lru.c **** 
 215:Drivers/lvgl/lvgl/src/misc/lv_lru.c **** lv_lru_res_t lv_lru_remove(lv_lru_t * cache, const void * key, size_t key_size)
 216:Drivers/lvgl/lvgl/src/misc/lv_lru.c **** {
 217:Drivers/lvgl/lvgl/src/misc/lv_lru.c ****     test_for_missing_cache();
 218:Drivers/lvgl/lvgl/src/misc/lv_lru.c ****     test_for_missing_key();
 219:Drivers/lvgl/lvgl/src/misc/lv_lru.c **** 
 220:Drivers/lvgl/lvgl/src/misc/lv_lru.c ****     // loop until we find the item, or hit the end of a chain
 221:Drivers/lvgl/lvgl/src/misc/lv_lru.c ****     lv_lru_item_t * item = NULL, *prev = NULL;
 222:Drivers/lvgl/lvgl/src/misc/lv_lru.c ****     uint32_t hash_index = lv_lru_hash(cache, key, key_size);
 223:Drivers/lvgl/lvgl/src/misc/lv_lru.c ****     item = cache->items[hash_index];
 224:Drivers/lvgl/lvgl/src/misc/lv_lru.c **** 
 225:Drivers/lvgl/lvgl/src/misc/lv_lru.c ****     while(item && lv_lru_cmp_keys(item, key, key_size)) {
 226:Drivers/lvgl/lvgl/src/misc/lv_lru.c ****         prev = item;
 227:Drivers/lvgl/lvgl/src/misc/lv_lru.c ****         item = (lv_lru_item_t *) item->next;
 228:Drivers/lvgl/lvgl/src/misc/lv_lru.c ****     }
 229:Drivers/lvgl/lvgl/src/misc/lv_lru.c **** 
 230:Drivers/lvgl/lvgl/src/misc/lv_lru.c ****     if(item) {
 231:Drivers/lvgl/lvgl/src/misc/lv_lru.c ****         lv_lru_remove_item(cache, prev, item, hash_index);
 232:Drivers/lvgl/lvgl/src/misc/lv_lru.c ****     }
 233:Drivers/lvgl/lvgl/src/misc/lv_lru.c **** 
 234:Drivers/lvgl/lvgl/src/misc/lv_lru.c ****     return LV_LRU_OK;
 235:Drivers/lvgl/lvgl/src/misc/lv_lru.c **** }
 236:Drivers/lvgl/lvgl/src/misc/lv_lru.c **** 
 237:Drivers/lvgl/lvgl/src/misc/lv_lru.c **** void lv_lru_remove_lru_item(lv_lru_t * cache)
 238:Drivers/lvgl/lvgl/src/misc/lv_lru.c **** {
 239:Drivers/lvgl/lvgl/src/misc/lv_lru.c ****     lv_lru_item_t * min_item = NULL, *min_prev = NULL;
 240:Drivers/lvgl/lvgl/src/misc/lv_lru.c ****     lv_lru_item_t * item = NULL, *prev = NULL;
 241:Drivers/lvgl/lvgl/src/misc/lv_lru.c ****     uint32_t i = 0, min_index = -1;
 242:Drivers/lvgl/lvgl/src/misc/lv_lru.c ****     uint64_t min_access_count = -1;
 243:Drivers/lvgl/lvgl/src/misc/lv_lru.c **** 
 244:Drivers/lvgl/lvgl/src/misc/lv_lru.c ****     for(; i < cache->hash_table_size; i++) {
 245:Drivers/lvgl/lvgl/src/misc/lv_lru.c ****         item = cache->items[i];
 246:Drivers/lvgl/lvgl/src/misc/lv_lru.c ****         prev = NULL;
 247:Drivers/lvgl/lvgl/src/misc/lv_lru.c **** 
 248:Drivers/lvgl/lvgl/src/misc/lv_lru.c ****         while(item) {
 249:Drivers/lvgl/lvgl/src/misc/lv_lru.c ****             if(item->access_count < min_access_count || (int64_t) min_access_count == -1) {
 250:Drivers/lvgl/lvgl/src/misc/lv_lru.c ****                 min_access_count = item->access_count;
 251:Drivers/lvgl/lvgl/src/misc/lv_lru.c ****                 min_item = item;
 252:Drivers/lvgl/lvgl/src/misc/lv_lru.c ****                 min_prev = prev;
 253:Drivers/lvgl/lvgl/src/misc/lv_lru.c ****                 min_index = i;
 254:Drivers/lvgl/lvgl/src/misc/lv_lru.c ****             }
 255:Drivers/lvgl/lvgl/src/misc/lv_lru.c ****             prev = item;
 256:Drivers/lvgl/lvgl/src/misc/lv_lru.c ****             item = item->next;
 257:Drivers/lvgl/lvgl/src/misc/lv_lru.c ****         }
 258:Drivers/lvgl/lvgl/src/misc/lv_lru.c ****     }
 259:Drivers/lvgl/lvgl/src/misc/lv_lru.c **** 
 260:Drivers/lvgl/lvgl/src/misc/lv_lru.c ****     if(min_item) {
 261:Drivers/lvgl/lvgl/src/misc/lv_lru.c ****         lv_lru_remove_item(cache, min_prev, min_item, min_index);
ARM GAS  /tmp/cc8EH4Zz.s 			page 6


 262:Drivers/lvgl/lvgl/src/misc/lv_lru.c ****     }
 263:Drivers/lvgl/lvgl/src/misc/lv_lru.c **** }
 264:Drivers/lvgl/lvgl/src/misc/lv_lru.c **** 
 265:Drivers/lvgl/lvgl/src/misc/lv_lru.c **** /**********************
 266:Drivers/lvgl/lvgl/src/misc/lv_lru.c ****  *   STATIC FUNCTIONS
 267:Drivers/lvgl/lvgl/src/misc/lv_lru.c ****  **********************/
 268:Drivers/lvgl/lvgl/src/misc/lv_lru.c **** 
 269:Drivers/lvgl/lvgl/src/misc/lv_lru.c **** static uint32_t lv_lru_hash(lv_lru_t * cache, const void * key, uint32_t key_length)
 270:Drivers/lvgl/lvgl/src/misc/lv_lru.c **** {
  26              		.loc 1 270 0
  27              		.cfi_startproc
  28              		@ args = 0, pretend = 0, frame = 0
  29              		@ frame_needed = 0, uses_anonymous_args = 0
  30              		@ link register save eliminated.
  31              	.LVL0:
  32 0000 30B4     		push	{r4, r5}
  33              	.LCFI0:
  34              		.cfi_def_cfa_offset 8
  35              		.cfi_offset 4, -8
  36              		.cfi_offset 5, -4
  37              	.LVL1:
 271:Drivers/lvgl/lvgl/src/misc/lv_lru.c ****     uint32_t m = 0x5bd1e995;
 272:Drivers/lvgl/lvgl/src/misc/lv_lru.c ****     uint32_t r = 24;
 273:Drivers/lvgl/lvgl/src/misc/lv_lru.c ****     uint32_t h = cache->seed ^ key_length;
  38              		.loc 1 273 0
  39 0002 046A     		ldr	r4, [r0, #32]
  40 0004 5440     		eors	r4, r4, r2
  41              	.LVL2:
 274:Drivers/lvgl/lvgl/src/misc/lv_lru.c ****     char * data = (char *) key;
 275:Drivers/lvgl/lvgl/src/misc/lv_lru.c **** 
 276:Drivers/lvgl/lvgl/src/misc/lv_lru.c ****     while(key_length >= 4) {
  42              		.loc 1 276 0
  43 0006 0CE0     		b	.L2
  44              	.LVL3:
  45              	.L3:
  46              	.LBB2:
 277:Drivers/lvgl/lvgl/src/misc/lv_lru.c ****         uint32_t k = *(uint32_t *) data;
  47              		.loc 1 277 0
  48 0008 51F8043B 		ldr	r3, [r1], #4
  49              	.LVL4:
 278:Drivers/lvgl/lvgl/src/misc/lv_lru.c ****         k *= m;
  50              		.loc 1 278 0
  51 000c 154D     		ldr	r5, .L8
  52 000e 05FB03F3 		mul	r3, r5, r3
  53              	.LVL5:
 279:Drivers/lvgl/lvgl/src/misc/lv_lru.c ****         k ^= k >> r;
  54              		.loc 1 279 0
  55 0012 83EA1363 		eor	r3, r3, r3, lsr #24
  56              	.LVL6:
 280:Drivers/lvgl/lvgl/src/misc/lv_lru.c ****         k *= m;
  57              		.loc 1 280 0
  58 0016 05FB03F3 		mul	r3, r5, r3
  59              	.LVL7:
 281:Drivers/lvgl/lvgl/src/misc/lv_lru.c ****         h *= m;
  60              		.loc 1 281 0
  61 001a 05FB04F4 		mul	r4, r5, r4
  62              	.LVL8:
ARM GAS  /tmp/cc8EH4Zz.s 			page 7


 282:Drivers/lvgl/lvgl/src/misc/lv_lru.c ****         h ^= k;
  63              		.loc 1 282 0
  64 001e 5C40     		eors	r4, r4, r3
  65              	.LVL9:
 283:Drivers/lvgl/lvgl/src/misc/lv_lru.c ****         data += 4;
 284:Drivers/lvgl/lvgl/src/misc/lv_lru.c ****         key_length -= 4;
  66              		.loc 1 284 0
  67 0020 043A     		subs	r2, r2, #4
  68              	.LVL10:
  69              	.L2:
  70              	.LBE2:
 276:Drivers/lvgl/lvgl/src/misc/lv_lru.c ****         uint32_t k = *(uint32_t *) data;
  71              		.loc 1 276 0
  72 0022 032A     		cmp	r2, #3
  73 0024 F0D8     		bhi	.L3
 285:Drivers/lvgl/lvgl/src/misc/lv_lru.c ****     }
 286:Drivers/lvgl/lvgl/src/misc/lv_lru.c **** 
 287:Drivers/lvgl/lvgl/src/misc/lv_lru.c ****     if(key_length >= 3) {
  74              		.loc 1 287 0
  75 0026 022A     		cmp	r2, #2
  76 0028 02D9     		bls	.L4
 288:Drivers/lvgl/lvgl/src/misc/lv_lru.c ****         h ^= data[2] << 16;
  77              		.loc 1 288 0
  78 002a 8B78     		ldrb	r3, [r1, #2]	@ zero_extendqisi2
  79 002c 84EA0344 		eor	r4, r4, r3, lsl #16
  80              	.LVL11:
  81              	.L4:
 289:Drivers/lvgl/lvgl/src/misc/lv_lru.c ****     }
 290:Drivers/lvgl/lvgl/src/misc/lv_lru.c ****     if(key_length >= 2) {
  82              		.loc 1 290 0
  83 0030 012A     		cmp	r2, #1
  84 0032 02D9     		bls	.L5
 291:Drivers/lvgl/lvgl/src/misc/lv_lru.c ****         h ^= data[1] << 8;
  85              		.loc 1 291 0
  86 0034 4B78     		ldrb	r3, [r1, #1]	@ zero_extendqisi2
  87 0036 84EA0324 		eor	r4, r4, r3, lsl #8
  88              	.LVL12:
  89              	.L5:
 292:Drivers/lvgl/lvgl/src/misc/lv_lru.c ****     }
 293:Drivers/lvgl/lvgl/src/misc/lv_lru.c ****     if(key_length >= 1) {
  90              		.loc 1 293 0
  91 003a 22B1     		cbz	r2, .L6
 294:Drivers/lvgl/lvgl/src/misc/lv_lru.c ****         h ^= data[0];
  92              		.loc 1 294 0
  93 003c 0B78     		ldrb	r3, [r1]	@ zero_extendqisi2
  94 003e 5C40     		eors	r4, r4, r3
  95              	.LVL13:
 295:Drivers/lvgl/lvgl/src/misc/lv_lru.c ****         h *= m;
  96              		.loc 1 295 0
  97 0040 084B     		ldr	r3, .L8
  98 0042 03FB04F4 		mul	r4, r3, r4
  99              	.LVL14:
 100              	.L6:
 296:Drivers/lvgl/lvgl/src/misc/lv_lru.c ****     }
 297:Drivers/lvgl/lvgl/src/misc/lv_lru.c **** 
 298:Drivers/lvgl/lvgl/src/misc/lv_lru.c ****     h ^= h >> 13;
 101              		.loc 1 298 0
ARM GAS  /tmp/cc8EH4Zz.s 			page 8


 102 0046 84EA5434 		eor	r4, r4, r4, lsr #13
 103              	.LVL15:
 299:Drivers/lvgl/lvgl/src/misc/lv_lru.c ****     h *= m;
 104              		.loc 1 299 0
 105 004a 064B     		ldr	r3, .L8
 106 004c 03FB04F4 		mul	r4, r3, r4
 107              	.LVL16:
 300:Drivers/lvgl/lvgl/src/misc/lv_lru.c ****     h ^= h >> 15;
 108              		.loc 1 300 0
 109 0050 84EAD434 		eor	r4, r4, r4, lsr #15
 110              	.LVL17:
 301:Drivers/lvgl/lvgl/src/misc/lv_lru.c ****     return h % cache->hash_table_size;
 111              		.loc 1 301 0
 112 0054 C369     		ldr	r3, [r0, #28]
 113 0056 B4FBF3F0 		udiv	r0, r4, r3
 114              	.LVL18:
 302:Drivers/lvgl/lvgl/src/misc/lv_lru.c **** }
 115              		.loc 1 302 0
 116 005a 03FB1040 		mls	r0, r3, r0, r4
 117 005e 30BC     		pop	{r4, r5}
 118              	.LCFI1:
 119              		.cfi_restore 5
 120              		.cfi_restore 4
 121              		.cfi_def_cfa_offset 0
 122              	.LVL19:
 123 0060 7047     		bx	lr
 124              	.L9:
 125 0062 00BF     		.align	2
 126              	.L8:
 127 0064 95E9D15B 		.word	1540483477
 128              		.cfi_endproc
 129              	.LFE8:
 131              		.section	.text.lv_lru_pop_or_create_item,"ax",%progbits
 132              		.align	1
 133              		.syntax unified
 134              		.thumb
 135              		.thumb_func
 136              		.fpu fpv5-d16
 138              	lv_lru_pop_or_create_item:
 139              	.LFB11:
 303:Drivers/lvgl/lvgl/src/misc/lv_lru.c **** 
 304:Drivers/lvgl/lvgl/src/misc/lv_lru.c **** static int lv_lru_cmp_keys(lv_lru_item_t * item, const void * key, uint32_t key_length)
 305:Drivers/lvgl/lvgl/src/misc/lv_lru.c **** {
 306:Drivers/lvgl/lvgl/src/misc/lv_lru.c ****     if(key_length != item->key_length) {
 307:Drivers/lvgl/lvgl/src/misc/lv_lru.c ****         return 1;
 308:Drivers/lvgl/lvgl/src/misc/lv_lru.c ****     }
 309:Drivers/lvgl/lvgl/src/misc/lv_lru.c ****     else {
 310:Drivers/lvgl/lvgl/src/misc/lv_lru.c ****         return memcmp(key, item->key, key_length);
 311:Drivers/lvgl/lvgl/src/misc/lv_lru.c ****     }
 312:Drivers/lvgl/lvgl/src/misc/lv_lru.c **** }
 313:Drivers/lvgl/lvgl/src/misc/lv_lru.c **** 
 314:Drivers/lvgl/lvgl/src/misc/lv_lru.c **** static void lv_lru_remove_item(lv_lru_t * cache, lv_lru_item_t * prev, lv_lru_item_t * item, uint32
 315:Drivers/lvgl/lvgl/src/misc/lv_lru.c **** {
 316:Drivers/lvgl/lvgl/src/misc/lv_lru.c ****     if(prev) {
 317:Drivers/lvgl/lvgl/src/misc/lv_lru.c ****         prev->next = item->next;
 318:Drivers/lvgl/lvgl/src/misc/lv_lru.c ****     }
 319:Drivers/lvgl/lvgl/src/misc/lv_lru.c ****     else {
ARM GAS  /tmp/cc8EH4Zz.s 			page 9


 320:Drivers/lvgl/lvgl/src/misc/lv_lru.c ****         cache->items[hash_index] = (lv_lru_item_t *) item->next;
 321:Drivers/lvgl/lvgl/src/misc/lv_lru.c ****     }
 322:Drivers/lvgl/lvgl/src/misc/lv_lru.c **** 
 323:Drivers/lvgl/lvgl/src/misc/lv_lru.c ****     // free memory and update the free memory counter
 324:Drivers/lvgl/lvgl/src/misc/lv_lru.c ****     cache->free_memory += item->value_length;
 325:Drivers/lvgl/lvgl/src/misc/lv_lru.c ****     cache->value_free(item->value);
 326:Drivers/lvgl/lvgl/src/misc/lv_lru.c ****     cache->key_free(item->key);
 327:Drivers/lvgl/lvgl/src/misc/lv_lru.c **** 
 328:Drivers/lvgl/lvgl/src/misc/lv_lru.c ****     // push the item to the free items queue
 329:Drivers/lvgl/lvgl/src/misc/lv_lru.c ****     lv_memset_00(item, sizeof(lv_lru_item_t));
 330:Drivers/lvgl/lvgl/src/misc/lv_lru.c ****     item->next = cache->free_items;
 331:Drivers/lvgl/lvgl/src/misc/lv_lru.c ****     cache->free_items = item;
 332:Drivers/lvgl/lvgl/src/misc/lv_lru.c **** }
 333:Drivers/lvgl/lvgl/src/misc/lv_lru.c **** 
 334:Drivers/lvgl/lvgl/src/misc/lv_lru.c **** static lv_lru_item_t * lv_lru_pop_or_create_item(lv_lru_t * cache)
 335:Drivers/lvgl/lvgl/src/misc/lv_lru.c **** {
 140              		.loc 1 335 0
 141              		.cfi_startproc
 142              		@ args = 0, pretend = 0, frame = 0
 143              		@ frame_needed = 0, uses_anonymous_args = 0
 144              	.LVL20:
 145 0000 10B5     		push	{r4, lr}
 146              	.LCFI2:
 147              		.cfi_def_cfa_offset 8
 148              		.cfi_offset 4, -8
 149              		.cfi_offset 14, -4
 150              	.LVL21:
 336:Drivers/lvgl/lvgl/src/misc/lv_lru.c ****     lv_lru_item_t * item = NULL;
 337:Drivers/lvgl/lvgl/src/misc/lv_lru.c **** 
 338:Drivers/lvgl/lvgl/src/misc/lv_lru.c ****     if(cache->free_items) {
 151              		.loc 1 338 0
 152 0002 C46A     		ldr	r4, [r0, #44]
 153 0004 3CB1     		cbz	r4, .L11
 154              	.LVL22:
 339:Drivers/lvgl/lvgl/src/misc/lv_lru.c ****         item = cache->free_items;
 340:Drivers/lvgl/lvgl/src/misc/lv_lru.c ****         cache->free_items = item->next;
 155              		.loc 1 340 0
 156 0006 A369     		ldr	r3, [r4, #24]
 157 0008 C362     		str	r3, [r0, #44]
 341:Drivers/lvgl/lvgl/src/misc/lv_lru.c ****         lv_memset_00(item, sizeof(lv_lru_item_t));
 158              		.loc 1 341 0
 159 000a 2021     		movs	r1, #32
 160 000c 2046     		mov	r0, r4
 161              	.LVL23:
 162 000e FFF7FEFF 		bl	lv_memset_00
 163              	.LVL24:
 164              	.L10:
 342:Drivers/lvgl/lvgl/src/misc/lv_lru.c ****     }
 343:Drivers/lvgl/lvgl/src/misc/lv_lru.c ****     else {
 344:Drivers/lvgl/lvgl/src/misc/lv_lru.c ****         item = (lv_lru_item_t *) lv_mem_alloc(sizeof(lv_lru_item_t));
 345:Drivers/lvgl/lvgl/src/misc/lv_lru.c ****         lv_memset_00(item, sizeof(lv_lru_item_t));
 346:Drivers/lvgl/lvgl/src/misc/lv_lru.c ****     }
 347:Drivers/lvgl/lvgl/src/misc/lv_lru.c **** 
 348:Drivers/lvgl/lvgl/src/misc/lv_lru.c ****     return item;
 349:Drivers/lvgl/lvgl/src/misc/lv_lru.c **** }
 165              		.loc 1 349 0
 166 0012 2046     		mov	r0, r4
ARM GAS  /tmp/cc8EH4Zz.s 			page 10


 167 0014 10BD     		pop	{r4, pc}
 168              	.LVL25:
 169              	.L11:
 344:Drivers/lvgl/lvgl/src/misc/lv_lru.c ****         lv_memset_00(item, sizeof(lv_lru_item_t));
 170              		.loc 1 344 0
 171 0016 2020     		movs	r0, #32
 172              	.LVL26:
 173 0018 FFF7FEFF 		bl	lv_mem_alloc
 174              	.LVL27:
 175 001c 0446     		mov	r4, r0
 176              	.LVL28:
 345:Drivers/lvgl/lvgl/src/misc/lv_lru.c ****     }
 177              		.loc 1 345 0
 178 001e 2021     		movs	r1, #32
 179 0020 FFF7FEFF 		bl	lv_memset_00
 180              	.LVL29:
 348:Drivers/lvgl/lvgl/src/misc/lv_lru.c **** }
 181              		.loc 1 348 0
 182 0024 F5E7     		b	.L10
 183              		.cfi_endproc
 184              	.LFE11:
 186              		.section	.text.lv_lru_remove_item,"ax",%progbits
 187              		.align	1
 188              		.syntax unified
 189              		.thumb
 190              		.thumb_func
 191              		.fpu fpv5-d16
 193              	lv_lru_remove_item:
 194              	.LFB10:
 315:Drivers/lvgl/lvgl/src/misc/lv_lru.c ****     if(prev) {
 195              		.loc 1 315 0
 196              		.cfi_startproc
 197              		@ args = 0, pretend = 0, frame = 0
 198              		@ frame_needed = 0, uses_anonymous_args = 0
 199              	.LVL30:
 200 0000 38B5     		push	{r3, r4, r5, lr}
 201              	.LCFI3:
 202              		.cfi_def_cfa_offset 16
 203              		.cfi_offset 3, -16
 204              		.cfi_offset 4, -12
 205              		.cfi_offset 5, -8
 206              		.cfi_offset 14, -4
 207 0002 0546     		mov	r5, r0
 208 0004 1446     		mov	r4, r2
 316:Drivers/lvgl/lvgl/src/misc/lv_lru.c ****         prev->next = item->next;
 209              		.loc 1 316 0
 210 0006 99B1     		cbz	r1, .L15
 317:Drivers/lvgl/lvgl/src/misc/lv_lru.c ****     }
 211              		.loc 1 317 0
 212 0008 A369     		ldr	r3, [r4, #24]
 213              	.LVL31:
 214 000a 8B61     		str	r3, [r1, #24]
 215              	.LVL32:
 216              	.L16:
 324:Drivers/lvgl/lvgl/src/misc/lv_lru.c ****     cache->value_free(item->value);
 217              		.loc 1 324 0
 218 000c A268     		ldr	r2, [r4, #8]
ARM GAS  /tmp/cc8EH4Zz.s 			page 11


 219 000e 2B69     		ldr	r3, [r5, #16]
 220 0010 1344     		add	r3, r3, r2
 221 0012 2B61     		str	r3, [r5, #16]
 325:Drivers/lvgl/lvgl/src/misc/lv_lru.c ****     cache->key_free(item->key);
 222              		.loc 1 325 0
 223 0014 6B6A     		ldr	r3, [r5, #36]
 224 0016 2068     		ldr	r0, [r4]
 225              	.LVL33:
 226 0018 9847     		blx	r3
 227              	.LVL34:
 326:Drivers/lvgl/lvgl/src/misc/lv_lru.c **** 
 228              		.loc 1 326 0
 229 001a AB6A     		ldr	r3, [r5, #40]
 230 001c 6068     		ldr	r0, [r4, #4]
 231 001e 9847     		blx	r3
 232              	.LVL35:
 329:Drivers/lvgl/lvgl/src/misc/lv_lru.c ****     item->next = cache->free_items;
 233              		.loc 1 329 0
 234 0020 2021     		movs	r1, #32
 235 0022 2046     		mov	r0, r4
 236 0024 FFF7FEFF 		bl	lv_memset_00
 237              	.LVL36:
 330:Drivers/lvgl/lvgl/src/misc/lv_lru.c ****     cache->free_items = item;
 238              		.loc 1 330 0
 239 0028 EB6A     		ldr	r3, [r5, #44]
 240 002a A361     		str	r3, [r4, #24]
 331:Drivers/lvgl/lvgl/src/misc/lv_lru.c **** }
 241              		.loc 1 331 0
 242 002c EC62     		str	r4, [r5, #44]
 332:Drivers/lvgl/lvgl/src/misc/lv_lru.c **** 
 243              		.loc 1 332 0
 244 002e 38BD     		pop	{r3, r4, r5, pc}
 245              	.LVL37:
 246              	.L15:
 320:Drivers/lvgl/lvgl/src/misc/lv_lru.c ****     }
 247              		.loc 1 320 0
 248 0030 0268     		ldr	r2, [r0]
 249              	.LVL38:
 250 0032 A169     		ldr	r1, [r4, #24]
 251              	.LVL39:
 252 0034 42F82310 		str	r1, [r2, r3, lsl #2]
 253 0038 E8E7     		b	.L16
 254              		.cfi_endproc
 255              	.LFE10:
 257              		.section	.text.lv_lru_cmp_keys,"ax",%progbits
 258              		.align	1
 259              		.syntax unified
 260              		.thumb
 261              		.thumb_func
 262              		.fpu fpv5-d16
 264              	lv_lru_cmp_keys:
 265              	.LFB9:
 305:Drivers/lvgl/lvgl/src/misc/lv_lru.c ****     if(key_length != item->key_length) {
 266              		.loc 1 305 0
 267              		.cfi_startproc
 268              		@ args = 0, pretend = 0, frame = 0
 269              		@ frame_needed = 0, uses_anonymous_args = 0
ARM GAS  /tmp/cc8EH4Zz.s 			page 12


 270              	.LVL40:
 306:Drivers/lvgl/lvgl/src/misc/lv_lru.c ****         return 1;
 271              		.loc 1 306 0
 272 0000 C368     		ldr	r3, [r0, #12]
 273 0002 9342     		cmp	r3, r2
 274 0004 01D0     		beq	.L25
 307:Drivers/lvgl/lvgl/src/misc/lv_lru.c ****     }
 275              		.loc 1 307 0
 276 0006 0120     		movs	r0, #1
 277              	.LVL41:
 312:Drivers/lvgl/lvgl/src/misc/lv_lru.c **** 
 278              		.loc 1 312 0
 279 0008 7047     		bx	lr
 280              	.LVL42:
 281              	.L25:
 305:Drivers/lvgl/lvgl/src/misc/lv_lru.c ****     if(key_length != item->key_length) {
 282              		.loc 1 305 0
 283 000a 10B5     		push	{r4, lr}
 284              	.LCFI4:
 285              		.cfi_def_cfa_offset 8
 286              		.cfi_offset 4, -8
 287              		.cfi_offset 14, -4
 288 000c 0C46     		mov	r4, r1
 310:Drivers/lvgl/lvgl/src/misc/lv_lru.c ****     }
 289              		.loc 1 310 0
 290 000e 4168     		ldr	r1, [r0, #4]
 291              	.LVL43:
 292 0010 2046     		mov	r0, r4
 293              	.LVL44:
 294 0012 FFF7FEFF 		bl	memcmp
 295              	.LVL45:
 312:Drivers/lvgl/lvgl/src/misc/lv_lru.c **** 
 296              		.loc 1 312 0
 297 0016 10BD     		pop	{r4, pc}
 298              		.cfi_endproc
 299              	.LFE9:
 301              		.section	.text.lv_lru_create,"ax",%progbits
 302              		.align	1
 303              		.global	lv_lru_create
 304              		.syntax unified
 305              		.thumb
 306              		.thumb_func
 307              		.fpu fpv5-d16
 309              	lv_lru_create:
 310              	.LFB2:
  75:Drivers/lvgl/lvgl/src/misc/lv_lru.c ****     // create the cache
 311              		.loc 1 75 0
 312              		.cfi_startproc
 313              		@ args = 0, pretend = 0, frame = 0
 314              		@ frame_needed = 0, uses_anonymous_args = 0
 315              	.LVL46:
 316 0000 2DE9F041 		push	{r4, r5, r6, r7, r8, lr}
 317              	.LCFI5:
 318              		.cfi_def_cfa_offset 24
 319              		.cfi_offset 4, -24
 320              		.cfi_offset 5, -20
 321              		.cfi_offset 6, -16
ARM GAS  /tmp/cc8EH4Zz.s 			page 13


 322              		.cfi_offset 7, -12
 323              		.cfi_offset 8, -8
 324              		.cfi_offset 14, -4
 325 0004 0546     		mov	r5, r0
 326 0006 8846     		mov	r8, r1
 327 0008 1746     		mov	r7, r2
 328 000a 1E46     		mov	r6, r3
  77:Drivers/lvgl/lvgl/src/misc/lv_lru.c ****     lv_memset_00(cache, sizeof(lv_lru_t));
 329              		.loc 1 77 0
 330 000c 3020     		movs	r0, #48
 331              	.LVL47:
 332 000e FFF7FEFF 		bl	lv_mem_alloc
 333              	.LVL48:
 334 0012 0446     		mov	r4, r0
 335              	.LVL49:
  78:Drivers/lvgl/lvgl/src/misc/lv_lru.c ****     if(!cache) {
 336              		.loc 1 78 0
 337 0014 3021     		movs	r1, #48
 338 0016 FFF7FEFF 		bl	lv_memset_00
 339              	.LVL50:
  79:Drivers/lvgl/lvgl/src/misc/lv_lru.c ****         LV_LOG_WARN("LRU Cache unable to create cache object");
 340              		.loc 1 79 0
 341 001a DCB1     		cbz	r4, .L26
  83:Drivers/lvgl/lvgl/src/misc/lv_lru.c ****     cache->average_item_length = average_length;
 342              		.loc 1 83 0
 343 001c B5FBF8F3 		udiv	r3, r5, r8
 344 0020 E361     		str	r3, [r4, #28]
  84:Drivers/lvgl/lvgl/src/misc/lv_lru.c ****     cache->free_memory = cache_size;
 345              		.loc 1 84 0
 346 0022 C4F81880 		str	r8, [r4, #24]
  85:Drivers/lvgl/lvgl/src/misc/lv_lru.c ****     cache->total_memory = cache_size;
 347              		.loc 1 85 0
 348 0026 2561     		str	r5, [r4, #16]
  86:Drivers/lvgl/lvgl/src/misc/lv_lru.c ****     cache->seed = lv_rand(1, UINT32_MAX);
 349              		.loc 1 86 0
 350 0028 6561     		str	r5, [r4, #20]
  87:Drivers/lvgl/lvgl/src/misc/lv_lru.c ****     cache->value_free = value_free ? value_free : lv_mem_free;
 351              		.loc 1 87 0
 352 002a 4FF0FF31 		mov	r1, #-1
 353 002e 0120     		movs	r0, #1
 354 0030 FFF7FEFF 		bl	lv_rand
 355              	.LVL51:
 356 0034 2062     		str	r0, [r4, #32]
  88:Drivers/lvgl/lvgl/src/misc/lv_lru.c ****     cache->key_free = key_free ? key_free : lv_mem_free;
 357              		.loc 1 88 0
 358 0036 87B1     		cbz	r7, .L33
 359              	.LVL52:
 360              	.L28:
  88:Drivers/lvgl/lvgl/src/misc/lv_lru.c ****     cache->key_free = key_free ? key_free : lv_mem_free;
 361              		.loc 1 88 0 is_stmt 0 discriminator 4
 362 0038 6762     		str	r7, [r4, #36]
  89:Drivers/lvgl/lvgl/src/misc/lv_lru.c **** 
 363              		.loc 1 89 0 is_stmt 1 discriminator 4
 364 003a 86B1     		cbz	r6, .L34
 365              	.LVL53:
 366              	.L29:
 367 003c A662     		str	r6, [r4, #40]
ARM GAS  /tmp/cc8EH4Zz.s 			page 14


  92:Drivers/lvgl/lvgl/src/misc/lv_lru.c ****     lv_memset_00(cache->items, sizeof(lv_lru_item_t *) * cache->hash_table_size);
 368              		.loc 1 92 0 discriminator 4
 369 003e E069     		ldr	r0, [r4, #28]
 370 0040 8000     		lsls	r0, r0, #2
 371 0042 FFF7FEFF 		bl	lv_mem_alloc
 372              	.LVL54:
 373 0046 2060     		str	r0, [r4]
  93:Drivers/lvgl/lvgl/src/misc/lv_lru.c ****     if(!cache->items) {
 374              		.loc 1 93 0 discriminator 4
 375 0048 E169     		ldr	r1, [r4, #28]
 376 004a 8900     		lsls	r1, r1, #2
 377 004c FFF7FEFF 		bl	lv_memset_00
 378              	.LVL55:
  94:Drivers/lvgl/lvgl/src/misc/lv_lru.c ****         LV_LOG_WARN("LRU Cache unable to create cache hash table");
 379              		.loc 1 94 0 discriminator 4
 380 0050 2368     		ldr	r3, [r4]
 381 0052 33B1     		cbz	r3, .L35
 382              	.LVL56:
 383              	.L26:
 100:Drivers/lvgl/lvgl/src/misc/lv_lru.c **** 
 384              		.loc 1 100 0
 385 0054 2046     		mov	r0, r4
 386 0056 BDE8F081 		pop	{r4, r5, r6, r7, r8, pc}
 387              	.LVL57:
 388              	.L33:
  88:Drivers/lvgl/lvgl/src/misc/lv_lru.c ****     cache->key_free = key_free ? key_free : lv_mem_free;
 389              		.loc 1 88 0
 390 005a 044F     		ldr	r7, .L36
 391              	.LVL58:
 392 005c ECE7     		b	.L28
 393              	.L34:
  89:Drivers/lvgl/lvgl/src/misc/lv_lru.c **** 
 394              		.loc 1 89 0
 395 005e 034E     		ldr	r6, .L36
 396              	.LVL59:
 397 0060 ECE7     		b	.L29
 398              	.L35:
  96:Drivers/lvgl/lvgl/src/misc/lv_lru.c ****         return NULL;
 399              		.loc 1 96 0
 400 0062 2046     		mov	r0, r4
 401 0064 FFF7FEFF 		bl	lv_mem_free
 402              	.LVL60:
  97:Drivers/lvgl/lvgl/src/misc/lv_lru.c ****     }
 403              		.loc 1 97 0
 404 0068 0024     		movs	r4, #0
 405              	.LVL61:
 406 006a F3E7     		b	.L26
 407              	.L37:
 408              		.align	2
 409              	.L36:
 410 006c 00000000 		.word	lv_mem_free
 411              		.cfi_endproc
 412              	.LFE2:
 414              		.section	.text.lv_lru_del,"ax",%progbits
 415              		.align	1
 416              		.global	lv_lru_del
 417              		.syntax unified
ARM GAS  /tmp/cc8EH4Zz.s 			page 15


 418              		.thumb
 419              		.thumb_func
 420              		.fpu fpv5-d16
 422              	lv_lru_del:
 423              	.LFB3:
 104:Drivers/lvgl/lvgl/src/misc/lv_lru.c ****     LV_ASSERT_NULL(cache);
 424              		.loc 1 104 0
 425              		.cfi_startproc
 426              		@ args = 0, pretend = 0, frame = 0
 427              		@ frame_needed = 0, uses_anonymous_args = 0
 428              	.LVL62:
 105:Drivers/lvgl/lvgl/src/misc/lv_lru.c **** 
 429              		.loc 1 105 0
 430 0000 28B1     		cbz	r0, .L40
 104:Drivers/lvgl/lvgl/src/misc/lv_lru.c ****     LV_ASSERT_NULL(cache);
 431              		.loc 1 104 0
 432 0002 F8B5     		push	{r3, r4, r5, r6, r7, lr}
 433              	.LCFI6:
 434              		.cfi_def_cfa_offset 24
 435              		.cfi_offset 3, -24
 436              		.cfi_offset 4, -20
 437              		.cfi_offset 5, -16
 438              		.cfi_offset 6, -12
 439              		.cfi_offset 7, -8
 440              		.cfi_offset 14, -4
 441 0004 0546     		mov	r5, r0
 442              	.LVL63:
 110:Drivers/lvgl/lvgl/src/misc/lv_lru.c ****         for(; i < cache->hash_table_size; i++) {
 443              		.loc 1 110 0
 444 0006 0368     		ldr	r3, [r0]
 445 0008 F3B1     		cbz	r3, .L42
 109:Drivers/lvgl/lvgl/src/misc/lv_lru.c ****     if(cache->items) {
 446              		.loc 1 109 0
 447 000a 0027     		movs	r7, #0
 448 000c 01E0     		b	.L41
 449              	.LVL64:
 450              	.L40:
 451              	.LCFI7:
 452              		.cfi_def_cfa_offset 0
 453              		.cfi_restore 3
 454              		.cfi_restore 4
 455              		.cfi_restore 5
 456              		.cfi_restore 6
 457              		.cfi_restore 7
 458              		.cfi_restore 14
 459 000e FEE7     		b	.L40
 460              	.LVL65:
 461              	.L53:
 462              	.LCFI8:
 463              		.cfi_def_cfa_offset 24
 464              		.cfi_offset 3, -24
 465              		.cfi_offset 4, -20
 466              		.cfi_offset 5, -16
 467              		.cfi_offset 6, -12
 468              		.cfi_offset 7, -8
 469              		.cfi_offset 14, -4
 111:Drivers/lvgl/lvgl/src/misc/lv_lru.c ****             item = cache->items[i];
ARM GAS  /tmp/cc8EH4Zz.s 			page 16


 470              		.loc 1 111 0
 471 0010 0137     		adds	r7, r7, #1
 472              	.LVL66:
 473              	.L41:
 111:Drivers/lvgl/lvgl/src/misc/lv_lru.c ****             item = cache->items[i];
 474              		.loc 1 111 0 is_stmt 0 discriminator 1
 475 0012 EB69     		ldr	r3, [r5, #28]
 476 0014 BB42     		cmp	r3, r7
 477 0016 14D9     		bls	.L52
 112:Drivers/lvgl/lvgl/src/misc/lv_lru.c ****             while(item) {
 478              		.loc 1 112 0 is_stmt 1
 479 0018 2B68     		ldr	r3, [r5]
 480 001a 53F82740 		ldr	r4, [r3, r7, lsl #2]
 481              	.LVL67:
 482              	.L43:
 113:Drivers/lvgl/lvgl/src/misc/lv_lru.c ****                 next = (lv_lru_item_t *) item->next;
 483              		.loc 1 113 0
 484 001e 002C     		cmp	r4, #0
 485 0020 F6D0     		beq	.L53
 114:Drivers/lvgl/lvgl/src/misc/lv_lru.c ****                 cache->value_free(item->value);
 486              		.loc 1 114 0
 487 0022 A669     		ldr	r6, [r4, #24]
 488              	.LVL68:
 115:Drivers/lvgl/lvgl/src/misc/lv_lru.c ****                 cache->key_free(item->key);
 489              		.loc 1 115 0
 490 0024 6B6A     		ldr	r3, [r5, #36]
 491 0026 2068     		ldr	r0, [r4]
 492 0028 9847     		blx	r3
 493              	.LVL69:
 116:Drivers/lvgl/lvgl/src/misc/lv_lru.c ****                 cache->free_memory += item->value_length;
 494              		.loc 1 116 0
 495 002a AB6A     		ldr	r3, [r5, #40]
 496 002c 6068     		ldr	r0, [r4, #4]
 497 002e 9847     		blx	r3
 498              	.LVL70:
 117:Drivers/lvgl/lvgl/src/misc/lv_lru.c ****                 lv_mem_free(item);
 499              		.loc 1 117 0
 500 0030 A268     		ldr	r2, [r4, #8]
 501 0032 2B69     		ldr	r3, [r5, #16]
 502 0034 1344     		add	r3, r3, r2
 503 0036 2B61     		str	r3, [r5, #16]
 118:Drivers/lvgl/lvgl/src/misc/lv_lru.c ****                 item = next;
 504              		.loc 1 118 0
 505 0038 2046     		mov	r0, r4
 506 003a FFF7FEFF 		bl	lv_mem_free
 507              	.LVL71:
 119:Drivers/lvgl/lvgl/src/misc/lv_lru.c ****             }
 508              		.loc 1 119 0
 509 003e 3446     		mov	r4, r6
 510 0040 EDE7     		b	.L43
 511              	.LVL72:
 512              	.L52:
 122:Drivers/lvgl/lvgl/src/misc/lv_lru.c ****     }
 513              		.loc 1 122 0
 514 0042 2868     		ldr	r0, [r5]
 515 0044 FFF7FEFF 		bl	lv_mem_free
 516              	.LVL73:
ARM GAS  /tmp/cc8EH4Zz.s 			page 17


 517              	.L42:
 125:Drivers/lvgl/lvgl/src/misc/lv_lru.c ****         item = cache->free_items;
 518              		.loc 1 125 0
 519 0048 E86A     		ldr	r0, [r5, #44]
 520 004a 20B9     		cbnz	r0, .L46
 521 004c 05E0     		b	.L47
 522              	.LVL74:
 523              	.L48:
 128:Drivers/lvgl/lvgl/src/misc/lv_lru.c ****             lv_mem_free(item);
 524              		.loc 1 128 0
 525 004e 8469     		ldr	r4, [r0, #24]
 526              	.LVL75:
 129:Drivers/lvgl/lvgl/src/misc/lv_lru.c ****             item = next;
 527              		.loc 1 129 0
 528 0050 FFF7FEFF 		bl	lv_mem_free
 529              	.LVL76:
 130:Drivers/lvgl/lvgl/src/misc/lv_lru.c ****         }
 530              		.loc 1 130 0
 531 0054 2046     		mov	r0, r4
 532              	.LVL77:
 533              	.L46:
 127:Drivers/lvgl/lvgl/src/misc/lv_lru.c ****             next = (lv_lru_item_t *) item->next;
 534              		.loc 1 127 0
 535 0056 0028     		cmp	r0, #0
 536 0058 F9D1     		bne	.L48
 537              	.LVL78:
 538              	.L47:
 135:Drivers/lvgl/lvgl/src/misc/lv_lru.c **** }
 539              		.loc 1 135 0
 540 005a 2846     		mov	r0, r5
 541 005c FFF7FEFF 		bl	lv_mem_free
 542              	.LVL79:
 136:Drivers/lvgl/lvgl/src/misc/lv_lru.c **** 
 543              		.loc 1 136 0
 544 0060 F8BD     		pop	{r3, r4, r5, r6, r7, pc}
 545              		.cfi_endproc
 546              	.LFE3:
 548              		.section	.text.lv_lru_get,"ax",%progbits
 549              		.align	1
 550              		.global	lv_lru_get
 551              		.syntax unified
 552              		.thumb
 553              		.thumb_func
 554              		.fpu fpv5-d16
 556              	lv_lru_get:
 557              	.LFB5:
 193:Drivers/lvgl/lvgl/src/misc/lv_lru.c ****     test_for_missing_cache();
 558              		.loc 1 193 0
 559              		.cfi_startproc
 560              		@ args = 0, pretend = 0, frame = 0
 561              		@ frame_needed = 0, uses_anonymous_args = 0
 562              	.LVL80:
 194:Drivers/lvgl/lvgl/src/misc/lv_lru.c ****     test_for_missing_key();
 563              		.loc 1 194 0
 564 0000 48B3     		cbz	r0, .L60
 193:Drivers/lvgl/lvgl/src/misc/lv_lru.c ****     test_for_missing_cache();
 565              		.loc 1 193 0
ARM GAS  /tmp/cc8EH4Zz.s 			page 18


 566 0002 2DE9F041 		push	{r4, r5, r6, r7, r8, lr}
 567              	.LCFI9:
 568              		.cfi_def_cfa_offset 24
 569              		.cfi_offset 4, -24
 570              		.cfi_offset 5, -20
 571              		.cfi_offset 6, -16
 572              		.cfi_offset 7, -12
 573              		.cfi_offset 8, -8
 574              		.cfi_offset 14, -4
 575 0006 0746     		mov	r7, r0
 195:Drivers/lvgl/lvgl/src/misc/lv_lru.c **** 
 576              		.loc 1 195 0
 577 0008 39B3     		cbz	r1, .L61
 578 000a 9846     		mov	r8, r3
 579 000c 1646     		mov	r6, r2
 580 000e 0D46     		mov	r5, r1
 198:Drivers/lvgl/lvgl/src/misc/lv_lru.c ****     lv_lru_item_t * item = cache->items[hash_index];
 581              		.loc 1 198 0
 582 0010 FFF7FEFF 		bl	lv_lru_hash
 583              	.LVL81:
 199:Drivers/lvgl/lvgl/src/misc/lv_lru.c **** 
 584              		.loc 1 199 0
 585 0014 3B68     		ldr	r3, [r7]
 586 0016 53F82040 		ldr	r4, [r3, r0, lsl #2]
 587              	.LVL82:
 201:Drivers/lvgl/lvgl/src/misc/lv_lru.c ****         item = (lv_lru_item_t *) item->next;
 588              		.loc 1 201 0
 589 001a 00E0     		b	.L56
 590              	.LVL83:
 591              	.L58:
 202:Drivers/lvgl/lvgl/src/misc/lv_lru.c **** 
 592              		.loc 1 202 0
 593 001c A469     		ldr	r4, [r4, #24]
 594              	.LVL84:
 595              	.L56:
 201:Drivers/lvgl/lvgl/src/misc/lv_lru.c ****         item = (lv_lru_item_t *) item->next;
 596              		.loc 1 201 0
 597 001e 34B1     		cbz	r4, .L57
 201:Drivers/lvgl/lvgl/src/misc/lv_lru.c ****         item = (lv_lru_item_t *) item->next;
 598              		.loc 1 201 0 is_stmt 0 discriminator 1
 599 0020 3246     		mov	r2, r6
 600 0022 2946     		mov	r1, r5
 601 0024 2046     		mov	r0, r4
 602 0026 FFF7FEFF 		bl	lv_lru_cmp_keys
 603              	.LVL85:
 604 002a 0028     		cmp	r0, #0
 605 002c F6D1     		bne	.L58
 606              	.L57:
 204:Drivers/lvgl/lvgl/src/misc/lv_lru.c ****         *value = item->value;
 607              		.loc 1 204 0 is_stmt 1
 608 002e 74B1     		cbz	r4, .L59
 205:Drivers/lvgl/lvgl/src/misc/lv_lru.c ****         item->access_count = ++cache->access_count;
 609              		.loc 1 205 0
 610 0030 2368     		ldr	r3, [r4]
 611 0032 C8F80030 		str	r3, [r8]
 206:Drivers/lvgl/lvgl/src/misc/lv_lru.c ****     }
 612              		.loc 1 206 0
ARM GAS  /tmp/cc8EH4Zz.s 			page 19


 613 0036 D7E90223 		ldrd	r2, [r7, #8]
 614 003a 501C     		adds	r0, r2, #1
 615 003c 43F10001 		adc	r1, r3, #0
 616 0040 C7E90201 		strd	r0, [r7, #8]
 617 0044 C4E90401 		strd	r0, [r4, #16]
 212:Drivers/lvgl/lvgl/src/misc/lv_lru.c **** }
 618              		.loc 1 212 0
 619 0048 0020     		movs	r0, #0
 620              	.LVL86:
 621              	.L55:
 213:Drivers/lvgl/lvgl/src/misc/lv_lru.c **** 
 622              		.loc 1 213 0
 623 004a BDE8F081 		pop	{r4, r5, r6, r7, r8, pc}
 624              	.LVL87:
 625              	.L59:
 209:Drivers/lvgl/lvgl/src/misc/lv_lru.c ****     }
 626              		.loc 1 209 0
 627 004e 0020     		movs	r0, #0
 628 0050 C8F80000 		str	r0, [r8]
 629 0054 F9E7     		b	.L55
 630              	.LVL88:
 631              	.L60:
 632              	.LCFI10:
 633              		.cfi_def_cfa_offset 0
 634              		.cfi_restore 4
 635              		.cfi_restore 5
 636              		.cfi_restore 6
 637              		.cfi_restore 7
 638              		.cfi_restore 8
 639              		.cfi_restore 14
 194:Drivers/lvgl/lvgl/src/misc/lv_lru.c ****     test_for_missing_key();
 640              		.loc 1 194 0
 641 0056 0120     		movs	r0, #1
 642              	.LVL89:
 213:Drivers/lvgl/lvgl/src/misc/lv_lru.c **** 
 643              		.loc 1 213 0
 644 0058 7047     		bx	lr
 645              	.LVL90:
 646              	.L61:
 647              	.LCFI11:
 648              		.cfi_def_cfa_offset 24
 649              		.cfi_offset 4, -24
 650              		.cfi_offset 5, -20
 651              		.cfi_offset 6, -16
 652              		.cfi_offset 7, -12
 653              		.cfi_offset 8, -8
 654              		.cfi_offset 14, -4
 195:Drivers/lvgl/lvgl/src/misc/lv_lru.c **** 
 655              		.loc 1 195 0
 656 005a 0220     		movs	r0, #2
 657              	.LVL91:
 658 005c F5E7     		b	.L55
 659              		.cfi_endproc
 660              	.LFE5:
 662              		.section	.text.lv_lru_remove,"ax",%progbits
 663              		.align	1
 664              		.global	lv_lru_remove
ARM GAS  /tmp/cc8EH4Zz.s 			page 20


 665              		.syntax unified
 666              		.thumb
 667              		.thumb_func
 668              		.fpu fpv5-d16
 670              	lv_lru_remove:
 671              	.LFB6:
 216:Drivers/lvgl/lvgl/src/misc/lv_lru.c ****     test_for_missing_cache();
 672              		.loc 1 216 0
 673              		.cfi_startproc
 674              		@ args = 0, pretend = 0, frame = 0
 675              		@ frame_needed = 0, uses_anonymous_args = 0
 676              	.LVL92:
 217:Drivers/lvgl/lvgl/src/misc/lv_lru.c ****     test_for_missing_key();
 677              		.loc 1 217 0
 678 0000 10B3     		cbz	r0, .L71
 216:Drivers/lvgl/lvgl/src/misc/lv_lru.c ****     test_for_missing_cache();
 679              		.loc 1 216 0
 680 0002 2DE9F843 		push	{r3, r4, r5, r6, r7, r8, r9, lr}
 681              	.LCFI12:
 682              		.cfi_def_cfa_offset 32
 683              		.cfi_offset 3, -32
 684              		.cfi_offset 4, -28
 685              		.cfi_offset 5, -24
 686              		.cfi_offset 6, -20
 687              		.cfi_offset 7, -16
 688              		.cfi_offset 8, -12
 689              		.cfi_offset 9, -8
 690              		.cfi_offset 14, -4
 691 0006 8046     		mov	r8, r0
 218:Drivers/lvgl/lvgl/src/misc/lv_lru.c **** 
 692              		.loc 1 218 0
 693 0008 01B3     		cbz	r1, .L72
 694 000a 1646     		mov	r6, r2
 695 000c 0D46     		mov	r5, r1
 696              	.LVL93:
 222:Drivers/lvgl/lvgl/src/misc/lv_lru.c ****     item = cache->items[hash_index];
 697              		.loc 1 222 0
 698 000e FFF7FEFF 		bl	lv_lru_hash
 699              	.LVL94:
 700 0012 8146     		mov	r9, r0
 701              	.LVL95:
 223:Drivers/lvgl/lvgl/src/misc/lv_lru.c **** 
 702              		.loc 1 223 0
 703 0014 D8F80030 		ldr	r3, [r8]
 704 0018 53F82040 		ldr	r4, [r3, r0, lsl #2]
 705              	.LVL96:
 221:Drivers/lvgl/lvgl/src/misc/lv_lru.c ****     uint32_t hash_index = lv_lru_hash(cache, key, key_size);
 706              		.loc 1 221 0
 707 001c 0027     		movs	r7, #0
 225:Drivers/lvgl/lvgl/src/misc/lv_lru.c ****         prev = item;
 708              		.loc 1 225 0
 709 001e 01E0     		b	.L68
 710              	.LVL97:
 711              	.L70:
 226:Drivers/lvgl/lvgl/src/misc/lv_lru.c ****         item = (lv_lru_item_t *) item->next;
 712              		.loc 1 226 0
 713 0020 2746     		mov	r7, r4
ARM GAS  /tmp/cc8EH4Zz.s 			page 21


 227:Drivers/lvgl/lvgl/src/misc/lv_lru.c ****     }
 714              		.loc 1 227 0
 715 0022 A469     		ldr	r4, [r4, #24]
 716              	.LVL98:
 717              	.L68:
 225:Drivers/lvgl/lvgl/src/misc/lv_lru.c ****         prev = item;
 718              		.loc 1 225 0
 719 0024 34B1     		cbz	r4, .L69
 225:Drivers/lvgl/lvgl/src/misc/lv_lru.c ****         prev = item;
 720              		.loc 1 225 0 is_stmt 0 discriminator 1
 721 0026 3246     		mov	r2, r6
 722 0028 2946     		mov	r1, r5
 723 002a 2046     		mov	r0, r4
 724 002c FFF7FEFF 		bl	lv_lru_cmp_keys
 725              	.LVL99:
 726 0030 0028     		cmp	r0, #0
 727 0032 F5D1     		bne	.L70
 728              	.L69:
 230:Drivers/lvgl/lvgl/src/misc/lv_lru.c ****         lv_lru_remove_item(cache, prev, item, hash_index);
 729              		.loc 1 230 0 is_stmt 1
 730 0034 64B1     		cbz	r4, .L73
 231:Drivers/lvgl/lvgl/src/misc/lv_lru.c ****     }
 731              		.loc 1 231 0
 732 0036 4B46     		mov	r3, r9
 733 0038 2246     		mov	r2, r4
 734 003a 3946     		mov	r1, r7
 735 003c 4046     		mov	r0, r8
 736 003e FFF7FEFF 		bl	lv_lru_remove_item
 737              	.LVL100:
 234:Drivers/lvgl/lvgl/src/misc/lv_lru.c **** }
 738              		.loc 1 234 0
 739 0042 0020     		movs	r0, #0
 740              	.LVL101:
 741              	.L67:
 235:Drivers/lvgl/lvgl/src/misc/lv_lru.c **** 
 742              		.loc 1 235 0
 743 0044 BDE8F883 		pop	{r3, r4, r5, r6, r7, r8, r9, pc}
 744              	.LVL102:
 745              	.L71:
 746              	.LCFI13:
 747              		.cfi_def_cfa_offset 0
 748              		.cfi_restore 3
 749              		.cfi_restore 4
 750              		.cfi_restore 5
 751              		.cfi_restore 6
 752              		.cfi_restore 7
 753              		.cfi_restore 8
 754              		.cfi_restore 9
 755              		.cfi_restore 14
 217:Drivers/lvgl/lvgl/src/misc/lv_lru.c ****     test_for_missing_key();
 756              		.loc 1 217 0
 757 0048 0120     		movs	r0, #1
 758              	.LVL103:
 235:Drivers/lvgl/lvgl/src/misc/lv_lru.c **** 
 759              		.loc 1 235 0
 760 004a 7047     		bx	lr
 761              	.LVL104:
ARM GAS  /tmp/cc8EH4Zz.s 			page 22


 762              	.L72:
 763              	.LCFI14:
 764              		.cfi_def_cfa_offset 32
 765              		.cfi_offset 3, -32
 766              		.cfi_offset 4, -28
 767              		.cfi_offset 5, -24
 768              		.cfi_offset 6, -20
 769              		.cfi_offset 7, -16
 770              		.cfi_offset 8, -12
 771              		.cfi_offset 9, -8
 772              		.cfi_offset 14, -4
 218:Drivers/lvgl/lvgl/src/misc/lv_lru.c **** 
 773              		.loc 1 218 0
 774 004c 0220     		movs	r0, #2
 775              	.LVL105:
 776 004e F9E7     		b	.L67
 777              	.LVL106:
 778              	.L73:
 234:Drivers/lvgl/lvgl/src/misc/lv_lru.c **** }
 779              		.loc 1 234 0
 780 0050 0020     		movs	r0, #0
 781 0052 F7E7     		b	.L67
 782              		.cfi_endproc
 783              	.LFE6:
 785              		.section	.text.lv_lru_remove_lru_item,"ax",%progbits
 786              		.align	1
 787              		.global	lv_lru_remove_lru_item
 788              		.syntax unified
 789              		.thumb
 790              		.thumb_func
 791              		.fpu fpv5-d16
 793              	lv_lru_remove_lru_item:
 794              	.LFB7:
 238:Drivers/lvgl/lvgl/src/misc/lv_lru.c ****     lv_lru_item_t * min_item = NULL, *min_prev = NULL;
 795              		.loc 1 238 0
 796              		.cfi_startproc
 797              		@ args = 0, pretend = 0, frame = 0
 798              		@ frame_needed = 0, uses_anonymous_args = 0
 799              	.LVL107:
 800 0000 2DE9F843 		push	{r3, r4, r5, r6, r7, r8, r9, lr}
 801              	.LCFI15:
 802              		.cfi_def_cfa_offset 32
 803              		.cfi_offset 3, -32
 804              		.cfi_offset 4, -28
 805              		.cfi_offset 5, -24
 806              		.cfi_offset 6, -20
 807              		.cfi_offset 7, -16
 808              		.cfi_offset 8, -12
 809              		.cfi_offset 9, -8
 810              		.cfi_offset 14, -4
 811              	.LVL108:
 242:Drivers/lvgl/lvgl/src/misc/lv_lru.c **** 
 812              		.loc 1 242 0
 813 0004 4FF0FF38 		mov	r8, #-1
 814 0008 4FF0FF39 		mov	r9, #-1
 241:Drivers/lvgl/lvgl/src/misc/lv_lru.c ****     uint64_t min_access_count = -1;
 815              		.loc 1 241 0
ARM GAS  /tmp/cc8EH4Zz.s 			page 23


 816 000c 4FF0FF33 		mov	r3, #-1
 817 0010 4FF0000C 		mov	ip, #0
 239:Drivers/lvgl/lvgl/src/misc/lv_lru.c ****     lv_lru_item_t * item = NULL, *prev = NULL;
 818              		.loc 1 239 0
 819 0014 6146     		mov	r1, ip
 820 0016 6246     		mov	r2, ip
 244:Drivers/lvgl/lvgl/src/misc/lv_lru.c ****         item = cache->items[i];
 821              		.loc 1 244 0
 822 0018 1CE0     		b	.L79
 823              	.LVL109:
 824              	.L85:
 253:Drivers/lvgl/lvgl/src/misc/lv_lru.c ****             }
 825              		.loc 1 253 0
 826 001a 6346     		mov	r3, ip
 827              	.LVL110:
 251:Drivers/lvgl/lvgl/src/misc/lv_lru.c ****                 min_prev = prev;
 828              		.loc 1 251 0
 829 001c 2246     		mov	r2, r4
 830              	.LVL111:
 831              	.L81:
 255:Drivers/lvgl/lvgl/src/misc/lv_lru.c ****             item = item->next;
 832              		.loc 1 255 0
 833 001e B046     		mov	r8, r6
 834 0020 B946     		mov	r9, r7
 835 0022 2946     		mov	r1, r5
 836 0024 2546     		mov	r5, r4
 837              	.LVL112:
 256:Drivers/lvgl/lvgl/src/misc/lv_lru.c ****         }
 838              		.loc 1 256 0
 839 0026 A469     		ldr	r4, [r4, #24]
 840              	.LVL113:
 841              	.L80:
 248:Drivers/lvgl/lvgl/src/misc/lv_lru.c ****             if(item->access_count < min_access_count || (int64_t) min_access_count == -1) {
 842              		.loc 1 248 0
 843 0028 94B1     		cbz	r4, .L88
 249:Drivers/lvgl/lvgl/src/misc/lv_lru.c ****                 min_access_count = item->access_count;
 844              		.loc 1 249 0
 845 002a D4E90467 		ldrd	r6, [r4, #16]
 846 002e 4F45     		cmp	r7, r9
 847 0030 08BF     		it	eq
 848 0032 4645     		cmpeq	r6, r8
 849 0034 F1D3     		bcc	.L85
 249:Drivers/lvgl/lvgl/src/misc/lv_lru.c ****                 min_access_count = item->access_count;
 850              		.loc 1 249 0 is_stmt 0 discriminator 1
 851 0036 B9F1FF3F 		cmp	r9, #-1
 852 003a 08BF     		it	eq
 853 003c B8F1FF3F 		cmpeq	r8, #-1
 854 0040 03D0     		beq	.L86
 249:Drivers/lvgl/lvgl/src/misc/lv_lru.c ****                 min_access_count = item->access_count;
 855              		.loc 1 249 0
 856 0042 4646     		mov	r6, r8
 857 0044 4F46     		mov	r7, r9
 858 0046 0D46     		mov	r5, r1
 859              	.LVL114:
 860 0048 E9E7     		b	.L81
 861              	.LVL115:
 862              	.L86:
ARM GAS  /tmp/cc8EH4Zz.s 			page 24


 253:Drivers/lvgl/lvgl/src/misc/lv_lru.c ****             }
 863              		.loc 1 253 0 is_stmt 1
 864 004a 6346     		mov	r3, ip
 865              	.LVL116:
 251:Drivers/lvgl/lvgl/src/misc/lv_lru.c ****                 min_prev = prev;
 866              		.loc 1 251 0
 867 004c 2246     		mov	r2, r4
 868              	.LVL117:
 869 004e E6E7     		b	.L81
 870              	.LVL118:
 871              	.L88:
 244:Drivers/lvgl/lvgl/src/misc/lv_lru.c ****         item = cache->items[i];
 872              		.loc 1 244 0
 873 0050 0CF1010C 		add	ip, ip, #1
 874              	.LVL119:
 875              	.L79:
 244:Drivers/lvgl/lvgl/src/misc/lv_lru.c ****         item = cache->items[i];
 876              		.loc 1 244 0 is_stmt 0 discriminator 1
 877 0054 C469     		ldr	r4, [r0, #28]
 878 0056 6445     		cmp	r4, ip
 879 0058 04D9     		bls	.L89
 245:Drivers/lvgl/lvgl/src/misc/lv_lru.c ****         prev = NULL;
 880              		.loc 1 245 0 is_stmt 1
 881 005a 0468     		ldr	r4, [r0]
 882 005c 54F82C40 		ldr	r4, [r4, ip, lsl #2]
 883              	.LVL120:
 246:Drivers/lvgl/lvgl/src/misc/lv_lru.c **** 
 884              		.loc 1 246 0
 885 0060 0025     		movs	r5, #0
 248:Drivers/lvgl/lvgl/src/misc/lv_lru.c ****             if(item->access_count < min_access_count || (int64_t) min_access_count == -1) {
 886              		.loc 1 248 0
 887 0062 E1E7     		b	.L80
 888              	.LVL121:
 889              	.L89:
 260:Drivers/lvgl/lvgl/src/misc/lv_lru.c ****         lv_lru_remove_item(cache, min_prev, min_item, min_index);
 890              		.loc 1 260 0
 891 0064 0AB1     		cbz	r2, .L78
 261:Drivers/lvgl/lvgl/src/misc/lv_lru.c ****     }
 892              		.loc 1 261 0
 893 0066 FFF7FEFF 		bl	lv_lru_remove_item
 894              	.LVL122:
 895              	.L78:
 263:Drivers/lvgl/lvgl/src/misc/lv_lru.c **** 
 896              		.loc 1 263 0
 897 006a BDE8F883 		pop	{r3, r4, r5, r6, r7, r8, r9, pc}
 898              		.cfi_endproc
 899              	.LFE7:
 901              		.section	.text.lv_lru_set,"ax",%progbits
 902              		.align	1
 903              		.global	lv_lru_set
 904              		.syntax unified
 905              		.thumb
 906              		.thumb_func
 907              		.fpu fpv5-d16
 909              	lv_lru_set:
 910              	.LFB4:
 140:Drivers/lvgl/lvgl/src/misc/lv_lru.c ****     test_for_missing_cache();
ARM GAS  /tmp/cc8EH4Zz.s 			page 25


 911              		.loc 1 140 0
 912              		.cfi_startproc
 913              		@ args = 4, pretend = 0, frame = 0
 914              		@ frame_needed = 0, uses_anonymous_args = 0
 915              	.LVL123:
 916 0000 2DE9F84F 		push	{r3, r4, r5, r6, r7, r8, r9, r10, fp, lr}
 917              	.LCFI16:
 918              		.cfi_def_cfa_offset 40
 919              		.cfi_offset 3, -40
 920              		.cfi_offset 4, -36
 921              		.cfi_offset 5, -32
 922              		.cfi_offset 6, -28
 923              		.cfi_offset 7, -24
 924              		.cfi_offset 8, -20
 925              		.cfi_offset 9, -16
 926              		.cfi_offset 10, -12
 927              		.cfi_offset 11, -8
 928              		.cfi_offset 14, -4
 929 0004 0A9F     		ldr	r7, [sp, #40]
 141:Drivers/lvgl/lvgl/src/misc/lv_lru.c ****     test_for_missing_key();
 930              		.loc 1 141 0
 931 0006 0028     		cmp	r0, #0
 932 0008 65D0     		beq	.L101
 933 000a 0546     		mov	r5, r0
 142:Drivers/lvgl/lvgl/src/misc/lv_lru.c ****     test_for_missing_value();
 934              		.loc 1 142 0
 935 000c 0029     		cmp	r1, #0
 936 000e 64D0     		beq	.L102
 143:Drivers/lvgl/lvgl/src/misc/lv_lru.c ****     test_for_value_too_large();
 937              		.loc 1 143 0
 938 0010 B7FA87F0 		clz	r0, r7
 939              	.LVL124:
 940 0014 4009     		lsrs	r0, r0, #5
 941 0016 002B     		cmp	r3, #0
 942 0018 08BF     		it	eq
 943 001a 0120     		moveq	r0, #1
 944 001c 0028     		cmp	r0, #0
 945 001e 5ED1     		bne	.L103
 144:Drivers/lvgl/lvgl/src/misc/lv_lru.c **** 
 946              		.loc 1 144 0
 947 0020 6869     		ldr	r0, [r5, #20]
 948 0022 B842     		cmp	r0, r7
 949 0024 5DD3     		bcc	.L104
 950 0026 9A46     		mov	r10, r3
 951 0028 9046     		mov	r8, r2
 952 002a 0E46     		mov	r6, r1
 147:Drivers/lvgl/lvgl/src/misc/lv_lru.c ****     int required = 0;
 953              		.loc 1 147 0
 954 002c 2846     		mov	r0, r5
 955 002e FFF7FEFF 		bl	lv_lru_hash
 956              	.LVL125:
 957 0032 8346     		mov	fp, r0
 958              	.LVL126:
 150:Drivers/lvgl/lvgl/src/misc/lv_lru.c **** 
 959              		.loc 1 150 0
 960 0034 2B68     		ldr	r3, [r5]
 961 0036 53F82040 		ldr	r4, [r3, r0, lsl #2]
ARM GAS  /tmp/cc8EH4Zz.s 			page 26


 962              	.LVL127:
 149:Drivers/lvgl/lvgl/src/misc/lv_lru.c ****     item = cache->items[hash_index];
 963              		.loc 1 149 0
 964 003a 4FF00009 		mov	r9, #0
 152:Drivers/lvgl/lvgl/src/misc/lv_lru.c ****         prev = item;
 965              		.loc 1 152 0
 966 003e 01E0     		b	.L92
 967              	.LVL128:
 968              	.L94:
 153:Drivers/lvgl/lvgl/src/misc/lv_lru.c ****         item = (lv_lru_item_t *) item->next;
 969              		.loc 1 153 0
 970 0040 A146     		mov	r9, r4
 154:Drivers/lvgl/lvgl/src/misc/lv_lru.c ****     }
 971              		.loc 1 154 0
 972 0042 A469     		ldr	r4, [r4, #24]
 973              	.LVL129:
 974              	.L92:
 152:Drivers/lvgl/lvgl/src/misc/lv_lru.c ****         prev = item;
 975              		.loc 1 152 0
 976 0044 34B1     		cbz	r4, .L93
 152:Drivers/lvgl/lvgl/src/misc/lv_lru.c ****         prev = item;
 977              		.loc 1 152 0 is_stmt 0 discriminator 1
 978 0046 4246     		mov	r2, r8
 979 0048 3146     		mov	r1, r6
 980 004a 2046     		mov	r0, r4
 981 004c FFF7FEFF 		bl	lv_lru_cmp_keys
 982              	.LVL130:
 983 0050 0028     		cmp	r0, #0
 984 0052 F5D1     		bne	.L94
 985              	.L93:
 157:Drivers/lvgl/lvgl/src/misc/lv_lru.c ****         // update the value and value_lengths
 986              		.loc 1 157 0 is_stmt 1
 987 0054 E4B1     		cbz	r4, .L95
 159:Drivers/lvgl/lvgl/src/misc/lv_lru.c ****         cache->value_free(item->value);
 988              		.loc 1 159 0
 989 0056 A668     		ldr	r6, [r4, #8]
 990              	.LVL131:
 991 0058 BE1B     		subs	r6, r7, r6
 992              	.LVL132:
 160:Drivers/lvgl/lvgl/src/misc/lv_lru.c ****         item->value = value;
 993              		.loc 1 160 0
 994 005a 6B6A     		ldr	r3, [r5, #36]
 995 005c 2068     		ldr	r0, [r4]
 996 005e 9847     		blx	r3
 997              	.LVL133:
 161:Drivers/lvgl/lvgl/src/misc/lv_lru.c ****         item->value_length = value_length;
 998              		.loc 1 161 0
 999 0060 C4F800A0 		str	r10, [r4]
 162:Drivers/lvgl/lvgl/src/misc/lv_lru.c **** 
 1000              		.loc 1 162 0
 1001 0064 A760     		str	r7, [r4, #8]
 1002              	.LVL134:
 1003              	.L96:
 180:Drivers/lvgl/lvgl/src/misc/lv_lru.c **** 
 1004              		.loc 1 180 0
 1005 0066 D5E90223 		ldrd	r2, [r5, #8]
 1006 006a 501C     		adds	r0, r2, #1
ARM GAS  /tmp/cc8EH4Zz.s 			page 27


 1007 006c 43F10001 		adc	r1, r3, #0
 1008 0070 C5E90201 		strd	r0, [r5, #8]
 1009 0074 C4E90401 		strd	r0, [r4, #16]
 183:Drivers/lvgl/lvgl/src/misc/lv_lru.c ****         while(cache->free_memory < (size_t) required)
 1010              		.loc 1 183 0
 1011 0078 002E     		cmp	r6, #0
 1012 007a 03DD     		ble	.L98
 183:Drivers/lvgl/lvgl/src/misc/lv_lru.c ****         while(cache->free_memory < (size_t) required)
 1013              		.loc 1 183 0 is_stmt 0 discriminator 1
 1014 007c 2B69     		ldr	r3, [r5, #16]
 1015 007e 3446     		mov	r4, r6
 1016              	.LVL135:
 1017 0080 B342     		cmp	r3, r6
 1018 0082 24D3     		bcc	.L99
 1019              	.L98:
 187:Drivers/lvgl/lvgl/src/misc/lv_lru.c ****     return LV_LRU_OK;
 1020              		.loc 1 187 0 is_stmt 1
 1021 0084 2B69     		ldr	r3, [r5, #16]
 1022 0086 9E1B     		subs	r6, r3, r6
 1023              	.LVL136:
 1024 0088 2E61     		str	r6, [r5, #16]
 188:Drivers/lvgl/lvgl/src/misc/lv_lru.c **** }
 1025              		.loc 1 188 0
 1026 008a 0020     		movs	r0, #0
 1027              	.LVL137:
 1028              	.L91:
 189:Drivers/lvgl/lvgl/src/misc/lv_lru.c **** 
 1029              		.loc 1 189 0
 1030 008c BDE8F88F 		pop	{r3, r4, r5, r6, r7, r8, r9, r10, fp, pc}
 1031              	.LVL138:
 1032              	.L95:
 167:Drivers/lvgl/lvgl/src/misc/lv_lru.c ****         item->value = value;
 1033              		.loc 1 167 0
 1034 0090 2846     		mov	r0, r5
 1035 0092 FFF7FEFF 		bl	lv_lru_pop_or_create_item
 1036              	.LVL139:
 1037 0096 0446     		mov	r4, r0
 1038              	.LVL140:
 168:Drivers/lvgl/lvgl/src/misc/lv_lru.c ****         item->key = lv_mem_alloc(key_length);
 1039              		.loc 1 168 0
 1040 0098 C0F800A0 		str	r10, [r0]
 169:Drivers/lvgl/lvgl/src/misc/lv_lru.c ****         memcpy(item->key, key, key_length);
 1041              		.loc 1 169 0
 1042 009c 4046     		mov	r0, r8
 1043              	.LVL141:
 1044 009e FFF7FEFF 		bl	lv_mem_alloc
 1045              	.LVL142:
 1046 00a2 6060     		str	r0, [r4, #4]
 170:Drivers/lvgl/lvgl/src/misc/lv_lru.c ****         item->value_length = value_length;
 1047              		.loc 1 170 0
 1048 00a4 4246     		mov	r2, r8
 1049 00a6 3146     		mov	r1, r6
 1050 00a8 FFF7FEFF 		bl	memcpy
 1051              	.LVL143:
 171:Drivers/lvgl/lvgl/src/misc/lv_lru.c ****         item->key_length = key_length;
 1052              		.loc 1 171 0
 1053 00ac A760     		str	r7, [r4, #8]
ARM GAS  /tmp/cc8EH4Zz.s 			page 28


 172:Drivers/lvgl/lvgl/src/misc/lv_lru.c ****         required = (int) value_length;
 1054              		.loc 1 172 0
 1055 00ae C4F80C80 		str	r8, [r4, #12]
 173:Drivers/lvgl/lvgl/src/misc/lv_lru.c **** 
 1056              		.loc 1 173 0
 1057 00b2 3E46     		mov	r6, r7
 1058              	.LVL144:
 175:Drivers/lvgl/lvgl/src/misc/lv_lru.c ****             prev->next = item;
 1059              		.loc 1 175 0
 1060 00b4 B9F1000F 		cmp	r9, #0
 1061 00b8 02D0     		beq	.L97
 176:Drivers/lvgl/lvgl/src/misc/lv_lru.c ****         else
 1062              		.loc 1 176 0
 1063 00ba C9F81840 		str	r4, [r9, #24]
 1064 00be D2E7     		b	.L96
 1065              	.L97:
 178:Drivers/lvgl/lvgl/src/misc/lv_lru.c ****     }
 1066              		.loc 1 178 0
 1067 00c0 2B68     		ldr	r3, [r5]
 1068 00c2 43F82B40 		str	r4, [r3, fp, lsl #2]
 1069 00c6 CEE7     		b	.L96
 1070              	.LVL145:
 1071              	.L100:
 185:Drivers/lvgl/lvgl/src/misc/lv_lru.c ****     }
 1072              		.loc 1 185 0
 1073 00c8 2846     		mov	r0, r5
 1074 00ca FFF7FEFF 		bl	lv_lru_remove_lru_item
 1075              	.LVL146:
 1076              	.L99:
 184:Drivers/lvgl/lvgl/src/misc/lv_lru.c ****             lv_lru_remove_lru_item(cache);
 1077              		.loc 1 184 0
 1078 00ce 2B69     		ldr	r3, [r5, #16]
 1079 00d0 9C42     		cmp	r4, r3
 1080 00d2 F9D8     		bhi	.L100
 1081 00d4 D6E7     		b	.L98
 1082              	.LVL147:
 1083              	.L101:
 141:Drivers/lvgl/lvgl/src/misc/lv_lru.c ****     test_for_missing_key();
 1084              		.loc 1 141 0
 1085 00d6 0120     		movs	r0, #1
 1086              	.LVL148:
 1087 00d8 D8E7     		b	.L91
 1088              	.LVL149:
 1089              	.L102:
 142:Drivers/lvgl/lvgl/src/misc/lv_lru.c ****     test_for_missing_value();
 1090              		.loc 1 142 0
 1091 00da 0220     		movs	r0, #2
 1092              	.LVL150:
 1093 00dc D6E7     		b	.L91
 1094              	.L103:
 143:Drivers/lvgl/lvgl/src/misc/lv_lru.c ****     test_for_value_too_large();
 1095              		.loc 1 143 0
 1096 00de 0320     		movs	r0, #3
 1097 00e0 D4E7     		b	.L91
 1098              	.L104:
 144:Drivers/lvgl/lvgl/src/misc/lv_lru.c **** 
 1099              		.loc 1 144 0
ARM GAS  /tmp/cc8EH4Zz.s 			page 29


 1100 00e2 0520     		movs	r0, #5
 1101 00e4 D2E7     		b	.L91
 1102              		.cfi_endproc
 1103              	.LFE4:
 1105              		.text
 1106              	.Letext0:
 1107              		.file 2 "/opt/gcc-arm-none-eabi-7-2017-q4-major/arm-none-eabi/include/machine/_default_types.h"
 1108              		.file 3 "/opt/gcc-arm-none-eabi-7-2017-q4-major/arm-none-eabi/include/sys/_stdint.h"
 1109              		.file 4 "/opt/gcc-arm-none-eabi-7-2017-q4-major/lib/gcc/arm-none-eabi/7.2.1/include/stddef.h"
 1110              		.file 5 "Drivers/lvgl/lvgl/src/misc/lv_lru.h"
 1111              		.file 6 "/opt/gcc-arm-none-eabi-7-2017-q4-major/arm-none-eabi/include/sys/lock.h"
 1112              		.file 7 "/opt/gcc-arm-none-eabi-7-2017-q4-major/arm-none-eabi/include/sys/_types.h"
 1113              		.file 8 "/opt/gcc-arm-none-eabi-7-2017-q4-major/arm-none-eabi/include/sys/reent.h"
 1114              		.file 9 "Drivers/lvgl/lvgl/src/misc/lv_mem.h"
 1115              		.file 10 "/opt/gcc-arm-none-eabi-7-2017-q4-major/arm-none-eabi/include/string.h"
 1116              		.file 11 "Drivers/lvgl/lvgl/src/misc/lv_math.h"
 1117              		.file 12 "<built-in>"
ARM GAS  /tmp/cc8EH4Zz.s 			page 30

