ARM GAS  /tmp/ccSYOygB.s 			page 1


   1              		.cpu cortex-m7
   2              		.eabi_attribute 28, 1
   3              		.eabi_attribute 20, 1
   4              		.eabi_attribute 21, 1
   5              		.eabi_attribute 23, 3
   6              		.eabi_attribute 24, 1
   7              		.eabi_attribute 25, 1
   8              		.eabi_attribute 26, 1
   9              		.eabi_attribute 30, 1
  10              		.eabi_attribute 34, 1
  11              		.eabi_attribute 18, 4
  12              		.file	"lv_msgbox.c"
  13              		.text
  14              	.Ltext0:
  15              		.cfi_sections	.debug_frame
  16              		.section	.text.lv_msgbox_create,"ax",%progbits
  17              		.align	1
  18              		.global	lv_msgbox_create
  19              		.syntax unified
  20              		.thumb
  21              		.thumb_func
  22              		.fpu fpv5-d16
  24              	lv_msgbox_create:
  25              	.LFB202:
  26              		.file 1 "Drivers/lvgl/lvgl/src/extra/widgets/msgbox/lv_msgbox.c"
   1:Drivers/lvgl/lvgl/src/extra/widgets/msgbox/lv_msgbox.c **** /**
   2:Drivers/lvgl/lvgl/src/extra/widgets/msgbox/lv_msgbox.c ****  * @file lv_msgbox.c
   3:Drivers/lvgl/lvgl/src/extra/widgets/msgbox/lv_msgbox.c ****  *
   4:Drivers/lvgl/lvgl/src/extra/widgets/msgbox/lv_msgbox.c ****  */
   5:Drivers/lvgl/lvgl/src/extra/widgets/msgbox/lv_msgbox.c **** 
   6:Drivers/lvgl/lvgl/src/extra/widgets/msgbox/lv_msgbox.c **** /*********************
   7:Drivers/lvgl/lvgl/src/extra/widgets/msgbox/lv_msgbox.c ****  *      INCLUDES
   8:Drivers/lvgl/lvgl/src/extra/widgets/msgbox/lv_msgbox.c ****  *********************/
   9:Drivers/lvgl/lvgl/src/extra/widgets/msgbox/lv_msgbox.c **** #include "lv_msgbox.h"
  10:Drivers/lvgl/lvgl/src/extra/widgets/msgbox/lv_msgbox.c **** #if LV_USE_MSGBOX
  11:Drivers/lvgl/lvgl/src/extra/widgets/msgbox/lv_msgbox.c **** 
  12:Drivers/lvgl/lvgl/src/extra/widgets/msgbox/lv_msgbox.c **** #include "../../../misc/lv_assert.h"
  13:Drivers/lvgl/lvgl/src/extra/widgets/msgbox/lv_msgbox.c **** 
  14:Drivers/lvgl/lvgl/src/extra/widgets/msgbox/lv_msgbox.c **** /*********************
  15:Drivers/lvgl/lvgl/src/extra/widgets/msgbox/lv_msgbox.c ****  *      DEFINES
  16:Drivers/lvgl/lvgl/src/extra/widgets/msgbox/lv_msgbox.c ****  *********************/
  17:Drivers/lvgl/lvgl/src/extra/widgets/msgbox/lv_msgbox.c **** #define LV_MSGBOX_FLAG_AUTO_PARENT  LV_OBJ_FLAG_WIDGET_1        /*Mark that the parent was automati
  18:Drivers/lvgl/lvgl/src/extra/widgets/msgbox/lv_msgbox.c **** #define MY_CLASS    &lv_msgbox_class
  19:Drivers/lvgl/lvgl/src/extra/widgets/msgbox/lv_msgbox.c **** 
  20:Drivers/lvgl/lvgl/src/extra/widgets/msgbox/lv_msgbox.c **** /**********************
  21:Drivers/lvgl/lvgl/src/extra/widgets/msgbox/lv_msgbox.c ****  *      TYPEDEFS
  22:Drivers/lvgl/lvgl/src/extra/widgets/msgbox/lv_msgbox.c ****  **********************/
  23:Drivers/lvgl/lvgl/src/extra/widgets/msgbox/lv_msgbox.c **** 
  24:Drivers/lvgl/lvgl/src/extra/widgets/msgbox/lv_msgbox.c **** /**********************
  25:Drivers/lvgl/lvgl/src/extra/widgets/msgbox/lv_msgbox.c ****  *  STATIC PROTOTYPES
  26:Drivers/lvgl/lvgl/src/extra/widgets/msgbox/lv_msgbox.c ****  **********************/
  27:Drivers/lvgl/lvgl/src/extra/widgets/msgbox/lv_msgbox.c **** static void msgbox_close_click_event_cb(lv_event_t * e);
  28:Drivers/lvgl/lvgl/src/extra/widgets/msgbox/lv_msgbox.c **** 
  29:Drivers/lvgl/lvgl/src/extra/widgets/msgbox/lv_msgbox.c **** /**********************
  30:Drivers/lvgl/lvgl/src/extra/widgets/msgbox/lv_msgbox.c ****  *  STATIC VARIABLES
  31:Drivers/lvgl/lvgl/src/extra/widgets/msgbox/lv_msgbox.c ****  **********************/
  32:Drivers/lvgl/lvgl/src/extra/widgets/msgbox/lv_msgbox.c **** const lv_obj_class_t lv_msgbox_class = {
ARM GAS  /tmp/ccSYOygB.s 			page 2


  33:Drivers/lvgl/lvgl/src/extra/widgets/msgbox/lv_msgbox.c ****     .base_class = &lv_obj_class,
  34:Drivers/lvgl/lvgl/src/extra/widgets/msgbox/lv_msgbox.c ****     .width_def = LV_DPI_DEF * 2,
  35:Drivers/lvgl/lvgl/src/extra/widgets/msgbox/lv_msgbox.c ****     .height_def = LV_SIZE_CONTENT,
  36:Drivers/lvgl/lvgl/src/extra/widgets/msgbox/lv_msgbox.c ****     .instance_size = sizeof(lv_msgbox_t)
  37:Drivers/lvgl/lvgl/src/extra/widgets/msgbox/lv_msgbox.c **** };
  38:Drivers/lvgl/lvgl/src/extra/widgets/msgbox/lv_msgbox.c **** 
  39:Drivers/lvgl/lvgl/src/extra/widgets/msgbox/lv_msgbox.c **** const lv_obj_class_t lv_msgbox_content_class = {
  40:Drivers/lvgl/lvgl/src/extra/widgets/msgbox/lv_msgbox.c ****     .base_class = &lv_obj_class,
  41:Drivers/lvgl/lvgl/src/extra/widgets/msgbox/lv_msgbox.c ****     .width_def = LV_PCT(100),
  42:Drivers/lvgl/lvgl/src/extra/widgets/msgbox/lv_msgbox.c ****     .height_def = LV_SIZE_CONTENT,
  43:Drivers/lvgl/lvgl/src/extra/widgets/msgbox/lv_msgbox.c ****     .instance_size = sizeof(lv_obj_t)
  44:Drivers/lvgl/lvgl/src/extra/widgets/msgbox/lv_msgbox.c **** };
  45:Drivers/lvgl/lvgl/src/extra/widgets/msgbox/lv_msgbox.c **** 
  46:Drivers/lvgl/lvgl/src/extra/widgets/msgbox/lv_msgbox.c **** const lv_obj_class_t lv_msgbox_backdrop_class = {
  47:Drivers/lvgl/lvgl/src/extra/widgets/msgbox/lv_msgbox.c ****     .base_class = &lv_obj_class,
  48:Drivers/lvgl/lvgl/src/extra/widgets/msgbox/lv_msgbox.c ****     .width_def = LV_PCT(100),
  49:Drivers/lvgl/lvgl/src/extra/widgets/msgbox/lv_msgbox.c ****     .height_def = LV_PCT(100),
  50:Drivers/lvgl/lvgl/src/extra/widgets/msgbox/lv_msgbox.c ****     .instance_size = sizeof(lv_obj_t)
  51:Drivers/lvgl/lvgl/src/extra/widgets/msgbox/lv_msgbox.c **** };
  52:Drivers/lvgl/lvgl/src/extra/widgets/msgbox/lv_msgbox.c **** 
  53:Drivers/lvgl/lvgl/src/extra/widgets/msgbox/lv_msgbox.c **** /**********************
  54:Drivers/lvgl/lvgl/src/extra/widgets/msgbox/lv_msgbox.c ****  *      MACROS
  55:Drivers/lvgl/lvgl/src/extra/widgets/msgbox/lv_msgbox.c ****  **********************/
  56:Drivers/lvgl/lvgl/src/extra/widgets/msgbox/lv_msgbox.c **** 
  57:Drivers/lvgl/lvgl/src/extra/widgets/msgbox/lv_msgbox.c **** /**********************
  58:Drivers/lvgl/lvgl/src/extra/widgets/msgbox/lv_msgbox.c ****  *   GLOBAL FUNCTIONS
  59:Drivers/lvgl/lvgl/src/extra/widgets/msgbox/lv_msgbox.c ****  **********************/
  60:Drivers/lvgl/lvgl/src/extra/widgets/msgbox/lv_msgbox.c **** 
  61:Drivers/lvgl/lvgl/src/extra/widgets/msgbox/lv_msgbox.c **** lv_obj_t * lv_msgbox_create(lv_obj_t * parent, const char * title, const char * txt, const char * b
  62:Drivers/lvgl/lvgl/src/extra/widgets/msgbox/lv_msgbox.c ****                             bool add_close_btn)
  63:Drivers/lvgl/lvgl/src/extra/widgets/msgbox/lv_msgbox.c **** {
  27              		.loc 1 63 0
  28              		.cfi_startproc
  29              		@ args = 4, pretend = 0, frame = 0
  30              		@ frame_needed = 0, uses_anonymous_args = 0
  31              	.LVL0:
  32 0000 2DE9F843 		push	{r3, r4, r5, r6, r7, r8, r9, lr}
  33              	.LCFI0:
  34              		.cfi_def_cfa_offset 32
  35              		.cfi_offset 3, -32
  36              		.cfi_offset 4, -28
  37              		.cfi_offset 5, -24
  38              		.cfi_offset 6, -20
  39              		.cfi_offset 7, -16
  40              		.cfi_offset 8, -12
  41              		.cfi_offset 9, -8
  42              		.cfi_offset 14, -4
  43 0004 8846     		mov	r8, r1
  44 0006 1746     		mov	r7, r2
  45 0008 1E46     		mov	r6, r3
  46 000a 9DF82090 		ldrb	r9, [sp, #32]	@ zero_extendqisi2
  47              	.LVL1:
  64:Drivers/lvgl/lvgl/src/extra/widgets/msgbox/lv_msgbox.c ****     LV_LOG_INFO("begin");
  65:Drivers/lvgl/lvgl/src/extra/widgets/msgbox/lv_msgbox.c ****     bool auto_parent = false;
  66:Drivers/lvgl/lvgl/src/extra/widgets/msgbox/lv_msgbox.c ****     if(parent == NULL) {
  48              		.loc 1 66 0
  49 000e C8B9     		cbnz	r0, .L21
ARM GAS  /tmp/ccSYOygB.s 			page 3


  50              	.LVL2:
  51              	.LBB18:
  52              	.LBB19:
  53              		.file 2 "Drivers/lvgl/lvgl/src/extra/widgets/msgbox/../../../../src/core/lv_disp.h"
   1:Drivers/lvgl/lvgl/src/extra/widgets/msgbox/../../../../src/core/lv_disp.h **** /**
   2:Drivers/lvgl/lvgl/src/extra/widgets/msgbox/../../../../src/core/lv_disp.h ****  * @file lv_disp.h
   3:Drivers/lvgl/lvgl/src/extra/widgets/msgbox/../../../../src/core/lv_disp.h ****  *
   4:Drivers/lvgl/lvgl/src/extra/widgets/msgbox/../../../../src/core/lv_disp.h ****  */
   5:Drivers/lvgl/lvgl/src/extra/widgets/msgbox/../../../../src/core/lv_disp.h **** 
   6:Drivers/lvgl/lvgl/src/extra/widgets/msgbox/../../../../src/core/lv_disp.h **** #ifndef LV_DISP_H
   7:Drivers/lvgl/lvgl/src/extra/widgets/msgbox/../../../../src/core/lv_disp.h **** #define LV_DISP_H
   8:Drivers/lvgl/lvgl/src/extra/widgets/msgbox/../../../../src/core/lv_disp.h **** 
   9:Drivers/lvgl/lvgl/src/extra/widgets/msgbox/../../../../src/core/lv_disp.h **** #ifdef __cplusplus
  10:Drivers/lvgl/lvgl/src/extra/widgets/msgbox/../../../../src/core/lv_disp.h **** extern "C" {
  11:Drivers/lvgl/lvgl/src/extra/widgets/msgbox/../../../../src/core/lv_disp.h **** #endif
  12:Drivers/lvgl/lvgl/src/extra/widgets/msgbox/../../../../src/core/lv_disp.h **** 
  13:Drivers/lvgl/lvgl/src/extra/widgets/msgbox/../../../../src/core/lv_disp.h **** /*********************
  14:Drivers/lvgl/lvgl/src/extra/widgets/msgbox/../../../../src/core/lv_disp.h ****  *      INCLUDES
  15:Drivers/lvgl/lvgl/src/extra/widgets/msgbox/../../../../src/core/lv_disp.h ****  *********************/
  16:Drivers/lvgl/lvgl/src/extra/widgets/msgbox/../../../../src/core/lv_disp.h **** #include "../hal/lv_hal.h"
  17:Drivers/lvgl/lvgl/src/extra/widgets/msgbox/../../../../src/core/lv_disp.h **** #include "lv_obj.h"
  18:Drivers/lvgl/lvgl/src/extra/widgets/msgbox/../../../../src/core/lv_disp.h **** #include "lv_theme.h"
  19:Drivers/lvgl/lvgl/src/extra/widgets/msgbox/../../../../src/core/lv_disp.h **** 
  20:Drivers/lvgl/lvgl/src/extra/widgets/msgbox/../../../../src/core/lv_disp.h **** /*********************
  21:Drivers/lvgl/lvgl/src/extra/widgets/msgbox/../../../../src/core/lv_disp.h ****  *      DEFINES
  22:Drivers/lvgl/lvgl/src/extra/widgets/msgbox/../../../../src/core/lv_disp.h ****  *********************/
  23:Drivers/lvgl/lvgl/src/extra/widgets/msgbox/../../../../src/core/lv_disp.h **** 
  24:Drivers/lvgl/lvgl/src/extra/widgets/msgbox/../../../../src/core/lv_disp.h **** /**********************
  25:Drivers/lvgl/lvgl/src/extra/widgets/msgbox/../../../../src/core/lv_disp.h ****  *      TYPEDEFS
  26:Drivers/lvgl/lvgl/src/extra/widgets/msgbox/../../../../src/core/lv_disp.h ****  **********************/
  27:Drivers/lvgl/lvgl/src/extra/widgets/msgbox/../../../../src/core/lv_disp.h **** 
  28:Drivers/lvgl/lvgl/src/extra/widgets/msgbox/../../../../src/core/lv_disp.h **** typedef enum {
  29:Drivers/lvgl/lvgl/src/extra/widgets/msgbox/../../../../src/core/lv_disp.h ****     LV_SCR_LOAD_ANIM_NONE,
  30:Drivers/lvgl/lvgl/src/extra/widgets/msgbox/../../../../src/core/lv_disp.h ****     LV_SCR_LOAD_ANIM_OVER_LEFT,
  31:Drivers/lvgl/lvgl/src/extra/widgets/msgbox/../../../../src/core/lv_disp.h ****     LV_SCR_LOAD_ANIM_OVER_RIGHT,
  32:Drivers/lvgl/lvgl/src/extra/widgets/msgbox/../../../../src/core/lv_disp.h ****     LV_SCR_LOAD_ANIM_OVER_TOP,
  33:Drivers/lvgl/lvgl/src/extra/widgets/msgbox/../../../../src/core/lv_disp.h ****     LV_SCR_LOAD_ANIM_OVER_BOTTOM,
  34:Drivers/lvgl/lvgl/src/extra/widgets/msgbox/../../../../src/core/lv_disp.h ****     LV_SCR_LOAD_ANIM_MOVE_LEFT,
  35:Drivers/lvgl/lvgl/src/extra/widgets/msgbox/../../../../src/core/lv_disp.h ****     LV_SCR_LOAD_ANIM_MOVE_RIGHT,
  36:Drivers/lvgl/lvgl/src/extra/widgets/msgbox/../../../../src/core/lv_disp.h ****     LV_SCR_LOAD_ANIM_MOVE_TOP,
  37:Drivers/lvgl/lvgl/src/extra/widgets/msgbox/../../../../src/core/lv_disp.h ****     LV_SCR_LOAD_ANIM_MOVE_BOTTOM,
  38:Drivers/lvgl/lvgl/src/extra/widgets/msgbox/../../../../src/core/lv_disp.h ****     LV_SCR_LOAD_ANIM_FADE_IN,
  39:Drivers/lvgl/lvgl/src/extra/widgets/msgbox/../../../../src/core/lv_disp.h ****     LV_SCR_LOAD_ANIM_FADE_ON = LV_SCR_LOAD_ANIM_FADE_IN, /*For backward compatibility*/
  40:Drivers/lvgl/lvgl/src/extra/widgets/msgbox/../../../../src/core/lv_disp.h ****     LV_SCR_LOAD_ANIM_FADE_OUT,
  41:Drivers/lvgl/lvgl/src/extra/widgets/msgbox/../../../../src/core/lv_disp.h ****     LV_SCR_LOAD_ANIM_OUT_LEFT,
  42:Drivers/lvgl/lvgl/src/extra/widgets/msgbox/../../../../src/core/lv_disp.h ****     LV_SCR_LOAD_ANIM_OUT_RIGHT,
  43:Drivers/lvgl/lvgl/src/extra/widgets/msgbox/../../../../src/core/lv_disp.h ****     LV_SCR_LOAD_ANIM_OUT_TOP,
  44:Drivers/lvgl/lvgl/src/extra/widgets/msgbox/../../../../src/core/lv_disp.h ****     LV_SCR_LOAD_ANIM_OUT_BOTTOM,
  45:Drivers/lvgl/lvgl/src/extra/widgets/msgbox/../../../../src/core/lv_disp.h **** } lv_scr_load_anim_t;
  46:Drivers/lvgl/lvgl/src/extra/widgets/msgbox/../../../../src/core/lv_disp.h **** 
  47:Drivers/lvgl/lvgl/src/extra/widgets/msgbox/../../../../src/core/lv_disp.h **** /**********************
  48:Drivers/lvgl/lvgl/src/extra/widgets/msgbox/../../../../src/core/lv_disp.h ****  * GLOBAL PROTOTYPES
  49:Drivers/lvgl/lvgl/src/extra/widgets/msgbox/../../../../src/core/lv_disp.h ****  **********************/
  50:Drivers/lvgl/lvgl/src/extra/widgets/msgbox/../../../../src/core/lv_disp.h **** 
  51:Drivers/lvgl/lvgl/src/extra/widgets/msgbox/../../../../src/core/lv_disp.h **** /**
  52:Drivers/lvgl/lvgl/src/extra/widgets/msgbox/../../../../src/core/lv_disp.h ****  * Return with a pointer to the active screen
  53:Drivers/lvgl/lvgl/src/extra/widgets/msgbox/../../../../src/core/lv_disp.h ****  * @param disp pointer to display which active screen should be get. (NULL to use the default
ARM GAS  /tmp/ccSYOygB.s 			page 4


  54:Drivers/lvgl/lvgl/src/extra/widgets/msgbox/../../../../src/core/lv_disp.h ****  * screen)
  55:Drivers/lvgl/lvgl/src/extra/widgets/msgbox/../../../../src/core/lv_disp.h ****  * @return pointer to the active screen object (loaded by 'lv_scr_load()')
  56:Drivers/lvgl/lvgl/src/extra/widgets/msgbox/../../../../src/core/lv_disp.h ****  */
  57:Drivers/lvgl/lvgl/src/extra/widgets/msgbox/../../../../src/core/lv_disp.h **** lv_obj_t * lv_disp_get_scr_act(lv_disp_t * disp);
  58:Drivers/lvgl/lvgl/src/extra/widgets/msgbox/../../../../src/core/lv_disp.h **** 
  59:Drivers/lvgl/lvgl/src/extra/widgets/msgbox/../../../../src/core/lv_disp.h **** /**
  60:Drivers/lvgl/lvgl/src/extra/widgets/msgbox/../../../../src/core/lv_disp.h ****  * Return with a pointer to the previous screen. Only used during screen transitions.
  61:Drivers/lvgl/lvgl/src/extra/widgets/msgbox/../../../../src/core/lv_disp.h ****  * @param disp pointer to display which previous screen should be get. (NULL to use the default
  62:Drivers/lvgl/lvgl/src/extra/widgets/msgbox/../../../../src/core/lv_disp.h ****  * screen)
  63:Drivers/lvgl/lvgl/src/extra/widgets/msgbox/../../../../src/core/lv_disp.h ****  * @return pointer to the previous screen object or NULL if not used now
  64:Drivers/lvgl/lvgl/src/extra/widgets/msgbox/../../../../src/core/lv_disp.h ****  */
  65:Drivers/lvgl/lvgl/src/extra/widgets/msgbox/../../../../src/core/lv_disp.h **** lv_obj_t * lv_disp_get_scr_prev(lv_disp_t * disp);
  66:Drivers/lvgl/lvgl/src/extra/widgets/msgbox/../../../../src/core/lv_disp.h **** 
  67:Drivers/lvgl/lvgl/src/extra/widgets/msgbox/../../../../src/core/lv_disp.h **** /**
  68:Drivers/lvgl/lvgl/src/extra/widgets/msgbox/../../../../src/core/lv_disp.h ****  * Make a screen active
  69:Drivers/lvgl/lvgl/src/extra/widgets/msgbox/../../../../src/core/lv_disp.h ****  * @param scr pointer to a screen
  70:Drivers/lvgl/lvgl/src/extra/widgets/msgbox/../../../../src/core/lv_disp.h ****  */
  71:Drivers/lvgl/lvgl/src/extra/widgets/msgbox/../../../../src/core/lv_disp.h **** void lv_disp_load_scr(lv_obj_t * scr);
  72:Drivers/lvgl/lvgl/src/extra/widgets/msgbox/../../../../src/core/lv_disp.h **** 
  73:Drivers/lvgl/lvgl/src/extra/widgets/msgbox/../../../../src/core/lv_disp.h **** /**
  74:Drivers/lvgl/lvgl/src/extra/widgets/msgbox/../../../../src/core/lv_disp.h ****  * Return with the top layer. (Same on every screen and it is above the normal screen layer)
  75:Drivers/lvgl/lvgl/src/extra/widgets/msgbox/../../../../src/core/lv_disp.h ****  * @param disp pointer to display which top layer should be get. (NULL to use the default screen)
  76:Drivers/lvgl/lvgl/src/extra/widgets/msgbox/../../../../src/core/lv_disp.h ****  * @return pointer to the top layer object (transparent screen sized lv_obj)
  77:Drivers/lvgl/lvgl/src/extra/widgets/msgbox/../../../../src/core/lv_disp.h ****  */
  78:Drivers/lvgl/lvgl/src/extra/widgets/msgbox/../../../../src/core/lv_disp.h **** lv_obj_t * lv_disp_get_layer_top(lv_disp_t * disp);
  79:Drivers/lvgl/lvgl/src/extra/widgets/msgbox/../../../../src/core/lv_disp.h **** 
  80:Drivers/lvgl/lvgl/src/extra/widgets/msgbox/../../../../src/core/lv_disp.h **** /**
  81:Drivers/lvgl/lvgl/src/extra/widgets/msgbox/../../../../src/core/lv_disp.h ****  * Return with the sys. layer. (Same on every screen and it is above the normal screen and the top
  82:Drivers/lvgl/lvgl/src/extra/widgets/msgbox/../../../../src/core/lv_disp.h ****  * layer)
  83:Drivers/lvgl/lvgl/src/extra/widgets/msgbox/../../../../src/core/lv_disp.h ****  * @param disp pointer to display which sys. layer should be retrieved. (NULL to use the default sc
  84:Drivers/lvgl/lvgl/src/extra/widgets/msgbox/../../../../src/core/lv_disp.h ****  * @return pointer to the sys layer object (transparent screen sized lv_obj)
  85:Drivers/lvgl/lvgl/src/extra/widgets/msgbox/../../../../src/core/lv_disp.h ****  */
  86:Drivers/lvgl/lvgl/src/extra/widgets/msgbox/../../../../src/core/lv_disp.h **** lv_obj_t * lv_disp_get_layer_sys(lv_disp_t * disp);
  87:Drivers/lvgl/lvgl/src/extra/widgets/msgbox/../../../../src/core/lv_disp.h **** 
  88:Drivers/lvgl/lvgl/src/extra/widgets/msgbox/../../../../src/core/lv_disp.h **** /**
  89:Drivers/lvgl/lvgl/src/extra/widgets/msgbox/../../../../src/core/lv_disp.h ****  * Set the theme of a display
  90:Drivers/lvgl/lvgl/src/extra/widgets/msgbox/../../../../src/core/lv_disp.h ****  * @param disp pointer to a display
  91:Drivers/lvgl/lvgl/src/extra/widgets/msgbox/../../../../src/core/lv_disp.h ****  */
  92:Drivers/lvgl/lvgl/src/extra/widgets/msgbox/../../../../src/core/lv_disp.h **** void lv_disp_set_theme(lv_disp_t * disp, lv_theme_t * th);
  93:Drivers/lvgl/lvgl/src/extra/widgets/msgbox/../../../../src/core/lv_disp.h **** 
  94:Drivers/lvgl/lvgl/src/extra/widgets/msgbox/../../../../src/core/lv_disp.h **** /**
  95:Drivers/lvgl/lvgl/src/extra/widgets/msgbox/../../../../src/core/lv_disp.h ****  * Get the theme of a display
  96:Drivers/lvgl/lvgl/src/extra/widgets/msgbox/../../../../src/core/lv_disp.h ****  * @param disp pointer to a display
  97:Drivers/lvgl/lvgl/src/extra/widgets/msgbox/../../../../src/core/lv_disp.h ****  * @return the display's theme (can be NULL)
  98:Drivers/lvgl/lvgl/src/extra/widgets/msgbox/../../../../src/core/lv_disp.h ****  */
  99:Drivers/lvgl/lvgl/src/extra/widgets/msgbox/../../../../src/core/lv_disp.h **** lv_theme_t * lv_disp_get_theme(lv_disp_t * disp);
 100:Drivers/lvgl/lvgl/src/extra/widgets/msgbox/../../../../src/core/lv_disp.h **** 
 101:Drivers/lvgl/lvgl/src/extra/widgets/msgbox/../../../../src/core/lv_disp.h **** /**
 102:Drivers/lvgl/lvgl/src/extra/widgets/msgbox/../../../../src/core/lv_disp.h ****  * Set the background color of a display
 103:Drivers/lvgl/lvgl/src/extra/widgets/msgbox/../../../../src/core/lv_disp.h ****  * @param disp pointer to a display
 104:Drivers/lvgl/lvgl/src/extra/widgets/msgbox/../../../../src/core/lv_disp.h ****  * @param color color of the background
 105:Drivers/lvgl/lvgl/src/extra/widgets/msgbox/../../../../src/core/lv_disp.h ****  */
 106:Drivers/lvgl/lvgl/src/extra/widgets/msgbox/../../../../src/core/lv_disp.h **** void lv_disp_set_bg_color(lv_disp_t * disp, lv_color_t color);
 107:Drivers/lvgl/lvgl/src/extra/widgets/msgbox/../../../../src/core/lv_disp.h **** 
 108:Drivers/lvgl/lvgl/src/extra/widgets/msgbox/../../../../src/core/lv_disp.h **** /**
 109:Drivers/lvgl/lvgl/src/extra/widgets/msgbox/../../../../src/core/lv_disp.h ****  * Set the background image of a display
 110:Drivers/lvgl/lvgl/src/extra/widgets/msgbox/../../../../src/core/lv_disp.h ****  * @param disp pointer to a display
ARM GAS  /tmp/ccSYOygB.s 			page 5


 111:Drivers/lvgl/lvgl/src/extra/widgets/msgbox/../../../../src/core/lv_disp.h ****  * @param img_src path to file or pointer to an `lv_img_dsc_t` variable
 112:Drivers/lvgl/lvgl/src/extra/widgets/msgbox/../../../../src/core/lv_disp.h ****  */
 113:Drivers/lvgl/lvgl/src/extra/widgets/msgbox/../../../../src/core/lv_disp.h **** void lv_disp_set_bg_image(lv_disp_t * disp, const void  * img_src);
 114:Drivers/lvgl/lvgl/src/extra/widgets/msgbox/../../../../src/core/lv_disp.h **** 
 115:Drivers/lvgl/lvgl/src/extra/widgets/msgbox/../../../../src/core/lv_disp.h **** /**
 116:Drivers/lvgl/lvgl/src/extra/widgets/msgbox/../../../../src/core/lv_disp.h ****  * Set opacity of the background
 117:Drivers/lvgl/lvgl/src/extra/widgets/msgbox/../../../../src/core/lv_disp.h ****  * @param disp pointer to a display
 118:Drivers/lvgl/lvgl/src/extra/widgets/msgbox/../../../../src/core/lv_disp.h ****  * @param opa opacity (0..255)
 119:Drivers/lvgl/lvgl/src/extra/widgets/msgbox/../../../../src/core/lv_disp.h ****  */
 120:Drivers/lvgl/lvgl/src/extra/widgets/msgbox/../../../../src/core/lv_disp.h **** void lv_disp_set_bg_opa(lv_disp_t * disp, lv_opa_t opa);
 121:Drivers/lvgl/lvgl/src/extra/widgets/msgbox/../../../../src/core/lv_disp.h **** 
 122:Drivers/lvgl/lvgl/src/extra/widgets/msgbox/../../../../src/core/lv_disp.h **** /**
 123:Drivers/lvgl/lvgl/src/extra/widgets/msgbox/../../../../src/core/lv_disp.h ****  * Switch screen with animation
 124:Drivers/lvgl/lvgl/src/extra/widgets/msgbox/../../../../src/core/lv_disp.h ****  * @param scr pointer to the new screen to load
 125:Drivers/lvgl/lvgl/src/extra/widgets/msgbox/../../../../src/core/lv_disp.h ****  * @param anim_type type of the animation from `lv_scr_load_anim_t`, e.g. `LV_SCR_LOAD_ANIM_MOVE_LE
 126:Drivers/lvgl/lvgl/src/extra/widgets/msgbox/../../../../src/core/lv_disp.h ****  * @param time time of the animation
 127:Drivers/lvgl/lvgl/src/extra/widgets/msgbox/../../../../src/core/lv_disp.h ****  * @param delay delay before the transition
 128:Drivers/lvgl/lvgl/src/extra/widgets/msgbox/../../../../src/core/lv_disp.h ****  * @param auto_del true: automatically delete the old screen
 129:Drivers/lvgl/lvgl/src/extra/widgets/msgbox/../../../../src/core/lv_disp.h ****  */
 130:Drivers/lvgl/lvgl/src/extra/widgets/msgbox/../../../../src/core/lv_disp.h **** void lv_scr_load_anim(lv_obj_t * scr, lv_scr_load_anim_t anim_type, uint32_t time, uint32_t delay, 
 131:Drivers/lvgl/lvgl/src/extra/widgets/msgbox/../../../../src/core/lv_disp.h **** 
 132:Drivers/lvgl/lvgl/src/extra/widgets/msgbox/../../../../src/core/lv_disp.h **** /**
 133:Drivers/lvgl/lvgl/src/extra/widgets/msgbox/../../../../src/core/lv_disp.h ****  * Get elapsed time since last user activity on a display (e.g. click)
 134:Drivers/lvgl/lvgl/src/extra/widgets/msgbox/../../../../src/core/lv_disp.h ****  * @param disp pointer to a display (NULL to get the overall smallest inactivity)
 135:Drivers/lvgl/lvgl/src/extra/widgets/msgbox/../../../../src/core/lv_disp.h ****  * @return elapsed ticks (milliseconds) since the last activity
 136:Drivers/lvgl/lvgl/src/extra/widgets/msgbox/../../../../src/core/lv_disp.h ****  */
 137:Drivers/lvgl/lvgl/src/extra/widgets/msgbox/../../../../src/core/lv_disp.h **** uint32_t lv_disp_get_inactive_time(const lv_disp_t * disp);
 138:Drivers/lvgl/lvgl/src/extra/widgets/msgbox/../../../../src/core/lv_disp.h **** 
 139:Drivers/lvgl/lvgl/src/extra/widgets/msgbox/../../../../src/core/lv_disp.h **** /**
 140:Drivers/lvgl/lvgl/src/extra/widgets/msgbox/../../../../src/core/lv_disp.h ****  * Manually trigger an activity on a display
 141:Drivers/lvgl/lvgl/src/extra/widgets/msgbox/../../../../src/core/lv_disp.h ****  * @param disp pointer to a display (NULL to use the default display)
 142:Drivers/lvgl/lvgl/src/extra/widgets/msgbox/../../../../src/core/lv_disp.h ****  */
 143:Drivers/lvgl/lvgl/src/extra/widgets/msgbox/../../../../src/core/lv_disp.h **** void lv_disp_trig_activity(lv_disp_t * disp);
 144:Drivers/lvgl/lvgl/src/extra/widgets/msgbox/../../../../src/core/lv_disp.h **** 
 145:Drivers/lvgl/lvgl/src/extra/widgets/msgbox/../../../../src/core/lv_disp.h **** /**
 146:Drivers/lvgl/lvgl/src/extra/widgets/msgbox/../../../../src/core/lv_disp.h ****  * Clean any CPU cache that is related to the display.
 147:Drivers/lvgl/lvgl/src/extra/widgets/msgbox/../../../../src/core/lv_disp.h ****  * @param disp pointer to a display (NULL to use the default display)
 148:Drivers/lvgl/lvgl/src/extra/widgets/msgbox/../../../../src/core/lv_disp.h ****  */
 149:Drivers/lvgl/lvgl/src/extra/widgets/msgbox/../../../../src/core/lv_disp.h **** void lv_disp_clean_dcache(lv_disp_t * disp);
 150:Drivers/lvgl/lvgl/src/extra/widgets/msgbox/../../../../src/core/lv_disp.h **** 
 151:Drivers/lvgl/lvgl/src/extra/widgets/msgbox/../../../../src/core/lv_disp.h **** /**
 152:Drivers/lvgl/lvgl/src/extra/widgets/msgbox/../../../../src/core/lv_disp.h ****  * Temporarily enable and disable the invalidation of the display.
 153:Drivers/lvgl/lvgl/src/extra/widgets/msgbox/../../../../src/core/lv_disp.h ****  * @param disp pointer to a display (NULL to use the default display)
 154:Drivers/lvgl/lvgl/src/extra/widgets/msgbox/../../../../src/core/lv_disp.h ****  * @param en true: enable invalidation; false: invalidation
 155:Drivers/lvgl/lvgl/src/extra/widgets/msgbox/../../../../src/core/lv_disp.h ****  */
 156:Drivers/lvgl/lvgl/src/extra/widgets/msgbox/../../../../src/core/lv_disp.h **** void lv_disp_enable_invalidation(lv_disp_t * disp, bool en);
 157:Drivers/lvgl/lvgl/src/extra/widgets/msgbox/../../../../src/core/lv_disp.h **** 
 158:Drivers/lvgl/lvgl/src/extra/widgets/msgbox/../../../../src/core/lv_disp.h **** /**
 159:Drivers/lvgl/lvgl/src/extra/widgets/msgbox/../../../../src/core/lv_disp.h ****  * Get display invalidation is enabled.
 160:Drivers/lvgl/lvgl/src/extra/widgets/msgbox/../../../../src/core/lv_disp.h ****  * @param disp pointer to a display (NULL to use the default display)
 161:Drivers/lvgl/lvgl/src/extra/widgets/msgbox/../../../../src/core/lv_disp.h ****  * @return return true if invalidation is enabled
 162:Drivers/lvgl/lvgl/src/extra/widgets/msgbox/../../../../src/core/lv_disp.h ****  */
 163:Drivers/lvgl/lvgl/src/extra/widgets/msgbox/../../../../src/core/lv_disp.h **** bool lv_disp_is_invalidation_enabled(lv_disp_t * disp);
 164:Drivers/lvgl/lvgl/src/extra/widgets/msgbox/../../../../src/core/lv_disp.h **** 
 165:Drivers/lvgl/lvgl/src/extra/widgets/msgbox/../../../../src/core/lv_disp.h **** /**
 166:Drivers/lvgl/lvgl/src/extra/widgets/msgbox/../../../../src/core/lv_disp.h ****  * Get a pointer to the screen refresher timer to
 167:Drivers/lvgl/lvgl/src/extra/widgets/msgbox/../../../../src/core/lv_disp.h ****  * modify its parameters with `lv_timer_...` functions.
ARM GAS  /tmp/ccSYOygB.s 			page 6


 168:Drivers/lvgl/lvgl/src/extra/widgets/msgbox/../../../../src/core/lv_disp.h ****  * @param disp pointer to a display
 169:Drivers/lvgl/lvgl/src/extra/widgets/msgbox/../../../../src/core/lv_disp.h ****  * @return pointer to the display refresher timer. (NULL on error)
 170:Drivers/lvgl/lvgl/src/extra/widgets/msgbox/../../../../src/core/lv_disp.h ****  */
 171:Drivers/lvgl/lvgl/src/extra/widgets/msgbox/../../../../src/core/lv_disp.h **** lv_timer_t * _lv_disp_get_refr_timer(lv_disp_t * disp);
 172:Drivers/lvgl/lvgl/src/extra/widgets/msgbox/../../../../src/core/lv_disp.h **** 
 173:Drivers/lvgl/lvgl/src/extra/widgets/msgbox/../../../../src/core/lv_disp.h **** /*------------------------------------------------
 174:Drivers/lvgl/lvgl/src/extra/widgets/msgbox/../../../../src/core/lv_disp.h ****  * To improve backward compatibility
 175:Drivers/lvgl/lvgl/src/extra/widgets/msgbox/../../../../src/core/lv_disp.h ****  * Recommended only if you have one display
 176:Drivers/lvgl/lvgl/src/extra/widgets/msgbox/../../../../src/core/lv_disp.h ****  *------------------------------------------------*/
 177:Drivers/lvgl/lvgl/src/extra/widgets/msgbox/../../../../src/core/lv_disp.h **** 
 178:Drivers/lvgl/lvgl/src/extra/widgets/msgbox/../../../../src/core/lv_disp.h **** /**
 179:Drivers/lvgl/lvgl/src/extra/widgets/msgbox/../../../../src/core/lv_disp.h ****  * Get the active screen of the default display
 180:Drivers/lvgl/lvgl/src/extra/widgets/msgbox/../../../../src/core/lv_disp.h ****  * @return pointer to the active screen
 181:Drivers/lvgl/lvgl/src/extra/widgets/msgbox/../../../../src/core/lv_disp.h ****  */
 182:Drivers/lvgl/lvgl/src/extra/widgets/msgbox/../../../../src/core/lv_disp.h **** static inline lv_obj_t * lv_scr_act(void)
 183:Drivers/lvgl/lvgl/src/extra/widgets/msgbox/../../../../src/core/lv_disp.h **** {
 184:Drivers/lvgl/lvgl/src/extra/widgets/msgbox/../../../../src/core/lv_disp.h ****     return lv_disp_get_scr_act(lv_disp_get_default());
 185:Drivers/lvgl/lvgl/src/extra/widgets/msgbox/../../../../src/core/lv_disp.h **** }
 186:Drivers/lvgl/lvgl/src/extra/widgets/msgbox/../../../../src/core/lv_disp.h **** 
 187:Drivers/lvgl/lvgl/src/extra/widgets/msgbox/../../../../src/core/lv_disp.h **** /**
 188:Drivers/lvgl/lvgl/src/extra/widgets/msgbox/../../../../src/core/lv_disp.h ****  * Get the top layer  of the default display
 189:Drivers/lvgl/lvgl/src/extra/widgets/msgbox/../../../../src/core/lv_disp.h ****  * @return pointer to the top layer
 190:Drivers/lvgl/lvgl/src/extra/widgets/msgbox/../../../../src/core/lv_disp.h ****  */
 191:Drivers/lvgl/lvgl/src/extra/widgets/msgbox/../../../../src/core/lv_disp.h **** static inline lv_obj_t * lv_layer_top(void)
 192:Drivers/lvgl/lvgl/src/extra/widgets/msgbox/../../../../src/core/lv_disp.h **** {
 193:Drivers/lvgl/lvgl/src/extra/widgets/msgbox/../../../../src/core/lv_disp.h ****     return lv_disp_get_layer_top(lv_disp_get_default());
  54              		.loc 2 193 0
  55 0010 FFF7FEFF 		bl	lv_disp_get_default
  56              	.LVL3:
  57 0014 FFF7FEFF 		bl	lv_disp_get_layer_top
  58              	.LVL4:
  59              	.LBE19:
  60              	.LBE18:
  67:Drivers/lvgl/lvgl/src/extra/widgets/msgbox/lv_msgbox.c ****         auto_parent = true;
  68:Drivers/lvgl/lvgl/src/extra/widgets/msgbox/lv_msgbox.c ****         parent = lv_obj_class_create_obj(&lv_msgbox_backdrop_class, lv_layer_top());
  61              		.loc 1 68 0
  62 0018 0146     		mov	r1, r0
  63 001a 8548     		ldr	r0, .L34
  64 001c FFF7FEFF 		bl	lv_obj_class_create_obj
  65              	.LVL5:
  69:Drivers/lvgl/lvgl/src/extra/widgets/msgbox/lv_msgbox.c ****         LV_ASSERT_MALLOC(parent);
  66              		.loc 1 69 0
  67 0020 0446     		mov	r4, r0
  68 0022 70B1     		cbz	r0, .L4
  70:Drivers/lvgl/lvgl/src/extra/widgets/msgbox/lv_msgbox.c ****         lv_obj_class_init_obj(parent);
  69              		.loc 1 70 0
  70 0024 FFF7FEFF 		bl	lv_obj_class_init_obj
  71              	.LVL6:
  71:Drivers/lvgl/lvgl/src/extra/widgets/msgbox/lv_msgbox.c ****         lv_obj_clear_flag(parent, LV_OBJ_FLAG_IGNORE_LAYOUT);
  72              		.loc 1 71 0
  73 0028 4FF40031 		mov	r1, #131072
  74 002c 2046     		mov	r0, r4
  75 002e FFF7FEFF 		bl	lv_obj_clear_flag
  76              	.LVL7:
  72:Drivers/lvgl/lvgl/src/extra/widgets/msgbox/lv_msgbox.c ****         lv_obj_set_size(parent, LV_PCT(100), LV_PCT(100));
  77              		.loc 1 72 0
  78 0032 42F26402 		movw	r2, #8292
ARM GAS  /tmp/ccSYOygB.s 			page 7


  79 0036 1146     		mov	r1, r2
  80 0038 2046     		mov	r0, r4
  81 003a FFF7FEFF 		bl	lv_obj_set_size
  82              	.LVL8:
  67:Drivers/lvgl/lvgl/src/extra/widgets/msgbox/lv_msgbox.c ****         parent = lv_obj_class_create_obj(&lv_msgbox_backdrop_class, lv_layer_top());
  83              		.loc 1 67 0
  84 003e 0125     		movs	r5, #1
  85 0040 02E0     		b	.L2
  86              	.LVL9:
  87              	.L4:
  88 0042 FEE7     		b	.L4
  89              	.LVL10:
  90              	.L21:
  91 0044 0446     		mov	r4, r0
  65:Drivers/lvgl/lvgl/src/extra/widgets/msgbox/lv_msgbox.c ****     if(parent == NULL) {
  92              		.loc 1 65 0
  93 0046 0025     		movs	r5, #0
  94              	.LVL11:
  95              	.L2:
  73:Drivers/lvgl/lvgl/src/extra/widgets/msgbox/lv_msgbox.c ****     }
  74:Drivers/lvgl/lvgl/src/extra/widgets/msgbox/lv_msgbox.c **** 
  75:Drivers/lvgl/lvgl/src/extra/widgets/msgbox/lv_msgbox.c ****     lv_obj_t * obj = lv_obj_class_create_obj(&lv_msgbox_class, parent);
  96              		.loc 1 75 0
  97 0048 2146     		mov	r1, r4
  98 004a 7A48     		ldr	r0, .L34+4
  99 004c FFF7FEFF 		bl	lv_obj_class_create_obj
 100              	.LVL12:
  76:Drivers/lvgl/lvgl/src/extra/widgets/msgbox/lv_msgbox.c ****     LV_ASSERT_MALLOC(obj);
 101              		.loc 1 76 0
 102 0050 0446     		mov	r4, r0
 103              	.LVL13:
 104 0052 00B9     		cbnz	r0, .L5
 105              	.L6:
 106 0054 FEE7     		b	.L6
 107              	.L5:
  77:Drivers/lvgl/lvgl/src/extra/widgets/msgbox/lv_msgbox.c ****     if(obj == NULL) return NULL;
  78:Drivers/lvgl/lvgl/src/extra/widgets/msgbox/lv_msgbox.c ****     lv_obj_class_init_obj(obj);
 108              		.loc 1 78 0
 109 0056 FFF7FEFF 		bl	lv_obj_class_init_obj
 110              	.LVL14:
  79:Drivers/lvgl/lvgl/src/extra/widgets/msgbox/lv_msgbox.c ****     lv_msgbox_t * mbox = (lv_msgbox_t *)obj;
  80:Drivers/lvgl/lvgl/src/extra/widgets/msgbox/lv_msgbox.c **** 
  81:Drivers/lvgl/lvgl/src/extra/widgets/msgbox/lv_msgbox.c ****     if(auto_parent) lv_obj_add_flag(obj, LV_MSGBOX_FLAG_AUTO_PARENT);
 111              		.loc 1 81 0
 112 005a 85BB     		cbnz	r5, .L30
 113              	.L7:
  82:Drivers/lvgl/lvgl/src/extra/widgets/msgbox/lv_msgbox.c **** 
  83:Drivers/lvgl/lvgl/src/extra/widgets/msgbox/lv_msgbox.c ****     lv_obj_set_flex_flow(obj, LV_FLEX_FLOW_ROW_WRAP);
 114              		.loc 1 83 0
 115 005c 0421     		movs	r1, #4
 116 005e 2046     		mov	r0, r4
 117 0060 FFF7FEFF 		bl	lv_obj_set_flex_flow
 118              	.LVL15:
  84:Drivers/lvgl/lvgl/src/extra/widgets/msgbox/lv_msgbox.c **** 
  85:Drivers/lvgl/lvgl/src/extra/widgets/msgbox/lv_msgbox.c ****     bool has_title = title && strlen(title) > 0;
 119              		.loc 1 85 0
 120 0064 B8F1000F 		cmp	r8, #0
ARM GAS  /tmp/ccSYOygB.s 			page 8


 121 0068 2FD0     		beq	.L22
 122              		.loc 1 85 0 is_stmt 0 discriminator 1
 123 006a 98F80030 		ldrb	r3, [r8]	@ zero_extendqisi2
 124 006e 73BB     		cbnz	r3, .L23
 125              	.L8:
 126              		.loc 1 85 0 discriminator 6
 127 0070 1D46     		mov	r5, r3
 128              	.LVL16:
  86:Drivers/lvgl/lvgl/src/extra/widgets/msgbox/lv_msgbox.c **** 
  87:Drivers/lvgl/lvgl/src/extra/widgets/msgbox/lv_msgbox.c ****     /*When a close button is required, we need the empty label as spacer to push the button to the 
  88:Drivers/lvgl/lvgl/src/extra/widgets/msgbox/lv_msgbox.c ****     if(add_close_btn || has_title) {
 129              		.loc 1 88 0 is_stmt 1 discriminator 6
 130 0072 55EA0903 		orrs	r3, r5, r9
 131 0076 2CD1     		bne	.L31
 132              	.LVL17:
 133              	.L9:
  89:Drivers/lvgl/lvgl/src/extra/widgets/msgbox/lv_msgbox.c ****         mbox->title = lv_label_create(obj);
  90:Drivers/lvgl/lvgl/src/extra/widgets/msgbox/lv_msgbox.c ****         lv_label_set_text(mbox->title, has_title ? title : "");
  91:Drivers/lvgl/lvgl/src/extra/widgets/msgbox/lv_msgbox.c ****         lv_label_set_long_mode(mbox->title, LV_LABEL_LONG_SCROLL_CIRCULAR);
  92:Drivers/lvgl/lvgl/src/extra/widgets/msgbox/lv_msgbox.c ****         if(add_close_btn) lv_obj_set_flex_grow(mbox->title, 1);
  93:Drivers/lvgl/lvgl/src/extra/widgets/msgbox/lv_msgbox.c ****         else lv_obj_set_width(mbox->title, LV_PCT(100));
  94:Drivers/lvgl/lvgl/src/extra/widgets/msgbox/lv_msgbox.c ****     }
  95:Drivers/lvgl/lvgl/src/extra/widgets/msgbox/lv_msgbox.c **** 
  96:Drivers/lvgl/lvgl/src/extra/widgets/msgbox/lv_msgbox.c ****     if(add_close_btn) {
 134              		.loc 1 96 0
 135 0078 B9F1000F 		cmp	r9, #0
 136 007c 45D1     		bne	.L32
 137              	.LVL18:
 138              	.L12:
  97:Drivers/lvgl/lvgl/src/extra/widgets/msgbox/lv_msgbox.c ****         mbox->close_btn = lv_btn_create(obj);
  98:Drivers/lvgl/lvgl/src/extra/widgets/msgbox/lv_msgbox.c ****         lv_obj_set_ext_click_area(mbox->close_btn, LV_DPX(10));
  99:Drivers/lvgl/lvgl/src/extra/widgets/msgbox/lv_msgbox.c ****         lv_obj_add_event_cb(mbox->close_btn, msgbox_close_click_event_cb, LV_EVENT_CLICKED, NULL);
 100:Drivers/lvgl/lvgl/src/extra/widgets/msgbox/lv_msgbox.c ****         lv_obj_t * label = lv_label_create(mbox->close_btn);
 101:Drivers/lvgl/lvgl/src/extra/widgets/msgbox/lv_msgbox.c ****         lv_label_set_text(label, LV_SYMBOL_CLOSE);
 102:Drivers/lvgl/lvgl/src/extra/widgets/msgbox/lv_msgbox.c ****         const lv_font_t * font = lv_obj_get_style_text_font(mbox->close_btn, LV_PART_MAIN);
 103:Drivers/lvgl/lvgl/src/extra/widgets/msgbox/lv_msgbox.c ****         lv_coord_t close_btn_size = lv_font_get_line_height(font) + LV_DPX(10);
 104:Drivers/lvgl/lvgl/src/extra/widgets/msgbox/lv_msgbox.c ****         lv_obj_set_size(mbox->close_btn, close_btn_size, close_btn_size);
 105:Drivers/lvgl/lvgl/src/extra/widgets/msgbox/lv_msgbox.c ****         lv_obj_align(label, LV_ALIGN_CENTER, 0, 0);
 106:Drivers/lvgl/lvgl/src/extra/widgets/msgbox/lv_msgbox.c ****     }
 107:Drivers/lvgl/lvgl/src/extra/widgets/msgbox/lv_msgbox.c **** 
 108:Drivers/lvgl/lvgl/src/extra/widgets/msgbox/lv_msgbox.c ****     mbox->content = lv_obj_class_create_obj(&lv_msgbox_content_class, obj);
 139              		.loc 1 108 0
 140 007e 2146     		mov	r1, r4
 141 0080 6D48     		ldr	r0, .L34+8
 142 0082 FFF7FEFF 		bl	lv_obj_class_create_obj
 143              	.LVL19:
 144 0086 E062     		str	r0, [r4, #44]
 109:Drivers/lvgl/lvgl/src/extra/widgets/msgbox/lv_msgbox.c **** 
 110:Drivers/lvgl/lvgl/src/extra/widgets/msgbox/lv_msgbox.c ****     bool has_txt = txt && strlen(txt) > 0;
 145              		.loc 1 110 0
 146 0088 002F     		cmp	r7, #0
 147 008a 00F09480 		beq	.L27
 148              		.loc 1 110 0 is_stmt 0 discriminator 1
 149 008e 3B78     		ldrb	r3, [r7]	@ zero_extendqisi2
 150 0090 002B     		cmp	r3, #0
 151 0092 40F09280 		bne	.L28
 152              	.L15:
ARM GAS  /tmp/ccSYOygB.s 			page 9


 153              	.LVL20:
 111:Drivers/lvgl/lvgl/src/extra/widgets/msgbox/lv_msgbox.c ****     if(has_txt) {
 154              		.loc 1 111 0 is_stmt 1 discriminator 6
 155 0096 002B     		cmp	r3, #0
 156 0098 40F09180 		bne	.L33
 157              	.LVL21:
 158              	.L16:
 112:Drivers/lvgl/lvgl/src/extra/widgets/msgbox/lv_msgbox.c ****         mbox->text = lv_label_create(mbox->content);
 113:Drivers/lvgl/lvgl/src/extra/widgets/msgbox/lv_msgbox.c ****         lv_label_set_text(mbox->text, txt);
 114:Drivers/lvgl/lvgl/src/extra/widgets/msgbox/lv_msgbox.c ****         lv_label_set_long_mode(mbox->text, LV_LABEL_LONG_WRAP);
 115:Drivers/lvgl/lvgl/src/extra/widgets/msgbox/lv_msgbox.c ****         lv_obj_set_width(mbox->text, lv_pct(100));
 116:Drivers/lvgl/lvgl/src/extra/widgets/msgbox/lv_msgbox.c ****     }
 117:Drivers/lvgl/lvgl/src/extra/widgets/msgbox/lv_msgbox.c **** 
 118:Drivers/lvgl/lvgl/src/extra/widgets/msgbox/lv_msgbox.c ****     if(btn_txts) {
 159              		.loc 1 118 0
 160 009c 002E     		cmp	r6, #0
 161 009e 00F0C480 		beq	.L1
 162              	.LBB20:
 119:Drivers/lvgl/lvgl/src/extra/widgets/msgbox/lv_msgbox.c ****         mbox->btns = lv_btnmatrix_create(obj);
 163              		.loc 1 119 0
 164 00a2 2046     		mov	r0, r4
 165 00a4 FFF7FEFF 		bl	lv_btnmatrix_create
 166              	.LVL22:
 167 00a8 6063     		str	r0, [r4, #52]
 120:Drivers/lvgl/lvgl/src/extra/widgets/msgbox/lv_msgbox.c ****         lv_btnmatrix_set_map(mbox->btns, btn_txts);
 168              		.loc 1 120 0
 169 00aa 3146     		mov	r1, r6
 170 00ac FFF7FEFF 		bl	lv_btnmatrix_set_map
 171              	.LVL23:
 121:Drivers/lvgl/lvgl/src/extra/widgets/msgbox/lv_msgbox.c ****         lv_btnmatrix_set_btn_ctrl_all(mbox->btns, LV_BTNMATRIX_CTRL_CLICK_TRIG | LV_BTNMATRIX_CTRL_
 172              		.loc 1 121 0
 173 00b0 4FF40871 		mov	r1, #544
 174 00b4 606B     		ldr	r0, [r4, #52]
 175 00b6 FFF7FEFF 		bl	lv_btnmatrix_set_btn_ctrl_all
 176              	.LVL24:
 122:Drivers/lvgl/lvgl/src/extra/widgets/msgbox/lv_msgbox.c **** 
 123:Drivers/lvgl/lvgl/src/extra/widgets/msgbox/lv_msgbox.c ****         uint32_t btn_cnt = 0;
 177              		.loc 1 123 0
 178 00ba 0025     		movs	r5, #0
 124:Drivers/lvgl/lvgl/src/extra/widgets/msgbox/lv_msgbox.c ****         while(btn_txts[btn_cnt] && btn_txts[btn_cnt][0] != '\0') {
 179              		.loc 1 124 0
 180 00bc 90E0     		b	.L18
 181              	.LVL25:
 182              	.L30:
 183              	.LBE20:
  81:Drivers/lvgl/lvgl/src/extra/widgets/msgbox/lv_msgbox.c **** 
 184              		.loc 1 81 0 discriminator 1
 185 00be 4FF00071 		mov	r1, #33554432
 186 00c2 2046     		mov	r0, r4
 187 00c4 FFF7FEFF 		bl	lv_obj_add_flag
 188              	.LVL26:
 189 00c8 C8E7     		b	.L7
 190              	.L22:
  85:Drivers/lvgl/lvgl/src/extra/widgets/msgbox/lv_msgbox.c **** 
 191              		.loc 1 85 0
 192 00ca 0023     		movs	r3, #0
 193 00cc D0E7     		b	.L8
ARM GAS  /tmp/ccSYOygB.s 			page 10


 194              	.L23:
 195 00ce 0123     		movs	r3, #1
 196 00d0 CEE7     		b	.L8
 197              	.LVL27:
 198              	.L31:
  89:Drivers/lvgl/lvgl/src/extra/widgets/msgbox/lv_msgbox.c ****         lv_label_set_text(mbox->title, has_title ? title : "");
 199              		.loc 1 89 0
 200 00d2 2046     		mov	r0, r4
 201 00d4 FFF7FEFF 		bl	lv_label_create
 202              	.LVL28:
 203 00d8 6062     		str	r0, [r4, #36]
  90:Drivers/lvgl/lvgl/src/extra/widgets/msgbox/lv_msgbox.c ****         lv_label_set_long_mode(mbox->title, LV_LABEL_LONG_SCROLL_CIRCULAR);
 204              		.loc 1 90 0
 205 00da 0DB9     		cbnz	r5, .L10
 206 00dc DFF86481 		ldr	r8, .L34+20
 207              	.LVL29:
 208              	.L10:
  90:Drivers/lvgl/lvgl/src/extra/widgets/msgbox/lv_msgbox.c ****         lv_label_set_long_mode(mbox->title, LV_LABEL_LONG_SCROLL_CIRCULAR);
 209              		.loc 1 90 0 is_stmt 0 discriminator 4
 210 00e0 4146     		mov	r1, r8
 211 00e2 FFF7FEFF 		bl	lv_label_set_text
 212              	.LVL30:
  91:Drivers/lvgl/lvgl/src/extra/widgets/msgbox/lv_msgbox.c ****         if(add_close_btn) lv_obj_set_flex_grow(mbox->title, 1);
 213              		.loc 1 91 0 is_stmt 1 discriminator 4
 214 00e6 0321     		movs	r1, #3
 215 00e8 606A     		ldr	r0, [r4, #36]
 216 00ea FFF7FEFF 		bl	lv_label_set_long_mode
 217              	.LVL31:
  92:Drivers/lvgl/lvgl/src/extra/widgets/msgbox/lv_msgbox.c ****         else lv_obj_set_width(mbox->title, LV_PCT(100));
 218              		.loc 1 92 0 discriminator 4
 219 00ee B9F1000F 		cmp	r9, #0
 220 00f2 04D0     		beq	.L11
  92:Drivers/lvgl/lvgl/src/extra/widgets/msgbox/lv_msgbox.c ****         else lv_obj_set_width(mbox->title, LV_PCT(100));
 221              		.loc 1 92 0 is_stmt 0 discriminator 1
 222 00f4 0121     		movs	r1, #1
 223 00f6 606A     		ldr	r0, [r4, #36]
 224 00f8 FFF7FEFF 		bl	lv_obj_set_flex_grow
 225              	.LVL32:
 226 00fc BCE7     		b	.L9
 227              	.L11:
  93:Drivers/lvgl/lvgl/src/extra/widgets/msgbox/lv_msgbox.c ****     }
 228              		.loc 1 93 0 is_stmt 1
 229 00fe 42F26401 		movw	r1, #8292
 230 0102 606A     		ldr	r0, [r4, #36]
 231 0104 FFF7FEFF 		bl	lv_obj_set_width
 232              	.LVL33:
 233 0108 B6E7     		b	.L9
 234              	.L32:
 235              	.LBB25:
  97:Drivers/lvgl/lvgl/src/extra/widgets/msgbox/lv_msgbox.c ****         lv_obj_set_ext_click_area(mbox->close_btn, LV_DPX(10));
 236              		.loc 1 97 0
 237 010a 2046     		mov	r0, r4
 238 010c FFF7FEFF 		bl	lv_btn_create
 239              	.LVL34:
 240 0110 0546     		mov	r5, r0
 241              	.LVL35:
 242 0112 A062     		str	r0, [r4, #40]
ARM GAS  /tmp/ccSYOygB.s 			page 11


  98:Drivers/lvgl/lvgl/src/extra/widgets/msgbox/lv_msgbox.c ****         lv_obj_add_event_cb(mbox->close_btn, msgbox_close_click_event_cb, LV_EVENT_CLICKED, NULL);
 243              		.loc 1 98 0
 244 0114 0020     		movs	r0, #0
 245 0116 FFF7FEFF 		bl	lv_disp_get_dpi
 246              	.LVL36:
 247 011a 0A23     		movs	r3, #10
 248 011c 03FB00F3 		mul	r3, r3, r0
 249 0120 5033     		adds	r3, r3, #80
 250 0122 B3F5A07F 		cmp	r3, #320
 251 0126 42DB     		blt	.L25
  98:Drivers/lvgl/lvgl/src/extra/widgets/msgbox/lv_msgbox.c ****         lv_obj_add_event_cb(mbox->close_btn, msgbox_close_click_event_cb, LV_EVENT_CLICKED, NULL);
 252              		.loc 1 98 0 is_stmt 0 discriminator 1
 253 0128 0020     		movs	r0, #0
 254 012a FFF7FEFF 		bl	lv_disp_get_dpi
 255              	.LVL37:
 256 012e 0A23     		movs	r3, #10
 257 0130 03FB00F1 		mul	r1, r3, r0
 258 0134 5031     		adds	r1, r1, #80
 259 0136 A023     		movs	r3, #160
 260 0138 91FBF3F1 		sdiv	r1, r1, r3
 261 013c 09B2     		sxth	r1, r1
 262              	.L13:
  98:Drivers/lvgl/lvgl/src/extra/widgets/msgbox/lv_msgbox.c ****         lv_obj_add_event_cb(mbox->close_btn, msgbox_close_click_event_cb, LV_EVENT_CLICKED, NULL);
 263              		.loc 1 98 0 discriminator 4
 264 013e 2846     		mov	r0, r5
 265 0140 FFF7FEFF 		bl	lv_obj_set_ext_click_area
 266              	.LVL38:
  99:Drivers/lvgl/lvgl/src/extra/widgets/msgbox/lv_msgbox.c ****         lv_obj_t * label = lv_label_create(mbox->close_btn);
 267              		.loc 1 99 0 is_stmt 1 discriminator 4
 268 0144 0023     		movs	r3, #0
 269 0146 0722     		movs	r2, #7
 270 0148 3C49     		ldr	r1, .L34+12
 271 014a A06A     		ldr	r0, [r4, #40]
 272 014c FFF7FEFF 		bl	lv_obj_add_event_cb
 273              	.LVL39:
 100:Drivers/lvgl/lvgl/src/extra/widgets/msgbox/lv_msgbox.c ****         lv_label_set_text(label, LV_SYMBOL_CLOSE);
 274              		.loc 1 100 0 discriminator 4
 275 0150 A06A     		ldr	r0, [r4, #40]
 276 0152 FFF7FEFF 		bl	lv_label_create
 277              	.LVL40:
 278 0156 8046     		mov	r8, r0
 279              	.LVL41:
 101:Drivers/lvgl/lvgl/src/extra/widgets/msgbox/lv_msgbox.c ****         const lv_font_t * font = lv_obj_get_style_text_font(mbox->close_btn, LV_PART_MAIN);
 280              		.loc 1 101 0 discriminator 4
 281 0158 3949     		ldr	r1, .L34+16
 282 015a FFF7FEFF 		bl	lv_label_set_text
 283              	.LVL42:
 284              	.LBB26:
 285              	.LBB27:
 286              		.file 3 "Drivers/lvgl/lvgl/src/extra/widgets/msgbox/../../../../src/core/lv_obj_style_gen.h"
   1:Drivers/lvgl/lvgl/src/extra/widgets/msgbox/../../../../src/core/lv_obj_style_gen.h **** static inline lv_coord_t lv_obj_get_style_width(const struct _lv_obj_t * obj, uint32_t part)
   2:Drivers/lvgl/lvgl/src/extra/widgets/msgbox/../../../../src/core/lv_obj_style_gen.h **** {
   3:Drivers/lvgl/lvgl/src/extra/widgets/msgbox/../../../../src/core/lv_obj_style_gen.h ****     lv_style_value_t v = lv_obj_get_style_prop(obj, part, LV_STYLE_WIDTH);
   4:Drivers/lvgl/lvgl/src/extra/widgets/msgbox/../../../../src/core/lv_obj_style_gen.h ****     return (lv_coord_t)v.num;
   5:Drivers/lvgl/lvgl/src/extra/widgets/msgbox/../../../../src/core/lv_obj_style_gen.h **** }
   6:Drivers/lvgl/lvgl/src/extra/widgets/msgbox/../../../../src/core/lv_obj_style_gen.h **** 
   7:Drivers/lvgl/lvgl/src/extra/widgets/msgbox/../../../../src/core/lv_obj_style_gen.h **** static inline lv_coord_t lv_obj_get_style_min_width(const struct _lv_obj_t * obj, uint32_t part)
ARM GAS  /tmp/ccSYOygB.s 			page 12


   8:Drivers/lvgl/lvgl/src/extra/widgets/msgbox/../../../../src/core/lv_obj_style_gen.h **** {
   9:Drivers/lvgl/lvgl/src/extra/widgets/msgbox/../../../../src/core/lv_obj_style_gen.h ****     lv_style_value_t v = lv_obj_get_style_prop(obj, part, LV_STYLE_MIN_WIDTH);
  10:Drivers/lvgl/lvgl/src/extra/widgets/msgbox/../../../../src/core/lv_obj_style_gen.h ****     return (lv_coord_t)v.num;
  11:Drivers/lvgl/lvgl/src/extra/widgets/msgbox/../../../../src/core/lv_obj_style_gen.h **** }
  12:Drivers/lvgl/lvgl/src/extra/widgets/msgbox/../../../../src/core/lv_obj_style_gen.h **** 
  13:Drivers/lvgl/lvgl/src/extra/widgets/msgbox/../../../../src/core/lv_obj_style_gen.h **** static inline lv_coord_t lv_obj_get_style_max_width(const struct _lv_obj_t * obj, uint32_t part)
  14:Drivers/lvgl/lvgl/src/extra/widgets/msgbox/../../../../src/core/lv_obj_style_gen.h **** {
  15:Drivers/lvgl/lvgl/src/extra/widgets/msgbox/../../../../src/core/lv_obj_style_gen.h ****     lv_style_value_t v = lv_obj_get_style_prop(obj, part, LV_STYLE_MAX_WIDTH);
  16:Drivers/lvgl/lvgl/src/extra/widgets/msgbox/../../../../src/core/lv_obj_style_gen.h ****     return (lv_coord_t)v.num;
  17:Drivers/lvgl/lvgl/src/extra/widgets/msgbox/../../../../src/core/lv_obj_style_gen.h **** }
  18:Drivers/lvgl/lvgl/src/extra/widgets/msgbox/../../../../src/core/lv_obj_style_gen.h **** 
  19:Drivers/lvgl/lvgl/src/extra/widgets/msgbox/../../../../src/core/lv_obj_style_gen.h **** static inline lv_coord_t lv_obj_get_style_height(const struct _lv_obj_t * obj, uint32_t part)
  20:Drivers/lvgl/lvgl/src/extra/widgets/msgbox/../../../../src/core/lv_obj_style_gen.h **** {
  21:Drivers/lvgl/lvgl/src/extra/widgets/msgbox/../../../../src/core/lv_obj_style_gen.h ****     lv_style_value_t v = lv_obj_get_style_prop(obj, part, LV_STYLE_HEIGHT);
  22:Drivers/lvgl/lvgl/src/extra/widgets/msgbox/../../../../src/core/lv_obj_style_gen.h ****     return (lv_coord_t)v.num;
  23:Drivers/lvgl/lvgl/src/extra/widgets/msgbox/../../../../src/core/lv_obj_style_gen.h **** }
  24:Drivers/lvgl/lvgl/src/extra/widgets/msgbox/../../../../src/core/lv_obj_style_gen.h **** 
  25:Drivers/lvgl/lvgl/src/extra/widgets/msgbox/../../../../src/core/lv_obj_style_gen.h **** static inline lv_coord_t lv_obj_get_style_min_height(const struct _lv_obj_t * obj, uint32_t part)
  26:Drivers/lvgl/lvgl/src/extra/widgets/msgbox/../../../../src/core/lv_obj_style_gen.h **** {
  27:Drivers/lvgl/lvgl/src/extra/widgets/msgbox/../../../../src/core/lv_obj_style_gen.h ****     lv_style_value_t v = lv_obj_get_style_prop(obj, part, LV_STYLE_MIN_HEIGHT);
  28:Drivers/lvgl/lvgl/src/extra/widgets/msgbox/../../../../src/core/lv_obj_style_gen.h ****     return (lv_coord_t)v.num;
  29:Drivers/lvgl/lvgl/src/extra/widgets/msgbox/../../../../src/core/lv_obj_style_gen.h **** }
  30:Drivers/lvgl/lvgl/src/extra/widgets/msgbox/../../../../src/core/lv_obj_style_gen.h **** 
  31:Drivers/lvgl/lvgl/src/extra/widgets/msgbox/../../../../src/core/lv_obj_style_gen.h **** static inline lv_coord_t lv_obj_get_style_max_height(const struct _lv_obj_t * obj, uint32_t part)
  32:Drivers/lvgl/lvgl/src/extra/widgets/msgbox/../../../../src/core/lv_obj_style_gen.h **** {
  33:Drivers/lvgl/lvgl/src/extra/widgets/msgbox/../../../../src/core/lv_obj_style_gen.h ****     lv_style_value_t v = lv_obj_get_style_prop(obj, part, LV_STYLE_MAX_HEIGHT);
  34:Drivers/lvgl/lvgl/src/extra/widgets/msgbox/../../../../src/core/lv_obj_style_gen.h ****     return (lv_coord_t)v.num;
  35:Drivers/lvgl/lvgl/src/extra/widgets/msgbox/../../../../src/core/lv_obj_style_gen.h **** }
  36:Drivers/lvgl/lvgl/src/extra/widgets/msgbox/../../../../src/core/lv_obj_style_gen.h **** 
  37:Drivers/lvgl/lvgl/src/extra/widgets/msgbox/../../../../src/core/lv_obj_style_gen.h **** static inline lv_coord_t lv_obj_get_style_x(const struct _lv_obj_t * obj, uint32_t part)
  38:Drivers/lvgl/lvgl/src/extra/widgets/msgbox/../../../../src/core/lv_obj_style_gen.h **** {
  39:Drivers/lvgl/lvgl/src/extra/widgets/msgbox/../../../../src/core/lv_obj_style_gen.h ****     lv_style_value_t v = lv_obj_get_style_prop(obj, part, LV_STYLE_X);
  40:Drivers/lvgl/lvgl/src/extra/widgets/msgbox/../../../../src/core/lv_obj_style_gen.h ****     return (lv_coord_t)v.num;
  41:Drivers/lvgl/lvgl/src/extra/widgets/msgbox/../../../../src/core/lv_obj_style_gen.h **** }
  42:Drivers/lvgl/lvgl/src/extra/widgets/msgbox/../../../../src/core/lv_obj_style_gen.h **** 
  43:Drivers/lvgl/lvgl/src/extra/widgets/msgbox/../../../../src/core/lv_obj_style_gen.h **** static inline lv_coord_t lv_obj_get_style_y(const struct _lv_obj_t * obj, uint32_t part)
  44:Drivers/lvgl/lvgl/src/extra/widgets/msgbox/../../../../src/core/lv_obj_style_gen.h **** {
  45:Drivers/lvgl/lvgl/src/extra/widgets/msgbox/../../../../src/core/lv_obj_style_gen.h ****     lv_style_value_t v = lv_obj_get_style_prop(obj, part, LV_STYLE_Y);
  46:Drivers/lvgl/lvgl/src/extra/widgets/msgbox/../../../../src/core/lv_obj_style_gen.h ****     return (lv_coord_t)v.num;
  47:Drivers/lvgl/lvgl/src/extra/widgets/msgbox/../../../../src/core/lv_obj_style_gen.h **** }
  48:Drivers/lvgl/lvgl/src/extra/widgets/msgbox/../../../../src/core/lv_obj_style_gen.h **** 
  49:Drivers/lvgl/lvgl/src/extra/widgets/msgbox/../../../../src/core/lv_obj_style_gen.h **** static inline lv_align_t lv_obj_get_style_align(const struct _lv_obj_t * obj, uint32_t part)
  50:Drivers/lvgl/lvgl/src/extra/widgets/msgbox/../../../../src/core/lv_obj_style_gen.h **** {
  51:Drivers/lvgl/lvgl/src/extra/widgets/msgbox/../../../../src/core/lv_obj_style_gen.h ****     lv_style_value_t v = lv_obj_get_style_prop(obj, part, LV_STYLE_ALIGN);
  52:Drivers/lvgl/lvgl/src/extra/widgets/msgbox/../../../../src/core/lv_obj_style_gen.h ****     return (lv_align_t)v.num;
  53:Drivers/lvgl/lvgl/src/extra/widgets/msgbox/../../../../src/core/lv_obj_style_gen.h **** }
  54:Drivers/lvgl/lvgl/src/extra/widgets/msgbox/../../../../src/core/lv_obj_style_gen.h **** 
  55:Drivers/lvgl/lvgl/src/extra/widgets/msgbox/../../../../src/core/lv_obj_style_gen.h **** static inline lv_coord_t lv_obj_get_style_transform_width(const struct _lv_obj_t * obj, uint32_t pa
  56:Drivers/lvgl/lvgl/src/extra/widgets/msgbox/../../../../src/core/lv_obj_style_gen.h **** {
  57:Drivers/lvgl/lvgl/src/extra/widgets/msgbox/../../../../src/core/lv_obj_style_gen.h ****     lv_style_value_t v = lv_obj_get_style_prop(obj, part, LV_STYLE_TRANSFORM_WIDTH);
  58:Drivers/lvgl/lvgl/src/extra/widgets/msgbox/../../../../src/core/lv_obj_style_gen.h ****     return (lv_coord_t)v.num;
  59:Drivers/lvgl/lvgl/src/extra/widgets/msgbox/../../../../src/core/lv_obj_style_gen.h **** }
  60:Drivers/lvgl/lvgl/src/extra/widgets/msgbox/../../../../src/core/lv_obj_style_gen.h **** 
  61:Drivers/lvgl/lvgl/src/extra/widgets/msgbox/../../../../src/core/lv_obj_style_gen.h **** static inline lv_coord_t lv_obj_get_style_transform_height(const struct _lv_obj_t * obj, uint32_t p
  62:Drivers/lvgl/lvgl/src/extra/widgets/msgbox/../../../../src/core/lv_obj_style_gen.h **** {
  63:Drivers/lvgl/lvgl/src/extra/widgets/msgbox/../../../../src/core/lv_obj_style_gen.h ****     lv_style_value_t v = lv_obj_get_style_prop(obj, part, LV_STYLE_TRANSFORM_HEIGHT);
  64:Drivers/lvgl/lvgl/src/extra/widgets/msgbox/../../../../src/core/lv_obj_style_gen.h ****     return (lv_coord_t)v.num;
ARM GAS  /tmp/ccSYOygB.s 			page 13


  65:Drivers/lvgl/lvgl/src/extra/widgets/msgbox/../../../../src/core/lv_obj_style_gen.h **** }
  66:Drivers/lvgl/lvgl/src/extra/widgets/msgbox/../../../../src/core/lv_obj_style_gen.h **** 
  67:Drivers/lvgl/lvgl/src/extra/widgets/msgbox/../../../../src/core/lv_obj_style_gen.h **** static inline lv_coord_t lv_obj_get_style_translate_x(const struct _lv_obj_t * obj, uint32_t part)
  68:Drivers/lvgl/lvgl/src/extra/widgets/msgbox/../../../../src/core/lv_obj_style_gen.h **** {
  69:Drivers/lvgl/lvgl/src/extra/widgets/msgbox/../../../../src/core/lv_obj_style_gen.h ****     lv_style_value_t v = lv_obj_get_style_prop(obj, part, LV_STYLE_TRANSLATE_X);
  70:Drivers/lvgl/lvgl/src/extra/widgets/msgbox/../../../../src/core/lv_obj_style_gen.h ****     return (lv_coord_t)v.num;
  71:Drivers/lvgl/lvgl/src/extra/widgets/msgbox/../../../../src/core/lv_obj_style_gen.h **** }
  72:Drivers/lvgl/lvgl/src/extra/widgets/msgbox/../../../../src/core/lv_obj_style_gen.h **** 
  73:Drivers/lvgl/lvgl/src/extra/widgets/msgbox/../../../../src/core/lv_obj_style_gen.h **** static inline lv_coord_t lv_obj_get_style_translate_y(const struct _lv_obj_t * obj, uint32_t part)
  74:Drivers/lvgl/lvgl/src/extra/widgets/msgbox/../../../../src/core/lv_obj_style_gen.h **** {
  75:Drivers/lvgl/lvgl/src/extra/widgets/msgbox/../../../../src/core/lv_obj_style_gen.h ****     lv_style_value_t v = lv_obj_get_style_prop(obj, part, LV_STYLE_TRANSLATE_Y);
  76:Drivers/lvgl/lvgl/src/extra/widgets/msgbox/../../../../src/core/lv_obj_style_gen.h ****     return (lv_coord_t)v.num;
  77:Drivers/lvgl/lvgl/src/extra/widgets/msgbox/../../../../src/core/lv_obj_style_gen.h **** }
  78:Drivers/lvgl/lvgl/src/extra/widgets/msgbox/../../../../src/core/lv_obj_style_gen.h **** 
  79:Drivers/lvgl/lvgl/src/extra/widgets/msgbox/../../../../src/core/lv_obj_style_gen.h **** static inline lv_coord_t lv_obj_get_style_transform_zoom(const struct _lv_obj_t * obj, uint32_t par
  80:Drivers/lvgl/lvgl/src/extra/widgets/msgbox/../../../../src/core/lv_obj_style_gen.h **** {
  81:Drivers/lvgl/lvgl/src/extra/widgets/msgbox/../../../../src/core/lv_obj_style_gen.h ****     lv_style_value_t v = lv_obj_get_style_prop(obj, part, LV_STYLE_TRANSFORM_ZOOM);
  82:Drivers/lvgl/lvgl/src/extra/widgets/msgbox/../../../../src/core/lv_obj_style_gen.h ****     return (lv_coord_t)v.num;
  83:Drivers/lvgl/lvgl/src/extra/widgets/msgbox/../../../../src/core/lv_obj_style_gen.h **** }
  84:Drivers/lvgl/lvgl/src/extra/widgets/msgbox/../../../../src/core/lv_obj_style_gen.h **** 
  85:Drivers/lvgl/lvgl/src/extra/widgets/msgbox/../../../../src/core/lv_obj_style_gen.h **** static inline lv_coord_t lv_obj_get_style_transform_angle(const struct _lv_obj_t * obj, uint32_t pa
  86:Drivers/lvgl/lvgl/src/extra/widgets/msgbox/../../../../src/core/lv_obj_style_gen.h **** {
  87:Drivers/lvgl/lvgl/src/extra/widgets/msgbox/../../../../src/core/lv_obj_style_gen.h ****     lv_style_value_t v = lv_obj_get_style_prop(obj, part, LV_STYLE_TRANSFORM_ANGLE);
  88:Drivers/lvgl/lvgl/src/extra/widgets/msgbox/../../../../src/core/lv_obj_style_gen.h ****     return (lv_coord_t)v.num;
  89:Drivers/lvgl/lvgl/src/extra/widgets/msgbox/../../../../src/core/lv_obj_style_gen.h **** }
  90:Drivers/lvgl/lvgl/src/extra/widgets/msgbox/../../../../src/core/lv_obj_style_gen.h **** 
  91:Drivers/lvgl/lvgl/src/extra/widgets/msgbox/../../../../src/core/lv_obj_style_gen.h **** static inline lv_coord_t lv_obj_get_style_transform_pivot_x(const struct _lv_obj_t * obj, uint32_t 
  92:Drivers/lvgl/lvgl/src/extra/widgets/msgbox/../../../../src/core/lv_obj_style_gen.h **** {
  93:Drivers/lvgl/lvgl/src/extra/widgets/msgbox/../../../../src/core/lv_obj_style_gen.h ****     lv_style_value_t v = lv_obj_get_style_prop(obj, part, LV_STYLE_TRANSFORM_PIVOT_X);
  94:Drivers/lvgl/lvgl/src/extra/widgets/msgbox/../../../../src/core/lv_obj_style_gen.h ****     return (lv_coord_t)v.num;
  95:Drivers/lvgl/lvgl/src/extra/widgets/msgbox/../../../../src/core/lv_obj_style_gen.h **** }
  96:Drivers/lvgl/lvgl/src/extra/widgets/msgbox/../../../../src/core/lv_obj_style_gen.h **** 
  97:Drivers/lvgl/lvgl/src/extra/widgets/msgbox/../../../../src/core/lv_obj_style_gen.h **** static inline lv_coord_t lv_obj_get_style_transform_pivot_y(const struct _lv_obj_t * obj, uint32_t 
  98:Drivers/lvgl/lvgl/src/extra/widgets/msgbox/../../../../src/core/lv_obj_style_gen.h **** {
  99:Drivers/lvgl/lvgl/src/extra/widgets/msgbox/../../../../src/core/lv_obj_style_gen.h ****     lv_style_value_t v = lv_obj_get_style_prop(obj, part, LV_STYLE_TRANSFORM_PIVOT_Y);
 100:Drivers/lvgl/lvgl/src/extra/widgets/msgbox/../../../../src/core/lv_obj_style_gen.h ****     return (lv_coord_t)v.num;
 101:Drivers/lvgl/lvgl/src/extra/widgets/msgbox/../../../../src/core/lv_obj_style_gen.h **** }
 102:Drivers/lvgl/lvgl/src/extra/widgets/msgbox/../../../../src/core/lv_obj_style_gen.h **** 
 103:Drivers/lvgl/lvgl/src/extra/widgets/msgbox/../../../../src/core/lv_obj_style_gen.h **** static inline lv_coord_t lv_obj_get_style_pad_top(const struct _lv_obj_t * obj, uint32_t part)
 104:Drivers/lvgl/lvgl/src/extra/widgets/msgbox/../../../../src/core/lv_obj_style_gen.h **** {
 105:Drivers/lvgl/lvgl/src/extra/widgets/msgbox/../../../../src/core/lv_obj_style_gen.h ****     lv_style_value_t v = lv_obj_get_style_prop(obj, part, LV_STYLE_PAD_TOP);
 106:Drivers/lvgl/lvgl/src/extra/widgets/msgbox/../../../../src/core/lv_obj_style_gen.h ****     return (lv_coord_t)v.num;
 107:Drivers/lvgl/lvgl/src/extra/widgets/msgbox/../../../../src/core/lv_obj_style_gen.h **** }
 108:Drivers/lvgl/lvgl/src/extra/widgets/msgbox/../../../../src/core/lv_obj_style_gen.h **** 
 109:Drivers/lvgl/lvgl/src/extra/widgets/msgbox/../../../../src/core/lv_obj_style_gen.h **** static inline lv_coord_t lv_obj_get_style_pad_bottom(const struct _lv_obj_t * obj, uint32_t part)
 110:Drivers/lvgl/lvgl/src/extra/widgets/msgbox/../../../../src/core/lv_obj_style_gen.h **** {
 111:Drivers/lvgl/lvgl/src/extra/widgets/msgbox/../../../../src/core/lv_obj_style_gen.h ****     lv_style_value_t v = lv_obj_get_style_prop(obj, part, LV_STYLE_PAD_BOTTOM);
 112:Drivers/lvgl/lvgl/src/extra/widgets/msgbox/../../../../src/core/lv_obj_style_gen.h ****     return (lv_coord_t)v.num;
 113:Drivers/lvgl/lvgl/src/extra/widgets/msgbox/../../../../src/core/lv_obj_style_gen.h **** }
 114:Drivers/lvgl/lvgl/src/extra/widgets/msgbox/../../../../src/core/lv_obj_style_gen.h **** 
 115:Drivers/lvgl/lvgl/src/extra/widgets/msgbox/../../../../src/core/lv_obj_style_gen.h **** static inline lv_coord_t lv_obj_get_style_pad_left(const struct _lv_obj_t * obj, uint32_t part)
 116:Drivers/lvgl/lvgl/src/extra/widgets/msgbox/../../../../src/core/lv_obj_style_gen.h **** {
 117:Drivers/lvgl/lvgl/src/extra/widgets/msgbox/../../../../src/core/lv_obj_style_gen.h ****     lv_style_value_t v = lv_obj_get_style_prop(obj, part, LV_STYLE_PAD_LEFT);
 118:Drivers/lvgl/lvgl/src/extra/widgets/msgbox/../../../../src/core/lv_obj_style_gen.h ****     return (lv_coord_t)v.num;
 119:Drivers/lvgl/lvgl/src/extra/widgets/msgbox/../../../../src/core/lv_obj_style_gen.h **** }
 120:Drivers/lvgl/lvgl/src/extra/widgets/msgbox/../../../../src/core/lv_obj_style_gen.h **** 
 121:Drivers/lvgl/lvgl/src/extra/widgets/msgbox/../../../../src/core/lv_obj_style_gen.h **** static inline lv_coord_t lv_obj_get_style_pad_right(const struct _lv_obj_t * obj, uint32_t part)
ARM GAS  /tmp/ccSYOygB.s 			page 14


 122:Drivers/lvgl/lvgl/src/extra/widgets/msgbox/../../../../src/core/lv_obj_style_gen.h **** {
 123:Drivers/lvgl/lvgl/src/extra/widgets/msgbox/../../../../src/core/lv_obj_style_gen.h ****     lv_style_value_t v = lv_obj_get_style_prop(obj, part, LV_STYLE_PAD_RIGHT);
 124:Drivers/lvgl/lvgl/src/extra/widgets/msgbox/../../../../src/core/lv_obj_style_gen.h ****     return (lv_coord_t)v.num;
 125:Drivers/lvgl/lvgl/src/extra/widgets/msgbox/../../../../src/core/lv_obj_style_gen.h **** }
 126:Drivers/lvgl/lvgl/src/extra/widgets/msgbox/../../../../src/core/lv_obj_style_gen.h **** 
 127:Drivers/lvgl/lvgl/src/extra/widgets/msgbox/../../../../src/core/lv_obj_style_gen.h **** static inline lv_coord_t lv_obj_get_style_pad_row(const struct _lv_obj_t * obj, uint32_t part)
 128:Drivers/lvgl/lvgl/src/extra/widgets/msgbox/../../../../src/core/lv_obj_style_gen.h **** {
 129:Drivers/lvgl/lvgl/src/extra/widgets/msgbox/../../../../src/core/lv_obj_style_gen.h ****     lv_style_value_t v = lv_obj_get_style_prop(obj, part, LV_STYLE_PAD_ROW);
 130:Drivers/lvgl/lvgl/src/extra/widgets/msgbox/../../../../src/core/lv_obj_style_gen.h ****     return (lv_coord_t)v.num;
 131:Drivers/lvgl/lvgl/src/extra/widgets/msgbox/../../../../src/core/lv_obj_style_gen.h **** }
 132:Drivers/lvgl/lvgl/src/extra/widgets/msgbox/../../../../src/core/lv_obj_style_gen.h **** 
 133:Drivers/lvgl/lvgl/src/extra/widgets/msgbox/../../../../src/core/lv_obj_style_gen.h **** static inline lv_coord_t lv_obj_get_style_pad_column(const struct _lv_obj_t * obj, uint32_t part)
 134:Drivers/lvgl/lvgl/src/extra/widgets/msgbox/../../../../src/core/lv_obj_style_gen.h **** {
 135:Drivers/lvgl/lvgl/src/extra/widgets/msgbox/../../../../src/core/lv_obj_style_gen.h ****     lv_style_value_t v = lv_obj_get_style_prop(obj, part, LV_STYLE_PAD_COLUMN);
 136:Drivers/lvgl/lvgl/src/extra/widgets/msgbox/../../../../src/core/lv_obj_style_gen.h ****     return (lv_coord_t)v.num;
 137:Drivers/lvgl/lvgl/src/extra/widgets/msgbox/../../../../src/core/lv_obj_style_gen.h **** }
 138:Drivers/lvgl/lvgl/src/extra/widgets/msgbox/../../../../src/core/lv_obj_style_gen.h **** 
 139:Drivers/lvgl/lvgl/src/extra/widgets/msgbox/../../../../src/core/lv_obj_style_gen.h **** static inline lv_color_t lv_obj_get_style_bg_color(const struct _lv_obj_t * obj, uint32_t part)
 140:Drivers/lvgl/lvgl/src/extra/widgets/msgbox/../../../../src/core/lv_obj_style_gen.h **** {
 141:Drivers/lvgl/lvgl/src/extra/widgets/msgbox/../../../../src/core/lv_obj_style_gen.h ****     lv_style_value_t v = lv_obj_get_style_prop(obj, part, LV_STYLE_BG_COLOR);
 142:Drivers/lvgl/lvgl/src/extra/widgets/msgbox/../../../../src/core/lv_obj_style_gen.h ****     return v.color;
 143:Drivers/lvgl/lvgl/src/extra/widgets/msgbox/../../../../src/core/lv_obj_style_gen.h **** }
 144:Drivers/lvgl/lvgl/src/extra/widgets/msgbox/../../../../src/core/lv_obj_style_gen.h **** 
 145:Drivers/lvgl/lvgl/src/extra/widgets/msgbox/../../../../src/core/lv_obj_style_gen.h **** static inline lv_color_t lv_obj_get_style_bg_color_filtered(const struct _lv_obj_t * obj, uint32_t 
 146:Drivers/lvgl/lvgl/src/extra/widgets/msgbox/../../../../src/core/lv_obj_style_gen.h **** {
 147:Drivers/lvgl/lvgl/src/extra/widgets/msgbox/../../../../src/core/lv_obj_style_gen.h ****     lv_style_value_t v = _lv_obj_style_apply_color_filter(obj, part, lv_obj_get_style_prop(obj, par
 148:Drivers/lvgl/lvgl/src/extra/widgets/msgbox/../../../../src/core/lv_obj_style_gen.h ****     return v.color;
 149:Drivers/lvgl/lvgl/src/extra/widgets/msgbox/../../../../src/core/lv_obj_style_gen.h **** }
 150:Drivers/lvgl/lvgl/src/extra/widgets/msgbox/../../../../src/core/lv_obj_style_gen.h **** 
 151:Drivers/lvgl/lvgl/src/extra/widgets/msgbox/../../../../src/core/lv_obj_style_gen.h **** static inline lv_opa_t lv_obj_get_style_bg_opa(const struct _lv_obj_t * obj, uint32_t part)
 152:Drivers/lvgl/lvgl/src/extra/widgets/msgbox/../../../../src/core/lv_obj_style_gen.h **** {
 153:Drivers/lvgl/lvgl/src/extra/widgets/msgbox/../../../../src/core/lv_obj_style_gen.h ****     lv_style_value_t v = lv_obj_get_style_prop(obj, part, LV_STYLE_BG_OPA);
 154:Drivers/lvgl/lvgl/src/extra/widgets/msgbox/../../../../src/core/lv_obj_style_gen.h ****     return (lv_opa_t)v.num;
 155:Drivers/lvgl/lvgl/src/extra/widgets/msgbox/../../../../src/core/lv_obj_style_gen.h **** }
 156:Drivers/lvgl/lvgl/src/extra/widgets/msgbox/../../../../src/core/lv_obj_style_gen.h **** 
 157:Drivers/lvgl/lvgl/src/extra/widgets/msgbox/../../../../src/core/lv_obj_style_gen.h **** static inline lv_color_t lv_obj_get_style_bg_grad_color(const struct _lv_obj_t * obj, uint32_t part
 158:Drivers/lvgl/lvgl/src/extra/widgets/msgbox/../../../../src/core/lv_obj_style_gen.h **** {
 159:Drivers/lvgl/lvgl/src/extra/widgets/msgbox/../../../../src/core/lv_obj_style_gen.h ****     lv_style_value_t v = lv_obj_get_style_prop(obj, part, LV_STYLE_BG_GRAD_COLOR);
 160:Drivers/lvgl/lvgl/src/extra/widgets/msgbox/../../../../src/core/lv_obj_style_gen.h ****     return v.color;
 161:Drivers/lvgl/lvgl/src/extra/widgets/msgbox/../../../../src/core/lv_obj_style_gen.h **** }
 162:Drivers/lvgl/lvgl/src/extra/widgets/msgbox/../../../../src/core/lv_obj_style_gen.h **** 
 163:Drivers/lvgl/lvgl/src/extra/widgets/msgbox/../../../../src/core/lv_obj_style_gen.h **** static inline lv_color_t lv_obj_get_style_bg_grad_color_filtered(const struct _lv_obj_t * obj, uint
 164:Drivers/lvgl/lvgl/src/extra/widgets/msgbox/../../../../src/core/lv_obj_style_gen.h **** {
 165:Drivers/lvgl/lvgl/src/extra/widgets/msgbox/../../../../src/core/lv_obj_style_gen.h ****     lv_style_value_t v = _lv_obj_style_apply_color_filter(obj, part, lv_obj_get_style_prop(obj, par
 166:Drivers/lvgl/lvgl/src/extra/widgets/msgbox/../../../../src/core/lv_obj_style_gen.h ****     return v.color;
 167:Drivers/lvgl/lvgl/src/extra/widgets/msgbox/../../../../src/core/lv_obj_style_gen.h **** }
 168:Drivers/lvgl/lvgl/src/extra/widgets/msgbox/../../../../src/core/lv_obj_style_gen.h **** 
 169:Drivers/lvgl/lvgl/src/extra/widgets/msgbox/../../../../src/core/lv_obj_style_gen.h **** static inline lv_grad_dir_t lv_obj_get_style_bg_grad_dir(const struct _lv_obj_t * obj, uint32_t par
 170:Drivers/lvgl/lvgl/src/extra/widgets/msgbox/../../../../src/core/lv_obj_style_gen.h **** {
 171:Drivers/lvgl/lvgl/src/extra/widgets/msgbox/../../../../src/core/lv_obj_style_gen.h ****     lv_style_value_t v = lv_obj_get_style_prop(obj, part, LV_STYLE_BG_GRAD_DIR);
 172:Drivers/lvgl/lvgl/src/extra/widgets/msgbox/../../../../src/core/lv_obj_style_gen.h ****     return (lv_grad_dir_t)v.num;
 173:Drivers/lvgl/lvgl/src/extra/widgets/msgbox/../../../../src/core/lv_obj_style_gen.h **** }
 174:Drivers/lvgl/lvgl/src/extra/widgets/msgbox/../../../../src/core/lv_obj_style_gen.h **** 
 175:Drivers/lvgl/lvgl/src/extra/widgets/msgbox/../../../../src/core/lv_obj_style_gen.h **** static inline lv_coord_t lv_obj_get_style_bg_main_stop(const struct _lv_obj_t * obj, uint32_t part)
 176:Drivers/lvgl/lvgl/src/extra/widgets/msgbox/../../../../src/core/lv_obj_style_gen.h **** {
 177:Drivers/lvgl/lvgl/src/extra/widgets/msgbox/../../../../src/core/lv_obj_style_gen.h ****     lv_style_value_t v = lv_obj_get_style_prop(obj, part, LV_STYLE_BG_MAIN_STOP);
 178:Drivers/lvgl/lvgl/src/extra/widgets/msgbox/../../../../src/core/lv_obj_style_gen.h ****     return (lv_coord_t)v.num;
ARM GAS  /tmp/ccSYOygB.s 			page 15


 179:Drivers/lvgl/lvgl/src/extra/widgets/msgbox/../../../../src/core/lv_obj_style_gen.h **** }
 180:Drivers/lvgl/lvgl/src/extra/widgets/msgbox/../../../../src/core/lv_obj_style_gen.h **** 
 181:Drivers/lvgl/lvgl/src/extra/widgets/msgbox/../../../../src/core/lv_obj_style_gen.h **** static inline lv_coord_t lv_obj_get_style_bg_grad_stop(const struct _lv_obj_t * obj, uint32_t part)
 182:Drivers/lvgl/lvgl/src/extra/widgets/msgbox/../../../../src/core/lv_obj_style_gen.h **** {
 183:Drivers/lvgl/lvgl/src/extra/widgets/msgbox/../../../../src/core/lv_obj_style_gen.h ****     lv_style_value_t v = lv_obj_get_style_prop(obj, part, LV_STYLE_BG_GRAD_STOP);
 184:Drivers/lvgl/lvgl/src/extra/widgets/msgbox/../../../../src/core/lv_obj_style_gen.h ****     return (lv_coord_t)v.num;
 185:Drivers/lvgl/lvgl/src/extra/widgets/msgbox/../../../../src/core/lv_obj_style_gen.h **** }
 186:Drivers/lvgl/lvgl/src/extra/widgets/msgbox/../../../../src/core/lv_obj_style_gen.h **** 
 187:Drivers/lvgl/lvgl/src/extra/widgets/msgbox/../../../../src/core/lv_obj_style_gen.h **** static inline const lv_grad_dsc_t * lv_obj_get_style_bg_grad(const struct _lv_obj_t * obj, uint32_t
 188:Drivers/lvgl/lvgl/src/extra/widgets/msgbox/../../../../src/core/lv_obj_style_gen.h **** {
 189:Drivers/lvgl/lvgl/src/extra/widgets/msgbox/../../../../src/core/lv_obj_style_gen.h ****     lv_style_value_t v = lv_obj_get_style_prop(obj, part, LV_STYLE_BG_GRAD);
 190:Drivers/lvgl/lvgl/src/extra/widgets/msgbox/../../../../src/core/lv_obj_style_gen.h ****     return (const lv_grad_dsc_t *)v.ptr;
 191:Drivers/lvgl/lvgl/src/extra/widgets/msgbox/../../../../src/core/lv_obj_style_gen.h **** }
 192:Drivers/lvgl/lvgl/src/extra/widgets/msgbox/../../../../src/core/lv_obj_style_gen.h **** 
 193:Drivers/lvgl/lvgl/src/extra/widgets/msgbox/../../../../src/core/lv_obj_style_gen.h **** static inline lv_dither_mode_t lv_obj_get_style_bg_dither_mode(const struct _lv_obj_t * obj, uint32
 194:Drivers/lvgl/lvgl/src/extra/widgets/msgbox/../../../../src/core/lv_obj_style_gen.h **** {
 195:Drivers/lvgl/lvgl/src/extra/widgets/msgbox/../../../../src/core/lv_obj_style_gen.h ****     lv_style_value_t v = lv_obj_get_style_prop(obj, part, LV_STYLE_BG_DITHER_MODE);
 196:Drivers/lvgl/lvgl/src/extra/widgets/msgbox/../../../../src/core/lv_obj_style_gen.h ****     return (lv_dither_mode_t)v.num;
 197:Drivers/lvgl/lvgl/src/extra/widgets/msgbox/../../../../src/core/lv_obj_style_gen.h **** }
 198:Drivers/lvgl/lvgl/src/extra/widgets/msgbox/../../../../src/core/lv_obj_style_gen.h **** 
 199:Drivers/lvgl/lvgl/src/extra/widgets/msgbox/../../../../src/core/lv_obj_style_gen.h **** static inline const void * lv_obj_get_style_bg_img_src(const struct _lv_obj_t * obj, uint32_t part)
 200:Drivers/lvgl/lvgl/src/extra/widgets/msgbox/../../../../src/core/lv_obj_style_gen.h **** {
 201:Drivers/lvgl/lvgl/src/extra/widgets/msgbox/../../../../src/core/lv_obj_style_gen.h ****     lv_style_value_t v = lv_obj_get_style_prop(obj, part, LV_STYLE_BG_IMG_SRC);
 202:Drivers/lvgl/lvgl/src/extra/widgets/msgbox/../../../../src/core/lv_obj_style_gen.h ****     return (const void *)v.ptr;
 203:Drivers/lvgl/lvgl/src/extra/widgets/msgbox/../../../../src/core/lv_obj_style_gen.h **** }
 204:Drivers/lvgl/lvgl/src/extra/widgets/msgbox/../../../../src/core/lv_obj_style_gen.h **** 
 205:Drivers/lvgl/lvgl/src/extra/widgets/msgbox/../../../../src/core/lv_obj_style_gen.h **** static inline lv_opa_t lv_obj_get_style_bg_img_opa(const struct _lv_obj_t * obj, uint32_t part)
 206:Drivers/lvgl/lvgl/src/extra/widgets/msgbox/../../../../src/core/lv_obj_style_gen.h **** {
 207:Drivers/lvgl/lvgl/src/extra/widgets/msgbox/../../../../src/core/lv_obj_style_gen.h ****     lv_style_value_t v = lv_obj_get_style_prop(obj, part, LV_STYLE_BG_IMG_OPA);
 208:Drivers/lvgl/lvgl/src/extra/widgets/msgbox/../../../../src/core/lv_obj_style_gen.h ****     return (lv_opa_t)v.num;
 209:Drivers/lvgl/lvgl/src/extra/widgets/msgbox/../../../../src/core/lv_obj_style_gen.h **** }
 210:Drivers/lvgl/lvgl/src/extra/widgets/msgbox/../../../../src/core/lv_obj_style_gen.h **** 
 211:Drivers/lvgl/lvgl/src/extra/widgets/msgbox/../../../../src/core/lv_obj_style_gen.h **** static inline lv_color_t lv_obj_get_style_bg_img_recolor(const struct _lv_obj_t * obj, uint32_t par
 212:Drivers/lvgl/lvgl/src/extra/widgets/msgbox/../../../../src/core/lv_obj_style_gen.h **** {
 213:Drivers/lvgl/lvgl/src/extra/widgets/msgbox/../../../../src/core/lv_obj_style_gen.h ****     lv_style_value_t v = lv_obj_get_style_prop(obj, part, LV_STYLE_BG_IMG_RECOLOR);
 214:Drivers/lvgl/lvgl/src/extra/widgets/msgbox/../../../../src/core/lv_obj_style_gen.h ****     return v.color;
 215:Drivers/lvgl/lvgl/src/extra/widgets/msgbox/../../../../src/core/lv_obj_style_gen.h **** }
 216:Drivers/lvgl/lvgl/src/extra/widgets/msgbox/../../../../src/core/lv_obj_style_gen.h **** 
 217:Drivers/lvgl/lvgl/src/extra/widgets/msgbox/../../../../src/core/lv_obj_style_gen.h **** static inline lv_color_t lv_obj_get_style_bg_img_recolor_filtered(const struct _lv_obj_t * obj, uin
 218:Drivers/lvgl/lvgl/src/extra/widgets/msgbox/../../../../src/core/lv_obj_style_gen.h **** {
 219:Drivers/lvgl/lvgl/src/extra/widgets/msgbox/../../../../src/core/lv_obj_style_gen.h ****     lv_style_value_t v = _lv_obj_style_apply_color_filter(obj, part, lv_obj_get_style_prop(obj, par
 220:Drivers/lvgl/lvgl/src/extra/widgets/msgbox/../../../../src/core/lv_obj_style_gen.h ****     return v.color;
 221:Drivers/lvgl/lvgl/src/extra/widgets/msgbox/../../../../src/core/lv_obj_style_gen.h **** }
 222:Drivers/lvgl/lvgl/src/extra/widgets/msgbox/../../../../src/core/lv_obj_style_gen.h **** 
 223:Drivers/lvgl/lvgl/src/extra/widgets/msgbox/../../../../src/core/lv_obj_style_gen.h **** static inline lv_opa_t lv_obj_get_style_bg_img_recolor_opa(const struct _lv_obj_t * obj, uint32_t p
 224:Drivers/lvgl/lvgl/src/extra/widgets/msgbox/../../../../src/core/lv_obj_style_gen.h **** {
 225:Drivers/lvgl/lvgl/src/extra/widgets/msgbox/../../../../src/core/lv_obj_style_gen.h ****     lv_style_value_t v = lv_obj_get_style_prop(obj, part, LV_STYLE_BG_IMG_RECOLOR_OPA);
 226:Drivers/lvgl/lvgl/src/extra/widgets/msgbox/../../../../src/core/lv_obj_style_gen.h ****     return (lv_opa_t)v.num;
 227:Drivers/lvgl/lvgl/src/extra/widgets/msgbox/../../../../src/core/lv_obj_style_gen.h **** }
 228:Drivers/lvgl/lvgl/src/extra/widgets/msgbox/../../../../src/core/lv_obj_style_gen.h **** 
 229:Drivers/lvgl/lvgl/src/extra/widgets/msgbox/../../../../src/core/lv_obj_style_gen.h **** static inline bool lv_obj_get_style_bg_img_tiled(const struct _lv_obj_t * obj, uint32_t part)
 230:Drivers/lvgl/lvgl/src/extra/widgets/msgbox/../../../../src/core/lv_obj_style_gen.h **** {
 231:Drivers/lvgl/lvgl/src/extra/widgets/msgbox/../../../../src/core/lv_obj_style_gen.h ****     lv_style_value_t v = lv_obj_get_style_prop(obj, part, LV_STYLE_BG_IMG_TILED);
 232:Drivers/lvgl/lvgl/src/extra/widgets/msgbox/../../../../src/core/lv_obj_style_gen.h ****     return (bool)v.num;
 233:Drivers/lvgl/lvgl/src/extra/widgets/msgbox/../../../../src/core/lv_obj_style_gen.h **** }
 234:Drivers/lvgl/lvgl/src/extra/widgets/msgbox/../../../../src/core/lv_obj_style_gen.h **** 
 235:Drivers/lvgl/lvgl/src/extra/widgets/msgbox/../../../../src/core/lv_obj_style_gen.h **** static inline lv_color_t lv_obj_get_style_border_color(const struct _lv_obj_t * obj, uint32_t part)
ARM GAS  /tmp/ccSYOygB.s 			page 16


 236:Drivers/lvgl/lvgl/src/extra/widgets/msgbox/../../../../src/core/lv_obj_style_gen.h **** {
 237:Drivers/lvgl/lvgl/src/extra/widgets/msgbox/../../../../src/core/lv_obj_style_gen.h ****     lv_style_value_t v = lv_obj_get_style_prop(obj, part, LV_STYLE_BORDER_COLOR);
 238:Drivers/lvgl/lvgl/src/extra/widgets/msgbox/../../../../src/core/lv_obj_style_gen.h ****     return v.color;
 239:Drivers/lvgl/lvgl/src/extra/widgets/msgbox/../../../../src/core/lv_obj_style_gen.h **** }
 240:Drivers/lvgl/lvgl/src/extra/widgets/msgbox/../../../../src/core/lv_obj_style_gen.h **** 
 241:Drivers/lvgl/lvgl/src/extra/widgets/msgbox/../../../../src/core/lv_obj_style_gen.h **** static inline lv_color_t lv_obj_get_style_border_color_filtered(const struct _lv_obj_t * obj, uint3
 242:Drivers/lvgl/lvgl/src/extra/widgets/msgbox/../../../../src/core/lv_obj_style_gen.h **** {
 243:Drivers/lvgl/lvgl/src/extra/widgets/msgbox/../../../../src/core/lv_obj_style_gen.h ****     lv_style_value_t v = _lv_obj_style_apply_color_filter(obj, part, lv_obj_get_style_prop(obj, par
 244:Drivers/lvgl/lvgl/src/extra/widgets/msgbox/../../../../src/core/lv_obj_style_gen.h ****     return v.color;
 245:Drivers/lvgl/lvgl/src/extra/widgets/msgbox/../../../../src/core/lv_obj_style_gen.h **** }
 246:Drivers/lvgl/lvgl/src/extra/widgets/msgbox/../../../../src/core/lv_obj_style_gen.h **** 
 247:Drivers/lvgl/lvgl/src/extra/widgets/msgbox/../../../../src/core/lv_obj_style_gen.h **** static inline lv_opa_t lv_obj_get_style_border_opa(const struct _lv_obj_t * obj, uint32_t part)
 248:Drivers/lvgl/lvgl/src/extra/widgets/msgbox/../../../../src/core/lv_obj_style_gen.h **** {
 249:Drivers/lvgl/lvgl/src/extra/widgets/msgbox/../../../../src/core/lv_obj_style_gen.h ****     lv_style_value_t v = lv_obj_get_style_prop(obj, part, LV_STYLE_BORDER_OPA);
 250:Drivers/lvgl/lvgl/src/extra/widgets/msgbox/../../../../src/core/lv_obj_style_gen.h ****     return (lv_opa_t)v.num;
 251:Drivers/lvgl/lvgl/src/extra/widgets/msgbox/../../../../src/core/lv_obj_style_gen.h **** }
 252:Drivers/lvgl/lvgl/src/extra/widgets/msgbox/../../../../src/core/lv_obj_style_gen.h **** 
 253:Drivers/lvgl/lvgl/src/extra/widgets/msgbox/../../../../src/core/lv_obj_style_gen.h **** static inline lv_coord_t lv_obj_get_style_border_width(const struct _lv_obj_t * obj, uint32_t part)
 254:Drivers/lvgl/lvgl/src/extra/widgets/msgbox/../../../../src/core/lv_obj_style_gen.h **** {
 255:Drivers/lvgl/lvgl/src/extra/widgets/msgbox/../../../../src/core/lv_obj_style_gen.h ****     lv_style_value_t v = lv_obj_get_style_prop(obj, part, LV_STYLE_BORDER_WIDTH);
 256:Drivers/lvgl/lvgl/src/extra/widgets/msgbox/../../../../src/core/lv_obj_style_gen.h ****     return (lv_coord_t)v.num;
 257:Drivers/lvgl/lvgl/src/extra/widgets/msgbox/../../../../src/core/lv_obj_style_gen.h **** }
 258:Drivers/lvgl/lvgl/src/extra/widgets/msgbox/../../../../src/core/lv_obj_style_gen.h **** 
 259:Drivers/lvgl/lvgl/src/extra/widgets/msgbox/../../../../src/core/lv_obj_style_gen.h **** static inline lv_border_side_t lv_obj_get_style_border_side(const struct _lv_obj_t * obj, uint32_t 
 260:Drivers/lvgl/lvgl/src/extra/widgets/msgbox/../../../../src/core/lv_obj_style_gen.h **** {
 261:Drivers/lvgl/lvgl/src/extra/widgets/msgbox/../../../../src/core/lv_obj_style_gen.h ****     lv_style_value_t v = lv_obj_get_style_prop(obj, part, LV_STYLE_BORDER_SIDE);
 262:Drivers/lvgl/lvgl/src/extra/widgets/msgbox/../../../../src/core/lv_obj_style_gen.h ****     return (lv_border_side_t)v.num;
 263:Drivers/lvgl/lvgl/src/extra/widgets/msgbox/../../../../src/core/lv_obj_style_gen.h **** }
 264:Drivers/lvgl/lvgl/src/extra/widgets/msgbox/../../../../src/core/lv_obj_style_gen.h **** 
 265:Drivers/lvgl/lvgl/src/extra/widgets/msgbox/../../../../src/core/lv_obj_style_gen.h **** static inline bool lv_obj_get_style_border_post(const struct _lv_obj_t * obj, uint32_t part)
 266:Drivers/lvgl/lvgl/src/extra/widgets/msgbox/../../../../src/core/lv_obj_style_gen.h **** {
 267:Drivers/lvgl/lvgl/src/extra/widgets/msgbox/../../../../src/core/lv_obj_style_gen.h ****     lv_style_value_t v = lv_obj_get_style_prop(obj, part, LV_STYLE_BORDER_POST);
 268:Drivers/lvgl/lvgl/src/extra/widgets/msgbox/../../../../src/core/lv_obj_style_gen.h ****     return (bool)v.num;
 269:Drivers/lvgl/lvgl/src/extra/widgets/msgbox/../../../../src/core/lv_obj_style_gen.h **** }
 270:Drivers/lvgl/lvgl/src/extra/widgets/msgbox/../../../../src/core/lv_obj_style_gen.h **** 
 271:Drivers/lvgl/lvgl/src/extra/widgets/msgbox/../../../../src/core/lv_obj_style_gen.h **** static inline lv_coord_t lv_obj_get_style_outline_width(const struct _lv_obj_t * obj, uint32_t part
 272:Drivers/lvgl/lvgl/src/extra/widgets/msgbox/../../../../src/core/lv_obj_style_gen.h **** {
 273:Drivers/lvgl/lvgl/src/extra/widgets/msgbox/../../../../src/core/lv_obj_style_gen.h ****     lv_style_value_t v = lv_obj_get_style_prop(obj, part, LV_STYLE_OUTLINE_WIDTH);
 274:Drivers/lvgl/lvgl/src/extra/widgets/msgbox/../../../../src/core/lv_obj_style_gen.h ****     return (lv_coord_t)v.num;
 275:Drivers/lvgl/lvgl/src/extra/widgets/msgbox/../../../../src/core/lv_obj_style_gen.h **** }
 276:Drivers/lvgl/lvgl/src/extra/widgets/msgbox/../../../../src/core/lv_obj_style_gen.h **** 
 277:Drivers/lvgl/lvgl/src/extra/widgets/msgbox/../../../../src/core/lv_obj_style_gen.h **** static inline lv_color_t lv_obj_get_style_outline_color(const struct _lv_obj_t * obj, uint32_t part
 278:Drivers/lvgl/lvgl/src/extra/widgets/msgbox/../../../../src/core/lv_obj_style_gen.h **** {
 279:Drivers/lvgl/lvgl/src/extra/widgets/msgbox/../../../../src/core/lv_obj_style_gen.h ****     lv_style_value_t v = lv_obj_get_style_prop(obj, part, LV_STYLE_OUTLINE_COLOR);
 280:Drivers/lvgl/lvgl/src/extra/widgets/msgbox/../../../../src/core/lv_obj_style_gen.h ****     return v.color;
 281:Drivers/lvgl/lvgl/src/extra/widgets/msgbox/../../../../src/core/lv_obj_style_gen.h **** }
 282:Drivers/lvgl/lvgl/src/extra/widgets/msgbox/../../../../src/core/lv_obj_style_gen.h **** 
 283:Drivers/lvgl/lvgl/src/extra/widgets/msgbox/../../../../src/core/lv_obj_style_gen.h **** static inline lv_color_t lv_obj_get_style_outline_color_filtered(const struct _lv_obj_t * obj, uint
 284:Drivers/lvgl/lvgl/src/extra/widgets/msgbox/../../../../src/core/lv_obj_style_gen.h **** {
 285:Drivers/lvgl/lvgl/src/extra/widgets/msgbox/../../../../src/core/lv_obj_style_gen.h ****     lv_style_value_t v = _lv_obj_style_apply_color_filter(obj, part, lv_obj_get_style_prop(obj, par
 286:Drivers/lvgl/lvgl/src/extra/widgets/msgbox/../../../../src/core/lv_obj_style_gen.h ****     return v.color;
 287:Drivers/lvgl/lvgl/src/extra/widgets/msgbox/../../../../src/core/lv_obj_style_gen.h **** }
 288:Drivers/lvgl/lvgl/src/extra/widgets/msgbox/../../../../src/core/lv_obj_style_gen.h **** 
 289:Drivers/lvgl/lvgl/src/extra/widgets/msgbox/../../../../src/core/lv_obj_style_gen.h **** static inline lv_opa_t lv_obj_get_style_outline_opa(const struct _lv_obj_t * obj, uint32_t part)
 290:Drivers/lvgl/lvgl/src/extra/widgets/msgbox/../../../../src/core/lv_obj_style_gen.h **** {
 291:Drivers/lvgl/lvgl/src/extra/widgets/msgbox/../../../../src/core/lv_obj_style_gen.h ****     lv_style_value_t v = lv_obj_get_style_prop(obj, part, LV_STYLE_OUTLINE_OPA);
 292:Drivers/lvgl/lvgl/src/extra/widgets/msgbox/../../../../src/core/lv_obj_style_gen.h ****     return (lv_opa_t)v.num;
ARM GAS  /tmp/ccSYOygB.s 			page 17


 293:Drivers/lvgl/lvgl/src/extra/widgets/msgbox/../../../../src/core/lv_obj_style_gen.h **** }
 294:Drivers/lvgl/lvgl/src/extra/widgets/msgbox/../../../../src/core/lv_obj_style_gen.h **** 
 295:Drivers/lvgl/lvgl/src/extra/widgets/msgbox/../../../../src/core/lv_obj_style_gen.h **** static inline lv_coord_t lv_obj_get_style_outline_pad(const struct _lv_obj_t * obj, uint32_t part)
 296:Drivers/lvgl/lvgl/src/extra/widgets/msgbox/../../../../src/core/lv_obj_style_gen.h **** {
 297:Drivers/lvgl/lvgl/src/extra/widgets/msgbox/../../../../src/core/lv_obj_style_gen.h ****     lv_style_value_t v = lv_obj_get_style_prop(obj, part, LV_STYLE_OUTLINE_PAD);
 298:Drivers/lvgl/lvgl/src/extra/widgets/msgbox/../../../../src/core/lv_obj_style_gen.h ****     return (lv_coord_t)v.num;
 299:Drivers/lvgl/lvgl/src/extra/widgets/msgbox/../../../../src/core/lv_obj_style_gen.h **** }
 300:Drivers/lvgl/lvgl/src/extra/widgets/msgbox/../../../../src/core/lv_obj_style_gen.h **** 
 301:Drivers/lvgl/lvgl/src/extra/widgets/msgbox/../../../../src/core/lv_obj_style_gen.h **** static inline lv_coord_t lv_obj_get_style_shadow_width(const struct _lv_obj_t * obj, uint32_t part)
 302:Drivers/lvgl/lvgl/src/extra/widgets/msgbox/../../../../src/core/lv_obj_style_gen.h **** {
 303:Drivers/lvgl/lvgl/src/extra/widgets/msgbox/../../../../src/core/lv_obj_style_gen.h ****     lv_style_value_t v = lv_obj_get_style_prop(obj, part, LV_STYLE_SHADOW_WIDTH);
 304:Drivers/lvgl/lvgl/src/extra/widgets/msgbox/../../../../src/core/lv_obj_style_gen.h ****     return (lv_coord_t)v.num;
 305:Drivers/lvgl/lvgl/src/extra/widgets/msgbox/../../../../src/core/lv_obj_style_gen.h **** }
 306:Drivers/lvgl/lvgl/src/extra/widgets/msgbox/../../../../src/core/lv_obj_style_gen.h **** 
 307:Drivers/lvgl/lvgl/src/extra/widgets/msgbox/../../../../src/core/lv_obj_style_gen.h **** static inline lv_coord_t lv_obj_get_style_shadow_ofs_x(const struct _lv_obj_t * obj, uint32_t part)
 308:Drivers/lvgl/lvgl/src/extra/widgets/msgbox/../../../../src/core/lv_obj_style_gen.h **** {
 309:Drivers/lvgl/lvgl/src/extra/widgets/msgbox/../../../../src/core/lv_obj_style_gen.h ****     lv_style_value_t v = lv_obj_get_style_prop(obj, part, LV_STYLE_SHADOW_OFS_X);
 310:Drivers/lvgl/lvgl/src/extra/widgets/msgbox/../../../../src/core/lv_obj_style_gen.h ****     return (lv_coord_t)v.num;
 311:Drivers/lvgl/lvgl/src/extra/widgets/msgbox/../../../../src/core/lv_obj_style_gen.h **** }
 312:Drivers/lvgl/lvgl/src/extra/widgets/msgbox/../../../../src/core/lv_obj_style_gen.h **** 
 313:Drivers/lvgl/lvgl/src/extra/widgets/msgbox/../../../../src/core/lv_obj_style_gen.h **** static inline lv_coord_t lv_obj_get_style_shadow_ofs_y(const struct _lv_obj_t * obj, uint32_t part)
 314:Drivers/lvgl/lvgl/src/extra/widgets/msgbox/../../../../src/core/lv_obj_style_gen.h **** {
 315:Drivers/lvgl/lvgl/src/extra/widgets/msgbox/../../../../src/core/lv_obj_style_gen.h ****     lv_style_value_t v = lv_obj_get_style_prop(obj, part, LV_STYLE_SHADOW_OFS_Y);
 316:Drivers/lvgl/lvgl/src/extra/widgets/msgbox/../../../../src/core/lv_obj_style_gen.h ****     return (lv_coord_t)v.num;
 317:Drivers/lvgl/lvgl/src/extra/widgets/msgbox/../../../../src/core/lv_obj_style_gen.h **** }
 318:Drivers/lvgl/lvgl/src/extra/widgets/msgbox/../../../../src/core/lv_obj_style_gen.h **** 
 319:Drivers/lvgl/lvgl/src/extra/widgets/msgbox/../../../../src/core/lv_obj_style_gen.h **** static inline lv_coord_t lv_obj_get_style_shadow_spread(const struct _lv_obj_t * obj, uint32_t part
 320:Drivers/lvgl/lvgl/src/extra/widgets/msgbox/../../../../src/core/lv_obj_style_gen.h **** {
 321:Drivers/lvgl/lvgl/src/extra/widgets/msgbox/../../../../src/core/lv_obj_style_gen.h ****     lv_style_value_t v = lv_obj_get_style_prop(obj, part, LV_STYLE_SHADOW_SPREAD);
 322:Drivers/lvgl/lvgl/src/extra/widgets/msgbox/../../../../src/core/lv_obj_style_gen.h ****     return (lv_coord_t)v.num;
 323:Drivers/lvgl/lvgl/src/extra/widgets/msgbox/../../../../src/core/lv_obj_style_gen.h **** }
 324:Drivers/lvgl/lvgl/src/extra/widgets/msgbox/../../../../src/core/lv_obj_style_gen.h **** 
 325:Drivers/lvgl/lvgl/src/extra/widgets/msgbox/../../../../src/core/lv_obj_style_gen.h **** static inline lv_color_t lv_obj_get_style_shadow_color(const struct _lv_obj_t * obj, uint32_t part)
 326:Drivers/lvgl/lvgl/src/extra/widgets/msgbox/../../../../src/core/lv_obj_style_gen.h **** {
 327:Drivers/lvgl/lvgl/src/extra/widgets/msgbox/../../../../src/core/lv_obj_style_gen.h ****     lv_style_value_t v = lv_obj_get_style_prop(obj, part, LV_STYLE_SHADOW_COLOR);
 328:Drivers/lvgl/lvgl/src/extra/widgets/msgbox/../../../../src/core/lv_obj_style_gen.h ****     return v.color;
 329:Drivers/lvgl/lvgl/src/extra/widgets/msgbox/../../../../src/core/lv_obj_style_gen.h **** }
 330:Drivers/lvgl/lvgl/src/extra/widgets/msgbox/../../../../src/core/lv_obj_style_gen.h **** 
 331:Drivers/lvgl/lvgl/src/extra/widgets/msgbox/../../../../src/core/lv_obj_style_gen.h **** static inline lv_color_t lv_obj_get_style_shadow_color_filtered(const struct _lv_obj_t * obj, uint3
 332:Drivers/lvgl/lvgl/src/extra/widgets/msgbox/../../../../src/core/lv_obj_style_gen.h **** {
 333:Drivers/lvgl/lvgl/src/extra/widgets/msgbox/../../../../src/core/lv_obj_style_gen.h ****     lv_style_value_t v = _lv_obj_style_apply_color_filter(obj, part, lv_obj_get_style_prop(obj, par
 334:Drivers/lvgl/lvgl/src/extra/widgets/msgbox/../../../../src/core/lv_obj_style_gen.h ****     return v.color;
 335:Drivers/lvgl/lvgl/src/extra/widgets/msgbox/../../../../src/core/lv_obj_style_gen.h **** }
 336:Drivers/lvgl/lvgl/src/extra/widgets/msgbox/../../../../src/core/lv_obj_style_gen.h **** 
 337:Drivers/lvgl/lvgl/src/extra/widgets/msgbox/../../../../src/core/lv_obj_style_gen.h **** static inline lv_opa_t lv_obj_get_style_shadow_opa(const struct _lv_obj_t * obj, uint32_t part)
 338:Drivers/lvgl/lvgl/src/extra/widgets/msgbox/../../../../src/core/lv_obj_style_gen.h **** {
 339:Drivers/lvgl/lvgl/src/extra/widgets/msgbox/../../../../src/core/lv_obj_style_gen.h ****     lv_style_value_t v = lv_obj_get_style_prop(obj, part, LV_STYLE_SHADOW_OPA);
 340:Drivers/lvgl/lvgl/src/extra/widgets/msgbox/../../../../src/core/lv_obj_style_gen.h ****     return (lv_opa_t)v.num;
 341:Drivers/lvgl/lvgl/src/extra/widgets/msgbox/../../../../src/core/lv_obj_style_gen.h **** }
 342:Drivers/lvgl/lvgl/src/extra/widgets/msgbox/../../../../src/core/lv_obj_style_gen.h **** 
 343:Drivers/lvgl/lvgl/src/extra/widgets/msgbox/../../../../src/core/lv_obj_style_gen.h **** static inline lv_opa_t lv_obj_get_style_img_opa(const struct _lv_obj_t * obj, uint32_t part)
 344:Drivers/lvgl/lvgl/src/extra/widgets/msgbox/../../../../src/core/lv_obj_style_gen.h **** {
 345:Drivers/lvgl/lvgl/src/extra/widgets/msgbox/../../../../src/core/lv_obj_style_gen.h ****     lv_style_value_t v = lv_obj_get_style_prop(obj, part, LV_STYLE_IMG_OPA);
 346:Drivers/lvgl/lvgl/src/extra/widgets/msgbox/../../../../src/core/lv_obj_style_gen.h ****     return (lv_opa_t)v.num;
 347:Drivers/lvgl/lvgl/src/extra/widgets/msgbox/../../../../src/core/lv_obj_style_gen.h **** }
 348:Drivers/lvgl/lvgl/src/extra/widgets/msgbox/../../../../src/core/lv_obj_style_gen.h **** 
 349:Drivers/lvgl/lvgl/src/extra/widgets/msgbox/../../../../src/core/lv_obj_style_gen.h **** static inline lv_color_t lv_obj_get_style_img_recolor(const struct _lv_obj_t * obj, uint32_t part)
ARM GAS  /tmp/ccSYOygB.s 			page 18


 350:Drivers/lvgl/lvgl/src/extra/widgets/msgbox/../../../../src/core/lv_obj_style_gen.h **** {
 351:Drivers/lvgl/lvgl/src/extra/widgets/msgbox/../../../../src/core/lv_obj_style_gen.h ****     lv_style_value_t v = lv_obj_get_style_prop(obj, part, LV_STYLE_IMG_RECOLOR);
 352:Drivers/lvgl/lvgl/src/extra/widgets/msgbox/../../../../src/core/lv_obj_style_gen.h ****     return v.color;
 353:Drivers/lvgl/lvgl/src/extra/widgets/msgbox/../../../../src/core/lv_obj_style_gen.h **** }
 354:Drivers/lvgl/lvgl/src/extra/widgets/msgbox/../../../../src/core/lv_obj_style_gen.h **** 
 355:Drivers/lvgl/lvgl/src/extra/widgets/msgbox/../../../../src/core/lv_obj_style_gen.h **** static inline lv_color_t lv_obj_get_style_img_recolor_filtered(const struct _lv_obj_t * obj, uint32
 356:Drivers/lvgl/lvgl/src/extra/widgets/msgbox/../../../../src/core/lv_obj_style_gen.h **** {
 357:Drivers/lvgl/lvgl/src/extra/widgets/msgbox/../../../../src/core/lv_obj_style_gen.h ****     lv_style_value_t v = _lv_obj_style_apply_color_filter(obj, part, lv_obj_get_style_prop(obj, par
 358:Drivers/lvgl/lvgl/src/extra/widgets/msgbox/../../../../src/core/lv_obj_style_gen.h ****     return v.color;
 359:Drivers/lvgl/lvgl/src/extra/widgets/msgbox/../../../../src/core/lv_obj_style_gen.h **** }
 360:Drivers/lvgl/lvgl/src/extra/widgets/msgbox/../../../../src/core/lv_obj_style_gen.h **** 
 361:Drivers/lvgl/lvgl/src/extra/widgets/msgbox/../../../../src/core/lv_obj_style_gen.h **** static inline lv_opa_t lv_obj_get_style_img_recolor_opa(const struct _lv_obj_t * obj, uint32_t part
 362:Drivers/lvgl/lvgl/src/extra/widgets/msgbox/../../../../src/core/lv_obj_style_gen.h **** {
 363:Drivers/lvgl/lvgl/src/extra/widgets/msgbox/../../../../src/core/lv_obj_style_gen.h ****     lv_style_value_t v = lv_obj_get_style_prop(obj, part, LV_STYLE_IMG_RECOLOR_OPA);
 364:Drivers/lvgl/lvgl/src/extra/widgets/msgbox/../../../../src/core/lv_obj_style_gen.h ****     return (lv_opa_t)v.num;
 365:Drivers/lvgl/lvgl/src/extra/widgets/msgbox/../../../../src/core/lv_obj_style_gen.h **** }
 366:Drivers/lvgl/lvgl/src/extra/widgets/msgbox/../../../../src/core/lv_obj_style_gen.h **** 
 367:Drivers/lvgl/lvgl/src/extra/widgets/msgbox/../../../../src/core/lv_obj_style_gen.h **** static inline lv_coord_t lv_obj_get_style_line_width(const struct _lv_obj_t * obj, uint32_t part)
 368:Drivers/lvgl/lvgl/src/extra/widgets/msgbox/../../../../src/core/lv_obj_style_gen.h **** {
 369:Drivers/lvgl/lvgl/src/extra/widgets/msgbox/../../../../src/core/lv_obj_style_gen.h ****     lv_style_value_t v = lv_obj_get_style_prop(obj, part, LV_STYLE_LINE_WIDTH);
 370:Drivers/lvgl/lvgl/src/extra/widgets/msgbox/../../../../src/core/lv_obj_style_gen.h ****     return (lv_coord_t)v.num;
 371:Drivers/lvgl/lvgl/src/extra/widgets/msgbox/../../../../src/core/lv_obj_style_gen.h **** }
 372:Drivers/lvgl/lvgl/src/extra/widgets/msgbox/../../../../src/core/lv_obj_style_gen.h **** 
 373:Drivers/lvgl/lvgl/src/extra/widgets/msgbox/../../../../src/core/lv_obj_style_gen.h **** static inline lv_coord_t lv_obj_get_style_line_dash_width(const struct _lv_obj_t * obj, uint32_t pa
 374:Drivers/lvgl/lvgl/src/extra/widgets/msgbox/../../../../src/core/lv_obj_style_gen.h **** {
 375:Drivers/lvgl/lvgl/src/extra/widgets/msgbox/../../../../src/core/lv_obj_style_gen.h ****     lv_style_value_t v = lv_obj_get_style_prop(obj, part, LV_STYLE_LINE_DASH_WIDTH);
 376:Drivers/lvgl/lvgl/src/extra/widgets/msgbox/../../../../src/core/lv_obj_style_gen.h ****     return (lv_coord_t)v.num;
 377:Drivers/lvgl/lvgl/src/extra/widgets/msgbox/../../../../src/core/lv_obj_style_gen.h **** }
 378:Drivers/lvgl/lvgl/src/extra/widgets/msgbox/../../../../src/core/lv_obj_style_gen.h **** 
 379:Drivers/lvgl/lvgl/src/extra/widgets/msgbox/../../../../src/core/lv_obj_style_gen.h **** static inline lv_coord_t lv_obj_get_style_line_dash_gap(const struct _lv_obj_t * obj, uint32_t part
 380:Drivers/lvgl/lvgl/src/extra/widgets/msgbox/../../../../src/core/lv_obj_style_gen.h **** {
 381:Drivers/lvgl/lvgl/src/extra/widgets/msgbox/../../../../src/core/lv_obj_style_gen.h ****     lv_style_value_t v = lv_obj_get_style_prop(obj, part, LV_STYLE_LINE_DASH_GAP);
 382:Drivers/lvgl/lvgl/src/extra/widgets/msgbox/../../../../src/core/lv_obj_style_gen.h ****     return (lv_coord_t)v.num;
 383:Drivers/lvgl/lvgl/src/extra/widgets/msgbox/../../../../src/core/lv_obj_style_gen.h **** }
 384:Drivers/lvgl/lvgl/src/extra/widgets/msgbox/../../../../src/core/lv_obj_style_gen.h **** 
 385:Drivers/lvgl/lvgl/src/extra/widgets/msgbox/../../../../src/core/lv_obj_style_gen.h **** static inline bool lv_obj_get_style_line_rounded(const struct _lv_obj_t * obj, uint32_t part)
 386:Drivers/lvgl/lvgl/src/extra/widgets/msgbox/../../../../src/core/lv_obj_style_gen.h **** {
 387:Drivers/lvgl/lvgl/src/extra/widgets/msgbox/../../../../src/core/lv_obj_style_gen.h ****     lv_style_value_t v = lv_obj_get_style_prop(obj, part, LV_STYLE_LINE_ROUNDED);
 388:Drivers/lvgl/lvgl/src/extra/widgets/msgbox/../../../../src/core/lv_obj_style_gen.h ****     return (bool)v.num;
 389:Drivers/lvgl/lvgl/src/extra/widgets/msgbox/../../../../src/core/lv_obj_style_gen.h **** }
 390:Drivers/lvgl/lvgl/src/extra/widgets/msgbox/../../../../src/core/lv_obj_style_gen.h **** 
 391:Drivers/lvgl/lvgl/src/extra/widgets/msgbox/../../../../src/core/lv_obj_style_gen.h **** static inline lv_color_t lv_obj_get_style_line_color(const struct _lv_obj_t * obj, uint32_t part)
 392:Drivers/lvgl/lvgl/src/extra/widgets/msgbox/../../../../src/core/lv_obj_style_gen.h **** {
 393:Drivers/lvgl/lvgl/src/extra/widgets/msgbox/../../../../src/core/lv_obj_style_gen.h ****     lv_style_value_t v = lv_obj_get_style_prop(obj, part, LV_STYLE_LINE_COLOR);
 394:Drivers/lvgl/lvgl/src/extra/widgets/msgbox/../../../../src/core/lv_obj_style_gen.h ****     return v.color;
 395:Drivers/lvgl/lvgl/src/extra/widgets/msgbox/../../../../src/core/lv_obj_style_gen.h **** }
 396:Drivers/lvgl/lvgl/src/extra/widgets/msgbox/../../../../src/core/lv_obj_style_gen.h **** 
 397:Drivers/lvgl/lvgl/src/extra/widgets/msgbox/../../../../src/core/lv_obj_style_gen.h **** static inline lv_color_t lv_obj_get_style_line_color_filtered(const struct _lv_obj_t * obj, uint32_
 398:Drivers/lvgl/lvgl/src/extra/widgets/msgbox/../../../../src/core/lv_obj_style_gen.h **** {
 399:Drivers/lvgl/lvgl/src/extra/widgets/msgbox/../../../../src/core/lv_obj_style_gen.h ****     lv_style_value_t v = _lv_obj_style_apply_color_filter(obj, part, lv_obj_get_style_prop(obj, par
 400:Drivers/lvgl/lvgl/src/extra/widgets/msgbox/../../../../src/core/lv_obj_style_gen.h ****     return v.color;
 401:Drivers/lvgl/lvgl/src/extra/widgets/msgbox/../../../../src/core/lv_obj_style_gen.h **** }
 402:Drivers/lvgl/lvgl/src/extra/widgets/msgbox/../../../../src/core/lv_obj_style_gen.h **** 
 403:Drivers/lvgl/lvgl/src/extra/widgets/msgbox/../../../../src/core/lv_obj_style_gen.h **** static inline lv_opa_t lv_obj_get_style_line_opa(const struct _lv_obj_t * obj, uint32_t part)
 404:Drivers/lvgl/lvgl/src/extra/widgets/msgbox/../../../../src/core/lv_obj_style_gen.h **** {
 405:Drivers/lvgl/lvgl/src/extra/widgets/msgbox/../../../../src/core/lv_obj_style_gen.h ****     lv_style_value_t v = lv_obj_get_style_prop(obj, part, LV_STYLE_LINE_OPA);
 406:Drivers/lvgl/lvgl/src/extra/widgets/msgbox/../../../../src/core/lv_obj_style_gen.h ****     return (lv_opa_t)v.num;
ARM GAS  /tmp/ccSYOygB.s 			page 19


 407:Drivers/lvgl/lvgl/src/extra/widgets/msgbox/../../../../src/core/lv_obj_style_gen.h **** }
 408:Drivers/lvgl/lvgl/src/extra/widgets/msgbox/../../../../src/core/lv_obj_style_gen.h **** 
 409:Drivers/lvgl/lvgl/src/extra/widgets/msgbox/../../../../src/core/lv_obj_style_gen.h **** static inline lv_coord_t lv_obj_get_style_arc_width(const struct _lv_obj_t * obj, uint32_t part)
 410:Drivers/lvgl/lvgl/src/extra/widgets/msgbox/../../../../src/core/lv_obj_style_gen.h **** {
 411:Drivers/lvgl/lvgl/src/extra/widgets/msgbox/../../../../src/core/lv_obj_style_gen.h ****     lv_style_value_t v = lv_obj_get_style_prop(obj, part, LV_STYLE_ARC_WIDTH);
 412:Drivers/lvgl/lvgl/src/extra/widgets/msgbox/../../../../src/core/lv_obj_style_gen.h ****     return (lv_coord_t)v.num;
 413:Drivers/lvgl/lvgl/src/extra/widgets/msgbox/../../../../src/core/lv_obj_style_gen.h **** }
 414:Drivers/lvgl/lvgl/src/extra/widgets/msgbox/../../../../src/core/lv_obj_style_gen.h **** 
 415:Drivers/lvgl/lvgl/src/extra/widgets/msgbox/../../../../src/core/lv_obj_style_gen.h **** static inline bool lv_obj_get_style_arc_rounded(const struct _lv_obj_t * obj, uint32_t part)
 416:Drivers/lvgl/lvgl/src/extra/widgets/msgbox/../../../../src/core/lv_obj_style_gen.h **** {
 417:Drivers/lvgl/lvgl/src/extra/widgets/msgbox/../../../../src/core/lv_obj_style_gen.h ****     lv_style_value_t v = lv_obj_get_style_prop(obj, part, LV_STYLE_ARC_ROUNDED);
 418:Drivers/lvgl/lvgl/src/extra/widgets/msgbox/../../../../src/core/lv_obj_style_gen.h ****     return (bool)v.num;
 419:Drivers/lvgl/lvgl/src/extra/widgets/msgbox/../../../../src/core/lv_obj_style_gen.h **** }
 420:Drivers/lvgl/lvgl/src/extra/widgets/msgbox/../../../../src/core/lv_obj_style_gen.h **** 
 421:Drivers/lvgl/lvgl/src/extra/widgets/msgbox/../../../../src/core/lv_obj_style_gen.h **** static inline lv_color_t lv_obj_get_style_arc_color(const struct _lv_obj_t * obj, uint32_t part)
 422:Drivers/lvgl/lvgl/src/extra/widgets/msgbox/../../../../src/core/lv_obj_style_gen.h **** {
 423:Drivers/lvgl/lvgl/src/extra/widgets/msgbox/../../../../src/core/lv_obj_style_gen.h ****     lv_style_value_t v = lv_obj_get_style_prop(obj, part, LV_STYLE_ARC_COLOR);
 424:Drivers/lvgl/lvgl/src/extra/widgets/msgbox/../../../../src/core/lv_obj_style_gen.h ****     return v.color;
 425:Drivers/lvgl/lvgl/src/extra/widgets/msgbox/../../../../src/core/lv_obj_style_gen.h **** }
 426:Drivers/lvgl/lvgl/src/extra/widgets/msgbox/../../../../src/core/lv_obj_style_gen.h **** 
 427:Drivers/lvgl/lvgl/src/extra/widgets/msgbox/../../../../src/core/lv_obj_style_gen.h **** static inline lv_color_t lv_obj_get_style_arc_color_filtered(const struct _lv_obj_t * obj, uint32_t
 428:Drivers/lvgl/lvgl/src/extra/widgets/msgbox/../../../../src/core/lv_obj_style_gen.h **** {
 429:Drivers/lvgl/lvgl/src/extra/widgets/msgbox/../../../../src/core/lv_obj_style_gen.h ****     lv_style_value_t v = _lv_obj_style_apply_color_filter(obj, part, lv_obj_get_style_prop(obj, par
 430:Drivers/lvgl/lvgl/src/extra/widgets/msgbox/../../../../src/core/lv_obj_style_gen.h ****     return v.color;
 431:Drivers/lvgl/lvgl/src/extra/widgets/msgbox/../../../../src/core/lv_obj_style_gen.h **** }
 432:Drivers/lvgl/lvgl/src/extra/widgets/msgbox/../../../../src/core/lv_obj_style_gen.h **** 
 433:Drivers/lvgl/lvgl/src/extra/widgets/msgbox/../../../../src/core/lv_obj_style_gen.h **** static inline lv_opa_t lv_obj_get_style_arc_opa(const struct _lv_obj_t * obj, uint32_t part)
 434:Drivers/lvgl/lvgl/src/extra/widgets/msgbox/../../../../src/core/lv_obj_style_gen.h **** {
 435:Drivers/lvgl/lvgl/src/extra/widgets/msgbox/../../../../src/core/lv_obj_style_gen.h ****     lv_style_value_t v = lv_obj_get_style_prop(obj, part, LV_STYLE_ARC_OPA);
 436:Drivers/lvgl/lvgl/src/extra/widgets/msgbox/../../../../src/core/lv_obj_style_gen.h ****     return (lv_opa_t)v.num;
 437:Drivers/lvgl/lvgl/src/extra/widgets/msgbox/../../../../src/core/lv_obj_style_gen.h **** }
 438:Drivers/lvgl/lvgl/src/extra/widgets/msgbox/../../../../src/core/lv_obj_style_gen.h **** 
 439:Drivers/lvgl/lvgl/src/extra/widgets/msgbox/../../../../src/core/lv_obj_style_gen.h **** static inline const void * lv_obj_get_style_arc_img_src(const struct _lv_obj_t * obj, uint32_t part
 440:Drivers/lvgl/lvgl/src/extra/widgets/msgbox/../../../../src/core/lv_obj_style_gen.h **** {
 441:Drivers/lvgl/lvgl/src/extra/widgets/msgbox/../../../../src/core/lv_obj_style_gen.h ****     lv_style_value_t v = lv_obj_get_style_prop(obj, part, LV_STYLE_ARC_IMG_SRC);
 442:Drivers/lvgl/lvgl/src/extra/widgets/msgbox/../../../../src/core/lv_obj_style_gen.h ****     return (const void *)v.ptr;
 443:Drivers/lvgl/lvgl/src/extra/widgets/msgbox/../../../../src/core/lv_obj_style_gen.h **** }
 444:Drivers/lvgl/lvgl/src/extra/widgets/msgbox/../../../../src/core/lv_obj_style_gen.h **** 
 445:Drivers/lvgl/lvgl/src/extra/widgets/msgbox/../../../../src/core/lv_obj_style_gen.h **** static inline lv_color_t lv_obj_get_style_text_color(const struct _lv_obj_t * obj, uint32_t part)
 446:Drivers/lvgl/lvgl/src/extra/widgets/msgbox/../../../../src/core/lv_obj_style_gen.h **** {
 447:Drivers/lvgl/lvgl/src/extra/widgets/msgbox/../../../../src/core/lv_obj_style_gen.h ****     lv_style_value_t v = lv_obj_get_style_prop(obj, part, LV_STYLE_TEXT_COLOR);
 448:Drivers/lvgl/lvgl/src/extra/widgets/msgbox/../../../../src/core/lv_obj_style_gen.h ****     return v.color;
 449:Drivers/lvgl/lvgl/src/extra/widgets/msgbox/../../../../src/core/lv_obj_style_gen.h **** }
 450:Drivers/lvgl/lvgl/src/extra/widgets/msgbox/../../../../src/core/lv_obj_style_gen.h **** 
 451:Drivers/lvgl/lvgl/src/extra/widgets/msgbox/../../../../src/core/lv_obj_style_gen.h **** static inline lv_color_t lv_obj_get_style_text_color_filtered(const struct _lv_obj_t * obj, uint32_
 452:Drivers/lvgl/lvgl/src/extra/widgets/msgbox/../../../../src/core/lv_obj_style_gen.h **** {
 453:Drivers/lvgl/lvgl/src/extra/widgets/msgbox/../../../../src/core/lv_obj_style_gen.h ****     lv_style_value_t v = _lv_obj_style_apply_color_filter(obj, part, lv_obj_get_style_prop(obj, par
 454:Drivers/lvgl/lvgl/src/extra/widgets/msgbox/../../../../src/core/lv_obj_style_gen.h ****     return v.color;
 455:Drivers/lvgl/lvgl/src/extra/widgets/msgbox/../../../../src/core/lv_obj_style_gen.h **** }
 456:Drivers/lvgl/lvgl/src/extra/widgets/msgbox/../../../../src/core/lv_obj_style_gen.h **** 
 457:Drivers/lvgl/lvgl/src/extra/widgets/msgbox/../../../../src/core/lv_obj_style_gen.h **** static inline lv_opa_t lv_obj_get_style_text_opa(const struct _lv_obj_t * obj, uint32_t part)
 458:Drivers/lvgl/lvgl/src/extra/widgets/msgbox/../../../../src/core/lv_obj_style_gen.h **** {
 459:Drivers/lvgl/lvgl/src/extra/widgets/msgbox/../../../../src/core/lv_obj_style_gen.h ****     lv_style_value_t v = lv_obj_get_style_prop(obj, part, LV_STYLE_TEXT_OPA);
 460:Drivers/lvgl/lvgl/src/extra/widgets/msgbox/../../../../src/core/lv_obj_style_gen.h ****     return (lv_opa_t)v.num;
 461:Drivers/lvgl/lvgl/src/extra/widgets/msgbox/../../../../src/core/lv_obj_style_gen.h **** }
 462:Drivers/lvgl/lvgl/src/extra/widgets/msgbox/../../../../src/core/lv_obj_style_gen.h **** 
 463:Drivers/lvgl/lvgl/src/extra/widgets/msgbox/../../../../src/core/lv_obj_style_gen.h **** static inline const lv_font_t * lv_obj_get_style_text_font(const struct _lv_obj_t * obj, uint32_t p
ARM GAS  /tmp/ccSYOygB.s 			page 20


 464:Drivers/lvgl/lvgl/src/extra/widgets/msgbox/../../../../src/core/lv_obj_style_gen.h **** {
 465:Drivers/lvgl/lvgl/src/extra/widgets/msgbox/../../../../src/core/lv_obj_style_gen.h ****     lv_style_value_t v = lv_obj_get_style_prop(obj, part, LV_STYLE_TEXT_FONT);
 287              		.loc 3 465 0 discriminator 4
 288 015e 5722     		movs	r2, #87
 289 0160 0021     		movs	r1, #0
 290 0162 A06A     		ldr	r0, [r4, #40]
 291 0164 FFF7FEFF 		bl	lv_obj_get_style_prop
 292              	.LVL43:
 293              	.LBE27:
 294              	.LBE26:
 103:Drivers/lvgl/lvgl/src/extra/widgets/msgbox/lv_msgbox.c ****         lv_obj_set_size(mbox->close_btn, close_btn_size, close_btn_size);
 295              		.loc 1 103 0 discriminator 4
 296 0168 0589     		ldrh	r5, [r0, #8]
 297 016a 0020     		movs	r0, #0
 298 016c FFF7FEFF 		bl	lv_disp_get_dpi
 299              	.LVL44:
 300 0170 0A23     		movs	r3, #10
 301 0172 03FB00F3 		mul	r3, r3, r0
 302 0176 5033     		adds	r3, r3, #80
 303 0178 B3F5A07F 		cmp	r3, #320
 304 017c 19DB     		blt	.L26
 103:Drivers/lvgl/lvgl/src/extra/widgets/msgbox/lv_msgbox.c ****         lv_obj_set_size(mbox->close_btn, close_btn_size, close_btn_size);
 305              		.loc 1 103 0 is_stmt 0 discriminator 1
 306 017e 0020     		movs	r0, #0
 307 0180 FFF7FEFF 		bl	lv_disp_get_dpi
 308              	.LVL45:
 309 0184 0A23     		movs	r3, #10
 310 0186 03FB00F3 		mul	r3, r3, r0
 311 018a 5033     		adds	r3, r3, #80
 312 018c A022     		movs	r2, #160
 313 018e 93FBF2F3 		sdiv	r3, r3, r2
 314 0192 9BB2     		uxth	r3, r3
 315              	.L14:
 103:Drivers/lvgl/lvgl/src/extra/widgets/msgbox/lv_msgbox.c ****         lv_obj_set_size(mbox->close_btn, close_btn_size, close_btn_size);
 316              		.loc 1 103 0 discriminator 4
 317 0194 2B44     		add	r3, r3, r5
 318 0196 19B2     		sxth	r1, r3
 319              	.LVL46:
 104:Drivers/lvgl/lvgl/src/extra/widgets/msgbox/lv_msgbox.c ****         lv_obj_align(label, LV_ALIGN_CENTER, 0, 0);
 320              		.loc 1 104 0 is_stmt 1 discriminator 4
 321 0198 0A46     		mov	r2, r1
 322 019a A06A     		ldr	r0, [r4, #40]
 323 019c FFF7FEFF 		bl	lv_obj_set_size
 324              	.LVL47:
 105:Drivers/lvgl/lvgl/src/extra/widgets/msgbox/lv_msgbox.c ****     }
 325              		.loc 1 105 0 discriminator 4
 326 01a0 0023     		movs	r3, #0
 327 01a2 1A46     		mov	r2, r3
 328 01a4 0921     		movs	r1, #9
 329 01a6 4046     		mov	r0, r8
 330 01a8 FFF7FEFF 		bl	lv_obj_align
 331              	.LVL48:
 332 01ac 67E7     		b	.L12
 333              	.LVL49:
 334              	.L25:
  98:Drivers/lvgl/lvgl/src/extra/widgets/msgbox/lv_msgbox.c ****         lv_obj_add_event_cb(mbox->close_btn, msgbox_close_click_event_cb, LV_EVENT_CLICKED, NULL);
 335              		.loc 1 98 0
ARM GAS  /tmp/ccSYOygB.s 			page 21


 336 01ae 0121     		movs	r1, #1
 337 01b0 C5E7     		b	.L13
 338              	.LVL50:
 339              	.L26:
 103:Drivers/lvgl/lvgl/src/extra/widgets/msgbox/lv_msgbox.c ****         lv_obj_set_size(mbox->close_btn, close_btn_size, close_btn_size);
 340              		.loc 1 103 0
 341 01b2 0123     		movs	r3, #1
 342 01b4 EEE7     		b	.L14
 343              	.LVL51:
 344              	.L27:
 345              	.LBE25:
 110:Drivers/lvgl/lvgl/src/extra/widgets/msgbox/lv_msgbox.c ****     if(has_txt) {
 346              		.loc 1 110 0
 347 01b6 0023     		movs	r3, #0
 348 01b8 6DE7     		b	.L15
 349              	.L28:
 350 01ba 0123     		movs	r3, #1
 351 01bc 6BE7     		b	.L15
 352              	.LVL52:
 353              	.L33:
 112:Drivers/lvgl/lvgl/src/extra/widgets/msgbox/lv_msgbox.c ****         lv_label_set_text(mbox->text, txt);
 354              		.loc 1 112 0
 355 01be FFF7FEFF 		bl	lv_label_create
 356              	.LVL53:
 357 01c2 2063     		str	r0, [r4, #48]
 113:Drivers/lvgl/lvgl/src/extra/widgets/msgbox/lv_msgbox.c ****         lv_label_set_long_mode(mbox->text, LV_LABEL_LONG_WRAP);
 358              		.loc 1 113 0
 359 01c4 3946     		mov	r1, r7
 360 01c6 FFF7FEFF 		bl	lv_label_set_text
 361              	.LVL54:
 114:Drivers/lvgl/lvgl/src/extra/widgets/msgbox/lv_msgbox.c ****         lv_obj_set_width(mbox->text, lv_pct(100));
 362              		.loc 1 114 0
 363 01ca 0021     		movs	r1, #0
 364 01cc 206B     		ldr	r0, [r4, #48]
 365 01ce FFF7FEFF 		bl	lv_label_set_long_mode
 366              	.LVL55:
 115:Drivers/lvgl/lvgl/src/extra/widgets/msgbox/lv_msgbox.c ****     }
 367              		.loc 1 115 0
 368 01d2 42F26401 		movw	r1, #8292
 369 01d6 206B     		ldr	r0, [r4, #48]
 370 01d8 FFF7FEFF 		bl	lv_obj_set_width
 371              	.LVL56:
 372 01dc 5EE7     		b	.L16
 373              	.LVL57:
 374              	.L20:
 375              	.LBB28:
 125:Drivers/lvgl/lvgl/src/extra/widgets/msgbox/lv_msgbox.c ****             btn_cnt++;
 376              		.loc 1 125 0
 377 01de 0135     		adds	r5, r5, #1
 378              	.LVL58:
 379              	.L18:
 124:Drivers/lvgl/lvgl/src/extra/widgets/msgbox/lv_msgbox.c ****             btn_cnt++;
 380              		.loc 1 124 0
 381 01e0 56F82530 		ldr	r3, [r6, r5, lsl #2]
 382 01e4 13B1     		cbz	r3, .L19
 124:Drivers/lvgl/lvgl/src/extra/widgets/msgbox/lv_msgbox.c ****             btn_cnt++;
 383              		.loc 1 124 0 is_stmt 0 discriminator 1
ARM GAS  /tmp/ccSYOygB.s 			page 22


 384 01e6 1B78     		ldrb	r3, [r3]	@ zero_extendqisi2
 385 01e8 002B     		cmp	r3, #0
 386 01ea F8D1     		bne	.L20
 387              	.L19:
 388              	.LVL59:
 389              	.LBB21:
 390              	.LBB22:
 391              		.loc 3 465 0 is_stmt 1
 392 01ec 5722     		movs	r2, #87
 393 01ee 4FF4A021 		mov	r1, #327680
 394 01f2 606B     		ldr	r0, [r4, #52]
 395 01f4 FFF7FEFF 		bl	lv_obj_get_style_prop
 396              	.LVL60:
 397              	.LBE22:
 398              	.LBE21:
 399              	.LBB23:
 400              	.LBB24:
 401              		.file 4 "Drivers/lvgl/lvgl/src/extra/widgets/msgbox/../../../../src/hal/../draw/../misc/../font/lv
   1:Drivers/lvgl/lvgl/src/extra/widgets/msgbox/../../../../src/hal/../draw/../misc/../font/lv_font.h **** /**
   2:Drivers/lvgl/lvgl/src/extra/widgets/msgbox/../../../../src/hal/../draw/../misc/../font/lv_font.h ****  * @file lv_font.h
   3:Drivers/lvgl/lvgl/src/extra/widgets/msgbox/../../../../src/hal/../draw/../misc/../font/lv_font.h ****  *
   4:Drivers/lvgl/lvgl/src/extra/widgets/msgbox/../../../../src/hal/../draw/../misc/../font/lv_font.h ****  */
   5:Drivers/lvgl/lvgl/src/extra/widgets/msgbox/../../../../src/hal/../draw/../misc/../font/lv_font.h **** 
   6:Drivers/lvgl/lvgl/src/extra/widgets/msgbox/../../../../src/hal/../draw/../misc/../font/lv_font.h **** #ifndef LV_FONT_H
   7:Drivers/lvgl/lvgl/src/extra/widgets/msgbox/../../../../src/hal/../draw/../misc/../font/lv_font.h **** #define LV_FONT_H
   8:Drivers/lvgl/lvgl/src/extra/widgets/msgbox/../../../../src/hal/../draw/../misc/../font/lv_font.h **** 
   9:Drivers/lvgl/lvgl/src/extra/widgets/msgbox/../../../../src/hal/../draw/../misc/../font/lv_font.h **** #ifdef __cplusplus
  10:Drivers/lvgl/lvgl/src/extra/widgets/msgbox/../../../../src/hal/../draw/../misc/../font/lv_font.h **** extern "C" {
  11:Drivers/lvgl/lvgl/src/extra/widgets/msgbox/../../../../src/hal/../draw/../misc/../font/lv_font.h **** #endif
  12:Drivers/lvgl/lvgl/src/extra/widgets/msgbox/../../../../src/hal/../draw/../misc/../font/lv_font.h **** 
  13:Drivers/lvgl/lvgl/src/extra/widgets/msgbox/../../../../src/hal/../draw/../misc/../font/lv_font.h **** /*********************
  14:Drivers/lvgl/lvgl/src/extra/widgets/msgbox/../../../../src/hal/../draw/../misc/../font/lv_font.h ****  *      INCLUDES
  15:Drivers/lvgl/lvgl/src/extra/widgets/msgbox/../../../../src/hal/../draw/../misc/../font/lv_font.h ****  *********************/
  16:Drivers/lvgl/lvgl/src/extra/widgets/msgbox/../../../../src/hal/../draw/../misc/../font/lv_font.h **** #include "../lv_conf_internal.h"
  17:Drivers/lvgl/lvgl/src/extra/widgets/msgbox/../../../../src/hal/../draw/../misc/../font/lv_font.h **** #include <stdint.h>
  18:Drivers/lvgl/lvgl/src/extra/widgets/msgbox/../../../../src/hal/../draw/../misc/../font/lv_font.h **** #include <stddef.h>
  19:Drivers/lvgl/lvgl/src/extra/widgets/msgbox/../../../../src/hal/../draw/../misc/../font/lv_font.h **** #include <stdbool.h>
  20:Drivers/lvgl/lvgl/src/extra/widgets/msgbox/../../../../src/hal/../draw/../misc/../font/lv_font.h **** 
  21:Drivers/lvgl/lvgl/src/extra/widgets/msgbox/../../../../src/hal/../draw/../misc/../font/lv_font.h **** #include "lv_symbol_def.h"
  22:Drivers/lvgl/lvgl/src/extra/widgets/msgbox/../../../../src/hal/../draw/../misc/../font/lv_font.h **** #include "../misc/lv_area.h"
  23:Drivers/lvgl/lvgl/src/extra/widgets/msgbox/../../../../src/hal/../draw/../misc/../font/lv_font.h **** 
  24:Drivers/lvgl/lvgl/src/extra/widgets/msgbox/../../../../src/hal/../draw/../misc/../font/lv_font.h **** /*********************
  25:Drivers/lvgl/lvgl/src/extra/widgets/msgbox/../../../../src/hal/../draw/../misc/../font/lv_font.h ****  *      DEFINES
  26:Drivers/lvgl/lvgl/src/extra/widgets/msgbox/../../../../src/hal/../draw/../misc/../font/lv_font.h ****  *********************/
  27:Drivers/lvgl/lvgl/src/extra/widgets/msgbox/../../../../src/hal/../draw/../misc/../font/lv_font.h **** 
  28:Drivers/lvgl/lvgl/src/extra/widgets/msgbox/../../../../src/hal/../draw/../misc/../font/lv_font.h **** /* imgfont identifier */
  29:Drivers/lvgl/lvgl/src/extra/widgets/msgbox/../../../../src/hal/../draw/../misc/../font/lv_font.h **** #define LV_IMGFONT_BPP 9
  30:Drivers/lvgl/lvgl/src/extra/widgets/msgbox/../../../../src/hal/../draw/../misc/../font/lv_font.h **** 
  31:Drivers/lvgl/lvgl/src/extra/widgets/msgbox/../../../../src/hal/../draw/../misc/../font/lv_font.h **** /**********************
  32:Drivers/lvgl/lvgl/src/extra/widgets/msgbox/../../../../src/hal/../draw/../misc/../font/lv_font.h ****  *      TYPEDEFS
  33:Drivers/lvgl/lvgl/src/extra/widgets/msgbox/../../../../src/hal/../draw/../misc/../font/lv_font.h ****  **********************/
  34:Drivers/lvgl/lvgl/src/extra/widgets/msgbox/../../../../src/hal/../draw/../misc/../font/lv_font.h **** 
  35:Drivers/lvgl/lvgl/src/extra/widgets/msgbox/../../../../src/hal/../draw/../misc/../font/lv_font.h **** /*------------------
  36:Drivers/lvgl/lvgl/src/extra/widgets/msgbox/../../../../src/hal/../draw/../misc/../font/lv_font.h ****  * General types
  37:Drivers/lvgl/lvgl/src/extra/widgets/msgbox/../../../../src/hal/../draw/../misc/../font/lv_font.h ****  *-----------------*/
  38:Drivers/lvgl/lvgl/src/extra/widgets/msgbox/../../../../src/hal/../draw/../misc/../font/lv_font.h **** 
  39:Drivers/lvgl/lvgl/src/extra/widgets/msgbox/../../../../src/hal/../draw/../misc/../font/lv_font.h **** struct _lv_font_t;
ARM GAS  /tmp/ccSYOygB.s 			page 23


  40:Drivers/lvgl/lvgl/src/extra/widgets/msgbox/../../../../src/hal/../draw/../misc/../font/lv_font.h **** /** Describes the properties of a glyph.*/
  41:Drivers/lvgl/lvgl/src/extra/widgets/msgbox/../../../../src/hal/../draw/../misc/../font/lv_font.h **** typedef struct {
  42:Drivers/lvgl/lvgl/src/extra/widgets/msgbox/../../../../src/hal/../draw/../misc/../font/lv_font.h ****     const struct _lv_font_t *
  43:Drivers/lvgl/lvgl/src/extra/widgets/msgbox/../../../../src/hal/../draw/../misc/../font/lv_font.h ****         resolved_font; /**< Pointer to a font where the glyph was actually found after handling fal
  44:Drivers/lvgl/lvgl/src/extra/widgets/msgbox/../../../../src/hal/../draw/../misc/../font/lv_font.h ****     uint16_t adv_w; /**< The glyph needs this space. Draw the next glyph after this width.*/
  45:Drivers/lvgl/lvgl/src/extra/widgets/msgbox/../../../../src/hal/../draw/../misc/../font/lv_font.h ****     uint16_t box_w; /**< Width of the glyph's bounding box*/
  46:Drivers/lvgl/lvgl/src/extra/widgets/msgbox/../../../../src/hal/../draw/../misc/../font/lv_font.h ****     uint16_t box_h; /**< Height of the glyph's bounding box*/
  47:Drivers/lvgl/lvgl/src/extra/widgets/msgbox/../../../../src/hal/../draw/../misc/../font/lv_font.h ****     int16_t ofs_x;  /**< x offset of the bounding box*/
  48:Drivers/lvgl/lvgl/src/extra/widgets/msgbox/../../../../src/hal/../draw/../misc/../font/lv_font.h ****     int16_t ofs_y;  /**< y offset of the bounding box*/
  49:Drivers/lvgl/lvgl/src/extra/widgets/msgbox/../../../../src/hal/../draw/../misc/../font/lv_font.h ****     uint8_t bpp: 4;  /**< Bit-per-pixel: 1, 2, 4, 8*/
  50:Drivers/lvgl/lvgl/src/extra/widgets/msgbox/../../../../src/hal/../draw/../misc/../font/lv_font.h ****     uint8_t is_placeholder: 1; /** Glyph is missing. But placeholder will still be displayed */
  51:Drivers/lvgl/lvgl/src/extra/widgets/msgbox/../../../../src/hal/../draw/../misc/../font/lv_font.h **** } lv_font_glyph_dsc_t;
  52:Drivers/lvgl/lvgl/src/extra/widgets/msgbox/../../../../src/hal/../draw/../misc/../font/lv_font.h **** 
  53:Drivers/lvgl/lvgl/src/extra/widgets/msgbox/../../../../src/hal/../draw/../misc/../font/lv_font.h **** /** The bitmaps might be upscaled by 3 to achieve subpixel rendering.*/
  54:Drivers/lvgl/lvgl/src/extra/widgets/msgbox/../../../../src/hal/../draw/../misc/../font/lv_font.h **** enum {
  55:Drivers/lvgl/lvgl/src/extra/widgets/msgbox/../../../../src/hal/../draw/../misc/../font/lv_font.h ****     LV_FONT_SUBPX_NONE,
  56:Drivers/lvgl/lvgl/src/extra/widgets/msgbox/../../../../src/hal/../draw/../misc/../font/lv_font.h ****     LV_FONT_SUBPX_HOR,
  57:Drivers/lvgl/lvgl/src/extra/widgets/msgbox/../../../../src/hal/../draw/../misc/../font/lv_font.h ****     LV_FONT_SUBPX_VER,
  58:Drivers/lvgl/lvgl/src/extra/widgets/msgbox/../../../../src/hal/../draw/../misc/../font/lv_font.h ****     LV_FONT_SUBPX_BOTH,
  59:Drivers/lvgl/lvgl/src/extra/widgets/msgbox/../../../../src/hal/../draw/../misc/../font/lv_font.h **** };
  60:Drivers/lvgl/lvgl/src/extra/widgets/msgbox/../../../../src/hal/../draw/../misc/../font/lv_font.h **** 
  61:Drivers/lvgl/lvgl/src/extra/widgets/msgbox/../../../../src/hal/../draw/../misc/../font/lv_font.h **** typedef uint8_t lv_font_subpx_t;
  62:Drivers/lvgl/lvgl/src/extra/widgets/msgbox/../../../../src/hal/../draw/../misc/../font/lv_font.h **** 
  63:Drivers/lvgl/lvgl/src/extra/widgets/msgbox/../../../../src/hal/../draw/../misc/../font/lv_font.h **** /** Describe the properties of a font*/
  64:Drivers/lvgl/lvgl/src/extra/widgets/msgbox/../../../../src/hal/../draw/../misc/../font/lv_font.h **** typedef struct _lv_font_t {
  65:Drivers/lvgl/lvgl/src/extra/widgets/msgbox/../../../../src/hal/../draw/../misc/../font/lv_font.h ****     /** Get a glyph's descriptor from a font*/
  66:Drivers/lvgl/lvgl/src/extra/widgets/msgbox/../../../../src/hal/../draw/../misc/../font/lv_font.h ****     bool (*get_glyph_dsc)(const struct _lv_font_t *, lv_font_glyph_dsc_t *, uint32_t letter, uint32
  67:Drivers/lvgl/lvgl/src/extra/widgets/msgbox/../../../../src/hal/../draw/../misc/../font/lv_font.h **** 
  68:Drivers/lvgl/lvgl/src/extra/widgets/msgbox/../../../../src/hal/../draw/../misc/../font/lv_font.h ****     /** Get a glyph's bitmap from a font*/
  69:Drivers/lvgl/lvgl/src/extra/widgets/msgbox/../../../../src/hal/../draw/../misc/../font/lv_font.h ****     const uint8_t * (*get_glyph_bitmap)(const struct _lv_font_t *, uint32_t);
  70:Drivers/lvgl/lvgl/src/extra/widgets/msgbox/../../../../src/hal/../draw/../misc/../font/lv_font.h **** 
  71:Drivers/lvgl/lvgl/src/extra/widgets/msgbox/../../../../src/hal/../draw/../misc/../font/lv_font.h ****     /*Pointer to the font in a font pack (must have the same line height)*/
  72:Drivers/lvgl/lvgl/src/extra/widgets/msgbox/../../../../src/hal/../draw/../misc/../font/lv_font.h ****     lv_coord_t line_height;         /**< The real line height where any text fits*/
  73:Drivers/lvgl/lvgl/src/extra/widgets/msgbox/../../../../src/hal/../draw/../misc/../font/lv_font.h ****     lv_coord_t base_line;           /**< Base line measured from the top of the line_height*/
  74:Drivers/lvgl/lvgl/src/extra/widgets/msgbox/../../../../src/hal/../draw/../misc/../font/lv_font.h ****     uint8_t subpx  : 2;             /**< An element of `lv_font_subpx_t`*/
  75:Drivers/lvgl/lvgl/src/extra/widgets/msgbox/../../../../src/hal/../draw/../misc/../font/lv_font.h **** 
  76:Drivers/lvgl/lvgl/src/extra/widgets/msgbox/../../../../src/hal/../draw/../misc/../font/lv_font.h ****     int8_t underline_position;      /**< Distance between the top of the underline and base line (<
  77:Drivers/lvgl/lvgl/src/extra/widgets/msgbox/../../../../src/hal/../draw/../misc/../font/lv_font.h ****     int8_t underline_thickness;     /**< Thickness of the underline*/
  78:Drivers/lvgl/lvgl/src/extra/widgets/msgbox/../../../../src/hal/../draw/../misc/../font/lv_font.h **** 
  79:Drivers/lvgl/lvgl/src/extra/widgets/msgbox/../../../../src/hal/../draw/../misc/../font/lv_font.h ****     const void * dsc;               /**< Store implementation specific or run_time data or caching 
  80:Drivers/lvgl/lvgl/src/extra/widgets/msgbox/../../../../src/hal/../draw/../misc/../font/lv_font.h ****     const struct _lv_font_t * fallback;   /**< Fallback font for missing glyph. Resolved recursivel
  81:Drivers/lvgl/lvgl/src/extra/widgets/msgbox/../../../../src/hal/../draw/../misc/../font/lv_font.h **** #if LV_USE_USER_DATA
  82:Drivers/lvgl/lvgl/src/extra/widgets/msgbox/../../../../src/hal/../draw/../misc/../font/lv_font.h ****     void * user_data;               /**< Custom user data for font.*/
  83:Drivers/lvgl/lvgl/src/extra/widgets/msgbox/../../../../src/hal/../draw/../misc/../font/lv_font.h **** #endif
  84:Drivers/lvgl/lvgl/src/extra/widgets/msgbox/../../../../src/hal/../draw/../misc/../font/lv_font.h **** } lv_font_t;
  85:Drivers/lvgl/lvgl/src/extra/widgets/msgbox/../../../../src/hal/../draw/../misc/../font/lv_font.h **** 
  86:Drivers/lvgl/lvgl/src/extra/widgets/msgbox/../../../../src/hal/../draw/../misc/../font/lv_font.h **** /**********************
  87:Drivers/lvgl/lvgl/src/extra/widgets/msgbox/../../../../src/hal/../draw/../misc/../font/lv_font.h ****  * GLOBAL PROTOTYPES
  88:Drivers/lvgl/lvgl/src/extra/widgets/msgbox/../../../../src/hal/../draw/../misc/../font/lv_font.h ****  **********************/
  89:Drivers/lvgl/lvgl/src/extra/widgets/msgbox/../../../../src/hal/../draw/../misc/../font/lv_font.h **** 
  90:Drivers/lvgl/lvgl/src/extra/widgets/msgbox/../../../../src/hal/../draw/../misc/../font/lv_font.h **** /**
  91:Drivers/lvgl/lvgl/src/extra/widgets/msgbox/../../../../src/hal/../draw/../misc/../font/lv_font.h ****  * Return with the bitmap of a font.
  92:Drivers/lvgl/lvgl/src/extra/widgets/msgbox/../../../../src/hal/../draw/../misc/../font/lv_font.h ****  * @param font_p pointer to a font
  93:Drivers/lvgl/lvgl/src/extra/widgets/msgbox/../../../../src/hal/../draw/../misc/../font/lv_font.h ****  * @param letter a UNICODE character code
  94:Drivers/lvgl/lvgl/src/extra/widgets/msgbox/../../../../src/hal/../draw/../misc/../font/lv_font.h ****  * @return pointer to the bitmap of the letter
  95:Drivers/lvgl/lvgl/src/extra/widgets/msgbox/../../../../src/hal/../draw/../misc/../font/lv_font.h ****  */
  96:Drivers/lvgl/lvgl/src/extra/widgets/msgbox/../../../../src/hal/../draw/../misc/../font/lv_font.h **** const uint8_t * lv_font_get_glyph_bitmap(const lv_font_t * font_p, uint32_t letter);
ARM GAS  /tmp/ccSYOygB.s 			page 24


  97:Drivers/lvgl/lvgl/src/extra/widgets/msgbox/../../../../src/hal/../draw/../misc/../font/lv_font.h **** 
  98:Drivers/lvgl/lvgl/src/extra/widgets/msgbox/../../../../src/hal/../draw/../misc/../font/lv_font.h **** /**
  99:Drivers/lvgl/lvgl/src/extra/widgets/msgbox/../../../../src/hal/../draw/../misc/../font/lv_font.h ****  * Get the descriptor of a glyph
 100:Drivers/lvgl/lvgl/src/extra/widgets/msgbox/../../../../src/hal/../draw/../misc/../font/lv_font.h ****  * @param font_p pointer to font
 101:Drivers/lvgl/lvgl/src/extra/widgets/msgbox/../../../../src/hal/../draw/../misc/../font/lv_font.h ****  * @param dsc_out store the result descriptor here
 102:Drivers/lvgl/lvgl/src/extra/widgets/msgbox/../../../../src/hal/../draw/../misc/../font/lv_font.h ****  * @param letter a UNICODE letter code
 103:Drivers/lvgl/lvgl/src/extra/widgets/msgbox/../../../../src/hal/../draw/../misc/../font/lv_font.h ****  * @param letter_next the next letter after `letter`. Used for kerning
 104:Drivers/lvgl/lvgl/src/extra/widgets/msgbox/../../../../src/hal/../draw/../misc/../font/lv_font.h ****  * @return true: descriptor is successfully loaded into `dsc_out`.
 105:Drivers/lvgl/lvgl/src/extra/widgets/msgbox/../../../../src/hal/../draw/../misc/../font/lv_font.h ****  *         false: the letter was not found, no data is loaded to `dsc_out`
 106:Drivers/lvgl/lvgl/src/extra/widgets/msgbox/../../../../src/hal/../draw/../misc/../font/lv_font.h ****  */
 107:Drivers/lvgl/lvgl/src/extra/widgets/msgbox/../../../../src/hal/../draw/../misc/../font/lv_font.h **** bool lv_font_get_glyph_dsc(const lv_font_t * font_p, lv_font_glyph_dsc_t * dsc_out, uint32_t letter
 108:Drivers/lvgl/lvgl/src/extra/widgets/msgbox/../../../../src/hal/../draw/../misc/../font/lv_font.h ****                            uint32_t letter_next);
 109:Drivers/lvgl/lvgl/src/extra/widgets/msgbox/../../../../src/hal/../draw/../misc/../font/lv_font.h **** 
 110:Drivers/lvgl/lvgl/src/extra/widgets/msgbox/../../../../src/hal/../draw/../misc/../font/lv_font.h **** /**
 111:Drivers/lvgl/lvgl/src/extra/widgets/msgbox/../../../../src/hal/../draw/../misc/../font/lv_font.h ****  * Get the width of a glyph with kerning
 112:Drivers/lvgl/lvgl/src/extra/widgets/msgbox/../../../../src/hal/../draw/../misc/../font/lv_font.h ****  * @param font pointer to a font
 113:Drivers/lvgl/lvgl/src/extra/widgets/msgbox/../../../../src/hal/../draw/../misc/../font/lv_font.h ****  * @param letter a UNICODE letter
 114:Drivers/lvgl/lvgl/src/extra/widgets/msgbox/../../../../src/hal/../draw/../misc/../font/lv_font.h ****  * @param letter_next the next letter after `letter`. Used for kerning
 115:Drivers/lvgl/lvgl/src/extra/widgets/msgbox/../../../../src/hal/../draw/../misc/../font/lv_font.h ****  * @return the width of the glyph
 116:Drivers/lvgl/lvgl/src/extra/widgets/msgbox/../../../../src/hal/../draw/../misc/../font/lv_font.h ****  */
 117:Drivers/lvgl/lvgl/src/extra/widgets/msgbox/../../../../src/hal/../draw/../misc/../font/lv_font.h **** uint16_t lv_font_get_glyph_width(const lv_font_t * font, uint32_t letter, uint32_t letter_next);
 118:Drivers/lvgl/lvgl/src/extra/widgets/msgbox/../../../../src/hal/../draw/../misc/../font/lv_font.h **** 
 119:Drivers/lvgl/lvgl/src/extra/widgets/msgbox/../../../../src/hal/../draw/../misc/../font/lv_font.h **** /**
 120:Drivers/lvgl/lvgl/src/extra/widgets/msgbox/../../../../src/hal/../draw/../misc/../font/lv_font.h ****  * Get the line height of a font. All characters fit into this height
 121:Drivers/lvgl/lvgl/src/extra/widgets/msgbox/../../../../src/hal/../draw/../misc/../font/lv_font.h ****  * @param font_p pointer to a font
 122:Drivers/lvgl/lvgl/src/extra/widgets/msgbox/../../../../src/hal/../draw/../misc/../font/lv_font.h ****  * @return the height of a font
 123:Drivers/lvgl/lvgl/src/extra/widgets/msgbox/../../../../src/hal/../draw/../misc/../font/lv_font.h ****  */
 124:Drivers/lvgl/lvgl/src/extra/widgets/msgbox/../../../../src/hal/../draw/../misc/../font/lv_font.h **** static inline lv_coord_t lv_font_get_line_height(const lv_font_t * font_p)
 125:Drivers/lvgl/lvgl/src/extra/widgets/msgbox/../../../../src/hal/../draw/../misc/../font/lv_font.h **** {
 126:Drivers/lvgl/lvgl/src/extra/widgets/msgbox/../../../../src/hal/../draw/../misc/../font/lv_font.h ****     return font_p->line_height;
 402              		.loc 4 126 0
 403 01f8 B0F90820 		ldrsh	r2, [r0, #8]
 404              	.LBE24:
 405              	.LBE23:
 126:Drivers/lvgl/lvgl/src/extra/widgets/msgbox/lv_msgbox.c ****         }
 127:Drivers/lvgl/lvgl/src/extra/widgets/msgbox/lv_msgbox.c **** 
 128:Drivers/lvgl/lvgl/src/extra/widgets/msgbox/lv_msgbox.c ****         const lv_font_t * font = lv_obj_get_style_text_font(mbox->btns, LV_PART_ITEMS);
 129:Drivers/lvgl/lvgl/src/extra/widgets/msgbox/lv_msgbox.c ****         lv_coord_t btn_h = lv_font_get_line_height(font) + LV_DPI_DEF / 10;
 406              		.loc 1 129 0
 407 01fc 92B2     		uxth	r2, r2
 408 01fe 0D32     		adds	r2, r2, #13
 409              	.LVL61:
 130:Drivers/lvgl/lvgl/src/extra/widgets/msgbox/lv_msgbox.c ****         lv_obj_set_size(mbox->btns, btn_cnt * (2 * LV_DPI_DEF / 3), btn_h);
 410              		.loc 1 130 0
 411 0200 05EB8501 		add	r1, r5, r5, lsl #2
 412 0204 01EB0111 		add	r1, r1, r1, lsl #4
 413 0208 2944     		add	r1, r1, r5
 414 020a 12B2     		sxth	r2, r2
 415 020c 09B2     		sxth	r1, r1
 416 020e 606B     		ldr	r0, [r4, #52]
 417 0210 FFF7FEFF 		bl	lv_obj_set_size
 418              	.LVL62:
 131:Drivers/lvgl/lvgl/src/extra/widgets/msgbox/lv_msgbox.c ****         lv_obj_set_style_max_width(mbox->btns, lv_pct(100), 0);
 419              		.loc 1 131 0
 420 0214 0022     		movs	r2, #0
 421 0216 42F26401 		movw	r1, #8292
 422 021a 606B     		ldr	r0, [r4, #52]
ARM GAS  /tmp/ccSYOygB.s 			page 25


 423 021c FFF7FEFF 		bl	lv_obj_set_style_max_width
 424              	.LVL63:
 132:Drivers/lvgl/lvgl/src/extra/widgets/msgbox/lv_msgbox.c ****         lv_obj_add_flag(mbox->btns, LV_OBJ_FLAG_EVENT_BUBBLE);    /*To see the event directly on th
 425              		.loc 1 132 0
 426 0220 4FF48041 		mov	r1, #16384
 427 0224 606B     		ldr	r0, [r4, #52]
 428 0226 FFF7FEFF 		bl	lv_obj_add_flag
 429              	.LVL64:
 430              	.L1:
 431              	.LBE28:
 133:Drivers/lvgl/lvgl/src/extra/widgets/msgbox/lv_msgbox.c ****     }
 134:Drivers/lvgl/lvgl/src/extra/widgets/msgbox/lv_msgbox.c **** 
 135:Drivers/lvgl/lvgl/src/extra/widgets/msgbox/lv_msgbox.c ****     return obj;
 136:Drivers/lvgl/lvgl/src/extra/widgets/msgbox/lv_msgbox.c **** }
 432              		.loc 1 136 0
 433 022a 2046     		mov	r0, r4
 434 022c BDE8F883 		pop	{r3, r4, r5, r6, r7, r8, r9, pc}
 435              	.LVL65:
 436              	.L35:
 437              		.align	2
 438              	.L34:
 439 0230 00000000 		.word	.LANCHOR0
 440 0234 00000000 		.word	.LANCHOR1
 441 0238 00000000 		.word	.LANCHOR2
 442 023c 00000000 		.word	msgbox_close_click_event_cb
 443 0240 04000000 		.word	.LC1
 444 0244 00000000 		.word	.LC0
 445              		.cfi_endproc
 446              	.LFE202:
 448              		.section	.text.lv_msgbox_get_title,"ax",%progbits
 449              		.align	1
 450              		.global	lv_msgbox_get_title
 451              		.syntax unified
 452              		.thumb
 453              		.thumb_func
 454              		.fpu fpv5-d16
 456              	lv_msgbox_get_title:
 457              	.LFB203:
 137:Drivers/lvgl/lvgl/src/extra/widgets/msgbox/lv_msgbox.c **** 
 138:Drivers/lvgl/lvgl/src/extra/widgets/msgbox/lv_msgbox.c **** 
 139:Drivers/lvgl/lvgl/src/extra/widgets/msgbox/lv_msgbox.c **** lv_obj_t * lv_msgbox_get_title(lv_obj_t * obj)
 140:Drivers/lvgl/lvgl/src/extra/widgets/msgbox/lv_msgbox.c **** {
 458              		.loc 1 140 0
 459              		.cfi_startproc
 460              		@ args = 0, pretend = 0, frame = 0
 461              		@ frame_needed = 0, uses_anonymous_args = 0
 462              		@ link register save eliminated.
 463              	.LVL66:
 141:Drivers/lvgl/lvgl/src/extra/widgets/msgbox/lv_msgbox.c ****     LV_ASSERT_OBJ(obj, MY_CLASS);
 142:Drivers/lvgl/lvgl/src/extra/widgets/msgbox/lv_msgbox.c ****     lv_msgbox_t * mbox = (lv_msgbox_t *)obj;
 143:Drivers/lvgl/lvgl/src/extra/widgets/msgbox/lv_msgbox.c ****     return mbox->title;
 144:Drivers/lvgl/lvgl/src/extra/widgets/msgbox/lv_msgbox.c **** }
 464              		.loc 1 144 0
 465 0000 406A     		ldr	r0, [r0, #36]
 466              	.LVL67:
 467 0002 7047     		bx	lr
 468              		.cfi_endproc
ARM GAS  /tmp/ccSYOygB.s 			page 26


 469              	.LFE203:
 471              		.section	.text.lv_msgbox_get_close_btn,"ax",%progbits
 472              		.align	1
 473              		.global	lv_msgbox_get_close_btn
 474              		.syntax unified
 475              		.thumb
 476              		.thumb_func
 477              		.fpu fpv5-d16
 479              	lv_msgbox_get_close_btn:
 480              	.LFB204:
 145:Drivers/lvgl/lvgl/src/extra/widgets/msgbox/lv_msgbox.c **** 
 146:Drivers/lvgl/lvgl/src/extra/widgets/msgbox/lv_msgbox.c **** lv_obj_t * lv_msgbox_get_close_btn(lv_obj_t * obj)
 147:Drivers/lvgl/lvgl/src/extra/widgets/msgbox/lv_msgbox.c **** {
 481              		.loc 1 147 0
 482              		.cfi_startproc
 483              		@ args = 0, pretend = 0, frame = 0
 484              		@ frame_needed = 0, uses_anonymous_args = 0
 485              		@ link register save eliminated.
 486              	.LVL68:
 148:Drivers/lvgl/lvgl/src/extra/widgets/msgbox/lv_msgbox.c ****     LV_ASSERT_OBJ(obj, MY_CLASS);
 149:Drivers/lvgl/lvgl/src/extra/widgets/msgbox/lv_msgbox.c ****     lv_msgbox_t * mbox = (lv_msgbox_t *)obj;
 150:Drivers/lvgl/lvgl/src/extra/widgets/msgbox/lv_msgbox.c ****     return mbox->close_btn;
 151:Drivers/lvgl/lvgl/src/extra/widgets/msgbox/lv_msgbox.c **** }
 487              		.loc 1 151 0
 488 0000 806A     		ldr	r0, [r0, #40]
 489              	.LVL69:
 490 0002 7047     		bx	lr
 491              		.cfi_endproc
 492              	.LFE204:
 494              		.section	.text.lv_msgbox_get_text,"ax",%progbits
 495              		.align	1
 496              		.global	lv_msgbox_get_text
 497              		.syntax unified
 498              		.thumb
 499              		.thumb_func
 500              		.fpu fpv5-d16
 502              	lv_msgbox_get_text:
 503              	.LFB205:
 152:Drivers/lvgl/lvgl/src/extra/widgets/msgbox/lv_msgbox.c **** 
 153:Drivers/lvgl/lvgl/src/extra/widgets/msgbox/lv_msgbox.c **** lv_obj_t * lv_msgbox_get_text(lv_obj_t * obj)
 154:Drivers/lvgl/lvgl/src/extra/widgets/msgbox/lv_msgbox.c **** {
 504              		.loc 1 154 0
 505              		.cfi_startproc
 506              		@ args = 0, pretend = 0, frame = 0
 507              		@ frame_needed = 0, uses_anonymous_args = 0
 508              		@ link register save eliminated.
 509              	.LVL70:
 155:Drivers/lvgl/lvgl/src/extra/widgets/msgbox/lv_msgbox.c ****     LV_ASSERT_OBJ(obj, MY_CLASS);
 156:Drivers/lvgl/lvgl/src/extra/widgets/msgbox/lv_msgbox.c ****     lv_msgbox_t * mbox = (lv_msgbox_t *)obj;
 157:Drivers/lvgl/lvgl/src/extra/widgets/msgbox/lv_msgbox.c ****     return mbox->text;
 158:Drivers/lvgl/lvgl/src/extra/widgets/msgbox/lv_msgbox.c **** }
 510              		.loc 1 158 0
 511 0000 006B     		ldr	r0, [r0, #48]
 512              	.LVL71:
 513 0002 7047     		bx	lr
 514              		.cfi_endproc
 515              	.LFE205:
ARM GAS  /tmp/ccSYOygB.s 			page 27


 517              		.section	.text.lv_msgbox_get_content,"ax",%progbits
 518              		.align	1
 519              		.global	lv_msgbox_get_content
 520              		.syntax unified
 521              		.thumb
 522              		.thumb_func
 523              		.fpu fpv5-d16
 525              	lv_msgbox_get_content:
 526              	.LFB206:
 159:Drivers/lvgl/lvgl/src/extra/widgets/msgbox/lv_msgbox.c **** 
 160:Drivers/lvgl/lvgl/src/extra/widgets/msgbox/lv_msgbox.c **** lv_obj_t * lv_msgbox_get_content(lv_obj_t * obj)
 161:Drivers/lvgl/lvgl/src/extra/widgets/msgbox/lv_msgbox.c **** {
 527              		.loc 1 161 0
 528              		.cfi_startproc
 529              		@ args = 0, pretend = 0, frame = 0
 530              		@ frame_needed = 0, uses_anonymous_args = 0
 531              		@ link register save eliminated.
 532              	.LVL72:
 162:Drivers/lvgl/lvgl/src/extra/widgets/msgbox/lv_msgbox.c ****     LV_ASSERT_OBJ(obj, MY_CLASS);
 163:Drivers/lvgl/lvgl/src/extra/widgets/msgbox/lv_msgbox.c ****     lv_msgbox_t * mbox = (lv_msgbox_t *)obj;
 164:Drivers/lvgl/lvgl/src/extra/widgets/msgbox/lv_msgbox.c ****     return mbox->content;
 165:Drivers/lvgl/lvgl/src/extra/widgets/msgbox/lv_msgbox.c **** }
 533              		.loc 1 165 0
 534 0000 C06A     		ldr	r0, [r0, #44]
 535              	.LVL73:
 536 0002 7047     		bx	lr
 537              		.cfi_endproc
 538              	.LFE206:
 540              		.section	.text.lv_msgbox_get_btns,"ax",%progbits
 541              		.align	1
 542              		.global	lv_msgbox_get_btns
 543              		.syntax unified
 544              		.thumb
 545              		.thumb_func
 546              		.fpu fpv5-d16
 548              	lv_msgbox_get_btns:
 549              	.LFB207:
 166:Drivers/lvgl/lvgl/src/extra/widgets/msgbox/lv_msgbox.c **** 
 167:Drivers/lvgl/lvgl/src/extra/widgets/msgbox/lv_msgbox.c **** lv_obj_t * lv_msgbox_get_btns(lv_obj_t * obj)
 168:Drivers/lvgl/lvgl/src/extra/widgets/msgbox/lv_msgbox.c **** {
 550              		.loc 1 168 0
 551              		.cfi_startproc
 552              		@ args = 0, pretend = 0, frame = 0
 553              		@ frame_needed = 0, uses_anonymous_args = 0
 554              		@ link register save eliminated.
 555              	.LVL74:
 169:Drivers/lvgl/lvgl/src/extra/widgets/msgbox/lv_msgbox.c ****     LV_ASSERT_OBJ(obj, MY_CLASS);
 170:Drivers/lvgl/lvgl/src/extra/widgets/msgbox/lv_msgbox.c ****     lv_msgbox_t * mbox = (lv_msgbox_t *)obj;
 171:Drivers/lvgl/lvgl/src/extra/widgets/msgbox/lv_msgbox.c ****     return mbox->btns;
 172:Drivers/lvgl/lvgl/src/extra/widgets/msgbox/lv_msgbox.c **** }
 556              		.loc 1 172 0
 557 0000 406B     		ldr	r0, [r0, #52]
 558              	.LVL75:
 559 0002 7047     		bx	lr
 560              		.cfi_endproc
 561              	.LFE207:
 563              		.section	.text.lv_msgbox_get_active_btn,"ax",%progbits
ARM GAS  /tmp/ccSYOygB.s 			page 28


 564              		.align	1
 565              		.global	lv_msgbox_get_active_btn
 566              		.syntax unified
 567              		.thumb
 568              		.thumb_func
 569              		.fpu fpv5-d16
 571              	lv_msgbox_get_active_btn:
 572              	.LFB208:
 173:Drivers/lvgl/lvgl/src/extra/widgets/msgbox/lv_msgbox.c **** 
 174:Drivers/lvgl/lvgl/src/extra/widgets/msgbox/lv_msgbox.c **** uint16_t lv_msgbox_get_active_btn(lv_obj_t * mbox)
 175:Drivers/lvgl/lvgl/src/extra/widgets/msgbox/lv_msgbox.c **** {
 573              		.loc 1 175 0
 574              		.cfi_startproc
 575              		@ args = 0, pretend = 0, frame = 0
 576              		@ frame_needed = 0, uses_anonymous_args = 0
 577              	.LVL76:
 578 0000 08B5     		push	{r3, lr}
 579              	.LCFI1:
 580              		.cfi_def_cfa_offset 8
 581              		.cfi_offset 3, -8
 582              		.cfi_offset 14, -4
 176:Drivers/lvgl/lvgl/src/extra/widgets/msgbox/lv_msgbox.c ****     lv_obj_t * btnm = lv_msgbox_get_btns(mbox);
 583              		.loc 1 176 0
 584 0002 FFF7FEFF 		bl	lv_msgbox_get_btns
 585              	.LVL77:
 177:Drivers/lvgl/lvgl/src/extra/widgets/msgbox/lv_msgbox.c ****     return lv_btnmatrix_get_selected_btn(btnm);
 586              		.loc 1 177 0
 587 0006 FFF7FEFF 		bl	lv_btnmatrix_get_selected_btn
 588              	.LVL78:
 178:Drivers/lvgl/lvgl/src/extra/widgets/msgbox/lv_msgbox.c **** }
 589              		.loc 1 178 0
 590 000a 08BD     		pop	{r3, pc}
 591              		.cfi_endproc
 592              	.LFE208:
 594              		.section	.text.lv_msgbox_get_active_btn_text,"ax",%progbits
 595              		.align	1
 596              		.global	lv_msgbox_get_active_btn_text
 597              		.syntax unified
 598              		.thumb
 599              		.thumb_func
 600              		.fpu fpv5-d16
 602              	lv_msgbox_get_active_btn_text:
 603              	.LFB209:
 179:Drivers/lvgl/lvgl/src/extra/widgets/msgbox/lv_msgbox.c **** 
 180:Drivers/lvgl/lvgl/src/extra/widgets/msgbox/lv_msgbox.c **** const char * lv_msgbox_get_active_btn_text(lv_obj_t * mbox)
 181:Drivers/lvgl/lvgl/src/extra/widgets/msgbox/lv_msgbox.c **** {
 604              		.loc 1 181 0
 605              		.cfi_startproc
 606              		@ args = 0, pretend = 0, frame = 0
 607              		@ frame_needed = 0, uses_anonymous_args = 0
 608              	.LVL79:
 609 0000 10B5     		push	{r4, lr}
 610              	.LCFI2:
 611              		.cfi_def_cfa_offset 8
 612              		.cfi_offset 4, -8
 613              		.cfi_offset 14, -4
 182:Drivers/lvgl/lvgl/src/extra/widgets/msgbox/lv_msgbox.c ****     lv_obj_t * btnm = lv_msgbox_get_btns(mbox);
ARM GAS  /tmp/ccSYOygB.s 			page 29


 614              		.loc 1 182 0
 615 0002 FFF7FEFF 		bl	lv_msgbox_get_btns
 616              	.LVL80:
 617 0006 0446     		mov	r4, r0
 618              	.LVL81:
 183:Drivers/lvgl/lvgl/src/extra/widgets/msgbox/lv_msgbox.c ****     return lv_btnmatrix_get_btn_text(btnm, lv_btnmatrix_get_selected_btn(btnm));
 619              		.loc 1 183 0
 620 0008 FFF7FEFF 		bl	lv_btnmatrix_get_selected_btn
 621              	.LVL82:
 622 000c 0146     		mov	r1, r0
 623 000e 2046     		mov	r0, r4
 624 0010 FFF7FEFF 		bl	lv_btnmatrix_get_btn_text
 625              	.LVL83:
 184:Drivers/lvgl/lvgl/src/extra/widgets/msgbox/lv_msgbox.c **** }
 626              		.loc 1 184 0
 627 0014 10BD     		pop	{r4, pc}
 628              		.cfi_endproc
 629              	.LFE209:
 631              		.section	.text.lv_msgbox_close,"ax",%progbits
 632              		.align	1
 633              		.global	lv_msgbox_close
 634              		.syntax unified
 635              		.thumb
 636              		.thumb_func
 637              		.fpu fpv5-d16
 639              	lv_msgbox_close:
 640              	.LFB210:
 185:Drivers/lvgl/lvgl/src/extra/widgets/msgbox/lv_msgbox.c **** 
 186:Drivers/lvgl/lvgl/src/extra/widgets/msgbox/lv_msgbox.c **** void lv_msgbox_close(lv_obj_t * mbox)
 187:Drivers/lvgl/lvgl/src/extra/widgets/msgbox/lv_msgbox.c **** {
 641              		.loc 1 187 0
 642              		.cfi_startproc
 643              		@ args = 0, pretend = 0, frame = 0
 644              		@ frame_needed = 0, uses_anonymous_args = 0
 645              	.LVL84:
 646 0000 10B5     		push	{r4, lr}
 647              	.LCFI3:
 648              		.cfi_def_cfa_offset 8
 649              		.cfi_offset 4, -8
 650              		.cfi_offset 14, -4
 651 0002 0446     		mov	r4, r0
 188:Drivers/lvgl/lvgl/src/extra/widgets/msgbox/lv_msgbox.c ****     if(lv_obj_has_flag(mbox, LV_MSGBOX_FLAG_AUTO_PARENT)) lv_obj_del(lv_obj_get_parent(mbox));
 652              		.loc 1 188 0
 653 0004 4FF00071 		mov	r1, #33554432
 654 0008 FFF7FEFF 		bl	lv_obj_has_flag
 655              	.LVL85:
 656 000c 18B9     		cbnz	r0, .L49
 189:Drivers/lvgl/lvgl/src/extra/widgets/msgbox/lv_msgbox.c ****     else lv_obj_del(mbox);
 657              		.loc 1 189 0
 658 000e 2046     		mov	r0, r4
 659 0010 FFF7FEFF 		bl	lv_obj_del
 660              	.LVL86:
 661              	.L45:
 190:Drivers/lvgl/lvgl/src/extra/widgets/msgbox/lv_msgbox.c **** }
 662              		.loc 1 190 0
 663 0014 10BD     		pop	{r4, pc}
 664              	.LVL87:
ARM GAS  /tmp/ccSYOygB.s 			page 30


 665              	.L49:
 188:Drivers/lvgl/lvgl/src/extra/widgets/msgbox/lv_msgbox.c ****     if(lv_obj_has_flag(mbox, LV_MSGBOX_FLAG_AUTO_PARENT)) lv_obj_del(lv_obj_get_parent(mbox));
 666              		.loc 1 188 0 discriminator 1
 667 0016 2046     		mov	r0, r4
 668 0018 FFF7FEFF 		bl	lv_obj_get_parent
 669              	.LVL88:
 670 001c FFF7FEFF 		bl	lv_obj_del
 671              	.LVL89:
 672 0020 F8E7     		b	.L45
 673              		.cfi_endproc
 674              	.LFE210:
 676              		.section	.text.msgbox_close_click_event_cb,"ax",%progbits
 677              		.align	1
 678              		.syntax unified
 679              		.thumb
 680              		.thumb_func
 681              		.fpu fpv5-d16
 683              	msgbox_close_click_event_cb:
 684              	.LFB212:
 191:Drivers/lvgl/lvgl/src/extra/widgets/msgbox/lv_msgbox.c **** 
 192:Drivers/lvgl/lvgl/src/extra/widgets/msgbox/lv_msgbox.c **** void lv_msgbox_close_async(lv_obj_t * dialog)
 193:Drivers/lvgl/lvgl/src/extra/widgets/msgbox/lv_msgbox.c **** {
 194:Drivers/lvgl/lvgl/src/extra/widgets/msgbox/lv_msgbox.c ****     if(lv_obj_has_flag(dialog, LV_MSGBOX_FLAG_AUTO_PARENT)) lv_obj_del_async(lv_obj_get_parent(dial
 195:Drivers/lvgl/lvgl/src/extra/widgets/msgbox/lv_msgbox.c ****     else lv_obj_del_async(dialog);
 196:Drivers/lvgl/lvgl/src/extra/widgets/msgbox/lv_msgbox.c **** }
 197:Drivers/lvgl/lvgl/src/extra/widgets/msgbox/lv_msgbox.c **** 
 198:Drivers/lvgl/lvgl/src/extra/widgets/msgbox/lv_msgbox.c **** /**********************
 199:Drivers/lvgl/lvgl/src/extra/widgets/msgbox/lv_msgbox.c ****  *   STATIC FUNCTIONS
 200:Drivers/lvgl/lvgl/src/extra/widgets/msgbox/lv_msgbox.c ****  **********************/
 201:Drivers/lvgl/lvgl/src/extra/widgets/msgbox/lv_msgbox.c **** 
 202:Drivers/lvgl/lvgl/src/extra/widgets/msgbox/lv_msgbox.c **** static void msgbox_close_click_event_cb(lv_event_t * e)
 203:Drivers/lvgl/lvgl/src/extra/widgets/msgbox/lv_msgbox.c **** {
 685              		.loc 1 203 0
 686              		.cfi_startproc
 687              		@ args = 0, pretend = 0, frame = 0
 688              		@ frame_needed = 0, uses_anonymous_args = 0
 689              	.LVL90:
 690 0000 08B5     		push	{r3, lr}
 691              	.LCFI4:
 692              		.cfi_def_cfa_offset 8
 693              		.cfi_offset 3, -8
 694              		.cfi_offset 14, -4
 204:Drivers/lvgl/lvgl/src/extra/widgets/msgbox/lv_msgbox.c ****     lv_obj_t * btn = lv_event_get_target(e);
 695              		.loc 1 204 0
 696 0002 FFF7FEFF 		bl	lv_event_get_target
 697              	.LVL91:
 205:Drivers/lvgl/lvgl/src/extra/widgets/msgbox/lv_msgbox.c ****     lv_obj_t * mbox = lv_obj_get_parent(btn);
 698              		.loc 1 205 0
 699 0006 FFF7FEFF 		bl	lv_obj_get_parent
 700              	.LVL92:
 206:Drivers/lvgl/lvgl/src/extra/widgets/msgbox/lv_msgbox.c ****     lv_msgbox_close(mbox);
 701              		.loc 1 206 0
 702 000a FFF7FEFF 		bl	lv_msgbox_close
 703              	.LVL93:
 207:Drivers/lvgl/lvgl/src/extra/widgets/msgbox/lv_msgbox.c **** }
 704              		.loc 1 207 0
 705 000e 08BD     		pop	{r3, pc}
ARM GAS  /tmp/ccSYOygB.s 			page 31


 706              		.cfi_endproc
 707              	.LFE212:
 709              		.section	.text.lv_msgbox_close_async,"ax",%progbits
 710              		.align	1
 711              		.global	lv_msgbox_close_async
 712              		.syntax unified
 713              		.thumb
 714              		.thumb_func
 715              		.fpu fpv5-d16
 717              	lv_msgbox_close_async:
 718              	.LFB211:
 193:Drivers/lvgl/lvgl/src/extra/widgets/msgbox/lv_msgbox.c ****     if(lv_obj_has_flag(dialog, LV_MSGBOX_FLAG_AUTO_PARENT)) lv_obj_del_async(lv_obj_get_parent(dial
 719              		.loc 1 193 0
 720              		.cfi_startproc
 721              		@ args = 0, pretend = 0, frame = 0
 722              		@ frame_needed = 0, uses_anonymous_args = 0
 723              	.LVL94:
 724 0000 10B5     		push	{r4, lr}
 725              	.LCFI5:
 726              		.cfi_def_cfa_offset 8
 727              		.cfi_offset 4, -8
 728              		.cfi_offset 14, -4
 729 0002 0446     		mov	r4, r0
 194:Drivers/lvgl/lvgl/src/extra/widgets/msgbox/lv_msgbox.c ****     else lv_obj_del_async(dialog);
 730              		.loc 1 194 0
 731 0004 4FF00071 		mov	r1, #33554432
 732 0008 FFF7FEFF 		bl	lv_obj_has_flag
 733              	.LVL95:
 734 000c 18B9     		cbnz	r0, .L56
 195:Drivers/lvgl/lvgl/src/extra/widgets/msgbox/lv_msgbox.c **** }
 735              		.loc 1 195 0
 736 000e 2046     		mov	r0, r4
 737 0010 FFF7FEFF 		bl	lv_obj_del_async
 738              	.LVL96:
 739              	.L52:
 196:Drivers/lvgl/lvgl/src/extra/widgets/msgbox/lv_msgbox.c **** 
 740              		.loc 1 196 0
 741 0014 10BD     		pop	{r4, pc}
 742              	.LVL97:
 743              	.L56:
 194:Drivers/lvgl/lvgl/src/extra/widgets/msgbox/lv_msgbox.c ****     else lv_obj_del_async(dialog);
 744              		.loc 1 194 0 discriminator 1
 745 0016 2046     		mov	r0, r4
 746 0018 FFF7FEFF 		bl	lv_obj_get_parent
 747              	.LVL98:
 748 001c FFF7FEFF 		bl	lv_obj_del_async
 749              	.LVL99:
 750 0020 F8E7     		b	.L52
 751              		.cfi_endproc
 752              	.LFE211:
 754              		.global	lv_msgbox_backdrop_class
 755              		.global	lv_msgbox_content_class
 756              		.global	lv_msgbox_class
 757              		.section	.rodata.lv_msgbox_backdrop_class,"a",%progbits
 758              		.align	2
 759              		.set	.LANCHOR0,. + 0
 762              	lv_msgbox_backdrop_class:
ARM GAS  /tmp/ccSYOygB.s 			page 32


 763 0000 00000000 		.word	lv_obj_class
 764 0004 00000000 		.space	16
 764      00000000 
 764      00000000 
 764      00000000 
 765 0014 6420     		.short	8292
 766 0016 6420     		.short	8292
 767 0018 40       		.byte	64
 768 0019 02       		.byte	2
 769 001a 00       		.byte	0
 770 001b 00       		.space	1
 771              		.section	.rodata.lv_msgbox_class,"a",%progbits
 772              		.align	2
 773              		.set	.LANCHOR1,. + 0
 776              	lv_msgbox_class:
 777 0000 00000000 		.word	lv_obj_class
 778 0004 00000000 		.space	16
 778      00000000 
 778      00000000 
 778      00000000 
 779 0014 0401     		.short	260
 780 0016 D127     		.short	10193
 781 0018 80       		.byte	128
 782 0019 03       		.byte	3
 783 001a 00       		.byte	0
 784 001b 00       		.space	1
 785              		.section	.rodata.lv_msgbox_content_class,"a",%progbits
 786              		.align	2
 787              		.set	.LANCHOR2,. + 0
 790              	lv_msgbox_content_class:
 791 0000 00000000 		.word	lv_obj_class
 792 0004 00000000 		.space	16
 792      00000000 
 792      00000000 
 792      00000000 
 793 0014 6420     		.short	8292
 794 0016 D127     		.short	10193
 795 0018 40       		.byte	64
 796 0019 02       		.byte	2
 797 001a 00       		.byte	0
 798 001b 00       		.space	1
 799              		.section	.rodata.lv_msgbox_create.str1.4,"aMS",%progbits,1
 800              		.align	2
 801              	.LC0:
 802 0000 00       		.ascii	"\000"
 803 0001 000000   		.space	3
 804              	.LC1:
 805 0004 EF808D00 		.ascii	"\357\200\215\000"
 806              		.text
 807              	.Letext0:
 808              		.file 5 "/opt/gcc-arm-none-eabi-7-2017-q4-major/arm-none-eabi/include/machine/_default_types.h"
 809              		.file 6 "/opt/gcc-arm-none-eabi-7-2017-q4-major/arm-none-eabi/include/sys/_stdint.h"
 810              		.file 7 "/opt/gcc-arm-none-eabi-7-2017-q4-major/arm-none-eabi/include/sys/lock.h"
 811              		.file 8 "/opt/gcc-arm-none-eabi-7-2017-q4-major/arm-none-eabi/include/sys/_types.h"
 812              		.file 9 "/opt/gcc-arm-none-eabi-7-2017-q4-major/lib/gcc/arm-none-eabi/7.2.1/include/stddef.h"
 813              		.file 10 "/opt/gcc-arm-none-eabi-7-2017-q4-major/arm-none-eabi/include/sys/reent.h"
 814              		.file 11 "Drivers/lvgl/lvgl/src/extra/widgets/msgbox/../../../../src/hal/../draw/../misc/../font/.
ARM GAS  /tmp/ccSYOygB.s 			page 33


 815              		.file 12 "Drivers/lvgl/lvgl/src/extra/widgets/msgbox/../../../../src/hal/../draw/../misc/lv_color.
 816              		.file 13 "Drivers/lvgl/lvgl/src/extra/widgets/msgbox/../../../../src/hal/../draw/../misc/lv_txt.h"
 817              		.file 14 "Drivers/lvgl/lvgl/src/extra/widgets/msgbox/../../../../src/hal/../draw/../misc/lv_style.
 818              		.file 15 "Drivers/lvgl/lvgl/src/extra/widgets/msgbox/../../../../src/core/lv_obj.h"
 819              		.file 16 "Drivers/lvgl/lvgl/src/extra/widgets/msgbox/../../../../src/hal/../misc/lv_ll.h"
 820              		.file 17 "Drivers/lvgl/lvgl/src/extra/widgets/msgbox/../../../../src/core/lv_group.h"
 821              		.file 18 "Drivers/lvgl/lvgl/src/extra/widgets/msgbox/../../../../src/core/lv_obj_scroll.h"
 822              		.file 19 "Drivers/lvgl/lvgl/src/extra/widgets/msgbox/../../../../src/core/lv_obj_style.h"
 823              		.file 20 "Drivers/lvgl/lvgl/src/extra/widgets/msgbox/../../../../src/core/lv_obj_class.h"
 824              		.file 21 "Drivers/lvgl/lvgl/src/extra/widgets/msgbox/../../../../src/core/lv_event.h"
 825              		.file 22 "Drivers/lvgl/lvgl/src/extra/widgets/msgbox/../../../../src/widgets/lv_arc.h"
 826              		.file 23 "Drivers/lvgl/lvgl/src/extra/widgets/msgbox/../../../../src/widgets/lv_btn.h"
 827              		.file 24 "Drivers/lvgl/lvgl/src/extra/widgets/msgbox/../../../../src/widgets/lv_img.h"
 828              		.file 25 "Drivers/lvgl/lvgl/src/extra/widgets/msgbox/../../../../src/widgets/lv_label.h"
 829              		.file 26 "Drivers/lvgl/lvgl/src/extra/widgets/msgbox/../../../../src/widgets/lv_line.h"
 830              		.file 27 "Drivers/lvgl/lvgl/src/extra/widgets/msgbox/../../../../src/widgets/lv_table.h"
 831              		.file 28 "Drivers/lvgl/lvgl/src/extra/widgets/msgbox/../../../../src/widgets/lv_checkbox.h"
 832              		.file 29 "Drivers/lvgl/lvgl/src/extra/widgets/msgbox/../../../../src/widgets/lv_bar.h"
 833              		.file 30 "Drivers/lvgl/lvgl/src/extra/widgets/msgbox/../../../../src/widgets/lv_slider.h"
 834              		.file 31 "Drivers/lvgl/lvgl/src/extra/widgets/msgbox/../../../../src/widgets/lv_btnmatrix.h"
 835              		.file 32 "Drivers/lvgl/lvgl/src/extra/widgets/msgbox/../../../../src/widgets/lv_dropdown.h"
 836              		.file 33 "Drivers/lvgl/lvgl/src/extra/widgets/msgbox/../../../../src/widgets/lv_roller.h"
 837              		.file 34 "Drivers/lvgl/lvgl/src/extra/widgets/msgbox/../../../../src/widgets/lv_textarea.h"
 838              		.file 35 "Drivers/lvgl/lvgl/src/extra/widgets/msgbox/../../../../src/widgets/lv_canvas.h"
 839              		.file 36 "Drivers/lvgl/lvgl/src/extra/widgets/msgbox/../../../../src/widgets/lv_switch.h"
 840              		.file 37 "Drivers/lvgl/lvgl/src/extra/widgets/msgbox/../../../../src/extra/layouts/flex/lv_flex.h"
 841              		.file 38 "Drivers/lvgl/lvgl/src/extra/widgets/msgbox/../../../../src/extra/layouts/grid/lv_grid.h"
 842              		.file 39 "Drivers/lvgl/lvgl/src/extra/widgets/msgbox/../../../../src/extra/widgets/animimg/lv_anim
 843              		.file 40 "Drivers/lvgl/lvgl/src/extra/widgets/msgbox/../../../../src/extra/widgets/calendar/lv_cal
 844              		.file 41 "Drivers/lvgl/lvgl/src/extra/widgets/msgbox/../../../../src/extra/widgets/calendar/lv_cal
 845              		.file 42 "Drivers/lvgl/lvgl/src/extra/widgets/msgbox/../../../../src/extra/widgets/calendar/lv_cal
 846              		.file 43 "Drivers/lvgl/lvgl/src/extra/widgets/msgbox/../../../../src/extra/widgets/chart/lv_chart.
 847              		.file 44 "Drivers/lvgl/lvgl/src/extra/widgets/msgbox/../../../../src/extra/widgets/keyboard/lv_key
 848              		.file 45 "Drivers/lvgl/lvgl/src/extra/widgets/msgbox/../../../../src/extra/widgets/list/lv_list.h"
 849              		.file 46 "Drivers/lvgl/lvgl/src/extra/widgets/msgbox/../../../../src/extra/widgets/menu/lv_menu.h"
 850              		.file 47 "Drivers/lvgl/lvgl/src/extra/widgets/msgbox/../../../../src/extra/widgets/meter/lv_meter.
 851              		.file 48 "Drivers/lvgl/lvgl/src/extra/widgets/msgbox/../../../../src/extra/widgets/spinbox/lv_spin
 852              		.file 49 "Drivers/lvgl/lvgl/src/extra/widgets/msgbox/../../../../src/extra/widgets/spinner/lv_spin
 853              		.file 50 "Drivers/lvgl/lvgl/src/extra/widgets/msgbox/../../../../src/extra/widgets/tabview/lv_tabv
 854              		.file 51 "Drivers/lvgl/lvgl/src/extra/widgets/msgbox/../../../../src/extra/widgets/tileview/lv_til
 855              		.file 52 "Drivers/lvgl/lvgl/src/extra/widgets/msgbox/../../../../src/extra/widgets/win/lv_win.h"
 856              		.file 53 "Drivers/lvgl/lvgl/src/extra/widgets/msgbox/../../../../src/extra/widgets/colorwheel/lv_c
 857              		.file 54 "Drivers/lvgl/lvgl/src/extra/widgets/msgbox/../../../../src/extra/widgets/led/lv_led.h"
 858              		.file 55 "Drivers/lvgl/lvgl/src/extra/widgets/msgbox/../../../../src/extra/widgets/imgbtn/lv_imgbt
 859              		.file 56 "Drivers/lvgl/lvgl/src/extra/widgets/msgbox/../../../../src/extra/widgets/span/lv_span.h"
 860              		.file 57 "Drivers/lvgl/lvgl/src/extra/widgets/msgbox/lv_msgbox.h"
 861              		.file 58 "Drivers/lvgl/lvgl/src/extra/widgets/msgbox/../../../../src/core/lv_obj_tree.h"
 862              		.file 59 "Drivers/lvgl/lvgl/src/extra/widgets/msgbox/../../../../src/hal/lv_hal_disp.h"
 863              		.file 60 "Drivers/lvgl/lvgl/src/extra/widgets/msgbox/../../../../src/hal/../draw/sw/../../core/lv_
ARM GAS  /tmp/ccSYOygB.s 			page 34

