ARM GAS  /tmp/ccVvrzYL.s 			page 1


   1              		.cpu cortex-m7
   2              		.eabi_attribute 28, 1
   3              		.eabi_attribute 20, 1
   4              		.eabi_attribute 21, 1
   5              		.eabi_attribute 23, 3
   6              		.eabi_attribute 24, 1
   7              		.eabi_attribute 25, 1
   8              		.eabi_attribute 26, 1
   9              		.eabi_attribute 30, 1
  10              		.eabi_attribute 34, 1
  11              		.eabi_attribute 18, 4
  12              		.file	"lv_meter.c"
  13              		.text
  14              	.Ltext0:
  15              		.cfi_sections	.debug_frame
  16              		.section	.text.draw_arcs,"ax",%progbits
  17              		.align	1
  18              		.syntax unified
  19              		.thumb
  20              		.thumb_func
  21              		.fpu fpv5-d16
  23              	draw_arcs:
  24              	.LFB217:
  25              		.file 1 "Drivers/lvgl/lvgl/src/extra/widgets/meter/lv_meter.c"
   1:Drivers/lvgl/lvgl/src/extra/widgets/meter/lv_meter.c **** /**
   2:Drivers/lvgl/lvgl/src/extra/widgets/meter/lv_meter.c ****  * @file lv_meter.c
   3:Drivers/lvgl/lvgl/src/extra/widgets/meter/lv_meter.c ****  *
   4:Drivers/lvgl/lvgl/src/extra/widgets/meter/lv_meter.c ****  */
   5:Drivers/lvgl/lvgl/src/extra/widgets/meter/lv_meter.c **** 
   6:Drivers/lvgl/lvgl/src/extra/widgets/meter/lv_meter.c **** /*********************
   7:Drivers/lvgl/lvgl/src/extra/widgets/meter/lv_meter.c ****  *      INCLUDES
   8:Drivers/lvgl/lvgl/src/extra/widgets/meter/lv_meter.c ****  *********************/
   9:Drivers/lvgl/lvgl/src/extra/widgets/meter/lv_meter.c **** #include "lv_meter.h"
  10:Drivers/lvgl/lvgl/src/extra/widgets/meter/lv_meter.c **** #if LV_USE_METER != 0
  11:Drivers/lvgl/lvgl/src/extra/widgets/meter/lv_meter.c **** 
  12:Drivers/lvgl/lvgl/src/extra/widgets/meter/lv_meter.c **** #include "../../../misc/lv_assert.h"
  13:Drivers/lvgl/lvgl/src/extra/widgets/meter/lv_meter.c **** 
  14:Drivers/lvgl/lvgl/src/extra/widgets/meter/lv_meter.c **** /*********************
  15:Drivers/lvgl/lvgl/src/extra/widgets/meter/lv_meter.c ****  *      DEFINES
  16:Drivers/lvgl/lvgl/src/extra/widgets/meter/lv_meter.c ****  *********************/
  17:Drivers/lvgl/lvgl/src/extra/widgets/meter/lv_meter.c **** #define MY_CLASS &lv_meter_class
  18:Drivers/lvgl/lvgl/src/extra/widgets/meter/lv_meter.c **** 
  19:Drivers/lvgl/lvgl/src/extra/widgets/meter/lv_meter.c **** /**********************
  20:Drivers/lvgl/lvgl/src/extra/widgets/meter/lv_meter.c ****  *      TYPEDEFS
  21:Drivers/lvgl/lvgl/src/extra/widgets/meter/lv_meter.c ****  **********************/
  22:Drivers/lvgl/lvgl/src/extra/widgets/meter/lv_meter.c **** 
  23:Drivers/lvgl/lvgl/src/extra/widgets/meter/lv_meter.c **** /**********************
  24:Drivers/lvgl/lvgl/src/extra/widgets/meter/lv_meter.c ****  *  STATIC PROTOTYPES
  25:Drivers/lvgl/lvgl/src/extra/widgets/meter/lv_meter.c ****  **********************/
  26:Drivers/lvgl/lvgl/src/extra/widgets/meter/lv_meter.c **** static void lv_meter_constructor(const lv_obj_class_t * class_p, lv_obj_t * obj);
  27:Drivers/lvgl/lvgl/src/extra/widgets/meter/lv_meter.c **** static void lv_meter_destructor(const lv_obj_class_t * class_p, lv_obj_t * obj);
  28:Drivers/lvgl/lvgl/src/extra/widgets/meter/lv_meter.c **** static void lv_meter_event(const lv_obj_class_t * class_p, lv_event_t * e);
  29:Drivers/lvgl/lvgl/src/extra/widgets/meter/lv_meter.c **** static void draw_arcs(lv_obj_t * obj, lv_draw_ctx_t * draw_ctx, const lv_area_t * scale_area);
  30:Drivers/lvgl/lvgl/src/extra/widgets/meter/lv_meter.c **** static void draw_ticks_and_labels(lv_obj_t * obj, lv_draw_ctx_t * draw_ctx, const lv_area_t * scale
  31:Drivers/lvgl/lvgl/src/extra/widgets/meter/lv_meter.c **** static void draw_needles(lv_obj_t * obj, lv_draw_ctx_t * draw_ctx, const lv_area_t * scale_area);
  32:Drivers/lvgl/lvgl/src/extra/widgets/meter/lv_meter.c **** static void inv_arc(lv_obj_t * obj, lv_meter_indicator_t * indic, int32_t old_value, int32_t new_va
  33:Drivers/lvgl/lvgl/src/extra/widgets/meter/lv_meter.c **** static void inv_line(lv_obj_t * obj, lv_meter_indicator_t * indic, int32_t value);
ARM GAS  /tmp/ccVvrzYL.s 			page 2


  34:Drivers/lvgl/lvgl/src/extra/widgets/meter/lv_meter.c **** 
  35:Drivers/lvgl/lvgl/src/extra/widgets/meter/lv_meter.c **** /**********************
  36:Drivers/lvgl/lvgl/src/extra/widgets/meter/lv_meter.c ****  *  STATIC VARIABLES
  37:Drivers/lvgl/lvgl/src/extra/widgets/meter/lv_meter.c ****  **********************/
  38:Drivers/lvgl/lvgl/src/extra/widgets/meter/lv_meter.c **** const lv_obj_class_t lv_meter_class = {
  39:Drivers/lvgl/lvgl/src/extra/widgets/meter/lv_meter.c ****     .constructor_cb = lv_meter_constructor,
  40:Drivers/lvgl/lvgl/src/extra/widgets/meter/lv_meter.c ****     .destructor_cb = lv_meter_destructor,
  41:Drivers/lvgl/lvgl/src/extra/widgets/meter/lv_meter.c ****     .event_cb = lv_meter_event,
  42:Drivers/lvgl/lvgl/src/extra/widgets/meter/lv_meter.c ****     .instance_size = sizeof(lv_meter_t),
  43:Drivers/lvgl/lvgl/src/extra/widgets/meter/lv_meter.c ****     .base_class = &lv_obj_class
  44:Drivers/lvgl/lvgl/src/extra/widgets/meter/lv_meter.c **** };
  45:Drivers/lvgl/lvgl/src/extra/widgets/meter/lv_meter.c **** 
  46:Drivers/lvgl/lvgl/src/extra/widgets/meter/lv_meter.c **** /**********************
  47:Drivers/lvgl/lvgl/src/extra/widgets/meter/lv_meter.c ****  *      MACROS
  48:Drivers/lvgl/lvgl/src/extra/widgets/meter/lv_meter.c ****  **********************/
  49:Drivers/lvgl/lvgl/src/extra/widgets/meter/lv_meter.c **** 
  50:Drivers/lvgl/lvgl/src/extra/widgets/meter/lv_meter.c **** /**********************
  51:Drivers/lvgl/lvgl/src/extra/widgets/meter/lv_meter.c ****  *   GLOBAL FUNCTIONS
  52:Drivers/lvgl/lvgl/src/extra/widgets/meter/lv_meter.c ****  **********************/
  53:Drivers/lvgl/lvgl/src/extra/widgets/meter/lv_meter.c **** 
  54:Drivers/lvgl/lvgl/src/extra/widgets/meter/lv_meter.c **** lv_obj_t * lv_meter_create(lv_obj_t * parent)
  55:Drivers/lvgl/lvgl/src/extra/widgets/meter/lv_meter.c **** {
  56:Drivers/lvgl/lvgl/src/extra/widgets/meter/lv_meter.c ****     LV_LOG_INFO("begin");
  57:Drivers/lvgl/lvgl/src/extra/widgets/meter/lv_meter.c ****     lv_obj_t * obj = lv_obj_class_create_obj(MY_CLASS, parent);
  58:Drivers/lvgl/lvgl/src/extra/widgets/meter/lv_meter.c ****     lv_obj_class_init_obj(obj);
  59:Drivers/lvgl/lvgl/src/extra/widgets/meter/lv_meter.c ****     return obj;
  60:Drivers/lvgl/lvgl/src/extra/widgets/meter/lv_meter.c **** }
  61:Drivers/lvgl/lvgl/src/extra/widgets/meter/lv_meter.c **** 
  62:Drivers/lvgl/lvgl/src/extra/widgets/meter/lv_meter.c **** /*=====================
  63:Drivers/lvgl/lvgl/src/extra/widgets/meter/lv_meter.c ****  * Add scale
  64:Drivers/lvgl/lvgl/src/extra/widgets/meter/lv_meter.c ****  *====================*/
  65:Drivers/lvgl/lvgl/src/extra/widgets/meter/lv_meter.c **** 
  66:Drivers/lvgl/lvgl/src/extra/widgets/meter/lv_meter.c **** lv_meter_scale_t * lv_meter_add_scale(lv_obj_t * obj)
  67:Drivers/lvgl/lvgl/src/extra/widgets/meter/lv_meter.c **** {
  68:Drivers/lvgl/lvgl/src/extra/widgets/meter/lv_meter.c ****     LV_ASSERT_OBJ(obj, MY_CLASS);
  69:Drivers/lvgl/lvgl/src/extra/widgets/meter/lv_meter.c ****     lv_meter_t * meter = (lv_meter_t *)obj;
  70:Drivers/lvgl/lvgl/src/extra/widgets/meter/lv_meter.c **** 
  71:Drivers/lvgl/lvgl/src/extra/widgets/meter/lv_meter.c ****     lv_meter_scale_t * scale = _lv_ll_ins_head(&meter->scale_ll);
  72:Drivers/lvgl/lvgl/src/extra/widgets/meter/lv_meter.c ****     LV_ASSERT_MALLOC(scale);
  73:Drivers/lvgl/lvgl/src/extra/widgets/meter/lv_meter.c ****     lv_memset_00(scale, sizeof(lv_meter_scale_t));
  74:Drivers/lvgl/lvgl/src/extra/widgets/meter/lv_meter.c **** 
  75:Drivers/lvgl/lvgl/src/extra/widgets/meter/lv_meter.c ****     scale->angle_range = 270;
  76:Drivers/lvgl/lvgl/src/extra/widgets/meter/lv_meter.c ****     scale->rotation = 90 + (360 - scale->angle_range) / 2;
  77:Drivers/lvgl/lvgl/src/extra/widgets/meter/lv_meter.c ****     scale->min = 0;
  78:Drivers/lvgl/lvgl/src/extra/widgets/meter/lv_meter.c ****     scale->max = 100;
  79:Drivers/lvgl/lvgl/src/extra/widgets/meter/lv_meter.c ****     scale->tick_cnt = 6;
  80:Drivers/lvgl/lvgl/src/extra/widgets/meter/lv_meter.c ****     scale->tick_length = 8;
  81:Drivers/lvgl/lvgl/src/extra/widgets/meter/lv_meter.c ****     scale->tick_width = 2;
  82:Drivers/lvgl/lvgl/src/extra/widgets/meter/lv_meter.c ****     scale->label_gap = 2;
  83:Drivers/lvgl/lvgl/src/extra/widgets/meter/lv_meter.c **** 
  84:Drivers/lvgl/lvgl/src/extra/widgets/meter/lv_meter.c ****     return scale;
  85:Drivers/lvgl/lvgl/src/extra/widgets/meter/lv_meter.c **** }
  86:Drivers/lvgl/lvgl/src/extra/widgets/meter/lv_meter.c **** 
  87:Drivers/lvgl/lvgl/src/extra/widgets/meter/lv_meter.c **** void lv_meter_set_scale_ticks(lv_obj_t * obj, lv_meter_scale_t * scale, uint16_t cnt, uint16_t widt
  88:Drivers/lvgl/lvgl/src/extra/widgets/meter/lv_meter.c ****                               lv_color_t color)
  89:Drivers/lvgl/lvgl/src/extra/widgets/meter/lv_meter.c **** {
  90:Drivers/lvgl/lvgl/src/extra/widgets/meter/lv_meter.c ****     scale->tick_cnt = cnt;
ARM GAS  /tmp/ccVvrzYL.s 			page 3


  91:Drivers/lvgl/lvgl/src/extra/widgets/meter/lv_meter.c ****     scale->tick_width = width;
  92:Drivers/lvgl/lvgl/src/extra/widgets/meter/lv_meter.c ****     scale->tick_length = len;
  93:Drivers/lvgl/lvgl/src/extra/widgets/meter/lv_meter.c ****     scale->tick_color = color;
  94:Drivers/lvgl/lvgl/src/extra/widgets/meter/lv_meter.c ****     lv_obj_invalidate(obj);
  95:Drivers/lvgl/lvgl/src/extra/widgets/meter/lv_meter.c **** }
  96:Drivers/lvgl/lvgl/src/extra/widgets/meter/lv_meter.c **** 
  97:Drivers/lvgl/lvgl/src/extra/widgets/meter/lv_meter.c **** void lv_meter_set_scale_major_ticks(lv_obj_t * obj, lv_meter_scale_t * scale, uint16_t nth, uint16_
  98:Drivers/lvgl/lvgl/src/extra/widgets/meter/lv_meter.c ****                                     uint16_t len, lv_color_t color, int16_t label_gap)
  99:Drivers/lvgl/lvgl/src/extra/widgets/meter/lv_meter.c **** {
 100:Drivers/lvgl/lvgl/src/extra/widgets/meter/lv_meter.c ****     scale->tick_major_nth = nth;
 101:Drivers/lvgl/lvgl/src/extra/widgets/meter/lv_meter.c ****     scale->tick_major_width = width;
 102:Drivers/lvgl/lvgl/src/extra/widgets/meter/lv_meter.c ****     scale->tick_major_length = len;
 103:Drivers/lvgl/lvgl/src/extra/widgets/meter/lv_meter.c ****     scale->tick_major_color = color;
 104:Drivers/lvgl/lvgl/src/extra/widgets/meter/lv_meter.c ****     scale->label_gap = label_gap;
 105:Drivers/lvgl/lvgl/src/extra/widgets/meter/lv_meter.c ****     lv_obj_invalidate(obj);
 106:Drivers/lvgl/lvgl/src/extra/widgets/meter/lv_meter.c **** }
 107:Drivers/lvgl/lvgl/src/extra/widgets/meter/lv_meter.c **** 
 108:Drivers/lvgl/lvgl/src/extra/widgets/meter/lv_meter.c **** void lv_meter_set_scale_range(lv_obj_t * obj, lv_meter_scale_t * scale, int32_t min, int32_t max, u
 109:Drivers/lvgl/lvgl/src/extra/widgets/meter/lv_meter.c ****                               uint32_t rotation)
 110:Drivers/lvgl/lvgl/src/extra/widgets/meter/lv_meter.c **** {
 111:Drivers/lvgl/lvgl/src/extra/widgets/meter/lv_meter.c ****     scale->min = min;
 112:Drivers/lvgl/lvgl/src/extra/widgets/meter/lv_meter.c ****     scale->max = max;
 113:Drivers/lvgl/lvgl/src/extra/widgets/meter/lv_meter.c ****     scale->angle_range = angle_range;
 114:Drivers/lvgl/lvgl/src/extra/widgets/meter/lv_meter.c ****     scale->rotation = rotation;
 115:Drivers/lvgl/lvgl/src/extra/widgets/meter/lv_meter.c ****     lv_obj_invalidate(obj);
 116:Drivers/lvgl/lvgl/src/extra/widgets/meter/lv_meter.c **** }
 117:Drivers/lvgl/lvgl/src/extra/widgets/meter/lv_meter.c **** 
 118:Drivers/lvgl/lvgl/src/extra/widgets/meter/lv_meter.c **** /*=====================
 119:Drivers/lvgl/lvgl/src/extra/widgets/meter/lv_meter.c ****  * Add indicator
 120:Drivers/lvgl/lvgl/src/extra/widgets/meter/lv_meter.c ****  *====================*/
 121:Drivers/lvgl/lvgl/src/extra/widgets/meter/lv_meter.c **** 
 122:Drivers/lvgl/lvgl/src/extra/widgets/meter/lv_meter.c **** lv_meter_indicator_t * lv_meter_add_needle_line(lv_obj_t * obj, lv_meter_scale_t * scale, uint16_t 
 123:Drivers/lvgl/lvgl/src/extra/widgets/meter/lv_meter.c ****                                                 lv_color_t color, int16_t r_mod)
 124:Drivers/lvgl/lvgl/src/extra/widgets/meter/lv_meter.c **** {
 125:Drivers/lvgl/lvgl/src/extra/widgets/meter/lv_meter.c ****     LV_ASSERT_OBJ(obj, MY_CLASS);
 126:Drivers/lvgl/lvgl/src/extra/widgets/meter/lv_meter.c ****     lv_meter_t * meter = (lv_meter_t *)obj;
 127:Drivers/lvgl/lvgl/src/extra/widgets/meter/lv_meter.c ****     lv_meter_indicator_t * indic = _lv_ll_ins_head(&meter->indicator_ll);
 128:Drivers/lvgl/lvgl/src/extra/widgets/meter/lv_meter.c ****     LV_ASSERT_MALLOC(indic);
 129:Drivers/lvgl/lvgl/src/extra/widgets/meter/lv_meter.c ****     lv_memset_00(indic, sizeof(lv_meter_indicator_t));
 130:Drivers/lvgl/lvgl/src/extra/widgets/meter/lv_meter.c ****     indic->scale = scale;
 131:Drivers/lvgl/lvgl/src/extra/widgets/meter/lv_meter.c ****     indic->opa = LV_OPA_COVER;
 132:Drivers/lvgl/lvgl/src/extra/widgets/meter/lv_meter.c **** 
 133:Drivers/lvgl/lvgl/src/extra/widgets/meter/lv_meter.c ****     indic->type = LV_METER_INDICATOR_TYPE_NEEDLE_LINE;
 134:Drivers/lvgl/lvgl/src/extra/widgets/meter/lv_meter.c ****     indic->type_data.needle_line.width = width;
 135:Drivers/lvgl/lvgl/src/extra/widgets/meter/lv_meter.c ****     indic->type_data.needle_line.color = color;
 136:Drivers/lvgl/lvgl/src/extra/widgets/meter/lv_meter.c ****     indic->type_data.needle_line.r_mod = r_mod;
 137:Drivers/lvgl/lvgl/src/extra/widgets/meter/lv_meter.c ****     lv_obj_invalidate(obj);
 138:Drivers/lvgl/lvgl/src/extra/widgets/meter/lv_meter.c **** 
 139:Drivers/lvgl/lvgl/src/extra/widgets/meter/lv_meter.c ****     return indic;
 140:Drivers/lvgl/lvgl/src/extra/widgets/meter/lv_meter.c **** }
 141:Drivers/lvgl/lvgl/src/extra/widgets/meter/lv_meter.c **** 
 142:Drivers/lvgl/lvgl/src/extra/widgets/meter/lv_meter.c **** lv_meter_indicator_t * lv_meter_add_needle_img(lv_obj_t * obj, lv_meter_scale_t * scale, const void
 143:Drivers/lvgl/lvgl/src/extra/widgets/meter/lv_meter.c ****                                                lv_coord_t pivot_x, lv_coord_t pivot_y)
 144:Drivers/lvgl/lvgl/src/extra/widgets/meter/lv_meter.c **** {
 145:Drivers/lvgl/lvgl/src/extra/widgets/meter/lv_meter.c ****     LV_ASSERT_OBJ(obj, MY_CLASS);
 146:Drivers/lvgl/lvgl/src/extra/widgets/meter/lv_meter.c ****     lv_meter_t * meter = (lv_meter_t *)obj;
 147:Drivers/lvgl/lvgl/src/extra/widgets/meter/lv_meter.c ****     lv_meter_indicator_t * indic = _lv_ll_ins_head(&meter->indicator_ll);
ARM GAS  /tmp/ccVvrzYL.s 			page 4


 148:Drivers/lvgl/lvgl/src/extra/widgets/meter/lv_meter.c ****     LV_ASSERT_MALLOC(indic);
 149:Drivers/lvgl/lvgl/src/extra/widgets/meter/lv_meter.c ****     lv_memset_00(indic, sizeof(lv_meter_indicator_t));
 150:Drivers/lvgl/lvgl/src/extra/widgets/meter/lv_meter.c ****     indic->scale = scale;
 151:Drivers/lvgl/lvgl/src/extra/widgets/meter/lv_meter.c ****     indic->opa = LV_OPA_COVER;
 152:Drivers/lvgl/lvgl/src/extra/widgets/meter/lv_meter.c **** 
 153:Drivers/lvgl/lvgl/src/extra/widgets/meter/lv_meter.c ****     indic->type = LV_METER_INDICATOR_TYPE_NEEDLE_IMG;
 154:Drivers/lvgl/lvgl/src/extra/widgets/meter/lv_meter.c ****     indic->type_data.needle_img.src = src;
 155:Drivers/lvgl/lvgl/src/extra/widgets/meter/lv_meter.c ****     indic->type_data.needle_img.pivot.x = pivot_x;
 156:Drivers/lvgl/lvgl/src/extra/widgets/meter/lv_meter.c ****     indic->type_data.needle_img.pivot.y = pivot_y;
 157:Drivers/lvgl/lvgl/src/extra/widgets/meter/lv_meter.c ****     lv_obj_invalidate(obj);
 158:Drivers/lvgl/lvgl/src/extra/widgets/meter/lv_meter.c **** 
 159:Drivers/lvgl/lvgl/src/extra/widgets/meter/lv_meter.c ****     return indic;
 160:Drivers/lvgl/lvgl/src/extra/widgets/meter/lv_meter.c **** }
 161:Drivers/lvgl/lvgl/src/extra/widgets/meter/lv_meter.c **** 
 162:Drivers/lvgl/lvgl/src/extra/widgets/meter/lv_meter.c **** lv_meter_indicator_t * lv_meter_add_arc(lv_obj_t * obj, lv_meter_scale_t * scale, uint16_t width, l
 163:Drivers/lvgl/lvgl/src/extra/widgets/meter/lv_meter.c ****                                         int16_t r_mod)
 164:Drivers/lvgl/lvgl/src/extra/widgets/meter/lv_meter.c **** {
 165:Drivers/lvgl/lvgl/src/extra/widgets/meter/lv_meter.c ****     LV_ASSERT_OBJ(obj, MY_CLASS);
 166:Drivers/lvgl/lvgl/src/extra/widgets/meter/lv_meter.c ****     lv_meter_t * meter = (lv_meter_t *)obj;
 167:Drivers/lvgl/lvgl/src/extra/widgets/meter/lv_meter.c ****     lv_meter_indicator_t * indic = _lv_ll_ins_head(&meter->indicator_ll);
 168:Drivers/lvgl/lvgl/src/extra/widgets/meter/lv_meter.c ****     LV_ASSERT_MALLOC(indic);
 169:Drivers/lvgl/lvgl/src/extra/widgets/meter/lv_meter.c ****     lv_memset_00(indic, sizeof(lv_meter_indicator_t));
 170:Drivers/lvgl/lvgl/src/extra/widgets/meter/lv_meter.c ****     indic->scale = scale;
 171:Drivers/lvgl/lvgl/src/extra/widgets/meter/lv_meter.c ****     indic->opa = LV_OPA_COVER;
 172:Drivers/lvgl/lvgl/src/extra/widgets/meter/lv_meter.c **** 
 173:Drivers/lvgl/lvgl/src/extra/widgets/meter/lv_meter.c ****     indic->type = LV_METER_INDICATOR_TYPE_ARC;
 174:Drivers/lvgl/lvgl/src/extra/widgets/meter/lv_meter.c ****     indic->type_data.arc.width = width;
 175:Drivers/lvgl/lvgl/src/extra/widgets/meter/lv_meter.c ****     indic->type_data.arc.color = color;
 176:Drivers/lvgl/lvgl/src/extra/widgets/meter/lv_meter.c ****     indic->type_data.arc.r_mod = r_mod;
 177:Drivers/lvgl/lvgl/src/extra/widgets/meter/lv_meter.c **** 
 178:Drivers/lvgl/lvgl/src/extra/widgets/meter/lv_meter.c ****     lv_obj_invalidate(obj);
 179:Drivers/lvgl/lvgl/src/extra/widgets/meter/lv_meter.c ****     return indic;
 180:Drivers/lvgl/lvgl/src/extra/widgets/meter/lv_meter.c **** }
 181:Drivers/lvgl/lvgl/src/extra/widgets/meter/lv_meter.c **** 
 182:Drivers/lvgl/lvgl/src/extra/widgets/meter/lv_meter.c **** lv_meter_indicator_t * lv_meter_add_scale_lines(lv_obj_t * obj, lv_meter_scale_t * scale, lv_color_
 183:Drivers/lvgl/lvgl/src/extra/widgets/meter/lv_meter.c ****                                                 lv_color_t color_end, bool local, int16_t width_mod
 184:Drivers/lvgl/lvgl/src/extra/widgets/meter/lv_meter.c **** {
 185:Drivers/lvgl/lvgl/src/extra/widgets/meter/lv_meter.c ****     LV_ASSERT_OBJ(obj, MY_CLASS);
 186:Drivers/lvgl/lvgl/src/extra/widgets/meter/lv_meter.c ****     lv_meter_t * meter = (lv_meter_t *)obj;
 187:Drivers/lvgl/lvgl/src/extra/widgets/meter/lv_meter.c ****     lv_meter_indicator_t * indic = _lv_ll_ins_head(&meter->indicator_ll);
 188:Drivers/lvgl/lvgl/src/extra/widgets/meter/lv_meter.c ****     LV_ASSERT_MALLOC(indic);
 189:Drivers/lvgl/lvgl/src/extra/widgets/meter/lv_meter.c ****     lv_memset_00(indic, sizeof(lv_meter_indicator_t));
 190:Drivers/lvgl/lvgl/src/extra/widgets/meter/lv_meter.c ****     indic->scale = scale;
 191:Drivers/lvgl/lvgl/src/extra/widgets/meter/lv_meter.c ****     indic->opa = LV_OPA_COVER;
 192:Drivers/lvgl/lvgl/src/extra/widgets/meter/lv_meter.c **** 
 193:Drivers/lvgl/lvgl/src/extra/widgets/meter/lv_meter.c ****     indic->type = LV_METER_INDICATOR_TYPE_SCALE_LINES;
 194:Drivers/lvgl/lvgl/src/extra/widgets/meter/lv_meter.c ****     indic->type_data.scale_lines.color_start = color_start;
 195:Drivers/lvgl/lvgl/src/extra/widgets/meter/lv_meter.c ****     indic->type_data.scale_lines.color_end = color_end;
 196:Drivers/lvgl/lvgl/src/extra/widgets/meter/lv_meter.c ****     indic->type_data.scale_lines.local_grad = local;
 197:Drivers/lvgl/lvgl/src/extra/widgets/meter/lv_meter.c ****     indic->type_data.scale_lines.width_mod = width_mod;
 198:Drivers/lvgl/lvgl/src/extra/widgets/meter/lv_meter.c **** 
 199:Drivers/lvgl/lvgl/src/extra/widgets/meter/lv_meter.c ****     lv_obj_invalidate(obj);
 200:Drivers/lvgl/lvgl/src/extra/widgets/meter/lv_meter.c ****     return indic;
 201:Drivers/lvgl/lvgl/src/extra/widgets/meter/lv_meter.c **** }
 202:Drivers/lvgl/lvgl/src/extra/widgets/meter/lv_meter.c **** 
 203:Drivers/lvgl/lvgl/src/extra/widgets/meter/lv_meter.c **** /*=====================
 204:Drivers/lvgl/lvgl/src/extra/widgets/meter/lv_meter.c ****  * Set indicator value
ARM GAS  /tmp/ccVvrzYL.s 			page 5


 205:Drivers/lvgl/lvgl/src/extra/widgets/meter/lv_meter.c ****  *====================*/
 206:Drivers/lvgl/lvgl/src/extra/widgets/meter/lv_meter.c **** 
 207:Drivers/lvgl/lvgl/src/extra/widgets/meter/lv_meter.c **** void lv_meter_set_indicator_value(lv_obj_t * obj, lv_meter_indicator_t * indic, int32_t value)
 208:Drivers/lvgl/lvgl/src/extra/widgets/meter/lv_meter.c **** {
 209:Drivers/lvgl/lvgl/src/extra/widgets/meter/lv_meter.c ****     int32_t old_start = indic->start_value;
 210:Drivers/lvgl/lvgl/src/extra/widgets/meter/lv_meter.c ****     int32_t old_end = indic->end_value;
 211:Drivers/lvgl/lvgl/src/extra/widgets/meter/lv_meter.c ****     indic->start_value = value;
 212:Drivers/lvgl/lvgl/src/extra/widgets/meter/lv_meter.c ****     indic->end_value = value;
 213:Drivers/lvgl/lvgl/src/extra/widgets/meter/lv_meter.c **** 
 214:Drivers/lvgl/lvgl/src/extra/widgets/meter/lv_meter.c ****     if(indic->type == LV_METER_INDICATOR_TYPE_ARC) {
 215:Drivers/lvgl/lvgl/src/extra/widgets/meter/lv_meter.c ****         inv_arc(obj, indic, old_start, value);
 216:Drivers/lvgl/lvgl/src/extra/widgets/meter/lv_meter.c ****         inv_arc(obj, indic, old_end, value);
 217:Drivers/lvgl/lvgl/src/extra/widgets/meter/lv_meter.c ****     }
 218:Drivers/lvgl/lvgl/src/extra/widgets/meter/lv_meter.c ****     else if(indic->type == LV_METER_INDICATOR_TYPE_NEEDLE_IMG || indic->type == LV_METER_INDICATOR_
 219:Drivers/lvgl/lvgl/src/extra/widgets/meter/lv_meter.c ****         inv_line(obj, indic, old_start);
 220:Drivers/lvgl/lvgl/src/extra/widgets/meter/lv_meter.c ****         inv_line(obj, indic, old_end);
 221:Drivers/lvgl/lvgl/src/extra/widgets/meter/lv_meter.c ****         inv_line(obj, indic, value);
 222:Drivers/lvgl/lvgl/src/extra/widgets/meter/lv_meter.c ****     }
 223:Drivers/lvgl/lvgl/src/extra/widgets/meter/lv_meter.c ****     else {
 224:Drivers/lvgl/lvgl/src/extra/widgets/meter/lv_meter.c ****         lv_obj_invalidate(obj);
 225:Drivers/lvgl/lvgl/src/extra/widgets/meter/lv_meter.c ****     }
 226:Drivers/lvgl/lvgl/src/extra/widgets/meter/lv_meter.c **** }
 227:Drivers/lvgl/lvgl/src/extra/widgets/meter/lv_meter.c **** 
 228:Drivers/lvgl/lvgl/src/extra/widgets/meter/lv_meter.c **** void lv_meter_set_indicator_start_value(lv_obj_t * obj, lv_meter_indicator_t * indic, int32_t value
 229:Drivers/lvgl/lvgl/src/extra/widgets/meter/lv_meter.c **** {
 230:Drivers/lvgl/lvgl/src/extra/widgets/meter/lv_meter.c ****     int32_t old_value = indic->start_value;
 231:Drivers/lvgl/lvgl/src/extra/widgets/meter/lv_meter.c ****     indic->start_value = value;
 232:Drivers/lvgl/lvgl/src/extra/widgets/meter/lv_meter.c **** 
 233:Drivers/lvgl/lvgl/src/extra/widgets/meter/lv_meter.c ****     if(indic->type == LV_METER_INDICATOR_TYPE_ARC) {
 234:Drivers/lvgl/lvgl/src/extra/widgets/meter/lv_meter.c ****         inv_arc(obj, indic, old_value, value);
 235:Drivers/lvgl/lvgl/src/extra/widgets/meter/lv_meter.c ****     }
 236:Drivers/lvgl/lvgl/src/extra/widgets/meter/lv_meter.c ****     else if(indic->type == LV_METER_INDICATOR_TYPE_NEEDLE_IMG || indic->type == LV_METER_INDICATOR_
 237:Drivers/lvgl/lvgl/src/extra/widgets/meter/lv_meter.c ****         inv_line(obj, indic, old_value);
 238:Drivers/lvgl/lvgl/src/extra/widgets/meter/lv_meter.c ****         inv_line(obj, indic, value);
 239:Drivers/lvgl/lvgl/src/extra/widgets/meter/lv_meter.c ****     }
 240:Drivers/lvgl/lvgl/src/extra/widgets/meter/lv_meter.c ****     else {
 241:Drivers/lvgl/lvgl/src/extra/widgets/meter/lv_meter.c ****         lv_obj_invalidate(obj);
 242:Drivers/lvgl/lvgl/src/extra/widgets/meter/lv_meter.c ****     }
 243:Drivers/lvgl/lvgl/src/extra/widgets/meter/lv_meter.c **** }
 244:Drivers/lvgl/lvgl/src/extra/widgets/meter/lv_meter.c **** 
 245:Drivers/lvgl/lvgl/src/extra/widgets/meter/lv_meter.c **** void lv_meter_set_indicator_end_value(lv_obj_t * obj, lv_meter_indicator_t * indic, int32_t value)
 246:Drivers/lvgl/lvgl/src/extra/widgets/meter/lv_meter.c **** {
 247:Drivers/lvgl/lvgl/src/extra/widgets/meter/lv_meter.c ****     int32_t old_value = indic->end_value;
 248:Drivers/lvgl/lvgl/src/extra/widgets/meter/lv_meter.c ****     indic->end_value = value;
 249:Drivers/lvgl/lvgl/src/extra/widgets/meter/lv_meter.c **** 
 250:Drivers/lvgl/lvgl/src/extra/widgets/meter/lv_meter.c ****     if(indic->type == LV_METER_INDICATOR_TYPE_ARC) {
 251:Drivers/lvgl/lvgl/src/extra/widgets/meter/lv_meter.c ****         inv_arc(obj, indic, old_value, value);
 252:Drivers/lvgl/lvgl/src/extra/widgets/meter/lv_meter.c ****     }
 253:Drivers/lvgl/lvgl/src/extra/widgets/meter/lv_meter.c ****     else if(indic->type == LV_METER_INDICATOR_TYPE_NEEDLE_IMG || indic->type == LV_METER_INDICATOR_
 254:Drivers/lvgl/lvgl/src/extra/widgets/meter/lv_meter.c ****         inv_line(obj, indic, old_value);
 255:Drivers/lvgl/lvgl/src/extra/widgets/meter/lv_meter.c ****         inv_line(obj, indic, value);
 256:Drivers/lvgl/lvgl/src/extra/widgets/meter/lv_meter.c ****     }
 257:Drivers/lvgl/lvgl/src/extra/widgets/meter/lv_meter.c ****     else {
 258:Drivers/lvgl/lvgl/src/extra/widgets/meter/lv_meter.c ****         lv_obj_invalidate(obj);
 259:Drivers/lvgl/lvgl/src/extra/widgets/meter/lv_meter.c ****     }
 260:Drivers/lvgl/lvgl/src/extra/widgets/meter/lv_meter.c **** }
 261:Drivers/lvgl/lvgl/src/extra/widgets/meter/lv_meter.c **** 
ARM GAS  /tmp/ccVvrzYL.s 			page 6


 262:Drivers/lvgl/lvgl/src/extra/widgets/meter/lv_meter.c **** /**********************
 263:Drivers/lvgl/lvgl/src/extra/widgets/meter/lv_meter.c ****  *   STATIC FUNCTIONS
 264:Drivers/lvgl/lvgl/src/extra/widgets/meter/lv_meter.c ****  **********************/
 265:Drivers/lvgl/lvgl/src/extra/widgets/meter/lv_meter.c **** 
 266:Drivers/lvgl/lvgl/src/extra/widgets/meter/lv_meter.c **** static void lv_meter_constructor(const lv_obj_class_t * class_p, lv_obj_t * obj)
 267:Drivers/lvgl/lvgl/src/extra/widgets/meter/lv_meter.c **** {
 268:Drivers/lvgl/lvgl/src/extra/widgets/meter/lv_meter.c ****     LV_UNUSED(class_p);
 269:Drivers/lvgl/lvgl/src/extra/widgets/meter/lv_meter.c ****     LV_TRACE_OBJ_CREATE("begin");
 270:Drivers/lvgl/lvgl/src/extra/widgets/meter/lv_meter.c **** 
 271:Drivers/lvgl/lvgl/src/extra/widgets/meter/lv_meter.c ****     lv_meter_t * meter = (lv_meter_t *)obj;
 272:Drivers/lvgl/lvgl/src/extra/widgets/meter/lv_meter.c **** 
 273:Drivers/lvgl/lvgl/src/extra/widgets/meter/lv_meter.c ****     _lv_ll_init(&meter->scale_ll, sizeof(lv_meter_scale_t));
 274:Drivers/lvgl/lvgl/src/extra/widgets/meter/lv_meter.c ****     _lv_ll_init(&meter->indicator_ll, sizeof(lv_meter_indicator_t));
 275:Drivers/lvgl/lvgl/src/extra/widgets/meter/lv_meter.c **** 
 276:Drivers/lvgl/lvgl/src/extra/widgets/meter/lv_meter.c ****     LV_TRACE_OBJ_CREATE("finished");
 277:Drivers/lvgl/lvgl/src/extra/widgets/meter/lv_meter.c **** }
 278:Drivers/lvgl/lvgl/src/extra/widgets/meter/lv_meter.c **** 
 279:Drivers/lvgl/lvgl/src/extra/widgets/meter/lv_meter.c **** static void lv_meter_destructor(const lv_obj_class_t * class_p, lv_obj_t * obj)
 280:Drivers/lvgl/lvgl/src/extra/widgets/meter/lv_meter.c **** {
 281:Drivers/lvgl/lvgl/src/extra/widgets/meter/lv_meter.c ****     LV_UNUSED(class_p);
 282:Drivers/lvgl/lvgl/src/extra/widgets/meter/lv_meter.c ****     LV_ASSERT_OBJ(obj, MY_CLASS);
 283:Drivers/lvgl/lvgl/src/extra/widgets/meter/lv_meter.c ****     lv_meter_t * meter = (lv_meter_t *)obj;
 284:Drivers/lvgl/lvgl/src/extra/widgets/meter/lv_meter.c ****     _lv_ll_clear(&meter->indicator_ll);
 285:Drivers/lvgl/lvgl/src/extra/widgets/meter/lv_meter.c ****     _lv_ll_clear(&meter->scale_ll);
 286:Drivers/lvgl/lvgl/src/extra/widgets/meter/lv_meter.c **** 
 287:Drivers/lvgl/lvgl/src/extra/widgets/meter/lv_meter.c **** }
 288:Drivers/lvgl/lvgl/src/extra/widgets/meter/lv_meter.c **** 
 289:Drivers/lvgl/lvgl/src/extra/widgets/meter/lv_meter.c **** static void lv_meter_event(const lv_obj_class_t * class_p, lv_event_t * e)
 290:Drivers/lvgl/lvgl/src/extra/widgets/meter/lv_meter.c **** {
 291:Drivers/lvgl/lvgl/src/extra/widgets/meter/lv_meter.c ****     LV_UNUSED(class_p);
 292:Drivers/lvgl/lvgl/src/extra/widgets/meter/lv_meter.c **** 
 293:Drivers/lvgl/lvgl/src/extra/widgets/meter/lv_meter.c ****     lv_res_t res = lv_obj_event_base(MY_CLASS, e);
 294:Drivers/lvgl/lvgl/src/extra/widgets/meter/lv_meter.c ****     if(res != LV_RES_OK) return;
 295:Drivers/lvgl/lvgl/src/extra/widgets/meter/lv_meter.c **** 
 296:Drivers/lvgl/lvgl/src/extra/widgets/meter/lv_meter.c ****     lv_event_code_t code = lv_event_get_code(e);
 297:Drivers/lvgl/lvgl/src/extra/widgets/meter/lv_meter.c ****     lv_obj_t * obj = lv_event_get_target(e);
 298:Drivers/lvgl/lvgl/src/extra/widgets/meter/lv_meter.c ****     if(code == LV_EVENT_DRAW_MAIN) {
 299:Drivers/lvgl/lvgl/src/extra/widgets/meter/lv_meter.c ****         lv_draw_ctx_t * draw_ctx = lv_event_get_draw_ctx(e);
 300:Drivers/lvgl/lvgl/src/extra/widgets/meter/lv_meter.c ****         lv_area_t scale_area;
 301:Drivers/lvgl/lvgl/src/extra/widgets/meter/lv_meter.c ****         lv_obj_get_content_coords(obj, &scale_area);
 302:Drivers/lvgl/lvgl/src/extra/widgets/meter/lv_meter.c **** 
 303:Drivers/lvgl/lvgl/src/extra/widgets/meter/lv_meter.c ****         draw_arcs(obj, draw_ctx, &scale_area);
 304:Drivers/lvgl/lvgl/src/extra/widgets/meter/lv_meter.c ****         draw_ticks_and_labels(obj, draw_ctx, &scale_area);
 305:Drivers/lvgl/lvgl/src/extra/widgets/meter/lv_meter.c ****         draw_needles(obj, draw_ctx, &scale_area);
 306:Drivers/lvgl/lvgl/src/extra/widgets/meter/lv_meter.c **** 
 307:Drivers/lvgl/lvgl/src/extra/widgets/meter/lv_meter.c ****         lv_coord_t r_edge = lv_area_get_width(&scale_area) / 2;
 308:Drivers/lvgl/lvgl/src/extra/widgets/meter/lv_meter.c ****         lv_point_t scale_center;
 309:Drivers/lvgl/lvgl/src/extra/widgets/meter/lv_meter.c ****         scale_center.x = scale_area.x1 + r_edge;
 310:Drivers/lvgl/lvgl/src/extra/widgets/meter/lv_meter.c ****         scale_center.y = scale_area.y1 + r_edge;
 311:Drivers/lvgl/lvgl/src/extra/widgets/meter/lv_meter.c **** 
 312:Drivers/lvgl/lvgl/src/extra/widgets/meter/lv_meter.c ****         lv_draw_rect_dsc_t mid_dsc;
 313:Drivers/lvgl/lvgl/src/extra/widgets/meter/lv_meter.c ****         lv_draw_rect_dsc_init(&mid_dsc);
 314:Drivers/lvgl/lvgl/src/extra/widgets/meter/lv_meter.c ****         lv_obj_init_draw_rect_dsc(obj, LV_PART_INDICATOR, &mid_dsc);
 315:Drivers/lvgl/lvgl/src/extra/widgets/meter/lv_meter.c ****         lv_coord_t w = lv_obj_get_style_width(obj, LV_PART_INDICATOR) / 2;
 316:Drivers/lvgl/lvgl/src/extra/widgets/meter/lv_meter.c ****         lv_coord_t h = lv_obj_get_style_height(obj, LV_PART_INDICATOR) / 2;
 317:Drivers/lvgl/lvgl/src/extra/widgets/meter/lv_meter.c ****         lv_area_t nm_cord;
 318:Drivers/lvgl/lvgl/src/extra/widgets/meter/lv_meter.c ****         nm_cord.x1 = scale_center.x - w;
ARM GAS  /tmp/ccVvrzYL.s 			page 7


 319:Drivers/lvgl/lvgl/src/extra/widgets/meter/lv_meter.c ****         nm_cord.y1 = scale_center.y - h;
 320:Drivers/lvgl/lvgl/src/extra/widgets/meter/lv_meter.c ****         nm_cord.x2 = scale_center.x + w;
 321:Drivers/lvgl/lvgl/src/extra/widgets/meter/lv_meter.c ****         nm_cord.y2 = scale_center.y + h;
 322:Drivers/lvgl/lvgl/src/extra/widgets/meter/lv_meter.c ****         lv_draw_rect(draw_ctx, &mid_dsc, &nm_cord);
 323:Drivers/lvgl/lvgl/src/extra/widgets/meter/lv_meter.c ****     }
 324:Drivers/lvgl/lvgl/src/extra/widgets/meter/lv_meter.c **** }
 325:Drivers/lvgl/lvgl/src/extra/widgets/meter/lv_meter.c **** 
 326:Drivers/lvgl/lvgl/src/extra/widgets/meter/lv_meter.c **** static void draw_arcs(lv_obj_t * obj, lv_draw_ctx_t * draw_ctx, const lv_area_t * scale_area)
 327:Drivers/lvgl/lvgl/src/extra/widgets/meter/lv_meter.c **** {
  26              		.loc 1 327 0
  27              		.cfi_startproc
  28              		@ args = 0, pretend = 0, frame = 104
  29              		@ frame_needed = 0, uses_anonymous_args = 0
  30              	.LVL0:
  31 0000 2DE9F04F 		push	{r4, r5, r6, r7, r8, r9, r10, fp, lr}
  32              	.LCFI0:
  33              		.cfi_def_cfa_offset 36
  34              		.cfi_offset 4, -36
  35              		.cfi_offset 5, -32
  36              		.cfi_offset 6, -28
  37              		.cfi_offset 7, -24
  38              		.cfi_offset 8, -20
  39              		.cfi_offset 9, -16
  40              		.cfi_offset 10, -12
  41              		.cfi_offset 11, -8
  42              		.cfi_offset 14, -4
  43 0004 9DB0     		sub	sp, sp, #116
  44              	.LCFI1:
  45              		.cfi_def_cfa_offset 152
  46 0006 8046     		mov	r8, r0
  47 0008 0291     		str	r1, [sp, #8]
  48 000a 1446     		mov	r4, r2
  49              	.LVL1:
 328:Drivers/lvgl/lvgl/src/extra/widgets/meter/lv_meter.c ****     lv_meter_t * meter = (lv_meter_t *)obj;
 329:Drivers/lvgl/lvgl/src/extra/widgets/meter/lv_meter.c **** 
 330:Drivers/lvgl/lvgl/src/extra/widgets/meter/lv_meter.c ****     lv_draw_arc_dsc_t arc_dsc;
 331:Drivers/lvgl/lvgl/src/extra/widgets/meter/lv_meter.c ****     lv_draw_arc_dsc_init(&arc_dsc);
  50              		.loc 1 331 0
  51 000c 18A8     		add	r0, sp, #96
  52              	.LVL2:
  53 000e FFF7FEFF 		bl	lv_draw_arc_dsc_init
  54              	.LVL3:
  55              	.LBB49:
  56              	.LBB50:
  57              		.file 2 "Drivers/lvgl/lvgl/src/extra/widgets/meter/../../../../src/core/lv_obj_style_gen.h"
   1:Drivers/lvgl/lvgl/src/extra/widgets/meter/../../../../src/core/lv_obj_style_gen.h **** static inline lv_coord_t lv_obj_get_style_width(const struct _lv_obj_t * obj, uint32_t part)
   2:Drivers/lvgl/lvgl/src/extra/widgets/meter/../../../../src/core/lv_obj_style_gen.h **** {
   3:Drivers/lvgl/lvgl/src/extra/widgets/meter/../../../../src/core/lv_obj_style_gen.h ****     lv_style_value_t v = lv_obj_get_style_prop(obj, part, LV_STYLE_WIDTH);
   4:Drivers/lvgl/lvgl/src/extra/widgets/meter/../../../../src/core/lv_obj_style_gen.h ****     return (lv_coord_t)v.num;
   5:Drivers/lvgl/lvgl/src/extra/widgets/meter/../../../../src/core/lv_obj_style_gen.h **** }
   6:Drivers/lvgl/lvgl/src/extra/widgets/meter/../../../../src/core/lv_obj_style_gen.h **** 
   7:Drivers/lvgl/lvgl/src/extra/widgets/meter/../../../../src/core/lv_obj_style_gen.h **** static inline lv_coord_t lv_obj_get_style_min_width(const struct _lv_obj_t * obj, uint32_t part)
   8:Drivers/lvgl/lvgl/src/extra/widgets/meter/../../../../src/core/lv_obj_style_gen.h **** {
   9:Drivers/lvgl/lvgl/src/extra/widgets/meter/../../../../src/core/lv_obj_style_gen.h ****     lv_style_value_t v = lv_obj_get_style_prop(obj, part, LV_STYLE_MIN_WIDTH);
  10:Drivers/lvgl/lvgl/src/extra/widgets/meter/../../../../src/core/lv_obj_style_gen.h ****     return (lv_coord_t)v.num;
  11:Drivers/lvgl/lvgl/src/extra/widgets/meter/../../../../src/core/lv_obj_style_gen.h **** }
  12:Drivers/lvgl/lvgl/src/extra/widgets/meter/../../../../src/core/lv_obj_style_gen.h **** 
ARM GAS  /tmp/ccVvrzYL.s 			page 8


  13:Drivers/lvgl/lvgl/src/extra/widgets/meter/../../../../src/core/lv_obj_style_gen.h **** static inline lv_coord_t lv_obj_get_style_max_width(const struct _lv_obj_t * obj, uint32_t part)
  14:Drivers/lvgl/lvgl/src/extra/widgets/meter/../../../../src/core/lv_obj_style_gen.h **** {
  15:Drivers/lvgl/lvgl/src/extra/widgets/meter/../../../../src/core/lv_obj_style_gen.h ****     lv_style_value_t v = lv_obj_get_style_prop(obj, part, LV_STYLE_MAX_WIDTH);
  16:Drivers/lvgl/lvgl/src/extra/widgets/meter/../../../../src/core/lv_obj_style_gen.h ****     return (lv_coord_t)v.num;
  17:Drivers/lvgl/lvgl/src/extra/widgets/meter/../../../../src/core/lv_obj_style_gen.h **** }
  18:Drivers/lvgl/lvgl/src/extra/widgets/meter/../../../../src/core/lv_obj_style_gen.h **** 
  19:Drivers/lvgl/lvgl/src/extra/widgets/meter/../../../../src/core/lv_obj_style_gen.h **** static inline lv_coord_t lv_obj_get_style_height(const struct _lv_obj_t * obj, uint32_t part)
  20:Drivers/lvgl/lvgl/src/extra/widgets/meter/../../../../src/core/lv_obj_style_gen.h **** {
  21:Drivers/lvgl/lvgl/src/extra/widgets/meter/../../../../src/core/lv_obj_style_gen.h ****     lv_style_value_t v = lv_obj_get_style_prop(obj, part, LV_STYLE_HEIGHT);
  22:Drivers/lvgl/lvgl/src/extra/widgets/meter/../../../../src/core/lv_obj_style_gen.h ****     return (lv_coord_t)v.num;
  23:Drivers/lvgl/lvgl/src/extra/widgets/meter/../../../../src/core/lv_obj_style_gen.h **** }
  24:Drivers/lvgl/lvgl/src/extra/widgets/meter/../../../../src/core/lv_obj_style_gen.h **** 
  25:Drivers/lvgl/lvgl/src/extra/widgets/meter/../../../../src/core/lv_obj_style_gen.h **** static inline lv_coord_t lv_obj_get_style_min_height(const struct _lv_obj_t * obj, uint32_t part)
  26:Drivers/lvgl/lvgl/src/extra/widgets/meter/../../../../src/core/lv_obj_style_gen.h **** {
  27:Drivers/lvgl/lvgl/src/extra/widgets/meter/../../../../src/core/lv_obj_style_gen.h ****     lv_style_value_t v = lv_obj_get_style_prop(obj, part, LV_STYLE_MIN_HEIGHT);
  28:Drivers/lvgl/lvgl/src/extra/widgets/meter/../../../../src/core/lv_obj_style_gen.h ****     return (lv_coord_t)v.num;
  29:Drivers/lvgl/lvgl/src/extra/widgets/meter/../../../../src/core/lv_obj_style_gen.h **** }
  30:Drivers/lvgl/lvgl/src/extra/widgets/meter/../../../../src/core/lv_obj_style_gen.h **** 
  31:Drivers/lvgl/lvgl/src/extra/widgets/meter/../../../../src/core/lv_obj_style_gen.h **** static inline lv_coord_t lv_obj_get_style_max_height(const struct _lv_obj_t * obj, uint32_t part)
  32:Drivers/lvgl/lvgl/src/extra/widgets/meter/../../../../src/core/lv_obj_style_gen.h **** {
  33:Drivers/lvgl/lvgl/src/extra/widgets/meter/../../../../src/core/lv_obj_style_gen.h ****     lv_style_value_t v = lv_obj_get_style_prop(obj, part, LV_STYLE_MAX_HEIGHT);
  34:Drivers/lvgl/lvgl/src/extra/widgets/meter/../../../../src/core/lv_obj_style_gen.h ****     return (lv_coord_t)v.num;
  35:Drivers/lvgl/lvgl/src/extra/widgets/meter/../../../../src/core/lv_obj_style_gen.h **** }
  36:Drivers/lvgl/lvgl/src/extra/widgets/meter/../../../../src/core/lv_obj_style_gen.h **** 
  37:Drivers/lvgl/lvgl/src/extra/widgets/meter/../../../../src/core/lv_obj_style_gen.h **** static inline lv_coord_t lv_obj_get_style_x(const struct _lv_obj_t * obj, uint32_t part)
  38:Drivers/lvgl/lvgl/src/extra/widgets/meter/../../../../src/core/lv_obj_style_gen.h **** {
  39:Drivers/lvgl/lvgl/src/extra/widgets/meter/../../../../src/core/lv_obj_style_gen.h ****     lv_style_value_t v = lv_obj_get_style_prop(obj, part, LV_STYLE_X);
  40:Drivers/lvgl/lvgl/src/extra/widgets/meter/../../../../src/core/lv_obj_style_gen.h ****     return (lv_coord_t)v.num;
  41:Drivers/lvgl/lvgl/src/extra/widgets/meter/../../../../src/core/lv_obj_style_gen.h **** }
  42:Drivers/lvgl/lvgl/src/extra/widgets/meter/../../../../src/core/lv_obj_style_gen.h **** 
  43:Drivers/lvgl/lvgl/src/extra/widgets/meter/../../../../src/core/lv_obj_style_gen.h **** static inline lv_coord_t lv_obj_get_style_y(const struct _lv_obj_t * obj, uint32_t part)
  44:Drivers/lvgl/lvgl/src/extra/widgets/meter/../../../../src/core/lv_obj_style_gen.h **** {
  45:Drivers/lvgl/lvgl/src/extra/widgets/meter/../../../../src/core/lv_obj_style_gen.h ****     lv_style_value_t v = lv_obj_get_style_prop(obj, part, LV_STYLE_Y);
  46:Drivers/lvgl/lvgl/src/extra/widgets/meter/../../../../src/core/lv_obj_style_gen.h ****     return (lv_coord_t)v.num;
  47:Drivers/lvgl/lvgl/src/extra/widgets/meter/../../../../src/core/lv_obj_style_gen.h **** }
  48:Drivers/lvgl/lvgl/src/extra/widgets/meter/../../../../src/core/lv_obj_style_gen.h **** 
  49:Drivers/lvgl/lvgl/src/extra/widgets/meter/../../../../src/core/lv_obj_style_gen.h **** static inline lv_align_t lv_obj_get_style_align(const struct _lv_obj_t * obj, uint32_t part)
  50:Drivers/lvgl/lvgl/src/extra/widgets/meter/../../../../src/core/lv_obj_style_gen.h **** {
  51:Drivers/lvgl/lvgl/src/extra/widgets/meter/../../../../src/core/lv_obj_style_gen.h ****     lv_style_value_t v = lv_obj_get_style_prop(obj, part, LV_STYLE_ALIGN);
  52:Drivers/lvgl/lvgl/src/extra/widgets/meter/../../../../src/core/lv_obj_style_gen.h ****     return (lv_align_t)v.num;
  53:Drivers/lvgl/lvgl/src/extra/widgets/meter/../../../../src/core/lv_obj_style_gen.h **** }
  54:Drivers/lvgl/lvgl/src/extra/widgets/meter/../../../../src/core/lv_obj_style_gen.h **** 
  55:Drivers/lvgl/lvgl/src/extra/widgets/meter/../../../../src/core/lv_obj_style_gen.h **** static inline lv_coord_t lv_obj_get_style_transform_width(const struct _lv_obj_t * obj, uint32_t pa
  56:Drivers/lvgl/lvgl/src/extra/widgets/meter/../../../../src/core/lv_obj_style_gen.h **** {
  57:Drivers/lvgl/lvgl/src/extra/widgets/meter/../../../../src/core/lv_obj_style_gen.h ****     lv_style_value_t v = lv_obj_get_style_prop(obj, part, LV_STYLE_TRANSFORM_WIDTH);
  58:Drivers/lvgl/lvgl/src/extra/widgets/meter/../../../../src/core/lv_obj_style_gen.h ****     return (lv_coord_t)v.num;
  59:Drivers/lvgl/lvgl/src/extra/widgets/meter/../../../../src/core/lv_obj_style_gen.h **** }
  60:Drivers/lvgl/lvgl/src/extra/widgets/meter/../../../../src/core/lv_obj_style_gen.h **** 
  61:Drivers/lvgl/lvgl/src/extra/widgets/meter/../../../../src/core/lv_obj_style_gen.h **** static inline lv_coord_t lv_obj_get_style_transform_height(const struct _lv_obj_t * obj, uint32_t p
  62:Drivers/lvgl/lvgl/src/extra/widgets/meter/../../../../src/core/lv_obj_style_gen.h **** {
  63:Drivers/lvgl/lvgl/src/extra/widgets/meter/../../../../src/core/lv_obj_style_gen.h ****     lv_style_value_t v = lv_obj_get_style_prop(obj, part, LV_STYLE_TRANSFORM_HEIGHT);
  64:Drivers/lvgl/lvgl/src/extra/widgets/meter/../../../../src/core/lv_obj_style_gen.h ****     return (lv_coord_t)v.num;
  65:Drivers/lvgl/lvgl/src/extra/widgets/meter/../../../../src/core/lv_obj_style_gen.h **** }
  66:Drivers/lvgl/lvgl/src/extra/widgets/meter/../../../../src/core/lv_obj_style_gen.h **** 
  67:Drivers/lvgl/lvgl/src/extra/widgets/meter/../../../../src/core/lv_obj_style_gen.h **** static inline lv_coord_t lv_obj_get_style_translate_x(const struct _lv_obj_t * obj, uint32_t part)
  68:Drivers/lvgl/lvgl/src/extra/widgets/meter/../../../../src/core/lv_obj_style_gen.h **** {
  69:Drivers/lvgl/lvgl/src/extra/widgets/meter/../../../../src/core/lv_obj_style_gen.h ****     lv_style_value_t v = lv_obj_get_style_prop(obj, part, LV_STYLE_TRANSLATE_X);
ARM GAS  /tmp/ccVvrzYL.s 			page 9


  70:Drivers/lvgl/lvgl/src/extra/widgets/meter/../../../../src/core/lv_obj_style_gen.h ****     return (lv_coord_t)v.num;
  71:Drivers/lvgl/lvgl/src/extra/widgets/meter/../../../../src/core/lv_obj_style_gen.h **** }
  72:Drivers/lvgl/lvgl/src/extra/widgets/meter/../../../../src/core/lv_obj_style_gen.h **** 
  73:Drivers/lvgl/lvgl/src/extra/widgets/meter/../../../../src/core/lv_obj_style_gen.h **** static inline lv_coord_t lv_obj_get_style_translate_y(const struct _lv_obj_t * obj, uint32_t part)
  74:Drivers/lvgl/lvgl/src/extra/widgets/meter/../../../../src/core/lv_obj_style_gen.h **** {
  75:Drivers/lvgl/lvgl/src/extra/widgets/meter/../../../../src/core/lv_obj_style_gen.h ****     lv_style_value_t v = lv_obj_get_style_prop(obj, part, LV_STYLE_TRANSLATE_Y);
  76:Drivers/lvgl/lvgl/src/extra/widgets/meter/../../../../src/core/lv_obj_style_gen.h ****     return (lv_coord_t)v.num;
  77:Drivers/lvgl/lvgl/src/extra/widgets/meter/../../../../src/core/lv_obj_style_gen.h **** }
  78:Drivers/lvgl/lvgl/src/extra/widgets/meter/../../../../src/core/lv_obj_style_gen.h **** 
  79:Drivers/lvgl/lvgl/src/extra/widgets/meter/../../../../src/core/lv_obj_style_gen.h **** static inline lv_coord_t lv_obj_get_style_transform_zoom(const struct _lv_obj_t * obj, uint32_t par
  80:Drivers/lvgl/lvgl/src/extra/widgets/meter/../../../../src/core/lv_obj_style_gen.h **** {
  81:Drivers/lvgl/lvgl/src/extra/widgets/meter/../../../../src/core/lv_obj_style_gen.h ****     lv_style_value_t v = lv_obj_get_style_prop(obj, part, LV_STYLE_TRANSFORM_ZOOM);
  82:Drivers/lvgl/lvgl/src/extra/widgets/meter/../../../../src/core/lv_obj_style_gen.h ****     return (lv_coord_t)v.num;
  83:Drivers/lvgl/lvgl/src/extra/widgets/meter/../../../../src/core/lv_obj_style_gen.h **** }
  84:Drivers/lvgl/lvgl/src/extra/widgets/meter/../../../../src/core/lv_obj_style_gen.h **** 
  85:Drivers/lvgl/lvgl/src/extra/widgets/meter/../../../../src/core/lv_obj_style_gen.h **** static inline lv_coord_t lv_obj_get_style_transform_angle(const struct _lv_obj_t * obj, uint32_t pa
  86:Drivers/lvgl/lvgl/src/extra/widgets/meter/../../../../src/core/lv_obj_style_gen.h **** {
  87:Drivers/lvgl/lvgl/src/extra/widgets/meter/../../../../src/core/lv_obj_style_gen.h ****     lv_style_value_t v = lv_obj_get_style_prop(obj, part, LV_STYLE_TRANSFORM_ANGLE);
  88:Drivers/lvgl/lvgl/src/extra/widgets/meter/../../../../src/core/lv_obj_style_gen.h ****     return (lv_coord_t)v.num;
  89:Drivers/lvgl/lvgl/src/extra/widgets/meter/../../../../src/core/lv_obj_style_gen.h **** }
  90:Drivers/lvgl/lvgl/src/extra/widgets/meter/../../../../src/core/lv_obj_style_gen.h **** 
  91:Drivers/lvgl/lvgl/src/extra/widgets/meter/../../../../src/core/lv_obj_style_gen.h **** static inline lv_coord_t lv_obj_get_style_transform_pivot_x(const struct _lv_obj_t * obj, uint32_t 
  92:Drivers/lvgl/lvgl/src/extra/widgets/meter/../../../../src/core/lv_obj_style_gen.h **** {
  93:Drivers/lvgl/lvgl/src/extra/widgets/meter/../../../../src/core/lv_obj_style_gen.h ****     lv_style_value_t v = lv_obj_get_style_prop(obj, part, LV_STYLE_TRANSFORM_PIVOT_X);
  94:Drivers/lvgl/lvgl/src/extra/widgets/meter/../../../../src/core/lv_obj_style_gen.h ****     return (lv_coord_t)v.num;
  95:Drivers/lvgl/lvgl/src/extra/widgets/meter/../../../../src/core/lv_obj_style_gen.h **** }
  96:Drivers/lvgl/lvgl/src/extra/widgets/meter/../../../../src/core/lv_obj_style_gen.h **** 
  97:Drivers/lvgl/lvgl/src/extra/widgets/meter/../../../../src/core/lv_obj_style_gen.h **** static inline lv_coord_t lv_obj_get_style_transform_pivot_y(const struct _lv_obj_t * obj, uint32_t 
  98:Drivers/lvgl/lvgl/src/extra/widgets/meter/../../../../src/core/lv_obj_style_gen.h **** {
  99:Drivers/lvgl/lvgl/src/extra/widgets/meter/../../../../src/core/lv_obj_style_gen.h ****     lv_style_value_t v = lv_obj_get_style_prop(obj, part, LV_STYLE_TRANSFORM_PIVOT_Y);
 100:Drivers/lvgl/lvgl/src/extra/widgets/meter/../../../../src/core/lv_obj_style_gen.h ****     return (lv_coord_t)v.num;
 101:Drivers/lvgl/lvgl/src/extra/widgets/meter/../../../../src/core/lv_obj_style_gen.h **** }
 102:Drivers/lvgl/lvgl/src/extra/widgets/meter/../../../../src/core/lv_obj_style_gen.h **** 
 103:Drivers/lvgl/lvgl/src/extra/widgets/meter/../../../../src/core/lv_obj_style_gen.h **** static inline lv_coord_t lv_obj_get_style_pad_top(const struct _lv_obj_t * obj, uint32_t part)
 104:Drivers/lvgl/lvgl/src/extra/widgets/meter/../../../../src/core/lv_obj_style_gen.h **** {
 105:Drivers/lvgl/lvgl/src/extra/widgets/meter/../../../../src/core/lv_obj_style_gen.h ****     lv_style_value_t v = lv_obj_get_style_prop(obj, part, LV_STYLE_PAD_TOP);
 106:Drivers/lvgl/lvgl/src/extra/widgets/meter/../../../../src/core/lv_obj_style_gen.h ****     return (lv_coord_t)v.num;
 107:Drivers/lvgl/lvgl/src/extra/widgets/meter/../../../../src/core/lv_obj_style_gen.h **** }
 108:Drivers/lvgl/lvgl/src/extra/widgets/meter/../../../../src/core/lv_obj_style_gen.h **** 
 109:Drivers/lvgl/lvgl/src/extra/widgets/meter/../../../../src/core/lv_obj_style_gen.h **** static inline lv_coord_t lv_obj_get_style_pad_bottom(const struct _lv_obj_t * obj, uint32_t part)
 110:Drivers/lvgl/lvgl/src/extra/widgets/meter/../../../../src/core/lv_obj_style_gen.h **** {
 111:Drivers/lvgl/lvgl/src/extra/widgets/meter/../../../../src/core/lv_obj_style_gen.h ****     lv_style_value_t v = lv_obj_get_style_prop(obj, part, LV_STYLE_PAD_BOTTOM);
 112:Drivers/lvgl/lvgl/src/extra/widgets/meter/../../../../src/core/lv_obj_style_gen.h ****     return (lv_coord_t)v.num;
 113:Drivers/lvgl/lvgl/src/extra/widgets/meter/../../../../src/core/lv_obj_style_gen.h **** }
 114:Drivers/lvgl/lvgl/src/extra/widgets/meter/../../../../src/core/lv_obj_style_gen.h **** 
 115:Drivers/lvgl/lvgl/src/extra/widgets/meter/../../../../src/core/lv_obj_style_gen.h **** static inline lv_coord_t lv_obj_get_style_pad_left(const struct _lv_obj_t * obj, uint32_t part)
 116:Drivers/lvgl/lvgl/src/extra/widgets/meter/../../../../src/core/lv_obj_style_gen.h **** {
 117:Drivers/lvgl/lvgl/src/extra/widgets/meter/../../../../src/core/lv_obj_style_gen.h ****     lv_style_value_t v = lv_obj_get_style_prop(obj, part, LV_STYLE_PAD_LEFT);
 118:Drivers/lvgl/lvgl/src/extra/widgets/meter/../../../../src/core/lv_obj_style_gen.h ****     return (lv_coord_t)v.num;
 119:Drivers/lvgl/lvgl/src/extra/widgets/meter/../../../../src/core/lv_obj_style_gen.h **** }
 120:Drivers/lvgl/lvgl/src/extra/widgets/meter/../../../../src/core/lv_obj_style_gen.h **** 
 121:Drivers/lvgl/lvgl/src/extra/widgets/meter/../../../../src/core/lv_obj_style_gen.h **** static inline lv_coord_t lv_obj_get_style_pad_right(const struct _lv_obj_t * obj, uint32_t part)
 122:Drivers/lvgl/lvgl/src/extra/widgets/meter/../../../../src/core/lv_obj_style_gen.h **** {
 123:Drivers/lvgl/lvgl/src/extra/widgets/meter/../../../../src/core/lv_obj_style_gen.h ****     lv_style_value_t v = lv_obj_get_style_prop(obj, part, LV_STYLE_PAD_RIGHT);
 124:Drivers/lvgl/lvgl/src/extra/widgets/meter/../../../../src/core/lv_obj_style_gen.h ****     return (lv_coord_t)v.num;
 125:Drivers/lvgl/lvgl/src/extra/widgets/meter/../../../../src/core/lv_obj_style_gen.h **** }
 126:Drivers/lvgl/lvgl/src/extra/widgets/meter/../../../../src/core/lv_obj_style_gen.h **** 
ARM GAS  /tmp/ccVvrzYL.s 			page 10


 127:Drivers/lvgl/lvgl/src/extra/widgets/meter/../../../../src/core/lv_obj_style_gen.h **** static inline lv_coord_t lv_obj_get_style_pad_row(const struct _lv_obj_t * obj, uint32_t part)
 128:Drivers/lvgl/lvgl/src/extra/widgets/meter/../../../../src/core/lv_obj_style_gen.h **** {
 129:Drivers/lvgl/lvgl/src/extra/widgets/meter/../../../../src/core/lv_obj_style_gen.h ****     lv_style_value_t v = lv_obj_get_style_prop(obj, part, LV_STYLE_PAD_ROW);
 130:Drivers/lvgl/lvgl/src/extra/widgets/meter/../../../../src/core/lv_obj_style_gen.h ****     return (lv_coord_t)v.num;
 131:Drivers/lvgl/lvgl/src/extra/widgets/meter/../../../../src/core/lv_obj_style_gen.h **** }
 132:Drivers/lvgl/lvgl/src/extra/widgets/meter/../../../../src/core/lv_obj_style_gen.h **** 
 133:Drivers/lvgl/lvgl/src/extra/widgets/meter/../../../../src/core/lv_obj_style_gen.h **** static inline lv_coord_t lv_obj_get_style_pad_column(const struct _lv_obj_t * obj, uint32_t part)
 134:Drivers/lvgl/lvgl/src/extra/widgets/meter/../../../../src/core/lv_obj_style_gen.h **** {
 135:Drivers/lvgl/lvgl/src/extra/widgets/meter/../../../../src/core/lv_obj_style_gen.h ****     lv_style_value_t v = lv_obj_get_style_prop(obj, part, LV_STYLE_PAD_COLUMN);
 136:Drivers/lvgl/lvgl/src/extra/widgets/meter/../../../../src/core/lv_obj_style_gen.h ****     return (lv_coord_t)v.num;
 137:Drivers/lvgl/lvgl/src/extra/widgets/meter/../../../../src/core/lv_obj_style_gen.h **** }
 138:Drivers/lvgl/lvgl/src/extra/widgets/meter/../../../../src/core/lv_obj_style_gen.h **** 
 139:Drivers/lvgl/lvgl/src/extra/widgets/meter/../../../../src/core/lv_obj_style_gen.h **** static inline lv_color_t lv_obj_get_style_bg_color(const struct _lv_obj_t * obj, uint32_t part)
 140:Drivers/lvgl/lvgl/src/extra/widgets/meter/../../../../src/core/lv_obj_style_gen.h **** {
 141:Drivers/lvgl/lvgl/src/extra/widgets/meter/../../../../src/core/lv_obj_style_gen.h ****     lv_style_value_t v = lv_obj_get_style_prop(obj, part, LV_STYLE_BG_COLOR);
 142:Drivers/lvgl/lvgl/src/extra/widgets/meter/../../../../src/core/lv_obj_style_gen.h ****     return v.color;
 143:Drivers/lvgl/lvgl/src/extra/widgets/meter/../../../../src/core/lv_obj_style_gen.h **** }
 144:Drivers/lvgl/lvgl/src/extra/widgets/meter/../../../../src/core/lv_obj_style_gen.h **** 
 145:Drivers/lvgl/lvgl/src/extra/widgets/meter/../../../../src/core/lv_obj_style_gen.h **** static inline lv_color_t lv_obj_get_style_bg_color_filtered(const struct _lv_obj_t * obj, uint32_t 
 146:Drivers/lvgl/lvgl/src/extra/widgets/meter/../../../../src/core/lv_obj_style_gen.h **** {
 147:Drivers/lvgl/lvgl/src/extra/widgets/meter/../../../../src/core/lv_obj_style_gen.h ****     lv_style_value_t v = _lv_obj_style_apply_color_filter(obj, part, lv_obj_get_style_prop(obj, par
 148:Drivers/lvgl/lvgl/src/extra/widgets/meter/../../../../src/core/lv_obj_style_gen.h ****     return v.color;
 149:Drivers/lvgl/lvgl/src/extra/widgets/meter/../../../../src/core/lv_obj_style_gen.h **** }
 150:Drivers/lvgl/lvgl/src/extra/widgets/meter/../../../../src/core/lv_obj_style_gen.h **** 
 151:Drivers/lvgl/lvgl/src/extra/widgets/meter/../../../../src/core/lv_obj_style_gen.h **** static inline lv_opa_t lv_obj_get_style_bg_opa(const struct _lv_obj_t * obj, uint32_t part)
 152:Drivers/lvgl/lvgl/src/extra/widgets/meter/../../../../src/core/lv_obj_style_gen.h **** {
 153:Drivers/lvgl/lvgl/src/extra/widgets/meter/../../../../src/core/lv_obj_style_gen.h ****     lv_style_value_t v = lv_obj_get_style_prop(obj, part, LV_STYLE_BG_OPA);
 154:Drivers/lvgl/lvgl/src/extra/widgets/meter/../../../../src/core/lv_obj_style_gen.h ****     return (lv_opa_t)v.num;
 155:Drivers/lvgl/lvgl/src/extra/widgets/meter/../../../../src/core/lv_obj_style_gen.h **** }
 156:Drivers/lvgl/lvgl/src/extra/widgets/meter/../../../../src/core/lv_obj_style_gen.h **** 
 157:Drivers/lvgl/lvgl/src/extra/widgets/meter/../../../../src/core/lv_obj_style_gen.h **** static inline lv_color_t lv_obj_get_style_bg_grad_color(const struct _lv_obj_t * obj, uint32_t part
 158:Drivers/lvgl/lvgl/src/extra/widgets/meter/../../../../src/core/lv_obj_style_gen.h **** {
 159:Drivers/lvgl/lvgl/src/extra/widgets/meter/../../../../src/core/lv_obj_style_gen.h ****     lv_style_value_t v = lv_obj_get_style_prop(obj, part, LV_STYLE_BG_GRAD_COLOR);
 160:Drivers/lvgl/lvgl/src/extra/widgets/meter/../../../../src/core/lv_obj_style_gen.h ****     return v.color;
 161:Drivers/lvgl/lvgl/src/extra/widgets/meter/../../../../src/core/lv_obj_style_gen.h **** }
 162:Drivers/lvgl/lvgl/src/extra/widgets/meter/../../../../src/core/lv_obj_style_gen.h **** 
 163:Drivers/lvgl/lvgl/src/extra/widgets/meter/../../../../src/core/lv_obj_style_gen.h **** static inline lv_color_t lv_obj_get_style_bg_grad_color_filtered(const struct _lv_obj_t * obj, uint
 164:Drivers/lvgl/lvgl/src/extra/widgets/meter/../../../../src/core/lv_obj_style_gen.h **** {
 165:Drivers/lvgl/lvgl/src/extra/widgets/meter/../../../../src/core/lv_obj_style_gen.h ****     lv_style_value_t v = _lv_obj_style_apply_color_filter(obj, part, lv_obj_get_style_prop(obj, par
 166:Drivers/lvgl/lvgl/src/extra/widgets/meter/../../../../src/core/lv_obj_style_gen.h ****     return v.color;
 167:Drivers/lvgl/lvgl/src/extra/widgets/meter/../../../../src/core/lv_obj_style_gen.h **** }
 168:Drivers/lvgl/lvgl/src/extra/widgets/meter/../../../../src/core/lv_obj_style_gen.h **** 
 169:Drivers/lvgl/lvgl/src/extra/widgets/meter/../../../../src/core/lv_obj_style_gen.h **** static inline lv_grad_dir_t lv_obj_get_style_bg_grad_dir(const struct _lv_obj_t * obj, uint32_t par
 170:Drivers/lvgl/lvgl/src/extra/widgets/meter/../../../../src/core/lv_obj_style_gen.h **** {
 171:Drivers/lvgl/lvgl/src/extra/widgets/meter/../../../../src/core/lv_obj_style_gen.h ****     lv_style_value_t v = lv_obj_get_style_prop(obj, part, LV_STYLE_BG_GRAD_DIR);
 172:Drivers/lvgl/lvgl/src/extra/widgets/meter/../../../../src/core/lv_obj_style_gen.h ****     return (lv_grad_dir_t)v.num;
 173:Drivers/lvgl/lvgl/src/extra/widgets/meter/../../../../src/core/lv_obj_style_gen.h **** }
 174:Drivers/lvgl/lvgl/src/extra/widgets/meter/../../../../src/core/lv_obj_style_gen.h **** 
 175:Drivers/lvgl/lvgl/src/extra/widgets/meter/../../../../src/core/lv_obj_style_gen.h **** static inline lv_coord_t lv_obj_get_style_bg_main_stop(const struct _lv_obj_t * obj, uint32_t part)
 176:Drivers/lvgl/lvgl/src/extra/widgets/meter/../../../../src/core/lv_obj_style_gen.h **** {
 177:Drivers/lvgl/lvgl/src/extra/widgets/meter/../../../../src/core/lv_obj_style_gen.h ****     lv_style_value_t v = lv_obj_get_style_prop(obj, part, LV_STYLE_BG_MAIN_STOP);
 178:Drivers/lvgl/lvgl/src/extra/widgets/meter/../../../../src/core/lv_obj_style_gen.h ****     return (lv_coord_t)v.num;
 179:Drivers/lvgl/lvgl/src/extra/widgets/meter/../../../../src/core/lv_obj_style_gen.h **** }
 180:Drivers/lvgl/lvgl/src/extra/widgets/meter/../../../../src/core/lv_obj_style_gen.h **** 
 181:Drivers/lvgl/lvgl/src/extra/widgets/meter/../../../../src/core/lv_obj_style_gen.h **** static inline lv_coord_t lv_obj_get_style_bg_grad_stop(const struct _lv_obj_t * obj, uint32_t part)
 182:Drivers/lvgl/lvgl/src/extra/widgets/meter/../../../../src/core/lv_obj_style_gen.h **** {
 183:Drivers/lvgl/lvgl/src/extra/widgets/meter/../../../../src/core/lv_obj_style_gen.h ****     lv_style_value_t v = lv_obj_get_style_prop(obj, part, LV_STYLE_BG_GRAD_STOP);
ARM GAS  /tmp/ccVvrzYL.s 			page 11


 184:Drivers/lvgl/lvgl/src/extra/widgets/meter/../../../../src/core/lv_obj_style_gen.h ****     return (lv_coord_t)v.num;
 185:Drivers/lvgl/lvgl/src/extra/widgets/meter/../../../../src/core/lv_obj_style_gen.h **** }
 186:Drivers/lvgl/lvgl/src/extra/widgets/meter/../../../../src/core/lv_obj_style_gen.h **** 
 187:Drivers/lvgl/lvgl/src/extra/widgets/meter/../../../../src/core/lv_obj_style_gen.h **** static inline const lv_grad_dsc_t * lv_obj_get_style_bg_grad(const struct _lv_obj_t * obj, uint32_t
 188:Drivers/lvgl/lvgl/src/extra/widgets/meter/../../../../src/core/lv_obj_style_gen.h **** {
 189:Drivers/lvgl/lvgl/src/extra/widgets/meter/../../../../src/core/lv_obj_style_gen.h ****     lv_style_value_t v = lv_obj_get_style_prop(obj, part, LV_STYLE_BG_GRAD);
 190:Drivers/lvgl/lvgl/src/extra/widgets/meter/../../../../src/core/lv_obj_style_gen.h ****     return (const lv_grad_dsc_t *)v.ptr;
 191:Drivers/lvgl/lvgl/src/extra/widgets/meter/../../../../src/core/lv_obj_style_gen.h **** }
 192:Drivers/lvgl/lvgl/src/extra/widgets/meter/../../../../src/core/lv_obj_style_gen.h **** 
 193:Drivers/lvgl/lvgl/src/extra/widgets/meter/../../../../src/core/lv_obj_style_gen.h **** static inline lv_dither_mode_t lv_obj_get_style_bg_dither_mode(const struct _lv_obj_t * obj, uint32
 194:Drivers/lvgl/lvgl/src/extra/widgets/meter/../../../../src/core/lv_obj_style_gen.h **** {
 195:Drivers/lvgl/lvgl/src/extra/widgets/meter/../../../../src/core/lv_obj_style_gen.h ****     lv_style_value_t v = lv_obj_get_style_prop(obj, part, LV_STYLE_BG_DITHER_MODE);
 196:Drivers/lvgl/lvgl/src/extra/widgets/meter/../../../../src/core/lv_obj_style_gen.h ****     return (lv_dither_mode_t)v.num;
 197:Drivers/lvgl/lvgl/src/extra/widgets/meter/../../../../src/core/lv_obj_style_gen.h **** }
 198:Drivers/lvgl/lvgl/src/extra/widgets/meter/../../../../src/core/lv_obj_style_gen.h **** 
 199:Drivers/lvgl/lvgl/src/extra/widgets/meter/../../../../src/core/lv_obj_style_gen.h **** static inline const void * lv_obj_get_style_bg_img_src(const struct _lv_obj_t * obj, uint32_t part)
 200:Drivers/lvgl/lvgl/src/extra/widgets/meter/../../../../src/core/lv_obj_style_gen.h **** {
 201:Drivers/lvgl/lvgl/src/extra/widgets/meter/../../../../src/core/lv_obj_style_gen.h ****     lv_style_value_t v = lv_obj_get_style_prop(obj, part, LV_STYLE_BG_IMG_SRC);
 202:Drivers/lvgl/lvgl/src/extra/widgets/meter/../../../../src/core/lv_obj_style_gen.h ****     return (const void *)v.ptr;
 203:Drivers/lvgl/lvgl/src/extra/widgets/meter/../../../../src/core/lv_obj_style_gen.h **** }
 204:Drivers/lvgl/lvgl/src/extra/widgets/meter/../../../../src/core/lv_obj_style_gen.h **** 
 205:Drivers/lvgl/lvgl/src/extra/widgets/meter/../../../../src/core/lv_obj_style_gen.h **** static inline lv_opa_t lv_obj_get_style_bg_img_opa(const struct _lv_obj_t * obj, uint32_t part)
 206:Drivers/lvgl/lvgl/src/extra/widgets/meter/../../../../src/core/lv_obj_style_gen.h **** {
 207:Drivers/lvgl/lvgl/src/extra/widgets/meter/../../../../src/core/lv_obj_style_gen.h ****     lv_style_value_t v = lv_obj_get_style_prop(obj, part, LV_STYLE_BG_IMG_OPA);
 208:Drivers/lvgl/lvgl/src/extra/widgets/meter/../../../../src/core/lv_obj_style_gen.h ****     return (lv_opa_t)v.num;
 209:Drivers/lvgl/lvgl/src/extra/widgets/meter/../../../../src/core/lv_obj_style_gen.h **** }
 210:Drivers/lvgl/lvgl/src/extra/widgets/meter/../../../../src/core/lv_obj_style_gen.h **** 
 211:Drivers/lvgl/lvgl/src/extra/widgets/meter/../../../../src/core/lv_obj_style_gen.h **** static inline lv_color_t lv_obj_get_style_bg_img_recolor(const struct _lv_obj_t * obj, uint32_t par
 212:Drivers/lvgl/lvgl/src/extra/widgets/meter/../../../../src/core/lv_obj_style_gen.h **** {
 213:Drivers/lvgl/lvgl/src/extra/widgets/meter/../../../../src/core/lv_obj_style_gen.h ****     lv_style_value_t v = lv_obj_get_style_prop(obj, part, LV_STYLE_BG_IMG_RECOLOR);
 214:Drivers/lvgl/lvgl/src/extra/widgets/meter/../../../../src/core/lv_obj_style_gen.h ****     return v.color;
 215:Drivers/lvgl/lvgl/src/extra/widgets/meter/../../../../src/core/lv_obj_style_gen.h **** }
 216:Drivers/lvgl/lvgl/src/extra/widgets/meter/../../../../src/core/lv_obj_style_gen.h **** 
 217:Drivers/lvgl/lvgl/src/extra/widgets/meter/../../../../src/core/lv_obj_style_gen.h **** static inline lv_color_t lv_obj_get_style_bg_img_recolor_filtered(const struct _lv_obj_t * obj, uin
 218:Drivers/lvgl/lvgl/src/extra/widgets/meter/../../../../src/core/lv_obj_style_gen.h **** {
 219:Drivers/lvgl/lvgl/src/extra/widgets/meter/../../../../src/core/lv_obj_style_gen.h ****     lv_style_value_t v = _lv_obj_style_apply_color_filter(obj, part, lv_obj_get_style_prop(obj, par
 220:Drivers/lvgl/lvgl/src/extra/widgets/meter/../../../../src/core/lv_obj_style_gen.h ****     return v.color;
 221:Drivers/lvgl/lvgl/src/extra/widgets/meter/../../../../src/core/lv_obj_style_gen.h **** }
 222:Drivers/lvgl/lvgl/src/extra/widgets/meter/../../../../src/core/lv_obj_style_gen.h **** 
 223:Drivers/lvgl/lvgl/src/extra/widgets/meter/../../../../src/core/lv_obj_style_gen.h **** static inline lv_opa_t lv_obj_get_style_bg_img_recolor_opa(const struct _lv_obj_t * obj, uint32_t p
 224:Drivers/lvgl/lvgl/src/extra/widgets/meter/../../../../src/core/lv_obj_style_gen.h **** {
 225:Drivers/lvgl/lvgl/src/extra/widgets/meter/../../../../src/core/lv_obj_style_gen.h ****     lv_style_value_t v = lv_obj_get_style_prop(obj, part, LV_STYLE_BG_IMG_RECOLOR_OPA);
 226:Drivers/lvgl/lvgl/src/extra/widgets/meter/../../../../src/core/lv_obj_style_gen.h ****     return (lv_opa_t)v.num;
 227:Drivers/lvgl/lvgl/src/extra/widgets/meter/../../../../src/core/lv_obj_style_gen.h **** }
 228:Drivers/lvgl/lvgl/src/extra/widgets/meter/../../../../src/core/lv_obj_style_gen.h **** 
 229:Drivers/lvgl/lvgl/src/extra/widgets/meter/../../../../src/core/lv_obj_style_gen.h **** static inline bool lv_obj_get_style_bg_img_tiled(const struct _lv_obj_t * obj, uint32_t part)
 230:Drivers/lvgl/lvgl/src/extra/widgets/meter/../../../../src/core/lv_obj_style_gen.h **** {
 231:Drivers/lvgl/lvgl/src/extra/widgets/meter/../../../../src/core/lv_obj_style_gen.h ****     lv_style_value_t v = lv_obj_get_style_prop(obj, part, LV_STYLE_BG_IMG_TILED);
 232:Drivers/lvgl/lvgl/src/extra/widgets/meter/../../../../src/core/lv_obj_style_gen.h ****     return (bool)v.num;
 233:Drivers/lvgl/lvgl/src/extra/widgets/meter/../../../../src/core/lv_obj_style_gen.h **** }
 234:Drivers/lvgl/lvgl/src/extra/widgets/meter/../../../../src/core/lv_obj_style_gen.h **** 
 235:Drivers/lvgl/lvgl/src/extra/widgets/meter/../../../../src/core/lv_obj_style_gen.h **** static inline lv_color_t lv_obj_get_style_border_color(const struct _lv_obj_t * obj, uint32_t part)
 236:Drivers/lvgl/lvgl/src/extra/widgets/meter/../../../../src/core/lv_obj_style_gen.h **** {
 237:Drivers/lvgl/lvgl/src/extra/widgets/meter/../../../../src/core/lv_obj_style_gen.h ****     lv_style_value_t v = lv_obj_get_style_prop(obj, part, LV_STYLE_BORDER_COLOR);
 238:Drivers/lvgl/lvgl/src/extra/widgets/meter/../../../../src/core/lv_obj_style_gen.h ****     return v.color;
 239:Drivers/lvgl/lvgl/src/extra/widgets/meter/../../../../src/core/lv_obj_style_gen.h **** }
 240:Drivers/lvgl/lvgl/src/extra/widgets/meter/../../../../src/core/lv_obj_style_gen.h **** 
ARM GAS  /tmp/ccVvrzYL.s 			page 12


 241:Drivers/lvgl/lvgl/src/extra/widgets/meter/../../../../src/core/lv_obj_style_gen.h **** static inline lv_color_t lv_obj_get_style_border_color_filtered(const struct _lv_obj_t * obj, uint3
 242:Drivers/lvgl/lvgl/src/extra/widgets/meter/../../../../src/core/lv_obj_style_gen.h **** {
 243:Drivers/lvgl/lvgl/src/extra/widgets/meter/../../../../src/core/lv_obj_style_gen.h ****     lv_style_value_t v = _lv_obj_style_apply_color_filter(obj, part, lv_obj_get_style_prop(obj, par
 244:Drivers/lvgl/lvgl/src/extra/widgets/meter/../../../../src/core/lv_obj_style_gen.h ****     return v.color;
 245:Drivers/lvgl/lvgl/src/extra/widgets/meter/../../../../src/core/lv_obj_style_gen.h **** }
 246:Drivers/lvgl/lvgl/src/extra/widgets/meter/../../../../src/core/lv_obj_style_gen.h **** 
 247:Drivers/lvgl/lvgl/src/extra/widgets/meter/../../../../src/core/lv_obj_style_gen.h **** static inline lv_opa_t lv_obj_get_style_border_opa(const struct _lv_obj_t * obj, uint32_t part)
 248:Drivers/lvgl/lvgl/src/extra/widgets/meter/../../../../src/core/lv_obj_style_gen.h **** {
 249:Drivers/lvgl/lvgl/src/extra/widgets/meter/../../../../src/core/lv_obj_style_gen.h ****     lv_style_value_t v = lv_obj_get_style_prop(obj, part, LV_STYLE_BORDER_OPA);
 250:Drivers/lvgl/lvgl/src/extra/widgets/meter/../../../../src/core/lv_obj_style_gen.h ****     return (lv_opa_t)v.num;
 251:Drivers/lvgl/lvgl/src/extra/widgets/meter/../../../../src/core/lv_obj_style_gen.h **** }
 252:Drivers/lvgl/lvgl/src/extra/widgets/meter/../../../../src/core/lv_obj_style_gen.h **** 
 253:Drivers/lvgl/lvgl/src/extra/widgets/meter/../../../../src/core/lv_obj_style_gen.h **** static inline lv_coord_t lv_obj_get_style_border_width(const struct _lv_obj_t * obj, uint32_t part)
 254:Drivers/lvgl/lvgl/src/extra/widgets/meter/../../../../src/core/lv_obj_style_gen.h **** {
 255:Drivers/lvgl/lvgl/src/extra/widgets/meter/../../../../src/core/lv_obj_style_gen.h ****     lv_style_value_t v = lv_obj_get_style_prop(obj, part, LV_STYLE_BORDER_WIDTH);
 256:Drivers/lvgl/lvgl/src/extra/widgets/meter/../../../../src/core/lv_obj_style_gen.h ****     return (lv_coord_t)v.num;
 257:Drivers/lvgl/lvgl/src/extra/widgets/meter/../../../../src/core/lv_obj_style_gen.h **** }
 258:Drivers/lvgl/lvgl/src/extra/widgets/meter/../../../../src/core/lv_obj_style_gen.h **** 
 259:Drivers/lvgl/lvgl/src/extra/widgets/meter/../../../../src/core/lv_obj_style_gen.h **** static inline lv_border_side_t lv_obj_get_style_border_side(const struct _lv_obj_t * obj, uint32_t 
 260:Drivers/lvgl/lvgl/src/extra/widgets/meter/../../../../src/core/lv_obj_style_gen.h **** {
 261:Drivers/lvgl/lvgl/src/extra/widgets/meter/../../../../src/core/lv_obj_style_gen.h ****     lv_style_value_t v = lv_obj_get_style_prop(obj, part, LV_STYLE_BORDER_SIDE);
 262:Drivers/lvgl/lvgl/src/extra/widgets/meter/../../../../src/core/lv_obj_style_gen.h ****     return (lv_border_side_t)v.num;
 263:Drivers/lvgl/lvgl/src/extra/widgets/meter/../../../../src/core/lv_obj_style_gen.h **** }
 264:Drivers/lvgl/lvgl/src/extra/widgets/meter/../../../../src/core/lv_obj_style_gen.h **** 
 265:Drivers/lvgl/lvgl/src/extra/widgets/meter/../../../../src/core/lv_obj_style_gen.h **** static inline bool lv_obj_get_style_border_post(const struct _lv_obj_t * obj, uint32_t part)
 266:Drivers/lvgl/lvgl/src/extra/widgets/meter/../../../../src/core/lv_obj_style_gen.h **** {
 267:Drivers/lvgl/lvgl/src/extra/widgets/meter/../../../../src/core/lv_obj_style_gen.h ****     lv_style_value_t v = lv_obj_get_style_prop(obj, part, LV_STYLE_BORDER_POST);
 268:Drivers/lvgl/lvgl/src/extra/widgets/meter/../../../../src/core/lv_obj_style_gen.h ****     return (bool)v.num;
 269:Drivers/lvgl/lvgl/src/extra/widgets/meter/../../../../src/core/lv_obj_style_gen.h **** }
 270:Drivers/lvgl/lvgl/src/extra/widgets/meter/../../../../src/core/lv_obj_style_gen.h **** 
 271:Drivers/lvgl/lvgl/src/extra/widgets/meter/../../../../src/core/lv_obj_style_gen.h **** static inline lv_coord_t lv_obj_get_style_outline_width(const struct _lv_obj_t * obj, uint32_t part
 272:Drivers/lvgl/lvgl/src/extra/widgets/meter/../../../../src/core/lv_obj_style_gen.h **** {
 273:Drivers/lvgl/lvgl/src/extra/widgets/meter/../../../../src/core/lv_obj_style_gen.h ****     lv_style_value_t v = lv_obj_get_style_prop(obj, part, LV_STYLE_OUTLINE_WIDTH);
 274:Drivers/lvgl/lvgl/src/extra/widgets/meter/../../../../src/core/lv_obj_style_gen.h ****     return (lv_coord_t)v.num;
 275:Drivers/lvgl/lvgl/src/extra/widgets/meter/../../../../src/core/lv_obj_style_gen.h **** }
 276:Drivers/lvgl/lvgl/src/extra/widgets/meter/../../../../src/core/lv_obj_style_gen.h **** 
 277:Drivers/lvgl/lvgl/src/extra/widgets/meter/../../../../src/core/lv_obj_style_gen.h **** static inline lv_color_t lv_obj_get_style_outline_color(const struct _lv_obj_t * obj, uint32_t part
 278:Drivers/lvgl/lvgl/src/extra/widgets/meter/../../../../src/core/lv_obj_style_gen.h **** {
 279:Drivers/lvgl/lvgl/src/extra/widgets/meter/../../../../src/core/lv_obj_style_gen.h ****     lv_style_value_t v = lv_obj_get_style_prop(obj, part, LV_STYLE_OUTLINE_COLOR);
 280:Drivers/lvgl/lvgl/src/extra/widgets/meter/../../../../src/core/lv_obj_style_gen.h ****     return v.color;
 281:Drivers/lvgl/lvgl/src/extra/widgets/meter/../../../../src/core/lv_obj_style_gen.h **** }
 282:Drivers/lvgl/lvgl/src/extra/widgets/meter/../../../../src/core/lv_obj_style_gen.h **** 
 283:Drivers/lvgl/lvgl/src/extra/widgets/meter/../../../../src/core/lv_obj_style_gen.h **** static inline lv_color_t lv_obj_get_style_outline_color_filtered(const struct _lv_obj_t * obj, uint
 284:Drivers/lvgl/lvgl/src/extra/widgets/meter/../../../../src/core/lv_obj_style_gen.h **** {
 285:Drivers/lvgl/lvgl/src/extra/widgets/meter/../../../../src/core/lv_obj_style_gen.h ****     lv_style_value_t v = _lv_obj_style_apply_color_filter(obj, part, lv_obj_get_style_prop(obj, par
 286:Drivers/lvgl/lvgl/src/extra/widgets/meter/../../../../src/core/lv_obj_style_gen.h ****     return v.color;
 287:Drivers/lvgl/lvgl/src/extra/widgets/meter/../../../../src/core/lv_obj_style_gen.h **** }
 288:Drivers/lvgl/lvgl/src/extra/widgets/meter/../../../../src/core/lv_obj_style_gen.h **** 
 289:Drivers/lvgl/lvgl/src/extra/widgets/meter/../../../../src/core/lv_obj_style_gen.h **** static inline lv_opa_t lv_obj_get_style_outline_opa(const struct _lv_obj_t * obj, uint32_t part)
 290:Drivers/lvgl/lvgl/src/extra/widgets/meter/../../../../src/core/lv_obj_style_gen.h **** {
 291:Drivers/lvgl/lvgl/src/extra/widgets/meter/../../../../src/core/lv_obj_style_gen.h ****     lv_style_value_t v = lv_obj_get_style_prop(obj, part, LV_STYLE_OUTLINE_OPA);
 292:Drivers/lvgl/lvgl/src/extra/widgets/meter/../../../../src/core/lv_obj_style_gen.h ****     return (lv_opa_t)v.num;
 293:Drivers/lvgl/lvgl/src/extra/widgets/meter/../../../../src/core/lv_obj_style_gen.h **** }
 294:Drivers/lvgl/lvgl/src/extra/widgets/meter/../../../../src/core/lv_obj_style_gen.h **** 
 295:Drivers/lvgl/lvgl/src/extra/widgets/meter/../../../../src/core/lv_obj_style_gen.h **** static inline lv_coord_t lv_obj_get_style_outline_pad(const struct _lv_obj_t * obj, uint32_t part)
 296:Drivers/lvgl/lvgl/src/extra/widgets/meter/../../../../src/core/lv_obj_style_gen.h **** {
 297:Drivers/lvgl/lvgl/src/extra/widgets/meter/../../../../src/core/lv_obj_style_gen.h ****     lv_style_value_t v = lv_obj_get_style_prop(obj, part, LV_STYLE_OUTLINE_PAD);
ARM GAS  /tmp/ccVvrzYL.s 			page 13


 298:Drivers/lvgl/lvgl/src/extra/widgets/meter/../../../../src/core/lv_obj_style_gen.h ****     return (lv_coord_t)v.num;
 299:Drivers/lvgl/lvgl/src/extra/widgets/meter/../../../../src/core/lv_obj_style_gen.h **** }
 300:Drivers/lvgl/lvgl/src/extra/widgets/meter/../../../../src/core/lv_obj_style_gen.h **** 
 301:Drivers/lvgl/lvgl/src/extra/widgets/meter/../../../../src/core/lv_obj_style_gen.h **** static inline lv_coord_t lv_obj_get_style_shadow_width(const struct _lv_obj_t * obj, uint32_t part)
 302:Drivers/lvgl/lvgl/src/extra/widgets/meter/../../../../src/core/lv_obj_style_gen.h **** {
 303:Drivers/lvgl/lvgl/src/extra/widgets/meter/../../../../src/core/lv_obj_style_gen.h ****     lv_style_value_t v = lv_obj_get_style_prop(obj, part, LV_STYLE_SHADOW_WIDTH);
 304:Drivers/lvgl/lvgl/src/extra/widgets/meter/../../../../src/core/lv_obj_style_gen.h ****     return (lv_coord_t)v.num;
 305:Drivers/lvgl/lvgl/src/extra/widgets/meter/../../../../src/core/lv_obj_style_gen.h **** }
 306:Drivers/lvgl/lvgl/src/extra/widgets/meter/../../../../src/core/lv_obj_style_gen.h **** 
 307:Drivers/lvgl/lvgl/src/extra/widgets/meter/../../../../src/core/lv_obj_style_gen.h **** static inline lv_coord_t lv_obj_get_style_shadow_ofs_x(const struct _lv_obj_t * obj, uint32_t part)
 308:Drivers/lvgl/lvgl/src/extra/widgets/meter/../../../../src/core/lv_obj_style_gen.h **** {
 309:Drivers/lvgl/lvgl/src/extra/widgets/meter/../../../../src/core/lv_obj_style_gen.h ****     lv_style_value_t v = lv_obj_get_style_prop(obj, part, LV_STYLE_SHADOW_OFS_X);
 310:Drivers/lvgl/lvgl/src/extra/widgets/meter/../../../../src/core/lv_obj_style_gen.h ****     return (lv_coord_t)v.num;
 311:Drivers/lvgl/lvgl/src/extra/widgets/meter/../../../../src/core/lv_obj_style_gen.h **** }
 312:Drivers/lvgl/lvgl/src/extra/widgets/meter/../../../../src/core/lv_obj_style_gen.h **** 
 313:Drivers/lvgl/lvgl/src/extra/widgets/meter/../../../../src/core/lv_obj_style_gen.h **** static inline lv_coord_t lv_obj_get_style_shadow_ofs_y(const struct _lv_obj_t * obj, uint32_t part)
 314:Drivers/lvgl/lvgl/src/extra/widgets/meter/../../../../src/core/lv_obj_style_gen.h **** {
 315:Drivers/lvgl/lvgl/src/extra/widgets/meter/../../../../src/core/lv_obj_style_gen.h ****     lv_style_value_t v = lv_obj_get_style_prop(obj, part, LV_STYLE_SHADOW_OFS_Y);
 316:Drivers/lvgl/lvgl/src/extra/widgets/meter/../../../../src/core/lv_obj_style_gen.h ****     return (lv_coord_t)v.num;
 317:Drivers/lvgl/lvgl/src/extra/widgets/meter/../../../../src/core/lv_obj_style_gen.h **** }
 318:Drivers/lvgl/lvgl/src/extra/widgets/meter/../../../../src/core/lv_obj_style_gen.h **** 
 319:Drivers/lvgl/lvgl/src/extra/widgets/meter/../../../../src/core/lv_obj_style_gen.h **** static inline lv_coord_t lv_obj_get_style_shadow_spread(const struct _lv_obj_t * obj, uint32_t part
 320:Drivers/lvgl/lvgl/src/extra/widgets/meter/../../../../src/core/lv_obj_style_gen.h **** {
 321:Drivers/lvgl/lvgl/src/extra/widgets/meter/../../../../src/core/lv_obj_style_gen.h ****     lv_style_value_t v = lv_obj_get_style_prop(obj, part, LV_STYLE_SHADOW_SPREAD);
 322:Drivers/lvgl/lvgl/src/extra/widgets/meter/../../../../src/core/lv_obj_style_gen.h ****     return (lv_coord_t)v.num;
 323:Drivers/lvgl/lvgl/src/extra/widgets/meter/../../../../src/core/lv_obj_style_gen.h **** }
 324:Drivers/lvgl/lvgl/src/extra/widgets/meter/../../../../src/core/lv_obj_style_gen.h **** 
 325:Drivers/lvgl/lvgl/src/extra/widgets/meter/../../../../src/core/lv_obj_style_gen.h **** static inline lv_color_t lv_obj_get_style_shadow_color(const struct _lv_obj_t * obj, uint32_t part)
 326:Drivers/lvgl/lvgl/src/extra/widgets/meter/../../../../src/core/lv_obj_style_gen.h **** {
 327:Drivers/lvgl/lvgl/src/extra/widgets/meter/../../../../src/core/lv_obj_style_gen.h ****     lv_style_value_t v = lv_obj_get_style_prop(obj, part, LV_STYLE_SHADOW_COLOR);
 328:Drivers/lvgl/lvgl/src/extra/widgets/meter/../../../../src/core/lv_obj_style_gen.h ****     return v.color;
 329:Drivers/lvgl/lvgl/src/extra/widgets/meter/../../../../src/core/lv_obj_style_gen.h **** }
 330:Drivers/lvgl/lvgl/src/extra/widgets/meter/../../../../src/core/lv_obj_style_gen.h **** 
 331:Drivers/lvgl/lvgl/src/extra/widgets/meter/../../../../src/core/lv_obj_style_gen.h **** static inline lv_color_t lv_obj_get_style_shadow_color_filtered(const struct _lv_obj_t * obj, uint3
 332:Drivers/lvgl/lvgl/src/extra/widgets/meter/../../../../src/core/lv_obj_style_gen.h **** {
 333:Drivers/lvgl/lvgl/src/extra/widgets/meter/../../../../src/core/lv_obj_style_gen.h ****     lv_style_value_t v = _lv_obj_style_apply_color_filter(obj, part, lv_obj_get_style_prop(obj, par
 334:Drivers/lvgl/lvgl/src/extra/widgets/meter/../../../../src/core/lv_obj_style_gen.h ****     return v.color;
 335:Drivers/lvgl/lvgl/src/extra/widgets/meter/../../../../src/core/lv_obj_style_gen.h **** }
 336:Drivers/lvgl/lvgl/src/extra/widgets/meter/../../../../src/core/lv_obj_style_gen.h **** 
 337:Drivers/lvgl/lvgl/src/extra/widgets/meter/../../../../src/core/lv_obj_style_gen.h **** static inline lv_opa_t lv_obj_get_style_shadow_opa(const struct _lv_obj_t * obj, uint32_t part)
 338:Drivers/lvgl/lvgl/src/extra/widgets/meter/../../../../src/core/lv_obj_style_gen.h **** {
 339:Drivers/lvgl/lvgl/src/extra/widgets/meter/../../../../src/core/lv_obj_style_gen.h ****     lv_style_value_t v = lv_obj_get_style_prop(obj, part, LV_STYLE_SHADOW_OPA);
 340:Drivers/lvgl/lvgl/src/extra/widgets/meter/../../../../src/core/lv_obj_style_gen.h ****     return (lv_opa_t)v.num;
 341:Drivers/lvgl/lvgl/src/extra/widgets/meter/../../../../src/core/lv_obj_style_gen.h **** }
 342:Drivers/lvgl/lvgl/src/extra/widgets/meter/../../../../src/core/lv_obj_style_gen.h **** 
 343:Drivers/lvgl/lvgl/src/extra/widgets/meter/../../../../src/core/lv_obj_style_gen.h **** static inline lv_opa_t lv_obj_get_style_img_opa(const struct _lv_obj_t * obj, uint32_t part)
 344:Drivers/lvgl/lvgl/src/extra/widgets/meter/../../../../src/core/lv_obj_style_gen.h **** {
 345:Drivers/lvgl/lvgl/src/extra/widgets/meter/../../../../src/core/lv_obj_style_gen.h ****     lv_style_value_t v = lv_obj_get_style_prop(obj, part, LV_STYLE_IMG_OPA);
 346:Drivers/lvgl/lvgl/src/extra/widgets/meter/../../../../src/core/lv_obj_style_gen.h ****     return (lv_opa_t)v.num;
 347:Drivers/lvgl/lvgl/src/extra/widgets/meter/../../../../src/core/lv_obj_style_gen.h **** }
 348:Drivers/lvgl/lvgl/src/extra/widgets/meter/../../../../src/core/lv_obj_style_gen.h **** 
 349:Drivers/lvgl/lvgl/src/extra/widgets/meter/../../../../src/core/lv_obj_style_gen.h **** static inline lv_color_t lv_obj_get_style_img_recolor(const struct _lv_obj_t * obj, uint32_t part)
 350:Drivers/lvgl/lvgl/src/extra/widgets/meter/../../../../src/core/lv_obj_style_gen.h **** {
 351:Drivers/lvgl/lvgl/src/extra/widgets/meter/../../../../src/core/lv_obj_style_gen.h ****     lv_style_value_t v = lv_obj_get_style_prop(obj, part, LV_STYLE_IMG_RECOLOR);
 352:Drivers/lvgl/lvgl/src/extra/widgets/meter/../../../../src/core/lv_obj_style_gen.h ****     return v.color;
 353:Drivers/lvgl/lvgl/src/extra/widgets/meter/../../../../src/core/lv_obj_style_gen.h **** }
 354:Drivers/lvgl/lvgl/src/extra/widgets/meter/../../../../src/core/lv_obj_style_gen.h **** 
ARM GAS  /tmp/ccVvrzYL.s 			page 14


 355:Drivers/lvgl/lvgl/src/extra/widgets/meter/../../../../src/core/lv_obj_style_gen.h **** static inline lv_color_t lv_obj_get_style_img_recolor_filtered(const struct _lv_obj_t * obj, uint32
 356:Drivers/lvgl/lvgl/src/extra/widgets/meter/../../../../src/core/lv_obj_style_gen.h **** {
 357:Drivers/lvgl/lvgl/src/extra/widgets/meter/../../../../src/core/lv_obj_style_gen.h ****     lv_style_value_t v = _lv_obj_style_apply_color_filter(obj, part, lv_obj_get_style_prop(obj, par
 358:Drivers/lvgl/lvgl/src/extra/widgets/meter/../../../../src/core/lv_obj_style_gen.h ****     return v.color;
 359:Drivers/lvgl/lvgl/src/extra/widgets/meter/../../../../src/core/lv_obj_style_gen.h **** }
 360:Drivers/lvgl/lvgl/src/extra/widgets/meter/../../../../src/core/lv_obj_style_gen.h **** 
 361:Drivers/lvgl/lvgl/src/extra/widgets/meter/../../../../src/core/lv_obj_style_gen.h **** static inline lv_opa_t lv_obj_get_style_img_recolor_opa(const struct _lv_obj_t * obj, uint32_t part
 362:Drivers/lvgl/lvgl/src/extra/widgets/meter/../../../../src/core/lv_obj_style_gen.h **** {
 363:Drivers/lvgl/lvgl/src/extra/widgets/meter/../../../../src/core/lv_obj_style_gen.h ****     lv_style_value_t v = lv_obj_get_style_prop(obj, part, LV_STYLE_IMG_RECOLOR_OPA);
 364:Drivers/lvgl/lvgl/src/extra/widgets/meter/../../../../src/core/lv_obj_style_gen.h ****     return (lv_opa_t)v.num;
 365:Drivers/lvgl/lvgl/src/extra/widgets/meter/../../../../src/core/lv_obj_style_gen.h **** }
 366:Drivers/lvgl/lvgl/src/extra/widgets/meter/../../../../src/core/lv_obj_style_gen.h **** 
 367:Drivers/lvgl/lvgl/src/extra/widgets/meter/../../../../src/core/lv_obj_style_gen.h **** static inline lv_coord_t lv_obj_get_style_line_width(const struct _lv_obj_t * obj, uint32_t part)
 368:Drivers/lvgl/lvgl/src/extra/widgets/meter/../../../../src/core/lv_obj_style_gen.h **** {
 369:Drivers/lvgl/lvgl/src/extra/widgets/meter/../../../../src/core/lv_obj_style_gen.h ****     lv_style_value_t v = lv_obj_get_style_prop(obj, part, LV_STYLE_LINE_WIDTH);
 370:Drivers/lvgl/lvgl/src/extra/widgets/meter/../../../../src/core/lv_obj_style_gen.h ****     return (lv_coord_t)v.num;
 371:Drivers/lvgl/lvgl/src/extra/widgets/meter/../../../../src/core/lv_obj_style_gen.h **** }
 372:Drivers/lvgl/lvgl/src/extra/widgets/meter/../../../../src/core/lv_obj_style_gen.h **** 
 373:Drivers/lvgl/lvgl/src/extra/widgets/meter/../../../../src/core/lv_obj_style_gen.h **** static inline lv_coord_t lv_obj_get_style_line_dash_width(const struct _lv_obj_t * obj, uint32_t pa
 374:Drivers/lvgl/lvgl/src/extra/widgets/meter/../../../../src/core/lv_obj_style_gen.h **** {
 375:Drivers/lvgl/lvgl/src/extra/widgets/meter/../../../../src/core/lv_obj_style_gen.h ****     lv_style_value_t v = lv_obj_get_style_prop(obj, part, LV_STYLE_LINE_DASH_WIDTH);
 376:Drivers/lvgl/lvgl/src/extra/widgets/meter/../../../../src/core/lv_obj_style_gen.h ****     return (lv_coord_t)v.num;
 377:Drivers/lvgl/lvgl/src/extra/widgets/meter/../../../../src/core/lv_obj_style_gen.h **** }
 378:Drivers/lvgl/lvgl/src/extra/widgets/meter/../../../../src/core/lv_obj_style_gen.h **** 
 379:Drivers/lvgl/lvgl/src/extra/widgets/meter/../../../../src/core/lv_obj_style_gen.h **** static inline lv_coord_t lv_obj_get_style_line_dash_gap(const struct _lv_obj_t * obj, uint32_t part
 380:Drivers/lvgl/lvgl/src/extra/widgets/meter/../../../../src/core/lv_obj_style_gen.h **** {
 381:Drivers/lvgl/lvgl/src/extra/widgets/meter/../../../../src/core/lv_obj_style_gen.h ****     lv_style_value_t v = lv_obj_get_style_prop(obj, part, LV_STYLE_LINE_DASH_GAP);
 382:Drivers/lvgl/lvgl/src/extra/widgets/meter/../../../../src/core/lv_obj_style_gen.h ****     return (lv_coord_t)v.num;
 383:Drivers/lvgl/lvgl/src/extra/widgets/meter/../../../../src/core/lv_obj_style_gen.h **** }
 384:Drivers/lvgl/lvgl/src/extra/widgets/meter/../../../../src/core/lv_obj_style_gen.h **** 
 385:Drivers/lvgl/lvgl/src/extra/widgets/meter/../../../../src/core/lv_obj_style_gen.h **** static inline bool lv_obj_get_style_line_rounded(const struct _lv_obj_t * obj, uint32_t part)
 386:Drivers/lvgl/lvgl/src/extra/widgets/meter/../../../../src/core/lv_obj_style_gen.h **** {
 387:Drivers/lvgl/lvgl/src/extra/widgets/meter/../../../../src/core/lv_obj_style_gen.h ****     lv_style_value_t v = lv_obj_get_style_prop(obj, part, LV_STYLE_LINE_ROUNDED);
 388:Drivers/lvgl/lvgl/src/extra/widgets/meter/../../../../src/core/lv_obj_style_gen.h ****     return (bool)v.num;
 389:Drivers/lvgl/lvgl/src/extra/widgets/meter/../../../../src/core/lv_obj_style_gen.h **** }
 390:Drivers/lvgl/lvgl/src/extra/widgets/meter/../../../../src/core/lv_obj_style_gen.h **** 
 391:Drivers/lvgl/lvgl/src/extra/widgets/meter/../../../../src/core/lv_obj_style_gen.h **** static inline lv_color_t lv_obj_get_style_line_color(const struct _lv_obj_t * obj, uint32_t part)
 392:Drivers/lvgl/lvgl/src/extra/widgets/meter/../../../../src/core/lv_obj_style_gen.h **** {
 393:Drivers/lvgl/lvgl/src/extra/widgets/meter/../../../../src/core/lv_obj_style_gen.h ****     lv_style_value_t v = lv_obj_get_style_prop(obj, part, LV_STYLE_LINE_COLOR);
 394:Drivers/lvgl/lvgl/src/extra/widgets/meter/../../../../src/core/lv_obj_style_gen.h ****     return v.color;
 395:Drivers/lvgl/lvgl/src/extra/widgets/meter/../../../../src/core/lv_obj_style_gen.h **** }
 396:Drivers/lvgl/lvgl/src/extra/widgets/meter/../../../../src/core/lv_obj_style_gen.h **** 
 397:Drivers/lvgl/lvgl/src/extra/widgets/meter/../../../../src/core/lv_obj_style_gen.h **** static inline lv_color_t lv_obj_get_style_line_color_filtered(const struct _lv_obj_t * obj, uint32_
 398:Drivers/lvgl/lvgl/src/extra/widgets/meter/../../../../src/core/lv_obj_style_gen.h **** {
 399:Drivers/lvgl/lvgl/src/extra/widgets/meter/../../../../src/core/lv_obj_style_gen.h ****     lv_style_value_t v = _lv_obj_style_apply_color_filter(obj, part, lv_obj_get_style_prop(obj, par
 400:Drivers/lvgl/lvgl/src/extra/widgets/meter/../../../../src/core/lv_obj_style_gen.h ****     return v.color;
 401:Drivers/lvgl/lvgl/src/extra/widgets/meter/../../../../src/core/lv_obj_style_gen.h **** }
 402:Drivers/lvgl/lvgl/src/extra/widgets/meter/../../../../src/core/lv_obj_style_gen.h **** 
 403:Drivers/lvgl/lvgl/src/extra/widgets/meter/../../../../src/core/lv_obj_style_gen.h **** static inline lv_opa_t lv_obj_get_style_line_opa(const struct _lv_obj_t * obj, uint32_t part)
 404:Drivers/lvgl/lvgl/src/extra/widgets/meter/../../../../src/core/lv_obj_style_gen.h **** {
 405:Drivers/lvgl/lvgl/src/extra/widgets/meter/../../../../src/core/lv_obj_style_gen.h ****     lv_style_value_t v = lv_obj_get_style_prop(obj, part, LV_STYLE_LINE_OPA);
 406:Drivers/lvgl/lvgl/src/extra/widgets/meter/../../../../src/core/lv_obj_style_gen.h ****     return (lv_opa_t)v.num;
 407:Drivers/lvgl/lvgl/src/extra/widgets/meter/../../../../src/core/lv_obj_style_gen.h **** }
 408:Drivers/lvgl/lvgl/src/extra/widgets/meter/../../../../src/core/lv_obj_style_gen.h **** 
 409:Drivers/lvgl/lvgl/src/extra/widgets/meter/../../../../src/core/lv_obj_style_gen.h **** static inline lv_coord_t lv_obj_get_style_arc_width(const struct _lv_obj_t * obj, uint32_t part)
 410:Drivers/lvgl/lvgl/src/extra/widgets/meter/../../../../src/core/lv_obj_style_gen.h **** {
 411:Drivers/lvgl/lvgl/src/extra/widgets/meter/../../../../src/core/lv_obj_style_gen.h ****     lv_style_value_t v = lv_obj_get_style_prop(obj, part, LV_STYLE_ARC_WIDTH);
ARM GAS  /tmp/ccVvrzYL.s 			page 15


 412:Drivers/lvgl/lvgl/src/extra/widgets/meter/../../../../src/core/lv_obj_style_gen.h ****     return (lv_coord_t)v.num;
 413:Drivers/lvgl/lvgl/src/extra/widgets/meter/../../../../src/core/lv_obj_style_gen.h **** }
 414:Drivers/lvgl/lvgl/src/extra/widgets/meter/../../../../src/core/lv_obj_style_gen.h **** 
 415:Drivers/lvgl/lvgl/src/extra/widgets/meter/../../../../src/core/lv_obj_style_gen.h **** static inline bool lv_obj_get_style_arc_rounded(const struct _lv_obj_t * obj, uint32_t part)
 416:Drivers/lvgl/lvgl/src/extra/widgets/meter/../../../../src/core/lv_obj_style_gen.h **** {
 417:Drivers/lvgl/lvgl/src/extra/widgets/meter/../../../../src/core/lv_obj_style_gen.h ****     lv_style_value_t v = lv_obj_get_style_prop(obj, part, LV_STYLE_ARC_ROUNDED);
  58              		.loc 2 417 0
  59 0012 5122     		movs	r2, #81
  60 0014 4FF4A021 		mov	r1, #327680
  61 0018 4046     		mov	r0, r8
  62 001a FFF7FEFF 		bl	lv_obj_get_style_prop
  63              	.LVL4:
 418:Drivers/lvgl/lvgl/src/extra/widgets/meter/../../../../src/core/lv_obj_style_gen.h ****     return (bool)v.num;
  64              		.loc 2 418 0
  65 001e 0030     		adds	r0, r0, #0
  66 0020 18BF     		it	ne
  67 0022 0120     		movne	r0, #1
  68              	.LVL5:
  69              	.LBE50:
  70              	.LBE49:
 332:Drivers/lvgl/lvgl/src/extra/widgets/meter/lv_meter.c ****     arc_dsc.rounded = lv_obj_get_style_arc_rounded(obj, LV_PART_ITEMS);
  71              		.loc 1 332 0
  72 0024 9DF86D30 		ldrb	r3, [sp, #109]	@ zero_extendqisi2
  73 0028 60F38203 		bfi	r3, r0, #2, #1
  74 002c 8DF86D30 		strb	r3, [sp, #109]
  75              	.LVL6:
  76              	.LBB51:
  77              	.LBB52:
  78              		.file 3 "Drivers/lvgl/lvgl/src/extra/widgets/meter/../../../../src/hal/../draw/../misc/../font/../
   1:Drivers/lvgl/lvgl/src/extra/widgets/meter/../../../../src/hal/../draw/../misc/../font/../misc/lv_area.h **** /**
   2:Drivers/lvgl/lvgl/src/extra/widgets/meter/../../../../src/hal/../draw/../misc/../font/../misc/lv_area.h ****  * @file lv_area.h
   3:Drivers/lvgl/lvgl/src/extra/widgets/meter/../../../../src/hal/../draw/../misc/../font/../misc/lv_area.h ****  *
   4:Drivers/lvgl/lvgl/src/extra/widgets/meter/../../../../src/hal/../draw/../misc/../font/../misc/lv_area.h ****  */
   5:Drivers/lvgl/lvgl/src/extra/widgets/meter/../../../../src/hal/../draw/../misc/../font/../misc/lv_area.h **** 
   6:Drivers/lvgl/lvgl/src/extra/widgets/meter/../../../../src/hal/../draw/../misc/../font/../misc/lv_area.h **** #ifndef LV_AREA_H
   7:Drivers/lvgl/lvgl/src/extra/widgets/meter/../../../../src/hal/../draw/../misc/../font/../misc/lv_area.h **** #define LV_AREA_H
   8:Drivers/lvgl/lvgl/src/extra/widgets/meter/../../../../src/hal/../draw/../misc/../font/../misc/lv_area.h **** 
   9:Drivers/lvgl/lvgl/src/extra/widgets/meter/../../../../src/hal/../draw/../misc/../font/../misc/lv_area.h **** #ifdef __cplusplus
  10:Drivers/lvgl/lvgl/src/extra/widgets/meter/../../../../src/hal/../draw/../misc/../font/../misc/lv_area.h **** extern "C" {
  11:Drivers/lvgl/lvgl/src/extra/widgets/meter/../../../../src/hal/../draw/../misc/../font/../misc/lv_area.h **** #endif
  12:Drivers/lvgl/lvgl/src/extra/widgets/meter/../../../../src/hal/../draw/../misc/../font/../misc/lv_area.h **** 
  13:Drivers/lvgl/lvgl/src/extra/widgets/meter/../../../../src/hal/../draw/../misc/../font/../misc/lv_area.h **** /*********************
  14:Drivers/lvgl/lvgl/src/extra/widgets/meter/../../../../src/hal/../draw/../misc/../font/../misc/lv_area.h ****  *      INCLUDES
  15:Drivers/lvgl/lvgl/src/extra/widgets/meter/../../../../src/hal/../draw/../misc/../font/../misc/lv_area.h ****  *********************/
  16:Drivers/lvgl/lvgl/src/extra/widgets/meter/../../../../src/hal/../draw/../misc/../font/../misc/lv_area.h **** #include "../lv_conf_internal.h"
  17:Drivers/lvgl/lvgl/src/extra/widgets/meter/../../../../src/hal/../draw/../misc/../font/../misc/lv_area.h **** #include <stdbool.h>
  18:Drivers/lvgl/lvgl/src/extra/widgets/meter/../../../../src/hal/../draw/../misc/../font/../misc/lv_area.h **** #include <stdint.h>
  19:Drivers/lvgl/lvgl/src/extra/widgets/meter/../../../../src/hal/../draw/../misc/../font/../misc/lv_area.h **** 
  20:Drivers/lvgl/lvgl/src/extra/widgets/meter/../../../../src/hal/../draw/../misc/../font/../misc/lv_area.h **** /*********************
  21:Drivers/lvgl/lvgl/src/extra/widgets/meter/../../../../src/hal/../draw/../misc/../font/../misc/lv_area.h ****  *      DEFINES
  22:Drivers/lvgl/lvgl/src/extra/widgets/meter/../../../../src/hal/../draw/../misc/../font/../misc/lv_area.h ****  *********************/
  23:Drivers/lvgl/lvgl/src/extra/widgets/meter/../../../../src/hal/../draw/../misc/../font/../misc/lv_area.h **** 
  24:Drivers/lvgl/lvgl/src/extra/widgets/meter/../../../../src/hal/../draw/../misc/../font/../misc/lv_area.h **** #if LV_USE_LARGE_COORD
  25:Drivers/lvgl/lvgl/src/extra/widgets/meter/../../../../src/hal/../draw/../misc/../font/../misc/lv_area.h **** typedef int32_t lv_coord_t;
  26:Drivers/lvgl/lvgl/src/extra/widgets/meter/../../../../src/hal/../draw/../misc/../font/../misc/lv_area.h **** #else
  27:Drivers/lvgl/lvgl/src/extra/widgets/meter/../../../../src/hal/../draw/../misc/../font/../misc/lv_area.h **** typedef int16_t lv_coord_t;
  28:Drivers/lvgl/lvgl/src/extra/widgets/meter/../../../../src/hal/../draw/../misc/../font/../misc/lv_area.h **** #endif
ARM GAS  /tmp/ccVvrzYL.s 			page 16


  29:Drivers/lvgl/lvgl/src/extra/widgets/meter/../../../../src/hal/../draw/../misc/../font/../misc/lv_area.h **** 
  30:Drivers/lvgl/lvgl/src/extra/widgets/meter/../../../../src/hal/../draw/../misc/../font/../misc/lv_area.h **** /**********************
  31:Drivers/lvgl/lvgl/src/extra/widgets/meter/../../../../src/hal/../draw/../misc/../font/../misc/lv_area.h ****  *      TYPEDEFS
  32:Drivers/lvgl/lvgl/src/extra/widgets/meter/../../../../src/hal/../draw/../misc/../font/../misc/lv_area.h ****  **********************/
  33:Drivers/lvgl/lvgl/src/extra/widgets/meter/../../../../src/hal/../draw/../misc/../font/../misc/lv_area.h **** 
  34:Drivers/lvgl/lvgl/src/extra/widgets/meter/../../../../src/hal/../draw/../misc/../font/../misc/lv_area.h **** /**
  35:Drivers/lvgl/lvgl/src/extra/widgets/meter/../../../../src/hal/../draw/../misc/../font/../misc/lv_area.h ****  * Represents a point on the screen.
  36:Drivers/lvgl/lvgl/src/extra/widgets/meter/../../../../src/hal/../draw/../misc/../font/../misc/lv_area.h ****  */
  37:Drivers/lvgl/lvgl/src/extra/widgets/meter/../../../../src/hal/../draw/../misc/../font/../misc/lv_area.h **** typedef struct {
  38:Drivers/lvgl/lvgl/src/extra/widgets/meter/../../../../src/hal/../draw/../misc/../font/../misc/lv_area.h ****     lv_coord_t x;
  39:Drivers/lvgl/lvgl/src/extra/widgets/meter/../../../../src/hal/../draw/../misc/../font/../misc/lv_area.h ****     lv_coord_t y;
  40:Drivers/lvgl/lvgl/src/extra/widgets/meter/../../../../src/hal/../draw/../misc/../font/../misc/lv_area.h **** } lv_point_t;
  41:Drivers/lvgl/lvgl/src/extra/widgets/meter/../../../../src/hal/../draw/../misc/../font/../misc/lv_area.h **** 
  42:Drivers/lvgl/lvgl/src/extra/widgets/meter/../../../../src/hal/../draw/../misc/../font/../misc/lv_area.h **** /** Represents an area of the screen.*/
  43:Drivers/lvgl/lvgl/src/extra/widgets/meter/../../../../src/hal/../draw/../misc/../font/../misc/lv_area.h **** typedef struct {
  44:Drivers/lvgl/lvgl/src/extra/widgets/meter/../../../../src/hal/../draw/../misc/../font/../misc/lv_area.h ****     lv_coord_t x1;
  45:Drivers/lvgl/lvgl/src/extra/widgets/meter/../../../../src/hal/../draw/../misc/../font/../misc/lv_area.h ****     lv_coord_t y1;
  46:Drivers/lvgl/lvgl/src/extra/widgets/meter/../../../../src/hal/../draw/../misc/../font/../misc/lv_area.h ****     lv_coord_t x2;
  47:Drivers/lvgl/lvgl/src/extra/widgets/meter/../../../../src/hal/../draw/../misc/../font/../misc/lv_area.h ****     lv_coord_t y2;
  48:Drivers/lvgl/lvgl/src/extra/widgets/meter/../../../../src/hal/../draw/../misc/../font/../misc/lv_area.h **** } lv_area_t;
  49:Drivers/lvgl/lvgl/src/extra/widgets/meter/../../../../src/hal/../draw/../misc/../font/../misc/lv_area.h **** 
  50:Drivers/lvgl/lvgl/src/extra/widgets/meter/../../../../src/hal/../draw/../misc/../font/../misc/lv_area.h **** /** Alignments*/
  51:Drivers/lvgl/lvgl/src/extra/widgets/meter/../../../../src/hal/../draw/../misc/../font/../misc/lv_area.h **** enum {
  52:Drivers/lvgl/lvgl/src/extra/widgets/meter/../../../../src/hal/../draw/../misc/../font/../misc/lv_area.h ****     LV_ALIGN_DEFAULT = 0,
  53:Drivers/lvgl/lvgl/src/extra/widgets/meter/../../../../src/hal/../draw/../misc/../font/../misc/lv_area.h ****     LV_ALIGN_TOP_LEFT,
  54:Drivers/lvgl/lvgl/src/extra/widgets/meter/../../../../src/hal/../draw/../misc/../font/../misc/lv_area.h ****     LV_ALIGN_TOP_MID,
  55:Drivers/lvgl/lvgl/src/extra/widgets/meter/../../../../src/hal/../draw/../misc/../font/../misc/lv_area.h ****     LV_ALIGN_TOP_RIGHT,
  56:Drivers/lvgl/lvgl/src/extra/widgets/meter/../../../../src/hal/../draw/../misc/../font/../misc/lv_area.h ****     LV_ALIGN_BOTTOM_LEFT,
  57:Drivers/lvgl/lvgl/src/extra/widgets/meter/../../../../src/hal/../draw/../misc/../font/../misc/lv_area.h ****     LV_ALIGN_BOTTOM_MID,
  58:Drivers/lvgl/lvgl/src/extra/widgets/meter/../../../../src/hal/../draw/../misc/../font/../misc/lv_area.h ****     LV_ALIGN_BOTTOM_RIGHT,
  59:Drivers/lvgl/lvgl/src/extra/widgets/meter/../../../../src/hal/../draw/../misc/../font/../misc/lv_area.h ****     LV_ALIGN_LEFT_MID,
  60:Drivers/lvgl/lvgl/src/extra/widgets/meter/../../../../src/hal/../draw/../misc/../font/../misc/lv_area.h ****     LV_ALIGN_RIGHT_MID,
  61:Drivers/lvgl/lvgl/src/extra/widgets/meter/../../../../src/hal/../draw/../misc/../font/../misc/lv_area.h ****     LV_ALIGN_CENTER,
  62:Drivers/lvgl/lvgl/src/extra/widgets/meter/../../../../src/hal/../draw/../misc/../font/../misc/lv_area.h **** 
  63:Drivers/lvgl/lvgl/src/extra/widgets/meter/../../../../src/hal/../draw/../misc/../font/../misc/lv_area.h ****     LV_ALIGN_OUT_TOP_LEFT,
  64:Drivers/lvgl/lvgl/src/extra/widgets/meter/../../../../src/hal/../draw/../misc/../font/../misc/lv_area.h ****     LV_ALIGN_OUT_TOP_MID,
  65:Drivers/lvgl/lvgl/src/extra/widgets/meter/../../../../src/hal/../draw/../misc/../font/../misc/lv_area.h ****     LV_ALIGN_OUT_TOP_RIGHT,
  66:Drivers/lvgl/lvgl/src/extra/widgets/meter/../../../../src/hal/../draw/../misc/../font/../misc/lv_area.h ****     LV_ALIGN_OUT_BOTTOM_LEFT,
  67:Drivers/lvgl/lvgl/src/extra/widgets/meter/../../../../src/hal/../draw/../misc/../font/../misc/lv_area.h ****     LV_ALIGN_OUT_BOTTOM_MID,
  68:Drivers/lvgl/lvgl/src/extra/widgets/meter/../../../../src/hal/../draw/../misc/../font/../misc/lv_area.h ****     LV_ALIGN_OUT_BOTTOM_RIGHT,
  69:Drivers/lvgl/lvgl/src/extra/widgets/meter/../../../../src/hal/../draw/../misc/../font/../misc/lv_area.h ****     LV_ALIGN_OUT_LEFT_TOP,
  70:Drivers/lvgl/lvgl/src/extra/widgets/meter/../../../../src/hal/../draw/../misc/../font/../misc/lv_area.h ****     LV_ALIGN_OUT_LEFT_MID,
  71:Drivers/lvgl/lvgl/src/extra/widgets/meter/../../../../src/hal/../draw/../misc/../font/../misc/lv_area.h ****     LV_ALIGN_OUT_LEFT_BOTTOM,
  72:Drivers/lvgl/lvgl/src/extra/widgets/meter/../../../../src/hal/../draw/../misc/../font/../misc/lv_area.h ****     LV_ALIGN_OUT_RIGHT_TOP,
  73:Drivers/lvgl/lvgl/src/extra/widgets/meter/../../../../src/hal/../draw/../misc/../font/../misc/lv_area.h ****     LV_ALIGN_OUT_RIGHT_MID,
  74:Drivers/lvgl/lvgl/src/extra/widgets/meter/../../../../src/hal/../draw/../misc/../font/../misc/lv_area.h ****     LV_ALIGN_OUT_RIGHT_BOTTOM,
  75:Drivers/lvgl/lvgl/src/extra/widgets/meter/../../../../src/hal/../draw/../misc/../font/../misc/lv_area.h **** };
  76:Drivers/lvgl/lvgl/src/extra/widgets/meter/../../../../src/hal/../draw/../misc/../font/../misc/lv_area.h **** typedef uint8_t lv_align_t;
  77:Drivers/lvgl/lvgl/src/extra/widgets/meter/../../../../src/hal/../draw/../misc/../font/../misc/lv_area.h **** 
  78:Drivers/lvgl/lvgl/src/extra/widgets/meter/../../../../src/hal/../draw/../misc/../font/../misc/lv_area.h **** enum {
  79:Drivers/lvgl/lvgl/src/extra/widgets/meter/../../../../src/hal/../draw/../misc/../font/../misc/lv_area.h ****     LV_DIR_NONE     = 0x00,
  80:Drivers/lvgl/lvgl/src/extra/widgets/meter/../../../../src/hal/../draw/../misc/../font/../misc/lv_area.h ****     LV_DIR_LEFT     = (1 << 0),
  81:Drivers/lvgl/lvgl/src/extra/widgets/meter/../../../../src/hal/../draw/../misc/../font/../misc/lv_area.h ****     LV_DIR_RIGHT    = (1 << 1),
  82:Drivers/lvgl/lvgl/src/extra/widgets/meter/../../../../src/hal/../draw/../misc/../font/../misc/lv_area.h ****     LV_DIR_TOP      = (1 << 2),
  83:Drivers/lvgl/lvgl/src/extra/widgets/meter/../../../../src/hal/../draw/../misc/../font/../misc/lv_area.h ****     LV_DIR_BOTTOM   = (1 << 3),
  84:Drivers/lvgl/lvgl/src/extra/widgets/meter/../../../../src/hal/../draw/../misc/../font/../misc/lv_area.h ****     LV_DIR_HOR      = LV_DIR_LEFT | LV_DIR_RIGHT,
  85:Drivers/lvgl/lvgl/src/extra/widgets/meter/../../../../src/hal/../draw/../misc/../font/../misc/lv_area.h ****     LV_DIR_VER      = LV_DIR_TOP | LV_DIR_BOTTOM,
ARM GAS  /tmp/ccVvrzYL.s 			page 17


  86:Drivers/lvgl/lvgl/src/extra/widgets/meter/../../../../src/hal/../draw/../misc/../font/../misc/lv_area.h ****     LV_DIR_ALL      = LV_DIR_HOR | LV_DIR_VER,
  87:Drivers/lvgl/lvgl/src/extra/widgets/meter/../../../../src/hal/../draw/../misc/../font/../misc/lv_area.h **** };
  88:Drivers/lvgl/lvgl/src/extra/widgets/meter/../../../../src/hal/../draw/../misc/../font/../misc/lv_area.h **** 
  89:Drivers/lvgl/lvgl/src/extra/widgets/meter/../../../../src/hal/../draw/../misc/../font/../misc/lv_area.h **** typedef uint8_t lv_dir_t;
  90:Drivers/lvgl/lvgl/src/extra/widgets/meter/../../../../src/hal/../draw/../misc/../font/../misc/lv_area.h **** 
  91:Drivers/lvgl/lvgl/src/extra/widgets/meter/../../../../src/hal/../draw/../misc/../font/../misc/lv_area.h **** /**********************
  92:Drivers/lvgl/lvgl/src/extra/widgets/meter/../../../../src/hal/../draw/../misc/../font/../misc/lv_area.h ****  * GLOBAL PROTOTYPES
  93:Drivers/lvgl/lvgl/src/extra/widgets/meter/../../../../src/hal/../draw/../misc/../font/../misc/lv_area.h ****  **********************/
  94:Drivers/lvgl/lvgl/src/extra/widgets/meter/../../../../src/hal/../draw/../misc/../font/../misc/lv_area.h **** 
  95:Drivers/lvgl/lvgl/src/extra/widgets/meter/../../../../src/hal/../draw/../misc/../font/../misc/lv_area.h **** /**
  96:Drivers/lvgl/lvgl/src/extra/widgets/meter/../../../../src/hal/../draw/../misc/../font/../misc/lv_area.h ****  * Initialize an area
  97:Drivers/lvgl/lvgl/src/extra/widgets/meter/../../../../src/hal/../draw/../misc/../font/../misc/lv_area.h ****  * @param area_p pointer to an area
  98:Drivers/lvgl/lvgl/src/extra/widgets/meter/../../../../src/hal/../draw/../misc/../font/../misc/lv_area.h ****  * @param x1 left coordinate of the area
  99:Drivers/lvgl/lvgl/src/extra/widgets/meter/../../../../src/hal/../draw/../misc/../font/../misc/lv_area.h ****  * @param y1 top coordinate of the area
 100:Drivers/lvgl/lvgl/src/extra/widgets/meter/../../../../src/hal/../draw/../misc/../font/../misc/lv_area.h ****  * @param x2 right coordinate of the area
 101:Drivers/lvgl/lvgl/src/extra/widgets/meter/../../../../src/hal/../draw/../misc/../font/../misc/lv_area.h ****  * @param y2 bottom coordinate of the area
 102:Drivers/lvgl/lvgl/src/extra/widgets/meter/../../../../src/hal/../draw/../misc/../font/../misc/lv_area.h ****  */
 103:Drivers/lvgl/lvgl/src/extra/widgets/meter/../../../../src/hal/../draw/../misc/../font/../misc/lv_area.h **** void lv_area_set(lv_area_t * area_p, lv_coord_t x1, lv_coord_t y1, lv_coord_t x2, lv_coord_t y2);
 104:Drivers/lvgl/lvgl/src/extra/widgets/meter/../../../../src/hal/../draw/../misc/../font/../misc/lv_area.h **** 
 105:Drivers/lvgl/lvgl/src/extra/widgets/meter/../../../../src/hal/../draw/../misc/../font/../misc/lv_area.h **** /**
 106:Drivers/lvgl/lvgl/src/extra/widgets/meter/../../../../src/hal/../draw/../misc/../font/../misc/lv_area.h ****  * Copy an area
 107:Drivers/lvgl/lvgl/src/extra/widgets/meter/../../../../src/hal/../draw/../misc/../font/../misc/lv_area.h ****  * @param dest pointer to the destination area
 108:Drivers/lvgl/lvgl/src/extra/widgets/meter/../../../../src/hal/../draw/../misc/../font/../misc/lv_area.h ****  * @param src pointer to the source area
 109:Drivers/lvgl/lvgl/src/extra/widgets/meter/../../../../src/hal/../draw/../misc/../font/../misc/lv_area.h ****  */
 110:Drivers/lvgl/lvgl/src/extra/widgets/meter/../../../../src/hal/../draw/../misc/../font/../misc/lv_area.h **** inline static void lv_area_copy(lv_area_t * dest, const lv_area_t * src)
 111:Drivers/lvgl/lvgl/src/extra/widgets/meter/../../../../src/hal/../draw/../misc/../font/../misc/lv_area.h **** {
 112:Drivers/lvgl/lvgl/src/extra/widgets/meter/../../../../src/hal/../draw/../misc/../font/../misc/lv_area.h ****     dest->x1 = src->x1;
 113:Drivers/lvgl/lvgl/src/extra/widgets/meter/../../../../src/hal/../draw/../misc/../font/../misc/lv_area.h ****     dest->y1 = src->y1;
 114:Drivers/lvgl/lvgl/src/extra/widgets/meter/../../../../src/hal/../draw/../misc/../font/../misc/lv_area.h ****     dest->x2 = src->x2;
 115:Drivers/lvgl/lvgl/src/extra/widgets/meter/../../../../src/hal/../draw/../misc/../font/../misc/lv_area.h ****     dest->y2 = src->y2;
 116:Drivers/lvgl/lvgl/src/extra/widgets/meter/../../../../src/hal/../draw/../misc/../font/../misc/lv_area.h **** }
 117:Drivers/lvgl/lvgl/src/extra/widgets/meter/../../../../src/hal/../draw/../misc/../font/../misc/lv_area.h **** 
 118:Drivers/lvgl/lvgl/src/extra/widgets/meter/../../../../src/hal/../draw/../misc/../font/../misc/lv_area.h **** /**
 119:Drivers/lvgl/lvgl/src/extra/widgets/meter/../../../../src/hal/../draw/../misc/../font/../misc/lv_area.h ****  * Get the width of an area
 120:Drivers/lvgl/lvgl/src/extra/widgets/meter/../../../../src/hal/../draw/../misc/../font/../misc/lv_area.h ****  * @param area_p pointer to an area
 121:Drivers/lvgl/lvgl/src/extra/widgets/meter/../../../../src/hal/../draw/../misc/../font/../misc/lv_area.h ****  * @return the width of the area (if x1 == x2 -> width = 1)
 122:Drivers/lvgl/lvgl/src/extra/widgets/meter/../../../../src/hal/../draw/../misc/../font/../misc/lv_area.h ****  */
 123:Drivers/lvgl/lvgl/src/extra/widgets/meter/../../../../src/hal/../draw/../misc/../font/../misc/lv_area.h **** static inline lv_coord_t lv_area_get_width(const lv_area_t * area_p)
 124:Drivers/lvgl/lvgl/src/extra/widgets/meter/../../../../src/hal/../draw/../misc/../font/../misc/lv_area.h **** {
 125:Drivers/lvgl/lvgl/src/extra/widgets/meter/../../../../src/hal/../draw/../misc/../font/../misc/lv_area.h ****     return (lv_coord_t)(area_p->x2 - area_p->x1 + 1);
  79              		.loc 3 125 0
  80 0030 A588     		ldrh	r5, [r4, #4]
  81 0032 2388     		ldrh	r3, [r4]
  82 0034 ED1A     		subs	r5, r5, r3
  83 0036 ADB2     		uxth	r5, r5
  84 0038 0135     		adds	r5, r5, #1
  85 003a 2DB2     		sxth	r5, r5
  86              	.LVL7:
  87              	.LBE52:
  88              	.LBE51:
 333:Drivers/lvgl/lvgl/src/extra/widgets/meter/lv_meter.c **** 
 334:Drivers/lvgl/lvgl/src/extra/widgets/meter/lv_meter.c ****     lv_coord_t r_out = lv_area_get_width(scale_area) / 2 ;
  89              		.loc 1 334 0
  90 003c 002D     		cmp	r5, #0
  91 003e 24DB     		blt	.L9
  92              	.L2:
  93              	.LVL8:
ARM GAS  /tmp/ccVvrzYL.s 			page 18


 335:Drivers/lvgl/lvgl/src/extra/widgets/meter/lv_meter.c ****     lv_point_t scale_center;
 336:Drivers/lvgl/lvgl/src/extra/widgets/meter/lv_meter.c ****     scale_center.x = scale_area->x1 + r_out;
  94              		.loc 1 336 0
  95 0040 C5F34F05 		ubfx	r5, r5, #1, #16
  96              	.LVL9:
  97 0044 2B44     		add	r3, r3, r5
  98 0046 ADF85C30 		strh	r3, [sp, #92]	@ movhi
 337:Drivers/lvgl/lvgl/src/extra/widgets/meter/lv_meter.c ****     scale_center.y = scale_area->y1 + r_out;
  99              		.loc 1 337 0
 100 004a 6388     		ldrh	r3, [r4, #2]
 101 004c 2B44     		add	r3, r3, r5
 102 004e ADF85E30 		strh	r3, [sp, #94]	@ movhi
 103              	.LVL10:
 104              	.LBB53:
 105              	.LBB54:
 419:Drivers/lvgl/lvgl/src/extra/widgets/meter/../../../../src/core/lv_obj_style_gen.h **** }
 420:Drivers/lvgl/lvgl/src/extra/widgets/meter/../../../../src/core/lv_obj_style_gen.h **** 
 421:Drivers/lvgl/lvgl/src/extra/widgets/meter/../../../../src/core/lv_obj_style_gen.h **** static inline lv_color_t lv_obj_get_style_arc_color(const struct _lv_obj_t * obj, uint32_t part)
 422:Drivers/lvgl/lvgl/src/extra/widgets/meter/../../../../src/core/lv_obj_style_gen.h **** {
 423:Drivers/lvgl/lvgl/src/extra/widgets/meter/../../../../src/core/lv_obj_style_gen.h ****     lv_style_value_t v = lv_obj_get_style_prop(obj, part, LV_STYLE_ARC_COLOR);
 424:Drivers/lvgl/lvgl/src/extra/widgets/meter/../../../../src/core/lv_obj_style_gen.h ****     return v.color;
 425:Drivers/lvgl/lvgl/src/extra/widgets/meter/../../../../src/core/lv_obj_style_gen.h **** }
 426:Drivers/lvgl/lvgl/src/extra/widgets/meter/../../../../src/core/lv_obj_style_gen.h **** 
 427:Drivers/lvgl/lvgl/src/extra/widgets/meter/../../../../src/core/lv_obj_style_gen.h **** static inline lv_color_t lv_obj_get_style_arc_color_filtered(const struct _lv_obj_t * obj, uint32_t
 428:Drivers/lvgl/lvgl/src/extra/widgets/meter/../../../../src/core/lv_obj_style_gen.h **** {
 429:Drivers/lvgl/lvgl/src/extra/widgets/meter/../../../../src/core/lv_obj_style_gen.h ****     lv_style_value_t v = _lv_obj_style_apply_color_filter(obj, part, lv_obj_get_style_prop(obj, par
 430:Drivers/lvgl/lvgl/src/extra/widgets/meter/../../../../src/core/lv_obj_style_gen.h ****     return v.color;
 431:Drivers/lvgl/lvgl/src/extra/widgets/meter/../../../../src/core/lv_obj_style_gen.h **** }
 432:Drivers/lvgl/lvgl/src/extra/widgets/meter/../../../../src/core/lv_obj_style_gen.h **** 
 433:Drivers/lvgl/lvgl/src/extra/widgets/meter/../../../../src/core/lv_obj_style_gen.h **** static inline lv_opa_t lv_obj_get_style_arc_opa(const struct _lv_obj_t * obj, uint32_t part)
 434:Drivers/lvgl/lvgl/src/extra/widgets/meter/../../../../src/core/lv_obj_style_gen.h **** {
 435:Drivers/lvgl/lvgl/src/extra/widgets/meter/../../../../src/core/lv_obj_style_gen.h ****     lv_style_value_t v = lv_obj_get_style_prop(obj, part, LV_STYLE_ARC_OPA);
 436:Drivers/lvgl/lvgl/src/extra/widgets/meter/../../../../src/core/lv_obj_style_gen.h ****     return (lv_opa_t)v.num;
 437:Drivers/lvgl/lvgl/src/extra/widgets/meter/../../../../src/core/lv_obj_style_gen.h **** }
 438:Drivers/lvgl/lvgl/src/extra/widgets/meter/../../../../src/core/lv_obj_style_gen.h **** 
 439:Drivers/lvgl/lvgl/src/extra/widgets/meter/../../../../src/core/lv_obj_style_gen.h **** static inline const void * lv_obj_get_style_arc_img_src(const struct _lv_obj_t * obj, uint32_t part
 440:Drivers/lvgl/lvgl/src/extra/widgets/meter/../../../../src/core/lv_obj_style_gen.h **** {
 441:Drivers/lvgl/lvgl/src/extra/widgets/meter/../../../../src/core/lv_obj_style_gen.h ****     lv_style_value_t v = lv_obj_get_style_prop(obj, part, LV_STYLE_ARC_IMG_SRC);
 442:Drivers/lvgl/lvgl/src/extra/widgets/meter/../../../../src/core/lv_obj_style_gen.h ****     return (const void *)v.ptr;
 443:Drivers/lvgl/lvgl/src/extra/widgets/meter/../../../../src/core/lv_obj_style_gen.h **** }
 444:Drivers/lvgl/lvgl/src/extra/widgets/meter/../../../../src/core/lv_obj_style_gen.h **** 
 445:Drivers/lvgl/lvgl/src/extra/widgets/meter/../../../../src/core/lv_obj_style_gen.h **** static inline lv_color_t lv_obj_get_style_text_color(const struct _lv_obj_t * obj, uint32_t part)
 446:Drivers/lvgl/lvgl/src/extra/widgets/meter/../../../../src/core/lv_obj_style_gen.h **** {
 447:Drivers/lvgl/lvgl/src/extra/widgets/meter/../../../../src/core/lv_obj_style_gen.h ****     lv_style_value_t v = lv_obj_get_style_prop(obj, part, LV_STYLE_TEXT_COLOR);
 448:Drivers/lvgl/lvgl/src/extra/widgets/meter/../../../../src/core/lv_obj_style_gen.h ****     return v.color;
 449:Drivers/lvgl/lvgl/src/extra/widgets/meter/../../../../src/core/lv_obj_style_gen.h **** }
 450:Drivers/lvgl/lvgl/src/extra/widgets/meter/../../../../src/core/lv_obj_style_gen.h **** 
 451:Drivers/lvgl/lvgl/src/extra/widgets/meter/../../../../src/core/lv_obj_style_gen.h **** static inline lv_color_t lv_obj_get_style_text_color_filtered(const struct _lv_obj_t * obj, uint32_
 452:Drivers/lvgl/lvgl/src/extra/widgets/meter/../../../../src/core/lv_obj_style_gen.h **** {
 453:Drivers/lvgl/lvgl/src/extra/widgets/meter/../../../../src/core/lv_obj_style_gen.h ****     lv_style_value_t v = _lv_obj_style_apply_color_filter(obj, part, lv_obj_get_style_prop(obj, par
 454:Drivers/lvgl/lvgl/src/extra/widgets/meter/../../../../src/core/lv_obj_style_gen.h ****     return v.color;
 455:Drivers/lvgl/lvgl/src/extra/widgets/meter/../../../../src/core/lv_obj_style_gen.h **** }
 456:Drivers/lvgl/lvgl/src/extra/widgets/meter/../../../../src/core/lv_obj_style_gen.h **** 
 457:Drivers/lvgl/lvgl/src/extra/widgets/meter/../../../../src/core/lv_obj_style_gen.h **** static inline lv_opa_t lv_obj_get_style_text_opa(const struct _lv_obj_t * obj, uint32_t part)
 458:Drivers/lvgl/lvgl/src/extra/widgets/meter/../../../../src/core/lv_obj_style_gen.h **** {
 459:Drivers/lvgl/lvgl/src/extra/widgets/meter/../../../../src/core/lv_obj_style_gen.h ****     lv_style_value_t v = lv_obj_get_style_prop(obj, part, LV_STYLE_TEXT_OPA);
 460:Drivers/lvgl/lvgl/src/extra/widgets/meter/../../../../src/core/lv_obj_style_gen.h ****     return (lv_opa_t)v.num;
ARM GAS  /tmp/ccVvrzYL.s 			page 19


 461:Drivers/lvgl/lvgl/src/extra/widgets/meter/../../../../src/core/lv_obj_style_gen.h **** }
 462:Drivers/lvgl/lvgl/src/extra/widgets/meter/../../../../src/core/lv_obj_style_gen.h **** 
 463:Drivers/lvgl/lvgl/src/extra/widgets/meter/../../../../src/core/lv_obj_style_gen.h **** static inline const lv_font_t * lv_obj_get_style_text_font(const struct _lv_obj_t * obj, uint32_t p
 464:Drivers/lvgl/lvgl/src/extra/widgets/meter/../../../../src/core/lv_obj_style_gen.h **** {
 465:Drivers/lvgl/lvgl/src/extra/widgets/meter/../../../../src/core/lv_obj_style_gen.h ****     lv_style_value_t v = lv_obj_get_style_prop(obj, part, LV_STYLE_TEXT_FONT);
 466:Drivers/lvgl/lvgl/src/extra/widgets/meter/../../../../src/core/lv_obj_style_gen.h ****     return (const lv_font_t *)v.ptr;
 467:Drivers/lvgl/lvgl/src/extra/widgets/meter/../../../../src/core/lv_obj_style_gen.h **** }
 468:Drivers/lvgl/lvgl/src/extra/widgets/meter/../../../../src/core/lv_obj_style_gen.h **** 
 469:Drivers/lvgl/lvgl/src/extra/widgets/meter/../../../../src/core/lv_obj_style_gen.h **** static inline lv_coord_t lv_obj_get_style_text_letter_space(const struct _lv_obj_t * obj, uint32_t 
 470:Drivers/lvgl/lvgl/src/extra/widgets/meter/../../../../src/core/lv_obj_style_gen.h **** {
 471:Drivers/lvgl/lvgl/src/extra/widgets/meter/../../../../src/core/lv_obj_style_gen.h ****     lv_style_value_t v = lv_obj_get_style_prop(obj, part, LV_STYLE_TEXT_LETTER_SPACE);
 472:Drivers/lvgl/lvgl/src/extra/widgets/meter/../../../../src/core/lv_obj_style_gen.h ****     return (lv_coord_t)v.num;
 473:Drivers/lvgl/lvgl/src/extra/widgets/meter/../../../../src/core/lv_obj_style_gen.h **** }
 474:Drivers/lvgl/lvgl/src/extra/widgets/meter/../../../../src/core/lv_obj_style_gen.h **** 
 475:Drivers/lvgl/lvgl/src/extra/widgets/meter/../../../../src/core/lv_obj_style_gen.h **** static inline lv_coord_t lv_obj_get_style_text_line_space(const struct _lv_obj_t * obj, uint32_t pa
 476:Drivers/lvgl/lvgl/src/extra/widgets/meter/../../../../src/core/lv_obj_style_gen.h **** {
 477:Drivers/lvgl/lvgl/src/extra/widgets/meter/../../../../src/core/lv_obj_style_gen.h ****     lv_style_value_t v = lv_obj_get_style_prop(obj, part, LV_STYLE_TEXT_LINE_SPACE);
 478:Drivers/lvgl/lvgl/src/extra/widgets/meter/../../../../src/core/lv_obj_style_gen.h ****     return (lv_coord_t)v.num;
 479:Drivers/lvgl/lvgl/src/extra/widgets/meter/../../../../src/core/lv_obj_style_gen.h **** }
 480:Drivers/lvgl/lvgl/src/extra/widgets/meter/../../../../src/core/lv_obj_style_gen.h **** 
 481:Drivers/lvgl/lvgl/src/extra/widgets/meter/../../../../src/core/lv_obj_style_gen.h **** static inline lv_text_decor_t lv_obj_get_style_text_decor(const struct _lv_obj_t * obj, uint32_t pa
 482:Drivers/lvgl/lvgl/src/extra/widgets/meter/../../../../src/core/lv_obj_style_gen.h **** {
 483:Drivers/lvgl/lvgl/src/extra/widgets/meter/../../../../src/core/lv_obj_style_gen.h ****     lv_style_value_t v = lv_obj_get_style_prop(obj, part, LV_STYLE_TEXT_DECOR);
 484:Drivers/lvgl/lvgl/src/extra/widgets/meter/../../../../src/core/lv_obj_style_gen.h ****     return (lv_text_decor_t)v.num;
 485:Drivers/lvgl/lvgl/src/extra/widgets/meter/../../../../src/core/lv_obj_style_gen.h **** }
 486:Drivers/lvgl/lvgl/src/extra/widgets/meter/../../../../src/core/lv_obj_style_gen.h **** 
 487:Drivers/lvgl/lvgl/src/extra/widgets/meter/../../../../src/core/lv_obj_style_gen.h **** static inline lv_text_align_t lv_obj_get_style_text_align(const struct _lv_obj_t * obj, uint32_t pa
 488:Drivers/lvgl/lvgl/src/extra/widgets/meter/../../../../src/core/lv_obj_style_gen.h **** {
 489:Drivers/lvgl/lvgl/src/extra/widgets/meter/../../../../src/core/lv_obj_style_gen.h ****     lv_style_value_t v = lv_obj_get_style_prop(obj, part, LV_STYLE_TEXT_ALIGN);
 490:Drivers/lvgl/lvgl/src/extra/widgets/meter/../../../../src/core/lv_obj_style_gen.h ****     return (lv_text_align_t)v.num;
 491:Drivers/lvgl/lvgl/src/extra/widgets/meter/../../../../src/core/lv_obj_style_gen.h **** }
 492:Drivers/lvgl/lvgl/src/extra/widgets/meter/../../../../src/core/lv_obj_style_gen.h **** 
 493:Drivers/lvgl/lvgl/src/extra/widgets/meter/../../../../src/core/lv_obj_style_gen.h **** static inline lv_coord_t lv_obj_get_style_radius(const struct _lv_obj_t * obj, uint32_t part)
 494:Drivers/lvgl/lvgl/src/extra/widgets/meter/../../../../src/core/lv_obj_style_gen.h **** {
 495:Drivers/lvgl/lvgl/src/extra/widgets/meter/../../../../src/core/lv_obj_style_gen.h ****     lv_style_value_t v = lv_obj_get_style_prop(obj, part, LV_STYLE_RADIUS);
 496:Drivers/lvgl/lvgl/src/extra/widgets/meter/../../../../src/core/lv_obj_style_gen.h ****     return (lv_coord_t)v.num;
 497:Drivers/lvgl/lvgl/src/extra/widgets/meter/../../../../src/core/lv_obj_style_gen.h **** }
 498:Drivers/lvgl/lvgl/src/extra/widgets/meter/../../../../src/core/lv_obj_style_gen.h **** 
 499:Drivers/lvgl/lvgl/src/extra/widgets/meter/../../../../src/core/lv_obj_style_gen.h **** static inline bool lv_obj_get_style_clip_corner(const struct _lv_obj_t * obj, uint32_t part)
 500:Drivers/lvgl/lvgl/src/extra/widgets/meter/../../../../src/core/lv_obj_style_gen.h **** {
 501:Drivers/lvgl/lvgl/src/extra/widgets/meter/../../../../src/core/lv_obj_style_gen.h ****     lv_style_value_t v = lv_obj_get_style_prop(obj, part, LV_STYLE_CLIP_CORNER);
 502:Drivers/lvgl/lvgl/src/extra/widgets/meter/../../../../src/core/lv_obj_style_gen.h ****     return (bool)v.num;
 503:Drivers/lvgl/lvgl/src/extra/widgets/meter/../../../../src/core/lv_obj_style_gen.h **** }
 504:Drivers/lvgl/lvgl/src/extra/widgets/meter/../../../../src/core/lv_obj_style_gen.h **** 
 505:Drivers/lvgl/lvgl/src/extra/widgets/meter/../../../../src/core/lv_obj_style_gen.h **** static inline lv_opa_t lv_obj_get_style_opa(const struct _lv_obj_t * obj, uint32_t part)
 506:Drivers/lvgl/lvgl/src/extra/widgets/meter/../../../../src/core/lv_obj_style_gen.h **** {
 507:Drivers/lvgl/lvgl/src/extra/widgets/meter/../../../../src/core/lv_obj_style_gen.h ****     lv_style_value_t v = lv_obj_get_style_prop(obj, part, LV_STYLE_OPA);
 106              		.loc 2 507 0
 107 0052 6022     		movs	r2, #96
 108 0054 0021     		movs	r1, #0
 109 0056 4046     		mov	r0, r8
 110 0058 FFF7FEFF 		bl	lv_obj_get_style_prop
 111              	.LVL11:
 112 005c 0390     		str	r0, [sp, #12]
 508:Drivers/lvgl/lvgl/src/extra/widgets/meter/../../../../src/core/lv_obj_style_gen.h ****     return (lv_opa_t)v.num;
 113              		.loc 2 508 0
 114 005e 5FFA80FB 		uxtb	fp, r0
ARM GAS  /tmp/ccVvrzYL.s 			page 20


 115              	.LVL12:
 116              	.LBE54:
 117              	.LBE53:
 338:Drivers/lvgl/lvgl/src/extra/widgets/meter/lv_meter.c **** 
 339:Drivers/lvgl/lvgl/src/extra/widgets/meter/lv_meter.c ****     lv_opa_t opa_main = lv_obj_get_style_opa(obj, LV_PART_MAIN);
 340:Drivers/lvgl/lvgl/src/extra/widgets/meter/lv_meter.c ****     lv_meter_indicator_t * indic;
 341:Drivers/lvgl/lvgl/src/extra/widgets/meter/lv_meter.c **** 
 342:Drivers/lvgl/lvgl/src/extra/widgets/meter/lv_meter.c ****     lv_obj_draw_part_dsc_t part_draw_dsc;
 343:Drivers/lvgl/lvgl/src/extra/widgets/meter/lv_meter.c ****     lv_obj_draw_dsc_init(&part_draw_dsc, draw_ctx);
 118              		.loc 1 343 0
 119 0062 0299     		ldr	r1, [sp, #8]
 120 0064 05A8     		add	r0, sp, #20
 121 0066 FFF7FEFF 		bl	lv_obj_draw_dsc_init
 122              	.LVL13:
 344:Drivers/lvgl/lvgl/src/extra/widgets/meter/lv_meter.c ****     part_draw_dsc.arc_dsc = &arc_dsc;
 123              		.loc 1 344 0
 124 006a 18AB     		add	r3, sp, #96
 125 006c 0D93     		str	r3, [sp, #52]
 345:Drivers/lvgl/lvgl/src/extra/widgets/meter/lv_meter.c ****     part_draw_dsc.part = LV_PART_INDICATOR;
 126              		.loc 1 345 0
 127 006e 4FF40033 		mov	r3, #131072
 128 0072 1293     		str	r3, [sp, #72]
 346:Drivers/lvgl/lvgl/src/extra/widgets/meter/lv_meter.c ****     part_draw_dsc.class_p = MY_CLASS;
 129              		.loc 1 346 0
 130 0074 304B     		ldr	r3, .L11
 131 0076 0693     		str	r3, [sp, #24]
 347:Drivers/lvgl/lvgl/src/extra/widgets/meter/lv_meter.c ****     part_draw_dsc.type = LV_METER_DRAW_PART_ARC;
 132              		.loc 1 347 0
 133 0078 0023     		movs	r3, #0
 134 007a 0793     		str	r3, [sp, #28]
 348:Drivers/lvgl/lvgl/src/extra/widgets/meter/lv_meter.c **** 
 349:Drivers/lvgl/lvgl/src/extra/widgets/meter/lv_meter.c ****     _LV_LL_READ_BACK(&meter->indicator_ll, indic) {
 135              		.loc 1 349 0
 136 007c 08F1300A 		add	r10, r8, #48
 137 0080 5046     		mov	r0, r10
 138 0082 FFF7FEFF 		bl	_lv_ll_get_tail
 139              	.LVL14:
 140 0086 0446     		mov	r4, r0
 141              	.LVL15:
 142 0088 3EE0     		b	.L3
 143              	.LVL16:
 144              	.L9:
 334:Drivers/lvgl/lvgl/src/extra/widgets/meter/lv_meter.c ****     lv_point_t scale_center;
 145              		.loc 1 334 0
 146 008a 0135     		adds	r5, r5, #1
 147 008c D8E7     		b	.L2
 148              	.LVL17:
 149              	.L7:
 150              	.LBB55:
 350:Drivers/lvgl/lvgl/src/extra/widgets/meter/lv_meter.c ****         if(indic->type != LV_METER_INDICATOR_TYPE_ARC) continue;
 351:Drivers/lvgl/lvgl/src/extra/widgets/meter/lv_meter.c **** 
 352:Drivers/lvgl/lvgl/src/extra/widgets/meter/lv_meter.c ****         arc_dsc.color = indic->type_data.arc.color;
 353:Drivers/lvgl/lvgl/src/extra/widgets/meter/lv_meter.c ****         arc_dsc.width = indic->type_data.arc.width;
 354:Drivers/lvgl/lvgl/src/extra/widgets/meter/lv_meter.c ****         arc_dsc.opa = indic->opa > LV_OPA_MAX ? opa_main : (opa_main * indic->opa) >> 8;
 151              		.loc 1 354 0
 152 008e 5B46     		mov	r3, fp
 153              	.L5:
ARM GAS  /tmp/ccVvrzYL.s 			page 21


 154              		.loc 1 354 0 is_stmt 0 discriminator 4
 155 0090 8DF86C30 		strb	r3, [sp, #108]
 355:Drivers/lvgl/lvgl/src/extra/widgets/meter/lv_meter.c **** 
 356:Drivers/lvgl/lvgl/src/extra/widgets/meter/lv_meter.c ****         lv_meter_scale_t * scale = indic->scale;
 156              		.loc 1 356 0 is_stmt 1 discriminator 4
 157 0094 2668     		ldr	r6, [r4]
 158              	.LVL18:
 357:Drivers/lvgl/lvgl/src/extra/widgets/meter/lv_meter.c **** 
 358:Drivers/lvgl/lvgl/src/extra/widgets/meter/lv_meter.c ****         int32_t start_angle = lv_map(indic->start_value, scale->min, scale->max, scale->rotation,
 159              		.loc 1 358 0 discriminator 4
 160 0096 A068     		ldr	r0, [r4, #8]
 161              	.LVL19:
 162 0098 7169     		ldr	r1, [r6, #20]
 163 009a B269     		ldr	r2, [r6, #24]
 164 009c B6F92030 		ldrsh	r3, [r6, #32]
 359:Drivers/lvgl/lvgl/src/extra/widgets/meter/lv_meter.c ****                                      scale->rotation + scale->angle_range);
 165              		.loc 1 359 0 discriminator 4
 166 00a0 F78B     		ldrh	r7, [r6, #30]
 167 00a2 1F44     		add	r7, r7, r3
 358:Drivers/lvgl/lvgl/src/extra/widgets/meter/lv_meter.c ****                                      scale->rotation + scale->angle_range);
 168              		.loc 1 358 0 discriminator 4
 169 00a4 0097     		str	r7, [sp]
 170 00a6 FFF7FEFF 		bl	lv_map
 171              	.LVL20:
 172 00aa 0746     		mov	r7, r0
 173              	.LVL21:
 360:Drivers/lvgl/lvgl/src/extra/widgets/meter/lv_meter.c ****         int32_t end_angle = lv_map(indic->end_value, scale->min, scale->max, scale->rotation,
 174              		.loc 1 360 0 discriminator 4
 175 00ac E068     		ldr	r0, [r4, #12]
 176              	.LVL22:
 177 00ae 7169     		ldr	r1, [r6, #20]
 178 00b0 B269     		ldr	r2, [r6, #24]
 179 00b2 B6F92030 		ldrsh	r3, [r6, #32]
 361:Drivers/lvgl/lvgl/src/extra/widgets/meter/lv_meter.c ****                                    scale->rotation + scale->angle_range);
 180              		.loc 1 361 0 discriminator 4
 181 00b6 F68B     		ldrh	r6, [r6, #30]
 182              	.LVL23:
 183 00b8 1E44     		add	r6, r6, r3
 360:Drivers/lvgl/lvgl/src/extra/widgets/meter/lv_meter.c ****         int32_t end_angle = lv_map(indic->end_value, scale->min, scale->max, scale->rotation,
 184              		.loc 1 360 0 discriminator 4
 185 00ba 0096     		str	r6, [sp]
 186 00bc FFF7FEFF 		bl	lv_map
 187              	.LVL24:
 188 00c0 8146     		mov	r9, r0
 189              	.LVL25:
 362:Drivers/lvgl/lvgl/src/extra/widgets/meter/lv_meter.c **** 
 363:Drivers/lvgl/lvgl/src/extra/widgets/meter/lv_meter.c ****         part_draw_dsc.radius = r_out + indic->type_data.arc.r_mod;
 190              		.loc 1 363 0 discriminator 4
 191 00c2 638B     		ldrh	r3, [r4, #26]
 192 00c4 2B44     		add	r3, r3, r5
 193 00c6 ADF85030 		strh	r3, [sp, #80]	@ movhi
 364:Drivers/lvgl/lvgl/src/extra/widgets/meter/lv_meter.c ****         part_draw_dsc.sub_part_ptr = indic;
 194              		.loc 1 364 0 discriminator 4
 195 00ca 1694     		str	r4, [sp, #88]
 365:Drivers/lvgl/lvgl/src/extra/widgets/meter/lv_meter.c ****         part_draw_dsc.p1 = &scale_center;
 196              		.loc 1 365 0 discriminator 4
 197 00cc 17AE     		add	r6, sp, #92
ARM GAS  /tmp/ccVvrzYL.s 			page 22


 198 00ce 0E96     		str	r6, [sp, #56]
 366:Drivers/lvgl/lvgl/src/extra/widgets/meter/lv_meter.c **** 
 367:Drivers/lvgl/lvgl/src/extra/widgets/meter/lv_meter.c ****         lv_event_send(obj, LV_EVENT_DRAW_PART_BEGIN, &part_draw_dsc);
 199              		.loc 1 367 0 discriminator 4
 200 00d0 05AA     		add	r2, sp, #20
 201 00d2 1A21     		movs	r1, #26
 202 00d4 4046     		mov	r0, r8
 203              	.LVL26:
 204 00d6 FFF7FEFF 		bl	lv_event_send
 205              	.LVL27:
 368:Drivers/lvgl/lvgl/src/extra/widgets/meter/lv_meter.c ****         lv_draw_arc(draw_ctx, &arc_dsc, &scale_center, part_draw_dsc.radius, start_angle, end_angle
 206              		.loc 1 368 0 discriminator 4
 207 00da BDF95030 		ldrsh	r3, [sp, #80]
 208 00de 1FFA89F2 		uxth	r2, r9
 209 00e2 0192     		str	r2, [sp, #4]
 210 00e4 BFB2     		uxth	r7, r7
 211              	.LVL28:
 212 00e6 0097     		str	r7, [sp]
 213 00e8 9BB2     		uxth	r3, r3
 214 00ea 3246     		mov	r2, r6
 215 00ec 18A9     		add	r1, sp, #96
 216 00ee 0298     		ldr	r0, [sp, #8]
 217 00f0 FFF7FEFF 		bl	lv_draw_arc
 218              	.LVL29:
 369:Drivers/lvgl/lvgl/src/extra/widgets/meter/lv_meter.c ****         lv_event_send(obj, LV_EVENT_DRAW_PART_END, &part_draw_dsc);
 219              		.loc 1 369 0 discriminator 4
 220 00f4 05AA     		add	r2, sp, #20
 221 00f6 1B21     		movs	r1, #27
 222 00f8 4046     		mov	r0, r8
 223 00fa FFF7FEFF 		bl	lv_event_send
 224              	.LVL30:
 225              	.L4:
 226              	.LBE55:
 349:Drivers/lvgl/lvgl/src/extra/widgets/meter/lv_meter.c ****         if(indic->type != LV_METER_INDICATOR_TYPE_ARC) continue;
 227              		.loc 1 349 0 discriminator 2
 228 00fe 2146     		mov	r1, r4
 229 0100 5046     		mov	r0, r10
 230 0102 FFF7FEFF 		bl	_lv_ll_get_prev
 231              	.LVL31:
 232 0106 0446     		mov	r4, r0
 233              	.LVL32:
 234              	.L3:
 349:Drivers/lvgl/lvgl/src/extra/widgets/meter/lv_meter.c ****         if(indic->type != LV_METER_INDICATOR_TYPE_ARC) continue;
 235              		.loc 1 349 0 is_stmt 0 discriminator 1
 236 0108 94B1     		cbz	r4, .L10
 237              	.LBB56:
 350:Drivers/lvgl/lvgl/src/extra/widgets/meter/lv_meter.c **** 
 238              		.loc 1 350 0 is_stmt 1
 239 010a 2379     		ldrb	r3, [r4, #4]	@ zero_extendqisi2
 240 010c 032B     		cmp	r3, #3
 241 010e F6D1     		bne	.L4
 352:Drivers/lvgl/lvgl/src/extra/widgets/meter/lv_meter.c ****         arc_dsc.width = indic->type_data.arc.width;
 242              		.loc 1 352 0
 243 0110 238B     		ldrh	r3, [r4, #24]
 244 0112 ADF86030 		strh	r3, [sp, #96]	@ movhi
 353:Drivers/lvgl/lvgl/src/extra/widgets/meter/lv_meter.c ****         arc_dsc.opa = indic->opa > LV_OPA_MAX ? opa_main : (opa_main * indic->opa) >> 8;
 245              		.loc 1 353 0
ARM GAS  /tmp/ccVvrzYL.s 			page 23


 246 0116 B4F91030 		ldrsh	r3, [r4, #16]
 247 011a ADF86230 		strh	r3, [sp, #98]	@ movhi
 354:Drivers/lvgl/lvgl/src/extra/widgets/meter/lv_meter.c **** 
 248              		.loc 1 354 0
 249 011e 6379     		ldrb	r3, [r4, #5]	@ zero_extendqisi2
 250 0120 FD2B     		cmp	r3, #253
 251 0122 B4D8     		bhi	.L7
 354:Drivers/lvgl/lvgl/src/extra/widgets/meter/lv_meter.c **** 
 252              		.loc 1 354 0 is_stmt 0 discriminator 1
 253 0124 9DF80C20 		ldrb	r2, [sp, #12]	@ zero_extendqisi2
 254 0128 03FB02F3 		mul	r3, r3, r2
 255 012c 1B0A     		lsrs	r3, r3, #8
 256 012e AFE7     		b	.L5
 257              	.L10:
 258              	.LBE56:
 370:Drivers/lvgl/lvgl/src/extra/widgets/meter/lv_meter.c ****     }
 371:Drivers/lvgl/lvgl/src/extra/widgets/meter/lv_meter.c **** }
 259              		.loc 1 371 0 is_stmt 1
 260 0130 1DB0     		add	sp, sp, #116
 261              	.LCFI2:
 262              		.cfi_def_cfa_offset 36
 263              		@ sp needed
 264 0132 BDE8F08F 		pop	{r4, r5, r6, r7, r8, r9, r10, fp, pc}
 265              	.LVL33:
 266              	.L12:
 267 0136 00BF     		.align	2
 268              	.L11:
 269 0138 00000000 		.word	.LANCHOR0
 270              		.cfi_endproc
 271              	.LFE217:
 273              		.section	.text.draw_ticks_and_labels,"ax",%progbits
 274              		.align	1
 275              		.syntax unified
 276              		.thumb
 277              		.thumb_func
 278              		.fpu fpv5-d16
 280              	draw_ticks_and_labels:
 281              	.LFB218:
 372:Drivers/lvgl/lvgl/src/extra/widgets/meter/lv_meter.c **** 
 373:Drivers/lvgl/lvgl/src/extra/widgets/meter/lv_meter.c **** static void draw_ticks_and_labels(lv_obj_t * obj, lv_draw_ctx_t * draw_ctx, const lv_area_t * scale
 374:Drivers/lvgl/lvgl/src/extra/widgets/meter/lv_meter.c **** {
 282              		.loc 1 374 0
 283              		.cfi_startproc
 284              		@ args = 0, pretend = 0, frame = 336
 285              		@ frame_needed = 0, uses_anonymous_args = 0
 286              	.LVL34:
 287 0000 2DE9F04F 		push	{r4, r5, r6, r7, r8, r9, r10, fp, lr}
 288              	.LCFI3:
 289              		.cfi_def_cfa_offset 36
 290              		.cfi_offset 4, -36
 291              		.cfi_offset 5, -32
 292              		.cfi_offset 6, -28
 293              		.cfi_offset 7, -24
 294              		.cfi_offset 8, -20
 295              		.cfi_offset 9, -16
 296              		.cfi_offset 10, -12
 297              		.cfi_offset 11, -8
ARM GAS  /tmp/ccVvrzYL.s 			page 24


 298              		.cfi_offset 14, -4
 299 0004 D9B0     		sub	sp, sp, #356
 300              	.LCFI4:
 301              		.cfi_def_cfa_offset 392
 302 0006 0590     		str	r0, [sp, #20]
 303 0008 0A91     		str	r1, [sp, #40]
 304              	.LVL35:
 305              	.LBB57:
 306              	.LBB58:
 307              		.loc 3 125 0
 308 000a 9388     		ldrh	r3, [r2, #4]
 309 000c 1188     		ldrh	r1, [r2]
 310              	.LVL36:
 311 000e 5B1A     		subs	r3, r3, r1
 312 0010 9BB2     		uxth	r3, r3
 313 0012 0133     		adds	r3, r3, #1
 314 0014 1BB2     		sxth	r3, r3
 315              	.LVL37:
 316              	.LBE58:
 317              	.LBE57:
 375:Drivers/lvgl/lvgl/src/extra/widgets/meter/lv_meter.c ****     lv_meter_t * meter    = (lv_meter_t *)obj;
 376:Drivers/lvgl/lvgl/src/extra/widgets/meter/lv_meter.c **** 
 377:Drivers/lvgl/lvgl/src/extra/widgets/meter/lv_meter.c ****     lv_point_t p_center;
 378:Drivers/lvgl/lvgl/src/extra/widgets/meter/lv_meter.c ****     lv_coord_t r_edge = LV_MIN(lv_area_get_width(scale_area) / 2, lv_area_get_height(scale_area) / 
 318              		.loc 1 378 0
 319 0016 002B     		cmp	r3, #0
 320 0018 44DB     		blt	.L42
 321              	.L14:
 322 001a 5B10     		asrs	r3, r3, #1
 323              	.LVL38:
 324              	.LBB59:
 325              	.LBB60:
 126:Drivers/lvgl/lvgl/src/extra/widgets/meter/../../../../src/hal/../draw/../misc/../font/../misc/lv_area.h **** }
 127:Drivers/lvgl/lvgl/src/extra/widgets/meter/../../../../src/hal/../draw/../misc/../font/../misc/lv_area.h **** 
 128:Drivers/lvgl/lvgl/src/extra/widgets/meter/../../../../src/hal/../draw/../misc/../font/../misc/lv_area.h **** /**
 129:Drivers/lvgl/lvgl/src/extra/widgets/meter/../../../../src/hal/../draw/../misc/../font/../misc/lv_area.h ****  * Get the height of an area
 130:Drivers/lvgl/lvgl/src/extra/widgets/meter/../../../../src/hal/../draw/../misc/../font/../misc/lv_area.h ****  * @param area_p pointer to an area
 131:Drivers/lvgl/lvgl/src/extra/widgets/meter/../../../../src/hal/../draw/../misc/../font/../misc/lv_area.h ****  * @return the height of the area (if y1 == y2 -> height = 1)
 132:Drivers/lvgl/lvgl/src/extra/widgets/meter/../../../../src/hal/../draw/../misc/../font/../misc/lv_area.h ****  */
 133:Drivers/lvgl/lvgl/src/extra/widgets/meter/../../../../src/hal/../draw/../misc/../font/../misc/lv_area.h **** static inline lv_coord_t lv_area_get_height(const lv_area_t * area_p)
 134:Drivers/lvgl/lvgl/src/extra/widgets/meter/../../../../src/hal/../draw/../misc/../font/../misc/lv_area.h **** {
 135:Drivers/lvgl/lvgl/src/extra/widgets/meter/../../../../src/hal/../draw/../misc/../font/../misc/lv_area.h ****     return (lv_coord_t)(area_p->y2 - area_p->y1 + 1);
 326              		.loc 3 135 0
 327 001c D088     		ldrh	r0, [r2, #6]
 328              	.LVL39:
 329 001e 5488     		ldrh	r4, [r2, #2]
 330 0020 021B     		subs	r2, r0, r4
 331              	.LVL40:
 332 0022 92B2     		uxth	r2, r2
 333 0024 0132     		adds	r2, r2, #1
 334 0026 12B2     		sxth	r2, r2
 335              	.LVL41:
 336              	.LBE60:
 337              	.LBE59:
 338              		.loc 1 378 0
 339 0028 002A     		cmp	r2, #0
 340 002a 3DDB     		blt	.L43
ARM GAS  /tmp/ccVvrzYL.s 			page 25


 341              	.L15:
 342 002c 5210     		asrs	r2, r2, #1
 343 002e 0D92     		str	r2, [sp, #52]
 344 0030 9342     		cmp	r3, r2
 345 0032 00DA     		bge	.L16
 346 0034 0D93     		str	r3, [sp, #52]
 347              	.L16:
 348              	.LVL42:
 379:Drivers/lvgl/lvgl/src/extra/widgets/meter/lv_meter.c ****     p_center.x = scale_area->x1 + r_edge;
 349              		.loc 1 379 0 discriminator 4
 350 0036 BDF83430 		ldrh	r3, [sp, #52]
 351 003a 0C93     		str	r3, [sp, #48]
 352 003c 1944     		add	r1, r1, r3
 353 003e ADF85C11 		strh	r1, [sp, #348]	@ movhi
 380:Drivers/lvgl/lvgl/src/extra/widgets/meter/lv_meter.c ****     p_center.y = scale_area->y1 + r_edge;
 354              		.loc 1 380 0 discriminator 4
 355 0042 1C44     		add	r4, r4, r3
 356 0044 ADF85E41 		strh	r4, [sp, #350]	@ movhi
 381:Drivers/lvgl/lvgl/src/extra/widgets/meter/lv_meter.c **** 
 382:Drivers/lvgl/lvgl/src/extra/widgets/meter/lv_meter.c ****     lv_draw_line_dsc_t line_dsc;
 383:Drivers/lvgl/lvgl/src/extra/widgets/meter/lv_meter.c ****     lv_draw_line_dsc_init(&line_dsc);
 357              		.loc 1 383 0 discriminator 4
 358 0048 54AC     		add	r4, sp, #336
 359 004a 2046     		mov	r0, r4
 360 004c FFF7FEFF 		bl	lv_draw_line_dsc_init
 361              	.LVL43:
 384:Drivers/lvgl/lvgl/src/extra/widgets/meter/lv_meter.c ****     lv_obj_init_draw_line_dsc(obj, LV_PART_TICKS, &line_dsc);
 362              		.loc 1 384 0 discriminator 4
 363 0050 2246     		mov	r2, r4
 364 0052 4FF4C021 		mov	r1, #393216
 365 0056 059D     		ldr	r5, [sp, #20]
 366 0058 2846     		mov	r0, r5
 367 005a FFF7FEFF 		bl	lv_obj_init_draw_line_dsc
 368              	.LVL44:
 385:Drivers/lvgl/lvgl/src/extra/widgets/meter/lv_meter.c ****     line_dsc.raw_end = 1;
 369              		.loc 1 385 0 discriminator 4
 370 005e 9DF85931 		ldrb	r3, [sp, #345]	@ zero_extendqisi2
 371 0062 43F01003 		orr	r3, r3, #16
 372 0066 8DF85931 		strb	r3, [sp, #345]
 386:Drivers/lvgl/lvgl/src/extra/widgets/meter/lv_meter.c **** 
 387:Drivers/lvgl/lvgl/src/extra/widgets/meter/lv_meter.c ****     lv_draw_label_dsc_t label_dsc;
 388:Drivers/lvgl/lvgl/src/extra/widgets/meter/lv_meter.c ****     lv_draw_label_dsc_init(&label_dsc);
 373              		.loc 1 388 0 discriminator 4
 374 006a 4CA8     		add	r0, sp, #304
 375 006c FFF7FEFF 		bl	lv_draw_label_dsc_init
 376              	.LVL45:
 389:Drivers/lvgl/lvgl/src/extra/widgets/meter/lv_meter.c ****     lv_obj_init_draw_label_dsc(obj, LV_PART_TICKS, &label_dsc);
 377              		.loc 1 389 0 discriminator 4
 378 0070 4CAA     		add	r2, sp, #304
 379 0072 4FF4C021 		mov	r1, #393216
 380 0076 2846     		mov	r0, r5
 381 0078 FFF7FEFF 		bl	lv_obj_init_draw_label_dsc
 382              	.LVL46:
 390:Drivers/lvgl/lvgl/src/extra/widgets/meter/lv_meter.c **** 
 391:Drivers/lvgl/lvgl/src/extra/widgets/meter/lv_meter.c ****     lv_meter_scale_t * scale;
 392:Drivers/lvgl/lvgl/src/extra/widgets/meter/lv_meter.c **** 
 393:Drivers/lvgl/lvgl/src/extra/widgets/meter/lv_meter.c ****     lv_draw_mask_radius_param_t inner_minor_mask;
ARM GAS  /tmp/ccVvrzYL.s 			page 26


 394:Drivers/lvgl/lvgl/src/extra/widgets/meter/lv_meter.c ****     lv_draw_mask_radius_param_t inner_major_mask;
 395:Drivers/lvgl/lvgl/src/extra/widgets/meter/lv_meter.c ****     lv_draw_mask_radius_param_t outer_mask;
 396:Drivers/lvgl/lvgl/src/extra/widgets/meter/lv_meter.c **** 
 397:Drivers/lvgl/lvgl/src/extra/widgets/meter/lv_meter.c ****     lv_obj_draw_part_dsc_t part_draw_dsc;
 398:Drivers/lvgl/lvgl/src/extra/widgets/meter/lv_meter.c ****     lv_obj_draw_dsc_init(&part_draw_dsc, draw_ctx);
 383              		.loc 1 398 0 discriminator 4
 384 007c 0A99     		ldr	r1, [sp, #40]
 385 007e 28A8     		add	r0, sp, #160
 386 0080 FFF7FEFF 		bl	lv_obj_draw_dsc_init
 387              	.LVL47:
 399:Drivers/lvgl/lvgl/src/extra/widgets/meter/lv_meter.c ****     part_draw_dsc.class_p = MY_CLASS;
 388              		.loc 1 399 0 discriminator 4
 389 0084 B34B     		ldr	r3, .L50
 390 0086 2993     		str	r3, [sp, #164]
 400:Drivers/lvgl/lvgl/src/extra/widgets/meter/lv_meter.c ****     part_draw_dsc.part = LV_PART_TICKS;
 391              		.loc 1 400 0 discriminator 4
 392 0088 4FF4C023 		mov	r3, #393216
 393 008c 3593     		str	r3, [sp, #212]
 401:Drivers/lvgl/lvgl/src/extra/widgets/meter/lv_meter.c ****     part_draw_dsc.type = LV_METER_DRAW_PART_TICK;
 394              		.loc 1 401 0 discriminator 4
 395 008e 0323     		movs	r3, #3
 396 0090 2A93     		str	r3, [sp, #168]
 402:Drivers/lvgl/lvgl/src/extra/widgets/meter/lv_meter.c ****     part_draw_dsc.line_dsc = &line_dsc;
 397              		.loc 1 402 0 discriminator 4
 398 0092 2E94     		str	r4, [sp, #184]
 403:Drivers/lvgl/lvgl/src/extra/widgets/meter/lv_meter.c **** 
 404:Drivers/lvgl/lvgl/src/extra/widgets/meter/lv_meter.c ****     _LV_LL_READ_BACK(&meter->scale_ll, scale) {
 399              		.loc 1 404 0 discriminator 4
 400 0094 2B46     		mov	r3, r5
 401 0096 2433     		adds	r3, r3, #36
 402 0098 0F93     		str	r3, [sp, #60]
 403 009a 1846     		mov	r0, r3
 404 009c FFF7FEFF 		bl	_lv_ll_get_tail
 405              	.LVL48:
 406 00a0 0746     		mov	r7, r0
 407 00a2 6EE1     		b	.L17
 408              	.LVL49:
 409              	.L42:
 378:Drivers/lvgl/lvgl/src/extra/widgets/meter/lv_meter.c ****     p_center.x = scale_area->x1 + r_edge;
 410              		.loc 1 378 0
 411 00a4 0133     		adds	r3, r3, #1
 412 00a6 B8E7     		b	.L14
 413              	.LVL50:
 414              	.L43:
 415 00a8 0132     		adds	r2, r2, #1
 416 00aa BFE7     		b	.L15
 417              	.LVL51:
 418              	.L39:
 419              	.LBB61:
 420              	.LBB62:
 405:Drivers/lvgl/lvgl/src/extra/widgets/meter/lv_meter.c ****         part_draw_dsc.sub_part_ptr = scale;
 406:Drivers/lvgl/lvgl/src/extra/widgets/meter/lv_meter.c **** 
 407:Drivers/lvgl/lvgl/src/extra/widgets/meter/lv_meter.c ****         lv_coord_t r_out = r_edge;
 408:Drivers/lvgl/lvgl/src/extra/widgets/meter/lv_meter.c ****         lv_coord_t r_in_minor = r_out - scale->tick_length;
 409:Drivers/lvgl/lvgl/src/extra/widgets/meter/lv_meter.c ****         lv_coord_t r_in_major = r_out - scale->tick_major_length;
 410:Drivers/lvgl/lvgl/src/extra/widgets/meter/lv_meter.c **** 
 411:Drivers/lvgl/lvgl/src/extra/widgets/meter/lv_meter.c ****         lv_area_t area_inner_minor;
ARM GAS  /tmp/ccVvrzYL.s 			page 27


 412:Drivers/lvgl/lvgl/src/extra/widgets/meter/lv_meter.c ****         area_inner_minor.x1 = p_center.x - r_in_minor;
 413:Drivers/lvgl/lvgl/src/extra/widgets/meter/lv_meter.c ****         area_inner_minor.y1 = p_center.y - r_in_minor;
 414:Drivers/lvgl/lvgl/src/extra/widgets/meter/lv_meter.c ****         area_inner_minor.x2 = p_center.x + r_in_minor;
 415:Drivers/lvgl/lvgl/src/extra/widgets/meter/lv_meter.c ****         area_inner_minor.y2 = p_center.y + r_in_minor;
 416:Drivers/lvgl/lvgl/src/extra/widgets/meter/lv_meter.c ****         lv_draw_mask_radius_init(&inner_minor_mask, &area_inner_minor, LV_RADIUS_CIRCLE, true);
 417:Drivers/lvgl/lvgl/src/extra/widgets/meter/lv_meter.c **** 
 418:Drivers/lvgl/lvgl/src/extra/widgets/meter/lv_meter.c ****         lv_area_t area_inner_major;
 419:Drivers/lvgl/lvgl/src/extra/widgets/meter/lv_meter.c ****         area_inner_major.x1 = p_center.x - r_in_major;
 420:Drivers/lvgl/lvgl/src/extra/widgets/meter/lv_meter.c ****         area_inner_major.y1 = p_center.y - r_in_major;
 421:Drivers/lvgl/lvgl/src/extra/widgets/meter/lv_meter.c ****         area_inner_major.x2 = p_center.x + r_in_major - 1;
 422:Drivers/lvgl/lvgl/src/extra/widgets/meter/lv_meter.c ****         area_inner_major.y2 = p_center.y + r_in_major - 1;
 423:Drivers/lvgl/lvgl/src/extra/widgets/meter/lv_meter.c ****         lv_draw_mask_radius_init(&inner_major_mask, &area_inner_major, LV_RADIUS_CIRCLE, true);
 424:Drivers/lvgl/lvgl/src/extra/widgets/meter/lv_meter.c **** 
 425:Drivers/lvgl/lvgl/src/extra/widgets/meter/lv_meter.c ****         lv_area_t area_outer;
 426:Drivers/lvgl/lvgl/src/extra/widgets/meter/lv_meter.c ****         area_outer.x1 = p_center.x - r_out;
 427:Drivers/lvgl/lvgl/src/extra/widgets/meter/lv_meter.c ****         area_outer.y1 = p_center.y - r_out;
 428:Drivers/lvgl/lvgl/src/extra/widgets/meter/lv_meter.c ****         area_outer.x2 = p_center.x + r_out - 1;
 429:Drivers/lvgl/lvgl/src/extra/widgets/meter/lv_meter.c ****         area_outer.y2 = p_center.y + r_out - 1;
 430:Drivers/lvgl/lvgl/src/extra/widgets/meter/lv_meter.c ****         lv_draw_mask_radius_init(&outer_mask, &area_outer, LV_RADIUS_CIRCLE, false);
 431:Drivers/lvgl/lvgl/src/extra/widgets/meter/lv_meter.c ****         int16_t outer_mask_id = lv_draw_mask_add(&outer_mask, NULL);
 432:Drivers/lvgl/lvgl/src/extra/widgets/meter/lv_meter.c **** 
 433:Drivers/lvgl/lvgl/src/extra/widgets/meter/lv_meter.c ****         int16_t inner_act_mask_id = LV_MASK_ID_INV; /*Will be added later*/
 434:Drivers/lvgl/lvgl/src/extra/widgets/meter/lv_meter.c **** 
 435:Drivers/lvgl/lvgl/src/extra/widgets/meter/lv_meter.c ****         uint32_t minor_cnt = scale->tick_major_nth ? scale->tick_major_nth - 1 : 0xFFFF;
 436:Drivers/lvgl/lvgl/src/extra/widgets/meter/lv_meter.c ****         uint16_t i;
 437:Drivers/lvgl/lvgl/src/extra/widgets/meter/lv_meter.c ****         for(i = 0; i < scale->tick_cnt; i++) {
 438:Drivers/lvgl/lvgl/src/extra/widgets/meter/lv_meter.c ****             minor_cnt++;
 439:Drivers/lvgl/lvgl/src/extra/widgets/meter/lv_meter.c ****             bool major = false;
 440:Drivers/lvgl/lvgl/src/extra/widgets/meter/lv_meter.c ****             if(minor_cnt == scale->tick_major_nth) {
 441:Drivers/lvgl/lvgl/src/extra/widgets/meter/lv_meter.c ****                 minor_cnt = 0;
 442:Drivers/lvgl/lvgl/src/extra/widgets/meter/lv_meter.c ****                 major = true;
 421              		.loc 1 442 0
 422 00ac 4FF0010B 		mov	fp, #1
 441:Drivers/lvgl/lvgl/src/extra/widgets/meter/lv_meter.c ****                 major = true;
 423              		.loc 1 441 0
 424 00b0 0023     		movs	r3, #0
 425 00b2 0793     		str	r3, [sp, #28]
 426 00b4 15E1     		b	.L19
 427              	.LVL52:
 428              	.L20:
 443:Drivers/lvgl/lvgl/src/extra/widgets/meter/lv_meter.c ****             }
 444:Drivers/lvgl/lvgl/src/extra/widgets/meter/lv_meter.c **** 
 445:Drivers/lvgl/lvgl/src/extra/widgets/meter/lv_meter.c ****             int32_t value_of_line = lv_map(i, 0, scale->tick_cnt - 1, scale->min, scale->max);
 446:Drivers/lvgl/lvgl/src/extra/widgets/meter/lv_meter.c ****             part_draw_dsc.value = value_of_line;
 447:Drivers/lvgl/lvgl/src/extra/widgets/meter/lv_meter.c **** 
 448:Drivers/lvgl/lvgl/src/extra/widgets/meter/lv_meter.c ****             lv_color_t line_color = major ? scale->tick_major_color : scale->tick_color;
 429              		.loc 1 448 0 discriminator 2
 430 00b6 3D88     		ldrh	r5, [r7]
 431 00b8 23E1     		b	.L21
 432              	.LVL53:
 433              	.L22:
 449:Drivers/lvgl/lvgl/src/extra/widgets/meter/lv_meter.c ****             lv_color_t line_color_ori = line_color;
 450:Drivers/lvgl/lvgl/src/extra/widgets/meter/lv_meter.c **** 
 451:Drivers/lvgl/lvgl/src/extra/widgets/meter/lv_meter.c ****             lv_coord_t line_width_ori = major ? scale->tick_major_width : scale->tick_width;
 434              		.loc 1 451 0 discriminator 2
 435 00ba B7F90630 		ldrsh	r3, [r7, #6]
 436 00be 0693     		str	r3, [sp, #24]
ARM GAS  /tmp/ccVvrzYL.s 			page 28


 437 00c0 28E1     		b	.L23
 438              	.LVL54:
 439              	.L45:
 452:Drivers/lvgl/lvgl/src/extra/widgets/meter/lv_meter.c ****             lv_coord_t line_width = line_width_ori;
 453:Drivers/lvgl/lvgl/src/extra/widgets/meter/lv_meter.c **** 
 454:Drivers/lvgl/lvgl/src/extra/widgets/meter/lv_meter.c ****             lv_meter_indicator_t * indic;
 455:Drivers/lvgl/lvgl/src/extra/widgets/meter/lv_meter.c ****             _LV_LL_READ_BACK(&meter->indicator_ll, indic) {
 456:Drivers/lvgl/lvgl/src/extra/widgets/meter/lv_meter.c ****                 if(indic->type != LV_METER_INDICATOR_TYPE_SCALE_LINES) continue;
 457:Drivers/lvgl/lvgl/src/extra/widgets/meter/lv_meter.c ****                 if(value_of_line >= indic->start_value && value_of_line <= indic->end_value) {
 458:Drivers/lvgl/lvgl/src/extra/widgets/meter/lv_meter.c ****                     line_width += indic->type_data.scale_lines.width_mod;
 459:Drivers/lvgl/lvgl/src/extra/widgets/meter/lv_meter.c **** 
 460:Drivers/lvgl/lvgl/src/extra/widgets/meter/lv_meter.c ****                     if(indic->type_data.scale_lines.color_start.full == indic->type_data.scale_line
 461:Drivers/lvgl/lvgl/src/extra/widgets/meter/lv_meter.c ****                         line_color = indic->type_data.scale_lines.color_start;
 440              		.loc 1 461 0
 441 00c2 658A     		ldrh	r5, [r4, #18]
 442              	.LVL55:
 443 00c4 1CE0     		b	.L25
 444              	.LVL56:
 445              	.L27:
 446              	.LBB63:
 462:Drivers/lvgl/lvgl/src/extra/widgets/meter/lv_meter.c ****                     }
 463:Drivers/lvgl/lvgl/src/extra/widgets/meter/lv_meter.c ****                     else {
 464:Drivers/lvgl/lvgl/src/extra/widgets/meter/lv_meter.c ****                         lv_opa_t ratio;
 465:Drivers/lvgl/lvgl/src/extra/widgets/meter/lv_meter.c ****                         if(indic->type_data.scale_lines.local_grad) {
 466:Drivers/lvgl/lvgl/src/extra/widgets/meter/lv_meter.c ****                             ratio = lv_map(value_of_line, indic->start_value, indic->end_value, LV_
 467:Drivers/lvgl/lvgl/src/extra/widgets/meter/lv_meter.c ****                         }
 468:Drivers/lvgl/lvgl/src/extra/widgets/meter/lv_meter.c ****                         else {
 469:Drivers/lvgl/lvgl/src/extra/widgets/meter/lv_meter.c ****                             ratio = lv_map(value_of_line, scale->min, scale->max, LV_OPA_TRANSP, LV
 447              		.loc 1 469 0
 448 00c6 BA69     		ldr	r2, [r7, #24]
 449 00c8 7969     		ldr	r1, [r7, #20]
 450 00ca FF23     		movs	r3, #255
 451 00cc 0093     		str	r3, [sp]
 452 00ce 0023     		movs	r3, #0
 453 00d0 4846     		mov	r0, r9
 454 00d2 FFF7FEFF 		bl	lv_map
 455              	.LVL57:
 456 00d6 C0B2     		uxtb	r0, r0
 457              	.LVL58:
 458              	.L28:
 459              	.LBB64:
 460              	.LBB65:
 461              		.file 4 "Drivers/lvgl/lvgl/src/extra/widgets/meter/../../../../src/hal/../draw/../misc/lv_color.h"
   1:Drivers/lvgl/lvgl/src/extra/widgets/meter/../../../../src/hal/../draw/../misc/lv_color.h **** /**
   2:Drivers/lvgl/lvgl/src/extra/widgets/meter/../../../../src/hal/../draw/../misc/lv_color.h ****  * @file lv_color.h
   3:Drivers/lvgl/lvgl/src/extra/widgets/meter/../../../../src/hal/../draw/../misc/lv_color.h ****  *
   4:Drivers/lvgl/lvgl/src/extra/widgets/meter/../../../../src/hal/../draw/../misc/lv_color.h ****  */
   5:Drivers/lvgl/lvgl/src/extra/widgets/meter/../../../../src/hal/../draw/../misc/lv_color.h **** 
   6:Drivers/lvgl/lvgl/src/extra/widgets/meter/../../../../src/hal/../draw/../misc/lv_color.h **** #ifndef LV_COLOR_H
   7:Drivers/lvgl/lvgl/src/extra/widgets/meter/../../../../src/hal/../draw/../misc/lv_color.h **** #define LV_COLOR_H
   8:Drivers/lvgl/lvgl/src/extra/widgets/meter/../../../../src/hal/../draw/../misc/lv_color.h **** 
   9:Drivers/lvgl/lvgl/src/extra/widgets/meter/../../../../src/hal/../draw/../misc/lv_color.h **** #ifdef __cplusplus
  10:Drivers/lvgl/lvgl/src/extra/widgets/meter/../../../../src/hal/../draw/../misc/lv_color.h **** extern "C" {
  11:Drivers/lvgl/lvgl/src/extra/widgets/meter/../../../../src/hal/../draw/../misc/lv_color.h **** #endif
  12:Drivers/lvgl/lvgl/src/extra/widgets/meter/../../../../src/hal/../draw/../misc/lv_color.h **** 
  13:Drivers/lvgl/lvgl/src/extra/widgets/meter/../../../../src/hal/../draw/../misc/lv_color.h **** /*********************
  14:Drivers/lvgl/lvgl/src/extra/widgets/meter/../../../../src/hal/../draw/../misc/lv_color.h ****  *      INCLUDES
ARM GAS  /tmp/ccVvrzYL.s 			page 29


  15:Drivers/lvgl/lvgl/src/extra/widgets/meter/../../../../src/hal/../draw/../misc/lv_color.h ****  *********************/
  16:Drivers/lvgl/lvgl/src/extra/widgets/meter/../../../../src/hal/../draw/../misc/lv_color.h **** #include "../lv_conf_internal.h"
  17:Drivers/lvgl/lvgl/src/extra/widgets/meter/../../../../src/hal/../draw/../misc/lv_color.h **** #include "lv_assert.h"
  18:Drivers/lvgl/lvgl/src/extra/widgets/meter/../../../../src/hal/../draw/../misc/lv_color.h **** #include "lv_math.h"
  19:Drivers/lvgl/lvgl/src/extra/widgets/meter/../../../../src/hal/../draw/../misc/lv_color.h **** #include "lv_types.h"
  20:Drivers/lvgl/lvgl/src/extra/widgets/meter/../../../../src/hal/../draw/../misc/lv_color.h **** 
  21:Drivers/lvgl/lvgl/src/extra/widgets/meter/../../../../src/hal/../draw/../misc/lv_color.h **** /*Error checking*/
  22:Drivers/lvgl/lvgl/src/extra/widgets/meter/../../../../src/hal/../draw/../misc/lv_color.h **** #if LV_COLOR_DEPTH == 24
  23:Drivers/lvgl/lvgl/src/extra/widgets/meter/../../../../src/hal/../draw/../misc/lv_color.h **** #error "LV_COLOR_DEPTH 24 is deprecated. Use LV_COLOR_DEPTH 32 instead (lv_conf.h)"
  24:Drivers/lvgl/lvgl/src/extra/widgets/meter/../../../../src/hal/../draw/../misc/lv_color.h **** #endif
  25:Drivers/lvgl/lvgl/src/extra/widgets/meter/../../../../src/hal/../draw/../misc/lv_color.h **** 
  26:Drivers/lvgl/lvgl/src/extra/widgets/meter/../../../../src/hal/../draw/../misc/lv_color.h **** #if LV_COLOR_DEPTH != 16 && LV_COLOR_16_SWAP != 0
  27:Drivers/lvgl/lvgl/src/extra/widgets/meter/../../../../src/hal/../draw/../misc/lv_color.h **** #error "LV_COLOR_16_SWAP requires LV_COLOR_DEPTH == 16. Set it in lv_conf.h"
  28:Drivers/lvgl/lvgl/src/extra/widgets/meter/../../../../src/hal/../draw/../misc/lv_color.h **** #endif
  29:Drivers/lvgl/lvgl/src/extra/widgets/meter/../../../../src/hal/../draw/../misc/lv_color.h **** 
  30:Drivers/lvgl/lvgl/src/extra/widgets/meter/../../../../src/hal/../draw/../misc/lv_color.h **** #include <stdint.h>
  31:Drivers/lvgl/lvgl/src/extra/widgets/meter/../../../../src/hal/../draw/../misc/lv_color.h **** 
  32:Drivers/lvgl/lvgl/src/extra/widgets/meter/../../../../src/hal/../draw/../misc/lv_color.h **** /*********************
  33:Drivers/lvgl/lvgl/src/extra/widgets/meter/../../../../src/hal/../draw/../misc/lv_color.h ****  *      DEFINES
  34:Drivers/lvgl/lvgl/src/extra/widgets/meter/../../../../src/hal/../draw/../misc/lv_color.h ****  *********************/
  35:Drivers/lvgl/lvgl/src/extra/widgets/meter/../../../../src/hal/../draw/../misc/lv_color.h **** LV_EXPORT_CONST_INT(LV_COLOR_DEPTH);
  36:Drivers/lvgl/lvgl/src/extra/widgets/meter/../../../../src/hal/../draw/../misc/lv_color.h **** LV_EXPORT_CONST_INT(LV_COLOR_16_SWAP);
  37:Drivers/lvgl/lvgl/src/extra/widgets/meter/../../../../src/hal/../draw/../misc/lv_color.h **** 
  38:Drivers/lvgl/lvgl/src/extra/widgets/meter/../../../../src/hal/../draw/../misc/lv_color.h **** /**
  39:Drivers/lvgl/lvgl/src/extra/widgets/meter/../../../../src/hal/../draw/../misc/lv_color.h ****  * Opacity percentages.
  40:Drivers/lvgl/lvgl/src/extra/widgets/meter/../../../../src/hal/../draw/../misc/lv_color.h ****  */
  41:Drivers/lvgl/lvgl/src/extra/widgets/meter/../../../../src/hal/../draw/../misc/lv_color.h **** enum {
  42:Drivers/lvgl/lvgl/src/extra/widgets/meter/../../../../src/hal/../draw/../misc/lv_color.h ****     LV_OPA_TRANSP = 0,
  43:Drivers/lvgl/lvgl/src/extra/widgets/meter/../../../../src/hal/../draw/../misc/lv_color.h ****     LV_OPA_0      = 0,
  44:Drivers/lvgl/lvgl/src/extra/widgets/meter/../../../../src/hal/../draw/../misc/lv_color.h ****     LV_OPA_10     = 25,
  45:Drivers/lvgl/lvgl/src/extra/widgets/meter/../../../../src/hal/../draw/../misc/lv_color.h ****     LV_OPA_20     = 51,
  46:Drivers/lvgl/lvgl/src/extra/widgets/meter/../../../../src/hal/../draw/../misc/lv_color.h ****     LV_OPA_30     = 76,
  47:Drivers/lvgl/lvgl/src/extra/widgets/meter/../../../../src/hal/../draw/../misc/lv_color.h ****     LV_OPA_40     = 102,
  48:Drivers/lvgl/lvgl/src/extra/widgets/meter/../../../../src/hal/../draw/../misc/lv_color.h ****     LV_OPA_50     = 127,
  49:Drivers/lvgl/lvgl/src/extra/widgets/meter/../../../../src/hal/../draw/../misc/lv_color.h ****     LV_OPA_60     = 153,
  50:Drivers/lvgl/lvgl/src/extra/widgets/meter/../../../../src/hal/../draw/../misc/lv_color.h ****     LV_OPA_70     = 178,
  51:Drivers/lvgl/lvgl/src/extra/widgets/meter/../../../../src/hal/../draw/../misc/lv_color.h ****     LV_OPA_80     = 204,
  52:Drivers/lvgl/lvgl/src/extra/widgets/meter/../../../../src/hal/../draw/../misc/lv_color.h ****     LV_OPA_90     = 229,
  53:Drivers/lvgl/lvgl/src/extra/widgets/meter/../../../../src/hal/../draw/../misc/lv_color.h ****     LV_OPA_100    = 255,
  54:Drivers/lvgl/lvgl/src/extra/widgets/meter/../../../../src/hal/../draw/../misc/lv_color.h ****     LV_OPA_COVER  = 255,
  55:Drivers/lvgl/lvgl/src/extra/widgets/meter/../../../../src/hal/../draw/../misc/lv_color.h **** };
  56:Drivers/lvgl/lvgl/src/extra/widgets/meter/../../../../src/hal/../draw/../misc/lv_color.h **** 
  57:Drivers/lvgl/lvgl/src/extra/widgets/meter/../../../../src/hal/../draw/../misc/lv_color.h **** #define LV_OPA_MIN 2    /*Opacities below this will be transparent*/
  58:Drivers/lvgl/lvgl/src/extra/widgets/meter/../../../../src/hal/../draw/../misc/lv_color.h **** #define LV_OPA_MAX 253  /*Opacities above this will fully cover*/
  59:Drivers/lvgl/lvgl/src/extra/widgets/meter/../../../../src/hal/../draw/../misc/lv_color.h **** 
  60:Drivers/lvgl/lvgl/src/extra/widgets/meter/../../../../src/hal/../draw/../misc/lv_color.h **** #if LV_COLOR_DEPTH == 1
  61:Drivers/lvgl/lvgl/src/extra/widgets/meter/../../../../src/hal/../draw/../misc/lv_color.h **** #define LV_COLOR_SIZE 8
  62:Drivers/lvgl/lvgl/src/extra/widgets/meter/../../../../src/hal/../draw/../misc/lv_color.h **** #elif LV_COLOR_DEPTH == 8
  63:Drivers/lvgl/lvgl/src/extra/widgets/meter/../../../../src/hal/../draw/../misc/lv_color.h **** #define LV_COLOR_SIZE 8
  64:Drivers/lvgl/lvgl/src/extra/widgets/meter/../../../../src/hal/../draw/../misc/lv_color.h **** #elif LV_COLOR_DEPTH == 16
  65:Drivers/lvgl/lvgl/src/extra/widgets/meter/../../../../src/hal/../draw/../misc/lv_color.h **** #define LV_COLOR_SIZE 16
  66:Drivers/lvgl/lvgl/src/extra/widgets/meter/../../../../src/hal/../draw/../misc/lv_color.h **** #elif LV_COLOR_DEPTH == 32
  67:Drivers/lvgl/lvgl/src/extra/widgets/meter/../../../../src/hal/../draw/../misc/lv_color.h **** #define LV_COLOR_SIZE 32
  68:Drivers/lvgl/lvgl/src/extra/widgets/meter/../../../../src/hal/../draw/../misc/lv_color.h **** #else
  69:Drivers/lvgl/lvgl/src/extra/widgets/meter/../../../../src/hal/../draw/../misc/lv_color.h **** #error "Invalid LV_COLOR_DEPTH in lv_conf.h! Set it to 1, 8, 16 or 32!"
  70:Drivers/lvgl/lvgl/src/extra/widgets/meter/../../../../src/hal/../draw/../misc/lv_color.h **** #endif
  71:Drivers/lvgl/lvgl/src/extra/widgets/meter/../../../../src/hal/../draw/../misc/lv_color.h **** 
ARM GAS  /tmp/ccVvrzYL.s 			page 30


  72:Drivers/lvgl/lvgl/src/extra/widgets/meter/../../../../src/hal/../draw/../misc/lv_color.h **** #if defined(__cplusplus) && !defined(_LV_COLOR_HAS_MODERN_CPP)
  73:Drivers/lvgl/lvgl/src/extra/widgets/meter/../../../../src/hal/../draw/../misc/lv_color.h **** /**
  74:Drivers/lvgl/lvgl/src/extra/widgets/meter/../../../../src/hal/../draw/../misc/lv_color.h **** * MSVC compiler's definition of the __cplusplus indicating 199711L regardless to C++ standard versi
  75:Drivers/lvgl/lvgl/src/extra/widgets/meter/../../../../src/hal/../draw/../misc/lv_color.h **** * see https://devblogs.microsoft.com/cppblog/msvc-now-correctly-reports-cplusplus
  76:Drivers/lvgl/lvgl/src/extra/widgets/meter/../../../../src/hal/../draw/../misc/lv_color.h **** * so we use _MSC_VER macro instead of __cplusplus
  77:Drivers/lvgl/lvgl/src/extra/widgets/meter/../../../../src/hal/../draw/../misc/lv_color.h **** */
  78:Drivers/lvgl/lvgl/src/extra/widgets/meter/../../../../src/hal/../draw/../misc/lv_color.h **** #ifdef _MSC_VER
  79:Drivers/lvgl/lvgl/src/extra/widgets/meter/../../../../src/hal/../draw/../misc/lv_color.h **** #if _MSC_VER >= 1900 /*Visual Studio 2015*/
  80:Drivers/lvgl/lvgl/src/extra/widgets/meter/../../../../src/hal/../draw/../misc/lv_color.h **** #define _LV_COLOR_HAS_MODERN_CPP 1
  81:Drivers/lvgl/lvgl/src/extra/widgets/meter/../../../../src/hal/../draw/../misc/lv_color.h **** #endif
  82:Drivers/lvgl/lvgl/src/extra/widgets/meter/../../../../src/hal/../draw/../misc/lv_color.h **** #else
  83:Drivers/lvgl/lvgl/src/extra/widgets/meter/../../../../src/hal/../draw/../misc/lv_color.h **** #if __cplusplus >= 201103L
  84:Drivers/lvgl/lvgl/src/extra/widgets/meter/../../../../src/hal/../draw/../misc/lv_color.h **** #define _LV_COLOR_HAS_MODERN_CPP 1
  85:Drivers/lvgl/lvgl/src/extra/widgets/meter/../../../../src/hal/../draw/../misc/lv_color.h **** #endif
  86:Drivers/lvgl/lvgl/src/extra/widgets/meter/../../../../src/hal/../draw/../misc/lv_color.h **** #endif
  87:Drivers/lvgl/lvgl/src/extra/widgets/meter/../../../../src/hal/../draw/../misc/lv_color.h **** #endif /*__cplusplus*/
  88:Drivers/lvgl/lvgl/src/extra/widgets/meter/../../../../src/hal/../draw/../misc/lv_color.h **** 
  89:Drivers/lvgl/lvgl/src/extra/widgets/meter/../../../../src/hal/../draw/../misc/lv_color.h **** #ifndef _LV_COLOR_HAS_MODERN_CPP
  90:Drivers/lvgl/lvgl/src/extra/widgets/meter/../../../../src/hal/../draw/../misc/lv_color.h **** #define _LV_COLOR_HAS_MODERN_CPP 0
  91:Drivers/lvgl/lvgl/src/extra/widgets/meter/../../../../src/hal/../draw/../misc/lv_color.h **** #endif
  92:Drivers/lvgl/lvgl/src/extra/widgets/meter/../../../../src/hal/../draw/../misc/lv_color.h **** 
  93:Drivers/lvgl/lvgl/src/extra/widgets/meter/../../../../src/hal/../draw/../misc/lv_color.h **** #if _LV_COLOR_HAS_MODERN_CPP
  94:Drivers/lvgl/lvgl/src/extra/widgets/meter/../../../../src/hal/../draw/../misc/lv_color.h **** /*Fix msvc compiler error C4576 inside C++ code*/
  95:Drivers/lvgl/lvgl/src/extra/widgets/meter/../../../../src/hal/../draw/../misc/lv_color.h **** #define _LV_COLOR_MAKE_TYPE_HELPER lv_color_t
  96:Drivers/lvgl/lvgl/src/extra/widgets/meter/../../../../src/hal/../draw/../misc/lv_color.h **** #else
  97:Drivers/lvgl/lvgl/src/extra/widgets/meter/../../../../src/hal/../draw/../misc/lv_color.h **** #define _LV_COLOR_MAKE_TYPE_HELPER (lv_color_t)
  98:Drivers/lvgl/lvgl/src/extra/widgets/meter/../../../../src/hal/../draw/../misc/lv_color.h **** #endif
  99:Drivers/lvgl/lvgl/src/extra/widgets/meter/../../../../src/hal/../draw/../misc/lv_color.h **** 
 100:Drivers/lvgl/lvgl/src/extra/widgets/meter/../../../../src/hal/../draw/../misc/lv_color.h **** /*---------------------------------------
 101:Drivers/lvgl/lvgl/src/extra/widgets/meter/../../../../src/hal/../draw/../misc/lv_color.h ****  * Macros for all existing color depths
 102:Drivers/lvgl/lvgl/src/extra/widgets/meter/../../../../src/hal/../draw/../misc/lv_color.h ****  * to set/get values of the color channels
 103:Drivers/lvgl/lvgl/src/extra/widgets/meter/../../../../src/hal/../draw/../misc/lv_color.h ****  *------------------------------------------*/
 104:Drivers/lvgl/lvgl/src/extra/widgets/meter/../../../../src/hal/../draw/../misc/lv_color.h **** # define LV_COLOR_SET_R1(c, v) (c).ch.red = (uint8_t)((v) & 0x1)
 105:Drivers/lvgl/lvgl/src/extra/widgets/meter/../../../../src/hal/../draw/../misc/lv_color.h **** # define LV_COLOR_SET_G1(c, v) (c).ch.green = (uint8_t)((v) & 0x1)
 106:Drivers/lvgl/lvgl/src/extra/widgets/meter/../../../../src/hal/../draw/../misc/lv_color.h **** # define LV_COLOR_SET_B1(c, v) (c).ch.blue = (uint8_t)((v) & 0x1)
 107:Drivers/lvgl/lvgl/src/extra/widgets/meter/../../../../src/hal/../draw/../misc/lv_color.h **** # define LV_COLOR_SET_A1(c, v) do {} while(0)
 108:Drivers/lvgl/lvgl/src/extra/widgets/meter/../../../../src/hal/../draw/../misc/lv_color.h **** 
 109:Drivers/lvgl/lvgl/src/extra/widgets/meter/../../../../src/hal/../draw/../misc/lv_color.h **** # define LV_COLOR_GET_R1(c) (c).ch.red
 110:Drivers/lvgl/lvgl/src/extra/widgets/meter/../../../../src/hal/../draw/../misc/lv_color.h **** # define LV_COLOR_GET_G1(c) (c).ch.green
 111:Drivers/lvgl/lvgl/src/extra/widgets/meter/../../../../src/hal/../draw/../misc/lv_color.h **** # define LV_COLOR_GET_B1(c) (c).ch.blue
 112:Drivers/lvgl/lvgl/src/extra/widgets/meter/../../../../src/hal/../draw/../misc/lv_color.h **** # define LV_COLOR_GET_A1(c) 0xFF
 113:Drivers/lvgl/lvgl/src/extra/widgets/meter/../../../../src/hal/../draw/../misc/lv_color.h **** 
 114:Drivers/lvgl/lvgl/src/extra/widgets/meter/../../../../src/hal/../draw/../misc/lv_color.h **** # define _LV_COLOR_ZERO_INITIALIZER1 {0x00}
 115:Drivers/lvgl/lvgl/src/extra/widgets/meter/../../../../src/hal/../draw/../misc/lv_color.h **** # define LV_COLOR_MAKE1(r8, g8, b8)  {(uint8_t)((b8 >> 7) | (g8 >> 7) | (r8 >> 7))}
 116:Drivers/lvgl/lvgl/src/extra/widgets/meter/../../../../src/hal/../draw/../misc/lv_color.h **** 
 117:Drivers/lvgl/lvgl/src/extra/widgets/meter/../../../../src/hal/../draw/../misc/lv_color.h **** # define LV_COLOR_SET_R8(c, v) (c).ch.red = (uint8_t)((v) & 0x7U)
 118:Drivers/lvgl/lvgl/src/extra/widgets/meter/../../../../src/hal/../draw/../misc/lv_color.h **** # define LV_COLOR_SET_G8(c, v) (c).ch.green = (uint8_t)((v) & 0x7U)
 119:Drivers/lvgl/lvgl/src/extra/widgets/meter/../../../../src/hal/../draw/../misc/lv_color.h **** # define LV_COLOR_SET_B8(c, v) (c).ch.blue = (uint8_t)((v) & 0x3U)
 120:Drivers/lvgl/lvgl/src/extra/widgets/meter/../../../../src/hal/../draw/../misc/lv_color.h **** # define LV_COLOR_SET_A8(c, v) do {} while(0)
 121:Drivers/lvgl/lvgl/src/extra/widgets/meter/../../../../src/hal/../draw/../misc/lv_color.h **** 
 122:Drivers/lvgl/lvgl/src/extra/widgets/meter/../../../../src/hal/../draw/../misc/lv_color.h **** # define LV_COLOR_GET_R8(c) (c).ch.red
 123:Drivers/lvgl/lvgl/src/extra/widgets/meter/../../../../src/hal/../draw/../misc/lv_color.h **** # define LV_COLOR_GET_G8(c) (c).ch.green
 124:Drivers/lvgl/lvgl/src/extra/widgets/meter/../../../../src/hal/../draw/../misc/lv_color.h **** # define LV_COLOR_GET_B8(c) (c).ch.blue
 125:Drivers/lvgl/lvgl/src/extra/widgets/meter/../../../../src/hal/../draw/../misc/lv_color.h **** # define LV_COLOR_GET_A8(c) 0xFF
 126:Drivers/lvgl/lvgl/src/extra/widgets/meter/../../../../src/hal/../draw/../misc/lv_color.h **** 
 127:Drivers/lvgl/lvgl/src/extra/widgets/meter/../../../../src/hal/../draw/../misc/lv_color.h **** # define _LV_COLOR_ZERO_INITIALIZER8 {{0x00, 0x00, 0x00}}
 128:Drivers/lvgl/lvgl/src/extra/widgets/meter/../../../../src/hal/../draw/../misc/lv_color.h **** # define LV_COLOR_MAKE8(r8, g8, b8) {{(uint8_t)((b8 >> 6) & 0x3U), (uint8_t)((g8 >> 5) & 0x7U), (ui
ARM GAS  /tmp/ccVvrzYL.s 			page 31


 129:Drivers/lvgl/lvgl/src/extra/widgets/meter/../../../../src/hal/../draw/../misc/lv_color.h **** 
 130:Drivers/lvgl/lvgl/src/extra/widgets/meter/../../../../src/hal/../draw/../misc/lv_color.h **** # define LV_COLOR_SET_R16(c, v) (c).ch.red = (uint8_t)((v) & 0x1FU)
 131:Drivers/lvgl/lvgl/src/extra/widgets/meter/../../../../src/hal/../draw/../misc/lv_color.h **** #if LV_COLOR_16_SWAP == 0
 132:Drivers/lvgl/lvgl/src/extra/widgets/meter/../../../../src/hal/../draw/../misc/lv_color.h **** # define LV_COLOR_SET_G16(c, v) (c).ch.green = (uint8_t)((v) & 0x3FU)
 133:Drivers/lvgl/lvgl/src/extra/widgets/meter/../../../../src/hal/../draw/../misc/lv_color.h **** #else
 134:Drivers/lvgl/lvgl/src/extra/widgets/meter/../../../../src/hal/../draw/../misc/lv_color.h **** # define LV_COLOR_SET_G16(c, v) {(c).ch.green_h = (uint8_t)(((v) >> 3) & 0x7); (c).ch.green_l = (ui
 135:Drivers/lvgl/lvgl/src/extra/widgets/meter/../../../../src/hal/../draw/../misc/lv_color.h **** #endif
 136:Drivers/lvgl/lvgl/src/extra/widgets/meter/../../../../src/hal/../draw/../misc/lv_color.h **** # define LV_COLOR_SET_B16(c, v) (c).ch.blue = (uint8_t)((v) & 0x1FU)
 137:Drivers/lvgl/lvgl/src/extra/widgets/meter/../../../../src/hal/../draw/../misc/lv_color.h **** # define LV_COLOR_SET_A16(c, v) do {} while(0)
 138:Drivers/lvgl/lvgl/src/extra/widgets/meter/../../../../src/hal/../draw/../misc/lv_color.h **** 
 139:Drivers/lvgl/lvgl/src/extra/widgets/meter/../../../../src/hal/../draw/../misc/lv_color.h **** # define LV_COLOR_GET_R16(c) (c).ch.red
 140:Drivers/lvgl/lvgl/src/extra/widgets/meter/../../../../src/hal/../draw/../misc/lv_color.h **** #if LV_COLOR_16_SWAP == 0
 141:Drivers/lvgl/lvgl/src/extra/widgets/meter/../../../../src/hal/../draw/../misc/lv_color.h **** # define LV_COLOR_GET_G16(c) (c).ch.green
 142:Drivers/lvgl/lvgl/src/extra/widgets/meter/../../../../src/hal/../draw/../misc/lv_color.h **** #else
 143:Drivers/lvgl/lvgl/src/extra/widgets/meter/../../../../src/hal/../draw/../misc/lv_color.h **** # define LV_COLOR_GET_G16(c) (((c).ch.green_h << 3) + (c).ch.green_l)
 144:Drivers/lvgl/lvgl/src/extra/widgets/meter/../../../../src/hal/../draw/../misc/lv_color.h **** #endif
 145:Drivers/lvgl/lvgl/src/extra/widgets/meter/../../../../src/hal/../draw/../misc/lv_color.h **** # define LV_COLOR_GET_B16(c) (c).ch.blue
 146:Drivers/lvgl/lvgl/src/extra/widgets/meter/../../../../src/hal/../draw/../misc/lv_color.h **** # define LV_COLOR_GET_A16(c) 0xFF
 147:Drivers/lvgl/lvgl/src/extra/widgets/meter/../../../../src/hal/../draw/../misc/lv_color.h **** 
 148:Drivers/lvgl/lvgl/src/extra/widgets/meter/../../../../src/hal/../draw/../misc/lv_color.h **** #if LV_COLOR_16_SWAP == 0
 149:Drivers/lvgl/lvgl/src/extra/widgets/meter/../../../../src/hal/../draw/../misc/lv_color.h **** # define _LV_COLOR_ZERO_INITIALIZER16  {{0x00, 0x00, 0x00}}
 150:Drivers/lvgl/lvgl/src/extra/widgets/meter/../../../../src/hal/../draw/../misc/lv_color.h **** # define LV_COLOR_MAKE16(r8, g8, b8) {{(uint8_t)((b8 >> 3) & 0x1FU), (uint8_t)((g8 >> 2) & 0x3FU), 
 151:Drivers/lvgl/lvgl/src/extra/widgets/meter/../../../../src/hal/../draw/../misc/lv_color.h **** #else
 152:Drivers/lvgl/lvgl/src/extra/widgets/meter/../../../../src/hal/../draw/../misc/lv_color.h **** # define _LV_COLOR_ZERO_INITIALIZER16 {{0x00, 0x00, 0x00, 0x00}}
 153:Drivers/lvgl/lvgl/src/extra/widgets/meter/../../../../src/hal/../draw/../misc/lv_color.h **** # define LV_COLOR_MAKE16(r8, g8, b8) {{(uint8_t)((g8 >> 5) & 0x7U), (uint8_t)((r8 >> 3) & 0x1FU), (
 154:Drivers/lvgl/lvgl/src/extra/widgets/meter/../../../../src/hal/../draw/../misc/lv_color.h **** #endif
 155:Drivers/lvgl/lvgl/src/extra/widgets/meter/../../../../src/hal/../draw/../misc/lv_color.h **** 
 156:Drivers/lvgl/lvgl/src/extra/widgets/meter/../../../../src/hal/../draw/../misc/lv_color.h **** # define LV_COLOR_SET_R32(c, v) (c).ch.red = (uint8_t)((v) & 0xFF)
 157:Drivers/lvgl/lvgl/src/extra/widgets/meter/../../../../src/hal/../draw/../misc/lv_color.h **** # define LV_COLOR_SET_G32(c, v) (c).ch.green = (uint8_t)((v) & 0xFF)
 158:Drivers/lvgl/lvgl/src/extra/widgets/meter/../../../../src/hal/../draw/../misc/lv_color.h **** # define LV_COLOR_SET_B32(c, v) (c).ch.blue = (uint8_t)((v) & 0xFF)
 159:Drivers/lvgl/lvgl/src/extra/widgets/meter/../../../../src/hal/../draw/../misc/lv_color.h **** # define LV_COLOR_SET_A32(c, v) (c).ch.alpha = (uint8_t)((v) & 0xFF)
 160:Drivers/lvgl/lvgl/src/extra/widgets/meter/../../../../src/hal/../draw/../misc/lv_color.h **** 
 161:Drivers/lvgl/lvgl/src/extra/widgets/meter/../../../../src/hal/../draw/../misc/lv_color.h **** # define LV_COLOR_GET_R32(c) (c).ch.red
 162:Drivers/lvgl/lvgl/src/extra/widgets/meter/../../../../src/hal/../draw/../misc/lv_color.h **** # define LV_COLOR_GET_G32(c) (c).ch.green
 163:Drivers/lvgl/lvgl/src/extra/widgets/meter/../../../../src/hal/../draw/../misc/lv_color.h **** # define LV_COLOR_GET_B32(c) (c).ch.blue
 164:Drivers/lvgl/lvgl/src/extra/widgets/meter/../../../../src/hal/../draw/../misc/lv_color.h **** # define LV_COLOR_GET_A32(c) (c).ch.alpha
 165:Drivers/lvgl/lvgl/src/extra/widgets/meter/../../../../src/hal/../draw/../misc/lv_color.h **** 
 166:Drivers/lvgl/lvgl/src/extra/widgets/meter/../../../../src/hal/../draw/../misc/lv_color.h **** # define _LV_COLOR_ZERO_INITIALIZER32  {{0x00, 0x00, 0x00, 0x00}}
 167:Drivers/lvgl/lvgl/src/extra/widgets/meter/../../../../src/hal/../draw/../misc/lv_color.h **** # define LV_COLOR_MAKE32(r8, g8, b8) {{b8, g8, r8, 0xff}} /*Fix 0xff alpha*/
 168:Drivers/lvgl/lvgl/src/extra/widgets/meter/../../../../src/hal/../draw/../misc/lv_color.h **** 
 169:Drivers/lvgl/lvgl/src/extra/widgets/meter/../../../../src/hal/../draw/../misc/lv_color.h **** /*---------------------------------------
 170:Drivers/lvgl/lvgl/src/extra/widgets/meter/../../../../src/hal/../draw/../misc/lv_color.h ****  * Macros for the current color depth
 171:Drivers/lvgl/lvgl/src/extra/widgets/meter/../../../../src/hal/../draw/../misc/lv_color.h ****  * to set/get values of the color channels
 172:Drivers/lvgl/lvgl/src/extra/widgets/meter/../../../../src/hal/../draw/../misc/lv_color.h ****  *------------------------------------------*/
 173:Drivers/lvgl/lvgl/src/extra/widgets/meter/../../../../src/hal/../draw/../misc/lv_color.h **** #define LV_COLOR_SET_R(c, v) LV_CONCAT(LV_COLOR_SET_R, LV_COLOR_DEPTH)(c, v)
 174:Drivers/lvgl/lvgl/src/extra/widgets/meter/../../../../src/hal/../draw/../misc/lv_color.h **** #define LV_COLOR_SET_G(c, v) LV_CONCAT(LV_COLOR_SET_G, LV_COLOR_DEPTH)(c, v)
 175:Drivers/lvgl/lvgl/src/extra/widgets/meter/../../../../src/hal/../draw/../misc/lv_color.h **** #define LV_COLOR_SET_B(c, v) LV_CONCAT(LV_COLOR_SET_B, LV_COLOR_DEPTH)(c, v)
 176:Drivers/lvgl/lvgl/src/extra/widgets/meter/../../../../src/hal/../draw/../misc/lv_color.h **** #define LV_COLOR_SET_A(c, v) LV_CONCAT(LV_COLOR_SET_A, LV_COLOR_DEPTH)(c, v)
 177:Drivers/lvgl/lvgl/src/extra/widgets/meter/../../../../src/hal/../draw/../misc/lv_color.h **** 
 178:Drivers/lvgl/lvgl/src/extra/widgets/meter/../../../../src/hal/../draw/../misc/lv_color.h **** #define LV_COLOR_GET_R(c) LV_CONCAT(LV_COLOR_GET_R, LV_COLOR_DEPTH)(c)
 179:Drivers/lvgl/lvgl/src/extra/widgets/meter/../../../../src/hal/../draw/../misc/lv_color.h **** #define LV_COLOR_GET_G(c) LV_CONCAT(LV_COLOR_GET_G, LV_COLOR_DEPTH)(c)
 180:Drivers/lvgl/lvgl/src/extra/widgets/meter/../../../../src/hal/../draw/../misc/lv_color.h **** #define LV_COLOR_GET_B(c) LV_CONCAT(LV_COLOR_GET_B, LV_COLOR_DEPTH)(c)
 181:Drivers/lvgl/lvgl/src/extra/widgets/meter/../../../../src/hal/../draw/../misc/lv_color.h **** #define LV_COLOR_GET_A(c) LV_CONCAT(LV_COLOR_GET_A, LV_COLOR_DEPTH)(c)
 182:Drivers/lvgl/lvgl/src/extra/widgets/meter/../../../../src/hal/../draw/../misc/lv_color.h **** 
 183:Drivers/lvgl/lvgl/src/extra/widgets/meter/../../../../src/hal/../draw/../misc/lv_color.h **** #define _LV_COLOR_ZERO_INITIALIZER LV_CONCAT(_LV_COLOR_ZERO_INITIALIZER, LV_COLOR_DEPTH)
 184:Drivers/lvgl/lvgl/src/extra/widgets/meter/../../../../src/hal/../draw/../misc/lv_color.h **** #define LV_COLOR_MAKE(r8, g8, b8) LV_CONCAT(LV_COLOR_MAKE, LV_COLOR_DEPTH)(r8, g8, b8)
 185:Drivers/lvgl/lvgl/src/extra/widgets/meter/../../../../src/hal/../draw/../misc/lv_color.h **** 
ARM GAS  /tmp/ccVvrzYL.s 			page 32


 186:Drivers/lvgl/lvgl/src/extra/widgets/meter/../../../../src/hal/../draw/../misc/lv_color.h **** /**********************
 187:Drivers/lvgl/lvgl/src/extra/widgets/meter/../../../../src/hal/../draw/../misc/lv_color.h ****  *      TYPEDEFS
 188:Drivers/lvgl/lvgl/src/extra/widgets/meter/../../../../src/hal/../draw/../misc/lv_color.h ****  **********************/
 189:Drivers/lvgl/lvgl/src/extra/widgets/meter/../../../../src/hal/../draw/../misc/lv_color.h **** 
 190:Drivers/lvgl/lvgl/src/extra/widgets/meter/../../../../src/hal/../draw/../misc/lv_color.h **** typedef union {
 191:Drivers/lvgl/lvgl/src/extra/widgets/meter/../../../../src/hal/../draw/../misc/lv_color.h ****     uint8_t full; /*must be declared first to set all bits of byte via initializer list*/
 192:Drivers/lvgl/lvgl/src/extra/widgets/meter/../../../../src/hal/../draw/../misc/lv_color.h ****     union {
 193:Drivers/lvgl/lvgl/src/extra/widgets/meter/../../../../src/hal/../draw/../misc/lv_color.h ****         uint8_t blue : 1;
 194:Drivers/lvgl/lvgl/src/extra/widgets/meter/../../../../src/hal/../draw/../misc/lv_color.h ****         uint8_t green : 1;
 195:Drivers/lvgl/lvgl/src/extra/widgets/meter/../../../../src/hal/../draw/../misc/lv_color.h ****         uint8_t red : 1;
 196:Drivers/lvgl/lvgl/src/extra/widgets/meter/../../../../src/hal/../draw/../misc/lv_color.h ****     } ch;
 197:Drivers/lvgl/lvgl/src/extra/widgets/meter/../../../../src/hal/../draw/../misc/lv_color.h **** } lv_color1_t;
 198:Drivers/lvgl/lvgl/src/extra/widgets/meter/../../../../src/hal/../draw/../misc/lv_color.h **** 
 199:Drivers/lvgl/lvgl/src/extra/widgets/meter/../../../../src/hal/../draw/../misc/lv_color.h **** typedef union {
 200:Drivers/lvgl/lvgl/src/extra/widgets/meter/../../../../src/hal/../draw/../misc/lv_color.h ****     struct {
 201:Drivers/lvgl/lvgl/src/extra/widgets/meter/../../../../src/hal/../draw/../misc/lv_color.h ****         uint8_t blue : 2;
 202:Drivers/lvgl/lvgl/src/extra/widgets/meter/../../../../src/hal/../draw/../misc/lv_color.h ****         uint8_t green : 3;
 203:Drivers/lvgl/lvgl/src/extra/widgets/meter/../../../../src/hal/../draw/../misc/lv_color.h ****         uint8_t red : 3;
 204:Drivers/lvgl/lvgl/src/extra/widgets/meter/../../../../src/hal/../draw/../misc/lv_color.h ****     } ch;
 205:Drivers/lvgl/lvgl/src/extra/widgets/meter/../../../../src/hal/../draw/../misc/lv_color.h ****     uint8_t full;
 206:Drivers/lvgl/lvgl/src/extra/widgets/meter/../../../../src/hal/../draw/../misc/lv_color.h **** } lv_color8_t;
 207:Drivers/lvgl/lvgl/src/extra/widgets/meter/../../../../src/hal/../draw/../misc/lv_color.h **** 
 208:Drivers/lvgl/lvgl/src/extra/widgets/meter/../../../../src/hal/../draw/../misc/lv_color.h **** typedef union {
 209:Drivers/lvgl/lvgl/src/extra/widgets/meter/../../../../src/hal/../draw/../misc/lv_color.h ****     struct {
 210:Drivers/lvgl/lvgl/src/extra/widgets/meter/../../../../src/hal/../draw/../misc/lv_color.h **** #if LV_COLOR_16_SWAP == 0
 211:Drivers/lvgl/lvgl/src/extra/widgets/meter/../../../../src/hal/../draw/../misc/lv_color.h ****         uint16_t blue : 5;
 212:Drivers/lvgl/lvgl/src/extra/widgets/meter/../../../../src/hal/../draw/../misc/lv_color.h ****         uint16_t green : 6;
 213:Drivers/lvgl/lvgl/src/extra/widgets/meter/../../../../src/hal/../draw/../misc/lv_color.h ****         uint16_t red : 5;
 214:Drivers/lvgl/lvgl/src/extra/widgets/meter/../../../../src/hal/../draw/../misc/lv_color.h **** #else
 215:Drivers/lvgl/lvgl/src/extra/widgets/meter/../../../../src/hal/../draw/../misc/lv_color.h ****         uint16_t green_h : 3;
 216:Drivers/lvgl/lvgl/src/extra/widgets/meter/../../../../src/hal/../draw/../misc/lv_color.h ****         uint16_t red : 5;
 217:Drivers/lvgl/lvgl/src/extra/widgets/meter/../../../../src/hal/../draw/../misc/lv_color.h ****         uint16_t blue : 5;
 218:Drivers/lvgl/lvgl/src/extra/widgets/meter/../../../../src/hal/../draw/../misc/lv_color.h ****         uint16_t green_l : 3;
 219:Drivers/lvgl/lvgl/src/extra/widgets/meter/../../../../src/hal/../draw/../misc/lv_color.h **** #endif
 220:Drivers/lvgl/lvgl/src/extra/widgets/meter/../../../../src/hal/../draw/../misc/lv_color.h ****     } ch;
 221:Drivers/lvgl/lvgl/src/extra/widgets/meter/../../../../src/hal/../draw/../misc/lv_color.h ****     uint16_t full;
 222:Drivers/lvgl/lvgl/src/extra/widgets/meter/../../../../src/hal/../draw/../misc/lv_color.h **** } lv_color16_t;
 223:Drivers/lvgl/lvgl/src/extra/widgets/meter/../../../../src/hal/../draw/../misc/lv_color.h **** 
 224:Drivers/lvgl/lvgl/src/extra/widgets/meter/../../../../src/hal/../draw/../misc/lv_color.h **** typedef union {
 225:Drivers/lvgl/lvgl/src/extra/widgets/meter/../../../../src/hal/../draw/../misc/lv_color.h ****     struct {
 226:Drivers/lvgl/lvgl/src/extra/widgets/meter/../../../../src/hal/../draw/../misc/lv_color.h ****         uint8_t blue;
 227:Drivers/lvgl/lvgl/src/extra/widgets/meter/../../../../src/hal/../draw/../misc/lv_color.h ****         uint8_t green;
 228:Drivers/lvgl/lvgl/src/extra/widgets/meter/../../../../src/hal/../draw/../misc/lv_color.h ****         uint8_t red;
 229:Drivers/lvgl/lvgl/src/extra/widgets/meter/../../../../src/hal/../draw/../misc/lv_color.h ****         uint8_t alpha;
 230:Drivers/lvgl/lvgl/src/extra/widgets/meter/../../../../src/hal/../draw/../misc/lv_color.h ****     } ch;
 231:Drivers/lvgl/lvgl/src/extra/widgets/meter/../../../../src/hal/../draw/../misc/lv_color.h ****     uint32_t full;
 232:Drivers/lvgl/lvgl/src/extra/widgets/meter/../../../../src/hal/../draw/../misc/lv_color.h **** } lv_color32_t;
 233:Drivers/lvgl/lvgl/src/extra/widgets/meter/../../../../src/hal/../draw/../misc/lv_color.h **** 
 234:Drivers/lvgl/lvgl/src/extra/widgets/meter/../../../../src/hal/../draw/../misc/lv_color.h **** typedef LV_CONCAT3(uint, LV_COLOR_SIZE, _t) lv_color_int_t;
 235:Drivers/lvgl/lvgl/src/extra/widgets/meter/../../../../src/hal/../draw/../misc/lv_color.h **** typedef LV_CONCAT3(lv_color, LV_COLOR_DEPTH, _t) lv_color_t;
 236:Drivers/lvgl/lvgl/src/extra/widgets/meter/../../../../src/hal/../draw/../misc/lv_color.h **** 
 237:Drivers/lvgl/lvgl/src/extra/widgets/meter/../../../../src/hal/../draw/../misc/lv_color.h **** typedef struct {
 238:Drivers/lvgl/lvgl/src/extra/widgets/meter/../../../../src/hal/../draw/../misc/lv_color.h ****     uint16_t h;
 239:Drivers/lvgl/lvgl/src/extra/widgets/meter/../../../../src/hal/../draw/../misc/lv_color.h ****     uint8_t s;
 240:Drivers/lvgl/lvgl/src/extra/widgets/meter/../../../../src/hal/../draw/../misc/lv_color.h ****     uint8_t v;
 241:Drivers/lvgl/lvgl/src/extra/widgets/meter/../../../../src/hal/../draw/../misc/lv_color.h **** } lv_color_hsv_t;
 242:Drivers/lvgl/lvgl/src/extra/widgets/meter/../../../../src/hal/../draw/../misc/lv_color.h **** 
ARM GAS  /tmp/ccVvrzYL.s 			page 33


 243:Drivers/lvgl/lvgl/src/extra/widgets/meter/../../../../src/hal/../draw/../misc/lv_color.h **** //! @cond Doxygen_Suppress
 244:Drivers/lvgl/lvgl/src/extra/widgets/meter/../../../../src/hal/../draw/../misc/lv_color.h **** /*No idea where the guard is required but else throws warnings in the docs*/
 245:Drivers/lvgl/lvgl/src/extra/widgets/meter/../../../../src/hal/../draw/../misc/lv_color.h **** typedef uint8_t lv_opa_t;
 246:Drivers/lvgl/lvgl/src/extra/widgets/meter/../../../../src/hal/../draw/../misc/lv_color.h **** //! @endcond
 247:Drivers/lvgl/lvgl/src/extra/widgets/meter/../../../../src/hal/../draw/../misc/lv_color.h **** 
 248:Drivers/lvgl/lvgl/src/extra/widgets/meter/../../../../src/hal/../draw/../misc/lv_color.h **** struct _lv_color_filter_dsc_t;
 249:Drivers/lvgl/lvgl/src/extra/widgets/meter/../../../../src/hal/../draw/../misc/lv_color.h **** 
 250:Drivers/lvgl/lvgl/src/extra/widgets/meter/../../../../src/hal/../draw/../misc/lv_color.h **** typedef lv_color_t (*lv_color_filter_cb_t)(const struct _lv_color_filter_dsc_t *, lv_color_t, lv_op
 251:Drivers/lvgl/lvgl/src/extra/widgets/meter/../../../../src/hal/../draw/../misc/lv_color.h **** 
 252:Drivers/lvgl/lvgl/src/extra/widgets/meter/../../../../src/hal/../draw/../misc/lv_color.h **** typedef struct _lv_color_filter_dsc_t {
 253:Drivers/lvgl/lvgl/src/extra/widgets/meter/../../../../src/hal/../draw/../misc/lv_color.h ****     lv_color_filter_cb_t filter_cb;
 254:Drivers/lvgl/lvgl/src/extra/widgets/meter/../../../../src/hal/../draw/../misc/lv_color.h ****     void * user_data;
 255:Drivers/lvgl/lvgl/src/extra/widgets/meter/../../../../src/hal/../draw/../misc/lv_color.h **** } lv_color_filter_dsc_t;
 256:Drivers/lvgl/lvgl/src/extra/widgets/meter/../../../../src/hal/../draw/../misc/lv_color.h **** 
 257:Drivers/lvgl/lvgl/src/extra/widgets/meter/../../../../src/hal/../draw/../misc/lv_color.h **** 
 258:Drivers/lvgl/lvgl/src/extra/widgets/meter/../../../../src/hal/../draw/../misc/lv_color.h **** typedef enum {
 259:Drivers/lvgl/lvgl/src/extra/widgets/meter/../../../../src/hal/../draw/../misc/lv_color.h ****     LV_PALETTE_RED,
 260:Drivers/lvgl/lvgl/src/extra/widgets/meter/../../../../src/hal/../draw/../misc/lv_color.h ****     LV_PALETTE_PINK,
 261:Drivers/lvgl/lvgl/src/extra/widgets/meter/../../../../src/hal/../draw/../misc/lv_color.h ****     LV_PALETTE_PURPLE,
 262:Drivers/lvgl/lvgl/src/extra/widgets/meter/../../../../src/hal/../draw/../misc/lv_color.h ****     LV_PALETTE_DEEP_PURPLE,
 263:Drivers/lvgl/lvgl/src/extra/widgets/meter/../../../../src/hal/../draw/../misc/lv_color.h ****     LV_PALETTE_INDIGO,
 264:Drivers/lvgl/lvgl/src/extra/widgets/meter/../../../../src/hal/../draw/../misc/lv_color.h ****     LV_PALETTE_BLUE,
 265:Drivers/lvgl/lvgl/src/extra/widgets/meter/../../../../src/hal/../draw/../misc/lv_color.h ****     LV_PALETTE_LIGHT_BLUE,
 266:Drivers/lvgl/lvgl/src/extra/widgets/meter/../../../../src/hal/../draw/../misc/lv_color.h ****     LV_PALETTE_CYAN,
 267:Drivers/lvgl/lvgl/src/extra/widgets/meter/../../../../src/hal/../draw/../misc/lv_color.h ****     LV_PALETTE_TEAL,
 268:Drivers/lvgl/lvgl/src/extra/widgets/meter/../../../../src/hal/../draw/../misc/lv_color.h ****     LV_PALETTE_GREEN,
 269:Drivers/lvgl/lvgl/src/extra/widgets/meter/../../../../src/hal/../draw/../misc/lv_color.h ****     LV_PALETTE_LIGHT_GREEN,
 270:Drivers/lvgl/lvgl/src/extra/widgets/meter/../../../../src/hal/../draw/../misc/lv_color.h ****     LV_PALETTE_LIME,
 271:Drivers/lvgl/lvgl/src/extra/widgets/meter/../../../../src/hal/../draw/../misc/lv_color.h ****     LV_PALETTE_YELLOW,
 272:Drivers/lvgl/lvgl/src/extra/widgets/meter/../../../../src/hal/../draw/../misc/lv_color.h ****     LV_PALETTE_AMBER,
 273:Drivers/lvgl/lvgl/src/extra/widgets/meter/../../../../src/hal/../draw/../misc/lv_color.h ****     LV_PALETTE_ORANGE,
 274:Drivers/lvgl/lvgl/src/extra/widgets/meter/../../../../src/hal/../draw/../misc/lv_color.h ****     LV_PALETTE_DEEP_ORANGE,
 275:Drivers/lvgl/lvgl/src/extra/widgets/meter/../../../../src/hal/../draw/../misc/lv_color.h ****     LV_PALETTE_BROWN,
 276:Drivers/lvgl/lvgl/src/extra/widgets/meter/../../../../src/hal/../draw/../misc/lv_color.h ****     LV_PALETTE_BLUE_GREY,
 277:Drivers/lvgl/lvgl/src/extra/widgets/meter/../../../../src/hal/../draw/../misc/lv_color.h ****     LV_PALETTE_GREY,
 278:Drivers/lvgl/lvgl/src/extra/widgets/meter/../../../../src/hal/../draw/../misc/lv_color.h ****     _LV_PALETTE_LAST,
 279:Drivers/lvgl/lvgl/src/extra/widgets/meter/../../../../src/hal/../draw/../misc/lv_color.h ****     LV_PALETTE_NONE = 0xff,
 280:Drivers/lvgl/lvgl/src/extra/widgets/meter/../../../../src/hal/../draw/../misc/lv_color.h **** } lv_palette_t;
 281:Drivers/lvgl/lvgl/src/extra/widgets/meter/../../../../src/hal/../draw/../misc/lv_color.h **** 
 282:Drivers/lvgl/lvgl/src/extra/widgets/meter/../../../../src/hal/../draw/../misc/lv_color.h **** /**********************
 283:Drivers/lvgl/lvgl/src/extra/widgets/meter/../../../../src/hal/../draw/../misc/lv_color.h ****  * GLOBAL PROTOTYPES
 284:Drivers/lvgl/lvgl/src/extra/widgets/meter/../../../../src/hal/../draw/../misc/lv_color.h ****  **********************/
 285:Drivers/lvgl/lvgl/src/extra/widgets/meter/../../../../src/hal/../draw/../misc/lv_color.h **** 
 286:Drivers/lvgl/lvgl/src/extra/widgets/meter/../../../../src/hal/../draw/../misc/lv_color.h **** /*In color conversations:
 287:Drivers/lvgl/lvgl/src/extra/widgets/meter/../../../../src/hal/../draw/../misc/lv_color.h ****  * - When converting to bigger color type the LSB weight of 1 LSB is calculated
 288:Drivers/lvgl/lvgl/src/extra/widgets/meter/../../../../src/hal/../draw/../misc/lv_color.h ****  *   E.g. 16 bit Red has 5 bits
 289:Drivers/lvgl/lvgl/src/extra/widgets/meter/../../../../src/hal/../draw/../misc/lv_color.h ****  *         8 bit Red has 3 bits
 290:Drivers/lvgl/lvgl/src/extra/widgets/meter/../../../../src/hal/../draw/../misc/lv_color.h ****  *        ----------------------
 291:Drivers/lvgl/lvgl/src/extra/widgets/meter/../../../../src/hal/../draw/../misc/lv_color.h ****  *        8 bit red LSB = (2^5 - 1) / (2^3 - 1) = 31 / 7 = 4
 292:Drivers/lvgl/lvgl/src/extra/widgets/meter/../../../../src/hal/../draw/../misc/lv_color.h ****  *
 293:Drivers/lvgl/lvgl/src/extra/widgets/meter/../../../../src/hal/../draw/../misc/lv_color.h ****  * - When calculating to smaller color type simply shift out the LSBs
 294:Drivers/lvgl/lvgl/src/extra/widgets/meter/../../../../src/hal/../draw/../misc/lv_color.h ****  *   E.g.  8 bit Red has 3 bits
 295:Drivers/lvgl/lvgl/src/extra/widgets/meter/../../../../src/hal/../draw/../misc/lv_color.h ****  *        16 bit Red has 5 bits
 296:Drivers/lvgl/lvgl/src/extra/widgets/meter/../../../../src/hal/../draw/../misc/lv_color.h ****  *        ----------------------
 297:Drivers/lvgl/lvgl/src/extra/widgets/meter/../../../../src/hal/../draw/../misc/lv_color.h ****  *         Shift right with 5 - 3 = 2
 298:Drivers/lvgl/lvgl/src/extra/widgets/meter/../../../../src/hal/../draw/../misc/lv_color.h ****  */
 299:Drivers/lvgl/lvgl/src/extra/widgets/meter/../../../../src/hal/../draw/../misc/lv_color.h **** static inline uint8_t lv_color_to1(lv_color_t color)
ARM GAS  /tmp/ccVvrzYL.s 			page 34


 300:Drivers/lvgl/lvgl/src/extra/widgets/meter/../../../../src/hal/../draw/../misc/lv_color.h **** {
 301:Drivers/lvgl/lvgl/src/extra/widgets/meter/../../../../src/hal/../draw/../misc/lv_color.h **** #if LV_COLOR_DEPTH == 1
 302:Drivers/lvgl/lvgl/src/extra/widgets/meter/../../../../src/hal/../draw/../misc/lv_color.h ****     return color.full;
 303:Drivers/lvgl/lvgl/src/extra/widgets/meter/../../../../src/hal/../draw/../misc/lv_color.h **** #elif LV_COLOR_DEPTH == 8
 304:Drivers/lvgl/lvgl/src/extra/widgets/meter/../../../../src/hal/../draw/../misc/lv_color.h ****     if((LV_COLOR_GET_R(color) & 0x4) || (LV_COLOR_GET_G(color) & 0x4) || (LV_COLOR_GET_B(color) & 0
 305:Drivers/lvgl/lvgl/src/extra/widgets/meter/../../../../src/hal/../draw/../misc/lv_color.h ****         return 1;
 306:Drivers/lvgl/lvgl/src/extra/widgets/meter/../../../../src/hal/../draw/../misc/lv_color.h ****     }
 307:Drivers/lvgl/lvgl/src/extra/widgets/meter/../../../../src/hal/../draw/../misc/lv_color.h ****     else {
 308:Drivers/lvgl/lvgl/src/extra/widgets/meter/../../../../src/hal/../draw/../misc/lv_color.h ****         return 0;
 309:Drivers/lvgl/lvgl/src/extra/widgets/meter/../../../../src/hal/../draw/../misc/lv_color.h ****     }
 310:Drivers/lvgl/lvgl/src/extra/widgets/meter/../../../../src/hal/../draw/../misc/lv_color.h **** #elif LV_COLOR_DEPTH == 16
 311:Drivers/lvgl/lvgl/src/extra/widgets/meter/../../../../src/hal/../draw/../misc/lv_color.h ****     if((LV_COLOR_GET_R(color) & 0x10) || (LV_COLOR_GET_G(color) & 0x20) || (LV_COLOR_GET_B(color) &
 312:Drivers/lvgl/lvgl/src/extra/widgets/meter/../../../../src/hal/../draw/../misc/lv_color.h ****         return 1;
 313:Drivers/lvgl/lvgl/src/extra/widgets/meter/../../../../src/hal/../draw/../misc/lv_color.h ****     }
 314:Drivers/lvgl/lvgl/src/extra/widgets/meter/../../../../src/hal/../draw/../misc/lv_color.h ****     else {
 315:Drivers/lvgl/lvgl/src/extra/widgets/meter/../../../../src/hal/../draw/../misc/lv_color.h ****         return 0;
 316:Drivers/lvgl/lvgl/src/extra/widgets/meter/../../../../src/hal/../draw/../misc/lv_color.h ****     }
 317:Drivers/lvgl/lvgl/src/extra/widgets/meter/../../../../src/hal/../draw/../misc/lv_color.h **** #elif LV_COLOR_DEPTH == 32
 318:Drivers/lvgl/lvgl/src/extra/widgets/meter/../../../../src/hal/../draw/../misc/lv_color.h ****     if((LV_COLOR_GET_R(color) & 0x80) || (LV_COLOR_GET_G(color) & 0x80) || (LV_COLOR_GET_B(color) &
 319:Drivers/lvgl/lvgl/src/extra/widgets/meter/../../../../src/hal/../draw/../misc/lv_color.h ****         return 1;
 320:Drivers/lvgl/lvgl/src/extra/widgets/meter/../../../../src/hal/../draw/../misc/lv_color.h ****     }
 321:Drivers/lvgl/lvgl/src/extra/widgets/meter/../../../../src/hal/../draw/../misc/lv_color.h ****     else {
 322:Drivers/lvgl/lvgl/src/extra/widgets/meter/../../../../src/hal/../draw/../misc/lv_color.h ****         return 0;
 323:Drivers/lvgl/lvgl/src/extra/widgets/meter/../../../../src/hal/../draw/../misc/lv_color.h ****     }
 324:Drivers/lvgl/lvgl/src/extra/widgets/meter/../../../../src/hal/../draw/../misc/lv_color.h **** #endif
 325:Drivers/lvgl/lvgl/src/extra/widgets/meter/../../../../src/hal/../draw/../misc/lv_color.h **** }
 326:Drivers/lvgl/lvgl/src/extra/widgets/meter/../../../../src/hal/../draw/../misc/lv_color.h **** 
 327:Drivers/lvgl/lvgl/src/extra/widgets/meter/../../../../src/hal/../draw/../misc/lv_color.h **** static inline uint8_t lv_color_to8(lv_color_t color)
 328:Drivers/lvgl/lvgl/src/extra/widgets/meter/../../../../src/hal/../draw/../misc/lv_color.h **** {
 329:Drivers/lvgl/lvgl/src/extra/widgets/meter/../../../../src/hal/../draw/../misc/lv_color.h **** #if LV_COLOR_DEPTH == 1
 330:Drivers/lvgl/lvgl/src/extra/widgets/meter/../../../../src/hal/../draw/../misc/lv_color.h ****     if(color.full == 0)
 331:Drivers/lvgl/lvgl/src/extra/widgets/meter/../../../../src/hal/../draw/../misc/lv_color.h ****         return 0;
 332:Drivers/lvgl/lvgl/src/extra/widgets/meter/../../../../src/hal/../draw/../misc/lv_color.h ****     else
 333:Drivers/lvgl/lvgl/src/extra/widgets/meter/../../../../src/hal/../draw/../misc/lv_color.h ****         return 0xFF;
 334:Drivers/lvgl/lvgl/src/extra/widgets/meter/../../../../src/hal/../draw/../misc/lv_color.h **** #elif LV_COLOR_DEPTH == 8
 335:Drivers/lvgl/lvgl/src/extra/widgets/meter/../../../../src/hal/../draw/../misc/lv_color.h ****     return color.full;
 336:Drivers/lvgl/lvgl/src/extra/widgets/meter/../../../../src/hal/../draw/../misc/lv_color.h **** #elif LV_COLOR_DEPTH == 16
 337:Drivers/lvgl/lvgl/src/extra/widgets/meter/../../../../src/hal/../draw/../misc/lv_color.h ****     lv_color8_t ret;
 338:Drivers/lvgl/lvgl/src/extra/widgets/meter/../../../../src/hal/../draw/../misc/lv_color.h ****     LV_COLOR_SET_R8(ret, LV_COLOR_GET_R(color) >> 2); /*5 - 3  = 2*/
 339:Drivers/lvgl/lvgl/src/extra/widgets/meter/../../../../src/hal/../draw/../misc/lv_color.h ****     LV_COLOR_SET_G8(ret, LV_COLOR_GET_G(color) >> 3); /*6 - 3  = 3*/
 340:Drivers/lvgl/lvgl/src/extra/widgets/meter/../../../../src/hal/../draw/../misc/lv_color.h ****     LV_COLOR_SET_B8(ret, LV_COLOR_GET_B(color) >> 3); /*5 - 2  = 3*/
 341:Drivers/lvgl/lvgl/src/extra/widgets/meter/../../../../src/hal/../draw/../misc/lv_color.h ****     return ret.full;
 342:Drivers/lvgl/lvgl/src/extra/widgets/meter/../../../../src/hal/../draw/../misc/lv_color.h **** #elif LV_COLOR_DEPTH == 32
 343:Drivers/lvgl/lvgl/src/extra/widgets/meter/../../../../src/hal/../draw/../misc/lv_color.h ****     lv_color8_t ret;
 344:Drivers/lvgl/lvgl/src/extra/widgets/meter/../../../../src/hal/../draw/../misc/lv_color.h ****     LV_COLOR_SET_R8(ret, LV_COLOR_GET_R(color) >> 5); /*8 - 3  = 5*/
 345:Drivers/lvgl/lvgl/src/extra/widgets/meter/../../../../src/hal/../draw/../misc/lv_color.h ****     LV_COLOR_SET_G8(ret, LV_COLOR_GET_G(color) >> 5); /*8 - 3  = 5*/
 346:Drivers/lvgl/lvgl/src/extra/widgets/meter/../../../../src/hal/../draw/../misc/lv_color.h ****     LV_COLOR_SET_B8(ret, LV_COLOR_GET_B(color) >> 6); /*8 - 2  = 6*/
 347:Drivers/lvgl/lvgl/src/extra/widgets/meter/../../../../src/hal/../draw/../misc/lv_color.h ****     return ret.full;
 348:Drivers/lvgl/lvgl/src/extra/widgets/meter/../../../../src/hal/../draw/../misc/lv_color.h **** #endif
 349:Drivers/lvgl/lvgl/src/extra/widgets/meter/../../../../src/hal/../draw/../misc/lv_color.h **** }
 350:Drivers/lvgl/lvgl/src/extra/widgets/meter/../../../../src/hal/../draw/../misc/lv_color.h **** 
 351:Drivers/lvgl/lvgl/src/extra/widgets/meter/../../../../src/hal/../draw/../misc/lv_color.h **** static inline uint16_t lv_color_to16(lv_color_t color)
 352:Drivers/lvgl/lvgl/src/extra/widgets/meter/../../../../src/hal/../draw/../misc/lv_color.h **** {
 353:Drivers/lvgl/lvgl/src/extra/widgets/meter/../../../../src/hal/../draw/../misc/lv_color.h **** #if LV_COLOR_DEPTH == 1
 354:Drivers/lvgl/lvgl/src/extra/widgets/meter/../../../../src/hal/../draw/../misc/lv_color.h ****     if(color.full == 0)
 355:Drivers/lvgl/lvgl/src/extra/widgets/meter/../../../../src/hal/../draw/../misc/lv_color.h ****         return 0;
 356:Drivers/lvgl/lvgl/src/extra/widgets/meter/../../../../src/hal/../draw/../misc/lv_color.h ****     else
ARM GAS  /tmp/ccVvrzYL.s 			page 35


 357:Drivers/lvgl/lvgl/src/extra/widgets/meter/../../../../src/hal/../draw/../misc/lv_color.h ****         return 0xFFFF;
 358:Drivers/lvgl/lvgl/src/extra/widgets/meter/../../../../src/hal/../draw/../misc/lv_color.h **** #elif LV_COLOR_DEPTH == 8
 359:Drivers/lvgl/lvgl/src/extra/widgets/meter/../../../../src/hal/../draw/../misc/lv_color.h ****     lv_color16_t ret;
 360:Drivers/lvgl/lvgl/src/extra/widgets/meter/../../../../src/hal/../draw/../misc/lv_color.h ****     LV_COLOR_SET_R16(ret, LV_COLOR_GET_R(color) * 4);  /*(2^5 - 1)/(2^3 - 1) = 31/7 = 4*/
 361:Drivers/lvgl/lvgl/src/extra/widgets/meter/../../../../src/hal/../draw/../misc/lv_color.h ****     LV_COLOR_SET_G16(ret, LV_COLOR_GET_G(color) * 9);  /*(2^6 - 1)/(2^3 - 1) = 63/7 = 9*/
 362:Drivers/lvgl/lvgl/src/extra/widgets/meter/../../../../src/hal/../draw/../misc/lv_color.h ****     LV_COLOR_SET_B16(ret, LV_COLOR_GET_B(color) * 10); /*(2^5 - 1)/(2^2 - 1) = 31/3 = 10*/
 363:Drivers/lvgl/lvgl/src/extra/widgets/meter/../../../../src/hal/../draw/../misc/lv_color.h ****     return ret.full;
 364:Drivers/lvgl/lvgl/src/extra/widgets/meter/../../../../src/hal/../draw/../misc/lv_color.h **** #elif LV_COLOR_DEPTH == 16
 365:Drivers/lvgl/lvgl/src/extra/widgets/meter/../../../../src/hal/../draw/../misc/lv_color.h ****     return color.full;
 366:Drivers/lvgl/lvgl/src/extra/widgets/meter/../../../../src/hal/../draw/../misc/lv_color.h **** #elif LV_COLOR_DEPTH == 32
 367:Drivers/lvgl/lvgl/src/extra/widgets/meter/../../../../src/hal/../draw/../misc/lv_color.h ****     lv_color16_t ret;
 368:Drivers/lvgl/lvgl/src/extra/widgets/meter/../../../../src/hal/../draw/../misc/lv_color.h ****     LV_COLOR_SET_R16(ret, LV_COLOR_GET_R(color) >> 3); /*8 - 5  = 3*/
 369:Drivers/lvgl/lvgl/src/extra/widgets/meter/../../../../src/hal/../draw/../misc/lv_color.h ****     LV_COLOR_SET_G16(ret, LV_COLOR_GET_G(color) >> 2); /*8 - 6  = 2*/
 370:Drivers/lvgl/lvgl/src/extra/widgets/meter/../../../../src/hal/../draw/../misc/lv_color.h ****     LV_COLOR_SET_B16(ret, LV_COLOR_GET_B(color) >> 3); /*8 - 5  = 3*/
 371:Drivers/lvgl/lvgl/src/extra/widgets/meter/../../../../src/hal/../draw/../misc/lv_color.h ****     return ret.full;
 372:Drivers/lvgl/lvgl/src/extra/widgets/meter/../../../../src/hal/../draw/../misc/lv_color.h **** #endif
 373:Drivers/lvgl/lvgl/src/extra/widgets/meter/../../../../src/hal/../draw/../misc/lv_color.h **** }
 374:Drivers/lvgl/lvgl/src/extra/widgets/meter/../../../../src/hal/../draw/../misc/lv_color.h **** 
 375:Drivers/lvgl/lvgl/src/extra/widgets/meter/../../../../src/hal/../draw/../misc/lv_color.h **** static inline uint32_t lv_color_to32(lv_color_t color)
 376:Drivers/lvgl/lvgl/src/extra/widgets/meter/../../../../src/hal/../draw/../misc/lv_color.h **** {
 377:Drivers/lvgl/lvgl/src/extra/widgets/meter/../../../../src/hal/../draw/../misc/lv_color.h **** #if LV_COLOR_DEPTH == 1
 378:Drivers/lvgl/lvgl/src/extra/widgets/meter/../../../../src/hal/../draw/../misc/lv_color.h ****     if(color.full == 0)
 379:Drivers/lvgl/lvgl/src/extra/widgets/meter/../../../../src/hal/../draw/../misc/lv_color.h ****         return 0xFF000000;
 380:Drivers/lvgl/lvgl/src/extra/widgets/meter/../../../../src/hal/../draw/../misc/lv_color.h ****     else
 381:Drivers/lvgl/lvgl/src/extra/widgets/meter/../../../../src/hal/../draw/../misc/lv_color.h ****         return 0xFFFFFFFF;
 382:Drivers/lvgl/lvgl/src/extra/widgets/meter/../../../../src/hal/../draw/../misc/lv_color.h **** #elif LV_COLOR_DEPTH == 8
 383:Drivers/lvgl/lvgl/src/extra/widgets/meter/../../../../src/hal/../draw/../misc/lv_color.h ****     lv_color32_t ret;
 384:Drivers/lvgl/lvgl/src/extra/widgets/meter/../../../../src/hal/../draw/../misc/lv_color.h ****     LV_COLOR_SET_R32(ret, LV_COLOR_GET_R(color) * 36); /*(2^8 - 1)/(2^3 - 1) = 255/7 = 36*/
 385:Drivers/lvgl/lvgl/src/extra/widgets/meter/../../../../src/hal/../draw/../misc/lv_color.h ****     LV_COLOR_SET_G32(ret, LV_COLOR_GET_G(color) * 36); /*(2^8 - 1)/(2^3 - 1) = 255/7 = 36*/
 386:Drivers/lvgl/lvgl/src/extra/widgets/meter/../../../../src/hal/../draw/../misc/lv_color.h ****     LV_COLOR_SET_B32(ret, LV_COLOR_GET_B(color) * 85); /*(2^8 - 1)/(2^2 - 1) = 255/3 = 85*/
 387:Drivers/lvgl/lvgl/src/extra/widgets/meter/../../../../src/hal/../draw/../misc/lv_color.h ****     LV_COLOR_SET_A32(ret, 0xFF);
 388:Drivers/lvgl/lvgl/src/extra/widgets/meter/../../../../src/hal/../draw/../misc/lv_color.h ****     return ret.full;
 389:Drivers/lvgl/lvgl/src/extra/widgets/meter/../../../../src/hal/../draw/../misc/lv_color.h **** #elif LV_COLOR_DEPTH == 16
 390:Drivers/lvgl/lvgl/src/extra/widgets/meter/../../../../src/hal/../draw/../misc/lv_color.h ****     /**
 391:Drivers/lvgl/lvgl/src/extra/widgets/meter/../../../../src/hal/../draw/../misc/lv_color.h ****      * The floating point math for conversion is:
 392:Drivers/lvgl/lvgl/src/extra/widgets/meter/../../../../src/hal/../draw/../misc/lv_color.h ****      *  valueto = valuefrom * ( (2^bitsto - 1) / (float)(2^bitsfrom - 1) )
 393:Drivers/lvgl/lvgl/src/extra/widgets/meter/../../../../src/hal/../draw/../misc/lv_color.h ****      * The faster integer math for conversion is:
 394:Drivers/lvgl/lvgl/src/extra/widgets/meter/../../../../src/hal/../draw/../misc/lv_color.h ****      *  valueto = ( valuefrom * multiplier + adder ) >> divisor
 395:Drivers/lvgl/lvgl/src/extra/widgets/meter/../../../../src/hal/../draw/../misc/lv_color.h ****      *   multiplier = FLOOR( ( (2^bitsto - 1) << divisor ) / (float)(2^bitsfrom - 1) )
 396:Drivers/lvgl/lvgl/src/extra/widgets/meter/../../../../src/hal/../draw/../misc/lv_color.h ****      *
 397:Drivers/lvgl/lvgl/src/extra/widgets/meter/../../../../src/hal/../draw/../misc/lv_color.h ****      * Find the first divisor where ( adder >> divisor ) <= 0
 398:Drivers/lvgl/lvgl/src/extra/widgets/meter/../../../../src/hal/../draw/../misc/lv_color.h ****      *
 399:Drivers/lvgl/lvgl/src/extra/widgets/meter/../../../../src/hal/../draw/../misc/lv_color.h ****      * 5-bit to 8-bit: ( 31 * multiplier + adder ) >> divisor = 255
 400:Drivers/lvgl/lvgl/src/extra/widgets/meter/../../../../src/hal/../draw/../misc/lv_color.h ****      * divisor  multiplier  adder  min (0)  max (31)
 401:Drivers/lvgl/lvgl/src/extra/widgets/meter/../../../../src/hal/../draw/../misc/lv_color.h ****      *       0           8      7        7       255
 402:Drivers/lvgl/lvgl/src/extra/widgets/meter/../../../../src/hal/../draw/../misc/lv_color.h ****      *       1          16     14        7       255
 403:Drivers/lvgl/lvgl/src/extra/widgets/meter/../../../../src/hal/../draw/../misc/lv_color.h ****      *       2          32     28        7       255
 404:Drivers/lvgl/lvgl/src/extra/widgets/meter/../../../../src/hal/../draw/../misc/lv_color.h ****      *       3          65     25        3       255
 405:Drivers/lvgl/lvgl/src/extra/widgets/meter/../../../../src/hal/../draw/../misc/lv_color.h ****      *       4         131     19        1       255
 406:Drivers/lvgl/lvgl/src/extra/widgets/meter/../../../../src/hal/../draw/../misc/lv_color.h ****      *       5         263      7        0       255
 407:Drivers/lvgl/lvgl/src/extra/widgets/meter/../../../../src/hal/../draw/../misc/lv_color.h ****      *
 408:Drivers/lvgl/lvgl/src/extra/widgets/meter/../../../../src/hal/../draw/../misc/lv_color.h ****      * 6-bit to 8-bit: 255 = ( 63 * multiplier + adder ) >> divisor
 409:Drivers/lvgl/lvgl/src/extra/widgets/meter/../../../../src/hal/../draw/../misc/lv_color.h ****      * divisor  multiplier  adder  min (0)  max (63)
 410:Drivers/lvgl/lvgl/src/extra/widgets/meter/../../../../src/hal/../draw/../misc/lv_color.h ****      *       0           4      3        3       255
 411:Drivers/lvgl/lvgl/src/extra/widgets/meter/../../../../src/hal/../draw/../misc/lv_color.h ****      *       1           8      6        3       255
 412:Drivers/lvgl/lvgl/src/extra/widgets/meter/../../../../src/hal/../draw/../misc/lv_color.h ****      *       2          16     12        3       255
 413:Drivers/lvgl/lvgl/src/extra/widgets/meter/../../../../src/hal/../draw/../misc/lv_color.h ****      *       3          32     24        3       255
ARM GAS  /tmp/ccVvrzYL.s 			page 36


 414:Drivers/lvgl/lvgl/src/extra/widgets/meter/../../../../src/hal/../draw/../misc/lv_color.h ****      *       4          64     48        3       255
 415:Drivers/lvgl/lvgl/src/extra/widgets/meter/../../../../src/hal/../draw/../misc/lv_color.h ****      *       5         129     33        1       255
 416:Drivers/lvgl/lvgl/src/extra/widgets/meter/../../../../src/hal/../draw/../misc/lv_color.h ****      *       6         259      3        0       255
 417:Drivers/lvgl/lvgl/src/extra/widgets/meter/../../../../src/hal/../draw/../misc/lv_color.h ****      */
 418:Drivers/lvgl/lvgl/src/extra/widgets/meter/../../../../src/hal/../draw/../misc/lv_color.h **** 
 419:Drivers/lvgl/lvgl/src/extra/widgets/meter/../../../../src/hal/../draw/../misc/lv_color.h ****     lv_color32_t ret;
 420:Drivers/lvgl/lvgl/src/extra/widgets/meter/../../../../src/hal/../draw/../misc/lv_color.h ****     LV_COLOR_SET_R32(ret, (LV_COLOR_GET_R(color) * 263 + 7) >> 5);
 421:Drivers/lvgl/lvgl/src/extra/widgets/meter/../../../../src/hal/../draw/../misc/lv_color.h ****     LV_COLOR_SET_G32(ret, (LV_COLOR_GET_G(color) * 259 + 3) >> 6);
 422:Drivers/lvgl/lvgl/src/extra/widgets/meter/../../../../src/hal/../draw/../misc/lv_color.h ****     LV_COLOR_SET_B32(ret, (LV_COLOR_GET_B(color) * 263 + 7) >> 5);
 423:Drivers/lvgl/lvgl/src/extra/widgets/meter/../../../../src/hal/../draw/../misc/lv_color.h ****     LV_COLOR_SET_A32(ret, 0xFF);
 424:Drivers/lvgl/lvgl/src/extra/widgets/meter/../../../../src/hal/../draw/../misc/lv_color.h ****     return ret.full;
 425:Drivers/lvgl/lvgl/src/extra/widgets/meter/../../../../src/hal/../draw/../misc/lv_color.h **** #elif LV_COLOR_DEPTH == 32
 426:Drivers/lvgl/lvgl/src/extra/widgets/meter/../../../../src/hal/../draw/../misc/lv_color.h ****     return color.full;
 427:Drivers/lvgl/lvgl/src/extra/widgets/meter/../../../../src/hal/../draw/../misc/lv_color.h **** #endif
 428:Drivers/lvgl/lvgl/src/extra/widgets/meter/../../../../src/hal/../draw/../misc/lv_color.h **** }
 429:Drivers/lvgl/lvgl/src/extra/widgets/meter/../../../../src/hal/../draw/../misc/lv_color.h **** 
 430:Drivers/lvgl/lvgl/src/extra/widgets/meter/../../../../src/hal/../draw/../misc/lv_color.h **** //! @cond Doxygen_Suppress
 431:Drivers/lvgl/lvgl/src/extra/widgets/meter/../../../../src/hal/../draw/../misc/lv_color.h **** 
 432:Drivers/lvgl/lvgl/src/extra/widgets/meter/../../../../src/hal/../draw/../misc/lv_color.h **** /**
 433:Drivers/lvgl/lvgl/src/extra/widgets/meter/../../../../src/hal/../draw/../misc/lv_color.h ****  * Mix two colors with a given ratio.
 434:Drivers/lvgl/lvgl/src/extra/widgets/meter/../../../../src/hal/../draw/../misc/lv_color.h ****  * @param c1 the first color to mix (usually the foreground)
 435:Drivers/lvgl/lvgl/src/extra/widgets/meter/../../../../src/hal/../draw/../misc/lv_color.h ****  * @param c2 the second color to mix (usually the background)
 436:Drivers/lvgl/lvgl/src/extra/widgets/meter/../../../../src/hal/../draw/../misc/lv_color.h ****  * @param mix The ratio of the colors. 0: full `c2`, 255: full `c1`, 127: half `c1` and half`c2`
 437:Drivers/lvgl/lvgl/src/extra/widgets/meter/../../../../src/hal/../draw/../misc/lv_color.h ****  * @return the mixed color
 438:Drivers/lvgl/lvgl/src/extra/widgets/meter/../../../../src/hal/../draw/../misc/lv_color.h ****  */
 439:Drivers/lvgl/lvgl/src/extra/widgets/meter/../../../../src/hal/../draw/../misc/lv_color.h **** LV_ATTRIBUTE_FAST_MEM static inline lv_color_t lv_color_mix(lv_color_t c1, lv_color_t c2, uint8_t m
 440:Drivers/lvgl/lvgl/src/extra/widgets/meter/../../../../src/hal/../draw/../misc/lv_color.h **** {
 441:Drivers/lvgl/lvgl/src/extra/widgets/meter/../../../../src/hal/../draw/../misc/lv_color.h ****     lv_color_t ret;
 442:Drivers/lvgl/lvgl/src/extra/widgets/meter/../../../../src/hal/../draw/../misc/lv_color.h **** 
 443:Drivers/lvgl/lvgl/src/extra/widgets/meter/../../../../src/hal/../draw/../misc/lv_color.h **** #if LV_COLOR_DEPTH == 16 && LV_COLOR_MIX_ROUND_OFS == 0
 444:Drivers/lvgl/lvgl/src/extra/widgets/meter/../../../../src/hal/../draw/../misc/lv_color.h **** #if LV_COLOR_16_SWAP == 1
 445:Drivers/lvgl/lvgl/src/extra/widgets/meter/../../../../src/hal/../draw/../misc/lv_color.h ****     c1.full = c1.full << 8 | c1.full >> 8;
 446:Drivers/lvgl/lvgl/src/extra/widgets/meter/../../../../src/hal/../draw/../misc/lv_color.h ****     c2.full = c2.full << 8 | c2.full >> 8;
 447:Drivers/lvgl/lvgl/src/extra/widgets/meter/../../../../src/hal/../draw/../misc/lv_color.h **** #endif
 448:Drivers/lvgl/lvgl/src/extra/widgets/meter/../../../../src/hal/../draw/../misc/lv_color.h ****     /*Source: https://stackoverflow.com/a/50012418/1999969*/
 449:Drivers/lvgl/lvgl/src/extra/widgets/meter/../../../../src/hal/../draw/../misc/lv_color.h ****     mix = (uint32_t)((uint32_t)mix + 4) >> 3;
 462              		.loc 4 449 0
 463 00d8 0430     		adds	r0, r0, #4
 464              	.LVL59:
 450:Drivers/lvgl/lvgl/src/extra/widgets/meter/../../../../src/hal/../draw/../misc/lv_color.h ****     uint32_t bg = (uint32_t)((uint32_t)c2.full | ((uint32_t)c2.full << 16)) &
 465              		.loc 4 450 0
 466 00da 628A     		ldrh	r2, [r4, #18]
 467 00dc 42EA0242 		orr	r2, r2, r2, lsl #16
 468 00e0 9D49     		ldr	r1, .L50+4
 469 00e2 0A40     		ands	r2, r2, r1
 470              	.LVL60:
 451:Drivers/lvgl/lvgl/src/extra/widgets/meter/../../../../src/hal/../draw/../misc/lv_color.h ****                   0x7E0F81F; /*0b00000111111000001111100000011111*/
 452:Drivers/lvgl/lvgl/src/extra/widgets/meter/../../../../src/hal/../draw/../misc/lv_color.h ****     uint32_t fg = (uint32_t)((uint32_t)c1.full | ((uint32_t)c1.full << 16)) & 0x7E0F81F;
 471              		.loc 4 452 0
 472 00e4 A38A     		ldrh	r3, [r4, #20]
 473 00e6 43EA0343 		orr	r3, r3, r3, lsl #16
 474 00ea 0B40     		ands	r3, r3, r1
 475              	.LVL61:
 453:Drivers/lvgl/lvgl/src/extra/widgets/meter/../../../../src/hal/../draw/../misc/lv_color.h ****     uint32_t result = ((((fg - bg) * mix) >> 5) + bg) & 0x7E0F81F;
 476              		.loc 4 453 0
 477 00ec 9B1A     		subs	r3, r3, r2
 478              	.LVL62:
ARM GAS  /tmp/ccVvrzYL.s 			page 37


 479 00ee C0F3C700 		ubfx	r0, r0, #3, #8
 480              	.LVL63:
 481 00f2 03FB00F3 		mul	r3, r3, r0
 482 00f6 02EB5315 		add	r5, r2, r3, lsr #5
 483              	.LVL64:
 484 00fa 0D40     		ands	r5, r5, r1
 485              	.LVL65:
 486 00fc 45EA1545 		orr	r5, r5, r5, lsr #16
 487              	.LVL66:
 488              	.L25:
 489              	.LBE65:
 490              	.LBE64:
 491              	.LBE63:
 455:Drivers/lvgl/lvgl/src/extra/widgets/meter/lv_meter.c ****                 if(indic->type != LV_METER_INDICATOR_TYPE_SCALE_LINES) continue;
 492              		.loc 1 455 0 discriminator 2
 493 0100 2146     		mov	r1, r4
 494 0102 4046     		mov	r0, r8
 495 0104 FFF7FEFF 		bl	_lv_ll_get_prev
 496              	.LVL67:
 497 0108 0446     		mov	r4, r0
 498              	.LVL68:
 499              	.L24:
 455:Drivers/lvgl/lvgl/src/extra/widgets/meter/lv_meter.c ****                 if(indic->type != LV_METER_INDICATOR_TYPE_SCALE_LINES) continue;
 500              		.loc 1 455 0 is_stmt 0 discriminator 1
 501 010a E4B1     		cbz	r4, .L44
 456:Drivers/lvgl/lvgl/src/extra/widgets/meter/lv_meter.c ****                 if(value_of_line >= indic->start_value && value_of_line <= indic->end_value) {
 502              		.loc 1 456 0 is_stmt 1
 503 010c 2379     		ldrb	r3, [r4, #4]	@ zero_extendqisi2
 504 010e 022B     		cmp	r3, #2
 505 0110 F6D1     		bne	.L25
 457:Drivers/lvgl/lvgl/src/extra/widgets/meter/lv_meter.c ****                     line_width += indic->type_data.scale_lines.width_mod;
 506              		.loc 1 457 0
 507 0112 A168     		ldr	r1, [r4, #8]
 508 0114 4945     		cmp	r1, r9
 509 0116 F3DC     		bgt	.L25
 457:Drivers/lvgl/lvgl/src/extra/widgets/meter/lv_meter.c ****                     line_width += indic->type_data.scale_lines.width_mod;
 510              		.loc 1 457 0 is_stmt 0 discriminator 1
 511 0118 E268     		ldr	r2, [r4, #12]
 512 011a 4A45     		cmp	r2, r9
 513 011c F0DB     		blt	.L25
 458:Drivers/lvgl/lvgl/src/extra/widgets/meter/lv_meter.c **** 
 514              		.loc 1 458 0 is_stmt 1
 515 011e 238A     		ldrh	r3, [r4, #16]
 516 0120 9A44     		add	r10, r10, r3
 517              	.LVL69:
 518 0122 0FFA8AFA 		sxth	r10, r10
 519              	.LVL70:
 460:Drivers/lvgl/lvgl/src/extra/widgets/meter/lv_meter.c ****                         line_color = indic->type_data.scale_lines.color_start;
 520              		.loc 1 460 0
 521 0126 608A     		ldrh	r0, [r4, #18]
 522              	.LVL71:
 523 0128 A38A     		ldrh	r3, [r4, #20]
 524 012a 9842     		cmp	r0, r3
 525 012c C9D0     		beq	.L45
 526              	.LBB66:
 465:Drivers/lvgl/lvgl/src/extra/widgets/meter/lv_meter.c ****                             ratio = lv_map(value_of_line, indic->start_value, indic->end_value, LV_
 527              		.loc 1 465 0
ARM GAS  /tmp/ccVvrzYL.s 			page 38


 528 012e A37D     		ldrb	r3, [r4, #22]	@ zero_extendqisi2
 529 0130 13F0010F 		tst	r3, #1
 530 0134 C7D0     		beq	.L27
 466:Drivers/lvgl/lvgl/src/extra/widgets/meter/lv_meter.c ****                         }
 531              		.loc 1 466 0
 532 0136 FF23     		movs	r3, #255
 533 0138 0093     		str	r3, [sp]
 534 013a 0023     		movs	r3, #0
 535 013c 4846     		mov	r0, r9
 536 013e FFF7FEFF 		bl	lv_map
 537              	.LVL72:
 538 0142 C0B2     		uxtb	r0, r0
 539              	.LVL73:
 540 0144 C8E7     		b	.L28
 541              	.LVL74:
 542              	.L44:
 543              	.LBE66:
 470:Drivers/lvgl/lvgl/src/extra/widgets/meter/lv_meter.c ****                         }
 471:Drivers/lvgl/lvgl/src/extra/widgets/meter/lv_meter.c ****                         line_color = lv_color_mix(indic->type_data.scale_lines.color_end, indic->ty
 472:Drivers/lvgl/lvgl/src/extra/widgets/meter/lv_meter.c ****                     }
 473:Drivers/lvgl/lvgl/src/extra/widgets/meter/lv_meter.c ****                 }
 474:Drivers/lvgl/lvgl/src/extra/widgets/meter/lv_meter.c ****             }
 475:Drivers/lvgl/lvgl/src/extra/widgets/meter/lv_meter.c **** 
 476:Drivers/lvgl/lvgl/src/extra/widgets/meter/lv_meter.c ****             int32_t angle_upscale = ((i * scale->angle_range) * 10) / (scale->tick_cnt - 1) +  + sc
 544              		.loc 1 476 0
 545 0146 FB8B     		ldrh	r3, [r7, #30]
 546 0148 089A     		ldr	r2, [sp, #32]
 547 014a 03FB02F3 		mul	r3, r3, r2
 548 014e 03EB8303 		add	r3, r3, r3, lsl #2
 549 0152 5C00     		lsls	r4, r3, #1
 550 0154 7B88     		ldrh	r3, [r7, #2]
 551 0156 013B     		subs	r3, r3, #1
 552 0158 94FBF3F4 		sdiv	r4, r4, r3
 553 015c B7F92030 		ldrsh	r3, [r7, #32]
 554 0160 03EB8303 		add	r3, r3, r3, lsl #2
 555 0164 5A00     		lsls	r2, r3, #1
 556 0166 1444     		add	r4, r4, r2
 557              	.LVL75:
 477:Drivers/lvgl/lvgl/src/extra/widgets/meter/lv_meter.c **** 
 478:Drivers/lvgl/lvgl/src/extra/widgets/meter/lv_meter.c ****             line_dsc.color = line_color;
 558              		.loc 1 478 0
 559 0168 ADF85051 		strh	r5, [sp, #336]	@ movhi
 479:Drivers/lvgl/lvgl/src/extra/widgets/meter/lv_meter.c ****             line_dsc.width = line_width;
 560              		.loc 1 479 0
 561 016c ADF852A1 		strh	r10, [sp, #338]	@ movhi
 480:Drivers/lvgl/lvgl/src/extra/widgets/meter/lv_meter.c **** 
 481:Drivers/lvgl/lvgl/src/extra/widgets/meter/lv_meter.c ****             /*Draw a little bit longer lines to be sure the mask will clip them correctly
 482:Drivers/lvgl/lvgl/src/extra/widgets/meter/lv_meter.c ****              *and to get a better precision*/
 483:Drivers/lvgl/lvgl/src/extra/widgets/meter/lv_meter.c ****             lv_point_t p_outer;
 484:Drivers/lvgl/lvgl/src/extra/widgets/meter/lv_meter.c ****             p_outer.x = p_center.x + r_out + LV_MAX(LV_DPI_DEF, r_out);
 562              		.loc 1 484 0
 563 0170 BDF85C31 		ldrh	r3, [sp, #348]
 564 0174 0C9A     		ldr	r2, [sp, #48]
 565 0176 1344     		add	r3, r3, r2
 566 0178 0D9A     		ldr	r2, [sp, #52]
 567 017a 822A     		cmp	r2, #130
 568 017c B8BF     		it	lt
ARM GAS  /tmp/ccVvrzYL.s 			page 39


 569 017e 8222     		movlt	r2, #130
 570 0180 92B2     		uxth	r2, r2
 571 0182 12FA83F3 		uxtah	r3, r2, r3
 572 0186 11AD     		add	r5, sp, #68
 573              	.LVL76:
 574 0188 ADF84430 		strh	r3, [sp, #68]	@ movhi
 485:Drivers/lvgl/lvgl/src/extra/widgets/meter/lv_meter.c ****             p_outer.y = p_center.y;
 575              		.loc 1 485 0
 576 018c BDF95E31 		ldrsh	r3, [sp, #350]
 577 0190 ADF84630 		strh	r3, [sp, #70]	@ movhi
 486:Drivers/lvgl/lvgl/src/extra/widgets/meter/lv_meter.c ****             lv_point_transform(&p_outer, angle_upscale, 256, &p_center);
 578              		.loc 1 486 0
 579 0194 0DF5AE78 		add	r8, sp, #348
 580 0198 4346     		mov	r3, r8
 581 019a 4FF48072 		mov	r2, #256
 582 019e 2146     		mov	r1, r4
 583 01a0 2846     		mov	r0, r5
 584              	.LVL77:
 585 01a2 FFF7FEFF 		bl	lv_point_transform
 586              	.LVL78:
 487:Drivers/lvgl/lvgl/src/extra/widgets/meter/lv_meter.c **** 
 488:Drivers/lvgl/lvgl/src/extra/widgets/meter/lv_meter.c ****             part_draw_dsc.p1 = &p_center;
 587              		.loc 1 488 0
 588 01a6 CDF8C480 		str	r8, [sp, #196]
 489:Drivers/lvgl/lvgl/src/extra/widgets/meter/lv_meter.c ****             part_draw_dsc.p2 = &p_outer;
 589              		.loc 1 489 0
 590 01aa 3295     		str	r5, [sp, #200]
 490:Drivers/lvgl/lvgl/src/extra/widgets/meter/lv_meter.c ****             part_draw_dsc.id = i;
 591              		.loc 1 490 0
 592 01ac 3696     		str	r6, [sp, #216]
 491:Drivers/lvgl/lvgl/src/extra/widgets/meter/lv_meter.c ****             part_draw_dsc.label_dsc = &label_dsc;
 593              		.loc 1 491 0
 594 01ae 4CAB     		add	r3, sp, #304
 595 01b0 2D93     		str	r3, [sp, #180]
 492:Drivers/lvgl/lvgl/src/extra/widgets/meter/lv_meter.c **** 
 493:Drivers/lvgl/lvgl/src/extra/widgets/meter/lv_meter.c ****             /*Draw the text*/
 494:Drivers/lvgl/lvgl/src/extra/widgets/meter/lv_meter.c ****             if(major) {
 596              		.loc 1 494 0
 597 01b2 BBF1000F 		cmp	fp, #0
 598 01b6 00F0BB80 		beq	.L30
 599              	.LBB67:
 495:Drivers/lvgl/lvgl/src/extra/widgets/meter/lv_meter.c ****                 lv_draw_mask_remove_id(outer_mask_id);
 600              		.loc 1 495 0
 601 01ba 0B98     		ldr	r0, [sp, #44]
 602 01bc FFF7FEFF 		bl	lv_draw_mask_remove_id
 603              	.LVL79:
 496:Drivers/lvgl/lvgl/src/extra/widgets/meter/lv_meter.c ****                 uint32_t r_text = r_in_major - scale->label_gap;
 604              		.loc 1 496 0
 605 01c0 B7F91030 		ldrsh	r3, [r7, #16]
 606 01c4 0E9A     		ldr	r2, [sp, #56]
 607 01c6 D21A     		subs	r2, r2, r3
 608              	.LVL80:
 497:Drivers/lvgl/lvgl/src/extra/widgets/meter/lv_meter.c ****                 lv_point_t p;
 498:Drivers/lvgl/lvgl/src/extra/widgets/meter/lv_meter.c ****                 p.x = p_center.x + r_text;
 609              		.loc 1 498 0
 610 01c8 BDF85C31 		ldrh	r3, [sp, #348]
 611 01cc 1344     		add	r3, r3, r2
ARM GAS  /tmp/ccVvrzYL.s 			page 40


 612 01ce ADF84830 		strh	r3, [sp, #72]	@ movhi
 499:Drivers/lvgl/lvgl/src/extra/widgets/meter/lv_meter.c ****                 p.y = p_center.y;
 613              		.loc 1 499 0
 614 01d2 BDF95E31 		ldrsh	r3, [sp, #350]
 615 01d6 ADF84A30 		strh	r3, [sp, #74]	@ movhi
 500:Drivers/lvgl/lvgl/src/extra/widgets/meter/lv_meter.c ****                 lv_point_transform(&p, angle_upscale, 256, &p_center);
 616              		.loc 1 500 0
 617 01da 57AB     		add	r3, sp, #348
 618 01dc 4FF48072 		mov	r2, #256
 619              	.LVL81:
 620 01e0 2146     		mov	r1, r4
 621 01e2 12A8     		add	r0, sp, #72
 622 01e4 FFF7FEFF 		bl	lv_point_transform
 623              	.LVL82:
 501:Drivers/lvgl/lvgl/src/extra/widgets/meter/lv_meter.c **** 
 502:Drivers/lvgl/lvgl/src/extra/widgets/meter/lv_meter.c ****                 lv_draw_label_dsc_t label_dsc_tmp;
 503:Drivers/lvgl/lvgl/src/extra/widgets/meter/lv_meter.c ****                 lv_memcpy(&label_dsc_tmp, &label_dsc, sizeof(label_dsc_tmp));
 624              		.loc 1 503 0
 625 01e8 20AC     		add	r4, sp, #128
 626              	.LVL83:
 627 01ea 2022     		movs	r2, #32
 628 01ec 4CA9     		add	r1, sp, #304
 629 01ee 2046     		mov	r0, r4
 630 01f0 FFF7FEFF 		bl	lv_memcpy
 631              	.LVL84:
 504:Drivers/lvgl/lvgl/src/extra/widgets/meter/lv_meter.c **** 
 505:Drivers/lvgl/lvgl/src/extra/widgets/meter/lv_meter.c ****                 part_draw_dsc.label_dsc = &label_dsc_tmp;
 632              		.loc 1 505 0
 633 01f4 2D94     		str	r4, [sp, #180]
 506:Drivers/lvgl/lvgl/src/extra/widgets/meter/lv_meter.c ****                 char buf[16];
 507:Drivers/lvgl/lvgl/src/extra/widgets/meter/lv_meter.c **** 
 508:Drivers/lvgl/lvgl/src/extra/widgets/meter/lv_meter.c ****                 lv_snprintf(buf, sizeof(buf), "%" LV_PRId32, value_of_line);
 634              		.loc 1 508 0
 635 01f6 1CAC     		add	r4, sp, #112
 636 01f8 4B46     		mov	r3, r9
 637 01fa 584A     		ldr	r2, .L50+8
 638 01fc 1021     		movs	r1, #16
 639 01fe 2046     		mov	r0, r4
 640 0200 FFF7FEFF 		bl	lv_snprintf
 641              	.LVL85:
 509:Drivers/lvgl/lvgl/src/extra/widgets/meter/lv_meter.c ****                 part_draw_dsc.text = buf;
 642              		.loc 1 509 0
 643 0204 3394     		str	r4, [sp, #204]
 510:Drivers/lvgl/lvgl/src/extra/widgets/meter/lv_meter.c **** 
 511:Drivers/lvgl/lvgl/src/extra/widgets/meter/lv_meter.c ****                 lv_event_send(obj, LV_EVENT_DRAW_PART_BEGIN, &part_draw_dsc);
 644              		.loc 1 511 0
 645 0206 28AA     		add	r2, sp, #160
 646 0208 1A21     		movs	r1, #26
 647 020a 0598     		ldr	r0, [sp, #20]
 648 020c FFF7FEFF 		bl	lv_event_send
 649              	.LVL86:
 512:Drivers/lvgl/lvgl/src/extra/widgets/meter/lv_meter.c **** 
 513:Drivers/lvgl/lvgl/src/extra/widgets/meter/lv_meter.c ****                 lv_point_t label_size;
 514:Drivers/lvgl/lvgl/src/extra/widgets/meter/lv_meter.c ****                 lv_txt_get_size(&label_size, part_draw_dsc.text, label_dsc.font, label_dsc.letter_s
 650              		.loc 1 514 0
 651 0210 BDF94431 		ldrsh	r3, [sp, #324]
 652 0214 0022     		movs	r2, #0
ARM GAS  /tmp/ccVvrzYL.s 			page 41


 653 0216 0292     		str	r2, [sp, #8]
 654 0218 41F6FF72 		movw	r2, #8191
 655 021c 0192     		str	r2, [sp, #4]
 656 021e BDF94221 		ldrsh	r2, [sp, #322]
 657 0222 0092     		str	r2, [sp]
 658 0224 4C9A     		ldr	r2, [sp, #304]
 659 0226 3399     		ldr	r1, [sp, #204]
 660 0228 13A8     		add	r0, sp, #76
 661 022a FFF7FEFF 		bl	lv_txt_get_size
 662              	.LVL87:
 515:Drivers/lvgl/lvgl/src/extra/widgets/meter/lv_meter.c ****                                 LV_COORD_MAX, LV_TEXT_FLAG_NONE);
 516:Drivers/lvgl/lvgl/src/extra/widgets/meter/lv_meter.c **** 
 517:Drivers/lvgl/lvgl/src/extra/widgets/meter/lv_meter.c ****                 lv_area_t label_cord;
 518:Drivers/lvgl/lvgl/src/extra/widgets/meter/lv_meter.c ****                 label_cord.x1 = p.x - label_size.x / 2;
 663              		.loc 1 518 0
 664 022e BDF84820 		ldrh	r2, [sp, #72]
 665 0232 BDF94C00 		ldrsh	r0, [sp, #76]
 666 0236 0346     		mov	r3, r0
 667 0238 0028     		cmp	r0, #0
 668 023a 75DB     		blt	.L46
 669              	.L31:
 670 023c A2EB6302 		sub	r2, r2, r3, asr #1
 671 0240 92B2     		uxth	r2, r2
 672 0242 ADF86820 		strh	r2, [sp, #104]	@ movhi
 519:Drivers/lvgl/lvgl/src/extra/widgets/meter/lv_meter.c ****                 label_cord.y1 = p.y - label_size.y / 2;
 673              		.loc 1 519 0
 674 0246 BDF84A30 		ldrh	r3, [sp, #74]
 675 024a BDF94E10 		ldrsh	r1, [sp, #78]
 676 024e 0C46     		mov	r4, r1
 677 0250 0029     		cmp	r1, #0
 678 0252 6BDB     		blt	.L47
 679              	.L32:
 680 0254 A3EB6403 		sub	r3, r3, r4, asr #1
 681 0258 9BB2     		uxth	r3, r3
 682 025a ADF86A30 		strh	r3, [sp, #106]	@ movhi
 520:Drivers/lvgl/lvgl/src/extra/widgets/meter/lv_meter.c ****                 label_cord.x2 = label_cord.x1 + label_size.x;
 683              		.loc 1 520 0
 684 025e 12FA80F2 		uxtah	r2, r2, r0
 685 0262 ADF86C20 		strh	r2, [sp, #108]	@ movhi
 521:Drivers/lvgl/lvgl/src/extra/widgets/meter/lv_meter.c ****                 label_cord.y2 = label_cord.y1 + label_size.y;
 686              		.loc 1 521 0
 687 0266 13FA81F3 		uxtah	r3, r3, r1
 688 026a ADF86E30 		strh	r3, [sp, #110]	@ movhi
 522:Drivers/lvgl/lvgl/src/extra/widgets/meter/lv_meter.c **** 
 523:Drivers/lvgl/lvgl/src/extra/widgets/meter/lv_meter.c ****                 lv_draw_label(draw_ctx, part_draw_dsc.label_dsc, &label_cord, part_draw_dsc.text, N
 689              		.loc 1 523 0
 690 026e 0024     		movs	r4, #0
 691 0270 0094     		str	r4, [sp]
 692 0272 339B     		ldr	r3, [sp, #204]
 693 0274 1AAA     		add	r2, sp, #104
 694 0276 2D99     		ldr	r1, [sp, #180]
 695 0278 0A98     		ldr	r0, [sp, #40]
 696 027a FFF7FEFF 		bl	lv_draw_label
 697              	.LVL88:
 524:Drivers/lvgl/lvgl/src/extra/widgets/meter/lv_meter.c **** 
 525:Drivers/lvgl/lvgl/src/extra/widgets/meter/lv_meter.c ****                 outer_mask_id = lv_draw_mask_add(&outer_mask, NULL);
 698              		.loc 1 525 0
ARM GAS  /tmp/ccVvrzYL.s 			page 42


 699 027e 2146     		mov	r1, r4
 700 0280 3AA8     		add	r0, sp, #232
 701 0282 FFF7FEFF 		bl	lv_draw_mask_add
 702              	.LVL89:
 703 0286 0B90     		str	r0, [sp, #44]
 704              	.LVL90:
 705              	.L33:
 706              	.LBE67:
 526:Drivers/lvgl/lvgl/src/extra/widgets/meter/lv_meter.c ****             }
 527:Drivers/lvgl/lvgl/src/extra/widgets/meter/lv_meter.c ****             else {
 528:Drivers/lvgl/lvgl/src/extra/widgets/meter/lv_meter.c ****                 part_draw_dsc.label_dsc = NULL;
 529:Drivers/lvgl/lvgl/src/extra/widgets/meter/lv_meter.c ****                 part_draw_dsc.text = NULL;
 530:Drivers/lvgl/lvgl/src/extra/widgets/meter/lv_meter.c ****                 lv_event_send(obj, LV_EVENT_DRAW_PART_BEGIN, &part_draw_dsc);
 531:Drivers/lvgl/lvgl/src/extra/widgets/meter/lv_meter.c ****             }
 532:Drivers/lvgl/lvgl/src/extra/widgets/meter/lv_meter.c **** 
 533:Drivers/lvgl/lvgl/src/extra/widgets/meter/lv_meter.c ****             inner_act_mask_id = lv_draw_mask_add(major ? &inner_major_mask : &inner_minor_mask, NUL
 707              		.loc 1 533 0
 708 0288 BBF1000F 		cmp	fp, #0
 709 028c 59D0     		beq	.L40
 710 028e 40A8     		add	r0, sp, #256
 711              	.L34:
 712              		.loc 1 533 0 is_stmt 0 discriminator 4
 713 0290 0021     		movs	r1, #0
 714 0292 FFF7FEFF 		bl	lv_draw_mask_add
 715              	.LVL91:
 716 0296 0446     		mov	r4, r0
 717              	.LVL92:
 534:Drivers/lvgl/lvgl/src/extra/widgets/meter/lv_meter.c ****             lv_draw_line(draw_ctx, &line_dsc, &p_outer, &p_center);
 718              		.loc 1 534 0 is_stmt 1 discriminator 4
 719 0298 57AB     		add	r3, sp, #348
 720 029a 11AA     		add	r2, sp, #68
 721 029c 54A9     		add	r1, sp, #336
 722 029e 0A98     		ldr	r0, [sp, #40]
 723 02a0 FFF7FEFF 		bl	lv_draw_line
 724              	.LVL93:
 535:Drivers/lvgl/lvgl/src/extra/widgets/meter/lv_meter.c ****             lv_draw_mask_remove_id(inner_act_mask_id);
 725              		.loc 1 535 0 discriminator 4
 726 02a4 2046     		mov	r0, r4
 727 02a6 FFF7FEFF 		bl	lv_draw_mask_remove_id
 728              	.LVL94:
 536:Drivers/lvgl/lvgl/src/extra/widgets/meter/lv_meter.c ****             lv_event_send(obj, LV_EVENT_DRAW_MAIN_END, &part_draw_dsc);
 729              		.loc 1 536 0 discriminator 4
 730 02aa 28AA     		add	r2, sp, #160
 731 02ac 1621     		movs	r1, #22
 732 02ae 0598     		ldr	r0, [sp, #20]
 733 02b0 FFF7FEFF 		bl	lv_event_send
 734              	.LVL95:
 537:Drivers/lvgl/lvgl/src/extra/widgets/meter/lv_meter.c **** 
 538:Drivers/lvgl/lvgl/src/extra/widgets/meter/lv_meter.c ****             line_dsc.color = line_color_ori;
 735              		.loc 1 538 0 discriminator 4
 736 02b4 BDF82630 		ldrh	r3, [sp, #38]
 737              	.LVL96:
 738 02b8 ADF85031 		strh	r3, [sp, #336]	@ movhi
 539:Drivers/lvgl/lvgl/src/extra/widgets/meter/lv_meter.c ****             line_dsc.width = line_width_ori;
 739              		.loc 1 539 0 discriminator 4
 740 02bc BDF81830 		ldrh	r3, [sp, #24]
 741              	.LVL97:
ARM GAS  /tmp/ccVvrzYL.s 			page 43


 742 02c0 ADF85231 		strh	r3, [sp, #338]	@ movhi
 743              	.LBE62:
 437:Drivers/lvgl/lvgl/src/extra/widgets/meter/lv_meter.c ****             minor_cnt++;
 744              		.loc 1 437 0 discriminator 4
 745 02c4 0136     		adds	r6, r6, #1
 746              	.LVL98:
 747 02c6 B6B2     		uxth	r6, r6
 748              	.LVL99:
 749              	.L35:
 437:Drivers/lvgl/lvgl/src/extra/widgets/meter/lv_meter.c ****             minor_cnt++;
 750              		.loc 1 437 0 is_stmt 0 discriminator 2
 751 02c8 7A88     		ldrh	r2, [r7, #2]
 752 02ca B242     		cmp	r2, r6
 753 02cc 48D9     		bls	.L48
 754              	.LBB69:
 438:Drivers/lvgl/lvgl/src/extra/widgets/meter/lv_meter.c ****             bool major = false;
 755              		.loc 1 438 0 is_stmt 1
 756 02ce 079B     		ldr	r3, [sp, #28]
 757 02d0 0133     		adds	r3, r3, #1
 758 02d2 1946     		mov	r1, r3
 759 02d4 0793     		str	r3, [sp, #28]
 760              	.LVL100:
 440:Drivers/lvgl/lvgl/src/extra/widgets/meter/lv_meter.c ****                 minor_cnt = 0;
 761              		.loc 1 440 0
 762 02d6 7B89     		ldrh	r3, [r7, #10]
 763 02d8 8B42     		cmp	r3, r1
 764 02da 3FF4E7AE 		beq	.L39
 439:Drivers/lvgl/lvgl/src/extra/widgets/meter/lv_meter.c ****             if(minor_cnt == scale->tick_major_nth) {
 765              		.loc 1 439 0
 766 02de 4FF0000B 		mov	fp, #0
 767              	.L19:
 768              	.LVL101:
 445:Drivers/lvgl/lvgl/src/extra/widgets/meter/lv_meter.c ****             part_draw_dsc.value = value_of_line;
 769              		.loc 1 445 0
 770 02e2 0896     		str	r6, [sp, #32]
 771 02e4 7B69     		ldr	r3, [r7, #20]
 772 02e6 B969     		ldr	r1, [r7, #24]
 773 02e8 0091     		str	r1, [sp]
 774 02ea 013A     		subs	r2, r2, #1
 775 02ec 0021     		movs	r1, #0
 776 02ee 3046     		mov	r0, r6
 777 02f0 FFF7FEFF 		bl	lv_map
 778              	.LVL102:
 779 02f4 8146     		mov	r9, r0
 780              	.LVL103:
 446:Drivers/lvgl/lvgl/src/extra/widgets/meter/lv_meter.c **** 
 781              		.loc 1 446 0
 782 02f6 3890     		str	r0, [sp, #224]
 448:Drivers/lvgl/lvgl/src/extra/widgets/meter/lv_meter.c ****             lv_color_t line_color_ori = line_color;
 783              		.loc 1 448 0
 784 02f8 BBF1000F 		cmp	fp, #0
 785 02fc 3FF4DBAE 		beq	.L20
 448:Drivers/lvgl/lvgl/src/extra/widgets/meter/lv_meter.c ****             lv_color_t line_color_ori = line_color;
 786              		.loc 1 448 0 is_stmt 0 discriminator 1
 787 0300 3D89     		ldrh	r5, [r7, #8]
 788              	.L21:
 789              	.LVL104:
ARM GAS  /tmp/ccVvrzYL.s 			page 44


 449:Drivers/lvgl/lvgl/src/extra/widgets/meter/lv_meter.c **** 
 790              		.loc 1 449 0 is_stmt 1
 791 0302 ADF82650 		strh	r5, [sp, #38]	@ movhi
 451:Drivers/lvgl/lvgl/src/extra/widgets/meter/lv_meter.c ****             lv_coord_t line_width = line_width_ori;
 792              		.loc 1 451 0
 793 0306 BBF1000F 		cmp	fp, #0
 794 030a 3FF4D6AE 		beq	.L22
 451:Drivers/lvgl/lvgl/src/extra/widgets/meter/lv_meter.c ****             lv_coord_t line_width = line_width_ori;
 795              		.loc 1 451 0 is_stmt 0 discriminator 1
 796 030e B7F90E30 		ldrsh	r3, [r7, #14]
 797 0312 0693     		str	r3, [sp, #24]
 798              	.L23:
 799              	.LVL105:
 455:Drivers/lvgl/lvgl/src/extra/widgets/meter/lv_meter.c ****                 if(indic->type != LV_METER_INDICATOR_TYPE_SCALE_LINES) continue;
 800              		.loc 1 455 0 is_stmt 1 discriminator 4
 801 0314 059B     		ldr	r3, [sp, #20]
 802 0316 03F13008 		add	r8, r3, #48
 803 031a 4046     		mov	r0, r8
 804              	.LVL106:
 805 031c FFF7FEFF 		bl	_lv_ll_get_tail
 806              	.LVL107:
 807 0320 0446     		mov	r4, r0
 808              	.LVL108:
 452:Drivers/lvgl/lvgl/src/extra/widgets/meter/lv_meter.c **** 
 809              		.loc 1 452 0 discriminator 4
 810 0322 DDF818A0 		ldr	r10, [sp, #24]
 455:Drivers/lvgl/lvgl/src/extra/widgets/meter/lv_meter.c ****                 if(indic->type != LV_METER_INDICATOR_TYPE_SCALE_LINES) continue;
 811              		.loc 1 455 0 discriminator 4
 812 0326 F0E6     		b	.L24
 813              	.LVL109:
 814              	.L46:
 815              	.LBB68:
 518:Drivers/lvgl/lvgl/src/extra/widgets/meter/lv_meter.c ****                 label_cord.y1 = p.y - label_size.y / 2;
 816              		.loc 1 518 0
 817 0328 431C     		adds	r3, r0, #1
 818 032a 87E7     		b	.L31
 819              	.L47:
 519:Drivers/lvgl/lvgl/src/extra/widgets/meter/lv_meter.c ****                 label_cord.x2 = label_cord.x1 + label_size.x;
 820              		.loc 1 519 0
 821 032c 4C1C     		adds	r4, r1, #1
 822 032e 91E7     		b	.L32
 823              	.LVL110:
 824              	.L30:
 825              	.LBE68:
 528:Drivers/lvgl/lvgl/src/extra/widgets/meter/lv_meter.c ****                 part_draw_dsc.text = NULL;
 826              		.loc 1 528 0
 827 0330 0023     		movs	r3, #0
 828 0332 2D93     		str	r3, [sp, #180]
 529:Drivers/lvgl/lvgl/src/extra/widgets/meter/lv_meter.c ****                 lv_event_send(obj, LV_EVENT_DRAW_PART_BEGIN, &part_draw_dsc);
 829              		.loc 1 529 0
 830 0334 3393     		str	r3, [sp, #204]
 530:Drivers/lvgl/lvgl/src/extra/widgets/meter/lv_meter.c ****             }
 831              		.loc 1 530 0
 832 0336 28AA     		add	r2, sp, #160
 833 0338 1A21     		movs	r1, #26
 834 033a 0598     		ldr	r0, [sp, #20]
 835 033c FFF7FEFF 		bl	lv_event_send
ARM GAS  /tmp/ccVvrzYL.s 			page 45


 836              	.LVL111:
 837 0340 A2E7     		b	.L33
 838              	.LVL112:
 839              	.L40:
 533:Drivers/lvgl/lvgl/src/extra/widgets/meter/lv_meter.c ****             lv_draw_line(draw_ctx, &line_dsc, &p_outer, &p_center);
 840              		.loc 1 533 0
 841 0342 46A8     		add	r0, sp, #280
 842 0344 A4E7     		b	.L34
 843              	.LVL113:
 844              	.L38:
 845              	.LBE69:
 435:Drivers/lvgl/lvgl/src/extra/widgets/meter/lv_meter.c ****         uint16_t i;
 846              		.loc 1 435 0
 847 0346 4FF6FF73 		movw	r3, #65535
 848 034a 0793     		str	r3, [sp, #28]
 849              	.L18:
 435:Drivers/lvgl/lvgl/src/extra/widgets/meter/lv_meter.c ****         uint16_t i;
 850              		.loc 1 435 0 is_stmt 0 discriminator 2
 851 034c 4FF0000B 		mov	fp, #0
 852 0350 5E46     		mov	r6, fp
 853 0352 B9E7     		b	.L35
 854              	.L51:
 855              		.align	2
 856              	.L50:
 857 0354 00000000 		.word	.LANCHOR0
 858 0358 1FF8E007 		.word	132184095
 859 035c 00000000 		.word	.LC0
 860              	.LVL114:
 861              	.L48:
 540:Drivers/lvgl/lvgl/src/extra/widgets/meter/lv_meter.c **** 
 541:Drivers/lvgl/lvgl/src/extra/widgets/meter/lv_meter.c ****         }
 542:Drivers/lvgl/lvgl/src/extra/widgets/meter/lv_meter.c ****         lv_draw_mask_free_param(&inner_minor_mask);
 862              		.loc 1 542 0 is_stmt 1 discriminator 2
 863 0360 46A8     		add	r0, sp, #280
 864 0362 FFF7FEFF 		bl	lv_draw_mask_free_param
 865              	.LVL115:
 543:Drivers/lvgl/lvgl/src/extra/widgets/meter/lv_meter.c ****         lv_draw_mask_free_param(&inner_major_mask);
 866              		.loc 1 543 0 discriminator 2
 867 0366 40A8     		add	r0, sp, #256
 868 0368 FFF7FEFF 		bl	lv_draw_mask_free_param
 869              	.LVL116:
 544:Drivers/lvgl/lvgl/src/extra/widgets/meter/lv_meter.c ****         lv_draw_mask_free_param(&outer_mask);
 870              		.loc 1 544 0 discriminator 2
 871 036c 3AA8     		add	r0, sp, #232
 872 036e FFF7FEFF 		bl	lv_draw_mask_free_param
 873              	.LVL117:
 545:Drivers/lvgl/lvgl/src/extra/widgets/meter/lv_meter.c ****         lv_draw_mask_remove_id(outer_mask_id);
 874              		.loc 1 545 0 discriminator 2
 875 0372 0B98     		ldr	r0, [sp, #44]
 876 0374 FFF7FEFF 		bl	lv_draw_mask_remove_id
 877              	.LVL118:
 878              	.LBE61:
 404:Drivers/lvgl/lvgl/src/extra/widgets/meter/lv_meter.c ****         part_draw_dsc.sub_part_ptr = scale;
 879              		.loc 1 404 0 discriminator 2
 880 0378 3946     		mov	r1, r7
 881 037a 0F98     		ldr	r0, [sp, #60]
 882 037c FFF7FEFF 		bl	_lv_ll_get_prev
ARM GAS  /tmp/ccVvrzYL.s 			page 46


 883              	.LVL119:
 884 0380 0746     		mov	r7, r0
 885              	.LVL120:
 886              	.L17:
 404:Drivers/lvgl/lvgl/src/extra/widgets/meter/lv_meter.c ****         part_draw_dsc.sub_part_ptr = scale;
 887              		.loc 1 404 0 is_stmt 0 discriminator 1
 888 0382 002F     		cmp	r7, #0
 889 0384 61D0     		beq	.L49
 890              	.LBB70:
 405:Drivers/lvgl/lvgl/src/extra/widgets/meter/lv_meter.c **** 
 891              		.loc 1 405 0 is_stmt 1
 892 0386 3997     		str	r7, [sp, #228]
 893              	.LVL121:
 408:Drivers/lvgl/lvgl/src/extra/widgets/meter/lv_meter.c ****         lv_coord_t r_in_major = r_out - scale->tick_major_length;
 894              		.loc 1 408 0
 895 0388 BB88     		ldrh	r3, [r7, #4]
 896 038a 0C9D     		ldr	r5, [sp, #48]
 897 038c EB1A     		subs	r3, r5, r3
 898 038e 9BB2     		uxth	r3, r3
 899              	.LVL122:
 409:Drivers/lvgl/lvgl/src/extra/widgets/meter/lv_meter.c **** 
 900              		.loc 1 409 0
 901 0390 BC89     		ldrh	r4, [r7, #12]
 902 0392 2C1B     		subs	r4, r5, r4
 903 0394 A4B2     		uxth	r4, r4
 904 0396 22B2     		sxth	r2, r4
 905 0398 0E92     		str	r2, [sp, #56]
 906              	.LVL123:
 412:Drivers/lvgl/lvgl/src/extra/widgets/meter/lv_meter.c ****         area_inner_minor.y1 = p_center.y - r_in_minor;
 907              		.loc 1 412 0
 908 039a BDF85C21 		ldrh	r2, [sp, #348]
 909 039e D11A     		subs	r1, r2, r3
 910 03a0 ADF85010 		strh	r1, [sp, #80]	@ movhi
 413:Drivers/lvgl/lvgl/src/extra/widgets/meter/lv_meter.c ****         area_inner_minor.x2 = p_center.x + r_in_minor;
 911              		.loc 1 413 0
 912 03a4 BDF85E11 		ldrh	r1, [sp, #350]
 913 03a8 C81A     		subs	r0, r1, r3
 914              	.LVL124:
 915 03aa ADF85200 		strh	r0, [sp, #82]	@ movhi
 414:Drivers/lvgl/lvgl/src/extra/widgets/meter/lv_meter.c ****         area_inner_minor.y2 = p_center.y + r_in_minor;
 916              		.loc 1 414 0
 917 03ae 1A44     		add	r2, r2, r3
 918 03b0 ADF85420 		strh	r2, [sp, #84]	@ movhi
 415:Drivers/lvgl/lvgl/src/extra/widgets/meter/lv_meter.c ****         lv_draw_mask_radius_init(&inner_minor_mask, &area_inner_minor, LV_RADIUS_CIRCLE, true);
 919              		.loc 1 415 0
 920 03b4 0B44     		add	r3, r3, r1
 921              	.LVL125:
 922 03b6 ADF85630 		strh	r3, [sp, #86]	@ movhi
 416:Drivers/lvgl/lvgl/src/extra/widgets/meter/lv_meter.c **** 
 923              		.loc 1 416 0
 924 03ba 0123     		movs	r3, #1
 925 03bc 47F6FF72 		movw	r2, #32767
 926 03c0 14A9     		add	r1, sp, #80
 927 03c2 46A8     		add	r0, sp, #280
 928 03c4 FFF7FEFF 		bl	lv_draw_mask_radius_init
 929              	.LVL126:
 419:Drivers/lvgl/lvgl/src/extra/widgets/meter/lv_meter.c ****         area_inner_major.y1 = p_center.y - r_in_major;
ARM GAS  /tmp/ccVvrzYL.s 			page 47


 930              		.loc 1 419 0
 931 03c8 BDF85C21 		ldrh	r2, [sp, #348]
 932 03cc 131B     		subs	r3, r2, r4
 933 03ce ADF85830 		strh	r3, [sp, #88]	@ movhi
 420:Drivers/lvgl/lvgl/src/extra/widgets/meter/lv_meter.c ****         area_inner_major.x2 = p_center.x + r_in_major - 1;
 934              		.loc 1 420 0
 935 03d2 BDF85E31 		ldrh	r3, [sp, #350]
 936 03d6 191B     		subs	r1, r3, r4
 937 03d8 ADF85A10 		strh	r1, [sp, #90]	@ movhi
 421:Drivers/lvgl/lvgl/src/extra/widgets/meter/lv_meter.c ****         area_inner_major.y2 = p_center.y + r_in_major - 1;
 938              		.loc 1 421 0
 939 03dc 2244     		add	r2, r2, r4
 940 03de 92B2     		uxth	r2, r2
 941 03e0 013A     		subs	r2, r2, #1
 942 03e2 ADF85C20 		strh	r2, [sp, #92]	@ movhi
 422:Drivers/lvgl/lvgl/src/extra/widgets/meter/lv_meter.c ****         lv_draw_mask_radius_init(&inner_major_mask, &area_inner_major, LV_RADIUS_CIRCLE, true);
 943              		.loc 1 422 0
 944 03e6 2344     		add	r3, r3, r4
 945 03e8 9BB2     		uxth	r3, r3
 946 03ea 013B     		subs	r3, r3, #1
 947 03ec ADF85E30 		strh	r3, [sp, #94]	@ movhi
 423:Drivers/lvgl/lvgl/src/extra/widgets/meter/lv_meter.c **** 
 948              		.loc 1 423 0
 949 03f0 0123     		movs	r3, #1
 950 03f2 47F6FF72 		movw	r2, #32767
 951 03f6 16A9     		add	r1, sp, #88
 952 03f8 40A8     		add	r0, sp, #256
 953 03fa FFF7FEFF 		bl	lv_draw_mask_radius_init
 954              	.LVL127:
 426:Drivers/lvgl/lvgl/src/extra/widgets/meter/lv_meter.c ****         area_outer.y1 = p_center.y - r_out;
 955              		.loc 1 426 0
 956 03fe BDF85C21 		ldrh	r2, [sp, #348]
 957 0402 531B     		subs	r3, r2, r5
 958 0404 ADF86030 		strh	r3, [sp, #96]	@ movhi
 427:Drivers/lvgl/lvgl/src/extra/widgets/meter/lv_meter.c ****         area_outer.x2 = p_center.x + r_out - 1;
 959              		.loc 1 427 0
 960 0408 BDF85E31 		ldrh	r3, [sp, #350]
 961 040c 591B     		subs	r1, r3, r5
 962 040e ADF86210 		strh	r1, [sp, #98]	@ movhi
 428:Drivers/lvgl/lvgl/src/extra/widgets/meter/lv_meter.c ****         area_outer.y2 = p_center.y + r_out - 1;
 963              		.loc 1 428 0
 964 0412 2A44     		add	r2, r2, r5
 965 0414 92B2     		uxth	r2, r2
 966 0416 013A     		subs	r2, r2, #1
 967 0418 ADF86420 		strh	r2, [sp, #100]	@ movhi
 429:Drivers/lvgl/lvgl/src/extra/widgets/meter/lv_meter.c ****         lv_draw_mask_radius_init(&outer_mask, &area_outer, LV_RADIUS_CIRCLE, false);
 968              		.loc 1 429 0
 969 041c 2B44     		add	r3, r3, r5
 970 041e 9BB2     		uxth	r3, r3
 971 0420 013B     		subs	r3, r3, #1
 972 0422 ADF86630 		strh	r3, [sp, #102]	@ movhi
 430:Drivers/lvgl/lvgl/src/extra/widgets/meter/lv_meter.c ****         int16_t outer_mask_id = lv_draw_mask_add(&outer_mask, NULL);
 973              		.loc 1 430 0
 974 0426 0023     		movs	r3, #0
 975 0428 47F6FF72 		movw	r2, #32767
 976 042c 18A9     		add	r1, sp, #96
 977 042e 3AA8     		add	r0, sp, #232
ARM GAS  /tmp/ccVvrzYL.s 			page 48


 978 0430 FFF7FEFF 		bl	lv_draw_mask_radius_init
 979              	.LVL128:
 431:Drivers/lvgl/lvgl/src/extra/widgets/meter/lv_meter.c **** 
 980              		.loc 1 431 0
 981 0434 0021     		movs	r1, #0
 982 0436 3AA8     		add	r0, sp, #232
 983 0438 FFF7FEFF 		bl	lv_draw_mask_add
 984              	.LVL129:
 985 043c 0B90     		str	r0, [sp, #44]
 986              	.LVL130:
 435:Drivers/lvgl/lvgl/src/extra/widgets/meter/lv_meter.c ****         uint16_t i;
 987              		.loc 1 435 0
 988 043e 7B89     		ldrh	r3, [r7, #10]
 989 0440 002B     		cmp	r3, #0
 990 0442 80D0     		beq	.L38
 435:Drivers/lvgl/lvgl/src/extra/widgets/meter/lv_meter.c ****         uint16_t i;
 991              		.loc 1 435 0 is_stmt 0 discriminator 1
 992 0444 013B     		subs	r3, r3, #1
 993 0446 0793     		str	r3, [sp, #28]
 994 0448 80E7     		b	.L18
 995              	.LVL131:
 996              	.L49:
 997              	.LBE70:
 546:Drivers/lvgl/lvgl/src/extra/widgets/meter/lv_meter.c ****     }
 547:Drivers/lvgl/lvgl/src/extra/widgets/meter/lv_meter.c **** }
 998              		.loc 1 547 0 is_stmt 1
 999 044a 59B0     		add	sp, sp, #356
 1000              	.LCFI5:
 1001              		.cfi_def_cfa_offset 36
 1002              		@ sp needed
 1003 044c BDE8F08F 		pop	{r4, r5, r6, r7, r8, r9, r10, fp, pc}
 1004              		.cfi_endproc
 1005              	.LFE218:
 1007              		.section	.text.draw_needles,"ax",%progbits
 1008              		.align	1
 1009              		.syntax unified
 1010              		.thumb
 1011              		.thumb_func
 1012              		.fpu fpv5-d16
 1014              	draw_needles:
 1015              	.LFB219:
 548:Drivers/lvgl/lvgl/src/extra/widgets/meter/lv_meter.c **** 
 549:Drivers/lvgl/lvgl/src/extra/widgets/meter/lv_meter.c **** 
 550:Drivers/lvgl/lvgl/src/extra/widgets/meter/lv_meter.c **** static void draw_needles(lv_obj_t * obj, lv_draw_ctx_t * draw_ctx, const lv_area_t * scale_area)
 551:Drivers/lvgl/lvgl/src/extra/widgets/meter/lv_meter.c **** {
 1016              		.loc 1 551 0
 1017              		.cfi_startproc
 1018              		@ args = 0, pretend = 0, frame = 136
 1019              		@ frame_needed = 0, uses_anonymous_args = 0
 1020              	.LVL132:
 1021 0000 2DE9F04F 		push	{r4, r5, r6, r7, r8, r9, r10, fp, lr}
 1022              	.LCFI6:
 1023              		.cfi_def_cfa_offset 36
 1024              		.cfi_offset 4, -36
 1025              		.cfi_offset 5, -32
 1026              		.cfi_offset 6, -28
 1027              		.cfi_offset 7, -24
ARM GAS  /tmp/ccVvrzYL.s 			page 49


 1028              		.cfi_offset 8, -20
 1029              		.cfi_offset 9, -16
 1030              		.cfi_offset 10, -12
 1031              		.cfi_offset 11, -8
 1032              		.cfi_offset 14, -4
 1033 0004 A5B0     		sub	sp, sp, #148
 1034              	.LCFI7:
 1035              		.cfi_def_cfa_offset 184
 1036 0006 0746     		mov	r7, r0
 1037 0008 0291     		str	r1, [sp, #8]
 1038              	.LVL133:
 1039              	.LBB71:
 1040              	.LBB72:
 125:Drivers/lvgl/lvgl/src/extra/widgets/meter/../../../../src/hal/../draw/../misc/../font/../misc/lv_area.h **** }
 1041              		.loc 3 125 0
 1042 000a 9688     		ldrh	r6, [r2, #4]
 1043 000c 1388     		ldrh	r3, [r2]
 1044 000e F61A     		subs	r6, r6, r3
 1045 0010 B6B2     		uxth	r6, r6
 1046 0012 0136     		adds	r6, r6, #1
 1047 0014 36B2     		sxth	r6, r6
 1048              	.LVL134:
 1049              	.LBE72:
 1050              	.LBE71:
 552:Drivers/lvgl/lvgl/src/extra/widgets/meter/lv_meter.c ****     lv_meter_t * meter = (lv_meter_t *)obj;
 553:Drivers/lvgl/lvgl/src/extra/widgets/meter/lv_meter.c **** 
 554:Drivers/lvgl/lvgl/src/extra/widgets/meter/lv_meter.c ****     lv_coord_t r_edge = lv_area_get_width(scale_area) / 2;
 1051              		.loc 1 554 0
 1052 0016 002E     		cmp	r6, #0
 1053 0018 31DB     		blt	.L65
 1054              	.L53:
 1055              	.LVL135:
 555:Drivers/lvgl/lvgl/src/extra/widgets/meter/lv_meter.c ****     lv_point_t scale_center;
 556:Drivers/lvgl/lvgl/src/extra/widgets/meter/lv_meter.c ****     scale_center.x = scale_area->x1 + r_edge;
 1056              		.loc 1 556 0
 1057 001a C6F34F06 		ubfx	r6, r6, #1, #16
 1058              	.LVL136:
 1059 001e 3344     		add	r3, r3, r6
 1060 0020 ADF88C30 		strh	r3, [sp, #140]	@ movhi
 557:Drivers/lvgl/lvgl/src/extra/widgets/meter/lv_meter.c ****     scale_center.y = scale_area->y1 + r_edge;
 1061              		.loc 1 557 0
 1062 0024 5388     		ldrh	r3, [r2, #2]
 1063 0026 3344     		add	r3, r3, r6
 1064 0028 ADF88E30 		strh	r3, [sp, #142]	@ movhi
 558:Drivers/lvgl/lvgl/src/extra/widgets/meter/lv_meter.c **** 
 559:Drivers/lvgl/lvgl/src/extra/widgets/meter/lv_meter.c ****     lv_draw_line_dsc_t line_dsc;
 560:Drivers/lvgl/lvgl/src/extra/widgets/meter/lv_meter.c ****     lv_draw_line_dsc_init(&line_dsc);
 1065              		.loc 1 560 0
 1066 002c 20A8     		add	r0, sp, #128
 1067              	.LVL137:
 1068 002e FFF7FEFF 		bl	lv_draw_line_dsc_init
 1069              	.LVL138:
 561:Drivers/lvgl/lvgl/src/extra/widgets/meter/lv_meter.c ****     lv_obj_init_draw_line_dsc(obj, LV_PART_ITEMS, &line_dsc);
 1070              		.loc 1 561 0
 1071 0032 20AA     		add	r2, sp, #128
 1072 0034 4FF4A021 		mov	r1, #327680
 1073 0038 3846     		mov	r0, r7
ARM GAS  /tmp/ccVvrzYL.s 			page 50


 1074 003a FFF7FEFF 		bl	lv_obj_init_draw_line_dsc
 1075              	.LVL139:
 562:Drivers/lvgl/lvgl/src/extra/widgets/meter/lv_meter.c **** 
 563:Drivers/lvgl/lvgl/src/extra/widgets/meter/lv_meter.c ****     lv_draw_img_dsc_t img_dsc;
 564:Drivers/lvgl/lvgl/src/extra/widgets/meter/lv_meter.c ****     lv_draw_img_dsc_init(&img_dsc);
 1076              		.loc 1 564 0
 1077 003e 1AA8     		add	r0, sp, #104
 1078 0040 FFF7FEFF 		bl	lv_draw_img_dsc_init
 1079              	.LVL140:
 565:Drivers/lvgl/lvgl/src/extra/widgets/meter/lv_meter.c ****     lv_obj_init_draw_img_dsc(obj, LV_PART_ITEMS, &img_dsc);
 1080              		.loc 1 565 0
 1081 0044 1AAA     		add	r2, sp, #104
 1082 0046 4FF4A021 		mov	r1, #327680
 1083 004a 3846     		mov	r0, r7
 1084 004c FFF7FEFF 		bl	lv_obj_init_draw_img_dsc
 1085              	.LVL141:
 1086              	.LBB73:
 1087              	.LBB74:
 507:Drivers/lvgl/lvgl/src/extra/widgets/meter/../../../../src/core/lv_obj_style_gen.h ****     return (lv_opa_t)v.num;
 1088              		.loc 2 507 0
 1089 0050 6022     		movs	r2, #96
 1090 0052 0021     		movs	r1, #0
 1091 0054 3846     		mov	r0, r7
 1092 0056 FFF7FEFF 		bl	lv_obj_get_style_prop
 1093              	.LVL142:
 1094 005a 0390     		str	r0, [sp, #12]
 1095              		.loc 2 508 0
 1096 005c 5FFA80FB 		uxtb	fp, r0
 1097              	.LVL143:
 1098              	.LBE74:
 1099              	.LBE73:
 566:Drivers/lvgl/lvgl/src/extra/widgets/meter/lv_meter.c ****     lv_opa_t opa_main = lv_obj_get_style_opa(obj, LV_PART_MAIN);
 567:Drivers/lvgl/lvgl/src/extra/widgets/meter/lv_meter.c **** 
 568:Drivers/lvgl/lvgl/src/extra/widgets/meter/lv_meter.c ****     lv_obj_draw_part_dsc_t part_draw_dsc;
 569:Drivers/lvgl/lvgl/src/extra/widgets/meter/lv_meter.c ****     lv_obj_draw_dsc_init(&part_draw_dsc, draw_ctx);
 1100              		.loc 1 569 0
 1101 0060 0299     		ldr	r1, [sp, #8]
 1102 0062 08A8     		add	r0, sp, #32
 1103 0064 FFF7FEFF 		bl	lv_obj_draw_dsc_init
 1104              	.LVL144:
 570:Drivers/lvgl/lvgl/src/extra/widgets/meter/lv_meter.c ****     part_draw_dsc.class_p = MY_CLASS;
 1105              		.loc 1 570 0
 1106 0068 734B     		ldr	r3, .L68
 1107 006a 0993     		str	r3, [sp, #36]
 571:Drivers/lvgl/lvgl/src/extra/widgets/meter/lv_meter.c ****     part_draw_dsc.p1 = &scale_center;
 1108              		.loc 1 571 0
 1109 006c 23AB     		add	r3, sp, #140
 1110 006e 1193     		str	r3, [sp, #68]
 572:Drivers/lvgl/lvgl/src/extra/widgets/meter/lv_meter.c **** 
 573:Drivers/lvgl/lvgl/src/extra/widgets/meter/lv_meter.c ****     lv_meter_indicator_t * indic;
 574:Drivers/lvgl/lvgl/src/extra/widgets/meter/lv_meter.c ****     _LV_LL_READ_BACK(&meter->indicator_ll, indic) {
 1111              		.loc 1 574 0
 1112 0070 07F13009 		add	r9, r7, #48
 1113 0074 4846     		mov	r0, r9
 1114 0076 FFF7FEFF 		bl	_lv_ll_get_tail
 1115              	.LVL145:
 1116 007a 0446     		mov	r4, r0
ARM GAS  /tmp/ccVvrzYL.s 			page 51


 1117              	.LVL146:
 1118 007c 90E0     		b	.L54
 1119              	.LVL147:
 1120              	.L65:
 554:Drivers/lvgl/lvgl/src/extra/widgets/meter/lv_meter.c ****     lv_point_t scale_center;
 1121              		.loc 1 554 0
 1122 007e 0136     		adds	r6, r6, #1
 1123 0080 CBE7     		b	.L53
 1124              	.LVL148:
 1125              	.L67:
 1126              	.LBB75:
 1127              	.LBB76:
 575:Drivers/lvgl/lvgl/src/extra/widgets/meter/lv_meter.c ****         lv_meter_scale_t * scale = indic->scale;
 576:Drivers/lvgl/lvgl/src/extra/widgets/meter/lv_meter.c ****         part_draw_dsc.sub_part_ptr = indic;
 577:Drivers/lvgl/lvgl/src/extra/widgets/meter/lv_meter.c **** 
 578:Drivers/lvgl/lvgl/src/extra/widgets/meter/lv_meter.c ****         if(indic->type == LV_METER_INDICATOR_TYPE_NEEDLE_LINE) {
 579:Drivers/lvgl/lvgl/src/extra/widgets/meter/lv_meter.c ****             int32_t angle = lv_map(indic->end_value, scale->min, scale->max, scale->rotation, scale
 1128              		.loc 1 579 0
 1129 0082 E068     		ldr	r0, [r4, #12]
 1130              	.LVL149:
 1131 0084 6969     		ldr	r1, [r5, #20]
 1132 0086 AA69     		ldr	r2, [r5, #24]
 1133 0088 B5F92030 		ldrsh	r3, [r5, #32]
 1134 008c B5F81EC0 		ldrh	ip, [r5, #30]
 1135 0090 9C44     		add	ip, ip, r3
 1136 0092 CDF800C0 		str	ip, [sp]
 1137 0096 FFF7FEFF 		bl	lv_map
 1138              	.LVL150:
 1139 009a 8246     		mov	r10, r0
 1140              	.LVL151:
 580:Drivers/lvgl/lvgl/src/extra/widgets/meter/lv_meter.c ****             lv_coord_t r_out = r_edge + scale->r_mod + indic->type_data.needle_line.r_mod;
 1141              		.loc 1 580 0
