ARM GAS  /tmp/ccVvrzYL.s 			page 1


   1              		.cpu cortex-m7
   2              		.eabi_attribute 28, 1
   3              		.eabi_attribute 20, 1
   4              		.eabi_attribute 21, 1
   5              		.eabi_attribute 23, 3
   6              		.eabi_attribute 24, 1
   7              		.eabi_attribute 25, 1
   8              		.eabi_attribute 26, 1
   9              		.eabi_attribute 30, 1
  10              		.eabi_attribute 34, 1
  11              		.eabi_attribute 18, 4
  12              		.file	"lv_meter.c"
  13              		.text
  14              	.Ltext0:
  15              		.cfi_sections	.debug_frame
  16              		.section	.text.draw_arcs,"ax",%progbits
  17              		.align	1
  18              		.syntax unified
  19              		.thumb
  20              		.thumb_func
  21              		.fpu fpv5-d16
  23              	draw_arcs:
  24              	.LFB217:
  25              		.file 1 "Drivers/lvgl/lvgl/src/extra/widgets/meter/lv_meter.c"
   1:Drivers/lvgl/lvgl/src/extra/widgets/meter/lv_meter.c **** /**
   2:Drivers/lvgl/lvgl/src/extra/widgets/meter/lv_meter.c ****  * @file lv_meter.c
   3:Drivers/lvgl/lvgl/src/extra/widgets/meter/lv_meter.c ****  *
   4:Drivers/lvgl/lvgl/src/extra/widgets/meter/lv_meter.c ****  */
   5:Drivers/lvgl/lvgl/src/extra/widgets/meter/lv_meter.c **** 
   6:Drivers/lvgl/lvgl/src/extra/widgets/meter/lv_meter.c **** /*********************
   7:Drivers/lvgl/lvgl/src/extra/widgets/meter/lv_meter.c ****  *      INCLUDES
   8:Drivers/lvgl/lvgl/src/extra/widgets/meter/lv_meter.c ****  *********************/
   9:Drivers/lvgl/lvgl/src/extra/widgets/meter/lv_meter.c **** #include "lv_meter.h"
  10:Drivers/lvgl/lvgl/src/extra/widgets/meter/lv_meter.c **** #if LV_USE_METER != 0
  11:Drivers/lvgl/lvgl/src/extra/widgets/meter/lv_meter.c **** 
  12:Drivers/lvgl/lvgl/src/extra/widgets/meter/lv_meter.c **** #include "../../../misc/lv_assert.h"
  13:Drivers/lvgl/lvgl/src/extra/widgets/meter/lv_meter.c **** 
  14:Drivers/lvgl/lvgl/src/extra/widgets/meter/lv_meter.c **** /*********************
  15:Drivers/lvgl/lvgl/src/extra/widgets/meter/lv_meter.c ****  *      DEFINES
  16:Drivers/lvgl/lvgl/src/extra/widgets/meter/lv_meter.c ****  *********************/
  17:Drivers/lvgl/lvgl/src/extra/widgets/meter/lv_meter.c **** #define MY_CLASS &lv_meter_class
  18:Drivers/lvgl/lvgl/src/extra/widgets/meter/lv_meter.c **** 
  19:Drivers/lvgl/lvgl/src/extra/widgets/meter/lv_meter.c **** /**********************
  20:Drivers/lvgl/lvgl/src/extra/widgets/meter/lv_meter.c ****  *      TYPEDEFS
  21:Drivers/lvgl/lvgl/src/extra/widgets/meter/lv_meter.c ****  **********************/
  22:Drivers/lvgl/lvgl/src/extra/widgets/meter/lv_meter.c **** 
  23:Drivers/lvgl/lvgl/src/extra/widgets/meter/lv_meter.c **** /**********************
  24:Drivers/lvgl/lvgl/src/extra/widgets/meter/lv_meter.c ****  *  STATIC PROTOTYPES
  25:Drivers/lvgl/lvgl/src/extra/widgets/meter/lv_meter.c ****  **********************/
  26:Drivers/lvgl/lvgl/src/extra/widgets/meter/lv_meter.c **** static void lv_meter_constructor(const lv_obj_class_t * class_p, lv_obj_t * obj);
  27:Drivers/lvgl/lvgl/src/extra/widgets/meter/lv_meter.c **** static void lv_meter_destructor(const lv_obj_class_t * class_p, lv_obj_t * obj);
  28:Drivers/lvgl/lvgl/src/extra/widgets/meter/lv_meter.c **** static void lv_meter_event(const lv_obj_class_t * class_p, lv_event_t * e);
  29:Drivers/lvgl/lvgl/src/extra/widgets/meter/lv_meter.c **** static void draw_arcs(lv_obj_t * obj, lv_draw_ctx_t * draw_ctx, const lv_area_t * scale_area);
  30:Drivers/lvgl/lvgl/src/extra/widgets/meter/lv_meter.c **** static void draw_ticks_and_labels(lv_obj_t * obj, lv_draw_ctx_t * draw_ctx, const lv_area_t * scale
  31:Drivers/lvgl/lvgl/src/extra/widgets/meter/lv_meter.c **** static void draw_needles(lv_obj_t * obj, lv_draw_ctx_t * draw_ctx, const lv_area_t * scale_area);
  32:Drivers/lvgl/lvgl/src/extra/widgets/meter/lv_meter.c **** static void inv_arc(lv_obj_t * obj, lv_meter_indicator_t * indic, int32_t old_value, int32_t new_va
  33:Drivers/lvgl/lvgl/src/extra/widgets/meter/lv_meter.c **** static void inv_line(lv_obj_t * obj, lv_meter_indicator_t * indic, int32_t value);
ARM GAS  /tmp/ccVvrzYL.s 			page 2


  34:Drivers/lvgl/lvgl/src/extra/widgets/meter/lv_meter.c **** 
  35:Drivers/lvgl/lvgl/src/extra/widgets/meter/lv_meter.c **** /**********************
  36:Drivers/lvgl/lvgl/src/extra/widgets/meter/lv_meter.c ****  *  STATIC VARIABLES
  37:Drivers/lvgl/lvgl/src/extra/widgets/meter/lv_meter.c ****  **********************/
  38:Drivers/lvgl/lvgl/src/extra/widgets/meter/lv_meter.c **** const lv_obj_class_t lv_meter_class = {
  39:Drivers/lvgl/lvgl/src/extra/widgets/meter/lv_meter.c ****     .constructor_cb = lv_meter_constructor,
  40:Drivers/lvgl/lvgl/src/extra/widgets/meter/lv_meter.c ****     .destructor_cb = lv_meter_destructor,
  41:Drivers/lvgl/lvgl/src/extra/widgets/meter/lv_meter.c ****     .event_cb = lv_meter_event,
  42:Drivers/lvgl/lvgl/src/extra/widgets/meter/lv_meter.c ****     .instance_size = sizeof(lv_meter_t),
  43:Drivers/lvgl/lvgl/src/extra/widgets/meter/lv_meter.c ****     .base_class = &lv_obj_class
  44:Drivers/lvgl/lvgl/src/extra/widgets/meter/lv_meter.c **** };
  45:Drivers/lvgl/lvgl/src/extra/widgets/meter/lv_meter.c **** 
  46:Drivers/lvgl/lvgl/src/extra/widgets/meter/lv_meter.c **** /**********************
  47:Drivers/lvgl/lvgl/src/extra/widgets/meter/lv_meter.c ****  *      MACROS
  48:Drivers/lvgl/lvgl/src/extra/widgets/meter/lv_meter.c ****  **********************/
  49:Drivers/lvgl/lvgl/src/extra/widgets/meter/lv_meter.c **** 
  50:Drivers/lvgl/lvgl/src/extra/widgets/meter/lv_meter.c **** /**********************
  51:Drivers/lvgl/lvgl/src/extra/widgets/meter/lv_meter.c ****  *   GLOBAL FUNCTIONS
  52:Drivers/lvgl/lvgl/src/extra/widgets/meter/lv_meter.c ****  **********************/
  53:Drivers/lvgl/lvgl/src/extra/widgets/meter/lv_meter.c **** 
  54:Drivers/lvgl/lvgl/src/extra/widgets/meter/lv_meter.c **** lv_obj_t * lv_meter_create(lv_obj_t * parent)
  55:Drivers/lvgl/lvgl/src/extra/widgets/meter/lv_meter.c **** {
  56:Drivers/lvgl/lvgl/src/extra/widgets/meter/lv_meter.c ****     LV_LOG_INFO("begin");
  57:Drivers/lvgl/lvgl/src/extra/widgets/meter/lv_meter.c ****     lv_obj_t * obj = lv_obj_class_create_obj(MY_CLASS, parent);
  58:Drivers/lvgl/lvgl/src/extra/widgets/meter/lv_meter.c ****     lv_obj_class_init_obj(obj);
  59:Drivers/lvgl/lvgl/src/extra/widgets/meter/lv_meter.c ****     return obj;
  60:Drivers/lvgl/lvgl/src/extra/widgets/meter/lv_meter.c **** }
  61:Drivers/lvgl/lvgl/src/extra/widgets/meter/lv_meter.c **** 
  62:Drivers/lvgl/lvgl/src/extra/widgets/meter/lv_meter.c **** /*=====================
  63:Drivers/lvgl/lvgl/src/extra/widgets/meter/lv_meter.c ****  * Add scale
  64:Drivers/lvgl/lvgl/src/extra/widgets/meter/lv_meter.c ****  *====================*/
  65:Drivers/lvgl/lvgl/src/extra/widgets/meter/lv_meter.c **** 
  66:Drivers/lvgl/lvgl/src/extra/widgets/meter/lv_meter.c **** lv_meter_scale_t * lv_meter_add_scale(lv_obj_t * obj)
  67:Drivers/lvgl/lvgl/src/extra/widgets/meter/lv_meter.c **** {
  68:Drivers/lvgl/lvgl/src/extra/widgets/meter/lv_meter.c ****     LV_ASSERT_OBJ(obj, MY_CLASS);
  69:Drivers/lvgl/lvgl/src/extra/widgets/meter/lv_meter.c ****     lv_meter_t * meter = (lv_meter_t *)obj;
  70:Drivers/lvgl/lvgl/src/extra/widgets/meter/lv_meter.c **** 
  71:Drivers/lvgl/lvgl/src/extra/widgets/meter/lv_meter.c ****     lv_meter_scale_t * scale = _lv_ll_ins_head(&meter->scale_ll);
  72:Drivers/lvgl/lvgl/src/extra/widgets/meter/lv_meter.c ****     LV_ASSERT_MALLOC(scale);
  73:Drivers/lvgl/lvgl/src/extra/widgets/meter/lv_meter.c ****     lv_memset_00(scale, sizeof(lv_meter_scale_t));
  74:Drivers/lvgl/lvgl/src/extra/widgets/meter/lv_meter.c **** 
  75:Drivers/lvgl/lvgl/src/extra/widgets/meter/lv_meter.c ****     scale->angle_range = 270;
  76:Drivers/lvgl/lvgl/src/extra/widgets/meter/lv_meter.c ****     scale->rotation = 90 + (360 - scale->angle_range) / 2;
  77:Drivers/lvgl/lvgl/src/extra/widgets/meter/lv_meter.c ****     scale->min = 0;
  78:Drivers/lvgl/lvgl/src/extra/widgets/meter/lv_meter.c ****     scale->max = 100;
  79:Drivers/lvgl/lvgl/src/extra/widgets/meter/lv_meter.c ****     scale->tick_cnt = 6;
  80:Drivers/lvgl/lvgl/src/extra/widgets/meter/lv_meter.c ****     scale->tick_length = 8;
  81:Drivers/lvgl/lvgl/src/extra/widgets/meter/lv_meter.c ****     scale->tick_width = 2;
  82:Drivers/lvgl/lvgl/src/extra/widgets/meter/lv_meter.c ****     scale->label_gap = 2;
  83:Drivers/lvgl/lvgl/src/extra/widgets/meter/lv_meter.c **** 
  84:Drivers/lvgl/lvgl/src/extra/widgets/meter/lv_meter.c ****     return scale;
  85:Drivers/lvgl/lvgl/src/extra/widgets/meter/lv_meter.c **** }
  86:Drivers/lvgl/lvgl/src/extra/widgets/meter/lv_meter.c **** 
  87:Drivers/lvgl/lvgl/src/extra/widgets/meter/lv_meter.c **** void lv_meter_set_scale_ticks(lv_obj_t * obj, lv_meter_scale_t * scale, uint16_t cnt, uint16_t widt
  88:Drivers/lvgl/lvgl/src/extra/widgets/meter/lv_meter.c ****                               lv_color_t color)
  89:Drivers/lvgl/lvgl/src/extra/widgets/meter/lv_meter.c **** {
  90:Drivers/lvgl/lvgl/src/extra/widgets/meter/lv_meter.c ****     scale->tick_cnt = cnt;
ARM GAS  /tmp/ccVvrzYL.s 			page 3


  91:Drivers/lvgl/lvgl/src/extra/widgets/meter/lv_meter.c ****     scale->tick_width = width;
  92:Drivers/lvgl/lvgl/src/extra/widgets/meter/lv_meter.c ****     scale->tick_length = len;
  93:Drivers/lvgl/lvgl/src/extra/widgets/meter/lv_meter.c ****     scale->tick_color = color;
  94:Drivers/lvgl/lvgl/src/extra/widgets/meter/lv_meter.c ****     lv_obj_invalidate(obj);
  95:Drivers/lvgl/lvgl/src/extra/widgets/meter/lv_meter.c **** }
  96:Drivers/lvgl/lvgl/src/extra/widgets/meter/lv_meter.c **** 
  97:Drivers/lvgl/lvgl/src/extra/widgets/meter/lv_meter.c **** void lv_meter_set_scale_major_ticks(lv_obj_t * obj, lv_meter_scale_t * scale, uint16_t nth, uint16_
  98:Drivers/lvgl/lvgl/src/extra/widgets/meter/lv_meter.c ****                                     uint16_t len, lv_color_t color, int16_t label_gap)
  99:Drivers/lvgl/lvgl/src/extra/widgets/meter/lv_meter.c **** {
 100:Drivers/lvgl/lvgl/src/extra/widgets/meter/lv_meter.c ****     scale->tick_major_nth = nth;
 101:Drivers/lvgl/lvgl/src/extra/widgets/meter/lv_meter.c ****     scale->tick_major_width = width;
 102:Drivers/lvgl/lvgl/src/extra/widgets/meter/lv_meter.c ****     scale->tick_major_length = len;
 103:Drivers/lvgl/lvgl/src/extra/widgets/meter/lv_meter.c ****     scale->tick_major_color = color;
 104:Drivers/lvgl/lvgl/src/extra/widgets/meter/lv_meter.c ****     scale->label_gap = label_gap;
 105:Drivers/lvgl/lvgl/src/extra/widgets/meter/lv_meter.c ****     lv_obj_invalidate(obj);
 106:Drivers/lvgl/lvgl/src/extra/widgets/meter/lv_meter.c **** }
 107:Drivers/lvgl/lvgl/src/extra/widgets/meter/lv_meter.c **** 
 108:Drivers/lvgl/lvgl/src/extra/widgets/meter/lv_meter.c **** void lv_meter_set_scale_range(lv_obj_t * obj, lv_meter_scale_t * scale, int32_t min, int32_t max, u
 109:Drivers/lvgl/lvgl/src/extra/widgets/meter/lv_meter.c ****                               uint32_t rotation)
 110:Drivers/lvgl/lvgl/src/extra/widgets/meter/lv_meter.c **** {
 111:Drivers/lvgl/lvgl/src/extra/widgets/meter/lv_meter.c ****     scale->min = min;
 112:Drivers/lvgl/lvgl/src/extra/widgets/meter/lv_meter.c ****     scale->max = max;
 113:Drivers/lvgl/lvgl/src/extra/widgets/meter/lv_meter.c ****     scale->angle_range = angle_range;
 114:Drivers/lvgl/lvgl/src/extra/widgets/meter/lv_meter.c ****     scale->rotation = rotation;
 115:Drivers/lvgl/lvgl/src/extra/widgets/meter/lv_meter.c ****     lv_obj_invalidate(obj);
 116:Drivers/lvgl/lvgl/src/extra/widgets/meter/lv_meter.c **** }
 117:Drivers/lvgl/lvgl/src/extra/widgets/meter/lv_meter.c **** 
 118:Drivers/lvgl/lvgl/src/extra/widgets/meter/lv_meter.c **** /*=====================
 119:Drivers/lvgl/lvgl/src/extra/widgets/meter/lv_meter.c ****  * Add indicator
 120:Drivers/lvgl/lvgl/src/extra/widgets/meter/lv_meter.c ****  *====================*/
 121:Drivers/lvgl/lvgl/src/extra/widgets/meter/lv_meter.c **** 
 122:Drivers/lvgl/lvgl/src/extra/widgets/meter/lv_meter.c **** lv_meter_indicator_t * lv_meter_add_needle_line(lv_obj_t * obj, lv_meter_scale_t * scale, uint16_t 
 123:Drivers/lvgl/lvgl/src/extra/widgets/meter/lv_meter.c ****                                                 lv_color_t color, int16_t r_mod)
 124:Drivers/lvgl/lvgl/src/extra/widgets/meter/lv_meter.c **** {
 125:Drivers/lvgl/lvgl/src/extra/widgets/meter/lv_meter.c ****     LV_ASSERT_OBJ(obj, MY_CLASS);
 126:Drivers/lvgl/lvgl/src/extra/widgets/meter/lv_meter.c ****     lv_meter_t * meter = (lv_meter_t *)obj;
 127:Drivers/lvgl/lvgl/src/extra/widgets/meter/lv_meter.c ****     lv_meter_indicator_t * indic = _lv_ll_ins_head(&meter->indicator_ll);
 128:Drivers/lvgl/lvgl/src/extra/widgets/meter/lv_meter.c ****     LV_ASSERT_MALLOC(indic);
 129:Drivers/lvgl/lvgl/src/extra/widgets/meter/lv_meter.c ****     lv_memset_00(indic, sizeof(lv_meter_indicator_t));
 130:Drivers/lvgl/lvgl/src/extra/widgets/meter/lv_meter.c ****     indic->scale = scale;
 131:Drivers/lvgl/lvgl/src/extra/widgets/meter/lv_meter.c ****     indic->opa = LV_OPA_COVER;
 132:Drivers/lvgl/lvgl/src/extra/widgets/meter/lv_meter.c **** 
 133:Drivers/lvgl/lvgl/src/extra/widgets/meter/lv_meter.c ****     indic->type = LV_METER_INDICATOR_TYPE_NEEDLE_LINE;
 134:Drivers/lvgl/lvgl/src/extra/widgets/meter/lv_meter.c ****     indic->type_data.needle_line.width = width;
 135:Drivers/lvgl/lvgl/src/extra/widgets/meter/lv_meter.c ****     indic->type_data.needle_line.color = color;
 136:Drivers/lvgl/lvgl/src/extra/widgets/meter/lv_meter.c ****     indic->type_data.needle_line.r_mod = r_mod;
 137:Drivers/lvgl/lvgl/src/extra/widgets/meter/lv_meter.c ****     lv_obj_invalidate(obj);
 138:Drivers/lvgl/lvgl/src/extra/widgets/meter/lv_meter.c **** 
 139:Drivers/lvgl/lvgl/src/extra/widgets/meter/lv_meter.c ****     return indic;
 140:Drivers/lvgl/lvgl/src/extra/widgets/meter/lv_meter.c **** }
 141:Drivers/lvgl/lvgl/src/extra/widgets/meter/lv_meter.c **** 
 142:Drivers/lvgl/lvgl/src/extra/widgets/meter/lv_meter.c **** lv_meter_indicator_t * lv_meter_add_needle_img(lv_obj_t * obj, lv_meter_scale_t * scale, const void
 143:Drivers/lvgl/lvgl/src/extra/widgets/meter/lv_meter.c ****                                                lv_coord_t pivot_x, lv_coord_t pivot_y)
 144:Drivers/lvgl/lvgl/src/extra/widgets/meter/lv_meter.c **** {
 145:Drivers/lvgl/lvgl/src/extra/widgets/meter/lv_meter.c ****     LV_ASSERT_OBJ(obj, MY_CLASS);
 146:Drivers/lvgl/lvgl/src/extra/widgets/meter/lv_meter.c ****     lv_meter_t * meter = (lv_meter_t *)obj;
 147:Drivers/lvgl/lvgl/src/extra/widgets/meter/lv_meter.c ****     lv_meter_indicator_t * indic = _lv_ll_ins_head(&meter->indicator_ll);
ARM GAS  /tmp/ccVvrzYL.s 			page 4


 148:Drivers/lvgl/lvgl/src/extra/widgets/meter/lv_meter.c ****     LV_ASSERT_MALLOC(indic);
 149:Drivers/lvgl/lvgl/src/extra/widgets/meter/lv_meter.c ****     lv_memset_00(indic, sizeof(lv_meter_indicator_t));
 150:Drivers/lvgl/lvgl/src/extra/widgets/meter/lv_meter.c ****     indic->scale = scale;
 151:Drivers/lvgl/lvgl/src/extra/widgets/meter/lv_meter.c ****     indic->opa = LV_OPA_COVER;
 152:Drivers/lvgl/lvgl/src/extra/widgets/meter/lv_meter.c **** 
 153:Drivers/lvgl/lvgl/src/extra/widgets/meter/lv_meter.c ****     indic->type = LV_METER_INDICATOR_TYPE_NEEDLE_IMG;
 154:Drivers/lvgl/lvgl/src/extra/widgets/meter/lv_meter.c ****     indic->type_data.needle_img.src = src;
 155:Drivers/lvgl/lvgl/src/extra/widgets/meter/lv_meter.c ****     indic->type_data.needle_img.pivot.x = pivot_x;
 156:Drivers/lvgl/lvgl/src/extra/widgets/meter/lv_meter.c ****     indic->type_data.needle_img.pivot.y = pivot_y;
 157:Drivers/lvgl/lvgl/src/extra/widgets/meter/lv_meter.c ****     lv_obj_invalidate(obj);
 158:Drivers/lvgl/lvgl/src/extra/widgets/meter/lv_meter.c **** 
 159:Drivers/lvgl/lvgl/src/extra/widgets/meter/lv_meter.c ****     return indic;
 160:Drivers/lvgl/lvgl/src/extra/widgets/meter/lv_meter.c **** }
 161:Drivers/lvgl/lvgl/src/extra/widgets/meter/lv_meter.c **** 
 162:Drivers/lvgl/lvgl/src/extra/widgets/meter/lv_meter.c **** lv_meter_indicator_t * lv_meter_add_arc(lv_obj_t * obj, lv_meter_scale_t * scale, uint16_t width, l
 163:Drivers/lvgl/lvgl/src/extra/widgets/meter/lv_meter.c ****                                         int16_t r_mod)
 164:Drivers/lvgl/lvgl/src/extra/widgets/meter/lv_meter.c **** {
 165:Drivers/lvgl/lvgl/src/extra/widgets/meter/lv_meter.c ****     LV_ASSERT_OBJ(obj, MY_CLASS);
 166:Drivers/lvgl/lvgl/src/extra/widgets/meter/lv_meter.c ****     lv_meter_t * meter = (lv_meter_t *)obj;
 167:Drivers/lvgl/lvgl/src/extra/widgets/meter/lv_meter.c ****     lv_meter_indicator_t * indic = _lv_ll_ins_head(&meter->indicator_ll);
 168:Drivers/lvgl/lvgl/src/extra/widgets/meter/lv_meter.c ****     LV_ASSERT_MALLOC(indic);
 169:Drivers/lvgl/lvgl/src/extra/widgets/meter/lv_meter.c ****     lv_memset_00(indic, sizeof(lv_meter_indicator_t));
 170:Drivers/lvgl/lvgl/src/extra/widgets/meter/lv_meter.c ****     indic->scale = scale;
 171:Drivers/lvgl/lvgl/src/extra/widgets/meter/lv_meter.c ****     indic->opa = LV_OPA_COVER;
 172:Drivers/lvgl/lvgl/src/extra/widgets/meter/lv_meter.c **** 
 173:Drivers/lvgl/lvgl/src/extra/widgets/meter/lv_meter.c ****     indic->type = LV_METER_INDICATOR_TYPE_ARC;
 174:Drivers/lvgl/lvgl/src/extra/widgets/meter/lv_meter.c ****     indic->type_data.arc.width = width;
 175:Drivers/lvgl/lvgl/src/extra/widgets/meter/lv_meter.c ****     indic->type_data.arc.color = color;
 176:Drivers/lvgl/lvgl/src/extra/widgets/meter/lv_meter.c ****     indic->type_data.arc.r_mod = r_mod;
 177:Drivers/lvgl/lvgl/src/extra/widgets/meter/lv_meter.c **** 
 178:Drivers/lvgl/lvgl/src/extra/widgets/meter/lv_meter.c ****     lv_obj_invalidate(obj);
 179:Drivers/lvgl/lvgl/src/extra/widgets/meter/lv_meter.c ****     return indic;
 180:Drivers/lvgl/lvgl/src/extra/widgets/meter/lv_meter.c **** }
 181:Drivers/lvgl/lvgl/src/extra/widgets/meter/lv_meter.c **** 
 182:Drivers/lvgl/lvgl/src/extra/widgets/meter/lv_meter.c **** lv_meter_indicator_t * lv_meter_add_scale_lines(lv_obj_t * obj, lv_meter_scale_t * scale, lv_color_
 183:Drivers/lvgl/lvgl/src/extra/widgets/meter/lv_meter.c ****                                                 lv_color_t color_end, bool local, int16_t width_mod
 184:Drivers/lvgl/lvgl/src/extra/widgets/meter/lv_meter.c **** {
 185:Drivers/lvgl/lvgl/src/extra/widgets/meter/lv_meter.c ****     LV_ASSERT_OBJ(obj, MY_CLASS);
 186:Drivers/lvgl/lvgl/src/extra/widgets/meter/lv_meter.c ****     lv_meter_t * meter = (lv_meter_t *)obj;
 187:Drivers/lvgl/lvgl/src/extra/widgets/meter/lv_meter.c ****     lv_meter_indicator_t * indic = _lv_ll_ins_head(&meter->indicator_ll);
 188:Drivers/lvgl/lvgl/src/extra/widgets/meter/lv_meter.c ****     LV_ASSERT_MALLOC(indic);
 189:Drivers/lvgl/lvgl/src/extra/widgets/meter/lv_meter.c ****     lv_memset_00(indic, sizeof(lv_meter_indicator_t));
 190:Drivers/lvgl/lvgl/src/extra/widgets/meter/lv_meter.c ****     indic->scale = scale;
 191:Drivers/lvgl/lvgl/src/extra/widgets/meter/lv_meter.c ****     indic->opa = LV_OPA_COVER;
 192:Drivers/lvgl/lvgl/src/extra/widgets/meter/lv_meter.c **** 
 193:Drivers/lvgl/lvgl/src/extra/widgets/meter/lv_meter.c ****     indic->type = LV_METER_INDICATOR_TYPE_SCALE_LINES;
 194:Drivers/lvgl/lvgl/src/extra/widgets/meter/lv_meter.c ****     indic->type_data.scale_lines.color_start = color_start;
 195:Drivers/lvgl/lvgl/src/extra/widgets/meter/lv_meter.c ****     indic->type_data.scale_lines.color_end = color_end;
 196:Drivers/lvgl/lvgl/src/extra/widgets/meter/lv_meter.c ****     indic->type_data.scale_lines.local_grad = local;
 197:Drivers/lvgl/lvgl/src/extra/widgets/meter/lv_meter.c ****     indic->type_data.scale_lines.width_mod = width_mod;
 198:Drivers/lvgl/lvgl/src/extra/widgets/meter/lv_meter.c **** 
 199:Drivers/lvgl/lvgl/src/extra/widgets/meter/lv_meter.c ****     lv_obj_invalidate(obj);
 200:Drivers/lvgl/lvgl/src/extra/widgets/meter/lv_meter.c ****     return indic;
 201:Drivers/lvgl/lvgl/src/extra/widgets/meter/lv_meter.c **** }
 202:Drivers/lvgl/lvgl/src/extra/widgets/meter/lv_meter.c **** 
 203:Drivers/lvgl/lvgl/src/extra/widgets/meter/lv_meter.c **** /*=====================
 204:Drivers/lvgl/lvgl/src/extra/widgets/meter/lv_meter.c ****  * Set indicator value
ARM GAS  /tmp/ccVvrzYL.s 			page 5


 205:Drivers/lvgl/lvgl/src/extra/widgets/meter/lv_meter.c ****  *====================*/
 206:Drivers/lvgl/lvgl/src/extra/widgets/meter/lv_meter.c **** 
 207:Drivers/lvgl/lvgl/src/extra/widgets/meter/lv_meter.c **** void lv_meter_set_indicator_value(lv_obj_t * obj, lv_meter_indicator_t * indic, int32_t value)
 208:Drivers/lvgl/lvgl/src/extra/widgets/meter/lv_meter.c **** {
 209:Drivers/lvgl/lvgl/src/extra/widgets/meter/lv_meter.c ****     int32_t old_start = indic->start_value;
 210:Drivers/lvgl/lvgl/src/extra/widgets/meter/lv_meter.c ****     int32_t old_end = indic->end_value;
 211:Drivers/lvgl/lvgl/src/extra/widgets/meter/lv_meter.c ****     indic->start_value = value;
 212:Drivers/lvgl/lvgl/src/extra/widgets/meter/lv_meter.c ****     indic->end_value = value;
 213:Drivers/lvgl/lvgl/src/extra/widgets/meter/lv_meter.c **** 
 214:Drivers/lvgl/lvgl/src/extra/widgets/meter/lv_meter.c ****     if(indic->type == LV_METER_INDICATOR_TYPE_ARC) {
 215:Drivers/lvgl/lvgl/src/extra/widgets/meter/lv_meter.c ****         inv_arc(obj, indic, old_start, value);
 216:Drivers/lvgl/lvgl/src/extra/widgets/meter/lv_meter.c ****         inv_arc(obj, indic, old_end, value);
 217:Drivers/lvgl/lvgl/src/extra/widgets/meter/lv_meter.c ****     }
 218:Drivers/lvgl/lvgl/src/extra/widgets/meter/lv_meter.c ****     else if(indic->type == LV_METER_INDICATOR_TYPE_NEEDLE_IMG || indic->type == LV_METER_INDICATOR_
 219:Drivers/lvgl/lvgl/src/extra/widgets/meter/lv_meter.c ****         inv_line(obj, indic, old_start);
 220:Drivers/lvgl/lvgl/src/extra/widgets/meter/lv_meter.c ****         inv_line(obj, indic, old_end);
 221:Drivers/lvgl/lvgl/src/extra/widgets/meter/lv_meter.c ****         inv_line(obj, indic, value);
 222:Drivers/lvgl/lvgl/src/extra/widgets/meter/lv_meter.c ****     }
 223:Drivers/lvgl/lvgl/src/extra/widgets/meter/lv_meter.c ****     else {
 224:Drivers/lvgl/lvgl/src/extra/widgets/meter/lv_meter.c ****         lv_obj_invalidate(obj);
 225:Drivers/lvgl/lvgl/src/extra/widgets/meter/lv_meter.c ****     }
 226:Drivers/lvgl/lvgl/src/extra/widgets/meter/lv_meter.c **** }
 227:Drivers/lvgl/lvgl/src/extra/widgets/meter/lv_meter.c **** 
 228:Drivers/lvgl/lvgl/src/extra/widgets/meter/lv_meter.c **** void lv_meter_set_indicator_start_value(lv_obj_t * obj, lv_meter_indicator_t * indic, int32_t value
 229:Drivers/lvgl/lvgl/src/extra/widgets/meter/lv_meter.c **** {
 230:Drivers/lvgl/lvgl/src/extra/widgets/meter/lv_meter.c ****     int32_t old_value = indic->start_value;
 231:Drivers/lvgl/lvgl/src/extra/widgets/meter/lv_meter.c ****     indic->start_value = value;
 232:Drivers/lvgl/lvgl/src/extra/widgets/meter/lv_meter.c **** 
 233:Drivers/lvgl/lvgl/src/extra/widgets/meter/lv_meter.c ****     if(indic->type == LV_METER_INDICATOR_TYPE_ARC) {
 234:Drivers/lvgl/lvgl/src/extra/widgets/meter/lv_meter.c ****         inv_arc(obj, indic, old_value, value);
 235:Drivers/lvgl/lvgl/src/extra/widgets/meter/lv_meter.c ****     }
 236:Drivers/lvgl/lvgl/src/extra/widgets/meter/lv_meter.c ****     else if(indic->type == LV_METER_INDICATOR_TYPE_NEEDLE_IMG || indic->type == LV_METER_INDICATOR_
 237:Drivers/lvgl/lvgl/src/extra/widgets/meter/lv_meter.c ****         inv_line(obj, indic, old_value);
 238:Drivers/lvgl/lvgl/src/extra/widgets/meter/lv_meter.c ****         inv_line(obj, indic, value);
 239:Drivers/lvgl/lvgl/src/extra/widgets/meter/lv_meter.c ****     }
 240:Drivers/lvgl/lvgl/src/extra/widgets/meter/lv_meter.c ****     else {
 241:Drivers/lvgl/lvgl/src/extra/widgets/meter/lv_meter.c ****         lv_obj_invalidate(obj);
 242:Drivers/lvgl/lvgl/src/extra/widgets/meter/lv_meter.c ****     }
 243:Drivers/lvgl/lvgl/src/extra/widgets/meter/lv_meter.c **** }
 244:Drivers/lvgl/lvgl/src/extra/widgets/meter/lv_meter.c **** 
 245:Drivers/lvgl/lvgl/src/extra/widgets/meter/lv_meter.c **** void lv_meter_set_indicator_end_value(lv_obj_t * obj, lv_meter_indicator_t * indic, int32_t value)
 246:Drivers/lvgl/lvgl/src/extra/widgets/meter/lv_meter.c **** {
 247:Drivers/lvgl/lvgl/src/extra/widgets/meter/lv_meter.c ****     int32_t old_value = indic->end_value;
 248:Drivers/lvgl/lvgl/src/extra/widgets/meter/lv_meter.c ****     indic->end_value = value;
 249:Drivers/lvgl/lvgl/src/extra/widgets/meter/lv_meter.c **** 
 250:Drivers/lvgl/lvgl/src/extra/widgets/meter/lv_meter.c ****     if(indic->type == LV_METER_INDICATOR_TYPE_ARC) {
 251:Drivers/lvgl/lvgl/src/extra/widgets/meter/lv_meter.c ****         inv_arc(obj, indic, old_value, value);
 252:Drivers/lvgl/lvgl/src/extra/widgets/meter/lv_meter.c ****     }
 253:Drivers/lvgl/lvgl/src/extra/widgets/meter/lv_meter.c ****     else if(indic->type == LV_METER_INDICATOR_TYPE_NEEDLE_IMG || indic->type == LV_METER_INDICATOR_
 254:Drivers/lvgl/lvgl/src/extra/widgets/meter/lv_meter.c ****         inv_line(obj, indic, old_value);
 255:Drivers/lvgl/lvgl/src/extra/widgets/meter/lv_meter.c ****         inv_line(obj, indic, value);
 256:Drivers/lvgl/lvgl/src/extra/widgets/meter/lv_meter.c ****     }
 257:Drivers/lvgl/lvgl/src/extra/widgets/meter/lv_meter.c ****     else {
 258:Drivers/lvgl/lvgl/src/extra/widgets/meter/lv_meter.c ****         lv_obj_invalidate(obj);
 259:Drivers/lvgl/lvgl/src/extra/widgets/meter/lv_meter.c ****     }
 260:Drivers/lvgl/lvgl/src/extra/widgets/meter/lv_meter.c **** }
 261:Drivers/lvgl/lvgl/src/extra/widgets/meter/lv_meter.c **** 
ARM GAS  /tmp/ccVvrzYL.s 			page 6


 262:Drivers/lvgl/lvgl/src/extra/widgets/meter/lv_meter.c **** /**********************
 263:Drivers/lvgl/lvgl/src/extra/widgets/meter/lv_meter.c ****  *   STATIC FUNCTIONS
 264:Drivers/lvgl/lvgl/src/extra/widgets/meter/lv_meter.c ****  **********************/
 265:Drivers/lvgl/lvgl/src/extra/widgets/meter/lv_meter.c **** 
 266:Drivers/lvgl/lvgl/src/extra/widgets/meter/lv_meter.c **** static void lv_meter_constructor(const lv_obj_class_t * class_p, lv_obj_t * obj)
 267:Drivers/lvgl/lvgl/src/extra/widgets/meter/lv_meter.c **** {
 268:Drivers/lvgl/lvgl/src/extra/widgets/meter/lv_meter.c ****     LV_UNUSED(class_p);
 269:Drivers/lvgl/lvgl/src/extra/widgets/meter/lv_meter.c ****     LV_TRACE_OBJ_CREATE("begin");
 270:Drivers/lvgl/lvgl/src/extra/widgets/meter/lv_meter.c **** 
 271:Drivers/lvgl/lvgl/src/extra/widgets/meter/lv_meter.c ****     lv_meter_t * meter = (lv_meter_t *)obj;
 272:Drivers/lvgl/lvgl/src/extra/widgets/meter/lv_meter.c **** 
 273:Drivers/lvgl/lvgl/src/extra/widgets/meter/lv_meter.c ****     _lv_ll_init(&meter->scale_ll, sizeof(lv_meter_scale_t));
 274:Drivers/lvgl/lvgl/src/extra/widgets/meter/lv_meter.c ****     _lv_ll_init(&meter->indicator_ll, sizeof(lv_meter_indicator_t));
 275:Drivers/lvgl/lvgl/src/extra/widgets/meter/lv_meter.c **** 
 276:Drivers/lvgl/lvgl/src/extra/widgets/meter/lv_meter.c ****     LV_TRACE_OBJ_CREATE("finished");
 277:Drivers/lvgl/lvgl/src/extra/widgets/meter/lv_meter.c **** }
 278:Drivers/lvgl/lvgl/src/extra/widgets/meter/lv_meter.c **** 
 279:Drivers/lvgl/lvgl/src/extra/widgets/meter/lv_meter.c **** static void lv_meter_destructor(const lv_obj_class_t * class_p, lv_obj_t * obj)
 280:Drivers/lvgl/lvgl/src/extra/widgets/meter/lv_meter.c **** {
 281:Drivers/lvgl/lvgl/src/extra/widgets/meter/lv_meter.c ****     LV_UNUSED(class_p);
 282:Drivers/lvgl/lvgl/src/extra/widgets/meter/lv_meter.c ****     LV_ASSERT_OBJ(obj, MY_CLASS);
 283:Drivers/lvgl/lvgl/src/extra/widgets/meter/lv_meter.c ****     lv_meter_t * meter = (lv_meter_t *)obj;
 284:Drivers/lvgl/lvgl/src/extra/widgets/meter/lv_meter.c ****     _lv_ll_clear(&meter->indicator_ll);
 285:Drivers/lvgl/lvgl/src/extra/widgets/meter/lv_meter.c ****     _lv_ll_clear(&meter->scale_ll);
 286:Drivers/lvgl/lvgl/src/extra/widgets/meter/lv_meter.c **** 
 287:Drivers/lvgl/lvgl/src/extra/widgets/meter/lv_meter.c **** }
 288:Drivers/lvgl/lvgl/src/extra/widgets/meter/lv_meter.c **** 
 289:Drivers/lvgl/lvgl/src/extra/widgets/meter/lv_meter.c **** static void lv_meter_event(const lv_obj_class_t * class_p, lv_event_t * e)
 290:Drivers/lvgl/lvgl/src/extra/widgets/meter/lv_meter.c **** {
 291:Drivers/lvgl/lvgl/src/extra/widgets/meter/lv_meter.c ****     LV_UNUSED(class_p);
 292:Drivers/lvgl/lvgl/src/extra/widgets/meter/lv_meter.c **** 
 293:Drivers/lvgl/lvgl/src/extra/widgets/meter/lv_meter.c ****     lv_res_t res = lv_obj_event_base(MY_CLASS, e);
 294:Drivers/lvgl/lvgl/src/extra/widgets/meter/lv_meter.c ****     if(res != LV_RES_OK) return;
 295:Drivers/lvgl/lvgl/src/extra/widgets/meter/lv_meter.c **** 
 296:Drivers/lvgl/lvgl/src/extra/widgets/meter/lv_meter.c ****     lv_event_code_t code = lv_event_get_code(e);
 297:Drivers/lvgl/lvgl/src/extra/widgets/meter/lv_meter.c ****     lv_obj_t * obj = lv_event_get_target(e);
 298:Drivers/lvgl/lvgl/src/extra/widgets/meter/lv_meter.c ****     if(code == LV_EVENT_DRAW_MAIN) {
 299:Drivers/lvgl/lvgl/src/extra/widgets/meter/lv_meter.c ****         lv_draw_ctx_t * draw_ctx = lv_event_get_draw_ctx(e);
 300:Drivers/lvgl/lvgl/src/extra/widgets/meter/lv_meter.c ****         lv_area_t scale_area;
 301:Drivers/lvgl/lvgl/src/extra/widgets/meter/lv_meter.c ****         lv_obj_get_content_coords(obj, &scale_area);
 302:Drivers/lvgl/lvgl/src/extra/widgets/meter/lv_meter.c **** 
 303:Drivers/lvgl/lvgl/src/extra/widgets/meter/lv_meter.c ****         draw_arcs(obj, draw_ctx, &scale_area);
 304:Drivers/lvgl/lvgl/src/extra/widgets/meter/lv_meter.c ****         draw_ticks_and_labels(obj, draw_ctx, &scale_area);
 305:Drivers/lvgl/lvgl/src/extra/widgets/meter/lv_meter.c ****         draw_needles(obj, draw_ctx, &scale_area);
 306:Drivers/lvgl/lvgl/src/extra/widgets/meter/lv_meter.c **** 
 307:Drivers/lvgl/lvgl/src/extra/widgets/meter/lv_meter.c ****         lv_coord_t r_edge = lv_area_get_width(&scale_area) / 2;
 308:Drivers/lvgl/lvgl/src/extra/widgets/meter/lv_meter.c ****         lv_point_t scale_center;
 309:Drivers/lvgl/lvgl/src/extra/widgets/meter/lv_meter.c ****         scale_center.x = scale_area.x1 + r_edge;
 310:Drivers/lvgl/lvgl/src/extra/widgets/meter/lv_meter.c ****         scale_center.y = scale_area.y1 + r_edge;
 311:Drivers/lvgl/lvgl/src/extra/widgets/meter/lv_meter.c **** 
 312:Drivers/lvgl/lvgl/src/extra/widgets/meter/lv_meter.c ****         lv_draw_rect_dsc_t mid_dsc;
 313:Drivers/lvgl/lvgl/src/extra/widgets/meter/lv_meter.c ****         lv_draw_rect_dsc_init(&mid_dsc);
 314:Drivers/lvgl/lvgl/src/extra/widgets/meter/lv_meter.c ****         lv_obj_init_draw_rect_dsc(obj, LV_PART_INDICATOR, &mid_dsc);
 315:Drivers/lvgl/lvgl/src/extra/widgets/meter/lv_meter.c ****         lv_coord_t w = lv_obj_get_style_width(obj, LV_PART_INDICATOR) / 2;
 316:Drivers/lvgl/lvgl/src/extra/widgets/meter/lv_meter.c ****         lv_coord_t h = lv_obj_get_style_height(obj, LV_PART_INDICATOR) / 2;
 317:Drivers/lvgl/lvgl/src/extra/widgets/meter/lv_meter.c ****         lv_area_t nm_cord;
 318:Drivers/lvgl/lvgl/src/extra/widgets/meter/lv_meter.c ****         nm_cord.x1 = scale_center.x - w;
ARM GAS  /tmp/ccVvrzYL.s 			page 7


 319:Drivers/lvgl/lvgl/src/extra/widgets/meter/lv_meter.c ****         nm_cord.y1 = scale_center.y - h;
 320:Drivers/lvgl/lvgl/src/extra/widgets/meter/lv_meter.c ****         nm_cord.x2 = scale_center.x + w;
 321:Drivers/lvgl/lvgl/src/extra/widgets/meter/lv_meter.c ****         nm_cord.y2 = scale_center.y + h;
 322:Drivers/lvgl/lvgl/src/extra/widgets/meter/lv_meter.c ****         lv_draw_rect(draw_ctx, &mid_dsc, &nm_cord);
 323:Drivers/lvgl/lvgl/src/extra/widgets/meter/lv_meter.c ****     }
 324:Drivers/lvgl/lvgl/src/extra/widgets/meter/lv_meter.c **** }
 325:Drivers/lvgl/lvgl/src/extra/widgets/meter/lv_meter.c **** 
 326:Drivers/lvgl/lvgl/src/extra/widgets/meter/lv_meter.c **** static void draw_arcs(lv_obj_t * obj, lv_draw_ctx_t * draw_ctx, const lv_area_t * scale_area)
 327:Drivers/lvgl/lvgl/src/extra/widgets/meter/lv_meter.c **** {
  26              		.loc 1 327 0
  27              		.cfi_startproc
  28              		@ args = 0, pretend = 0, frame = 104
  29              		@ frame_needed = 0, uses_anonymous_args = 0
  30              	.LVL0:
  31 0000 2DE9F04F 		push	{r4, r5, r6, r7, r8, r9, r10, fp, lr}
  32              	.LCFI0:
  33              		.cfi_def_cfa_offset 36
  34              		.cfi_offset 4, -36
  35              		.cfi_offset 5, -32
  36              		.cfi_offset 6, -28
  37              		.cfi_offset 7, -24
  38              		.cfi_offset 8, -20
  39              		.cfi_offset 9, -16
  40              		.cfi_offset 10, -12
  41              		.cfi_offset 11, -8
  42              		.cfi_offset 14, -4
  43 0004 9DB0     		sub	sp, sp, #116
  44              	.LCFI1:
  45              		.cfi_def_cfa_offset 152
  46 0006 8046     		mov	r8, r0
  47 0008 0291     		str	r1, [sp, #8]
  48 000a 1446     		mov	r4, r2
  49              	.LVL1:
 328:Drivers/lvgl/lvgl/src/extra/widgets/meter/lv_meter.c ****     lv_meter_t * meter = (lv_meter_t *)obj;
 329:Drivers/lvgl/lvgl/src/extra/widgets/meter/lv_meter.c **** 
 330:Drivers/lvgl/lvgl/src/extra/widgets/meter/lv_meter.c ****     lv_draw_arc_dsc_t arc_dsc;
 331:Drivers/lvgl/lvgl/src/extra/widgets/meter/lv_meter.c ****     lv_draw_arc_dsc_init(&arc_dsc);
  50              		.loc 1 331 0
  51 000c 18A8     		add	r0, sp, #96
  52              	.LVL2:
  53 000e FFF7FEFF 		bl	lv_draw_arc_dsc_init
  54              	.LVL3:
  55              	.LBB49:
  56              	.LBB50:
  57              		.file 2 "Drivers/lvgl/lvgl/src/extra/widgets/meter/../../../../src/core/lv_obj_style_gen.h"
   1:Drivers/lvgl/lvgl/src/extra/widgets/meter/../../../../src/core/lv_obj_style_gen.h **** static inline lv_coord_t lv_obj_get_style_width(const struct _lv_obj_t * obj, uint32_t part)
   2:Drivers/lvgl/lvgl/src/extra/widgets/meter/../../../../src/core/lv_obj_style_gen.h **** {
   3:Drivers/lvgl/lvgl/src/extra/widgets/meter/../../../../src/core/lv_obj_style_gen.h ****     lv_style_value_t v = lv_obj_get_style_prop(obj, part, LV_STYLE_WIDTH);
   4:Drivers/lvgl/lvgl/src/extra/widgets/meter/../../../../src/core/lv_obj_style_gen.h ****     return (lv_coord_t)v.num;
   5:Drivers/lvgl/lvgl/src/extra/widgets/meter/../../../../src/core/lv_obj_style_gen.h **** }
   6:Drivers/lvgl/lvgl/src/extra/widgets/meter/../../../../src/core/lv_obj_style_gen.h **** 
   7:Drivers/lvgl/lvgl/src/extra/widgets/meter/../../../../src/core/lv_obj_style_gen.h **** static inline lv_coord_t lv_obj_get_style_min_width(const struct _lv_obj_t * obj, uint32_t part)
   8:Drivers/lvgl/lvgl/src/extra/widgets/meter/../../../../src/core/lv_obj_style_gen.h **** {
   9:Drivers/lvgl/lvgl/src/extra/widgets/meter/../../../../src/core/lv_obj_style_gen.h ****     lv_style_value_t v = lv_obj_get_style_prop(obj, part, LV_STYLE_MIN_WIDTH);
  10:Drivers/lvgl/lvgl/src/extra/widgets/meter/../../../../src/core/lv_obj_style_gen.h ****     return (lv_coord_t)v.num;
  11:Drivers/lvgl/lvgl/src/extra/widgets/meter/../../../../src/core/lv_obj_style_gen.h **** }
  12:Drivers/lvgl/lvgl/src/extra/widgets/meter/../../../../src/core/lv_obj_style_gen.h **** 
ARM GAS  /tmp/ccVvrzYL.s 			page 8


  13:Drivers/lvgl/lvgl/src/extra/widgets/meter/../../../../src/core/lv_obj_style_gen.h **** static inline lv_coord_t lv_obj_get_style_max_width(const struct _lv_obj_t * obj, uint32_t part)
  14:Drivers/lvgl/lvgl/src/extra/widgets/meter/../../../../src/core/lv_obj_style_gen.h **** {
  15:Drivers/lvgl/lvgl/src/extra/widgets/meter/../../../../src/core/lv_obj_style_gen.h ****     lv_style_value_t v = lv_obj_get_style_prop(obj, part, LV_STYLE_MAX_WIDTH);
  16:Drivers/lvgl/lvgl/src/extra/widgets/meter/../../../../src/core/lv_obj_style_gen.h ****     return (lv_coord_t)v.num;
  17:Drivers/lvgl/lvgl/src/extra/widgets/meter/../../../../src/core/lv_obj_style_gen.h **** }
  18:Drivers/lvgl/lvgl/src/extra/widgets/meter/../../../../src/core/lv_obj_style_gen.h **** 
  19:Drivers/lvgl/lvgl/src/extra/widgets/meter/../../../../src/core/lv_obj_style_gen.h **** static inline lv_coord_t lv_obj_get_style_height(const struct _lv_obj_t * obj, uint32_t part)
  20:Drivers/lvgl/lvgl/src/extra/widgets/meter/../../../../src/core/lv_obj_style_gen.h **** {
  21:Drivers/lvgl/lvgl/src/extra/widgets/meter/../../../../src/core/lv_obj_style_gen.h ****     lv_style_value_t v = lv_obj_get_style_prop(obj, part, LV_STYLE_HEIGHT);
  22:Drivers/lvgl/lvgl/src/extra/widgets/meter/../../../../src/core/lv_obj_style_gen.h ****     return (lv_coord_t)v.num;
  23:Drivers/lvgl/lvgl/src/extra/widgets/meter/../../../../src/core/lv_obj_style_gen.h **** }
  24:Drivers/lvgl/lvgl/src/extra/widgets/meter/../../../../src/core/lv_obj_style_gen.h **** 
  25:Drivers/lvgl/lvgl/src/extra/widgets/meter/../../../../src/core/lv_obj_style_gen.h **** static inline lv_coord_t lv_obj_get_style_min_height(const struct _lv_obj_t * obj, uint32_t part)
  26:Drivers/lvgl/lvgl/src/extra/widgets/meter/../../../../src/core/lv_obj_style_gen.h **** {
  27:Drivers/lvgl/lvgl/src/extra/widgets/meter/../../../../src/core/lv_obj_style_gen.h ****     lv_style_value_t v = lv_obj_get_style_prop(obj, part, LV_STYLE_MIN_HEIGHT);
  28:Drivers/lvgl/lvgl/src/extra/widgets/meter/../../../../src/core/lv_obj_style_gen.h ****     return (lv_coord_t)v.num;
  29:Drivers/lvgl/lvgl/src/extra/widgets/meter/../../../../src/core/lv_obj_style_gen.h **** }
  30:Drivers/lvgl/lvgl/src/extra/widgets/meter/../../../../src/core/lv_obj_style_gen.h **** 
  31:Drivers/lvgl/lvgl/src/extra/widgets/meter/../../../../src/core/lv_obj_style_gen.h **** static inline lv_coord_t lv_obj_get_style_max_height(const struct _lv_obj_t * obj, uint32_t part)
  32:Drivers/lvgl/lvgl/src/extra/widgets/meter/../../../../src/core/lv_obj_style_gen.h **** {
  33:Drivers/lvgl/lvgl/src/extra/widgets/meter/../../../../src/core/lv_obj_style_gen.h ****     lv_style_value_t v = lv_obj_get_style_prop(obj, part, LV_STYLE_MAX_HEIGHT);
  34:Drivers/lvgl/lvgl/src/extra/widgets/meter/../../../../src/core/lv_obj_style_gen.h ****     return (lv_coord_t)v.num;
  35:Drivers/lvgl/lvgl/src/extra/widgets/meter/../../../../src/core/lv_obj_style_gen.h **** }
  36:Drivers/lvgl/lvgl/src/extra/widgets/meter/../../../../src/core/lv_obj_style_gen.h **** 
  37:Drivers/lvgl/lvgl/src/extra/widgets/meter/../../../../src/core/lv_obj_style_gen.h **** static inline lv_coord_t lv_obj_get_style_x(const struct _lv_obj_t * obj, uint32_t part)
  38:Drivers/lvgl/lvgl/src/extra/widgets/meter/../../../../src/core/lv_obj_style_gen.h **** {
  39:Drivers/lvgl/lvgl/src/extra/widgets/meter/../../../../src/core/lv_obj_style_gen.h ****     lv_style_value_t v = lv_obj_get_style_prop(obj, part, LV_STYLE_X);
  40:Drivers/lvgl/lvgl/src/extra/widgets/meter/../../../../src/core/lv_obj_style_gen.h ****     return (lv_coord_t)v.num;
  41:Drivers/lvgl/lvgl/src/extra/widgets/meter/../../../../src/core/lv_obj_style_gen.h **** }
  42:Drivers/lvgl/lvgl/src/extra/widgets/meter/../../../../src/core/lv_obj_style_gen.h **** 
  43:Drivers/lvgl/lvgl/src/extra/widgets/meter/../../../../src/core/lv_obj_style_gen.h **** static inline lv_coord_t lv_obj_get_style_y(const struct _lv_obj_t * obj, uint32_t part)
  44:Drivers/lvgl/lvgl/src/extra/widgets/meter/../../../../src/core/lv_obj_style_gen.h **** {
  45:Drivers/lvgl/lvgl/src/extra/widgets/meter/../../../../src/core/lv_obj_style_gen.h ****     lv_style_value_t v = lv_obj_get_style_prop(obj, part, LV_STYLE_Y);
  46:Drivers/lvgl/lvgl/src/extra/widgets/meter/../../../../src/core/lv_obj_style_gen.h ****     return (lv_coord_t)v.num;
  47:Drivers/lvgl/lvgl/src/extra/widgets/meter/../../../../src/core/lv_obj_style_gen.h **** }
  48:Drivers/lvgl/lvgl/src/extra/widgets/meter/../../../../src/core/lv_obj_style_gen.h **** 
  49:Drivers/lvgl/lvgl/src/extra/widgets/meter/../../../../src/core/lv_obj_style_gen.h **** static inline lv_align_t lv_obj_get_style_align(const struct _lv_obj_t * obj, uint32_t part)
  50:Drivers/lvgl/lvgl/src/extra/widgets/meter/../../../../src/core/lv_obj_style_gen.h **** {
  51:Drivers/lvgl/lvgl/src/extra/widgets/meter/../../../../src/core/lv_obj_style_gen.h ****     lv_style_value_t v = lv_obj_get_style_prop(obj, part, LV_STYLE_ALIGN);
  52:Drivers/lvgl/lvgl/src/extra/widgets/meter/../../../../src/core/lv_obj_style_gen.h ****     return (lv_align_t)v.num;
  53:Drivers/lvgl/lvgl/src/extra/widgets/meter/../../../../src/core/lv_obj_style_gen.h **** }
  54:Drivers/lvgl/lvgl/src/extra/widgets/meter/../../../../src/core/lv_obj_style_gen.h **** 
  55:Drivers/lvgl/lvgl/src/extra/widgets/meter/../../../../src/core/lv_obj_style_gen.h **** static inline lv_coord_t lv_obj_get_style_transform_width(const struct _lv_obj_t * obj, uint32_t pa
  56:Drivers/lvgl/lvgl/src/extra/widgets/meter/../../../../src/core/lv_obj_style_gen.h **** {
  57:Drivers/lvgl/lvgl/src/extra/widgets/meter/../../../../src/core/lv_obj_style_gen.h ****     lv_style_value_t v = lv_obj_get_style_prop(obj, part, LV_STYLE_TRANSFORM_WIDTH);
  58:Drivers/lvgl/lvgl/src/extra/widgets/meter/../../../../src/core/lv_obj_style_gen.h ****     return (lv_coord_t)v.num;
  59:Drivers/lvgl/lvgl/src/extra/widgets/meter/../../../../src/core/lv_obj_style_gen.h **** }
  60:Drivers/lvgl/lvgl/src/extra/widgets/meter/../../../../src/core/lv_obj_style_gen.h **** 
  61:Drivers/lvgl/lvgl/src/extra/widgets/meter/../../../../src/core/lv_obj_style_gen.h **** static inline lv_coord_t lv_obj_get_style_transform_height(const struct _lv_obj_t * obj, uint32_t p
  62:Drivers/lvgl/lvgl/src/extra/widgets/meter/../../../../src/core/lv_obj_style_gen.h **** {
  63:Drivers/lvgl/lvgl/src/extra/widgets/meter/../../../../src/core/lv_obj_style_gen.h ****     lv_style_value_t v = lv_obj_get_style_prop(obj, part, LV_STYLE_TRANSFORM_HEIGHT);
  64:Drivers/lvgl/lvgl/src/extra/widgets/meter/../../../../src/core/lv_obj_style_gen.h ****     return (lv_coord_t)v.num;
  65:Drivers/lvgl/lvgl/src/extra/widgets/meter/../../../../src/core/lv_obj_style_gen.h **** }
  66:Drivers/lvgl/lvgl/src/extra/widgets/meter/../../../../src/core/lv_obj_style_gen.h **** 
  67:Drivers/lvgl/lvgl/src/extra/widgets/meter/../../../../src/core/lv_obj_style_gen.h **** static inline lv_coord_t lv_obj_get_style_translate_x(const struct _lv_obj_t * obj, uint32_t part)
  68:Drivers/lvgl/lvgl/src/extra/widgets/meter/../../../../src/core/lv_obj_style_gen.h **** {
  69:Drivers/lvgl/lvgl/src/extra/widgets/meter/../../../../src/core/lv_obj_style_gen.h ****     lv_style_value_t v = lv_obj_get_style_prop(obj, part, LV_STYLE_TRANSLATE_X);
ARM GAS  /tmp/ccVvrzYL.s 			page 9


  70:Drivers/lvgl/lvgl/src/extra/widgets/meter/../../../../src/core/lv_obj_style_gen.h ****     return (lv_coord_t)v.num;
  71:Drivers/lvgl/lvgl/src/extra/widgets/meter/../../../../src/core/lv_obj_style_gen.h **** }
  72:Drivers/lvgl/lvgl/src/extra/widgets/meter/../../../../src/core/lv_obj_style_gen.h **** 
  73:Drivers/lvgl/lvgl/src/extra/widgets/meter/../../../../src/core/lv_obj_style_gen.h **** static inline lv_coord_t lv_obj_get_style_translate_y(const struct _lv_obj_t * obj, uint32_t part)
  74:Drivers/lvgl/lvgl/src/extra/widgets/meter/../../../../src/core/lv_obj_style_gen.h **** {
  75:Drivers/lvgl/lvgl/src/extra/widgets/meter/../../../../src/core/lv_obj_style_gen.h ****     lv_style_value_t v = lv_obj_get_style_prop(obj, part, LV_STYLE_TRANSLATE_Y);
  76:Drivers/lvgl/lvgl/src/extra/widgets/meter/../../../../src/core/lv_obj_style_gen.h ****     return (lv_coord_t)v.num;
  77:Drivers/lvgl/lvgl/src/extra/widgets/meter/../../../../src/core/lv_obj_style_gen.h **** }
  78:Drivers/lvgl/lvgl/src/extra/widgets/meter/../../../../src/core/lv_obj_style_gen.h **** 
  79:Drivers/lvgl/lvgl/src/extra/widgets/meter/../../../../src/core/lv_obj_style_gen.h **** static inline lv_coord_t lv_obj_get_style_transform_zoom(const struct _lv_obj_t * obj, uint32_t par
  80:Drivers/lvgl/lvgl/src/extra/widgets/meter/../../../../src/core/lv_obj_style_gen.h **** {
  81:Drivers/lvgl/lvgl/src/extra/widgets/meter/../../../../src/core/lv_obj_style_gen.h ****     lv_style_value_t v = lv_obj_get_style_prop(obj, part, LV_STYLE_TRANSFORM_ZOOM);
  82:Drivers/lvgl/lvgl/src/extra/widgets/meter/../../../../src/core/lv_obj_style_gen.h ****     return (lv_coord_t)v.num;
  83:Drivers/lvgl/lvgl/src/extra/widgets/meter/../../../../src/core/lv_obj_style_gen.h **** }
  84:Drivers/lvgl/lvgl/src/extra/widgets/meter/../../../../src/core/lv_obj_style_gen.h **** 
  85:Drivers/lvgl/lvgl/src/extra/widgets/meter/../../../../src/core/lv_obj_style_gen.h **** static inline lv_coord_t lv_obj_get_style_transform_angle(const struct _lv_obj_t * obj, uint32_t pa
  86:Drivers/lvgl/lvgl/src/extra/widgets/meter/../../../../src/core/lv_obj_style_gen.h **** {
  87:Drivers/lvgl/lvgl/src/extra/widgets/meter/../../../../src/core/lv_obj_style_gen.h ****     lv_style_value_t v = lv_obj_get_style_prop(obj, part, LV_STYLE_TRANSFORM_ANGLE);
  88:Drivers/lvgl/lvgl/src/extra/widgets/meter/../../../../src/core/lv_obj_style_gen.h ****     return (lv_coord_t)v.num;
  89:Drivers/lvgl/lvgl/src/extra/widgets/meter/../../../../src/core/lv_obj_style_gen.h **** }
  90:Drivers/lvgl/lvgl/src/extra/widgets/meter/../../../../src/core/lv_obj_style_gen.h **** 
  91:Drivers/lvgl/lvgl/src/extra/widgets/meter/../../../../src/core/lv_obj_style_gen.h **** static inline lv_coord_t lv_obj_get_style_transform_pivot_x(const struct _lv_obj_t * obj, uint32_t 
  92:Drivers/lvgl/lvgl/src/extra/widgets/meter/../../../../src/core/lv_obj_style_gen.h **** {
  93:Drivers/lvgl/lvgl/src/extra/widgets/meter/../../../../src/core/lv_obj_style_gen.h ****     lv_style_value_t v = lv_obj_get_style_prop(obj, part, LV_STYLE_TRANSFORM_PIVOT_X);
  94:Drivers/lvgl/lvgl/src/extra/widgets/meter/../../../../src/core/lv_obj_style_gen.h ****     return (lv_coord_t)v.num;
  95:Drivers/lvgl/lvgl/src/extra/widgets/meter/../../../../src/core/lv_obj_style_gen.h **** }
  96:Drivers/lvgl/lvgl/src/extra/widgets/meter/../../../../src/core/lv_obj_style_gen.h **** 
  97:Drivers/lvgl/lvgl/src/extra/widgets/meter/../../../../src/core/lv_obj_style_gen.h **** static inline lv_coord_t lv_obj_get_style_transform_pivot_y(const struct _lv_obj_t * obj, uint32_t 
  98:Drivers/lvgl/lvgl/src/extra/widgets/meter/../../../../src/core/lv_obj_style_gen.h **** {
  99:Drivers/lvgl/lvgl/src/extra/widgets/meter/../../../../src/core/lv_obj_style_gen.h ****     lv_style_value_t v = lv_obj_get_style_prop(obj, part, LV_STYLE_TRANSFORM_PIVOT_Y);
 100:Drivers/lvgl/lvgl/src/extra/widgets/meter/../../../../src/core/lv_obj_style_gen.h ****     return (lv_coord_t)v.num;
 101:Drivers/lvgl/lvgl/src/extra/widgets/meter/../../../../src/core/lv_obj_style_gen.h **** }
 102:Drivers/lvgl/lvgl/src/extra/widgets/meter/../../../../src/core/lv_obj_style_gen.h **** 
 103:Drivers/lvgl/lvgl/src/extra/widgets/meter/../../../../src/core/lv_obj_style_gen.h **** static inline lv_coord_t lv_obj_get_style_pad_top(const struct _lv_obj_t * obj, uint32_t part)
 104:Drivers/lvgl/lvgl/src/extra/widgets/meter/../../../../src/core/lv_obj_style_gen.h **** {
 105:Drivers/lvgl/lvgl/src/extra/widgets/meter/../../../../src/core/lv_obj_style_gen.h ****     lv_style_value_t v = lv_obj_get_style_prop(obj, part, LV_STYLE_PAD_TOP);
 106:Drivers/lvgl/lvgl/src/extra/widgets/meter/../../../../src/core/lv_obj_style_gen.h ****     return (lv_coord_t)v.num;
 107:Drivers/lvgl/lvgl/src/extra/widgets/meter/../../../../src/core/lv_obj_style_gen.h **** }
 108:Drivers/lvgl/lvgl/src/extra/widgets/meter/../../../../src/core/lv_obj_style_gen.h **** 
 109:Drivers/lvgl/lvgl/src/extra/widgets/meter/../../../../src/core/lv_obj_style_gen.h **** static inline lv_coord_t lv_obj_get_style_pad_bottom(const struct _lv_obj_t * obj, uint32_t part)
 110:Drivers/lvgl/lvgl/src/extra/widgets/meter/../../../../src/core/lv_obj_style_gen.h **** {
 111:Drivers/lvgl/lvgl/src/extra/widgets/meter/../../../../src/core/lv_obj_style_gen.h ****     lv_style_value_t v = lv_obj_get_style_prop(obj, part, LV_STYLE_PAD_BOTTOM);
 112:Drivers/lvgl/lvgl/src/extra/widgets/meter/../../../../src/core/lv_obj_style_gen.h ****     return (lv_coord_t)v.num;
 113:Drivers/lvgl/lvgl/src/extra/widgets/meter/../../../../src/core/lv_obj_style_gen.h **** }
 114:Drivers/lvgl/lvgl/src/extra/widgets/meter/../../../../src/core/lv_obj_style_gen.h **** 
 115:Drivers/lvgl/lvgl/src/extra/widgets/meter/../../../../src/core/lv_obj_style_gen.h **** static inline lv_coord_t lv_obj_get_style_pad_left(const struct _lv_obj_t * obj, uint32_t part)
 116:Drivers/lvgl/lvgl/src/extra/widgets/meter/../../../../src/core/lv_obj_style_gen.h **** {
 117:Drivers/lvgl/lvgl/src/extra/widgets/meter/../../../../src/core/lv_obj_style_gen.h ****     lv_style_value_t v = lv_obj_get_style_prop(obj, part, LV_STYLE_PAD_LEFT);
 118:Drivers/lvgl/lvgl/src/extra/widgets/meter/../../../../src/core/lv_obj_style_gen.h ****     return (lv_coord_t)v.num;
 119:Drivers/lvgl/lvgl/src/extra/widgets/meter/../../../../src/core/lv_obj_style_gen.h **** }
 120:Drivers/lvgl/lvgl/src/extra/widgets/meter/../../../../src/core/lv_obj_style_gen.h **** 
 121:Drivers/lvgl/lvgl/src/extra/widgets/meter/../../../../src/core/lv_obj_style_gen.h **** static inline lv_coord_t lv_obj_get_style_pad_right(const struct _lv_obj_t * obj, uint32_t part)
 122:Drivers/lvgl/lvgl/src/extra/widgets/meter/../../../../src/core/lv_obj_style_gen.h **** {
 123:Drivers/lvgl/lvgl/src/extra/widgets/meter/../../../../src/core/lv_obj_style_gen.h ****     lv_style_value_t v = lv_obj_get_style_prop(obj, part, LV_STYLE_PAD_RIGHT);
 124:Drivers/lvgl/lvgl/src/extra/widgets/meter/../../../../src/core/lv_obj_style_gen.h ****     return (lv_coord_t)v.num;
 125:Drivers/lvgl/lvgl/src/extra/widgets/meter/../../../../src/core/lv_obj_style_gen.h **** }
 126:Drivers/lvgl/lvgl/src/extra/widgets/meter/../../../../src/core/lv_obj_style_gen.h **** 
ARM GAS  /tmp/ccVvrzYL.s 			page 10


 127:Drivers/lvgl/lvgl/src/extra/widgets/meter/../../../../src/core/lv_obj_style_gen.h **** static inline lv_coord_t lv_obj_get_style_pad_row(const struct _lv_obj_t * obj, uint32_t part)
 128:Drivers/lvgl/lvgl/src/extra/widgets/meter/../../../../src/core/lv_obj_style_gen.h **** {
 129:Drivers/lvgl/lvgl/src/extra/widgets/meter/../../../../src/core/lv_obj_style_gen.h ****     lv_style_value_t v = lv_obj_get_style_prop(obj, part, LV_STYLE_PAD_ROW);
 130:Drivers/lvgl/lvgl/src/extra/widgets/meter/../../../../src/core/lv_obj_style_gen.h ****     return (lv_coord_t)v.num;
 131:Drivers/lvgl/lvgl/src/extra/widgets/meter/../../../../src/core/lv_obj_style_gen.h **** }
 132:Drivers/lvgl/lvgl/src/extra/widgets/meter/../../../../src/core/lv_obj_style_gen.h **** 
 133:Drivers/lvgl/lvgl/src/extra/widgets/meter/../../../../src/core/lv_obj_style_gen.h **** static inline lv_coord_t lv_obj_get_style_pad_column(const struct _lv_obj_t * obj, uint32_t part)
 134:Drivers/lvgl/lvgl/src/extra/widgets/meter/../../../../src/core/lv_obj_style_gen.h **** {
 135:Drivers/lvgl/lvgl/src/extra/widgets/meter/../../../../src/core/lv_obj_style_gen.h ****     lv_style_value_t v = lv_obj_get_style_prop(obj, part, LV_STYLE_PAD_COLUMN);
 136:Drivers/lvgl/lvgl/src/extra/widgets/meter/../../../../src/core/lv_obj_style_gen.h ****     return (lv_coord_t)v.num;
 137:Drivers/lvgl/lvgl/src/extra/widgets/meter/../../../../src/core/lv_obj_style_gen.h **** }
 138:Drivers/lvgl/lvgl/src/extra/widgets/meter/../../../../src/core/lv_obj_style_gen.h **** 
 139:Drivers/lvgl/lvgl/src/extra/widgets/meter/../../../../src/core/lv_obj_style_gen.h **** static inline lv_color_t lv_obj_get_style_bg_color(const struct _lv_obj_t * obj, uint32_t part)
 140:Drivers/lvgl/lvgl/src/extra/widgets/meter/../../../../src/core/lv_obj_style_gen.h **** {
 141:Drivers/lvgl/lvgl/src/extra/widgets/meter/../../../../src/core/lv_obj_style_gen.h ****     lv_style_value_t v = lv_obj_get_style_prop(obj, part, LV_STYLE_BG_COLOR);
 142:Drivers/lvgl/lvgl/src/extra/widgets/meter/../../../../src/core/lv_obj_style_gen.h ****     return v.color;
 143:Drivers/lvgl/lvgl/src/extra/widgets/meter/../../../../src/core/lv_obj_style_gen.h **** }
 144:Drivers/lvgl/lvgl/src/extra/widgets/meter/../../../../src/core/lv_obj_style_gen.h **** 
 145:Drivers/lvgl/lvgl/src/extra/widgets/meter/../../../../src/core/lv_obj_style_gen.h **** static inline lv_color_t lv_obj_get_style_bg_color_filtered(const struct _lv_obj_t * obj, uint32_t 
 146:Drivers/lvgl/lvgl/src/extra/widgets/meter/../../../../src/core/lv_obj_style_gen.h **** {
 147:Drivers/lvgl/lvgl/src/extra/widgets/meter/../../../../src/core/lv_obj_style_gen.h ****     lv_style_value_t v = _lv_obj_style_apply_color_filter(obj, part, lv_obj_get_style_prop(obj, par
 148:Drivers/lvgl/lvgl/src/extra/widgets/meter/../../../../src/core/lv_obj_style_gen.h ****     return v.color;
 149:Drivers/lvgl/lvgl/src/extra/widgets/meter/../../../../src/core/lv_obj_style_gen.h **** }
 150:Drivers/lvgl/lvgl/src/extra/widgets/meter/../../../../src/core/lv_obj_style_gen.h **** 
 151:Drivers/lvgl/lvgl/src/extra/widgets/meter/../../../../src/core/lv_obj_style_gen.h **** static inline lv_opa_t lv_obj_get_style_bg_opa(const struct _lv_obj_t * obj, uint32_t part)
 152:Drivers/lvgl/lvgl/src/extra/widgets/meter/../../../../src/core/lv_obj_style_gen.h **** {
 153:Drivers/lvgl/lvgl/src/extra/widgets/meter/../../../../src/core/lv_obj_style_gen.h ****     lv_style_value_t v = lv_obj_get_style_prop(obj, part, LV_STYLE_BG_OPA);
 154:Drivers/lvgl/lvgl/src/extra/widgets/meter/../../../../src/core/lv_obj_style_gen.h ****     return (lv_opa_t)v.num;
 155:Drivers/lvgl/lvgl/src/extra/widgets/meter/../../../../src/core/lv_obj_style_gen.h **** }
 156:Drivers/lvgl/lvgl/src/extra/widgets/meter/../../../../src/core/lv_obj_style_gen.h **** 
 157:Drivers/lvgl/lvgl/src/extra/widgets/meter/../../../../src/core/lv_obj_style_gen.h **** static inline lv_color_t lv_obj_get_style_bg_grad_color(const struct _lv_obj_t * obj, uint32_t part
 158:Drivers/lvgl/lvgl/src/extra/widgets/meter/../../../../src/core/lv_obj_style_gen.h **** {
 159:Drivers/lvgl/lvgl/src/extra/widgets/meter/../../../../src/core/lv_obj_style_gen.h ****     lv_style_value_t v = lv_obj_get_style_prop(obj, part, LV_STYLE_BG_GRAD_COLOR);
 160:Drivers/lvgl/lvgl/src/extra/widgets/meter/../../../../src/core/lv_obj_style_gen.h ****     return v.color;
 161:Drivers/lvgl/lvgl/src/extra/widgets/meter/../../../../src/core/lv_obj_style_gen.h **** }
 162:Drivers/lvgl/lvgl/src/extra/widgets/meter/../../../../src/core/lv_obj_style_gen.h **** 
 163:Drivers/lvgl/lvgl/src/extra/widgets/meter/../../../../src/core/lv_obj_style_gen.h **** static inline lv_color_t lv_obj_get_style_bg_grad_color_filtered(const struct _lv_obj_t * obj, uint
 164:Drivers/lvgl/lvgl/src/extra/widgets/meter/../../../../src/core/lv_obj_style_gen.h **** {
 165:Drivers/lvgl/lvgl/src/extra/widgets/meter/../../../../src/core/lv_obj_style_gen.h ****     lv_style_value_t v = _lv_obj_style_apply_color_filter(obj, part, lv_obj_get_style_prop(obj, par
 166:Drivers/lvgl/lvgl/src/extra/widgets/meter/../../../../src/core/lv_obj_style_gen.h ****     return v.color;
 167:Drivers/lvgl/lvgl/src/extra/widgets/meter/../../../../src/core/lv_obj_style_gen.h **** }
 168:Drivers/lvgl/lvgl/src/extra/widgets/meter/../../../../src/core/lv_obj_style_gen.h **** 
 169:Drivers/lvgl/lvgl/src/extra/widgets/meter/../../../../src/core/lv_obj_style_gen.h **** static inline lv_grad_dir_t lv_obj_get_style_bg_grad_dir(const struct _lv_obj_t * obj, uint32_t par
 170:Drivers/lvgl/lvgl/src/extra/widgets/meter/../../../../src/core/lv_obj_style_gen.h **** {
 171:Drivers/lvgl/lvgl/src/extra/widgets/meter/../../../../src/core/lv_obj_style_gen.h ****     lv_style_value_t v = lv_obj_get_style_prop(obj, part, LV_STYLE_BG_GRAD_DIR);
 172:Drivers/lvgl/lvgl/src/extra/widgets/meter/../../../../src/core/lv_obj_style_gen.h ****     return (lv_grad_dir_t)v.num;
 173:Drivers/lvgl/lvgl/src/extra/widgets/meter/../../../../src/core/lv_obj_style_gen.h **** }
 174:Drivers/lvgl/lvgl/src/extra/widgets/meter/../../../../src/core/lv_obj_style_gen.h **** 
 175:Drivers/lvgl/lvgl/src/extra/widgets/meter/../../../../src/core/lv_obj_style_gen.h **** static inline lv_coord_t lv_obj_get_style_bg_main_stop(const struct _lv_obj_t * obj, uint32_t part)
 176:Drivers/lvgl/lvgl/src/extra/widgets/meter/../../../../src/core/lv_obj_style_gen.h **** {
 177:Drivers/lvgl/lvgl/src/extra/widgets/meter/../../../../src/core/lv_obj_style_gen.h ****     lv_style_value_t v = lv_obj_get_style_prop(obj, part, LV_STYLE_BG_MAIN_STOP);
 178:Drivers/lvgl/lvgl/src/extra/widgets/meter/../../../../src/core/lv_obj_style_gen.h ****     return (lv_coord_t)v.num;
 179:Drivers/lvgl/lvgl/src/extra/widgets/meter/../../../../src/core/lv_obj_style_gen.h **** }
 180:Drivers/lvgl/lvgl/src/extra/widgets/meter/../../../../src/core/lv_obj_style_gen.h **** 
 181:Drivers/lvgl/lvgl/src/extra/widgets/meter/../../../../src/core/lv_obj_style_gen.h **** static inline lv_coord_t lv_obj_get_style_bg_grad_stop(const struct _lv_obj_t * obj, uint32_t part)
 182:Drivers/lvgl/lvgl/src/extra/widgets/meter/../../../../src/core/lv_obj_style_gen.h **** {
 183:Drivers/lvgl/lvgl/src/extra/widgets/meter/../../../../src/core/lv_obj_style_gen.h ****     lv_style_value_t v = lv_obj_get_style_prop(obj, part, LV_STYLE_BG_GRAD_STOP);
ARM GAS  /tmp/ccVvrzYL.s 			page 11


 184:Drivers/lvgl/lvgl/src/extra/widgets/meter/../../../../src/core/lv_obj_style_gen.h ****     return (lv_coord_t)v.num;
 185:Drivers/lvgl/lvgl/src/extra/widgets/meter/../../../../src/core/lv_obj_style_gen.h **** }
 186:Drivers/lvgl/lvgl/src/extra/widgets/meter/../../../../src/core/lv_obj_style_gen.h **** 
 187:Drivers/lvgl/lvgl/src/extra/widgets/meter/../../../../src/core/lv_obj_style_gen.h **** static inline const lv_grad_dsc_t * lv_obj_get_style_bg_grad(const struct _lv_obj_t * obj, uint32_t
 188:Drivers/lvgl/lvgl/src/extra/widgets/meter/../../../../src/core/lv_obj_style_gen.h **** {
 189:Drivers/lvgl/lvgl/src/extra/widgets/meter/../../../../src/core/lv_obj_style_gen.h ****     lv_style_value_t v = lv_obj_get_style_prop(obj, part, LV_STYLE_BG_GRAD);
 190:Drivers/lvgl/lvgl/src/extra/widgets/meter/../../../../src/core/lv_obj_style_gen.h ****     return (const lv_grad_dsc_t *)v.ptr;
 191:Drivers/lvgl/lvgl/src/extra/widgets/meter/../../../../src/core/lv_obj_style_gen.h **** }
 192:Drivers/lvgl/lvgl/src/extra/widgets/meter/../../../../src/core/lv_obj_style_gen.h **** 
 193:Drivers/lvgl/lvgl/src/extra/widgets/meter/../../../../src/core/lv_obj_style_gen.h **** static inline lv_dither_mode_t lv_obj_get_style_bg_dither_mode(const struct _lv_obj_t * obj, uint32
 194:Drivers/lvgl/lvgl/src/extra/widgets/meter/../../../../src/core/lv_obj_style_gen.h **** {
 195:Drivers/lvgl/lvgl/src/extra/widgets/meter/../../../../src/core/lv_obj_style_gen.h ****     lv_style_value_t v = lv_obj_get_style_prop(obj, part, LV_STYLE_BG_DITHER_MODE);
 196:Drivers/lvgl/lvgl/src/extra/widgets/meter/../../../../src/core/lv_obj_style_gen.h ****     return (lv_dither_mode_t)v.num;
 197:Drivers/lvgl/lvgl/src/extra/widgets/meter/../../../../src/core/lv_obj_style_gen.h **** }
 198:Drivers/lvgl/lvgl/src/extra/widgets/meter/../../../../src/core/lv_obj_style_gen.h **** 
 199:Drivers/lvgl/lvgl/src/extra/widgets/meter/../../../../src/core/lv_obj_style_gen.h **** static inline const void * lv_obj_get_style_bg_img_src(const struct _lv_obj_t * obj, uint32_t part)
 200:Drivers/lvgl/lvgl/src/extra/widgets/meter/../../../../src/core/lv_obj_style_gen.h **** {
 201:Drivers/lvgl/lvgl/src/extra/widgets/meter/../../../../src/core/lv_obj_style_gen.h ****     lv_style_value_t v = lv_obj_get_style_prop(obj, part, LV_STYLE_BG_IMG_SRC);
 202:Drivers/lvgl/lvgl/src/extra/widgets/meter/../../../../src/core/lv_obj_style_gen.h ****     return (const void *)v.ptr;
 203:Drivers/lvgl/lvgl/src/extra/widgets/meter/../../../../src/core/lv_obj_style_gen.h **** }
 204:Drivers/lvgl/lvgl/src/extra/widgets/meter/../../../../src/core/lv_obj_style_gen.h **** 
 205:Drivers/lvgl/lvgl/src/extra/widgets/meter/../../../../src/core/lv_obj_style_gen.h **** static inline lv_opa_t lv_obj_get_style_bg_img_opa(const struct _lv_obj_t * obj, uint32_t part)
 206:Drivers/lvgl/lvgl/src/extra/widgets/meter/../../../../src/core/lv_obj_style_gen.h **** {
 207:Drivers/lvgl/lvgl/src/extra/widgets/meter/../../../../src/core/lv_obj_style_gen.h ****     lv_style_value_t v = lv_obj_get_style_prop(obj, part, LV_STYLE_BG_IMG_OPA);
 208:Drivers/lvgl/lvgl/src/extra/widgets/meter/../../../../src/core/lv_obj_style_gen.h ****     return (lv_opa_t)v.num;
 209:Drivers/lvgl/lvgl/src/extra/widgets/meter/../../../../src/core/lv_obj_style_gen.h **** }
 210:Drivers/lvgl/lvgl/src/extra/widgets/meter/../../../../src/core/lv_obj_style_gen.h **** 
 211:Drivers/lvgl/lvgl/src/extra/widgets/meter/../../../../src/core/lv_obj_style_gen.h **** static inline lv_color_t lv_obj_get_style_bg_img_recolor(const struct _lv_obj_t * obj, uint32_t par
 212:Drivers/lvgl/lvgl/src/extra/widgets/meter/../../../../src/core/lv_obj_style_gen.h **** {
 213:Drivers/lvgl/lvgl/src/extra/widgets/meter/../../../../src/core/lv_obj_style_gen.h ****     lv_style_value_t v = lv_obj_get_style_prop(obj, part, LV_STYLE_BG_IMG_RECOLOR);
 214:Drivers/lvgl/lvgl/src/extra/widgets/meter/../../../../src/core/lv_obj_style_gen.h ****     return v.color;
 215:Drivers/lvgl/lvgl/src/extra/widgets/meter/../../../../src/core/lv_obj_style_gen.h **** }
 216:Drivers/lvgl/lvgl/src/extra/widgets/meter/../../../../src/core/lv_obj_style_gen.h **** 
 217:Drivers/lvgl/lvgl/src/extra/widgets/meter/../../../../src/core/lv_obj_style_gen.h **** static inline lv_color_t lv_obj_get_style_bg_img_recolor_filtered(const struct _lv_obj_t * obj, uin
 218:Drivers/lvgl/lvgl/src/extra/widgets/meter/../../../../src/core/lv_obj_style_gen.h **** {
 219:Drivers/lvgl/lvgl/src/extra/widgets/meter/../../../../src/core/lv_obj_style_gen.h ****     lv_style_value_t v = _lv_obj_style_apply_color_filter(obj, part, lv_obj_get_style_prop(obj, par
 220:Drivers/lvgl/lvgl/src/extra/widgets/meter/../../../../src/core/lv_obj_style_gen.h ****     return v.color;
 221:Drivers/lvgl/lvgl/src/extra/widgets/meter/../../../../src/core/lv_obj_style_gen.h **** }
 222:Drivers/lvgl/lvgl/src/extra/widgets/meter/../../../../src/core/lv_obj_style_gen.h **** 
 223:Drivers/lvgl/lvgl/src/extra/widgets/meter/../../../../src/core/lv_obj_style_gen.h **** static inline lv_opa_t lv_obj_get_style_bg_img_recolor_opa(const struct _lv_obj_t * obj, uint32_t p
 224:Drivers/lvgl/lvgl/src/extra/widgets/meter/../../../../src/core/lv_obj_style_gen.h **** {
 225:Drivers/lvgl/lvgl/src/extra/widgets/meter/../../../../src/core/lv_obj_style_gen.h ****     lv_style_value_t v = lv_obj_get_style_prop(obj, part, LV_STYLE_BG_IMG_RECOLOR_OPA);
 226:Drivers/lvgl/lvgl/src/extra/widgets/meter/../../../../src/core/lv_obj_style_gen.h ****     return (lv_opa_t)v.num;
 227:Drivers/lvgl/lvgl/src/extra/widgets/meter/../../../../src/core/lv_obj_style_gen.h **** }
 228:Drivers/lvgl/lvgl/src/extra/widgets/meter/../../../../src/core/lv_obj_style_gen.h **** 
 229:Drivers/lvgl/lvgl/src/extra/widgets/meter/../../../../src/core/lv_obj_style_gen.h **** static inline bool lv_obj_get_style_bg_img_tiled(const struct _lv_obj_t * obj, uint32_t part)
 230:Drivers/lvgl/lvgl/src/extra/widgets/meter/../../../../src/core/lv_obj_style_gen.h **** {
 231:Drivers/lvgl/lvgl/src/extra/widgets/meter/../../../../src/core/lv_obj_style_gen.h ****     lv_style_value_t v = lv_obj_get_style_prop(obj, part, LV_STYLE_BG_IMG_TILED);
 232:Drivers/lvgl/lvgl/src/extra/widgets/meter/../../../../src/core/lv_obj_style_gen.h ****     return (bool)v.num;
 233:Drivers/lvgl/lvgl/src/extra/widgets/meter/../../../../src/core/lv_obj_style_gen.h **** }
 234:Drivers/lvgl/lvgl/src/extra/widgets/meter/../../../../src/core/lv_obj_style_gen.h **** 
 235:Drivers/lvgl/lvgl/src/extra/widgets/meter/../../../../src/core/lv_obj_style_gen.h **** static inline lv_color_t lv_obj_get_style_border_color(const struct _lv_obj_t * obj, uint32_t part)
 236:Drivers/lvgl/lvgl/src/extra/widgets/meter/../../../../src/core/lv_obj_style_gen.h **** {
 237:Drivers/lvgl/lvgl/src/extra/widgets/meter/../../../../src/core/lv_obj_style_gen.h ****     lv_style_value_t v = lv_obj_get_style_prop(obj, part, LV_STYLE_BORDER_COLOR);
 238:Drivers/lvgl/lvgl/src/extra/widgets/meter/../../../../src/core/lv_obj_style_gen.h ****     return v.color;
 239:Drivers/lvgl/lvgl/src/extra/widgets/meter/../../../../src/core/lv_obj_style_gen.h **** }
 240:Drivers/lvgl/lvgl/src/extra/widgets/meter/../../../../src/core/lv_obj_style_gen.h **** 
ARM GAS  /tmp/ccVvrzYL.s 			page 12


 241:Drivers/lvgl/lvgl/src/extra/widgets/meter/../../../../src/core/lv_obj_style_gen.h **** static inline lv_color_t lv_obj_get_style_border_color_filtered(const struct _lv_obj_t * obj, uint3
 242:Drivers/lvgl/lvgl/src/extra/widgets/meter/../../../../src/core/lv_obj_style_gen.h **** {
 243:Drivers/lvgl/lvgl/src/extra/widgets/meter/../../../../src/core/lv_obj_style_gen.h ****     lv_style_value_t v = _lv_obj_style_apply_color_filter(obj, part, lv_obj_get_style_prop(obj, par
 244:Drivers/lvgl/lvgl/src/extra/widgets/meter/../../../../src/core/lv_obj_style_gen.h ****     return v.color;
 245:Drivers/lvgl/lvgl/src/extra/widgets/meter/../../../../src/core/lv_obj_style_gen.h **** }
 246:Drivers/lvgl/lvgl/src/extra/widgets/meter/../../../../src/core/lv_obj_style_gen.h **** 
 247:Drivers/lvgl/lvgl/src/extra/widgets/meter/../../../../src/core/lv_obj_style_gen.h **** static inline lv_opa_t lv_obj_get_style_border_opa(const struct _lv_obj_t * obj, uint32_t part)
 248:Drivers/lvgl/lvgl/src/extra/widgets/meter/../../../../src/core/lv_obj_style_gen.h **** {
 249:Drivers/lvgl/lvgl/src/extra/widgets/meter/../../../../src/core/lv_obj_style_gen.h ****     lv_style_value_t v = lv_obj_get_style_prop(obj, part, LV_STYLE_BORDER_OPA);
 250:Drivers/lvgl/lvgl/src/extra/widgets/meter/../../../../src/core/lv_obj_style_gen.h ****     return (lv_opa_t)v.num;
 251:Drivers/lvgl/lvgl/src/extra/widgets/meter/../../../../src/core/lv_obj_style_gen.h **** }
 252:Drivers/lvgl/lvgl/src/extra/widgets/meter/../../../../src/core/lv_obj_style_gen.h **** 
 253:Drivers/lvgl/lvgl/src/extra/widgets/meter/../../../../src/core/lv_obj_style_gen.h **** static inline lv_coord_t lv_obj_get_style_border_width(const struct _lv_obj_t * obj, uint32_t part)
 254:Drivers/lvgl/lvgl/src/extra/widgets/meter/../../../../src/core/lv_obj_style_gen.h **** {
 255:Drivers/lvgl/lvgl/src/extra/widgets/meter/../../../../src/core/lv_obj_style_gen.h ****     lv_style_value_t v = lv_obj_get_style_prop(obj, part, LV_STYLE_BORDER_WIDTH);
 256:Drivers/lvgl/lvgl/src/extra/widgets/meter/../../../../src/core/lv_obj_style_gen.h ****     return (lv_coord_t)v.num;
 257:Drivers/lvgl/lvgl/src/extra/widgets/meter/../../../../src/core/lv_obj_style_gen.h **** }
 258:Drivers/lvgl/lvgl/src/extra/widgets/meter/../../../../src/core/lv_obj_style_gen.h **** 
 259:Drivers/lvgl/lvgl/src/extra/widgets/meter/../../../../src/core/lv_obj_style_gen.h **** static inline lv_border_side_t lv_obj_get_style_border_side(const struct _lv_obj_t * obj, uint32_t 
 260:Drivers/lvgl/lvgl/src/extra/widgets/meter/../../../../src/core/lv_obj_style_gen.h **** {
 261:Drivers/lvgl/lvgl/src/extra/widgets/meter/../../../../src/core/lv_obj_style_gen.h ****     lv_style_value_t v = lv_obj_get_style_prop(obj, part, LV_STYLE_BORDER_SIDE);
 262:Drivers/lvgl/lvgl/src/extra/widgets/meter/../../../../src/core/lv_obj_style_gen.h ****     return (lv_border_side_t)v.num;
 263:Drivers/lvgl/lvgl/src/extra/widgets/meter/../../../../src/core/lv_obj_style_gen.h **** }
 264:Drivers/lvgl/lvgl/src/extra/widgets/meter/../../../../src/core/lv_obj_style_gen.h **** 
 265:Drivers/lvgl/lvgl/src/extra/widgets/meter/../../../../src/core/lv_obj_style_gen.h **** static inline bool lv_obj_get_style_border_post(const struct _lv_obj_t * obj, uint32_t part)
 266:Drivers/lvgl/lvgl/src/extra/widgets/meter/../../../../src/core/lv_obj_style_gen.h **** {
 267:Drivers/lvgl/lvgl/src/extra/widgets/meter/../../../../src/core/lv_obj_style_gen.h ****     lv_style_value_t v = lv_obj_get_style_prop(obj, part, LV_STYLE_BORDER_POST);
 268:Drivers/lvgl/lvgl/src/extra/widgets/meter/../../../../src/core/lv_obj_style_gen.h ****     return (bool)v.num;
 269:Drivers/lvgl/lvgl/src/extra/widgets/meter/../../../../src/core/lv_obj_style_gen.h **** }
 270:Drivers/lvgl/lvgl/src/extra/widgets/meter/../../../../src/core/lv_obj_style_gen.h **** 
 271:Drivers/lvgl/lvgl/src/extra/widgets/meter/../../../../src/core/lv_obj_style_gen.h **** static inline lv_coord_t lv_obj_get_style_outline_width(const struct _lv_obj_t * obj, uint32_t part
 272:Drivers/lvgl/lvgl/src/extra/widgets/meter/../../../../src/core/lv_obj_style_gen.h **** {
 273:Drivers/lvgl/lvgl/src/extra/widgets/meter/../../../../src/core/lv_obj_style_gen.h ****     lv_style_value_t v = lv_obj_get_style_prop(obj, part, LV_STYLE_OUTLINE_WIDTH);
 274:Drivers/lvgl/lvgl/src/extra/widgets/meter/../../../../src/core/lv_obj_style_gen.h ****     return (lv_coord_t)v.num;
 275:Drivers/lvgl/lvgl/src/extra/widgets/meter/../../../../src/core/lv_obj_style_gen.h **** }
 276:Drivers/lvgl/lvgl/src/extra/widgets/meter/../../../../src/core/lv_obj_style_gen.h **** 
 277:Drivers/lvgl/lvgl/src/extra/widgets/meter/../../../../src/core/lv_obj_style_gen.h **** static inline lv_color_t lv_obj_get_style_outline_color(const struct _lv_obj_t * obj, uint32_t part
 278:Drivers/lvgl/lvgl/src/extra/widgets/meter/../../../../src/core/lv_obj_style_gen.h **** {
 279:Drivers/lvgl/lvgl/src/extra/widgets/meter/../../../../src/core/lv_obj_style_gen.h ****     lv_style_value_t v = lv_obj_get_style_prop(obj, part, LV_STYLE_OUTLINE_COLOR);
 280:Drivers/lvgl/lvgl/src/extra/widgets/meter/../../../../src/core/lv_obj_style_gen.h ****     return v.color;
 281:Drivers/lvgl/lvgl/src/extra/widgets/meter/../../../../src/core/lv_obj_style_gen.h **** }
 282:Drivers/lvgl/lvgl/src/extra/widgets/meter/../../../../src/core/lv_obj_style_gen.h **** 
 283:Drivers/lvgl/lvgl/src/extra/widgets/meter/../../../../src/core/lv_obj_style_gen.h **** static inline lv_color_t lv_obj_get_style_outline_color_filtered(const struct _lv_obj_t * obj, uint
 284:Drivers/lvgl/lvgl/src/extra/widgets/meter/../../../../src/core/lv_obj_style_gen.h **** {
 285:Drivers/lvgl/lvgl/src/extra/widgets/meter/../../../../src/core/lv_obj_style_gen.h ****     lv_style_value_t v = _lv_obj_style_apply_color_filter(obj, part, lv_obj_get_style_prop(obj, par
 286:Drivers/lvgl/lvgl/src/extra/widgets/meter/../../../../src/core/lv_obj_style_gen.h ****     return v.color;
 287:Drivers/lvgl/lvgl/src/extra/widgets/meter/../../../../src/core/lv_obj_style_gen.h **** }
 288:Drivers/lvgl/lvgl/src/extra/widgets/meter/../../../../src/core/lv_obj_style_gen.h **** 
 289:Drivers/lvgl/lvgl/src/extra/widgets/meter/../../../../src/core/lv_obj_style_gen.h **** static inline lv_opa_t lv_obj_get_style_outline_opa(const struct _lv_obj_t * obj, uint32_t part)
 290:Drivers/lvgl/lvgl/src/extra/widgets/meter/../../../../src/core/lv_obj_style_gen.h **** {
 291:Drivers/lvgl/lvgl/src/extra/widgets/meter/../../../../src/core/lv_obj_style_gen.h ****     lv_style_value_t v = lv_obj_get_style_prop(obj, part, LV_STYLE_OUTLINE_OPA);
 292:Drivers/lvgl/lvgl/src/extra/widgets/meter/../../../../src/core/lv_obj_style_gen.h ****     return (lv_opa_t)v.num;
 293:Drivers/lvgl/lvgl/src/extra/widgets/meter/../../../../src/core/lv_obj_style_gen.h **** }
 294:Drivers/lvgl/lvgl/src/extra/widgets/meter/../../../../src/core/lv_obj_style_gen.h **** 
 295:Drivers/lvgl/lvgl/src/extra/widgets/meter/../../../../src/core/lv_obj_style_gen.h **** static inline lv_coord_t lv_obj_get_style_outline_pad(const struct _lv_obj_t * obj, uint32_t part)
 296:Drivers/lvgl/lvgl/src/extra/widgets/meter/../../../../src/core/lv_obj_style_gen.h **** {
 297:Drivers/lvgl/lvgl/src/extra/widgets/meter/../../../../src/core/lv_obj_style_gen.h ****     lv_style_value_t v = lv_obj_get_style_prop(obj, part, LV_STYLE_OUTLINE_PAD);
ARM GAS  /tmp/ccVvrzYL.s 			page 13


 298:Drivers/lvgl/lvgl/src/extra/widgets/meter/../../../../src/core/lv_obj_style_gen.h ****     return (lv_coord_t)v.num;
 299:Drivers/lvgl/lvgl/src/extra/widgets/meter/../../../../src/core/lv_obj_style_gen.h **** }
 300:Drivers/lvgl/lvgl/src/extra/widgets/meter/../../../../src/core/lv_obj_style_gen.h **** 
 301:Drivers/lvgl/lvgl/src/extra/widgets/meter/../../../../src/core/lv_obj_style_gen.h **** static inline lv_coord_t lv_obj_get_style_shadow_width(const struct _lv_obj_t * obj, uint32_t part)
 302:Drivers/lvgl/lvgl/src/extra/widgets/meter/../../../../src/core/lv_obj_style_gen.h **** {
 303:Drivers/lvgl/lvgl/src/extra/widgets/meter/../../../../src/core/lv_obj_style_gen.h ****     lv_style_value_t v = lv_obj_get_style_prop(obj, part, LV_STYLE_SHADOW_WIDTH);
 304:Drivers/lvgl/lvgl/src/extra/widgets/meter/../../../../src/core/lv_obj_style_gen.h ****     return (lv_coord_t)v.num;
 305:Drivers/lvgl/lvgl/src/extra/widgets/meter/../../../../src/core/lv_obj_style_gen.h **** }
 306:Drivers/lvgl/lvgl/src/extra/widgets/meter/../../../../src/core/lv_obj_style_gen.h **** 
 307:Drivers/lvgl/lvgl/src/extra/widgets/meter/../../../../src/core/lv_obj_style_gen.h **** static inline lv_coord_t lv_obj_get_style_shadow_ofs_x(const struct _lv_obj_t * obj, uint32_t part)
 308:Drivers/lvgl/lvgl/src/extra/widgets/meter/../../../../src/core/lv_obj_style_gen.h **** {
 309:Drivers/lvgl/lvgl/src/extra/widgets/meter/../../../../src/core/lv_obj_style_gen.h ****     lv_style_value_t v = lv_obj_get_style_prop(obj, part, LV_STYLE_SHADOW_OFS_X);
 310:Drivers/lvgl/lvgl/src/extra/widgets/meter/../../../../src/core/lv_obj_style_gen.h ****     return (lv_coord_t)v.num;
 311:Drivers/lvgl/lvgl/src/extra/widgets/meter/../../../../src/core/lv_obj_style_gen.h **** }
 312:Drivers/lvgl/lvgl/src/extra/widgets/meter/../../../../src/core/lv_obj_style_gen.h **** 
 313:Drivers/lvgl/lvgl/src/extra/widgets/meter/../../../../src/core/lv_obj_style_gen.h **** static inline lv_coord_t lv_obj_get_style_shadow_ofs_y(const struct _lv_obj_t * obj, uint32_t part)
 314:Drivers/lvgl/lvgl/src/extra/widgets/meter/../../../../src/core/lv_obj_style_gen.h **** {
 315:Drivers/lvgl/lvgl/src/extra/widgets/meter/../../../../src/core/lv_obj_style_gen.h ****     lv_style_value_t v = lv_obj_get_style_prop(obj, part, LV_STYLE_SHADOW_OFS_Y);
 316:Drivers/lvgl/lvgl/src/extra/widgets/meter/../../../../src/core/lv_obj_style_gen.h ****     return (lv_coord_t)v.num;
 317:Drivers/lvgl/lvgl/src/extra/widgets/meter/../../../../src/core/lv_obj_style_gen.h **** }
 318:Drivers/lvgl/lvgl/src/extra/widgets/meter/../../../../src/core/lv_obj_style_gen.h **** 
 319:Drivers/lvgl/lvgl/src/extra/widgets/meter/../../../../src/core/lv_obj_style_gen.h **** static inline lv_coord_t lv_obj_get_style_shadow_spread(const struct _lv_obj_t * obj, uint32_t part
 320:Drivers/lvgl/lvgl/src/extra/widgets/meter/../../../../src/core/lv_obj_style_gen.h **** {
 321:Drivers/lvgl/lvgl/src/extra/widgets/meter/../../../../src/core/lv_obj_style_gen.h ****     lv_style_value_t v = lv_obj_get_style_prop(obj, part, LV_STYLE_SHADOW_SPREAD);
 322:Drivers/lvgl/lvgl/src/extra/widgets/meter/../../../../src/core/lv_obj_style_gen.h ****     return (lv_coord_t)v.num;
 323:Drivers/lvgl/lvgl/src/extra/widgets/meter/../../../../src/core/lv_obj_style_gen.h **** }
 324:Drivers/lvgl/lvgl/src/extra/widgets/meter/../../../../src/core/lv_obj_style_gen.h **** 
 325:Drivers/lvgl/lvgl/src/extra/widgets/meter/../../../../src/core/lv_obj_style_gen.h **** static inline lv_color_t lv_obj_get_style_shadow_color(const struct _lv_obj_t * obj, uint32_t part)
 326:Drivers/lvgl/lvgl/src/extra/widgets/meter/../../../../src/core/lv_obj_style_gen.h **** {
 327:Drivers/lvgl/lvgl/src/extra/widgets/meter/../../../../src/core/lv_obj_style_gen.h ****     lv_style_value_t v = lv_obj_get_style_prop(obj, part, LV_STYLE_SHADOW_COLOR);
 328:Drivers/lvgl/lvgl/src/extra/widgets/meter/../../../../src/core/lv_obj_style_gen.h ****     return v.color;
 329:Drivers/lvgl/lvgl/src/extra/widgets/meter/../../../../src/core/lv_obj_style_gen.h **** }
 330:Drivers/lvgl/lvgl/src/extra/widgets/meter/../../../../src/core/lv_obj_style_gen.h **** 
 331:Drivers/lvgl/lvgl/src/extra/widgets/meter/../../../../src/core/lv_obj_style_gen.h **** static inline lv_color_t lv_obj_get_style_shadow_color_filtered(const struct _lv_obj_t * obj, uint3
 332:Drivers/lvgl/lvgl/src/extra/widgets/meter/../../../../src/core/lv_obj_style_gen.h **** {
 333:Drivers/lvgl/lvgl/src/extra/widgets/meter/../../../../src/core/lv_obj_style_gen.h ****     lv_style_value_t v = _lv_obj_style_apply_color_filter(obj, part, lv_obj_get_style_prop(obj, par
 334:Drivers/lvgl/lvgl/src/extra/widgets/meter/../../../../src/core/lv_obj_style_gen.h ****     return v.color;
 335:Drivers/lvgl/lvgl/src/extra/widgets/meter/../../../../src/core/lv_obj_style_gen.h **** }
 336:Drivers/lvgl/lvgl/src/extra/widgets/meter/../../../../src/core/lv_obj_style_gen.h **** 
 337:Drivers/lvgl/lvgl/src/extra/widgets/meter/../../../../src/core/lv_obj_style_gen.h **** static inline lv_opa_t lv_obj_get_style_shadow_opa(const struct _lv_obj_t * obj, uint32_t part)
 338:Drivers/lvgl/lvgl/src/extra/widgets/meter/../../../../src/core/lv_obj_style_gen.h **** {
 339:Drivers/lvgl/lvgl/src/extra/widgets/meter/../../../../src/core/lv_obj_style_gen.h ****     lv_style_value_t v = lv_obj_get_style_prop(obj, part, LV_STYLE_SHADOW_OPA);
 340:Drivers/lvgl/lvgl/src/extra/widgets/meter/../../../../src/core/lv_obj_style_gen.h ****     return (lv_opa_t)v.num;
 341:Drivers/lvgl/lvgl/src/extra/widgets/meter/../../../../src/core/lv_obj_style_gen.h **** }
 342:Drivers/lvgl/lvgl/src/extra/widgets/meter/../../../../src/core/lv_obj_style_gen.h **** 
 343:Drivers/lvgl/lvgl/src/extra/widgets/meter/../../../../src/core/lv_obj_style_gen.h **** static inline lv_opa_t lv_obj_get_style_img_opa(const struct _lv_obj_t * obj, uint32_t part)
 344:Drivers/lvgl/lvgl/src/extra/widgets/meter/../../../../src/core/lv_obj_style_gen.h **** {
 345:Drivers/lvgl/lvgl/src/extra/widgets/meter/../../../../src/core/lv_obj_style_gen.h ****     lv_style_value_t v = lv_obj_get_style_prop(obj, part, LV_STYLE_IMG_OPA);
 346:Drivers/lvgl/lvgl/src/extra/widgets/meter/../../../../src/core/lv_obj_style_gen.h ****     return (lv_opa_t)v.num;
 347:Drivers/lvgl/lvgl/src/extra/widgets/meter/../../../../src/core/lv_obj_style_gen.h **** }
 348:Drivers/lvgl/lvgl/src/extra/widgets/meter/../../../../src/core/lv_obj_style_gen.h **** 
 349:Drivers/lvgl/lvgl/src/extra/widgets/meter/../../../../src/core/lv_obj_style_gen.h **** static inline lv_color_t lv_obj_get_style_img_recolor(const struct _lv_obj_t * obj, uint32_t part)
 350:Drivers/lvgl/lvgl/src/extra/widgets/meter/../../../../src/core/lv_obj_style_gen.h **** {
 351:Drivers/lvgl/lvgl/src/extra/widgets/meter/../../../../src/core/lv_obj_style_gen.h ****     lv_style_value_t v = lv_obj_get_style_prop(obj, part, LV_STYLE_IMG_RECOLOR);
 352:Drivers/lvgl/lvgl/src/extra/widgets/meter/../../../../src/core/lv_obj_style_gen.h ****     return v.color;
 353:Drivers/lvgl/lvgl/src/extra/widgets/meter/../../../../src/core/lv_obj_style_gen.h **** }
 354:Drivers/lvgl/lvgl/src/extra/widgets/meter/../../../../src/core/lv_obj_style_gen.h **** 
ARM GAS  /tmp/ccVvrzYL.s 			page 14


 355:Drivers/lvgl/lvgl/src/extra/widgets/meter/../../../../src/core/lv_obj_style_gen.h **** static inline lv_color_t lv_obj_get_style_img_recolor_filtered(const struct _lv_obj_t * obj, uint32
 356:Drivers/lvgl/lvgl/src/extra/widgets/meter/../../../../src/core/lv_obj_style_gen.h **** {
 357:Drivers/lvgl/lvgl/src/extra/widgets/meter/../../../../src/core/lv_obj_style_gen.h ****     lv_style_value_t v = _lv_obj_style_apply_color_filter(obj, part, lv_obj_get_style_prop(obj, par
 358:Drivers/lvgl/lvgl/src/extra/widgets/meter/../../../../src/core/lv_obj_style_gen.h ****     return v.color;
 359:Drivers/lvgl/lvgl/src/extra/widgets/meter/../../../../src/core/lv_obj_style_gen.h **** }
 360:Drivers/lvgl/lvgl/src/extra/widgets/meter/../../../../src/core/lv_obj_style_gen.h **** 
 361:Drivers/lvgl/lvgl/src/extra/widgets/meter/../../../../src/core/lv_obj_style_gen.h **** static inline lv_opa_t lv_obj_get_style_img_recolor_opa(const struct _lv_obj_t * obj, uint32_t part
 362:Drivers/lvgl/lvgl/src/extra/widgets/meter/../../../../src/core/lv_obj_style_gen.h **** {
 363:Drivers/lvgl/lvgl/src/extra/widgets/meter/../../../../src/core/lv_obj_style_gen.h ****     lv_style_value_t v = lv_obj_get_style_prop(obj, part, LV_STYLE_IMG_RECOLOR_OPA);
 364:Drivers/lvgl/lvgl/src/extra/widgets/meter/../../../../src/core/lv_obj_style_gen.h ****     return (lv_opa_t)v.num;
 365:Drivers/lvgl/lvgl/src/extra/widgets/meter/../../../../src/core/lv_obj_style_gen.h **** }
 366:Drivers/lvgl/lvgl/src/extra/widgets/meter/../../../../src/core/lv_obj_style_gen.h **** 
 367:Drivers/lvgl/lvgl/src/extra/widgets/meter/../../../../src/core/lv_obj_style_gen.h **** static inline lv_coord_t lv_obj_get_style_line_width(const struct _lv_obj_t * obj, uint32_t part)
 368:Drivers/lvgl/lvgl/src/extra/widgets/meter/../../../../src/core/lv_obj_style_gen.h **** {
 369:Drivers/lvgl/lvgl/src/extra/widgets/meter/../../../../src/core/lv_obj_style_gen.h ****     lv_style_value_t v = lv_obj_get_style_prop(obj, part, LV_STYLE_LINE_WIDTH);
 370:Drivers/lvgl/lvgl/src/extra/widgets/meter/../../../../src/core/lv_obj_style_gen.h ****     return (lv_coord_t)v.num;
 371:Drivers/lvgl/lvgl/src/extra/widgets/meter/../../../../src/core/lv_obj_style_gen.h **** }
 372:Drivers/lvgl/lvgl/src/extra/widgets/meter/../../../../src/core/lv_obj_style_gen.h **** 
 373:Drivers/lvgl/lvgl/src/extra/widgets/meter/../../../../src/core/lv_obj_style_gen.h **** static inline lv_coord_t lv_obj_get_style_line_dash_width(const struct _lv_obj_t * obj, uint32_t pa
 374:Drivers/lvgl/lvgl/src/extra/widgets/meter/../../../../src/core/lv_obj_style_gen.h **** {
 375:Drivers/lvgl/lvgl/src/extra/widgets/meter/../../../../src/core/lv_obj_style_gen.h ****     lv_style_value_t v = lv_obj_get_style_prop(obj, part, LV_STYLE_LINE_DASH_WIDTH);
 376:Drivers/lvgl/lvgl/src/extra/widgets/meter/../../../../src/core/lv_obj_style_gen.h ****     return (lv_coord_t)v.num;
 377:Drivers/lvgl/lvgl/src/extra/widgets/meter/../../../../src/core/lv_obj_style_gen.h **** }
 378:Drivers/lvgl/lvgl/src/extra/widgets/meter/../../../../src/core/lv_obj_style_gen.h **** 
 379:Drivers/lvgl/lvgl/src/extra/widgets/meter/../../../../src/core/lv_obj_style_gen.h **** static inline lv_coord_t lv_obj_get_style_line_dash_gap(const struct _lv_obj_t * obj, uint32_t part
 380:Drivers/lvgl/lvgl/src/extra/widgets/meter/../../../../src/core/lv_obj_style_gen.h **** {
 381:Drivers/lvgl/lvgl/src/extra/widgets/meter/../../../../src/core/lv_obj_style_gen.h ****     lv_style_value_t v = lv_obj_get_style_prop(obj, part, LV_STYLE_LINE_DASH_GAP);
 382:Drivers/lvgl/lvgl/src/extra/widgets/meter/../../../../src/core/lv_obj_style_gen.h ****     return (lv_coord_t)v.num;
 383:Drivers/lvgl/lvgl/src/extra/widgets/meter/../../../../src/core/lv_obj_style_gen.h **** }
 384:Drivers/lvgl/lvgl/src/extra/widgets/meter/../../../../src/core/lv_obj_style_gen.h **** 
 385:Drivers/lvgl/lvgl/src/extra/widgets/meter/../../../../src/core/lv_obj_style_gen.h **** static inline bool lv_obj_get_style_line_rounded(const struct _lv_obj_t * obj, uint32_t part)
 386:Drivers/lvgl/lvgl/src/extra/widgets/meter/../../../../src/core/lv_obj_style_gen.h **** {
 387:Drivers/lvgl/lvgl/src/extra/widgets/meter/../../../../src/core/lv_obj_style_gen.h ****     lv_style_value_t v = lv_obj_get_style_prop(obj, part, LV_STYLE_LINE_ROUNDED);
 388:Drivers/lvgl/lvgl/src/extra/widgets/meter/../../../../src/core/lv_obj_style_gen.h ****     return (bool)v.num;
 389:Drivers/lvgl/lvgl/src/extra/widgets/meter/../../../../src/core/lv_obj_style_gen.h **** }
 390:Drivers/lvgl/lvgl/src/extra/widgets/meter/../../../../src/core/lv_obj_style_gen.h **** 
 391:Drivers/lvgl/lvgl/src/extra/widgets/meter/../../../../src/core/lv_obj_style_gen.h **** static inline lv_color_t lv_obj_get_style_line_color(const struct _lv_obj_t * obj, uint32_t part)
 392:Drivers/lvgl/lvgl/src/extra/widgets/meter/../../../../src/core/lv_obj_style_gen.h **** {
 393:Drivers/lvgl/lvgl/src/extra/widgets/meter/../../../../src/core/lv_obj_style_gen.h ****     lv_style_value_t v = lv_obj_get_style_prop(obj, part, LV_STYLE_LINE_COLOR);
 394:Drivers/lvgl/lvgl/src/extra/widgets/meter/../../../../src/core/lv_obj_style_gen.h ****     return v.color;
 395:Drivers/lvgl/lvgl/src/extra/widgets/meter/../../../../src/core/lv_obj_style_gen.h **** }
 396:Drivers/lvgl/lvgl/src/extra/widgets/meter/../../../../src/core/lv_obj_style_gen.h **** 
 397:Drivers/lvgl/lvgl/src/extra/widgets/meter/../../../../src/core/lv_obj_style_gen.h **** static inline lv_color_t lv_obj_get_style_line_color_filtered(const struct _lv_obj_t * obj, uint32_
 398:Drivers/lvgl/lvgl/src/extra/widgets/meter/../../../../src/core/lv_obj_style_gen.h **** {
 399:Drivers/lvgl/lvgl/src/extra/widgets/meter/../../../../src/core/lv_obj_style_gen.h ****     lv_style_value_t v = _lv_obj_style_apply_color_filter(obj, part, lv_obj_get_style_prop(obj, par
 400:Drivers/lvgl/lvgl/src/extra/widgets/meter/../../../../src/core/lv_obj_style_gen.h ****     return v.color;
 401:Drivers/lvgl/lvgl/src/extra/widgets/meter/../../../../src/core/lv_obj_style_gen.h **** }
 402:Drivers/lvgl/lvgl/src/extra/widgets/meter/../../../../src/core/lv_obj_style_gen.h **** 
 403:Drivers/lvgl/lvgl/src/extra/widgets/meter/../../../../src/core/lv_obj_style_gen.h **** static inline lv_opa_t lv_obj_get_style_line_opa(const struct _lv_obj_t * obj, uint32_t part)
 404:Drivers/lvgl/lvgl/src/extra/widgets/meter/../../../../src/core/lv_obj_style_gen.h **** {
 405:Drivers/lvgl/lvgl/src/extra/widgets/meter/../../../../src/core/lv_obj_style_gen.h ****     lv_style_value_t v = lv_obj_get_style_prop(obj, part, LV_STYLE_LINE_OPA);
 406:Drivers/lvgl/lvgl/src/extra/widgets/meter/../../../../src/core/lv_obj_style_gen.h ****     return (lv_opa_t)v.num;
 407:Drivers/lvgl/lvgl/src/extra/widgets/meter/../../../../src/core/lv_obj_style_gen.h **** }
 408:Drivers/lvgl/lvgl/src/extra/widgets/meter/../../../../src/core/lv_obj_style_gen.h **** 
 409:Drivers/lvgl/lvgl/src/extra/widgets/meter/../../../../src/core/lv_obj_style_gen.h **** static inline lv_coord_t lv_obj_get_style_arc_width(const struct _lv_obj_t * obj, uint32_t part)
 410:Drivers/lvgl/lvgl/src/extra/widgets/meter/../../../../src/core/lv_obj_style_gen.h **** {
 411:Drivers/lvgl/lvgl/src/extra/widgets/meter/../../../../src/core/lv_obj_style_gen.h ****     lv_style_value_t v = lv_obj_get_style_prop(obj, part, LV_STYLE_ARC_WIDTH);
ARM GAS  /tmp/ccVvrzYL.s 			page 15


 412:Drivers/lvgl/lvgl/src/extra/widgets/meter/../../../../src/core/lv_obj_style_gen.h ****     return (lv_coord_t)v.num;
 413:Drivers/lvgl/lvgl/src/extra/widgets/meter/../../../../src/core/lv_obj_style_gen.h **** }
 414:Drivers/lvgl/lvgl/src/extra/widgets/meter/../../../../src/core/lv_obj_style_gen.h **** 
 415:Drivers/lvgl/lvgl/src/extra/widgets/meter/../../../../src/core/lv_obj_style_gen.h **** static inline bool lv_obj_get_style_arc_rounded(const struct _lv_obj_t * obj, uint32_t part)
 416:Drivers/lvgl/lvgl/src/extra/widgets/meter/../../../../src/core/lv_obj_style_gen.h **** {
 417:Drivers/lvgl/lvgl/src/extra/widgets/meter/../../../../src/core/lv_obj_style_gen.h ****     lv_style_value_t v = lv_obj_get_style_prop(obj, part, LV_STYLE_ARC_ROUNDED);
  58              		.loc 2 417 0
  59 0012 5122     		movs	r2, #81
  60 0014 4FF4A021 		mov	r1, #327680
  61 0018 4046     		mov	r0, r8
  62 001a FFF7FEFF 		bl	lv_obj_get_style_prop
  63              	.LVL4:
 418:Drivers/lvgl/lvgl/src/extra/widgets/meter/../../../../src/core/lv_obj_style_gen.h ****     return (bool)v.num;
  64              		.loc 2 418 0
  65 001e 0030     		adds	r0, r0, #0
  66 0020 18BF     		it	ne
  67 0022 0120     		movne	r0, #1
  68              	.LVL5:
  69              	.LBE50:
  70              	.LBE49:
 332:Drivers/lvgl/lvgl/src/extra/widgets/meter/lv_meter.c ****     arc_dsc.rounded = lv_obj_get_style_arc_rounded(obj, LV_PART_ITEMS);
  71              		.loc 1 332 0
  72 0024 9DF86D30 		ldrb	r3, [sp, #109]	@ zero_extendqisi2
  73 0028 60F38203 		bfi	r3, r0, #2, #1
  74 002c 8DF86D30 		strb	r3, [sp, #109]
  75              	.LVL6:
  76              	.LBB51:
  77              	.LBB52:
  78              		.file 3 "Drivers/lvgl/lvgl/src/extra/widgets/meter/../../../../src/hal/../draw/../misc/../font/../
   1:Drivers/lvgl/lvgl/src/extra/widgets/meter/../../../../src/hal/../draw/../misc/../font/../misc/lv_area.h **** /**
   2:Drivers/lvgl/lvgl/src/extra/widgets/meter/../../../../src/hal/../draw/../misc/../font/../misc/lv_area.h ****  * @file lv_area.h
   3:Drivers/lvgl/lvgl/src/extra/widgets/meter/../../../../src/hal/../draw/../misc/../font/../misc/lv_area.h ****  *
   4:Drivers/lvgl/lvgl/src/extra/widgets/meter/../../../../src/hal/../draw/../misc/../font/../misc/lv_area.h ****  */
   5:Drivers/lvgl/lvgl/src/extra/widgets/meter/../../../../src/hal/../draw/../misc/../font/../misc/lv_area.h **** 
   6:Drivers/lvgl/lvgl/src/extra/widgets/meter/../../../../src/hal/../draw/../misc/../font/../misc/lv_area.h **** #ifndef LV_AREA_H
   7:Drivers/lvgl/lvgl/src/extra/widgets/meter/../../../../src/hal/../draw/../misc/../font/../misc/lv_area.h **** #define LV_AREA_H
   8:Drivers/lvgl/lvgl/src/extra/widgets/meter/../../../../src/hal/../draw/../misc/../font/../misc/lv_area.h **** 
   9:Drivers/lvgl/lvgl/src/extra/widgets/meter/../../../../src/hal/../draw/../misc/../font/../misc/lv_area.h **** #ifdef __cplusplus
  10:Drivers/lvgl/lvgl/src/extra/widgets/meter/../../../../src/hal/../draw/../misc/../font/../misc/lv_area.h **** extern "C" {
  11:Drivers/lvgl/lvgl/src/extra/widgets/meter/../../../../src/hal/../draw/../misc/../font/../misc/lv_area.h **** #endif
  12:Drivers/lvgl/lvgl/src/extra/widgets/meter/../../../../src/hal/../draw/../misc/../font/../misc/lv_area.h **** 
  13:Drivers/lvgl/lvgl/src/extra/widgets/meter/../../../../src/hal/../draw/../misc/../font/../misc/lv_area.h **** /*********************
  14:Drivers/lvgl/lvgl/src/extra/widgets/meter/../../../../src/hal/../draw/../misc/../font/../misc/lv_area.h ****  *      INCLUDES
  15:Drivers/lvgl/lvgl/src/extra/widgets/meter/../../../../src/hal/../draw/../misc/../font/../misc/lv_area.h ****  *********************/
  16:Drivers/lvgl/lvgl/src/extra/widgets/meter/../../../../src/hal/../draw/../misc/../font/../misc/lv_area.h **** #include "../lv_conf_internal.h"
  17:Drivers/lvgl/lvgl/src/extra/widgets/meter/../../../../src/hal/../draw/../misc/../font/../misc/lv_area.h **** #include <stdbool.h>
  18:Drivers/lvgl/lvgl/src/extra/widgets/meter/../../../../src/hal/../draw/../misc/../font/../misc/lv_area.h **** #include <stdint.h>
  19:Drivers/lvgl/lvgl/src/extra/widgets/meter/../../../../src/hal/../draw/../misc/../font/../misc/lv_area.h **** 
  20:Drivers/lvgl/lvgl/src/extra/widgets/meter/../../../../src/hal/../draw/../misc/../font/../misc/lv_area.h **** /*********************
  21:Drivers/lvgl/lvgl/src/extra/widgets/meter/../../../../src/hal/../draw/../misc/../font/../misc/lv_area.h ****  *      DEFINES
  22:Drivers/lvgl/lvgl/src/extra/widgets/meter/../../../../src/hal/../draw/../misc/../font/../misc/lv_area.h ****  *********************/
  23:Drivers/lvgl/lvgl/src/extra/widgets/meter/../../../../src/hal/../draw/../misc/../font/../misc/lv_area.h **** 
  24:Drivers/lvgl/lvgl/src/extra/widgets/meter/../../../../src/hal/../draw/../misc/../font/../misc/lv_area.h **** #if LV_USE_LARGE_COORD
  25:Drivers/lvgl/lvgl/src/extra/widgets/meter/../../../../src/hal/../draw/../misc/../font/../misc/lv_area.h **** typedef int32_t lv_coord_t;
  26:Drivers/lvgl/lvgl/src/extra/widgets/meter/../../../../src/hal/../draw/../misc/../font/../misc/lv_area.h **** #else
  27:Drivers/lvgl/lvgl/src/extra/widgets/meter/../../../../src/hal/../draw/../misc/../font/../misc/lv_area.h **** typedef int16_t lv_coord_t;
  28:Drivers/lvgl/lvgl/src/extra/widgets/meter/../../../../src/hal/../draw/../misc/../font/../misc/lv_area.h **** #endif
ARM GAS  /tmp/ccVvrzYL.s 			page 16


  29:Drivers/lvgl/lvgl/src/extra/widgets/meter/../../../../src/hal/../draw/../misc/../font/../misc/lv_area.h **** 
  30:Drivers/lvgl/lvgl/src/extra/widgets/meter/../../../../src/hal/../draw/../misc/../font/../misc/lv_area.h **** /**********************
  31:Drivers/lvgl/lvgl/src/extra/widgets/meter/../../../../src/hal/../draw/../misc/../font/../misc/lv_area.h ****  *      TYPEDEFS
  32:Drivers/lvgl/lvgl/src/extra/widgets/meter/../../../../src/hal/../draw/../misc/../font/../misc/lv_area.h ****  **********************/
  33:Drivers/lvgl/lvgl/src/extra/widgets/meter/../../../../src/hal/../draw/../misc/../font/../misc/lv_area.h **** 
  34:Drivers/lvgl/lvgl/src/extra/widgets/meter/../../../../src/hal/../draw/../misc/../font/../misc/lv_area.h **** /**
  35:Drivers/lvgl/lvgl/src/extra/widgets/meter/../../../../src/hal/../draw/../misc/../font/../misc/lv_area.h ****  * Represents a point on the screen.
  36:Drivers/lvgl/lvgl/src/extra/widgets/meter/../../../../src/hal/../draw/../misc/../font/../misc/lv_area.h ****  */
  37:Drivers/lvgl/lvgl/src/extra/widgets/meter/../../../../src/hal/../draw/../misc/../font/../misc/lv_area.h **** typedef struct {
  38:Drivers/lvgl/lvgl/src/extra/widgets/meter/../../../../src/hal/../draw/../misc/../font/../misc/lv_area.h ****     lv_coord_t x;
  39:Drivers/lvgl/lvgl/src/extra/widgets/meter/../../../../src/hal/../draw/../misc/../font/../misc/lv_area.h ****     lv_coord_t y;
  40:Drivers/lvgl/lvgl/src/extra/widgets/meter/../../../../src/hal/../draw/../misc/../font/../misc/lv_area.h **** } lv_point_t;
  41:Drivers/lvgl/lvgl/src/extra/widgets/meter/../../../../src/hal/../draw/../misc/../font/../misc/lv_area.h **** 
  42:Drivers/lvgl/lvgl/src/extra/widgets/meter/../../../../src/hal/../draw/../misc/../font/../misc/lv_area.h **** /** Represents an area of the screen.*/
  43:Drivers/lvgl/lvgl/src/extra/widgets/meter/../../../../src/hal/../draw/../misc/../font/../misc/lv_area.h **** typedef struct {
  44:Drivers/lvgl/lvgl/src/extra/widgets/meter/../../../../src/hal/../draw/../misc/../font/../misc/lv_area.h ****     lv_coord_t x1;
  45:Drivers/lvgl/lvgl/src/extra/widgets/meter/../../../../src/hal/../draw/../misc/../font/../misc/lv_area.h ****     lv_coord_t y1;
  46:Drivers/lvgl/lvgl/src/extra/widgets/meter/../../../../src/hal/../draw/../misc/../font/../misc/lv_area.h ****     lv_coord_t x2;
  47:Drivers/lvgl/lvgl/src/extra/widgets/meter/../../../../src/hal/../draw/../misc/../font/../misc/lv_area.h ****     lv_coord_t y2;
  48:Drivers/lvgl/lvgl/src/extra/widgets/meter/../../../../src/hal/../draw/../misc/../font/../misc/lv_area.h **** } lv_area_t;
  49:Drivers/lvgl/lvgl/src/extra/widgets/meter/../../../../src/hal/../draw/../misc/../font/../misc/lv_area.h **** 
  50:Drivers/lvgl/lvgl/src/extra/widgets/meter/../../../../src/hal/../draw/../misc/../font/../misc/lv_area.h **** /** Alignments*/
  51:Drivers/lvgl/lvgl/src/extra/widgets/meter/../../../../src/hal/../draw/../misc/../font/../misc/lv_area.h **** enum {
  52:Drivers/lvgl/lvgl/src/extra/widgets/meter/../../../../src/hal/../draw/../misc/../font/../misc/lv_area.h ****     LV_ALIGN_DEFAULT = 0,
  53:Drivers/lvgl/lvgl/src/extra/widgets/meter/../../../../src/hal/../draw/../misc/../font/../misc/lv_area.h ****     LV_ALIGN_TOP_LEFT,
  54:Drivers/lvgl/lvgl/src/extra/widgets/meter/../../../../src/hal/../draw/../misc/../font/../misc/lv_area.h ****     LV_ALIGN_TOP_MID,
  55:Drivers/lvgl/lvgl/src/extra/widgets/meter/../../../../src/hal/../draw/../misc/../font/../misc/lv_area.h ****     LV_ALIGN_TOP_RIGHT,
  56:Drivers/lvgl/lvgl/src/extra/widgets/meter/../../../../src/hal/../draw/../misc/../font/../misc/lv_area.h ****     LV_ALIGN_BOTTOM_LEFT,
  57:Drivers/lvgl/lvgl/src/extra/widgets/meter/../../../../src/hal/../draw/../misc/../font/../misc/lv_area.h ****     LV_ALIGN_BOTTOM_MID,
  58:Drivers/lvgl/lvgl/src/extra/widgets/meter/../../../../src/hal/../draw/../misc/../font/../misc/lv_area.h ****     LV_ALIGN_BOTTOM_RIGHT,
  59:Drivers/lvgl/lvgl/src/extra/widgets/meter/../../../../src/hal/../draw/../misc/../font/../misc/lv_area.h ****     LV_ALIGN_LEFT_MID,
  60:Drivers/lvgl/lvgl/src/extra/widgets/meter/../../../../src/hal/../draw/../misc/../font/../misc/lv_area.h ****     LV_ALIGN_RIGHT_MID,
  61:Drivers/lvgl/lvgl/src/extra/widgets/meter/../../../../src/hal/../draw/../misc/../font/../misc/lv_area.h ****     LV_ALIGN_CENTER,
  62:Drivers/lvgl/lvgl/src/extra/widgets/meter/../../../../src/hal/../draw/../misc/../font/../misc/lv_area.h **** 
  63:Drivers/lvgl/lvgl/src/extra/widgets/meter/../../../../src/hal/../draw/../misc/../font/../misc/lv_area.h ****     LV_ALIGN_OUT_TOP_LEFT,
  64:Drivers/lvgl/lvgl/src/extra/widgets/meter/../../../../src/hal/../draw/../misc/../font/../misc/lv_area.h ****     LV_ALIGN_OUT_TOP_MID,
  65:Drivers/lvgl/lvgl/src/extra/widgets/meter/../../../../src/hal/../draw/../misc/../font/../misc/lv_area.h ****     LV_ALIGN_OUT_TOP_RIGHT,
  66:Drivers/lvgl/lvgl/src/extra/widgets/meter/../../../../src/hal/../draw/../misc/../font/../misc/lv_area.h ****     LV_ALIGN_OUT_BOTTOM_LEFT,
  67:Drivers/lvgl/lvgl/src/extra/widgets/meter/../../../../src/hal/../draw/../misc/../font/../misc/lv_area.h ****     LV_ALIGN_OUT_BOTTOM_MID,
  68:Drivers/lvgl/lvgl/src/extra/widgets/meter/../../../../src/hal/../draw/../misc/../font/../misc/lv_area.h ****     LV_ALIGN_OUT_BOTTOM_RIGHT,
  69:Drivers/lvgl/lvgl/src/extra/widgets/meter/../../../../src/hal/../draw/../misc/../font/../misc/lv_area.h ****     LV_ALIGN_OUT_LEFT_TOP,
  70:Drivers/lvgl/lvgl/src/extra/widgets/meter/../../../../src/hal/../draw/../misc/../font/../misc/lv_area.h ****     LV_ALIGN_OUT_LEFT_MID,
  71:Drivers/lvgl/lvgl/src/extra/widgets/meter/../../../../src/hal/../draw/../misc/../font/../misc/lv_area.h ****     LV_ALIGN_OUT_LEFT_BOTTOM,
  72:Drivers/lvgl/lvgl/src/extra/widgets/meter/../../../../src/hal/../draw/../misc/../font/../misc/lv_area.h ****     LV_ALIGN_OUT_RIGHT_TOP,
  73:Drivers/lvgl/lvgl/src/extra/widgets/meter/../../../../src/hal/../draw/../misc/../font/../misc/lv_area.h ****     LV_ALIGN_OUT_RIGHT_MID,
  74:Drivers/lvgl/lvgl/src/extra/widgets/meter/../../../../src/hal/../draw/../misc/../font/../misc/lv_area.h ****     LV_ALIGN_OUT_RIGHT_BOTTOM,
  75:Drivers/lvgl/lvgl/src/extra/widgets/meter/../../../../src/hal/../draw/../misc/../font/../misc/lv_area.h **** };
  76:Drivers/lvgl/lvgl/src/extra/widgets/meter/../../../../src/hal/../draw/../misc/../font/../misc/lv_area.h **** typedef uint8_t lv_align_t;
  77:Drivers/lvgl/lvgl/src/extra/widgets/meter/../../../../src/hal/../draw/../misc/../font/../misc/lv_area.h **** 
  78:Drivers/lvgl/lvgl/src/extra/widgets/meter/../../../../src/hal/../draw/../misc/../font/../misc/lv_area.h **** enum {
  79:Drivers/lvgl/lvgl/src/extra/widgets/meter/../../../../src/hal/../draw/../misc/../font/../misc/lv_area.h ****     LV_DIR_NONE     = 0x00,
  80:Drivers/lvgl/lvgl/src/extra/widgets/meter/../../../../src/hal/../draw/../misc/../font/../misc/lv_area.h ****     LV_DIR_LEFT     = (1 << 0),
  81:Drivers/lvgl/lvgl/src/extra/widgets/meter/../../../../src/hal/../draw/../misc/../font/../misc/lv_area.h ****     LV_DIR_RIGHT    = (1 << 1),
  82:Drivers/lvgl/lvgl/src/extra/widgets/meter/../../../../src/hal/../draw/../misc/../font/../misc/lv_area.h ****     LV_DIR_TOP      = (1 << 2),
  83:Drivers/lvgl/lvgl/src/extra/widgets/meter/../../../../src/hal/../draw/../misc/../font/../misc/lv_area.h ****     LV_DIR_BOTTOM   = (1 << 3),
  84:Drivers/lvgl/lvgl/src/extra/widgets/meter/../../../../src/hal/../draw/../misc/../font/../misc/lv_area.h ****     LV_DIR_HOR      = LV_DIR_LEFT | LV_DIR_RIGHT,
  85:Drivers/lvgl/lvgl/src/extra/widgets/meter/../../../../src/hal/../draw/../misc/../font/../misc/lv_area.h ****     LV_DIR_VER      = LV_DIR_TOP | LV_DIR_BOTTOM,
ARM GAS  /tmp/ccVvrzYL.s 			page 17


  86:Drivers/lvgl/lvgl/src/extra/widgets/meter/../../../../src/hal/../draw/../misc/../font/../misc/lv_area.h ****     LV_DIR_ALL      = LV_DIR_HOR | LV_DIR_VER,
  87:Drivers/lvgl/lvgl/src/extra/widgets/meter/../../../../src/hal/../draw/../misc/../font/../misc/lv_area.h **** };
  88:Drivers/lvgl/lvgl/src/extra/widgets/meter/../../../../src/hal/../draw/../misc/../font/../misc/lv_area.h **** 
  89:Drivers/lvgl/lvgl/src/extra/widgets/meter/../../../../src/hal/../draw/../misc/../font/../misc/lv_area.h **** typedef uint8_t lv_dir_t;
  90:Drivers/lvgl/lvgl/src/extra/widgets/meter/../../../../src/hal/../draw/../misc/../font/../misc/lv_area.h **** 
  91:Drivers/lvgl/lvgl/src/extra/widgets/meter/../../../../src/hal/../draw/../misc/../font/../misc/lv_area.h **** /**********************
  92:Drivers/lvgl/lvgl/src/extra/widgets/meter/../../../../src/hal/../draw/../misc/../font/../misc/lv_area.h ****  * GLOBAL PROTOTYPES
  93:Drivers/lvgl/lvgl/src/extra/widgets/meter/../../../../src/hal/../draw/../misc/../font/../misc/lv_area.h ****  **********************/
  94:Drivers/lvgl/lvgl/src/extra/widgets/meter/../../../../src/hal/../draw/../misc/../font/../misc/lv_area.h **** 
  95:Drivers/lvgl/lvgl/src/extra/widgets/meter/../../../../src/hal/../draw/../misc/../font/../misc/lv_area.h **** /**
  96:Drivers/lvgl/lvgl/src/extra/widgets/meter/../../../../src/hal/../draw/../misc/../font/../misc/lv_area.h ****  * Initialize an area
  97:Drivers/lvgl/lvgl/src/extra/widgets/meter/../../../../src/hal/../draw/../misc/../font/../misc/lv_area.h ****  * @param area_p pointer to an area
  98:Drivers/lvgl/lvgl/src/extra/widgets/meter/../../../../src/hal/../draw/../misc/../font/../misc/lv_area.h ****  * @param x1 left coordinate of the area
  99:Drivers/lvgl/lvgl/src/extra/widgets/meter/../../../../src/hal/../draw/../misc/../font/../misc/lv_area.h ****  * @param y1 top coordinate of the area
 100:Drivers/lvgl/lvgl/src/extra/widgets/meter/../../../../src/hal/../draw/../misc/../font/../misc/lv_area.h ****  * @param x2 right coordinate of the area
 101:Drivers/lvgl/lvgl/src/extra/widgets/meter/../../../../src/hal/../draw/../misc/../font/../misc/lv_area.h ****  * @param y2 bottom coordinate of the area
 102:Drivers/lvgl/lvgl/src/extra/widgets/meter/../../../../src/hal/../draw/../misc/../font/../misc/lv_area.h ****  */
 103:Drivers/lvgl/lvgl/src/extra/widgets/meter/../../../../src/hal/../draw/../misc/../font/../misc/lv_area.h **** void lv_area_set(lv_area_t * area_p, lv_coord_t x1, lv_coord_t y1, lv_coord_t x2, lv_coord_t y2);
 104:Drivers/lvgl/lvgl/src/extra/widgets/meter/../../../../src/hal/../draw/../misc/../font/../misc/lv_area.h **** 
 105:Drivers/lvgl/lvgl/src/extra/widgets/meter/../../../../src/hal/../draw/../misc/../font/../misc/lv_area.h **** /**
 106:Drivers/lvgl/lvgl/src/extra/widgets/meter/../../../../src/hal/../draw/../misc/../font/../misc/lv_area.h ****  * Copy an area
 107:Drivers/lvgl/lvgl/src/extra/widgets/meter/../../../../src/hal/../draw/../misc/../font/../misc/lv_area.h ****  * @param dest pointer to the destination area
 108:Drivers/lvgl/lvgl/src/extra/widgets/meter/../../../../src/hal/../draw/../misc/../font/../misc/lv_area.h ****  * @param src pointer to the source area
 109:Drivers/lvgl/lvgl/src/extra/widgets/meter/../../../../src/hal/../draw/../misc/../font/../misc/lv_area.h ****  */
 110:Drivers/lvgl/lvgl/src/extra/widgets/meter/../../../../src/hal/../draw/../misc/../font/../misc/lv_area.h **** inline static void lv_area_copy(lv_area_t * dest, const lv_area_t * src)
 111:Drivers/lvgl/lvgl/src/extra/widgets/meter/../../../../src/hal/../draw/../misc/../font/../misc/lv_area.h **** {
 112:Drivers/lvgl/lvgl/src/extra/widgets/meter/../../../../src/hal/../draw/../misc/../font/../misc/lv_area.h ****     dest->x1 = src->x1;
 113:Drivers/lvgl/lvgl/src/extra/widgets/meter/../../../../src/hal/../draw/../misc/../font/../misc/lv_area.h ****     dest->y1 = src->y1;
 114:Drivers/lvgl/lvgl/src/extra/widgets/meter/../../../../src/hal/../draw/../misc/../font/../misc/lv_area.h ****     dest->x2 = src->x2;
 115:Drivers/lvgl/lvgl/src/extra/widgets/meter/../../../../src/hal/../draw/../misc/../font/../misc/lv_area.h ****     dest->y2 = src->y2;
 116:Drivers/lvgl/lvgl/src/extra/widgets/meter/../../../../src/hal/../draw/../misc/../font/../misc/lv_area.h **** }
 117:Drivers/lvgl/lvgl/src/extra/widgets/meter/../../../../src/hal/../draw/../misc/../font/../misc/lv_area.h **** 
 118:Drivers/lvgl/lvgl/src/extra/widgets/meter/../../../../src/hal/../draw/../misc/../font/../misc/lv_area.h **** /**
 119:Drivers/lvgl/lvgl/src/extra/widgets/meter/../../../../src/hal/../draw/../misc/../font/../misc/lv_area.h ****  * Get the width of an area
 120:Drivers/lvgl/lvgl/src/extra/widgets/meter/../../../../src/hal/../draw/../misc/../font/../misc/lv_area.h ****  * @param area_p pointer to an area
 121:Drivers/lvgl/lvgl/src/extra/widgets/meter/../../../../src/hal/../draw/../misc/../font/../misc/lv_area.h ****  * @return the width of the area (if x1 == x2 -> width = 1)
 122:Drivers/lvgl/lvgl/src/extra/widgets/meter/../../../../src/hal/../draw/../misc/../font/../misc/lv_area.h ****  */
 123:Drivers/lvgl/lvgl/src/extra/widgets/meter/../../../../src/hal/../draw/../misc/../font/../misc/lv_area.h **** static inline lv_coord_t lv_area_get_width(const lv_area_t * area_p)
 124:Drivers/lvgl/lvgl/src/extra/widgets/meter/../../../../src/hal/../draw/../misc/../font/../misc/lv_area.h **** {
 125:Drivers/lvgl/lvgl/src/extra/widgets/meter/../../../../src/hal/../draw/../misc/../font/../misc/lv_area.h ****     return (lv_coord_t)(area_p->x2 - area_p->x1 + 1);
  79              		.loc 3 125 0
  80 0030 A588     		ldrh	r5, [r4, #4]
  81 0032 2388     		ldrh	r3, [r4]
  82 0034 ED1A     		subs	r5, r5, r3
  83 0036 ADB2     		uxth	r5, r5
  84 0038 0135     		adds	r5, r5, #1
  85 003a 2DB2     		sxth	r5, r5
  86              	.LVL7:
  87              	.LBE52:
  88              	.LBE51:
 333:Drivers/lvgl/lvgl/src/extra/widgets/meter/lv_meter.c **** 
 334:Drivers/lvgl/lvgl/src/extra/widgets/meter/lv_meter.c ****     lv_coord_t r_out = lv_area_get_width(scale_area) / 2 ;
  89              		.loc 1 334 0
  90 003c 002D     		cmp	r5, #0
  91 003e 24DB     		blt	.L9
  92              	.L2:
  93              	.LVL8:
ARM GAS  /tmp/ccVvrzYL.s 			page 18


 335:Drivers/lvgl/lvgl/src/extra/widgets/meter/lv_meter.c ****     lv_point_t scale_center;
 336:Drivers/lvgl/lvgl/src/extra/widgets/meter/lv_meter.c ****     scale_center.x = scale_area->x1 + r_out;
  94              		.loc 1 336 0
  95 0040 C5F34F05 		ubfx	r5, r5, #1, #16
  96              	.LVL9:
  97 0044 2B44     		add	r3, r3, r5
  98 0046 ADF85C30 		strh	r3, [sp, #92]	@ movhi
 337:Drivers/lvgl/lvgl/src/extra/widgets/meter/lv_meter.c ****     scale_center.y = scale_area->y1 + r_out;
  99              		.loc 1 337 0
 100 004a 6388     		ldrh	r3, [r4, #2]
 101 004c 2B44     		add	r3, r3, r5
 102 004e ADF85E30 		strh	r3, [sp, #94]	@ movhi
 103              	.LVL10:
 104              	.LBB53:
 105              	.LBB54:
 419:Drivers/lvgl/lvgl/src/extra/widgets/meter/../../../../src/core/lv_obj_style_gen.h **** }
 420:Drivers/lvgl/lvgl/src/extra/widgets/meter/../../../../src/core/lv_obj_style_gen.h **** 
 421:Drivers/lvgl/lvgl/src/extra/widgets/meter/../../../../src/core/lv_obj_style_gen.h **** static inline lv_color_t lv_obj_get_style_arc_color(const struct _lv_obj_t * obj, uint32_t part)
 422:Drivers/lvgl/lvgl/src/extra/widgets/meter/../../../../src/core/lv_obj_style_gen.h **** {
 423:Drivers/lvgl/lvgl/src/extra/widgets/meter/../../../../src/core/lv_obj_style_gen.h ****     lv_style_value_t v = lv_obj_get_style_prop(obj, part, LV_STYLE_ARC_COLOR);
 424:Drivers/lvgl/lvgl/src/extra/widgets/meter/../../../../src/core/lv_obj_style_gen.h ****     return v.color;
 425:Drivers/lvgl/lvgl/src/extra/widgets/meter/../../../../src/core/lv_obj_style_gen.h **** }
 426:Drivers/lvgl/lvgl/src/extra/widgets/meter/../../../../src/core/lv_obj_style_gen.h **** 
 427:Drivers/lvgl/lvgl/src/extra/widgets/meter/../../../../src/core/lv_obj_style_gen.h **** static inline lv_color_t lv_obj_get_style_arc_color_filtered(const struct _lv_obj_t * obj, uint32_t
 428:Drivers/lvgl/lvgl/src/extra/widgets/meter/../../../../src/core/lv_obj_style_gen.h **** {
 429:Drivers/lvgl/lvgl/src/extra/widgets/meter/../../../../src/core/lv_obj_style_gen.h ****     lv_style_value_t v = _lv_obj_style_apply_color_filter(obj, part, lv_obj_get_style_prop(obj, par
 430:Drivers/lvgl/lvgl/src/extra/widgets/meter/../../../../src/core/lv_obj_style_gen.h ****     return v.color;
 431:Drivers/lvgl/lvgl/src/extra/widgets/meter/../../../../src/core/lv_obj_style_gen.h **** }
 432:Drivers/lvgl/lvgl/src/extra/widgets/meter/../../../../src/core/lv_obj_style_gen.h **** 
 433:Drivers/lvgl/lvgl/src/extra/widgets/meter/../../../../src/core/lv_obj_style_gen.h **** static inline lv_opa_t lv_obj_get_style_arc_opa(const struct _lv_obj_t * obj, uint32_t part)
 434:Drivers/lvgl/lvgl/src/extra/widgets/meter/../../../../src/core/lv_obj_style_gen.h **** {
 435:Drivers/lvgl/lvgl/src/extra/widgets/meter/../../../../src/core/lv_obj_style_gen.h ****     lv_style_value_t v = lv_obj_get_style_prop(obj, part, LV_STYLE_ARC_OPA);
 436:Drivers/lvgl/lvgl/src/extra/widgets/meter/../../../../src/core/lv_obj_style_gen.h ****     return (lv_opa_t)v.num;
 437:Drivers/lvgl/lvgl/src/extra/widgets/meter/../../../../src/core/lv_obj_style_gen.h **** }
 438:Drivers/lvgl/lvgl/src/extra/widgets/meter/../../../../src/core/lv_obj_style_gen.h **** 
 439:Drivers/lvgl/lvgl/src/extra/widgets/meter/../../../../src/core/lv_obj_style_gen.h **** static inline const void * lv_obj_get_style_arc_img_src(const struct _lv_obj_t * obj, uint32_t part
 440:Drivers/lvgl/lvgl/src/extra/widgets/meter/../../../../src/core/lv_obj_style_gen.h **** {
 441:Drivers/lvgl/lvgl/src/extra/widgets/meter/../../../../src/core/lv_obj_style_gen.h ****     lv_style_value_t v = lv_obj_get_style_prop(obj, part, LV_STYLE_ARC_IMG_SRC);
 442:Drivers/lvgl/lvgl/src/extra/widgets/meter/../../../../src/core/lv_obj_style_gen.h ****     return (const void *)v.ptr;
 443:Drivers/lvgl/lvgl/src/extra/widgets/meter/../../../../src/core/lv_obj_style_gen.h **** }
 444:Drivers/lvgl/lvgl/src/extra/widgets/meter/../../../../src/core/lv_obj_style_gen.h **** 
 445:Drivers/lvgl/lvgl/src/extra/widgets/meter/../../../../src/core/lv_obj_style_gen.h **** static inline lv_color_t lv_obj_get_style_text_color(const struct _lv_obj_t * obj, uint32_t part)
 446:Drivers/lvgl/lvgl/src/extra/widgets/meter/../../../../src/core/lv_obj_style_gen.h **** {
 447:Drivers/lvgl/lvgl/src/extra/widgets/meter/../../../../src/core/lv_obj_style_gen.h ****     lv_style_value_t v = lv_obj_get_style_prop(obj, part, LV_STYLE_TEXT_COLOR);
 448:Drivers/lvgl/lvgl/src/extra/widgets/meter/../../../../src/core/lv_obj_style_gen.h ****     return v.color;
 449:Drivers/lvgl/lvgl/src/extra/widgets/meter/../../../../src/core/lv_obj_style_gen.h **** }
 450:Drivers/lvgl/lvgl/src/extra/widgets/meter/../../../../src/core/lv_obj_style_gen.h **** 
 451:Drivers/lvgl/lvgl/src/extra/widgets/meter/../../../../src/core/lv_obj_style_gen.h **** static inline lv_color_t lv_obj_get_style_text_color_filtered(const struct _lv_obj_t * obj, uint32_
 452:Drivers/lvgl/lvgl/src/extra/widgets/meter/../../../../src/core/lv_obj_style_gen.h **** {
 453:Drivers/lvgl/lvgl/src/extra/widgets/meter/../../../../src/core/lv_obj_style_gen.h ****     lv_style_value_t v = _lv_obj_style_apply_color_filter(obj, part, lv_obj_get_style_prop(obj, par
 454:Drivers/lvgl/lvgl/src/extra/widgets/meter/../../../../src/core/lv_obj_style_gen.h ****     return v.color;
 455:Drivers/lvgl/lvgl/src/extra/widgets/meter/../../../../src/core/lv_obj_style_gen.h **** }
 456:Drivers/lvgl/lvgl/src/extra/widgets/meter/../../../../src/core/lv_obj_style_gen.h **** 
 457:Drivers/lvgl/lvgl/src/extra/widgets/meter/../../../../src/core/lv_obj_style_gen.h **** static inline lv_opa_t lv_obj_get_style_text_opa(const struct _lv_obj_t * obj, uint32_t part)
 458:Drivers/lvgl/lvgl/src/extra/widgets/meter/../../../../src/core/lv_obj_style_gen.h **** {
 459:Drivers/lvgl/lvgl/src/extra/widgets/meter/../../../../src/core/lv_obj_style_gen.h ****     lv_style_value_t v = lv_obj_get_style_prop(obj, part, LV_STYLE_TEXT_OPA);
 460:Drivers/lvgl/lvgl/src/extra/widgets/meter/../../../../src/core/lv_obj_style_gen.h ****     return (lv_opa_t)v.num;
ARM GAS  /tmp/ccVvrzYL.s 			page 19


 461:Drivers/lvgl/lvgl/src/extra/widgets/meter/../../../../src/core/lv_obj_style_gen.h **** }
 462:Drivers/lvgl/lvgl/src/extra/widgets/meter/../../../../src/core/lv_obj_style_gen.h **** 
 463:Drivers/lvgl/lvgl/src/extra/widgets/meter/../../../../src/core/lv_obj_style_gen.h **** static inline const lv_font_t * lv_obj_get_style_text_font(const struct _lv_obj_t * obj, uint32_t p
 464:Drivers/lvgl/lvgl/src/extra/widgets/meter/../../../../src/core/lv_obj_style_gen.h **** {
 465:Drivers/lvgl/lvgl/src/extra/widgets/meter/../../../../src/core/lv_obj_style_gen.h ****     lv_style_value_t v = lv_obj_get_style_prop(obj, part, LV_STYLE_TEXT_FONT);
 466:Drivers/lvgl/lvgl/src/extra/widgets/meter/../../../../src/core/lv_obj_style_gen.h ****     return (const lv_font_t *)v.ptr;
 467:Drivers/lvgl/lvgl/src/extra/widgets/meter/../../../../src/core/lv_obj_style_gen.h **** }
 468:Drivers/lvgl/lvgl/src/extra/widgets/meter/../../../../src/core/lv_obj_style_gen.h **** 
 469:Drivers/lvgl/lvgl/src/extra/widgets/meter/../../../../src/core/lv_obj_style_gen.h **** static inline lv_coord_t lv_obj_get_style_text_letter_space(const struct _lv_obj_t * obj, uint32_t 
 470:Drivers/lvgl/lvgl/src/extra/widgets/meter/../../../../src/core/lv_obj_style_gen.h **** {
 471:Drivers/lvgl/lvgl/src/extra/widgets/meter/../../../../src/core/lv_obj_style_gen.h ****     lv_style_value_t v = lv_obj_get_style_prop(obj, part, LV_STYLE_TEXT_LETTER_SPACE);
 472:Drivers/lvgl/lvgl/src/extra/widgets/meter/../../../../src/core/lv_obj_style_gen.h ****     return (lv_coord_t)v.num;
 473:Drivers/lvgl/lvgl/src/extra/widgets/meter/../../../../src/core/lv_obj_style_gen.h **** }
 474:Drivers/lvgl/lvgl/src/extra/widgets/meter/../../../../src/core/lv_obj_style_gen.h **** 
 475:Drivers/lvgl/lvgl/src/extra/widgets/meter/../../../../src/core/lv_obj_style_gen.h **** static inline lv_coord_t lv_obj_get_style_text_line_space(const struct _lv_obj_t * obj, uint32_t pa
 476:Drivers/lvgl/lvgl/src/extra/widgets/meter/../../../../src/core/lv_obj_style_gen.h **** {
 477:Drivers/lvgl/lvgl/src/extra/widgets/meter/../../../../src/core/lv_obj_style_gen.h ****     lv_style_value_t v = lv_obj_get_style_prop(obj, part, LV_STYLE_TEXT_LINE_SPACE);
 478:Drivers/lvgl/lvgl/src/extra/widgets/meter/../../../../src/core/lv_obj_style_gen.h ****     return (lv_coord_t)v.num;
 479:Drivers/lvgl/lvgl/src/extra/widgets/meter/../../../../src/core/lv_obj_style_gen.h **** }
 480:Drivers/lvgl/lvgl/src/extra/widgets/meter/../../../../src/core/lv_obj_style_gen.h **** 
 481:Drivers/lvgl/lvgl/src/extra/widgets/meter/../../../../src/core/lv_obj_style_gen.h **** static inline lv_text_decor_t lv_obj_get_style_text_decor(const struct _lv_obj_t * obj, uint32_t pa
 482:Drivers/lvgl/lvgl/src/extra/widgets/meter/../../../../src/core/lv_obj_style_gen.h **** {
 483:Drivers/lvgl/lvgl/src/extra/widgets/meter/../../../../src/core/lv_obj_style_gen.h ****     lv_style_value_t v = lv_obj_get_style_prop(obj, part, LV_STYLE_TEXT_DECOR);
 484:Drivers/lvgl/lvgl/src/extra/widgets/meter/../../../../src/core/lv_obj_style_gen.h ****     return (lv_text_decor_t)v.num;
 485:Drivers/lvgl/lvgl/src/extra/widgets/meter/../../../../src/core/lv_obj_style_gen.h **** }
 486:Drivers/lvgl/lvgl/src/extra/widgets/meter/../../../../src/core/lv_obj_style_gen.h **** 
 487:Drivers/lvgl/lvgl/src/extra/widgets/meter/../../../../src/core/lv_obj_style_gen.h **** static inline lv_text_align_t lv_obj_get_style_text_align(const struct _lv_obj_t * obj, uint32_t pa
 488:Drivers/lvgl/lvgl/src/extra/widgets/meter/../../../../src/core/lv_obj_style_gen.h **** {
 489:Drivers/lvgl/lvgl/src/extra/widgets/meter/../../../../src/core/lv_obj_style_gen.h ****     lv_style_value_t v = lv_obj_get_style_prop(obj, part, LV_STYLE_TEXT_ALIGN);
 490:Drivers/lvgl/lvgl/src/extra/widgets/meter/../../../../src/core/lv_obj_style_gen.h ****     return (lv_text_align_t)v.num;
 491:Drivers/lvgl/lvgl/src/extra/widgets/meter/../../../../src/core/lv_obj_style_gen.h **** }
 492:Drivers/lvgl/lvgl/src/extra/widgets/meter/../../../../src/core/lv_obj_style_gen.h **** 
 493:Drivers/lvgl/lvgl/src/extra/widgets/meter/../../../../src/core/lv_obj_style_gen.h **** static inline lv_coord_t lv_obj_get_style_radius(const struct _lv_obj_t * obj, uint32_t part)
 494:Drivers/lvgl/lvgl/src/extra/widgets/meter/../../../../src/core/lv_obj_style_gen.h **** {
 495:Drivers/lvgl/lvgl/src/extra/widgets/meter/../../../../src/core/lv_obj_style_gen.h ****     lv_style_value_t v = lv_obj_get_style_prop(obj, part, LV_STYLE_RADIUS);
 496:Drivers/lvgl/lvgl/src/extra/widgets/meter/../../../../src/core/lv_obj_style_gen.h ****     return (lv_coord_t)v.num;
 497:Drivers/lvgl/lvgl/src/extra/widgets/meter/../../../../src/core/lv_obj_style_gen.h **** }
 498:Drivers/lvgl/lvgl/src/extra/widgets/meter/../../../../src/core/lv_obj_style_gen.h **** 
 499:Drivers/lvgl/lvgl/src/extra/widgets/meter/../../../../src/core/lv_obj_style_gen.h **** static inline bool lv_obj_get_style_clip_corner(const struct _lv_obj_t * obj, uint32_t part)
 500:Drivers/lvgl/lvgl/src/extra/widgets/meter/../../../../src/core/lv_obj_style_gen.h **** {
 501:Drivers/lvgl/lvgl/src/extra/widgets/meter/../../../../src/core/lv_obj_style_gen.h ****     lv_style_value_t v = lv_obj_get_style_prop(obj, part, LV_STYLE_CLIP_CORNER);
 502:Drivers/lvgl/lvgl/src/extra/widgets/meter/../../../../src/core/lv_obj_style_gen.h ****     return (bool)v.num;
 503:Drivers/lvgl/lvgl/src/extra/widgets/meter/../../../../src/core/lv_obj_style_gen.h **** }
 504:Drivers/lvgl/lvgl/src/extra/widgets/meter/../../../../src/core/lv_obj_style_gen.h **** 
 505:Drivers/lvgl/lvgl/src/extra/widgets/meter/../../../../src/core/lv_obj_style_gen.h **** static inline lv_opa_t lv_obj_get_style_opa(const struct _lv_obj_t * obj, uint32_t part)
 506:Drivers/lvgl/lvgl/src/extra/widgets/meter/../../../../src/core/lv_obj_style_gen.h **** {
 507:Drivers/lvgl/lvgl/src/extra/widgets/meter/../../../../src/core/lv_obj_style_gen.h ****     lv_style_value_t v = lv_obj_get_style_prop(obj, part, LV_STYLE_OPA);
 106              		.loc 2 507 0
 107 0052 6022     		movs	r2, #96
 108 0054 0021     		movs	r1, #0
 109 0056 4046     		mov	r0, r8
 110 0058 FFF7FEFF 		bl	lv_obj_get_style_prop
 111              	.LVL11:
 112 005c 0390     		str	r0, [sp, #12]
 508:Drivers/lvgl/lvgl/src/extra/widgets/meter/../../../../src/core/lv_obj_style_gen.h ****     return (lv_opa_t)v.num;
 113              		.loc 2 508 0
 114 005e 5FFA80FB 		uxtb	fp, r0
ARM GAS  /tmp/ccVvrzYL.s 			page 20


 115              	.LVL12:
 116              	.LBE54:
 117              	.LBE53:
 338:Drivers/lvgl/lvgl/src/extra/widgets/meter/lv_meter.c **** 
 339:Drivers/lvgl/lvgl/src/extra/widgets/meter/lv_meter.c ****     lv_opa_t opa_main = lv_obj_get_style_opa(obj, LV_PART_MAIN);
 340:Drivers/lvgl/lvgl/src/extra/widgets/meter/lv_meter.c ****     lv_meter_indicator_t * indic;
 341:Drivers/lvgl/lvgl/src/extra/widgets/meter/lv_meter.c **** 
 342:Drivers/lvgl/lvgl/src/extra/widgets/meter/lv_meter.c ****     lv_obj_draw_part_dsc_t part_draw_dsc;
 343:Drivers/lvgl/lvgl/src/extra/widgets/meter/lv_meter.c ****     lv_obj_draw_dsc_init(&part_draw_dsc, draw_ctx);
 118              		.loc 1 343 0
 119 0062 0299     		ldr	r1, [sp, #8]
 120 0064 05A8     		add	r0, sp, #20
 121 0066 FFF7FEFF 		bl	lv_obj_draw_dsc_init
 122              	.LVL13:
 344:Drivers/lvgl/lvgl/src/extra/widgets/meter/lv_meter.c ****     part_draw_dsc.arc_dsc = &arc_dsc;
 123              		.loc 1 344 0
 124 006a 18AB     		add	r3, sp, #96
 125 006c 0D93     		str	r3, [sp, #52]
 345:Drivers/lvgl/lvgl/src/extra/widgets/meter/lv_meter.c ****     part_draw_dsc.part = LV_PART_INDICATOR;
 126              		.loc 1 345 0
 127 006e 4FF40033 		mov	r3, #131072
 128 0072 1293     		str	r3, [sp, #72]
 346:Drivers/lvgl/lvgl/src/extra/widgets/meter/lv_meter.c ****     part_draw_dsc.class_p = MY_CLASS;
 129              		.loc 1 346 0
 130 0074 304B     		ldr	r3, .L11
 131 0076 0693     		str	r3, [sp, #24]
 347:Drivers/lvgl/lvgl/src/extra/widgets/meter/lv_meter.c ****     part_draw_dsc.type = LV_METER_DRAW_PART_ARC;
 132              		.loc 1 347 0
 133 0078 0023     		movs	r3, #0
 134 007a 0793     		str	r3, [sp, #28]
 348:Drivers/lvgl/lvgl/src/extra/widgets/meter/lv_meter.c **** 
 349:Drivers/lvgl/lvgl/src/extra/widgets/meter/lv_meter.c ****     _LV_LL_READ_BACK(&meter->indicator_ll, indic) {
 135              		.loc 1 349 0
 136 007c 08F1300A 		add	r10, r8, #48
 137 0080 5046     		mov	r0, r10
 138 0082 FFF7FEFF 		bl	_lv_ll_get_tail
 139              	.LVL14:
 140 0086 0446     		mov	r4, r0
 141              	.LVL15:
 142 0088 3EE0     		b	.L3
 143              	.LVL16:
 144              	.L9:
 334:Drivers/lvgl/lvgl/src/extra/widgets/meter/lv_meter.c ****     lv_point_t scale_center;
 145              		.loc 1 334 0
 146 008a 0135     		adds	r5, r5, #1
 147 008c D8E7     		b	.L2
 148              	.LVL17:
 149              	.L7:
 150              	.LBB55:
 350:Drivers/lvgl/lvgl/src/extra/widgets/meter/lv_meter.c ****         if(indic->type != LV_METER_INDICATOR_TYPE_ARC) continue;
 351:Drivers/lvgl/lvgl/src/extra/widgets/meter/lv_meter.c **** 
 352:Drivers/lvgl/lvgl/src/extra/widgets/meter/lv_meter.c ****         arc_dsc.color = indic->type_data.arc.color;
 353:Drivers/lvgl/lvgl/src/extra/widgets/meter/lv_meter.c ****         arc_dsc.width = indic->type_data.arc.width;
 354:Drivers/lvgl/lvgl/src/extra/widgets/meter/lv_meter.c ****         arc_dsc.opa = indic->opa > LV_OPA_MAX ? opa_main : (opa_main * indic->opa) >> 8;
 151              		.loc 1 354 0
 152 008e 5B46     		mov	r3, fp
 153              	.L5:
ARM GAS  /tmp/ccVvrzYL.s 			page 21


 154              		.loc 1 354 0 is_stmt 0 discriminator 4
 155 0090 8DF86C30 		strb	r3, [sp, #108]
 355:Drivers/lvgl/lvgl/src/extra/widgets/meter/lv_meter.c **** 
 356:Drivers/lvgl/lvgl/src/extra/widgets/meter/lv_meter.c ****         lv_meter_scale_t * scale = indic->scale;
 156              		.loc 1 356 0 is_stmt 1 discriminator 4
 157 0094 2668     		ldr	r6, [r4]
 158              	.LVL18:
 357:Drivers/lvgl/lvgl/src/extra/widgets/meter/lv_meter.c **** 
 358:Drivers/lvgl/lvgl/src/extra/widgets/meter/lv_meter.c ****         int32_t start_angle = lv_map(indic->start_value, scale->min, scale->max, scale->rotation,
 159              		.loc 1 358 0 discriminator 4
 160 0096 A068     		ldr	r0, [r4, #8]
 161              	.LVL19:
 162 0098 7169     		ldr	r1, [r6, #20]
 163 009a B269     		ldr	r2, [r6, #24]
 164 009c B6F92030 		ldrsh	r3, [r6, #32]
 359:Drivers/lvgl/lvgl/src/extra/widgets/meter/lv_meter.c ****                                      scale->rotation + scale->angle_range);
 165              		.loc 1 359 0 discriminator 4
 166 00a0 F78B     		ldrh	r7, [r6, #30]
 167 00a2 1F44     		add	r7, r7, r3
 358:Drivers/lvgl/lvgl/src/extra/widgets/meter/lv_meter.c ****                                      scale->rotation + scale->angle_range);
 168              		.loc 1 358 0 discriminator 4
 169 00a4 0097     		str	r7, [sp]
 170 00a6 FFF7FEFF 		bl	lv_map
 171              	.LVL20:
 172 00aa 0746     		mov	r7, r0
 173              	.LVL21:
 360:Drivers/lvgl/lvgl/src/extra/widgets/meter/lv_meter.c ****         int32_t end_angle = lv_map(indic->end_value, scale->min, scale->max, scale->rotation,
 174              		.loc 1 360 0 discriminator 4
 175 00ac E068     		ldr	r0, [r4, #12]
 176              	.LVL22:
 177 00ae 7169     		ldr	r1, [r6, #20]
 178 00b0 B269     		ldr	r2, [r6, #24]
 179 00b2 B6F92030 		ldrsh	r3, [r6, #32]
 361:Drivers/lvgl/lvgl/src/extra/widgets/meter/lv_meter.c ****                                    scale->rotation + scale->angle_range);
 180              		.loc 1 361 0 discriminator 4
 181 00b6 F68B     		ldrh	r6, [r6, #30]
 182              	.LVL23:
 183 00b8 1E44     		add	r6, r6, r3
 360:Drivers/lvgl/lvgl/src/extra/widgets/meter/lv_meter.c ****         int32_t end_angle = lv_map(indic->end_value, scale->min, scale->max, scale->rotation,
 184              		.loc 1 360 0 discriminator 4
 185 00ba 0096     		str	r6, [sp]
 186 00bc FFF7FEFF 		bl	lv_map
 187              	.LVL24:
 188 00c0 8146     		mov	r9, r0
 189              	.LVL25:
 362:Drivers/lvgl/lvgl/src/extra/widgets/meter/lv_meter.c **** 
 363:Drivers/lvgl/lvgl/src/extra/widgets/meter/lv_meter.c ****         part_draw_dsc.radius = r_out + indic->type_data.arc.r_mod;
 190              		.loc 1 363 0 discriminator 4
 191 00c2 638B     		ldrh	r3, [r4, #26]
 192 00c4 2B44     		add	r3, r3, r5
 193 00c6 ADF85030 		strh	r3, [sp, #80]	@ movhi
 364:Drivers/lvgl/lvgl/src/extra/widgets/meter/lv_meter.c ****         part_draw_dsc.sub_part_ptr = indic;
 194              		.loc 1 364 0 discriminator 4
 195 00ca 1694     		str	r4, [sp, #88]
 365:Drivers/lvgl/lvgl/src/extra/widgets/meter/lv_meter.c ****         part_draw_dsc.p1 = &scale_center;
 196              		.loc 1 365 0 discriminator 4
 197 00cc 17AE     		add	r6, sp, #92
ARM GAS  /tmp/ccVvrzYL.s 			page 22


 198 00ce 0E96     		str	r6, [sp, #56]
 366:Drivers/lvgl/lvgl/src/extra/widgets/meter/lv_meter.c **** 
 367:Drivers/lvgl/lvgl/src/extra/widgets/meter/lv_meter.c ****         lv_event_send(obj, LV_EVENT_DRAW_PART_BEGIN, &part_draw_dsc);
 199              		.loc 1 367 0 discriminator 4
 200 00d0 05AA     		add	r2, sp, #20
 201 00d2 1A21     		movs	r1, #26
 202 00d4 4046     		mov	r0, r8
 203              	.LVL26:
 204 00d6 FFF7FEFF 		bl	lv_event_send
 205              	.LVL27:
 368:Drivers/lvgl/lvgl/src/extra/widgets/meter/lv_meter.c ****         lv_draw_arc(draw_ctx, &arc_dsc, &scale_center, part_draw_dsc.radius, start_angle, end_angle
 206              		.loc 1 368 0 discriminator 4
 207 00da BDF95030 		ldrsh	r3, [sp, #80]
 208 00de 1FFA89F2 		uxth	r2, r9
 209 00e2 0192     		str	r2, [sp, #4]
 210 00e4 BFB2     		uxth	r7, r7
 211              	.LVL28:
 212 00e6 0097     		str	r7, [sp]
 213 00e8 9BB2     		uxth	r3, r3
 214 00ea 3246     		mov	r2, r6
 215 00ec 18A9     		add	r1, sp, #96
 216 00ee 0298     		ldr	r0, [sp, #8]
 217 00f0 FFF7FEFF 		bl	lv_draw_arc
 218              	.LVL29:
 369:Drivers/lvgl/lvgl/src/extra/widgets/meter/lv_meter.c ****         lv_event_send(obj, LV_EVENT_DRAW_PART_END, &part_draw_dsc);
 219              		.loc 1 369 0 discriminator 4
 220 00f4 05AA     		add	r2, sp, #20
 221 00f6 1B21     		movs	r1, #27
 222 00f8 4046     		mov	r0, r8
 223 00fa FFF7FEFF 		bl	lv_event_send
 224              	.LVL30:
 225              	.L4:
 226              	.LBE55:
 349:Drivers/lvgl/lvgl/src/extra/widgets/meter/lv_meter.c ****         if(indic->type != LV_METER_INDICATOR_TYPE_ARC) continue;
 227              		.loc 1 349 0 discriminator 2
 228 00fe 2146     		mov	r1, r4
 229 0100 5046     		mov	r0, r10
 230 0102 FFF7FEFF 		bl	_lv_ll_get_prev
 231              	.LVL31:
 232 0106 0446     		mov	r4, r0
 233              	.LVL32:
 234              	.L3:
 349:Drivers/lvgl/lvgl/src/extra/widgets/meter/lv_meter.c ****         if(indic->type != LV_METER_INDICATOR_TYPE_ARC) continue;
 235              		.loc 1 349 0 is_stmt 0 discriminator 1
 236 0108 94B1     		cbz	r4, .L10
 237              	.LBB56:
 350:Drivers/lvgl/lvgl/src/extra/widgets/meter/lv_meter.c **** 
 238              		.loc 1 350 0 is_stmt 1
 239 010a 2379     		ldrb	r3, [r4, #4]	@ zero_extendqisi2
 240 010c 032B     		cmp	r3, #3
 241 010e F6D1     		bne	.L4
 352:Drivers/lvgl/lvgl/src/extra/widgets/meter/lv_meter.c ****         arc_dsc.width = indic->type_data.arc.width;
 242              		.loc 1 352 0
 243 0110 238B     		ldrh	r3, [r4, #24]
 244 0112 ADF86030 		strh	r3, [sp, #96]	@ movhi
 353:Drivers/lvgl/lvgl/src/extra/widgets/meter/lv_meter.c ****         arc_dsc.opa = indic->opa > LV_OPA_MAX ? opa_main : (opa_main * indic->opa) >> 8;
 245              		.loc 1 353 0
ARM GAS  /tmp/ccVvrzYL.s 			page 23


 246 0116 B4F91030 		ldrsh	r3, [r4, #16]
 247 011a ADF86230 		strh	r3, [sp, #98]	@ movhi
 354:Drivers/lvgl/lvgl/src/extra/widgets/meter/lv_meter.c **** 
 248              		.loc 1 354 0
 249 011e 6379     		ldrb	r3, [r4, #5]	@ zero_extendqisi2
 250 0120 FD2B     		cmp	r3, #253
 251 0122 B4D8     		bhi	.L7
 354:Drivers/lvgl/lvgl/src/extra/widgets/meter/lv_meter.c **** 
 252              		.loc 1 354 0 is_stmt 0 discriminator 1
 253 0124 9DF80C20 		ldrb	r2, [sp, #12]	@ zero_extendqisi2
 254 0128 03FB02F3 		mul	r3, r3, r2
 255 012c 1B0A     		lsrs	r3, r3, #8
 256 012e AFE7     		b	.L5
 257              	.L10:
 258              	.LBE56:
 370:Drivers/lvgl/lvgl/src/extra/widgets/meter/lv_meter.c ****     }
 371:Drivers/lvgl/lvgl/src/extra/widgets/meter/lv_meter.c **** }
 259              		.loc 1 371 0 is_stmt 1
 260 0130 1DB0     		add	sp, sp, #116
 261              	.LCFI2:
 262              		.cfi_def_cfa_offset 36
 263              		@ sp needed
 264 0132 BDE8F08F 		pop	{r4, r5, r6, r7, r8, r9, r10, fp, pc}
 265              	.LVL33:
 266              	.L12:
 267 0136 00BF     		.align	2
 268              	.L11:
 269 0138 00000000 		.word	.LANCHOR0
 270              		.cfi_endproc
 271              	.LFE217:
 273              		.section	.text.draw_ticks_and_labels,"ax",%progbits
 274              		.align	1
 275              		.syntax unified
 276              		.thumb
 277              		.thumb_func
 278              		.fpu fpv5-d16
 280              	draw_ticks_and_labels:
 281              	.LFB218:
 372:Drivers/lvgl/lvgl/src/extra/widgets/meter/lv_meter.c **** 
 373:Drivers/lvgl/lvgl/src/extra/widgets/meter/lv_meter.c **** static void draw_ticks_and_labels(lv_obj_t * obj, lv_draw_ctx_t * draw_ctx, const lv_area_t * scale
 374:Drivers/lvgl/lvgl/src/extra/widgets/meter/lv_meter.c **** {
 282              		.loc 1 374 0
 283              		.cfi_startproc
 284              		@ args = 0, pretend = 0, frame = 336
 285              		@ frame_needed = 0, uses_anonymous_args = 0
 286              	.LVL34:
 287 0000 2DE9F04F 		push	{r4, r5, r6, r7, r8, r9, r10, fp, lr}
 288              	.LCFI3:
 289              		.cfi_def_cfa_offset 36
 290              		.cfi_offset 4, -36
 291              		.cfi_offset 5, -32
 292              		.cfi_offset 6, -28
 293              		.cfi_offset 7, -24
 294              		.cfi_offset 8, -20
 295              		.cfi_offset 9, -16
 296              		.cfi_offset 10, -12
 297              		.cfi_offset 11, -8
ARM GAS  /tmp/ccVvrzYL.s 			page 24


 298              		.cfi_offset 14, -4
 299 0004 D9B0     		sub	sp, sp, #356
 300              	.LCFI4:
 301              		.cfi_def_cfa_offset 392
 302 0006 0590     		str	r0, [sp, #20]
 303 0008 0A91     		str	r1, [sp, #40]
 304              	.LVL35:
 305              	.LBB57:
 306              	.LBB58:
 307              		.loc 3 125 0
 308 000a 9388     		ldrh	r3, [r2, #4]
 309 000c 1188     		ldrh	r1, [r2]
 310              	.LVL36:
 311 000e 5B1A     		subs	r3, r3, r1
 312 0010 9BB2     		uxth	r3, r3
 313 0012 0133     		adds	r3, r3, #1
 314 0014 1BB2     		sxth	r3, r3
 315              	.LVL37:
 316              	.LBE58:
 317              	.LBE57:
 375:Drivers/lvgl/lvgl/src/extra/widgets/meter/lv_meter.c ****     lv_meter_t * meter    = (lv_meter_t *)obj;
 376:Drivers/lvgl/lvgl/src/extra/widgets/meter/lv_meter.c **** 
 377:Drivers/lvgl/lvgl/src/extra/widgets/meter/lv_meter.c ****     lv_point_t p_center;
 378:Drivers/lvgl/lvgl/src/extra/widgets/meter/lv_meter.c ****     lv_coord_t r_edge = LV_MIN(lv_area_get_width(scale_area) / 2, lv_area_get_height(scale_area) / 
 318              		.loc 1 378 0
 319 0016 002B     		cmp	r3, #0
 320 0018 44DB     		blt	.L42
 321              	.L14:
 322 001a 5B10     		asrs	r3, r3, #1
 323              	.LVL38:
 324              	.LBB59:
 325              	.LBB60:
 126:Drivers/lvgl/lvgl/src/extra/widgets/meter/../../../../src/hal/../draw/../misc/../font/../misc/lv_area.h **** }
 127:Drivers/lvgl/lvgl/src/extra/widgets/meter/../../../../src/hal/../draw/../misc/../font/../misc/lv_area.h **** 
 128:Drivers/lvgl/lvgl/src/extra/widgets/meter/../../../../src/hal/../draw/../misc/../font/../misc/lv_area.h **** /**
 129:Drivers/lvgl/lvgl/src/extra/widgets/meter/../../../../src/hal/../draw/../misc/../font/../misc/lv_area.h ****  * Get the height of an area
 130:Drivers/lvgl/lvgl/src/extra/widgets/meter/../../../../src/hal/../draw/../misc/../font/../misc/lv_area.h ****  * @param area_p pointer to an area
 131:Drivers/lvgl/lvgl/src/extra/widgets/meter/../../../../src/hal/../draw/../misc/../font/../misc/lv_area.h ****  * @return the height of the area (if y1 == y2 -> height = 1)
 132:Drivers/lvgl/lvgl/src/extra/widgets/meter/../../../../src/hal/../draw/../misc/../font/../misc/lv_area.h ****  */
 133:Drivers/lvgl/lvgl/src/extra/widgets/meter/../../../../src/hal/../draw/../misc/../font/../misc/lv_area.h **** static inline lv_coord_t lv_area_get_height(const lv_area_t * area_p)
 134:Drivers/lvgl/lvgl/src/extra/widgets/meter/../../../../src/hal/../draw/../misc/../font/../misc/lv_area.h **** {
 135:Drivers/lvgl/lvgl/src/extra/widgets/meter/../../../../src/hal/../draw/../misc/../font/../misc/lv_area.h ****     return (lv_coord_t)(area_p->y2 - area_p->y1 + 1);
 326              		.loc 3 135 0
 327 001c D088     		ldrh	r0, [r2, #6]
 328              	.LVL39:
 329 001e 5488     		ldrh	r4, [r2, #2]
 330 0020 021B     		subs	r2, r0, r4
 331              	.LVL40:
 332 0022 92B2     		uxth	r2, r2
 333 0024 0132     		adds	r2, r2, #1
 334 0026 12B2     		sxth	r2, r2
 335              	.LVL41:
 336              	.LBE60:
 337              	.LBE59:
 338              		.loc 1 378 0
 339 0028 002A     		cmp	r2, #0
 340 002a 3DDB     		blt	.L43
ARM GAS  /tmp/ccVvrzYL.s 			page 25


 341              	.L15:
 342 002c 5210     		asrs	r2, r2, #1
 343 002e 0D92     		str	r2, [sp, #52]
 344 0030 9342     		cmp	r3, r2
 345 0032 00DA     		bge	.L16
 346 0034 0D93     		str	r3, [sp, #52]
 347              	.L16:
 348              	.LVL42:
 379:Drivers/lvgl/lvgl/src/extra/widgets/meter/lv_meter.c ****     p_center.x = scale_area->x1 + r_edge;
 349              		.loc 1 379 0 discriminator 4
 350 0036 BDF83430 		ldrh	r3, [sp, #52]
 351 003a 0C93     		str	r3, [sp, #48]
 352 003c 1944     		add	r1, r1, r3
 353 003e ADF85C11 		strh	r1, [sp, #348]	@ movhi
 380:Drivers/lvgl/lvgl/src/extra/widgets/meter/lv_meter.c ****     p_center.y = scale_area->y1 + r_edge;
 354              		.loc 1 380 0 discriminator 4
 355 0042 1C44     		add	r4, r4, r3
 356 0044 ADF85E41 		strh	r4, [sp, #350]	@ movhi
 381:Drivers/lvgl/lvgl/src/extra/widgets/meter/lv_meter.c **** 
 382:Drivers/lvgl/lvgl/src/extra/widgets/meter/lv_meter.c ****     lv_draw_line_dsc_t line_dsc;
 383:Drivers/lvgl/lvgl/src/extra/widgets/meter/lv_meter.c ****     lv_draw_line_dsc_init(&line_dsc);
 357              		.loc 1 383 0 discriminator 4
 358 0048 54AC     		add	r4, sp, #336
 359 004a 2046     		mov	r0, r4
 360 004c FFF7FEFF 		bl	lv_draw_line_dsc_init
 361              	.LVL43:
 384:Drivers/lvgl/lvgl/src/extra/widgets/meter/lv_meter.c ****     lv_obj_init_draw_line_dsc(obj, LV_PART_TICKS, &line_dsc);
 362              		.loc 1 384 0 discriminator 4
 363 0050 2246     		mov	r2, r4
 364 0052 4FF4C021 		mov	r1, #393216
 365 0056 059D     		ldr	r5, [sp, #20]
 366 0058 2846     		mov	r0, r5
 367 005a FFF7FEFF 		bl	lv_obj_init_draw_line_dsc
 368              	.LVL44:
 385:Drivers/lvgl/lvgl/src/extra/widgets/meter/lv_meter.c ****     line_dsc.raw_end = 1;
 369              		.loc 1 385 0 discriminator 4
 370 005e 9DF85931 		ldrb	r3, [sp, #345]	@ zero_extendqisi2
 371 0062 43F01003 		orr	r3, r3, #16
 372 0066 8DF85931 		strb	r3, [sp, #345]
 386:Drivers/lvgl/lvgl/src/extra/widgets/meter/lv_meter.c **** 
 387:Drivers/lvgl/lvgl/src/extra/widgets/meter/lv_meter.c ****     lv_draw_label_dsc_t label_dsc;
 388:Drivers/lvgl/lvgl/src/extra/widgets/meter/lv_meter.c ****     lv_draw_label_dsc_init(&label_dsc);
 373              		.loc 1 388 0 discriminator 4
 374 006a 4CA8     		add	r0, sp, #304
 375 006c FFF7FEFF 		bl	lv_draw_label_dsc_init
 376              	.LVL45:
 389:Drivers/lvgl/lvgl/src/extra/widgets/meter/lv_meter.c ****     lv_obj_init_draw_label_dsc(obj, LV_PART_TICKS, &label_dsc);
 377              		.loc 1 389 0 discriminator 4
 378 0070 4CAA     		add	r2, sp, #304
 379 0072 4FF4C021 		mov	r1, #393216
 380 0076 2846     		mov	r0, r5
 381 0078 FFF7FEFF 		bl	lv_obj_init_draw_label_dsc
 382              	.LVL46:
 390:Drivers/lvgl/lvgl/src/extra/widgets/meter/lv_meter.c **** 
 391:Drivers/lvgl/lvgl/src/extra/widgets/meter/lv_meter.c ****     lv_meter_scale_t * scale;
 392:Drivers/lvgl/lvgl/src/extra/widgets/meter/lv_meter.c **** 
 393:Drivers/lvgl/lvgl/src/extra/widgets/meter/lv_meter.c ****     lv_draw_mask_radius_param_t inner_minor_mask;
ARM GAS  /tmp/ccVvrzYL.s 			page 26


 394:Drivers/lvgl/lvgl/src/extra/widgets/meter/lv_meter.c ****     lv_draw_mask_radius_param_t inner_major_mask;
 395:Drivers/lvgl/lvgl/src/extra/widgets/meter/lv_meter.c ****     lv_draw_mask_radius_param_t outer_mask;
 396:Drivers/lvgl/lvgl/src/extra/widgets/meter/lv_meter.c **** 
 397:Drivers/lvgl/lvgl/src/extra/widgets/meter/lv_meter.c ****     lv_obj_draw_part_dsc_t part_draw_dsc;
 398:Drivers/lvgl/lvgl/src/extra/widgets/meter/lv_meter.c ****     lv_obj_draw_dsc_init(&part_draw_dsc, draw_ctx);
 383              		.loc 1 398 0 discriminator 4
 384 007c 0A99     		ldr	r1, [sp, #40]
 385 007e 28A8     		add	r0, sp, #160
 386 0080 FFF7FEFF 		bl	lv_obj_draw_dsc_init
 387              	.LVL47:
 399:Drivers/lvgl/lvgl/src/extra/widgets/meter/lv_meter.c ****     part_draw_dsc.class_p = MY_CLASS;
 388              		.loc 1 399 0 discriminator 4
 389 0084 B34B     		ldr	r3, .L50
 390 0086 2993     		str	r3, [sp, #164]
 400:Drivers/lvgl/lvgl/src/extra/widgets/meter/lv_meter.c ****     part_draw_dsc.part = LV_PART_TICKS;
 391              		.loc 1 400 0 discriminator 4
 392 0088 4FF4C023 		mov	r3, #393216
 393 008c 3593     		str	r3, [sp, #212]
 401:Drivers/lvgl/lvgl/src/extra/widgets/meter/lv_meter.c ****     part_draw_dsc.type = LV_METER_DRAW_PART_TICK;
 394              		.loc 1 401 0 discriminator 4
 395 008e 0323     		movs	r3, #3
 396 0090 2A93     		str	r3, [sp, #168]
 402:Drivers/lvgl/lvgl/src/extra/widgets/meter/lv_meter.c ****     part_draw_dsc.line_dsc = &line_dsc;
 397              		.loc 1 402 0 discriminator 4
 398 0092 2E94     		str	r4, [sp, #184]
 403:Drivers/lvgl/lvgl/src/extra/widgets/meter/lv_meter.c **** 
 404:Drivers/lvgl/lvgl/src/extra/widgets/meter/lv_meter.c ****     _LV_LL_READ_BACK(&meter->scale_ll, scale) {
 399              		.loc 1 404 0 discriminator 4
 400 0094 2B46     		mov	r3, r5
 401 0096 2433     		adds	r3, r3, #36
 402 0098 0F93     		str	r3, [sp, #60]
 403 009a 1846     		mov	r0, r3
 404 009c FFF7FEFF 		bl	_lv_ll_get_tail
 405              	.LVL48:
 406 00a0 0746     		mov	r7, r0
 407 00a2 6EE1     		b	.L17
 408              	.LVL49:
 409              	.L42:
 378:Drivers/lvgl/lvgl/src/extra/widgets/meter/lv_meter.c ****     p_center.x = scale_area->x1 + r_edge;
 410              		.loc 1 378 0
 411 00a4 0133     		adds	r3, r3, #1
 412 00a6 B8E7     		b	.L14
 413              	.LVL50:
 414              	.L43:
 415 00a8 0132     		adds	r2, r2, #1
 416 00aa BFE7     		b	.L15
 417              	.LVL51:
 418              	.L39:
 419              	.LBB61:
 420              	.LBB62:
 405:Drivers/lvgl/lvgl/src/extra/widgets/meter/lv_meter.c ****         part_draw_dsc.sub_part_ptr = scale;
 406:Drivers/lvgl/lvgl/src/extra/widgets/meter/lv_meter.c **** 
 407:Drivers/lvgl/lvgl/src/extra/widgets/meter/lv_meter.c ****         lv_coord_t r_out = r_edge;
 408:Drivers/lvgl/lvgl/src/extra/widgets/meter/lv_meter.c ****         lv_coord_t r_in_minor = r_out - scale->tick_length;
 409:Drivers/lvgl/lvgl/src/extra/widgets/meter/lv_meter.c ****         lv_coord_t r_in_major = r_out - scale->tick_major_length;
 410:Drivers/lvgl/lvgl/src/extra/widgets/meter/lv_meter.c **** 
 411:Drivers/lvgl/lvgl/src/extra/widgets/meter/lv_meter.c ****         lv_area_t area_inner_minor;
ARM GAS  /tmp/ccVvrzYL.s 			page 27


 412:Drivers/lvgl/lvgl/src/extra/widgets/meter/lv_meter.c ****         area_inner_minor.x1 = p_center.x - r_in_minor;
 413:Drivers/lvgl/lvgl/src/extra/widgets/meter/lv_meter.c ****         area_inner_minor.y1 = p_center.y - r_in_minor;
 414:Drivers/lvgl/lvgl/src/extra/widgets/meter/lv_meter.c ****         area_inner_minor.x2 = p_center.x + r_in_minor;
 415:Drivers/lvgl/lvgl/src/extra/widgets/meter/lv_meter.c ****         area_inner_minor.y2 = p_center.y + r_in_minor;
 416:Drivers/lvgl/lvgl/src/extra/widgets/meter/lv_meter.c ****         lv_draw_mask_radius_init(&inner_minor_mask, &area_inner_minor, LV_RADIUS_CIRCLE, true);
 417:Drivers/lvgl/lvgl/src/extra/widgets/meter/lv_meter.c **** 
 418:Drivers/lvgl/lvgl/src/extra/widgets/meter/lv_meter.c ****         lv_area_t area_inner_major;
 419:Drivers/lvgl/lvgl/src/extra/widgets/meter/lv_meter.c ****         area_inner_major.x1 = p_center.x - r_in_major;
 420:Drivers/lvgl/lvgl/src/extra/widgets/meter/lv_meter.c ****         area_inner_major.y1 = p_center.y - r_in_major;
 421:Drivers/lvgl/lvgl/src/extra/widgets/meter/lv_meter.c ****         area_inner_major.x2 = p_center.x + r_in_major - 1;
 422:Drivers/lvgl/lvgl/src/extra/widgets/meter/lv_meter.c ****         area_inner_major.y2 = p_center.y + r_in_major - 1;
 423:Drivers/lvgl/lvgl/src/extra/widgets/meter/lv_meter.c ****         lv_draw_mask_radius_init(&inner_major_mask, &area_inner_major, LV_RADIUS_CIRCLE, true);
 424:Drivers/lvgl/lvgl/src/extra/widgets/meter/lv_meter.c **** 
 425:Drivers/lvgl/lvgl/src/extra/widgets/meter/lv_meter.c ****         lv_area_t area_outer;
 426:Drivers/lvgl/lvgl/src/extra/widgets/meter/lv_meter.c ****         area_outer.x1 = p_center.x - r_out;
 427:Drivers/lvgl/lvgl/src/extra/widgets/meter/lv_meter.c ****         area_outer.y1 = p_center.y - r_out;
 428:Drivers/lvgl/lvgl/src/extra/widgets/meter/lv_meter.c ****         area_outer.x2 = p_center.x + r_out - 1;
 429:Drivers/lvgl/lvgl/src/extra/widgets/meter/lv_meter.c ****         area_outer.y2 = p_center.y + r_out - 1;
 430:Drivers/lvgl/lvgl/src/extra/widgets/meter/lv_meter.c ****         lv_draw_mask_radius_init(&outer_mask, &area_outer, LV_RADIUS_CIRCLE, false);
 431:Drivers/lvgl/lvgl/src/extra/widgets/meter/lv_meter.c ****         int16_t outer_mask_id = lv_draw_mask_add(&outer_mask, NULL);
 432:Drivers/lvgl/lvgl/src/extra/widgets/meter/lv_meter.c **** 
 433:Drivers/lvgl/lvgl/src/extra/widgets/meter/lv_meter.c ****         int16_t inner_act_mask_id = LV_MASK_ID_INV; /*Will be added later*/
 434:Drivers/lvgl/lvgl/src/extra/widgets/meter/lv_meter.c **** 
 435:Drivers/lvgl/lvgl/src/extra/widgets/meter/lv_meter.c ****         uint32_t minor_cnt = scale->tick_major_nth ? scale->tick_major_nth - 1 : 0xFFFF;
 436:Drivers/lvgl/lvgl/src/extra/widgets/meter/lv_meter.c ****         uint16_t i;
 437:Drivers/lvgl/lvgl/src/extra/widgets/meter/lv_meter.c ****         for(i = 0; i < scale->tick_cnt; i++) {
 438:Drivers/lvgl/lvgl/src/extra/widgets/meter/lv_meter.c ****             minor_cnt++;
 439:Drivers/lvgl/lvgl/src/extra/widgets/meter/lv_meter.c ****             bool major = false;
 440:Drivers/lvgl/lvgl/src/extra/widgets/meter/lv_meter.c ****             if(minor_cnt == scale->tick_major_nth) {
 441:Drivers/lvgl/lvgl/src/extra/widgets/meter/lv_meter.c ****                 minor_cnt = 0;
 442:Drivers/lvgl/lvgl/src/extra/widgets/meter/lv_meter.c ****                 major = true;
 421              		.loc 1 442 0
 422 00ac 4FF0010B 		mov	fp, #1
 441:Drivers/lvgl/lvgl/src/extra/widgets/meter/lv_meter.c ****                 major = true;
 423              		.loc 1 441 0
 424 00b0 0023     		movs	r3, #0
 425 00b2 0793     		str	r3, [sp, #28]
 426 00b4 15E1     		b	.L19
 427              	.LVL52:
 428              	.L20:
 443:Drivers/lvgl/lvgl/src/extra/widgets/meter/lv_meter.c ****             }
 444:Drivers/lvgl/lvgl/src/extra/widgets/meter/lv_meter.c **** 
 445:Drivers/lvgl/lvgl/src/extra/widgets/meter/lv_meter.c ****             int32_t value_of_line = lv_map(i, 0, scale->tick_cnt - 1, scale->min, scale->max);
 446:Drivers/lvgl/lvgl/src/extra/widgets/meter/lv_meter.c ****             part_draw_dsc.value = value_of_line;
 447:Drivers/lvgl/lvgl/src/extra/widgets/meter/lv_meter.c **** 
 448:Drivers/lvgl/lvgl/src/extra/widgets/meter/lv_meter.c ****             lv_color_t line_color = major ? scale->tick_major_color : scale->tick_color;
 429              		.loc 1 448 0 discriminator 2
 430 00b6 3D88     		ldrh	r5, [r7]
 431 00b8 23E1     		b	.L21
 432              	.LVL53:
 433              	.L22:
 449:Drivers/lvgl/lvgl/src/extra/widgets/meter/lv_meter.c ****             lv_color_t line_color_ori = line_color;
 450:Drivers/lvgl/lvgl/src/extra/widgets/meter/lv_meter.c **** 
 451:Drivers/lvgl/lvgl/src/extra/widgets/meter/lv_meter.c ****             lv_coord_t line_width_ori = major ? scale->tick_major_width : scale->tick_width;
 434              		.loc 1 451 0 discriminator 2
 435 00ba B7F90630 		ldrsh	r3, [r7, #6]
 436 00be 0693     		str	r3, [sp, #24]
ARM GAS  /tmp/ccVvrzYL.s 			page 28


 437 00c0 28E1     		b	.L23
 438              	.LVL54:
 439              	.L45:
 452:Drivers/lvgl/lvgl/src/extra/widgets/meter/lv_meter.c ****             lv_coord_t line_width = line_width_ori;
 453:Drivers/lvgl/lvgl/src/extra/widgets/meter/lv_meter.c **** 
 454:Drivers/lvgl/lvgl/src/extra/widgets/meter/lv_meter.c ****             lv_meter_indicator_t * indic;
 455:Drivers/lvgl/lvgl/src/extra/widgets/meter/lv_meter.c ****             _LV_LL_READ_BACK(&meter->indicator_ll, indic) {
 456:Drivers/lvgl/lvgl/src/extra/widgets/meter/lv_meter.c ****                 if(indic->type != LV_METER_INDICATOR_TYPE_SCALE_LINES) continue;
 457:Drivers/lvgl/lvgl/src/extra/widgets/meter/lv_meter.c ****                 if(value_of_line >= indic->start_value && value_of_line <= indic->end_value) {
 458:Drivers/lvgl/lvgl/src/extra/widgets/meter/lv_meter.c ****                     line_width += indic->type_data.scale_lines.width_mod;
 459:Drivers/lvgl/lvgl/src/extra/widgets/meter/lv_meter.c **** 
 460:Drivers/lvgl/lvgl/src/extra/widgets/meter/lv_meter.c ****                     if(indic->type_data.scale_lines.color_start.full == indic->type_data.scale_line
 461:Drivers/lvgl/lvgl/src/extra/widgets/meter/lv_meter.c ****                         line_color = indic->type_data.scale_lines.color_start;
 440              		.loc 1 461 0
 441 00c2 658A     		ldrh	r5, [r4, #18]
 442              	.LVL55:
 443 00c4 1CE0     		b	.L25
 444              	.LVL56:
 445              	.L27:
 446              	.LBB63:
 462:Drivers/lvgl/lvgl/src/extra/widgets/meter/lv_meter.c ****                     }
 463:Drivers/lvgl/lvgl/src/extra/widgets/meter/lv_meter.c ****                     else {
 464:Drivers/lvgl/lvgl/src/extra/widgets/meter/lv_meter.c ****                         lv_opa_t ratio;
 465:Drivers/lvgl/lvgl/src/extra/widgets/meter/lv_meter.c ****                         if(indic->type_data.scale_lines.local_grad) {
 466:Drivers/lvgl/lvgl/src/extra/widgets/meter/lv_meter.c ****                             ratio = lv_map(value_of_line, indic->start_value, indic->end_value, LV_
 467:Drivers/lvgl/lvgl/src/extra/widgets/meter/lv_meter.c ****                         }
 468:Drivers/lvgl/lvgl/src/extra/widgets/meter/lv_meter.c ****                         else {
 469:Drivers/lvgl/lvgl/src/extra/widgets/meter/lv_meter.c ****                             ratio = lv_map(value_of_line, scale->min, scale->max, LV_OPA_TRANSP, LV
 447              		.loc 1 469 0
 448 00c6 BA69     		ldr	r2, [r7, #24]
 449 00c8 7969     		ldr	r1, [r7, #20]
 450 00ca FF23     		movs	r3, #255
 451 00cc 0093     		str	r3, [sp]
 452 00ce 0023     		movs	r3, #0
 453 00d0 4846     		mov	r0, r9
 454 00d2 FFF7FEFF 		bl	lv_map
 455              	.LVL57:
 456 00d6 C0B2     		uxtb	r0, r0
 457              	.LVL58:
 458              	.L28:
 459              	.LBB64:
 460              	.LBB65:
 461              		.file 4 "Drivers/lvgl/lvgl/src/extra/widgets/meter/../../../../src/hal/../draw/../misc/lv_color.h"
   1:Drivers/lvgl/lvgl/src/extra/widgets/meter/../../../../src/hal/../draw/../misc/lv_color.h **** /**
   2:Drivers/lvgl/lvgl/src/extra/widgets/meter/../../../../src/hal/../draw/../misc/lv_color.h ****  * @file lv_color.h
   3:Drivers/lvgl/lvgl/src/extra/widgets/meter/../../../../src/hal/../draw/../misc/lv_color.h ****  *
   4:Drivers/lvgl/lvgl/src/extra/widgets/meter/../../../../src/hal/../draw/../misc/lv_color.h ****  */
   5:Drivers/lvgl/lvgl/src/extra/widgets/meter/../../../../src/hal/../draw/../misc/lv_color.h **** 
   6:Drivers/lvgl/lvgl/src/extra/widgets/meter/../../../../src/hal/../draw/../misc/lv_color.h **** #ifndef LV_COLOR_H
   7:Drivers/lvgl/lvgl/src/extra/widgets/meter/../../../../src/hal/../draw/../misc/lv_color.h **** #define LV_COLOR_H
   8:Drivers/lvgl/lvgl/src/extra/widgets/meter/../../../../src/hal/../draw/../misc/lv_color.h **** 
   9:Drivers/lvgl/lvgl/src/extra/widgets/meter/../../../../src/hal/../draw/../misc/lv_color.h **** #ifdef __cplusplus
  10:Drivers/lvgl/lvgl/src/extra/widgets/meter/../../../../src/hal/../draw/../misc/lv_color.h **** extern "C" {
  11:Drivers/lvgl/lvgl/src/extra/widgets/meter/../../../../src/hal/../draw/../misc/lv_color.h **** #endif
  12:Drivers/lvgl/lvgl/src/extra/widgets/meter/../../../../src/hal/../draw/../misc/lv_color.h **** 
  13:Drivers/lvgl/lvgl/src/extra/widgets/meter/../../../../src/hal/../draw/../misc/lv_color.h **** /*********************
  14:Drivers/lvgl/lvgl/src/extra/widgets/meter/../../../../src/hal/../draw/../misc/lv_color.h ****  *      INCLUDES
ARM GAS  /tmp/ccVvrzYL.s 			page 29


  15:Drivers/lvgl/lvgl/src/extra/widgets/meter/../../../../src/hal/../draw/../misc/lv_color.h ****  *********************/
  16:Drivers/lvgl/lvgl/src/extra/widgets/meter/../../../../src/hal/../draw/../misc/lv_color.h **** #include "../lv_conf_internal.h"
  17:Drivers/lvgl/lvgl/src/extra/widgets/meter/../../../../src/hal/../draw/../misc/lv_color.h **** #include "lv_assert.h"
  18:Drivers/lvgl/lvgl/src/extra/widgets/meter/../../../../src/hal/../draw/../misc/lv_color.h **** #include "lv_math.h"
  19:Drivers/lvgl/lvgl/src/extra/widgets/meter/../../../../src/hal/../draw/../misc/lv_color.h **** #include "lv_types.h"
  20:Drivers/lvgl/lvgl/src/extra/widgets/meter/../../../../src/hal/../draw/../misc/lv_color.h **** 
  21:Drivers/lvgl/lvgl/src/extra/widgets/meter/../../../../src/hal/../draw/../misc/lv_color.h **** /*Error checking*/
  22:Drivers/lvgl/lvgl/src/extra/widgets/meter/../../../../src/hal/../draw/../misc/lv_color.h **** #if LV_COLOR_DEPTH == 24
  23:Drivers/lvgl/lvgl/src/extra/widgets/meter/../../../../src/hal/../draw/../misc/lv_color.h **** #error "LV_COLOR_DEPTH 24 is deprecated. Use LV_COLOR_DEPTH 32 instead (lv_conf.h)"
  24:Drivers/lvgl/lvgl/src/extra/widgets/meter/../../../../src/hal/../draw/../misc/lv_color.h **** #endif
  25:Drivers/lvgl/lvgl/src/extra/widgets/meter/../../../../src/hal/../draw/../misc/lv_color.h **** 
  26:Drivers/lvgl/lvgl/src/extra/widgets/meter/../../../../src/hal/../draw/../misc/lv_color.h **** #if LV_COLOR_DEPTH != 16 && LV_COLOR_16_SWAP != 0
  27:Drivers/lvgl/lvgl/src/extra/widgets/meter/../../../../src/hal/../draw/../misc/lv_color.h **** #error "LV_COLOR_16_SWAP requires LV_COLOR_DEPTH == 16. Set it in lv_conf.h"
  28:Drivers/lvgl/lvgl/src/extra/widgets/meter/../../../../src/hal/../draw/../misc/lv_color.h **** #endif
  29:Drivers/lvgl/lvgl/src/extra/widgets/meter/../../../../src/hal/../draw/../misc/lv_color.h **** 
  30:Drivers/lvgl/lvgl/src/extra/widgets/meter/../../../../src/hal/../draw/../misc/lv_color.h **** #include <stdint.h>
  31:Drivers/lvgl/lvgl/src/extra/widgets/meter/../../../../src/hal/../draw/../misc/lv_color.h **** 
  32:Drivers/lvgl/lvgl/src/extra/widgets/meter/../../../../src/hal/../draw/../misc/lv_color.h **** /*********************
  33:Drivers/lvgl/lvgl/src/extra/widgets/meter/../../../../src/hal/../draw/../misc/lv_color.h ****  *      DEFINES
  34:Drivers/lvgl/lvgl/src/extra/widgets/meter/../../../../src/hal/../draw/../misc/lv_color.h ****  *********************/
  35:Drivers/lvgl/lvgl/src/extra/widgets/meter/../../../../src/hal/../draw/../misc/lv_color.h **** LV_EXPORT_CONST_INT(LV_COLOR_DEPTH);
  36:Drivers/lvgl/lvgl/src/extra/widgets/meter/../../../../src/hal/../draw/../misc/lv_color.h **** LV_EXPORT_CONST_INT(LV_COLOR_16_SWAP);
  37:Drivers/lvgl/lvgl/src/extra/widgets/meter/../../../../src/hal/../draw/../misc/lv_color.h **** 
  38:Drivers/lvgl/lvgl/src/extra/widgets/meter/../../../../src/hal/../draw/../misc/lv_color.h **** /**
  39:Drivers/lvgl/lvgl/src/extra/widgets/meter/../../../../src/hal/../draw/../misc/lv_color.h ****  * Opacity percentages.
  40:Drivers/lvgl/lvgl/src/extra/widgets/meter/../../../../src/hal/../draw/../misc/lv_color.h ****  */
  41:Drivers/lvgl/lvgl/src/extra/widgets/meter/../../../../src/hal/../draw/../misc/lv_color.h **** enum {
  42:Drivers/lvgl/lvgl/src/extra/widgets/meter/../../../../src/hal/../draw/../misc/lv_color.h ****     LV_OPA_TRANSP = 0,
  43:Drivers/lvgl/lvgl/src/extra/widgets/meter/../../../../src/hal/../draw/../misc/lv_color.h ****     LV_OPA_0      = 0,
  44:Drivers/lvgl/lvgl/src/extra/widgets/meter/../../../../src/hal/../draw/../misc/lv_color.h ****     LV_OPA_10     = 25,
  45:Drivers/lvgl/lvgl/src/extra/widgets/meter/../../../../src/hal/../draw/../misc/lv_color.h ****     LV_OPA_20     = 51,
  46:Drivers/lvgl/lvgl/src/extra/widgets/meter/../../../../src/hal/../draw/../misc/lv_color.h ****     LV_OPA_30     = 76,
  47:Drivers/lvgl/lvgl/src/extra/widgets/meter/../../../../src/hal/../draw/../misc/lv_color.h ****     LV_OPA_40     = 102,
  48:Drivers/lvgl/lvgl/src/extra/widgets/meter/../../../../src/hal/../draw/../misc/lv_color.h ****     LV_OPA_50     = 127,
  49:Drivers/lvgl/lvgl/src/extra/widgets/meter/../../../../src/hal/../draw/../misc/lv_color.h ****     LV_OPA_60     = 153,
  50:Drivers/lvgl/lvgl/src/extra/widgets/meter/../../../../src/hal/../draw/../misc/lv_color.h ****     LV_OPA_70     = 178,
  51:Drivers/lvgl/lvgl/src/extra/widgets/meter/../../../../src/hal/../draw/../misc/lv_color.h ****     LV_OPA_80     = 204,
  52:Drivers/lvgl/lvgl/src/extra/widgets/meter/../../../../src/hal/../draw/../misc/lv_color.h ****     LV_OPA_90     = 229,
  53:Drivers/lvgl/lvgl/src/extra/widgets/meter/../../../../src/hal/../draw/../misc/lv_color.h ****     LV_OPA_100    = 255,
  54:Drivers/lvgl/lvgl/src/extra/widgets/meter/../../../../src/hal/../draw/../misc/lv_color.h ****     LV_OPA_COVER  = 255,
  55:Drivers/lvgl/lvgl/src/extra/widgets/meter/../../../../src/hal/../draw/../misc/lv_color.h **** };
  56:Drivers/lvgl/lvgl/src/extra/widgets/meter/../../../../src/hal/../draw/../misc/lv_color.h **** 
  57:Drivers/lvgl/lvgl/src/extra/widgets/meter/../../../../src/hal/../draw/../misc/lv_color.h **** #define LV_OPA_MIN 2    /*Opacities below this will be transparent*/
  58:Drivers/lvgl/lvgl/src/extra/widgets/meter/../../../../src/hal/../draw/../misc/lv_color.h **** #define LV_OPA_MAX 253  /*Opacities above this will fully cover*/
  59:Drivers/lvgl/lvgl/src/extra/widgets/meter/../../../../src/hal/../draw/../misc/lv_color.h **** 
  60:Drivers/lvgl/lvgl/src/extra/widgets/meter/../../../../src/hal/../draw/../misc/lv_color.h **** #if LV_COLOR_DEPTH == 1
  61:Drivers/lvgl/lvgl/src/extra/widgets/meter/../../../../src/hal/../draw/../misc/lv_color.h **** #define LV_COLOR_SIZE 8
  62:Drivers/lvgl/lvgl/src/extra/widgets/meter/../../../../src/hal/../draw/../misc/lv_color.h **** #elif LV_COLOR_DEPTH == 8
  63:Drivers/lvgl/lvgl/src/extra/widgets/meter/../../../../src/hal/../draw/../misc/lv_color.h **** #define LV_COLOR_SIZE 8
  64:Drivers/lvgl/lvgl/src/extra/widgets/meter/../../../../src/hal/../draw/../misc/lv_color.h **** #elif LV_COLOR_DEPTH == 16
  65:Drivers/lvgl/lvgl/src/extra/widgets/meter/../../../../src/hal/../draw/../misc/lv_color.h **** #define LV_COLOR_SIZE 16
  66:Drivers/lvgl/lvgl/src/extra/widgets/meter/../../../../src/hal/../draw/../misc/lv_color.h **** #elif LV_COLOR_DEPTH == 32
  67:Drivers/lvgl/lvgl/src/extra/widgets/meter/../../../../src/hal/../draw/../misc/lv_color.h **** #define LV_COLOR_SIZE 32
  68:Drivers/lvgl/lvgl/src/extra/widgets/meter/../../../../src/hal/../draw/../misc/lv_color.h **** #else
  69:Drivers/lvgl/lvgl/src/extra/widgets/meter/../../../../src/hal/../draw/../misc/lv_color.h **** #error "Invalid LV_COLOR_DEPTH in lv_conf.h! Set it to 1, 8, 16 or 32!"
  70:Drivers/lvgl/lvgl/src/extra/widgets/meter/../../../../src/hal/../draw/../misc/lv_color.h **** #endif
  71:Drivers/lvgl/lvgl/src/extra/widgets/meter/../../../../src/hal/../draw/../misc/lv_color.h **** 
ARM GAS  /tmp/ccVvrzYL.s 			page 30


  72:Drivers/lvgl/lvgl/src/extra/widgets/meter/../../../../src/hal/../draw/../misc/lv_color.h **** #if defined(__cplusplus) && !defined(_LV_COLOR_HAS_MODERN_CPP)
  73:Drivers/lvgl/lvgl/src/extra/widgets/meter/../../../../src/hal/../draw/../misc/lv_color.h **** /**
  74:Drivers/lvgl/lvgl/src/extra/widgets/meter/../../../../src/hal/../draw/../misc/lv_color.h **** * MSVC compiler's definition of the __cplusplus indicating 199711L regardless to C++ standard versi
  75:Drivers/lvgl/lvgl/src/extra/widgets/meter/../../../../src/hal/../draw/../misc/lv_color.h **** * see https://devblogs.microsoft.com/cppblog/msvc-now-correctly-reports-cplusplus
  76:Drivers/lvgl/lvgl/src/extra/widgets/meter/../../../../src/hal/../draw/../misc/lv_color.h **** * so we use _MSC_VER macro instead of __cplusplus
  77:Drivers/lvgl/lvgl/src/extra/widgets/meter/../../../../src/hal/../draw/../misc/lv_color.h **** */
  78:Drivers/lvgl/lvgl/src/extra/widgets/meter/../../../../src/hal/../draw/../misc/lv_color.h **** #ifdef _MSC_VER
  79:Drivers/lvgl/lvgl/src/extra/widgets/meter/../../../../src/hal/../draw/../misc/lv_color.h **** #if _MSC_VER >= 1900 /*Visual Studio 2015*/
  80:Drivers/lvgl/lvgl/src/extra/widgets/meter/../../../../src/hal/../draw/../misc/lv_color.h **** #define _LV_COLOR_HAS_MODERN_CPP 1
  81:Drivers/lvgl/lvgl/src/extra/widgets/meter/../../../../src/hal/../draw/../misc/lv_color.h **** #endif
  82:Drivers/lvgl/lvgl/src/extra/widgets/meter/../../../../src/hal/../draw/../misc/lv_color.h **** #else
  83:Drivers/lvgl/lvgl/src/extra/widgets/meter/../../../../src/hal/../draw/../misc/lv_color.h **** #if __cplusplus >= 201103L
  84:Drivers/lvgl/lvgl/src/extra/widgets/meter/../../../../src/hal/../draw/../misc/lv_color.h **** #define _LV_COLOR_HAS_MODERN_CPP 1
  85:Drivers/lvgl/lvgl/src/extra/widgets/meter/../../../../src/hal/../draw/../misc/lv_color.h **** #endif
  86:Drivers/lvgl/lvgl/src/extra/widgets/meter/../../../../src/hal/../draw/../misc/lv_color.h **** #endif
  87:Drivers/lvgl/lvgl/src/extra/widgets/meter/../../../../src/hal/../draw/../misc/lv_color.h **** #endif /*__cplusplus*/
  88:Drivers/lvgl/lvgl/src/extra/widgets/meter/../../../../src/hal/../draw/../misc/lv_color.h **** 
  89:Drivers/lvgl/lvgl/src/extra/widgets/meter/../../../../src/hal/../draw/../misc/lv_color.h **** #ifndef _LV_COLOR_HAS_MODERN_CPP
  90:Drivers/lvgl/lvgl/src/extra/widgets/meter/../../../../src/hal/../draw/../misc/lv_color.h **** #define _LV_COLOR_HAS_MODERN_CPP 0
  91:Drivers/lvgl/lvgl/src/extra/widgets/meter/../../../../src/hal/../draw/../misc/lv_color.h **** #endif
  92:Drivers/lvgl/lvgl/src/extra/widgets/meter/../../../../src/hal/../draw/../misc/lv_color.h **** 
  93:Drivers/lvgl/lvgl/src/extra/widgets/meter/../../../../src/hal/../draw/../misc/lv_color.h **** #if _LV_COLOR_HAS_MODERN_CPP
  94:Drivers/lvgl/lvgl/src/extra/widgets/meter/../../../../src/hal/../draw/../misc/lv_color.h **** /*Fix msvc compiler error C4576 inside C++ code*/
  95:Drivers/lvgl/lvgl/src/extra/widgets/meter/../../../../src/hal/../draw/../misc/lv_color.h **** #define _LV_COLOR_MAKE_TYPE_HELPER lv_color_t
  96:Drivers/lvgl/lvgl/src/extra/widgets/meter/../../../../src/hal/../draw/../misc/lv_color.h **** #else
  97:Drivers/lvgl/lvgl/src/extra/widgets/meter/../../../../src/hal/../draw/../misc/lv_color.h **** #define _LV_COLOR_MAKE_TYPE_HELPER (lv_color_t)
  98:Drivers/lvgl/lvgl/src/extra/widgets/meter/../../../../src/hal/../draw/../misc/lv_color.h **** #endif
  99:Drivers/lvgl/lvgl/src/extra/widgets/meter/../../../../src/hal/../draw/../misc/lv_color.h **** 
 100:Drivers/lvgl/lvgl/src/extra/widgets/meter/../../../../src/hal/../draw/../misc/lv_color.h **** /*---------------------------------------
 101:Drivers/lvgl/lvgl/src/extra/widgets/meter/../../../../src/hal/../draw/../misc/lv_color.h ****  * Macros for all existing color depths
 102:Drivers/lvgl/lvgl/src/extra/widgets/meter/../../../../src/hal/../draw/../misc/lv_color.h ****  * to set/get values of the color channels
 103:Drivers/lvgl/lvgl/src/extra/widgets/meter/../../../../src/hal/../draw/../misc/lv_color.h ****  *------------------------------------------*/
 104:Drivers/lvgl/lvgl/src/extra/widgets/meter/../../../../src/hal/../draw/../misc/lv_color.h **** # define LV_COLOR_SET_R1(c, v) (c).ch.red = (uint8_t)((v) & 0x1)
 105:Drivers/lvgl/lvgl/src/extra/widgets/meter/../../../../src/hal/../draw/../misc/lv_color.h **** # define LV_COLOR_SET_G1(c, v) (c).ch.green = (uint8_t)((v) & 0x1)
 106:Drivers/lvgl/lvgl/src/extra/widgets/meter/../../../../src/hal/../draw/../misc/lv_color.h **** # define LV_COLOR_SET_B1(c, v) (c).ch.blue = (uint8_t)((v) & 0x1)
 107:Drivers/lvgl/lvgl/src/extra/widgets/meter/../../../../src/hal/../draw/../misc/lv_color.h **** # define LV_COLOR_SET_A1(c, v) do {} while(0)
 108:Drivers/lvgl/lvgl/src/extra/widgets/meter/../../../../src/hal/../draw/../misc/lv_color.h **** 
 109:Drivers/lvgl/lvgl/src/extra/widgets/meter/../../../../src/hal/../draw/../misc/lv_color.h **** # define LV_COLOR_GET_R1(c) (c).ch.red
 110:Drivers/lvgl/lvgl/src/extra/widgets/meter/../../../../src/hal/../draw/../misc/lv_color.h **** # define LV_COLOR_GET_G1(c) (c).ch.green
 111:Drivers/lvgl/lvgl/src/extra/widgets/meter/../../../../src/hal/../draw/../misc/lv_color.h **** # define LV_COLOR_GET_B1(c) (c).ch.blue
 112:Drivers/lvgl/lvgl/src/extra/widgets/meter/../../../../src/hal/../draw/../misc/lv_color.h **** # define LV_COLOR_GET_A1(c) 0xFF
 113:Drivers/lvgl/lvgl/src/extra/widgets/meter/../../../../src/hal/../draw/../misc/lv_color.h **** 
 114:Drivers/lvgl/lvgl/src/extra/widgets/meter/../../../../src/hal/../draw/../misc/lv_color.h **** # define _LV_COLOR_ZERO_INITIALIZER1 {0x00}
 115:Drivers/lvgl/lvgl/src/extra/widgets/meter/../../../../src/hal/../draw/../misc/lv_color.h **** # define LV_COLOR_MAKE1(r8, g8, b8)  {(uint8_t)((b8 >> 7) | (g8 >> 7) | (r8 >> 7))}
 116:Drivers/lvgl/lvgl/src/extra/widgets/meter/../../../../src/hal/../draw/../misc/lv_color.h **** 
 117:Drivers/lvgl/lvgl/src/extra/widgets/meter/../../../../src/hal/../draw/../misc/lv_color.h **** # define LV_COLOR_SET_R8(c, v) (c).ch.red = (uint8_t)((v) & 0x7U)
 118:Drivers/lvgl/lvgl/src/extra/widgets/meter/../../../../src/hal/../draw/../misc/lv_color.h **** # define LV_COLOR_SET_G8(c, v) (c).ch.green = (uint8_t)((v) & 0x7U)
 119:Drivers/lvgl/lvgl/src/extra/widgets/meter/../../../../src/hal/../draw/../misc/lv_color.h **** # define LV_COLOR_SET_B8(c, v) (c).ch.blue = (uint8_t)((v) & 0x3U)
 120:Drivers/lvgl/lvgl/src/extra/widgets/meter/../../../../src/hal/../draw/../misc/lv_color.h **** # define LV_COLOR_SET_A8(c, v) do {} while(0)
 121:Drivers/lvgl/lvgl/src/extra/widgets/meter/../../../../src/hal/../draw/../misc/lv_color.h **** 
 122:Drivers/lvgl/lvgl/src/extra/widgets/meter/../../../../src/hal/../draw/../misc/lv_color.h **** # define LV_COLOR_GET_R8(c) (c).ch.red
 123:Drivers/lvgl/lvgl/src/extra/widgets/meter/../../../../src/hal/../draw/../misc/lv_color.h **** # define LV_COLOR_GET_G8(c) (c).ch.green
 124:Drivers/lvgl/lvgl/src/extra/widgets/meter/../../../../src/hal/../draw/../misc/lv_color.h **** # define LV_COLOR_GET_B8(c) (c).ch.blue
 125:Drivers/lvgl/lvgl/src/extra/widgets/meter/../../../../src/hal/../draw/../misc/lv_color.h **** # define LV_COLOR_GET_A8(c) 0xFF
 126:Drivers/lvgl/lvgl/src/extra/widgets/meter/../../../../src/hal/../draw/../misc/lv_color.h **** 
 127:Drivers/lvgl/lvgl/src/extra/widgets/meter/../../../../src/hal/../draw/../misc/lv_color.h **** # define _LV_COLOR_ZERO_INITIALIZER8 {{0x00, 0x00, 0x00}}
 128:Drivers/lvgl/lvgl/src/extra/widgets/meter/../../../../src/hal/../draw/../misc/lv_color.h **** # define LV_COLOR_MAKE8(r8, g8, b8) {{(uint8_t)((b8 >> 6) & 0x3U), (uint8_t)((g8 >> 5) & 0x7U), (ui
ARM GAS  /tmp/ccVvrzYL.s 			page 31


 129:Drivers/lvgl/lvgl/src/extra/widgets/meter/../../../../src/hal/../draw/../misc/lv_color.h **** 
 130:Drivers/lvgl/lvgl/src/extra/widgets/meter/../../../../src/hal/../draw/../misc/lv_color.h **** # define LV_COLOR_SET_R16(c, v) (c).ch.red = (uint8_t)((v) & 0x1FU)
 131:Drivers/lvgl/lvgl/src/extra/widgets/meter/../../../../src/hal/../draw/../misc/lv_color.h **** #if LV_COLOR_16_SWAP == 0
 132:Drivers/lvgl/lvgl/src/extra/widgets/meter/../../../../src/hal/../draw/../misc/lv_color.h **** # define LV_COLOR_SET_G16(c, v) (c).ch.green = (uint8_t)((v) & 0x3FU)
 133:Drivers/lvgl/lvgl/src/extra/widgets/meter/../../../../src/hal/../draw/../misc/lv_color.h **** #else
 134:Drivers/lvgl/lvgl/src/extra/widgets/meter/../../../../src/hal/../draw/../misc/lv_color.h **** # define LV_COLOR_SET_G16(c, v) {(c).ch.green_h = (uint8_t)(((v) >> 3) & 0x7); (c).ch.green_l = (ui
 135:Drivers/lvgl/lvgl/src/extra/widgets/meter/../../../../src/hal/../draw/../misc/lv_color.h **** #endif
 136:Drivers/lvgl/lvgl/src/extra/widgets/meter/../../../../src/hal/../draw/../misc/lv_color.h **** # define LV_COLOR_SET_B16(c, v) (c).ch.blue = (uint8_t)((v) & 0x1FU)
 137:Drivers/lvgl/lvgl/src/extra/widgets/meter/../../../../src/hal/../draw/../misc/lv_color.h **** # define LV_COLOR_SET_A16(c, v) do {} while(0)
 138:Drivers/lvgl/lvgl/src/extra/widgets/meter/../../../../src/hal/../draw/../misc/lv_color.h **** 
 139:Drivers/lvgl/lvgl/src/extra/widgets/meter/../../../../src/hal/../draw/../misc/lv_color.h **** # define LV_COLOR_GET_R16(c) (c).ch.red
 140:Drivers/lvgl/lvgl/src/extra/widgets/meter/../../../../src/hal/../draw/../misc/lv_color.h **** #if LV_COLOR_16_SWAP == 0
 141:Drivers/lvgl/lvgl/src/extra/widgets/meter/../../../../src/hal/../draw/../misc/lv_color.h **** # define LV_COLOR_GET_G16(c) (c).ch.green
 142:Drivers/lvgl/lvgl/src/extra/widgets/meter/../../../../src/hal/../draw/../misc/lv_color.h **** #else
 143:Drivers/lvgl/lvgl/src/extra/widgets/meter/../../../../src/hal/../draw/../misc/lv_color.h **** # define LV_COLOR_GET_G16(c) (((c).ch.green_h << 3) + (c).ch.green_l)
 144:Drivers/lvgl/lvgl/src/extra/widgets/meter/../../../../src/hal/../draw/../misc/lv_color.h **** #endif
 145:Drivers/lvgl/lvgl/src/extra/widgets/meter/../../../../src/hal/../draw/../misc/lv_color.h **** # define LV_COLOR_GET_B16(c) (c).ch.blue
 146:Drivers/lvgl/lvgl/src/extra/widgets/meter/../../../../src/hal/../draw/../misc/lv_color.h **** # define LV_COLOR_GET_A16(c) 0xFF
 147:Drivers/lvgl/lvgl/src/extra/widgets/meter/../../../../src/hal/../draw/../misc/lv_color.h **** 
 148:Drivers/lvgl/lvgl/src/extra/widgets/meter/../../../../src/hal/../draw/../misc/lv_color.h **** #if LV_COLOR_16_SWAP == 0
 149:Drivers/lvgl/lvgl/src/extra/widgets/meter/../../../../src/hal/../draw/../misc/lv_color.h **** # define _LV_COLOR_ZERO_INITIALIZER16  {{0x00, 0x00, 0x00}}
 150:Drivers/lvgl/lvgl/src/extra/widgets/meter/../../../../src/hal/../draw/../misc/lv_color.h **** # define LV_COLOR_MAKE16(r8, g8, b8) {{(uint8_t)((b8 >> 3) & 0x1FU), (uint8_t)((g8 >> 2) & 0x3FU), 
 151:Drivers/lvgl/lvgl/src/extra/widgets/meter/../../../../src/hal/../draw/../misc/lv_color.h **** #else
 152:Drivers/lvgl/lvgl/src/extra/widgets/meter/../../../../src/hal/../draw/../misc/lv_color.h **** # define _LV_COLOR_ZERO_INITIALIZER16 {{0x00, 0x00, 0x00, 0x00}}
 153:Drivers/lvgl/lvgl/src/extra/widgets/meter/../../../../src/hal/../draw/../misc/lv_color.h **** # define LV_COLOR_MAKE16(r8, g8, b8) {{(uint8_t)((g8 >> 5) & 0x7U), (uint8_t)((r8 >> 3) & 0x1FU), (
 154:Drivers/lvgl/lvgl/src/extra/widgets/meter/../../../../src/hal/../draw/../misc/lv_color.h **** #endif
 155:Drivers/lvgl/lvgl/src/extra/widgets/meter/../../../../src/hal/../draw/../misc/lv_color.h **** 
 156:Drivers/lvgl/lvgl/src/extra/widgets/meter/../../../../src/hal/../draw/../misc/lv_color.h **** # define LV_COLOR_SET_R32(c, v) (c).ch.red = (uint8_t)((v) & 0xFF)
 157:Drivers/lvgl/lvgl/src/extra/widgets/meter/../../../../src/hal/../draw/../misc/lv_color.h **** # define LV_COLOR_SET_G32(c, v) (c).ch.green = (uint8_t)((v) & 0xFF)
 158:Drivers/lvgl/lvgl/src/extra/widgets/meter/../../../../src/hal/../draw/../misc/lv_color.h **** # define LV_COLOR_SET_B32(c, v) (c).ch.blue = (uint8_t)((v) & 0xFF)
 159:Drivers/lvgl/lvgl/src/extra/widgets/meter/../../../../src/hal/../draw/../misc/lv_color.h **** # define LV_COLOR_SET_A32(c, v) (c).ch.alpha = (uint8_t)((v) & 0xFF)
 160:Drivers/lvgl/lvgl/src/extra/widgets/meter/../../../../src/hal/../draw/../misc/lv_color.h **** 
 161:Drivers/lvgl/lvgl/src/extra/widgets/meter/../../../../src/hal/../draw/../misc/lv_color.h **** # define LV_COLOR_GET_R32(c) (c).ch.red
 162:Drivers/lvgl/lvgl/src/extra/widgets/meter/../../../../src/hal/../draw/../misc/lv_color.h **** # define LV_COLOR_GET_G32(c) (c).ch.green
 163:Drivers/lvgl/lvgl/src/extra/widgets/meter/../../../../src/hal/../draw/../misc/lv_color.h **** # define LV_COLOR_GET_B32(c) (c).ch.blue
 164:Drivers/lvgl/lvgl/src/extra/widgets/meter/../../../../src/hal/../draw/../misc/lv_color.h **** # define LV_COLOR_GET_A32(c) (c).ch.alpha
 165:Drivers/lvgl/lvgl/src/extra/widgets/meter/../../../../src/hal/../draw/../misc/lv_color.h **** 
 166:Drivers/lvgl/lvgl/src/extra/widgets/meter/../../../../src/hal/../draw/../misc/lv_color.h **** # define _LV_COLOR_ZERO_INITIALIZER32  {{0x00, 0x00, 0x00, 0x00}}
 167:Drivers/lvgl/lvgl/src/extra/widgets/meter/../../../../src/hal/../draw/../misc/lv_color.h **** # define LV_COLOR_MAKE32(r8, g8, b8) {{b8, g8, r8, 0xff}} /*Fix 0xff alpha*/
 168:Drivers/lvgl/lvgl/src/extra/widgets/meter/../../../../src/hal/../draw/../misc/lv_color.h **** 
 169:Drivers/lvgl/lvgl/src/extra/widgets/meter/../../../../src/hal/../draw/../misc/lv_color.h **** /*---------------------------------------
 170:Drivers/lvgl/lvgl/src/extra/widgets/meter/../../../../src/hal/../draw/../misc/lv_color.h ****  * Macros for the current color depth
 171:Drivers/lvgl/lvgl/src/extra/widgets/meter/../../../../src/hal/../draw/../misc/lv_color.h ****  * to set/get values of the color channels
 172:Drivers/lvgl/lvgl/src/extra/widgets/meter/../../../../src/hal/../draw/../misc/lv_color.h ****  *------------------------------------------*/
 173:Drivers/lvgl/lvgl/src/extra/widgets/meter/../../../../src/hal/../draw/../misc/lv_color.h **** #define LV_COLOR_SET_R(c, v) LV_CONCAT(LV_COLOR_SET_R, LV_COLOR_DEPTH)(c, v)
 174:Drivers/lvgl/lvgl/src/extra/widgets/meter/../../../../src/hal/../draw/../misc/lv_color.h **** #define LV_COLOR_SET_G(c, v) LV_CONCAT(LV_COLOR_SET_G, LV_COLOR_DEPTH)(c, v)
 175:Drivers/lvgl/lvgl/src/extra/widgets/meter/../../../../src/hal/../draw/../misc/lv_color.h **** #define LV_COLOR_SET_B(c, v) LV_CONCAT(LV_COLOR_SET_B, LV_COLOR_DEPTH)(c, v)
 176:Drivers/lvgl/lvgl/src/extra/widgets/meter/../../../../src/hal/../draw/../misc/lv_color.h **** #define LV_COLOR_SET_A(c, v) LV_CONCAT(LV_COLOR_SET_A, LV_COLOR_DEPTH)(c, v)
 177:Drivers/lvgl/lvgl/src/extra/widgets/meter/../../../../src/hal/../draw/../misc/lv_color.h **** 
 178:Drivers/lvgl/lvgl/src/extra/widgets/meter/../../../../src/hal/../draw/../misc/lv_color.h **** #define LV_COLOR_GET_R(c) LV_CONCAT(LV_COLOR_GET_R, LV_COLOR_DEPTH)(c)
 179:Drivers/lvgl/lvgl/src/extra/widgets/meter/../../../../src/hal/../draw/../misc/lv_color.h **** #define LV_COLOR_GET_G(c) LV_CONCAT(LV_COLOR_GET_G, LV_COLOR_DEPTH)(c)
 180:Drivers/lvgl/lvgl/src/extra/widgets/meter/../../../../src/hal/../draw/../misc/lv_color.h **** #define LV_COLOR_GET_B(c) LV_CONCAT(LV_COLOR_GET_B, LV_COLOR_DEPTH)(c)
 181:Drivers/lvgl/lvgl/src/extra/widgets/meter/../../../../src/hal/../draw/../misc/lv_color.h **** #define LV_COLOR_GET_A(c) LV_CONCAT(LV_COLOR_GET_A, LV_COLOR_DEPTH)(c)
 182:Drivers/lvgl/lvgl/src/extra/widgets/meter/../../../../src/hal/../draw/../misc/lv_color.h **** 
 183:Drivers/lvgl/lvgl/src/extra/widgets/meter/../../../../src/hal/../draw/../misc/lv_color.h **** #define _LV_COLOR_ZERO_INITIALIZER LV_CONCAT(_LV_COLOR_ZERO_INITIALIZER, LV_COLOR_DEPTH)
 184:Drivers/lvgl/lvgl/src/extra/widgets/meter/../../../../src/hal/../draw/../misc/lv_color.h **** #define LV_COLOR_MAKE(r8, g8, b8) LV_CONCAT(LV_COLOR_MAKE, LV_COLOR_DEPTH)(r8, g8, b8)
 185:Drivers/lvgl/lvgl/src/extra/widgets/meter/../../../../src/hal/../draw/../misc/lv_color.h **** 
ARM GAS  /tmp/ccVvrzYL.s 			page 32


 186:Drivers/lvgl/lvgl/src/extra/widgets/meter/../../../../src/hal/../draw/../misc/lv_color.h **** /**********************
 187:Drivers/lvgl/lvgl/src/extra/widgets/meter/../../../../src/hal/../draw/../misc/lv_color.h ****  *      TYPEDEFS
 188:Drivers/lvgl/lvgl/src/extra/widgets/meter/../../../../src/hal/../draw/../misc/lv_color.h ****  **********************/
 189:Drivers/lvgl/lvgl/src/extra/widgets/meter/../../../../src/hal/../draw/../misc/lv_color.h **** 
 190:Drivers/lvgl/lvgl/src/extra/widgets/meter/../../../../src/hal/../draw/../misc/lv_color.h **** typedef union {
 191:Drivers/lvgl/lvgl/src/extra/widgets/meter/../../../../src/hal/../draw/../misc/lv_color.h ****     uint8_t full; /*must be declared first to set all bits of byte via initializer list*/
 192:Drivers/lvgl/lvgl/src/extra/widgets/meter/../../../../src/hal/../draw/../misc/lv_color.h ****     union {
 193:Drivers/lvgl/lvgl/src/extra/widgets/meter/../../../../src/hal/../draw/../misc/lv_color.h ****         uint8_t blue : 1;
 194:Drivers/lvgl/lvgl/src/extra/widgets/meter/../../../../src/hal/../draw/../misc/lv_color.h ****         uint8_t green : 1;
 195:Drivers/lvgl/lvgl/src/extra/widgets/meter/../../../../src/hal/../draw/../misc/lv_color.h ****         uint8_t red : 1;
 196:Drivers/lvgl/lvgl/src/extra/widgets/meter/../../../../src/hal/../draw/../misc/lv_color.h ****     } ch;
 197:Drivers/lvgl/lvgl/src/extra/widgets/meter/../../../../src/hal/../draw/../misc/lv_color.h **** } lv_color1_t;
 198:Drivers/lvgl/lvgl/src/extra/widgets/meter/../../../../src/hal/../draw/../misc/lv_color.h **** 
 199:Drivers/lvgl/lvgl/src/extra/widgets/meter/../../../../src/hal/../draw/../misc/lv_color.h **** typedef union {
 200:Drivers/lvgl/lvgl/src/extra/widgets/meter/../../../../src/hal/../draw/../misc/lv_color.h ****     struct {
 201:Drivers/lvgl/lvgl/src/extra/widgets/meter/../../../../src/hal/../draw/../misc/lv_color.h ****         uint8_t blue : 2;
 202:Drivers/lvgl/lvgl/src/extra/widgets/meter/../../../../src/hal/../draw/../misc/lv_color.h ****         uint8_t green : 3;
 203:Drivers/lvgl/lvgl/src/extra/widgets/meter/../../../../src/hal/../draw/../misc/lv_color.h ****         uint8_t red : 3;
 204:Drivers/lvgl/lvgl/src/extra/widgets/meter/../../../../src/hal/../draw/../misc/lv_color.h ****     } ch;
 205:Drivers/lvgl/lvgl/src/extra/widgets/meter/../../../../src/hal/../draw/../misc/lv_color.h ****     uint8_t full;
 206:Drivers/lvgl/lvgl/src/extra/widgets/meter/../../../../src/hal/../draw/../misc/lv_color.h **** } lv_color8_t;
 207:Drivers/lvgl/lvgl/src/extra/widgets/meter/../../../../src/hal/../draw/../misc/lv_color.h **** 
 208:Drivers/lvgl/lvgl/src/extra/widgets/meter/../../../../src/hal/../draw/../misc/lv_color.h **** typedef union {
 209:Drivers/lvgl/lvgl/src/extra/widgets/meter/../../../../src/hal/../draw/../misc/lv_color.h ****     struct {
 210:Drivers/lvgl/lvgl/src/extra/widgets/meter/../../../../src/hal/../draw/../misc/lv_color.h **** #if LV_COLOR_16_SWAP == 0
 211:Drivers/lvgl/lvgl/src/extra/widgets/meter/../../../../src/hal/../draw/../misc/lv_color.h ****         uint16_t blue : 5;
 212:Drivers/lvgl/lvgl/src/extra/widgets/meter/../../../../src/hal/../draw/../misc/lv_color.h ****         uint16_t green : 6;
 213:Drivers/lvgl/lvgl/src/extra/widgets/meter/../../../../src/hal/../draw/../misc/lv_color.h ****         uint16_t red : 5;
 214:Drivers/lvgl/lvgl/src/extra/widgets/meter/../../../../src/hal/../draw/../misc/lv_color.h **** #else
 215:Drivers/lvgl/lvgl/src/extra/widgets/meter/../../../../src/hal/../draw/../misc/lv_color.h ****         uint16_t green_h : 3;
 216:Drivers/lvgl/lvgl/src/extra/widgets/meter/../../../../src/hal/../draw/../misc/lv_color.h ****         uint16_t red : 5;
 217:Drivers/lvgl/lvgl/src/extra/widgets/meter/../../../../src/hal/../draw/../misc/lv_color.h ****         uint16_t blue : 5;
 218:Drivers/lvgl/lvgl/src/extra/widgets/meter/../../../../src/hal/../draw/../misc/lv_color.h ****         uint16_t green_l : 3;
 219:Drivers/lvgl/lvgl/src/extra/widgets/meter/../../../../src/hal/../draw/../misc/lv_color.h **** #endif
 220:Drivers/lvgl/lvgl/src/extra/widgets/meter/../../../../src/hal/../draw/../misc/lv_color.h ****     } ch;
 221:Drivers/lvgl/lvgl/src/extra/widgets/meter/../../../../src/hal/../draw/../misc/lv_color.h ****     uint16_t full;
 222:Drivers/lvgl/lvgl/src/extra/widgets/meter/../../../../src/hal/../draw/../misc/lv_color.h **** } lv_color16_t;
 223:Drivers/lvgl/lvgl/src/extra/widgets/meter/../../../../src/hal/../draw/../misc/lv_color.h **** 
 224:Drivers/lvgl/lvgl/src/extra/widgets/meter/../../../../src/hal/../draw/../misc/lv_color.h **** typedef union {
 225:Drivers/lvgl/lvgl/src/extra/widgets/meter/../../../../src/hal/../draw/../misc/lv_color.h ****     struct {
 226:Drivers/lvgl/lvgl/src/extra/widgets/meter/../../../../src/hal/../draw/../misc/lv_color.h ****         uint8_t blue;
 227:Drivers/lvgl/lvgl/src/extra/widgets/meter/../../../../src/hal/../draw/../misc/lv_color.h ****         uint8_t green;
 228:Drivers/lvgl/lvgl/src/extra/widgets/meter/../../../../src/hal/../draw/../misc/lv_color.h ****         uint8_t red;
 229:Drivers/lvgl/lvgl/src/extra/widgets/meter/../../../../src/hal/../draw/../misc/lv_color.h ****         uint8_t alpha;
 230:Drivers/lvgl/lvgl/src/extra/widgets/meter/../../../../src/hal/../draw/../misc/lv_color.h ****     } ch;
 231:Drivers/lvgl/lvgl/src/extra/widgets/meter/../../../../src/hal/../draw/../misc/lv_color.h ****     uint32_t full;
 232:Drivers/lvgl/lvgl/src/extra/widgets/meter/../../../../src/hal/../draw/../misc/lv_color.h **** } lv_color32_t;
 233:Drivers/lvgl/lvgl/src/extra/widgets/meter/../../../../src/hal/../draw/../misc/lv_color.h **** 
 234:Drivers/lvgl/lvgl/src/extra/widgets/meter/../../../../src/hal/../draw/../misc/lv_color.h **** typedef LV_CONCAT3(uint, LV_COLOR_SIZE, _t) lv_color_int_t;
 235:Drivers/lvgl/lvgl/src/extra/widgets/meter/../../../../src/hal/../draw/../misc/lv_color.h **** typedef LV_CONCAT3(lv_color, LV_COLOR_DEPTH, _t) lv_color_t;
 236:Drivers/lvgl/lvgl/src/extra/widgets/meter/../../../../src/hal/../draw/../misc/lv_color.h **** 
 237:Drivers/lvgl/lvgl/src/extra/widgets/meter/../../../../src/hal/../draw/../misc/lv_color.h **** typedef struct {
 238:Drivers/lvgl/lvgl/src/extra/widgets/meter/../../../../src/hal/../draw/../misc/lv_color.h ****     uint16_t h;
 239:Drivers/lvgl/lvgl/src/extra/widgets/meter/../../../../src/hal/../draw/../misc/lv_color.h ****     uint8_t s;
 240:Drivers/lvgl/lvgl/src/extra/widgets/meter/../../../../src/hal/../draw/../misc/lv_color.h ****     uint8_t v;
 241:Drivers/lvgl/lvgl/src/extra/widgets/meter/../../../../src/hal/../draw/../misc/lv_color.h **** } lv_color_hsv_t;
 242:Drivers/lvgl/lvgl/src/extra/widgets/meter/../../../../src/hal/../draw/../misc/lv_color.h **** 
ARM GAS  /tmp/ccVvrzYL.s 			page 33


 243:Drivers/lvgl/lvgl/src/extra/widgets/meter/../../../../src/hal/../draw/../misc/lv_color.h **** //! @cond Doxygen_Suppress
 244:Drivers/lvgl/lvgl/src/extra/widgets/meter/../../../../src/hal/../draw/../misc/lv_color.h **** /*No idea where the guard is required but else throws warnings in the docs*/
 245:Drivers/lvgl/lvgl/src/extra/widgets/meter/../../../../src/hal/../draw/../misc/lv_color.h **** typedef uint8_t lv_opa_t;
 246:Drivers/lvgl/lvgl/src/extra/widgets/meter/../../../../src/hal/../draw/../misc/lv_color.h **** //! @endcond
 247:Drivers/lvgl/lvgl/src/extra/widgets/meter/../../../../src/hal/../draw/../misc/lv_color.h **** 
 248:Drivers/lvgl/lvgl/src/extra/widgets/meter/../../../../src/hal/../draw/../misc/lv_color.h **** struct _lv_color_filter_dsc_t;
 249:Drivers/lvgl/lvgl/src/extra/widgets/meter/../../../../src/hal/../draw/../misc/lv_color.h **** 
 250:Drivers/lvgl/lvgl/src/extra/widgets/meter/../../../../src/hal/../draw/../misc/lv_color.h **** typedef lv_color_t (*lv_color_filter_cb_t)(const struct _lv_color_filter_dsc_t *, lv_color_t, lv_op
 251:Drivers/lvgl/lvgl/src/extra/widgets/meter/../../../../src/hal/../draw/../misc/lv_color.h **** 
 252:Drivers/lvgl/lvgl/src/extra/widgets/meter/../../../../src/hal/../draw/../misc/lv_color.h **** typedef struct _lv_color_filter_dsc_t {
 253:Drivers/lvgl/lvgl/src/extra/widgets/meter/../../../../src/hal/../draw/../misc/lv_color.h ****     lv_color_filter_cb_t filter_cb;
 254:Drivers/lvgl/lvgl/src/extra/widgets/meter/../../../../src/hal/../draw/../misc/lv_color.h ****     void * user_data;
 255:Drivers/lvgl/lvgl/src/extra/widgets/meter/../../../../src/hal/../draw/../misc/lv_color.h **** } lv_color_filter_dsc_t;
 256:Drivers/lvgl/lvgl/src/extra/widgets/meter/../../../../src/hal/../draw/../misc/lv_color.h **** 
 257:Drivers/lvgl/lvgl/src/extra/widgets/meter/../../../../src/hal/../draw/../misc/lv_color.h **** 
 258:Drivers/lvgl/lvgl/src/extra/widgets/meter/../../../../src/hal/../draw/../misc/lv_color.h **** typedef enum {
 259:Drivers/lvgl/lvgl/src/extra/widgets/meter/../../../../src/hal/../draw/../misc/lv_color.h ****     LV_PALETTE_RED,
 260:Drivers/lvgl/lvgl/src/extra/widgets/meter/../../../../src/hal/../draw/../misc/lv_color.h ****     LV_PALETTE_PINK,
 261:Drivers/lvgl/lvgl/src/extra/widgets/meter/../../../../src/hal/../draw/../misc/lv_color.h ****     LV_PALETTE_PURPLE,
 262:Drivers/lvgl/lvgl/src/extra/widgets/meter/../../../../src/hal/../draw/../misc/lv_color.h ****     LV_PALETTE_DEEP_PURPLE,
 263:Drivers/lvgl/lvgl/src/extra/widgets/meter/../../../../src/hal/../draw/../misc/lv_color.h ****     LV_PALETTE_INDIGO,
 264:Drivers/lvgl/lvgl/src/extra/widgets/meter/../../../../src/hal/../draw/../misc/lv_color.h ****     LV_PALETTE_BLUE,
 265:Drivers/lvgl/lvgl/src/extra/widgets/meter/../../../../src/hal/../draw/../misc/lv_color.h ****     LV_PALETTE_LIGHT_BLUE,
 266:Drivers/lvgl/lvgl/src/extra/widgets/meter/../../../../src/hal/../draw/../misc/lv_color.h ****     LV_PALETTE_CYAN,
 267:Drivers/lvgl/lvgl/src/extra/widgets/meter/../../../../src/hal/../draw/../misc/lv_color.h ****     LV_PALETTE_TEAL,
 268:Drivers/lvgl/lvgl/src/extra/widgets/meter/../../../../src/hal/../draw/../misc/lv_color.h ****     LV_PALETTE_GREEN,
 269:Drivers/lvgl/lvgl/src/extra/widgets/meter/../../../../src/hal/../draw/../misc/lv_color.h ****     LV_PALETTE_LIGHT_GREEN,
 270:Drivers/lvgl/lvgl/src/extra/widgets/meter/../../../../src/hal/../draw/../misc/lv_color.h ****     LV_PALETTE_LIME,
 271:Drivers/lvgl/lvgl/src/extra/widgets/meter/../../../../src/hal/../draw/../misc/lv_color.h ****     LV_PALETTE_YELLOW,
 272:Drivers/lvgl/lvgl/src/extra/widgets/meter/../../../../src/hal/../draw/../misc/lv_color.h ****     LV_PALETTE_AMBER,
 273:Drivers/lvgl/lvgl/src/extra/widgets/meter/../../../../src/hal/../draw/../misc/lv_color.h ****     LV_PALETTE_ORANGE,
 274:Drivers/lvgl/lvgl/src/extra/widgets/meter/../../../../src/hal/../draw/../misc/lv_color.h ****     LV_PALETTE_DEEP_ORANGE,
 275:Drivers/lvgl/lvgl/src/extra/widgets/meter/../../../../src/hal/../draw/../misc/lv_color.h ****     LV_PALETTE_BROWN,
 276:Drivers/lvgl/lvgl/src/extra/widgets/meter/../../../../src/hal/../draw/../misc/lv_color.h ****     LV_PALETTE_BLUE_GREY,
 277:Drivers/lvgl/lvgl/src/extra/widgets/meter/../../../../src/hal/../draw/../misc/lv_color.h ****     LV_PALETTE_GREY,
 278:Drivers/lvgl/lvgl/src/extra/widgets/meter/../../../../src/hal/../draw/../misc/lv_color.h ****     _LV_PALETTE_LAST,
 279:Drivers/lvgl/lvgl/src/extra/widgets/meter/../../../../src/hal/../draw/../misc/lv_color.h ****     LV_PALETTE_NONE = 0xff,
 280:Drivers/lvgl/lvgl/src/extra/widgets/meter/../../../../src/hal/../draw/../misc/lv_color.h **** } lv_palette_t;
 281:Drivers/lvgl/lvgl/src/extra/widgets/meter/../../../../src/hal/../draw/../misc/lv_color.h **** 
 282:Drivers/lvgl/lvgl/src/extra/widgets/meter/../../../../src/hal/../draw/../misc/lv_color.h **** /**********************
 283:Drivers/lvgl/lvgl/src/extra/widgets/meter/../../../../src/hal/../draw/../misc/lv_color.h ****  * GLOBAL PROTOTYPES
 284:Drivers/lvgl/lvgl/src/extra/widgets/meter/../../../../src/hal/../draw/../misc/lv_color.h ****  **********************/
 285:Drivers/lvgl/lvgl/src/extra/widgets/meter/../../../../src/hal/../draw/../misc/lv_color.h **** 
 286:Drivers/lvgl/lvgl/src/extra/widgets/meter/../../../../src/hal/../draw/../misc/lv_color.h **** /*In color conversations:
 287:Drivers/lvgl/lvgl/src/extra/widgets/meter/../../../../src/hal/../draw/../misc/lv_color.h ****  * - When converting to bigger color type the LSB weight of 1 LSB is calculated
 288:Drivers/lvgl/lvgl/src/extra/widgets/meter/../../../../src/hal/../draw/../misc/lv_color.h ****  *   E.g. 16 bit Red has 5 bits
 289:Drivers/lvgl/lvgl/src/extra/widgets/meter/../../../../src/hal/../draw/../misc/lv_color.h ****  *         8 bit Red has 3 bits
 290:Drivers/lvgl/lvgl/src/extra/widgets/meter/../../../../src/hal/../draw/../misc/lv_color.h ****  *        ----------------------
 291:Drivers/lvgl/lvgl/src/extra/widgets/meter/../../../../src/hal/../draw/../misc/lv_color.h ****  *        8 bit red LSB = (2^5 - 1) / (2^3 - 1) = 31 / 7 = 4
 292:Drivers/lvgl/lvgl/src/extra/widgets/meter/../../../../src/hal/../draw/../misc/lv_color.h ****  *
 293:Drivers/lvgl/lvgl/src/extra/widgets/meter/../../../../src/hal/../draw/../misc/lv_color.h ****  * - When calculating to smaller color type simply shift out the LSBs
 294:Drivers/lvgl/lvgl/src/extra/widgets/meter/../../../../src/hal/../draw/../misc/lv_color.h ****  *   E.g.  8 bit Red has 3 bits
 295:Drivers/lvgl/lvgl/src/extra/widgets/meter/../../../../src/hal/../draw/../misc/lv_color.h ****  *        16 bit Red has 5 bits
 296:Drivers/lvgl/lvgl/src/extra/widgets/meter/../../../../src/hal/../draw/../misc/lv_color.h ****  *        ----------------------
 297:Drivers/lvgl/lvgl/src/extra/widgets/meter/../../../../src/hal/../draw/../misc/lv_color.h ****  *         Shift right with 5 - 3 = 2
 298:Drivers/lvgl/lvgl/src/extra/widgets/meter/../../../../src/hal/../draw/../misc/lv_color.h ****  */
 299:Drivers/lvgl/lvgl/src/extra/widgets/meter/../../../../src/hal/../draw/../misc/lv_color.h **** static inline uint8_t lv_color_to1(lv_color_t color)
ARM GAS  /tmp/ccVvrzYL.s 			page 34


 300:Drivers/lvgl/lvgl/src/extra/widgets/meter/../../../../src/hal/../draw/../misc/lv_color.h **** {
 301:Drivers/lvgl/lvgl/src/extra/widgets/meter/../../../../src/hal/../draw/../misc/lv_color.h **** #if LV_COLOR_DEPTH == 1
 302:Drivers/lvgl/lvgl/src/extra/widgets/meter/../../../../src/hal/../draw/../misc/lv_color.h ****     return color.full;
 303:Drivers/lvgl/lvgl/src/extra/widgets/meter/../../../../src/hal/../draw/../misc/lv_color.h **** #elif LV_COLOR_DEPTH == 8
 304:Drivers/lvgl/lvgl/src/extra/widgets/meter/../../../../src/hal/../draw/../misc/lv_color.h ****     if((LV_COLOR_GET_R(color) & 0x4) || (LV_COLOR_GET_G(color) & 0x4) || (LV_COLOR_GET_B(color) & 0
 305:Drivers/lvgl/lvgl/src/extra/widgets/meter/../../../../src/hal/../draw/../misc/lv_color.h ****         return 1;
 306:Drivers/lvgl/lvgl/src/extra/widgets/meter/../../../../src/hal/../draw/../misc/lv_color.h ****     }
 307:Drivers/lvgl/lvgl/src/extra/widgets/meter/../../../../src/hal/../draw/../misc/lv_color.h ****     else {
 308:Drivers/lvgl/lvgl/src/extra/widgets/meter/../../../../src/hal/../draw/../misc/lv_color.h ****         return 0;
 309:Drivers/lvgl/lvgl/src/extra/widgets/meter/../../../../src/hal/../draw/../misc/lv_color.h ****     }
 310:Drivers/lvgl/lvgl/src/extra/widgets/meter/../../../../src/hal/../draw/../misc/lv_color.h **** #elif LV_COLOR_DEPTH == 16
 311:Drivers/lvgl/lvgl/src/extra/widgets/meter/../../../../src/hal/../draw/../misc/lv_color.h ****     if((LV_COLOR_GET_R(color) & 0x10) || (LV_COLOR_GET_G(color) & 0x20) || (LV_COLOR_GET_B(color) &
 312:Drivers/lvgl/lvgl/src/extra/widgets/meter/../../../../src/hal/../draw/../misc/lv_color.h ****         return 1;
 313:Drivers/lvgl/lvgl/src/extra/widgets/meter/../../../../src/hal/../draw/../misc/lv_color.h ****     }
 314:Drivers/lvgl/lvgl/src/extra/widgets/meter/../../../../src/hal/../draw/../misc/lv_color.h ****     else {
 315:Drivers/lvgl/lvgl/src/extra/widgets/meter/../../../../src/hal/../draw/../misc/lv_color.h ****         return 0;
 316:Drivers/lvgl/lvgl/src/extra/widgets/meter/../../../../src/hal/../draw/../misc/lv_color.h ****     }
 317:Drivers/lvgl/lvgl/src/extra/widgets/meter/../../../../src/hal/../draw/../misc/lv_color.h **** #elif LV_COLOR_DEPTH == 32
 318:Drivers/lvgl/lvgl/src/extra/widgets/meter/../../../../src/hal/../draw/../misc/lv_color.h ****     if((LV_COLOR_GET_R(color) & 0x80) || (LV_COLOR_GET_G(color) & 0x80) || (LV_COLOR_GET_B(color) &
 319:Drivers/lvgl/lvgl/src/extra/widgets/meter/../../../../src/hal/../draw/../misc/lv_color.h ****         return 1;
 320:Drivers/lvgl/lvgl/src/extra/widgets/meter/../../../../src/hal/../draw/../misc/lv_color.h ****     }
 321:Drivers/lvgl/lvgl/src/extra/widgets/meter/../../../../src/hal/../draw/../misc/lv_color.h ****     else {
 322:Drivers/lvgl/lvgl/src/extra/widgets/meter/../../../../src/hal/../draw/../misc/lv_color.h ****         return 0;
 323:Drivers/lvgl/lvgl/src/extra/widgets/meter/../../../../src/hal/../draw/../misc/lv_color.h ****     }
 324:Drivers/lvgl/lvgl/src/extra/widgets/meter/../../../../src/hal/../draw/../misc/lv_color.h **** #endif
 325:Drivers/lvgl/lvgl/src/extra/widgets/meter/../../../../src/hal/../draw/../misc/lv_color.h **** }
 326:Drivers/lvgl/lvgl/src/extra/widgets/meter/../../../../src/hal/../draw/../misc/lv_color.h **** 
 327:Drivers/lvgl/lvgl/src/extra/widgets/meter/../../../../src/hal/../draw/../misc/lv_color.h **** static inline uint8_t lv_color_to8(lv_color_t color)
 328:Drivers/lvgl/lvgl/src/extra/widgets/meter/../../../../src/hal/../draw/../misc/lv_color.h **** {
 329:Drivers/lvgl/lvgl/src/extra/widgets/meter/../../../../src/hal/../draw/../misc/lv_color.h **** #if LV_COLOR_DEPTH == 1
 330:Drivers/lvgl/lvgl/src/extra/widgets/meter/../../../../src/hal/../draw/../misc/lv_color.h ****     if(color.full == 0)
 331:Drivers/lvgl/lvgl/src/extra/widgets/meter/../../../../src/hal/../draw/../misc/lv_color.h ****         return 0;
 332:Drivers/lvgl/lvgl/src/extra/widgets/meter/../../../../src/hal/../draw/../misc/lv_color.h ****     else
 333:Drivers/lvgl/lvgl/src/extra/widgets/meter/../../../../src/hal/../draw/../misc/lv_color.h ****         return 0xFF;
 334:Drivers/lvgl/lvgl/src/extra/widgets/meter/../../../../src/hal/../draw/../misc/lv_color.h **** #elif LV_COLOR_DEPTH == 8
 335:Drivers/lvgl/lvgl/src/extra/widgets/meter/../../../../src/hal/../draw/../misc/lv_color.h ****     return color.full;
 336:Drivers/lvgl/lvgl/src/extra/widgets/meter/../../../../src/hal/../draw/../misc/lv_color.h **** #elif LV_COLOR_DEPTH == 16
 337:Drivers/lvgl/lvgl/src/extra/widgets/meter/../../../../src/hal/../draw/../misc/lv_color.h ****     lv_color8_t ret;
 338:Drivers/lvgl/lvgl/src/extra/widgets/meter/../../../../src/hal/../draw/../misc/lv_color.h ****     LV_COLOR_SET_R8(ret, LV_COLOR_GET_R(color) >> 2); /*5 - 3  = 2*/
 339:Drivers/lvgl/lvgl/src/extra/widgets/meter/../../../../src/hal/../draw/../misc/lv_color.h ****     LV_COLOR_SET_G8(ret, LV_COLOR_GET_G(color) >> 3); /*6 - 3  = 3*/
 340:Drivers/lvgl/lvgl/src/extra/widgets/meter/../../../../src/hal/../draw/../misc/lv_color.h ****     LV_COLOR_SET_B8(ret, LV_COLOR_GET_B(color) >> 3); /*5 - 2  = 3*/
 341:Drivers/lvgl/lvgl/src/extra/widgets/meter/../../../../src/hal/../draw/../misc/lv_color.h ****     return ret.full;
 342:Drivers/lvgl/lvgl/src/extra/widgets/meter/../../../../src/hal/../draw/../misc/lv_color.h **** #elif LV_COLOR_DEPTH == 32
 343:Drivers/lvgl/lvgl/src/extra/widgets/meter/../../../../src/hal/../draw/../misc/lv_color.h ****     lv_color8_t ret;
 344:Drivers/lvgl/lvgl/src/extra/widgets/meter/../../../../src/hal/../draw/../misc/lv_color.h ****     LV_COLOR_SET_R8(ret, LV_COLOR_GET_R(color) >> 5); /*8 - 3  = 5*/
 345:Drivers/lvgl/lvgl/src/extra/widgets/meter/../../../../src/hal/../draw/../misc/lv_color.h ****     LV_COLOR_SET_G8(ret, LV_COLOR_GET_G(color) >> 5); /*8 - 3  = 5*/
 346:Drivers/lvgl/lvgl/src/extra/widgets/meter/../../../../src/hal/../draw/../misc/lv_color.h ****     LV_COLOR_SET_B8(ret, LV_COLOR_GET_B(color) >> 6); /*8 - 2  = 6*/
 347:Drivers/lvgl/lvgl/src/extra/widgets/meter/../../../../src/hal/../draw/../misc/lv_color.h ****     return ret.full;
 348:Drivers/lvgl/lvgl/src/extra/widgets/meter/../../../../src/hal/../draw/../misc/lv_color.h **** #endif
 349:Drivers/lvgl/lvgl/src/extra/widgets/meter/../../../../src/hal/../draw/../misc/lv_color.h **** }
 350:Drivers/lvgl/lvgl/src/extra/widgets/meter/../../../../src/hal/../draw/../misc/lv_color.h **** 
 351:Drivers/lvgl/lvgl/src/extra/widgets/meter/../../../../src/hal/../draw/../misc/lv_color.h **** static inline uint16_t lv_color_to16(lv_color_t color)
 352:Drivers/lvgl/lvgl/src/extra/widgets/meter/../../../../src/hal/../draw/../misc/lv_color.h **** {
 353:Drivers/lvgl/lvgl/src/extra/widgets/meter/../../../../src/hal/../draw/../misc/lv_color.h **** #if LV_COLOR_DEPTH == 1
 354:Drivers/lvgl/lvgl/src/extra/widgets/meter/../../../../src/hal/../draw/../misc/lv_color.h ****     if(color.full == 0)
 355:Drivers/lvgl/lvgl/src/extra/widgets/meter/../../../../src/hal/../draw/../misc/lv_color.h ****         return 0;
 356:Drivers/lvgl/lvgl/src/extra/widgets/meter/../../../../src/hal/../draw/../misc/lv_color.h ****     else
ARM GAS  /tmp/ccVvrzYL.s 			page 35


 357:Drivers/lvgl/lvgl/src/extra/widgets/meter/../../../../src/hal/../draw/../misc/lv_color.h ****         return 0xFFFF;
 358:Drivers/lvgl/lvgl/src/extra/widgets/meter/../../../../src/hal/../draw/../misc/lv_color.h **** #elif LV_COLOR_DEPTH == 8
 359:Drivers/lvgl/lvgl/src/extra/widgets/meter/../../../../src/hal/../draw/../misc/lv_color.h ****     lv_color16_t ret;
 360:Drivers/lvgl/lvgl/src/extra/widgets/meter/../../../../src/hal/../draw/../misc/lv_color.h ****     LV_COLOR_SET_R16(ret, LV_COLOR_GET_R(color) * 4);  /*(2^5 - 1)/(2^3 - 1) = 31/7 = 4*/
 361:Drivers/lvgl/lvgl/src/extra/widgets/meter/../../../../src/hal/../draw/../misc/lv_color.h ****     LV_COLOR_SET_G16(ret, LV_COLOR_GET_G(color) * 9);  /*(2^6 - 1)/(2^3 - 1) = 63/7 = 9*/
 362:Drivers/lvgl/lvgl/src/extra/widgets/meter/../../../../src/hal/../draw/../misc/lv_color.h ****     LV_COLOR_SET_B16(ret, LV_COLOR_GET_B(color) * 10); /*(2^5 - 1)/(2^2 - 1) = 31/3 = 10*/
 363:Drivers/lvgl/lvgl/src/extra/widgets/meter/../../../../src/hal/../draw/../misc/lv_color.h ****     return ret.full;
 364:Drivers/lvgl/lvgl/src/extra/widgets/meter/../../../../src/hal/../draw/../misc/lv_color.h **** #elif LV_COLOR_DEPTH == 16
 365:Drivers/lvgl/lvgl/src/extra/widgets/meter/../../../../src/hal/../draw/../misc/lv_color.h ****     return color.full;
 366:Drivers/lvgl/lvgl/src/extra/widgets/meter/../../../../src/hal/../draw/../misc/lv_color.h **** #elif LV_COLOR_DEPTH == 32
 367:Drivers/lvgl/lvgl/src/extra/widgets/meter/../../../../src/hal/../draw/../misc/lv_color.h ****     lv_color16_t ret;
 368:Drivers/lvgl/lvgl/src/extra/widgets/meter/../../../../src/hal/../draw/../misc/lv_color.h ****     LV_COLOR_SET_R16(ret, LV_COLOR_GET_R(color) >> 3); /*8 - 5  = 3*/
 369:Drivers/lvgl/lvgl/src/extra/widgets/meter/../../../../src/hal/../draw/../misc/lv_color.h ****     LV_COLOR_SET_G16(ret, LV_COLOR_GET_G(color) >> 2); /*8 - 6  = 2*/
 370:Drivers/lvgl/lvgl/src/extra/widgets/meter/../../../../src/hal/../draw/../misc/lv_color.h ****     LV_COLOR_SET_B16(ret, LV_COLOR_GET_B(color) >> 3); /*8 - 5  = 3*/
 371:Drivers/lvgl/lvgl/src/extra/widgets/meter/../../../../src/hal/../draw/../misc/lv_color.h ****     return ret.full;
 372:Drivers/lvgl/lvgl/src/extra/widgets/meter/../../../../src/hal/../draw/../misc/lv_color.h **** #endif
 373:Drivers/lvgl/lvgl/src/extra/widgets/meter/../../../../src/hal/../draw/../misc/lv_color.h **** }
 374:Drivers/lvgl/lvgl/src/extra/widgets/meter/../../../../src/hal/../draw/../misc/lv_color.h **** 
 375:Drivers/lvgl/lvgl/src/extra/widgets/meter/../../../../src/hal/../draw/../misc/lv_color.h **** static inline uint32_t lv_color_to32(lv_color_t color)
 376:Drivers/lvgl/lvgl/src/extra/widgets/meter/../../../../src/hal/../draw/../misc/lv_color.h **** {
 377:Drivers/lvgl/lvgl/src/extra/widgets/meter/../../../../src/hal/../draw/../misc/lv_color.h **** #if LV_COLOR_DEPTH == 1
 378:Drivers/lvgl/lvgl/src/extra/widgets/meter/../../../../src/hal/../draw/../misc/lv_color.h ****     if(color.full == 0)
 379:Drivers/lvgl/lvgl/src/extra/widgets/meter/../../../../src/hal/../draw/../misc/lv_color.h ****         return 0xFF000000;
 380:Drivers/lvgl/lvgl/src/extra/widgets/meter/../../../../src/hal/../draw/../misc/lv_color.h ****     else
 381:Drivers/lvgl/lvgl/src/extra/widgets/meter/../../../../src/hal/../draw/../misc/lv_color.h ****         return 0xFFFFFFFF;
 382:Drivers/lvgl/lvgl/src/extra/widgets/meter/../../../../src/hal/../draw/../misc/lv_color.h **** #elif LV_COLOR_DEPTH == 8
 383:Drivers/lvgl/lvgl/src/extra/widgets/meter/../../../../src/hal/../draw/../misc/lv_color.h ****     lv_color32_t ret;
 384:Drivers/lvgl/lvgl/src/extra/widgets/meter/../../../../src/hal/../draw/../misc/lv_color.h ****     LV_COLOR_SET_R32(ret, LV_COLOR_GET_R(color) * 36); /*(2^8 - 1)/(2^3 - 1) = 255/7 = 36*/
 385:Drivers/lvgl/lvgl/src/extra/widgets/meter/../../../../src/hal/../draw/../misc/lv_color.h ****     LV_COLOR_SET_G32(ret, LV_COLOR_GET_G(color) * 36); /*(2^8 - 1)/(2^3 - 1) = 255/7 = 36*/
 386:Drivers/lvgl/lvgl/src/extra/widgets/meter/../../../../src/hal/../draw/../misc/lv_color.h ****     LV_COLOR_SET_B32(ret, LV_COLOR_GET_B(color) * 85); /*(2^8 - 1)/(2^2 - 1) = 255/3 = 85*/
 387:Drivers/lvgl/lvgl/src/extra/widgets/meter/../../../../src/hal/../draw/../misc/lv_color.h ****     LV_COLOR_SET_A32(ret, 0xFF);
 388:Drivers/lvgl/lvgl/src/extra/widgets/meter/../../../../src/hal/../draw/../misc/lv_color.h ****     return ret.full;
 389:Drivers/lvgl/lvgl/src/extra/widgets/meter/../../../../src/hal/../draw/../misc/lv_color.h **** #elif LV_COLOR_DEPTH == 16
 390:Drivers/lvgl/lvgl/src/extra/widgets/meter/../../../../src/hal/../draw/../misc/lv_color.h ****     /**
 391:Drivers/lvgl/lvgl/src/extra/widgets/meter/../../../../src/hal/../draw/../misc/lv_color.h ****      * The floating point math for conversion is:
 392:Drivers/lvgl/lvgl/src/extra/widgets/meter/../../../../src/hal/../draw/../misc/lv_color.h ****      *  valueto = valuefrom * ( (2^bitsto - 1) / (float)(2^bitsfrom - 1) )
 393:Drivers/lvgl/lvgl/src/extra/widgets/meter/../../../../src/hal/../draw/../misc/lv_color.h ****      * The faster integer math for conversion is:
 394:Drivers/lvgl/lvgl/src/extra/widgets/meter/../../../../src/hal/../draw/../misc/lv_color.h ****      *  valueto = ( valuefrom * multiplier + adder ) >> divisor
 395:Drivers/lvgl/lvgl/src/extra/widgets/meter/../../../../src/hal/../draw/../misc/lv_color.h ****      *   multiplier = FLOOR( ( (2^bitsto - 1) << divisor ) / (float)(2^bitsfrom - 1) )
 396:Drivers/lvgl/lvgl/src/extra/widgets/meter/../../../../src/hal/../draw/../misc/lv_color.h ****      *
 397:Drivers/lvgl/lvgl/src/extra/widgets/meter/../../../../src/hal/../draw/../misc/lv_color.h ****      * Find the first divisor where ( adder >> divisor ) <= 0
 398:Drivers/lvgl/lvgl/src/extra/widgets/meter/../../../../src/hal/../draw/../misc/lv_color.h ****      *
 399:Drivers/lvgl/lvgl/src/extra/widgets/meter/../../../../src/hal/../draw/../misc/lv_color.h ****      * 5-bit to 8-bit: ( 31 * multiplier + adder ) >> divisor = 255
 400:Drivers/lvgl/lvgl/src/extra/widgets/meter/../../../../src/hal/../draw/../misc/lv_color.h ****      * divisor  multiplier  adder  min (0)  max (31)
 401:Drivers/lvgl/lvgl/src/extra/widgets/meter/../../../../src/hal/../draw/../misc/lv_color.h ****      *       0           8      7        7       255
 402:Drivers/lvgl/lvgl/src/extra/widgets/meter/../../../../src/hal/../draw/../misc/lv_color.h ****      *       1          16     14        7       255
 403:Drivers/lvgl/lvgl/src/extra/widgets/meter/../../../../src/hal/../draw/../misc/lv_color.h ****      *       2          32     28        7       255
 404:Drivers/lvgl/lvgl/src/extra/widgets/meter/../../../../src/hal/../draw/../misc/lv_color.h ****      *       3          65     25        3       255
 405:Drivers/lvgl/lvgl/src/extra/widgets/meter/../../../../src/hal/../draw/../misc/lv_color.h ****      *       4         131     19        1       255
 406:Drivers/lvgl/lvgl/src/extra/widgets/meter/../../../../src/hal/../draw/../misc/lv_color.h ****      *       5         263      7        0       255
 407:Drivers/lvgl/lvgl/src/extra/widgets/meter/../../../../src/hal/../draw/../misc/lv_color.h ****      *
 408:Drivers/lvgl/lvgl/src/extra/widgets/meter/../../../../src/hal/../draw/../misc/lv_color.h ****      * 6-bit to 8-bit: 255 = ( 63 * multiplier + adder ) >> divisor
 409:Drivers/lvgl/lvgl/src/extra/widgets/meter/../../../../src/hal/../draw/../misc/lv_color.h ****      * divisor  multiplier  adder  min (0)  max (63)
 410:Drivers/lvgl/lvgl/src/extra/widgets/meter/../../../../src/hal/../draw/../misc/lv_color.h ****      *       0           4      3        3       255
 411:Drivers/lvgl/lvgl/src/extra/widgets/meter/../../../../src/hal/../draw/../misc/lv_color.h ****      *       1           8      6        3       255
 412:Drivers/lvgl/lvgl/src/extra/widgets/meter/../../../../src/hal/../draw/../misc/lv_color.h ****      *       2          16     12        3       255
 413:Drivers/lvgl/lvgl/src/extra/widgets/meter/../../../../src/hal/../draw/../misc/lv_color.h ****      *       3          32     24        3       255
ARM GAS  /tmp/ccVvrzYL.s 			page 36


 414:Drivers/lvgl/lvgl/src/extra/widgets/meter/../../../../src/hal/../draw/../misc/lv_color.h ****      *       4          64     48        3       255
 415:Drivers/lvgl/lvgl/src/extra/widgets/meter/../../../../src/hal/../draw/../misc/lv_color.h ****      *       5         129     33        1       255
 416:Drivers/lvgl/lvgl/src/extra/widgets/meter/../../../../src/hal/../draw/../misc/lv_color.h ****      *       6         259      3        0       255
 417:Drivers/lvgl/lvgl/src/extra/widgets/meter/../../../../src/hal/../draw/../misc/lv_color.h ****      */
 418:Drivers/lvgl/lvgl/src/extra/widgets/meter/../../../../src/hal/../draw/../misc/lv_color.h **** 
 419:Drivers/lvgl/lvgl/src/extra/widgets/meter/../../../../src/hal/../draw/../misc/lv_color.h ****     lv_color32_t ret;
 420:Drivers/lvgl/lvgl/src/extra/widgets/meter/../../../../src/hal/../draw/../misc/lv_color.h ****     LV_COLOR_SET_R32(ret, (LV_COLOR_GET_R(color) * 263 + 7) >> 5);
 421:Drivers/lvgl/lvgl/src/extra/widgets/meter/../../../../src/hal/../draw/../misc/lv_color.h ****     LV_COLOR_SET_G32(ret, (LV_COLOR_GET_G(color) * 259 + 3) >> 6);
 422:Drivers/lvgl/lvgl/src/extra/widgets/meter/../../../../src/hal/../draw/../misc/lv_color.h ****     LV_COLOR_SET_B32(ret, (LV_COLOR_GET_B(color) * 263 + 7) >> 5);
 423:Drivers/lvgl/lvgl/src/extra/widgets/meter/../../../../src/hal/../draw/../misc/lv_color.h ****     LV_COLOR_SET_A32(ret, 0xFF);
 424:Drivers/lvgl/lvgl/src/extra/widgets/meter/../../../../src/hal/../draw/../misc/lv_color.h ****     return ret.full;
 425:Drivers/lvgl/lvgl/src/extra/widgets/meter/../../../../src/hal/../draw/../misc/lv_color.h **** #elif LV_COLOR_DEPTH == 32
 426:Drivers/lvgl/lvgl/src/extra/widgets/meter/../../../../src/hal/../draw/../misc/lv_color.h ****     return color.full;
 427:Drivers/lvgl/lvgl/src/extra/widgets/meter/../../../../src/hal/../draw/../misc/lv_color.h **** #endif
 428:Drivers/lvgl/lvgl/src/extra/widgets/meter/../../../../src/hal/../draw/../misc/lv_color.h **** }
 429:Drivers/lvgl/lvgl/src/extra/widgets/meter/../../../../src/hal/../draw/../misc/lv_color.h **** 
 430:Drivers/lvgl/lvgl/src/extra/widgets/meter/../../../../src/hal/../draw/../misc/lv_color.h **** //! @cond Doxygen_Suppress
 431:Drivers/lvgl/lvgl/src/extra/widgets/meter/../../../../src/hal/../draw/../misc/lv_color.h **** 
 432:Drivers/lvgl/lvgl/src/extra/widgets/meter/../../../../src/hal/../draw/../misc/lv_color.h **** /**
 433:Drivers/lvgl/lvgl/src/extra/widgets/meter/../../../../src/hal/../draw/../misc/lv_color.h ****  * Mix two colors with a given ratio.
 434:Drivers/lvgl/lvgl/src/extra/widgets/meter/../../../../src/hal/../draw/../misc/lv_color.h ****  * @param c1 the first color to mix (usually the foreground)
 435:Drivers/lvgl/lvgl/src/extra/widgets/meter/../../../../src/hal/../draw/../misc/lv_color.h ****  * @param c2 the second color to mix (usually the background)
 436:Drivers/lvgl/lvgl/src/extra/widgets/meter/../../../../src/hal/../draw/../misc/lv_color.h ****  * @param mix The ratio of the colors. 0: full `c2`, 255: full `c1`, 127: half `c1` and half`c2`
 437:Drivers/lvgl/lvgl/src/extra/widgets/meter/../../../../src/hal/../draw/../misc/lv_color.h ****  * @return the mixed color
 438:Drivers/lvgl/lvgl/src/extra/widgets/meter/../../../../src/hal/../draw/../misc/lv_color.h ****  */
 439:Drivers/lvgl/lvgl/src/extra/widgets/meter/../../../../src/hal/../draw/../misc/lv_color.h **** LV_ATTRIBUTE_FAST_MEM static inline lv_color_t lv_color_mix(lv_color_t c1, lv_color_t c2, uint8_t m
 440:Drivers/lvgl/lvgl/src/extra/widgets/meter/../../../../src/hal/../draw/../misc/lv_color.h **** {
 441:Drivers/lvgl/lvgl/src/extra/widgets/meter/../../../../src/hal/../draw/../misc/lv_color.h ****     lv_color_t ret;
 442:Drivers/lvgl/lvgl/src/extra/widgets/meter/../../../../src/hal/../draw/../misc/lv_color.h **** 
 443:Drivers/lvgl/lvgl/src/extra/widgets/meter/../../../../src/hal/../draw/../misc/lv_color.h **** #if LV_COLOR_DEPTH == 16 && LV_COLOR_MIX_ROUND_OFS == 0
 444:Drivers/lvgl/lvgl/src/extra/widgets/meter/../../../../src/hal/../draw/../misc/lv_color.h **** #if LV_COLOR_16_SWAP == 1
 445:Drivers/lvgl/lvgl/src/extra/widgets/meter/../../../../src/hal/../draw/../misc/lv_color.h ****     c1.full = c1.full << 8 | c1.full >> 8;
 446:Drivers/lvgl/lvgl/src/extra/widgets/meter/../../../../src/hal/../draw/../misc/lv_color.h ****     c2.full = c2.full << 8 | c2.full >> 8;
 447:Drivers/lvgl/lvgl/src/extra/widgets/meter/../../../../src/hal/../draw/../misc/lv_color.h **** #endif
 448:Drivers/lvgl/lvgl/src/extra/widgets/meter/../../../../src/hal/../draw/../misc/lv_color.h ****     /*Source: https://stackoverflow.com/a/50012418/1999969*/
 449:Drivers/lvgl/lvgl/src/extra/widgets/meter/../../../../src/hal/../draw/../misc/lv_color.h ****     mix = (uint32_t)((uint32_t)mix + 4) >> 3;
 462              		.loc 4 449 0
 463 00d8 0430     		adds	r0, r0, #4
 464              	.LVL59:
 450:Drivers/lvgl/lvgl/src/extra/widgets/meter/../../../../src/hal/../draw/../misc/lv_color.h ****     uint32_t bg = (uint32_t)((uint32_t)c2.full | ((uint32_t)c2.full << 16)) &
 465              		.loc 4 450 0
 466 00da 628A     		ldrh	r2, [r4, #18]
 467 00dc 42EA0242 		orr	r2, r2, r2, lsl #16
 468 00e0 9D49     		ldr	r1, .L50+4
 469 00e2 0A40     		ands	r2, r2, r1
 470              	.LVL60:
 451:Drivers/lvgl/lvgl/src/extra/widgets/meter/../../../../src/hal/../draw/../misc/lv_color.h ****                   0x7E0F81F; /*0b00000111111000001111100000011111*/
 452:Drivers/lvgl/lvgl/src/extra/widgets/meter/../../../../src/hal/../draw/../misc/lv_color.h ****     uint32_t fg = (uint32_t)((uint32_t)c1.full | ((uint32_t)c1.full << 16)) & 0x7E0F81F;
 471              		.loc 4 452 0
 472 00e4 A38A     		ldrh	r3, [r4, #20]
 473 00e6 43EA0343 		orr	r3, r3, r3, lsl #16
 474 00ea 0B40     		ands	r3, r3, r1
 475              	.LVL61:
 453:Drivers/lvgl/lvgl/src/extra/widgets/meter/../../../../src/hal/../draw/../misc/lv_color.h ****     uint32_t result = ((((fg - bg) * mix) >> 5) + bg) & 0x7E0F81F;
 476              		.loc 4 453 0
 477 00ec 9B1A     		subs	r3, r3, r2
 478              	.LVL62:
ARM GAS  /tmp/ccVvrzYL.s 			page 37


 479 00ee C0F3C700 		ubfx	r0, r0, #3, #8
 480              	.LVL63:
 481 00f2 03FB00F3 		mul	r3, r3, r0
 482 00f6 02EB5315 		add	r5, r2, r3, lsr #5
 483              	.LVL64:
 484 00fa 0D40     		ands	r5, r5, r1
 485              	.LVL65:
 486 00fc 45EA1545 		orr	r5, r5, r5, lsr #16
 487              	.LVL66:
 488              	.L25:
 489              	.LBE65:
 490              	.LBE64:
 491              	.LBE63:
 455:Drivers/lvgl/lvgl/src/extra/widgets/meter/lv_meter.c ****                 if(indic->type != LV_METER_INDICATOR_TYPE_SCALE_LINES) continue;
 492              		.loc 1 455 0 discriminator 2
 493 0100 2146     		mov	r1, r4
 494 0102 4046     		mov	r0, r8
 495 0104 FFF7FEFF 		bl	_lv_ll_get_prev
 496              	.LVL67:
 497 0108 0446     		mov	r4, r0
 498              	.LVL68:
 499              	.L24:
 455:Drivers/lvgl/lvgl/src/extra/widgets/meter/lv_meter.c ****                 if(indic->type != LV_METER_INDICATOR_TYPE_SCALE_LINES) continue;
 500              		.loc 1 455 0 is_stmt 0 discriminator 1
 501 010a E4B1     		cbz	r4, .L44
 456:Drivers/lvgl/lvgl/src/extra/widgets/meter/lv_meter.c ****                 if(value_of_line >= indic->start_value && value_of_line <= indic->end_value) {
 502              		.loc 1 456 0 is_stmt 1
 503 010c 2379     		ldrb	r3, [r4, #4]	@ zero_extendqisi2
 504 010e 022B     		cmp	r3, #2
 505 0110 F6D1     		bne	.L25
 457:Drivers/lvgl/lvgl/src/extra/widgets/meter/lv_meter.c ****                     line_width += indic->type_data.scale_lines.width_mod;
 506              		.loc 1 457 0
 507 0112 A168     		ldr	r1, [r4, #8]
 508 0114 4945     		cmp	r1, r9
 509 0116 F3DC     		bgt	.L25
 457:Drivers/lvgl/lvgl/src/extra/widgets/meter/lv_meter.c ****                     line_width += indic->type_data.scale_lines.width_mod;
 510              		.loc 1 457 0 is_stmt 0 discriminator 1
 511 0118 E268     		ldr	r2, [r4, #12]
 512 011a 4A45     		cmp	r2, r9
 513 011c F0DB     		blt	.L25
 458:Drivers/lvgl/lvgl/src/extra/widgets/meter/lv_meter.c **** 
 514              		.loc 1 458 0 is_stmt 1
 515 011e 238A     		ldrh	r3, [r4, #16]
 516 0120 9A44     		add	r10, r10, r3
 517              	.LVL69:
 518 0122 0FFA8AFA 		sxth	r10, r10
 519              	.LVL70:
 460:Drivers/lvgl/lvgl/src/extra/widgets/meter/lv_meter.c ****                         line_color = indic->type_data.scale_lines.color_start;
 520              		.loc 1 460 0
 521 0126 608A     		ldrh	r0, [r4, #18]
 522              	.LVL71:
 523 0128 A38A     		ldrh	r3, [r4, #20]
 524 012a 9842     		cmp	r0, r3
 525 012c C9D0     		beq	.L45
 526              	.LBB66:
 465:Drivers/lvgl/lvgl/src/extra/widgets/meter/lv_meter.c ****                             ratio = lv_map(value_of_line, indic->start_value, indic->end_value, LV_
 527              		.loc 1 465 0
ARM GAS  /tmp/ccVvrzYL.s 			page 38


 528 012e A37D     		ldrb	r3, [r4, #22]	@ zero_extendqisi2
 529 0130 13F0010F 		tst	r3, #1
 530 0134 C7D0     		beq	.L27
 466:Drivers/lvgl/lvgl/src/extra/widgets/meter/lv_meter.c ****                         }
 531              		.loc 1 466 0
 532 0136 FF23     		movs	r3, #255
 533 0138 0093     		str	r3, [sp]
 534 013a 0023     		movs	r3, #0
 535 013c 4846     		mov	r0, r9
 536 013e FFF7FEFF 		bl	lv_map
 537              	.LVL72:
 538 0142 C0B2     		uxtb	r0, r0
 539              	.LVL73:
 540 0144 C8E7     		b	.L28
 541              	.LVL74:
 542              	.L44:
 543              	.LBE66:
 470:Drivers/lvgl/lvgl/src/extra/widgets/meter/lv_meter.c ****                         }
 471:Drivers/lvgl/lvgl/src/extra/widgets/meter/lv_meter.c ****                         line_color = lv_color_mix(indic->type_data.scale_lines.color_end, indic->ty
 472:Drivers/lvgl/lvgl/src/extra/widgets/meter/lv_meter.c ****                     }
 473:Drivers/lvgl/lvgl/src/extra/widgets/meter/lv_meter.c ****                 }
 474:Drivers/lvgl/lvgl/src/extra/widgets/meter/lv_meter.c ****             }
 475:Drivers/lvgl/lvgl/src/extra/widgets/meter/lv_meter.c **** 
 476:Drivers/lvgl/lvgl/src/extra/widgets/meter/lv_meter.c ****             int32_t angle_upscale = ((i * scale->angle_range) * 10) / (scale->tick_cnt - 1) +  + sc
 544              		.loc 1 476 0
 545 0146 FB8B     		ldrh	r3, [r7, #30]
 546 0148 089A     		ldr	r2, [sp, #32]
 547 014a 03FB02F3 		mul	r3, r3, r2
 548 014e 03EB8303 		add	r3, r3, r3, lsl #2
 549 0152 5C00     		lsls	r4, r3, #1
 550 0154 7B88     		ldrh	r3, [r7, #2]
 551 0156 013B     		subs	r3, r3, #1
 552 0158 94FBF3F4 		sdiv	r4, r4, r3
 553 015c B7F92030 		ldrsh	r3, [r7, #32]
 554 0160 03EB8303 		add	r3, r3, r3, lsl #2
 555 0164 5A00     		lsls	r2, r3, #1
 556 0166 1444     		add	r4, r4, r2
 557              	.LVL75:
 477:Drivers/lvgl/lvgl/src/extra/widgets/meter/lv_meter.c **** 
 478:Drivers/lvgl/lvgl/src/extra/widgets/meter/lv_meter.c ****             line_dsc.color = line_color;
 558              		.loc 1 478 0
 559 0168 ADF85051 		strh	r5, [sp, #336]	@ movhi
 479:Drivers/lvgl/lvgl/src/extra/widgets/meter/lv_meter.c ****             line_dsc.width = line_width;
 560              		.loc 1 479 0
 561 016c ADF852A1 		strh	r10, [sp, #338]	@ movhi
 480:Drivers/lvgl/lvgl/src/extra/widgets/meter/lv_meter.c **** 
 481:Drivers/lvgl/lvgl/src/extra/widgets/meter/lv_meter.c ****             /*Draw a little bit longer lines to be sure the mask will clip them correctly
 482:Drivers/lvgl/lvgl/src/extra/widgets/meter/lv_meter.c ****              *and to get a better precision*/
 483:Drivers/lvgl/lvgl/src/extra/widgets/meter/lv_meter.c ****             lv_point_t p_outer;
 484:Drivers/lvgl/lvgl/src/extra/widgets/meter/lv_meter.c ****             p_outer.x = p_center.x + r_out + LV_MAX(LV_DPI_DEF, r_out);
 562              		.loc 1 484 0
 563 0170 BDF85C31 		ldrh	r3, [sp, #348]
 564 0174 0C9A     		ldr	r2, [sp, #48]
 565 0176 1344     		add	r3, r3, r2
 566 0178 0D9A     		ldr	r2, [sp, #52]
 567 017a 822A     		cmp	r2, #130
 568 017c B8BF     		it	lt
ARM GAS  /tmp/ccVvrzYL.s 			page 39


 569 017e 8222     		movlt	r2, #130
 570 0180 92B2     		uxth	r2, r2
 571 0182 12FA83F3 		uxtah	r3, r2, r3
 572 0186 11AD     		add	r5, sp, #68
 573              	.LVL76:
 574 0188 ADF84430 		strh	r3, [sp, #68]	@ movhi
 485:Drivers/lvgl/lvgl/src/extra/widgets/meter/lv_meter.c ****             p_outer.y = p_center.y;
 575              		.loc 1 485 0
 576 018c BDF95E31 		ldrsh	r3, [sp, #350]
 577 0190 ADF84630 		strh	r3, [sp, #70]	@ movhi
 486:Drivers/lvgl/lvgl/src/extra/widgets/meter/lv_meter.c ****             lv_point_transform(&p_outer, angle_upscale, 256, &p_center);
 578              		.loc 1 486 0
 579 0194 0DF5AE78 		add	r8, sp, #348
 580 0198 4346     		mov	r3, r8
 581 019a 4FF48072 		mov	r2, #256
 582 019e 2146     		mov	r1, r4
 583 01a0 2846     		mov	r0, r5
 584              	.LVL77:
 585 01a2 FFF7FEFF 		bl	lv_point_transform
 586              	.LVL78:
 487:Drivers/lvgl/lvgl/src/extra/widgets/meter/lv_meter.c **** 
 488:Drivers/lvgl/lvgl/src/extra/widgets/meter/lv_meter.c ****             part_draw_dsc.p1 = &p_center;
 587              		.loc 1 488 0
 588 01a6 CDF8C480 		str	r8, [sp, #196]
 489:Drivers/lvgl/lvgl/src/extra/widgets/meter/lv_meter.c ****             part_draw_dsc.p2 = &p_outer;
 589              		.loc 1 489 0
 590 01aa 3295     		str	r5, [sp, #200]
 490:Drivers/lvgl/lvgl/src/extra/widgets/meter/lv_meter.c ****             part_draw_dsc.id = i;
 591              		.loc 1 490 0
 592 01ac 3696     		str	r6, [sp, #216]
 491:Drivers/lvgl/lvgl/src/extra/widgets/meter/lv_meter.c ****             part_draw_dsc.label_dsc = &label_dsc;
 593              		.loc 1 491 0
 594 01ae 4CAB     		add	r3, sp, #304
 595 01b0 2D93     		str	r3, [sp, #180]
 492:Drivers/lvgl/lvgl/src/extra/widgets/meter/lv_meter.c **** 
 493:Drivers/lvgl/lvgl/src/extra/widgets/meter/lv_meter.c ****             /*Draw the text*/
 494:Drivers/lvgl/lvgl/src/extra/widgets/meter/lv_meter.c ****             if(major) {
 596              		.loc 1 494 0
 597 01b2 BBF1000F 		cmp	fp, #0
 598 01b6 00F0BB80 		beq	.L30
 599              	.LBB67:
 495:Drivers/lvgl/lvgl/src/extra/widgets/meter/lv_meter.c ****                 lv_draw_mask_remove_id(outer_mask_id);
 600              		.loc 1 495 0
 601 01ba 0B98     		ldr	r0, [sp, #44]
 602 01bc FFF7FEFF 		bl	lv_draw_mask_remove_id
 603              	.LVL79:
 496:Drivers/lvgl/lvgl/src/extra/widgets/meter/lv_meter.c ****                 uint32_t r_text = r_in_major - scale->label_gap;
 604              		.loc 1 496 0
 605 01c0 B7F91030 		ldrsh	r3, [r7, #16]
 606 01c4 0E9A     		ldr	r2, [sp, #56]
 607 01c6 D21A     		subs	r2, r2, r3
 608              	.LVL80:
 497:Drivers/lvgl/lvgl/src/extra/widgets/meter/lv_meter.c ****                 lv_point_t p;
 498:Drivers/lvgl/lvgl/src/extra/widgets/meter/lv_meter.c ****                 p.x = p_center.x + r_text;
 609              		.loc 1 498 0
 610 01c8 BDF85C31 		ldrh	r3, [sp, #348]
 611 01cc 1344     		add	r3, r3, r2
ARM GAS  /tmp/ccVvrzYL.s 			page 40


 612 01ce ADF84830 		strh	r3, [sp, #72]	@ movhi
 499:Drivers/lvgl/lvgl/src/extra/widgets/meter/lv_meter.c ****                 p.y = p_center.y;
 613              		.loc 1 499 0
 614 01d2 BDF95E31 		ldrsh	r3, [sp, #350]
 615 01d6 ADF84A30 		strh	r3, [sp, #74]	@ movhi
 500:Drivers/lvgl/lvgl/src/extra/widgets/meter/lv_meter.c ****                 lv_point_transform(&p, angle_upscale, 256, &p_center);
 616              		.loc 1 500 0
 617 01da 57AB     		add	r3, sp, #348
 618 01dc 4FF48072 		mov	r2, #256
 619              	.LVL81:
 620 01e0 2146     		mov	r1, r4
 621 01e2 12A8     		add	r0, sp, #72
 622 01e4 FFF7FEFF 		bl	lv_point_transform
 623              	.LVL82:
 501:Drivers/lvgl/lvgl/src/extra/widgets/meter/lv_meter.c **** 
 502:Drivers/lvgl/lvgl/src/extra/widgets/meter/lv_meter.c ****                 lv_draw_label_dsc_t label_dsc_tmp;
 503:Drivers/lvgl/lvgl/src/extra/widgets/meter/lv_meter.c ****                 lv_memcpy(&label_dsc_tmp, &label_dsc, sizeof(label_dsc_tmp));
 624              		.loc 1 503 0
 625 01e8 20AC     		add	r4, sp, #128
 626              	.LVL83:
 627 01ea 2022     		movs	r2, #32
 628 01ec 4CA9     		add	r1, sp, #304
 629 01ee 2046     		mov	r0, r4
 630 01f0 FFF7FEFF 		bl	lv_memcpy
 631              	.LVL84:
 504:Drivers/lvgl/lvgl/src/extra/widgets/meter/lv_meter.c **** 
 505:Drivers/lvgl/lvgl/src/extra/widgets/meter/lv_meter.c ****                 part_draw_dsc.label_dsc = &label_dsc_tmp;
 632              		.loc 1 505 0
 633 01f4 2D94     		str	r4, [sp, #180]
 506:Drivers/lvgl/lvgl/src/extra/widgets/meter/lv_meter.c ****                 char buf[16];
 507:Drivers/lvgl/lvgl/src/extra/widgets/meter/lv_meter.c **** 
 508:Drivers/lvgl/lvgl/src/extra/widgets/meter/lv_meter.c ****                 lv_snprintf(buf, sizeof(buf), "%" LV_PRId32, value_of_line);
 634              		.loc 1 508 0
 635 01f6 1CAC     		add	r4, sp, #112
 636 01f8 4B46     		mov	r3, r9
 637 01fa 584A     		ldr	r2, .L50+8
 638 01fc 1021     		movs	r1, #16
 639 01fe 2046     		mov	r0, r4
 640 0200 FFF7FEFF 		bl	lv_snprintf
 641              	.LVL85:
 509:Drivers/lvgl/lvgl/src/extra/widgets/meter/lv_meter.c ****                 part_draw_dsc.text = buf;
 642              		.loc 1 509 0
 643 0204 3394     		str	r4, [sp, #204]
 510:Drivers/lvgl/lvgl/src/extra/widgets/meter/lv_meter.c **** 
 511:Drivers/lvgl/lvgl/src/extra/widgets/meter/lv_meter.c ****                 lv_event_send(obj, LV_EVENT_DRAW_PART_BEGIN, &part_draw_dsc);
 644              		.loc 1 511 0
 645 0206 28AA     		add	r2, sp, #160
 646 0208 1A21     		movs	r1, #26
 647 020a 0598     		ldr	r0, [sp, #20]
 648 020c FFF7FEFF 		bl	lv_event_send
 649              	.LVL86:
 512:Drivers/lvgl/lvgl/src/extra/widgets/meter/lv_meter.c **** 
 513:Drivers/lvgl/lvgl/src/extra/widgets/meter/lv_meter.c ****                 lv_point_t label_size;
 514:Drivers/lvgl/lvgl/src/extra/widgets/meter/lv_meter.c ****                 lv_txt_get_size(&label_size, part_draw_dsc.text, label_dsc.font, label_dsc.letter_s
 650              		.loc 1 514 0
 651 0210 BDF94431 		ldrsh	r3, [sp, #324]
 652 0214 0022     		movs	r2, #0
ARM GAS  /tmp/ccVvrzYL.s 			page 41


 653 0216 0292     		str	r2, [sp, #8]
 654 0218 41F6FF72 		movw	r2, #8191
 655 021c 0192     		str	r2, [sp, #4]
 656 021e BDF94221 		ldrsh	r2, [sp, #322]
 657 0222 0092     		str	r2, [sp]
 658 0224 4C9A     		ldr	r2, [sp, #304]
 659 0226 3399     		ldr	r1, [sp, #204]
 660 0228 13A8     		add	r0, sp, #76
 661 022a FFF7FEFF 		bl	lv_txt_get_size
 662              	.LVL87:
 515:Drivers/lvgl/lvgl/src/extra/widgets/meter/lv_meter.c ****                                 LV_COORD_MAX, LV_TEXT_FLAG_NONE);
 516:Drivers/lvgl/lvgl/src/extra/widgets/meter/lv_meter.c **** 
 517:Drivers/lvgl/lvgl/src/extra/widgets/meter/lv_meter.c ****                 lv_area_t label_cord;
 518:Drivers/lvgl/lvgl/src/extra/widgets/meter/lv_meter.c ****                 label_cord.x1 = p.x - label_size.x / 2;
 663              		.loc 1 518 0
 664 022e BDF84820 		ldrh	r2, [sp, #72]
 665 0232 BDF94C00 		ldrsh	r0, [sp, #76]
 666 0236 0346     		mov	r3, r0
 667 0238 0028     		cmp	r0, #0
 668 023a 75DB     		blt	.L46
 669              	.L31:
 670 023c A2EB6302 		sub	r2, r2, r3, asr #1
 671 0240 92B2     		uxth	r2, r2
 672 0242 ADF86820 		strh	r2, [sp, #104]	@ movhi
 519:Drivers/lvgl/lvgl/src/extra/widgets/meter/lv_meter.c ****                 label_cord.y1 = p.y - label_size.y / 2;
 673              		.loc 1 519 0
 674 0246 BDF84A30 		ldrh	r3, [sp, #74]
 675 024a BDF94E10 		ldrsh	r1, [sp, #78]
 676 024e 0C46     		mov	r4, r1
 677 0250 0029     		cmp	r1, #0
 678 0252 6BDB     		blt	.L47
 679              	.L32:
 680 0254 A3EB6403 		sub	r3, r3, r4, asr #1
 681 0258 9BB2     		uxth	r3, r3
 682 025a ADF86A30 		strh	r3, [sp, #106]	@ movhi
 520:Drivers/lvgl/lvgl/src/extra/widgets/meter/lv_meter.c ****                 label_cord.x2 = label_cord.x1 + label_size.x;
 683              		.loc 1 520 0
 684 025e 12FA80F2 		uxtah	r2, r2, r0
 685 0262 ADF86C20 		strh	r2, [sp, #108]	@ movhi
 521:Drivers/lvgl/lvgl/src/extra/widgets/meter/lv_meter.c ****                 label_cord.y2 = label_cord.y1 + label_size.y;
 686              		.loc 1 521 0
 687 0266 13FA81F3 		uxtah	r3, r3, r1
 688 026a ADF86E30 		strh	r3, [sp, #110]	@ movhi
 522:Drivers/lvgl/lvgl/src/extra/widgets/meter/lv_meter.c **** 
 523:Drivers/lvgl/lvgl/src/extra/widgets/meter/lv_meter.c ****                 lv_draw_label(draw_ctx, part_draw_dsc.label_dsc, &label_cord, part_draw_dsc.text, N
 689              		.loc 1 523 0
 690 026e 0024     		movs	r4, #0
 691 0270 0094     		str	r4, [sp]
 692 0272 339B     		ldr	r3, [sp, #204]
 693 0274 1AAA     		add	r2, sp, #104
 694 0276 2D99     		ldr	r1, [sp, #180]
 695 0278 0A98     		ldr	r0, [sp, #40]
 696 027a FFF7FEFF 		bl	lv_draw_label
 697              	.LVL88:
 524:Drivers/lvgl/lvgl/src/extra/widgets/meter/lv_meter.c **** 
 525:Drivers/lvgl/lvgl/src/extra/widgets/meter/lv_meter.c ****                 outer_mask_id = lv_draw_mask_add(&outer_mask, NULL);
 698              		.loc 1 525 0
ARM GAS  /tmp/ccVvrzYL.s 			page 42


 699 027e 2146     		mov	r1, r4
 700 0280 3AA8     		add	r0, sp, #232
 701 0282 FFF7FEFF 		bl	lv_draw_mask_add
 702              	.LVL89:
 703 0286 0B90     		str	r0, [sp, #44]
 704              	.LVL90:
 705              	.L33:
 706              	.LBE67:
 526:Drivers/lvgl/lvgl/src/extra/widgets/meter/lv_meter.c ****             }
 527:Drivers/lvgl/lvgl/src/extra/widgets/meter/lv_meter.c ****             else {
 528:Drivers/lvgl/lvgl/src/extra/widgets/meter/lv_meter.c ****                 part_draw_dsc.label_dsc = NULL;
 529:Drivers/lvgl/lvgl/src/extra/widgets/meter/lv_meter.c ****                 part_draw_dsc.text = NULL;
 530:Drivers/lvgl/lvgl/src/extra/widgets/meter/lv_meter.c ****                 lv_event_send(obj, LV_EVENT_DRAW_PART_BEGIN, &part_draw_dsc);
 531:Drivers/lvgl/lvgl/src/extra/widgets/meter/lv_meter.c ****             }
 532:Drivers/lvgl/lvgl/src/extra/widgets/meter/lv_meter.c **** 
 533:Drivers/lvgl/lvgl/src/extra/widgets/meter/lv_meter.c ****             inner_act_mask_id = lv_draw_mask_add(major ? &inner_major_mask : &inner_minor_mask, NUL
 707              		.loc 1 533 0
 708 0288 BBF1000F 		cmp	fp, #0
 709 028c 59D0     		beq	.L40
 710 028e 40A8     		add	r0, sp, #256
 711              	.L34:
 712              		.loc 1 533 0 is_stmt 0 discriminator 4
 713 0290 0021     		movs	r1, #0
 714 0292 FFF7FEFF 		bl	lv_draw_mask_add
 715              	.LVL91:
 716 0296 0446     		mov	r4, r0
 717              	.LVL92:
 534:Drivers/lvgl/lvgl/src/extra/widgets/meter/lv_meter.c ****             lv_draw_line(draw_ctx, &line_dsc, &p_outer, &p_center);
 718              		.loc 1 534 0 is_stmt 1 discriminator 4
 719 0298 57AB     		add	r3, sp, #348
 720 029a 11AA     		add	r2, sp, #68
 721 029c 54A9     		add	r1, sp, #336
 722 029e 0A98     		ldr	r0, [sp, #40]
 723 02a0 FFF7FEFF 		bl	lv_draw_line
 724              	.LVL93:
 535:Drivers/lvgl/lvgl/src/extra/widgets/meter/lv_meter.c ****             lv_draw_mask_remove_id(inner_act_mask_id);
 725              		.loc 1 535 0 discriminator 4
 726 02a4 2046     		mov	r0, r4
 727 02a6 FFF7FEFF 		bl	lv_draw_mask_remove_id
 728              	.LVL94:
 536:Drivers/lvgl/lvgl/src/extra/widgets/meter/lv_meter.c ****             lv_event_send(obj, LV_EVENT_DRAW_MAIN_END, &part_draw_dsc);
 729              		.loc 1 536 0 discriminator 4
 730 02aa 28AA     		add	r2, sp, #160
 731 02ac 1621     		movs	r1, #22
 732 02ae 0598     		ldr	r0, [sp, #20]
 733 02b0 FFF7FEFF 		bl	lv_event_send
 734              	.LVL95:
 537:Drivers/lvgl/lvgl/src/extra/widgets/meter/lv_meter.c **** 
 538:Drivers/lvgl/lvgl/src/extra/widgets/meter/lv_meter.c ****             line_dsc.color = line_color_ori;
 735              		.loc 1 538 0 discriminator 4
 736 02b4 BDF82630 		ldrh	r3, [sp, #38]
 737              	.LVL96:
 738 02b8 ADF85031 		strh	r3, [sp, #336]	@ movhi
 539:Drivers/lvgl/lvgl/src/extra/widgets/meter/lv_meter.c ****             line_dsc.width = line_width_ori;
 739              		.loc 1 539 0 discriminator 4
 740 02bc BDF81830 		ldrh	r3, [sp, #24]
 741              	.LVL97:
ARM GAS  /tmp/ccVvrzYL.s 			page 43


 742 02c0 ADF85231 		strh	r3, [sp, #338]	@ movhi
 743              	.LBE62:
 437:Drivers/lvgl/lvgl/src/extra/widgets/meter/lv_meter.c ****             minor_cnt++;
 744              		.loc 1 437 0 discriminator 4
 745 02c4 0136     		adds	r6, r6, #1
 746              	.LVL98:
 747 02c6 B6B2     		uxth	r6, r6
 748              	.LVL99:
 749              	.L35:
 437:Drivers/lvgl/lvgl/src/extra/widgets/meter/lv_meter.c ****             minor_cnt++;
 750              		.loc 1 437 0 is_stmt 0 discriminator 2
 751 02c8 7A88     		ldrh	r2, [r7, #2]
 752 02ca B242     		cmp	r2, r6
 753 02cc 48D9     		bls	.L48
 754              	.LBB69:
 438:Drivers/lvgl/lvgl/src/extra/widgets/meter/lv_meter.c ****             bool major = false;
 755              		.loc 1 438 0 is_stmt 1
 756 02ce 079B     		ldr	r3, [sp, #28]
 757 02d0 0133     		adds	r3, r3, #1
 758 02d2 1946     		mov	r1, r3
 759 02d4 0793     		str	r3, [sp, #28]
 760              	.LVL100:
 440:Drivers/lvgl/lvgl/src/extra/widgets/meter/lv_meter.c ****                 minor_cnt = 0;
 761              		.loc 1 440 0
 762 02d6 7B89     		ldrh	r3, [r7, #10]
 763 02d8 8B42     		cmp	r3, r1
 764 02da 3FF4E7AE 		beq	.L39
 439:Drivers/lvgl/lvgl/src/extra/widgets/meter/lv_meter.c ****             if(minor_cnt == scale->tick_major_nth) {
 765              		.loc 1 439 0
 766 02de 4FF0000B 		mov	fp, #0
 767              	.L19:
 768              	.LVL101:
 445:Drivers/lvgl/lvgl/src/extra/widgets/meter/lv_meter.c ****             part_draw_dsc.value = value_of_line;
 769              		.loc 1 445 0
 770 02e2 0896     		str	r6, [sp, #32]
 771 02e4 7B69     		ldr	r3, [r7, #20]
 772 02e6 B969     		ldr	r1, [r7, #24]
 773 02e8 0091     		str	r1, [sp]
 774 02ea 013A     		subs	r2, r2, #1
 775 02ec 0021     		movs	r1, #0
 776 02ee 3046     		mov	r0, r6
 777 02f0 FFF7FEFF 		bl	lv_map
 778              	.LVL102:
 779 02f4 8146     		mov	r9, r0
 780              	.LVL103:
 446:Drivers/lvgl/lvgl/src/extra/widgets/meter/lv_meter.c **** 
 781              		.loc 1 446 0
 782 02f6 3890     		str	r0, [sp, #224]
 448:Drivers/lvgl/lvgl/src/extra/widgets/meter/lv_meter.c ****             lv_color_t line_color_ori = line_color;
 783              		.loc 1 448 0
 784 02f8 BBF1000F 		cmp	fp, #0
 785 02fc 3FF4DBAE 		beq	.L20
 448:Drivers/lvgl/lvgl/src/extra/widgets/meter/lv_meter.c ****             lv_color_t line_color_ori = line_color;
 786              		.loc 1 448 0 is_stmt 0 discriminator 1
 787 0300 3D89     		ldrh	r5, [r7, #8]
 788              	.L21:
 789              	.LVL104:
ARM GAS  /tmp/ccVvrzYL.s 			page 44


 449:Drivers/lvgl/lvgl/src/extra/widgets/meter/lv_meter.c **** 
 790              		.loc 1 449 0 is_stmt 1
 791 0302 ADF82650 		strh	r5, [sp, #38]	@ movhi
 451:Drivers/lvgl/lvgl/src/extra/widgets/meter/lv_meter.c ****             lv_coord_t line_width = line_width_ori;
 792              		.loc 1 451 0
 793 0306 BBF1000F 		cmp	fp, #0
 794 030a 3FF4D6AE 		beq	.L22
 451:Drivers/lvgl/lvgl/src/extra/widgets/meter/lv_meter.c ****             lv_coord_t line_width = line_width_ori;
 795              		.loc 1 451 0 is_stmt 0 discriminator 1
 796 030e B7F90E30 		ldrsh	r3, [r7, #14]
 797 0312 0693     		str	r3, [sp, #24]
 798              	.L23:
 799              	.LVL105:
 455:Drivers/lvgl/lvgl/src/extra/widgets/meter/lv_meter.c ****                 if(indic->type != LV_METER_INDICATOR_TYPE_SCALE_LINES) continue;
 800              		.loc 1 455 0 is_stmt 1 discriminator 4
 801 0314 059B     		ldr	r3, [sp, #20]
 802 0316 03F13008 		add	r8, r3, #48
 803 031a 4046     		mov	r0, r8
 804              	.LVL106:
 805 031c FFF7FEFF 		bl	_lv_ll_get_tail
 806              	.LVL107:
 807 0320 0446     		mov	r4, r0
 808              	.LVL108:
 452:Drivers/lvgl/lvgl/src/extra/widgets/meter/lv_meter.c **** 
 809              		.loc 1 452 0 discriminator 4
 810 0322 DDF818A0 		ldr	r10, [sp, #24]
 455:Drivers/lvgl/lvgl/src/extra/widgets/meter/lv_meter.c ****                 if(indic->type != LV_METER_INDICATOR_TYPE_SCALE_LINES) continue;
 811              		.loc 1 455 0 discriminator 4
 812 0326 F0E6     		b	.L24
 813              	.LVL109:
 814              	.L46:
 815              	.LBB68:
 518:Drivers/lvgl/lvgl/src/extra/widgets/meter/lv_meter.c ****                 label_cord.y1 = p.y - label_size.y / 2;
 816              		.loc 1 518 0
 817 0328 431C     		adds	r3, r0, #1
 818 032a 87E7     		b	.L31
 819              	.L47:
 519:Drivers/lvgl/lvgl/src/extra/widgets/meter/lv_meter.c ****                 label_cord.x2 = label_cord.x1 + label_size.x;
 820              		.loc 1 519 0
 821 032c 4C1C     		adds	r4, r1, #1
 822 032e 91E7     		b	.L32
 823              	.LVL110:
 824              	.L30:
 825              	.LBE68:
 528:Drivers/lvgl/lvgl/src/extra/widgets/meter/lv_meter.c ****                 part_draw_dsc.text = NULL;
 826              		.loc 1 528 0
 827 0330 0023     		movs	r3, #0
 828 0332 2D93     		str	r3, [sp, #180]
 529:Drivers/lvgl/lvgl/src/extra/widgets/meter/lv_meter.c ****                 lv_event_send(obj, LV_EVENT_DRAW_PART_BEGIN, &part_draw_dsc);
 829              		.loc 1 529 0
 830 0334 3393     		str	r3, [sp, #204]
 530:Drivers/lvgl/lvgl/src/extra/widgets/meter/lv_meter.c ****             }
 831              		.loc 1 530 0
 832 0336 28AA     		add	r2, sp, #160
 833 0338 1A21     		movs	r1, #26
 834 033a 0598     		ldr	r0, [sp, #20]
 835 033c FFF7FEFF 		bl	lv_event_send
ARM GAS  /tmp/ccVvrzYL.s 			page 45


 836              	.LVL111:
 837 0340 A2E7     		b	.L33
 838              	.LVL112:
 839              	.L40:
 533:Drivers/lvgl/lvgl/src/extra/widgets/meter/lv_meter.c ****             lv_draw_line(draw_ctx, &line_dsc, &p_outer, &p_center);
 840              		.loc 1 533 0
 841 0342 46A8     		add	r0, sp, #280
 842 0344 A4E7     		b	.L34
 843              	.LVL113:
 844              	.L38:
 845              	.LBE69:
 435:Drivers/lvgl/lvgl/src/extra/widgets/meter/lv_meter.c ****         uint16_t i;
 846              		.loc 1 435 0
 847 0346 4FF6FF73 		movw	r3, #65535
 848 034a 0793     		str	r3, [sp, #28]
 849              	.L18:
 435:Drivers/lvgl/lvgl/src/extra/widgets/meter/lv_meter.c ****         uint16_t i;
 850              		.loc 1 435 0 is_stmt 0 discriminator 2
 851 034c 4FF0000B 		mov	fp, #0
 852 0350 5E46     		mov	r6, fp
 853 0352 B9E7     		b	.L35
 854              	.L51:
 855              		.align	2
 856              	.L50:
 857 0354 00000000 		.word	.LANCHOR0
 858 0358 1FF8E007 		.word	132184095
 859 035c 00000000 		.word	.LC0
 860              	.LVL114:
 861              	.L48:
 540:Drivers/lvgl/lvgl/src/extra/widgets/meter/lv_meter.c **** 
 541:Drivers/lvgl/lvgl/src/extra/widgets/meter/lv_meter.c ****         }
 542:Drivers/lvgl/lvgl/src/extra/widgets/meter/lv_meter.c ****         lv_draw_mask_free_param(&inner_minor_mask);
 862              		.loc 1 542 0 is_stmt 1 discriminator 2
 863 0360 46A8     		add	r0, sp, #280
 864 0362 FFF7FEFF 		bl	lv_draw_mask_free_param
 865              	.LVL115:
 543:Drivers/lvgl/lvgl/src/extra/widgets/meter/lv_meter.c ****         lv_draw_mask_free_param(&inner_major_mask);
 866              		.loc 1 543 0 discriminator 2
 867 0366 40A8     		add	r0, sp, #256
 868 0368 FFF7FEFF 		bl	lv_draw_mask_free_param
 869              	.LVL116:
 544:Drivers/lvgl/lvgl/src/extra/widgets/meter/lv_meter.c ****         lv_draw_mask_free_param(&outer_mask);
 870              		.loc 1 544 0 discriminator 2
 871 036c 3AA8     		add	r0, sp, #232
 872 036e FFF7FEFF 		bl	lv_draw_mask_free_param
 873              	.LVL117:
 545:Drivers/lvgl/lvgl/src/extra/widgets/meter/lv_meter.c ****         lv_draw_mask_remove_id(outer_mask_id);
 874              		.loc 1 545 0 discriminator 2
 875 0372 0B98     		ldr	r0, [sp, #44]
 876 0374 FFF7FEFF 		bl	lv_draw_mask_remove_id
 877              	.LVL118:
 878              	.LBE61:
 404:Drivers/lvgl/lvgl/src/extra/widgets/meter/lv_meter.c ****         part_draw_dsc.sub_part_ptr = scale;
 879              		.loc 1 404 0 discriminator 2
 880 0378 3946     		mov	r1, r7
 881 037a 0F98     		ldr	r0, [sp, #60]
 882 037c FFF7FEFF 		bl	_lv_ll_get_prev
ARM GAS  /tmp/ccVvrzYL.s 			page 46


 883              	.LVL119:
 884 0380 0746     		mov	r7, r0
 885              	.LVL120:
 886              	.L17:
 404:Drivers/lvgl/lvgl/src/extra/widgets/meter/lv_meter.c ****         part_draw_dsc.sub_part_ptr = scale;
 887              		.loc 1 404 0 is_stmt 0 discriminator 1
 888 0382 002F     		cmp	r7, #0
 889 0384 61D0     		beq	.L49
 890              	.LBB70:
 405:Drivers/lvgl/lvgl/src/extra/widgets/meter/lv_meter.c **** 
 891              		.loc 1 405 0 is_stmt 1
 892 0386 3997     		str	r7, [sp, #228]
 893              	.LVL121:
 408:Drivers/lvgl/lvgl/src/extra/widgets/meter/lv_meter.c ****         lv_coord_t r_in_major = r_out - scale->tick_major_length;
 894              		.loc 1 408 0
 895 0388 BB88     		ldrh	r3, [r7, #4]
 896 038a 0C9D     		ldr	r5, [sp, #48]
 897 038c EB1A     		subs	r3, r5, r3
 898 038e 9BB2     		uxth	r3, r3
 899              	.LVL122:
 409:Drivers/lvgl/lvgl/src/extra/widgets/meter/lv_meter.c **** 
 900              		.loc 1 409 0
 901 0390 BC89     		ldrh	r4, [r7, #12]
 902 0392 2C1B     		subs	r4, r5, r4
 903 0394 A4B2     		uxth	r4, r4
 904 0396 22B2     		sxth	r2, r4
 905 0398 0E92     		str	r2, [sp, #56]
 906              	.LVL123:
 412:Drivers/lvgl/lvgl/src/extra/widgets/meter/lv_meter.c ****         area_inner_minor.y1 = p_center.y - r_in_minor;
 907              		.loc 1 412 0
 908 039a BDF85C21 		ldrh	r2, [sp, #348]
 909 039e D11A     		subs	r1, r2, r3
 910 03a0 ADF85010 		strh	r1, [sp, #80]	@ movhi
 413:Drivers/lvgl/lvgl/src/extra/widgets/meter/lv_meter.c ****         area_inner_minor.x2 = p_center.x + r_in_minor;
 911              		.loc 1 413 0
 912 03a4 BDF85E11 		ldrh	r1, [sp, #350]
 913 03a8 C81A     		subs	r0, r1, r3
 914              	.LVL124:
 915 03aa ADF85200 		strh	r0, [sp, #82]	@ movhi
 414:Drivers/lvgl/lvgl/src/extra/widgets/meter/lv_meter.c ****         area_inner_minor.y2 = p_center.y + r_in_minor;
 916              		.loc 1 414 0
 917 03ae 1A44     		add	r2, r2, r3
 918 03b0 ADF85420 		strh	r2, [sp, #84]	@ movhi
 415:Drivers/lvgl/lvgl/src/extra/widgets/meter/lv_meter.c ****         lv_draw_mask_radius_init(&inner_minor_mask, &area_inner_minor, LV_RADIUS_CIRCLE, true);
 919              		.loc 1 415 0
 920 03b4 0B44     		add	r3, r3, r1
 921              	.LVL125:
 922 03b6 ADF85630 		strh	r3, [sp, #86]	@ movhi
 416:Drivers/lvgl/lvgl/src/extra/widgets/meter/lv_meter.c **** 
 923              		.loc 1 416 0
 924 03ba 0123     		movs	r3, #1
 925 03bc 47F6FF72 		movw	r2, #32767
 926 03c0 14A9     		add	r1, sp, #80
 927 03c2 46A8     		add	r0, sp, #280
 928 03c4 FFF7FEFF 		bl	lv_draw_mask_radius_init
 929              	.LVL126:
 419:Drivers/lvgl/lvgl/src/extra/widgets/meter/lv_meter.c ****         area_inner_major.y1 = p_center.y - r_in_major;
ARM GAS  /tmp/ccVvrzYL.s 			page 47


 930              		.loc 1 419 0
 931 03c8 BDF85C21 		ldrh	r2, [sp, #348]
 932 03cc 131B     		subs	r3, r2, r4
 933 03ce ADF85830 		strh	r3, [sp, #88]	@ movhi
 420:Drivers/lvgl/lvgl/src/extra/widgets/meter/lv_meter.c ****         area_inner_major.x2 = p_center.x + r_in_major - 1;
 934              		.loc 1 420 0
 935 03d2 BDF85E31 		ldrh	r3, [sp, #350]
 936 03d6 191B     		subs	r1, r3, r4
 937 03d8 ADF85A10 		strh	r1, [sp, #90]	@ movhi
 421:Drivers/lvgl/lvgl/src/extra/widgets/meter/lv_meter.c ****         area_inner_major.y2 = p_center.y + r_in_major - 1;
 938              		.loc 1 421 0
 939 03dc 2244     		add	r2, r2, r4
 940 03de 92B2     		uxth	r2, r2
 941 03e0 013A     		subs	r2, r2, #1
 942 03e2 ADF85C20 		strh	r2, [sp, #92]	@ movhi
 422:Drivers/lvgl/lvgl/src/extra/widgets/meter/lv_meter.c ****         lv_draw_mask_radius_init(&inner_major_mask, &area_inner_major, LV_RADIUS_CIRCLE, true);
 943              		.loc 1 422 0
 944 03e6 2344     		add	r3, r3, r4
 945 03e8 9BB2     		uxth	r3, r3
 946 03ea 013B     		subs	r3, r3, #1
 947 03ec ADF85E30 		strh	r3, [sp, #94]	@ movhi
 423:Drivers/lvgl/lvgl/src/extra/widgets/meter/lv_meter.c **** 
 948              		.loc 1 423 0
 949 03f0 0123     		movs	r3, #1
 950 03f2 47F6FF72 		movw	r2, #32767
 951 03f6 16A9     		add	r1, sp, #88
 952 03f8 40A8     		add	r0, sp, #256
 953 03fa FFF7FEFF 		bl	lv_draw_mask_radius_init
 954              	.LVL127:
 426:Drivers/lvgl/lvgl/src/extra/widgets/meter/lv_meter.c ****         area_outer.y1 = p_center.y - r_out;
 955              		.loc 1 426 0
 956 03fe BDF85C21 		ldrh	r2, [sp, #348]
 957 0402 531B     		subs	r3, r2, r5
 958 0404 ADF86030 		strh	r3, [sp, #96]	@ movhi
 427:Drivers/lvgl/lvgl/src/extra/widgets/meter/lv_meter.c ****         area_outer.x2 = p_center.x + r_out - 1;
 959              		.loc 1 427 0
 960 0408 BDF85E31 		ldrh	r3, [sp, #350]
 961 040c 591B     		subs	r1, r3, r5
 962 040e ADF86210 		strh	r1, [sp, #98]	@ movhi
 428:Drivers/lvgl/lvgl/src/extra/widgets/meter/lv_meter.c ****         area_outer.y2 = p_center.y + r_out - 1;
 963              		.loc 1 428 0
 964 0412 2A44     		add	r2, r2, r5
 965 0414 92B2     		uxth	r2, r2
 966 0416 013A     		subs	r2, r2, #1
 967 0418 ADF86420 		strh	r2, [sp, #100]	@ movhi
 429:Drivers/lvgl/lvgl/src/extra/widgets/meter/lv_meter.c ****         lv_draw_mask_radius_init(&outer_mask, &area_outer, LV_RADIUS_CIRCLE, false);
 968              		.loc 1 429 0
 969 041c 2B44     		add	r3, r3, r5
 970 041e 9BB2     		uxth	r3, r3
 971 0420 013B     		subs	r3, r3, #1
 972 0422 ADF86630 		strh	r3, [sp, #102]	@ movhi
 430:Drivers/lvgl/lvgl/src/extra/widgets/meter/lv_meter.c ****         int16_t outer_mask_id = lv_draw_mask_add(&outer_mask, NULL);
 973              		.loc 1 430 0
 974 0426 0023     		movs	r3, #0
 975 0428 47F6FF72 		movw	r2, #32767
 976 042c 18A9     		add	r1, sp, #96
 977 042e 3AA8     		add	r0, sp, #232
ARM GAS  /tmp/ccVvrzYL.s 			page 48


 978 0430 FFF7FEFF 		bl	lv_draw_mask_radius_init
 979              	.LVL128:
 431:Drivers/lvgl/lvgl/src/extra/widgets/meter/lv_meter.c **** 
 980              		.loc 1 431 0
 981 0434 0021     		movs	r1, #0
 982 0436 3AA8     		add	r0, sp, #232
 983 0438 FFF7FEFF 		bl	lv_draw_mask_add
 984              	.LVL129:
 985 043c 0B90     		str	r0, [sp, #44]
 986              	.LVL130:
 435:Drivers/lvgl/lvgl/src/extra/widgets/meter/lv_meter.c ****         uint16_t i;
 987              		.loc 1 435 0
 988 043e 7B89     		ldrh	r3, [r7, #10]
 989 0440 002B     		cmp	r3, #0
 990 0442 80D0     		beq	.L38
 435:Drivers/lvgl/lvgl/src/extra/widgets/meter/lv_meter.c ****         uint16_t i;
 991              		.loc 1 435 0 is_stmt 0 discriminator 1
 992 0444 013B     		subs	r3, r3, #1
 993 0446 0793     		str	r3, [sp, #28]
 994 0448 80E7     		b	.L18
 995              	.LVL131:
 996              	.L49:
 997              	.LBE70:
 546:Drivers/lvgl/lvgl/src/extra/widgets/meter/lv_meter.c ****     }
 547:Drivers/lvgl/lvgl/src/extra/widgets/meter/lv_meter.c **** }
 998              		.loc 1 547 0 is_stmt 1
 999 044a 59B0     		add	sp, sp, #356
 1000              	.LCFI5:
 1001              		.cfi_def_cfa_offset 36
 1002              		@ sp needed
 1003 044c BDE8F08F 		pop	{r4, r5, r6, r7, r8, r9, r10, fp, pc}
 1004              		.cfi_endproc
 1005              	.LFE218:
 1007              		.section	.text.draw_needles,"ax",%progbits
 1008              		.align	1
 1009              		.syntax unified
 1010              		.thumb
 1011              		.thumb_func
 1012              		.fpu fpv5-d16
 1014              	draw_needles:
 1015              	.LFB219:
 548:Drivers/lvgl/lvgl/src/extra/widgets/meter/lv_meter.c **** 
 549:Drivers/lvgl/lvgl/src/extra/widgets/meter/lv_meter.c **** 
 550:Drivers/lvgl/lvgl/src/extra/widgets/meter/lv_meter.c **** static void draw_needles(lv_obj_t * obj, lv_draw_ctx_t * draw_ctx, const lv_area_t * scale_area)
 551:Drivers/lvgl/lvgl/src/extra/widgets/meter/lv_meter.c **** {
 1016              		.loc 1 551 0
 1017              		.cfi_startproc
 1018              		@ args = 0, pretend = 0, frame = 136
 1019              		@ frame_needed = 0, uses_anonymous_args = 0
 1020              	.LVL132:
 1021 0000 2DE9F04F 		push	{r4, r5, r6, r7, r8, r9, r10, fp, lr}
 1022              	.LCFI6:
 1023              		.cfi_def_cfa_offset 36
 1024              		.cfi_offset 4, -36
 1025              		.cfi_offset 5, -32
 1026              		.cfi_offset 6, -28
 1027              		.cfi_offset 7, -24
ARM GAS  /tmp/ccVvrzYL.s 			page 49


 1028              		.cfi_offset 8, -20
 1029              		.cfi_offset 9, -16
 1030              		.cfi_offset 10, -12
 1031              		.cfi_offset 11, -8
 1032              		.cfi_offset 14, -4
 1033 0004 A5B0     		sub	sp, sp, #148
 1034              	.LCFI7:
 1035              		.cfi_def_cfa_offset 184
 1036 0006 0746     		mov	r7, r0
 1037 0008 0291     		str	r1, [sp, #8]
 1038              	.LVL133:
 1039              	.LBB71:
 1040              	.LBB72:
 125:Drivers/lvgl/lvgl/src/extra/widgets/meter/../../../../src/hal/../draw/../misc/../font/../misc/lv_area.h **** }
 1041              		.loc 3 125 0
 1042 000a 9688     		ldrh	r6, [r2, #4]
 1043 000c 1388     		ldrh	r3, [r2]
 1044 000e F61A     		subs	r6, r6, r3
 1045 0010 B6B2     		uxth	r6, r6
 1046 0012 0136     		adds	r6, r6, #1
 1047 0014 36B2     		sxth	r6, r6
 1048              	.LVL134:
 1049              	.LBE72:
 1050              	.LBE71:
 552:Drivers/lvgl/lvgl/src/extra/widgets/meter/lv_meter.c ****     lv_meter_t * meter = (lv_meter_t *)obj;
 553:Drivers/lvgl/lvgl/src/extra/widgets/meter/lv_meter.c **** 
 554:Drivers/lvgl/lvgl/src/extra/widgets/meter/lv_meter.c ****     lv_coord_t r_edge = lv_area_get_width(scale_area) / 2;
 1051              		.loc 1 554 0
 1052 0016 002E     		cmp	r6, #0
 1053 0018 31DB     		blt	.L65
 1054              	.L53:
 1055              	.LVL135:
 555:Drivers/lvgl/lvgl/src/extra/widgets/meter/lv_meter.c ****     lv_point_t scale_center;
 556:Drivers/lvgl/lvgl/src/extra/widgets/meter/lv_meter.c ****     scale_center.x = scale_area->x1 + r_edge;
 1056              		.loc 1 556 0
 1057 001a C6F34F06 		ubfx	r6, r6, #1, #16
 1058              	.LVL136:
 1059 001e 3344     		add	r3, r3, r6
 1060 0020 ADF88C30 		strh	r3, [sp, #140]	@ movhi
 557:Drivers/lvgl/lvgl/src/extra/widgets/meter/lv_meter.c ****     scale_center.y = scale_area->y1 + r_edge;
 1061              		.loc 1 557 0
 1062 0024 5388     		ldrh	r3, [r2, #2]
 1063 0026 3344     		add	r3, r3, r6
 1064 0028 ADF88E30 		strh	r3, [sp, #142]	@ movhi
 558:Drivers/lvgl/lvgl/src/extra/widgets/meter/lv_meter.c **** 
 559:Drivers/lvgl/lvgl/src/extra/widgets/meter/lv_meter.c ****     lv_draw_line_dsc_t line_dsc;
 560:Drivers/lvgl/lvgl/src/extra/widgets/meter/lv_meter.c ****     lv_draw_line_dsc_init(&line_dsc);
 1065              		.loc 1 560 0
 1066 002c 20A8     		add	r0, sp, #128
 1067              	.LVL137:
 1068 002e FFF7FEFF 		bl	lv_draw_line_dsc_init
 1069              	.LVL138:
 561:Drivers/lvgl/lvgl/src/extra/widgets/meter/lv_meter.c ****     lv_obj_init_draw_line_dsc(obj, LV_PART_ITEMS, &line_dsc);
 1070              		.loc 1 561 0
 1071 0032 20AA     		add	r2, sp, #128
 1072 0034 4FF4A021 		mov	r1, #327680
 1073 0038 3846     		mov	r0, r7
ARM GAS  /tmp/ccVvrzYL.s 			page 50


 1074 003a FFF7FEFF 		bl	lv_obj_init_draw_line_dsc
 1075              	.LVL139:
 562:Drivers/lvgl/lvgl/src/extra/widgets/meter/lv_meter.c **** 
 563:Drivers/lvgl/lvgl/src/extra/widgets/meter/lv_meter.c ****     lv_draw_img_dsc_t img_dsc;
 564:Drivers/lvgl/lvgl/src/extra/widgets/meter/lv_meter.c ****     lv_draw_img_dsc_init(&img_dsc);
 1076              		.loc 1 564 0
 1077 003e 1AA8     		add	r0, sp, #104
 1078 0040 FFF7FEFF 		bl	lv_draw_img_dsc_init
 1079              	.LVL140:
 565:Drivers/lvgl/lvgl/src/extra/widgets/meter/lv_meter.c ****     lv_obj_init_draw_img_dsc(obj, LV_PART_ITEMS, &img_dsc);
 1080              		.loc 1 565 0
 1081 0044 1AAA     		add	r2, sp, #104
 1082 0046 4FF4A021 		mov	r1, #327680
 1083 004a 3846     		mov	r0, r7
 1084 004c FFF7FEFF 		bl	lv_obj_init_draw_img_dsc
 1085              	.LVL141:
 1086              	.LBB73:
 1087              	.LBB74:
 507:Drivers/lvgl/lvgl/src/extra/widgets/meter/../../../../src/core/lv_obj_style_gen.h ****     return (lv_opa_t)v.num;
 1088              		.loc 2 507 0
 1089 0050 6022     		movs	r2, #96
 1090 0052 0021     		movs	r1, #0
 1091 0054 3846     		mov	r0, r7
 1092 0056 FFF7FEFF 		bl	lv_obj_get_style_prop
 1093              	.LVL142:
 1094 005a 0390     		str	r0, [sp, #12]
 1095              		.loc 2 508 0
 1096 005c 5FFA80FB 		uxtb	fp, r0
 1097              	.LVL143:
 1098              	.LBE74:
 1099              	.LBE73:
 566:Drivers/lvgl/lvgl/src/extra/widgets/meter/lv_meter.c ****     lv_opa_t opa_main = lv_obj_get_style_opa(obj, LV_PART_MAIN);
 567:Drivers/lvgl/lvgl/src/extra/widgets/meter/lv_meter.c **** 
 568:Drivers/lvgl/lvgl/src/extra/widgets/meter/lv_meter.c ****     lv_obj_draw_part_dsc_t part_draw_dsc;
 569:Drivers/lvgl/lvgl/src/extra/widgets/meter/lv_meter.c ****     lv_obj_draw_dsc_init(&part_draw_dsc, draw_ctx);
 1100              		.loc 1 569 0
 1101 0060 0299     		ldr	r1, [sp, #8]
 1102 0062 08A8     		add	r0, sp, #32
 1103 0064 FFF7FEFF 		bl	lv_obj_draw_dsc_init
 1104              	.LVL144:
 570:Drivers/lvgl/lvgl/src/extra/widgets/meter/lv_meter.c ****     part_draw_dsc.class_p = MY_CLASS;
 1105              		.loc 1 570 0
 1106 0068 734B     		ldr	r3, .L68
 1107 006a 0993     		str	r3, [sp, #36]
 571:Drivers/lvgl/lvgl/src/extra/widgets/meter/lv_meter.c ****     part_draw_dsc.p1 = &scale_center;
 1108              		.loc 1 571 0
 1109 006c 23AB     		add	r3, sp, #140
 1110 006e 1193     		str	r3, [sp, #68]
 572:Drivers/lvgl/lvgl/src/extra/widgets/meter/lv_meter.c **** 
 573:Drivers/lvgl/lvgl/src/extra/widgets/meter/lv_meter.c ****     lv_meter_indicator_t * indic;
 574:Drivers/lvgl/lvgl/src/extra/widgets/meter/lv_meter.c ****     _LV_LL_READ_BACK(&meter->indicator_ll, indic) {
 1111              		.loc 1 574 0
 1112 0070 07F13009 		add	r9, r7, #48
 1113 0074 4846     		mov	r0, r9
 1114 0076 FFF7FEFF 		bl	_lv_ll_get_tail
 1115              	.LVL145:
 1116 007a 0446     		mov	r4, r0
ARM GAS  /tmp/ccVvrzYL.s 			page 51


 1117              	.LVL146:
 1118 007c 90E0     		b	.L54
 1119              	.LVL147:
 1120              	.L65:
 554:Drivers/lvgl/lvgl/src/extra/widgets/meter/lv_meter.c ****     lv_point_t scale_center;
 1121              		.loc 1 554 0
 1122 007e 0136     		adds	r6, r6, #1
 1123 0080 CBE7     		b	.L53
 1124              	.LVL148:
 1125              	.L67:
 1126              	.LBB75:
 1127              	.LBB76:
 575:Drivers/lvgl/lvgl/src/extra/widgets/meter/lv_meter.c ****         lv_meter_scale_t * scale = indic->scale;
 576:Drivers/lvgl/lvgl/src/extra/widgets/meter/lv_meter.c ****         part_draw_dsc.sub_part_ptr = indic;
 577:Drivers/lvgl/lvgl/src/extra/widgets/meter/lv_meter.c **** 
 578:Drivers/lvgl/lvgl/src/extra/widgets/meter/lv_meter.c ****         if(indic->type == LV_METER_INDICATOR_TYPE_NEEDLE_LINE) {
 579:Drivers/lvgl/lvgl/src/extra/widgets/meter/lv_meter.c ****             int32_t angle = lv_map(indic->end_value, scale->min, scale->max, scale->rotation, scale
 1128              		.loc 1 579 0
 1129 0082 E068     		ldr	r0, [r4, #12]
 1130              	.LVL149:
 1131 0084 6969     		ldr	r1, [r5, #20]
 1132 0086 AA69     		ldr	r2, [r5, #24]
 1133 0088 B5F92030 		ldrsh	r3, [r5, #32]
 1134 008c B5F81EC0 		ldrh	ip, [r5, #30]
 1135 0090 9C44     		add	ip, ip, r3
 1136 0092 CDF800C0 		str	ip, [sp]
 1137 0096 FFF7FEFF 		bl	lv_map
 1138              	.LVL150:
 1139 009a 8246     		mov	r10, r0
 1140              	.LVL151:
 580:Drivers/lvgl/lvgl/src/extra/widgets/meter/lv_meter.c ****             lv_coord_t r_out = r_edge + scale->r_mod + indic->type_data.needle_line.r_mod;
 1141              		.loc 1 580 0
 1142 009c AD8B     		ldrh	r5, [r5, #28]
 1143              	.LVL152:
 1144 009e 3544     		add	r5, r5, r6
 1145 00a0 608A     		ldrh	r0, [r4, #18]
 1146              	.LVL153:
 1147 00a2 10FA85F5 		uxtah	r5, r0, r5
 1148 00a6 2DB2     		sxth	r5, r5
 1149              	.LVL154:
 581:Drivers/lvgl/lvgl/src/extra/widgets/meter/lv_meter.c ****             lv_point_t p_end;
 582:Drivers/lvgl/lvgl/src/extra/widgets/meter/lv_meter.c ****             p_end.y = (lv_trigo_sin(angle) * (r_out)) / LV_TRIGO_SIN_MAX + scale_center.y;
 1150              		.loc 1 582 0
 1151 00a8 0FFA8AF0 		sxth	r0, r10
 1152 00ac FFF7FEFF 		bl	lv_trigo_sin
 1153              	.LVL155:
 1154 00b0 05FB00F0 		mul	r0, r5, r0
 1155 00b4 DFF88481 		ldr	r8, .L68+4
 1156 00b8 88FB0023 		smull	r2, r3, r8, r0
 1157 00bc 0344     		add	r3, r3, r0
 1158 00be C017     		asrs	r0, r0, #31
 1159 00c0 C0EBA330 		rsb	r0, r0, r3, asr #14
 1160 00c4 BDF88E30 		ldrh	r3, [sp, #142]
 1161 00c8 1844     		add	r0, r0, r3
 1162 00ca ADF81A00 		strh	r0, [sp, #26]	@ movhi
 1163              	.LVL156:
 1164              	.LBB77:
ARM GAS  /tmp/ccVvrzYL.s 			page 52


 1165              	.LBB78:
 1166              		.file 5 "Drivers/lvgl/lvgl/src/extra/widgets/meter/../../../../src/misc/lv_math.h"
   1:Drivers/lvgl/lvgl/src/extra/widgets/meter/../../../../src/misc/lv_math.h **** /**
   2:Drivers/lvgl/lvgl/src/extra/widgets/meter/../../../../src/misc/lv_math.h ****  * @file lv_math.h
   3:Drivers/lvgl/lvgl/src/extra/widgets/meter/../../../../src/misc/lv_math.h ****  *
   4:Drivers/lvgl/lvgl/src/extra/widgets/meter/../../../../src/misc/lv_math.h ****  */
   5:Drivers/lvgl/lvgl/src/extra/widgets/meter/../../../../src/misc/lv_math.h **** 
   6:Drivers/lvgl/lvgl/src/extra/widgets/meter/../../../../src/misc/lv_math.h **** #ifndef LV_MATH_H
   7:Drivers/lvgl/lvgl/src/extra/widgets/meter/../../../../src/misc/lv_math.h **** #define LV_MATH_H
   8:Drivers/lvgl/lvgl/src/extra/widgets/meter/../../../../src/misc/lv_math.h **** 
   9:Drivers/lvgl/lvgl/src/extra/widgets/meter/../../../../src/misc/lv_math.h **** #ifdef __cplusplus
  10:Drivers/lvgl/lvgl/src/extra/widgets/meter/../../../../src/misc/lv_math.h **** extern "C" {
  11:Drivers/lvgl/lvgl/src/extra/widgets/meter/../../../../src/misc/lv_math.h **** #endif
  12:Drivers/lvgl/lvgl/src/extra/widgets/meter/../../../../src/misc/lv_math.h **** 
  13:Drivers/lvgl/lvgl/src/extra/widgets/meter/../../../../src/misc/lv_math.h **** /*********************
  14:Drivers/lvgl/lvgl/src/extra/widgets/meter/../../../../src/misc/lv_math.h ****  *      INCLUDES
  15:Drivers/lvgl/lvgl/src/extra/widgets/meter/../../../../src/misc/lv_math.h ****  *********************/
  16:Drivers/lvgl/lvgl/src/extra/widgets/meter/../../../../src/misc/lv_math.h **** #include "../lv_conf_internal.h"
  17:Drivers/lvgl/lvgl/src/extra/widgets/meter/../../../../src/misc/lv_math.h **** #include <stdint.h>
  18:Drivers/lvgl/lvgl/src/extra/widgets/meter/../../../../src/misc/lv_math.h **** 
  19:Drivers/lvgl/lvgl/src/extra/widgets/meter/../../../../src/misc/lv_math.h **** /*********************
  20:Drivers/lvgl/lvgl/src/extra/widgets/meter/../../../../src/misc/lv_math.h ****  *      DEFINES
  21:Drivers/lvgl/lvgl/src/extra/widgets/meter/../../../../src/misc/lv_math.h ****  *********************/
  22:Drivers/lvgl/lvgl/src/extra/widgets/meter/../../../../src/misc/lv_math.h **** #define LV_TRIGO_SIN_MAX 32767
  23:Drivers/lvgl/lvgl/src/extra/widgets/meter/../../../../src/misc/lv_math.h **** #define LV_TRIGO_SHIFT 15 /**<  >> LV_TRIGO_SHIFT to normalize*/
  24:Drivers/lvgl/lvgl/src/extra/widgets/meter/../../../../src/misc/lv_math.h **** 
  25:Drivers/lvgl/lvgl/src/extra/widgets/meter/../../../../src/misc/lv_math.h **** #define LV_BEZIER_VAL_MAX 1024 /**< Max time in Bezier functions (not [0..1] to use integers)*/
  26:Drivers/lvgl/lvgl/src/extra/widgets/meter/../../../../src/misc/lv_math.h **** #define LV_BEZIER_VAL_SHIFT 10 /**< log2(LV_BEZIER_VAL_MAX): used to normalize up scaled values*/
  27:Drivers/lvgl/lvgl/src/extra/widgets/meter/../../../../src/misc/lv_math.h **** 
  28:Drivers/lvgl/lvgl/src/extra/widgets/meter/../../../../src/misc/lv_math.h **** /**********************
  29:Drivers/lvgl/lvgl/src/extra/widgets/meter/../../../../src/misc/lv_math.h ****  *      TYPEDEFS
  30:Drivers/lvgl/lvgl/src/extra/widgets/meter/../../../../src/misc/lv_math.h ****  **********************/
  31:Drivers/lvgl/lvgl/src/extra/widgets/meter/../../../../src/misc/lv_math.h **** 
  32:Drivers/lvgl/lvgl/src/extra/widgets/meter/../../../../src/misc/lv_math.h **** typedef struct {
  33:Drivers/lvgl/lvgl/src/extra/widgets/meter/../../../../src/misc/lv_math.h ****     uint16_t i;
  34:Drivers/lvgl/lvgl/src/extra/widgets/meter/../../../../src/misc/lv_math.h ****     uint16_t f;
  35:Drivers/lvgl/lvgl/src/extra/widgets/meter/../../../../src/misc/lv_math.h **** } lv_sqrt_res_t;
  36:Drivers/lvgl/lvgl/src/extra/widgets/meter/../../../../src/misc/lv_math.h **** 
  37:Drivers/lvgl/lvgl/src/extra/widgets/meter/../../../../src/misc/lv_math.h **** /**********************
  38:Drivers/lvgl/lvgl/src/extra/widgets/meter/../../../../src/misc/lv_math.h ****  * GLOBAL PROTOTYPES
  39:Drivers/lvgl/lvgl/src/extra/widgets/meter/../../../../src/misc/lv_math.h ****  **********************/
  40:Drivers/lvgl/lvgl/src/extra/widgets/meter/../../../../src/misc/lv_math.h **** 
  41:Drivers/lvgl/lvgl/src/extra/widgets/meter/../../../../src/misc/lv_math.h **** //! @cond Doxygen_Suppress
  42:Drivers/lvgl/lvgl/src/extra/widgets/meter/../../../../src/misc/lv_math.h **** /**
  43:Drivers/lvgl/lvgl/src/extra/widgets/meter/../../../../src/misc/lv_math.h ****  * Return with sinus of an angle
  44:Drivers/lvgl/lvgl/src/extra/widgets/meter/../../../../src/misc/lv_math.h ****  * @param angle
  45:Drivers/lvgl/lvgl/src/extra/widgets/meter/../../../../src/misc/lv_math.h ****  * @return sinus of 'angle'. sin(-90) = -32767, sin(90) = 32767
  46:Drivers/lvgl/lvgl/src/extra/widgets/meter/../../../../src/misc/lv_math.h ****  */
  47:Drivers/lvgl/lvgl/src/extra/widgets/meter/../../../../src/misc/lv_math.h **** LV_ATTRIBUTE_FAST_MEM int16_t lv_trigo_sin(int16_t angle);
  48:Drivers/lvgl/lvgl/src/extra/widgets/meter/../../../../src/misc/lv_math.h **** 
  49:Drivers/lvgl/lvgl/src/extra/widgets/meter/../../../../src/misc/lv_math.h **** static inline LV_ATTRIBUTE_FAST_MEM int16_t lv_trigo_cos(int16_t angle)
  50:Drivers/lvgl/lvgl/src/extra/widgets/meter/../../../../src/misc/lv_math.h **** {
  51:Drivers/lvgl/lvgl/src/extra/widgets/meter/../../../../src/misc/lv_math.h ****     return lv_trigo_sin(angle + 90);
 1167              		.loc 5 51 0
 1168 00ce 0AF15A00 		add	r0, r10, #90
 1169 00d2 00B2     		sxth	r0, r0
 1170 00d4 FFF7FEFF 		bl	lv_trigo_sin
ARM GAS  /tmp/ccVvrzYL.s 			page 53


 1171              	.LVL157:
 1172              	.LBE78:
 1173              	.LBE77:
 583:Drivers/lvgl/lvgl/src/extra/widgets/meter/lv_meter.c ****             p_end.x = (lv_trigo_cos(angle) * (r_out)) / LV_TRIGO_SIN_MAX + scale_center.x;
 1174              		.loc 1 583 0
 1175 00d8 00FB05F0 		mul	r0, r0, r5
 1176 00dc 88FB0038 		smull	r3, r8, r8, r0
 1177 00e0 8044     		add	r8, r8, r0
 1178 00e2 C017     		asrs	r0, r0, #31
 1179 00e4 C0EBA830 		rsb	r0, r0, r8, asr #14
 1180 00e8 BDF88C30 		ldrh	r3, [sp, #140]
 1181 00ec 1844     		add	r0, r0, r3
 1182 00ee ADF81800 		strh	r0, [sp, #24]	@ movhi
 584:Drivers/lvgl/lvgl/src/extra/widgets/meter/lv_meter.c ****             line_dsc.color = indic->type_data.needle_line.color;
 1183              		.loc 1 584 0
 1184 00f2 A38A     		ldrh	r3, [r4, #20]
 1185 00f4 ADF88030 		strh	r3, [sp, #128]	@ movhi
 585:Drivers/lvgl/lvgl/src/extra/widgets/meter/lv_meter.c ****             line_dsc.width = indic->type_data.needle_line.width;
 1186              		.loc 1 585 0
 1187 00f8 B4F91030 		ldrsh	r3, [r4, #16]
 1188 00fc ADF88230 		strh	r3, [sp, #130]	@ movhi
 586:Drivers/lvgl/lvgl/src/extra/widgets/meter/lv_meter.c ****             line_dsc.opa = indic->opa > LV_OPA_MAX ? opa_main : (opa_main * indic->opa) >> 8;
 1189              		.loc 1 586 0
 1190 0100 6379     		ldrb	r3, [r4, #5]	@ zero_extendqisi2
 1191 0102 FD2B     		cmp	r3, #253
 1192 0104 1FD8     		bhi	.L62
 1193              		.loc 1 586 0 is_stmt 0 discriminator 1
 1194 0106 9DF80C20 		ldrb	r2, [sp, #12]	@ zero_extendqisi2
 1195 010a 03FB02F3 		mul	r3, r3, r2
 1196 010e 1B0A     		lsrs	r3, r3, #8
 1197              	.L56:
 1198              		.loc 1 586 0 discriminator 4
 1199 0110 8DF88830 		strb	r3, [sp, #136]
 587:Drivers/lvgl/lvgl/src/extra/widgets/meter/lv_meter.c **** 
 588:Drivers/lvgl/lvgl/src/extra/widgets/meter/lv_meter.c ****             part_draw_dsc.id = LV_METER_DRAW_PART_NEEDLE_LINE;
 1200              		.loc 1 588 0 is_stmt 1 discriminator 4
 1201 0114 0123     		movs	r3, #1
 1202 0116 1693     		str	r3, [sp, #88]
 589:Drivers/lvgl/lvgl/src/extra/widgets/meter/lv_meter.c ****             part_draw_dsc.line_dsc = &line_dsc;
 1203              		.loc 1 589 0 discriminator 4
 1204 0118 20AD     		add	r5, sp, #128
 1205              	.LVL158:
 1206 011a 0E95     		str	r5, [sp, #56]
 590:Drivers/lvgl/lvgl/src/extra/widgets/meter/lv_meter.c ****             part_draw_dsc.p2 = &p_end;
 1207              		.loc 1 590 0 discriminator 4
 1208 011c 0DF11808 		add	r8, sp, #24
 1209 0120 CDF84880 		str	r8, [sp, #72]
 591:Drivers/lvgl/lvgl/src/extra/widgets/meter/lv_meter.c **** 
 592:Drivers/lvgl/lvgl/src/extra/widgets/meter/lv_meter.c ****             lv_event_send(obj, LV_EVENT_DRAW_PART_BEGIN, &part_draw_dsc);
 1210              		.loc 1 592 0 discriminator 4
 1211 0124 08AA     		add	r2, sp, #32
 1212 0126 1A21     		movs	r1, #26
 1213 0128 3846     		mov	r0, r7
 1214 012a FFF7FEFF 		bl	lv_event_send
 1215              	.LVL159:
 593:Drivers/lvgl/lvgl/src/extra/widgets/meter/lv_meter.c ****             lv_draw_line(draw_ctx, &line_dsc, &scale_center, &p_end);
 1216              		.loc 1 593 0 discriminator 4
ARM GAS  /tmp/ccVvrzYL.s 			page 54


 1217 012e 4346     		mov	r3, r8
 1218 0130 23AA     		add	r2, sp, #140
 1219 0132 2946     		mov	r1, r5
 1220 0134 0298     		ldr	r0, [sp, #8]
 1221 0136 FFF7FEFF 		bl	lv_draw_line
 1222              	.LVL160:
 594:Drivers/lvgl/lvgl/src/extra/widgets/meter/lv_meter.c ****             lv_event_send(obj, LV_EVENT_DRAW_PART_END, &part_draw_dsc);
 1223              		.loc 1 594 0 discriminator 4
 1224 013a 08AA     		add	r2, sp, #32
 1225 013c 1B21     		movs	r1, #27
 1226 013e 3846     		mov	r0, r7
 1227 0140 FFF7FEFF 		bl	lv_event_send
 1228              	.LVL161:
 1229              	.LBE76:
 1230 0144 27E0     		b	.L57
 1231              	.LVL162:
 1232              	.L62:
 1233              	.LBB79:
 586:Drivers/lvgl/lvgl/src/extra/widgets/meter/lv_meter.c **** 
 1234              		.loc 1 586 0
 1235 0146 5B46     		mov	r3, fp
 1236 0148 E2E7     		b	.L56
 1237              	.LVL163:
 1238              	.L63:
 1239              	.LBE79:
 1240              	.LBB80:
 595:Drivers/lvgl/lvgl/src/extra/widgets/meter/lv_meter.c ****         }
 596:Drivers/lvgl/lvgl/src/extra/widgets/meter/lv_meter.c ****         else if(indic->type == LV_METER_INDICATOR_TYPE_NEEDLE_IMG) {
 597:Drivers/lvgl/lvgl/src/extra/widgets/meter/lv_meter.c ****             if(indic->type_data.needle_img.src == NULL) continue;
 598:Drivers/lvgl/lvgl/src/extra/widgets/meter/lv_meter.c **** 
 599:Drivers/lvgl/lvgl/src/extra/widgets/meter/lv_meter.c ****             int32_t angle = lv_map(indic->end_value, scale->min, scale->max, scale->rotation, scale
 600:Drivers/lvgl/lvgl/src/extra/widgets/meter/lv_meter.c ****             lv_img_header_t info;
 601:Drivers/lvgl/lvgl/src/extra/widgets/meter/lv_meter.c ****             lv_img_decoder_get_info(indic->type_data.needle_img.src, &info);
 602:Drivers/lvgl/lvgl/src/extra/widgets/meter/lv_meter.c ****             lv_area_t a;
 603:Drivers/lvgl/lvgl/src/extra/widgets/meter/lv_meter.c ****             a.x1 = scale_center.x - indic->type_data.needle_img.pivot.x;
 604:Drivers/lvgl/lvgl/src/extra/widgets/meter/lv_meter.c ****             a.y1 = scale_center.y - indic->type_data.needle_img.pivot.y;
 605:Drivers/lvgl/lvgl/src/extra/widgets/meter/lv_meter.c ****             a.x2 = a.x1 + info.w - 1;
 606:Drivers/lvgl/lvgl/src/extra/widgets/meter/lv_meter.c ****             a.y2 = a.y1 + info.h - 1;
 607:Drivers/lvgl/lvgl/src/extra/widgets/meter/lv_meter.c **** 
 608:Drivers/lvgl/lvgl/src/extra/widgets/meter/lv_meter.c ****             img_dsc.opa = indic->opa > LV_OPA_MAX ? opa_main : (opa_main * indic->opa) >> 8;
 1241              		.loc 1 608 0
 1242 014a 5B46     		mov	r3, fp
 1243              	.L59:
 1244              		.loc 1 608 0 is_stmt 0 discriminator 4
 1245 014c 8DF87330 		strb	r3, [sp, #115]
 609:Drivers/lvgl/lvgl/src/extra/widgets/meter/lv_meter.c ****             img_dsc.pivot.x = indic->type_data.needle_img.pivot.x;
 1246              		.loc 1 609 0 is_stmt 1 discriminator 4
 1247 0150 ADF86CC0 		strh	ip, [sp, #108]	@ movhi
 610:Drivers/lvgl/lvgl/src/extra/widgets/meter/lv_meter.c ****             img_dsc.pivot.y = indic->type_data.needle_img.pivot.y;
 1248              		.loc 1 610 0 discriminator 4
 1249 0154 ADF86E00 		strh	r0, [sp, #110]	@ movhi
 611:Drivers/lvgl/lvgl/src/extra/widgets/meter/lv_meter.c ****             angle = angle * 10;
 1250              		.loc 1 611 0 discriminator 4
 1251 0158 05EB8505 		add	r5, r5, r5, lsl #2
 1252              	.LVL164:
 1253 015c 6B00     		lsls	r3, r5, #1
 1254 015e 1A46     		mov	r2, r3
ARM GAS  /tmp/ccVvrzYL.s 			page 55


 1255              	.LVL165:
 612:Drivers/lvgl/lvgl/src/extra/widgets/meter/lv_meter.c ****             if(angle > 3600) angle -= 3600;
 1256              		.loc 1 612 0 discriminator 4
 1257 0160 B3F5616F 		cmp	r3, #3600
 1258 0164 01DD     		ble	.L60
 1259              		.loc 1 612 0 is_stmt 0 discriminator 1
 1260 0166 A3F56162 		sub	r2, r3, #3600
 1261              	.LVL166:
 1262              	.L60:
 613:Drivers/lvgl/lvgl/src/extra/widgets/meter/lv_meter.c ****             img_dsc.angle = angle;
 1263              		.loc 1 613 0 is_stmt 1
 1264 016a ADF86820 		strh	r2, [sp, #104]	@ movhi
 614:Drivers/lvgl/lvgl/src/extra/widgets/meter/lv_meter.c **** 
 615:Drivers/lvgl/lvgl/src/extra/widgets/meter/lv_meter.c ****             part_draw_dsc.id = LV_METER_DRAW_PART_NEEDLE_IMG;
 1265              		.loc 1 615 0
 1266 016e 0223     		movs	r3, #2
 1267 0170 1693     		str	r3, [sp, #88]
 616:Drivers/lvgl/lvgl/src/extra/widgets/meter/lv_meter.c ****             part_draw_dsc.img_dsc = &img_dsc;
 1268              		.loc 1 616 0
 1269 0172 1AAD     		add	r5, sp, #104
 1270 0174 0F95     		str	r5, [sp, #60]
 617:Drivers/lvgl/lvgl/src/extra/widgets/meter/lv_meter.c **** 
 618:Drivers/lvgl/lvgl/src/extra/widgets/meter/lv_meter.c ****             lv_event_send(obj, LV_EVENT_DRAW_PART_BEGIN, &part_draw_dsc);
 1271              		.loc 1 618 0
 1272 0176 08AA     		add	r2, sp, #32
 1273              	.LVL167:
 1274 0178 1A21     		movs	r1, #26
 1275 017a 3846     		mov	r0, r7
 1276 017c FFF7FEFF 		bl	lv_event_send
 1277              	.LVL168:
 619:Drivers/lvgl/lvgl/src/extra/widgets/meter/lv_meter.c ****             lv_draw_img(draw_ctx, &img_dsc, &a, indic->type_data.needle_img.src);
 1278              		.loc 1 619 0
 1279 0180 2369     		ldr	r3, [r4, #16]
 1280 0182 06AA     		add	r2, sp, #24
 1281 0184 2946     		mov	r1, r5
 1282 0186 0298     		ldr	r0, [sp, #8]
 1283 0188 FFF7FEFF 		bl	lv_draw_img
 1284              	.LVL169:
 620:Drivers/lvgl/lvgl/src/extra/widgets/meter/lv_meter.c ****             lv_event_send(obj, LV_EVENT_DRAW_PART_END, &part_draw_dsc);
 1285              		.loc 1 620 0
 1286 018c 08AA     		add	r2, sp, #32
 1287 018e 1B21     		movs	r1, #27
 1288 0190 3846     		mov	r0, r7
 1289 0192 FFF7FEFF 		bl	lv_event_send
 1290              	.LVL170:
 1291              	.L57:
 1292              	.LBE80:
 1293              	.LBE75:
 574:Drivers/lvgl/lvgl/src/extra/widgets/meter/lv_meter.c ****         lv_meter_scale_t * scale = indic->scale;
 1294              		.loc 1 574 0 discriminator 2
 1295 0196 2146     		mov	r1, r4
 1296 0198 4846     		mov	r0, r9
 1297 019a FFF7FEFF 		bl	_lv_ll_get_prev
 1298              	.LVL171:
 1299 019e 0446     		mov	r4, r0
 1300              	.LVL172:
 1301              	.L54:
ARM GAS  /tmp/ccVvrzYL.s 			page 56


 574:Drivers/lvgl/lvgl/src/extra/widgets/meter/lv_meter.c ****         lv_meter_scale_t * scale = indic->scale;
 1302              		.loc 1 574 0 is_stmt 0 discriminator 1
 1303 01a0 002C     		cmp	r4, #0
 1304 01a2 45D0     		beq	.L66
 1305              	.LBB82:
 575:Drivers/lvgl/lvgl/src/extra/widgets/meter/lv_meter.c ****         part_draw_dsc.sub_part_ptr = indic;
 1306              		.loc 1 575 0 is_stmt 1
 1307 01a4 2568     		ldr	r5, [r4]
 1308              	.LVL173:
 576:Drivers/lvgl/lvgl/src/extra/widgets/meter/lv_meter.c **** 
 1309              		.loc 1 576 0
 1310 01a6 1994     		str	r4, [sp, #100]
 578:Drivers/lvgl/lvgl/src/extra/widgets/meter/lv_meter.c ****             int32_t angle = lv_map(indic->end_value, scale->min, scale->max, scale->rotation, scale
 1311              		.loc 1 578 0
 1312 01a8 2379     		ldrb	r3, [r4, #4]	@ zero_extendqisi2
 1313 01aa 012B     		cmp	r3, #1
 1314 01ac 3FF469AF 		beq	.L67
 596:Drivers/lvgl/lvgl/src/extra/widgets/meter/lv_meter.c ****             if(indic->type_data.needle_img.src == NULL) continue;
 1315              		.loc 1 596 0
 1316 01b0 002B     		cmp	r3, #0
 1317 01b2 F0D1     		bne	.L57
 1318              	.LBB81:
 597:Drivers/lvgl/lvgl/src/extra/widgets/meter/lv_meter.c **** 
 1319              		.loc 1 597 0
 1320 01b4 2369     		ldr	r3, [r4, #16]
 1321 01b6 002B     		cmp	r3, #0
 1322 01b8 EDD0     		beq	.L57
 599:Drivers/lvgl/lvgl/src/extra/widgets/meter/lv_meter.c ****             lv_img_header_t info;
 1323              		.loc 1 599 0
 1324 01ba E068     		ldr	r0, [r4, #12]
 1325              	.LVL174:
 1326 01bc 6969     		ldr	r1, [r5, #20]
 1327 01be AA69     		ldr	r2, [r5, #24]
 1328 01c0 B5F92030 		ldrsh	r3, [r5, #32]
 1329 01c4 ED8B     		ldrh	r5, [r5, #30]
 1330              	.LVL175:
 1331 01c6 1D44     		add	r5, r5, r3
 1332 01c8 0095     		str	r5, [sp]
 1333 01ca FFF7FEFF 		bl	lv_map
 1334              	.LVL176:
 1335 01ce 0546     		mov	r5, r0
 1336              	.LVL177:
 601:Drivers/lvgl/lvgl/src/extra/widgets/meter/lv_meter.c ****             lv_area_t a;
 1337              		.loc 1 601 0
 1338 01d0 05A9     		add	r1, sp, #20
 1339 01d2 2069     		ldr	r0, [r4, #16]
 1340              	.LVL178:
 1341 01d4 FFF7FEFF 		bl	lv_img_decoder_get_info
 1342              	.LVL179:
 603:Drivers/lvgl/lvgl/src/extra/widgets/meter/lv_meter.c ****             a.y1 = scale_center.y - indic->type_data.needle_img.pivot.y;
 1343              		.loc 1 603 0
 1344 01d8 BDF88C20 		ldrh	r2, [sp, #140]
 1345 01dc B4F914C0 		ldrsh	ip, [r4, #20]
 1346 01e0 1FFA8CF3 		uxth	r3, ip
 1347 01e4 D21A     		subs	r2, r2, r3
 1348 01e6 92B2     		uxth	r2, r2
 1349 01e8 ADF81820 		strh	r2, [sp, #24]	@ movhi
ARM GAS  /tmp/ccVvrzYL.s 			page 57


 604:Drivers/lvgl/lvgl/src/extra/widgets/meter/lv_meter.c ****             a.x2 = a.x1 + info.w - 1;
 1350              		.loc 1 604 0
 1351 01ec BDF88E30 		ldrh	r3, [sp, #142]
 1352 01f0 B4F91600 		ldrsh	r0, [r4, #22]
 1353 01f4 81B2     		uxth	r1, r0
 1354 01f6 5B1A     		subs	r3, r3, r1
 1355 01f8 9BB2     		uxth	r3, r3
 1356 01fa ADF81A30 		strh	r3, [sp, #26]	@ movhi
 605:Drivers/lvgl/lvgl/src/extra/widgets/meter/lv_meter.c ****             a.y2 = a.y1 + info.h - 1;
 1357              		.loc 1 605 0
 1358 01fe 0599     		ldr	r1, [sp, #20]
 1359 0200 C1F38A21 		ubfx	r1, r1, #10, #11
 1360 0204 0A44     		add	r2, r2, r1
 1361 0206 92B2     		uxth	r2, r2
 1362 0208 013A     		subs	r2, r2, #1
 1363 020a ADF81C20 		strh	r2, [sp, #28]	@ movhi
 606:Drivers/lvgl/lvgl/src/extra/widgets/meter/lv_meter.c **** 
 1364              		.loc 1 606 0
 1365 020e BDF81620 		ldrh	r2, [sp, #22]
 1366 0212 03EB5213 		add	r3, r3, r2, lsr #5
 1367 0216 9BB2     		uxth	r3, r3
 1368 0218 013B     		subs	r3, r3, #1
 1369 021a ADF81E30 		strh	r3, [sp, #30]	@ movhi
 608:Drivers/lvgl/lvgl/src/extra/widgets/meter/lv_meter.c ****             img_dsc.pivot.x = indic->type_data.needle_img.pivot.x;
 1370              		.loc 1 608 0
 1371 021e 6379     		ldrb	r3, [r4, #5]	@ zero_extendqisi2
 1372 0220 FD2B     		cmp	r3, #253
 1373 0222 92D8     		bhi	.L63
 608:Drivers/lvgl/lvgl/src/extra/widgets/meter/lv_meter.c ****             img_dsc.pivot.x = indic->type_data.needle_img.pivot.x;
 1374              		.loc 1 608 0 is_stmt 0 discriminator 1
 1375 0224 9DF80C20 		ldrb	r2, [sp, #12]	@ zero_extendqisi2
 1376 0228 03FB02F3 		mul	r3, r3, r2
 1377 022c 1B0A     		lsrs	r3, r3, #8
 1378 022e 8DE7     		b	.L59
 1379              	.LVL180:
 1380              	.L66:
 1381              	.LBE81:
 1382              	.LBE82:
 621:Drivers/lvgl/lvgl/src/extra/widgets/meter/lv_meter.c ****         }
 622:Drivers/lvgl/lvgl/src/extra/widgets/meter/lv_meter.c ****     }
 623:Drivers/lvgl/lvgl/src/extra/widgets/meter/lv_meter.c **** }
 1383              		.loc 1 623 0 is_stmt 1
 1384 0230 25B0     		add	sp, sp, #148
 1385              	.LCFI8:
 1386              		.cfi_def_cfa_offset 36
 1387              		@ sp needed
 1388 0232 BDE8F08F 		pop	{r4, r5, r6, r7, r8, r9, r10, fp, pc}
 1389              	.LVL181:
 1390              	.L69:
 1391 0236 00BF     		.align	2
 1392              	.L68:
 1393 0238 00000000 		.word	.LANCHOR0
 1394 023c 03000180 		.word	-2147418109
 1395              		.cfi_endproc
 1396              	.LFE219:
 1398              		.section	.text.lv_meter_event,"ax",%progbits
 1399              		.align	1
ARM GAS  /tmp/ccVvrzYL.s 			page 58


 1400              		.syntax unified
 1401              		.thumb
 1402              		.thumb_func
 1403              		.fpu fpv5-d16
 1405              	lv_meter_event:
 1406              	.LFB216:
 290:Drivers/lvgl/lvgl/src/extra/widgets/meter/lv_meter.c ****     LV_UNUSED(class_p);
 1407              		.loc 1 290 0
 1408              		.cfi_startproc
 1409              		@ args = 0, pretend = 0, frame = 72
 1410              		@ frame_needed = 0, uses_anonymous_args = 0
 1411              	.LVL182:
 1412 0000 2DE9F041 		push	{r4, r5, r6, r7, r8, lr}
 1413              	.LCFI9:
 1414              		.cfi_def_cfa_offset 24
 1415              		.cfi_offset 4, -24
 1416              		.cfi_offset 5, -20
 1417              		.cfi_offset 6, -16
 1418              		.cfi_offset 7, -12
 1419              		.cfi_offset 8, -8
 1420              		.cfi_offset 14, -4
 1421 0004 92B0     		sub	sp, sp, #72
 1422              	.LCFI10:
 1423              		.cfi_def_cfa_offset 96
 1424 0006 0C46     		mov	r4, r1
 293:Drivers/lvgl/lvgl/src/extra/widgets/meter/lv_meter.c ****     if(res != LV_RES_OK) return;
 1425              		.loc 1 293 0
 1426 0008 3948     		ldr	r0, .L80
 1427              	.LVL183:
 1428 000a FFF7FEFF 		bl	lv_obj_event_base
 1429              	.LVL184:
 294:Drivers/lvgl/lvgl/src/extra/widgets/meter/lv_meter.c **** 
 1430              		.loc 1 294 0
 1431 000e 0128     		cmp	r0, #1
 1432 0010 02D0     		beq	.L76
 1433              	.LVL185:
 1434              	.L70:
 324:Drivers/lvgl/lvgl/src/extra/widgets/meter/lv_meter.c **** 
 1435              		.loc 1 324 0
 1436 0012 12B0     		add	sp, sp, #72
 1437              	.LCFI11:
 1438              		.cfi_remember_state
 1439              		.cfi_def_cfa_offset 24
 1440              		@ sp needed
 1441 0014 BDE8F081 		pop	{r4, r5, r6, r7, r8, pc}
 1442              	.LVL186:
 1443              	.L76:
 1444              	.LCFI12:
 1445              		.cfi_restore_state
 296:Drivers/lvgl/lvgl/src/extra/widgets/meter/lv_meter.c ****     lv_obj_t * obj = lv_event_get_target(e);
 1446              		.loc 1 296 0
 1447 0018 2046     		mov	r0, r4
 1448              	.LVL187:
 1449 001a FFF7FEFF 		bl	lv_event_get_code
 1450              	.LVL188:
 1451 001e 0646     		mov	r6, r0
 1452              	.LVL189:
ARM GAS  /tmp/ccVvrzYL.s 			page 59


 297:Drivers/lvgl/lvgl/src/extra/widgets/meter/lv_meter.c ****     if(code == LV_EVENT_DRAW_MAIN) {
 1453              		.loc 1 297 0
 1454 0020 2046     		mov	r0, r4
 1455 0022 FFF7FEFF 		bl	lv_event_get_target
 1456              	.LVL190:
 1457 0026 0546     		mov	r5, r0
 1458              	.LVL191:
 298:Drivers/lvgl/lvgl/src/extra/widgets/meter/lv_meter.c ****         lv_draw_ctx_t * draw_ctx = lv_event_get_draw_ctx(e);
 1459              		.loc 1 298 0
 1460 0028 152E     		cmp	r6, #21
 1461 002a F2D1     		bne	.L70
 1462              	.LBB83:
 299:Drivers/lvgl/lvgl/src/extra/widgets/meter/lv_meter.c ****         lv_area_t scale_area;
 1463              		.loc 1 299 0 discriminator 2
 1464 002c 2046     		mov	r0, r4
 1465              	.LVL192:
 1466 002e FFF7FEFF 		bl	lv_event_get_draw_ctx
 1467              	.LVL193:
 1468 0032 0646     		mov	r6, r0
 1469              	.LVL194:
 301:Drivers/lvgl/lvgl/src/extra/widgets/meter/lv_meter.c **** 
 1470              		.loc 1 301 0 discriminator 2
 1471 0034 6946     		mov	r1, sp
 1472 0036 2846     		mov	r0, r5
 1473              	.LVL195:
 1474 0038 FFF7FEFF 		bl	lv_obj_get_content_coords
 1475              	.LVL196:
 303:Drivers/lvgl/lvgl/src/extra/widgets/meter/lv_meter.c ****         draw_ticks_and_labels(obj, draw_ctx, &scale_area);
 1476              		.loc 1 303 0 discriminator 2
 1477 003c 6A46     		mov	r2, sp
 1478 003e 3146     		mov	r1, r6
 1479 0040 2846     		mov	r0, r5
 1480 0042 FFF7FEFF 		bl	draw_arcs
 1481              	.LVL197:
 304:Drivers/lvgl/lvgl/src/extra/widgets/meter/lv_meter.c ****         draw_needles(obj, draw_ctx, &scale_area);
 1482              		.loc 1 304 0 discriminator 2
 1483 0046 6A46     		mov	r2, sp
 1484 0048 3146     		mov	r1, r6
 1485 004a 2846     		mov	r0, r5
 1486 004c FFF7FEFF 		bl	draw_ticks_and_labels
 1487              	.LVL198:
 305:Drivers/lvgl/lvgl/src/extra/widgets/meter/lv_meter.c **** 
 1488              		.loc 1 305 0 discriminator 2
 1489 0050 6A46     		mov	r2, sp
 1490 0052 3146     		mov	r1, r6
 1491 0054 2846     		mov	r0, r5
 1492 0056 FFF7FEFF 		bl	draw_needles
 1493              	.LVL199:
 1494              	.LBB84:
 1495              	.LBB85:
 125:Drivers/lvgl/lvgl/src/extra/widgets/meter/../../../../src/hal/../draw/../misc/../font/../misc/lv_area.h **** }
 1496              		.loc 3 125 0 discriminator 2
 1497 005a BDF80430 		ldrh	r3, [sp, #4]
 1498 005e BDF80070 		ldrh	r7, [sp]
 1499 0062 DB1B     		subs	r3, r3, r7
 1500 0064 9BB2     		uxth	r3, r3
 1501 0066 0133     		adds	r3, r3, #1
ARM GAS  /tmp/ccVvrzYL.s 			page 60


 1502 0068 1BB2     		sxth	r3, r3
 1503              	.LVL200:
 1504              	.LBE85:
 1505              	.LBE84:
 307:Drivers/lvgl/lvgl/src/extra/widgets/meter/lv_meter.c ****         lv_point_t scale_center;
 1506              		.loc 1 307 0 discriminator 2
 1507 006a 002B     		cmp	r3, #0
 1508 006c 3ADB     		blt	.L77
 1509              	.L72:
 1510              	.LVL201:
 309:Drivers/lvgl/lvgl/src/extra/widgets/meter/lv_meter.c ****         scale_center.y = scale_area.y1 + r_edge;
 1511              		.loc 1 309 0 discriminator 2
 1512 006e C3F34F03 		ubfx	r3, r3, #1, #16
 1513              	.LVL202:
 1514 0072 1F44     		add	r7, r7, r3
 1515 0074 BFB2     		uxth	r7, r7
 310:Drivers/lvgl/lvgl/src/extra/widgets/meter/lv_meter.c **** 
 1516              		.loc 1 310 0 discriminator 2
 1517 0076 BDF80240 		ldrh	r4, [sp, #2]
 1518              	.LVL203:
 1519 007a 2344     		add	r3, r3, r4
 1520 007c 9CB2     		uxth	r4, r3
 313:Drivers/lvgl/lvgl/src/extra/widgets/meter/lv_meter.c ****         lv_obj_init_draw_rect_dsc(obj, LV_PART_INDICATOR, &mid_dsc);
 1521              		.loc 1 313 0 discriminator 2
 1522 007e 04A8     		add	r0, sp, #16
 1523 0080 FFF7FEFF 		bl	lv_draw_rect_dsc_init
 1524              	.LVL204:
 314:Drivers/lvgl/lvgl/src/extra/widgets/meter/lv_meter.c ****         lv_coord_t w = lv_obj_get_style_width(obj, LV_PART_INDICATOR) / 2;
 1525              		.loc 1 314 0 discriminator 2
 1526 0084 04AA     		add	r2, sp, #16
 1527 0086 4FF40031 		mov	r1, #131072
 1528 008a 2846     		mov	r0, r5
 1529 008c FFF7FEFF 		bl	lv_obj_init_draw_rect_dsc
 1530              	.LVL205:
 1531              	.LBB86:
 1532              	.LBB87:
   3:Drivers/lvgl/lvgl/src/extra/widgets/meter/../../../../src/core/lv_obj_style_gen.h ****     return (lv_coord_t)v.num;
 1533              		.loc 2 3 0 discriminator 2
 1534 0090 0122     		movs	r2, #1
 1535 0092 4FF40031 		mov	r1, #131072
 1536 0096 2846     		mov	r0, r5
 1537 0098 FFF7FEFF 		bl	lv_obj_get_style_prop
 1538              	.LVL206:
   4:Drivers/lvgl/lvgl/src/extra/widgets/meter/../../../../src/core/lv_obj_style_gen.h **** }
 1539              		.loc 2 4 0 discriminator 2
 1540 009c 00B2     		sxth	r0, r0
 1541              	.LVL207:
 1542              	.LBE87:
 1543              	.LBE86:
 315:Drivers/lvgl/lvgl/src/extra/widgets/meter/lv_meter.c ****         lv_coord_t h = lv_obj_get_style_height(obj, LV_PART_INDICATOR) / 2;
 1544              		.loc 1 315 0 discriminator 2
 1545 009e 0028     		cmp	r0, #0
 1546 00a0 22DB     		blt	.L78
 1547              	.L73:
 1548 00a2 4FEA6008 		asr	r8, r0, #1
 1549              	.LVL208:
 1550              	.LBB88:
ARM GAS  /tmp/ccVvrzYL.s 			page 61


 1551              	.LBB89:
  21:Drivers/lvgl/lvgl/src/extra/widgets/meter/../../../../src/core/lv_obj_style_gen.h ****     return (lv_coord_t)v.num;
 1552              		.loc 2 21 0 discriminator 2
 1553 00a6 0422     		movs	r2, #4
 1554 00a8 4FF40031 		mov	r1, #131072
 1555 00ac 2846     		mov	r0, r5
 1556 00ae FFF7FEFF 		bl	lv_obj_get_style_prop
 1557              	.LVL209:
  22:Drivers/lvgl/lvgl/src/extra/widgets/meter/../../../../src/core/lv_obj_style_gen.h **** }
 1558              		.loc 2 22 0 discriminator 2
 1559 00b2 00B2     		sxth	r0, r0
 1560              	.LVL210:
 1561              	.LBE89:
 1562              	.LBE88:
 316:Drivers/lvgl/lvgl/src/extra/widgets/meter/lv_meter.c ****         lv_area_t nm_cord;
 1563              		.loc 1 316 0 discriminator 2
 1564 00b4 0028     		cmp	r0, #0
 1565 00b6 19DB     		blt	.L79
 1566              	.L74:
 1567              	.LVL211:
 318:Drivers/lvgl/lvgl/src/extra/widgets/meter/lv_meter.c ****         nm_cord.y1 = scale_center.y - h;
 1568              		.loc 1 318 0 discriminator 2
 1569 00b8 1FFA88F3 		uxth	r3, r8
 1570 00bc FA1A     		subs	r2, r7, r3
 1571 00be ADF80820 		strh	r2, [sp, #8]	@ movhi
 319:Drivers/lvgl/lvgl/src/extra/widgets/meter/lv_meter.c ****         nm_cord.x2 = scale_center.x + w;
 1572              		.loc 1 319 0 discriminator 2
 1573 00c2 C0F34F00 		ubfx	r0, r0, #1, #16
 1574              	.LVL212:
 1575 00c6 221A     		subs	r2, r4, r0
 1576 00c8 ADF80A20 		strh	r2, [sp, #10]	@ movhi
 320:Drivers/lvgl/lvgl/src/extra/widgets/meter/lv_meter.c ****         nm_cord.y2 = scale_center.y + h;
 1577              		.loc 1 320 0 discriminator 2
 1578 00cc 1F44     		add	r7, r7, r3
 1579 00ce ADF80C70 		strh	r7, [sp, #12]	@ movhi
 321:Drivers/lvgl/lvgl/src/extra/widgets/meter/lv_meter.c ****         lv_draw_rect(draw_ctx, &mid_dsc, &nm_cord);
 1580              		.loc 1 321 0 discriminator 2
 1581 00d2 2044     		add	r0, r0, r4
 1582 00d4 ADF80E00 		strh	r0, [sp, #14]	@ movhi
 322:Drivers/lvgl/lvgl/src/extra/widgets/meter/lv_meter.c ****     }
 1583              		.loc 1 322 0 discriminator 2
 1584 00d8 02AA     		add	r2, sp, #8
 1585 00da 04A9     		add	r1, sp, #16
 1586 00dc 3046     		mov	r0, r6
 1587 00de FFF7FEFF 		bl	lv_draw_rect
 1588              	.LVL213:
 1589 00e2 96E7     		b	.L70
 1590              	.LVL214:
 1591              	.L77:
 307:Drivers/lvgl/lvgl/src/extra/widgets/meter/lv_meter.c ****         lv_point_t scale_center;
 1592              		.loc 1 307 0 discriminator 2
 1593 00e4 0133     		adds	r3, r3, #1
 1594 00e6 C2E7     		b	.L72
 1595              	.LVL215:
 1596              	.L78:
 315:Drivers/lvgl/lvgl/src/extra/widgets/meter/lv_meter.c ****         lv_coord_t h = lv_obj_get_style_height(obj, LV_PART_INDICATOR) / 2;
 1597              		.loc 1 315 0 discriminator 2
ARM GAS  /tmp/ccVvrzYL.s 			page 62


 1598 00e8 0130     		adds	r0, r0, #1
 1599 00ea DAE7     		b	.L73
 1600              	.LVL216:
 1601              	.L79:
 316:Drivers/lvgl/lvgl/src/extra/widgets/meter/lv_meter.c ****         lv_area_t nm_cord;
 1602              		.loc 1 316 0 discriminator 2
 1603 00ec 0130     		adds	r0, r0, #1
 1604 00ee E3E7     		b	.L74
 1605              	.L81:
 1606              		.align	2
 1607              	.L80:
 1608 00f0 00000000 		.word	.LANCHOR0
 1609              	.LBE83:
 1610              		.cfi_endproc
 1611              	.LFE216:
 1613              		.section	.text.lv_meter_destructor,"ax",%progbits
 1614              		.align	1
 1615              		.syntax unified
 1616              		.thumb
 1617              		.thumb_func
 1618              		.fpu fpv5-d16
 1620              	lv_meter_destructor:
 1621              	.LFB215:
 280:Drivers/lvgl/lvgl/src/extra/widgets/meter/lv_meter.c ****     LV_UNUSED(class_p);
 1622              		.loc 1 280 0
 1623              		.cfi_startproc
 1624              		@ args = 0, pretend = 0, frame = 0
 1625              		@ frame_needed = 0, uses_anonymous_args = 0
 1626              	.LVL217:
 1627 0000 10B5     		push	{r4, lr}
 1628              	.LCFI13:
 1629              		.cfi_def_cfa_offset 8
 1630              		.cfi_offset 4, -8
 1631              		.cfi_offset 14, -4
 1632 0002 0C46     		mov	r4, r1
 1633              	.LVL218:
 284:Drivers/lvgl/lvgl/src/extra/widgets/meter/lv_meter.c ****     _lv_ll_clear(&meter->scale_ll);
 1634              		.loc 1 284 0
 1635 0004 01F13000 		add	r0, r1, #48
 1636              	.LVL219:
 1637 0008 FFF7FEFF 		bl	_lv_ll_clear
 1638              	.LVL220:
 285:Drivers/lvgl/lvgl/src/extra/widgets/meter/lv_meter.c **** 
 1639              		.loc 1 285 0
 1640 000c 04F12400 		add	r0, r4, #36
 1641 0010 FFF7FEFF 		bl	_lv_ll_clear
 1642              	.LVL221:
 287:Drivers/lvgl/lvgl/src/extra/widgets/meter/lv_meter.c **** 
 1643              		.loc 1 287 0
 1644 0014 10BD     		pop	{r4, pc}
 1645              		.cfi_endproc
 1646              	.LFE215:
 1648              		.section	.text.lv_meter_constructor,"ax",%progbits
 1649              		.align	1
 1650              		.syntax unified
 1651              		.thumb
 1652              		.thumb_func
ARM GAS  /tmp/ccVvrzYL.s 			page 63


 1653              		.fpu fpv5-d16
 1655              	lv_meter_constructor:
 1656              	.LFB214:
 267:Drivers/lvgl/lvgl/src/extra/widgets/meter/lv_meter.c ****     LV_UNUSED(class_p);
 1657              		.loc 1 267 0
 1658              		.cfi_startproc
 1659              		@ args = 0, pretend = 0, frame = 0
 1660              		@ frame_needed = 0, uses_anonymous_args = 0
 1661              	.LVL222:
 1662 0000 10B5     		push	{r4, lr}
 1663              	.LCFI14:
 1664              		.cfi_def_cfa_offset 8
 1665              		.cfi_offset 4, -8
 1666              		.cfi_offset 14, -4
 1667 0002 0C46     		mov	r4, r1
 1668              	.LVL223:
 273:Drivers/lvgl/lvgl/src/extra/widgets/meter/lv_meter.c ****     _lv_ll_init(&meter->indicator_ll, sizeof(lv_meter_indicator_t));
 1669              		.loc 1 273 0
 1670 0004 2421     		movs	r1, #36
 1671              	.LVL224:
 1672 0006 6018     		adds	r0, r4, r1
 1673              	.LVL225:
 1674 0008 FFF7FEFF 		bl	_lv_ll_init
 1675              	.LVL226:
 274:Drivers/lvgl/lvgl/src/extra/widgets/meter/lv_meter.c **** 
 1676              		.loc 1 274 0
 1677 000c 1C21     		movs	r1, #28
 1678 000e 04F13000 		add	r0, r4, #48
 1679 0012 FFF7FEFF 		bl	_lv_ll_init
 1680              	.LVL227:
 277:Drivers/lvgl/lvgl/src/extra/widgets/meter/lv_meter.c **** 
 1681              		.loc 1 277 0
 1682 0016 10BD     		pop	{r4, pc}
 1683              		.cfi_endproc
 1684              	.LFE214:
 1686              		.section	.text.inv_arc,"ax",%progbits
 1687              		.align	1
 1688              		.syntax unified
 1689              		.thumb
 1690              		.thumb_func
 1691              		.fpu fpv5-d16
 1693              	inv_arc:
 1694              	.LFB220:
 624:Drivers/lvgl/lvgl/src/extra/widgets/meter/lv_meter.c **** 
 625:Drivers/lvgl/lvgl/src/extra/widgets/meter/lv_meter.c **** static void inv_arc(lv_obj_t * obj, lv_meter_indicator_t * indic, int32_t old_value, int32_t new_va
 626:Drivers/lvgl/lvgl/src/extra/widgets/meter/lv_meter.c **** {
 1695              		.loc 1 626 0
 1696              		.cfi_startproc
 1697              		@ args = 0, pretend = 0, frame = 24
 1698              		@ frame_needed = 0, uses_anonymous_args = 0
 1699              	.LVL228:
 1700 0000 2DE9F04F 		push	{r4, r5, r6, r7, r8, r9, r10, fp, lr}
 1701              	.LCFI15:
 1702              		.cfi_def_cfa_offset 36
 1703              		.cfi_offset 4, -36
 1704              		.cfi_offset 5, -32
 1705              		.cfi_offset 6, -28
ARM GAS  /tmp/ccVvrzYL.s 			page 64


 1706              		.cfi_offset 7, -24
 1707              		.cfi_offset 8, -20
 1708              		.cfi_offset 9, -16
 1709              		.cfi_offset 10, -12
 1710              		.cfi_offset 11, -8
 1711              		.cfi_offset 14, -4
 1712 0004 8BB0     		sub	sp, sp, #44
 1713              	.LCFI16:
 1714              		.cfi_def_cfa_offset 80
 1715 0006 8246     		mov	r10, r0
 1716 0008 8946     		mov	r9, r1
 1717 000a 1746     		mov	r7, r2
 1718 000c 0593     		str	r3, [sp, #20]
 1719              	.LVL229:
 1720              	.LBB90:
 1721              	.LBB91:
 417:Drivers/lvgl/lvgl/src/extra/widgets/meter/../../../../src/core/lv_obj_style_gen.h ****     return (bool)v.num;
 1722              		.loc 2 417 0
 1723 000e 5122     		movs	r2, #81
 1724              	.LVL230:
 1725 0010 4FF4A021 		mov	r1, #327680
 1726              	.LVL231:
 1727 0014 FFF7FEFF 		bl	lv_obj_get_style_prop
 1728              	.LVL232:
 418:Drivers/lvgl/lvgl/src/extra/widgets/meter/../../../../src/core/lv_obj_style_gen.h **** }
 1729              		.loc 2 418 0
 1730 0018 10F1000B 		adds	fp, r0, #0
 1731 001c 18BF     		it	ne
 1732 001e 4FF0010B 		movne	fp, #1
 1733              	.LVL233:
 1734              	.LBE91:
 1735              	.LBE90:
 627:Drivers/lvgl/lvgl/src/extra/widgets/meter/lv_meter.c ****     bool rounded = lv_obj_get_style_arc_rounded(obj, LV_PART_ITEMS);
 628:Drivers/lvgl/lvgl/src/extra/widgets/meter/lv_meter.c **** 
 629:Drivers/lvgl/lvgl/src/extra/widgets/meter/lv_meter.c ****     lv_area_t scale_area;
 630:Drivers/lvgl/lvgl/src/extra/widgets/meter/lv_meter.c ****     lv_obj_get_content_coords(obj, &scale_area);
 1736              		.loc 1 630 0
 1737 0022 08A9     		add	r1, sp, #32
 1738 0024 5046     		mov	r0, r10
 1739 0026 FFF7FEFF 		bl	lv_obj_get_content_coords
 1740              	.LVL234:
 1741              	.LBB92:
 1742              	.LBB93:
 125:Drivers/lvgl/lvgl/src/extra/widgets/meter/../../../../src/hal/../draw/../misc/../font/../misc/lv_area.h **** }
 1743              		.loc 3 125 0
 1744 002a BDF82440 		ldrh	r4, [sp, #36]
 1745 002e BDF82060 		ldrh	r6, [sp, #32]
 1746 0032 A41B     		subs	r4, r4, r6
 1747 0034 A4B2     		uxth	r4, r4
 1748 0036 0134     		adds	r4, r4, #1
 1749 0038 24B2     		sxth	r4, r4
 1750              	.LVL235:
 1751              	.LBE93:
 1752              	.LBE92:
 631:Drivers/lvgl/lvgl/src/extra/widgets/meter/lv_meter.c **** 
 632:Drivers/lvgl/lvgl/src/extra/widgets/meter/lv_meter.c ****     lv_coord_t r_out = lv_area_get_width(&scale_area) / 2;
 1753              		.loc 1 632 0
ARM GAS  /tmp/ccVvrzYL.s 			page 65


 1754 003a 002C     		cmp	r4, #0
 1755 003c 41DB     		blt	.L89
 1756              	.L87:
 1757              	.LVL236:
 633:Drivers/lvgl/lvgl/src/extra/widgets/meter/lv_meter.c ****     lv_point_t scale_center;
 634:Drivers/lvgl/lvgl/src/extra/widgets/meter/lv_meter.c ****     scale_center.x = scale_area.x1 + r_out;
 1758              		.loc 1 634 0
 1759 003e C4F34F04 		ubfx	r4, r4, #1, #16
 1760              	.LVL237:
 1761 0042 2644     		add	r6, r6, r4
 1762 0044 36B2     		sxth	r6, r6
 635:Drivers/lvgl/lvgl/src/extra/widgets/meter/lv_meter.c ****     scale_center.y = scale_area.y1 + r_out;
 1763              		.loc 1 635 0
 1764 0046 BDF82280 		ldrh	r8, [sp, #34]
 1765 004a A044     		add	r8, r8, r4
 1766 004c 0FFA88F8 		sxth	r8, r8
 636:Drivers/lvgl/lvgl/src/extra/widgets/meter/lv_meter.c **** 
 637:Drivers/lvgl/lvgl/src/extra/widgets/meter/lv_meter.c ****     r_out += indic->type_data.arc.r_mod;
 1767              		.loc 1 637 0
 1768 0050 B9F81A30 		ldrh	r3, [r9, #26]
 1769 0054 1C44     		add	r4, r4, r3
 1770 0056 A4B2     		uxth	r4, r4
 1771              	.LVL238:
 638:Drivers/lvgl/lvgl/src/extra/widgets/meter/lv_meter.c **** 
 639:Drivers/lvgl/lvgl/src/extra/widgets/meter/lv_meter.c ****     lv_meter_scale_t * scale = indic->scale;
 1772              		.loc 1 639 0
 1773 0058 D9F80050 		ldr	r5, [r9]
 1774              	.LVL239:
 640:Drivers/lvgl/lvgl/src/extra/widgets/meter/lv_meter.c **** 
 641:Drivers/lvgl/lvgl/src/extra/widgets/meter/lv_meter.c ****     int32_t start_angle = lv_map(old_value, scale->min, scale->max, scale->rotation, scale->angle_r
 1775              		.loc 1 641 0
 1776 005c 6969     		ldr	r1, [r5, #20]
 1777 005e AA69     		ldr	r2, [r5, #24]
 1778 0060 B5F92030 		ldrsh	r3, [r5, #32]
 1779 0064 E88B     		ldrh	r0, [r5, #30]
 1780 0066 1844     		add	r0, r0, r3
 1781 0068 0090     		str	r0, [sp]
 1782 006a 3846     		mov	r0, r7
 1783 006c FFF7FEFF 		bl	lv_map
 1784              	.LVL240:
 1785 0070 0746     		mov	r7, r0
 1786              	.LVL241:
 642:Drivers/lvgl/lvgl/src/extra/widgets/meter/lv_meter.c ****     int32_t end_angle = lv_map(new_value, scale->min, scale->max, scale->rotation, scale->angle_ran
 1787              		.loc 1 642 0
 1788 0072 6969     		ldr	r1, [r5, #20]
 1789 0074 AA69     		ldr	r2, [r5, #24]
 1790 0076 B5F92030 		ldrsh	r3, [r5, #32]
 1791 007a E88B     		ldrh	r0, [r5, #30]
 1792              	.LVL242:
 1793 007c 1844     		add	r0, r0, r3
 1794 007e 0090     		str	r0, [sp]
 1795 0080 0598     		ldr	r0, [sp, #20]
 1796 0082 FFF7FEFF 		bl	lv_map
 1797              	.LVL243:
 643:Drivers/lvgl/lvgl/src/extra/widgets/meter/lv_meter.c **** 
 644:Drivers/lvgl/lvgl/src/extra/widgets/meter/lv_meter.c ****     lv_area_t a;
 645:Drivers/lvgl/lvgl/src/extra/widgets/meter/lv_meter.c ****     lv_draw_arc_get_area(scale_center.x, scale_center.y, r_out, LV_MIN(start_angle, end_angle), LV_
ARM GAS  /tmp/ccVvrzYL.s 			page 66


 1798              		.loc 1 645 0
 1799 0086 3B46     		mov	r3, r7
 1800 0088 8742     		cmp	r7, r0
 1801 008a A8BF     		it	ge
 1802 008c 0346     		movge	r3, r0
 1803 008e 8742     		cmp	r7, r0
 1804 0090 B8BF     		it	lt
 1805 0092 0746     		movlt	r7, r0
 1806              	.LVL244:
 646:Drivers/lvgl/lvgl/src/extra/widgets/meter/lv_meter.c ****                                                                                                    
 1807              		.loc 1 646 0
 1808 0094 B9F81020 		ldrh	r2, [r9, #16]
 645:Drivers/lvgl/lvgl/src/extra/widgets/meter/lv_meter.c ****                                                                                                    
 1809              		.loc 1 645 0
 1810 0098 06AD     		add	r5, sp, #24
 1811              	.LVL245:
 1812 009a 0395     		str	r5, [sp, #12]
 1813 009c CDF808B0 		str	fp, [sp, #8]
 1814 00a0 12B2     		sxth	r2, r2
 1815 00a2 0192     		str	r2, [sp, #4]
 1816 00a4 BFB2     		uxth	r7, r7
 1817 00a6 0097     		str	r7, [sp]
 1818 00a8 9BB2     		uxth	r3, r3
 1819 00aa 2246     		mov	r2, r4
 1820 00ac 4146     		mov	r1, r8
 1821 00ae 3046     		mov	r0, r6
 1822              	.LVL246:
 1823 00b0 FFF7FEFF 		bl	lv_draw_arc_get_area
 1824              	.LVL247:
 647:Drivers/lvgl/lvgl/src/extra/widgets/meter/lv_meter.c ****     lv_obj_invalidate_area(obj, &a);
 1825              		.loc 1 647 0
 1826 00b4 2946     		mov	r1, r5
 1827 00b6 5046     		mov	r0, r10
 1828 00b8 FFF7FEFF 		bl	lv_obj_invalidate_area
 1829              	.LVL248:
 648:Drivers/lvgl/lvgl/src/extra/widgets/meter/lv_meter.c **** }
 1830              		.loc 1 648 0
 1831 00bc 0BB0     		add	sp, sp, #44
 1832              	.LCFI17:
 1833              		.cfi_remember_state
 1834              		.cfi_def_cfa_offset 36
 1835              		@ sp needed
 1836 00be BDE8F08F 		pop	{r4, r5, r6, r7, r8, r9, r10, fp, pc}
 1837              	.LVL249:
 1838              	.L89:
 1839              	.LCFI18:
 1840              		.cfi_restore_state
 632:Drivers/lvgl/lvgl/src/extra/widgets/meter/lv_meter.c ****     lv_point_t scale_center;
 1841              		.loc 1 632 0
 1842 00c2 0134     		adds	r4, r4, #1
 1843 00c4 BBE7     		b	.L87
 1844              		.cfi_endproc
 1845              	.LFE220:
 1847              		.section	.text.inv_line,"ax",%progbits
 1848              		.align	1
 1849              		.syntax unified
 1850              		.thumb
ARM GAS  /tmp/ccVvrzYL.s 			page 67


 1851              		.thumb_func
 1852              		.fpu fpv5-d16
 1854              	inv_line:
 1855              	.LFB221:
 649:Drivers/lvgl/lvgl/src/extra/widgets/meter/lv_meter.c **** 
 650:Drivers/lvgl/lvgl/src/extra/widgets/meter/lv_meter.c **** 
 651:Drivers/lvgl/lvgl/src/extra/widgets/meter/lv_meter.c **** static void inv_line(lv_obj_t * obj, lv_meter_indicator_t * indic, int32_t value)
 652:Drivers/lvgl/lvgl/src/extra/widgets/meter/lv_meter.c **** {
 1856              		.loc 1 652 0
 1857              		.cfi_startproc
 1858              		@ args = 0, pretend = 0, frame = 32
 1859              		@ frame_needed = 0, uses_anonymous_args = 0
 1860              	.LVL250:
 1861 0000 2DE9F04F 		push	{r4, r5, r6, r7, r8, r9, r10, fp, lr}
 1862              	.LCFI19:
 1863              		.cfi_def_cfa_offset 36
 1864              		.cfi_offset 4, -36
 1865              		.cfi_offset 5, -32
 1866              		.cfi_offset 6, -28
 1867              		.cfi_offset 7, -24
 1868              		.cfi_offset 8, -20
 1869              		.cfi_offset 9, -16
 1870              		.cfi_offset 10, -12
 1871              		.cfi_offset 11, -8
 1872              		.cfi_offset 14, -4
 1873 0004 8BB0     		sub	sp, sp, #44
 1874              	.LCFI20:
 1875              		.cfi_def_cfa_offset 80
 1876 0006 0390     		str	r0, [sp, #12]
 1877 0008 0F46     		mov	r7, r1
 1878 000a 9346     		mov	fp, r2
 653:Drivers/lvgl/lvgl/src/extra/widgets/meter/lv_meter.c ****     lv_area_t scale_area;
 654:Drivers/lvgl/lvgl/src/extra/widgets/meter/lv_meter.c ****     lv_obj_get_content_coords(obj, &scale_area);
 1879              		.loc 1 654 0
 1880 000c 08A9     		add	r1, sp, #32
 1881              	.LVL251:
 1882 000e FFF7FEFF 		bl	lv_obj_get_content_coords
 1883              	.LVL252:
 1884              	.LBB94:
 1885              	.LBB95:
 125:Drivers/lvgl/lvgl/src/extra/widgets/meter/../../../../src/hal/../draw/../misc/../font/../misc/lv_area.h **** }
 1886              		.loc 3 125 0
 1887 0012 BDF82440 		ldrh	r4, [sp, #36]
 1888 0016 BDF82050 		ldrh	r5, [sp, #32]
 1889 001a 641B     		subs	r4, r4, r5
 1890 001c A4B2     		uxth	r4, r4
 1891 001e 0134     		adds	r4, r4, #1
 1892 0020 24B2     		sxth	r4, r4
 1893              	.LVL253:
 1894              	.LBE95:
 1895              	.LBE94:
 655:Drivers/lvgl/lvgl/src/extra/widgets/meter/lv_meter.c **** 
 656:Drivers/lvgl/lvgl/src/extra/widgets/meter/lv_meter.c ****     lv_coord_t r_out = lv_area_get_width(&scale_area) / 2;
 1896              		.loc 1 656 0
 1897 0022 002C     		cmp	r4, #0
 1898 0024 15DB     		blt	.L96
 1899              	.L91:
ARM GAS  /tmp/ccVvrzYL.s 			page 68


 1900              	.LVL254:
 657:Drivers/lvgl/lvgl/src/extra/widgets/meter/lv_meter.c ****     lv_point_t scale_center;
 658:Drivers/lvgl/lvgl/src/extra/widgets/meter/lv_meter.c ****     scale_center.x = scale_area.x1 + r_out;
 1901              		.loc 1 658 0
 1902 0026 C4F34F04 		ubfx	r4, r4, #1, #16
 1903              	.LVL255:
 1904 002a 2544     		add	r5, r5, r4
 1905 002c ADB2     		uxth	r5, r5
 1906 002e 0FFA85FA 		sxth	r10, r5
 659:Drivers/lvgl/lvgl/src/extra/widgets/meter/lv_meter.c ****     scale_center.y = scale_area.y1 + r_out;
 1907              		.loc 1 659 0
 1908 0032 BDF82260 		ldrh	r6, [sp, #34]
 1909 0036 2644     		add	r6, r6, r4
 1910 0038 B6B2     		uxth	r6, r6
 1911 003a 0FFA86F9 		sxth	r9, r6
 660:Drivers/lvgl/lvgl/src/extra/widgets/meter/lv_meter.c **** 
 661:Drivers/lvgl/lvgl/src/extra/widgets/meter/lv_meter.c ****     lv_meter_scale_t * scale = indic->scale;
 1912              		.loc 1 661 0
 1913 003e D7F80080 		ldr	r8, [r7]
 1914              	.LVL256:
 662:Drivers/lvgl/lvgl/src/extra/widgets/meter/lv_meter.c **** 
 663:Drivers/lvgl/lvgl/src/extra/widgets/meter/lv_meter.c ****     if(indic->type == LV_METER_INDICATOR_TYPE_NEEDLE_LINE) {
 1915              		.loc 1 663 0
 1916 0042 3B79     		ldrb	r3, [r7, #4]	@ zero_extendqisi2
 1917 0044 012B     		cmp	r3, #1
 1918 0046 06D0     		beq	.L97
 664:Drivers/lvgl/lvgl/src/extra/widgets/meter/lv_meter.c ****         int32_t angle = lv_map(value, scale->min, scale->max, scale->rotation, scale->rotation + sc
 665:Drivers/lvgl/lvgl/src/extra/widgets/meter/lv_meter.c ****         r_out += scale->r_mod + indic->type_data.needle_line.r_mod;
 666:Drivers/lvgl/lvgl/src/extra/widgets/meter/lv_meter.c ****         lv_point_t p_end;
 667:Drivers/lvgl/lvgl/src/extra/widgets/meter/lv_meter.c ****         p_end.y = (lv_trigo_sin(angle) * (r_out)) / LV_TRIGO_SIN_MAX + scale_center.y;
 668:Drivers/lvgl/lvgl/src/extra/widgets/meter/lv_meter.c ****         p_end.x = (lv_trigo_cos(angle) * (r_out)) / LV_TRIGO_SIN_MAX + scale_center.x;
 669:Drivers/lvgl/lvgl/src/extra/widgets/meter/lv_meter.c **** 
 670:Drivers/lvgl/lvgl/src/extra/widgets/meter/lv_meter.c ****         lv_area_t a;
 671:Drivers/lvgl/lvgl/src/extra/widgets/meter/lv_meter.c ****         a.x1 = LV_MIN(scale_center.x, p_end.x) - indic->type_data.needle_line.width - 2;
 672:Drivers/lvgl/lvgl/src/extra/widgets/meter/lv_meter.c ****         a.y1 = LV_MIN(scale_center.y, p_end.y) - indic->type_data.needle_line.width - 2;
 673:Drivers/lvgl/lvgl/src/extra/widgets/meter/lv_meter.c ****         a.x2 = LV_MAX(scale_center.x, p_end.x) + indic->type_data.needle_line.width + 2;
 674:Drivers/lvgl/lvgl/src/extra/widgets/meter/lv_meter.c ****         a.y2 = LV_MAX(scale_center.y, p_end.y) + indic->type_data.needle_line.width + 2;
 675:Drivers/lvgl/lvgl/src/extra/widgets/meter/lv_meter.c **** 
 676:Drivers/lvgl/lvgl/src/extra/widgets/meter/lv_meter.c ****         lv_obj_invalidate_area(obj, &a);
 677:Drivers/lvgl/lvgl/src/extra/widgets/meter/lv_meter.c ****     }
 678:Drivers/lvgl/lvgl/src/extra/widgets/meter/lv_meter.c ****     else if(indic->type == LV_METER_INDICATOR_TYPE_NEEDLE_IMG) {
 1919              		.loc 1 678 0
 1920 0048 002B     		cmp	r3, #0
 1921 004a 64D0     		beq	.L98
 1922              	.LVL257:
 1923              	.L90:
 679:Drivers/lvgl/lvgl/src/extra/widgets/meter/lv_meter.c ****         int32_t angle = lv_map(value, scale->min, scale->max, scale->rotation, scale->rotation + sc
 680:Drivers/lvgl/lvgl/src/extra/widgets/meter/lv_meter.c ****         lv_img_header_t info;
 681:Drivers/lvgl/lvgl/src/extra/widgets/meter/lv_meter.c ****         lv_img_decoder_get_info(indic->type_data.needle_img.src, &info);
 682:Drivers/lvgl/lvgl/src/extra/widgets/meter/lv_meter.c **** 
 683:Drivers/lvgl/lvgl/src/extra/widgets/meter/lv_meter.c ****         angle = angle * 10;
 684:Drivers/lvgl/lvgl/src/extra/widgets/meter/lv_meter.c ****         if(angle > 3600) angle -= 3600;
 685:Drivers/lvgl/lvgl/src/extra/widgets/meter/lv_meter.c **** 
 686:Drivers/lvgl/lvgl/src/extra/widgets/meter/lv_meter.c ****         scale_center.x -= indic->type_data.needle_img.pivot.x;
 687:Drivers/lvgl/lvgl/src/extra/widgets/meter/lv_meter.c ****         scale_center.y -= indic->type_data.needle_img.pivot.y;
 688:Drivers/lvgl/lvgl/src/extra/widgets/meter/lv_meter.c ****         lv_area_t a;
 689:Drivers/lvgl/lvgl/src/extra/widgets/meter/lv_meter.c ****         _lv_img_buf_get_transformed_area(&a, info.w, info.h, angle, LV_IMG_ZOOM_NONE, &indic->type_
ARM GAS  /tmp/ccVvrzYL.s 			page 69


 690:Drivers/lvgl/lvgl/src/extra/widgets/meter/lv_meter.c ****         a.x1 += scale_center.x - 2;
 691:Drivers/lvgl/lvgl/src/extra/widgets/meter/lv_meter.c ****         a.y1 += scale_center.y - 2;
 692:Drivers/lvgl/lvgl/src/extra/widgets/meter/lv_meter.c ****         a.x2 += scale_center.x + 2;
 693:Drivers/lvgl/lvgl/src/extra/widgets/meter/lv_meter.c ****         a.y2 += scale_center.y + 2;
 694:Drivers/lvgl/lvgl/src/extra/widgets/meter/lv_meter.c **** 
 695:Drivers/lvgl/lvgl/src/extra/widgets/meter/lv_meter.c ****         lv_obj_invalidate_area(obj, &a);
 696:Drivers/lvgl/lvgl/src/extra/widgets/meter/lv_meter.c ****     }
 697:Drivers/lvgl/lvgl/src/extra/widgets/meter/lv_meter.c **** }
 1924              		.loc 1 697 0
 1925 004c 0BB0     		add	sp, sp, #44
 1926              	.LCFI21:
 1927              		.cfi_remember_state
 1928              		.cfi_def_cfa_offset 36
 1929              		@ sp needed
 1930 004e BDE8F08F 		pop	{r4, r5, r6, r7, r8, r9, r10, fp, pc}
 1931              	.LVL258:
 1932              	.L96:
 1933              	.LCFI22:
 1934              		.cfi_restore_state
 656:Drivers/lvgl/lvgl/src/extra/widgets/meter/lv_meter.c ****     lv_point_t scale_center;
 1935              		.loc 1 656 0
 1936 0052 0134     		adds	r4, r4, #1
 1937 0054 E7E7     		b	.L91
 1938              	.LVL259:
 1939              	.L97:
 1940              	.LBB96:
 664:Drivers/lvgl/lvgl/src/extra/widgets/meter/lv_meter.c ****         int32_t angle = lv_map(value, scale->min, scale->max, scale->rotation, scale->rotation + sc
 1941              		.loc 1 664 0
 1942 0056 D8F81410 		ldr	r1, [r8, #20]
 1943 005a D8F81820 		ldr	r2, [r8, #24]
 1944 005e B8F92030 		ldrsh	r3, [r8, #32]
 1945 0062 B8F81E00 		ldrh	r0, [r8, #30]
 1946 0066 1844     		add	r0, r0, r3
 1947 0068 0090     		str	r0, [sp]
 1948 006a 5846     		mov	r0, fp
 1949 006c FFF7FEFF 		bl	lv_map
 1950              	.LVL260:
 1951 0070 8346     		mov	fp, r0
 1952              	.LVL261:
 665:Drivers/lvgl/lvgl/src/extra/widgets/meter/lv_meter.c ****         lv_point_t p_end;
 1953              		.loc 1 665 0
 1954 0072 B8F81C00 		ldrh	r0, [r8, #28]
 1955              	.LVL262:
 1956 0076 7B8A     		ldrh	r3, [r7, #18]
 1957 0078 1844     		add	r0, r0, r3
 1958 007a 14FA80F4 		uxtah	r4, r4, r0
 1959 007e 24B2     		sxth	r4, r4
 1960              	.LVL263:
 667:Drivers/lvgl/lvgl/src/extra/widgets/meter/lv_meter.c ****         p_end.x = (lv_trigo_cos(angle) * (r_out)) / LV_TRIGO_SIN_MAX + scale_center.x;
 1961              		.loc 1 667 0
 1962 0080 0FFA8BF0 		sxth	r0, fp
 1963 0084 FFF7FEFF 		bl	lv_trigo_sin
 1964              	.LVL264:
 1965 0088 04FB00F0 		mul	r0, r4, r0
 1966 008c DFF82081 		ldr	r8, .L99
 1967              	.LVL265:
 1968 0090 88FB0023 		smull	r2, r3, r8, r0
ARM GAS  /tmp/ccVvrzYL.s 			page 70


 1969 0094 0344     		add	r3, r3, r0
 1970 0096 C017     		asrs	r0, r0, #31
 1971 0098 C0EBA330 		rsb	r0, r0, r3, asr #14
 1972 009c 0644     		add	r6, r6, r0
 1973 009e 36B2     		sxth	r6, r6
 1974              	.LVL266:
 1975              	.LBB97:
 1976              	.LBB98:
 1977              		.loc 5 51 0
 1978 00a0 0BF15A00 		add	r0, fp, #90
 1979 00a4 00B2     		sxth	r0, r0
 1980 00a6 FFF7FEFF 		bl	lv_trigo_sin
 1981              	.LVL267:
 1982              	.LBE98:
 1983              	.LBE97:
 668:Drivers/lvgl/lvgl/src/extra/widgets/meter/lv_meter.c **** 
 1984              		.loc 1 668 0
 1985 00aa 00FB04F4 		mul	r4, r0, r4
 1986              	.LVL268:
 1987 00ae 88FB0432 		smull	r3, r2, r8, r4
 1988 00b2 2244     		add	r2, r2, r4
 1989 00b4 E417     		asrs	r4, r4, #31
 1990 00b6 C4EBA232 		rsb	r2, r4, r2, asr #14
 1991 00ba 2A44     		add	r2, r2, r5
 1992 00bc 12B2     		sxth	r2, r2
 671:Drivers/lvgl/lvgl/src/extra/widgets/meter/lv_meter.c ****         a.y1 = LV_MIN(scale_center.y, p_end.y) - indic->type_data.needle_line.width - 2;
 1993              		.loc 1 671 0
 1994 00be 5146     		mov	r1, r10
 1995 00c0 9245     		cmp	r10, r2
 1996 00c2 A8BF     		it	ge
 1997 00c4 1146     		movge	r1, r2
 1998 00c6 89B2     		uxth	r1, r1
 1999 00c8 3B8A     		ldrh	r3, [r7, #16]
 2000 00ca C91A     		subs	r1, r1, r3
 2001 00cc 89B2     		uxth	r1, r1
 2002 00ce 0239     		subs	r1, r1, #2
 2003 00d0 ADF81810 		strh	r1, [sp, #24]	@ movhi
 672:Drivers/lvgl/lvgl/src/extra/widgets/meter/lv_meter.c ****         a.x2 = LV_MAX(scale_center.x, p_end.x) + indic->type_data.needle_line.width + 2;
 2004              		.loc 1 672 0
 2005 00d4 4946     		mov	r1, r9
 2006 00d6 B145     		cmp	r9, r6
 2007 00d8 A8BF     		it	ge
 2008 00da 3146     		movge	r1, r6
 2009 00dc 89B2     		uxth	r1, r1
 2010 00de C91A     		subs	r1, r1, r3
 2011 00e0 89B2     		uxth	r1, r1
 2012 00e2 0239     		subs	r1, r1, #2
 2013 00e4 ADF81A10 		strh	r1, [sp, #26]	@ movhi
 673:Drivers/lvgl/lvgl/src/extra/widgets/meter/lv_meter.c ****         a.y2 = LV_MAX(scale_center.y, p_end.y) + indic->type_data.needle_line.width + 2;
 2014              		.loc 1 673 0
 2015 00e8 9245     		cmp	r10, r2
 2016 00ea B8BF     		it	lt
 2017 00ec 9246     		movlt	r10, r2
 2018 00ee 13FA8AF2 		uxtah	r2, r3, r10
 2019 00f2 92B2     		uxth	r2, r2
 2020 00f4 0232     		adds	r2, r2, #2
 2021 00f6 ADF81C20 		strh	r2, [sp, #28]	@ movhi
ARM GAS  /tmp/ccVvrzYL.s 			page 71


 674:Drivers/lvgl/lvgl/src/extra/widgets/meter/lv_meter.c **** 
 2022              		.loc 1 674 0
 2023 00fa 4E45     		cmp	r6, r9
 2024 00fc B8BF     		it	lt
 2025 00fe 4E46     		movlt	r6, r9
 2026 0100 13FA86F3 		uxtah	r3, r3, r6
 2027 0104 9BB2     		uxth	r3, r3
 2028 0106 0233     		adds	r3, r3, #2
 2029 0108 ADF81E30 		strh	r3, [sp, #30]	@ movhi
 676:Drivers/lvgl/lvgl/src/extra/widgets/meter/lv_meter.c ****     }
 2030              		.loc 1 676 0
 2031 010c 06A9     		add	r1, sp, #24
 2032 010e 0398     		ldr	r0, [sp, #12]
 2033 0110 FFF7FEFF 		bl	lv_obj_invalidate_area
 2034              	.LVL269:
 2035              	.LBE96:
 2036 0114 9AE7     		b	.L90
 2037              	.LVL270:
 2038              	.L98:
 2039              	.LBB99:
 679:Drivers/lvgl/lvgl/src/extra/widgets/meter/lv_meter.c ****         lv_img_header_t info;
 2040              		.loc 1 679 0
 2041 0116 D8F81410 		ldr	r1, [r8, #20]
 2042 011a D8F81820 		ldr	r2, [r8, #24]
 2043 011e B8F92030 		ldrsh	r3, [r8, #32]
 2044 0122 B8F81E00 		ldrh	r0, [r8, #30]
 2045 0126 1844     		add	r0, r0, r3
 2046 0128 0090     		str	r0, [sp]
 2047 012a 5846     		mov	r0, fp
 2048 012c FFF7FEFF 		bl	lv_map
 2049              	.LVL271:
 2050 0130 0446     		mov	r4, r0
 2051              	.LVL272:
 681:Drivers/lvgl/lvgl/src/extra/widgets/meter/lv_meter.c **** 
 2052              		.loc 1 681 0
 2053 0132 05A9     		add	r1, sp, #20
 2054 0134 3869     		ldr	r0, [r7, #16]
 2055              	.LVL273:
 2056 0136 FFF7FEFF 		bl	lv_img_decoder_get_info
 2057              	.LVL274:
 683:Drivers/lvgl/lvgl/src/extra/widgets/meter/lv_meter.c ****         if(angle > 3600) angle -= 3600;
 2058              		.loc 1 683 0
 2059 013a 04EB8404 		add	r4, r4, r4, lsl #2
 2060              	.LVL275:
 2061 013e 6200     		lsls	r2, r4, #1
 2062 0140 1346     		mov	r3, r2
 2063              	.LVL276:
 684:Drivers/lvgl/lvgl/src/extra/widgets/meter/lv_meter.c **** 
 2064              		.loc 1 684 0
 2065 0142 B2F5616F 		cmp	r2, #3600
 2066 0146 01DD     		ble	.L94
 684:Drivers/lvgl/lvgl/src/extra/widgets/meter/lv_meter.c **** 
 2067              		.loc 1 684 0 is_stmt 0 discriminator 1
 2068 0148 A2F56163 		sub	r3, r2, #3600
 2069              	.LVL277:
 2070              	.L94:
 686:Drivers/lvgl/lvgl/src/extra/widgets/meter/lv_meter.c ****         scale_center.y -= indic->type_data.needle_img.pivot.y;
ARM GAS  /tmp/ccVvrzYL.s 			page 72


 2071              		.loc 1 686 0 is_stmt 1 discriminator 2
 2072 014c BA8A     		ldrh	r2, [r7, #20]
 2073 014e AD1A     		subs	r5, r5, r2
 2074 0150 ADB2     		uxth	r5, r5
 687:Drivers/lvgl/lvgl/src/extra/widgets/meter/lv_meter.c ****         lv_area_t a;
 2075              		.loc 1 687 0 discriminator 2
 2076 0152 FA8A     		ldrh	r2, [r7, #22]
 2077 0154 B61A     		subs	r6, r6, r2
 2078 0156 B6B2     		uxth	r6, r6
 689:Drivers/lvgl/lvgl/src/extra/widgets/meter/lv_meter.c ****         a.x1 += scale_center.x - 2;
 2079              		.loc 1 689 0 discriminator 2
 2080 0158 BDF81620 		ldrh	r2, [sp, #22]
 2081 015c 1437     		adds	r7, r7, #20
 2082              	.LVL278:
 2083 015e 0197     		str	r7, [sp, #4]
 2084 0160 4FF48071 		mov	r1, #256
 2085 0164 0091     		str	r1, [sp]
 2086 0166 1BB2     		sxth	r3, r3
 2087              	.LVL279:
 2088 0168 5209     		lsrs	r2, r2, #5
 2089 016a 0599     		ldr	r1, [sp, #20]
 2090 016c C1F38A21 		ubfx	r1, r1, #10, #11
 2091 0170 06A8     		add	r0, sp, #24
 2092 0172 FFF7FEFF 		bl	_lv_img_buf_get_transformed_area
 2093              	.LVL280:
 690:Drivers/lvgl/lvgl/src/extra/widgets/meter/lv_meter.c ****         a.y1 += scale_center.y - 2;
 2094              		.loc 1 690 0 discriminator 2
 2095 0176 BDF81830 		ldrh	r3, [sp, #24]
 2096 017a 2B44     		add	r3, r3, r5
 2097 017c 023B     		subs	r3, r3, #2
 2098 017e ADF81830 		strh	r3, [sp, #24]	@ movhi
 691:Drivers/lvgl/lvgl/src/extra/widgets/meter/lv_meter.c ****         a.x2 += scale_center.x + 2;
 2099              		.loc 1 691 0 discriminator 2
 2100 0182 BDF81A30 		ldrh	r3, [sp, #26]
 2101 0186 3344     		add	r3, r3, r6
 2102 0188 023B     		subs	r3, r3, #2
 2103 018a ADF81A30 		strh	r3, [sp, #26]	@ movhi
 692:Drivers/lvgl/lvgl/src/extra/widgets/meter/lv_meter.c ****         a.y2 += scale_center.y + 2;
 2104              		.loc 1 692 0 discriminator 2
 2105 018e BDF81C30 		ldrh	r3, [sp, #28]
 2106 0192 1D44     		add	r5, r5, r3
 2107 0194 0235     		adds	r5, r5, #2
 2108 0196 ADF81C50 		strh	r5, [sp, #28]	@ movhi
 693:Drivers/lvgl/lvgl/src/extra/widgets/meter/lv_meter.c **** 
 2109              		.loc 1 693 0 discriminator 2
 2110 019a BDF81E30 		ldrh	r3, [sp, #30]
 2111 019e 1E44     		add	r6, r6, r3
 2112 01a0 0236     		adds	r6, r6, #2
 2113 01a2 ADF81E60 		strh	r6, [sp, #30]	@ movhi
 695:Drivers/lvgl/lvgl/src/extra/widgets/meter/lv_meter.c ****     }
 2114              		.loc 1 695 0 discriminator 2
 2115 01a6 06A9     		add	r1, sp, #24
 2116 01a8 0398     		ldr	r0, [sp, #12]
 2117 01aa FFF7FEFF 		bl	lv_obj_invalidate_area
 2118              	.LVL281:
 2119              	.LBE99:
 2120              		.loc 1 697 0 discriminator 2
ARM GAS  /tmp/ccVvrzYL.s 			page 73


 2121 01ae 4DE7     		b	.L90
 2122              	.L100:
 2123              		.align	2
 2124              	.L99:
 2125 01b0 03000180 		.word	-2147418109
 2126              		.cfi_endproc
 2127              	.LFE221:
 2129              		.section	.text.lv_meter_create,"ax",%progbits
 2130              		.align	1
 2131              		.global	lv_meter_create
 2132              		.syntax unified
 2133              		.thumb
 2134              		.thumb_func
 2135              		.fpu fpv5-d16
 2137              	lv_meter_create:
 2138              	.LFB202:
  55:Drivers/lvgl/lvgl/src/extra/widgets/meter/lv_meter.c ****     LV_LOG_INFO("begin");
 2139              		.loc 1 55 0
 2140              		.cfi_startproc
 2141              		@ args = 0, pretend = 0, frame = 0
 2142              		@ frame_needed = 0, uses_anonymous_args = 0
 2143              	.LVL282:
 2144 0000 10B5     		push	{r4, lr}
 2145              	.LCFI23:
 2146              		.cfi_def_cfa_offset 8
 2147              		.cfi_offset 4, -8
 2148              		.cfi_offset 14, -4
  57:Drivers/lvgl/lvgl/src/extra/widgets/meter/lv_meter.c ****     lv_obj_class_init_obj(obj);
 2149              		.loc 1 57 0
 2150 0002 0146     		mov	r1, r0
 2151 0004 0348     		ldr	r0, .L103
 2152              	.LVL283:
 2153 0006 FFF7FEFF 		bl	lv_obj_class_create_obj
 2154              	.LVL284:
 2155 000a 0446     		mov	r4, r0
 2156              	.LVL285:
  58:Drivers/lvgl/lvgl/src/extra/widgets/meter/lv_meter.c ****     return obj;
 2157              		.loc 1 58 0
 2158 000c FFF7FEFF 		bl	lv_obj_class_init_obj
 2159              	.LVL286:
  60:Drivers/lvgl/lvgl/src/extra/widgets/meter/lv_meter.c **** 
 2160              		.loc 1 60 0
 2161 0010 2046     		mov	r0, r4
 2162 0012 10BD     		pop	{r4, pc}
 2163              	.LVL287:
 2164              	.L104:
 2165              		.align	2
 2166              	.L103:
 2167 0014 00000000 		.word	.LANCHOR0
 2168              		.cfi_endproc
 2169              	.LFE202:
 2171              		.section	.text.lv_meter_add_scale,"ax",%progbits
 2172              		.align	1
 2173              		.global	lv_meter_add_scale
 2174              		.syntax unified
 2175              		.thumb
 2176              		.thumb_func
ARM GAS  /tmp/ccVvrzYL.s 			page 74


 2177              		.fpu fpv5-d16
 2179              	lv_meter_add_scale:
 2180              	.LFB203:
  67:Drivers/lvgl/lvgl/src/extra/widgets/meter/lv_meter.c ****     LV_ASSERT_OBJ(obj, MY_CLASS);
 2181              		.loc 1 67 0
 2182              		.cfi_startproc
 2183              		@ args = 0, pretend = 0, frame = 0
 2184              		@ frame_needed = 0, uses_anonymous_args = 0
 2185              	.LVL288:
 2186 0000 10B5     		push	{r4, lr}
 2187              	.LCFI24:
 2188              		.cfi_def_cfa_offset 8
 2189              		.cfi_offset 4, -8
 2190              		.cfi_offset 14, -4
 2191              	.LVL289:
  71:Drivers/lvgl/lvgl/src/extra/widgets/meter/lv_meter.c ****     LV_ASSERT_MALLOC(scale);
 2192              		.loc 1 71 0
 2193 0002 2430     		adds	r0, r0, #36
 2194              	.LVL290:
 2195 0004 FFF7FEFF 		bl	_lv_ll_ins_head
 2196              	.LVL291:
  72:Drivers/lvgl/lvgl/src/extra/widgets/meter/lv_meter.c ****     lv_memset_00(scale, sizeof(lv_meter_scale_t));
 2197              		.loc 1 72 0
 2198 0008 00B9     		cbnz	r0, .L106
 2199              	.L107:
 2200 000a FEE7     		b	.L107
 2201              	.L106:
 2202 000c 0446     		mov	r4, r0
  73:Drivers/lvgl/lvgl/src/extra/widgets/meter/lv_meter.c **** 
 2203              		.loc 1 73 0
 2204 000e 2421     		movs	r1, #36
 2205 0010 FFF7FEFF 		bl	lv_memset_00
 2206              	.LVL292:
  75:Drivers/lvgl/lvgl/src/extra/widgets/meter/lv_meter.c ****     scale->rotation = 90 + (360 - scale->angle_range) / 2;
 2207              		.loc 1 75 0
 2208 0014 4FF48773 		mov	r3, #270
 2209 0018 E383     		strh	r3, [r4, #30]	@ movhi
  76:Drivers/lvgl/lvgl/src/extra/widgets/meter/lv_meter.c ****     scale->min = 0;
 2210              		.loc 1 76 0
 2211 001a 8723     		movs	r3, #135
 2212 001c 2384     		strh	r3, [r4, #32]	@ movhi
  77:Drivers/lvgl/lvgl/src/extra/widgets/meter/lv_meter.c ****     scale->max = 100;
 2213              		.loc 1 77 0
 2214 001e 0023     		movs	r3, #0
 2215 0020 6361     		str	r3, [r4, #20]
  78:Drivers/lvgl/lvgl/src/extra/widgets/meter/lv_meter.c ****     scale->tick_cnt = 6;
 2216              		.loc 1 78 0
 2217 0022 6423     		movs	r3, #100
 2218 0024 A361     		str	r3, [r4, #24]
  79:Drivers/lvgl/lvgl/src/extra/widgets/meter/lv_meter.c ****     scale->tick_length = 8;
 2219              		.loc 1 79 0
 2220 0026 0623     		movs	r3, #6
 2221 0028 6380     		strh	r3, [r4, #2]	@ movhi
  80:Drivers/lvgl/lvgl/src/extra/widgets/meter/lv_meter.c ****     scale->tick_width = 2;
 2222              		.loc 1 80 0
 2223 002a 0823     		movs	r3, #8
 2224 002c A380     		strh	r3, [r4, #4]	@ movhi
ARM GAS  /tmp/ccVvrzYL.s 			page 75


  81:Drivers/lvgl/lvgl/src/extra/widgets/meter/lv_meter.c ****     scale->label_gap = 2;
 2225              		.loc 1 81 0
 2226 002e 0223     		movs	r3, #2
 2227 0030 E380     		strh	r3, [r4, #6]	@ movhi
  82:Drivers/lvgl/lvgl/src/extra/widgets/meter/lv_meter.c **** 
 2228              		.loc 1 82 0
 2229 0032 2382     		strh	r3, [r4, #16]	@ movhi
  85:Drivers/lvgl/lvgl/src/extra/widgets/meter/lv_meter.c **** 
 2230              		.loc 1 85 0
 2231 0034 2046     		mov	r0, r4
 2232 0036 10BD     		pop	{r4, pc}
 2233              		.cfi_endproc
 2234              	.LFE203:
 2236              		.section	.text.lv_meter_set_scale_ticks,"ax",%progbits
 2237              		.align	1
 2238              		.global	lv_meter_set_scale_ticks
 2239              		.syntax unified
 2240              		.thumb
 2241              		.thumb_func
 2242              		.fpu fpv5-d16
 2244              	lv_meter_set_scale_ticks:
 2245              	.LFB204:
  89:Drivers/lvgl/lvgl/src/extra/widgets/meter/lv_meter.c ****     scale->tick_cnt = cnt;
 2246              		.loc 1 89 0
 2247              		.cfi_startproc
 2248              		@ args = 8, pretend = 0, frame = 0
 2249              		@ frame_needed = 0, uses_anonymous_args = 0
 2250              	.LVL293:
 2251 0000 08B5     		push	{r3, lr}
 2252              	.LCFI25:
 2253              		.cfi_def_cfa_offset 8
 2254              		.cfi_offset 3, -8
 2255              		.cfi_offset 14, -4
  90:Drivers/lvgl/lvgl/src/extra/widgets/meter/lv_meter.c ****     scale->tick_width = width;
 2256              		.loc 1 90 0
 2257 0002 4A80     		strh	r2, [r1, #2]	@ movhi
  91:Drivers/lvgl/lvgl/src/extra/widgets/meter/lv_meter.c ****     scale->tick_length = len;
 2258              		.loc 1 91 0
 2259 0004 CB80     		strh	r3, [r1, #6]	@ movhi
  92:Drivers/lvgl/lvgl/src/extra/widgets/meter/lv_meter.c ****     scale->tick_color = color;
 2260              		.loc 1 92 0
 2261 0006 BDF80830 		ldrh	r3, [sp, #8]
 2262              	.LVL294:
 2263 000a 8B80     		strh	r3, [r1, #4]	@ movhi
  93:Drivers/lvgl/lvgl/src/extra/widgets/meter/lv_meter.c ****     lv_obj_invalidate(obj);
 2264              		.loc 1 93 0
 2265 000c BDF80C30 		ldrh	r3, [sp, #12]
 2266 0010 0B80     		strh	r3, [r1]	@ movhi
  94:Drivers/lvgl/lvgl/src/extra/widgets/meter/lv_meter.c **** }
 2267              		.loc 1 94 0
 2268 0012 FFF7FEFF 		bl	lv_obj_invalidate
 2269              	.LVL295:
  95:Drivers/lvgl/lvgl/src/extra/widgets/meter/lv_meter.c **** 
 2270              		.loc 1 95 0
 2271 0016 08BD     		pop	{r3, pc}
 2272              		.cfi_endproc
 2273              	.LFE204:
ARM GAS  /tmp/ccVvrzYL.s 			page 76


 2275              		.section	.text.lv_meter_set_scale_major_ticks,"ax",%progbits
 2276              		.align	1
 2277              		.global	lv_meter_set_scale_major_ticks
 2278              		.syntax unified
 2279              		.thumb
 2280              		.thumb_func
 2281              		.fpu fpv5-d16
 2283              	lv_meter_set_scale_major_ticks:
 2284              	.LFB205:
  99:Drivers/lvgl/lvgl/src/extra/widgets/meter/lv_meter.c ****     scale->tick_major_nth = nth;
 2285              		.loc 1 99 0
 2286              		.cfi_startproc
 2287              		@ args = 12, pretend = 0, frame = 0
 2288              		@ frame_needed = 0, uses_anonymous_args = 0
 2289              	.LVL296:
 2290 0000 08B5     		push	{r3, lr}
 2291              	.LCFI26:
 2292              		.cfi_def_cfa_offset 8
 2293              		.cfi_offset 3, -8
 2294              		.cfi_offset 14, -4
 100:Drivers/lvgl/lvgl/src/extra/widgets/meter/lv_meter.c ****     scale->tick_major_width = width;
 2295              		.loc 1 100 0
 2296 0002 4A81     		strh	r2, [r1, #10]	@ movhi
 101:Drivers/lvgl/lvgl/src/extra/widgets/meter/lv_meter.c ****     scale->tick_major_length = len;
 2297              		.loc 1 101 0
 2298 0004 CB81     		strh	r3, [r1, #14]	@ movhi
 102:Drivers/lvgl/lvgl/src/extra/widgets/meter/lv_meter.c ****     scale->tick_major_color = color;
 2299              		.loc 1 102 0
 2300 0006 BDF80830 		ldrh	r3, [sp, #8]
 2301              	.LVL297:
 2302 000a 8B81     		strh	r3, [r1, #12]	@ movhi
 103:Drivers/lvgl/lvgl/src/extra/widgets/meter/lv_meter.c ****     scale->label_gap = label_gap;
 2303              		.loc 1 103 0
 2304 000c BDF80C30 		ldrh	r3, [sp, #12]
 2305 0010 0B81     		strh	r3, [r1, #8]	@ movhi
 104:Drivers/lvgl/lvgl/src/extra/widgets/meter/lv_meter.c ****     lv_obj_invalidate(obj);
 2306              		.loc 1 104 0
 2307 0012 BDF91030 		ldrsh	r3, [sp, #16]
 2308 0016 0B82     		strh	r3, [r1, #16]	@ movhi
 105:Drivers/lvgl/lvgl/src/extra/widgets/meter/lv_meter.c **** }
 2309              		.loc 1 105 0
 2310 0018 FFF7FEFF 		bl	lv_obj_invalidate
 2311              	.LVL298:
 106:Drivers/lvgl/lvgl/src/extra/widgets/meter/lv_meter.c **** 
 2312              		.loc 1 106 0
 2313 001c 08BD     		pop	{r3, pc}
 2314              		.cfi_endproc
 2315              	.LFE205:
 2317              		.section	.text.lv_meter_set_scale_range,"ax",%progbits
 2318              		.align	1
 2319              		.global	lv_meter_set_scale_range
 2320              		.syntax unified
 2321              		.thumb
 2322              		.thumb_func
 2323              		.fpu fpv5-d16
 2325              	lv_meter_set_scale_range:
 2326              	.LFB206:
ARM GAS  /tmp/ccVvrzYL.s 			page 77


 110:Drivers/lvgl/lvgl/src/extra/widgets/meter/lv_meter.c ****     scale->min = min;
 2327              		.loc 1 110 0
 2328              		.cfi_startproc
 2329              		@ args = 8, pretend = 0, frame = 0
 2330              		@ frame_needed = 0, uses_anonymous_args = 0
 2331              	.LVL299:
 2332 0000 08B5     		push	{r3, lr}
 2333              	.LCFI27:
 2334              		.cfi_def_cfa_offset 8
 2335              		.cfi_offset 3, -8
 2336              		.cfi_offset 14, -4
 111:Drivers/lvgl/lvgl/src/extra/widgets/meter/lv_meter.c ****     scale->max = max;
 2337              		.loc 1 111 0
 2338 0002 4A61     		str	r2, [r1, #20]
 112:Drivers/lvgl/lvgl/src/extra/widgets/meter/lv_meter.c ****     scale->angle_range = angle_range;
 2339              		.loc 1 112 0
 2340 0004 8B61     		str	r3, [r1, #24]
 113:Drivers/lvgl/lvgl/src/extra/widgets/meter/lv_meter.c ****     scale->rotation = rotation;
 2341              		.loc 1 113 0
 2342 0006 029B     		ldr	r3, [sp, #8]
 2343              	.LVL300:
 2344 0008 CB83     		strh	r3, [r1, #30]	@ movhi
 114:Drivers/lvgl/lvgl/src/extra/widgets/meter/lv_meter.c ****     lv_obj_invalidate(obj);
 2345              		.loc 1 114 0
 2346 000a 039B     		ldr	r3, [sp, #12]
 2347 000c 0B84     		strh	r3, [r1, #32]	@ movhi
 115:Drivers/lvgl/lvgl/src/extra/widgets/meter/lv_meter.c **** }
 2348              		.loc 1 115 0
 2349 000e FFF7FEFF 		bl	lv_obj_invalidate
 2350              	.LVL301:
 116:Drivers/lvgl/lvgl/src/extra/widgets/meter/lv_meter.c **** 
 2351              		.loc 1 116 0
 2352 0012 08BD     		pop	{r3, pc}
 2353              		.cfi_endproc
 2354              	.LFE206:
 2356              		.section	.text.lv_meter_add_needle_line,"ax",%progbits
 2357              		.align	1
 2358              		.global	lv_meter_add_needle_line
 2359              		.syntax unified
 2360              		.thumb
 2361              		.thumb_func
 2362              		.fpu fpv5-d16
 2364              	lv_meter_add_needle_line:
 2365              	.LFB207:
 124:Drivers/lvgl/lvgl/src/extra/widgets/meter/lv_meter.c ****     LV_ASSERT_OBJ(obj, MY_CLASS);
 2366              		.loc 1 124 0
 2367              		.cfi_startproc
 2368              		@ args = 4, pretend = 0, frame = 0
 2369              		@ frame_needed = 0, uses_anonymous_args = 0
 2370              	.LVL302:
 2371 0000 2DE9F041 		push	{r4, r5, r6, r7, r8, lr}
 2372              	.LCFI28:
 2373              		.cfi_def_cfa_offset 24
 2374              		.cfi_offset 4, -24
 2375              		.cfi_offset 5, -20
 2376              		.cfi_offset 6, -16
 2377              		.cfi_offset 7, -12
ARM GAS  /tmp/ccVvrzYL.s 			page 78


 2378              		.cfi_offset 8, -8
 2379              		.cfi_offset 14, -4
 2380 0004 0546     		mov	r5, r0
 2381 0006 8846     		mov	r8, r1
 2382 0008 1746     		mov	r7, r2
 2383 000a 1E46     		mov	r6, r3	@ movhi
 2384              	.LVL303:
 127:Drivers/lvgl/lvgl/src/extra/widgets/meter/lv_meter.c ****     LV_ASSERT_MALLOC(indic);
 2385              		.loc 1 127 0
 2386 000c 3030     		adds	r0, r0, #48
 2387              	.LVL304:
 2388 000e FFF7FEFF 		bl	_lv_ll_ins_head
 2389              	.LVL305:
 128:Drivers/lvgl/lvgl/src/extra/widgets/meter/lv_meter.c ****     lv_memset_00(indic, sizeof(lv_meter_indicator_t));
 2390              		.loc 1 128 0
 2391 0012 00B9     		cbnz	r0, .L116
 2392              	.L117:
 2393 0014 FEE7     		b	.L117
 2394              	.L116:
 2395 0016 0446     		mov	r4, r0
 129:Drivers/lvgl/lvgl/src/extra/widgets/meter/lv_meter.c ****     indic->scale = scale;
 2396              		.loc 1 129 0
 2397 0018 1C21     		movs	r1, #28
 2398 001a FFF7FEFF 		bl	lv_memset_00
 2399              	.LVL306:
 130:Drivers/lvgl/lvgl/src/extra/widgets/meter/lv_meter.c ****     indic->opa = LV_OPA_COVER;
 2400              		.loc 1 130 0
 2401 001e C4F80080 		str	r8, [r4]
 131:Drivers/lvgl/lvgl/src/extra/widgets/meter/lv_meter.c **** 
 2402              		.loc 1 131 0
 2403 0022 FF23     		movs	r3, #255
 2404 0024 6371     		strb	r3, [r4, #5]
 133:Drivers/lvgl/lvgl/src/extra/widgets/meter/lv_meter.c ****     indic->type_data.needle_line.width = width;
 2405              		.loc 1 133 0
 2406 0026 0123     		movs	r3, #1
 2407 0028 2371     		strb	r3, [r4, #4]
 134:Drivers/lvgl/lvgl/src/extra/widgets/meter/lv_meter.c ****     indic->type_data.needle_line.color = color;
 2408              		.loc 1 134 0
 2409 002a 2782     		strh	r7, [r4, #16]	@ movhi
 2410              	.LVL307:
 135:Drivers/lvgl/lvgl/src/extra/widgets/meter/lv_meter.c ****     indic->type_data.needle_line.r_mod = r_mod;
 2411              		.loc 1 135 0
 2412 002c A682     		strh	r6, [r4, #20]	@ movhi
 136:Drivers/lvgl/lvgl/src/extra/widgets/meter/lv_meter.c ****     lv_obj_invalidate(obj);
 2413              		.loc 1 136 0
 2414 002e BDF91830 		ldrsh	r3, [sp, #24]
 2415 0032 6382     		strh	r3, [r4, #18]	@ movhi
 137:Drivers/lvgl/lvgl/src/extra/widgets/meter/lv_meter.c **** 
 2416              		.loc 1 137 0
 2417 0034 2846     		mov	r0, r5
 2418 0036 FFF7FEFF 		bl	lv_obj_invalidate
 2419              	.LVL308:
 140:Drivers/lvgl/lvgl/src/extra/widgets/meter/lv_meter.c **** 
 2420              		.loc 1 140 0
 2421 003a 2046     		mov	r0, r4
 2422 003c BDE8F081 		pop	{r4, r5, r6, r7, r8, pc}
 2423              		.cfi_endproc
ARM GAS  /tmp/ccVvrzYL.s 			page 79


 2424              	.LFE207:
 2426              		.section	.text.lv_meter_add_needle_img,"ax",%progbits
 2427              		.align	1
 2428              		.global	lv_meter_add_needle_img
 2429              		.syntax unified
 2430              		.thumb
 2431              		.thumb_func
 2432              		.fpu fpv5-d16
 2434              	lv_meter_add_needle_img:
 2435              	.LFB208:
 144:Drivers/lvgl/lvgl/src/extra/widgets/meter/lv_meter.c ****     LV_ASSERT_OBJ(obj, MY_CLASS);
 2436              		.loc 1 144 0
 2437              		.cfi_startproc
 2438              		@ args = 4, pretend = 0, frame = 0
 2439              		@ frame_needed = 0, uses_anonymous_args = 0
 2440              	.LVL309:
 2441 0000 2DE9F041 		push	{r4, r5, r6, r7, r8, lr}
 2442              	.LCFI29:
 2443              		.cfi_def_cfa_offset 24
 2444              		.cfi_offset 4, -24
 2445              		.cfi_offset 5, -20
 2446              		.cfi_offset 6, -16
 2447              		.cfi_offset 7, -12
 2448              		.cfi_offset 8, -8
 2449              		.cfi_offset 14, -4
 2450 0004 0546     		mov	r5, r0
 2451 0006 8846     		mov	r8, r1
 2452 0008 1746     		mov	r7, r2
 2453 000a 1E46     		mov	r6, r3
 2454              	.LVL310:
 147:Drivers/lvgl/lvgl/src/extra/widgets/meter/lv_meter.c ****     LV_ASSERT_MALLOC(indic);
 2455              		.loc 1 147 0
 2456 000c 3030     		adds	r0, r0, #48
 2457              	.LVL311:
 2458 000e FFF7FEFF 		bl	_lv_ll_ins_head
 2459              	.LVL312:
 148:Drivers/lvgl/lvgl/src/extra/widgets/meter/lv_meter.c ****     lv_memset_00(indic, sizeof(lv_meter_indicator_t));
 2460              		.loc 1 148 0
 2461 0012 00B9     		cbnz	r0, .L120
 2462              	.L121:
 2463 0014 FEE7     		b	.L121
 2464              	.L120:
 2465 0016 0446     		mov	r4, r0
 149:Drivers/lvgl/lvgl/src/extra/widgets/meter/lv_meter.c ****     indic->scale = scale;
 2466              		.loc 1 149 0
 2467 0018 1C21     		movs	r1, #28
 2468 001a FFF7FEFF 		bl	lv_memset_00
 2469              	.LVL313:
 150:Drivers/lvgl/lvgl/src/extra/widgets/meter/lv_meter.c ****     indic->opa = LV_OPA_COVER;
 2470              		.loc 1 150 0
 2471 001e C4F80080 		str	r8, [r4]
 151:Drivers/lvgl/lvgl/src/extra/widgets/meter/lv_meter.c **** 
 2472              		.loc 1 151 0
 2473 0022 FF23     		movs	r3, #255
 2474 0024 6371     		strb	r3, [r4, #5]
 153:Drivers/lvgl/lvgl/src/extra/widgets/meter/lv_meter.c ****     indic->type_data.needle_img.src = src;
 2475              		.loc 1 153 0
ARM GAS  /tmp/ccVvrzYL.s 			page 80


 2476 0026 0023     		movs	r3, #0
 2477 0028 2371     		strb	r3, [r4, #4]
 154:Drivers/lvgl/lvgl/src/extra/widgets/meter/lv_meter.c ****     indic->type_data.needle_img.pivot.x = pivot_x;
 2478              		.loc 1 154 0
 2479 002a 2761     		str	r7, [r4, #16]
 155:Drivers/lvgl/lvgl/src/extra/widgets/meter/lv_meter.c ****     indic->type_data.needle_img.pivot.y = pivot_y;
 2480              		.loc 1 155 0
 2481 002c A682     		strh	r6, [r4, #20]	@ movhi
 156:Drivers/lvgl/lvgl/src/extra/widgets/meter/lv_meter.c ****     lv_obj_invalidate(obj);
 2482              		.loc 1 156 0
 2483 002e BDF91830 		ldrsh	r3, [sp, #24]
 2484 0032 E382     		strh	r3, [r4, #22]	@ movhi
 157:Drivers/lvgl/lvgl/src/extra/widgets/meter/lv_meter.c **** 
 2485              		.loc 1 157 0
 2486 0034 2846     		mov	r0, r5
 2487 0036 FFF7FEFF 		bl	lv_obj_invalidate
 2488              	.LVL314:
 160:Drivers/lvgl/lvgl/src/extra/widgets/meter/lv_meter.c **** 
 2489              		.loc 1 160 0
 2490 003a 2046     		mov	r0, r4
 2491 003c BDE8F081 		pop	{r4, r5, r6, r7, r8, pc}
 2492              		.cfi_endproc
 2493              	.LFE208:
 2495              		.section	.text.lv_meter_add_arc,"ax",%progbits
 2496              		.align	1
 2497              		.global	lv_meter_add_arc
 2498              		.syntax unified
 2499              		.thumb
 2500              		.thumb_func
 2501              		.fpu fpv5-d16
 2503              	lv_meter_add_arc:
 2504              	.LFB209:
 164:Drivers/lvgl/lvgl/src/extra/widgets/meter/lv_meter.c ****     LV_ASSERT_OBJ(obj, MY_CLASS);
 2505              		.loc 1 164 0
 2506              		.cfi_startproc
 2507              		@ args = 4, pretend = 0, frame = 0
 2508              		@ frame_needed = 0, uses_anonymous_args = 0
 2509              	.LVL315:
 2510 0000 2DE9F041 		push	{r4, r5, r6, r7, r8, lr}
 2511              	.LCFI30:
 2512              		.cfi_def_cfa_offset 24
 2513              		.cfi_offset 4, -24
 2514              		.cfi_offset 5, -20
 2515              		.cfi_offset 6, -16
 2516              		.cfi_offset 7, -12
 2517              		.cfi_offset 8, -8
 2518              		.cfi_offset 14, -4
 2519 0004 0546     		mov	r5, r0
 2520 0006 8846     		mov	r8, r1
 2521 0008 1746     		mov	r7, r2
 2522 000a 1E46     		mov	r6, r3	@ movhi
 2523              	.LVL316:
 167:Drivers/lvgl/lvgl/src/extra/widgets/meter/lv_meter.c ****     LV_ASSERT_MALLOC(indic);
 2524              		.loc 1 167 0
 2525 000c 3030     		adds	r0, r0, #48
 2526              	.LVL317:
 2527 000e FFF7FEFF 		bl	_lv_ll_ins_head
ARM GAS  /tmp/ccVvrzYL.s 			page 81


 2528              	.LVL318:
 168:Drivers/lvgl/lvgl/src/extra/widgets/meter/lv_meter.c ****     lv_memset_00(indic, sizeof(lv_meter_indicator_t));
 2529              		.loc 1 168 0
 2530 0012 00B9     		cbnz	r0, .L124
 2531              	.L125:
 2532 0014 FEE7     		b	.L125
 2533              	.L124:
 2534 0016 0446     		mov	r4, r0
 169:Drivers/lvgl/lvgl/src/extra/widgets/meter/lv_meter.c ****     indic->scale = scale;
 2535              		.loc 1 169 0
 2536 0018 1C21     		movs	r1, #28
 2537 001a FFF7FEFF 		bl	lv_memset_00
 2538              	.LVL319:
 170:Drivers/lvgl/lvgl/src/extra/widgets/meter/lv_meter.c ****     indic->opa = LV_OPA_COVER;
 2539              		.loc 1 170 0
 2540 001e C4F80080 		str	r8, [r4]
 171:Drivers/lvgl/lvgl/src/extra/widgets/meter/lv_meter.c **** 
 2541              		.loc 1 171 0
 2542 0022 FF23     		movs	r3, #255
 2543 0024 6371     		strb	r3, [r4, #5]
 173:Drivers/lvgl/lvgl/src/extra/widgets/meter/lv_meter.c ****     indic->type_data.arc.width = width;
 2544              		.loc 1 173 0
 2545 0026 0323     		movs	r3, #3
 2546 0028 2371     		strb	r3, [r4, #4]
 174:Drivers/lvgl/lvgl/src/extra/widgets/meter/lv_meter.c ****     indic->type_data.arc.color = color;
 2547              		.loc 1 174 0
 2548 002a 2782     		strh	r7, [r4, #16]	@ movhi
 2549              	.LVL320:
 175:Drivers/lvgl/lvgl/src/extra/widgets/meter/lv_meter.c ****     indic->type_data.arc.r_mod = r_mod;
 2550              		.loc 1 175 0
 2551 002c 2683     		strh	r6, [r4, #24]	@ movhi
 176:Drivers/lvgl/lvgl/src/extra/widgets/meter/lv_meter.c **** 
 2552              		.loc 1 176 0
 2553 002e BDF91830 		ldrsh	r3, [sp, #24]
 2554 0032 6383     		strh	r3, [r4, #26]	@ movhi
 178:Drivers/lvgl/lvgl/src/extra/widgets/meter/lv_meter.c ****     return indic;
 2555              		.loc 1 178 0
 2556 0034 2846     		mov	r0, r5
 2557 0036 FFF7FEFF 		bl	lv_obj_invalidate
 2558              	.LVL321:
 180:Drivers/lvgl/lvgl/src/extra/widgets/meter/lv_meter.c **** 
 2559              		.loc 1 180 0
 2560 003a 2046     		mov	r0, r4
 2561 003c BDE8F081 		pop	{r4, r5, r6, r7, r8, pc}
 2562              		.cfi_endproc
 2563              	.LFE209:
 2565              		.section	.text.lv_meter_add_scale_lines,"ax",%progbits
 2566              		.align	1
 2567              		.global	lv_meter_add_scale_lines
 2568              		.syntax unified
 2569              		.thumb
 2570              		.thumb_func
 2571              		.fpu fpv5-d16
 2573              	lv_meter_add_scale_lines:
 2574              	.LFB210:
 184:Drivers/lvgl/lvgl/src/extra/widgets/meter/lv_meter.c ****     LV_ASSERT_OBJ(obj, MY_CLASS);
 2575              		.loc 1 184 0
ARM GAS  /tmp/ccVvrzYL.s 			page 82


 2576              		.cfi_startproc
 2577              		@ args = 8, pretend = 0, frame = 0
 2578              		@ frame_needed = 0, uses_anonymous_args = 0
 2579              	.LVL322:
 2580 0000 2DE9F041 		push	{r4, r5, r6, r7, r8, lr}
 2581              	.LCFI31:
 2582              		.cfi_def_cfa_offset 24
 2583              		.cfi_offset 4, -24
 2584              		.cfi_offset 5, -20
 2585              		.cfi_offset 6, -16
 2586              		.cfi_offset 7, -12
 2587              		.cfi_offset 8, -8
 2588              		.cfi_offset 14, -4
 2589 0004 0546     		mov	r5, r0
 2590 0006 8846     		mov	r8, r1
 2591 0008 1746     		mov	r7, r2	@ movhi
 2592 000a 1E46     		mov	r6, r3	@ movhi
 2593              	.LVL323:
 187:Drivers/lvgl/lvgl/src/extra/widgets/meter/lv_meter.c ****     LV_ASSERT_MALLOC(indic);
 2594              		.loc 1 187 0
 2595 000c 3030     		adds	r0, r0, #48
 2596              	.LVL324:
 2597 000e FFF7FEFF 		bl	_lv_ll_ins_head
 2598              	.LVL325:
 188:Drivers/lvgl/lvgl/src/extra/widgets/meter/lv_meter.c ****     lv_memset_00(indic, sizeof(lv_meter_indicator_t));
 2599              		.loc 1 188 0
 2600 0012 00B9     		cbnz	r0, .L128
 2601              	.L129:
 2602 0014 FEE7     		b	.L129
 2603              	.L128:
 2604 0016 0446     		mov	r4, r0
 189:Drivers/lvgl/lvgl/src/extra/widgets/meter/lv_meter.c ****     indic->scale = scale;
 2605              		.loc 1 189 0
 2606 0018 1C21     		movs	r1, #28
 2607 001a FFF7FEFF 		bl	lv_memset_00
 2608              	.LVL326:
 190:Drivers/lvgl/lvgl/src/extra/widgets/meter/lv_meter.c ****     indic->opa = LV_OPA_COVER;
 2609              		.loc 1 190 0
 2610 001e C4F80080 		str	r8, [r4]
 191:Drivers/lvgl/lvgl/src/extra/widgets/meter/lv_meter.c **** 
 2611              		.loc 1 191 0
 2612 0022 FF23     		movs	r3, #255
 2613 0024 6371     		strb	r3, [r4, #5]
 193:Drivers/lvgl/lvgl/src/extra/widgets/meter/lv_meter.c ****     indic->type_data.scale_lines.color_start = color_start;
 2614              		.loc 1 193 0
 2615 0026 0223     		movs	r3, #2
 2616 0028 2371     		strb	r3, [r4, #4]
 2617              	.LVL327:
 194:Drivers/lvgl/lvgl/src/extra/widgets/meter/lv_meter.c ****     indic->type_data.scale_lines.color_end = color_end;
 2618              		.loc 1 194 0
 2619 002a 6782     		strh	r7, [r4, #18]	@ movhi
 2620              	.LVL328:
 195:Drivers/lvgl/lvgl/src/extra/widgets/meter/lv_meter.c ****     indic->type_data.scale_lines.local_grad = local;
 2621              		.loc 1 195 0
 2622 002c A682     		strh	r6, [r4, #20]	@ movhi
 196:Drivers/lvgl/lvgl/src/extra/widgets/meter/lv_meter.c ****     indic->type_data.scale_lines.width_mod = width_mod;
 2623              		.loc 1 196 0
ARM GAS  /tmp/ccVvrzYL.s 			page 83


 2624 002e A37D     		ldrb	r3, [r4, #22]	@ zero_extendqisi2
 2625 0030 9DF81820 		ldrb	r2, [sp, #24]	@ zero_extendqisi2
 2626 0034 62F30003 		bfi	r3, r2, #0, #1
 2627 0038 A375     		strb	r3, [r4, #22]
 197:Drivers/lvgl/lvgl/src/extra/widgets/meter/lv_meter.c **** 
 2628              		.loc 1 197 0
 2629 003a BDF91C30 		ldrsh	r3, [sp, #28]
 2630 003e 2382     		strh	r3, [r4, #16]	@ movhi
 199:Drivers/lvgl/lvgl/src/extra/widgets/meter/lv_meter.c ****     return indic;
 2631              		.loc 1 199 0
 2632 0040 2846     		mov	r0, r5
 2633 0042 FFF7FEFF 		bl	lv_obj_invalidate
 2634              	.LVL329:
 201:Drivers/lvgl/lvgl/src/extra/widgets/meter/lv_meter.c **** 
 2635              		.loc 1 201 0
 2636 0046 2046     		mov	r0, r4
 2637 0048 BDE8F081 		pop	{r4, r5, r6, r7, r8, pc}
 2638              		.cfi_endproc
 2639              	.LFE210:
 2641              		.section	.text.lv_meter_set_indicator_value,"ax",%progbits
 2642              		.align	1
 2643              		.global	lv_meter_set_indicator_value
 2644              		.syntax unified
 2645              		.thumb
 2646              		.thumb_func
 2647              		.fpu fpv5-d16
 2649              	lv_meter_set_indicator_value:
 2650              	.LFB211:
 208:Drivers/lvgl/lvgl/src/extra/widgets/meter/lv_meter.c ****     int32_t old_start = indic->start_value;
 2651              		.loc 1 208 0
 2652              		.cfi_startproc
 2653              		@ args = 0, pretend = 0, frame = 0
 2654              		@ frame_needed = 0, uses_anonymous_args = 0
 2655              	.LVL330:
 2656 0000 F8B5     		push	{r3, r4, r5, r6, r7, lr}
 2657              	.LCFI32:
 2658              		.cfi_def_cfa_offset 24
 2659              		.cfi_offset 3, -24
 2660              		.cfi_offset 4, -20
 2661              		.cfi_offset 5, -16
 2662              		.cfi_offset 6, -12
 2663              		.cfi_offset 7, -8
 2664              		.cfi_offset 14, -4
 2665 0002 0646     		mov	r6, r0
 2666 0004 0C46     		mov	r4, r1
 2667 0006 1546     		mov	r5, r2
 209:Drivers/lvgl/lvgl/src/extra/widgets/meter/lv_meter.c ****     int32_t old_end = indic->end_value;
 2668              		.loc 1 209 0
 2669 0008 8A68     		ldr	r2, [r1, #8]
 2670              	.LVL331:
 210:Drivers/lvgl/lvgl/src/extra/widgets/meter/lv_meter.c ****     indic->start_value = value;
 2671              		.loc 1 210 0
 2672 000a CF68     		ldr	r7, [r1, #12]
 2673              	.LVL332:
 211:Drivers/lvgl/lvgl/src/extra/widgets/meter/lv_meter.c ****     indic->end_value = value;
 2674              		.loc 1 211 0
 2675 000c 8D60     		str	r5, [r1, #8]
ARM GAS  /tmp/ccVvrzYL.s 			page 84


 212:Drivers/lvgl/lvgl/src/extra/widgets/meter/lv_meter.c **** 
 2676              		.loc 1 212 0
 2677 000e CD60     		str	r5, [r1, #12]
 214:Drivers/lvgl/lvgl/src/extra/widgets/meter/lv_meter.c ****         inv_arc(obj, indic, old_start, value);
 2678              		.loc 1 214 0
 2679 0010 0B79     		ldrb	r3, [r1, #4]	@ zero_extendqisi2
 2680 0012 032B     		cmp	r3, #3
 2681 0014 04D0     		beq	.L136
 218:Drivers/lvgl/lvgl/src/extra/widgets/meter/lv_meter.c ****         inv_line(obj, indic, old_start);
 2682              		.loc 1 218 0
 2683 0016 012B     		cmp	r3, #1
 2684 0018 0CD9     		bls	.L137
 224:Drivers/lvgl/lvgl/src/extra/widgets/meter/lv_meter.c ****     }
 2685              		.loc 1 224 0
 2686 001a FFF7FEFF 		bl	lv_obj_invalidate
 2687              	.LVL333:
 2688              	.L131:
 226:Drivers/lvgl/lvgl/src/extra/widgets/meter/lv_meter.c **** 
 2689              		.loc 1 226 0
 2690 001e F8BD     		pop	{r3, r4, r5, r6, r7, pc}
 2691              	.LVL334:
 2692              	.L136:
 215:Drivers/lvgl/lvgl/src/extra/widgets/meter/lv_meter.c ****         inv_arc(obj, indic, old_end, value);
 2693              		.loc 1 215 0
 2694 0020 2B46     		mov	r3, r5
 2695 0022 FFF7FEFF 		bl	inv_arc
 2696              	.LVL335:
 216:Drivers/lvgl/lvgl/src/extra/widgets/meter/lv_meter.c ****     }
 2697              		.loc 1 216 0
 2698 0026 2B46     		mov	r3, r5
 2699 0028 3A46     		mov	r2, r7
 2700 002a 2146     		mov	r1, r4
 2701 002c 3046     		mov	r0, r6
 2702 002e FFF7FEFF 		bl	inv_arc
 2703              	.LVL336:
 2704 0032 F4E7     		b	.L131
 2705              	.LVL337:
 2706              	.L137:
 219:Drivers/lvgl/lvgl/src/extra/widgets/meter/lv_meter.c ****         inv_line(obj, indic, old_end);
 2707              		.loc 1 219 0
 2708 0034 FFF7FEFF 		bl	inv_line
 2709              	.LVL338:
 220:Drivers/lvgl/lvgl/src/extra/widgets/meter/lv_meter.c ****         inv_line(obj, indic, value);
 2710              		.loc 1 220 0
 2711 0038 3A46     		mov	r2, r7
 2712 003a 2146     		mov	r1, r4
 2713 003c 3046     		mov	r0, r6
 2714 003e FFF7FEFF 		bl	inv_line
 2715              	.LVL339:
 221:Drivers/lvgl/lvgl/src/extra/widgets/meter/lv_meter.c ****     }
 2716              		.loc 1 221 0
 2717 0042 2A46     		mov	r2, r5
 2718 0044 2146     		mov	r1, r4
 2719 0046 3046     		mov	r0, r6
 2720 0048 FFF7FEFF 		bl	inv_line
 2721              	.LVL340:
 2722 004c E7E7     		b	.L131
ARM GAS  /tmp/ccVvrzYL.s 			page 85


 2723              		.cfi_endproc
 2724              	.LFE211:
 2726              		.section	.text.lv_meter_set_indicator_start_value,"ax",%progbits
 2727              		.align	1
 2728              		.global	lv_meter_set_indicator_start_value
 2729              		.syntax unified
 2730              		.thumb
 2731              		.thumb_func
 2732              		.fpu fpv5-d16
 2734              	lv_meter_set_indicator_start_value:
 2735              	.LFB212:
 229:Drivers/lvgl/lvgl/src/extra/widgets/meter/lv_meter.c ****     int32_t old_value = indic->start_value;
 2736              		.loc 1 229 0
 2737              		.cfi_startproc
 2738              		@ args = 0, pretend = 0, frame = 0
 2739              		@ frame_needed = 0, uses_anonymous_args = 0
 2740              	.LVL341:
 2741 0000 70B5     		push	{r4, r5, r6, lr}
 2742              	.LCFI33:
 2743              		.cfi_def_cfa_offset 16
 2744              		.cfi_offset 4, -16
 2745              		.cfi_offset 5, -12
 2746              		.cfi_offset 6, -8
 2747              		.cfi_offset 14, -4
 2748 0002 0646     		mov	r6, r0
 2749 0004 0C46     		mov	r4, r1
 2750 0006 1546     		mov	r5, r2
 230:Drivers/lvgl/lvgl/src/extra/widgets/meter/lv_meter.c ****     indic->start_value = value;
 2751              		.loc 1 230 0
 2752 0008 8A68     		ldr	r2, [r1, #8]
 2753              	.LVL342:
 231:Drivers/lvgl/lvgl/src/extra/widgets/meter/lv_meter.c **** 
 2754              		.loc 1 231 0
 2755 000a 8D60     		str	r5, [r1, #8]
 233:Drivers/lvgl/lvgl/src/extra/widgets/meter/lv_meter.c ****         inv_arc(obj, indic, old_value, value);
 2756              		.loc 1 233 0
 2757 000c 0B79     		ldrb	r3, [r1, #4]	@ zero_extendqisi2
 2758 000e 032B     		cmp	r3, #3
 2759 0010 04D0     		beq	.L143
 236:Drivers/lvgl/lvgl/src/extra/widgets/meter/lv_meter.c ****         inv_line(obj, indic, old_value);
 2760              		.loc 1 236 0
 2761 0012 012B     		cmp	r3, #1
 2762 0014 06D9     		bls	.L144
 241:Drivers/lvgl/lvgl/src/extra/widgets/meter/lv_meter.c ****     }
 2763              		.loc 1 241 0
 2764 0016 FFF7FEFF 		bl	lv_obj_invalidate
 2765              	.LVL343:
 2766              	.L138:
 243:Drivers/lvgl/lvgl/src/extra/widgets/meter/lv_meter.c **** 
 2767              		.loc 1 243 0
 2768 001a 70BD     		pop	{r4, r5, r6, pc}
 2769              	.LVL344:
 2770              	.L143:
 234:Drivers/lvgl/lvgl/src/extra/widgets/meter/lv_meter.c ****     }
 2771              		.loc 1 234 0
 2772 001c 2B46     		mov	r3, r5
 2773 001e FFF7FEFF 		bl	inv_arc
ARM GAS  /tmp/ccVvrzYL.s 			page 86


 2774              	.LVL345:
 2775 0022 FAE7     		b	.L138
 2776              	.LVL346:
 2777              	.L144:
 237:Drivers/lvgl/lvgl/src/extra/widgets/meter/lv_meter.c ****         inv_line(obj, indic, value);
 2778              		.loc 1 237 0
 2779 0024 FFF7FEFF 		bl	inv_line
 2780              	.LVL347:
 238:Drivers/lvgl/lvgl/src/extra/widgets/meter/lv_meter.c ****     }
 2781              		.loc 1 238 0
 2782 0028 2A46     		mov	r2, r5
 2783 002a 2146     		mov	r1, r4
 2784 002c 3046     		mov	r0, r6
 2785 002e FFF7FEFF 		bl	inv_line
 2786              	.LVL348:
 2787 0032 F2E7     		b	.L138
 2788              		.cfi_endproc
 2789              	.LFE212:
 2791              		.section	.text.lv_meter_set_indicator_end_value,"ax",%progbits
 2792              		.align	1
 2793              		.global	lv_meter_set_indicator_end_value
 2794              		.syntax unified
 2795              		.thumb
 2796              		.thumb_func
 2797              		.fpu fpv5-d16
 2799              	lv_meter_set_indicator_end_value:
 2800              	.LFB213:
 246:Drivers/lvgl/lvgl/src/extra/widgets/meter/lv_meter.c ****     int32_t old_value = indic->end_value;
 2801              		.loc 1 246 0
 2802              		.cfi_startproc
 2803              		@ args = 0, pretend = 0, frame = 0
 2804              		@ frame_needed = 0, uses_anonymous_args = 0
 2805              	.LVL349:
 2806 0000 70B5     		push	{r4, r5, r6, lr}
 2807              	.LCFI34:
 2808              		.cfi_def_cfa_offset 16
 2809              		.cfi_offset 4, -16
 2810              		.cfi_offset 5, -12
 2811              		.cfi_offset 6, -8
 2812              		.cfi_offset 14, -4
 2813 0002 0646     		mov	r6, r0
 2814 0004 0C46     		mov	r4, r1
 2815 0006 1546     		mov	r5, r2
 247:Drivers/lvgl/lvgl/src/extra/widgets/meter/lv_meter.c ****     indic->end_value = value;
 2816              		.loc 1 247 0
 2817 0008 CA68     		ldr	r2, [r1, #12]
 2818              	.LVL350:
 248:Drivers/lvgl/lvgl/src/extra/widgets/meter/lv_meter.c **** 
 2819              		.loc 1 248 0
 2820 000a CD60     		str	r5, [r1, #12]
 250:Drivers/lvgl/lvgl/src/extra/widgets/meter/lv_meter.c ****         inv_arc(obj, indic, old_value, value);
 2821              		.loc 1 250 0
 2822 000c 0B79     		ldrb	r3, [r1, #4]	@ zero_extendqisi2
 2823 000e 032B     		cmp	r3, #3
 2824 0010 04D0     		beq	.L150
 253:Drivers/lvgl/lvgl/src/extra/widgets/meter/lv_meter.c ****         inv_line(obj, indic, old_value);
 2825              		.loc 1 253 0
ARM GAS  /tmp/ccVvrzYL.s 			page 87


 2826 0012 012B     		cmp	r3, #1
 2827 0014 06D9     		bls	.L151
 258:Drivers/lvgl/lvgl/src/extra/widgets/meter/lv_meter.c ****     }
 2828              		.loc 1 258 0
 2829 0016 FFF7FEFF 		bl	lv_obj_invalidate
 2830              	.LVL351:
 2831              	.L145:
 260:Drivers/lvgl/lvgl/src/extra/widgets/meter/lv_meter.c **** 
 2832              		.loc 1 260 0
 2833 001a 70BD     		pop	{r4, r5, r6, pc}
 2834              	.LVL352:
 2835              	.L150:
 251:Drivers/lvgl/lvgl/src/extra/widgets/meter/lv_meter.c ****     }
 2836              		.loc 1 251 0
 2837 001c 2B46     		mov	r3, r5
 2838 001e FFF7FEFF 		bl	inv_arc
 2839              	.LVL353:
 2840 0022 FAE7     		b	.L145
 2841              	.LVL354:
 2842              	.L151:
 254:Drivers/lvgl/lvgl/src/extra/widgets/meter/lv_meter.c ****         inv_line(obj, indic, value);
 2843              		.loc 1 254 0
 2844 0024 FFF7FEFF 		bl	inv_line
 2845              	.LVL355:
 255:Drivers/lvgl/lvgl/src/extra/widgets/meter/lv_meter.c ****     }
 2846              		.loc 1 255 0
 2847 0028 2A46     		mov	r2, r5
 2848 002a 2146     		mov	r1, r4
 2849 002c 3046     		mov	r0, r6
 2850 002e FFF7FEFF 		bl	inv_line
 2851              	.LVL356:
 2852 0032 F2E7     		b	.L145
 2853              		.cfi_endproc
 2854              	.LFE213:
 2856              		.global	lv_meter_class
 2857              		.section	.rodata.draw_ticks_and_labels.str1.4,"aMS",%progbits,1
 2858              		.align	2
 2859              	.LC0:
 2860 0000 256C6400 		.ascii	"%ld\000"
 2861              		.section	.rodata.lv_meter_class,"a",%progbits
 2862              		.align	2
 2863              		.set	.LANCHOR0,. + 0
 2866              	lv_meter_class:
 2867 0000 00000000 		.word	lv_obj_class
 2868 0004 00000000 		.word	lv_meter_constructor
 2869 0008 00000000 		.word	lv_meter_destructor
 2870 000c 00000000 		.space	4
 2871 0010 00000000 		.word	lv_meter_event
 2872 0014 00000000 		.space	4
 2873 0018 C0       		.byte	192
 2874 0019 03       		.byte	3
 2875 001a 00       		.byte	0
 2876 001b 00       		.space	1
 2877              		.text
 2878              	.Letext0:
 2879              		.file 6 "/opt/gcc-arm-none-eabi-7-2017-q4-major/arm-none-eabi/include/machine/_default_types.h"
 2880              		.file 7 "/opt/gcc-arm-none-eabi-7-2017-q4-major/arm-none-eabi/include/sys/_stdint.h"
ARM GAS  /tmp/ccVvrzYL.s 			page 88


 2881              		.file 8 "Drivers/lvgl/lvgl/src/extra/widgets/meter/../../../../src/misc/lv_types.h"
 2882              		.file 9 "/opt/gcc-arm-none-eabi-7-2017-q4-major/lib/gcc/arm-none-eabi/7.2.1/include/stddef.h"
 2883              		.file 10 "/opt/gcc-arm-none-eabi-7-2017-q4-major/arm-none-eabi/include/sys/lock.h"
 2884              		.file 11 "/opt/gcc-arm-none-eabi-7-2017-q4-major/arm-none-eabi/include/sys/_types.h"
 2885              		.file 12 "/opt/gcc-arm-none-eabi-7-2017-q4-major/arm-none-eabi/include/sys/reent.h"
 2886              		.file 13 "Drivers/lvgl/lvgl/src/extra/widgets/meter/../../../../src/hal/../draw/../misc/../font/lv
 2887              		.file 14 "Drivers/lvgl/lvgl/src/extra/widgets/meter/../../../../src/hal/../draw/../misc/lv_txt.h"
 2888              		.file 15 "Drivers/lvgl/lvgl/src/extra/widgets/meter/../../../../src/hal/../draw/../misc/lv_bidi.h"
 2889              		.file 16 "Drivers/lvgl/lvgl/src/extra/widgets/meter/../../../../src/hal/../draw/../misc/lv_style.h
 2890              		.file 17 "Drivers/lvgl/lvgl/src/extra/widgets/meter/../../../../src/hal/../draw/lv_img_buf.h"
 2891              		.file 18 "Drivers/lvgl/lvgl/src/extra/widgets/meter/../../../../src/core/lv_obj.h"
 2892              		.file 19 "Drivers/lvgl/lvgl/src/extra/widgets/meter/../../../../src/hal/../draw/lv_draw_rect.h"
 2893              		.file 20 "Drivers/lvgl/lvgl/src/extra/widgets/meter/../../../../src/hal/../draw/lv_draw_label.h"
 2894              		.file 21 "Drivers/lvgl/lvgl/src/extra/widgets/meter/../../../../src/hal/../draw/lv_draw_img.h"
 2895              		.file 22 "Drivers/lvgl/lvgl/src/extra/widgets/meter/../../../../src/hal/../draw/lv_draw_line.h"
 2896              		.file 23 "Drivers/lvgl/lvgl/src/extra/widgets/meter/../../../../src/hal/../draw/lv_draw_arc.h"
 2897              		.file 24 "Drivers/lvgl/lvgl/src/extra/widgets/meter/../../../../src/hal/../draw/lv_draw_mask.h"
 2898              		.file 25 "Drivers/lvgl/lvgl/src/extra/widgets/meter/../../../../src/hal/../draw/lv_draw_layer.h"
 2899              		.file 26 "Drivers/lvgl/lvgl/src/extra/widgets/meter/../../../../src/hal/../draw/lv_draw.h"
 2900              		.file 27 "Drivers/lvgl/lvgl/src/extra/widgets/meter/../../../../src/hal/../misc/lv_ll.h"
 2901              		.file 28 "Drivers/lvgl/lvgl/src/extra/widgets/meter/../../../../src/core/lv_group.h"
 2902              		.file 29 "Drivers/lvgl/lvgl/src/extra/widgets/meter/../../../../src/core/lv_obj_scroll.h"
 2903              		.file 30 "Drivers/lvgl/lvgl/src/extra/widgets/meter/../../../../src/core/lv_obj_style.h"
 2904              		.file 31 "Drivers/lvgl/lvgl/src/extra/widgets/meter/../../../../src/core/lv_obj_draw.h"
 2905              		.file 32 "Drivers/lvgl/lvgl/src/extra/widgets/meter/../../../../src/core/lv_obj_class.h"
 2906              		.file 33 "Drivers/lvgl/lvgl/src/extra/widgets/meter/../../../../src/core/lv_event.h"
 2907              		.file 34 "Drivers/lvgl/lvgl/src/extra/widgets/meter/../../../../src/widgets/lv_arc.h"
 2908              		.file 35 "Drivers/lvgl/lvgl/src/extra/widgets/meter/../../../../src/widgets/lv_btn.h"
 2909              		.file 36 "Drivers/lvgl/lvgl/src/extra/widgets/meter/../../../../src/widgets/lv_img.h"
 2910              		.file 37 "Drivers/lvgl/lvgl/src/extra/widgets/meter/../../../../src/widgets/lv_label.h"
 2911              		.file 38 "Drivers/lvgl/lvgl/src/extra/widgets/meter/../../../../src/widgets/lv_line.h"
 2912              		.file 39 "Drivers/lvgl/lvgl/src/extra/widgets/meter/../../../../src/widgets/lv_table.h"
 2913              		.file 40 "Drivers/lvgl/lvgl/src/extra/widgets/meter/../../../../src/widgets/lv_checkbox.h"
 2914              		.file 41 "Drivers/lvgl/lvgl/src/extra/widgets/meter/../../../../src/widgets/lv_bar.h"
 2915              		.file 42 "Drivers/lvgl/lvgl/src/extra/widgets/meter/../../../../src/widgets/lv_slider.h"
 2916              		.file 43 "Drivers/lvgl/lvgl/src/extra/widgets/meter/../../../../src/widgets/lv_btnmatrix.h"
 2917              		.file 44 "Drivers/lvgl/lvgl/src/extra/widgets/meter/../../../../src/widgets/lv_dropdown.h"
 2918              		.file 45 "Drivers/lvgl/lvgl/src/extra/widgets/meter/../../../../src/widgets/lv_roller.h"
 2919              		.file 46 "Drivers/lvgl/lvgl/src/extra/widgets/meter/../../../../src/widgets/lv_textarea.h"
 2920              		.file 47 "Drivers/lvgl/lvgl/src/extra/widgets/meter/../../../../src/widgets/lv_canvas.h"
 2921              		.file 48 "Drivers/lvgl/lvgl/src/extra/widgets/meter/../../../../src/widgets/lv_switch.h"
 2922              		.file 49 "Drivers/lvgl/lvgl/src/extra/widgets/meter/../../../../src/extra/layouts/flex/lv_flex.h"
 2923              		.file 50 "Drivers/lvgl/lvgl/src/extra/widgets/meter/../../../../src/extra/layouts/grid/lv_grid.h"
 2924              		.file 51 "Drivers/lvgl/lvgl/src/extra/widgets/meter/../../../../src/extra/widgets/animimg/lv_animi
 2925              		.file 52 "Drivers/lvgl/lvgl/src/extra/widgets/meter/../../../../src/extra/widgets/calendar/lv_cale
 2926              		.file 53 "Drivers/lvgl/lvgl/src/extra/widgets/meter/../../../../src/extra/widgets/calendar/lv_cale
 2927              		.file 54 "Drivers/lvgl/lvgl/src/extra/widgets/meter/../../../../src/extra/widgets/calendar/lv_cale
 2928              		.file 55 "Drivers/lvgl/lvgl/src/extra/widgets/meter/../../../../src/extra/widgets/chart/lv_chart.h
 2929              		.file 56 "Drivers/lvgl/lvgl/src/extra/widgets/meter/../../../../src/extra/widgets/keyboard/lv_keyb
 2930              		.file 57 "Drivers/lvgl/lvgl/src/extra/widgets/meter/../../../../src/extra/widgets/list/lv_list.h"
 2931              		.file 58 "Drivers/lvgl/lvgl/src/extra/widgets/meter/../../../../src/extra/widgets/menu/lv_menu.h"
 2932              		.file 59 "Drivers/lvgl/lvgl/src/extra/widgets/meter/../../../../src/extra/widgets/msgbox/lv_msgbox
 2933              		.file 60 "Drivers/lvgl/lvgl/src/extra/widgets/meter/../../../../src/extra/widgets/spinbox/lv_spinb
 2934              		.file 61 "Drivers/lvgl/lvgl/src/extra/widgets/meter/../../../../src/extra/widgets/spinner/lv_spinn
 2935              		.file 62 "Drivers/lvgl/lvgl/src/extra/widgets/meter/../../../../src/extra/widgets/tabview/lv_tabvi
 2936              		.file 63 "Drivers/lvgl/lvgl/src/extra/widgets/meter/../../../../src/extra/widgets/tileview/lv_tile
 2937              		.file 64 "Drivers/lvgl/lvgl/src/extra/widgets/meter/../../../../src/extra/widgets/win/lv_win.h"
ARM GAS  /tmp/ccVvrzYL.s 			page 89


 2938              		.file 65 "Drivers/lvgl/lvgl/src/extra/widgets/meter/../../../../src/extra/widgets/colorwheel/lv_co
 2939              		.file 66 "Drivers/lvgl/lvgl/src/extra/widgets/meter/../../../../src/extra/widgets/led/lv_led.h"
 2940              		.file 67 "Drivers/lvgl/lvgl/src/extra/widgets/meter/../../../../src/extra/widgets/imgbtn/lv_imgbtn
 2941              		.file 68 "Drivers/lvgl/lvgl/src/extra/widgets/meter/../../../../src/extra/widgets/span/lv_span.h"
 2942              		.file 69 "Drivers/lvgl/lvgl/src/extra/widgets/meter/lv_meter.h"
 2943              		.file 70 "Drivers/lvgl/lvgl/src/extra/widgets/meter/../../../../src/hal/../draw/sw/../../core/lv_o
 2944              		.file 71 "Drivers/lvgl/lvgl/src/extra/widgets/meter/../../../../src/hal/../draw/lv_img_decoder.h"
 2945              		.file 72 "Drivers/lvgl/lvgl/src/extra/widgets/meter/../../../../src/misc/lv_mem.h"
 2946              		.file 73 "Drivers/lvgl/lvgl/src/extra/widgets/meter/../../../../src/misc/lv_printf.h"
ARM GAS  /tmp/ccVvrzYL.s 			page 90


DEFINED SYMBOLS
                            *ABS*:0000000000000000 lv_meter.c
     /tmp/ccVvrzYL.s:17     .text.draw_arcs:0000000000000000 $t
     /tmp/ccVvrzYL.s:23     .text.draw_arcs:0000000000000000 draw_arcs
     /tmp/ccVvrzYL.s:269    .text.draw_arcs:0000000000000138 $d
     /tmp/ccVvrzYL.s:274    .text.draw_ticks_and_labels:0000000000000000 $t
     /tmp/ccVvrzYL.s:280    .text.draw_ticks_and_labels:0000000000000000 draw_ticks_and_labels
     /tmp/ccVvrzYL.s:857    .text.draw_ticks_and_labels:0000000000000354 $d
     /tmp/ccVvrzYL.s:863    .text.draw_ticks_and_labels:0000000000000360 $t
     /tmp/ccVvrzYL.s:1008   .text.draw_needles:0000000000000000 $t
     /tmp/ccVvrzYL.s:1014   .text.draw_needles:0000000000000000 draw_needles
     /tmp/ccVvrzYL.s:1393   .text.draw_needles:0000000000000238 $d
     /tmp/ccVvrzYL.s:1399   .text.lv_meter_event:0000000000000000 $t
     /tmp/ccVvrzYL.s:1405   .text.lv_meter_event:0000000000000000 lv_meter_event
     /tmp/ccVvrzYL.s:1608   .text.lv_meter_event:00000000000000f0 $d
     /tmp/ccVvrzYL.s:1614   .text.lv_meter_destructor:0000000000000000 $t
     /tmp/ccVvrzYL.s:1620   .text.lv_meter_destructor:0000000000000000 lv_meter_destructor
     /tmp/ccVvrzYL.s:1649   .text.lv_meter_constructor:0000000000000000 $t
     /tmp/ccVvrzYL.s:1655   .text.lv_meter_constructor:0000000000000000 lv_meter_constructor
     /tmp/ccVvrzYL.s:1687   .text.inv_arc:0000000000000000 $t
     /tmp/ccVvrzYL.s:1693   .text.inv_arc:0000000000000000 inv_arc
     /tmp/ccVvrzYL.s:1848   .text.inv_line:0000000000000000 $t
     /tmp/ccVvrzYL.s:1854   .text.inv_line:0000000000000000 inv_line
     /tmp/ccVvrzYL.s:2125   .text.inv_line:00000000000001b0 $d
     /tmp/ccVvrzYL.s:2130   .text.lv_meter_create:0000000000000000 $t
     /tmp/ccVvrzYL.s:2137   .text.lv_meter_create:0000000000000000 lv_meter_create
     /tmp/ccVvrzYL.s:2167   .text.lv_meter_create:0000000000000014 $d
     /tmp/ccVvrzYL.s:2172   .text.lv_meter_add_scale:0000000000000000 $t
     /tmp/ccVvrzYL.s:2179   .text.lv_meter_add_scale:0000000000000000 lv_meter_add_scale
     /tmp/ccVvrzYL.s:2237   .text.lv_meter_set_scale_ticks:0000000000000000 $t
     /tmp/ccVvrzYL.s:2244   .text.lv_meter_set_scale_ticks:0000000000000000 lv_meter_set_scale_ticks
     /tmp/ccVvrzYL.s:2276   .text.lv_meter_set_scale_major_ticks:0000000000000000 $t
     /tmp/ccVvrzYL.s:2283   .text.lv_meter_set_scale_major_ticks:0000000000000000 lv_meter_set_scale_major_ticks
     /tmp/ccVvrzYL.s:2318   .text.lv_meter_set_scale_range:0000000000000000 $t
     /tmp/ccVvrzYL.s:2325   .text.lv_meter_set_scale_range:0000000000000000 lv_meter_set_scale_range
     /tmp/ccVvrzYL.s:2357   .text.lv_meter_add_needle_line:0000000000000000 $t
     /tmp/ccVvrzYL.s:2364   .text.lv_meter_add_needle_line:0000000000000000 lv_meter_add_needle_line
     /tmp/ccVvrzYL.s:2427   .text.lv_meter_add_needle_img:0000000000000000 $t
     /tmp/ccVvrzYL.s:2434   .text.lv_meter_add_needle_img:0000000000000000 lv_meter_add_needle_img
     /tmp/ccVvrzYL.s:2496   .text.lv_meter_add_arc:0000000000000000 $t
     /tmp/ccVvrzYL.s:2503   .text.lv_meter_add_arc:0000000000000000 lv_meter_add_arc
     /tmp/ccVvrzYL.s:2566   .text.lv_meter_add_scale_lines:0000000000000000 $t
     /tmp/ccVvrzYL.s:2573   .text.lv_meter_add_scale_lines:0000000000000000 lv_meter_add_scale_lines
     /tmp/ccVvrzYL.s:2642   .text.lv_meter_set_indicator_value:0000000000000000 $t
     /tmp/ccVvrzYL.s:2649   .text.lv_meter_set_indicator_value:0000000000000000 lv_meter_set_indicator_value
     /tmp/ccVvrzYL.s:2727   .text.lv_meter_set_indicator_start_value:0000000000000000 $t
     /tmp/ccVvrzYL.s:2734   .text.lv_meter_set_indicator_start_value:0000000000000000 lv_meter_set_indicator_start_value
     /tmp/ccVvrzYL.s:2792   .text.lv_meter_set_indicator_end_value:0000000000000000 $t
     /tmp/ccVvrzYL.s:2799   .text.lv_meter_set_indicator_end_value:0000000000000000 lv_meter_set_indicator_end_value
     /tmp/ccVvrzYL.s:2866   .rodata.lv_meter_class:0000000000000000 lv_meter_class
     /tmp/ccVvrzYL.s:2858   .rodata.draw_ticks_and_labels.str1.4:0000000000000000 $d
     /tmp/ccVvrzYL.s:2862   .rodata.lv_meter_class:0000000000000000 $d

UNDEFINED SYMBOLS
lv_draw_arc_dsc_init
lv_obj_get_style_prop
lv_obj_draw_dsc_init
ARM GAS  /tmp/ccVvrzYL.s 			page 91


_lv_ll_get_tail
lv_map
lv_event_send
lv_draw_arc
_lv_ll_get_prev
lv_draw_line_dsc_init
lv_obj_init_draw_line_dsc
lv_draw_label_dsc_init
lv_obj_init_draw_label_dsc
lv_point_transform
lv_draw_mask_remove_id
lv_memcpy
lv_snprintf
lv_txt_get_size
lv_draw_label
lv_draw_mask_add
lv_draw_line
lv_draw_mask_free_param
lv_draw_mask_radius_init
lv_draw_img_dsc_init
lv_obj_init_draw_img_dsc
lv_trigo_sin
lv_draw_img
lv_img_decoder_get_info
lv_obj_event_base
lv_event_get_code
lv_event_get_target
lv_event_get_draw_ctx
lv_obj_get_content_coords
lv_draw_rect_dsc_init
lv_obj_init_draw_rect_dsc
lv_draw_rect
_lv_ll_clear
_lv_ll_init
lv_draw_arc_get_area
lv_obj_invalidate_area
_lv_img_buf_get_transformed_area
lv_obj_class_create_obj
lv_obj_class_init_obj
_lv_ll_ins_head
lv_memset_00
lv_obj_invalidate
lv_obj_class
