ARM GAS  /tmp/ccJvwpHF.s 			page 1


   1              		.cpu cortex-m7
   2              		.eabi_attribute 28, 1
   3              		.eabi_attribute 20, 1
   4              		.eabi_attribute 21, 1
   5              		.eabi_attribute 23, 3
   6              		.eabi_attribute 24, 1
   7              		.eabi_attribute 25, 1
   8              		.eabi_attribute 26, 1
   9              		.eabi_attribute 30, 1
  10              		.eabi_attribute 34, 1
  11              		.eabi_attribute 18, 4
  12              		.file	"lv_obj.c"
  13              		.text
  14              	.Ltext0:
  15              		.cfi_sections	.debug_frame
  16              		.section	.text.obj_valid_child,"ax",%progbits
  17              		.align	1
  18              		.syntax unified
  19              		.thumb
  20              		.thumb_func
  21              		.fpu fpv5-d16
  23              	obj_valid_child:
  24              	.LFB227:
  25              		.file 1 "Drivers/lvgl/lvgl/src/core/lv_obj.c"
   1:Drivers/lvgl/lvgl/src/core/lv_obj.c **** /**
   2:Drivers/lvgl/lvgl/src/core/lv_obj.c ****  * @file lv_obj.c
   3:Drivers/lvgl/lvgl/src/core/lv_obj.c ****  *
   4:Drivers/lvgl/lvgl/src/core/lv_obj.c ****  */
   5:Drivers/lvgl/lvgl/src/core/lv_obj.c **** 
   6:Drivers/lvgl/lvgl/src/core/lv_obj.c **** /*********************
   7:Drivers/lvgl/lvgl/src/core/lv_obj.c ****  *      INCLUDES
   8:Drivers/lvgl/lvgl/src/core/lv_obj.c ****  *********************/
   9:Drivers/lvgl/lvgl/src/core/lv_obj.c **** #include "lv_obj.h"
  10:Drivers/lvgl/lvgl/src/core/lv_obj.c **** #include "lv_indev.h"
  11:Drivers/lvgl/lvgl/src/core/lv_obj.c **** #include "lv_refr.h"
  12:Drivers/lvgl/lvgl/src/core/lv_obj.c **** #include "lv_group.h"
  13:Drivers/lvgl/lvgl/src/core/lv_obj.c **** #include "lv_disp.h"
  14:Drivers/lvgl/lvgl/src/core/lv_obj.c **** #include "lv_theme.h"
  15:Drivers/lvgl/lvgl/src/core/lv_obj.c **** #include "../misc/lv_assert.h"
  16:Drivers/lvgl/lvgl/src/core/lv_obj.c **** #include "../draw/lv_draw.h"
  17:Drivers/lvgl/lvgl/src/core/lv_obj.c **** #include "../misc/lv_anim.h"
  18:Drivers/lvgl/lvgl/src/core/lv_obj.c **** #include "../misc/lv_timer.h"
  19:Drivers/lvgl/lvgl/src/core/lv_obj.c **** #include "../misc/lv_async.h"
  20:Drivers/lvgl/lvgl/src/core/lv_obj.c **** #include "../misc/lv_fs.h"
  21:Drivers/lvgl/lvgl/src/core/lv_obj.c **** #include "../misc/lv_gc.h"
  22:Drivers/lvgl/lvgl/src/core/lv_obj.c **** #include "../misc/lv_math.h"
  23:Drivers/lvgl/lvgl/src/core/lv_obj.c **** #include "../misc/lv_log.h"
  24:Drivers/lvgl/lvgl/src/core/lv_obj.c **** #include "../hal/lv_hal.h"
  25:Drivers/lvgl/lvgl/src/core/lv_obj.c **** #include "../extra/lv_extra.h"
  26:Drivers/lvgl/lvgl/src/core/lv_obj.c **** #include <stdint.h>
  27:Drivers/lvgl/lvgl/src/core/lv_obj.c **** #include <string.h>
  28:Drivers/lvgl/lvgl/src/core/lv_obj.c **** 
  29:Drivers/lvgl/lvgl/src/core/lv_obj.c **** #if LV_USE_GPU_STM32_DMA2D
  30:Drivers/lvgl/lvgl/src/core/lv_obj.c ****     #include "../draw/stm32_dma2d/lv_gpu_stm32_dma2d.h"
  31:Drivers/lvgl/lvgl/src/core/lv_obj.c **** #endif
  32:Drivers/lvgl/lvgl/src/core/lv_obj.c **** 
  33:Drivers/lvgl/lvgl/src/core/lv_obj.c **** #if LV_USE_GPU_SWM341_DMA2D
ARM GAS  /tmp/ccJvwpHF.s 			page 2


  34:Drivers/lvgl/lvgl/src/core/lv_obj.c ****     #include "../draw/swm341_dma2d/lv_gpu_swm341_dma2d.h"
  35:Drivers/lvgl/lvgl/src/core/lv_obj.c **** #endif
  36:Drivers/lvgl/lvgl/src/core/lv_obj.c **** 
  37:Drivers/lvgl/lvgl/src/core/lv_obj.c **** #if LV_USE_GPU_NXP_PXP && LV_USE_GPU_NXP_PXP_AUTO_INIT
  38:Drivers/lvgl/lvgl/src/core/lv_obj.c ****     #include "../draw/nxp/pxp/lv_gpu_nxp_pxp.h"
  39:Drivers/lvgl/lvgl/src/core/lv_obj.c **** #endif
  40:Drivers/lvgl/lvgl/src/core/lv_obj.c **** 
  41:Drivers/lvgl/lvgl/src/core/lv_obj.c **** /*********************
  42:Drivers/lvgl/lvgl/src/core/lv_obj.c ****  *      DEFINES
  43:Drivers/lvgl/lvgl/src/core/lv_obj.c ****  *********************/
  44:Drivers/lvgl/lvgl/src/core/lv_obj.c **** #define MY_CLASS &lv_obj_class
  45:Drivers/lvgl/lvgl/src/core/lv_obj.c **** #define LV_OBJ_DEF_WIDTH    (LV_DPX(100))
  46:Drivers/lvgl/lvgl/src/core/lv_obj.c **** #define LV_OBJ_DEF_HEIGHT   (LV_DPX(50))
  47:Drivers/lvgl/lvgl/src/core/lv_obj.c **** #define STYLE_TRANSITION_MAX 32
  48:Drivers/lvgl/lvgl/src/core/lv_obj.c **** 
  49:Drivers/lvgl/lvgl/src/core/lv_obj.c **** /**********************
  50:Drivers/lvgl/lvgl/src/core/lv_obj.c ****  *      TYPEDEFS
  51:Drivers/lvgl/lvgl/src/core/lv_obj.c ****  **********************/
  52:Drivers/lvgl/lvgl/src/core/lv_obj.c **** 
  53:Drivers/lvgl/lvgl/src/core/lv_obj.c **** /**********************
  54:Drivers/lvgl/lvgl/src/core/lv_obj.c ****  *  STATIC PROTOTYPES
  55:Drivers/lvgl/lvgl/src/core/lv_obj.c ****  **********************/
  56:Drivers/lvgl/lvgl/src/core/lv_obj.c **** static void lv_obj_constructor(const lv_obj_class_t * class_p, lv_obj_t * obj);
  57:Drivers/lvgl/lvgl/src/core/lv_obj.c **** static void lv_obj_destructor(const lv_obj_class_t * class_p, lv_obj_t * obj);
  58:Drivers/lvgl/lvgl/src/core/lv_obj.c **** static void lv_obj_draw(lv_event_t * e);
  59:Drivers/lvgl/lvgl/src/core/lv_obj.c **** static void lv_obj_event(const lv_obj_class_t * class_p, lv_event_t * e);
  60:Drivers/lvgl/lvgl/src/core/lv_obj.c **** static void draw_scrollbar(lv_obj_t * obj, lv_draw_ctx_t * draw_ctx);
  61:Drivers/lvgl/lvgl/src/core/lv_obj.c **** static lv_res_t scrollbar_init_draw_dsc(lv_obj_t * obj, lv_draw_rect_dsc_t * dsc);
  62:Drivers/lvgl/lvgl/src/core/lv_obj.c **** static bool obj_valid_child(const lv_obj_t * parent, const lv_obj_t * obj_to_find);
  63:Drivers/lvgl/lvgl/src/core/lv_obj.c **** static void lv_obj_set_state(lv_obj_t * obj, lv_state_t new_state);
  64:Drivers/lvgl/lvgl/src/core/lv_obj.c **** 
  65:Drivers/lvgl/lvgl/src/core/lv_obj.c **** /**********************
  66:Drivers/lvgl/lvgl/src/core/lv_obj.c ****  *  STATIC VARIABLES
  67:Drivers/lvgl/lvgl/src/core/lv_obj.c ****  **********************/
  68:Drivers/lvgl/lvgl/src/core/lv_obj.c **** static bool lv_initialized = false;
  69:Drivers/lvgl/lvgl/src/core/lv_obj.c **** const lv_obj_class_t lv_obj_class = {
  70:Drivers/lvgl/lvgl/src/core/lv_obj.c ****     .constructor_cb = lv_obj_constructor,
  71:Drivers/lvgl/lvgl/src/core/lv_obj.c ****     .destructor_cb = lv_obj_destructor,
  72:Drivers/lvgl/lvgl/src/core/lv_obj.c ****     .event_cb = lv_obj_event,
  73:Drivers/lvgl/lvgl/src/core/lv_obj.c ****     .width_def = LV_DPI_DEF,
  74:Drivers/lvgl/lvgl/src/core/lv_obj.c ****     .height_def = LV_DPI_DEF,
  75:Drivers/lvgl/lvgl/src/core/lv_obj.c ****     .editable = LV_OBJ_CLASS_EDITABLE_FALSE,
  76:Drivers/lvgl/lvgl/src/core/lv_obj.c ****     .group_def = LV_OBJ_CLASS_GROUP_DEF_FALSE,
  77:Drivers/lvgl/lvgl/src/core/lv_obj.c ****     .instance_size = (sizeof(lv_obj_t)),
  78:Drivers/lvgl/lvgl/src/core/lv_obj.c ****     .base_class = NULL,
  79:Drivers/lvgl/lvgl/src/core/lv_obj.c **** };
  80:Drivers/lvgl/lvgl/src/core/lv_obj.c **** 
  81:Drivers/lvgl/lvgl/src/core/lv_obj.c **** /**********************
  82:Drivers/lvgl/lvgl/src/core/lv_obj.c ****  *      MACROS
  83:Drivers/lvgl/lvgl/src/core/lv_obj.c ****  **********************/
  84:Drivers/lvgl/lvgl/src/core/lv_obj.c **** 
  85:Drivers/lvgl/lvgl/src/core/lv_obj.c **** /**********************
  86:Drivers/lvgl/lvgl/src/core/lv_obj.c ****  *   GLOBAL FUNCTIONS
  87:Drivers/lvgl/lvgl/src/core/lv_obj.c ****  **********************/
  88:Drivers/lvgl/lvgl/src/core/lv_obj.c **** 
  89:Drivers/lvgl/lvgl/src/core/lv_obj.c **** bool lv_is_initialized(void)
  90:Drivers/lvgl/lvgl/src/core/lv_obj.c **** {
ARM GAS  /tmp/ccJvwpHF.s 			page 3


  91:Drivers/lvgl/lvgl/src/core/lv_obj.c ****     return lv_initialized;
  92:Drivers/lvgl/lvgl/src/core/lv_obj.c **** }
  93:Drivers/lvgl/lvgl/src/core/lv_obj.c **** 
  94:Drivers/lvgl/lvgl/src/core/lv_obj.c **** void lv_init(void)
  95:Drivers/lvgl/lvgl/src/core/lv_obj.c **** {
  96:Drivers/lvgl/lvgl/src/core/lv_obj.c ****     /*Do nothing if already initialized*/
  97:Drivers/lvgl/lvgl/src/core/lv_obj.c ****     if(lv_initialized) {
  98:Drivers/lvgl/lvgl/src/core/lv_obj.c ****         LV_LOG_WARN("lv_init: already inited");
  99:Drivers/lvgl/lvgl/src/core/lv_obj.c ****         return;
 100:Drivers/lvgl/lvgl/src/core/lv_obj.c ****     }
 101:Drivers/lvgl/lvgl/src/core/lv_obj.c **** 
 102:Drivers/lvgl/lvgl/src/core/lv_obj.c ****     LV_LOG_INFO("begin");
 103:Drivers/lvgl/lvgl/src/core/lv_obj.c **** 
 104:Drivers/lvgl/lvgl/src/core/lv_obj.c ****     /*Initialize the misc modules*/
 105:Drivers/lvgl/lvgl/src/core/lv_obj.c ****     lv_mem_init();
 106:Drivers/lvgl/lvgl/src/core/lv_obj.c **** 
 107:Drivers/lvgl/lvgl/src/core/lv_obj.c ****     _lv_timer_core_init();
 108:Drivers/lvgl/lvgl/src/core/lv_obj.c **** 
 109:Drivers/lvgl/lvgl/src/core/lv_obj.c ****     _lv_fs_init();
 110:Drivers/lvgl/lvgl/src/core/lv_obj.c **** 
 111:Drivers/lvgl/lvgl/src/core/lv_obj.c ****     _lv_anim_core_init();
 112:Drivers/lvgl/lvgl/src/core/lv_obj.c **** 
 113:Drivers/lvgl/lvgl/src/core/lv_obj.c ****     _lv_group_init();
 114:Drivers/lvgl/lvgl/src/core/lv_obj.c **** 
 115:Drivers/lvgl/lvgl/src/core/lv_obj.c ****     lv_draw_init();
 116:Drivers/lvgl/lvgl/src/core/lv_obj.c **** 
 117:Drivers/lvgl/lvgl/src/core/lv_obj.c **** #if LV_USE_GPU_STM32_DMA2D
 118:Drivers/lvgl/lvgl/src/core/lv_obj.c ****     /*Initialize DMA2D GPU*/
 119:Drivers/lvgl/lvgl/src/core/lv_obj.c ****     lv_draw_stm32_dma2d_init();
 120:Drivers/lvgl/lvgl/src/core/lv_obj.c **** #endif
 121:Drivers/lvgl/lvgl/src/core/lv_obj.c **** 
 122:Drivers/lvgl/lvgl/src/core/lv_obj.c **** #if LV_USE_GPU_SWM341_DMA2D
 123:Drivers/lvgl/lvgl/src/core/lv_obj.c ****     /*Initialize DMA2D GPU*/
 124:Drivers/lvgl/lvgl/src/core/lv_obj.c ****     lv_draw_swm341_dma2d_init();
 125:Drivers/lvgl/lvgl/src/core/lv_obj.c **** #endif
 126:Drivers/lvgl/lvgl/src/core/lv_obj.c **** 
 127:Drivers/lvgl/lvgl/src/core/lv_obj.c **** #if LV_USE_GPU_NXP_PXP && LV_USE_GPU_NXP_PXP_AUTO_INIT
 128:Drivers/lvgl/lvgl/src/core/lv_obj.c ****     PXP_COND_STOP(!lv_gpu_nxp_pxp_init(), "PXP init failed.");
 129:Drivers/lvgl/lvgl/src/core/lv_obj.c **** #endif
 130:Drivers/lvgl/lvgl/src/core/lv_obj.c **** 
 131:Drivers/lvgl/lvgl/src/core/lv_obj.c ****     _lv_obj_style_init();
 132:Drivers/lvgl/lvgl/src/core/lv_obj.c ****     _lv_ll_init(&LV_GC_ROOT(_lv_disp_ll), sizeof(lv_disp_t));
 133:Drivers/lvgl/lvgl/src/core/lv_obj.c ****     _lv_ll_init(&LV_GC_ROOT(_lv_indev_ll), sizeof(lv_indev_t));
 134:Drivers/lvgl/lvgl/src/core/lv_obj.c **** 
 135:Drivers/lvgl/lvgl/src/core/lv_obj.c ****     /*Initialize the screen refresh system*/
 136:Drivers/lvgl/lvgl/src/core/lv_obj.c ****     _lv_refr_init();
 137:Drivers/lvgl/lvgl/src/core/lv_obj.c **** 
 138:Drivers/lvgl/lvgl/src/core/lv_obj.c ****     _lv_img_decoder_init();
 139:Drivers/lvgl/lvgl/src/core/lv_obj.c **** #if LV_IMG_CACHE_DEF_SIZE
 140:Drivers/lvgl/lvgl/src/core/lv_obj.c ****     lv_img_cache_set_size(LV_IMG_CACHE_DEF_SIZE);
 141:Drivers/lvgl/lvgl/src/core/lv_obj.c **** #endif
 142:Drivers/lvgl/lvgl/src/core/lv_obj.c ****     /*Test if the IDE has UTF-8 encoding*/
 143:Drivers/lvgl/lvgl/src/core/lv_obj.c ****     char * txt = "Ã";
 144:Drivers/lvgl/lvgl/src/core/lv_obj.c **** 
 145:Drivers/lvgl/lvgl/src/core/lv_obj.c ****     uint8_t * txt_u8 = (uint8_t *)txt;
 146:Drivers/lvgl/lvgl/src/core/lv_obj.c ****     if(txt_u8[0] != 0xc3 || txt_u8[1] != 0x81 || txt_u8[2] != 0x00) {
 147:Drivers/lvgl/lvgl/src/core/lv_obj.c ****         LV_LOG_WARN("The strings have no UTF-8 encoding. Non-ASCII characters won't be displayed.")
ARM GAS  /tmp/ccJvwpHF.s 			page 4


 148:Drivers/lvgl/lvgl/src/core/lv_obj.c ****     }
 149:Drivers/lvgl/lvgl/src/core/lv_obj.c **** 
 150:Drivers/lvgl/lvgl/src/core/lv_obj.c ****     uint32_t endianess_test = 0x11223344;
 151:Drivers/lvgl/lvgl/src/core/lv_obj.c ****     uint8_t * endianess_test_p = (uint8_t *) &endianess_test;
 152:Drivers/lvgl/lvgl/src/core/lv_obj.c ****     bool big_endian = endianess_test_p[0] == 0x11 ? true : false;
 153:Drivers/lvgl/lvgl/src/core/lv_obj.c **** 
 154:Drivers/lvgl/lvgl/src/core/lv_obj.c ****     if(big_endian) {
 155:Drivers/lvgl/lvgl/src/core/lv_obj.c ****         LV_ASSERT_MSG(LV_BIG_ENDIAN_SYSTEM == 1,
 156:Drivers/lvgl/lvgl/src/core/lv_obj.c ****                       "It's a big endian system but LV_BIG_ENDIAN_SYSTEM is not enabled in lv_conf.
 157:Drivers/lvgl/lvgl/src/core/lv_obj.c ****     }
 158:Drivers/lvgl/lvgl/src/core/lv_obj.c ****     else {
 159:Drivers/lvgl/lvgl/src/core/lv_obj.c ****         LV_ASSERT_MSG(LV_BIG_ENDIAN_SYSTEM == 0,
 160:Drivers/lvgl/lvgl/src/core/lv_obj.c ****                       "It's a little endian system but LV_BIG_ENDIAN_SYSTEM is enabled in lv_conf.h
 161:Drivers/lvgl/lvgl/src/core/lv_obj.c ****     }
 162:Drivers/lvgl/lvgl/src/core/lv_obj.c **** 
 163:Drivers/lvgl/lvgl/src/core/lv_obj.c **** #if LV_USE_ASSERT_MEM_INTEGRITY
 164:Drivers/lvgl/lvgl/src/core/lv_obj.c ****     LV_LOG_WARN("Memory integrity checks are enabled via LV_USE_ASSERT_MEM_INTEGRITY which makes LV
 165:Drivers/lvgl/lvgl/src/core/lv_obj.c **** #endif
 166:Drivers/lvgl/lvgl/src/core/lv_obj.c **** 
 167:Drivers/lvgl/lvgl/src/core/lv_obj.c **** #if LV_USE_ASSERT_OBJ
 168:Drivers/lvgl/lvgl/src/core/lv_obj.c ****     LV_LOG_WARN("Object sanity checks are enabled via LV_USE_ASSERT_OBJ which makes LVGL much slowe
 169:Drivers/lvgl/lvgl/src/core/lv_obj.c **** #endif
 170:Drivers/lvgl/lvgl/src/core/lv_obj.c **** 
 171:Drivers/lvgl/lvgl/src/core/lv_obj.c **** #if LV_USE_ASSERT_STYLE
 172:Drivers/lvgl/lvgl/src/core/lv_obj.c ****     LV_LOG_WARN("Style sanity checks are enabled that uses more RAM");
 173:Drivers/lvgl/lvgl/src/core/lv_obj.c **** #endif
 174:Drivers/lvgl/lvgl/src/core/lv_obj.c **** 
 175:Drivers/lvgl/lvgl/src/core/lv_obj.c **** #if LV_LOG_LEVEL == LV_LOG_LEVEL_TRACE
 176:Drivers/lvgl/lvgl/src/core/lv_obj.c ****     LV_LOG_WARN("Log level is set to 'Trace' which makes LVGL much slower");
 177:Drivers/lvgl/lvgl/src/core/lv_obj.c **** #endif
 178:Drivers/lvgl/lvgl/src/core/lv_obj.c **** 
 179:Drivers/lvgl/lvgl/src/core/lv_obj.c ****     lv_extra_init();
 180:Drivers/lvgl/lvgl/src/core/lv_obj.c **** 
 181:Drivers/lvgl/lvgl/src/core/lv_obj.c ****     lv_initialized = true;
 182:Drivers/lvgl/lvgl/src/core/lv_obj.c **** 
 183:Drivers/lvgl/lvgl/src/core/lv_obj.c ****     LV_LOG_TRACE("finished");
 184:Drivers/lvgl/lvgl/src/core/lv_obj.c **** }
 185:Drivers/lvgl/lvgl/src/core/lv_obj.c **** 
 186:Drivers/lvgl/lvgl/src/core/lv_obj.c **** #if LV_ENABLE_GC || !LV_MEM_CUSTOM
 187:Drivers/lvgl/lvgl/src/core/lv_obj.c **** 
 188:Drivers/lvgl/lvgl/src/core/lv_obj.c **** void lv_deinit(void)
 189:Drivers/lvgl/lvgl/src/core/lv_obj.c **** {
 190:Drivers/lvgl/lvgl/src/core/lv_obj.c ****     _lv_gc_clear_roots();
 191:Drivers/lvgl/lvgl/src/core/lv_obj.c **** 
 192:Drivers/lvgl/lvgl/src/core/lv_obj.c ****     lv_disp_set_default(NULL);
 193:Drivers/lvgl/lvgl/src/core/lv_obj.c ****     lv_mem_deinit();
 194:Drivers/lvgl/lvgl/src/core/lv_obj.c ****     lv_initialized = false;
 195:Drivers/lvgl/lvgl/src/core/lv_obj.c **** 
 196:Drivers/lvgl/lvgl/src/core/lv_obj.c ****     LV_LOG_INFO("lv_deinit done");
 197:Drivers/lvgl/lvgl/src/core/lv_obj.c **** 
 198:Drivers/lvgl/lvgl/src/core/lv_obj.c **** #if LV_USE_LOG
 199:Drivers/lvgl/lvgl/src/core/lv_obj.c ****     lv_log_register_print_cb(NULL);
 200:Drivers/lvgl/lvgl/src/core/lv_obj.c **** #endif
 201:Drivers/lvgl/lvgl/src/core/lv_obj.c **** }
 202:Drivers/lvgl/lvgl/src/core/lv_obj.c **** #endif
 203:Drivers/lvgl/lvgl/src/core/lv_obj.c **** 
 204:Drivers/lvgl/lvgl/src/core/lv_obj.c **** lv_obj_t * lv_obj_create(lv_obj_t * parent)
ARM GAS  /tmp/ccJvwpHF.s 			page 5


 205:Drivers/lvgl/lvgl/src/core/lv_obj.c **** {
 206:Drivers/lvgl/lvgl/src/core/lv_obj.c ****     LV_LOG_INFO("begin");
 207:Drivers/lvgl/lvgl/src/core/lv_obj.c ****     lv_obj_t * obj = lv_obj_class_create_obj(MY_CLASS, parent);
 208:Drivers/lvgl/lvgl/src/core/lv_obj.c ****     lv_obj_class_init_obj(obj);
 209:Drivers/lvgl/lvgl/src/core/lv_obj.c ****     return obj;
 210:Drivers/lvgl/lvgl/src/core/lv_obj.c **** }
 211:Drivers/lvgl/lvgl/src/core/lv_obj.c **** 
 212:Drivers/lvgl/lvgl/src/core/lv_obj.c **** /*=====================
 213:Drivers/lvgl/lvgl/src/core/lv_obj.c ****  * Setter functions
 214:Drivers/lvgl/lvgl/src/core/lv_obj.c ****  *====================*/
 215:Drivers/lvgl/lvgl/src/core/lv_obj.c **** 
 216:Drivers/lvgl/lvgl/src/core/lv_obj.c **** /*-----------------
 217:Drivers/lvgl/lvgl/src/core/lv_obj.c ****  * Attribute set
 218:Drivers/lvgl/lvgl/src/core/lv_obj.c ****  *----------------*/
 219:Drivers/lvgl/lvgl/src/core/lv_obj.c **** 
 220:Drivers/lvgl/lvgl/src/core/lv_obj.c **** void lv_obj_add_flag(lv_obj_t * obj, lv_obj_flag_t f)
 221:Drivers/lvgl/lvgl/src/core/lv_obj.c **** {
 222:Drivers/lvgl/lvgl/src/core/lv_obj.c ****     LV_ASSERT_OBJ(obj, MY_CLASS);
 223:Drivers/lvgl/lvgl/src/core/lv_obj.c **** 
 224:Drivers/lvgl/lvgl/src/core/lv_obj.c ****     bool was_on_layout = lv_obj_is_layout_positioned(obj);
 225:Drivers/lvgl/lvgl/src/core/lv_obj.c **** 
 226:Drivers/lvgl/lvgl/src/core/lv_obj.c ****     if(f & LV_OBJ_FLAG_HIDDEN) lv_obj_invalidate(obj);
 227:Drivers/lvgl/lvgl/src/core/lv_obj.c **** 
 228:Drivers/lvgl/lvgl/src/core/lv_obj.c ****     obj->flags |= f;
 229:Drivers/lvgl/lvgl/src/core/lv_obj.c **** 
 230:Drivers/lvgl/lvgl/src/core/lv_obj.c ****     if(f & LV_OBJ_FLAG_HIDDEN) {
 231:Drivers/lvgl/lvgl/src/core/lv_obj.c ****         lv_obj_invalidate(obj);
 232:Drivers/lvgl/lvgl/src/core/lv_obj.c ****     }
 233:Drivers/lvgl/lvgl/src/core/lv_obj.c **** 
 234:Drivers/lvgl/lvgl/src/core/lv_obj.c ****     if((was_on_layout != lv_obj_is_layout_positioned(obj)) || (f & (LV_OBJ_FLAG_LAYOUT_1 |  LV_OBJ_
 235:Drivers/lvgl/lvgl/src/core/lv_obj.c ****         lv_obj_mark_layout_as_dirty(lv_obj_get_parent(obj));
 236:Drivers/lvgl/lvgl/src/core/lv_obj.c ****         lv_obj_mark_layout_as_dirty(obj);
 237:Drivers/lvgl/lvgl/src/core/lv_obj.c ****     }
 238:Drivers/lvgl/lvgl/src/core/lv_obj.c **** 
 239:Drivers/lvgl/lvgl/src/core/lv_obj.c ****     if(f & LV_OBJ_FLAG_SCROLLABLE) {
 240:Drivers/lvgl/lvgl/src/core/lv_obj.c ****         lv_area_t hor_area, ver_area;
 241:Drivers/lvgl/lvgl/src/core/lv_obj.c ****         lv_obj_get_scrollbar_area(obj, &hor_area, &ver_area);
 242:Drivers/lvgl/lvgl/src/core/lv_obj.c ****         lv_obj_invalidate_area(obj, &hor_area);
 243:Drivers/lvgl/lvgl/src/core/lv_obj.c ****         lv_obj_invalidate_area(obj, &ver_area);
 244:Drivers/lvgl/lvgl/src/core/lv_obj.c ****     }
 245:Drivers/lvgl/lvgl/src/core/lv_obj.c **** }
 246:Drivers/lvgl/lvgl/src/core/lv_obj.c **** 
 247:Drivers/lvgl/lvgl/src/core/lv_obj.c **** void lv_obj_clear_flag(lv_obj_t * obj, lv_obj_flag_t f)
 248:Drivers/lvgl/lvgl/src/core/lv_obj.c **** {
 249:Drivers/lvgl/lvgl/src/core/lv_obj.c ****     LV_ASSERT_OBJ(obj, MY_CLASS);
 250:Drivers/lvgl/lvgl/src/core/lv_obj.c **** 
 251:Drivers/lvgl/lvgl/src/core/lv_obj.c ****     bool was_on_layout = lv_obj_is_layout_positioned(obj);
 252:Drivers/lvgl/lvgl/src/core/lv_obj.c ****     if(f & LV_OBJ_FLAG_SCROLLABLE) {
 253:Drivers/lvgl/lvgl/src/core/lv_obj.c ****         lv_area_t hor_area, ver_area;
 254:Drivers/lvgl/lvgl/src/core/lv_obj.c ****         lv_obj_get_scrollbar_area(obj, &hor_area, &ver_area);
 255:Drivers/lvgl/lvgl/src/core/lv_obj.c ****         lv_obj_invalidate_area(obj, &hor_area);
 256:Drivers/lvgl/lvgl/src/core/lv_obj.c ****         lv_obj_invalidate_area(obj, &ver_area);
 257:Drivers/lvgl/lvgl/src/core/lv_obj.c ****     }
 258:Drivers/lvgl/lvgl/src/core/lv_obj.c **** 
 259:Drivers/lvgl/lvgl/src/core/lv_obj.c ****     obj->flags &= (~f);
 260:Drivers/lvgl/lvgl/src/core/lv_obj.c **** 
 261:Drivers/lvgl/lvgl/src/core/lv_obj.c ****     if(f & LV_OBJ_FLAG_HIDDEN) {
ARM GAS  /tmp/ccJvwpHF.s 			page 6


 262:Drivers/lvgl/lvgl/src/core/lv_obj.c ****         lv_obj_invalidate(obj);
 263:Drivers/lvgl/lvgl/src/core/lv_obj.c ****         if(lv_obj_is_layout_positioned(obj)) {
 264:Drivers/lvgl/lvgl/src/core/lv_obj.c ****             lv_obj_mark_layout_as_dirty(lv_obj_get_parent(obj));
 265:Drivers/lvgl/lvgl/src/core/lv_obj.c ****             lv_obj_mark_layout_as_dirty(obj);
 266:Drivers/lvgl/lvgl/src/core/lv_obj.c ****         }
 267:Drivers/lvgl/lvgl/src/core/lv_obj.c ****     }
 268:Drivers/lvgl/lvgl/src/core/lv_obj.c **** 
 269:Drivers/lvgl/lvgl/src/core/lv_obj.c ****     if((was_on_layout != lv_obj_is_layout_positioned(obj)) || (f & (LV_OBJ_FLAG_LAYOUT_1 |  LV_OBJ_
 270:Drivers/lvgl/lvgl/src/core/lv_obj.c ****         lv_obj_mark_layout_as_dirty(lv_obj_get_parent(obj));
 271:Drivers/lvgl/lvgl/src/core/lv_obj.c ****     }
 272:Drivers/lvgl/lvgl/src/core/lv_obj.c **** 
 273:Drivers/lvgl/lvgl/src/core/lv_obj.c **** }
 274:Drivers/lvgl/lvgl/src/core/lv_obj.c **** 
 275:Drivers/lvgl/lvgl/src/core/lv_obj.c **** void lv_obj_add_state(lv_obj_t * obj, lv_state_t state)
 276:Drivers/lvgl/lvgl/src/core/lv_obj.c **** {
 277:Drivers/lvgl/lvgl/src/core/lv_obj.c ****     LV_ASSERT_OBJ(obj, MY_CLASS);
 278:Drivers/lvgl/lvgl/src/core/lv_obj.c **** 
 279:Drivers/lvgl/lvgl/src/core/lv_obj.c ****     lv_state_t new_state = obj->state | state;
 280:Drivers/lvgl/lvgl/src/core/lv_obj.c ****     if(obj->state != new_state) {
 281:Drivers/lvgl/lvgl/src/core/lv_obj.c ****         lv_obj_set_state(obj, new_state);
 282:Drivers/lvgl/lvgl/src/core/lv_obj.c ****     }
 283:Drivers/lvgl/lvgl/src/core/lv_obj.c **** }
 284:Drivers/lvgl/lvgl/src/core/lv_obj.c **** 
 285:Drivers/lvgl/lvgl/src/core/lv_obj.c **** void lv_obj_clear_state(lv_obj_t * obj, lv_state_t state)
 286:Drivers/lvgl/lvgl/src/core/lv_obj.c **** {
 287:Drivers/lvgl/lvgl/src/core/lv_obj.c ****     LV_ASSERT_OBJ(obj, MY_CLASS);
 288:Drivers/lvgl/lvgl/src/core/lv_obj.c **** 
 289:Drivers/lvgl/lvgl/src/core/lv_obj.c ****     lv_state_t new_state = obj->state & (~state);
 290:Drivers/lvgl/lvgl/src/core/lv_obj.c ****     if(obj->state != new_state) {
 291:Drivers/lvgl/lvgl/src/core/lv_obj.c ****         lv_obj_set_state(obj, new_state);
 292:Drivers/lvgl/lvgl/src/core/lv_obj.c ****     }
 293:Drivers/lvgl/lvgl/src/core/lv_obj.c **** }
 294:Drivers/lvgl/lvgl/src/core/lv_obj.c **** 
 295:Drivers/lvgl/lvgl/src/core/lv_obj.c **** /*=======================
 296:Drivers/lvgl/lvgl/src/core/lv_obj.c ****  * Getter functions
 297:Drivers/lvgl/lvgl/src/core/lv_obj.c ****  *======================*/
 298:Drivers/lvgl/lvgl/src/core/lv_obj.c **** 
 299:Drivers/lvgl/lvgl/src/core/lv_obj.c **** bool lv_obj_has_flag(const lv_obj_t * obj, lv_obj_flag_t f)
 300:Drivers/lvgl/lvgl/src/core/lv_obj.c **** {
 301:Drivers/lvgl/lvgl/src/core/lv_obj.c ****     LV_ASSERT_OBJ(obj, MY_CLASS);
 302:Drivers/lvgl/lvgl/src/core/lv_obj.c **** 
 303:Drivers/lvgl/lvgl/src/core/lv_obj.c ****     return (obj->flags & f)  == f ? true : false;
 304:Drivers/lvgl/lvgl/src/core/lv_obj.c **** }
 305:Drivers/lvgl/lvgl/src/core/lv_obj.c **** 
 306:Drivers/lvgl/lvgl/src/core/lv_obj.c **** bool lv_obj_has_flag_any(const lv_obj_t * obj, lv_obj_flag_t f)
 307:Drivers/lvgl/lvgl/src/core/lv_obj.c **** {
 308:Drivers/lvgl/lvgl/src/core/lv_obj.c ****     LV_ASSERT_OBJ(obj, MY_CLASS);
 309:Drivers/lvgl/lvgl/src/core/lv_obj.c **** 
 310:Drivers/lvgl/lvgl/src/core/lv_obj.c ****     return (obj->flags & f) ? true : false;
 311:Drivers/lvgl/lvgl/src/core/lv_obj.c **** }
 312:Drivers/lvgl/lvgl/src/core/lv_obj.c **** 
 313:Drivers/lvgl/lvgl/src/core/lv_obj.c **** lv_state_t lv_obj_get_state(const lv_obj_t * obj)
 314:Drivers/lvgl/lvgl/src/core/lv_obj.c **** {
 315:Drivers/lvgl/lvgl/src/core/lv_obj.c ****     LV_ASSERT_OBJ(obj, MY_CLASS);
 316:Drivers/lvgl/lvgl/src/core/lv_obj.c **** 
 317:Drivers/lvgl/lvgl/src/core/lv_obj.c ****     return obj->state;
 318:Drivers/lvgl/lvgl/src/core/lv_obj.c **** }
ARM GAS  /tmp/ccJvwpHF.s 			page 7


 319:Drivers/lvgl/lvgl/src/core/lv_obj.c **** 
 320:Drivers/lvgl/lvgl/src/core/lv_obj.c **** bool lv_obj_has_state(const lv_obj_t * obj, lv_state_t state)
 321:Drivers/lvgl/lvgl/src/core/lv_obj.c **** {
 322:Drivers/lvgl/lvgl/src/core/lv_obj.c ****     LV_ASSERT_OBJ(obj, MY_CLASS);
 323:Drivers/lvgl/lvgl/src/core/lv_obj.c **** 
 324:Drivers/lvgl/lvgl/src/core/lv_obj.c ****     return obj->state & state ? true : false;
 325:Drivers/lvgl/lvgl/src/core/lv_obj.c **** }
 326:Drivers/lvgl/lvgl/src/core/lv_obj.c **** 
 327:Drivers/lvgl/lvgl/src/core/lv_obj.c **** void * lv_obj_get_group(const lv_obj_t * obj)
 328:Drivers/lvgl/lvgl/src/core/lv_obj.c **** {
 329:Drivers/lvgl/lvgl/src/core/lv_obj.c ****     LV_ASSERT_OBJ(obj, MY_CLASS);
 330:Drivers/lvgl/lvgl/src/core/lv_obj.c **** 
 331:Drivers/lvgl/lvgl/src/core/lv_obj.c ****     if(obj->spec_attr) return obj->spec_attr->group_p;
 332:Drivers/lvgl/lvgl/src/core/lv_obj.c ****     else return NULL;
 333:Drivers/lvgl/lvgl/src/core/lv_obj.c **** }
 334:Drivers/lvgl/lvgl/src/core/lv_obj.c **** 
 335:Drivers/lvgl/lvgl/src/core/lv_obj.c **** /*-------------------
 336:Drivers/lvgl/lvgl/src/core/lv_obj.c ****  * OTHER FUNCTIONS
 337:Drivers/lvgl/lvgl/src/core/lv_obj.c ****  *------------------*/
 338:Drivers/lvgl/lvgl/src/core/lv_obj.c **** 
 339:Drivers/lvgl/lvgl/src/core/lv_obj.c **** void lv_obj_allocate_spec_attr(lv_obj_t * obj)
 340:Drivers/lvgl/lvgl/src/core/lv_obj.c **** {
 341:Drivers/lvgl/lvgl/src/core/lv_obj.c ****     LV_ASSERT_OBJ(obj, MY_CLASS);
 342:Drivers/lvgl/lvgl/src/core/lv_obj.c **** 
 343:Drivers/lvgl/lvgl/src/core/lv_obj.c ****     if(obj->spec_attr == NULL) {
 344:Drivers/lvgl/lvgl/src/core/lv_obj.c ****         static uint32_t x = 0;
 345:Drivers/lvgl/lvgl/src/core/lv_obj.c ****         x++;
 346:Drivers/lvgl/lvgl/src/core/lv_obj.c ****         obj->spec_attr = lv_mem_alloc(sizeof(_lv_obj_spec_attr_t));
 347:Drivers/lvgl/lvgl/src/core/lv_obj.c ****         LV_ASSERT_MALLOC(obj->spec_attr);
 348:Drivers/lvgl/lvgl/src/core/lv_obj.c ****         if(obj->spec_attr == NULL) return;
 349:Drivers/lvgl/lvgl/src/core/lv_obj.c **** 
 350:Drivers/lvgl/lvgl/src/core/lv_obj.c ****         lv_memset_00(obj->spec_attr, sizeof(_lv_obj_spec_attr_t));
 351:Drivers/lvgl/lvgl/src/core/lv_obj.c **** 
 352:Drivers/lvgl/lvgl/src/core/lv_obj.c ****         obj->spec_attr->scroll_dir = LV_DIR_ALL;
 353:Drivers/lvgl/lvgl/src/core/lv_obj.c ****         obj->spec_attr->scrollbar_mode = LV_SCROLLBAR_MODE_AUTO;
 354:Drivers/lvgl/lvgl/src/core/lv_obj.c ****     }
 355:Drivers/lvgl/lvgl/src/core/lv_obj.c **** }
 356:Drivers/lvgl/lvgl/src/core/lv_obj.c **** 
 357:Drivers/lvgl/lvgl/src/core/lv_obj.c **** bool lv_obj_check_type(const lv_obj_t * obj, const lv_obj_class_t * class_p)
 358:Drivers/lvgl/lvgl/src/core/lv_obj.c **** {
 359:Drivers/lvgl/lvgl/src/core/lv_obj.c ****     if(obj == NULL) return false;
 360:Drivers/lvgl/lvgl/src/core/lv_obj.c ****     return obj->class_p == class_p ? true : false;
 361:Drivers/lvgl/lvgl/src/core/lv_obj.c **** }
 362:Drivers/lvgl/lvgl/src/core/lv_obj.c **** 
 363:Drivers/lvgl/lvgl/src/core/lv_obj.c **** bool lv_obj_has_class(const lv_obj_t * obj, const lv_obj_class_t * class_p)
 364:Drivers/lvgl/lvgl/src/core/lv_obj.c **** {
 365:Drivers/lvgl/lvgl/src/core/lv_obj.c ****     const lv_obj_class_t * obj_class = obj->class_p;
 366:Drivers/lvgl/lvgl/src/core/lv_obj.c ****     while(obj_class) {
 367:Drivers/lvgl/lvgl/src/core/lv_obj.c ****         if(obj_class == class_p) return true;
 368:Drivers/lvgl/lvgl/src/core/lv_obj.c ****         obj_class = obj_class->base_class;
 369:Drivers/lvgl/lvgl/src/core/lv_obj.c ****     }
 370:Drivers/lvgl/lvgl/src/core/lv_obj.c **** 
 371:Drivers/lvgl/lvgl/src/core/lv_obj.c ****     return false;
 372:Drivers/lvgl/lvgl/src/core/lv_obj.c **** }
 373:Drivers/lvgl/lvgl/src/core/lv_obj.c **** 
 374:Drivers/lvgl/lvgl/src/core/lv_obj.c **** const lv_obj_class_t * lv_obj_get_class(const lv_obj_t * obj)
 375:Drivers/lvgl/lvgl/src/core/lv_obj.c **** {
ARM GAS  /tmp/ccJvwpHF.s 			page 8


 376:Drivers/lvgl/lvgl/src/core/lv_obj.c ****     return obj->class_p;
 377:Drivers/lvgl/lvgl/src/core/lv_obj.c **** }
 378:Drivers/lvgl/lvgl/src/core/lv_obj.c **** 
 379:Drivers/lvgl/lvgl/src/core/lv_obj.c **** bool lv_obj_is_valid(const lv_obj_t * obj)
 380:Drivers/lvgl/lvgl/src/core/lv_obj.c **** {
 381:Drivers/lvgl/lvgl/src/core/lv_obj.c ****     lv_disp_t * disp = lv_disp_get_next(NULL);
 382:Drivers/lvgl/lvgl/src/core/lv_obj.c ****     while(disp) {
 383:Drivers/lvgl/lvgl/src/core/lv_obj.c ****         uint32_t i;
 384:Drivers/lvgl/lvgl/src/core/lv_obj.c ****         for(i = 0; i < disp->screen_cnt; i++) {
 385:Drivers/lvgl/lvgl/src/core/lv_obj.c ****             if(disp->screens[i] == obj) return true;
 386:Drivers/lvgl/lvgl/src/core/lv_obj.c ****             bool found = obj_valid_child(disp->screens[i], obj);
 387:Drivers/lvgl/lvgl/src/core/lv_obj.c ****             if(found) return true;
 388:Drivers/lvgl/lvgl/src/core/lv_obj.c ****         }
 389:Drivers/lvgl/lvgl/src/core/lv_obj.c **** 
 390:Drivers/lvgl/lvgl/src/core/lv_obj.c ****         disp = lv_disp_get_next(disp);
 391:Drivers/lvgl/lvgl/src/core/lv_obj.c ****     }
 392:Drivers/lvgl/lvgl/src/core/lv_obj.c **** 
 393:Drivers/lvgl/lvgl/src/core/lv_obj.c ****     return false;
 394:Drivers/lvgl/lvgl/src/core/lv_obj.c **** }
 395:Drivers/lvgl/lvgl/src/core/lv_obj.c **** 
 396:Drivers/lvgl/lvgl/src/core/lv_obj.c **** /**********************
 397:Drivers/lvgl/lvgl/src/core/lv_obj.c ****  *   STATIC FUNCTIONS
 398:Drivers/lvgl/lvgl/src/core/lv_obj.c ****  **********************/
 399:Drivers/lvgl/lvgl/src/core/lv_obj.c **** 
 400:Drivers/lvgl/lvgl/src/core/lv_obj.c **** static void lv_obj_constructor(const lv_obj_class_t * class_p, lv_obj_t * obj)
 401:Drivers/lvgl/lvgl/src/core/lv_obj.c **** {
 402:Drivers/lvgl/lvgl/src/core/lv_obj.c ****     LV_UNUSED(class_p);
 403:Drivers/lvgl/lvgl/src/core/lv_obj.c ****     LV_TRACE_OBJ_CREATE("begin");
 404:Drivers/lvgl/lvgl/src/core/lv_obj.c **** 
 405:Drivers/lvgl/lvgl/src/core/lv_obj.c ****     lv_obj_t * parent = obj->parent;
 406:Drivers/lvgl/lvgl/src/core/lv_obj.c ****     if(parent) {
 407:Drivers/lvgl/lvgl/src/core/lv_obj.c ****         lv_coord_t sl = lv_obj_get_scroll_left(parent);
 408:Drivers/lvgl/lvgl/src/core/lv_obj.c ****         lv_coord_t st = lv_obj_get_scroll_top(parent);
 409:Drivers/lvgl/lvgl/src/core/lv_obj.c **** 
 410:Drivers/lvgl/lvgl/src/core/lv_obj.c ****         obj->coords.y1 = parent->coords.y1 + lv_obj_get_style_pad_top(parent, LV_PART_MAIN) - st;
 411:Drivers/lvgl/lvgl/src/core/lv_obj.c ****         obj->coords.y2 = obj->coords.y1 - 1;
 412:Drivers/lvgl/lvgl/src/core/lv_obj.c ****         obj->coords.x1  = parent->coords.x1 + lv_obj_get_style_pad_left(parent, LV_PART_MAIN) - sl;
 413:Drivers/lvgl/lvgl/src/core/lv_obj.c ****         obj->coords.x2  = obj->coords.x1 - 1;
 414:Drivers/lvgl/lvgl/src/core/lv_obj.c ****     }
 415:Drivers/lvgl/lvgl/src/core/lv_obj.c **** 
 416:Drivers/lvgl/lvgl/src/core/lv_obj.c ****     /*Set attributes*/
 417:Drivers/lvgl/lvgl/src/core/lv_obj.c ****     obj->flags = LV_OBJ_FLAG_CLICKABLE;
 418:Drivers/lvgl/lvgl/src/core/lv_obj.c ****     obj->flags |= LV_OBJ_FLAG_SNAPPABLE;
 419:Drivers/lvgl/lvgl/src/core/lv_obj.c ****     if(parent) obj->flags |= LV_OBJ_FLAG_PRESS_LOCK;
 420:Drivers/lvgl/lvgl/src/core/lv_obj.c ****     if(parent) obj->flags |= LV_OBJ_FLAG_SCROLL_CHAIN;
 421:Drivers/lvgl/lvgl/src/core/lv_obj.c ****     obj->flags |= LV_OBJ_FLAG_CLICK_FOCUSABLE;
 422:Drivers/lvgl/lvgl/src/core/lv_obj.c ****     obj->flags |= LV_OBJ_FLAG_SCROLLABLE;
 423:Drivers/lvgl/lvgl/src/core/lv_obj.c ****     obj->flags |= LV_OBJ_FLAG_SCROLL_ELASTIC;
 424:Drivers/lvgl/lvgl/src/core/lv_obj.c ****     obj->flags |= LV_OBJ_FLAG_SCROLL_MOMENTUM;
 425:Drivers/lvgl/lvgl/src/core/lv_obj.c ****     obj->flags |= LV_OBJ_FLAG_SCROLL_WITH_ARROW;
 426:Drivers/lvgl/lvgl/src/core/lv_obj.c ****     if(parent) obj->flags |= LV_OBJ_FLAG_GESTURE_BUBBLE;
 427:Drivers/lvgl/lvgl/src/core/lv_obj.c **** 
 428:Drivers/lvgl/lvgl/src/core/lv_obj.c ****     LV_TRACE_OBJ_CREATE("finished");
 429:Drivers/lvgl/lvgl/src/core/lv_obj.c **** }
 430:Drivers/lvgl/lvgl/src/core/lv_obj.c **** 
 431:Drivers/lvgl/lvgl/src/core/lv_obj.c **** static void lv_obj_destructor(const lv_obj_class_t * class_p, lv_obj_t * obj)
 432:Drivers/lvgl/lvgl/src/core/lv_obj.c **** {
ARM GAS  /tmp/ccJvwpHF.s 			page 9


 433:Drivers/lvgl/lvgl/src/core/lv_obj.c ****     LV_UNUSED(class_p);
 434:Drivers/lvgl/lvgl/src/core/lv_obj.c **** 
 435:Drivers/lvgl/lvgl/src/core/lv_obj.c ****     _lv_event_mark_deleted(obj);
 436:Drivers/lvgl/lvgl/src/core/lv_obj.c **** 
 437:Drivers/lvgl/lvgl/src/core/lv_obj.c ****     /*Remove all style*/
 438:Drivers/lvgl/lvgl/src/core/lv_obj.c ****     lv_obj_enable_style_refresh(false); /*No need to refresh the style because the object will be d
 439:Drivers/lvgl/lvgl/src/core/lv_obj.c ****     lv_obj_remove_style_all(obj);
 440:Drivers/lvgl/lvgl/src/core/lv_obj.c ****     lv_obj_enable_style_refresh(true);
 441:Drivers/lvgl/lvgl/src/core/lv_obj.c **** 
 442:Drivers/lvgl/lvgl/src/core/lv_obj.c ****     /*Remove the animations from this object*/
 443:Drivers/lvgl/lvgl/src/core/lv_obj.c ****     lv_anim_del(obj, NULL);
 444:Drivers/lvgl/lvgl/src/core/lv_obj.c **** 
 445:Drivers/lvgl/lvgl/src/core/lv_obj.c ****     /*Delete from the group*/
 446:Drivers/lvgl/lvgl/src/core/lv_obj.c ****     lv_group_t * group = lv_obj_get_group(obj);
 447:Drivers/lvgl/lvgl/src/core/lv_obj.c ****     if(group) lv_group_remove_obj(obj);
 448:Drivers/lvgl/lvgl/src/core/lv_obj.c **** 
 449:Drivers/lvgl/lvgl/src/core/lv_obj.c ****     if(obj->spec_attr) {
 450:Drivers/lvgl/lvgl/src/core/lv_obj.c ****         if(obj->spec_attr->children) {
 451:Drivers/lvgl/lvgl/src/core/lv_obj.c ****             lv_mem_free(obj->spec_attr->children);
 452:Drivers/lvgl/lvgl/src/core/lv_obj.c ****             obj->spec_attr->children = NULL;
 453:Drivers/lvgl/lvgl/src/core/lv_obj.c ****         }
 454:Drivers/lvgl/lvgl/src/core/lv_obj.c ****         if(obj->spec_attr->event_dsc) {
 455:Drivers/lvgl/lvgl/src/core/lv_obj.c ****             lv_mem_free(obj->spec_attr->event_dsc);
 456:Drivers/lvgl/lvgl/src/core/lv_obj.c ****             obj->spec_attr->event_dsc = NULL;
 457:Drivers/lvgl/lvgl/src/core/lv_obj.c ****         }
 458:Drivers/lvgl/lvgl/src/core/lv_obj.c **** 
 459:Drivers/lvgl/lvgl/src/core/lv_obj.c ****         lv_mem_free(obj->spec_attr);
 460:Drivers/lvgl/lvgl/src/core/lv_obj.c ****         obj->spec_attr = NULL;
 461:Drivers/lvgl/lvgl/src/core/lv_obj.c ****     }
 462:Drivers/lvgl/lvgl/src/core/lv_obj.c **** }
 463:Drivers/lvgl/lvgl/src/core/lv_obj.c **** 
 464:Drivers/lvgl/lvgl/src/core/lv_obj.c **** static void lv_obj_draw(lv_event_t * e)
 465:Drivers/lvgl/lvgl/src/core/lv_obj.c **** {
 466:Drivers/lvgl/lvgl/src/core/lv_obj.c ****     lv_event_code_t code = lv_event_get_code(e);
 467:Drivers/lvgl/lvgl/src/core/lv_obj.c ****     lv_obj_t * obj = lv_event_get_target(e);
 468:Drivers/lvgl/lvgl/src/core/lv_obj.c ****     if(code == LV_EVENT_COVER_CHECK) {
 469:Drivers/lvgl/lvgl/src/core/lv_obj.c ****         lv_cover_check_info_t * info = lv_event_get_param(e);
 470:Drivers/lvgl/lvgl/src/core/lv_obj.c ****         if(info->res == LV_COVER_RES_MASKED) return;
 471:Drivers/lvgl/lvgl/src/core/lv_obj.c ****         if(lv_obj_get_style_clip_corner(obj, LV_PART_MAIN)) {
 472:Drivers/lvgl/lvgl/src/core/lv_obj.c ****             info->res = LV_COVER_RES_MASKED;
 473:Drivers/lvgl/lvgl/src/core/lv_obj.c ****             return;
 474:Drivers/lvgl/lvgl/src/core/lv_obj.c ****         }
 475:Drivers/lvgl/lvgl/src/core/lv_obj.c **** 
 476:Drivers/lvgl/lvgl/src/core/lv_obj.c ****         /*Most trivial test. Is the mask fully IN the object? If no it surely doesn't cover it*/
 477:Drivers/lvgl/lvgl/src/core/lv_obj.c ****         lv_coord_t r = lv_obj_get_style_radius(obj, LV_PART_MAIN);
 478:Drivers/lvgl/lvgl/src/core/lv_obj.c ****         lv_coord_t w = lv_obj_get_style_transform_width(obj, LV_PART_MAIN);
 479:Drivers/lvgl/lvgl/src/core/lv_obj.c ****         lv_coord_t h = lv_obj_get_style_transform_height(obj, LV_PART_MAIN);
 480:Drivers/lvgl/lvgl/src/core/lv_obj.c ****         lv_area_t coords;
 481:Drivers/lvgl/lvgl/src/core/lv_obj.c ****         lv_area_copy(&coords, &obj->coords);
 482:Drivers/lvgl/lvgl/src/core/lv_obj.c ****         coords.x1 -= w;
 483:Drivers/lvgl/lvgl/src/core/lv_obj.c ****         coords.x2 += w;
 484:Drivers/lvgl/lvgl/src/core/lv_obj.c ****         coords.y1 -= h;
 485:Drivers/lvgl/lvgl/src/core/lv_obj.c ****         coords.y2 += h;
 486:Drivers/lvgl/lvgl/src/core/lv_obj.c **** 
 487:Drivers/lvgl/lvgl/src/core/lv_obj.c ****         if(_lv_area_is_in(info->area, &coords, r) == false) {
 488:Drivers/lvgl/lvgl/src/core/lv_obj.c ****             info->res = LV_COVER_RES_NOT_COVER;
 489:Drivers/lvgl/lvgl/src/core/lv_obj.c ****             return;
ARM GAS  /tmp/ccJvwpHF.s 			page 10


 490:Drivers/lvgl/lvgl/src/core/lv_obj.c ****         }
 491:Drivers/lvgl/lvgl/src/core/lv_obj.c **** 
 492:Drivers/lvgl/lvgl/src/core/lv_obj.c ****         if(lv_obj_get_style_bg_opa(obj, LV_PART_MAIN) < LV_OPA_MAX) {
 493:Drivers/lvgl/lvgl/src/core/lv_obj.c ****             info->res = LV_COVER_RES_NOT_COVER;
 494:Drivers/lvgl/lvgl/src/core/lv_obj.c ****             return;
 495:Drivers/lvgl/lvgl/src/core/lv_obj.c ****         }
 496:Drivers/lvgl/lvgl/src/core/lv_obj.c **** 
 497:Drivers/lvgl/lvgl/src/core/lv_obj.c ****         info->res = LV_COVER_RES_COVER;
 498:Drivers/lvgl/lvgl/src/core/lv_obj.c **** 
 499:Drivers/lvgl/lvgl/src/core/lv_obj.c ****     }
 500:Drivers/lvgl/lvgl/src/core/lv_obj.c ****     else if(code == LV_EVENT_DRAW_MAIN) {
 501:Drivers/lvgl/lvgl/src/core/lv_obj.c ****         lv_draw_ctx_t * draw_ctx = lv_event_get_draw_ctx(e);
 502:Drivers/lvgl/lvgl/src/core/lv_obj.c ****         lv_draw_rect_dsc_t draw_dsc;
 503:Drivers/lvgl/lvgl/src/core/lv_obj.c ****         lv_draw_rect_dsc_init(&draw_dsc);
 504:Drivers/lvgl/lvgl/src/core/lv_obj.c ****         /*If the border is drawn later disable loading its properties*/
 505:Drivers/lvgl/lvgl/src/core/lv_obj.c ****         if(lv_obj_get_style_border_post(obj, LV_PART_MAIN)) {
 506:Drivers/lvgl/lvgl/src/core/lv_obj.c ****             draw_dsc.border_post = 1;
 507:Drivers/lvgl/lvgl/src/core/lv_obj.c ****         }
 508:Drivers/lvgl/lvgl/src/core/lv_obj.c **** 
 509:Drivers/lvgl/lvgl/src/core/lv_obj.c ****         lv_obj_init_draw_rect_dsc(obj, LV_PART_MAIN, &draw_dsc);
 510:Drivers/lvgl/lvgl/src/core/lv_obj.c ****         lv_coord_t w = lv_obj_get_style_transform_width(obj, LV_PART_MAIN);
 511:Drivers/lvgl/lvgl/src/core/lv_obj.c ****         lv_coord_t h = lv_obj_get_style_transform_height(obj, LV_PART_MAIN);
 512:Drivers/lvgl/lvgl/src/core/lv_obj.c ****         lv_area_t coords;
 513:Drivers/lvgl/lvgl/src/core/lv_obj.c ****         lv_area_copy(&coords, &obj->coords);
 514:Drivers/lvgl/lvgl/src/core/lv_obj.c ****         coords.x1 -= w;
 515:Drivers/lvgl/lvgl/src/core/lv_obj.c ****         coords.x2 += w;
 516:Drivers/lvgl/lvgl/src/core/lv_obj.c ****         coords.y1 -= h;
 517:Drivers/lvgl/lvgl/src/core/lv_obj.c ****         coords.y2 += h;
 518:Drivers/lvgl/lvgl/src/core/lv_obj.c **** 
 519:Drivers/lvgl/lvgl/src/core/lv_obj.c ****         lv_obj_draw_part_dsc_t part_dsc;
 520:Drivers/lvgl/lvgl/src/core/lv_obj.c ****         lv_obj_draw_dsc_init(&part_dsc, draw_ctx);
 521:Drivers/lvgl/lvgl/src/core/lv_obj.c ****         part_dsc.class_p = MY_CLASS;
 522:Drivers/lvgl/lvgl/src/core/lv_obj.c ****         part_dsc.type = LV_OBJ_DRAW_PART_RECTANGLE;
 523:Drivers/lvgl/lvgl/src/core/lv_obj.c ****         part_dsc.rect_dsc = &draw_dsc;
 524:Drivers/lvgl/lvgl/src/core/lv_obj.c ****         part_dsc.draw_area = &coords;
 525:Drivers/lvgl/lvgl/src/core/lv_obj.c ****         part_dsc.part = LV_PART_MAIN;
 526:Drivers/lvgl/lvgl/src/core/lv_obj.c ****         lv_event_send(obj, LV_EVENT_DRAW_PART_BEGIN, &part_dsc);
 527:Drivers/lvgl/lvgl/src/core/lv_obj.c **** 
 528:Drivers/lvgl/lvgl/src/core/lv_obj.c **** #if LV_DRAW_COMPLEX
 529:Drivers/lvgl/lvgl/src/core/lv_obj.c ****         /*With clip corner enabled draw the bg img separately to make it clipped*/
 530:Drivers/lvgl/lvgl/src/core/lv_obj.c ****         bool clip_corner = (lv_obj_get_style_clip_corner(obj, LV_PART_MAIN) && draw_dsc.radius != 0
 531:Drivers/lvgl/lvgl/src/core/lv_obj.c ****         const void * bg_img_src = draw_dsc.bg_img_src;
 532:Drivers/lvgl/lvgl/src/core/lv_obj.c ****         if(clip_corner) {
 533:Drivers/lvgl/lvgl/src/core/lv_obj.c ****             draw_dsc.bg_img_src = NULL;
 534:Drivers/lvgl/lvgl/src/core/lv_obj.c ****         }
 535:Drivers/lvgl/lvgl/src/core/lv_obj.c **** #endif
 536:Drivers/lvgl/lvgl/src/core/lv_obj.c **** 
 537:Drivers/lvgl/lvgl/src/core/lv_obj.c ****         lv_draw_rect(draw_ctx, &draw_dsc, &coords);
 538:Drivers/lvgl/lvgl/src/core/lv_obj.c **** 
 539:Drivers/lvgl/lvgl/src/core/lv_obj.c **** 
 540:Drivers/lvgl/lvgl/src/core/lv_obj.c **** #if LV_DRAW_COMPLEX
 541:Drivers/lvgl/lvgl/src/core/lv_obj.c ****         if(clip_corner) {
 542:Drivers/lvgl/lvgl/src/core/lv_obj.c ****             lv_draw_mask_radius_param_t * mp = lv_mem_buf_get(sizeof(lv_draw_mask_radius_param_t));
 543:Drivers/lvgl/lvgl/src/core/lv_obj.c ****             lv_draw_mask_radius_init(mp, &obj->coords, draw_dsc.radius, false);
 544:Drivers/lvgl/lvgl/src/core/lv_obj.c ****             /*Add the mask and use `obj+8` as custom id. Don't use `obj` directly because it might 
 545:Drivers/lvgl/lvgl/src/core/lv_obj.c ****             lv_draw_mask_add(mp, obj + 8);
 546:Drivers/lvgl/lvgl/src/core/lv_obj.c **** 
ARM GAS  /tmp/ccJvwpHF.s 			page 11


 547:Drivers/lvgl/lvgl/src/core/lv_obj.c ****             if(bg_img_src) {
 548:Drivers/lvgl/lvgl/src/core/lv_obj.c ****                 draw_dsc.bg_opa = LV_OPA_TRANSP;
 549:Drivers/lvgl/lvgl/src/core/lv_obj.c ****                 draw_dsc.border_opa = LV_OPA_TRANSP;
 550:Drivers/lvgl/lvgl/src/core/lv_obj.c ****                 draw_dsc.outline_opa = LV_OPA_TRANSP;
 551:Drivers/lvgl/lvgl/src/core/lv_obj.c ****                 draw_dsc.shadow_opa = LV_OPA_TRANSP;
 552:Drivers/lvgl/lvgl/src/core/lv_obj.c ****                 draw_dsc.bg_img_src = bg_img_src;
 553:Drivers/lvgl/lvgl/src/core/lv_obj.c ****                 lv_draw_rect(draw_ctx, &draw_dsc, &coords);
 554:Drivers/lvgl/lvgl/src/core/lv_obj.c ****             }
 555:Drivers/lvgl/lvgl/src/core/lv_obj.c **** 
 556:Drivers/lvgl/lvgl/src/core/lv_obj.c ****         }
 557:Drivers/lvgl/lvgl/src/core/lv_obj.c **** #endif
 558:Drivers/lvgl/lvgl/src/core/lv_obj.c ****         lv_event_send(obj, LV_EVENT_DRAW_PART_END, &part_dsc);
 559:Drivers/lvgl/lvgl/src/core/lv_obj.c ****     }
 560:Drivers/lvgl/lvgl/src/core/lv_obj.c ****     else if(code == LV_EVENT_DRAW_POST) {
 561:Drivers/lvgl/lvgl/src/core/lv_obj.c ****         lv_draw_ctx_t * draw_ctx = lv_event_get_draw_ctx(e);
 562:Drivers/lvgl/lvgl/src/core/lv_obj.c ****         draw_scrollbar(obj, draw_ctx);
 563:Drivers/lvgl/lvgl/src/core/lv_obj.c **** 
 564:Drivers/lvgl/lvgl/src/core/lv_obj.c **** #if LV_DRAW_COMPLEX
 565:Drivers/lvgl/lvgl/src/core/lv_obj.c ****         if(lv_obj_get_style_clip_corner(obj, LV_PART_MAIN)) {
 566:Drivers/lvgl/lvgl/src/core/lv_obj.c ****             lv_draw_mask_radius_param_t * param = lv_draw_mask_remove_custom(obj + 8);
 567:Drivers/lvgl/lvgl/src/core/lv_obj.c ****             if(param) {
 568:Drivers/lvgl/lvgl/src/core/lv_obj.c ****                 lv_draw_mask_free_param(param);
 569:Drivers/lvgl/lvgl/src/core/lv_obj.c ****                 lv_mem_buf_release(param);
 570:Drivers/lvgl/lvgl/src/core/lv_obj.c ****             }
 571:Drivers/lvgl/lvgl/src/core/lv_obj.c ****         }
 572:Drivers/lvgl/lvgl/src/core/lv_obj.c **** #endif
 573:Drivers/lvgl/lvgl/src/core/lv_obj.c **** 
 574:Drivers/lvgl/lvgl/src/core/lv_obj.c ****         /*If the border is drawn later disable loading other properties*/
 575:Drivers/lvgl/lvgl/src/core/lv_obj.c ****         if(lv_obj_get_style_border_post(obj, LV_PART_MAIN)) {
 576:Drivers/lvgl/lvgl/src/core/lv_obj.c ****             lv_draw_rect_dsc_t draw_dsc;
 577:Drivers/lvgl/lvgl/src/core/lv_obj.c ****             lv_draw_rect_dsc_init(&draw_dsc);
 578:Drivers/lvgl/lvgl/src/core/lv_obj.c ****             draw_dsc.bg_opa = LV_OPA_TRANSP;
 579:Drivers/lvgl/lvgl/src/core/lv_obj.c ****             draw_dsc.bg_img_opa = LV_OPA_TRANSP;
 580:Drivers/lvgl/lvgl/src/core/lv_obj.c ****             draw_dsc.outline_opa = LV_OPA_TRANSP;
 581:Drivers/lvgl/lvgl/src/core/lv_obj.c ****             draw_dsc.shadow_opa = LV_OPA_TRANSP;
 582:Drivers/lvgl/lvgl/src/core/lv_obj.c ****             lv_obj_init_draw_rect_dsc(obj, LV_PART_MAIN, &draw_dsc);
 583:Drivers/lvgl/lvgl/src/core/lv_obj.c **** 
 584:Drivers/lvgl/lvgl/src/core/lv_obj.c ****             lv_coord_t w = lv_obj_get_style_transform_width(obj, LV_PART_MAIN);
 585:Drivers/lvgl/lvgl/src/core/lv_obj.c ****             lv_coord_t h = lv_obj_get_style_transform_height(obj, LV_PART_MAIN);
 586:Drivers/lvgl/lvgl/src/core/lv_obj.c ****             lv_area_t coords;
 587:Drivers/lvgl/lvgl/src/core/lv_obj.c ****             lv_area_copy(&coords, &obj->coords);
 588:Drivers/lvgl/lvgl/src/core/lv_obj.c ****             coords.x1 -= w;
 589:Drivers/lvgl/lvgl/src/core/lv_obj.c ****             coords.x2 += w;
 590:Drivers/lvgl/lvgl/src/core/lv_obj.c ****             coords.y1 -= h;
 591:Drivers/lvgl/lvgl/src/core/lv_obj.c ****             coords.y2 += h;
 592:Drivers/lvgl/lvgl/src/core/lv_obj.c **** 
 593:Drivers/lvgl/lvgl/src/core/lv_obj.c ****             lv_obj_draw_part_dsc_t part_dsc;
 594:Drivers/lvgl/lvgl/src/core/lv_obj.c ****             lv_obj_draw_dsc_init(&part_dsc, draw_ctx);
 595:Drivers/lvgl/lvgl/src/core/lv_obj.c ****             part_dsc.class_p = MY_CLASS;
 596:Drivers/lvgl/lvgl/src/core/lv_obj.c ****             part_dsc.type = LV_OBJ_DRAW_PART_BORDER_POST;
 597:Drivers/lvgl/lvgl/src/core/lv_obj.c ****             part_dsc.rect_dsc = &draw_dsc;
 598:Drivers/lvgl/lvgl/src/core/lv_obj.c ****             part_dsc.draw_area = &coords;
 599:Drivers/lvgl/lvgl/src/core/lv_obj.c ****             part_dsc.part = LV_PART_MAIN;
 600:Drivers/lvgl/lvgl/src/core/lv_obj.c ****             lv_event_send(obj, LV_EVENT_DRAW_PART_BEGIN, &part_dsc);
 601:Drivers/lvgl/lvgl/src/core/lv_obj.c **** 
 602:Drivers/lvgl/lvgl/src/core/lv_obj.c ****             lv_draw_rect(draw_ctx, &draw_dsc, &coords);
 603:Drivers/lvgl/lvgl/src/core/lv_obj.c ****             lv_event_send(obj, LV_EVENT_DRAW_PART_END, &part_dsc);
ARM GAS  /tmp/ccJvwpHF.s 			page 12


 604:Drivers/lvgl/lvgl/src/core/lv_obj.c ****         }
 605:Drivers/lvgl/lvgl/src/core/lv_obj.c ****     }
 606:Drivers/lvgl/lvgl/src/core/lv_obj.c **** }
 607:Drivers/lvgl/lvgl/src/core/lv_obj.c **** 
 608:Drivers/lvgl/lvgl/src/core/lv_obj.c **** static void draw_scrollbar(lv_obj_t * obj, lv_draw_ctx_t * draw_ctx)
 609:Drivers/lvgl/lvgl/src/core/lv_obj.c **** {
 610:Drivers/lvgl/lvgl/src/core/lv_obj.c **** 
 611:Drivers/lvgl/lvgl/src/core/lv_obj.c ****     lv_area_t hor_area;
 612:Drivers/lvgl/lvgl/src/core/lv_obj.c ****     lv_area_t ver_area;
 613:Drivers/lvgl/lvgl/src/core/lv_obj.c ****     lv_obj_get_scrollbar_area(obj, &hor_area, &ver_area);
 614:Drivers/lvgl/lvgl/src/core/lv_obj.c **** 
 615:Drivers/lvgl/lvgl/src/core/lv_obj.c ****     if(lv_area_get_size(&hor_area) <= 0 && lv_area_get_size(&ver_area) <= 0) return;
 616:Drivers/lvgl/lvgl/src/core/lv_obj.c **** 
 617:Drivers/lvgl/lvgl/src/core/lv_obj.c ****     lv_draw_rect_dsc_t draw_dsc;
 618:Drivers/lvgl/lvgl/src/core/lv_obj.c ****     lv_res_t sb_res = scrollbar_init_draw_dsc(obj, &draw_dsc);
 619:Drivers/lvgl/lvgl/src/core/lv_obj.c ****     if(sb_res != LV_RES_OK) return;
 620:Drivers/lvgl/lvgl/src/core/lv_obj.c **** 
 621:Drivers/lvgl/lvgl/src/core/lv_obj.c ****     lv_obj_draw_part_dsc_t part_dsc;
 622:Drivers/lvgl/lvgl/src/core/lv_obj.c ****     lv_obj_draw_dsc_init(&part_dsc, draw_ctx);
 623:Drivers/lvgl/lvgl/src/core/lv_obj.c ****     part_dsc.class_p = MY_CLASS;
 624:Drivers/lvgl/lvgl/src/core/lv_obj.c ****     part_dsc.type = LV_OBJ_DRAW_PART_SCROLLBAR;
 625:Drivers/lvgl/lvgl/src/core/lv_obj.c ****     part_dsc.rect_dsc = &draw_dsc;
 626:Drivers/lvgl/lvgl/src/core/lv_obj.c ****     part_dsc.part = LV_PART_SCROLLBAR;
 627:Drivers/lvgl/lvgl/src/core/lv_obj.c **** 
 628:Drivers/lvgl/lvgl/src/core/lv_obj.c ****     if(lv_area_get_size(&hor_area) > 0) {
 629:Drivers/lvgl/lvgl/src/core/lv_obj.c ****         part_dsc.draw_area = &hor_area;
 630:Drivers/lvgl/lvgl/src/core/lv_obj.c ****         lv_event_send(obj, LV_EVENT_DRAW_PART_BEGIN, &part_dsc);
 631:Drivers/lvgl/lvgl/src/core/lv_obj.c ****         lv_draw_rect(draw_ctx, &draw_dsc, &hor_area);
 632:Drivers/lvgl/lvgl/src/core/lv_obj.c ****         lv_event_send(obj, LV_EVENT_DRAW_PART_END, &part_dsc);
 633:Drivers/lvgl/lvgl/src/core/lv_obj.c ****     }
 634:Drivers/lvgl/lvgl/src/core/lv_obj.c ****     if(lv_area_get_size(&ver_area) > 0) {
 635:Drivers/lvgl/lvgl/src/core/lv_obj.c ****         part_dsc.draw_area = &ver_area;
 636:Drivers/lvgl/lvgl/src/core/lv_obj.c ****         lv_event_send(obj, LV_EVENT_DRAW_PART_BEGIN, &part_dsc);
 637:Drivers/lvgl/lvgl/src/core/lv_obj.c ****         part_dsc.draw_area = &ver_area;
 638:Drivers/lvgl/lvgl/src/core/lv_obj.c ****         lv_draw_rect(draw_ctx, &draw_dsc, &ver_area);
 639:Drivers/lvgl/lvgl/src/core/lv_obj.c ****         lv_event_send(obj, LV_EVENT_DRAW_PART_END, &part_dsc);
 640:Drivers/lvgl/lvgl/src/core/lv_obj.c ****     }
 641:Drivers/lvgl/lvgl/src/core/lv_obj.c **** }
 642:Drivers/lvgl/lvgl/src/core/lv_obj.c **** 
 643:Drivers/lvgl/lvgl/src/core/lv_obj.c **** /**
 644:Drivers/lvgl/lvgl/src/core/lv_obj.c ****  * Initialize the draw descriptor for the scrollbar
 645:Drivers/lvgl/lvgl/src/core/lv_obj.c ****  * @param obj pointer to an object
 646:Drivers/lvgl/lvgl/src/core/lv_obj.c ****  * @param dsc the draw descriptor to initialize
 647:Drivers/lvgl/lvgl/src/core/lv_obj.c ****  * @return LV_RES_OK: the scrollbar is visible; LV_RES_INV: the scrollbar is not visible
 648:Drivers/lvgl/lvgl/src/core/lv_obj.c ****  */
 649:Drivers/lvgl/lvgl/src/core/lv_obj.c **** static lv_res_t scrollbar_init_draw_dsc(lv_obj_t * obj, lv_draw_rect_dsc_t * dsc)
 650:Drivers/lvgl/lvgl/src/core/lv_obj.c **** {
 651:Drivers/lvgl/lvgl/src/core/lv_obj.c ****     lv_draw_rect_dsc_init(dsc);
 652:Drivers/lvgl/lvgl/src/core/lv_obj.c ****     dsc->bg_opa = lv_obj_get_style_bg_opa(obj, LV_PART_SCROLLBAR);
 653:Drivers/lvgl/lvgl/src/core/lv_obj.c ****     if(dsc->bg_opa > LV_OPA_MIN) {
 654:Drivers/lvgl/lvgl/src/core/lv_obj.c ****         dsc->bg_color = lv_obj_get_style_bg_color(obj, LV_PART_SCROLLBAR);
 655:Drivers/lvgl/lvgl/src/core/lv_obj.c ****     }
 656:Drivers/lvgl/lvgl/src/core/lv_obj.c **** 
 657:Drivers/lvgl/lvgl/src/core/lv_obj.c ****     dsc->border_opa = lv_obj_get_style_border_opa(obj, LV_PART_SCROLLBAR);
 658:Drivers/lvgl/lvgl/src/core/lv_obj.c ****     if(dsc->border_opa > LV_OPA_MIN) {
 659:Drivers/lvgl/lvgl/src/core/lv_obj.c ****         dsc->border_width = lv_obj_get_style_border_width(obj, LV_PART_SCROLLBAR);
 660:Drivers/lvgl/lvgl/src/core/lv_obj.c ****         if(dsc->border_width > 0) {
ARM GAS  /tmp/ccJvwpHF.s 			page 13


 661:Drivers/lvgl/lvgl/src/core/lv_obj.c ****             dsc->border_color = lv_obj_get_style_border_color(obj, LV_PART_SCROLLBAR);
 662:Drivers/lvgl/lvgl/src/core/lv_obj.c ****         }
 663:Drivers/lvgl/lvgl/src/core/lv_obj.c ****         else {
 664:Drivers/lvgl/lvgl/src/core/lv_obj.c ****             dsc->border_opa = LV_OPA_TRANSP;
 665:Drivers/lvgl/lvgl/src/core/lv_obj.c ****         }
 666:Drivers/lvgl/lvgl/src/core/lv_obj.c ****     }
 667:Drivers/lvgl/lvgl/src/core/lv_obj.c **** 
 668:Drivers/lvgl/lvgl/src/core/lv_obj.c **** #if LV_DRAW_COMPLEX
 669:Drivers/lvgl/lvgl/src/core/lv_obj.c ****     dsc->shadow_opa = lv_obj_get_style_shadow_opa(obj, LV_PART_SCROLLBAR);
 670:Drivers/lvgl/lvgl/src/core/lv_obj.c ****     if(dsc->shadow_opa > LV_OPA_MIN) {
 671:Drivers/lvgl/lvgl/src/core/lv_obj.c ****         dsc->shadow_width = lv_obj_get_style_shadow_width(obj, LV_PART_SCROLLBAR);
 672:Drivers/lvgl/lvgl/src/core/lv_obj.c ****         if(dsc->shadow_width > 0) {
 673:Drivers/lvgl/lvgl/src/core/lv_obj.c ****             dsc->shadow_spread = lv_obj_get_style_shadow_spread(obj, LV_PART_SCROLLBAR);
 674:Drivers/lvgl/lvgl/src/core/lv_obj.c ****             dsc->shadow_color = lv_obj_get_style_shadow_color(obj, LV_PART_SCROLLBAR);
 675:Drivers/lvgl/lvgl/src/core/lv_obj.c ****         }
 676:Drivers/lvgl/lvgl/src/core/lv_obj.c ****         else {
 677:Drivers/lvgl/lvgl/src/core/lv_obj.c ****             dsc->shadow_opa = LV_OPA_TRANSP;
 678:Drivers/lvgl/lvgl/src/core/lv_obj.c ****         }
 679:Drivers/lvgl/lvgl/src/core/lv_obj.c ****     }
 680:Drivers/lvgl/lvgl/src/core/lv_obj.c **** 
 681:Drivers/lvgl/lvgl/src/core/lv_obj.c ****     lv_opa_t opa = lv_obj_get_style_opa(obj, LV_PART_SCROLLBAR);
 682:Drivers/lvgl/lvgl/src/core/lv_obj.c ****     if(opa < LV_OPA_MAX) {
 683:Drivers/lvgl/lvgl/src/core/lv_obj.c ****         dsc->bg_opa = (dsc->bg_opa * opa) >> 8;
 684:Drivers/lvgl/lvgl/src/core/lv_obj.c ****         dsc->border_opa = (dsc->bg_opa * opa) >> 8;
 685:Drivers/lvgl/lvgl/src/core/lv_obj.c ****         dsc->shadow_opa = (dsc->bg_opa * opa) >> 8;
 686:Drivers/lvgl/lvgl/src/core/lv_obj.c ****     }
 687:Drivers/lvgl/lvgl/src/core/lv_obj.c **** 
 688:Drivers/lvgl/lvgl/src/core/lv_obj.c ****     if(dsc->bg_opa != LV_OPA_TRANSP || dsc->border_opa != LV_OPA_TRANSP || dsc->shadow_opa != LV_OP
 689:Drivers/lvgl/lvgl/src/core/lv_obj.c ****         dsc->radius = lv_obj_get_style_radius(obj, LV_PART_SCROLLBAR);
 690:Drivers/lvgl/lvgl/src/core/lv_obj.c ****         return LV_RES_OK;
 691:Drivers/lvgl/lvgl/src/core/lv_obj.c ****     }
 692:Drivers/lvgl/lvgl/src/core/lv_obj.c ****     else {
 693:Drivers/lvgl/lvgl/src/core/lv_obj.c ****         return LV_RES_INV;
 694:Drivers/lvgl/lvgl/src/core/lv_obj.c ****     }
 695:Drivers/lvgl/lvgl/src/core/lv_obj.c **** #else
 696:Drivers/lvgl/lvgl/src/core/lv_obj.c ****     if(dsc->bg_opa != LV_OPA_TRANSP || dsc->border_opa != LV_OPA_TRANSP) return LV_RES_OK;
 697:Drivers/lvgl/lvgl/src/core/lv_obj.c ****     else return LV_RES_INV;
 698:Drivers/lvgl/lvgl/src/core/lv_obj.c **** #endif
 699:Drivers/lvgl/lvgl/src/core/lv_obj.c **** }
 700:Drivers/lvgl/lvgl/src/core/lv_obj.c **** 
 701:Drivers/lvgl/lvgl/src/core/lv_obj.c **** static void lv_obj_event(const lv_obj_class_t * class_p, lv_event_t * e)
 702:Drivers/lvgl/lvgl/src/core/lv_obj.c **** {
 703:Drivers/lvgl/lvgl/src/core/lv_obj.c ****     LV_UNUSED(class_p);
 704:Drivers/lvgl/lvgl/src/core/lv_obj.c **** 
 705:Drivers/lvgl/lvgl/src/core/lv_obj.c ****     lv_event_code_t code = lv_event_get_code(e);
 706:Drivers/lvgl/lvgl/src/core/lv_obj.c ****     lv_obj_t * obj = lv_event_get_current_target(e);
 707:Drivers/lvgl/lvgl/src/core/lv_obj.c ****     if(code == LV_EVENT_PRESSED) {
 708:Drivers/lvgl/lvgl/src/core/lv_obj.c ****         lv_obj_add_state(obj, LV_STATE_PRESSED);
 709:Drivers/lvgl/lvgl/src/core/lv_obj.c ****     }
 710:Drivers/lvgl/lvgl/src/core/lv_obj.c ****     else if(code == LV_EVENT_RELEASED) {
 711:Drivers/lvgl/lvgl/src/core/lv_obj.c ****         lv_obj_clear_state(obj, LV_STATE_PRESSED);
 712:Drivers/lvgl/lvgl/src/core/lv_obj.c ****         void * param = lv_event_get_param(e);
 713:Drivers/lvgl/lvgl/src/core/lv_obj.c ****         /*Go the checked state if enabled*/
 714:Drivers/lvgl/lvgl/src/core/lv_obj.c ****         if(lv_indev_get_scroll_obj(param) == NULL && lv_obj_has_flag(obj, LV_OBJ_FLAG_CHECKABLE)) {
 715:Drivers/lvgl/lvgl/src/core/lv_obj.c ****             if(!(lv_obj_get_state(obj) & LV_STATE_CHECKED)) lv_obj_add_state(obj, LV_STATE_CHECKED)
 716:Drivers/lvgl/lvgl/src/core/lv_obj.c ****             else lv_obj_clear_state(obj, LV_STATE_CHECKED);
 717:Drivers/lvgl/lvgl/src/core/lv_obj.c **** 
ARM GAS  /tmp/ccJvwpHF.s 			page 14


 718:Drivers/lvgl/lvgl/src/core/lv_obj.c ****             lv_res_t res = lv_event_send(obj, LV_EVENT_VALUE_CHANGED, NULL);
 719:Drivers/lvgl/lvgl/src/core/lv_obj.c ****             if(res != LV_RES_OK) return;
 720:Drivers/lvgl/lvgl/src/core/lv_obj.c ****         }
 721:Drivers/lvgl/lvgl/src/core/lv_obj.c ****     }
 722:Drivers/lvgl/lvgl/src/core/lv_obj.c ****     else if(code == LV_EVENT_PRESS_LOST) {
 723:Drivers/lvgl/lvgl/src/core/lv_obj.c ****         lv_obj_clear_state(obj, LV_STATE_PRESSED);
 724:Drivers/lvgl/lvgl/src/core/lv_obj.c ****     }
 725:Drivers/lvgl/lvgl/src/core/lv_obj.c ****     else if(code == LV_EVENT_STYLE_CHANGED) {
 726:Drivers/lvgl/lvgl/src/core/lv_obj.c ****         uint32_t child_cnt = lv_obj_get_child_cnt(obj);
 727:Drivers/lvgl/lvgl/src/core/lv_obj.c ****         for(uint32_t i = 0; i < child_cnt; i++) {
 728:Drivers/lvgl/lvgl/src/core/lv_obj.c ****             lv_obj_t * child = obj->spec_attr->children[i];
 729:Drivers/lvgl/lvgl/src/core/lv_obj.c ****             lv_obj_mark_layout_as_dirty(child);
 730:Drivers/lvgl/lvgl/src/core/lv_obj.c ****         }
 731:Drivers/lvgl/lvgl/src/core/lv_obj.c ****     }
 732:Drivers/lvgl/lvgl/src/core/lv_obj.c ****     else if(code == LV_EVENT_KEY) {
 733:Drivers/lvgl/lvgl/src/core/lv_obj.c ****         if(lv_obj_has_flag(obj, LV_OBJ_FLAG_CHECKABLE)) {
 734:Drivers/lvgl/lvgl/src/core/lv_obj.c ****             char c = *((char *)lv_event_get_param(e));
 735:Drivers/lvgl/lvgl/src/core/lv_obj.c ****             if(c == LV_KEY_RIGHT || c == LV_KEY_UP) {
 736:Drivers/lvgl/lvgl/src/core/lv_obj.c ****                 lv_obj_add_state(obj, LV_STATE_CHECKED);
 737:Drivers/lvgl/lvgl/src/core/lv_obj.c ****             }
 738:Drivers/lvgl/lvgl/src/core/lv_obj.c ****             else if(c == LV_KEY_LEFT || c == LV_KEY_DOWN) {
 739:Drivers/lvgl/lvgl/src/core/lv_obj.c ****                 lv_obj_clear_state(obj, LV_STATE_CHECKED);
 740:Drivers/lvgl/lvgl/src/core/lv_obj.c ****             }
 741:Drivers/lvgl/lvgl/src/core/lv_obj.c **** 
 742:Drivers/lvgl/lvgl/src/core/lv_obj.c ****             /*With Enter LV_EVENT_RELEASED will send VALUE_CHANGE event*/
 743:Drivers/lvgl/lvgl/src/core/lv_obj.c ****             if(c != LV_KEY_ENTER) {
 744:Drivers/lvgl/lvgl/src/core/lv_obj.c ****                 lv_res_t res = lv_event_send(obj, LV_EVENT_VALUE_CHANGED, NULL);
 745:Drivers/lvgl/lvgl/src/core/lv_obj.c ****                 if(res != LV_RES_OK) return;
 746:Drivers/lvgl/lvgl/src/core/lv_obj.c ****             }
 747:Drivers/lvgl/lvgl/src/core/lv_obj.c ****         }
 748:Drivers/lvgl/lvgl/src/core/lv_obj.c ****         else if(lv_obj_has_flag(obj, LV_OBJ_FLAG_SCROLLABLE | LV_OBJ_FLAG_SCROLL_WITH_ARROW) && !lv
 749:Drivers/lvgl/lvgl/src/core/lv_obj.c ****             /*scroll by keypad or encoder*/
 750:Drivers/lvgl/lvgl/src/core/lv_obj.c ****             lv_anim_enable_t anim_enable = LV_ANIM_OFF;
 751:Drivers/lvgl/lvgl/src/core/lv_obj.c ****             lv_coord_t sl = lv_obj_get_scroll_left(obj);
 752:Drivers/lvgl/lvgl/src/core/lv_obj.c ****             lv_coord_t sr = lv_obj_get_scroll_right(obj);
 753:Drivers/lvgl/lvgl/src/core/lv_obj.c ****             char c = *((char *)lv_event_get_param(e));
 754:Drivers/lvgl/lvgl/src/core/lv_obj.c ****             if(c == LV_KEY_DOWN) {
 755:Drivers/lvgl/lvgl/src/core/lv_obj.c ****                 /*use scroll_to_x/y functions to enforce scroll limits*/
 756:Drivers/lvgl/lvgl/src/core/lv_obj.c ****                 lv_obj_scroll_to_y(obj, lv_obj_get_scroll_y(obj) + lv_obj_get_height(obj) / 4, anim
 757:Drivers/lvgl/lvgl/src/core/lv_obj.c ****             }
 758:Drivers/lvgl/lvgl/src/core/lv_obj.c ****             else if(c == LV_KEY_UP) {
 759:Drivers/lvgl/lvgl/src/core/lv_obj.c ****                 lv_obj_scroll_to_y(obj, lv_obj_get_scroll_y(obj) - lv_obj_get_height(obj) / 4, anim
 760:Drivers/lvgl/lvgl/src/core/lv_obj.c ****             }
 761:Drivers/lvgl/lvgl/src/core/lv_obj.c ****             else if(c == LV_KEY_RIGHT) {
 762:Drivers/lvgl/lvgl/src/core/lv_obj.c ****                 /*If the object can't be scrolled horizontally then scroll it vertically*/
 763:Drivers/lvgl/lvgl/src/core/lv_obj.c ****                 if(!((lv_obj_get_scroll_dir(obj) & LV_DIR_HOR) && (sl > 0 || sr > 0)))
 764:Drivers/lvgl/lvgl/src/core/lv_obj.c ****                     lv_obj_scroll_to_y(obj, lv_obj_get_scroll_y(obj) + lv_obj_get_height(obj) / 4, 
 765:Drivers/lvgl/lvgl/src/core/lv_obj.c ****                 else
 766:Drivers/lvgl/lvgl/src/core/lv_obj.c ****                     lv_obj_scroll_to_x(obj, lv_obj_get_scroll_x(obj) + lv_obj_get_width(obj) / 4, a
 767:Drivers/lvgl/lvgl/src/core/lv_obj.c ****             }
 768:Drivers/lvgl/lvgl/src/core/lv_obj.c ****             else if(c == LV_KEY_LEFT) {
 769:Drivers/lvgl/lvgl/src/core/lv_obj.c ****                 /*If the object can't be scrolled horizontally then scroll it vertically*/
 770:Drivers/lvgl/lvgl/src/core/lv_obj.c ****                 if(!((lv_obj_get_scroll_dir(obj) & LV_DIR_HOR) && (sl > 0 || sr > 0)))
 771:Drivers/lvgl/lvgl/src/core/lv_obj.c ****                     lv_obj_scroll_to_y(obj, lv_obj_get_scroll_y(obj) - lv_obj_get_height(obj) / 4, 
 772:Drivers/lvgl/lvgl/src/core/lv_obj.c ****                 else
 773:Drivers/lvgl/lvgl/src/core/lv_obj.c ****                     lv_obj_scroll_to_x(obj, lv_obj_get_scroll_x(obj) - lv_obj_get_width(obj) / 4, a
 774:Drivers/lvgl/lvgl/src/core/lv_obj.c ****             }
ARM GAS  /tmp/ccJvwpHF.s 			page 15


 775:Drivers/lvgl/lvgl/src/core/lv_obj.c ****         }
 776:Drivers/lvgl/lvgl/src/core/lv_obj.c ****     }
 777:Drivers/lvgl/lvgl/src/core/lv_obj.c ****     else if(code == LV_EVENT_FOCUSED) {
 778:Drivers/lvgl/lvgl/src/core/lv_obj.c ****         if(lv_obj_has_flag(obj, LV_OBJ_FLAG_SCROLL_ON_FOCUS)) {
 779:Drivers/lvgl/lvgl/src/core/lv_obj.c ****             lv_obj_scroll_to_view_recursive(obj, LV_ANIM_ON);
 780:Drivers/lvgl/lvgl/src/core/lv_obj.c ****         }
 781:Drivers/lvgl/lvgl/src/core/lv_obj.c **** 
 782:Drivers/lvgl/lvgl/src/core/lv_obj.c ****         bool editing = false;
 783:Drivers/lvgl/lvgl/src/core/lv_obj.c ****         editing = lv_group_get_editing(lv_obj_get_group(obj));
 784:Drivers/lvgl/lvgl/src/core/lv_obj.c ****         lv_state_t state = LV_STATE_FOCUSED;
 785:Drivers/lvgl/lvgl/src/core/lv_obj.c **** 
 786:Drivers/lvgl/lvgl/src/core/lv_obj.c ****         /* Use the indev for then indev handler.
 787:Drivers/lvgl/lvgl/src/core/lv_obj.c ****          * But if the obj was focused manually it returns NULL so try to
 788:Drivers/lvgl/lvgl/src/core/lv_obj.c ****          * use the indev from the event*/
 789:Drivers/lvgl/lvgl/src/core/lv_obj.c ****         lv_indev_t * indev = lv_indev_get_act();
 790:Drivers/lvgl/lvgl/src/core/lv_obj.c ****         if(indev == NULL) indev = lv_event_get_indev(e);
 791:Drivers/lvgl/lvgl/src/core/lv_obj.c **** 
 792:Drivers/lvgl/lvgl/src/core/lv_obj.c ****         lv_indev_type_t indev_type = lv_indev_get_type(indev);
 793:Drivers/lvgl/lvgl/src/core/lv_obj.c ****         if(indev_type == LV_INDEV_TYPE_KEYPAD || indev_type == LV_INDEV_TYPE_ENCODER) state |= LV_S
 794:Drivers/lvgl/lvgl/src/core/lv_obj.c ****         if(editing) {
 795:Drivers/lvgl/lvgl/src/core/lv_obj.c ****             state |= LV_STATE_EDITED;
 796:Drivers/lvgl/lvgl/src/core/lv_obj.c ****             lv_obj_add_state(obj, state);
 797:Drivers/lvgl/lvgl/src/core/lv_obj.c ****         }
 798:Drivers/lvgl/lvgl/src/core/lv_obj.c ****         else {
 799:Drivers/lvgl/lvgl/src/core/lv_obj.c ****             lv_obj_add_state(obj, state);
 800:Drivers/lvgl/lvgl/src/core/lv_obj.c ****             lv_obj_clear_state(obj, LV_STATE_EDITED);
 801:Drivers/lvgl/lvgl/src/core/lv_obj.c ****         }
 802:Drivers/lvgl/lvgl/src/core/lv_obj.c ****     }
 803:Drivers/lvgl/lvgl/src/core/lv_obj.c ****     else if(code == LV_EVENT_SCROLL_BEGIN) {
 804:Drivers/lvgl/lvgl/src/core/lv_obj.c ****         lv_obj_add_state(obj, LV_STATE_SCROLLED);
 805:Drivers/lvgl/lvgl/src/core/lv_obj.c ****     }
 806:Drivers/lvgl/lvgl/src/core/lv_obj.c ****     else if(code == LV_EVENT_SCROLL_END) {
 807:Drivers/lvgl/lvgl/src/core/lv_obj.c ****         lv_obj_clear_state(obj, LV_STATE_SCROLLED);
 808:Drivers/lvgl/lvgl/src/core/lv_obj.c ****         if(lv_obj_get_scrollbar_mode(obj) == LV_SCROLLBAR_MODE_ACTIVE) {
 809:Drivers/lvgl/lvgl/src/core/lv_obj.c ****             lv_area_t hor_area, ver_area;
 810:Drivers/lvgl/lvgl/src/core/lv_obj.c ****             lv_obj_get_scrollbar_area(obj, &hor_area, &ver_area);
 811:Drivers/lvgl/lvgl/src/core/lv_obj.c ****             lv_obj_invalidate_area(obj, &hor_area);
 812:Drivers/lvgl/lvgl/src/core/lv_obj.c ****             lv_obj_invalidate_area(obj, &ver_area);
 813:Drivers/lvgl/lvgl/src/core/lv_obj.c ****         }
 814:Drivers/lvgl/lvgl/src/core/lv_obj.c ****     }
 815:Drivers/lvgl/lvgl/src/core/lv_obj.c ****     else if(code == LV_EVENT_DEFOCUSED) {
 816:Drivers/lvgl/lvgl/src/core/lv_obj.c ****         lv_obj_clear_state(obj, LV_STATE_FOCUSED | LV_STATE_EDITED | LV_STATE_FOCUS_KEY);
 817:Drivers/lvgl/lvgl/src/core/lv_obj.c ****     }
 818:Drivers/lvgl/lvgl/src/core/lv_obj.c ****     else if(code == LV_EVENT_SIZE_CHANGED) {
 819:Drivers/lvgl/lvgl/src/core/lv_obj.c ****         lv_coord_t align = lv_obj_get_style_align(obj, LV_PART_MAIN);
 820:Drivers/lvgl/lvgl/src/core/lv_obj.c ****         uint16_t layout = lv_obj_get_style_layout(obj, LV_PART_MAIN);
 821:Drivers/lvgl/lvgl/src/core/lv_obj.c ****         if(layout || align) {
 822:Drivers/lvgl/lvgl/src/core/lv_obj.c ****             lv_obj_mark_layout_as_dirty(obj);
 823:Drivers/lvgl/lvgl/src/core/lv_obj.c ****         }
 824:Drivers/lvgl/lvgl/src/core/lv_obj.c **** 
 825:Drivers/lvgl/lvgl/src/core/lv_obj.c ****         uint32_t i;
 826:Drivers/lvgl/lvgl/src/core/lv_obj.c ****         uint32_t child_cnt = lv_obj_get_child_cnt(obj);
 827:Drivers/lvgl/lvgl/src/core/lv_obj.c ****         for(i = 0; i < child_cnt; i++) {
 828:Drivers/lvgl/lvgl/src/core/lv_obj.c ****             lv_obj_t * child = obj->spec_attr->children[i];
 829:Drivers/lvgl/lvgl/src/core/lv_obj.c ****             lv_obj_mark_layout_as_dirty(child);
 830:Drivers/lvgl/lvgl/src/core/lv_obj.c ****         }
 831:Drivers/lvgl/lvgl/src/core/lv_obj.c ****     }
ARM GAS  /tmp/ccJvwpHF.s 			page 16


 832:Drivers/lvgl/lvgl/src/core/lv_obj.c ****     else if(code == LV_EVENT_CHILD_CHANGED) {
 833:Drivers/lvgl/lvgl/src/core/lv_obj.c ****         lv_coord_t w = lv_obj_get_style_width(obj, LV_PART_MAIN);
 834:Drivers/lvgl/lvgl/src/core/lv_obj.c ****         lv_coord_t h = lv_obj_get_style_height(obj, LV_PART_MAIN);
 835:Drivers/lvgl/lvgl/src/core/lv_obj.c ****         lv_coord_t align = lv_obj_get_style_align(obj, LV_PART_MAIN);
 836:Drivers/lvgl/lvgl/src/core/lv_obj.c ****         uint16_t layout = lv_obj_get_style_layout(obj, LV_PART_MAIN);
 837:Drivers/lvgl/lvgl/src/core/lv_obj.c ****         if(layout || align || w == LV_SIZE_CONTENT || h == LV_SIZE_CONTENT) {
 838:Drivers/lvgl/lvgl/src/core/lv_obj.c ****             lv_obj_mark_layout_as_dirty(obj);
 839:Drivers/lvgl/lvgl/src/core/lv_obj.c ****         }
 840:Drivers/lvgl/lvgl/src/core/lv_obj.c ****     }
 841:Drivers/lvgl/lvgl/src/core/lv_obj.c ****     else if(code == LV_EVENT_REFR_EXT_DRAW_SIZE) {
 842:Drivers/lvgl/lvgl/src/core/lv_obj.c ****         lv_coord_t d = lv_obj_calculate_ext_draw_size(obj, LV_PART_MAIN);
 843:Drivers/lvgl/lvgl/src/core/lv_obj.c ****         lv_event_set_ext_draw_size(e, d);
 844:Drivers/lvgl/lvgl/src/core/lv_obj.c ****     }
 845:Drivers/lvgl/lvgl/src/core/lv_obj.c ****     else if(code == LV_EVENT_DRAW_MAIN || code == LV_EVENT_DRAW_POST || code == LV_EVENT_COVER_CHEC
 846:Drivers/lvgl/lvgl/src/core/lv_obj.c ****         lv_obj_draw(e);
 847:Drivers/lvgl/lvgl/src/core/lv_obj.c ****     }
 848:Drivers/lvgl/lvgl/src/core/lv_obj.c **** }
 849:Drivers/lvgl/lvgl/src/core/lv_obj.c **** 
 850:Drivers/lvgl/lvgl/src/core/lv_obj.c **** /**
 851:Drivers/lvgl/lvgl/src/core/lv_obj.c ****  * Set the state (fully overwrite) of an object.
 852:Drivers/lvgl/lvgl/src/core/lv_obj.c ****  * If specified in the styles, transition animations will be started from the previous state to the
 853:Drivers/lvgl/lvgl/src/core/lv_obj.c ****  * @param obj       pointer to an object
 854:Drivers/lvgl/lvgl/src/core/lv_obj.c ****  * @param state     the new state
 855:Drivers/lvgl/lvgl/src/core/lv_obj.c ****  */
 856:Drivers/lvgl/lvgl/src/core/lv_obj.c **** static void lv_obj_set_state(lv_obj_t * obj, lv_state_t new_state)
 857:Drivers/lvgl/lvgl/src/core/lv_obj.c **** {
 858:Drivers/lvgl/lvgl/src/core/lv_obj.c ****     if(obj->state == new_state) return;
 859:Drivers/lvgl/lvgl/src/core/lv_obj.c **** 
 860:Drivers/lvgl/lvgl/src/core/lv_obj.c ****     LV_ASSERT_OBJ(obj, MY_CLASS);
 861:Drivers/lvgl/lvgl/src/core/lv_obj.c **** 
 862:Drivers/lvgl/lvgl/src/core/lv_obj.c ****     lv_state_t prev_state = obj->state;
 863:Drivers/lvgl/lvgl/src/core/lv_obj.c ****     obj->state = new_state;
 864:Drivers/lvgl/lvgl/src/core/lv_obj.c **** 
 865:Drivers/lvgl/lvgl/src/core/lv_obj.c ****     _lv_style_state_cmp_t cmp_res = _lv_obj_style_state_compare(obj, prev_state, new_state);
 866:Drivers/lvgl/lvgl/src/core/lv_obj.c ****     /*If there is no difference in styles there is nothing else to do*/
 867:Drivers/lvgl/lvgl/src/core/lv_obj.c ****     if(cmp_res == _LV_STYLE_STATE_CMP_SAME) return;
 868:Drivers/lvgl/lvgl/src/core/lv_obj.c **** 
 869:Drivers/lvgl/lvgl/src/core/lv_obj.c ****     _lv_obj_style_transition_dsc_t * ts = lv_mem_buf_get(sizeof(_lv_obj_style_transition_dsc_t) * S
 870:Drivers/lvgl/lvgl/src/core/lv_obj.c ****     lv_memset_00(ts, sizeof(_lv_obj_style_transition_dsc_t) * STYLE_TRANSITION_MAX);
 871:Drivers/lvgl/lvgl/src/core/lv_obj.c ****     uint32_t tsi = 0;
 872:Drivers/lvgl/lvgl/src/core/lv_obj.c ****     uint32_t i;
 873:Drivers/lvgl/lvgl/src/core/lv_obj.c ****     for(i = 0; i < obj->style_cnt && tsi < STYLE_TRANSITION_MAX; i++) {
 874:Drivers/lvgl/lvgl/src/core/lv_obj.c ****         _lv_obj_style_t * obj_style = &obj->styles[i];
 875:Drivers/lvgl/lvgl/src/core/lv_obj.c ****         lv_state_t state_act = lv_obj_style_get_selector_state(obj->styles[i].selector);
 876:Drivers/lvgl/lvgl/src/core/lv_obj.c ****         lv_part_t part_act = lv_obj_style_get_selector_part(obj->styles[i].selector);
 877:Drivers/lvgl/lvgl/src/core/lv_obj.c ****         if(state_act & (~new_state)) continue; /*Skip unrelated styles*/
 878:Drivers/lvgl/lvgl/src/core/lv_obj.c ****         if(obj_style->is_trans) continue;
 879:Drivers/lvgl/lvgl/src/core/lv_obj.c **** 
 880:Drivers/lvgl/lvgl/src/core/lv_obj.c ****         lv_style_value_t v;
 881:Drivers/lvgl/lvgl/src/core/lv_obj.c ****         if(lv_style_get_prop_inlined(obj_style->style, LV_STYLE_TRANSITION, &v) != LV_STYLE_RES_FOU
 882:Drivers/lvgl/lvgl/src/core/lv_obj.c ****         const lv_style_transition_dsc_t * tr = v.ptr;
 883:Drivers/lvgl/lvgl/src/core/lv_obj.c **** 
 884:Drivers/lvgl/lvgl/src/core/lv_obj.c ****         /*Add the props to the set if not added yet or added but with smaller weight*/
 885:Drivers/lvgl/lvgl/src/core/lv_obj.c ****         uint32_t j;
 886:Drivers/lvgl/lvgl/src/core/lv_obj.c ****         for(j = 0; tr->props[j] != 0 && tsi < STYLE_TRANSITION_MAX; j++) {
 887:Drivers/lvgl/lvgl/src/core/lv_obj.c ****             uint32_t t;
 888:Drivers/lvgl/lvgl/src/core/lv_obj.c ****             for(t = 0; t < tsi; t++) {
ARM GAS  /tmp/ccJvwpHF.s 			page 17


 889:Drivers/lvgl/lvgl/src/core/lv_obj.c ****                 lv_style_selector_t selector = ts[t].selector;
 890:Drivers/lvgl/lvgl/src/core/lv_obj.c ****                 lv_state_t state_ts = lv_obj_style_get_selector_state(selector);
 891:Drivers/lvgl/lvgl/src/core/lv_obj.c ****                 lv_part_t part_ts = lv_obj_style_get_selector_part(selector);
 892:Drivers/lvgl/lvgl/src/core/lv_obj.c ****                 if(ts[t].prop == tr->props[j] && part_ts == part_act && state_ts >= state_act) brea
 893:Drivers/lvgl/lvgl/src/core/lv_obj.c ****             }
 894:Drivers/lvgl/lvgl/src/core/lv_obj.c **** 
 895:Drivers/lvgl/lvgl/src/core/lv_obj.c ****             /*If not found  add it*/
 896:Drivers/lvgl/lvgl/src/core/lv_obj.c ****             if(t == tsi) {
 897:Drivers/lvgl/lvgl/src/core/lv_obj.c ****                 ts[tsi].time = tr->time;
 898:Drivers/lvgl/lvgl/src/core/lv_obj.c ****                 ts[tsi].delay = tr->delay;
 899:Drivers/lvgl/lvgl/src/core/lv_obj.c ****                 ts[tsi].path_cb = tr->path_xcb;
 900:Drivers/lvgl/lvgl/src/core/lv_obj.c ****                 ts[tsi].prop = tr->props[j];
 901:Drivers/lvgl/lvgl/src/core/lv_obj.c **** #if LV_USE_USER_DATA
 902:Drivers/lvgl/lvgl/src/core/lv_obj.c ****                 ts[tsi].user_data = tr->user_data;
 903:Drivers/lvgl/lvgl/src/core/lv_obj.c **** #endif
 904:Drivers/lvgl/lvgl/src/core/lv_obj.c ****                 ts[tsi].selector = obj_style->selector;
 905:Drivers/lvgl/lvgl/src/core/lv_obj.c ****                 tsi++;
 906:Drivers/lvgl/lvgl/src/core/lv_obj.c ****             }
 907:Drivers/lvgl/lvgl/src/core/lv_obj.c ****         }
 908:Drivers/lvgl/lvgl/src/core/lv_obj.c ****     }
 909:Drivers/lvgl/lvgl/src/core/lv_obj.c **** 
 910:Drivers/lvgl/lvgl/src/core/lv_obj.c ****     for(i = 0; i < tsi; i++) {
 911:Drivers/lvgl/lvgl/src/core/lv_obj.c ****         lv_part_t part_act = lv_obj_style_get_selector_part(ts[i].selector);
 912:Drivers/lvgl/lvgl/src/core/lv_obj.c ****         _lv_obj_style_create_transition(obj, part_act, prev_state, new_state, &ts[i]);
 913:Drivers/lvgl/lvgl/src/core/lv_obj.c ****     }
 914:Drivers/lvgl/lvgl/src/core/lv_obj.c **** 
 915:Drivers/lvgl/lvgl/src/core/lv_obj.c ****     lv_mem_buf_release(ts);
 916:Drivers/lvgl/lvgl/src/core/lv_obj.c **** 
 917:Drivers/lvgl/lvgl/src/core/lv_obj.c ****     if(cmp_res == _LV_STYLE_STATE_CMP_DIFF_REDRAW) {
 918:Drivers/lvgl/lvgl/src/core/lv_obj.c ****         lv_obj_invalidate(obj);
 919:Drivers/lvgl/lvgl/src/core/lv_obj.c ****     }
 920:Drivers/lvgl/lvgl/src/core/lv_obj.c ****     else if(cmp_res == _LV_STYLE_STATE_CMP_DIFF_LAYOUT) {
 921:Drivers/lvgl/lvgl/src/core/lv_obj.c ****         lv_obj_refresh_style(obj, LV_PART_ANY, LV_STYLE_PROP_ANY);
 922:Drivers/lvgl/lvgl/src/core/lv_obj.c ****     }
 923:Drivers/lvgl/lvgl/src/core/lv_obj.c ****     else if(cmp_res == _LV_STYLE_STATE_CMP_DIFF_DRAW_PAD) {
 924:Drivers/lvgl/lvgl/src/core/lv_obj.c ****         lv_obj_invalidate(obj);
 925:Drivers/lvgl/lvgl/src/core/lv_obj.c ****         lv_obj_refresh_ext_draw_size(obj);
 926:Drivers/lvgl/lvgl/src/core/lv_obj.c ****     }
 927:Drivers/lvgl/lvgl/src/core/lv_obj.c **** }
 928:Drivers/lvgl/lvgl/src/core/lv_obj.c **** 
 929:Drivers/lvgl/lvgl/src/core/lv_obj.c **** static bool obj_valid_child(const lv_obj_t * parent, const lv_obj_t * obj_to_find)
 930:Drivers/lvgl/lvgl/src/core/lv_obj.c **** {
  26              		.loc 1 930 0
  27              		.cfi_startproc
  28              		@ args = 0, pretend = 0, frame = 0
  29              		@ frame_needed = 0, uses_anonymous_args = 0
  30              	.LVL0:
  31 0000 F8B5     		push	{r3, r4, r5, r6, r7, lr}
  32              	.LCFI0:
  33              		.cfi_def_cfa_offset 24
  34              		.cfi_offset 3, -24
  35              		.cfi_offset 4, -20
  36              		.cfi_offset 5, -16
  37              		.cfi_offset 6, -12
  38              		.cfi_offset 7, -8
  39              		.cfi_offset 14, -4
  40 0002 0646     		mov	r6, r0
ARM GAS  /tmp/ccJvwpHF.s 			page 18


  41 0004 0D46     		mov	r5, r1
  42              	.LVL1:
 931:Drivers/lvgl/lvgl/src/core/lv_obj.c ****     /*Check all children of `parent`*/
 932:Drivers/lvgl/lvgl/src/core/lv_obj.c ****     uint32_t child_cnt = 0;
 933:Drivers/lvgl/lvgl/src/core/lv_obj.c ****     if(parent->spec_attr) child_cnt = parent->spec_attr->child_cnt;
  43              		.loc 1 933 0
  44 0006 8368     		ldr	r3, [r0, #8]
  45 0008 83B1     		cbz	r3, .L6
  46              		.loc 1 933 0 is_stmt 0 discriminator 1
  47 000a 5F68     		ldr	r7, [r3, #4]
  48              	.LVL2:
  49              	.L2:
 934:Drivers/lvgl/lvgl/src/core/lv_obj.c ****     uint32_t i;
 935:Drivers/lvgl/lvgl/src/core/lv_obj.c ****     for(i = 0; i < child_cnt; i++) {
  50              		.loc 1 935 0 is_stmt 1
  51 000c 0024     		movs	r4, #0
  52              	.LVL3:
  53              	.L3:
  54              		.loc 1 935 0 is_stmt 0 discriminator 1
  55 000e A742     		cmp	r7, r4
  56 0010 0ED9     		bls	.L9
  57              	.LBB95:
 936:Drivers/lvgl/lvgl/src/core/lv_obj.c ****         lv_obj_t * child = parent->spec_attr->children[i];
  58              		.loc 1 936 0 is_stmt 1
  59 0012 B368     		ldr	r3, [r6, #8]
  60 0014 1B68     		ldr	r3, [r3]
  61 0016 53F82400 		ldr	r0, [r3, r4, lsl #2]
  62              	.LVL4:
 937:Drivers/lvgl/lvgl/src/core/lv_obj.c ****         if(child == obj_to_find) {
  63              		.loc 1 937 0
  64 001a A842     		cmp	r0, r5
  65 001c 0BD0     		beq	.L7
 938:Drivers/lvgl/lvgl/src/core/lv_obj.c ****             return true;
 939:Drivers/lvgl/lvgl/src/core/lv_obj.c ****         }
 940:Drivers/lvgl/lvgl/src/core/lv_obj.c **** 
 941:Drivers/lvgl/lvgl/src/core/lv_obj.c ****         /*Check the children*/
 942:Drivers/lvgl/lvgl/src/core/lv_obj.c ****         bool found = obj_valid_child(child, obj_to_find);
  66              		.loc 1 942 0
  67 001e 2946     		mov	r1, r5
  68 0020 FFF7EEFF 		bl	obj_valid_child
  69              	.LVL5:
 943:Drivers/lvgl/lvgl/src/core/lv_obj.c ****         if(found) {
  70              		.loc 1 943 0
  71 0024 0346     		mov	r3, r0
  72 0026 20B9     		cbnz	r0, .L4
  73              	.LBE95:
 935:Drivers/lvgl/lvgl/src/core/lv_obj.c ****         lv_obj_t * child = parent->spec_attr->children[i];
  74              		.loc 1 935 0 discriminator 2
  75 0028 0134     		adds	r4, r4, #1
  76              	.LVL6:
  77 002a F0E7     		b	.L3
  78              	.LVL7:
  79              	.L6:
 932:Drivers/lvgl/lvgl/src/core/lv_obj.c ****     if(parent->spec_attr) child_cnt = parent->spec_attr->child_cnt;
  80              		.loc 1 932 0
  81 002c 0027     		movs	r7, #0
  82 002e EDE7     		b	.L2
ARM GAS  /tmp/ccJvwpHF.s 			page 19


  83              	.LVL8:
  84              	.L9:
 944:Drivers/lvgl/lvgl/src/core/lv_obj.c ****             return true;
 945:Drivers/lvgl/lvgl/src/core/lv_obj.c ****         }
 946:Drivers/lvgl/lvgl/src/core/lv_obj.c ****     }
 947:Drivers/lvgl/lvgl/src/core/lv_obj.c ****     return false;
  85              		.loc 1 947 0
  86 0030 0023     		movs	r3, #0
  87              	.L4:
 948:Drivers/lvgl/lvgl/src/core/lv_obj.c **** }
  88              		.loc 1 948 0
  89 0032 1846     		mov	r0, r3
  90 0034 F8BD     		pop	{r3, r4, r5, r6, r7, pc}
  91              	.LVL9:
  92              	.L7:
  93              	.LBB96:
 938:Drivers/lvgl/lvgl/src/core/lv_obj.c ****         }
  94              		.loc 1 938 0
  95 0036 0123     		movs	r3, #1
  96 0038 FBE7     		b	.L4
  97              	.LBE96:
  98              		.cfi_endproc
  99              	.LFE227:
 101              		.section	.text.scrollbar_init_draw_dsc,"ax",%progbits
 102              		.align	1
 103              		.syntax unified
 104              		.thumb
 105              		.thumb_func
 106              		.fpu fpv5-d16
 108              	scrollbar_init_draw_dsc:
 109              	.LFB224:
 650:Drivers/lvgl/lvgl/src/core/lv_obj.c ****     lv_draw_rect_dsc_init(dsc);
 110              		.loc 1 650 0
 111              		.cfi_startproc
 112              		@ args = 0, pretend = 0, frame = 0
 113              		@ frame_needed = 0, uses_anonymous_args = 0
 114              	.LVL10:
 115 0000 38B5     		push	{r3, r4, r5, lr}
 116              	.LCFI1:
 117              		.cfi_def_cfa_offset 16
 118              		.cfi_offset 3, -16
 119              		.cfi_offset 4, -12
 120              		.cfi_offset 5, -8
 121              		.cfi_offset 14, -4
 122 0002 0546     		mov	r5, r0
 123 0004 0C46     		mov	r4, r1
 651:Drivers/lvgl/lvgl/src/core/lv_obj.c ****     dsc->bg_opa = lv_obj_get_style_bg_opa(obj, LV_PART_SCROLLBAR);
 124              		.loc 1 651 0
 125 0006 0846     		mov	r0, r1
 126              	.LVL11:
 127 0008 FFF7FEFF 		bl	lv_draw_rect_dsc_init
 128              	.LVL12:
 129              	.LBB97:
 130              	.LBB98:
 131              		.file 2 "Drivers/lvgl/lvgl/src/core/lv_obj_style_gen.h"
   1:Drivers/lvgl/lvgl/src/core/lv_obj_style_gen.h **** static inline lv_coord_t lv_obj_get_style_width(const struct _lv_obj_t * obj, uint32_t part)
   2:Drivers/lvgl/lvgl/src/core/lv_obj_style_gen.h **** {
ARM GAS  /tmp/ccJvwpHF.s 			page 20


   3:Drivers/lvgl/lvgl/src/core/lv_obj_style_gen.h ****     lv_style_value_t v = lv_obj_get_style_prop(obj, part, LV_STYLE_WIDTH);
   4:Drivers/lvgl/lvgl/src/core/lv_obj_style_gen.h ****     return (lv_coord_t)v.num;
   5:Drivers/lvgl/lvgl/src/core/lv_obj_style_gen.h **** }
   6:Drivers/lvgl/lvgl/src/core/lv_obj_style_gen.h **** 
   7:Drivers/lvgl/lvgl/src/core/lv_obj_style_gen.h **** static inline lv_coord_t lv_obj_get_style_min_width(const struct _lv_obj_t * obj, uint32_t part)
   8:Drivers/lvgl/lvgl/src/core/lv_obj_style_gen.h **** {
   9:Drivers/lvgl/lvgl/src/core/lv_obj_style_gen.h ****     lv_style_value_t v = lv_obj_get_style_prop(obj, part, LV_STYLE_MIN_WIDTH);
  10:Drivers/lvgl/lvgl/src/core/lv_obj_style_gen.h ****     return (lv_coord_t)v.num;
  11:Drivers/lvgl/lvgl/src/core/lv_obj_style_gen.h **** }
  12:Drivers/lvgl/lvgl/src/core/lv_obj_style_gen.h **** 
  13:Drivers/lvgl/lvgl/src/core/lv_obj_style_gen.h **** static inline lv_coord_t lv_obj_get_style_max_width(const struct _lv_obj_t * obj, uint32_t part)
  14:Drivers/lvgl/lvgl/src/core/lv_obj_style_gen.h **** {
  15:Drivers/lvgl/lvgl/src/core/lv_obj_style_gen.h ****     lv_style_value_t v = lv_obj_get_style_prop(obj, part, LV_STYLE_MAX_WIDTH);
  16:Drivers/lvgl/lvgl/src/core/lv_obj_style_gen.h ****     return (lv_coord_t)v.num;
  17:Drivers/lvgl/lvgl/src/core/lv_obj_style_gen.h **** }
  18:Drivers/lvgl/lvgl/src/core/lv_obj_style_gen.h **** 
  19:Drivers/lvgl/lvgl/src/core/lv_obj_style_gen.h **** static inline lv_coord_t lv_obj_get_style_height(const struct _lv_obj_t * obj, uint32_t part)
  20:Drivers/lvgl/lvgl/src/core/lv_obj_style_gen.h **** {
  21:Drivers/lvgl/lvgl/src/core/lv_obj_style_gen.h ****     lv_style_value_t v = lv_obj_get_style_prop(obj, part, LV_STYLE_HEIGHT);
  22:Drivers/lvgl/lvgl/src/core/lv_obj_style_gen.h ****     return (lv_coord_t)v.num;
  23:Drivers/lvgl/lvgl/src/core/lv_obj_style_gen.h **** }
  24:Drivers/lvgl/lvgl/src/core/lv_obj_style_gen.h **** 
  25:Drivers/lvgl/lvgl/src/core/lv_obj_style_gen.h **** static inline lv_coord_t lv_obj_get_style_min_height(const struct _lv_obj_t * obj, uint32_t part)
  26:Drivers/lvgl/lvgl/src/core/lv_obj_style_gen.h **** {
  27:Drivers/lvgl/lvgl/src/core/lv_obj_style_gen.h ****     lv_style_value_t v = lv_obj_get_style_prop(obj, part, LV_STYLE_MIN_HEIGHT);
  28:Drivers/lvgl/lvgl/src/core/lv_obj_style_gen.h ****     return (lv_coord_t)v.num;
  29:Drivers/lvgl/lvgl/src/core/lv_obj_style_gen.h **** }
  30:Drivers/lvgl/lvgl/src/core/lv_obj_style_gen.h **** 
  31:Drivers/lvgl/lvgl/src/core/lv_obj_style_gen.h **** static inline lv_coord_t lv_obj_get_style_max_height(const struct _lv_obj_t * obj, uint32_t part)
  32:Drivers/lvgl/lvgl/src/core/lv_obj_style_gen.h **** {
  33:Drivers/lvgl/lvgl/src/core/lv_obj_style_gen.h ****     lv_style_value_t v = lv_obj_get_style_prop(obj, part, LV_STYLE_MAX_HEIGHT);
  34:Drivers/lvgl/lvgl/src/core/lv_obj_style_gen.h ****     return (lv_coord_t)v.num;
  35:Drivers/lvgl/lvgl/src/core/lv_obj_style_gen.h **** }
  36:Drivers/lvgl/lvgl/src/core/lv_obj_style_gen.h **** 
  37:Drivers/lvgl/lvgl/src/core/lv_obj_style_gen.h **** static inline lv_coord_t lv_obj_get_style_x(const struct _lv_obj_t * obj, uint32_t part)
  38:Drivers/lvgl/lvgl/src/core/lv_obj_style_gen.h **** {
  39:Drivers/lvgl/lvgl/src/core/lv_obj_style_gen.h ****     lv_style_value_t v = lv_obj_get_style_prop(obj, part, LV_STYLE_X);
  40:Drivers/lvgl/lvgl/src/core/lv_obj_style_gen.h ****     return (lv_coord_t)v.num;
  41:Drivers/lvgl/lvgl/src/core/lv_obj_style_gen.h **** }
  42:Drivers/lvgl/lvgl/src/core/lv_obj_style_gen.h **** 
  43:Drivers/lvgl/lvgl/src/core/lv_obj_style_gen.h **** static inline lv_coord_t lv_obj_get_style_y(const struct _lv_obj_t * obj, uint32_t part)
  44:Drivers/lvgl/lvgl/src/core/lv_obj_style_gen.h **** {
  45:Drivers/lvgl/lvgl/src/core/lv_obj_style_gen.h ****     lv_style_value_t v = lv_obj_get_style_prop(obj, part, LV_STYLE_Y);
  46:Drivers/lvgl/lvgl/src/core/lv_obj_style_gen.h ****     return (lv_coord_t)v.num;
  47:Drivers/lvgl/lvgl/src/core/lv_obj_style_gen.h **** }
  48:Drivers/lvgl/lvgl/src/core/lv_obj_style_gen.h **** 
  49:Drivers/lvgl/lvgl/src/core/lv_obj_style_gen.h **** static inline lv_align_t lv_obj_get_style_align(const struct _lv_obj_t * obj, uint32_t part)
  50:Drivers/lvgl/lvgl/src/core/lv_obj_style_gen.h **** {
  51:Drivers/lvgl/lvgl/src/core/lv_obj_style_gen.h ****     lv_style_value_t v = lv_obj_get_style_prop(obj, part, LV_STYLE_ALIGN);
  52:Drivers/lvgl/lvgl/src/core/lv_obj_style_gen.h ****     return (lv_align_t)v.num;
  53:Drivers/lvgl/lvgl/src/core/lv_obj_style_gen.h **** }
  54:Drivers/lvgl/lvgl/src/core/lv_obj_style_gen.h **** 
  55:Drivers/lvgl/lvgl/src/core/lv_obj_style_gen.h **** static inline lv_coord_t lv_obj_get_style_transform_width(const struct _lv_obj_t * obj, uint32_t pa
  56:Drivers/lvgl/lvgl/src/core/lv_obj_style_gen.h **** {
  57:Drivers/lvgl/lvgl/src/core/lv_obj_style_gen.h ****     lv_style_value_t v = lv_obj_get_style_prop(obj, part, LV_STYLE_TRANSFORM_WIDTH);
  58:Drivers/lvgl/lvgl/src/core/lv_obj_style_gen.h ****     return (lv_coord_t)v.num;
  59:Drivers/lvgl/lvgl/src/core/lv_obj_style_gen.h **** }
ARM GAS  /tmp/ccJvwpHF.s 			page 21


  60:Drivers/lvgl/lvgl/src/core/lv_obj_style_gen.h **** 
  61:Drivers/lvgl/lvgl/src/core/lv_obj_style_gen.h **** static inline lv_coord_t lv_obj_get_style_transform_height(const struct _lv_obj_t * obj, uint32_t p
  62:Drivers/lvgl/lvgl/src/core/lv_obj_style_gen.h **** {
  63:Drivers/lvgl/lvgl/src/core/lv_obj_style_gen.h ****     lv_style_value_t v = lv_obj_get_style_prop(obj, part, LV_STYLE_TRANSFORM_HEIGHT);
  64:Drivers/lvgl/lvgl/src/core/lv_obj_style_gen.h ****     return (lv_coord_t)v.num;
  65:Drivers/lvgl/lvgl/src/core/lv_obj_style_gen.h **** }
  66:Drivers/lvgl/lvgl/src/core/lv_obj_style_gen.h **** 
  67:Drivers/lvgl/lvgl/src/core/lv_obj_style_gen.h **** static inline lv_coord_t lv_obj_get_style_translate_x(const struct _lv_obj_t * obj, uint32_t part)
  68:Drivers/lvgl/lvgl/src/core/lv_obj_style_gen.h **** {
  69:Drivers/lvgl/lvgl/src/core/lv_obj_style_gen.h ****     lv_style_value_t v = lv_obj_get_style_prop(obj, part, LV_STYLE_TRANSLATE_X);
  70:Drivers/lvgl/lvgl/src/core/lv_obj_style_gen.h ****     return (lv_coord_t)v.num;
  71:Drivers/lvgl/lvgl/src/core/lv_obj_style_gen.h **** }
  72:Drivers/lvgl/lvgl/src/core/lv_obj_style_gen.h **** 
  73:Drivers/lvgl/lvgl/src/core/lv_obj_style_gen.h **** static inline lv_coord_t lv_obj_get_style_translate_y(const struct _lv_obj_t * obj, uint32_t part)
  74:Drivers/lvgl/lvgl/src/core/lv_obj_style_gen.h **** {
  75:Drivers/lvgl/lvgl/src/core/lv_obj_style_gen.h ****     lv_style_value_t v = lv_obj_get_style_prop(obj, part, LV_STYLE_TRANSLATE_Y);
  76:Drivers/lvgl/lvgl/src/core/lv_obj_style_gen.h ****     return (lv_coord_t)v.num;
  77:Drivers/lvgl/lvgl/src/core/lv_obj_style_gen.h **** }
  78:Drivers/lvgl/lvgl/src/core/lv_obj_style_gen.h **** 
  79:Drivers/lvgl/lvgl/src/core/lv_obj_style_gen.h **** static inline lv_coord_t lv_obj_get_style_transform_zoom(const struct _lv_obj_t * obj, uint32_t par
  80:Drivers/lvgl/lvgl/src/core/lv_obj_style_gen.h **** {
  81:Drivers/lvgl/lvgl/src/core/lv_obj_style_gen.h ****     lv_style_value_t v = lv_obj_get_style_prop(obj, part, LV_STYLE_TRANSFORM_ZOOM);
  82:Drivers/lvgl/lvgl/src/core/lv_obj_style_gen.h ****     return (lv_coord_t)v.num;
  83:Drivers/lvgl/lvgl/src/core/lv_obj_style_gen.h **** }
  84:Drivers/lvgl/lvgl/src/core/lv_obj_style_gen.h **** 
  85:Drivers/lvgl/lvgl/src/core/lv_obj_style_gen.h **** static inline lv_coord_t lv_obj_get_style_transform_angle(const struct _lv_obj_t * obj, uint32_t pa
  86:Drivers/lvgl/lvgl/src/core/lv_obj_style_gen.h **** {
  87:Drivers/lvgl/lvgl/src/core/lv_obj_style_gen.h ****     lv_style_value_t v = lv_obj_get_style_prop(obj, part, LV_STYLE_TRANSFORM_ANGLE);
  88:Drivers/lvgl/lvgl/src/core/lv_obj_style_gen.h ****     return (lv_coord_t)v.num;
  89:Drivers/lvgl/lvgl/src/core/lv_obj_style_gen.h **** }
  90:Drivers/lvgl/lvgl/src/core/lv_obj_style_gen.h **** 
  91:Drivers/lvgl/lvgl/src/core/lv_obj_style_gen.h **** static inline lv_coord_t lv_obj_get_style_transform_pivot_x(const struct _lv_obj_t * obj, uint32_t 
  92:Drivers/lvgl/lvgl/src/core/lv_obj_style_gen.h **** {
  93:Drivers/lvgl/lvgl/src/core/lv_obj_style_gen.h ****     lv_style_value_t v = lv_obj_get_style_prop(obj, part, LV_STYLE_TRANSFORM_PIVOT_X);
  94:Drivers/lvgl/lvgl/src/core/lv_obj_style_gen.h ****     return (lv_coord_t)v.num;
  95:Drivers/lvgl/lvgl/src/core/lv_obj_style_gen.h **** }
  96:Drivers/lvgl/lvgl/src/core/lv_obj_style_gen.h **** 
  97:Drivers/lvgl/lvgl/src/core/lv_obj_style_gen.h **** static inline lv_coord_t lv_obj_get_style_transform_pivot_y(const struct _lv_obj_t * obj, uint32_t 
  98:Drivers/lvgl/lvgl/src/core/lv_obj_style_gen.h **** {
  99:Drivers/lvgl/lvgl/src/core/lv_obj_style_gen.h ****     lv_style_value_t v = lv_obj_get_style_prop(obj, part, LV_STYLE_TRANSFORM_PIVOT_Y);
 100:Drivers/lvgl/lvgl/src/core/lv_obj_style_gen.h ****     return (lv_coord_t)v.num;
 101:Drivers/lvgl/lvgl/src/core/lv_obj_style_gen.h **** }
 102:Drivers/lvgl/lvgl/src/core/lv_obj_style_gen.h **** 
 103:Drivers/lvgl/lvgl/src/core/lv_obj_style_gen.h **** static inline lv_coord_t lv_obj_get_style_pad_top(const struct _lv_obj_t * obj, uint32_t part)
 104:Drivers/lvgl/lvgl/src/core/lv_obj_style_gen.h **** {
 105:Drivers/lvgl/lvgl/src/core/lv_obj_style_gen.h ****     lv_style_value_t v = lv_obj_get_style_prop(obj, part, LV_STYLE_PAD_TOP);
 106:Drivers/lvgl/lvgl/src/core/lv_obj_style_gen.h ****     return (lv_coord_t)v.num;
 107:Drivers/lvgl/lvgl/src/core/lv_obj_style_gen.h **** }
 108:Drivers/lvgl/lvgl/src/core/lv_obj_style_gen.h **** 
 109:Drivers/lvgl/lvgl/src/core/lv_obj_style_gen.h **** static inline lv_coord_t lv_obj_get_style_pad_bottom(const struct _lv_obj_t * obj, uint32_t part)
 110:Drivers/lvgl/lvgl/src/core/lv_obj_style_gen.h **** {
 111:Drivers/lvgl/lvgl/src/core/lv_obj_style_gen.h ****     lv_style_value_t v = lv_obj_get_style_prop(obj, part, LV_STYLE_PAD_BOTTOM);
 112:Drivers/lvgl/lvgl/src/core/lv_obj_style_gen.h ****     return (lv_coord_t)v.num;
 113:Drivers/lvgl/lvgl/src/core/lv_obj_style_gen.h **** }
 114:Drivers/lvgl/lvgl/src/core/lv_obj_style_gen.h **** 
 115:Drivers/lvgl/lvgl/src/core/lv_obj_style_gen.h **** static inline lv_coord_t lv_obj_get_style_pad_left(const struct _lv_obj_t * obj, uint32_t part)
 116:Drivers/lvgl/lvgl/src/core/lv_obj_style_gen.h **** {
ARM GAS  /tmp/ccJvwpHF.s 			page 22


 117:Drivers/lvgl/lvgl/src/core/lv_obj_style_gen.h ****     lv_style_value_t v = lv_obj_get_style_prop(obj, part, LV_STYLE_PAD_LEFT);
 118:Drivers/lvgl/lvgl/src/core/lv_obj_style_gen.h ****     return (lv_coord_t)v.num;
 119:Drivers/lvgl/lvgl/src/core/lv_obj_style_gen.h **** }
 120:Drivers/lvgl/lvgl/src/core/lv_obj_style_gen.h **** 
 121:Drivers/lvgl/lvgl/src/core/lv_obj_style_gen.h **** static inline lv_coord_t lv_obj_get_style_pad_right(const struct _lv_obj_t * obj, uint32_t part)
 122:Drivers/lvgl/lvgl/src/core/lv_obj_style_gen.h **** {
 123:Drivers/lvgl/lvgl/src/core/lv_obj_style_gen.h ****     lv_style_value_t v = lv_obj_get_style_prop(obj, part, LV_STYLE_PAD_RIGHT);
 124:Drivers/lvgl/lvgl/src/core/lv_obj_style_gen.h ****     return (lv_coord_t)v.num;
 125:Drivers/lvgl/lvgl/src/core/lv_obj_style_gen.h **** }
 126:Drivers/lvgl/lvgl/src/core/lv_obj_style_gen.h **** 
 127:Drivers/lvgl/lvgl/src/core/lv_obj_style_gen.h **** static inline lv_coord_t lv_obj_get_style_pad_row(const struct _lv_obj_t * obj, uint32_t part)
 128:Drivers/lvgl/lvgl/src/core/lv_obj_style_gen.h **** {
 129:Drivers/lvgl/lvgl/src/core/lv_obj_style_gen.h ****     lv_style_value_t v = lv_obj_get_style_prop(obj, part, LV_STYLE_PAD_ROW);
 130:Drivers/lvgl/lvgl/src/core/lv_obj_style_gen.h ****     return (lv_coord_t)v.num;
 131:Drivers/lvgl/lvgl/src/core/lv_obj_style_gen.h **** }
 132:Drivers/lvgl/lvgl/src/core/lv_obj_style_gen.h **** 
 133:Drivers/lvgl/lvgl/src/core/lv_obj_style_gen.h **** static inline lv_coord_t lv_obj_get_style_pad_column(const struct _lv_obj_t * obj, uint32_t part)
 134:Drivers/lvgl/lvgl/src/core/lv_obj_style_gen.h **** {
 135:Drivers/lvgl/lvgl/src/core/lv_obj_style_gen.h ****     lv_style_value_t v = lv_obj_get_style_prop(obj, part, LV_STYLE_PAD_COLUMN);
 136:Drivers/lvgl/lvgl/src/core/lv_obj_style_gen.h ****     return (lv_coord_t)v.num;
 137:Drivers/lvgl/lvgl/src/core/lv_obj_style_gen.h **** }
 138:Drivers/lvgl/lvgl/src/core/lv_obj_style_gen.h **** 
 139:Drivers/lvgl/lvgl/src/core/lv_obj_style_gen.h **** static inline lv_color_t lv_obj_get_style_bg_color(const struct _lv_obj_t * obj, uint32_t part)
 140:Drivers/lvgl/lvgl/src/core/lv_obj_style_gen.h **** {
 141:Drivers/lvgl/lvgl/src/core/lv_obj_style_gen.h ****     lv_style_value_t v = lv_obj_get_style_prop(obj, part, LV_STYLE_BG_COLOR);
 142:Drivers/lvgl/lvgl/src/core/lv_obj_style_gen.h ****     return v.color;
 143:Drivers/lvgl/lvgl/src/core/lv_obj_style_gen.h **** }
 144:Drivers/lvgl/lvgl/src/core/lv_obj_style_gen.h **** 
 145:Drivers/lvgl/lvgl/src/core/lv_obj_style_gen.h **** static inline lv_color_t lv_obj_get_style_bg_color_filtered(const struct _lv_obj_t * obj, uint32_t 
 146:Drivers/lvgl/lvgl/src/core/lv_obj_style_gen.h **** {
 147:Drivers/lvgl/lvgl/src/core/lv_obj_style_gen.h ****     lv_style_value_t v = _lv_obj_style_apply_color_filter(obj, part, lv_obj_get_style_prop(obj, par
 148:Drivers/lvgl/lvgl/src/core/lv_obj_style_gen.h ****     return v.color;
 149:Drivers/lvgl/lvgl/src/core/lv_obj_style_gen.h **** }
 150:Drivers/lvgl/lvgl/src/core/lv_obj_style_gen.h **** 
 151:Drivers/lvgl/lvgl/src/core/lv_obj_style_gen.h **** static inline lv_opa_t lv_obj_get_style_bg_opa(const struct _lv_obj_t * obj, uint32_t part)
 152:Drivers/lvgl/lvgl/src/core/lv_obj_style_gen.h **** {
 153:Drivers/lvgl/lvgl/src/core/lv_obj_style_gen.h ****     lv_style_value_t v = lv_obj_get_style_prop(obj, part, LV_STYLE_BG_OPA);
 132              		.loc 2 153 0
 133 000c 2122     		movs	r2, #33
 134 000e 4FF48031 		mov	r1, #65536
 135 0012 2846     		mov	r0, r5
 136 0014 FFF7FEFF 		bl	lv_obj_get_style_prop
 137              	.LVL13:
 154:Drivers/lvgl/lvgl/src/core/lv_obj_style_gen.h ****     return (lv_opa_t)v.num;
 138              		.loc 2 154 0
 139 0018 C0B2     		uxtb	r0, r0
 140              	.LVL14:
 141              	.LBE98:
 142              	.LBE97:
 652:Drivers/lvgl/lvgl/src/core/lv_obj.c ****     if(dsc->bg_opa > LV_OPA_MIN) {
 143              		.loc 1 652 0
 144 001a E070     		strb	r0, [r4, #3]
 653:Drivers/lvgl/lvgl/src/core/lv_obj.c ****         dsc->bg_color = lv_obj_get_style_bg_color(obj, LV_PART_SCROLLBAR);
 145              		.loc 1 653 0
 146 001c 0228     		cmp	r0, #2
 147 001e 3DD8     		bhi	.L21
 148              	.L11:
ARM GAS  /tmp/ccJvwpHF.s 			page 23


 149              	.LVL15:
 150              	.LBB99:
 151              	.LBB100:
 155:Drivers/lvgl/lvgl/src/core/lv_obj_style_gen.h **** }
 156:Drivers/lvgl/lvgl/src/core/lv_obj_style_gen.h **** 
 157:Drivers/lvgl/lvgl/src/core/lv_obj_style_gen.h **** static inline lv_color_t lv_obj_get_style_bg_grad_color(const struct _lv_obj_t * obj, uint32_t part
 158:Drivers/lvgl/lvgl/src/core/lv_obj_style_gen.h **** {
 159:Drivers/lvgl/lvgl/src/core/lv_obj_style_gen.h ****     lv_style_value_t v = lv_obj_get_style_prop(obj, part, LV_STYLE_BG_GRAD_COLOR);
 160:Drivers/lvgl/lvgl/src/core/lv_obj_style_gen.h ****     return v.color;
 161:Drivers/lvgl/lvgl/src/core/lv_obj_style_gen.h **** }
 162:Drivers/lvgl/lvgl/src/core/lv_obj_style_gen.h **** 
 163:Drivers/lvgl/lvgl/src/core/lv_obj_style_gen.h **** static inline lv_color_t lv_obj_get_style_bg_grad_color_filtered(const struct _lv_obj_t * obj, uint
 164:Drivers/lvgl/lvgl/src/core/lv_obj_style_gen.h **** {
 165:Drivers/lvgl/lvgl/src/core/lv_obj_style_gen.h ****     lv_style_value_t v = _lv_obj_style_apply_color_filter(obj, part, lv_obj_get_style_prop(obj, par
 166:Drivers/lvgl/lvgl/src/core/lv_obj_style_gen.h ****     return v.color;
 167:Drivers/lvgl/lvgl/src/core/lv_obj_style_gen.h **** }
 168:Drivers/lvgl/lvgl/src/core/lv_obj_style_gen.h **** 
 169:Drivers/lvgl/lvgl/src/core/lv_obj_style_gen.h **** static inline lv_grad_dir_t lv_obj_get_style_bg_grad_dir(const struct _lv_obj_t * obj, uint32_t par
 170:Drivers/lvgl/lvgl/src/core/lv_obj_style_gen.h **** {
 171:Drivers/lvgl/lvgl/src/core/lv_obj_style_gen.h ****     lv_style_value_t v = lv_obj_get_style_prop(obj, part, LV_STYLE_BG_GRAD_DIR);
 172:Drivers/lvgl/lvgl/src/core/lv_obj_style_gen.h ****     return (lv_grad_dir_t)v.num;
 173:Drivers/lvgl/lvgl/src/core/lv_obj_style_gen.h **** }
 174:Drivers/lvgl/lvgl/src/core/lv_obj_style_gen.h **** 
 175:Drivers/lvgl/lvgl/src/core/lv_obj_style_gen.h **** static inline lv_coord_t lv_obj_get_style_bg_main_stop(const struct _lv_obj_t * obj, uint32_t part)
 176:Drivers/lvgl/lvgl/src/core/lv_obj_style_gen.h **** {
 177:Drivers/lvgl/lvgl/src/core/lv_obj_style_gen.h ****     lv_style_value_t v = lv_obj_get_style_prop(obj, part, LV_STYLE_BG_MAIN_STOP);
 178:Drivers/lvgl/lvgl/src/core/lv_obj_style_gen.h ****     return (lv_coord_t)v.num;
 179:Drivers/lvgl/lvgl/src/core/lv_obj_style_gen.h **** }
 180:Drivers/lvgl/lvgl/src/core/lv_obj_style_gen.h **** 
 181:Drivers/lvgl/lvgl/src/core/lv_obj_style_gen.h **** static inline lv_coord_t lv_obj_get_style_bg_grad_stop(const struct _lv_obj_t * obj, uint32_t part)
 182:Drivers/lvgl/lvgl/src/core/lv_obj_style_gen.h **** {
 183:Drivers/lvgl/lvgl/src/core/lv_obj_style_gen.h ****     lv_style_value_t v = lv_obj_get_style_prop(obj, part, LV_STYLE_BG_GRAD_STOP);
 184:Drivers/lvgl/lvgl/src/core/lv_obj_style_gen.h ****     return (lv_coord_t)v.num;
 185:Drivers/lvgl/lvgl/src/core/lv_obj_style_gen.h **** }
 186:Drivers/lvgl/lvgl/src/core/lv_obj_style_gen.h **** 
 187:Drivers/lvgl/lvgl/src/core/lv_obj_style_gen.h **** static inline const lv_grad_dsc_t * lv_obj_get_style_bg_grad(const struct _lv_obj_t * obj, uint32_t
 188:Drivers/lvgl/lvgl/src/core/lv_obj_style_gen.h **** {
 189:Drivers/lvgl/lvgl/src/core/lv_obj_style_gen.h ****     lv_style_value_t v = lv_obj_get_style_prop(obj, part, LV_STYLE_BG_GRAD);
 190:Drivers/lvgl/lvgl/src/core/lv_obj_style_gen.h ****     return (const lv_grad_dsc_t *)v.ptr;
 191:Drivers/lvgl/lvgl/src/core/lv_obj_style_gen.h **** }
 192:Drivers/lvgl/lvgl/src/core/lv_obj_style_gen.h **** 
 193:Drivers/lvgl/lvgl/src/core/lv_obj_style_gen.h **** static inline lv_dither_mode_t lv_obj_get_style_bg_dither_mode(const struct _lv_obj_t * obj, uint32
 194:Drivers/lvgl/lvgl/src/core/lv_obj_style_gen.h **** {
 195:Drivers/lvgl/lvgl/src/core/lv_obj_style_gen.h ****     lv_style_value_t v = lv_obj_get_style_prop(obj, part, LV_STYLE_BG_DITHER_MODE);
 196:Drivers/lvgl/lvgl/src/core/lv_obj_style_gen.h ****     return (lv_dither_mode_t)v.num;
 197:Drivers/lvgl/lvgl/src/core/lv_obj_style_gen.h **** }
 198:Drivers/lvgl/lvgl/src/core/lv_obj_style_gen.h **** 
 199:Drivers/lvgl/lvgl/src/core/lv_obj_style_gen.h **** static inline const void * lv_obj_get_style_bg_img_src(const struct _lv_obj_t * obj, uint32_t part)
 200:Drivers/lvgl/lvgl/src/core/lv_obj_style_gen.h **** {
 201:Drivers/lvgl/lvgl/src/core/lv_obj_style_gen.h ****     lv_style_value_t v = lv_obj_get_style_prop(obj, part, LV_STYLE_BG_IMG_SRC);
 202:Drivers/lvgl/lvgl/src/core/lv_obj_style_gen.h ****     return (const void *)v.ptr;
 203:Drivers/lvgl/lvgl/src/core/lv_obj_style_gen.h **** }
 204:Drivers/lvgl/lvgl/src/core/lv_obj_style_gen.h **** 
 205:Drivers/lvgl/lvgl/src/core/lv_obj_style_gen.h **** static inline lv_opa_t lv_obj_get_style_bg_img_opa(const struct _lv_obj_t * obj, uint32_t part)
 206:Drivers/lvgl/lvgl/src/core/lv_obj_style_gen.h **** {
 207:Drivers/lvgl/lvgl/src/core/lv_obj_style_gen.h ****     lv_style_value_t v = lv_obj_get_style_prop(obj, part, LV_STYLE_BG_IMG_OPA);
 208:Drivers/lvgl/lvgl/src/core/lv_obj_style_gen.h ****     return (lv_opa_t)v.num;
ARM GAS  /tmp/ccJvwpHF.s 			page 24


 209:Drivers/lvgl/lvgl/src/core/lv_obj_style_gen.h **** }
 210:Drivers/lvgl/lvgl/src/core/lv_obj_style_gen.h **** 
 211:Drivers/lvgl/lvgl/src/core/lv_obj_style_gen.h **** static inline lv_color_t lv_obj_get_style_bg_img_recolor(const struct _lv_obj_t * obj, uint32_t par
 212:Drivers/lvgl/lvgl/src/core/lv_obj_style_gen.h **** {
 213:Drivers/lvgl/lvgl/src/core/lv_obj_style_gen.h ****     lv_style_value_t v = lv_obj_get_style_prop(obj, part, LV_STYLE_BG_IMG_RECOLOR);
 214:Drivers/lvgl/lvgl/src/core/lv_obj_style_gen.h ****     return v.color;
 215:Drivers/lvgl/lvgl/src/core/lv_obj_style_gen.h **** }
 216:Drivers/lvgl/lvgl/src/core/lv_obj_style_gen.h **** 
 217:Drivers/lvgl/lvgl/src/core/lv_obj_style_gen.h **** static inline lv_color_t lv_obj_get_style_bg_img_recolor_filtered(const struct _lv_obj_t * obj, uin
 218:Drivers/lvgl/lvgl/src/core/lv_obj_style_gen.h **** {
 219:Drivers/lvgl/lvgl/src/core/lv_obj_style_gen.h ****     lv_style_value_t v = _lv_obj_style_apply_color_filter(obj, part, lv_obj_get_style_prop(obj, par
 220:Drivers/lvgl/lvgl/src/core/lv_obj_style_gen.h ****     return v.color;
 221:Drivers/lvgl/lvgl/src/core/lv_obj_style_gen.h **** }
 222:Drivers/lvgl/lvgl/src/core/lv_obj_style_gen.h **** 
 223:Drivers/lvgl/lvgl/src/core/lv_obj_style_gen.h **** static inline lv_opa_t lv_obj_get_style_bg_img_recolor_opa(const struct _lv_obj_t * obj, uint32_t p
 224:Drivers/lvgl/lvgl/src/core/lv_obj_style_gen.h **** {
 225:Drivers/lvgl/lvgl/src/core/lv_obj_style_gen.h ****     lv_style_value_t v = lv_obj_get_style_prop(obj, part, LV_STYLE_BG_IMG_RECOLOR_OPA);
 226:Drivers/lvgl/lvgl/src/core/lv_obj_style_gen.h ****     return (lv_opa_t)v.num;
 227:Drivers/lvgl/lvgl/src/core/lv_obj_style_gen.h **** }
 228:Drivers/lvgl/lvgl/src/core/lv_obj_style_gen.h **** 
 229:Drivers/lvgl/lvgl/src/core/lv_obj_style_gen.h **** static inline bool lv_obj_get_style_bg_img_tiled(const struct _lv_obj_t * obj, uint32_t part)
 230:Drivers/lvgl/lvgl/src/core/lv_obj_style_gen.h **** {
 231:Drivers/lvgl/lvgl/src/core/lv_obj_style_gen.h ****     lv_style_value_t v = lv_obj_get_style_prop(obj, part, LV_STYLE_BG_IMG_TILED);
 232:Drivers/lvgl/lvgl/src/core/lv_obj_style_gen.h ****     return (bool)v.num;
 233:Drivers/lvgl/lvgl/src/core/lv_obj_style_gen.h **** }
 234:Drivers/lvgl/lvgl/src/core/lv_obj_style_gen.h **** 
 235:Drivers/lvgl/lvgl/src/core/lv_obj_style_gen.h **** static inline lv_color_t lv_obj_get_style_border_color(const struct _lv_obj_t * obj, uint32_t part)
 236:Drivers/lvgl/lvgl/src/core/lv_obj_style_gen.h **** {
 237:Drivers/lvgl/lvgl/src/core/lv_obj_style_gen.h ****     lv_style_value_t v = lv_obj_get_style_prop(obj, part, LV_STYLE_BORDER_COLOR);
 238:Drivers/lvgl/lvgl/src/core/lv_obj_style_gen.h ****     return v.color;
 239:Drivers/lvgl/lvgl/src/core/lv_obj_style_gen.h **** }
 240:Drivers/lvgl/lvgl/src/core/lv_obj_style_gen.h **** 
 241:Drivers/lvgl/lvgl/src/core/lv_obj_style_gen.h **** static inline lv_color_t lv_obj_get_style_border_color_filtered(const struct _lv_obj_t * obj, uint3
 242:Drivers/lvgl/lvgl/src/core/lv_obj_style_gen.h **** {
 243:Drivers/lvgl/lvgl/src/core/lv_obj_style_gen.h ****     lv_style_value_t v = _lv_obj_style_apply_color_filter(obj, part, lv_obj_get_style_prop(obj, par
 244:Drivers/lvgl/lvgl/src/core/lv_obj_style_gen.h ****     return v.color;
 245:Drivers/lvgl/lvgl/src/core/lv_obj_style_gen.h **** }
 246:Drivers/lvgl/lvgl/src/core/lv_obj_style_gen.h **** 
 247:Drivers/lvgl/lvgl/src/core/lv_obj_style_gen.h **** static inline lv_opa_t lv_obj_get_style_border_opa(const struct _lv_obj_t * obj, uint32_t part)
 248:Drivers/lvgl/lvgl/src/core/lv_obj_style_gen.h **** {
 249:Drivers/lvgl/lvgl/src/core/lv_obj_style_gen.h ****     lv_style_value_t v = lv_obj_get_style_prop(obj, part, LV_STYLE_BORDER_OPA);
 152              		.loc 2 249 0
 153 0020 3122     		movs	r2, #49
 154 0022 4FF48031 		mov	r1, #65536
 155 0026 2846     		mov	r0, r5
 156 0028 FFF7FEFF 		bl	lv_obj_get_style_prop
 157              	.LVL16:
 250:Drivers/lvgl/lvgl/src/core/lv_obj_style_gen.h ****     return (lv_opa_t)v.num;
 158              		.loc 2 250 0
 159 002c C0B2     		uxtb	r0, r0
 160              	.LVL17:
 161              	.LBE100:
 162              	.LBE99:
 657:Drivers/lvgl/lvgl/src/core/lv_obj.c ****     if(dsc->border_opa > LV_OPA_MIN) {
 163              		.loc 1 657 0
 164 002e 84F82200 		strb	r0, [r4, #34]
 658:Drivers/lvgl/lvgl/src/core/lv_obj.c ****         dsc->border_width = lv_obj_get_style_border_width(obj, LV_PART_SCROLLBAR);
ARM GAS  /tmp/ccJvwpHF.s 			page 25


 165              		.loc 1 658 0
 166 0032 0228     		cmp	r0, #2
 167 0034 3AD8     		bhi	.L22
 168              	.L12:
 169              	.LVL18:
 170              	.LBB101:
 171              	.LBB102:
 251:Drivers/lvgl/lvgl/src/core/lv_obj_style_gen.h **** }
 252:Drivers/lvgl/lvgl/src/core/lv_obj_style_gen.h **** 
 253:Drivers/lvgl/lvgl/src/core/lv_obj_style_gen.h **** static inline lv_coord_t lv_obj_get_style_border_width(const struct _lv_obj_t * obj, uint32_t part)
 254:Drivers/lvgl/lvgl/src/core/lv_obj_style_gen.h **** {
 255:Drivers/lvgl/lvgl/src/core/lv_obj_style_gen.h ****     lv_style_value_t v = lv_obj_get_style_prop(obj, part, LV_STYLE_BORDER_WIDTH);
 256:Drivers/lvgl/lvgl/src/core/lv_obj_style_gen.h ****     return (lv_coord_t)v.num;
 257:Drivers/lvgl/lvgl/src/core/lv_obj_style_gen.h **** }
 258:Drivers/lvgl/lvgl/src/core/lv_obj_style_gen.h **** 
 259:Drivers/lvgl/lvgl/src/core/lv_obj_style_gen.h **** static inline lv_border_side_t lv_obj_get_style_border_side(const struct _lv_obj_t * obj, uint32_t 
 260:Drivers/lvgl/lvgl/src/core/lv_obj_style_gen.h **** {
 261:Drivers/lvgl/lvgl/src/core/lv_obj_style_gen.h ****     lv_style_value_t v = lv_obj_get_style_prop(obj, part, LV_STYLE_BORDER_SIDE);
 262:Drivers/lvgl/lvgl/src/core/lv_obj_style_gen.h ****     return (lv_border_side_t)v.num;
 263:Drivers/lvgl/lvgl/src/core/lv_obj_style_gen.h **** }
 264:Drivers/lvgl/lvgl/src/core/lv_obj_style_gen.h **** 
 265:Drivers/lvgl/lvgl/src/core/lv_obj_style_gen.h **** static inline bool lv_obj_get_style_border_post(const struct _lv_obj_t * obj, uint32_t part)
 266:Drivers/lvgl/lvgl/src/core/lv_obj_style_gen.h **** {
 267:Drivers/lvgl/lvgl/src/core/lv_obj_style_gen.h ****     lv_style_value_t v = lv_obj_get_style_prop(obj, part, LV_STYLE_BORDER_POST);
 268:Drivers/lvgl/lvgl/src/core/lv_obj_style_gen.h ****     return (bool)v.num;
 269:Drivers/lvgl/lvgl/src/core/lv_obj_style_gen.h **** }
 270:Drivers/lvgl/lvgl/src/core/lv_obj_style_gen.h **** 
 271:Drivers/lvgl/lvgl/src/core/lv_obj_style_gen.h **** static inline lv_coord_t lv_obj_get_style_outline_width(const struct _lv_obj_t * obj, uint32_t part
 272:Drivers/lvgl/lvgl/src/core/lv_obj_style_gen.h **** {
 273:Drivers/lvgl/lvgl/src/core/lv_obj_style_gen.h ****     lv_style_value_t v = lv_obj_get_style_prop(obj, part, LV_STYLE_OUTLINE_WIDTH);
 274:Drivers/lvgl/lvgl/src/core/lv_obj_style_gen.h ****     return (lv_coord_t)v.num;
 275:Drivers/lvgl/lvgl/src/core/lv_obj_style_gen.h **** }
 276:Drivers/lvgl/lvgl/src/core/lv_obj_style_gen.h **** 
 277:Drivers/lvgl/lvgl/src/core/lv_obj_style_gen.h **** static inline lv_color_t lv_obj_get_style_outline_color(const struct _lv_obj_t * obj, uint32_t part
 278:Drivers/lvgl/lvgl/src/core/lv_obj_style_gen.h **** {
 279:Drivers/lvgl/lvgl/src/core/lv_obj_style_gen.h ****     lv_style_value_t v = lv_obj_get_style_prop(obj, part, LV_STYLE_OUTLINE_COLOR);
 280:Drivers/lvgl/lvgl/src/core/lv_obj_style_gen.h ****     return v.color;
 281:Drivers/lvgl/lvgl/src/core/lv_obj_style_gen.h **** }
 282:Drivers/lvgl/lvgl/src/core/lv_obj_style_gen.h **** 
 283:Drivers/lvgl/lvgl/src/core/lv_obj_style_gen.h **** static inline lv_color_t lv_obj_get_style_outline_color_filtered(const struct _lv_obj_t * obj, uint
 284:Drivers/lvgl/lvgl/src/core/lv_obj_style_gen.h **** {
 285:Drivers/lvgl/lvgl/src/core/lv_obj_style_gen.h ****     lv_style_value_t v = _lv_obj_style_apply_color_filter(obj, part, lv_obj_get_style_prop(obj, par
 286:Drivers/lvgl/lvgl/src/core/lv_obj_style_gen.h ****     return v.color;
 287:Drivers/lvgl/lvgl/src/core/lv_obj_style_gen.h **** }
 288:Drivers/lvgl/lvgl/src/core/lv_obj_style_gen.h **** 
 289:Drivers/lvgl/lvgl/src/core/lv_obj_style_gen.h **** static inline lv_opa_t lv_obj_get_style_outline_opa(const struct _lv_obj_t * obj, uint32_t part)
 290:Drivers/lvgl/lvgl/src/core/lv_obj_style_gen.h **** {
 291:Drivers/lvgl/lvgl/src/core/lv_obj_style_gen.h ****     lv_style_value_t v = lv_obj_get_style_prop(obj, part, LV_STYLE_OUTLINE_OPA);
 292:Drivers/lvgl/lvgl/src/core/lv_obj_style_gen.h ****     return (lv_opa_t)v.num;
 293:Drivers/lvgl/lvgl/src/core/lv_obj_style_gen.h **** }
 294:Drivers/lvgl/lvgl/src/core/lv_obj_style_gen.h **** 
 295:Drivers/lvgl/lvgl/src/core/lv_obj_style_gen.h **** static inline lv_coord_t lv_obj_get_style_outline_pad(const struct _lv_obj_t * obj, uint32_t part)
 296:Drivers/lvgl/lvgl/src/core/lv_obj_style_gen.h **** {
 297:Drivers/lvgl/lvgl/src/core/lv_obj_style_gen.h ****     lv_style_value_t v = lv_obj_get_style_prop(obj, part, LV_STYLE_OUTLINE_PAD);
 298:Drivers/lvgl/lvgl/src/core/lv_obj_style_gen.h ****     return (lv_coord_t)v.num;
 299:Drivers/lvgl/lvgl/src/core/lv_obj_style_gen.h **** }
 300:Drivers/lvgl/lvgl/src/core/lv_obj_style_gen.h **** 
ARM GAS  /tmp/ccJvwpHF.s 			page 26


 301:Drivers/lvgl/lvgl/src/core/lv_obj_style_gen.h **** static inline lv_coord_t lv_obj_get_style_shadow_width(const struct _lv_obj_t * obj, uint32_t part)
 302:Drivers/lvgl/lvgl/src/core/lv_obj_style_gen.h **** {
 303:Drivers/lvgl/lvgl/src/core/lv_obj_style_gen.h ****     lv_style_value_t v = lv_obj_get_style_prop(obj, part, LV_STYLE_SHADOW_WIDTH);
 304:Drivers/lvgl/lvgl/src/core/lv_obj_style_gen.h ****     return (lv_coord_t)v.num;
 305:Drivers/lvgl/lvgl/src/core/lv_obj_style_gen.h **** }
 306:Drivers/lvgl/lvgl/src/core/lv_obj_style_gen.h **** 
 307:Drivers/lvgl/lvgl/src/core/lv_obj_style_gen.h **** static inline lv_coord_t lv_obj_get_style_shadow_ofs_x(const struct _lv_obj_t * obj, uint32_t part)
 308:Drivers/lvgl/lvgl/src/core/lv_obj_style_gen.h **** {
 309:Drivers/lvgl/lvgl/src/core/lv_obj_style_gen.h ****     lv_style_value_t v = lv_obj_get_style_prop(obj, part, LV_STYLE_SHADOW_OFS_X);
 310:Drivers/lvgl/lvgl/src/core/lv_obj_style_gen.h ****     return (lv_coord_t)v.num;
 311:Drivers/lvgl/lvgl/src/core/lv_obj_style_gen.h **** }
 312:Drivers/lvgl/lvgl/src/core/lv_obj_style_gen.h **** 
 313:Drivers/lvgl/lvgl/src/core/lv_obj_style_gen.h **** static inline lv_coord_t lv_obj_get_style_shadow_ofs_y(const struct _lv_obj_t * obj, uint32_t part)
 314:Drivers/lvgl/lvgl/src/core/lv_obj_style_gen.h **** {
 315:Drivers/lvgl/lvgl/src/core/lv_obj_style_gen.h ****     lv_style_value_t v = lv_obj_get_style_prop(obj, part, LV_STYLE_SHADOW_OFS_Y);
 316:Drivers/lvgl/lvgl/src/core/lv_obj_style_gen.h ****     return (lv_coord_t)v.num;
 317:Drivers/lvgl/lvgl/src/core/lv_obj_style_gen.h **** }
 318:Drivers/lvgl/lvgl/src/core/lv_obj_style_gen.h **** 
 319:Drivers/lvgl/lvgl/src/core/lv_obj_style_gen.h **** static inline lv_coord_t lv_obj_get_style_shadow_spread(const struct _lv_obj_t * obj, uint32_t part
 320:Drivers/lvgl/lvgl/src/core/lv_obj_style_gen.h **** {
 321:Drivers/lvgl/lvgl/src/core/lv_obj_style_gen.h ****     lv_style_value_t v = lv_obj_get_style_prop(obj, part, LV_STYLE_SHADOW_SPREAD);
 322:Drivers/lvgl/lvgl/src/core/lv_obj_style_gen.h ****     return (lv_coord_t)v.num;
 323:Drivers/lvgl/lvgl/src/core/lv_obj_style_gen.h **** }
 324:Drivers/lvgl/lvgl/src/core/lv_obj_style_gen.h **** 
 325:Drivers/lvgl/lvgl/src/core/lv_obj_style_gen.h **** static inline lv_color_t lv_obj_get_style_shadow_color(const struct _lv_obj_t * obj, uint32_t part)
 326:Drivers/lvgl/lvgl/src/core/lv_obj_style_gen.h **** {
 327:Drivers/lvgl/lvgl/src/core/lv_obj_style_gen.h ****     lv_style_value_t v = lv_obj_get_style_prop(obj, part, LV_STYLE_SHADOW_COLOR);
 328:Drivers/lvgl/lvgl/src/core/lv_obj_style_gen.h ****     return v.color;
 329:Drivers/lvgl/lvgl/src/core/lv_obj_style_gen.h **** }
 330:Drivers/lvgl/lvgl/src/core/lv_obj_style_gen.h **** 
 331:Drivers/lvgl/lvgl/src/core/lv_obj_style_gen.h **** static inline lv_color_t lv_obj_get_style_shadow_color_filtered(const struct _lv_obj_t * obj, uint3
 332:Drivers/lvgl/lvgl/src/core/lv_obj_style_gen.h **** {
 333:Drivers/lvgl/lvgl/src/core/lv_obj_style_gen.h ****     lv_style_value_t v = _lv_obj_style_apply_color_filter(obj, part, lv_obj_get_style_prop(obj, par
 334:Drivers/lvgl/lvgl/src/core/lv_obj_style_gen.h ****     return v.color;
 335:Drivers/lvgl/lvgl/src/core/lv_obj_style_gen.h **** }
 336:Drivers/lvgl/lvgl/src/core/lv_obj_style_gen.h **** 
 337:Drivers/lvgl/lvgl/src/core/lv_obj_style_gen.h **** static inline lv_opa_t lv_obj_get_style_shadow_opa(const struct _lv_obj_t * obj, uint32_t part)
 338:Drivers/lvgl/lvgl/src/core/lv_obj_style_gen.h **** {
 339:Drivers/lvgl/lvgl/src/core/lv_obj_style_gen.h ****     lv_style_value_t v = lv_obj_get_style_prop(obj, part, LV_STYLE_SHADOW_OPA);
 172              		.loc 2 339 0
 173 0036 4522     		movs	r2, #69
 174 0038 4FF48031 		mov	r1, #65536
 175 003c 2846     		mov	r0, r5
 176 003e FFF7FEFF 		bl	lv_obj_get_style_prop
 177              	.LVL19:
 340:Drivers/lvgl/lvgl/src/core/lv_obj_style_gen.h ****     return (lv_opa_t)v.num;
 178              		.loc 2 340 0
 179 0042 C0B2     		uxtb	r0, r0
 180              	.LVL20:
 181              	.LBE102:
 182              	.LBE101:
 669:Drivers/lvgl/lvgl/src/core/lv_obj.c ****     if(dsc->shadow_opa > LV_OPA_MIN) {
 183              		.loc 1 669 0
 184 0044 84F83600 		strb	r0, [r4, #54]
 670:Drivers/lvgl/lvgl/src/core/lv_obj.c ****         dsc->shadow_width = lv_obj_get_style_shadow_width(obj, LV_PART_SCROLLBAR);
 185              		.loc 1 670 0
 186 0048 0228     		cmp	r0, #2
ARM GAS  /tmp/ccJvwpHF.s 			page 27


 187 004a 45D8     		bhi	.L23
 188              	.L14:
 189              	.LVL21:
 190              	.LBB103:
 191              	.LBB104:
 341:Drivers/lvgl/lvgl/src/core/lv_obj_style_gen.h **** }
 342:Drivers/lvgl/lvgl/src/core/lv_obj_style_gen.h **** 
 343:Drivers/lvgl/lvgl/src/core/lv_obj_style_gen.h **** static inline lv_opa_t lv_obj_get_style_img_opa(const struct _lv_obj_t * obj, uint32_t part)
 344:Drivers/lvgl/lvgl/src/core/lv_obj_style_gen.h **** {
 345:Drivers/lvgl/lvgl/src/core/lv_obj_style_gen.h ****     lv_style_value_t v = lv_obj_get_style_prop(obj, part, LV_STYLE_IMG_OPA);
 346:Drivers/lvgl/lvgl/src/core/lv_obj_style_gen.h ****     return (lv_opa_t)v.num;
 347:Drivers/lvgl/lvgl/src/core/lv_obj_style_gen.h **** }
 348:Drivers/lvgl/lvgl/src/core/lv_obj_style_gen.h **** 
 349:Drivers/lvgl/lvgl/src/core/lv_obj_style_gen.h **** static inline lv_color_t lv_obj_get_style_img_recolor(const struct _lv_obj_t * obj, uint32_t part)
 350:Drivers/lvgl/lvgl/src/core/lv_obj_style_gen.h **** {
 351:Drivers/lvgl/lvgl/src/core/lv_obj_style_gen.h ****     lv_style_value_t v = lv_obj_get_style_prop(obj, part, LV_STYLE_IMG_RECOLOR);
 352:Drivers/lvgl/lvgl/src/core/lv_obj_style_gen.h ****     return v.color;
 353:Drivers/lvgl/lvgl/src/core/lv_obj_style_gen.h **** }
 354:Drivers/lvgl/lvgl/src/core/lv_obj_style_gen.h **** 
 355:Drivers/lvgl/lvgl/src/core/lv_obj_style_gen.h **** static inline lv_color_t lv_obj_get_style_img_recolor_filtered(const struct _lv_obj_t * obj, uint32
 356:Drivers/lvgl/lvgl/src/core/lv_obj_style_gen.h **** {
 357:Drivers/lvgl/lvgl/src/core/lv_obj_style_gen.h ****     lv_style_value_t v = _lv_obj_style_apply_color_filter(obj, part, lv_obj_get_style_prop(obj, par
 358:Drivers/lvgl/lvgl/src/core/lv_obj_style_gen.h ****     return v.color;
 359:Drivers/lvgl/lvgl/src/core/lv_obj_style_gen.h **** }
 360:Drivers/lvgl/lvgl/src/core/lv_obj_style_gen.h **** 
 361:Drivers/lvgl/lvgl/src/core/lv_obj_style_gen.h **** static inline lv_opa_t lv_obj_get_style_img_recolor_opa(const struct _lv_obj_t * obj, uint32_t part
 362:Drivers/lvgl/lvgl/src/core/lv_obj_style_gen.h **** {
 363:Drivers/lvgl/lvgl/src/core/lv_obj_style_gen.h ****     lv_style_value_t v = lv_obj_get_style_prop(obj, part, LV_STYLE_IMG_RECOLOR_OPA);
 364:Drivers/lvgl/lvgl/src/core/lv_obj_style_gen.h ****     return (lv_opa_t)v.num;
 365:Drivers/lvgl/lvgl/src/core/lv_obj_style_gen.h **** }
 366:Drivers/lvgl/lvgl/src/core/lv_obj_style_gen.h **** 
 367:Drivers/lvgl/lvgl/src/core/lv_obj_style_gen.h **** static inline lv_coord_t lv_obj_get_style_line_width(const struct _lv_obj_t * obj, uint32_t part)
 368:Drivers/lvgl/lvgl/src/core/lv_obj_style_gen.h **** {
 369:Drivers/lvgl/lvgl/src/core/lv_obj_style_gen.h ****     lv_style_value_t v = lv_obj_get_style_prop(obj, part, LV_STYLE_LINE_WIDTH);
 370:Drivers/lvgl/lvgl/src/core/lv_obj_style_gen.h ****     return (lv_coord_t)v.num;
 371:Drivers/lvgl/lvgl/src/core/lv_obj_style_gen.h **** }
 372:Drivers/lvgl/lvgl/src/core/lv_obj_style_gen.h **** 
 373:Drivers/lvgl/lvgl/src/core/lv_obj_style_gen.h **** static inline lv_coord_t lv_obj_get_style_line_dash_width(const struct _lv_obj_t * obj, uint32_t pa
 374:Drivers/lvgl/lvgl/src/core/lv_obj_style_gen.h **** {
 375:Drivers/lvgl/lvgl/src/core/lv_obj_style_gen.h ****     lv_style_value_t v = lv_obj_get_style_prop(obj, part, LV_STYLE_LINE_DASH_WIDTH);
 376:Drivers/lvgl/lvgl/src/core/lv_obj_style_gen.h ****     return (lv_coord_t)v.num;
 377:Drivers/lvgl/lvgl/src/core/lv_obj_style_gen.h **** }
 378:Drivers/lvgl/lvgl/src/core/lv_obj_style_gen.h **** 
 379:Drivers/lvgl/lvgl/src/core/lv_obj_style_gen.h **** static inline lv_coord_t lv_obj_get_style_line_dash_gap(const struct _lv_obj_t * obj, uint32_t part
 380:Drivers/lvgl/lvgl/src/core/lv_obj_style_gen.h **** {
 381:Drivers/lvgl/lvgl/src/core/lv_obj_style_gen.h ****     lv_style_value_t v = lv_obj_get_style_prop(obj, part, LV_STYLE_LINE_DASH_GAP);
 382:Drivers/lvgl/lvgl/src/core/lv_obj_style_gen.h ****     return (lv_coord_t)v.num;
 383:Drivers/lvgl/lvgl/src/core/lv_obj_style_gen.h **** }
 384:Drivers/lvgl/lvgl/src/core/lv_obj_style_gen.h **** 
 385:Drivers/lvgl/lvgl/src/core/lv_obj_style_gen.h **** static inline bool lv_obj_get_style_line_rounded(const struct _lv_obj_t * obj, uint32_t part)
 386:Drivers/lvgl/lvgl/src/core/lv_obj_style_gen.h **** {
 387:Drivers/lvgl/lvgl/src/core/lv_obj_style_gen.h ****     lv_style_value_t v = lv_obj_get_style_prop(obj, part, LV_STYLE_LINE_ROUNDED);
 388:Drivers/lvgl/lvgl/src/core/lv_obj_style_gen.h ****     return (bool)v.num;
 389:Drivers/lvgl/lvgl/src/core/lv_obj_style_gen.h **** }
 390:Drivers/lvgl/lvgl/src/core/lv_obj_style_gen.h **** 
 391:Drivers/lvgl/lvgl/src/core/lv_obj_style_gen.h **** static inline lv_color_t lv_obj_get_style_line_color(const struct _lv_obj_t * obj, uint32_t part)
 392:Drivers/lvgl/lvgl/src/core/lv_obj_style_gen.h **** {
ARM GAS  /tmp/ccJvwpHF.s 			page 28


 393:Drivers/lvgl/lvgl/src/core/lv_obj_style_gen.h ****     lv_style_value_t v = lv_obj_get_style_prop(obj, part, LV_STYLE_LINE_COLOR);
 394:Drivers/lvgl/lvgl/src/core/lv_obj_style_gen.h ****     return v.color;
 395:Drivers/lvgl/lvgl/src/core/lv_obj_style_gen.h **** }
 396:Drivers/lvgl/lvgl/src/core/lv_obj_style_gen.h **** 
 397:Drivers/lvgl/lvgl/src/core/lv_obj_style_gen.h **** static inline lv_color_t lv_obj_get_style_line_color_filtered(const struct _lv_obj_t * obj, uint32_
 398:Drivers/lvgl/lvgl/src/core/lv_obj_style_gen.h **** {
 399:Drivers/lvgl/lvgl/src/core/lv_obj_style_gen.h ****     lv_style_value_t v = _lv_obj_style_apply_color_filter(obj, part, lv_obj_get_style_prop(obj, par
 400:Drivers/lvgl/lvgl/src/core/lv_obj_style_gen.h ****     return v.color;
 401:Drivers/lvgl/lvgl/src/core/lv_obj_style_gen.h **** }
 402:Drivers/lvgl/lvgl/src/core/lv_obj_style_gen.h **** 
 403:Drivers/lvgl/lvgl/src/core/lv_obj_style_gen.h **** static inline lv_opa_t lv_obj_get_style_line_opa(const struct _lv_obj_t * obj, uint32_t part)
 404:Drivers/lvgl/lvgl/src/core/lv_obj_style_gen.h **** {
 405:Drivers/lvgl/lvgl/src/core/lv_obj_style_gen.h ****     lv_style_value_t v = lv_obj_get_style_prop(obj, part, LV_STYLE_LINE_OPA);
 406:Drivers/lvgl/lvgl/src/core/lv_obj_style_gen.h ****     return (lv_opa_t)v.num;
 407:Drivers/lvgl/lvgl/src/core/lv_obj_style_gen.h **** }
 408:Drivers/lvgl/lvgl/src/core/lv_obj_style_gen.h **** 
 409:Drivers/lvgl/lvgl/src/core/lv_obj_style_gen.h **** static inline lv_coord_t lv_obj_get_style_arc_width(const struct _lv_obj_t * obj, uint32_t part)
 410:Drivers/lvgl/lvgl/src/core/lv_obj_style_gen.h **** {
 411:Drivers/lvgl/lvgl/src/core/lv_obj_style_gen.h ****     lv_style_value_t v = lv_obj_get_style_prop(obj, part, LV_STYLE_ARC_WIDTH);
 412:Drivers/lvgl/lvgl/src/core/lv_obj_style_gen.h ****     return (lv_coord_t)v.num;
 413:Drivers/lvgl/lvgl/src/core/lv_obj_style_gen.h **** }
 414:Drivers/lvgl/lvgl/src/core/lv_obj_style_gen.h **** 
 415:Drivers/lvgl/lvgl/src/core/lv_obj_style_gen.h **** static inline bool lv_obj_get_style_arc_rounded(const struct _lv_obj_t * obj, uint32_t part)
 416:Drivers/lvgl/lvgl/src/core/lv_obj_style_gen.h **** {
 417:Drivers/lvgl/lvgl/src/core/lv_obj_style_gen.h ****     lv_style_value_t v = lv_obj_get_style_prop(obj, part, LV_STYLE_ARC_ROUNDED);
 418:Drivers/lvgl/lvgl/src/core/lv_obj_style_gen.h ****     return (bool)v.num;
 419:Drivers/lvgl/lvgl/src/core/lv_obj_style_gen.h **** }
 420:Drivers/lvgl/lvgl/src/core/lv_obj_style_gen.h **** 
 421:Drivers/lvgl/lvgl/src/core/lv_obj_style_gen.h **** static inline lv_color_t lv_obj_get_style_arc_color(const struct _lv_obj_t * obj, uint32_t part)
 422:Drivers/lvgl/lvgl/src/core/lv_obj_style_gen.h **** {
 423:Drivers/lvgl/lvgl/src/core/lv_obj_style_gen.h ****     lv_style_value_t v = lv_obj_get_style_prop(obj, part, LV_STYLE_ARC_COLOR);
 424:Drivers/lvgl/lvgl/src/core/lv_obj_style_gen.h ****     return v.color;
 425:Drivers/lvgl/lvgl/src/core/lv_obj_style_gen.h **** }
 426:Drivers/lvgl/lvgl/src/core/lv_obj_style_gen.h **** 
 427:Drivers/lvgl/lvgl/src/core/lv_obj_style_gen.h **** static inline lv_color_t lv_obj_get_style_arc_color_filtered(const struct _lv_obj_t * obj, uint32_t
 428:Drivers/lvgl/lvgl/src/core/lv_obj_style_gen.h **** {
 429:Drivers/lvgl/lvgl/src/core/lv_obj_style_gen.h ****     lv_style_value_t v = _lv_obj_style_apply_color_filter(obj, part, lv_obj_get_style_prop(obj, par
 430:Drivers/lvgl/lvgl/src/core/lv_obj_style_gen.h ****     return v.color;
 431:Drivers/lvgl/lvgl/src/core/lv_obj_style_gen.h **** }
 432:Drivers/lvgl/lvgl/src/core/lv_obj_style_gen.h **** 
 433:Drivers/lvgl/lvgl/src/core/lv_obj_style_gen.h **** static inline lv_opa_t lv_obj_get_style_arc_opa(const struct _lv_obj_t * obj, uint32_t part)
 434:Drivers/lvgl/lvgl/src/core/lv_obj_style_gen.h **** {
 435:Drivers/lvgl/lvgl/src/core/lv_obj_style_gen.h ****     lv_style_value_t v = lv_obj_get_style_prop(obj, part, LV_STYLE_ARC_OPA);
 436:Drivers/lvgl/lvgl/src/core/lv_obj_style_gen.h ****     return (lv_opa_t)v.num;
 437:Drivers/lvgl/lvgl/src/core/lv_obj_style_gen.h **** }
 438:Drivers/lvgl/lvgl/src/core/lv_obj_style_gen.h **** 
 439:Drivers/lvgl/lvgl/src/core/lv_obj_style_gen.h **** static inline const void * lv_obj_get_style_arc_img_src(const struct _lv_obj_t * obj, uint32_t part
 440:Drivers/lvgl/lvgl/src/core/lv_obj_style_gen.h **** {
 441:Drivers/lvgl/lvgl/src/core/lv_obj_style_gen.h ****     lv_style_value_t v = lv_obj_get_style_prop(obj, part, LV_STYLE_ARC_IMG_SRC);
 442:Drivers/lvgl/lvgl/src/core/lv_obj_style_gen.h ****     return (const void *)v.ptr;
 443:Drivers/lvgl/lvgl/src/core/lv_obj_style_gen.h **** }
 444:Drivers/lvgl/lvgl/src/core/lv_obj_style_gen.h **** 
 445:Drivers/lvgl/lvgl/src/core/lv_obj_style_gen.h **** static inline lv_color_t lv_obj_get_style_text_color(const struct _lv_obj_t * obj, uint32_t part)
 446:Drivers/lvgl/lvgl/src/core/lv_obj_style_gen.h **** {
 447:Drivers/lvgl/lvgl/src/core/lv_obj_style_gen.h ****     lv_style_value_t v = lv_obj_get_style_prop(obj, part, LV_STYLE_TEXT_COLOR);
 448:Drivers/lvgl/lvgl/src/core/lv_obj_style_gen.h ****     return v.color;
 449:Drivers/lvgl/lvgl/src/core/lv_obj_style_gen.h **** }
ARM GAS  /tmp/ccJvwpHF.s 			page 29


 450:Drivers/lvgl/lvgl/src/core/lv_obj_style_gen.h **** 
 451:Drivers/lvgl/lvgl/src/core/lv_obj_style_gen.h **** static inline lv_color_t lv_obj_get_style_text_color_filtered(const struct _lv_obj_t * obj, uint32_
 452:Drivers/lvgl/lvgl/src/core/lv_obj_style_gen.h **** {
 453:Drivers/lvgl/lvgl/src/core/lv_obj_style_gen.h ****     lv_style_value_t v = _lv_obj_style_apply_color_filter(obj, part, lv_obj_get_style_prop(obj, par
 454:Drivers/lvgl/lvgl/src/core/lv_obj_style_gen.h ****     return v.color;
 455:Drivers/lvgl/lvgl/src/core/lv_obj_style_gen.h **** }
 456:Drivers/lvgl/lvgl/src/core/lv_obj_style_gen.h **** 
 457:Drivers/lvgl/lvgl/src/core/lv_obj_style_gen.h **** static inline lv_opa_t lv_obj_get_style_text_opa(const struct _lv_obj_t * obj, uint32_t part)
 458:Drivers/lvgl/lvgl/src/core/lv_obj_style_gen.h **** {
 459:Drivers/lvgl/lvgl/src/core/lv_obj_style_gen.h ****     lv_style_value_t v = lv_obj_get_style_prop(obj, part, LV_STYLE_TEXT_OPA);
 460:Drivers/lvgl/lvgl/src/core/lv_obj_style_gen.h ****     return (lv_opa_t)v.num;
 461:Drivers/lvgl/lvgl/src/core/lv_obj_style_gen.h **** }
 462:Drivers/lvgl/lvgl/src/core/lv_obj_style_gen.h **** 
 463:Drivers/lvgl/lvgl/src/core/lv_obj_style_gen.h **** static inline const lv_font_t * lv_obj_get_style_text_font(const struct _lv_obj_t * obj, uint32_t p
 464:Drivers/lvgl/lvgl/src/core/lv_obj_style_gen.h **** {
 465:Drivers/lvgl/lvgl/src/core/lv_obj_style_gen.h ****     lv_style_value_t v = lv_obj_get_style_prop(obj, part, LV_STYLE_TEXT_FONT);
 466:Drivers/lvgl/lvgl/src/core/lv_obj_style_gen.h ****     return (const lv_font_t *)v.ptr;
 467:Drivers/lvgl/lvgl/src/core/lv_obj_style_gen.h **** }
 468:Drivers/lvgl/lvgl/src/core/lv_obj_style_gen.h **** 
 469:Drivers/lvgl/lvgl/src/core/lv_obj_style_gen.h **** static inline lv_coord_t lv_obj_get_style_text_letter_space(const struct _lv_obj_t * obj, uint32_t 
 470:Drivers/lvgl/lvgl/src/core/lv_obj_style_gen.h **** {
 471:Drivers/lvgl/lvgl/src/core/lv_obj_style_gen.h ****     lv_style_value_t v = lv_obj_get_style_prop(obj, part, LV_STYLE_TEXT_LETTER_SPACE);
 472:Drivers/lvgl/lvgl/src/core/lv_obj_style_gen.h ****     return (lv_coord_t)v.num;
 473:Drivers/lvgl/lvgl/src/core/lv_obj_style_gen.h **** }
 474:Drivers/lvgl/lvgl/src/core/lv_obj_style_gen.h **** 
 475:Drivers/lvgl/lvgl/src/core/lv_obj_style_gen.h **** static inline lv_coord_t lv_obj_get_style_text_line_space(const struct _lv_obj_t * obj, uint32_t pa
 476:Drivers/lvgl/lvgl/src/core/lv_obj_style_gen.h **** {
 477:Drivers/lvgl/lvgl/src/core/lv_obj_style_gen.h ****     lv_style_value_t v = lv_obj_get_style_prop(obj, part, LV_STYLE_TEXT_LINE_SPACE);
 478:Drivers/lvgl/lvgl/src/core/lv_obj_style_gen.h ****     return (lv_coord_t)v.num;
 479:Drivers/lvgl/lvgl/src/core/lv_obj_style_gen.h **** }
 480:Drivers/lvgl/lvgl/src/core/lv_obj_style_gen.h **** 
 481:Drivers/lvgl/lvgl/src/core/lv_obj_style_gen.h **** static inline lv_text_decor_t lv_obj_get_style_text_decor(const struct _lv_obj_t * obj, uint32_t pa
 482:Drivers/lvgl/lvgl/src/core/lv_obj_style_gen.h **** {
 483:Drivers/lvgl/lvgl/src/core/lv_obj_style_gen.h ****     lv_style_value_t v = lv_obj_get_style_prop(obj, part, LV_STYLE_TEXT_DECOR);
 484:Drivers/lvgl/lvgl/src/core/lv_obj_style_gen.h ****     return (lv_text_decor_t)v.num;
 485:Drivers/lvgl/lvgl/src/core/lv_obj_style_gen.h **** }
 486:Drivers/lvgl/lvgl/src/core/lv_obj_style_gen.h **** 
 487:Drivers/lvgl/lvgl/src/core/lv_obj_style_gen.h **** static inline lv_text_align_t lv_obj_get_style_text_align(const struct _lv_obj_t * obj, uint32_t pa
 488:Drivers/lvgl/lvgl/src/core/lv_obj_style_gen.h **** {
 489:Drivers/lvgl/lvgl/src/core/lv_obj_style_gen.h ****     lv_style_value_t v = lv_obj_get_style_prop(obj, part, LV_STYLE_TEXT_ALIGN);
 490:Drivers/lvgl/lvgl/src/core/lv_obj_style_gen.h ****     return (lv_text_align_t)v.num;
 491:Drivers/lvgl/lvgl/src/core/lv_obj_style_gen.h **** }
 492:Drivers/lvgl/lvgl/src/core/lv_obj_style_gen.h **** 
 493:Drivers/lvgl/lvgl/src/core/lv_obj_style_gen.h **** static inline lv_coord_t lv_obj_get_style_radius(const struct _lv_obj_t * obj, uint32_t part)
 494:Drivers/lvgl/lvgl/src/core/lv_obj_style_gen.h **** {
 495:Drivers/lvgl/lvgl/src/core/lv_obj_style_gen.h ****     lv_style_value_t v = lv_obj_get_style_prop(obj, part, LV_STYLE_RADIUS);
 496:Drivers/lvgl/lvgl/src/core/lv_obj_style_gen.h ****     return (lv_coord_t)v.num;
 497:Drivers/lvgl/lvgl/src/core/lv_obj_style_gen.h **** }
 498:Drivers/lvgl/lvgl/src/core/lv_obj_style_gen.h **** 
 499:Drivers/lvgl/lvgl/src/core/lv_obj_style_gen.h **** static inline bool lv_obj_get_style_clip_corner(const struct _lv_obj_t * obj, uint32_t part)
 500:Drivers/lvgl/lvgl/src/core/lv_obj_style_gen.h **** {
 501:Drivers/lvgl/lvgl/src/core/lv_obj_style_gen.h ****     lv_style_value_t v = lv_obj_get_style_prop(obj, part, LV_STYLE_CLIP_CORNER);
 502:Drivers/lvgl/lvgl/src/core/lv_obj_style_gen.h ****     return (bool)v.num;
 503:Drivers/lvgl/lvgl/src/core/lv_obj_style_gen.h **** }
 504:Drivers/lvgl/lvgl/src/core/lv_obj_style_gen.h **** 
 505:Drivers/lvgl/lvgl/src/core/lv_obj_style_gen.h **** static inline lv_opa_t lv_obj_get_style_opa(const struct _lv_obj_t * obj, uint32_t part)
 506:Drivers/lvgl/lvgl/src/core/lv_obj_style_gen.h **** {
ARM GAS  /tmp/ccJvwpHF.s 			page 30


 507:Drivers/lvgl/lvgl/src/core/lv_obj_style_gen.h ****     lv_style_value_t v = lv_obj_get_style_prop(obj, part, LV_STYLE_OPA);
 192              		.loc 2 507 0
 193 004c 6022     		movs	r2, #96
 194 004e 4FF48031 		mov	r1, #65536
 195 0052 2846     		mov	r0, r5
 196 0054 FFF7FEFF 		bl	lv_obj_get_style_prop
 197              	.LVL22:
 508:Drivers/lvgl/lvgl/src/core/lv_obj_style_gen.h ****     return (lv_opa_t)v.num;
 198              		.loc 2 508 0
 199 0058 C3B2     		uxtb	r3, r0
 200              	.LVL23:
 201              	.LBE104:
 202              	.LBE103:
 682:Drivers/lvgl/lvgl/src/core/lv_obj.c ****         dsc->bg_opa = (dsc->bg_opa * opa) >> 8;
 203              		.loc 1 682 0
 204 005a FC2B     		cmp	r3, #252
 205 005c 0CD8     		bhi	.L16
 683:Drivers/lvgl/lvgl/src/core/lv_obj.c ****         dsc->border_opa = (dsc->bg_opa * opa) >> 8;
 206              		.loc 1 683 0
 207 005e E378     		ldrb	r3, [r4, #3]	@ zero_extendqisi2
 208 0060 C0B2     		uxtb	r0, r0
 209 0062 00FB03F3 		mul	r3, r0, r3
 210 0066 1B0A     		lsrs	r3, r3, #8
 211 0068 E370     		strb	r3, [r4, #3]
 684:Drivers/lvgl/lvgl/src/core/lv_obj.c ****         dsc->shadow_opa = (dsc->bg_opa * opa) >> 8;
 212              		.loc 1 684 0
 213 006a 00FB03F0 		mul	r0, r0, r3
 214 006e 000A     		lsrs	r0, r0, #8
 215 0070 84F82200 		strb	r0, [r4, #34]
 685:Drivers/lvgl/lvgl/src/core/lv_obj.c ****     }
 216              		.loc 1 685 0
 217 0074 84F83600 		strb	r0, [r4, #54]
 218              	.L16:
 688:Drivers/lvgl/lvgl/src/core/lv_obj.c ****         dsc->radius = lv_obj_get_style_radius(obj, LV_PART_SCROLLBAR);
 219              		.loc 1 688 0
 220 0078 E378     		ldrb	r3, [r4, #3]	@ zero_extendqisi2
 221 007a 33B9     		cbnz	r3, .L17
 688:Drivers/lvgl/lvgl/src/core/lv_obj.c ****         dsc->radius = lv_obj_get_style_radius(obj, LV_PART_SCROLLBAR);
 222              		.loc 1 688 0 is_stmt 0 discriminator 1
 223 007c 94F82230 		ldrb	r3, [r4, #34]	@ zero_extendqisi2
 224 0080 1BB9     		cbnz	r3, .L17
 688:Drivers/lvgl/lvgl/src/core/lv_obj.c ****         dsc->radius = lv_obj_get_style_radius(obj, LV_PART_SCROLLBAR);
 225              		.loc 1 688 0 discriminator 2
 226 0082 94F83630 		ldrb	r3, [r4, #54]	@ zero_extendqisi2
 227 0086 002B     		cmp	r3, #0
 228 0088 43D0     		beq	.L19
 229              	.L17:
 230              	.LVL24:
 231              	.LBB105:
 232              	.LBB106:
 495:Drivers/lvgl/lvgl/src/core/lv_obj_style_gen.h ****     return (lv_coord_t)v.num;
 233              		.loc 2 495 0 is_stmt 1
 234 008a 0B22     		movs	r2, #11
 235 008c 4FF48031 		mov	r1, #65536
 236 0090 2846     		mov	r0, r5
 237 0092 FFF7FEFF 		bl	lv_obj_get_style_prop
 238              	.LVL25:
ARM GAS  /tmp/ccJvwpHF.s 			page 31


 239              	.LBE106:
 240              	.LBE105:
 689:Drivers/lvgl/lvgl/src/core/lv_obj.c ****         return LV_RES_OK;
 241              		.loc 1 689 0
 242 0096 2080     		strh	r0, [r4]	@ movhi
 690:Drivers/lvgl/lvgl/src/core/lv_obj.c ****     }
 243              		.loc 1 690 0
 244 0098 0120     		movs	r0, #1
 245              	.L18:
 699:Drivers/lvgl/lvgl/src/core/lv_obj.c **** 
 246              		.loc 1 699 0
 247 009a 38BD     		pop	{r3, r4, r5, pc}
 248              	.LVL26:
 249              	.L21:
 250              	.LBB107:
 251              	.LBB108:
 141:Drivers/lvgl/lvgl/src/core/lv_obj_style_gen.h ****     return v.color;
 252              		.loc 2 141 0
 253 009c 2022     		movs	r2, #32
 254 009e 4FF48031 		mov	r1, #65536
 255 00a2 2846     		mov	r0, r5
 256 00a4 FFF7FEFF 		bl	lv_obj_get_style_prop
 257              	.LVL27:
 258              	.LBE108:
 259              	.LBE107:
 654:Drivers/lvgl/lvgl/src/core/lv_obj.c ****     }
 260              		.loc 1 654 0
 261 00a8 A080     		strh	r0, [r4, #4]	@ movhi
 262 00aa B9E7     		b	.L11
 263              	.L22:
 264              	.LVL28:
 265              	.LBB109:
 266              	.LBB110:
 255:Drivers/lvgl/lvgl/src/core/lv_obj_style_gen.h ****     return (lv_coord_t)v.num;
 267              		.loc 2 255 0
 268 00ac 3222     		movs	r2, #50
 269 00ae 4FF48031 		mov	r1, #65536
 270 00b2 2846     		mov	r0, r5
 271 00b4 FFF7FEFF 		bl	lv_obj_get_style_prop
 272              	.LVL29:
 256:Drivers/lvgl/lvgl/src/core/lv_obj_style_gen.h **** }
 273              		.loc 2 256 0
 274 00b8 00B2     		sxth	r0, r0
 275              	.LVL30:
 276              	.LBE110:
 277              	.LBE109:
 659:Drivers/lvgl/lvgl/src/core/lv_obj.c ****         if(dsc->border_width > 0) {
 278              		.loc 1 659 0
 279 00ba 2084     		strh	r0, [r4, #32]	@ movhi
 660:Drivers/lvgl/lvgl/src/core/lv_obj.c ****             dsc->border_color = lv_obj_get_style_border_color(obj, LV_PART_SCROLLBAR);
 280              		.loc 1 660 0
 281 00bc 0028     		cmp	r0, #0
 282 00be 03DC     		bgt	.L24
 664:Drivers/lvgl/lvgl/src/core/lv_obj.c ****         }
 283              		.loc 1 664 0
 284 00c0 0023     		movs	r3, #0
 285 00c2 84F82230 		strb	r3, [r4, #34]
ARM GAS  /tmp/ccJvwpHF.s 			page 32


 286 00c6 B6E7     		b	.L12
 287              	.L24:
 288              	.LVL31:
 289              	.LBB111:
 290              	.LBB112:
 237:Drivers/lvgl/lvgl/src/core/lv_obj_style_gen.h ****     return v.color;
 291              		.loc 2 237 0
 292 00c8 3022     		movs	r2, #48
 293 00ca 4FF48031 		mov	r1, #65536
 294 00ce 2846     		mov	r0, r5
 295 00d0 FFF7FEFF 		bl	lv_obj_get_style_prop
 296              	.LVL32:
 297              	.LBE112:
 298              	.LBE111:
 661:Drivers/lvgl/lvgl/src/core/lv_obj.c ****         }
 299              		.loc 1 661 0
 300 00d4 E083     		strh	r0, [r4, #30]	@ movhi
 301 00d6 AEE7     		b	.L12
 302              	.L23:
 303              	.LVL33:
 304              	.LBB113:
 305              	.LBB114:
 303:Drivers/lvgl/lvgl/src/core/lv_obj_style_gen.h ****     return (lv_coord_t)v.num;
 306              		.loc 2 303 0
 307 00d8 4022     		movs	r2, #64
 308 00da 4FF48031 		mov	r1, #65536
 309 00de 2846     		mov	r0, r5
 310 00e0 FFF7FEFF 		bl	lv_obj_get_style_prop
 311              	.LVL34:
 304:Drivers/lvgl/lvgl/src/core/lv_obj_style_gen.h **** }
 312              		.loc 2 304 0
 313 00e4 00B2     		sxth	r0, r0
 314              	.LVL35:
 315              	.LBE114:
 316              	.LBE113:
 671:Drivers/lvgl/lvgl/src/core/lv_obj.c ****         if(dsc->shadow_width > 0) {
 317              		.loc 1 671 0
 318 00e6 E085     		strh	r0, [r4, #46]	@ movhi
 672:Drivers/lvgl/lvgl/src/core/lv_obj.c ****             dsc->shadow_spread = lv_obj_get_style_shadow_spread(obj, LV_PART_SCROLLBAR);
 319              		.loc 1 672 0
 320 00e8 0028     		cmp	r0, #0
 321 00ea 03DC     		bgt	.L25
 677:Drivers/lvgl/lvgl/src/core/lv_obj.c ****         }
 322              		.loc 1 677 0
 323 00ec 0023     		movs	r3, #0
 324 00ee 84F83630 		strb	r3, [r4, #54]
 325 00f2 ABE7     		b	.L14
 326              	.L25:
 327              	.LVL36:
 328              	.LBB115:
 329              	.LBB116:
 321:Drivers/lvgl/lvgl/src/core/lv_obj_style_gen.h ****     return (lv_coord_t)v.num;
 330              		.loc 2 321 0
 331 00f4 4322     		movs	r2, #67
 332 00f6 4FF48031 		mov	r1, #65536
 333 00fa 2846     		mov	r0, r5
 334 00fc FFF7FEFF 		bl	lv_obj_get_style_prop
ARM GAS  /tmp/ccJvwpHF.s 			page 33


 335              	.LVL37:
 336              	.LBE116:
 337              	.LBE115:
 673:Drivers/lvgl/lvgl/src/core/lv_obj.c ****             dsc->shadow_color = lv_obj_get_style_shadow_color(obj, LV_PART_SCROLLBAR);
 338              		.loc 1 673 0
 339 0100 A086     		strh	r0, [r4, #52]	@ movhi
 340              	.LVL38:
 341              	.LBB117:
 342              	.LBB118:
 327:Drivers/lvgl/lvgl/src/core/lv_obj_style_gen.h ****     return v.color;
 343              		.loc 2 327 0
 344 0102 4422     		movs	r2, #68
 345 0104 4FF48031 		mov	r1, #65536
 346 0108 2846     		mov	r0, r5
 347 010a FFF7FEFF 		bl	lv_obj_get_style_prop
 348              	.LVL39:
 349              	.LBE118:
 350              	.LBE117:
 674:Drivers/lvgl/lvgl/src/core/lv_obj.c ****         }
 351              		.loc 1 674 0
 352 010e A085     		strh	r0, [r4, #44]	@ movhi
 353 0110 9CE7     		b	.L14
 354              	.L19:
 693:Drivers/lvgl/lvgl/src/core/lv_obj.c ****     }
 355              		.loc 1 693 0
 356 0112 0020     		movs	r0, #0
 357 0114 C1E7     		b	.L18
 358              		.cfi_endproc
 359              	.LFE224:
 361              		.section	.text.draw_scrollbar,"ax",%progbits
 362              		.align	1
 363              		.syntax unified
 364              		.thumb
 365              		.thumb_func
 366              		.fpu fpv5-d16
 368              	draw_scrollbar:
 369              	.LFB223:
 609:Drivers/lvgl/lvgl/src/core/lv_obj.c **** 
 370              		.loc 1 609 0
 371              		.cfi_startproc
 372              		@ args = 0, pretend = 0, frame = 144
 373              		@ frame_needed = 0, uses_anonymous_args = 0
 374              	.LVL40:
 375 0000 70B5     		push	{r4, r5, r6, lr}
 376              	.LCFI2:
 377              		.cfi_def_cfa_offset 16
 378              		.cfi_offset 4, -16
 379              		.cfi_offset 5, -12
 380              		.cfi_offset 6, -8
 381              		.cfi_offset 14, -4
 382 0002 A4B0     		sub	sp, sp, #144
 383              	.LCFI3:
 384              		.cfi_def_cfa_offset 160
 385 0004 0446     		mov	r4, r0
 386 0006 0D46     		mov	r5, r1
 613:Drivers/lvgl/lvgl/src/core/lv_obj.c **** 
 387              		.loc 1 613 0
ARM GAS  /tmp/ccJvwpHF.s 			page 34


 388 0008 20AA     		add	r2, sp, #128
 389 000a 22A9     		add	r1, sp, #136
 390              	.LVL41:
 391 000c FFF7FEFF 		bl	lv_obj_get_scrollbar_area
 392              	.LVL42:
 615:Drivers/lvgl/lvgl/src/core/lv_obj.c **** 
 393              		.loc 1 615 0
 394 0010 22A8     		add	r0, sp, #136
 395 0012 FFF7FEFF 		bl	lv_area_get_size
 396              	.LVL43:
 397 0016 18B9     		cbnz	r0, .L27
 615:Drivers/lvgl/lvgl/src/core/lv_obj.c **** 
 398              		.loc 1 615 0 is_stmt 0 discriminator 1
 399 0018 20A8     		add	r0, sp, #128
 400 001a FFF7FEFF 		bl	lv_area_get_size
 401              	.LVL44:
 402 001e 28B1     		cbz	r0, .L26
 403              	.L27:
 618:Drivers/lvgl/lvgl/src/core/lv_obj.c ****     if(sb_res != LV_RES_OK) return;
 404              		.loc 1 618 0 is_stmt 1
 405 0020 12A9     		add	r1, sp, #72
 406 0022 2046     		mov	r0, r4
 407 0024 FFF7FEFF 		bl	scrollbar_init_draw_dsc
 408              	.LVL45:
 619:Drivers/lvgl/lvgl/src/core/lv_obj.c **** 
 409              		.loc 1 619 0
 410 0028 0128     		cmp	r0, #1
 411 002a 01D0     		beq	.L33
 412              	.LVL46:
 413              	.L26:
 641:Drivers/lvgl/lvgl/src/core/lv_obj.c **** 
 414              		.loc 1 641 0
 415 002c 24B0     		add	sp, sp, #144
 416              	.LCFI4:
 417              		.cfi_remember_state
 418              		.cfi_def_cfa_offset 16
 419              		@ sp needed
 420 002e 70BD     		pop	{r4, r5, r6, pc}
 421              	.LVL47:
 422              	.L33:
 423              	.LCFI5:
 424              		.cfi_restore_state
 622:Drivers/lvgl/lvgl/src/core/lv_obj.c ****     part_dsc.class_p = MY_CLASS;
 425              		.loc 1 622 0
 426 0030 2946     		mov	r1, r5
 427 0032 6846     		mov	r0, sp
 428              	.LVL48:
 429 0034 FFF7FEFF 		bl	lv_obj_draw_dsc_init
 430              	.LVL49:
 623:Drivers/lvgl/lvgl/src/core/lv_obj.c ****     part_dsc.type = LV_OBJ_DRAW_PART_SCROLLBAR;
 431              		.loc 1 623 0
 432 0038 1B4B     		ldr	r3, .L35
 433 003a 0193     		str	r3, [sp, #4]
 624:Drivers/lvgl/lvgl/src/core/lv_obj.c ****     part_dsc.rect_dsc = &draw_dsc;
 434              		.loc 1 624 0
 435 003c 0223     		movs	r3, #2
 436 003e 0293     		str	r3, [sp, #8]
ARM GAS  /tmp/ccJvwpHF.s 			page 35


 625:Drivers/lvgl/lvgl/src/core/lv_obj.c ****     part_dsc.part = LV_PART_SCROLLBAR;
 437              		.loc 1 625 0
 438 0040 12AB     		add	r3, sp, #72
 439 0042 0493     		str	r3, [sp, #16]
 626:Drivers/lvgl/lvgl/src/core/lv_obj.c **** 
 440              		.loc 1 626 0
 441 0044 4FF48033 		mov	r3, #65536
 442 0048 0D93     		str	r3, [sp, #52]
 628:Drivers/lvgl/lvgl/src/core/lv_obj.c ****         part_dsc.draw_area = &hor_area;
 443              		.loc 1 628 0
 444 004a 22A8     		add	r0, sp, #136
 445 004c FFF7FEFF 		bl	lv_area_get_size
 446              	.LVL50:
 447 0050 B8B9     		cbnz	r0, .L34
 448              	.L29:
 634:Drivers/lvgl/lvgl/src/core/lv_obj.c ****         part_dsc.draw_area = &ver_area;
 449              		.loc 1 634 0
 450 0052 20A8     		add	r0, sp, #128
 451 0054 FFF7FEFF 		bl	lv_area_get_size
 452              	.LVL51:
 453 0058 0028     		cmp	r0, #0
 454 005a E7D0     		beq	.L26
 635:Drivers/lvgl/lvgl/src/core/lv_obj.c ****         lv_event_send(obj, LV_EVENT_DRAW_PART_BEGIN, &part_dsc);
 455              		.loc 1 635 0
 456 005c 20AE     		add	r6, sp, #128
 457 005e 0396     		str	r6, [sp, #12]
 636:Drivers/lvgl/lvgl/src/core/lv_obj.c ****         part_dsc.draw_area = &ver_area;
 458              		.loc 1 636 0
 459 0060 6A46     		mov	r2, sp
 460 0062 1A21     		movs	r1, #26
 461 0064 2046     		mov	r0, r4
 462 0066 FFF7FEFF 		bl	lv_event_send
 463              	.LVL52:
 637:Drivers/lvgl/lvgl/src/core/lv_obj.c ****         lv_draw_rect(draw_ctx, &draw_dsc, &ver_area);
 464              		.loc 1 637 0
 465 006a 0396     		str	r6, [sp, #12]
 638:Drivers/lvgl/lvgl/src/core/lv_obj.c ****         lv_event_send(obj, LV_EVENT_DRAW_PART_END, &part_dsc);
 466              		.loc 1 638 0
 467 006c 3246     		mov	r2, r6
 468 006e 12A9     		add	r1, sp, #72
 469 0070 2846     		mov	r0, r5
 470 0072 FFF7FEFF 		bl	lv_draw_rect
 471              	.LVL53:
 639:Drivers/lvgl/lvgl/src/core/lv_obj.c ****     }
 472              		.loc 1 639 0
 473 0076 6A46     		mov	r2, sp
 474 0078 1B21     		movs	r1, #27
 475 007a 2046     		mov	r0, r4
 476 007c FFF7FEFF 		bl	lv_event_send
 477              	.LVL54:
 478 0080 D4E7     		b	.L26
 479              	.L34:
 629:Drivers/lvgl/lvgl/src/core/lv_obj.c ****         lv_event_send(obj, LV_EVENT_DRAW_PART_BEGIN, &part_dsc);
 480              		.loc 1 629 0
 481 0082 22AE     		add	r6, sp, #136
 482 0084 0396     		str	r6, [sp, #12]
 630:Drivers/lvgl/lvgl/src/core/lv_obj.c ****         lv_draw_rect(draw_ctx, &draw_dsc, &hor_area);
ARM GAS  /tmp/ccJvwpHF.s 			page 36


 483              		.loc 1 630 0
 484 0086 6A46     		mov	r2, sp
 485 0088 1A21     		movs	r1, #26
 486 008a 2046     		mov	r0, r4
 487 008c FFF7FEFF 		bl	lv_event_send
 488              	.LVL55:
 631:Drivers/lvgl/lvgl/src/core/lv_obj.c ****         lv_event_send(obj, LV_EVENT_DRAW_PART_END, &part_dsc);
 489              		.loc 1 631 0
 490 0090 3246     		mov	r2, r6
 491 0092 12A9     		add	r1, sp, #72
 492 0094 2846     		mov	r0, r5
 493 0096 FFF7FEFF 		bl	lv_draw_rect
 494              	.LVL56:
 632:Drivers/lvgl/lvgl/src/core/lv_obj.c ****     }
 495              		.loc 1 632 0
 496 009a 6A46     		mov	r2, sp
 497 009c 1B21     		movs	r1, #27
 498 009e 2046     		mov	r0, r4
 499 00a0 FFF7FEFF 		bl	lv_event_send
 500              	.LVL57:
 501 00a4 D5E7     		b	.L29
 502              	.L36:
 503 00a6 00BF     		.align	2
 504              	.L35:
 505 00a8 00000000 		.word	.LANCHOR0
 506              		.cfi_endproc
 507              	.LFE223:
 509              		.section	.text.lv_obj_draw,"ax",%progbits
 510              		.align	1
 511              		.syntax unified
 512              		.thumb
 513              		.thumb_func
 514              		.fpu fpv5-d16
 516              	lv_obj_draw:
 517              	.LFB222:
 465:Drivers/lvgl/lvgl/src/core/lv_obj.c ****     lv_event_code_t code = lv_event_get_code(e);
 518              		.loc 1 465 0
 519              		.cfi_startproc
 520              		@ args = 0, pretend = 0, frame = 136
 521              		@ frame_needed = 0, uses_anonymous_args = 0
 522              	.LVL58:
 523 0000 2DE9F041 		push	{r4, r5, r6, r7, r8, lr}
 524              	.LCFI6:
 525              		.cfi_def_cfa_offset 24
 526              		.cfi_offset 4, -24
 527              		.cfi_offset 5, -20
 528              		.cfi_offset 6, -16
 529              		.cfi_offset 7, -12
 530              		.cfi_offset 8, -8
 531              		.cfi_offset 14, -4
 532 0004 A2B0     		sub	sp, sp, #136
 533              	.LCFI7:
 534              		.cfi_def_cfa_offset 160
 535 0006 0646     		mov	r6, r0
 466:Drivers/lvgl/lvgl/src/core/lv_obj.c ****     lv_obj_t * obj = lv_event_get_target(e);
 536              		.loc 1 466 0
 537 0008 FFF7FEFF 		bl	lv_event_get_code
ARM GAS  /tmp/ccJvwpHF.s 			page 37


 538              	.LVL59:
 539 000c 0546     		mov	r5, r0
 540              	.LVL60:
 467:Drivers/lvgl/lvgl/src/core/lv_obj.c ****     if(code == LV_EVENT_COVER_CHECK) {
 541              		.loc 1 467 0
 542 000e 3046     		mov	r0, r6
 543 0010 FFF7FEFF 		bl	lv_event_get_target
 544              	.LVL61:
 545 0014 0446     		mov	r4, r0
 546              	.LVL62:
 468:Drivers/lvgl/lvgl/src/core/lv_obj.c ****         lv_cover_check_info_t * info = lv_event_get_param(e);
 547              		.loc 1 468 0
 548 0016 122D     		cmp	r5, #18
 549 0018 07D0     		beq	.L53
 500:Drivers/lvgl/lvgl/src/core/lv_obj.c ****         lv_draw_ctx_t * draw_ctx = lv_event_get_draw_ctx(e);
 550              		.loc 1 500 0
 551 001a 152D     		cmp	r5, #21
 552 001c 53D0     		beq	.L54
 560:Drivers/lvgl/lvgl/src/core/lv_obj.c ****         lv_draw_ctx_t * draw_ctx = lv_event_get_draw_ctx(e);
 553              		.loc 1 560 0
 554 001e 182D     		cmp	r5, #24
 555 0020 00F0DD80 		beq	.L55
 556              	.LVL63:
 557              	.L37:
 606:Drivers/lvgl/lvgl/src/core/lv_obj.c **** 
 558              		.loc 1 606 0
 559 0024 22B0     		add	sp, sp, #136
 560              	.LCFI8:
 561              		.cfi_remember_state
 562              		.cfi_def_cfa_offset 24
 563              		@ sp needed
 564 0026 BDE8F081 		pop	{r4, r5, r6, r7, r8, pc}
 565              	.LVL64:
 566              	.L53:
 567              	.LCFI9:
 568              		.cfi_restore_state
 569              	.LBB119:
 469:Drivers/lvgl/lvgl/src/core/lv_obj.c ****         if(info->res == LV_COVER_RES_MASKED) return;
 570              		.loc 1 469 0
 571 002a 3046     		mov	r0, r6
 572              	.LVL65:
 573 002c FFF7FEFF 		bl	lv_event_get_param
 574              	.LVL66:
 575 0030 0546     		mov	r5, r0
 576              	.LVL67:
 470:Drivers/lvgl/lvgl/src/core/lv_obj.c ****         if(lv_obj_get_style_clip_corner(obj, LV_PART_MAIN)) {
 577              		.loc 1 470 0
 578 0032 0378     		ldrb	r3, [r0]	@ zero_extendqisi2
 579 0034 022B     		cmp	r3, #2
 580 0036 F5D0     		beq	.L37
 581              	.LVL68:
 582              	.LBB120:
 583              	.LBB121:
 501:Drivers/lvgl/lvgl/src/core/lv_obj_style_gen.h ****     return (bool)v.num;
 584              		.loc 2 501 0
 585 0038 1722     		movs	r2, #23
 586 003a 0021     		movs	r1, #0
ARM GAS  /tmp/ccJvwpHF.s 			page 38


 587 003c 2046     		mov	r0, r4
 588              	.LVL69:
 589 003e FFF7FEFF 		bl	lv_obj_get_style_prop
 590              	.LVL70:
 591              	.LBE121:
 592              	.LBE120:
 471:Drivers/lvgl/lvgl/src/core/lv_obj.c ****             info->res = LV_COVER_RES_MASKED;
 593              		.loc 1 471 0
 594 0042 10B1     		cbz	r0, .L40
 472:Drivers/lvgl/lvgl/src/core/lv_obj.c ****             return;
 595              		.loc 1 472 0
 596 0044 0223     		movs	r3, #2
 597 0046 2B70     		strb	r3, [r5]
 473:Drivers/lvgl/lvgl/src/core/lv_obj.c ****         }
 598              		.loc 1 473 0
 599 0048 ECE7     		b	.L37
 600              	.L40:
 601              	.LVL71:
 602              	.LBB122:
 603              	.LBB123:
 495:Drivers/lvgl/lvgl/src/core/lv_obj_style_gen.h ****     return (lv_coord_t)v.num;
 604              		.loc 2 495 0
 605 004a 0B22     		movs	r2, #11
 606 004c 0021     		movs	r1, #0
 607 004e 2046     		mov	r0, r4
 608 0050 FFF7FEFF 		bl	lv_obj_get_style_prop
 609              	.LVL72:
 496:Drivers/lvgl/lvgl/src/core/lv_obj_style_gen.h **** }
 610              		.loc 2 496 0
 611 0054 07B2     		sxth	r7, r0
 612              	.LVL73:
 613              	.LBE123:
 614              	.LBE122:
 615              	.LBB124:
 616              	.LBB125:
  57:Drivers/lvgl/lvgl/src/core/lv_obj_style_gen.h ****     return (lv_coord_t)v.num;
 617              		.loc 2 57 0
 618 0056 6822     		movs	r2, #104
 619 0058 0021     		movs	r1, #0
 620 005a 2046     		mov	r0, r4
 621 005c FFF7FEFF 		bl	lv_obj_get_style_prop
 622              	.LVL74:
 623 0060 0646     		mov	r6, r0
 624              	.LVL75:
 625              	.LBE125:
 626              	.LBE124:
 627              	.LBB126:
 628              	.LBB127:
  63:Drivers/lvgl/lvgl/src/core/lv_obj_style_gen.h ****     return (lv_coord_t)v.num;
 629              		.loc 2 63 0
 630 0062 6922     		movs	r2, #105
 631 0064 0021     		movs	r1, #0
 632 0066 2046     		mov	r0, r4
 633 0068 FFF7FEFF 		bl	lv_obj_get_style_prop
 634              	.LVL76:
 635              	.LBE127:
 636              	.LBE126:
ARM GAS  /tmp/ccJvwpHF.s 			page 39


 637              	.LBB128:
 638              	.LBB129:
 639              		.file 3 "Drivers/lvgl/lvgl/src/core/../misc/../font/../misc/lv_area.h"
   1:Drivers/lvgl/lvgl/src/core/../misc/../font/../misc/lv_area.h **** /**
   2:Drivers/lvgl/lvgl/src/core/../misc/../font/../misc/lv_area.h ****  * @file lv_area.h
   3:Drivers/lvgl/lvgl/src/core/../misc/../font/../misc/lv_area.h ****  *
   4:Drivers/lvgl/lvgl/src/core/../misc/../font/../misc/lv_area.h ****  */
   5:Drivers/lvgl/lvgl/src/core/../misc/../font/../misc/lv_area.h **** 
   6:Drivers/lvgl/lvgl/src/core/../misc/../font/../misc/lv_area.h **** #ifndef LV_AREA_H
   7:Drivers/lvgl/lvgl/src/core/../misc/../font/../misc/lv_area.h **** #define LV_AREA_H
   8:Drivers/lvgl/lvgl/src/core/../misc/../font/../misc/lv_area.h **** 
   9:Drivers/lvgl/lvgl/src/core/../misc/../font/../misc/lv_area.h **** #ifdef __cplusplus
  10:Drivers/lvgl/lvgl/src/core/../misc/../font/../misc/lv_area.h **** extern "C" {
  11:Drivers/lvgl/lvgl/src/core/../misc/../font/../misc/lv_area.h **** #endif
  12:Drivers/lvgl/lvgl/src/core/../misc/../font/../misc/lv_area.h **** 
  13:Drivers/lvgl/lvgl/src/core/../misc/../font/../misc/lv_area.h **** /*********************
  14:Drivers/lvgl/lvgl/src/core/../misc/../font/../misc/lv_area.h ****  *      INCLUDES
  15:Drivers/lvgl/lvgl/src/core/../misc/../font/../misc/lv_area.h ****  *********************/
  16:Drivers/lvgl/lvgl/src/core/../misc/../font/../misc/lv_area.h **** #include "../lv_conf_internal.h"
  17:Drivers/lvgl/lvgl/src/core/../misc/../font/../misc/lv_area.h **** #include <stdbool.h>
  18:Drivers/lvgl/lvgl/src/core/../misc/../font/../misc/lv_area.h **** #include <stdint.h>
  19:Drivers/lvgl/lvgl/src/core/../misc/../font/../misc/lv_area.h **** 
  20:Drivers/lvgl/lvgl/src/core/../misc/../font/../misc/lv_area.h **** /*********************
  21:Drivers/lvgl/lvgl/src/core/../misc/../font/../misc/lv_area.h ****  *      DEFINES
  22:Drivers/lvgl/lvgl/src/core/../misc/../font/../misc/lv_area.h ****  *********************/
  23:Drivers/lvgl/lvgl/src/core/../misc/../font/../misc/lv_area.h **** 
  24:Drivers/lvgl/lvgl/src/core/../misc/../font/../misc/lv_area.h **** #if LV_USE_LARGE_COORD
  25:Drivers/lvgl/lvgl/src/core/../misc/../font/../misc/lv_area.h **** typedef int32_t lv_coord_t;
  26:Drivers/lvgl/lvgl/src/core/../misc/../font/../misc/lv_area.h **** #else
  27:Drivers/lvgl/lvgl/src/core/../misc/../font/../misc/lv_area.h **** typedef int16_t lv_coord_t;
  28:Drivers/lvgl/lvgl/src/core/../misc/../font/../misc/lv_area.h **** #endif
  29:Drivers/lvgl/lvgl/src/core/../misc/../font/../misc/lv_area.h **** 
  30:Drivers/lvgl/lvgl/src/core/../misc/../font/../misc/lv_area.h **** /**********************
  31:Drivers/lvgl/lvgl/src/core/../misc/../font/../misc/lv_area.h ****  *      TYPEDEFS
  32:Drivers/lvgl/lvgl/src/core/../misc/../font/../misc/lv_area.h ****  **********************/
  33:Drivers/lvgl/lvgl/src/core/../misc/../font/../misc/lv_area.h **** 
  34:Drivers/lvgl/lvgl/src/core/../misc/../font/../misc/lv_area.h **** /**
  35:Drivers/lvgl/lvgl/src/core/../misc/../font/../misc/lv_area.h ****  * Represents a point on the screen.
  36:Drivers/lvgl/lvgl/src/core/../misc/../font/../misc/lv_area.h ****  */
  37:Drivers/lvgl/lvgl/src/core/../misc/../font/../misc/lv_area.h **** typedef struct {
  38:Drivers/lvgl/lvgl/src/core/../misc/../font/../misc/lv_area.h ****     lv_coord_t x;
  39:Drivers/lvgl/lvgl/src/core/../misc/../font/../misc/lv_area.h ****     lv_coord_t y;
  40:Drivers/lvgl/lvgl/src/core/../misc/../font/../misc/lv_area.h **** } lv_point_t;
  41:Drivers/lvgl/lvgl/src/core/../misc/../font/../misc/lv_area.h **** 
  42:Drivers/lvgl/lvgl/src/core/../misc/../font/../misc/lv_area.h **** /** Represents an area of the screen.*/
  43:Drivers/lvgl/lvgl/src/core/../misc/../font/../misc/lv_area.h **** typedef struct {
  44:Drivers/lvgl/lvgl/src/core/../misc/../font/../misc/lv_area.h ****     lv_coord_t x1;
  45:Drivers/lvgl/lvgl/src/core/../misc/../font/../misc/lv_area.h ****     lv_coord_t y1;
  46:Drivers/lvgl/lvgl/src/core/../misc/../font/../misc/lv_area.h ****     lv_coord_t x2;
  47:Drivers/lvgl/lvgl/src/core/../misc/../font/../misc/lv_area.h ****     lv_coord_t y2;
  48:Drivers/lvgl/lvgl/src/core/../misc/../font/../misc/lv_area.h **** } lv_area_t;
  49:Drivers/lvgl/lvgl/src/core/../misc/../font/../misc/lv_area.h **** 
  50:Drivers/lvgl/lvgl/src/core/../misc/../font/../misc/lv_area.h **** /** Alignments*/
  51:Drivers/lvgl/lvgl/src/core/../misc/../font/../misc/lv_area.h **** enum {
  52:Drivers/lvgl/lvgl/src/core/../misc/../font/../misc/lv_area.h ****     LV_ALIGN_DEFAULT = 0,
  53:Drivers/lvgl/lvgl/src/core/../misc/../font/../misc/lv_area.h ****     LV_ALIGN_TOP_LEFT,
  54:Drivers/lvgl/lvgl/src/core/../misc/../font/../misc/lv_area.h ****     LV_ALIGN_TOP_MID,
ARM GAS  /tmp/ccJvwpHF.s 			page 40


  55:Drivers/lvgl/lvgl/src/core/../misc/../font/../misc/lv_area.h ****     LV_ALIGN_TOP_RIGHT,
  56:Drivers/lvgl/lvgl/src/core/../misc/../font/../misc/lv_area.h ****     LV_ALIGN_BOTTOM_LEFT,
  57:Drivers/lvgl/lvgl/src/core/../misc/../font/../misc/lv_area.h ****     LV_ALIGN_BOTTOM_MID,
  58:Drivers/lvgl/lvgl/src/core/../misc/../font/../misc/lv_area.h ****     LV_ALIGN_BOTTOM_RIGHT,
  59:Drivers/lvgl/lvgl/src/core/../misc/../font/../misc/lv_area.h ****     LV_ALIGN_LEFT_MID,
  60:Drivers/lvgl/lvgl/src/core/../misc/../font/../misc/lv_area.h ****     LV_ALIGN_RIGHT_MID,
  61:Drivers/lvgl/lvgl/src/core/../misc/../font/../misc/lv_area.h ****     LV_ALIGN_CENTER,
  62:Drivers/lvgl/lvgl/src/core/../misc/../font/../misc/lv_area.h **** 
  63:Drivers/lvgl/lvgl/src/core/../misc/../font/../misc/lv_area.h ****     LV_ALIGN_OUT_TOP_LEFT,
  64:Drivers/lvgl/lvgl/src/core/../misc/../font/../misc/lv_area.h ****     LV_ALIGN_OUT_TOP_MID,
  65:Drivers/lvgl/lvgl/src/core/../misc/../font/../misc/lv_area.h ****     LV_ALIGN_OUT_TOP_RIGHT,
  66:Drivers/lvgl/lvgl/src/core/../misc/../font/../misc/lv_area.h ****     LV_ALIGN_OUT_BOTTOM_LEFT,
  67:Drivers/lvgl/lvgl/src/core/../misc/../font/../misc/lv_area.h ****     LV_ALIGN_OUT_BOTTOM_MID,
  68:Drivers/lvgl/lvgl/src/core/../misc/../font/../misc/lv_area.h ****     LV_ALIGN_OUT_BOTTOM_RIGHT,
  69:Drivers/lvgl/lvgl/src/core/../misc/../font/../misc/lv_area.h ****     LV_ALIGN_OUT_LEFT_TOP,
  70:Drivers/lvgl/lvgl/src/core/../misc/../font/../misc/lv_area.h ****     LV_ALIGN_OUT_LEFT_MID,
  71:Drivers/lvgl/lvgl/src/core/../misc/../font/../misc/lv_area.h ****     LV_ALIGN_OUT_LEFT_BOTTOM,
  72:Drivers/lvgl/lvgl/src/core/../misc/../font/../misc/lv_area.h ****     LV_ALIGN_OUT_RIGHT_TOP,
  73:Drivers/lvgl/lvgl/src/core/../misc/../font/../misc/lv_area.h ****     LV_ALIGN_OUT_RIGHT_MID,
  74:Drivers/lvgl/lvgl/src/core/../misc/../font/../misc/lv_area.h ****     LV_ALIGN_OUT_RIGHT_BOTTOM,
  75:Drivers/lvgl/lvgl/src/core/../misc/../font/../misc/lv_area.h **** };
  76:Drivers/lvgl/lvgl/src/core/../misc/../font/../misc/lv_area.h **** typedef uint8_t lv_align_t;
  77:Drivers/lvgl/lvgl/src/core/../misc/../font/../misc/lv_area.h **** 
  78:Drivers/lvgl/lvgl/src/core/../misc/../font/../misc/lv_area.h **** enum {
  79:Drivers/lvgl/lvgl/src/core/../misc/../font/../misc/lv_area.h ****     LV_DIR_NONE     = 0x00,
  80:Drivers/lvgl/lvgl/src/core/../misc/../font/../misc/lv_area.h ****     LV_DIR_LEFT     = (1 << 0),
  81:Drivers/lvgl/lvgl/src/core/../misc/../font/../misc/lv_area.h ****     LV_DIR_RIGHT    = (1 << 1),
  82:Drivers/lvgl/lvgl/src/core/../misc/../font/../misc/lv_area.h ****     LV_DIR_TOP      = (1 << 2),
  83:Drivers/lvgl/lvgl/src/core/../misc/../font/../misc/lv_area.h ****     LV_DIR_BOTTOM   = (1 << 3),
  84:Drivers/lvgl/lvgl/src/core/../misc/../font/../misc/lv_area.h ****     LV_DIR_HOR      = LV_DIR_LEFT | LV_DIR_RIGHT,
  85:Drivers/lvgl/lvgl/src/core/../misc/../font/../misc/lv_area.h ****     LV_DIR_VER      = LV_DIR_TOP | LV_DIR_BOTTOM,
  86:Drivers/lvgl/lvgl/src/core/../misc/../font/../misc/lv_area.h ****     LV_DIR_ALL      = LV_DIR_HOR | LV_DIR_VER,
  87:Drivers/lvgl/lvgl/src/core/../misc/../font/../misc/lv_area.h **** };
  88:Drivers/lvgl/lvgl/src/core/../misc/../font/../misc/lv_area.h **** 
  89:Drivers/lvgl/lvgl/src/core/../misc/../font/../misc/lv_area.h **** typedef uint8_t lv_dir_t;
  90:Drivers/lvgl/lvgl/src/core/../misc/../font/../misc/lv_area.h **** 
  91:Drivers/lvgl/lvgl/src/core/../misc/../font/../misc/lv_area.h **** /**********************
  92:Drivers/lvgl/lvgl/src/core/../misc/../font/../misc/lv_area.h ****  * GLOBAL PROTOTYPES
  93:Drivers/lvgl/lvgl/src/core/../misc/../font/../misc/lv_area.h ****  **********************/
  94:Drivers/lvgl/lvgl/src/core/../misc/../font/../misc/lv_area.h **** 
  95:Drivers/lvgl/lvgl/src/core/../misc/../font/../misc/lv_area.h **** /**
  96:Drivers/lvgl/lvgl/src/core/../misc/../font/../misc/lv_area.h ****  * Initialize an area
  97:Drivers/lvgl/lvgl/src/core/../misc/../font/../misc/lv_area.h ****  * @param area_p pointer to an area
  98:Drivers/lvgl/lvgl/src/core/../misc/../font/../misc/lv_area.h ****  * @param x1 left coordinate of the area
  99:Drivers/lvgl/lvgl/src/core/../misc/../font/../misc/lv_area.h ****  * @param y1 top coordinate of the area
 100:Drivers/lvgl/lvgl/src/core/../misc/../font/../misc/lv_area.h ****  * @param x2 right coordinate of the area
 101:Drivers/lvgl/lvgl/src/core/../misc/../font/../misc/lv_area.h ****  * @param y2 bottom coordinate of the area
 102:Drivers/lvgl/lvgl/src/core/../misc/../font/../misc/lv_area.h ****  */
 103:Drivers/lvgl/lvgl/src/core/../misc/../font/../misc/lv_area.h **** void lv_area_set(lv_area_t * area_p, lv_coord_t x1, lv_coord_t y1, lv_coord_t x2, lv_coord_t y2);
 104:Drivers/lvgl/lvgl/src/core/../misc/../font/../misc/lv_area.h **** 
 105:Drivers/lvgl/lvgl/src/core/../misc/../font/../misc/lv_area.h **** /**
 106:Drivers/lvgl/lvgl/src/core/../misc/../font/../misc/lv_area.h ****  * Copy an area
 107:Drivers/lvgl/lvgl/src/core/../misc/../font/../misc/lv_area.h ****  * @param dest pointer to the destination area
 108:Drivers/lvgl/lvgl/src/core/../misc/../font/../misc/lv_area.h ****  * @param src pointer to the source area
 109:Drivers/lvgl/lvgl/src/core/../misc/../font/../misc/lv_area.h ****  */
 110:Drivers/lvgl/lvgl/src/core/../misc/../font/../misc/lv_area.h **** inline static void lv_area_copy(lv_area_t * dest, const lv_area_t * src)
 111:Drivers/lvgl/lvgl/src/core/../misc/../font/../misc/lv_area.h **** {
ARM GAS  /tmp/ccJvwpHF.s 			page 41


 112:Drivers/lvgl/lvgl/src/core/../misc/../font/../misc/lv_area.h ****     dest->x1 = src->x1;
 640              		.loc 3 112 0
 641 006c B4F91410 		ldrsh	r1, [r4, #20]
 113:Drivers/lvgl/lvgl/src/core/../misc/../font/../misc/lv_area.h ****     dest->y1 = src->y1;
 642              		.loc 3 113 0
 643 0070 B4F91620 		ldrsh	r2, [r4, #22]
 114:Drivers/lvgl/lvgl/src/core/../misc/../font/../misc/lv_area.h ****     dest->x2 = src->x2;
 644              		.loc 3 114 0
 645 0074 B4F918E0 		ldrsh	lr, [r4, #24]
 115:Drivers/lvgl/lvgl/src/core/../misc/../font/../misc/lv_area.h ****     dest->y2 = src->y2;
 646              		.loc 3 115 0
 647 0078 B4F91AC0 		ldrsh	ip, [r4, #26]
 648              	.LVL77:
 649              	.LBE129:
 650              	.LBE128:
 482:Drivers/lvgl/lvgl/src/core/lv_obj.c ****         coords.x2 += w;
 651              		.loc 1 482 0
 652 007c B3B2     		uxth	r3, r6
 653 007e C91A     		subs	r1, r1, r3
 654 0080 ADF84010 		strh	r1, [sp, #64]	@ movhi
 483:Drivers/lvgl/lvgl/src/core/lv_obj.c ****         coords.y1 -= h;
 655              		.loc 1 483 0
 656 0084 7344     		add	r3, r3, lr
 657 0086 ADF84430 		strh	r3, [sp, #68]	@ movhi
 484:Drivers/lvgl/lvgl/src/core/lv_obj.c ****         coords.y2 += h;
 658              		.loc 1 484 0
 659 008a 80B2     		uxth	r0, r0
 660 008c 121A     		subs	r2, r2, r0
 661 008e ADF84220 		strh	r2, [sp, #66]	@ movhi
 485:Drivers/lvgl/lvgl/src/core/lv_obj.c **** 
 662              		.loc 1 485 0
 663 0092 6044     		add	r0, r0, ip
 664 0094 ADF84600 		strh	r0, [sp, #70]	@ movhi
 487:Drivers/lvgl/lvgl/src/core/lv_obj.c ****             info->res = LV_COVER_RES_NOT_COVER;
 665              		.loc 1 487 0
 666 0098 3A46     		mov	r2, r7
 667 009a 10A9     		add	r1, sp, #64
 668 009c 6868     		ldr	r0, [r5, #4]
 669 009e FFF7FEFF 		bl	_lv_area_is_in
 670              	.LVL78:
 671 00a2 10B9     		cbnz	r0, .L41
 488:Drivers/lvgl/lvgl/src/core/lv_obj.c ****             return;
 672              		.loc 1 488 0
 673 00a4 0123     		movs	r3, #1
 674 00a6 2B70     		strb	r3, [r5]
 489:Drivers/lvgl/lvgl/src/core/lv_obj.c ****         }
 675              		.loc 1 489 0
 676 00a8 BCE7     		b	.L37
 677              	.L41:
 678              	.LVL79:
 679              	.LBB130:
 680              	.LBB131:
 153:Drivers/lvgl/lvgl/src/core/lv_obj_style_gen.h ****     return (lv_opa_t)v.num;
 681              		.loc 2 153 0
 682 00aa 2122     		movs	r2, #33
 683 00ac 0021     		movs	r1, #0
 684 00ae 2046     		mov	r0, r4
ARM GAS  /tmp/ccJvwpHF.s 			page 42


 685 00b0 FFF7FEFF 		bl	lv_obj_get_style_prop
 686              	.LVL80:
 154:Drivers/lvgl/lvgl/src/core/lv_obj_style_gen.h **** }
 687              		.loc 2 154 0
 688 00b4 C0B2     		uxtb	r0, r0
 689              	.LVL81:
 690              	.LBE131:
 691              	.LBE130:
 492:Drivers/lvgl/lvgl/src/core/lv_obj.c ****             info->res = LV_COVER_RES_NOT_COVER;
 692              		.loc 1 492 0
 693 00b6 FC28     		cmp	r0, #252
 694 00b8 02D8     		bhi	.L42
 493:Drivers/lvgl/lvgl/src/core/lv_obj.c ****             return;
 695              		.loc 1 493 0
 696 00ba 0123     		movs	r3, #1
 697 00bc 2B70     		strb	r3, [r5]
 494:Drivers/lvgl/lvgl/src/core/lv_obj.c ****         }
 698              		.loc 1 494 0
 699 00be B1E7     		b	.L37
 700              	.L42:
 497:Drivers/lvgl/lvgl/src/core/lv_obj.c **** 
 701              		.loc 1 497 0
 702 00c0 0023     		movs	r3, #0
 703 00c2 2B70     		strb	r3, [r5]
 704              	.LBE119:
 705 00c4 AEE7     		b	.L37
 706              	.LVL82:
 707              	.L54:
 708              	.LBB132:
 501:Drivers/lvgl/lvgl/src/core/lv_obj.c ****         lv_draw_rect_dsc_t draw_dsc;
 709              		.loc 1 501 0
 710 00c6 3046     		mov	r0, r6
 711              	.LVL83:
 712 00c8 FFF7FEFF 		bl	lv_event_get_draw_ctx
 713              	.LVL84:
 714 00cc 0646     		mov	r6, r0
 715              	.LVL85:
 503:Drivers/lvgl/lvgl/src/core/lv_obj.c ****         /*If the border is drawn later disable loading its properties*/
 716              		.loc 1 503 0
 717 00ce 02A8     		add	r0, sp, #8
 718              	.LVL86:
 719 00d0 FFF7FEFF 		bl	lv_draw_rect_dsc_init
 720              	.LVL87:
 721              	.LBB133:
 722              	.LBB134:
 267:Drivers/lvgl/lvgl/src/core/lv_obj_style_gen.h ****     return (bool)v.num;
 723              		.loc 2 267 0
 724 00d4 3422     		movs	r2, #52
 725 00d6 0021     		movs	r1, #0
 726 00d8 2046     		mov	r0, r4
 727 00da FFF7FEFF 		bl	lv_obj_get_style_prop
 728              	.LVL88:
 729              	.LBE134:
 730              	.LBE133:
 505:Drivers/lvgl/lvgl/src/core/lv_obj.c ****             draw_dsc.border_post = 1;
 731              		.loc 1 505 0
 732 00de 28B1     		cbz	r0, .L45
ARM GAS  /tmp/ccJvwpHF.s 			page 43


 506:Drivers/lvgl/lvgl/src/core/lv_obj.c ****         }
 733              		.loc 1 506 0
 734 00e0 9DF82B30 		ldrb	r3, [sp, #43]	@ zero_extendqisi2
 735 00e4 43F00103 		orr	r3, r3, #1
 736 00e8 8DF82B30 		strb	r3, [sp, #43]
 737              	.L45:
 509:Drivers/lvgl/lvgl/src/core/lv_obj.c ****         lv_coord_t w = lv_obj_get_style_transform_width(obj, LV_PART_MAIN);
 738              		.loc 1 509 0
 739 00ec 02AF     		add	r7, sp, #8
 740 00ee 3A46     		mov	r2, r7
 741 00f0 0021     		movs	r1, #0
 742 00f2 2046     		mov	r0, r4
 743 00f4 FFF7FEFF 		bl	lv_obj_init_draw_rect_dsc
 744              	.LVL89:
 745              	.LBB135:
 746              	.LBB136:
  57:Drivers/lvgl/lvgl/src/core/lv_obj_style_gen.h ****     return (lv_coord_t)v.num;
 747              		.loc 2 57 0
 748 00f8 6822     		movs	r2, #104
 749 00fa 0021     		movs	r1, #0
 750 00fc 2046     		mov	r0, r4
 751 00fe FFF7FEFF 		bl	lv_obj_get_style_prop
 752              	.LVL90:
 753 0102 0546     		mov	r5, r0
 754              	.LVL91:
 755              	.LBE136:
 756              	.LBE135:
 757              	.LBB137:
 758              	.LBB138:
  63:Drivers/lvgl/lvgl/src/core/lv_obj_style_gen.h ****     return (lv_coord_t)v.num;
 759              		.loc 2 63 0
 760 0104 6922     		movs	r2, #105
 761 0106 0021     		movs	r1, #0
 762 0108 2046     		mov	r0, r4
 763 010a FFF7FEFF 		bl	lv_obj_get_style_prop
 764              	.LVL92:
 765              	.LBE138:
 766              	.LBE137:
 767              	.LBB139:
 768              	.LBB140:
 112:Drivers/lvgl/lvgl/src/core/../misc/../font/../misc/lv_area.h ****     dest->y1 = src->y1;
 769              		.loc 3 112 0
 770 010e B4F91410 		ldrsh	r1, [r4, #20]
 113:Drivers/lvgl/lvgl/src/core/../misc/../font/../misc/lv_area.h ****     dest->x2 = src->x2;
 771              		.loc 3 113 0
 772 0112 B4F91620 		ldrsh	r2, [r4, #22]
 114:Drivers/lvgl/lvgl/src/core/../misc/../font/../misc/lv_area.h ****     dest->y2 = src->y2;
 773              		.loc 3 114 0
 774 0116 B4F918E0 		ldrsh	lr, [r4, #24]
 775              		.loc 3 115 0
 776 011a B4F91AC0 		ldrsh	ip, [r4, #26]
 777              	.LVL93:
 778              	.LBE140:
 779              	.LBE139:
 514:Drivers/lvgl/lvgl/src/core/lv_obj.c ****         coords.x2 += w;
 780              		.loc 1 514 0
 781 011e ABB2     		uxth	r3, r5
ARM GAS  /tmp/ccJvwpHF.s 			page 44


 782 0120 C91A     		subs	r1, r1, r3
 783 0122 ADF80010 		strh	r1, [sp]	@ movhi
 515:Drivers/lvgl/lvgl/src/core/lv_obj.c ****         coords.y1 -= h;
 784              		.loc 1 515 0
 785 0126 7344     		add	r3, r3, lr
 786 0128 ADF80430 		strh	r3, [sp, #4]	@ movhi
 516:Drivers/lvgl/lvgl/src/core/lv_obj.c ****         coords.y2 += h;
 787              		.loc 1 516 0
 788 012c 80B2     		uxth	r0, r0
 789 012e 121A     		subs	r2, r2, r0
 790 0130 ADF80220 		strh	r2, [sp, #2]	@ movhi
 517:Drivers/lvgl/lvgl/src/core/lv_obj.c **** 
 791              		.loc 1 517 0
 792 0134 6044     		add	r0, r0, ip
 793 0136 ADF80600 		strh	r0, [sp, #6]	@ movhi
 520:Drivers/lvgl/lvgl/src/core/lv_obj.c ****         part_dsc.class_p = MY_CLASS;
 794              		.loc 1 520 0
 795 013a 3146     		mov	r1, r6
 796 013c 10A8     		add	r0, sp, #64
 797 013e FFF7FEFF 		bl	lv_obj_draw_dsc_init
 798              	.LVL94:
 521:Drivers/lvgl/lvgl/src/core/lv_obj.c ****         part_dsc.type = LV_OBJ_DRAW_PART_RECTANGLE;
 799              		.loc 1 521 0
 800 0142 614B     		ldr	r3, .L58
 801 0144 1193     		str	r3, [sp, #68]
 522:Drivers/lvgl/lvgl/src/core/lv_obj.c ****         part_dsc.rect_dsc = &draw_dsc;
 802              		.loc 1 522 0
 803 0146 0025     		movs	r5, #0
 804 0148 1295     		str	r5, [sp, #72]
 523:Drivers/lvgl/lvgl/src/core/lv_obj.c ****         part_dsc.draw_area = &coords;
 805              		.loc 1 523 0
 806 014a 1497     		str	r7, [sp, #80]
 524:Drivers/lvgl/lvgl/src/core/lv_obj.c ****         part_dsc.part = LV_PART_MAIN;
 807              		.loc 1 524 0
 808 014c CDF84CD0 		str	sp, [sp, #76]
 525:Drivers/lvgl/lvgl/src/core/lv_obj.c ****         lv_event_send(obj, LV_EVENT_DRAW_PART_BEGIN, &part_dsc);
 809              		.loc 1 525 0
 810 0150 1D95     		str	r5, [sp, #116]
 526:Drivers/lvgl/lvgl/src/core/lv_obj.c **** 
 811              		.loc 1 526 0
 812 0152 10AA     		add	r2, sp, #64
 813 0154 1A21     		movs	r1, #26
 814 0156 2046     		mov	r0, r4
 815 0158 FFF7FEFF 		bl	lv_event_send
 816              	.LVL95:
 817              	.LBB141:
 818              	.LBB142:
 501:Drivers/lvgl/lvgl/src/core/lv_obj_style_gen.h ****     return (bool)v.num;
 819              		.loc 2 501 0
 820 015c 1722     		movs	r2, #23
 821 015e 2946     		mov	r1, r5
 822 0160 2046     		mov	r0, r4
 823 0162 FFF7FEFF 		bl	lv_obj_get_style_prop
 824              	.LVL96:
 825              	.LBE142:
 826              	.LBE141:
 530:Drivers/lvgl/lvgl/src/core/lv_obj.c ****         const void * bg_img_src = draw_dsc.bg_img_src;
ARM GAS  /tmp/ccJvwpHF.s 			page 45


 827              		.loc 1 530 0
 828 0166 20B1     		cbz	r0, .L50
 530:Drivers/lvgl/lvgl/src/core/lv_obj.c ****         const void * bg_img_src = draw_dsc.bg_img_src;
 829              		.loc 1 530 0 is_stmt 0 discriminator 1
 830 0168 BDF90830 		ldrsh	r3, [sp, #8]
 831 016c 9BB9     		cbnz	r3, .L51
 530:Drivers/lvgl/lvgl/src/core/lv_obj.c ****         const void * bg_img_src = draw_dsc.bg_img_src;
 832              		.loc 1 530 0
 833 016e 2B46     		mov	r3, r5
 834 0170 00E0     		b	.L46
 835              	.L50:
 836 0172 0023     		movs	r3, #0
 837              	.L46:
 838              	.LVL97:
 531:Drivers/lvgl/lvgl/src/core/lv_obj.c ****         if(clip_corner) {
 839              		.loc 1 531 0 is_stmt 1 discriminator 6
 840 0174 069F     		ldr	r7, [sp, #24]
 841              	.LVL98:
 532:Drivers/lvgl/lvgl/src/core/lv_obj.c ****             draw_dsc.bg_img_src = NULL;
 842              		.loc 1 532 0 discriminator 6
 843 0176 1D46     		mov	r5, r3
 844 0178 0BB1     		cbz	r3, .L47
 533:Drivers/lvgl/lvgl/src/core/lv_obj.c ****         }
 845              		.loc 1 533 0
 846 017a 0023     		movs	r3, #0
 847              	.LVL99:
 848 017c 0693     		str	r3, [sp, #24]
 849              	.L47:
 537:Drivers/lvgl/lvgl/src/core/lv_obj.c **** 
 850              		.loc 1 537 0
 851 017e 6A46     		mov	r2, sp
 852 0180 02A9     		add	r1, sp, #8
 853 0182 3046     		mov	r0, r6
 854 0184 FFF7FEFF 		bl	lv_draw_rect
 855              	.LVL100:
 541:Drivers/lvgl/lvgl/src/core/lv_obj.c ****             lv_draw_mask_radius_param_t * mp = lv_mem_buf_get(sizeof(lv_draw_mask_radius_param_t));
 856              		.loc 1 541 0
 857 0188 3DB9     		cbnz	r5, .L56
 858              	.L48:
 558:Drivers/lvgl/lvgl/src/core/lv_obj.c ****     }
 859              		.loc 1 558 0
 860 018a 10AA     		add	r2, sp, #64
 861 018c 1B21     		movs	r1, #27
 862 018e 2046     		mov	r0, r4
 863 0190 FFF7FEFF 		bl	lv_event_send
 864              	.LVL101:
 865              	.LBE132:
 866 0194 46E7     		b	.L37
 867              	.LVL102:
 868              	.L51:
 869              	.LBB144:
 530:Drivers/lvgl/lvgl/src/core/lv_obj.c ****         const void * bg_img_src = draw_dsc.bg_img_src;
 870              		.loc 1 530 0
 871 0196 0123     		movs	r3, #1
 872 0198 ECE7     		b	.L46
 873              	.LVL103:
 874              	.L56:
ARM GAS  /tmp/ccJvwpHF.s 			page 46


 875              	.LBB143:
 542:Drivers/lvgl/lvgl/src/core/lv_obj.c ****             lv_draw_mask_radius_init(mp, &obj->coords, draw_dsc.radius, false);
 876              		.loc 1 542 0
 877 019a 1820     		movs	r0, #24
 878 019c FFF7FEFF 		bl	lv_mem_buf_get
 879              	.LVL104:
 880 01a0 0546     		mov	r5, r0
 881              	.LVL105:
 543:Drivers/lvgl/lvgl/src/core/lv_obj.c ****             /*Add the mask and use `obj+8` as custom id. Don't use `obj` directly because it might 
 882              		.loc 1 543 0
 883 01a2 0023     		movs	r3, #0
 884 01a4 BDF90820 		ldrsh	r2, [sp, #8]
 885 01a8 04F11401 		add	r1, r4, #20
 886 01ac FFF7FEFF 		bl	lv_draw_mask_radius_init
 887              	.LVL106:
 545:Drivers/lvgl/lvgl/src/core/lv_obj.c **** 
 888              		.loc 1 545 0
 889 01b0 04F59071 		add	r1, r4, #288
 890 01b4 2846     		mov	r0, r5
 891 01b6 FFF7FEFF 		bl	lv_draw_mask_add
 892              	.LVL107:
 547:Drivers/lvgl/lvgl/src/core/lv_obj.c ****                 draw_dsc.bg_opa = LV_OPA_TRANSP;
 893              		.loc 1 547 0
 894 01ba 002F     		cmp	r7, #0
 895 01bc E5D0     		beq	.L48
 548:Drivers/lvgl/lvgl/src/core/lv_obj.c ****                 draw_dsc.border_opa = LV_OPA_TRANSP;
 896              		.loc 1 548 0
 897 01be 0023     		movs	r3, #0
 898 01c0 8DF80B30 		strb	r3, [sp, #11]
 549:Drivers/lvgl/lvgl/src/core/lv_obj.c ****                 draw_dsc.outline_opa = LV_OPA_TRANSP;
 899              		.loc 1 549 0
 900 01c4 8DF82A30 		strb	r3, [sp, #42]
 550:Drivers/lvgl/lvgl/src/core/lv_obj.c ****                 draw_dsc.shadow_opa = LV_OPA_TRANSP;
 901              		.loc 1 550 0
 902 01c8 8DF83230 		strb	r3, [sp, #50]
 551:Drivers/lvgl/lvgl/src/core/lv_obj.c ****                 draw_dsc.bg_img_src = bg_img_src;
 903              		.loc 1 551 0
 904 01cc 8DF83E30 		strb	r3, [sp, #62]
 552:Drivers/lvgl/lvgl/src/core/lv_obj.c ****                 lv_draw_rect(draw_ctx, &draw_dsc, &coords);
 905              		.loc 1 552 0
 906 01d0 0697     		str	r7, [sp, #24]
 553:Drivers/lvgl/lvgl/src/core/lv_obj.c ****             }
 907              		.loc 1 553 0
 908 01d2 6A46     		mov	r2, sp
 909 01d4 02A9     		add	r1, sp, #8
 910 01d6 3046     		mov	r0, r6
 911 01d8 FFF7FEFF 		bl	lv_draw_rect
 912              	.LVL108:
 913 01dc D5E7     		b	.L48
 914              	.LVL109:
 915              	.L55:
 916              	.LBE143:
 917              	.LBE144:
 918              	.LBB145:
 561:Drivers/lvgl/lvgl/src/core/lv_obj.c ****         draw_scrollbar(obj, draw_ctx);
 919              		.loc 1 561 0
 920 01de 3046     		mov	r0, r6
ARM GAS  /tmp/ccJvwpHF.s 			page 47


 921              	.LVL110:
 922 01e0 FFF7FEFF 		bl	lv_event_get_draw_ctx
 923              	.LVL111:
 924 01e4 0646     		mov	r6, r0
 925              	.LVL112:
 562:Drivers/lvgl/lvgl/src/core/lv_obj.c **** 
 926              		.loc 1 562 0
 927 01e6 0146     		mov	r1, r0
 928 01e8 2046     		mov	r0, r4
 929              	.LVL113:
 930 01ea FFF7FEFF 		bl	draw_scrollbar
 931              	.LVL114:
 932              	.LBB146:
 933              	.LBB147:
 501:Drivers/lvgl/lvgl/src/core/lv_obj_style_gen.h ****     return (bool)v.num;
 934              		.loc 2 501 0
 935 01ee 1722     		movs	r2, #23
 936 01f0 0021     		movs	r1, #0
 937 01f2 2046     		mov	r0, r4
 938 01f4 FFF7FEFF 		bl	lv_obj_get_style_prop
 939              	.LVL115:
 940              	.LBE147:
 941              	.LBE146:
 565:Drivers/lvgl/lvgl/src/core/lv_obj.c ****             lv_draw_mask_radius_param_t * param = lv_draw_mask_remove_custom(obj + 8);
 942              		.loc 1 565 0
 943 01f8 0028     		cmp	r0, #0
 944 01fa 58D1     		bne	.L57
 945              	.LVL116:
 946              	.L49:
 947              	.LBB148:
 948              	.LBB149:
 267:Drivers/lvgl/lvgl/src/core/lv_obj_style_gen.h ****     return (bool)v.num;
 949              		.loc 2 267 0
 950 01fc 3422     		movs	r2, #52
 951 01fe 0021     		movs	r1, #0
 952 0200 2046     		mov	r0, r4
 953 0202 FFF7FEFF 		bl	lv_obj_get_style_prop
 954              	.LVL117:
 955              	.LBE149:
 956              	.LBE148:
 575:Drivers/lvgl/lvgl/src/core/lv_obj.c ****             lv_draw_rect_dsc_t draw_dsc;
 957              		.loc 1 575 0
 958 0206 0028     		cmp	r0, #0
 959 0208 3FF40CAF 		beq	.L37
 960              	.LBB150:
 577:Drivers/lvgl/lvgl/src/core/lv_obj.c ****             draw_dsc.bg_opa = LV_OPA_TRANSP;
 961              		.loc 1 577 0 discriminator 3
 962 020c 0DF10808 		add	r8, sp, #8
 963 0210 4046     		mov	r0, r8
 964 0212 FFF7FEFF 		bl	lv_draw_rect_dsc_init
 965              	.LVL118:
 578:Drivers/lvgl/lvgl/src/core/lv_obj.c ****             draw_dsc.bg_img_opa = LV_OPA_TRANSP;
 966              		.loc 1 578 0 discriminator 3
 967 0216 0025     		movs	r5, #0
 968 0218 8DF80B50 		strb	r5, [sp, #11]
 579:Drivers/lvgl/lvgl/src/core/lv_obj.c ****             draw_dsc.outline_opa = LV_OPA_TRANSP;
 969              		.loc 1 579 0 discriminator 3
ARM GAS  /tmp/ccJvwpHF.s 			page 48


 970 021c 8DF82250 		strb	r5, [sp, #34]
 580:Drivers/lvgl/lvgl/src/core/lv_obj.c ****             draw_dsc.shadow_opa = LV_OPA_TRANSP;
 971              		.loc 1 580 0 discriminator 3
 972 0220 8DF83250 		strb	r5, [sp, #50]
 581:Drivers/lvgl/lvgl/src/core/lv_obj.c ****             lv_obj_init_draw_rect_dsc(obj, LV_PART_MAIN, &draw_dsc);
 973              		.loc 1 581 0 discriminator 3
 974 0224 8DF83E50 		strb	r5, [sp, #62]
 582:Drivers/lvgl/lvgl/src/core/lv_obj.c **** 
 975              		.loc 1 582 0 discriminator 3
 976 0228 4246     		mov	r2, r8
 977 022a 2946     		mov	r1, r5
 978 022c 2046     		mov	r0, r4
 979 022e FFF7FEFF 		bl	lv_obj_init_draw_rect_dsc
 980              	.LVL119:
 981              	.LBB151:
 982              	.LBB152:
  57:Drivers/lvgl/lvgl/src/core/lv_obj_style_gen.h ****     return (lv_coord_t)v.num;
 983              		.loc 2 57 0 discriminator 3
 984 0232 6822     		movs	r2, #104
 985 0234 2946     		mov	r1, r5
 986 0236 2046     		mov	r0, r4
 987 0238 FFF7FEFF 		bl	lv_obj_get_style_prop
 988              	.LVL120:
 989 023c 0746     		mov	r7, r0
 990              	.LVL121:
 991              	.LBE152:
 992              	.LBE151:
 993              	.LBB153:
 994              	.LBB154:
  63:Drivers/lvgl/lvgl/src/core/lv_obj_style_gen.h ****     return (lv_coord_t)v.num;
 995              		.loc 2 63 0 discriminator 3
 996 023e 6922     		movs	r2, #105
 997 0240 2946     		mov	r1, r5
 998 0242 2046     		mov	r0, r4
 999 0244 FFF7FEFF 		bl	lv_obj_get_style_prop
 1000              	.LVL122:
 1001              	.LBE154:
 1002              	.LBE153:
 1003              	.LBB155:
 1004              	.LBB156:
 112:Drivers/lvgl/lvgl/src/core/../misc/../font/../misc/lv_area.h ****     dest->y1 = src->y1;
 1005              		.loc 3 112 0 discriminator 3
 1006 0248 B4F91410 		ldrsh	r1, [r4, #20]
 113:Drivers/lvgl/lvgl/src/core/../misc/../font/../misc/lv_area.h ****     dest->x2 = src->x2;
 1007              		.loc 3 113 0 discriminator 3
 1008 024c B4F91620 		ldrsh	r2, [r4, #22]
 114:Drivers/lvgl/lvgl/src/core/../misc/../font/../misc/lv_area.h ****     dest->y2 = src->y2;
 1009              		.loc 3 114 0 discriminator 3
 1010 0250 B4F918E0 		ldrsh	lr, [r4, #24]
 1011              		.loc 3 115 0 discriminator 3
 1012 0254 B4F91AC0 		ldrsh	ip, [r4, #26]
 1013              	.LVL123:
 1014              	.LBE156:
 1015              	.LBE155:
 588:Drivers/lvgl/lvgl/src/core/lv_obj.c ****             coords.x2 += w;
 1016              		.loc 1 588 0 discriminator 3
 1017 0258 BBB2     		uxth	r3, r7
ARM GAS  /tmp/ccJvwpHF.s 			page 49


 1018 025a C91A     		subs	r1, r1, r3
 1019 025c ADF80010 		strh	r1, [sp]	@ movhi
 589:Drivers/lvgl/lvgl/src/core/lv_obj.c ****             coords.y1 -= h;
 1020              		.loc 1 589 0 discriminator 3
 1021 0260 7344     		add	r3, r3, lr
 1022 0262 ADF80430 		strh	r3, [sp, #4]	@ movhi
 590:Drivers/lvgl/lvgl/src/core/lv_obj.c ****             coords.y2 += h;
 1023              		.loc 1 590 0 discriminator 3
 1024 0266 80B2     		uxth	r0, r0
 1025 0268 121A     		subs	r2, r2, r0
 1026 026a ADF80220 		strh	r2, [sp, #2]	@ movhi
 591:Drivers/lvgl/lvgl/src/core/lv_obj.c **** 
 1027              		.loc 1 591 0 discriminator 3
 1028 026e 6044     		add	r0, r0, ip
 1029 0270 ADF80600 		strh	r0, [sp, #6]	@ movhi
 594:Drivers/lvgl/lvgl/src/core/lv_obj.c ****             part_dsc.class_p = MY_CLASS;
 1030              		.loc 1 594 0 discriminator 3
 1031 0274 3146     		mov	r1, r6
 1032 0276 10A8     		add	r0, sp, #64
 1033 0278 FFF7FEFF 		bl	lv_obj_draw_dsc_init
 1034              	.LVL124:
 595:Drivers/lvgl/lvgl/src/core/lv_obj.c ****             part_dsc.type = LV_OBJ_DRAW_PART_BORDER_POST;
 1035              		.loc 1 595 0 discriminator 3
 1036 027c 124B     		ldr	r3, .L58
 1037 027e 1193     		str	r3, [sp, #68]
 596:Drivers/lvgl/lvgl/src/core/lv_obj.c ****             part_dsc.rect_dsc = &draw_dsc;
 1038              		.loc 1 596 0 discriminator 3
 1039 0280 0123     		movs	r3, #1
 1040 0282 1293     		str	r3, [sp, #72]
 597:Drivers/lvgl/lvgl/src/core/lv_obj.c ****             part_dsc.draw_area = &coords;
 1041              		.loc 1 597 0 discriminator 3
 1042 0284 CDF85080 		str	r8, [sp, #80]
 598:Drivers/lvgl/lvgl/src/core/lv_obj.c ****             part_dsc.part = LV_PART_MAIN;
 1043              		.loc 1 598 0 discriminator 3
 1044 0288 CDF84CD0 		str	sp, [sp, #76]
 599:Drivers/lvgl/lvgl/src/core/lv_obj.c ****             lv_event_send(obj, LV_EVENT_DRAW_PART_BEGIN, &part_dsc);
 1045              		.loc 1 599 0 discriminator 3
 1046 028c 1D95     		str	r5, [sp, #116]
 600:Drivers/lvgl/lvgl/src/core/lv_obj.c **** 
 1047              		.loc 1 600 0 discriminator 3
 1048 028e 10AA     		add	r2, sp, #64
 1049 0290 1A21     		movs	r1, #26
 1050 0292 2046     		mov	r0, r4
 1051 0294 FFF7FEFF 		bl	lv_event_send
 1052              	.LVL125:
 602:Drivers/lvgl/lvgl/src/core/lv_obj.c ****             lv_event_send(obj, LV_EVENT_DRAW_PART_END, &part_dsc);
 1053              		.loc 1 602 0 discriminator 3
 1054 0298 6A46     		mov	r2, sp
 1055 029a 4146     		mov	r1, r8
 1056 029c 3046     		mov	r0, r6
 1057 029e FFF7FEFF 		bl	lv_draw_rect
 1058              	.LVL126:
 603:Drivers/lvgl/lvgl/src/core/lv_obj.c ****         }
 1059              		.loc 1 603 0 discriminator 3
 1060 02a2 10AA     		add	r2, sp, #64
 1061 02a4 1B21     		movs	r1, #27
 1062 02a6 2046     		mov	r0, r4
ARM GAS  /tmp/ccJvwpHF.s 			page 50


 1063 02a8 FFF7FEFF 		bl	lv_event_send
 1064              	.LVL127:
 1065 02ac BAE6     		b	.L37
 1066              	.LVL128:
 1067              	.L57:
 1068              	.LBE150:
 1069              	.LBB157:
 566:Drivers/lvgl/lvgl/src/core/lv_obj.c ****             if(param) {
 1070              		.loc 1 566 0
 1071 02ae 04F59070 		add	r0, r4, #288
 1072 02b2 FFF7FEFF 		bl	lv_draw_mask_remove_custom
 1073              	.LVL129:
 567:Drivers/lvgl/lvgl/src/core/lv_obj.c ****                 lv_draw_mask_free_param(param);
 1074              		.loc 1 567 0
 1075 02b6 0546     		mov	r5, r0
 1076              	.LVL130:
 1077 02b8 0028     		cmp	r0, #0
 1078 02ba 9FD0     		beq	.L49
 568:Drivers/lvgl/lvgl/src/core/lv_obj.c ****                 lv_mem_buf_release(param);
 1079              		.loc 1 568 0
 1080 02bc FFF7FEFF 		bl	lv_draw_mask_free_param
 1081              	.LVL131:
 569:Drivers/lvgl/lvgl/src/core/lv_obj.c ****             }
 1082              		.loc 1 569 0
 1083 02c0 2846     		mov	r0, r5
 1084 02c2 FFF7FEFF 		bl	lv_mem_buf_release
 1085              	.LVL132:
 1086 02c6 99E7     		b	.L49
 1087              	.L59:
 1088              		.align	2
 1089              	.L58:
 1090 02c8 00000000 		.word	.LANCHOR0
 1091              	.LBE157:
 1092              	.LBE145:
 1093              		.cfi_endproc
 1094              	.LFE222:
 1096              		.section	.text.lv_obj_constructor,"ax",%progbits
 1097              		.align	1
 1098              		.syntax unified
 1099              		.thumb
 1100              		.thumb_func
 1101              		.fpu fpv5-d16
 1103              	lv_obj_constructor:
 1104              	.LFB220:
 401:Drivers/lvgl/lvgl/src/core/lv_obj.c ****     LV_UNUSED(class_p);
 1105              		.loc 1 401 0
 1106              		.cfi_startproc
 1107              		@ args = 0, pretend = 0, frame = 0
 1108              		@ frame_needed = 0, uses_anonymous_args = 0
 1109              	.LVL133:
 1110 0000 2DE9F041 		push	{r4, r5, r6, r7, r8, lr}
 1111              	.LCFI10:
 1112              		.cfi_def_cfa_offset 24
 1113              		.cfi_offset 4, -24
 1114              		.cfi_offset 5, -20
 1115              		.cfi_offset 6, -16
 1116              		.cfi_offset 7, -12
ARM GAS  /tmp/ccJvwpHF.s 			page 51


 1117              		.cfi_offset 8, -8
 1118              		.cfi_offset 14, -4
 1119 0004 0C46     		mov	r4, r1
 405:Drivers/lvgl/lvgl/src/core/lv_obj.c ****     if(parent) {
 1120              		.loc 1 405 0
 1121 0006 4D68     		ldr	r5, [r1, #4]
 1122              	.LVL134:
 406:Drivers/lvgl/lvgl/src/core/lv_obj.c ****         lv_coord_t sl = lv_obj_get_scroll_left(parent);
 1123              		.loc 1 406 0
 1124 0008 25B3     		cbz	r5, .L61
 1125              	.LBB158:
 407:Drivers/lvgl/lvgl/src/core/lv_obj.c ****         lv_coord_t st = lv_obj_get_scroll_top(parent);
 1126              		.loc 1 407 0
 1127 000a 2846     		mov	r0, r5
 1128              	.LVL135:
 1129 000c FFF7FEFF 		bl	lv_obj_get_scroll_left
 1130              	.LVL136:
 1131 0010 8046     		mov	r8, r0
 1132              	.LVL137:
 408:Drivers/lvgl/lvgl/src/core/lv_obj.c **** 
 1133              		.loc 1 408 0
 1134 0012 2846     		mov	r0, r5
 1135 0014 FFF7FEFF 		bl	lv_obj_get_scroll_top
 1136              	.LVL138:
 1137 0018 0646     		mov	r6, r0
 1138              	.LVL139:
 410:Drivers/lvgl/lvgl/src/core/lv_obj.c ****         obj->coords.y2 = obj->coords.y1 - 1;
 1139              		.loc 1 410 0
 1140 001a EF8A     		ldrh	r7, [r5, #22]
 1141              	.LVL140:
 1142              	.LBB159:
 1143              	.LBB160:
 105:Drivers/lvgl/lvgl/src/core/lv_obj_style_gen.h ****     return (lv_coord_t)v.num;
 1144              		.loc 2 105 0
 1145 001c 1022     		movs	r2, #16
 1146 001e 0021     		movs	r1, #0
 1147 0020 2846     		mov	r0, r5
 1148 0022 FFF7FEFF 		bl	lv_obj_get_style_prop
 1149              	.LVL141:
 1150              	.LBE160:
 1151              	.LBE159:
 410:Drivers/lvgl/lvgl/src/core/lv_obj.c ****         obj->coords.y2 = obj->coords.y1 - 1;
 1152              		.loc 1 410 0
 1153 0026 17FA80F0 		uxtah	r0, r7, r0
 1154 002a 80B2     		uxth	r0, r0
 1155 002c 801B     		subs	r0, r0, r6
 1156 002e 80B2     		uxth	r0, r0
 1157 0030 E082     		strh	r0, [r4, #22]	@ movhi
 411:Drivers/lvgl/lvgl/src/core/lv_obj.c ****         obj->coords.x1  = parent->coords.x1 + lv_obj_get_style_pad_left(parent, LV_PART_MAIN) - sl;
 1158              		.loc 1 411 0
 1159 0032 0138     		subs	r0, r0, #1
 1160 0034 6083     		strh	r0, [r4, #26]	@ movhi
 412:Drivers/lvgl/lvgl/src/core/lv_obj.c ****         obj->coords.x2  = obj->coords.x1 - 1;
 1161              		.loc 1 412 0
 1162 0036 AE8A     		ldrh	r6, [r5, #20]
 1163              	.LVL142:
 1164              	.LBB161:
ARM GAS  /tmp/ccJvwpHF.s 			page 52


 1165              	.LBB162:
 117:Drivers/lvgl/lvgl/src/core/lv_obj_style_gen.h ****     return (lv_coord_t)v.num;
 1166              		.loc 2 117 0
 1167 0038 1222     		movs	r2, #18
 1168 003a 0021     		movs	r1, #0
 1169 003c 2846     		mov	r0, r5
 1170 003e FFF7FEFF 		bl	lv_obj_get_style_prop
 1171              	.LVL143:
 1172              	.LBE162:
 1173              	.LBE161:
 412:Drivers/lvgl/lvgl/src/core/lv_obj.c ****         obj->coords.x2  = obj->coords.x1 - 1;
 1174              		.loc 1 412 0
 1175 0042 16FA80F0 		uxtah	r0, r6, r0
 1176 0046 80B2     		uxth	r0, r0
 1177 0048 A0EB0800 		sub	r0, r0, r8
 1178 004c 80B2     		uxth	r0, r0
 1179 004e A082     		strh	r0, [r4, #20]	@ movhi
 413:Drivers/lvgl/lvgl/src/core/lv_obj.c ****     }
 1180              		.loc 1 413 0
 1181 0050 0138     		subs	r0, r0, #1
 1182 0052 2083     		strh	r0, [r4, #24]	@ movhi
 1183              	.LVL144:
 1184              	.L61:
 1185              	.LBE158:
 418:Drivers/lvgl/lvgl/src/core/lv_obj.c ****     if(parent) obj->flags |= LV_OBJ_FLAG_PRESS_LOCK;
 1186              		.loc 1 418 0
 1187 0054 41F20203 		movw	r3, #4098
 1188 0058 E361     		str	r3, [r4, #28]
 419:Drivers/lvgl/lvgl/src/core/lv_obj.c ****     if(parent) obj->flags |= LV_OBJ_FLAG_SCROLL_CHAIN;
 1189              		.loc 1 419 0
 1190 005a 15B1     		cbz	r5, .L62
 419:Drivers/lvgl/lvgl/src/core/lv_obj.c ****     if(parent) obj->flags |= LV_OBJ_FLAG_SCROLL_CHAIN;
 1191              		.loc 1 419 0 is_stmt 0 discriminator 1
 1192 005c 43F20203 		movw	r3, #12290
 1193 0060 E361     		str	r3, [r4, #28]
 1194              	.L62:
 420:Drivers/lvgl/lvgl/src/core/lv_obj.c ****     obj->flags |= LV_OBJ_FLAG_CLICK_FOCUSABLE;
 1195              		.loc 1 420 0 is_stmt 1
 1196 0062 1DB1     		cbz	r5, .L63
 420:Drivers/lvgl/lvgl/src/core/lv_obj.c ****     obj->flags |= LV_OBJ_FLAG_CLICK_FOCUSABLE;
 1197              		.loc 1 420 0 is_stmt 0 discriminator 1
 1198 0064 E369     		ldr	r3, [r4, #28]
 1199 0066 43F44073 		orr	r3, r3, #768
 1200 006a E361     		str	r3, [r4, #28]
 1201              	.L63:
 421:Drivers/lvgl/lvgl/src/core/lv_obj.c ****     obj->flags |= LV_OBJ_FLAG_SCROLLABLE;
 1202              		.loc 1 421 0 is_stmt 1
 1203 006c E269     		ldr	r2, [r4, #28]
 425:Drivers/lvgl/lvgl/src/core/lv_obj.c ****     if(parent) obj->flags |= LV_OBJ_FLAG_GESTURE_BUBBLE;
 1204              		.loc 1 425 0
 1205 006e 40F67403 		movw	r3, #2164
 1206 0072 1343     		orrs	r3, r3, r2
 1207 0074 E361     		str	r3, [r4, #28]
 426:Drivers/lvgl/lvgl/src/core/lv_obj.c **** 
 1208              		.loc 1 426 0
 1209 0076 15B1     		cbz	r5, .L60
 426:Drivers/lvgl/lvgl/src/core/lv_obj.c **** 
ARM GAS  /tmp/ccJvwpHF.s 			page 53


 1210              		.loc 1 426 0 is_stmt 0 discriminator 1
 1211 0078 43F40043 		orr	r3, r3, #32768
 1212 007c E361     		str	r3, [r4, #28]
 1213              	.L60:
 429:Drivers/lvgl/lvgl/src/core/lv_obj.c **** 
 1214              		.loc 1 429 0 is_stmt 1
 1215 007e BDE8F081 		pop	{r4, r5, r6, r7, r8, pc}
 1216              		.cfi_endproc
 1217              	.LFE220:
 1219              		.section	.text.lv_obj_set_state,"ax",%progbits
 1220              		.align	1
 1221              		.syntax unified
 1222              		.thumb
 1223              		.thumb_func
 1224              		.fpu fpv5-d16
 1226              	lv_obj_set_state:
 1227              	.LFB226:
 857:Drivers/lvgl/lvgl/src/core/lv_obj.c ****     if(obj->state == new_state) return;
 1228              		.loc 1 857 0
 1229              		.cfi_startproc
 1230              		@ args = 0, pretend = 0, frame = 40
 1231              		@ frame_needed = 0, uses_anonymous_args = 0
 1232              	.LVL145:
 1233 0000 2DE9F04F 		push	{r4, r5, r6, r7, r8, r9, r10, fp, lr}
 1234              	.LCFI11:
 1235              		.cfi_def_cfa_offset 36
 1236              		.cfi_offset 4, -36
 1237              		.cfi_offset 5, -32
 1238              		.cfi_offset 6, -28
 1239              		.cfi_offset 7, -24
 1240              		.cfi_offset 8, -20
 1241              		.cfi_offset 9, -16
 1242              		.cfi_offset 10, -12
 1243              		.cfi_offset 11, -8
 1244              		.cfi_offset 14, -4
 1245 0004 8DB0     		sub	sp, sp, #52
 1246              	.LCFI12:
 1247              		.cfi_def_cfa_offset 88
 858:Drivers/lvgl/lvgl/src/core/lv_obj.c **** 
 1248              		.loc 1 858 0
 1249 0006 038C     		ldrh	r3, [r0, #32]
 1250 0008 0893     		str	r3, [sp, #32]
 1251 000a 8B42     		cmp	r3, r1
 1252 000c 09D0     		beq	.L66
 1253 000e 0691     		str	r1, [sp, #24]
 1254 0010 0390     		str	r0, [sp, #12]
 1255              	.LVL146:
 863:Drivers/lvgl/lvgl/src/core/lv_obj.c **** 
 1256              		.loc 1 863 0
 1257 0012 0246     		mov	r2, r0
 1258 0014 1184     		strh	r1, [r2, #32]	@ movhi
 865:Drivers/lvgl/lvgl/src/core/lv_obj.c ****     /*If there is no difference in styles there is nothing else to do*/
 1259              		.loc 1 865 0
 1260 0016 0A46     		mov	r2, r1
 1261 0018 1946     		mov	r1, r3
 1262              	.LVL147:
 1263 001a FFF7FEFF 		bl	_lv_obj_style_state_compare
ARM GAS  /tmp/ccJvwpHF.s 			page 54


 1264              	.LVL148:
 867:Drivers/lvgl/lvgl/src/core/lv_obj.c **** 
 1265              		.loc 1 867 0
 1266 001e 0A90     		str	r0, [sp, #40]
 1267 0020 10B9     		cbnz	r0, .L108
 1268              	.LVL149:
 1269              	.L66:
 927:Drivers/lvgl/lvgl/src/core/lv_obj.c **** 
 1270              		.loc 1 927 0
 1271 0022 0DB0     		add	sp, sp, #52
 1272              	.LCFI13:
 1273              		.cfi_remember_state
 1274              		.cfi_def_cfa_offset 36
 1275              		@ sp needed
 1276 0024 BDE8F08F 		pop	{r4, r5, r6, r7, r8, r9, r10, fp, pc}
 1277              	.LVL150:
 1278              	.L108:
 1279              	.LCFI14:
 1280              		.cfi_restore_state
 869:Drivers/lvgl/lvgl/src/core/lv_obj.c ****     lv_memset_00(ts, sizeof(_lv_obj_style_transition_dsc_t) * STYLE_TRANSITION_MAX);
 1281              		.loc 1 869 0
 1282 0028 4FF42070 		mov	r0, #640
 1283              	.LVL151:
 1284 002c FFF7FEFF 		bl	lv_mem_buf_get
 1285              	.LVL152:
 1286 0030 8346     		mov	fp, r0
 1287              	.LVL153:
 870:Drivers/lvgl/lvgl/src/core/lv_obj.c ****     uint32_t tsi = 0;
 1288              		.loc 1 870 0
 1289 0032 4FF42071 		mov	r1, #640
 1290 0036 FFF7FEFF 		bl	lv_memset_00
 1291              	.LVL154:
 873:Drivers/lvgl/lvgl/src/core/lv_obj.c ****         _lv_obj_style_t * obj_style = &obj->styles[i];
 1292              		.loc 1 873 0
 1293 003a 0023     		movs	r3, #0
 1294 003c 0293     		str	r3, [sp, #8]
 871:Drivers/lvgl/lvgl/src/core/lv_obj.c ****     uint32_t i;
 1295              		.loc 1 871 0
 1296 003e 9A46     		mov	r10, r3
 873:Drivers/lvgl/lvgl/src/core/lv_obj.c ****         _lv_obj_style_t * obj_style = &obj->styles[i];
 1297              		.loc 1 873 0
 1298 0040 4EE0     		b	.L68
 1299              	.LVL155:
 1300              	.L111:
 1301              	.LBB174:
 1302              	.LBB175:
 1303              	.LBB176:
 1304              	.LBB177:
 1305              	.LBB178:
 1306              		.file 4 "Drivers/lvgl/lvgl/src/core/../misc/lv_style.h"
   1:Drivers/lvgl/lvgl/src/core/../misc/lv_style.h **** /**
   2:Drivers/lvgl/lvgl/src/core/../misc/lv_style.h ****  * @file lv_style.h
   3:Drivers/lvgl/lvgl/src/core/../misc/lv_style.h ****  *
   4:Drivers/lvgl/lvgl/src/core/../misc/lv_style.h ****  */
   5:Drivers/lvgl/lvgl/src/core/../misc/lv_style.h **** 
   6:Drivers/lvgl/lvgl/src/core/../misc/lv_style.h **** #ifndef LV_STYLE_H
   7:Drivers/lvgl/lvgl/src/core/../misc/lv_style.h **** #define LV_STYLE_H
ARM GAS  /tmp/ccJvwpHF.s 			page 55


   8:Drivers/lvgl/lvgl/src/core/../misc/lv_style.h **** 
   9:Drivers/lvgl/lvgl/src/core/../misc/lv_style.h **** #ifdef __cplusplus
  10:Drivers/lvgl/lvgl/src/core/../misc/lv_style.h **** extern "C" {
  11:Drivers/lvgl/lvgl/src/core/../misc/lv_style.h **** #endif
  12:Drivers/lvgl/lvgl/src/core/../misc/lv_style.h **** 
  13:Drivers/lvgl/lvgl/src/core/../misc/lv_style.h **** /*********************
  14:Drivers/lvgl/lvgl/src/core/../misc/lv_style.h ****  *      INCLUDES
  15:Drivers/lvgl/lvgl/src/core/../misc/lv_style.h ****  *********************/
  16:Drivers/lvgl/lvgl/src/core/../misc/lv_style.h **** #include <stdbool.h>
  17:Drivers/lvgl/lvgl/src/core/../misc/lv_style.h **** #include <stdint.h>
  18:Drivers/lvgl/lvgl/src/core/../misc/lv_style.h **** #include "../font/lv_font.h"
  19:Drivers/lvgl/lvgl/src/core/../misc/lv_style.h **** #include "lv_color.h"
  20:Drivers/lvgl/lvgl/src/core/../misc/lv_style.h **** #include "lv_area.h"
  21:Drivers/lvgl/lvgl/src/core/../misc/lv_style.h **** #include "lv_anim.h"
  22:Drivers/lvgl/lvgl/src/core/../misc/lv_style.h **** #include "lv_txt.h"
  23:Drivers/lvgl/lvgl/src/core/../misc/lv_style.h **** #include "lv_types.h"
  24:Drivers/lvgl/lvgl/src/core/../misc/lv_style.h **** #include "lv_assert.h"
  25:Drivers/lvgl/lvgl/src/core/../misc/lv_style.h **** #include "lv_bidi.h"
  26:Drivers/lvgl/lvgl/src/core/../misc/lv_style.h **** 
  27:Drivers/lvgl/lvgl/src/core/../misc/lv_style.h **** /*********************
  28:Drivers/lvgl/lvgl/src/core/../misc/lv_style.h ****  *      DEFINES
  29:Drivers/lvgl/lvgl/src/core/../misc/lv_style.h ****  *********************/
  30:Drivers/lvgl/lvgl/src/core/../misc/lv_style.h **** 
  31:Drivers/lvgl/lvgl/src/core/../misc/lv_style.h **** #define LV_STYLE_SENTINEL_VALUE     0xAABBCCDD
  32:Drivers/lvgl/lvgl/src/core/../misc/lv_style.h **** 
  33:Drivers/lvgl/lvgl/src/core/../misc/lv_style.h **** /**
  34:Drivers/lvgl/lvgl/src/core/../misc/lv_style.h ****  * Flags for style behavior
  35:Drivers/lvgl/lvgl/src/core/../misc/lv_style.h ****  *
  36:Drivers/lvgl/lvgl/src/core/../misc/lv_style.h ****  * The rest of the flags will have _FLAG added to their name in v9.
  37:Drivers/lvgl/lvgl/src/core/../misc/lv_style.h ****  */
  38:Drivers/lvgl/lvgl/src/core/../misc/lv_style.h **** #define LV_STYLE_PROP_FLAG_NONE             (0)
  39:Drivers/lvgl/lvgl/src/core/../misc/lv_style.h **** #define LV_STYLE_PROP_INHERIT               (1 << 0)  /*Inherited*/
  40:Drivers/lvgl/lvgl/src/core/../misc/lv_style.h **** #define LV_STYLE_PROP_EXT_DRAW              (1 << 1)  /*Requires ext. draw size update when changed
  41:Drivers/lvgl/lvgl/src/core/../misc/lv_style.h **** #define LV_STYLE_PROP_LAYOUT_REFR           (1 << 2)  /*Requires layout update when changed*/
  42:Drivers/lvgl/lvgl/src/core/../misc/lv_style.h **** #define LV_STYLE_PROP_PARENT_LAYOUT_REFR    (1 << 3)  /*Requires layout update on parent when chang
  43:Drivers/lvgl/lvgl/src/core/../misc/lv_style.h **** #define LV_STYLE_PROP_LAYER_REFR            (1 << 4)  /*Affects layer handling*/
  44:Drivers/lvgl/lvgl/src/core/../misc/lv_style.h **** #define LV_STYLE_PROP_ALL                   (0x1F)     /*Indicating all flags*/
  45:Drivers/lvgl/lvgl/src/core/../misc/lv_style.h **** 
  46:Drivers/lvgl/lvgl/src/core/../misc/lv_style.h **** /**
  47:Drivers/lvgl/lvgl/src/core/../misc/lv_style.h ****  * Other constants
  48:Drivers/lvgl/lvgl/src/core/../misc/lv_style.h ****  */
  49:Drivers/lvgl/lvgl/src/core/../misc/lv_style.h **** #define LV_IMG_ZOOM_NONE            256        /*Value for not zooming the image*/
  50:Drivers/lvgl/lvgl/src/core/../misc/lv_style.h **** LV_EXPORT_CONST_INT(LV_IMG_ZOOM_NONE);
  51:Drivers/lvgl/lvgl/src/core/../misc/lv_style.h **** 
  52:Drivers/lvgl/lvgl/src/core/../misc/lv_style.h **** // *INDENT-OFF*
  53:Drivers/lvgl/lvgl/src/core/../misc/lv_style.h **** #if LV_USE_ASSERT_STYLE
  54:Drivers/lvgl/lvgl/src/core/../misc/lv_style.h **** #define LV_STYLE_CONST_INIT(var_name, prop_array)                       \
  55:Drivers/lvgl/lvgl/src/core/../misc/lv_style.h ****     const lv_style_t var_name = {                                       \
  56:Drivers/lvgl/lvgl/src/core/../misc/lv_style.h ****         .sentinel = LV_STYLE_SENTINEL_VALUE,                            \
  57:Drivers/lvgl/lvgl/src/core/../misc/lv_style.h ****         .v_p = { .const_props = prop_array },                           \
  58:Drivers/lvgl/lvgl/src/core/../misc/lv_style.h ****         .has_group = 0xFF,                                              \
  59:Drivers/lvgl/lvgl/src/core/../misc/lv_style.h ****         .prop1 = LV_STYLE_PROP_ANY,                                     \
  60:Drivers/lvgl/lvgl/src/core/../misc/lv_style.h ****         .prop_cnt = (sizeof(prop_array) / sizeof((prop_array)[0])),     \
  61:Drivers/lvgl/lvgl/src/core/../misc/lv_style.h ****     }
  62:Drivers/lvgl/lvgl/src/core/../misc/lv_style.h **** #else
  63:Drivers/lvgl/lvgl/src/core/../misc/lv_style.h **** #define LV_STYLE_CONST_INIT(var_name, prop_array)                       \
  64:Drivers/lvgl/lvgl/src/core/../misc/lv_style.h ****     const lv_style_t var_name = {                                       \
ARM GAS  /tmp/ccJvwpHF.s 			page 56


  65:Drivers/lvgl/lvgl/src/core/../misc/lv_style.h ****         .v_p = { .const_props = prop_array },                           \
  66:Drivers/lvgl/lvgl/src/core/../misc/lv_style.h ****         .has_group = 0xFF,                                              \
  67:Drivers/lvgl/lvgl/src/core/../misc/lv_style.h ****         .prop1 = LV_STYLE_PROP_ANY,                                     \
  68:Drivers/lvgl/lvgl/src/core/../misc/lv_style.h ****         .prop_cnt = (sizeof(prop_array) / sizeof((prop_array)[0])),     \
  69:Drivers/lvgl/lvgl/src/core/../misc/lv_style.h ****     }
  70:Drivers/lvgl/lvgl/src/core/../misc/lv_style.h **** #endif
  71:Drivers/lvgl/lvgl/src/core/../misc/lv_style.h **** // *INDENT-ON*
  72:Drivers/lvgl/lvgl/src/core/../misc/lv_style.h **** 
  73:Drivers/lvgl/lvgl/src/core/../misc/lv_style.h **** #define LV_STYLE_PROP_META_INHERIT 0x8000
  74:Drivers/lvgl/lvgl/src/core/../misc/lv_style.h **** #define LV_STYLE_PROP_META_INITIAL 0x4000
  75:Drivers/lvgl/lvgl/src/core/../misc/lv_style.h **** #define LV_STYLE_PROP_META_MASK (LV_STYLE_PROP_META_INHERIT | LV_STYLE_PROP_META_INITIAL)
  76:Drivers/lvgl/lvgl/src/core/../misc/lv_style.h **** 
  77:Drivers/lvgl/lvgl/src/core/../misc/lv_style.h **** #define LV_STYLE_PROP_ID_MASK(prop) ((lv_style_prop_t)((prop) & ~LV_STYLE_PROP_META_MASK))
  78:Drivers/lvgl/lvgl/src/core/../misc/lv_style.h **** 
  79:Drivers/lvgl/lvgl/src/core/../misc/lv_style.h **** /**********************
  80:Drivers/lvgl/lvgl/src/core/../misc/lv_style.h ****  *      TYPEDEFS
  81:Drivers/lvgl/lvgl/src/core/../misc/lv_style.h ****  **********************/
  82:Drivers/lvgl/lvgl/src/core/../misc/lv_style.h **** 
  83:Drivers/lvgl/lvgl/src/core/../misc/lv_style.h **** /**
  84:Drivers/lvgl/lvgl/src/core/../misc/lv_style.h ****  * Possible options how to blend opaque drawings
  85:Drivers/lvgl/lvgl/src/core/../misc/lv_style.h ****  */
  86:Drivers/lvgl/lvgl/src/core/../misc/lv_style.h **** enum {
  87:Drivers/lvgl/lvgl/src/core/../misc/lv_style.h ****     LV_BLEND_MODE_NORMAL,     /**< Simply mix according to the opacity value*/
  88:Drivers/lvgl/lvgl/src/core/../misc/lv_style.h ****     LV_BLEND_MODE_ADDITIVE,   /**< Add the respective color channels*/
  89:Drivers/lvgl/lvgl/src/core/../misc/lv_style.h ****     LV_BLEND_MODE_SUBTRACTIVE,/**< Subtract the foreground from the background*/
  90:Drivers/lvgl/lvgl/src/core/../misc/lv_style.h ****     LV_BLEND_MODE_MULTIPLY,   /**< Multiply the foreground and background*/
  91:Drivers/lvgl/lvgl/src/core/../misc/lv_style.h ****     LV_BLEND_MODE_REPLACE,    /**< Replace background with foreground in the area*/
  92:Drivers/lvgl/lvgl/src/core/../misc/lv_style.h **** };
  93:Drivers/lvgl/lvgl/src/core/../misc/lv_style.h **** 
  94:Drivers/lvgl/lvgl/src/core/../misc/lv_style.h **** typedef uint8_t lv_blend_mode_t;
  95:Drivers/lvgl/lvgl/src/core/../misc/lv_style.h **** 
  96:Drivers/lvgl/lvgl/src/core/../misc/lv_style.h **** /**
  97:Drivers/lvgl/lvgl/src/core/../misc/lv_style.h ****  * Some options to apply decorations on texts.
  98:Drivers/lvgl/lvgl/src/core/../misc/lv_style.h ****  * 'OR'ed values can be used.
  99:Drivers/lvgl/lvgl/src/core/../misc/lv_style.h ****  */
 100:Drivers/lvgl/lvgl/src/core/../misc/lv_style.h **** enum {
 101:Drivers/lvgl/lvgl/src/core/../misc/lv_style.h ****     LV_TEXT_DECOR_NONE          = 0x00,
 102:Drivers/lvgl/lvgl/src/core/../misc/lv_style.h ****     LV_TEXT_DECOR_UNDERLINE     = 0x01,
 103:Drivers/lvgl/lvgl/src/core/../misc/lv_style.h ****     LV_TEXT_DECOR_STRIKETHROUGH = 0x02,
 104:Drivers/lvgl/lvgl/src/core/../misc/lv_style.h **** };
 105:Drivers/lvgl/lvgl/src/core/../misc/lv_style.h **** 
 106:Drivers/lvgl/lvgl/src/core/../misc/lv_style.h **** typedef uint8_t lv_text_decor_t;
 107:Drivers/lvgl/lvgl/src/core/../misc/lv_style.h **** 
 108:Drivers/lvgl/lvgl/src/core/../misc/lv_style.h **** /**
 109:Drivers/lvgl/lvgl/src/core/../misc/lv_style.h ****  * Selects on which sides border should be drawn
 110:Drivers/lvgl/lvgl/src/core/../misc/lv_style.h ****  * 'OR'ed values can be used.
 111:Drivers/lvgl/lvgl/src/core/../misc/lv_style.h ****  */
 112:Drivers/lvgl/lvgl/src/core/../misc/lv_style.h **** enum {
 113:Drivers/lvgl/lvgl/src/core/../misc/lv_style.h ****     LV_BORDER_SIDE_NONE     = 0x00,
 114:Drivers/lvgl/lvgl/src/core/../misc/lv_style.h ****     LV_BORDER_SIDE_BOTTOM   = 0x01,
 115:Drivers/lvgl/lvgl/src/core/../misc/lv_style.h ****     LV_BORDER_SIDE_TOP      = 0x02,
 116:Drivers/lvgl/lvgl/src/core/../misc/lv_style.h ****     LV_BORDER_SIDE_LEFT     = 0x04,
 117:Drivers/lvgl/lvgl/src/core/../misc/lv_style.h ****     LV_BORDER_SIDE_RIGHT    = 0x08,
 118:Drivers/lvgl/lvgl/src/core/../misc/lv_style.h ****     LV_BORDER_SIDE_FULL     = 0x0F,
 119:Drivers/lvgl/lvgl/src/core/../misc/lv_style.h ****     LV_BORDER_SIDE_INTERNAL = 0x10, /**< FOR matrix-like objects (e.g. Button matrix)*/
 120:Drivers/lvgl/lvgl/src/core/../misc/lv_style.h **** };
 121:Drivers/lvgl/lvgl/src/core/../misc/lv_style.h **** typedef uint8_t lv_border_side_t;
ARM GAS  /tmp/ccJvwpHF.s 			page 57


 122:Drivers/lvgl/lvgl/src/core/../misc/lv_style.h **** 
 123:Drivers/lvgl/lvgl/src/core/../misc/lv_style.h **** /**
 124:Drivers/lvgl/lvgl/src/core/../misc/lv_style.h ****  * The direction of the gradient.
 125:Drivers/lvgl/lvgl/src/core/../misc/lv_style.h ****  */
 126:Drivers/lvgl/lvgl/src/core/../misc/lv_style.h **** enum {
 127:Drivers/lvgl/lvgl/src/core/../misc/lv_style.h ****     LV_GRAD_DIR_NONE, /**< No gradient (the `grad_color` property is ignored)*/
 128:Drivers/lvgl/lvgl/src/core/../misc/lv_style.h ****     LV_GRAD_DIR_VER,  /**< Vertical (top to bottom) gradient*/
 129:Drivers/lvgl/lvgl/src/core/../misc/lv_style.h ****     LV_GRAD_DIR_HOR,  /**< Horizontal (left to right) gradient*/
 130:Drivers/lvgl/lvgl/src/core/../misc/lv_style.h **** };
 131:Drivers/lvgl/lvgl/src/core/../misc/lv_style.h **** 
 132:Drivers/lvgl/lvgl/src/core/../misc/lv_style.h **** typedef uint8_t lv_grad_dir_t;
 133:Drivers/lvgl/lvgl/src/core/../misc/lv_style.h **** 
 134:Drivers/lvgl/lvgl/src/core/../misc/lv_style.h **** /**
 135:Drivers/lvgl/lvgl/src/core/../misc/lv_style.h ****  * The dithering algorithm for the gradient
 136:Drivers/lvgl/lvgl/src/core/../misc/lv_style.h ****  * Depends on LV_DITHER_GRADIENT
 137:Drivers/lvgl/lvgl/src/core/../misc/lv_style.h ****  */
 138:Drivers/lvgl/lvgl/src/core/../misc/lv_style.h **** enum {
 139:Drivers/lvgl/lvgl/src/core/../misc/lv_style.h ****     LV_DITHER_NONE,     /**< No dithering, colors are just quantized to the output resolution*/
 140:Drivers/lvgl/lvgl/src/core/../misc/lv_style.h ****     LV_DITHER_ORDERED,  /**< Ordered dithering. Faster to compute and use less memory but lower qua
 141:Drivers/lvgl/lvgl/src/core/../misc/lv_style.h ****     LV_DITHER_ERR_DIFF, /**< Error diffusion mode. Slower to compute and use more memory but give h
 142:Drivers/lvgl/lvgl/src/core/../misc/lv_style.h **** };
 143:Drivers/lvgl/lvgl/src/core/../misc/lv_style.h **** 
 144:Drivers/lvgl/lvgl/src/core/../misc/lv_style.h **** typedef uint8_t lv_dither_mode_t;
 145:Drivers/lvgl/lvgl/src/core/../misc/lv_style.h **** 
 146:Drivers/lvgl/lvgl/src/core/../misc/lv_style.h **** /** A gradient stop definition.
 147:Drivers/lvgl/lvgl/src/core/../misc/lv_style.h ****  *  This matches a color and a position in a virtual 0-255 scale.
 148:Drivers/lvgl/lvgl/src/core/../misc/lv_style.h ****  */
 149:Drivers/lvgl/lvgl/src/core/../misc/lv_style.h **** typedef struct {
 150:Drivers/lvgl/lvgl/src/core/../misc/lv_style.h ****     lv_color_t color;   /**< The stop color */
 151:Drivers/lvgl/lvgl/src/core/../misc/lv_style.h ****     uint8_t    frac;    /**< The stop position in 1/255 unit */
 152:Drivers/lvgl/lvgl/src/core/../misc/lv_style.h **** } lv_gradient_stop_t;
 153:Drivers/lvgl/lvgl/src/core/../misc/lv_style.h **** 
 154:Drivers/lvgl/lvgl/src/core/../misc/lv_style.h **** /** A descriptor of a gradient. */
 155:Drivers/lvgl/lvgl/src/core/../misc/lv_style.h **** typedef struct {
 156:Drivers/lvgl/lvgl/src/core/../misc/lv_style.h ****     lv_gradient_stop_t   stops[LV_GRADIENT_MAX_STOPS]; /**< A gradient stop array */
 157:Drivers/lvgl/lvgl/src/core/../misc/lv_style.h ****     uint8_t              stops_count;                  /**< The number of used stops in the array *
 158:Drivers/lvgl/lvgl/src/core/../misc/lv_style.h ****     lv_grad_dir_t        dir : 3;                      /**< The gradient direction.
 159:Drivers/lvgl/lvgl/src/core/../misc/lv_style.h ****                                                         * Any of LV_GRAD_DIR_HOR, LV_GRAD_DIR_VER, 
 160:Drivers/lvgl/lvgl/src/core/../misc/lv_style.h ****     lv_dither_mode_t     dither : 3;                   /**< Whether to dither the gradient or not.
 161:Drivers/lvgl/lvgl/src/core/../misc/lv_style.h ****                                                         * Any of LV_DITHER_NONE, LV_DITHER_ORDERED,
 162:Drivers/lvgl/lvgl/src/core/../misc/lv_style.h **** } lv_grad_dsc_t;
 163:Drivers/lvgl/lvgl/src/core/../misc/lv_style.h **** 
 164:Drivers/lvgl/lvgl/src/core/../misc/lv_style.h **** /**
 165:Drivers/lvgl/lvgl/src/core/../misc/lv_style.h ****  * A common type to handle all the property types in the same way.
 166:Drivers/lvgl/lvgl/src/core/../misc/lv_style.h ****  */
 167:Drivers/lvgl/lvgl/src/core/../misc/lv_style.h **** typedef union {
 168:Drivers/lvgl/lvgl/src/core/../misc/lv_style.h ****     int32_t num;         /**< Number integer number (opacity, enums, booleans or "normal" numbers)*
 169:Drivers/lvgl/lvgl/src/core/../misc/lv_style.h ****     const void * ptr;    /**< Constant pointers  (font, cone text, etc)*/
 170:Drivers/lvgl/lvgl/src/core/../misc/lv_style.h ****     lv_color_t color;    /**< Colors*/
 171:Drivers/lvgl/lvgl/src/core/../misc/lv_style.h **** } lv_style_value_t;
 172:Drivers/lvgl/lvgl/src/core/../misc/lv_style.h **** 
 173:Drivers/lvgl/lvgl/src/core/../misc/lv_style.h **** /**
 174:Drivers/lvgl/lvgl/src/core/../misc/lv_style.h ****  * Enumeration of all built in style properties
 175:Drivers/lvgl/lvgl/src/core/../misc/lv_style.h ****  *
 176:Drivers/lvgl/lvgl/src/core/../misc/lv_style.h ****  * Props are split into groups of 16. When adding a new prop to a group, ensure it does not overflo
 177:Drivers/lvgl/lvgl/src/core/../misc/lv_style.h ****  */
 178:Drivers/lvgl/lvgl/src/core/../misc/lv_style.h **** typedef enum {
ARM GAS  /tmp/ccJvwpHF.s 			page 58


 179:Drivers/lvgl/lvgl/src/core/../misc/lv_style.h ****     LV_STYLE_PROP_INV               = 0,
 180:Drivers/lvgl/lvgl/src/core/../misc/lv_style.h **** 
 181:Drivers/lvgl/lvgl/src/core/../misc/lv_style.h ****     /*Group 0*/
 182:Drivers/lvgl/lvgl/src/core/../misc/lv_style.h ****     LV_STYLE_WIDTH                  = 1,
 183:Drivers/lvgl/lvgl/src/core/../misc/lv_style.h ****     LV_STYLE_MIN_WIDTH              = 2,
 184:Drivers/lvgl/lvgl/src/core/../misc/lv_style.h ****     LV_STYLE_MAX_WIDTH              = 3,
 185:Drivers/lvgl/lvgl/src/core/../misc/lv_style.h ****     LV_STYLE_HEIGHT                 = 4,
 186:Drivers/lvgl/lvgl/src/core/../misc/lv_style.h ****     LV_STYLE_MIN_HEIGHT             = 5,
 187:Drivers/lvgl/lvgl/src/core/../misc/lv_style.h ****     LV_STYLE_MAX_HEIGHT             = 6,
 188:Drivers/lvgl/lvgl/src/core/../misc/lv_style.h ****     LV_STYLE_X                      = 7,
 189:Drivers/lvgl/lvgl/src/core/../misc/lv_style.h ****     LV_STYLE_Y                      = 8,
 190:Drivers/lvgl/lvgl/src/core/../misc/lv_style.h ****     LV_STYLE_ALIGN                  = 9,
 191:Drivers/lvgl/lvgl/src/core/../misc/lv_style.h ****     LV_STYLE_LAYOUT                 = 10,
 192:Drivers/lvgl/lvgl/src/core/../misc/lv_style.h ****     LV_STYLE_RADIUS                 = 11,
 193:Drivers/lvgl/lvgl/src/core/../misc/lv_style.h **** 
 194:Drivers/lvgl/lvgl/src/core/../misc/lv_style.h ****     /*Group 1*/
 195:Drivers/lvgl/lvgl/src/core/../misc/lv_style.h ****     LV_STYLE_PAD_TOP                = 16,
 196:Drivers/lvgl/lvgl/src/core/../misc/lv_style.h ****     LV_STYLE_PAD_BOTTOM             = 17,
 197:Drivers/lvgl/lvgl/src/core/../misc/lv_style.h ****     LV_STYLE_PAD_LEFT               = 18,
 198:Drivers/lvgl/lvgl/src/core/../misc/lv_style.h ****     LV_STYLE_PAD_RIGHT              = 19,
 199:Drivers/lvgl/lvgl/src/core/../misc/lv_style.h ****     LV_STYLE_PAD_ROW                = 20,
 200:Drivers/lvgl/lvgl/src/core/../misc/lv_style.h ****     LV_STYLE_PAD_COLUMN             = 21,
 201:Drivers/lvgl/lvgl/src/core/../misc/lv_style.h ****     LV_STYLE_BASE_DIR               = 22,
 202:Drivers/lvgl/lvgl/src/core/../misc/lv_style.h ****     LV_STYLE_CLIP_CORNER            = 23,
 203:Drivers/lvgl/lvgl/src/core/../misc/lv_style.h **** 
 204:Drivers/lvgl/lvgl/src/core/../misc/lv_style.h ****     /*Group 2*/
 205:Drivers/lvgl/lvgl/src/core/../misc/lv_style.h ****     LV_STYLE_BG_COLOR               = 32,
 206:Drivers/lvgl/lvgl/src/core/../misc/lv_style.h ****     LV_STYLE_BG_OPA                 = 33,
 207:Drivers/lvgl/lvgl/src/core/../misc/lv_style.h ****     LV_STYLE_BG_GRAD_COLOR          = 34,
 208:Drivers/lvgl/lvgl/src/core/../misc/lv_style.h ****     LV_STYLE_BG_GRAD_DIR            = 35,
 209:Drivers/lvgl/lvgl/src/core/../misc/lv_style.h ****     LV_STYLE_BG_MAIN_STOP           = 36,
 210:Drivers/lvgl/lvgl/src/core/../misc/lv_style.h ****     LV_STYLE_BG_GRAD_STOP           = 37,
 211:Drivers/lvgl/lvgl/src/core/../misc/lv_style.h ****     LV_STYLE_BG_GRAD                = 38,
 212:Drivers/lvgl/lvgl/src/core/../misc/lv_style.h ****     LV_STYLE_BG_DITHER_MODE         = 39,
 213:Drivers/lvgl/lvgl/src/core/../misc/lv_style.h ****     LV_STYLE_BG_IMG_SRC             = 40,
 214:Drivers/lvgl/lvgl/src/core/../misc/lv_style.h ****     LV_STYLE_BG_IMG_OPA             = 41,
 215:Drivers/lvgl/lvgl/src/core/../misc/lv_style.h ****     LV_STYLE_BG_IMG_RECOLOR         = 42,
 216:Drivers/lvgl/lvgl/src/core/../misc/lv_style.h ****     LV_STYLE_BG_IMG_RECOLOR_OPA     = 43,
 217:Drivers/lvgl/lvgl/src/core/../misc/lv_style.h ****     LV_STYLE_BG_IMG_TILED           = 44,
 218:Drivers/lvgl/lvgl/src/core/../misc/lv_style.h **** 
 219:Drivers/lvgl/lvgl/src/core/../misc/lv_style.h ****     /*Group 3*/
 220:Drivers/lvgl/lvgl/src/core/../misc/lv_style.h ****     LV_STYLE_BORDER_COLOR           = 48,
 221:Drivers/lvgl/lvgl/src/core/../misc/lv_style.h ****     LV_STYLE_BORDER_OPA             = 49,
 222:Drivers/lvgl/lvgl/src/core/../misc/lv_style.h ****     LV_STYLE_BORDER_WIDTH           = 50,
 223:Drivers/lvgl/lvgl/src/core/../misc/lv_style.h ****     LV_STYLE_BORDER_SIDE            = 51,
 224:Drivers/lvgl/lvgl/src/core/../misc/lv_style.h ****     LV_STYLE_BORDER_POST            = 52,
 225:Drivers/lvgl/lvgl/src/core/../misc/lv_style.h ****     LV_STYLE_OUTLINE_WIDTH          = 53,
 226:Drivers/lvgl/lvgl/src/core/../misc/lv_style.h ****     LV_STYLE_OUTLINE_COLOR          = 54,
 227:Drivers/lvgl/lvgl/src/core/../misc/lv_style.h ****     LV_STYLE_OUTLINE_OPA            = 55,
 228:Drivers/lvgl/lvgl/src/core/../misc/lv_style.h ****     LV_STYLE_OUTLINE_PAD            = 56,
 229:Drivers/lvgl/lvgl/src/core/../misc/lv_style.h **** 
 230:Drivers/lvgl/lvgl/src/core/../misc/lv_style.h ****     /*Group 4*/
 231:Drivers/lvgl/lvgl/src/core/../misc/lv_style.h ****     LV_STYLE_SHADOW_WIDTH           = 64,
 232:Drivers/lvgl/lvgl/src/core/../misc/lv_style.h ****     LV_STYLE_SHADOW_OFS_X           = 65,
 233:Drivers/lvgl/lvgl/src/core/../misc/lv_style.h ****     LV_STYLE_SHADOW_OFS_Y           = 66,
 234:Drivers/lvgl/lvgl/src/core/../misc/lv_style.h ****     LV_STYLE_SHADOW_SPREAD          = 67,
 235:Drivers/lvgl/lvgl/src/core/../misc/lv_style.h ****     LV_STYLE_SHADOW_COLOR           = 68,
ARM GAS  /tmp/ccJvwpHF.s 			page 59


 236:Drivers/lvgl/lvgl/src/core/../misc/lv_style.h ****     LV_STYLE_SHADOW_OPA             = 69,
 237:Drivers/lvgl/lvgl/src/core/../misc/lv_style.h ****     LV_STYLE_IMG_OPA                = 70,
 238:Drivers/lvgl/lvgl/src/core/../misc/lv_style.h ****     LV_STYLE_IMG_RECOLOR            = 71,
 239:Drivers/lvgl/lvgl/src/core/../misc/lv_style.h ****     LV_STYLE_IMG_RECOLOR_OPA        = 72,
 240:Drivers/lvgl/lvgl/src/core/../misc/lv_style.h ****     LV_STYLE_LINE_WIDTH             = 73,
 241:Drivers/lvgl/lvgl/src/core/../misc/lv_style.h ****     LV_STYLE_LINE_DASH_WIDTH        = 74,
 242:Drivers/lvgl/lvgl/src/core/../misc/lv_style.h ****     LV_STYLE_LINE_DASH_GAP          = 75,
 243:Drivers/lvgl/lvgl/src/core/../misc/lv_style.h ****     LV_STYLE_LINE_ROUNDED           = 76,
 244:Drivers/lvgl/lvgl/src/core/../misc/lv_style.h ****     LV_STYLE_LINE_COLOR             = 77,
 245:Drivers/lvgl/lvgl/src/core/../misc/lv_style.h ****     LV_STYLE_LINE_OPA               = 78,
 246:Drivers/lvgl/lvgl/src/core/../misc/lv_style.h **** 
 247:Drivers/lvgl/lvgl/src/core/../misc/lv_style.h ****     /*Group 5*/
 248:Drivers/lvgl/lvgl/src/core/../misc/lv_style.h ****     LV_STYLE_ARC_WIDTH              = 80,
 249:Drivers/lvgl/lvgl/src/core/../misc/lv_style.h ****     LV_STYLE_ARC_ROUNDED            = 81,
 250:Drivers/lvgl/lvgl/src/core/../misc/lv_style.h ****     LV_STYLE_ARC_COLOR              = 82,
 251:Drivers/lvgl/lvgl/src/core/../misc/lv_style.h ****     LV_STYLE_ARC_OPA                = 83,
 252:Drivers/lvgl/lvgl/src/core/../misc/lv_style.h ****     LV_STYLE_ARC_IMG_SRC            = 84,
 253:Drivers/lvgl/lvgl/src/core/../misc/lv_style.h ****     LV_STYLE_TEXT_COLOR             = 85,
 254:Drivers/lvgl/lvgl/src/core/../misc/lv_style.h ****     LV_STYLE_TEXT_OPA               = 86,
 255:Drivers/lvgl/lvgl/src/core/../misc/lv_style.h ****     LV_STYLE_TEXT_FONT              = 87,
 256:Drivers/lvgl/lvgl/src/core/../misc/lv_style.h ****     LV_STYLE_TEXT_LETTER_SPACE      = 88,
 257:Drivers/lvgl/lvgl/src/core/../misc/lv_style.h ****     LV_STYLE_TEXT_LINE_SPACE        = 89,
 258:Drivers/lvgl/lvgl/src/core/../misc/lv_style.h ****     LV_STYLE_TEXT_DECOR             = 90,
 259:Drivers/lvgl/lvgl/src/core/../misc/lv_style.h ****     LV_STYLE_TEXT_ALIGN             = 91,
 260:Drivers/lvgl/lvgl/src/core/../misc/lv_style.h **** 
 261:Drivers/lvgl/lvgl/src/core/../misc/lv_style.h ****     /*Group 6*/
 262:Drivers/lvgl/lvgl/src/core/../misc/lv_style.h ****     LV_STYLE_OPA                    = 96,
 263:Drivers/lvgl/lvgl/src/core/../misc/lv_style.h ****     LV_STYLE_COLOR_FILTER_DSC       = 97,
 264:Drivers/lvgl/lvgl/src/core/../misc/lv_style.h ****     LV_STYLE_COLOR_FILTER_OPA       = 98,
 265:Drivers/lvgl/lvgl/src/core/../misc/lv_style.h ****     LV_STYLE_ANIM                   = 99,
 266:Drivers/lvgl/lvgl/src/core/../misc/lv_style.h ****     LV_STYLE_ANIM_TIME              = 100,
 267:Drivers/lvgl/lvgl/src/core/../misc/lv_style.h ****     LV_STYLE_ANIM_SPEED             = 101,
 268:Drivers/lvgl/lvgl/src/core/../misc/lv_style.h ****     LV_STYLE_TRANSITION             = 102,
 269:Drivers/lvgl/lvgl/src/core/../misc/lv_style.h ****     LV_STYLE_BLEND_MODE             = 103,
 270:Drivers/lvgl/lvgl/src/core/../misc/lv_style.h ****     LV_STYLE_TRANSFORM_WIDTH        = 104,
 271:Drivers/lvgl/lvgl/src/core/../misc/lv_style.h ****     LV_STYLE_TRANSFORM_HEIGHT       = 105,
 272:Drivers/lvgl/lvgl/src/core/../misc/lv_style.h ****     LV_STYLE_TRANSLATE_X            = 106,
 273:Drivers/lvgl/lvgl/src/core/../misc/lv_style.h ****     LV_STYLE_TRANSLATE_Y            = 107,
 274:Drivers/lvgl/lvgl/src/core/../misc/lv_style.h ****     LV_STYLE_TRANSFORM_ZOOM         = 108,
 275:Drivers/lvgl/lvgl/src/core/../misc/lv_style.h ****     LV_STYLE_TRANSFORM_ANGLE        = 109,
 276:Drivers/lvgl/lvgl/src/core/../misc/lv_style.h ****     LV_STYLE_TRANSFORM_PIVOT_X      = 110,
 277:Drivers/lvgl/lvgl/src/core/../misc/lv_style.h ****     LV_STYLE_TRANSFORM_PIVOT_Y      = 111,
 278:Drivers/lvgl/lvgl/src/core/../misc/lv_style.h **** 
 279:Drivers/lvgl/lvgl/src/core/../misc/lv_style.h ****     _LV_STYLE_LAST_BUILT_IN_PROP     = 111,
 280:Drivers/lvgl/lvgl/src/core/../misc/lv_style.h ****     _LV_STYLE_NUM_BUILT_IN_PROPS     = _LV_STYLE_LAST_BUILT_IN_PROP + 1,
 281:Drivers/lvgl/lvgl/src/core/../misc/lv_style.h **** 
 282:Drivers/lvgl/lvgl/src/core/../misc/lv_style.h ****     LV_STYLE_PROP_ANY                = 0xFFFF,
 283:Drivers/lvgl/lvgl/src/core/../misc/lv_style.h ****     _LV_STYLE_PROP_CONST             = 0xFFFF /* magic value for const styles */
 284:Drivers/lvgl/lvgl/src/core/../misc/lv_style.h **** } lv_style_prop_t;
 285:Drivers/lvgl/lvgl/src/core/../misc/lv_style.h **** 
 286:Drivers/lvgl/lvgl/src/core/../misc/lv_style.h **** enum {
 287:Drivers/lvgl/lvgl/src/core/../misc/lv_style.h ****     LV_STYLE_RES_NOT_FOUND,
 288:Drivers/lvgl/lvgl/src/core/../misc/lv_style.h ****     LV_STYLE_RES_FOUND,
 289:Drivers/lvgl/lvgl/src/core/../misc/lv_style.h ****     LV_STYLE_RES_INHERIT
 290:Drivers/lvgl/lvgl/src/core/../misc/lv_style.h **** };
 291:Drivers/lvgl/lvgl/src/core/../misc/lv_style.h **** 
 292:Drivers/lvgl/lvgl/src/core/../misc/lv_style.h **** typedef uint8_t lv_style_res_t;
ARM GAS  /tmp/ccJvwpHF.s 			page 60


 293:Drivers/lvgl/lvgl/src/core/../misc/lv_style.h **** 
 294:Drivers/lvgl/lvgl/src/core/../misc/lv_style.h **** /**
 295:Drivers/lvgl/lvgl/src/core/../misc/lv_style.h ****  * Descriptor for style transitions
 296:Drivers/lvgl/lvgl/src/core/../misc/lv_style.h ****  */
 297:Drivers/lvgl/lvgl/src/core/../misc/lv_style.h **** typedef struct {
 298:Drivers/lvgl/lvgl/src/core/../misc/lv_style.h ****     const lv_style_prop_t * props; /**< An array with the properties to animate.*/
 299:Drivers/lvgl/lvgl/src/core/../misc/lv_style.h **** #if LV_USE_USER_DATA
 300:Drivers/lvgl/lvgl/src/core/../misc/lv_style.h ****     void * user_data;              /**< A custom user data that will be passed to the animation's u
 301:Drivers/lvgl/lvgl/src/core/../misc/lv_style.h **** #endif
 302:Drivers/lvgl/lvgl/src/core/../misc/lv_style.h ****     lv_anim_path_cb_t path_xcb;     /**< A path for the animation.*/
 303:Drivers/lvgl/lvgl/src/core/../misc/lv_style.h ****     uint32_t time;                 /**< Duration of the transition in [ms]*/
 304:Drivers/lvgl/lvgl/src/core/../misc/lv_style.h ****     uint32_t delay;                /**< Delay before the transition in [ms]*/
 305:Drivers/lvgl/lvgl/src/core/../misc/lv_style.h **** } lv_style_transition_dsc_t;
 306:Drivers/lvgl/lvgl/src/core/../misc/lv_style.h **** 
 307:Drivers/lvgl/lvgl/src/core/../misc/lv_style.h **** /**
 308:Drivers/lvgl/lvgl/src/core/../misc/lv_style.h ****  * Descriptor of a constant style property.
 309:Drivers/lvgl/lvgl/src/core/../misc/lv_style.h ****  */
 310:Drivers/lvgl/lvgl/src/core/../misc/lv_style.h **** typedef struct {
 311:Drivers/lvgl/lvgl/src/core/../misc/lv_style.h ****     lv_style_prop_t prop;
 312:Drivers/lvgl/lvgl/src/core/../misc/lv_style.h ****     lv_style_value_t value;
 313:Drivers/lvgl/lvgl/src/core/../misc/lv_style.h **** } lv_style_const_prop_t;
 314:Drivers/lvgl/lvgl/src/core/../misc/lv_style.h **** 
 315:Drivers/lvgl/lvgl/src/core/../misc/lv_style.h **** /**
 316:Drivers/lvgl/lvgl/src/core/../misc/lv_style.h ****  * Descriptor of a style (a collection of properties and values).
 317:Drivers/lvgl/lvgl/src/core/../misc/lv_style.h ****  */
 318:Drivers/lvgl/lvgl/src/core/../misc/lv_style.h **** typedef struct {
 319:Drivers/lvgl/lvgl/src/core/../misc/lv_style.h **** 
 320:Drivers/lvgl/lvgl/src/core/../misc/lv_style.h **** #if LV_USE_ASSERT_STYLE
 321:Drivers/lvgl/lvgl/src/core/../misc/lv_style.h ****     uint32_t sentinel;
 322:Drivers/lvgl/lvgl/src/core/../misc/lv_style.h **** #endif
 323:Drivers/lvgl/lvgl/src/core/../misc/lv_style.h **** 
 324:Drivers/lvgl/lvgl/src/core/../misc/lv_style.h ****     /*If there is only one property store it directly.
 325:Drivers/lvgl/lvgl/src/core/../misc/lv_style.h ****      *For more properties allocate an array*/
 326:Drivers/lvgl/lvgl/src/core/../misc/lv_style.h ****     union {
 327:Drivers/lvgl/lvgl/src/core/../misc/lv_style.h ****         lv_style_value_t value1;
 328:Drivers/lvgl/lvgl/src/core/../misc/lv_style.h ****         uint8_t * values_and_props;
 329:Drivers/lvgl/lvgl/src/core/../misc/lv_style.h ****         const lv_style_const_prop_t * const_props;
 330:Drivers/lvgl/lvgl/src/core/../misc/lv_style.h ****     } v_p;
 331:Drivers/lvgl/lvgl/src/core/../misc/lv_style.h **** 
 332:Drivers/lvgl/lvgl/src/core/../misc/lv_style.h ****     uint16_t prop1;
 333:Drivers/lvgl/lvgl/src/core/../misc/lv_style.h ****     uint8_t has_group;
 334:Drivers/lvgl/lvgl/src/core/../misc/lv_style.h ****     uint8_t prop_cnt;
 335:Drivers/lvgl/lvgl/src/core/../misc/lv_style.h **** } lv_style_t;
 336:Drivers/lvgl/lvgl/src/core/../misc/lv_style.h **** 
 337:Drivers/lvgl/lvgl/src/core/../misc/lv_style.h **** /**********************
 338:Drivers/lvgl/lvgl/src/core/../misc/lv_style.h ****  * GLOBAL PROTOTYPES
 339:Drivers/lvgl/lvgl/src/core/../misc/lv_style.h ****  **********************/
 340:Drivers/lvgl/lvgl/src/core/../misc/lv_style.h **** 
 341:Drivers/lvgl/lvgl/src/core/../misc/lv_style.h **** 
 342:Drivers/lvgl/lvgl/src/core/../misc/lv_style.h **** /**
 343:Drivers/lvgl/lvgl/src/core/../misc/lv_style.h ****  * Initialize a style
 344:Drivers/lvgl/lvgl/src/core/../misc/lv_style.h ****  * @param style pointer to a style to initialize
 345:Drivers/lvgl/lvgl/src/core/../misc/lv_style.h ****  * @note Do not call `lv_style_init` on styles that already have some properties
 346:Drivers/lvgl/lvgl/src/core/../misc/lv_style.h ****  *       because this function won't free the used memory, just sets a default state for the style.
 347:Drivers/lvgl/lvgl/src/core/../misc/lv_style.h ****  *       In other words be sure to initialize styles only once!
 348:Drivers/lvgl/lvgl/src/core/../misc/lv_style.h ****  */
 349:Drivers/lvgl/lvgl/src/core/../misc/lv_style.h **** void lv_style_init(lv_style_t * style);
ARM GAS  /tmp/ccJvwpHF.s 			page 61


 350:Drivers/lvgl/lvgl/src/core/../misc/lv_style.h **** 
 351:Drivers/lvgl/lvgl/src/core/../misc/lv_style.h **** /**
 352:Drivers/lvgl/lvgl/src/core/../misc/lv_style.h ****  * Clear all properties from a style and free all allocated memories.
 353:Drivers/lvgl/lvgl/src/core/../misc/lv_style.h ****  * @param style pointer to a style
 354:Drivers/lvgl/lvgl/src/core/../misc/lv_style.h ****  */
 355:Drivers/lvgl/lvgl/src/core/../misc/lv_style.h **** void lv_style_reset(lv_style_t * style);
 356:Drivers/lvgl/lvgl/src/core/../misc/lv_style.h **** 
 357:Drivers/lvgl/lvgl/src/core/../misc/lv_style.h **** /**
 358:Drivers/lvgl/lvgl/src/core/../misc/lv_style.h ****  * Register a new style property for custom usage
 359:Drivers/lvgl/lvgl/src/core/../misc/lv_style.h ****  * @return a new property ID, or LV_STYLE_PROP_INV if there are no more available.
 360:Drivers/lvgl/lvgl/src/core/../misc/lv_style.h ****  * @example
 361:Drivers/lvgl/lvgl/src/core/../misc/lv_style.h ****  * lv_style_prop_t MY_PROP;
 362:Drivers/lvgl/lvgl/src/core/../misc/lv_style.h ****  * static inline void lv_style_set_my_prop(lv_style_t * style, lv_color_t value) {
 363:Drivers/lvgl/lvgl/src/core/../misc/lv_style.h ****  * lv_style_value_t v = {.color = value}; lv_style_set_prop(style, MY_PROP, v); }
 364:Drivers/lvgl/lvgl/src/core/../misc/lv_style.h ****  *
 365:Drivers/lvgl/lvgl/src/core/../misc/lv_style.h ****  * ...
 366:Drivers/lvgl/lvgl/src/core/../misc/lv_style.h ****  * MY_PROP = lv_style_register_prop();
 367:Drivers/lvgl/lvgl/src/core/../misc/lv_style.h ****  * ...
 368:Drivers/lvgl/lvgl/src/core/../misc/lv_style.h ****  * lv_style_set_my_prop(&style1, lv_palette_main(LV_PALETTE_RED));
 369:Drivers/lvgl/lvgl/src/core/../misc/lv_style.h ****  */
 370:Drivers/lvgl/lvgl/src/core/../misc/lv_style.h **** lv_style_prop_t lv_style_register_prop(uint8_t flag);
 371:Drivers/lvgl/lvgl/src/core/../misc/lv_style.h **** 
 372:Drivers/lvgl/lvgl/src/core/../misc/lv_style.h **** /**
 373:Drivers/lvgl/lvgl/src/core/../misc/lv_style.h ****  * Get the number of custom properties that have been registered thus far.
 374:Drivers/lvgl/lvgl/src/core/../misc/lv_style.h ****  */
 375:Drivers/lvgl/lvgl/src/core/../misc/lv_style.h **** lv_style_prop_t lv_style_get_num_custom_props(void);
 376:Drivers/lvgl/lvgl/src/core/../misc/lv_style.h **** 
 377:Drivers/lvgl/lvgl/src/core/../misc/lv_style.h **** /**
 378:Drivers/lvgl/lvgl/src/core/../misc/lv_style.h ****  * Remove a property from a style
 379:Drivers/lvgl/lvgl/src/core/../misc/lv_style.h ****  * @param style pointer to a style
 380:Drivers/lvgl/lvgl/src/core/../misc/lv_style.h ****  * @param prop  a style property ORed with a state.
 381:Drivers/lvgl/lvgl/src/core/../misc/lv_style.h ****  * @return true: the property was found and removed; false: the property wasn't found
 382:Drivers/lvgl/lvgl/src/core/../misc/lv_style.h ****  */
 383:Drivers/lvgl/lvgl/src/core/../misc/lv_style.h **** bool lv_style_remove_prop(lv_style_t * style, lv_style_prop_t prop);
 384:Drivers/lvgl/lvgl/src/core/../misc/lv_style.h **** 
 385:Drivers/lvgl/lvgl/src/core/../misc/lv_style.h **** /**
 386:Drivers/lvgl/lvgl/src/core/../misc/lv_style.h ****  * Set the value of property in a style.
 387:Drivers/lvgl/lvgl/src/core/../misc/lv_style.h ****  * This function shouldn't be used directly by the user.
 388:Drivers/lvgl/lvgl/src/core/../misc/lv_style.h ****  * Instead use `lv_style_set_<prop_name>()`. E.g. `lv_style_set_bg_color()`
 389:Drivers/lvgl/lvgl/src/core/../misc/lv_style.h ****  * @param style pointer to style
 390:Drivers/lvgl/lvgl/src/core/../misc/lv_style.h ****  * @param prop the ID of a property (e.g. `LV_STYLE_BG_COLOR`)
 391:Drivers/lvgl/lvgl/src/core/../misc/lv_style.h ****  * @param value `lv_style_value_t` variable in which a field is set according to the type of `prop`
 392:Drivers/lvgl/lvgl/src/core/../misc/lv_style.h ****  */
 393:Drivers/lvgl/lvgl/src/core/../misc/lv_style.h **** void lv_style_set_prop(lv_style_t * style, lv_style_prop_t prop, lv_style_value_t value);
 394:Drivers/lvgl/lvgl/src/core/../misc/lv_style.h **** 
 395:Drivers/lvgl/lvgl/src/core/../misc/lv_style.h **** /**
 396:Drivers/lvgl/lvgl/src/core/../misc/lv_style.h ****  * Set a special meta state for a property in a style.
 397:Drivers/lvgl/lvgl/src/core/../misc/lv_style.h ****  * This function shouldn't be used directly by the user.
 398:Drivers/lvgl/lvgl/src/core/../misc/lv_style.h ****  * @param style pointer to style
 399:Drivers/lvgl/lvgl/src/core/../misc/lv_style.h ****  * @param prop the ID of a property (e.g. `LV_STYLE_BG_COLOR`)
 400:Drivers/lvgl/lvgl/src/core/../misc/lv_style.h ****  * @param meta the meta value to attach to the property in the style
 401:Drivers/lvgl/lvgl/src/core/../misc/lv_style.h ****  */
 402:Drivers/lvgl/lvgl/src/core/../misc/lv_style.h **** void lv_style_set_prop_meta(lv_style_t * style, lv_style_prop_t prop, uint16_t meta);
 403:Drivers/lvgl/lvgl/src/core/../misc/lv_style.h **** 
 404:Drivers/lvgl/lvgl/src/core/../misc/lv_style.h **** /**
 405:Drivers/lvgl/lvgl/src/core/../misc/lv_style.h ****  * Get the value of a property
 406:Drivers/lvgl/lvgl/src/core/../misc/lv_style.h ****  * @param style pointer to a style
ARM GAS  /tmp/ccJvwpHF.s 			page 62


 407:Drivers/lvgl/lvgl/src/core/../misc/lv_style.h ****  * @param prop  the ID of a property
 408:Drivers/lvgl/lvgl/src/core/../misc/lv_style.h ****  * @param value pointer to a `lv_style_value_t` variable to store the value
 409:Drivers/lvgl/lvgl/src/core/../misc/lv_style.h ****  * @return LV_RES_INV: the property wasn't found in the style (`value` is unchanged)
 410:Drivers/lvgl/lvgl/src/core/../misc/lv_style.h ****  *         LV_RES_OK: the property was fond, and `value` is set accordingly
 411:Drivers/lvgl/lvgl/src/core/../misc/lv_style.h ****  * @note For performance reasons there are no sanity check on `style`
 412:Drivers/lvgl/lvgl/src/core/../misc/lv_style.h ****  */
 413:Drivers/lvgl/lvgl/src/core/../misc/lv_style.h **** lv_style_res_t lv_style_get_prop(const lv_style_t * style, lv_style_prop_t prop, lv_style_value_t *
 414:Drivers/lvgl/lvgl/src/core/../misc/lv_style.h **** 
 415:Drivers/lvgl/lvgl/src/core/../misc/lv_style.h **** /**
 416:Drivers/lvgl/lvgl/src/core/../misc/lv_style.h ****  * Initialize a transition descriptor.
 417:Drivers/lvgl/lvgl/src/core/../misc/lv_style.h ****  * @param tr        pointer to a transition descriptor to initialize
 418:Drivers/lvgl/lvgl/src/core/../misc/lv_style.h ****  * @param props     an array with the properties to transition. The last element must be zero.
 419:Drivers/lvgl/lvgl/src/core/../misc/lv_style.h ****  * @param path_cb   an animation path (ease) callback. If `NULL` liner path will be used.
 420:Drivers/lvgl/lvgl/src/core/../misc/lv_style.h ****  * @param time      duration of the transition in [ms]
 421:Drivers/lvgl/lvgl/src/core/../misc/lv_style.h ****  * @param delay     delay before the transition in [ms]
 422:Drivers/lvgl/lvgl/src/core/../misc/lv_style.h ****  * @param user_data any custom data that will be saved in the transition animation and will be avai
 423:Drivers/lvgl/lvgl/src/core/../misc/lv_style.h ****  * @example
 424:Drivers/lvgl/lvgl/src/core/../misc/lv_style.h ****  * const static lv_style_prop_t trans_props[] = { LV_STYLE_BG_OPA, LV_STYLE_BG_COLOR, 0 };
 425:Drivers/lvgl/lvgl/src/core/../misc/lv_style.h ****  *  static lv_style_transition_dsc_t trans1;
 426:Drivers/lvgl/lvgl/src/core/../misc/lv_style.h ****  *  lv_style_transition_dsc_init(&trans1, trans_props, NULL, 300, 0, NULL);
 427:Drivers/lvgl/lvgl/src/core/../misc/lv_style.h ****  */
 428:Drivers/lvgl/lvgl/src/core/../misc/lv_style.h **** void lv_style_transition_dsc_init(lv_style_transition_dsc_t * tr, const lv_style_prop_t props[],
 429:Drivers/lvgl/lvgl/src/core/../misc/lv_style.h ****                                   lv_anim_path_cb_t path_cb, uint32_t time, uint32_t delay, void * 
 430:Drivers/lvgl/lvgl/src/core/../misc/lv_style.h **** 
 431:Drivers/lvgl/lvgl/src/core/../misc/lv_style.h **** /**
 432:Drivers/lvgl/lvgl/src/core/../misc/lv_style.h ****  * Get the default value of a property
 433:Drivers/lvgl/lvgl/src/core/../misc/lv_style.h ****  * @param prop the ID of a property
 434:Drivers/lvgl/lvgl/src/core/../misc/lv_style.h ****  * @return the default value
 435:Drivers/lvgl/lvgl/src/core/../misc/lv_style.h ****  */
 436:Drivers/lvgl/lvgl/src/core/../misc/lv_style.h **** lv_style_value_t lv_style_prop_get_default(lv_style_prop_t prop);
 437:Drivers/lvgl/lvgl/src/core/../misc/lv_style.h **** 
 438:Drivers/lvgl/lvgl/src/core/../misc/lv_style.h **** /**
 439:Drivers/lvgl/lvgl/src/core/../misc/lv_style.h ****  * Get the value of a property
 440:Drivers/lvgl/lvgl/src/core/../misc/lv_style.h ****  * @param style pointer to a style
 441:Drivers/lvgl/lvgl/src/core/../misc/lv_style.h ****  * @param prop  the ID of a property
 442:Drivers/lvgl/lvgl/src/core/../misc/lv_style.h ****  * @param value pointer to a `lv_style_value_t` variable to store the value
 443:Drivers/lvgl/lvgl/src/core/../misc/lv_style.h ****  * @return LV_RES_INV: the property wasn't found in the style (`value` is unchanged)
 444:Drivers/lvgl/lvgl/src/core/../misc/lv_style.h ****  *         LV_RES_OK: the property was fond, and `value` is set accordingly
 445:Drivers/lvgl/lvgl/src/core/../misc/lv_style.h ****  * @note For performance reasons there are no sanity check on `style`
 446:Drivers/lvgl/lvgl/src/core/../misc/lv_style.h ****  * @note This function is the same as ::lv_style_get_prop but inlined. Use it only on performance c
 447:Drivers/lvgl/lvgl/src/core/../misc/lv_style.h ****  */
 448:Drivers/lvgl/lvgl/src/core/../misc/lv_style.h **** static inline lv_style_res_t lv_style_get_prop_inlined(const lv_style_t * style, lv_style_prop_t pr
 449:Drivers/lvgl/lvgl/src/core/../misc/lv_style.h ****                                                        lv_style_value_t * value)
 450:Drivers/lvgl/lvgl/src/core/../misc/lv_style.h **** {
 451:Drivers/lvgl/lvgl/src/core/../misc/lv_style.h ****     if(style->prop1 == LV_STYLE_PROP_ANY) {
 452:Drivers/lvgl/lvgl/src/core/../misc/lv_style.h ****         const lv_style_const_prop_t * const_prop;
 453:Drivers/lvgl/lvgl/src/core/../misc/lv_style.h ****         uint32_t i;
 454:Drivers/lvgl/lvgl/src/core/../misc/lv_style.h ****         for(i = 0; i < style->prop_cnt; i++) {
 455:Drivers/lvgl/lvgl/src/core/../misc/lv_style.h ****             const_prop = style->v_p.const_props + i;
 456:Drivers/lvgl/lvgl/src/core/../misc/lv_style.h ****             lv_style_prop_t prop_id = LV_STYLE_PROP_ID_MASK(const_prop->prop);
 457:Drivers/lvgl/lvgl/src/core/../misc/lv_style.h ****             if(prop_id == prop) {
 458:Drivers/lvgl/lvgl/src/core/../misc/lv_style.h ****                 if(const_prop->prop & LV_STYLE_PROP_META_INHERIT)
 1307              		.loc 4 458 0
 1308 0042 11F4004F 		tst	r1, #32768
 1309 0046 43D1     		bne	.L98
 459:Drivers/lvgl/lvgl/src/core/../misc/lv_style.h ****                     return LV_STYLE_RES_INHERIT;
 460:Drivers/lvgl/lvgl/src/core/../misc/lv_style.h ****                 *value = (const_prop->prop & LV_STYLE_PROP_META_INITIAL) ? lv_style_prop_get_defaul
ARM GAS  /tmp/ccJvwpHF.s 			page 63


 1310              		.loc 4 460 0
 1311 0048 11F4804F 		tst	r1, #16384
 1312 004c 03D1     		bne	.L109
 1313 004e 6368     		ldr	r3, [r4, #4]
 1314              	.LVL156:
 1315 0050 0B93     		str	r3, [sp, #44]
 461:Drivers/lvgl/lvgl/src/core/../misc/lv_style.h ****                 return LV_STYLE_RES_FOUND;
 1316              		.loc 4 461 0
 1317 0052 0123     		movs	r3, #1
 1318              	.LVL157:
 1319 0054 3FE0     		b	.L73
 1320              	.LVL158:
 1321              	.L109:
 460:Drivers/lvgl/lvgl/src/core/../misc/lv_style.h ****                 return LV_STYLE_RES_FOUND;
 1322              		.loc 4 460 0
 1323 0056 FFF7FEFF 		bl	lv_style_prop_get_default
 1324              	.LVL159:
 1325 005a 0B90     		str	r0, [sp, #44]
 1326              		.loc 4 461 0
 1327 005c 0123     		movs	r3, #1
 1328 005e 3AE0     		b	.L73
 1329              	.LVL160:
 1330              	.L117:
 1331              	.LBE178:
 454:Drivers/lvgl/lvgl/src/core/../misc/lv_style.h ****             const_prop = style->v_p.const_props + i;
 1332              		.loc 4 454 0
 1333 0060 0023     		movs	r3, #0
 1334              	.LVL161:
 1335              	.L70:
 1336 0062 D179     		ldrb	r1, [r2, #7]	@ zero_extendqisi2
 1337 0064 8B42     		cmp	r3, r1
 1338 0066 0AD2     		bcs	.L110
 1339              	.LBB179:
 455:Drivers/lvgl/lvgl/src/core/../misc/lv_style.h ****             lv_style_prop_t prop_id = LV_STYLE_PROP_ID_MASK(const_prop->prop);
 1340              		.loc 4 455 0
 1341 0068 1168     		ldr	r1, [r2]
 1342 006a 01EBC304 		add	r4, r1, r3, lsl #3
 1343              	.LVL162:
 456:Drivers/lvgl/lvgl/src/core/../misc/lv_style.h ****             if(prop_id == prop) {
 1344              		.loc 4 456 0
 1345 006e 31F83310 		ldrh	r1, [r1, r3, lsl #3]
 1346 0072 C1F30D00 		ubfx	r0, r1, #0, #14
 1347              	.LVL163:
 457:Drivers/lvgl/lvgl/src/core/../misc/lv_style.h ****                 if(const_prop->prop & LV_STYLE_PROP_META_INHERIT)
 1348              		.loc 4 457 0
 1349 0076 6628     		cmp	r0, #102
 1350 0078 E3D0     		beq	.L111
 1351              	.LBE179:
 454:Drivers/lvgl/lvgl/src/core/../misc/lv_style.h ****             const_prop = style->v_p.const_props + i;
 1352              		.loc 4 454 0
 1353 007a 0133     		adds	r3, r3, #1
 1354              	.LVL164:
 1355 007c F1E7     		b	.L70
 1356              	.LVL165:
 1357              	.L110:
 462:Drivers/lvgl/lvgl/src/core/../misc/lv_style.h ****             }
 463:Drivers/lvgl/lvgl/src/core/../misc/lv_style.h ****         }
ARM GAS  /tmp/ccJvwpHF.s 			page 64


 464:Drivers/lvgl/lvgl/src/core/../misc/lv_style.h ****         return LV_STYLE_RES_NOT_FOUND;
 1358              		.loc 4 464 0
 1359 007e 0023     		movs	r3, #0
 1360              	.LVL166:
 1361 0080 29E0     		b	.L73
 1362              	.LVL167:
 1363              	.L119:
 1364              	.LBE177:
 1365              	.LBB181:
 1366              	.LBB182:
 465:Drivers/lvgl/lvgl/src/core/../misc/lv_style.h ****     }
 466:Drivers/lvgl/lvgl/src/core/../misc/lv_style.h **** 
 467:Drivers/lvgl/lvgl/src/core/../misc/lv_style.h ****     if(style->prop_cnt == 0) return LV_STYLE_RES_NOT_FOUND;
 468:Drivers/lvgl/lvgl/src/core/../misc/lv_style.h **** 
 469:Drivers/lvgl/lvgl/src/core/../misc/lv_style.h ****     if(style->prop_cnt > 1) {
 470:Drivers/lvgl/lvgl/src/core/../misc/lv_style.h ****         uint8_t * tmp = style->v_p.values_and_props + style->prop_cnt * sizeof(lv_style_value_t);
 471:Drivers/lvgl/lvgl/src/core/../misc/lv_style.h ****         uint16_t * props = (uint16_t *)tmp;
 472:Drivers/lvgl/lvgl/src/core/../misc/lv_style.h ****         uint32_t i;
 473:Drivers/lvgl/lvgl/src/core/../misc/lv_style.h ****         for(i = 0; i < style->prop_cnt; i++) {
 474:Drivers/lvgl/lvgl/src/core/../misc/lv_style.h ****             lv_style_prop_t prop_id = LV_STYLE_PROP_ID_MASK(props[i]);
 475:Drivers/lvgl/lvgl/src/core/../misc/lv_style.h ****             if(prop_id == prop) {
 476:Drivers/lvgl/lvgl/src/core/../misc/lv_style.h ****                 if(props[i] & LV_STYLE_PROP_META_INHERIT)
 1367              		.loc 4 476 0
 1368 0082 11F4004F 		tst	r1, #32768
 1369 0086 6ED1     		bne	.L100
 477:Drivers/lvgl/lvgl/src/core/../misc/lv_style.h ****                     return LV_STYLE_RES_INHERIT;
 478:Drivers/lvgl/lvgl/src/core/../misc/lv_style.h ****                 if(props[i] & LV_STYLE_PROP_META_INITIAL)
 1370              		.loc 4 478 0
 1371 0088 11F4804F 		tst	r1, #16384
 1372 008c 04D1     		bne	.L112
 1373              	.LVL168:
 1374              	.LBB183:
 479:Drivers/lvgl/lvgl/src/core/../misc/lv_style.h ****                     *value = lv_style_prop_get_default(prop_id);
 480:Drivers/lvgl/lvgl/src/core/../misc/lv_style.h ****                 else {
 481:Drivers/lvgl/lvgl/src/core/../misc/lv_style.h ****                     lv_style_value_t * values = (lv_style_value_t *)style->v_p.values_and_props;
 482:Drivers/lvgl/lvgl/src/core/../misc/lv_style.h ****                     *value = values[i];
 1375              		.loc 4 482 0
 1376 008e 55F82330 		ldr	r3, [r5, r3, lsl #2]
 1377              	.LVL169:
 1378 0092 0B93     		str	r3, [sp, #44]
 1379              	.LBE183:
 483:Drivers/lvgl/lvgl/src/core/../misc/lv_style.h ****                 }
 484:Drivers/lvgl/lvgl/src/core/../misc/lv_style.h ****                 return LV_STYLE_RES_FOUND;
 1380              		.loc 4 484 0
 1381 0094 0123     		movs	r3, #1
 1382              	.LVL170:
 1383 0096 1EE0     		b	.L73
 1384              	.LVL171:
 1385              	.L112:
 479:Drivers/lvgl/lvgl/src/core/../misc/lv_style.h ****                     *value = lv_style_prop_get_default(prop_id);
 1386              		.loc 4 479 0
 1387 0098 FFF7FEFF 		bl	lv_style_prop_get_default
 1388              	.LVL172:
 1389 009c 0B90     		str	r0, [sp, #44]
 1390              		.loc 4 484 0
 1391 009e 0123     		movs	r3, #1
 1392 00a0 19E0     		b	.L73
ARM GAS  /tmp/ccJvwpHF.s 			page 65


 1393              	.LVL173:
 1394              	.L118:
 1395              	.LBE182:
 1396              	.LBE181:
 485:Drivers/lvgl/lvgl/src/core/../misc/lv_style.h ****             }
 486:Drivers/lvgl/lvgl/src/core/../misc/lv_style.h ****         }
 487:Drivers/lvgl/lvgl/src/core/../misc/lv_style.h ****     }
 488:Drivers/lvgl/lvgl/src/core/../misc/lv_style.h ****     else if(LV_STYLE_PROP_ID_MASK(style->prop1) == prop) {
 489:Drivers/lvgl/lvgl/src/core/../misc/lv_style.h ****         if(style->prop1 & LV_STYLE_PROP_META_INHERIT)
 490:Drivers/lvgl/lvgl/src/core/../misc/lv_style.h ****             return LV_STYLE_RES_INHERIT;
 491:Drivers/lvgl/lvgl/src/core/../misc/lv_style.h ****         *value = (style->prop1 & LV_STYLE_PROP_META_INITIAL) ? lv_style_prop_get_default(LV_STYLE_P
 492:Drivers/lvgl/lvgl/src/core/../misc/lv_style.h ****                                                                                              style-
 493:Drivers/lvgl/lvgl/src/core/../misc/lv_style.h ****         return LV_STYLE_RES_FOUND;
 494:Drivers/lvgl/lvgl/src/core/../misc/lv_style.h ****     }
 495:Drivers/lvgl/lvgl/src/core/../misc/lv_style.h ****     return LV_STYLE_RES_NOT_FOUND;
 1397              		.loc 4 495 0
 1398 00a2 0023     		movs	r3, #0
 1399              	.LVL174:
 1400 00a4 17E0     		b	.L73
 1401              	.LVL175:
 1402              	.L76:
 1403 00a6 C1F30D00 		ubfx	r0, r1, #0, #14
 1404              	.LVL176:
 488:Drivers/lvgl/lvgl/src/core/../misc/lv_style.h ****         if(style->prop1 & LV_STYLE_PROP_META_INHERIT)
 1405              		.loc 4 488 0
 1406 00aa 6628     		cmp	r0, #102
 1407 00ac 01D0     		beq	.L113
 1408              		.loc 4 495 0
 1409 00ae 0023     		movs	r3, #0
 1410 00b0 11E0     		b	.L73
 1411              	.L113:
 489:Drivers/lvgl/lvgl/src/core/../misc/lv_style.h ****             return LV_STYLE_RES_INHERIT;
 1412              		.loc 4 489 0
 1413 00b2 11F4004F 		tst	r1, #32768
 1414 00b6 58D1     		bne	.L102
 491:Drivers/lvgl/lvgl/src/core/../misc/lv_style.h ****                                                                                              style-
 1415              		.loc 4 491 0
 1416 00b8 11F4804F 		tst	r1, #16384
 1417 00bc 03D1     		bne	.L114
 1418 00be 1368     		ldr	r3, [r2]
 1419              	.LVL177:
 1420 00c0 0B93     		str	r3, [sp, #44]
 493:Drivers/lvgl/lvgl/src/core/../misc/lv_style.h ****     }
 1421              		.loc 4 493 0
 1422 00c2 0123     		movs	r3, #1
 1423              	.LVL178:
 1424 00c4 07E0     		b	.L73
 1425              	.L114:
 491:Drivers/lvgl/lvgl/src/core/../misc/lv_style.h ****                                                                                              style-
 1426              		.loc 4 491 0
 1427 00c6 FFF7FEFF 		bl	lv_style_prop_get_default
 1428              	.LVL179:
 1429 00ca 0B90     		str	r0, [sp, #44]
 493:Drivers/lvgl/lvgl/src/core/../misc/lv_style.h ****     }
 1430              		.loc 4 493 0
 1431 00cc 0123     		movs	r3, #1
 1432 00ce 02E0     		b	.L73
ARM GAS  /tmp/ccJvwpHF.s 			page 66


 1433              	.LVL180:
 1434              	.L98:
 1435              	.LBB186:
 1436              	.LBB180:
 459:Drivers/lvgl/lvgl/src/core/../misc/lv_style.h ****                 *value = (const_prop->prop & LV_STYLE_PROP_META_INITIAL) ? lv_style_prop_get_defaul
 1437              		.loc 4 459 0
 1438 00d0 0223     		movs	r3, #2
 1439              	.LVL181:
 1440 00d2 00E0     		b	.L73
 1441              	.LVL182:
 1442              	.L99:
 1443              	.LBE180:
 1444              	.LBE186:
 467:Drivers/lvgl/lvgl/src/core/../misc/lv_style.h **** 
 1445              		.loc 4 467 0
 1446 00d4 0023     		movs	r3, #0
 1447              	.LVL183:
 1448              	.L73:
 1449              	.LBE176:
 1450              	.LBE175:
 881:Drivers/lvgl/lvgl/src/core/lv_obj.c ****         const lv_style_transition_dsc_t * tr = v.ptr;
 1451              		.loc 1 881 0
 1452 00d6 012B     		cmp	r3, #1
 1453 00d8 49D0     		beq	.L115
 1454              	.LVL184:
 1455              	.L90:
 1456              	.LBE174:
 873:Drivers/lvgl/lvgl/src/core/lv_obj.c ****         _lv_obj_style_t * obj_style = &obj->styles[i];
 1457              		.loc 1 873 0 discriminator 2
 1458 00da 029B     		ldr	r3, [sp, #8]
 1459 00dc 0133     		adds	r3, r3, #1
 1460 00de 0293     		str	r3, [sp, #8]
 1461              	.LVL185:
 1462              	.L68:
 873:Drivers/lvgl/lvgl/src/core/lv_obj.c ****         _lv_obj_style_t * obj_style = &obj->styles[i];
 1463              		.loc 1 873 0 is_stmt 0 discriminator 1
 1464 00e0 039B     		ldr	r3, [sp, #12]
 1465 00e2 5B8C     		ldrh	r3, [r3, #34]
 1466 00e4 C3F3C503 		ubfx	r3, r3, #3, #6
 1467 00e8 029A     		ldr	r2, [sp, #8]
 1468 00ea 9342     		cmp	r3, r2
 1469 00ec 40F29980 		bls	.L104
 873:Drivers/lvgl/lvgl/src/core/lv_obj.c ****         _lv_obj_style_t * obj_style = &obj->styles[i];
 1470              		.loc 1 873 0 discriminator 3
 1471 00f0 BAF11F0F 		cmp	r10, #31
 1472 00f4 00F29380 		bhi	.L116
 1473              	.LBB193:
 874:Drivers/lvgl/lvgl/src/core/lv_obj.c ****         lv_state_t state_act = lv_obj_style_get_selector_state(obj->styles[i].selector);
 1474              		.loc 1 874 0 is_stmt 1
 1475 00f8 039F     		ldr	r7, [sp, #12]
 1476 00fa FD68     		ldr	r5, [r7, #12]
 1477 00fc 029B     		ldr	r3, [sp, #8]
 1478 00fe DC00     		lsls	r4, r3, #3
 1479 0100 2E19     		adds	r6, r5, r4
 1480 0102 0996     		str	r6, [sp, #36]
 1481              	.LVL186:
 875:Drivers/lvgl/lvgl/src/core/lv_obj.c ****         lv_part_t part_act = lv_obj_style_get_selector_part(obj->styles[i].selector);
ARM GAS  /tmp/ccJvwpHF.s 			page 67


 1482              		.loc 1 875 0
 1483 0104 7068     		ldr	r0, [r6, #4]
 1484 0106 20F07F40 		bic	r0, r0, #-16777216
 1485 010a FFF7FEFF 		bl	lv_obj_style_get_selector_state
 1486              	.LVL187:
 1487 010e 8046     		mov	r8, r0
 1488 0110 0490     		str	r0, [sp, #16]
 1489              	.LVL188:
 876:Drivers/lvgl/lvgl/src/core/lv_obj.c ****         if(state_act & (~new_state)) continue; /*Skip unrelated styles*/
 1490              		.loc 1 876 0
 1491 0112 FB68     		ldr	r3, [r7, #12]
 1492 0114 2344     		add	r3, r3, r4
 1493 0116 5868     		ldr	r0, [r3, #4]
 1494 0118 20F07F40 		bic	r0, r0, #-16777216
 1495 011c FFF7FEFF 		bl	lv_obj_style_get_selector_part
 1496              	.LVL189:
 1497 0120 0590     		str	r0, [sp, #20]
 1498              	.LVL190:
 877:Drivers/lvgl/lvgl/src/core/lv_obj.c ****         if(obj_style->is_trans) continue;
 1499              		.loc 1 877 0
 1500 0122 4346     		mov	r3, r8
 1501 0124 069A     		ldr	r2, [sp, #24]
 1502 0126 9343     		bics	r3, r3, r2
 1503 0128 D7D1     		bne	.L90
 878:Drivers/lvgl/lvgl/src/core/lv_obj.c **** 
 1504              		.loc 1 878 0
 1505 012a F379     		ldrb	r3, [r6, #7]	@ zero_extendqisi2
 1506 012c 13F0020F 		tst	r3, #2
 1507 0130 D3D1     		bne	.L90
 881:Drivers/lvgl/lvgl/src/core/lv_obj.c ****         const lv_style_transition_dsc_t * tr = v.ptr;
 1508              		.loc 1 881 0
 1509 0132 2A59     		ldr	r2, [r5, r4]
 1510              	.LVL191:
 1511              	.LBB189:
 1512              	.LBB188:
 451:Drivers/lvgl/lvgl/src/core/../misc/lv_style.h ****         const lv_style_const_prop_t * const_prop;
 1513              		.loc 4 451 0
 1514 0134 9188     		ldrh	r1, [r2, #4]
 1515 0136 4FF6FF73 		movw	r3, #65535
 1516 013a 9942     		cmp	r1, r3
 1517 013c 90D0     		beq	.L117
 467:Drivers/lvgl/lvgl/src/core/../misc/lv_style.h **** 
 1518              		.loc 4 467 0
 1519 013e D379     		ldrb	r3, [r2, #7]	@ zero_extendqisi2
 1520 0140 002B     		cmp	r3, #0
 1521 0142 C7D0     		beq	.L99
 469:Drivers/lvgl/lvgl/src/core/../misc/lv_style.h ****         uint8_t * tmp = style->v_p.values_and_props + style->prop_cnt * sizeof(lv_style_value_t);
 1522              		.loc 4 469 0
 1523 0144 012B     		cmp	r3, #1
 1524 0146 AED9     		bls	.L76
 1525              	.LBB187:
 470:Drivers/lvgl/lvgl/src/core/../misc/lv_style.h ****         uint16_t * props = (uint16_t *)tmp;
 1526              		.loc 4 470 0
 1527 0148 1568     		ldr	r5, [r2]
 1528 014a 1C46     		mov	r4, r3
 1529 014c 05EB8302 		add	r2, r5, r3, lsl #2
 1530              	.LVL192:
ARM GAS  /tmp/ccJvwpHF.s 			page 68


 473:Drivers/lvgl/lvgl/src/core/../misc/lv_style.h ****             lv_style_prop_t prop_id = LV_STYLE_PROP_ID_MASK(props[i]);
 1531              		.loc 4 473 0
 1532 0150 0023     		movs	r3, #0
 1533              	.LVL193:
 1534              	.L77:
 1535 0152 9C42     		cmp	r4, r3
 1536 0154 A5D9     		bls	.L118
 1537              	.LBB184:
 474:Drivers/lvgl/lvgl/src/core/../misc/lv_style.h ****             if(prop_id == prop) {
 1538              		.loc 4 474 0
 1539 0156 32F81310 		ldrh	r1, [r2, r3, lsl #1]
 1540 015a C1F30D00 		ubfx	r0, r1, #0, #14
 1541              	.LVL194:
 475:Drivers/lvgl/lvgl/src/core/../misc/lv_style.h ****                 if(props[i] & LV_STYLE_PROP_META_INHERIT)
 1542              		.loc 4 475 0
 1543 015e 6628     		cmp	r0, #102
 1544 0160 8FD0     		beq	.L119
 1545              	.LBE184:
 473:Drivers/lvgl/lvgl/src/core/../misc/lv_style.h ****             lv_style_prop_t prop_id = LV_STYLE_PROP_ID_MASK(props[i]);
 1546              		.loc 4 473 0
 1547 0162 0133     		adds	r3, r3, #1
 1548              	.LVL195:
 1549 0164 F5E7     		b	.L77
 1550              	.L100:
 1551              	.LBB185:
 477:Drivers/lvgl/lvgl/src/core/../misc/lv_style.h ****                 if(props[i] & LV_STYLE_PROP_META_INITIAL)
 1552              		.loc 4 477 0
 1553 0166 0223     		movs	r3, #2
 1554              	.LVL196:
 1555 0168 B5E7     		b	.L73
 1556              	.LVL197:
 1557              	.L102:
 1558              	.LBE185:
 1559              	.LBE187:
 490:Drivers/lvgl/lvgl/src/core/../misc/lv_style.h ****         *value = (style->prop1 & LV_STYLE_PROP_META_INITIAL) ? lv_style_prop_get_default(LV_STYLE_P
 1560              		.loc 4 490 0
 1561 016a 0223     		movs	r3, #2
 1562 016c B3E7     		b	.L73
 1563              	.LVL198:
 1564              	.L115:
 1565              	.LBE188:
 1566              	.LBE189:
 882:Drivers/lvgl/lvgl/src/core/lv_obj.c **** 
 1567              		.loc 1 882 0
 1568 016e DDF82C80 		ldr	r8, [sp, #44]
 1569              	.LVL199:
 886:Drivers/lvgl/lvgl/src/core/lv_obj.c ****             uint32_t t;
 1570              		.loc 1 886 0
 1571 0172 0023     		movs	r3, #0
 1572 0174 0793     		str	r3, [sp, #28]
 1573 0176 24E0     		b	.L82
 1574              	.LVL200:
 1575              	.L83:
 1576              	.LBB190:
 888:Drivers/lvgl/lvgl/src/core/lv_obj.c ****                 lv_style_selector_t selector = ts[t].selector;
 1577              		.loc 1 888 0 discriminator 2
 1578 0178 0135     		adds	r5, r5, #1
ARM GAS  /tmp/ccJvwpHF.s 			page 69


 1579              	.LVL201:
 1580              	.L89:
 888:Drivers/lvgl/lvgl/src/core/lv_obj.c ****                 lv_style_selector_t selector = ts[t].selector;
 1581              		.loc 1 888 0 is_stmt 0 discriminator 1
 1582 017a AA45     		cmp	r10, r5
 1583 017c 1CD9     		bls	.L84
 1584              	.LBB191:
 889:Drivers/lvgl/lvgl/src/core/lv_obj.c ****                 lv_state_t state_ts = lv_obj_style_get_selector_state(selector);
 1585              		.loc 1 889 0 is_stmt 1
 1586 017e 05EB8503 		add	r3, r5, r5, lsl #2
 1587 0182 9C00     		lsls	r4, r3, #2
 1588 0184 5C44     		add	r4, r4, fp
 1589 0186 6668     		ldr	r6, [r4, #4]
 1590              	.LVL202:
 890:Drivers/lvgl/lvgl/src/core/lv_obj.c ****                 lv_part_t part_ts = lv_obj_style_get_selector_part(selector);
 1591              		.loc 1 890 0
 1592 0188 3046     		mov	r0, r6
 1593 018a FFF7FEFF 		bl	lv_obj_style_get_selector_state
 1594              	.LVL203:
 1595 018e 0746     		mov	r7, r0
 1596              	.LVL204:
 891:Drivers/lvgl/lvgl/src/core/lv_obj.c ****                 if(ts[t].prop == tr->props[j] && part_ts == part_act && state_ts >= state_act) brea
 1597              		.loc 1 891 0
 1598 0190 3046     		mov	r0, r6
 1599 0192 FFF7FEFF 		bl	lv_obj_style_get_selector_part
 1600              	.LVL205:
 892:Drivers/lvgl/lvgl/src/core/lv_obj.c ****             }
 1601              		.loc 1 892 0
 1602 0196 2289     		ldrh	r2, [r4, #8]
 1603 0198 D8F80030 		ldr	r3, [r8]
 1604 019c 33F80930 		ldrh	r3, [r3, r9]
 1605 01a0 9A42     		cmp	r2, r3
 1606 01a2 E9D1     		bne	.L83
 892:Drivers/lvgl/lvgl/src/core/lv_obj.c ****             }
 1607              		.loc 1 892 0 is_stmt 0 discriminator 1
 1608 01a4 049B     		ldr	r3, [sp, #16]
 1609 01a6 BB42     		cmp	r3, r7
 1610 01a8 8CBF     		ite	hi
 1611 01aa 0027     		movhi	r7, #0
 1612              	.LVL206:
 1613 01ac 0127     		movls	r7, #1
 1614 01ae 059B     		ldr	r3, [sp, #20]
 1615 01b0 8342     		cmp	r3, r0
 1616 01b2 E1D1     		bne	.L83
 1617 01b4 002F     		cmp	r7, #0
 1618 01b6 DFD0     		beq	.L83
 1619              	.LVL207:
 1620              	.L84:
 1621              	.LBE191:
 896:Drivers/lvgl/lvgl/src/core/lv_obj.c ****                 ts[tsi].time = tr->time;
 1622              		.loc 1 896 0 is_stmt 1
 1623 01b8 AA45     		cmp	r10, r5
 1624 01ba 11D0     		beq	.L120
 1625              	.L87:
 1626              	.LBE190:
 886:Drivers/lvgl/lvgl/src/core/lv_obj.c ****             uint32_t t;
 1627              		.loc 1 886 0 discriminator 2
ARM GAS  /tmp/ccJvwpHF.s 			page 70


 1628 01bc 079B     		ldr	r3, [sp, #28]
 1629 01be 0133     		adds	r3, r3, #1
 1630 01c0 0793     		str	r3, [sp, #28]
 1631              	.LVL208:
 1632              	.L82:
 886:Drivers/lvgl/lvgl/src/core/lv_obj.c ****             uint32_t t;
 1633              		.loc 1 886 0 is_stmt 0 discriminator 1
 1634 01c2 D8F80030 		ldr	r3, [r8]
 1635 01c6 079A     		ldr	r2, [sp, #28]
 1636 01c8 4FEA4209 		lsl	r9, r2, #1
 1637 01cc 33F81230 		ldrh	r3, [r3, r2, lsl #1]
 1638 01d0 002B     		cmp	r3, #0
 1639 01d2 82D0     		beq	.L90
 886:Drivers/lvgl/lvgl/src/core/lv_obj.c ****             uint32_t t;
 1640              		.loc 1 886 0 discriminator 3
 1641 01d4 BAF11F0F 		cmp	r10, #31
 1642 01d8 3FF67FAF 		bhi	.L90
 1643              	.LBB192:
 888:Drivers/lvgl/lvgl/src/core/lv_obj.c ****                 lv_style_selector_t selector = ts[t].selector;
 1644              		.loc 1 888 0 is_stmt 1
 1645 01dc 0025     		movs	r5, #0
 1646 01de CCE7     		b	.L89
 1647              	.LVL209:
 1648              	.L120:
 897:Drivers/lvgl/lvgl/src/core/lv_obj.c ****                 ts[tsi].delay = tr->delay;
 1649              		.loc 1 897 0
 1650 01e0 D8F80C10 		ldr	r1, [r8, #12]
 1651 01e4 0AEB8A03 		add	r3, r10, r10, lsl #2
 1652 01e8 9A00     		lsls	r2, r3, #2
 1653 01ea 0BEB0203 		add	r3, fp, r2
 1654 01ee 2BF80210 		strh	r1, [fp, r2]	@ movhi
 898:Drivers/lvgl/lvgl/src/core/lv_obj.c ****                 ts[tsi].path_cb = tr->path_xcb;
 1655              		.loc 1 898 0
 1656 01f2 D8F81020 		ldr	r2, [r8, #16]
 1657 01f6 5A80     		strh	r2, [r3, #2]	@ movhi
 899:Drivers/lvgl/lvgl/src/core/lv_obj.c ****                 ts[tsi].prop = tr->props[j];
 1658              		.loc 1 899 0
 1659 01f8 D8F80820 		ldr	r2, [r8, #8]
 1660 01fc DA60     		str	r2, [r3, #12]
 900:Drivers/lvgl/lvgl/src/core/lv_obj.c **** #if LV_USE_USER_DATA
 1661              		.loc 1 900 0
 1662 01fe D8F80020 		ldr	r2, [r8]
 1663 0202 32F80920 		ldrh	r2, [r2, r9]
 1664 0206 1A81     		strh	r2, [r3, #8]	@ movhi
 902:Drivers/lvgl/lvgl/src/core/lv_obj.c **** #endif
 1665              		.loc 1 902 0
 1666 0208 D8F80420 		ldr	r2, [r8, #4]
 1667 020c 1A61     		str	r2, [r3, #16]
 904:Drivers/lvgl/lvgl/src/core/lv_obj.c ****                 tsi++;
 1668              		.loc 1 904 0
 1669 020e 099A     		ldr	r2, [sp, #36]
 1670 0210 5268     		ldr	r2, [r2, #4]
 1671 0212 C2F31702 		ubfx	r2, r2, #0, #24
 1672 0216 5A60     		str	r2, [r3, #4]
 905:Drivers/lvgl/lvgl/src/core/lv_obj.c ****             }
 1673              		.loc 1 905 0
 1674 0218 0AF1010A 		add	r10, r10, #1
ARM GAS  /tmp/ccJvwpHF.s 			page 71


 1675              	.LVL210:
 1676 021c CEE7     		b	.L87
 1677              	.LVL211:
 1678              	.L116:
 1679              	.LBE192:
 1680              	.LBE193:
 1681 021e 0025     		movs	r5, #0
 1682 0220 00E0     		b	.L93
 1683              	.L104:
 1684 0222 0025     		movs	r5, #0
 1685              	.LVL212:
 1686              	.L93:
 910:Drivers/lvgl/lvgl/src/core/lv_obj.c ****         lv_part_t part_act = lv_obj_style_get_selector_part(ts[i].selector);
 1687              		.loc 1 910 0 discriminator 1
 1688 0224 AA45     		cmp	r10, r5
 1689 0226 0FD9     		bls	.L121
 1690              	.LBB194:
 911:Drivers/lvgl/lvgl/src/core/lv_obj.c ****         _lv_obj_style_create_transition(obj, part_act, prev_state, new_state, &ts[i]);
 1691              		.loc 1 911 0 discriminator 3
 1692 0228 05EB8503 		add	r3, r5, r5, lsl #2
 1693 022c 9C00     		lsls	r4, r3, #2
 1694 022e 5C44     		add	r4, r4, fp
 1695 0230 6068     		ldr	r0, [r4, #4]
 1696 0232 FFF7FEFF 		bl	lv_obj_style_get_selector_part
 1697              	.LVL213:
 912:Drivers/lvgl/lvgl/src/core/lv_obj.c ****     }
 1698              		.loc 1 912 0 discriminator 3
 1699 0236 0094     		str	r4, [sp]
 1700 0238 069B     		ldr	r3, [sp, #24]
 1701 023a 089A     		ldr	r2, [sp, #32]
 1702 023c 0146     		mov	r1, r0
 1703 023e 0398     		ldr	r0, [sp, #12]
 1704              	.LVL214:
 1705 0240 FFF7FEFF 		bl	_lv_obj_style_create_transition
 1706              	.LVL215:
 1707              	.LBE194:
 910:Drivers/lvgl/lvgl/src/core/lv_obj.c ****         lv_part_t part_act = lv_obj_style_get_selector_part(ts[i].selector);
 1708              		.loc 1 910 0 discriminator 3
 1709 0244 0135     		adds	r5, r5, #1
 1710              	.LVL216:
 1711 0246 EDE7     		b	.L93
 1712              	.L121:
 915:Drivers/lvgl/lvgl/src/core/lv_obj.c **** 
 1713              		.loc 1 915 0
 1714 0248 5846     		mov	r0, fp
 1715 024a FFF7FEFF 		bl	lv_mem_buf_release
 1716              	.LVL217:
 917:Drivers/lvgl/lvgl/src/core/lv_obj.c ****         lv_obj_invalidate(obj);
 1717              		.loc 1 917 0
 1718 024e 0A9B     		ldr	r3, [sp, #40]
 1719 0250 012B     		cmp	r3, #1
 1720 0252 0ED0     		beq	.L122
 920:Drivers/lvgl/lvgl/src/core/lv_obj.c ****         lv_obj_refresh_style(obj, LV_PART_ANY, LV_STYLE_PROP_ANY);
 1721              		.loc 1 920 0
 1722 0254 0A9B     		ldr	r3, [sp, #40]
 1723 0256 032B     		cmp	r3, #3
 1724 0258 0FD0     		beq	.L123
ARM GAS  /tmp/ccJvwpHF.s 			page 72


 923:Drivers/lvgl/lvgl/src/core/lv_obj.c ****         lv_obj_invalidate(obj);
 1725              		.loc 1 923 0
 1726 025a 0A9B     		ldr	r3, [sp, #40]
 1727 025c 022B     		cmp	r3, #2
 1728 025e 7FF4E0AE 		bne	.L66
 924:Drivers/lvgl/lvgl/src/core/lv_obj.c ****         lv_obj_refresh_ext_draw_size(obj);
 1729              		.loc 1 924 0
 1730 0262 039C     		ldr	r4, [sp, #12]
 1731 0264 2046     		mov	r0, r4
 1732 0266 FFF7FEFF 		bl	lv_obj_invalidate
 1733              	.LVL218:
 925:Drivers/lvgl/lvgl/src/core/lv_obj.c ****     }
 1734              		.loc 1 925 0
 1735 026a 2046     		mov	r0, r4
 1736 026c FFF7FEFF 		bl	lv_obj_refresh_ext_draw_size
 1737              	.LVL219:
 1738 0270 D7E6     		b	.L66
 1739              	.L122:
 918:Drivers/lvgl/lvgl/src/core/lv_obj.c ****     }
 1740              		.loc 1 918 0
 1741 0272 0398     		ldr	r0, [sp, #12]
 1742 0274 FFF7FEFF 		bl	lv_obj_invalidate
 1743              	.LVL220:
 1744 0278 D3E6     		b	.L66
 1745              	.L123:
 921:Drivers/lvgl/lvgl/src/core/lv_obj.c ****     }
 1746              		.loc 1 921 0
 1747 027a 4FF6FF72 		movw	r2, #65535
 1748 027e 4FF47021 		mov	r1, #983040
 1749 0282 0398     		ldr	r0, [sp, #12]
 1750 0284 FFF7FEFF 		bl	lv_obj_refresh_style
 1751              	.LVL221:
 1752 0288 CBE6     		b	.L66
 1753              		.cfi_endproc
 1754              	.LFE226:
 1756              		.section	.text.lv_is_initialized,"ax",%progbits
 1757              		.align	1
 1758              		.global	lv_is_initialized
 1759              		.syntax unified
 1760              		.thumb
 1761              		.thumb_func
 1762              		.fpu fpv5-d16
 1764              	lv_is_initialized:
 1765              	.LFB202:
  90:Drivers/lvgl/lvgl/src/core/lv_obj.c ****     return lv_initialized;
 1766              		.loc 1 90 0
 1767              		.cfi_startproc
 1768              		@ args = 0, pretend = 0, frame = 0
 1769              		@ frame_needed = 0, uses_anonymous_args = 0
 1770              		@ link register save eliminated.
  92:Drivers/lvgl/lvgl/src/core/lv_obj.c **** 
 1771              		.loc 1 92 0
 1772 0000 014B     		ldr	r3, .L125
 1773 0002 1878     		ldrb	r0, [r3]	@ zero_extendqisi2
 1774 0004 7047     		bx	lr
 1775              	.L126:
 1776 0006 00BF     		.align	2
ARM GAS  /tmp/ccJvwpHF.s 			page 73


 1777              	.L125:
 1778 0008 00000000 		.word	.LANCHOR1
 1779              		.cfi_endproc
 1780              	.LFE202:
 1782              		.section	.text.lv_init,"ax",%progbits
 1783              		.align	1
 1784              		.global	lv_init
 1785              		.syntax unified
 1786              		.thumb
 1787              		.thumb_func
 1788              		.fpu fpv5-d16
 1790              	lv_init:
 1791              	.LFB203:
  95:Drivers/lvgl/lvgl/src/core/lv_obj.c ****     /*Do nothing if already initialized*/
 1792              		.loc 1 95 0
 1793              		.cfi_startproc
 1794              		@ args = 0, pretend = 0, frame = 0
 1795              		@ frame_needed = 0, uses_anonymous_args = 0
 1796 0000 08B5     		push	{r3, lr}
 1797              	.LCFI15:
 1798              		.cfi_def_cfa_offset 8
 1799              		.cfi_offset 3, -8
 1800              		.cfi_offset 14, -4
  97:Drivers/lvgl/lvgl/src/core/lv_obj.c ****         LV_LOG_WARN("lv_init: already inited");
 1801              		.loc 1 97 0
 1802 0002 124B     		ldr	r3, .L131
 1803 0004 1B78     		ldrb	r3, [r3]	@ zero_extendqisi2
 1804 0006 03B1     		cbz	r3, .L130
 1805              	.L127:
 184:Drivers/lvgl/lvgl/src/core/lv_obj.c **** 
 1806              		.loc 1 184 0
 1807 0008 08BD     		pop	{r3, pc}
 1808              	.L130:
 105:Drivers/lvgl/lvgl/src/core/lv_obj.c **** 
 1809              		.loc 1 105 0
 1810 000a FFF7FEFF 		bl	lv_mem_init
 1811              	.LVL222:
 107:Drivers/lvgl/lvgl/src/core/lv_obj.c **** 
 1812              		.loc 1 107 0
 1813 000e FFF7FEFF 		bl	_lv_timer_core_init
 1814              	.LVL223:
 109:Drivers/lvgl/lvgl/src/core/lv_obj.c **** 
 1815              		.loc 1 109 0
 1816 0012 FFF7FEFF 		bl	_lv_fs_init
 1817              	.LVL224:
 111:Drivers/lvgl/lvgl/src/core/lv_obj.c **** 
 1818              		.loc 1 111 0
 1819 0016 FFF7FEFF 		bl	_lv_anim_core_init
 1820              	.LVL225:
 113:Drivers/lvgl/lvgl/src/core/lv_obj.c **** 
 1821              		.loc 1 113 0
 1822 001a FFF7FEFF 		bl	_lv_group_init
 1823              	.LVL226:
 115:Drivers/lvgl/lvgl/src/core/lv_obj.c **** 
 1824              		.loc 1 115 0
 1825 001e FFF7FEFF 		bl	lv_draw_init
 1826              	.LVL227:
ARM GAS  /tmp/ccJvwpHF.s 			page 74


 131:Drivers/lvgl/lvgl/src/core/lv_obj.c ****     _lv_ll_init(&LV_GC_ROOT(_lv_disp_ll), sizeof(lv_disp_t));
 1827              		.loc 1 131 0
 1828 0022 FFF7FEFF 		bl	_lv_obj_style_init
 1829              	.LVL228:
 132:Drivers/lvgl/lvgl/src/core/lv_obj.c ****     _lv_ll_init(&LV_GC_ROOT(_lv_indev_ll), sizeof(lv_indev_t));
 1830              		.loc 1 132 0
 1831 0026 4FF4AE71 		mov	r1, #348
 1832 002a 0948     		ldr	r0, .L131+4
 1833 002c FFF7FEFF 		bl	_lv_ll_init
 1834              	.LVL229:
 133:Drivers/lvgl/lvgl/src/core/lv_obj.c **** 
 1835              		.loc 1 133 0
 1836 0030 5C21     		movs	r1, #92
 1837 0032 0848     		ldr	r0, .L131+8
 1838 0034 FFF7FEFF 		bl	_lv_ll_init
 1839              	.LVL230:
 136:Drivers/lvgl/lvgl/src/core/lv_obj.c **** 
 1840              		.loc 1 136 0
 1841 0038 FFF7FEFF 		bl	_lv_refr_init
 1842              	.LVL231:
 138:Drivers/lvgl/lvgl/src/core/lv_obj.c **** #if LV_IMG_CACHE_DEF_SIZE
 1843              		.loc 1 138 0
 1844 003c FFF7FEFF 		bl	_lv_img_decoder_init
 1845              	.LVL232:
 179:Drivers/lvgl/lvgl/src/core/lv_obj.c **** 
 1846              		.loc 1 179 0
 1847 0040 FFF7FEFF 		bl	lv_extra_init
 1848              	.LVL233:
 181:Drivers/lvgl/lvgl/src/core/lv_obj.c **** 
 1849              		.loc 1 181 0
 1850 0044 014B     		ldr	r3, .L131
 1851 0046 0122     		movs	r2, #1
 1852 0048 1A70     		strb	r2, [r3]
 1853              	.LVL234:
 1854 004a DDE7     		b	.L127
 1855              	.L132:
 1856              		.align	2
 1857              	.L131:
 1858 004c 00000000 		.word	.LANCHOR1
 1859 0050 00000000 		.word	_lv_disp_ll
 1860 0054 00000000 		.word	_lv_indev_ll
 1861              		.cfi_endproc
 1862              	.LFE203:
 1864              		.section	.text.lv_deinit,"ax",%progbits
 1865              		.align	1
 1866              		.global	lv_deinit
 1867              		.syntax unified
 1868              		.thumb
 1869              		.thumb_func
 1870              		.fpu fpv5-d16
 1872              	lv_deinit:
 1873              	.LFB204:
 189:Drivers/lvgl/lvgl/src/core/lv_obj.c ****     _lv_gc_clear_roots();
 1874              		.loc 1 189 0
 1875              		.cfi_startproc
 1876              		@ args = 0, pretend = 0, frame = 0
 1877              		@ frame_needed = 0, uses_anonymous_args = 0
ARM GAS  /tmp/ccJvwpHF.s 			page 75


 1878 0000 08B5     		push	{r3, lr}
 1879              	.LCFI16:
 1880              		.cfi_def_cfa_offset 8
 1881              		.cfi_offset 3, -8
 1882              		.cfi_offset 14, -4
 190:Drivers/lvgl/lvgl/src/core/lv_obj.c **** 
 1883              		.loc 1 190 0
 1884 0002 FFF7FEFF 		bl	_lv_gc_clear_roots
 1885              	.LVL235:
 192:Drivers/lvgl/lvgl/src/core/lv_obj.c ****     lv_mem_deinit();
 1886              		.loc 1 192 0
 1887 0006 0020     		movs	r0, #0
 1888 0008 FFF7FEFF 		bl	lv_disp_set_default
 1889              	.LVL236:
 193:Drivers/lvgl/lvgl/src/core/lv_obj.c ****     lv_initialized = false;
 1890              		.loc 1 193 0
 1891 000c FFF7FEFF 		bl	lv_mem_deinit
 1892              	.LVL237:
 194:Drivers/lvgl/lvgl/src/core/lv_obj.c **** 
 1893              		.loc 1 194 0
 1894 0010 014B     		ldr	r3, .L135
 1895 0012 0022     		movs	r2, #0
 1896 0014 1A70     		strb	r2, [r3]
 201:Drivers/lvgl/lvgl/src/core/lv_obj.c **** #endif
 1897              		.loc 1 201 0
 1898 0016 08BD     		pop	{r3, pc}
 1899              	.L136:
 1900              		.align	2
 1901              	.L135:
 1902 0018 00000000 		.word	.LANCHOR1
 1903              		.cfi_endproc
 1904              	.LFE204:
 1906              		.section	.text.lv_obj_create,"ax",%progbits
 1907              		.align	1
 1908              		.global	lv_obj_create
 1909              		.syntax unified
 1910              		.thumb
 1911              		.thumb_func
 1912              		.fpu fpv5-d16
 1914              	lv_obj_create:
 1915              	.LFB205:
 205:Drivers/lvgl/lvgl/src/core/lv_obj.c ****     LV_LOG_INFO("begin");
 1916              		.loc 1 205 0
 1917              		.cfi_startproc
 1918              		@ args = 0, pretend = 0, frame = 0
 1919              		@ frame_needed = 0, uses_anonymous_args = 0
 1920              	.LVL238:
 1921 0000 10B5     		push	{r4, lr}
 1922              	.LCFI17:
 1923              		.cfi_def_cfa_offset 8
 1924              		.cfi_offset 4, -8
 1925              		.cfi_offset 14, -4
 207:Drivers/lvgl/lvgl/src/core/lv_obj.c ****     lv_obj_class_init_obj(obj);
 1926              		.loc 1 207 0
 1927 0002 0146     		mov	r1, r0
 1928 0004 0348     		ldr	r0, .L139
 1929              	.LVL239:
ARM GAS  /tmp/ccJvwpHF.s 			page 76


 1930 0006 FFF7FEFF 		bl	lv_obj_class_create_obj
 1931              	.LVL240:
 1932 000a 0446     		mov	r4, r0
 1933              	.LVL241:
 208:Drivers/lvgl/lvgl/src/core/lv_obj.c ****     return obj;
 1934              		.loc 1 208 0
 1935 000c FFF7FEFF 		bl	lv_obj_class_init_obj
 1936              	.LVL242:
 210:Drivers/lvgl/lvgl/src/core/lv_obj.c **** 
 1937              		.loc 1 210 0
 1938 0010 2046     		mov	r0, r4
 1939 0012 10BD     		pop	{r4, pc}
 1940              	.LVL243:
 1941              	.L140:
 1942              		.align	2
 1943              	.L139:
 1944 0014 00000000 		.word	.LANCHOR0
 1945              		.cfi_endproc
 1946              	.LFE205:
 1948              		.section	.text.lv_obj_add_flag,"ax",%progbits
 1949              		.align	1
 1950              		.global	lv_obj_add_flag
 1951              		.syntax unified
 1952              		.thumb
 1953              		.thumb_func
 1954              		.fpu fpv5-d16
 1956              	lv_obj_add_flag:
 1957              	.LFB206:
 221:Drivers/lvgl/lvgl/src/core/lv_obj.c ****     LV_ASSERT_OBJ(obj, MY_CLASS);
 1958              		.loc 1 221 0
 1959              		.cfi_startproc
 1960              		@ args = 0, pretend = 0, frame = 16
 1961              		@ frame_needed = 0, uses_anonymous_args = 0
 1962              	.LVL244:
 1963 0000 F0B5     		push	{r4, r5, r6, r7, lr}
 1964              	.LCFI18:
 1965              		.cfi_def_cfa_offset 20
 1966              		.cfi_offset 4, -20
 1967              		.cfi_offset 5, -16
 1968              		.cfi_offset 6, -12
 1969              		.cfi_offset 7, -8
 1970              		.cfi_offset 14, -4
 1971 0002 85B0     		sub	sp, sp, #20
 1972              	.LCFI19:
 1973              		.cfi_def_cfa_offset 40
 1974 0004 0446     		mov	r4, r0
 1975 0006 0D46     		mov	r5, r1
 224:Drivers/lvgl/lvgl/src/core/lv_obj.c **** 
 1976              		.loc 1 224 0
 1977 0008 FFF7FEFF 		bl	lv_obj_is_layout_positioned
 1978              	.LVL245:
 1979 000c 0646     		mov	r6, r0
 1980              	.LVL246:
 226:Drivers/lvgl/lvgl/src/core/lv_obj.c **** 
 1981              		.loc 1 226 0
 1982 000e 15F00107 		ands	r7, r5, #1
 1983 0012 18D1     		bne	.L148
ARM GAS  /tmp/ccJvwpHF.s 			page 77


 1984              	.L142:
 228:Drivers/lvgl/lvgl/src/core/lv_obj.c **** 
 1985              		.loc 1 228 0
 1986 0014 E369     		ldr	r3, [r4, #28]
 1987 0016 2B43     		orrs	r3, r3, r5
 1988 0018 E361     		str	r3, [r4, #28]
 230:Drivers/lvgl/lvgl/src/core/lv_obj.c ****         lv_obj_invalidate(obj);
 1989              		.loc 1 230 0
 1990 001a C7B9     		cbnz	r7, .L149
 1991              	.L143:
 234:Drivers/lvgl/lvgl/src/core/lv_obj.c ****         lv_obj_mark_layout_as_dirty(lv_obj_get_parent(obj));
 1992              		.loc 1 234 0
 1993 001c 2046     		mov	r0, r4
 1994 001e FFF7FEFF 		bl	lv_obj_is_layout_positioned
 1995              	.LVL247:
 1996 0022 B042     		cmp	r0, r6
 1997 0024 02D1     		bne	.L144
 234:Drivers/lvgl/lvgl/src/core/lv_obj.c ****         lv_obj_mark_layout_as_dirty(lv_obj_get_parent(obj));
 1998              		.loc 1 234 0 is_stmt 0 discriminator 1
 1999 0026 15F0C07F 		tst	r5, #25165824
 2000 002a 07D0     		beq	.L145
 2001              	.L144:
 235:Drivers/lvgl/lvgl/src/core/lv_obj.c ****         lv_obj_mark_layout_as_dirty(obj);
 2002              		.loc 1 235 0 is_stmt 1
 2003 002c 2046     		mov	r0, r4
 2004 002e FFF7FEFF 		bl	lv_obj_get_parent
 2005              	.LVL248:
 2006 0032 FFF7FEFF 		bl	lv_obj_mark_layout_as_dirty
 2007              	.LVL249:
 236:Drivers/lvgl/lvgl/src/core/lv_obj.c ****     }
 2008              		.loc 1 236 0
 2009 0036 2046     		mov	r0, r4
 2010 0038 FFF7FEFF 		bl	lv_obj_mark_layout_as_dirty
 2011              	.LVL250:
 2012              	.L145:
 239:Drivers/lvgl/lvgl/src/core/lv_obj.c ****         lv_area_t hor_area, ver_area;
 2013              		.loc 1 239 0
 2014 003c 15F0100F 		tst	r5, #16
 2015 0040 09D1     		bne	.L150
 2016              	.L141:
 245:Drivers/lvgl/lvgl/src/core/lv_obj.c **** 
 2017              		.loc 1 245 0
 2018 0042 05B0     		add	sp, sp, #20
 2019              	.LCFI20:
 2020              		.cfi_remember_state
 2021              		.cfi_def_cfa_offset 20
 2022              		@ sp needed
 2023 0044 F0BD     		pop	{r4, r5, r6, r7, pc}
 2024              	.LVL251:
 2025              	.L148:
 2026              	.LCFI21:
 2027              		.cfi_restore_state
 226:Drivers/lvgl/lvgl/src/core/lv_obj.c **** 
 2028              		.loc 1 226 0 discriminator 1
 2029 0046 2046     		mov	r0, r4
 2030 0048 FFF7FEFF 		bl	lv_obj_invalidate
 2031              	.LVL252:
ARM GAS  /tmp/ccJvwpHF.s 			page 78


 2032 004c E2E7     		b	.L142
 2033              	.L149:
 231:Drivers/lvgl/lvgl/src/core/lv_obj.c ****     }
 2034              		.loc 1 231 0
 2035 004e 2046     		mov	r0, r4
 2036 0050 FFF7FEFF 		bl	lv_obj_invalidate
 2037              	.LVL253:
 2038 0054 E2E7     		b	.L143
 2039              	.L150:
 2040              	.LBB195:
 241:Drivers/lvgl/lvgl/src/core/lv_obj.c ****         lv_obj_invalidate_area(obj, &hor_area);
 2041              		.loc 1 241 0
 2042 0056 02AA     		add	r2, sp, #8
 2043 0058 6946     		mov	r1, sp
 2044 005a 2046     		mov	r0, r4
 2045 005c FFF7FEFF 		bl	lv_obj_get_scrollbar_area
 2046              	.LVL254:
 242:Drivers/lvgl/lvgl/src/core/lv_obj.c ****         lv_obj_invalidate_area(obj, &ver_area);
 2047              		.loc 1 242 0
 2048 0060 6946     		mov	r1, sp
 2049 0062 2046     		mov	r0, r4
 2050 0064 FFF7FEFF 		bl	lv_obj_invalidate_area
 2051              	.LVL255:
 243:Drivers/lvgl/lvgl/src/core/lv_obj.c ****     }
 2052              		.loc 1 243 0
 2053 0068 02A9     		add	r1, sp, #8
 2054 006a 2046     		mov	r0, r4
 2055 006c FFF7FEFF 		bl	lv_obj_invalidate_area
 2056              	.LVL256:
 2057              	.LBE195:
 245:Drivers/lvgl/lvgl/src/core/lv_obj.c **** 
 2058              		.loc 1 245 0
 2059 0070 E7E7     		b	.L141
 2060              		.cfi_endproc
 2061              	.LFE206:
 2063              		.section	.text.lv_obj_clear_flag,"ax",%progbits
 2064              		.align	1
 2065              		.global	lv_obj_clear_flag
 2066              		.syntax unified
 2067              		.thumb
 2068              		.thumb_func
 2069              		.fpu fpv5-d16
 2071              	lv_obj_clear_flag:
 2072              	.LFB207:
 248:Drivers/lvgl/lvgl/src/core/lv_obj.c ****     LV_ASSERT_OBJ(obj, MY_CLASS);
 2073              		.loc 1 248 0
 2074              		.cfi_startproc
 2075              		@ args = 0, pretend = 0, frame = 16
 2076              		@ frame_needed = 0, uses_anonymous_args = 0
 2077              	.LVL257:
 2078 0000 70B5     		push	{r4, r5, r6, lr}
 2079              	.LCFI22:
 2080              		.cfi_def_cfa_offset 16
 2081              		.cfi_offset 4, -16
 2082              		.cfi_offset 5, -12
 2083              		.cfi_offset 6, -8
 2084              		.cfi_offset 14, -4
ARM GAS  /tmp/ccJvwpHF.s 			page 79


 2085 0002 84B0     		sub	sp, sp, #16
 2086              	.LCFI23:
 2087              		.cfi_def_cfa_offset 32
 2088 0004 0446     		mov	r4, r0
 2089 0006 0D46     		mov	r5, r1
 251:Drivers/lvgl/lvgl/src/core/lv_obj.c ****     if(f & LV_OBJ_FLAG_SCROLLABLE) {
 2090              		.loc 1 251 0
 2091 0008 FFF7FEFF 		bl	lv_obj_is_layout_positioned
 2092              	.LVL258:
 2093 000c 0646     		mov	r6, r0
 2094              	.LVL259:
 252:Drivers/lvgl/lvgl/src/core/lv_obj.c ****         lv_area_t hor_area, ver_area;
 2095              		.loc 1 252 0
 2096 000e 15F0100F 		tst	r5, #16
 2097 0012 15D1     		bne	.L157
 2098              	.L152:
 259:Drivers/lvgl/lvgl/src/core/lv_obj.c **** 
 2099              		.loc 1 259 0
 2100 0014 E369     		ldr	r3, [r4, #28]
 2101 0016 23EA0503 		bic	r3, r3, r5
 2102 001a E361     		str	r3, [r4, #28]
 261:Drivers/lvgl/lvgl/src/core/lv_obj.c ****         lv_obj_invalidate(obj);
 2103              		.loc 1 261 0
 2104 001c 15F0010F 		tst	r5, #1
 2105 0020 1CD1     		bne	.L158
 2106              	.L153:
 269:Drivers/lvgl/lvgl/src/core/lv_obj.c ****         lv_obj_mark_layout_as_dirty(lv_obj_get_parent(obj));
 2107              		.loc 1 269 0
 2108 0022 2046     		mov	r0, r4
 2109 0024 FFF7FEFF 		bl	lv_obj_is_layout_positioned
 2110              	.LVL260:
 2111 0028 B042     		cmp	r0, r6
 2112 002a 02D1     		bne	.L154
 269:Drivers/lvgl/lvgl/src/core/lv_obj.c ****         lv_obj_mark_layout_as_dirty(lv_obj_get_parent(obj));
 2113              		.loc 1 269 0 is_stmt 0 discriminator 1
 2114 002c 15F0C07F 		tst	r5, #25165824
 2115 0030 04D0     		beq	.L151
 2116              	.L154:
 270:Drivers/lvgl/lvgl/src/core/lv_obj.c ****     }
 2117              		.loc 1 270 0 is_stmt 1
 2118 0032 2046     		mov	r0, r4
 2119 0034 FFF7FEFF 		bl	lv_obj_get_parent
 2120              	.LVL261:
 2121 0038 FFF7FEFF 		bl	lv_obj_mark_layout_as_dirty
 2122              	.LVL262:
 2123              	.L151:
 273:Drivers/lvgl/lvgl/src/core/lv_obj.c **** 
 2124              		.loc 1 273 0
 2125 003c 04B0     		add	sp, sp, #16
 2126              	.LCFI24:
 2127              		.cfi_remember_state
 2128              		.cfi_def_cfa_offset 16
 2129              		@ sp needed
 2130 003e 70BD     		pop	{r4, r5, r6, pc}
 2131              	.LVL263:
 2132              	.L157:
 2133              	.LCFI25:
ARM GAS  /tmp/ccJvwpHF.s 			page 80


 2134              		.cfi_restore_state
 2135              	.LBB196:
 254:Drivers/lvgl/lvgl/src/core/lv_obj.c ****         lv_obj_invalidate_area(obj, &hor_area);
 2136              		.loc 1 254 0
 2137 0040 02AA     		add	r2, sp, #8
 2138 0042 6946     		mov	r1, sp
 2139 0044 2046     		mov	r0, r4
 2140 0046 FFF7FEFF 		bl	lv_obj_get_scrollbar_area
 2141              	.LVL264:
 255:Drivers/lvgl/lvgl/src/core/lv_obj.c ****         lv_obj_invalidate_area(obj, &ver_area);
 2142              		.loc 1 255 0
 2143 004a 6946     		mov	r1, sp
 2144 004c 2046     		mov	r0, r4
 2145 004e FFF7FEFF 		bl	lv_obj_invalidate_area
 2146              	.LVL265:
 256:Drivers/lvgl/lvgl/src/core/lv_obj.c ****     }
 2147              		.loc 1 256 0
 2148 0052 02A9     		add	r1, sp, #8
 2149 0054 2046     		mov	r0, r4
 2150 0056 FFF7FEFF 		bl	lv_obj_invalidate_area
 2151              	.LVL266:
 2152 005a DBE7     		b	.L152
 2153              	.L158:
 2154              	.LBE196:
 262:Drivers/lvgl/lvgl/src/core/lv_obj.c ****         if(lv_obj_is_layout_positioned(obj)) {
 2155              		.loc 1 262 0
 2156 005c 2046     		mov	r0, r4
 2157 005e FFF7FEFF 		bl	lv_obj_invalidate
 2158              	.LVL267:
 263:Drivers/lvgl/lvgl/src/core/lv_obj.c ****             lv_obj_mark_layout_as_dirty(lv_obj_get_parent(obj));
 2159              		.loc 1 263 0
 2160 0062 2046     		mov	r0, r4
 2161 0064 FFF7FEFF 		bl	lv_obj_is_layout_positioned
 2162              	.LVL268:
 2163 0068 0028     		cmp	r0, #0
 2164 006a DAD0     		beq	.L153
 264:Drivers/lvgl/lvgl/src/core/lv_obj.c ****             lv_obj_mark_layout_as_dirty(obj);
 2165              		.loc 1 264 0
 2166 006c 2046     		mov	r0, r4
 2167 006e FFF7FEFF 		bl	lv_obj_get_parent
 2168              	.LVL269:
 2169 0072 FFF7FEFF 		bl	lv_obj_mark_layout_as_dirty
 2170              	.LVL270:
 265:Drivers/lvgl/lvgl/src/core/lv_obj.c ****         }
 2171              		.loc 1 265 0
 2172 0076 2046     		mov	r0, r4
 2173 0078 FFF7FEFF 		bl	lv_obj_mark_layout_as_dirty
 2174              	.LVL271:
 2175 007c D1E7     		b	.L153
 2176              		.cfi_endproc
 2177              	.LFE207:
 2179              		.section	.text.lv_obj_add_state,"ax",%progbits
 2180              		.align	1
 2181              		.global	lv_obj_add_state
 2182              		.syntax unified
 2183              		.thumb
 2184              		.thumb_func
ARM GAS  /tmp/ccJvwpHF.s 			page 81


 2185              		.fpu fpv5-d16
 2187              	lv_obj_add_state:
 2188              	.LFB208:
 276:Drivers/lvgl/lvgl/src/core/lv_obj.c ****     LV_ASSERT_OBJ(obj, MY_CLASS);
 2189              		.loc 1 276 0
 2190              		.cfi_startproc
 2191              		@ args = 0, pretend = 0, frame = 0
 2192              		@ frame_needed = 0, uses_anonymous_args = 0
 2193              	.LVL272:
 2194 0000 08B5     		push	{r3, lr}
 2195              	.LCFI26:
 2196              		.cfi_def_cfa_offset 8
 2197              		.cfi_offset 3, -8
 2198              		.cfi_offset 14, -4
 279:Drivers/lvgl/lvgl/src/core/lv_obj.c ****     if(obj->state != new_state) {
 2199              		.loc 1 279 0
 2200 0002 038C     		ldrh	r3, [r0, #32]
 2201 0004 1943     		orrs	r1, r1, r3
 2202              	.LVL273:
 280:Drivers/lvgl/lvgl/src/core/lv_obj.c ****         lv_obj_set_state(obj, new_state);
 2203              		.loc 1 280 0
 2204 0006 8B42     		cmp	r3, r1
 2205 0008 01D0     		beq	.L159
 281:Drivers/lvgl/lvgl/src/core/lv_obj.c ****     }
 2206              		.loc 1 281 0
 2207 000a FFF7FEFF 		bl	lv_obj_set_state
 2208              	.LVL274:
 2209              	.L159:
 283:Drivers/lvgl/lvgl/src/core/lv_obj.c **** 
 2210              		.loc 1 283 0
 2211 000e 08BD     		pop	{r3, pc}
 2212              		.cfi_endproc
 2213              	.LFE208:
 2215              		.section	.text.lv_obj_clear_state,"ax",%progbits
 2216              		.align	1
 2217              		.global	lv_obj_clear_state
 2218              		.syntax unified
 2219              		.thumb
 2220              		.thumb_func
 2221              		.fpu fpv5-d16
 2223              	lv_obj_clear_state:
 2224              	.LFB209:
 286:Drivers/lvgl/lvgl/src/core/lv_obj.c ****     LV_ASSERT_OBJ(obj, MY_CLASS);
 2225              		.loc 1 286 0
 2226              		.cfi_startproc
 2227              		@ args = 0, pretend = 0, frame = 0
 2228              		@ frame_needed = 0, uses_anonymous_args = 0
 2229              	.LVL275:
 2230 0000 08B5     		push	{r3, lr}
 2231              	.LCFI27:
 2232              		.cfi_def_cfa_offset 8
 2233              		.cfi_offset 3, -8
 2234              		.cfi_offset 14, -4
 289:Drivers/lvgl/lvgl/src/core/lv_obj.c ****     if(obj->state != new_state) {
 2235              		.loc 1 289 0
 2236 0002 028C     		ldrh	r2, [r0, #32]
 2237 0004 13B2     		sxth	r3, r2
ARM GAS  /tmp/ccJvwpHF.s 			page 82


 2238 0006 23EA0101 		bic	r1, r3, r1
 2239              	.LVL276:
 2240 000a 89B2     		uxth	r1, r1
 2241              	.LVL277:
 290:Drivers/lvgl/lvgl/src/core/lv_obj.c ****         lv_obj_set_state(obj, new_state);
 2242              		.loc 1 290 0
 2243 000c 8A42     		cmp	r2, r1
 2244 000e 01D0     		beq	.L162
 291:Drivers/lvgl/lvgl/src/core/lv_obj.c ****     }
 2245              		.loc 1 291 0
 2246 0010 FFF7FEFF 		bl	lv_obj_set_state
 2247              	.LVL278:
 2248              	.L162:
 293:Drivers/lvgl/lvgl/src/core/lv_obj.c **** 
 2249              		.loc 1 293 0
 2250 0014 08BD     		pop	{r3, pc}
 2251              		.cfi_endproc
 2252              	.LFE209:
 2254              		.section	.text.lv_obj_has_flag,"ax",%progbits
 2255              		.align	1
 2256              		.global	lv_obj_has_flag
 2257              		.syntax unified
 2258              		.thumb
 2259              		.thumb_func
 2260              		.fpu fpv5-d16
 2262              	lv_obj_has_flag:
 2263              	.LFB210:
 300:Drivers/lvgl/lvgl/src/core/lv_obj.c ****     LV_ASSERT_OBJ(obj, MY_CLASS);
 2264              		.loc 1 300 0
 2265              		.cfi_startproc
 2266              		@ args = 0, pretend = 0, frame = 0
 2267              		@ frame_needed = 0, uses_anonymous_args = 0
 2268              		@ link register save eliminated.
 2269              	.LVL279:
 303:Drivers/lvgl/lvgl/src/core/lv_obj.c **** }
 2270              		.loc 1 303 0
 2271 0000 C369     		ldr	r3, [r0, #28]
 2272 0002 31EA0303 		bics	r3, r1, r3
 304:Drivers/lvgl/lvgl/src/core/lv_obj.c **** 
 2273              		.loc 1 304 0
 2274 0006 0CBF     		ite	eq
 2275 0008 0120     		moveq	r0, #1
 2276              	.LVL280:
 2277 000a 0020     		movne	r0, #0
 2278 000c 7047     		bx	lr
 2279              		.cfi_endproc
 2280              	.LFE210:
 2282              		.section	.text.lv_obj_has_flag_any,"ax",%progbits
 2283              		.align	1
 2284              		.global	lv_obj_has_flag_any
 2285              		.syntax unified
 2286              		.thumb
 2287              		.thumb_func
 2288              		.fpu fpv5-d16
 2290              	lv_obj_has_flag_any:
 2291              	.LFB211:
 307:Drivers/lvgl/lvgl/src/core/lv_obj.c ****     LV_ASSERT_OBJ(obj, MY_CLASS);
ARM GAS  /tmp/ccJvwpHF.s 			page 83


 2292              		.loc 1 307 0
 2293              		.cfi_startproc
 2294              		@ args = 0, pretend = 0, frame = 0
 2295              		@ frame_needed = 0, uses_anonymous_args = 0
 2296              		@ link register save eliminated.
 2297              	.LVL281:
 310:Drivers/lvgl/lvgl/src/core/lv_obj.c **** }
 2298              		.loc 1 310 0
 2299 0000 C369     		ldr	r3, [r0, #28]
 2300 0002 0B42     		tst	r3, r1
 311:Drivers/lvgl/lvgl/src/core/lv_obj.c **** 
 2301              		.loc 1 311 0
 2302 0004 14BF     		ite	ne
 2303 0006 0120     		movne	r0, #1
 2304              	.LVL282:
 2305 0008 0020     		moveq	r0, #0
 2306 000a 7047     		bx	lr
 2307              		.cfi_endproc
 2308              	.LFE211:
 2310              		.section	.text.lv_obj_get_state,"ax",%progbits
 2311              		.align	1
 2312              		.global	lv_obj_get_state
 2313              		.syntax unified
 2314              		.thumb
 2315              		.thumb_func
 2316              		.fpu fpv5-d16
 2318              	lv_obj_get_state:
 2319              	.LFB212:
 314:Drivers/lvgl/lvgl/src/core/lv_obj.c ****     LV_ASSERT_OBJ(obj, MY_CLASS);
 2320              		.loc 1 314 0
 2321              		.cfi_startproc
 2322              		@ args = 0, pretend = 0, frame = 0
 2323              		@ frame_needed = 0, uses_anonymous_args = 0
 2324              		@ link register save eliminated.
 2325              	.LVL283:
 318:Drivers/lvgl/lvgl/src/core/lv_obj.c **** 
 2326              		.loc 1 318 0
 2327 0000 008C     		ldrh	r0, [r0, #32]
 2328              	.LVL284:
 2329 0002 7047     		bx	lr
 2330              		.cfi_endproc
 2331              	.LFE212:
 2333              		.section	.text.lv_obj_has_state,"ax",%progbits
 2334              		.align	1
 2335              		.global	lv_obj_has_state
 2336              		.syntax unified
 2337              		.thumb
 2338              		.thumb_func
 2339              		.fpu fpv5-d16
 2341              	lv_obj_has_state:
 2342              	.LFB213:
 321:Drivers/lvgl/lvgl/src/core/lv_obj.c ****     LV_ASSERT_OBJ(obj, MY_CLASS);
 2343              		.loc 1 321 0
 2344              		.cfi_startproc
 2345              		@ args = 0, pretend = 0, frame = 0
 2346              		@ frame_needed = 0, uses_anonymous_args = 0
 2347              		@ link register save eliminated.
ARM GAS  /tmp/ccJvwpHF.s 			page 84


 2348              	.LVL285:
 324:Drivers/lvgl/lvgl/src/core/lv_obj.c **** }
 2349              		.loc 1 324 0
 2350 0000 038C     		ldrh	r3, [r0, #32]
 2351 0002 0B42     		tst	r3, r1
 325:Drivers/lvgl/lvgl/src/core/lv_obj.c **** 
 2352              		.loc 1 325 0
 2353 0004 14BF     		ite	ne
 2354 0006 0120     		movne	r0, #1
 2355              	.LVL286:
 2356 0008 0020     		moveq	r0, #0
 2357 000a 7047     		bx	lr
 2358              		.cfi_endproc
 2359              	.LFE213:
 2361              		.section	.text.lv_obj_get_group,"ax",%progbits
 2362              		.align	1
 2363              		.global	lv_obj_get_group
 2364              		.syntax unified
 2365              		.thumb
 2366              		.thumb_func
 2367              		.fpu fpv5-d16
 2369              	lv_obj_get_group:
 2370              	.LFB214:
 328:Drivers/lvgl/lvgl/src/core/lv_obj.c ****     LV_ASSERT_OBJ(obj, MY_CLASS);
 2371              		.loc 1 328 0
 2372              		.cfi_startproc
 2373              		@ args = 0, pretend = 0, frame = 0
 2374              		@ frame_needed = 0, uses_anonymous_args = 0
 2375              		@ link register save eliminated.
 2376              	.LVL287:
 331:Drivers/lvgl/lvgl/src/core/lv_obj.c ****     else return NULL;
 2377              		.loc 1 331 0
 2378 0000 8368     		ldr	r3, [r0, #8]
 2379 0002 0BB1     		cbz	r3, .L171
 331:Drivers/lvgl/lvgl/src/core/lv_obj.c ****     else return NULL;
 2380              		.loc 1 331 0 is_stmt 0 discriminator 1
 2381 0004 9868     		ldr	r0, [r3, #8]
 2382              	.LVL288:
 2383 0006 7047     		bx	lr
 2384              	.LVL289:
 2385              	.L171:
 332:Drivers/lvgl/lvgl/src/core/lv_obj.c **** }
 2386              		.loc 1 332 0 is_stmt 1
 2387 0008 0020     		movs	r0, #0
 2388              	.LVL290:
 333:Drivers/lvgl/lvgl/src/core/lv_obj.c **** 
 2389              		.loc 1 333 0
 2390 000a 7047     		bx	lr
 2391              		.cfi_endproc
 2392              	.LFE214:
 2394              		.section	.text.lv_obj_event,"ax",%progbits
 2395              		.align	1
 2396              		.syntax unified
 2397              		.thumb
 2398              		.thumb_func
 2399              		.fpu fpv5-d16
 2401              	lv_obj_event:
ARM GAS  /tmp/ccJvwpHF.s 			page 85


 2402              	.LFB225:
 702:Drivers/lvgl/lvgl/src/core/lv_obj.c ****     LV_UNUSED(class_p);
 2403              		.loc 1 702 0
 2404              		.cfi_startproc
 2405              		@ args = 0, pretend = 0, frame = 16
 2406              		@ frame_needed = 0, uses_anonymous_args = 0
 2407              	.LVL291:
 2408 0000 F0B5     		push	{r4, r5, r6, r7, lr}
 2409              	.LCFI28:
 2410              		.cfi_def_cfa_offset 20
 2411              		.cfi_offset 4, -20
 2412              		.cfi_offset 5, -16
 2413              		.cfi_offset 6, -12
 2414              		.cfi_offset 7, -8
 2415              		.cfi_offset 14, -4
 2416 0002 85B0     		sub	sp, sp, #20
 2417              	.LCFI29:
 2418              		.cfi_def_cfa_offset 40
 2419 0004 0E46     		mov	r6, r1
 705:Drivers/lvgl/lvgl/src/core/lv_obj.c ****     lv_obj_t * obj = lv_event_get_current_target(e);
 2420              		.loc 1 705 0
 2421 0006 0846     		mov	r0, r1
 2422              	.LVL292:
 2423 0008 FFF7FEFF 		bl	lv_event_get_code
 2424              	.LVL293:
 2425 000c 0446     		mov	r4, r0
 2426              	.LVL294:
 706:Drivers/lvgl/lvgl/src/core/lv_obj.c ****     if(code == LV_EVENT_PRESSED) {
 2427              		.loc 1 706 0
 2428 000e 3046     		mov	r0, r6
 2429 0010 FFF7FEFF 		bl	lv_event_get_current_target
 2430              	.LVL295:
 2431 0014 0546     		mov	r5, r0
 2432              	.LVL296:
 707:Drivers/lvgl/lvgl/src/core/lv_obj.c ****         lv_obj_add_state(obj, LV_STATE_PRESSED);
 2433              		.loc 1 707 0
 2434 0016 012C     		cmp	r4, #1
 2435 0018 26D0     		beq	.L216
 710:Drivers/lvgl/lvgl/src/core/lv_obj.c ****         lv_obj_clear_state(obj, LV_STATE_PRESSED);
 2436              		.loc 1 710 0
 2437 001a 082C     		cmp	r4, #8
 2438 001c 29D0     		beq	.L217
 722:Drivers/lvgl/lvgl/src/core/lv_obj.c ****         lv_obj_clear_state(obj, LV_STATE_PRESSED);
 2439              		.loc 1 722 0
 2440 001e 032C     		cmp	r4, #3
 2441 0020 4CD0     		beq	.L218
 725:Drivers/lvgl/lvgl/src/core/lv_obj.c ****         uint32_t child_cnt = lv_obj_get_child_cnt(obj);
 2442              		.loc 1 725 0
 2443 0022 2A2C     		cmp	r4, #42
 2444 0024 4ED0     		beq	.L219
 732:Drivers/lvgl/lvgl/src/core/lv_obj.c ****         if(lv_obj_has_flag(obj, LV_OBJ_FLAG_CHECKABLE)) {
 2445              		.loc 1 732 0
 2446 0026 0D2C     		cmp	r4, #13
 2447 0028 5BD0     		beq	.L220
 777:Drivers/lvgl/lvgl/src/core/lv_obj.c ****         if(lv_obj_has_flag(obj, LV_OBJ_FLAG_SCROLL_ON_FOCUS)) {
 2448              		.loc 1 777 0
 2449 002a 0E2C     		cmp	r4, #14
ARM GAS  /tmp/ccJvwpHF.s 			page 86


 2450 002c 00F02481 		beq	.L221
 803:Drivers/lvgl/lvgl/src/core/lv_obj.c ****         lv_obj_add_state(obj, LV_STATE_SCROLLED);
 2451              		.loc 1 803 0
 2452 0030 092C     		cmp	r4, #9
 2453 0032 00F05381 		beq	.L222
 806:Drivers/lvgl/lvgl/src/core/lv_obj.c ****         lv_obj_clear_state(obj, LV_STATE_SCROLLED);
 2454              		.loc 1 806 0
 2455 0036 0A2C     		cmp	r4, #10
 2456 0038 00F05481 		beq	.L223
 815:Drivers/lvgl/lvgl/src/core/lv_obj.c ****         lv_obj_clear_state(obj, LV_STATE_FOCUSED | LV_STATE_EDITED | LV_STATE_FOCUS_KEY);
 2457              		.loc 1 815 0
 2458 003c 0F2C     		cmp	r4, #15
 2459 003e 00F06881 		beq	.L224
 818:Drivers/lvgl/lvgl/src/core/lv_obj.c ****         lv_coord_t align = lv_obj_get_style_align(obj, LV_PART_MAIN);
 2460              		.loc 1 818 0
 2461 0042 292C     		cmp	r4, #41
 2462 0044 00F06981 		beq	.L225
 832:Drivers/lvgl/lvgl/src/core/lv_obj.c ****         lv_coord_t w = lv_obj_get_style_width(obj, LV_PART_MAIN);
 2463              		.loc 1 832 0
 2464 0048 222C     		cmp	r4, #34
 2465 004a 00F08D81 		beq	.L226
 841:Drivers/lvgl/lvgl/src/core/lv_obj.c ****         lv_coord_t d = lv_obj_calculate_ext_draw_size(obj, LV_PART_MAIN);
 2466              		.loc 1 841 0
 2467 004e 132C     		cmp	r4, #19
 2468 0050 00F0B881 		beq	.L227
 845:Drivers/lvgl/lvgl/src/core/lv_obj.c ****         lv_obj_draw(e);
 2469              		.loc 1 845 0
 2470 0054 182C     		cmp	r4, #24
 2471 0056 18BF     		it	ne
 2472 0058 152C     		cmpne	r4, #21
 2473 005a 01D0     		beq	.L213
 845:Drivers/lvgl/lvgl/src/core/lv_obj.c ****         lv_obj_draw(e);
 2474              		.loc 1 845 0 is_stmt 0 discriminator 1
 2475 005c 122C     		cmp	r4, #18
 2476 005e 06D1     		bne	.L172
 2477              	.L213:
 846:Drivers/lvgl/lvgl/src/core/lv_obj.c ****     }
 2478              		.loc 1 846 0 is_stmt 1
 2479 0060 3046     		mov	r0, r6
 2480              	.LVL297:
 2481 0062 FFF7FEFF 		bl	lv_obj_draw
 2482              	.LVL298:
 2483 0066 02E0     		b	.L172
 2484              	.LVL299:
 2485              	.L216:
 708:Drivers/lvgl/lvgl/src/core/lv_obj.c ****     }
 2486              		.loc 1 708 0
 2487 0068 2021     		movs	r1, #32
 2488 006a FFF7FEFF 		bl	lv_obj_add_state
 2489              	.LVL300:
 2490              	.L172:
 848:Drivers/lvgl/lvgl/src/core/lv_obj.c **** 
 2491              		.loc 1 848 0
 2492 006e 05B0     		add	sp, sp, #20
 2493              	.LCFI30:
 2494              		.cfi_remember_state
 2495              		.cfi_def_cfa_offset 20
ARM GAS  /tmp/ccJvwpHF.s 			page 87


 2496              		@ sp needed
 2497 0070 F0BD     		pop	{r4, r5, r6, r7, pc}
 2498              	.LVL301:
 2499              	.L217:
 2500              	.LCFI31:
 2501              		.cfi_restore_state
 2502              	.LBB197:
 711:Drivers/lvgl/lvgl/src/core/lv_obj.c ****         void * param = lv_event_get_param(e);
 2503              		.loc 1 711 0
 2504 0072 2021     		movs	r1, #32
 2505 0074 FFF7FEFF 		bl	lv_obj_clear_state
 2506              	.LVL302:
 712:Drivers/lvgl/lvgl/src/core/lv_obj.c ****         /*Go the checked state if enabled*/
 2507              		.loc 1 712 0
 2508 0078 3046     		mov	r0, r6
 2509 007a FFF7FEFF 		bl	lv_event_get_param
 2510              	.LVL303:
 714:Drivers/lvgl/lvgl/src/core/lv_obj.c ****             if(!(lv_obj_get_state(obj) & LV_STATE_CHECKED)) lv_obj_add_state(obj, LV_STATE_CHECKED)
 2511              		.loc 1 714 0
 2512 007e FFF7FEFF 		bl	lv_indev_get_scroll_obj
 2513              	.LVL304:
 2514 0082 0028     		cmp	r0, #0
 2515 0084 F3D1     		bne	.L172
 714:Drivers/lvgl/lvgl/src/core/lv_obj.c ****             if(!(lv_obj_get_state(obj) & LV_STATE_CHECKED)) lv_obj_add_state(obj, LV_STATE_CHECKED)
 2516              		.loc 1 714 0 is_stmt 0 discriminator 1
 2517 0086 0821     		movs	r1, #8
 2518 0088 2846     		mov	r0, r5
 2519 008a FFF7FEFF 		bl	lv_obj_has_flag
 2520              	.LVL305:
 2521 008e 0028     		cmp	r0, #0
 2522 0090 EDD0     		beq	.L172
 2523              	.LBB198:
 715:Drivers/lvgl/lvgl/src/core/lv_obj.c ****             else lv_obj_clear_state(obj, LV_STATE_CHECKED);
 2524              		.loc 1 715 0 is_stmt 1
 2525 0092 2846     		mov	r0, r5
 2526 0094 FFF7FEFF 		bl	lv_obj_get_state
 2527              	.LVL306:
 2528 0098 10F0010F 		tst	r0, #1
 2529 009c 09D1     		bne	.L176
 715:Drivers/lvgl/lvgl/src/core/lv_obj.c ****             else lv_obj_clear_state(obj, LV_STATE_CHECKED);
 2530              		.loc 1 715 0 is_stmt 0 discriminator 1
 2531 009e 0121     		movs	r1, #1
 2532 00a0 2846     		mov	r0, r5
 2533 00a2 FFF7FEFF 		bl	lv_obj_add_state
 2534              	.LVL307:
 2535              	.L177:
 718:Drivers/lvgl/lvgl/src/core/lv_obj.c ****             if(res != LV_RES_OK) return;
 2536              		.loc 1 718 0 is_stmt 1
 2537 00a6 0022     		movs	r2, #0
 2538 00a8 1C21     		movs	r1, #28
 2539 00aa 2846     		mov	r0, r5
 2540 00ac FFF7FEFF 		bl	lv_event_send
 2541              	.LVL308:
 2542 00b0 DDE7     		b	.L172
 2543              	.L176:
 716:Drivers/lvgl/lvgl/src/core/lv_obj.c **** 
 2544              		.loc 1 716 0
ARM GAS  /tmp/ccJvwpHF.s 			page 88


 2545 00b2 0121     		movs	r1, #1
 2546 00b4 2846     		mov	r0, r5
 2547 00b6 FFF7FEFF 		bl	lv_obj_clear_state
 2548              	.LVL309:
 2549 00ba F4E7     		b	.L177
 2550              	.LVL310:
 2551              	.L218:
 2552              	.LBE198:
 2553              	.LBE197:
 723:Drivers/lvgl/lvgl/src/core/lv_obj.c ****     }
 2554              		.loc 1 723 0
 2555 00bc 2021     		movs	r1, #32
 2556 00be FFF7FEFF 		bl	lv_obj_clear_state
 2557              	.LVL311:
 2558 00c2 D4E7     		b	.L172
 2559              	.LVL312:
 2560              	.L219:
 2561              	.LBB199:
 726:Drivers/lvgl/lvgl/src/core/lv_obj.c ****         for(uint32_t i = 0; i < child_cnt; i++) {
 2562              		.loc 1 726 0
 2563 00c4 FFF7FEFF 		bl	lv_obj_get_child_cnt
 2564              	.LVL313:
 2565 00c8 0646     		mov	r6, r0
 2566              	.LVL314:
 2567              	.LBB200:
 727:Drivers/lvgl/lvgl/src/core/lv_obj.c ****             lv_obj_t * child = obj->spec_attr->children[i];
 2568              		.loc 1 727 0
 2569 00ca 0024     		movs	r4, #0
 2570              	.LVL315:
 2571 00cc 06E0     		b	.L180
 2572              	.LVL316:
 2573              	.L181:
 2574              	.LBB201:
 728:Drivers/lvgl/lvgl/src/core/lv_obj.c ****             lv_obj_mark_layout_as_dirty(child);
 2575              		.loc 1 728 0 discriminator 3
 2576 00ce AB68     		ldr	r3, [r5, #8]
 2577 00d0 1B68     		ldr	r3, [r3]
 2578              	.LVL317:
 729:Drivers/lvgl/lvgl/src/core/lv_obj.c ****         }
 2579              		.loc 1 729 0 discriminator 3
 2580 00d2 53F82400 		ldr	r0, [r3, r4, lsl #2]
 2581 00d6 FFF7FEFF 		bl	lv_obj_mark_layout_as_dirty
 2582              	.LVL318:
 2583              	.LBE201:
 727:Drivers/lvgl/lvgl/src/core/lv_obj.c ****             lv_obj_t * child = obj->spec_attr->children[i];
 2584              		.loc 1 727 0 discriminator 3
 2585 00da 0134     		adds	r4, r4, #1
 2586              	.LVL319:
 2587              	.L180:
 727:Drivers/lvgl/lvgl/src/core/lv_obj.c ****             lv_obj_t * child = obj->spec_attr->children[i];
 2588              		.loc 1 727 0 is_stmt 0 discriminator 1
 2589 00dc B442     		cmp	r4, r6
 2590 00de F6D3     		bcc	.L181
 2591 00e0 C5E7     		b	.L172
 2592              	.LVL320:
 2593              	.L220:
 2594              	.LBE200:
ARM GAS  /tmp/ccJvwpHF.s 			page 89


 2595              	.LBE199:
 733:Drivers/lvgl/lvgl/src/core/lv_obj.c ****             char c = *((char *)lv_event_get_param(e));
 2596              		.loc 1 733 0 is_stmt 1
 2597 00e2 0821     		movs	r1, #8
 2598 00e4 FFF7FEFF 		bl	lv_obj_has_flag
 2599              	.LVL321:
 2600 00e8 0028     		cmp	r0, #0
 2601 00ea 3CD1     		bne	.L228
 748:Drivers/lvgl/lvgl/src/core/lv_obj.c ****             /*scroll by keypad or encoder*/
 2602              		.loc 1 748 0
 2603 00ec 4FF40161 		mov	r1, #2064
 2604 00f0 2846     		mov	r0, r5
 2605 00f2 FFF7FEFF 		bl	lv_obj_has_flag
 2606              	.LVL322:
 2607 00f6 0028     		cmp	r0, #0
 2608 00f8 B9D0     		beq	.L172
 748:Drivers/lvgl/lvgl/src/core/lv_obj.c ****             /*scroll by keypad or encoder*/
 2609              		.loc 1 748 0 is_stmt 0 discriminator 1
 2610 00fa 2846     		mov	r0, r5
 2611 00fc FFF7FEFF 		bl	lv_obj_is_editable
 2612              	.LVL323:
 2613 0100 0028     		cmp	r0, #0
 2614 0102 B4D1     		bne	.L172
 2615              	.LVL324:
 2616              	.LBB202:
 751:Drivers/lvgl/lvgl/src/core/lv_obj.c ****             lv_coord_t sr = lv_obj_get_scroll_right(obj);
 2617              		.loc 1 751 0 is_stmt 1
 2618 0104 2846     		mov	r0, r5
 2619 0106 FFF7FEFF 		bl	lv_obj_get_scroll_left
 2620              	.LVL325:
 2621 010a 0746     		mov	r7, r0
 2622              	.LVL326:
 752:Drivers/lvgl/lvgl/src/core/lv_obj.c ****             char c = *((char *)lv_event_get_param(e));
 2623              		.loc 1 752 0
 2624 010c 2846     		mov	r0, r5
 2625 010e FFF7FEFF 		bl	lv_obj_get_scroll_right
 2626              	.LVL327:
 2627 0112 0446     		mov	r4, r0
 2628              	.LVL328:
 753:Drivers/lvgl/lvgl/src/core/lv_obj.c ****             if(c == LV_KEY_DOWN) {
 2629              		.loc 1 753 0
 2630 0114 3046     		mov	r0, r6
 2631 0116 FFF7FEFF 		bl	lv_event_get_param
 2632              	.LVL329:
 2633 011a 0378     		ldrb	r3, [r0]	@ zero_extendqisi2
 2634              	.LVL330:
 754:Drivers/lvgl/lvgl/src/core/lv_obj.c ****                 /*use scroll_to_x/y functions to enforce scroll limits*/
 2635              		.loc 1 754 0
 2636 011c 122B     		cmp	r3, #18
 2637 011e 41D0     		beq	.L229
 758:Drivers/lvgl/lvgl/src/core/lv_obj.c ****                 lv_obj_scroll_to_y(obj, lv_obj_get_scroll_y(obj) - lv_obj_get_height(obj) / 4, anim
 2638              		.loc 1 758 0
 2639 0120 112B     		cmp	r3, #17
 2640 0122 53D0     		beq	.L230
 761:Drivers/lvgl/lvgl/src/core/lv_obj.c ****                 /*If the object can't be scrolled horizontally then scroll it vertically*/
 2641              		.loc 1 761 0
 2642 0124 132B     		cmp	r3, #19
ARM GAS  /tmp/ccJvwpHF.s 			page 90


 2643 0126 65D0     		beq	.L231
 768:Drivers/lvgl/lvgl/src/core/lv_obj.c ****                 /*If the object can't be scrolled horizontally then scroll it vertically*/
 2644              		.loc 1 768 0
 2645 0128 142B     		cmp	r3, #20
 2646 012a A0D1     		bne	.L172
 770:Drivers/lvgl/lvgl/src/core/lv_obj.c ****                     lv_obj_scroll_to_y(obj, lv_obj_get_scroll_y(obj) - lv_obj_get_height(obj) / 4, 
 2647              		.loc 1 770 0
 2648 012c 2846     		mov	r0, r5
 2649 012e FFF7FEFF 		bl	lv_obj_get_scroll_dir
 2650              	.LVL331:
 2651 0132 10F0030F 		tst	r0, #3
 2652 0136 04D0     		beq	.L194
 770:Drivers/lvgl/lvgl/src/core/lv_obj.c ****                     lv_obj_scroll_to_y(obj, lv_obj_get_scroll_y(obj) - lv_obj_get_height(obj) / 4, 
 2653              		.loc 1 770 0 is_stmt 0 discriminator 1
 2654 0138 002F     		cmp	r7, #0
 2655 013a D8BF     		it	le
 2656 013c 002C     		cmple	r4, #0
 2657 013e 00F38A80 		bgt	.L195
 2658              	.L194:
 771:Drivers/lvgl/lvgl/src/core/lv_obj.c ****                 else
 2659              		.loc 1 771 0 is_stmt 1
 2660 0142 2846     		mov	r0, r5
 2661 0144 FFF7FEFF 		bl	lv_obj_get_scroll_y
 2662              	.LVL332:
 2663 0148 84B2     		uxth	r4, r0
 2664              	.LVL333:
 2665 014a 2846     		mov	r0, r5
 2666 014c FFF7FEFF 		bl	lv_obj_get_height
 2667              	.LVL334:
 2668 0150 0146     		mov	r1, r0
 2669 0152 0028     		cmp	r0, #0
 2670 0154 7DDB     		blt	.L232
 2671              	.L196:
 2672 0156 A4EBA101 		sub	r1, r4, r1, asr #2
 2673 015a 0022     		movs	r2, #0
 2674 015c 09B2     		sxth	r1, r1
 2675 015e 2846     		mov	r0, r5
 2676 0160 FFF7FEFF 		bl	lv_obj_scroll_to_y
 2677              	.LVL335:
 2678 0164 83E7     		b	.L172
 2679              	.LVL336:
 2680              	.L228:
 2681              	.LBE202:
 2682              	.LBB203:
 734:Drivers/lvgl/lvgl/src/core/lv_obj.c ****             if(c == LV_KEY_RIGHT || c == LV_KEY_UP) {
 2683              		.loc 1 734 0
 2684 0166 3046     		mov	r0, r6
 2685 0168 FFF7FEFF 		bl	lv_event_get_param
 2686              	.LVL337:
 2687 016c 0478     		ldrb	r4, [r0]	@ zero_extendqisi2
 2688              	.LVL338:
 735:Drivers/lvgl/lvgl/src/core/lv_obj.c ****                 lv_obj_add_state(obj, LV_STATE_CHECKED);
 2689              		.loc 1 735 0
 2690 016e 112C     		cmp	r4, #17
 2691 0170 18BF     		it	ne
 2692 0172 132C     		cmpne	r4, #19
 2693 0174 0CD0     		beq	.L233
ARM GAS  /tmp/ccJvwpHF.s 			page 91


 738:Drivers/lvgl/lvgl/src/core/lv_obj.c ****                 lv_obj_clear_state(obj, LV_STATE_CHECKED);
 2694              		.loc 1 738 0
 2695 0176 122C     		cmp	r4, #18
 2696 0178 18BF     		it	ne
 2697 017a 142C     		cmpne	r4, #20
 2698 017c 0DD0     		beq	.L234
 2699              	.L185:
 743:Drivers/lvgl/lvgl/src/core/lv_obj.c ****                 lv_res_t res = lv_event_send(obj, LV_EVENT_VALUE_CHANGED, NULL);
 2700              		.loc 1 743 0
 2701 017e 0A2C     		cmp	r4, #10
 2702 0180 3FF475AF 		beq	.L172
 2703              	.LBB204:
 744:Drivers/lvgl/lvgl/src/core/lv_obj.c ****                 if(res != LV_RES_OK) return;
 2704              		.loc 1 744 0
 2705 0184 0022     		movs	r2, #0
 2706 0186 1C21     		movs	r1, #28
 2707 0188 2846     		mov	r0, r5
 2708 018a FFF7FEFF 		bl	lv_event_send
 2709              	.LVL339:
 2710 018e 6EE7     		b	.L172
 2711              	.L233:
 2712              	.LBE204:
 736:Drivers/lvgl/lvgl/src/core/lv_obj.c ****             }
 2713              		.loc 1 736 0
 2714 0190 0121     		movs	r1, #1
 2715 0192 2846     		mov	r0, r5
 2716 0194 FFF7FEFF 		bl	lv_obj_add_state
 2717              	.LVL340:
 2718 0198 F1E7     		b	.L185
 2719              	.L234:
 739:Drivers/lvgl/lvgl/src/core/lv_obj.c ****             }
 2720              		.loc 1 739 0
 2721 019a 0121     		movs	r1, #1
 2722 019c 2846     		mov	r0, r5
 2723 019e FFF7FEFF 		bl	lv_obj_clear_state
 2724              	.LVL341:
 2725 01a2 ECE7     		b	.L185
 2726              	.LVL342:
 2727              	.L229:
 2728              	.LBE203:
 2729              	.LBB205:
 756:Drivers/lvgl/lvgl/src/core/lv_obj.c ****             }
 2730              		.loc 1 756 0
 2731 01a4 2846     		mov	r0, r5
 2732 01a6 FFF7FEFF 		bl	lv_obj_get_scroll_y
 2733              	.LVL343:
 2734 01aa 84B2     		uxth	r4, r0
 2735              	.LVL344:
 2736 01ac 2846     		mov	r0, r5
 2737 01ae FFF7FEFF 		bl	lv_obj_get_height
 2738              	.LVL345:
 2739 01b2 0146     		mov	r1, r0
 2740 01b4 0028     		cmp	r0, #0
 2741 01b6 07DB     		blt	.L235
 2742              	.L187:
 2743 01b8 04EBA101 		add	r1, r4, r1, asr #2
 2744 01bc 0022     		movs	r2, #0
ARM GAS  /tmp/ccJvwpHF.s 			page 92


 2745 01be 09B2     		sxth	r1, r1
 2746 01c0 2846     		mov	r0, r5
 2747 01c2 FFF7FEFF 		bl	lv_obj_scroll_to_y
 2748              	.LVL346:
 2749 01c6 52E7     		b	.L172
 2750              	.L235:
 2751 01c8 C11C     		adds	r1, r0, #3
 2752 01ca F5E7     		b	.L187
 2753              	.LVL347:
 2754              	.L230:
 759:Drivers/lvgl/lvgl/src/core/lv_obj.c ****             }
 2755              		.loc 1 759 0
 2756 01cc 2846     		mov	r0, r5
 2757 01ce FFF7FEFF 		bl	lv_obj_get_scroll_y
 2758              	.LVL348:
 2759 01d2 84B2     		uxth	r4, r0
 2760              	.LVL349:
 2761 01d4 2846     		mov	r0, r5
 2762 01d6 FFF7FEFF 		bl	lv_obj_get_height
 2763              	.LVL350:
 2764 01da 0146     		mov	r1, r0
 2765 01dc 0028     		cmp	r0, #0
 2766 01de 07DB     		blt	.L236
 2767              	.L189:
 2768 01e0 A4EBA101 		sub	r1, r4, r1, asr #2
 2769 01e4 0022     		movs	r2, #0
 2770 01e6 09B2     		sxth	r1, r1
 2771 01e8 2846     		mov	r0, r5
 2772 01ea FFF7FEFF 		bl	lv_obj_scroll_to_y
 2773              	.LVL351:
 2774 01ee 3EE7     		b	.L172
 2775              	.L236:
 2776 01f0 C11C     		adds	r1, r0, #3
 2777 01f2 F5E7     		b	.L189
 2778              	.LVL352:
 2779              	.L231:
 763:Drivers/lvgl/lvgl/src/core/lv_obj.c ****                     lv_obj_scroll_to_y(obj, lv_obj_get_scroll_y(obj) + lv_obj_get_height(obj) / 4, 
 2780              		.loc 1 763 0
 2781 01f4 2846     		mov	r0, r5
 2782 01f6 FFF7FEFF 		bl	lv_obj_get_scroll_dir
 2783              	.LVL353:
 2784 01fa 10F0030F 		tst	r0, #3
 2785 01fe 03D0     		beq	.L191
 763:Drivers/lvgl/lvgl/src/core/lv_obj.c ****                     lv_obj_scroll_to_y(obj, lv_obj_get_scroll_y(obj) + lv_obj_get_height(obj) / 4, 
 2786              		.loc 1 763 0 is_stmt 0 discriminator 1
 2787 0200 002F     		cmp	r7, #0
 2788 0202 D8BF     		it	le
 2789 0204 002C     		cmple	r4, #0
 2790 0206 13DC     		bgt	.L192
 2791              	.L191:
 764:Drivers/lvgl/lvgl/src/core/lv_obj.c ****                 else
 2792              		.loc 1 764 0 is_stmt 1
 2793 0208 2846     		mov	r0, r5
 2794 020a FFF7FEFF 		bl	lv_obj_get_scroll_y
 2795              	.LVL354:
 2796 020e 84B2     		uxth	r4, r0
 2797              	.LVL355:
ARM GAS  /tmp/ccJvwpHF.s 			page 93


 2798 0210 2846     		mov	r0, r5
 2799 0212 FFF7FEFF 		bl	lv_obj_get_height
 2800              	.LVL356:
 2801 0216 0146     		mov	r1, r0
 2802 0218 0028     		cmp	r0, #0
 2803 021a 07DB     		blt	.L237
 2804              	.L193:
 2805 021c 04EBA101 		add	r1, r4, r1, asr #2
 2806 0220 0022     		movs	r2, #0
 2807 0222 09B2     		sxth	r1, r1
 2808 0224 2846     		mov	r0, r5
 2809 0226 FFF7FEFF 		bl	lv_obj_scroll_to_y
 2810              	.LVL357:
 2811 022a 20E7     		b	.L172
 2812              	.L237:
 2813 022c C11C     		adds	r1, r0, #3
 2814 022e F5E7     		b	.L193
 2815              	.LVL358:
 2816              	.L192:
 766:Drivers/lvgl/lvgl/src/core/lv_obj.c ****             }
 2817              		.loc 1 766 0
 2818 0230 2846     		mov	r0, r5
 2819 0232 FFF7FEFF 		bl	lv_obj_get_scroll_x
 2820              	.LVL359:
 2821 0236 84B2     		uxth	r4, r0
 2822              	.LVL360:
 2823 0238 2846     		mov	r0, r5
 2824 023a FFF7FEFF 		bl	lv_obj_get_width
 2825              	.LVL361:
 2826 023e 0423     		movs	r3, #4
 2827 0240 90FBF3F3 		sdiv	r3, r0, r3
 2828 0244 E118     		adds	r1, r4, r3
 2829 0246 0022     		movs	r2, #0
 2830 0248 09B2     		sxth	r1, r1
 2831 024a 2846     		mov	r0, r5
 2832 024c FFF7FEFF 		bl	lv_obj_scroll_to_x
 2833              	.LVL362:
 2834 0250 0DE7     		b	.L172
 2835              	.L232:
 771:Drivers/lvgl/lvgl/src/core/lv_obj.c ****                 else
 2836              		.loc 1 771 0
 2837 0252 C11C     		adds	r1, r0, #3
 2838 0254 7FE7     		b	.L196
 2839              	.LVL363:
 2840              	.L195:
 773:Drivers/lvgl/lvgl/src/core/lv_obj.c ****             }
 2841              		.loc 1 773 0
 2842 0256 2846     		mov	r0, r5
 2843 0258 FFF7FEFF 		bl	lv_obj_get_scroll_x
 2844              	.LVL364:
 2845 025c 84B2     		uxth	r4, r0
 2846              	.LVL365:
 2847 025e 2846     		mov	r0, r5
 2848 0260 FFF7FEFF 		bl	lv_obj_get_width
 2849              	.LVL366:
 2850 0264 0423     		movs	r3, #4
 2851 0266 90FBF3F3 		sdiv	r3, r0, r3
ARM GAS  /tmp/ccJvwpHF.s 			page 94


 2852 026a E11A     		subs	r1, r4, r3
 2853 026c 0022     		movs	r2, #0
 2854 026e 09B2     		sxth	r1, r1
 2855 0270 2846     		mov	r0, r5
 2856 0272 FFF7FEFF 		bl	lv_obj_scroll_to_x
 2857              	.LVL367:
 2858 0276 FAE6     		b	.L172
 2859              	.LVL368:
 2860              	.L221:
 2861              	.LBE205:
 2862              	.LBB206:
 778:Drivers/lvgl/lvgl/src/core/lv_obj.c ****             lv_obj_scroll_to_view_recursive(obj, LV_ANIM_ON);
 2863              		.loc 1 778 0
 2864 0278 4FF48061 		mov	r1, #1024
 2865 027c FFF7FEFF 		bl	lv_obj_has_flag
 2866              	.LVL369:
 2867 0280 C0B9     		cbnz	r0, .L238
 2868              	.L198:
 2869              	.LVL370:
 783:Drivers/lvgl/lvgl/src/core/lv_obj.c ****         lv_state_t state = LV_STATE_FOCUSED;
 2870              		.loc 1 783 0
 2871 0282 2846     		mov	r0, r5
 2872 0284 FFF7FEFF 		bl	lv_obj_get_group
 2873              	.LVL371:
 2874 0288 FFF7FEFF 		bl	lv_group_get_editing
 2875              	.LVL372:
 2876 028c 0446     		mov	r4, r0
 2877              	.LVL373:
 789:Drivers/lvgl/lvgl/src/core/lv_obj.c ****         if(indev == NULL) indev = lv_event_get_indev(e);
 2878              		.loc 1 789 0
 2879 028e FFF7FEFF 		bl	lv_indev_get_act
 2880              	.LVL374:
 790:Drivers/lvgl/lvgl/src/core/lv_obj.c **** 
 2881              		.loc 1 790 0
 2882 0292 0346     		mov	r3, r0
 2883 0294 98B1     		cbz	r0, .L239
 2884              	.L199:
 792:Drivers/lvgl/lvgl/src/core/lv_obj.c ****         if(indev_type == LV_INDEV_TYPE_KEYPAD || indev_type == LV_INDEV_TYPE_ENCODER) state |= LV_S
 2885              		.loc 1 792 0
 2886 0296 1846     		mov	r0, r3
 2887 0298 FFF7FEFF 		bl	lv_indev_get_type
 2888              	.LVL375:
 793:Drivers/lvgl/lvgl/src/core/lv_obj.c ****         if(editing) {
 2889              		.loc 1 793 0
 2890 029c 0428     		cmp	r0, #4
 2891 029e 18BF     		it	ne
 2892 02a0 0228     		cmpne	r0, #2
 2893 02a2 11D0     		beq	.L214
 784:Drivers/lvgl/lvgl/src/core/lv_obj.c **** 
 2894              		.loc 1 784 0
 2895 02a4 0221     		movs	r1, #2
 2896              	.L200:
 2897              	.LVL376:
 794:Drivers/lvgl/lvgl/src/core/lv_obj.c ****             state |= LV_STATE_EDITED;
 2898              		.loc 1 794 0
 2899 02a6 8CB1     		cbz	r4, .L201
 2900              	.LVL377:
ARM GAS  /tmp/ccJvwpHF.s 			page 95


 796:Drivers/lvgl/lvgl/src/core/lv_obj.c ****         }
 2901              		.loc 1 796 0
 2902 02a8 41F00801 		orr	r1, r1, #8
 2903              	.LVL378:
 2904 02ac 2846     		mov	r0, r5
 2905              	.LVL379:
 2906 02ae FFF7FEFF 		bl	lv_obj_add_state
 2907              	.LVL380:
 2908 02b2 DCE6     		b	.L172
 2909              	.LVL381:
 2910              	.L238:
 779:Drivers/lvgl/lvgl/src/core/lv_obj.c ****         }
 2911              		.loc 1 779 0
 2912 02b4 0121     		movs	r1, #1
 2913 02b6 2846     		mov	r0, r5
 2914 02b8 FFF7FEFF 		bl	lv_obj_scroll_to_view_recursive
 2915              	.LVL382:
 2916 02bc E1E7     		b	.L198
 2917              	.LVL383:
 2918              	.L239:
 790:Drivers/lvgl/lvgl/src/core/lv_obj.c **** 
 2919              		.loc 1 790 0 discriminator 1
 2920 02be 3046     		mov	r0, r6
 2921              	.LVL384:
 2922 02c0 FFF7FEFF 		bl	lv_event_get_indev
 2923              	.LVL385:
 2924 02c4 0346     		mov	r3, r0
 2925              	.LVL386:
 2926 02c6 E6E7     		b	.L199
 2927              	.LVL387:
 2928              	.L214:
 793:Drivers/lvgl/lvgl/src/core/lv_obj.c ****         if(editing) {
 2929              		.loc 1 793 0
 2930 02c8 0621     		movs	r1, #6
 2931 02ca ECE7     		b	.L200
 2932              	.LVL388:
 2933              	.L201:
 799:Drivers/lvgl/lvgl/src/core/lv_obj.c ****             lv_obj_clear_state(obj, LV_STATE_EDITED);
 2934              		.loc 1 799 0
 2935 02cc 2846     		mov	r0, r5
 2936              	.LVL389:
 2937 02ce FFF7FEFF 		bl	lv_obj_add_state
 2938              	.LVL390:
 800:Drivers/lvgl/lvgl/src/core/lv_obj.c ****         }
 2939              		.loc 1 800 0
 2940 02d2 0821     		movs	r1, #8
 2941 02d4 2846     		mov	r0, r5
 2942 02d6 FFF7FEFF 		bl	lv_obj_clear_state
 2943              	.LVL391:
 2944 02da C8E6     		b	.L172
 2945              	.LVL392:
 2946              	.L222:
 2947              	.LBE206:
 804:Drivers/lvgl/lvgl/src/core/lv_obj.c ****     }
 2948              		.loc 1 804 0
 2949 02dc 4021     		movs	r1, #64
 2950 02de FFF7FEFF 		bl	lv_obj_add_state
ARM GAS  /tmp/ccJvwpHF.s 			page 96


 2951              	.LVL393:
 2952 02e2 C4E6     		b	.L172
 2953              	.LVL394:
 2954              	.L223:
 807:Drivers/lvgl/lvgl/src/core/lv_obj.c ****         if(lv_obj_get_scrollbar_mode(obj) == LV_SCROLLBAR_MODE_ACTIVE) {
 2955              		.loc 1 807 0
 2956 02e4 4021     		movs	r1, #64
 2957 02e6 FFF7FEFF 		bl	lv_obj_clear_state
 2958              	.LVL395:
 808:Drivers/lvgl/lvgl/src/core/lv_obj.c ****             lv_area_t hor_area, ver_area;
 2959              		.loc 1 808 0
 2960 02ea 2846     		mov	r0, r5
 2961 02ec FFF7FEFF 		bl	lv_obj_get_scrollbar_mode
 2962              	.LVL396:
 2963 02f0 0228     		cmp	r0, #2
 2964 02f2 7FF4BCAE 		bne	.L172
 2965              	.LBB207:
 810:Drivers/lvgl/lvgl/src/core/lv_obj.c ****             lv_obj_invalidate_area(obj, &hor_area);
 2966              		.loc 1 810 0
 2967 02f6 02AA     		add	r2, sp, #8
 2968 02f8 6946     		mov	r1, sp
 2969 02fa 2846     		mov	r0, r5
 2970 02fc FFF7FEFF 		bl	lv_obj_get_scrollbar_area
 2971              	.LVL397:
 811:Drivers/lvgl/lvgl/src/core/lv_obj.c ****             lv_obj_invalidate_area(obj, &ver_area);
 2972              		.loc 1 811 0
 2973 0300 6946     		mov	r1, sp
 2974 0302 2846     		mov	r0, r5
 2975 0304 FFF7FEFF 		bl	lv_obj_invalidate_area
 2976              	.LVL398:
 812:Drivers/lvgl/lvgl/src/core/lv_obj.c ****         }
 2977              		.loc 1 812 0
 2978 0308 02A9     		add	r1, sp, #8
 2979 030a 2846     		mov	r0, r5
 2980 030c FFF7FEFF 		bl	lv_obj_invalidate_area
 2981              	.LVL399:
 2982 0310 ADE6     		b	.L172
 2983              	.LVL400:
 2984              	.L224:
 2985              	.LBE207:
 816:Drivers/lvgl/lvgl/src/core/lv_obj.c ****     }
 2986              		.loc 1 816 0
 2987 0312 0E21     		movs	r1, #14
 2988 0314 FFF7FEFF 		bl	lv_obj_clear_state
 2989              	.LVL401:
 2990 0318 A9E6     		b	.L172
 2991              	.LVL402:
 2992              	.L225:
 2993              	.LBB208:
 2994              	.LBB209:
 2995              	.LBB210:
  51:Drivers/lvgl/lvgl/src/core/lv_obj_style_gen.h ****     return (lv_align_t)v.num;
 2996              		.loc 2 51 0
 2997 031a 0922     		movs	r2, #9
 2998 031c 0021     		movs	r1, #0
 2999 031e FFF7FEFF 		bl	lv_obj_get_style_prop
 3000              	.LVL403:
ARM GAS  /tmp/ccJvwpHF.s 			page 97


  52:Drivers/lvgl/lvgl/src/core/lv_obj_style_gen.h **** }
 3001              		.loc 2 52 0
 3002 0322 C4B2     		uxtb	r4, r0
 3003              	.LVL404:
 3004              	.LBE210:
 3005              	.LBE209:
 3006              	.LBB211:
 3007              	.LBB212:
 509:Drivers/lvgl/lvgl/src/core/lv_obj_style_gen.h **** }
 510:Drivers/lvgl/lvgl/src/core/lv_obj_style_gen.h **** 
 511:Drivers/lvgl/lvgl/src/core/lv_obj_style_gen.h **** static inline const lv_color_filter_dsc_t * lv_obj_get_style_color_filter_dsc(const struct _lv_obj_
 512:Drivers/lvgl/lvgl/src/core/lv_obj_style_gen.h **** {
 513:Drivers/lvgl/lvgl/src/core/lv_obj_style_gen.h ****     lv_style_value_t v = lv_obj_get_style_prop(obj, part, LV_STYLE_COLOR_FILTER_DSC);
 514:Drivers/lvgl/lvgl/src/core/lv_obj_style_gen.h ****     return (const lv_color_filter_dsc_t *)v.ptr;
 515:Drivers/lvgl/lvgl/src/core/lv_obj_style_gen.h **** }
 516:Drivers/lvgl/lvgl/src/core/lv_obj_style_gen.h **** 
 517:Drivers/lvgl/lvgl/src/core/lv_obj_style_gen.h **** static inline lv_opa_t lv_obj_get_style_color_filter_opa(const struct _lv_obj_t * obj, uint32_t par
 518:Drivers/lvgl/lvgl/src/core/lv_obj_style_gen.h **** {
 519:Drivers/lvgl/lvgl/src/core/lv_obj_style_gen.h ****     lv_style_value_t v = lv_obj_get_style_prop(obj, part, LV_STYLE_COLOR_FILTER_OPA);
 520:Drivers/lvgl/lvgl/src/core/lv_obj_style_gen.h ****     return (lv_opa_t)v.num;
 521:Drivers/lvgl/lvgl/src/core/lv_obj_style_gen.h **** }
 522:Drivers/lvgl/lvgl/src/core/lv_obj_style_gen.h **** 
 523:Drivers/lvgl/lvgl/src/core/lv_obj_style_gen.h **** static inline const lv_anim_t * lv_obj_get_style_anim(const struct _lv_obj_t * obj, uint32_t part)
 524:Drivers/lvgl/lvgl/src/core/lv_obj_style_gen.h **** {
 525:Drivers/lvgl/lvgl/src/core/lv_obj_style_gen.h ****     lv_style_value_t v = lv_obj_get_style_prop(obj, part, LV_STYLE_ANIM);
 526:Drivers/lvgl/lvgl/src/core/lv_obj_style_gen.h ****     return (const lv_anim_t *)v.ptr;
 527:Drivers/lvgl/lvgl/src/core/lv_obj_style_gen.h **** }
 528:Drivers/lvgl/lvgl/src/core/lv_obj_style_gen.h **** 
 529:Drivers/lvgl/lvgl/src/core/lv_obj_style_gen.h **** static inline uint32_t lv_obj_get_style_anim_time(const struct _lv_obj_t * obj, uint32_t part)
 530:Drivers/lvgl/lvgl/src/core/lv_obj_style_gen.h **** {
 531:Drivers/lvgl/lvgl/src/core/lv_obj_style_gen.h ****     lv_style_value_t v = lv_obj_get_style_prop(obj, part, LV_STYLE_ANIM_TIME);
 532:Drivers/lvgl/lvgl/src/core/lv_obj_style_gen.h ****     return (uint32_t)v.num;
 533:Drivers/lvgl/lvgl/src/core/lv_obj_style_gen.h **** }
 534:Drivers/lvgl/lvgl/src/core/lv_obj_style_gen.h **** 
 535:Drivers/lvgl/lvgl/src/core/lv_obj_style_gen.h **** static inline uint32_t lv_obj_get_style_anim_speed(const struct _lv_obj_t * obj, uint32_t part)
 536:Drivers/lvgl/lvgl/src/core/lv_obj_style_gen.h **** {
 537:Drivers/lvgl/lvgl/src/core/lv_obj_style_gen.h ****     lv_style_value_t v = lv_obj_get_style_prop(obj, part, LV_STYLE_ANIM_SPEED);
 538:Drivers/lvgl/lvgl/src/core/lv_obj_style_gen.h ****     return (uint32_t)v.num;
 539:Drivers/lvgl/lvgl/src/core/lv_obj_style_gen.h **** }
 540:Drivers/lvgl/lvgl/src/core/lv_obj_style_gen.h **** 
 541:Drivers/lvgl/lvgl/src/core/lv_obj_style_gen.h **** static inline const lv_style_transition_dsc_t * lv_obj_get_style_transition(const struct _lv_obj_t 
 542:Drivers/lvgl/lvgl/src/core/lv_obj_style_gen.h **** {
 543:Drivers/lvgl/lvgl/src/core/lv_obj_style_gen.h ****     lv_style_value_t v = lv_obj_get_style_prop(obj, part, LV_STYLE_TRANSITION);
 544:Drivers/lvgl/lvgl/src/core/lv_obj_style_gen.h ****     return (const lv_style_transition_dsc_t *)v.ptr;
 545:Drivers/lvgl/lvgl/src/core/lv_obj_style_gen.h **** }
 546:Drivers/lvgl/lvgl/src/core/lv_obj_style_gen.h **** 
 547:Drivers/lvgl/lvgl/src/core/lv_obj_style_gen.h **** static inline lv_blend_mode_t lv_obj_get_style_blend_mode(const struct _lv_obj_t * obj, uint32_t pa
 548:Drivers/lvgl/lvgl/src/core/lv_obj_style_gen.h **** {
 549:Drivers/lvgl/lvgl/src/core/lv_obj_style_gen.h ****     lv_style_value_t v = lv_obj_get_style_prop(obj, part, LV_STYLE_BLEND_MODE);
 550:Drivers/lvgl/lvgl/src/core/lv_obj_style_gen.h ****     return (lv_blend_mode_t)v.num;
 551:Drivers/lvgl/lvgl/src/core/lv_obj_style_gen.h **** }
 552:Drivers/lvgl/lvgl/src/core/lv_obj_style_gen.h **** 
 553:Drivers/lvgl/lvgl/src/core/lv_obj_style_gen.h **** static inline uint16_t lv_obj_get_style_layout(const struct _lv_obj_t * obj, uint32_t part)
 554:Drivers/lvgl/lvgl/src/core/lv_obj_style_gen.h **** {
 555:Drivers/lvgl/lvgl/src/core/lv_obj_style_gen.h ****     lv_style_value_t v = lv_obj_get_style_prop(obj, part, LV_STYLE_LAYOUT);
 3008              		.loc 2 555 0
 3009 0324 0A22     		movs	r2, #10
ARM GAS  /tmp/ccJvwpHF.s 			page 98


 3010 0326 0021     		movs	r1, #0
 3011 0328 2846     		mov	r0, r5
 3012 032a FFF7FEFF 		bl	lv_obj_get_style_prop
 3013              	.LVL405:
 556:Drivers/lvgl/lvgl/src/core/lv_obj_style_gen.h ****     return (uint16_t)v.num;
 3014              		.loc 2 556 0
 3015 032e 80B2     		uxth	r0, r0
 3016              	.LVL406:
 3017              	.LBE212:
 3018              	.LBE211:
 821:Drivers/lvgl/lvgl/src/core/lv_obj.c ****             lv_obj_mark_layout_as_dirty(obj);
 3019              		.loc 1 821 0
 3020 0330 0034     		adds	r4, r4, #0
 3021 0332 18BF     		it	ne
 3022 0334 0124     		movne	r4, #1
 3023              	.LVL407:
 3024 0336 0028     		cmp	r0, #0
 3025 0338 0CBF     		ite	eq
 3026 033a 2046     		moveq	r0, r4
 3027 033c 0120     		movne	r0, #1
 3028 033e 28B9     		cbnz	r0, .L240
 3029              	.L206:
 826:Drivers/lvgl/lvgl/src/core/lv_obj.c ****         for(i = 0; i < child_cnt; i++) {
 3030              		.loc 1 826 0
 3031 0340 2846     		mov	r0, r5
 3032 0342 FFF7FEFF 		bl	lv_obj_get_child_cnt
 3033              	.LVL408:
 3034 0346 0646     		mov	r6, r0
 3035              	.LVL409:
 827:Drivers/lvgl/lvgl/src/core/lv_obj.c ****             lv_obj_t * child = obj->spec_attr->children[i];
 3036              		.loc 1 827 0
 3037 0348 0024     		movs	r4, #0
 3038 034a 0AE0     		b	.L207
 3039              	.LVL410:
 3040              	.L240:
 822:Drivers/lvgl/lvgl/src/core/lv_obj.c ****         }
 3041              		.loc 1 822 0
 3042 034c 2846     		mov	r0, r5
 3043 034e FFF7FEFF 		bl	lv_obj_mark_layout_as_dirty
 3044              	.LVL411:
 3045 0352 F5E7     		b	.L206
 3046              	.LVL412:
 3047              	.L208:
 3048              	.LBB213:
 828:Drivers/lvgl/lvgl/src/core/lv_obj.c ****             lv_obj_mark_layout_as_dirty(child);
 3049              		.loc 1 828 0 discriminator 3
 3050 0354 AB68     		ldr	r3, [r5, #8]
 3051 0356 1B68     		ldr	r3, [r3]
 3052              	.LVL413:
 829:Drivers/lvgl/lvgl/src/core/lv_obj.c ****         }
 3053              		.loc 1 829 0 discriminator 3
 3054 0358 53F82400 		ldr	r0, [r3, r4, lsl #2]
 3055 035c FFF7FEFF 		bl	lv_obj_mark_layout_as_dirty
 3056              	.LVL414:
 3057              	.LBE213:
 827:Drivers/lvgl/lvgl/src/core/lv_obj.c ****             lv_obj_t * child = obj->spec_attr->children[i];
 3058              		.loc 1 827 0 discriminator 3
ARM GAS  /tmp/ccJvwpHF.s 			page 99


 3059 0360 0134     		adds	r4, r4, #1
 3060              	.LVL415:
 3061              	.L207:
 827:Drivers/lvgl/lvgl/src/core/lv_obj.c ****             lv_obj_t * child = obj->spec_attr->children[i];
 3062              		.loc 1 827 0 is_stmt 0 discriminator 1
 3063 0362 B442     		cmp	r4, r6
 3064 0364 F6D3     		bcc	.L208
 3065 0366 82E6     		b	.L172
 3066              	.LVL416:
 3067              	.L226:
 3068              	.LBE208:
 3069              	.LBB214:
 3070              	.LBB215:
 3071              	.LBB216:
   3:Drivers/lvgl/lvgl/src/core/lv_obj_style_gen.h ****     return (lv_coord_t)v.num;
 3072              		.loc 2 3 0 is_stmt 1
 3073 0368 0122     		movs	r2, #1
 3074 036a 0021     		movs	r1, #0
 3075 036c FFF7FEFF 		bl	lv_obj_get_style_prop
 3076              	.LVL417:
   4:Drivers/lvgl/lvgl/src/core/lv_obj_style_gen.h **** }
 3077              		.loc 2 4 0
 3078 0370 07B2     		sxth	r7, r0
 3079              	.LVL418:
 3080              	.LBE216:
 3081              	.LBE215:
 3082              	.LBB217:
 3083              	.LBB218:
  21:Drivers/lvgl/lvgl/src/core/lv_obj_style_gen.h ****     return (lv_coord_t)v.num;
 3084              		.loc 2 21 0
 3085 0372 0422     		movs	r2, #4
 3086 0374 0021     		movs	r1, #0
 3087 0376 2846     		mov	r0, r5
 3088 0378 FFF7FEFF 		bl	lv_obj_get_style_prop
 3089              	.LVL419:
  22:Drivers/lvgl/lvgl/src/core/lv_obj_style_gen.h **** }
 3090              		.loc 2 22 0
 3091 037c 06B2     		sxth	r6, r0
 3092              	.LVL420:
 3093              	.LBE218:
 3094              	.LBE217:
 3095              	.LBB219:
 3096              	.LBB220:
  51:Drivers/lvgl/lvgl/src/core/lv_obj_style_gen.h ****     return (lv_align_t)v.num;
 3097              		.loc 2 51 0
 3098 037e 0922     		movs	r2, #9
 3099 0380 0021     		movs	r1, #0
 3100 0382 2846     		mov	r0, r5
 3101 0384 FFF7FEFF 		bl	lv_obj_get_style_prop
 3102              	.LVL421:
  52:Drivers/lvgl/lvgl/src/core/lv_obj_style_gen.h **** }
 3103              		.loc 2 52 0
 3104 0388 C4B2     		uxtb	r4, r0
 3105              	.LVL422:
 3106              	.LBE220:
 3107              	.LBE219:
 3108              	.LBB221:
ARM GAS  /tmp/ccJvwpHF.s 			page 100


 3109              	.LBB222:
 555:Drivers/lvgl/lvgl/src/core/lv_obj_style_gen.h ****     return (uint16_t)v.num;
 3110              		.loc 2 555 0
 3111 038a 0A22     		movs	r2, #10
 3112 038c 0021     		movs	r1, #0
 3113 038e 2846     		mov	r0, r5
 3114 0390 FFF7FEFF 		bl	lv_obj_get_style_prop
 3115              	.LVL423:
 3116              		.loc 2 556 0
 3117 0394 80B2     		uxth	r0, r0
 3118              	.LVL424:
 3119              	.LBE222:
 3120              	.LBE221:
 837:Drivers/lvgl/lvgl/src/core/lv_obj.c ****             lv_obj_mark_layout_as_dirty(obj);
 3121              		.loc 1 837 0
 3122 0396 0034     		adds	r4, r4, #0
 3123 0398 18BF     		it	ne
 3124 039a 0124     		movne	r4, #1
 3125              	.LVL425:
 3126 039c 0028     		cmp	r0, #0
 3127 039e 0CBF     		ite	eq
 3128 03a0 2046     		moveq	r0, r4
 3129 03a2 0120     		movne	r0, #1
 3130 03a4 50B9     		cbnz	r0, .L210
 837:Drivers/lvgl/lvgl/src/core/lv_obj.c ****             lv_obj_mark_layout_as_dirty(obj);
 3131              		.loc 1 837 0 is_stmt 0 discriminator 1
 3132 03a6 42F2D173 		movw	r3, #10193
 3133 03aa 9E42     		cmp	r6, r3
 3134 03ac 14BF     		ite	ne
 3135 03ae 0026     		movne	r6, #0
 3136 03b0 0126     		moveq	r6, #1
 3137 03b2 9F42     		cmp	r7, r3
 3138 03b4 02D0     		beq	.L210
 3139 03b6 002E     		cmp	r6, #0
 3140 03b8 3FF459AE 		beq	.L172
 3141              	.L210:
 838:Drivers/lvgl/lvgl/src/core/lv_obj.c ****         }
 3142              		.loc 1 838 0 is_stmt 1
 3143 03bc 2846     		mov	r0, r5
 3144 03be FFF7FEFF 		bl	lv_obj_mark_layout_as_dirty
 3145              	.LVL426:
 3146 03c2 54E6     		b	.L172
 3147              	.LVL427:
 3148              	.L227:
 3149              	.LBE214:
 3150              	.LBB223:
 842:Drivers/lvgl/lvgl/src/core/lv_obj.c ****         lv_event_set_ext_draw_size(e, d);
 3151              		.loc 1 842 0
 3152 03c4 0021     		movs	r1, #0
 3153 03c6 FFF7FEFF 		bl	lv_obj_calculate_ext_draw_size
 3154              	.LVL428:
 843:Drivers/lvgl/lvgl/src/core/lv_obj.c ****     }
 3155              		.loc 1 843 0
 3156 03ca 0146     		mov	r1, r0
 3157 03cc 3046     		mov	r0, r6
 3158              	.LVL429:
 3159 03ce FFF7FEFF 		bl	lv_event_set_ext_draw_size
ARM GAS  /tmp/ccJvwpHF.s 			page 101


 3160              	.LVL430:
 3161              	.LBE223:
 3162 03d2 4CE6     		b	.L172
 3163              		.cfi_endproc
 3164              	.LFE225:
 3166              		.section	.text.lv_obj_destructor,"ax",%progbits
 3167              		.align	1
 3168              		.syntax unified
 3169              		.thumb
 3170              		.thumb_func
 3171              		.fpu fpv5-d16
 3173              	lv_obj_destructor:
 3174              	.LFB221:
 432:Drivers/lvgl/lvgl/src/core/lv_obj.c ****     LV_UNUSED(class_p);
 3175              		.loc 1 432 0
 3176              		.cfi_startproc
 3177              		@ args = 0, pretend = 0, frame = 0
 3178              		@ frame_needed = 0, uses_anonymous_args = 0
 3179              	.LVL431:
 3180 0000 10B5     		push	{r4, lr}
 3181              	.LCFI32:
 3182              		.cfi_def_cfa_offset 8
 3183              		.cfi_offset 4, -8
 3184              		.cfi_offset 14, -4
 3185 0002 0C46     		mov	r4, r1
 435:Drivers/lvgl/lvgl/src/core/lv_obj.c **** 
 3186              		.loc 1 435 0
 3187 0004 0846     		mov	r0, r1
 3188              	.LVL432:
 3189 0006 FFF7FEFF 		bl	_lv_event_mark_deleted
 3190              	.LVL433:
 438:Drivers/lvgl/lvgl/src/core/lv_obj.c ****     lv_obj_remove_style_all(obj);
 3191              		.loc 1 438 0
 3192 000a 0020     		movs	r0, #0
 3193 000c FFF7FEFF 		bl	lv_obj_enable_style_refresh
 3194              	.LVL434:
 3195              	.LBB224:
 3196              	.LBB225:
 3197              		.file 5 "Drivers/lvgl/lvgl/src/core/lv_obj_style.h"
   1:Drivers/lvgl/lvgl/src/core/lv_obj_style.h **** /**
   2:Drivers/lvgl/lvgl/src/core/lv_obj_style.h ****  * @file lv_obj_style.h
   3:Drivers/lvgl/lvgl/src/core/lv_obj_style.h ****  *
   4:Drivers/lvgl/lvgl/src/core/lv_obj_style.h ****  */
   5:Drivers/lvgl/lvgl/src/core/lv_obj_style.h **** 
   6:Drivers/lvgl/lvgl/src/core/lv_obj_style.h **** #ifndef LV_OBJ_STYLE_H
   7:Drivers/lvgl/lvgl/src/core/lv_obj_style.h **** #define LV_OBJ_STYLE_H
   8:Drivers/lvgl/lvgl/src/core/lv_obj_style.h **** 
   9:Drivers/lvgl/lvgl/src/core/lv_obj_style.h **** #ifdef __cplusplus
  10:Drivers/lvgl/lvgl/src/core/lv_obj_style.h **** extern "C" {
  11:Drivers/lvgl/lvgl/src/core/lv_obj_style.h **** #endif
  12:Drivers/lvgl/lvgl/src/core/lv_obj_style.h **** 
  13:Drivers/lvgl/lvgl/src/core/lv_obj_style.h **** /*********************
  14:Drivers/lvgl/lvgl/src/core/lv_obj_style.h ****  *      INCLUDES
  15:Drivers/lvgl/lvgl/src/core/lv_obj_style.h ****  *********************/
  16:Drivers/lvgl/lvgl/src/core/lv_obj_style.h **** #include <stdint.h>
  17:Drivers/lvgl/lvgl/src/core/lv_obj_style.h **** #include <stdbool.h>
  18:Drivers/lvgl/lvgl/src/core/lv_obj_style.h **** #include "../misc/lv_bidi.h"
ARM GAS  /tmp/ccJvwpHF.s 			page 102


  19:Drivers/lvgl/lvgl/src/core/lv_obj_style.h **** 
  20:Drivers/lvgl/lvgl/src/core/lv_obj_style.h **** /*********************
  21:Drivers/lvgl/lvgl/src/core/lv_obj_style.h ****  *      DEFINES
  22:Drivers/lvgl/lvgl/src/core/lv_obj_style.h ****  *********************/
  23:Drivers/lvgl/lvgl/src/core/lv_obj_style.h **** 
  24:Drivers/lvgl/lvgl/src/core/lv_obj_style.h **** /**********************
  25:Drivers/lvgl/lvgl/src/core/lv_obj_style.h ****  *      TYPEDEFS
  26:Drivers/lvgl/lvgl/src/core/lv_obj_style.h ****  **********************/
  27:Drivers/lvgl/lvgl/src/core/lv_obj_style.h **** /*Can't include lv_obj.h because it includes this header file*/
  28:Drivers/lvgl/lvgl/src/core/lv_obj_style.h **** struct _lv_obj_t;
  29:Drivers/lvgl/lvgl/src/core/lv_obj_style.h **** 
  30:Drivers/lvgl/lvgl/src/core/lv_obj_style.h **** typedef enum {
  31:Drivers/lvgl/lvgl/src/core/lv_obj_style.h ****     _LV_STYLE_STATE_CMP_SAME,           /*The style properties in the 2 states are identical*/
  32:Drivers/lvgl/lvgl/src/core/lv_obj_style.h ****     _LV_STYLE_STATE_CMP_DIFF_REDRAW,    /*The differences can be shown with a simple redraw*/
  33:Drivers/lvgl/lvgl/src/core/lv_obj_style.h ****     _LV_STYLE_STATE_CMP_DIFF_DRAW_PAD,  /*The differences can be shown with a simple redraw*/
  34:Drivers/lvgl/lvgl/src/core/lv_obj_style.h ****     _LV_STYLE_STATE_CMP_DIFF_LAYOUT,    /*The differences can be shown with a simple redraw*/
  35:Drivers/lvgl/lvgl/src/core/lv_obj_style.h **** } _lv_style_state_cmp_t;
  36:Drivers/lvgl/lvgl/src/core/lv_obj_style.h **** 
  37:Drivers/lvgl/lvgl/src/core/lv_obj_style.h **** typedef uint32_t lv_style_selector_t;
  38:Drivers/lvgl/lvgl/src/core/lv_obj_style.h **** 
  39:Drivers/lvgl/lvgl/src/core/lv_obj_style.h **** typedef struct {
  40:Drivers/lvgl/lvgl/src/core/lv_obj_style.h ****     lv_style_t * style;
  41:Drivers/lvgl/lvgl/src/core/lv_obj_style.h ****     uint32_t selector : 24;
  42:Drivers/lvgl/lvgl/src/core/lv_obj_style.h ****     uint32_t is_local : 1;
  43:Drivers/lvgl/lvgl/src/core/lv_obj_style.h ****     uint32_t is_trans : 1;
  44:Drivers/lvgl/lvgl/src/core/lv_obj_style.h **** } _lv_obj_style_t;
  45:Drivers/lvgl/lvgl/src/core/lv_obj_style.h **** 
  46:Drivers/lvgl/lvgl/src/core/lv_obj_style.h **** typedef struct {
  47:Drivers/lvgl/lvgl/src/core/lv_obj_style.h ****     uint16_t time;
  48:Drivers/lvgl/lvgl/src/core/lv_obj_style.h ****     uint16_t delay;
  49:Drivers/lvgl/lvgl/src/core/lv_obj_style.h ****     lv_style_selector_t selector;
  50:Drivers/lvgl/lvgl/src/core/lv_obj_style.h ****     lv_style_prop_t prop;
  51:Drivers/lvgl/lvgl/src/core/lv_obj_style.h ****     lv_anim_path_cb_t path_cb;
  52:Drivers/lvgl/lvgl/src/core/lv_obj_style.h **** #if LV_USE_USER_DATA
  53:Drivers/lvgl/lvgl/src/core/lv_obj_style.h ****     void * user_data;
  54:Drivers/lvgl/lvgl/src/core/lv_obj_style.h **** #endif
  55:Drivers/lvgl/lvgl/src/core/lv_obj_style.h **** } _lv_obj_style_transition_dsc_t;
  56:Drivers/lvgl/lvgl/src/core/lv_obj_style.h **** 
  57:Drivers/lvgl/lvgl/src/core/lv_obj_style.h **** /**********************
  58:Drivers/lvgl/lvgl/src/core/lv_obj_style.h ****  * GLOBAL PROTOTYPES
  59:Drivers/lvgl/lvgl/src/core/lv_obj_style.h ****  **********************/
  60:Drivers/lvgl/lvgl/src/core/lv_obj_style.h **** 
  61:Drivers/lvgl/lvgl/src/core/lv_obj_style.h **** /**
  62:Drivers/lvgl/lvgl/src/core/lv_obj_style.h ****  * Initialize the object related style manager module.
  63:Drivers/lvgl/lvgl/src/core/lv_obj_style.h ****  * Called by LVGL in `lv_init()`
  64:Drivers/lvgl/lvgl/src/core/lv_obj_style.h ****  */
  65:Drivers/lvgl/lvgl/src/core/lv_obj_style.h **** void _lv_obj_style_init(void);
  66:Drivers/lvgl/lvgl/src/core/lv_obj_style.h **** 
  67:Drivers/lvgl/lvgl/src/core/lv_obj_style.h **** /**
  68:Drivers/lvgl/lvgl/src/core/lv_obj_style.h ****  * Add a style to an object.
  69:Drivers/lvgl/lvgl/src/core/lv_obj_style.h ****  * @param obj       pointer to an object
  70:Drivers/lvgl/lvgl/src/core/lv_obj_style.h ****  * @param style     pointer to a style to add
  71:Drivers/lvgl/lvgl/src/core/lv_obj_style.h ****  * @param selector  OR-ed value of parts and state to which the style should be added
  72:Drivers/lvgl/lvgl/src/core/lv_obj_style.h ****  * @example         lv_obj_add_style(btn, &style_btn, 0); //Default button style
  73:Drivers/lvgl/lvgl/src/core/lv_obj_style.h ****  * @example         lv_obj_add_style(btn, &btn_red, LV_STATE_PRESSED); //Overwrite only some colors
  74:Drivers/lvgl/lvgl/src/core/lv_obj_style.h ****  */
  75:Drivers/lvgl/lvgl/src/core/lv_obj_style.h **** void lv_obj_add_style(struct _lv_obj_t * obj, lv_style_t * style, lv_style_selector_t selector);
ARM GAS  /tmp/ccJvwpHF.s 			page 103


  76:Drivers/lvgl/lvgl/src/core/lv_obj_style.h **** 
  77:Drivers/lvgl/lvgl/src/core/lv_obj_style.h **** /**
  78:Drivers/lvgl/lvgl/src/core/lv_obj_style.h ****  * Add a style to an object.
  79:Drivers/lvgl/lvgl/src/core/lv_obj_style.h ****  * @param obj       pointer to an object
  80:Drivers/lvgl/lvgl/src/core/lv_obj_style.h ****  * @param style     pointer to a style to remove. Can be NULL to check only the selector
  81:Drivers/lvgl/lvgl/src/core/lv_obj_style.h ****  * @param selector  OR-ed values of states and a part to remove only styles with matching selectors
  82:Drivers/lvgl/lvgl/src/core/lv_obj_style.h ****  * @example lv_obj_remove_style(obj, &style, LV_PART_ANY | LV_STATE_ANY); //Remove a specific style
  83:Drivers/lvgl/lvgl/src/core/lv_obj_style.h ****  * @example lv_obj_remove_style(obj, NULL, LV_PART_MAIN | LV_STATE_ANY); //Remove all styles from t
  84:Drivers/lvgl/lvgl/src/core/lv_obj_style.h ****  * @example lv_obj_remove_style(obj, NULL, LV_PART_ANY | LV_STATE_ANY); //Remove all styles
  85:Drivers/lvgl/lvgl/src/core/lv_obj_style.h ****  */
  86:Drivers/lvgl/lvgl/src/core/lv_obj_style.h **** void lv_obj_remove_style(struct _lv_obj_t * obj, lv_style_t * style, lv_style_selector_t selector);
  87:Drivers/lvgl/lvgl/src/core/lv_obj_style.h **** 
  88:Drivers/lvgl/lvgl/src/core/lv_obj_style.h **** /**
  89:Drivers/lvgl/lvgl/src/core/lv_obj_style.h ****  * Remove all styles from an object
  90:Drivers/lvgl/lvgl/src/core/lv_obj_style.h ****  * @param obj       pointer to an object
  91:Drivers/lvgl/lvgl/src/core/lv_obj_style.h ****  */
  92:Drivers/lvgl/lvgl/src/core/lv_obj_style.h **** static inline void lv_obj_remove_style_all(struct _lv_obj_t * obj)
  93:Drivers/lvgl/lvgl/src/core/lv_obj_style.h **** {
  94:Drivers/lvgl/lvgl/src/core/lv_obj_style.h ****     lv_obj_remove_style(obj, NULL, LV_PART_ANY | LV_STATE_ANY);
 3198              		.loc 5 94 0
 3199 0010 144A     		ldr	r2, .L247
 3200 0012 0021     		movs	r1, #0
 3201 0014 2046     		mov	r0, r4
 3202 0016 FFF7FEFF 		bl	lv_obj_remove_style
 3203              	.LVL435:
 3204              	.LBE225:
 3205              	.LBE224:
 440:Drivers/lvgl/lvgl/src/core/lv_obj.c **** 
 3206              		.loc 1 440 0
 3207 001a 0120     		movs	r0, #1
 3208 001c FFF7FEFF 		bl	lv_obj_enable_style_refresh
 3209              	.LVL436:
 443:Drivers/lvgl/lvgl/src/core/lv_obj.c **** 
 3210              		.loc 1 443 0
 3211 0020 0021     		movs	r1, #0
 3212 0022 2046     		mov	r0, r4
 3213 0024 FFF7FEFF 		bl	lv_anim_del
 3214              	.LVL437:
 446:Drivers/lvgl/lvgl/src/core/lv_obj.c ****     if(group) lv_group_remove_obj(obj);
 3215              		.loc 1 446 0
 3216 0028 2046     		mov	r0, r4
 3217 002a FFF7FEFF 		bl	lv_obj_get_group
 3218              	.LVL438:
 447:Drivers/lvgl/lvgl/src/core/lv_obj.c **** 
 3219              		.loc 1 447 0
 3220 002e 10B1     		cbz	r0, .L242
 447:Drivers/lvgl/lvgl/src/core/lv_obj.c **** 
 3221              		.loc 1 447 0 is_stmt 0 discriminator 1
 3222 0030 2046     		mov	r0, r4
 3223              	.LVL439:
 3224 0032 FFF7FEFF 		bl	lv_group_remove_obj
 3225              	.LVL440:
 3226              	.L242:
 449:Drivers/lvgl/lvgl/src/core/lv_obj.c ****         if(obj->spec_attr->children) {
 3227              		.loc 1 449 0 is_stmt 1
 3228 0036 A368     		ldr	r3, [r4, #8]
 3229 0038 9BB1     		cbz	r3, .L241
ARM GAS  /tmp/ccJvwpHF.s 			page 104


 450:Drivers/lvgl/lvgl/src/core/lv_obj.c ****             lv_mem_free(obj->spec_attr->children);
 3230              		.loc 1 450 0
 3231 003a 1868     		ldr	r0, [r3]
 3232 003c 20B1     		cbz	r0, .L244
 451:Drivers/lvgl/lvgl/src/core/lv_obj.c ****             obj->spec_attr->children = NULL;
 3233              		.loc 1 451 0
 3234 003e FFF7FEFF 		bl	lv_mem_free
 3235              	.LVL441:
 452:Drivers/lvgl/lvgl/src/core/lv_obj.c ****         }
 3236              		.loc 1 452 0
 3237 0042 A368     		ldr	r3, [r4, #8]
 3238 0044 0022     		movs	r2, #0
 3239 0046 1A60     		str	r2, [r3]
 3240              	.L244:
 454:Drivers/lvgl/lvgl/src/core/lv_obj.c ****             lv_mem_free(obj->spec_attr->event_dsc);
 3241              		.loc 1 454 0
 3242 0048 A368     		ldr	r3, [r4, #8]
 3243 004a D868     		ldr	r0, [r3, #12]
 3244 004c 20B1     		cbz	r0, .L245
 455:Drivers/lvgl/lvgl/src/core/lv_obj.c ****             obj->spec_attr->event_dsc = NULL;
 3245              		.loc 1 455 0
 3246 004e FFF7FEFF 		bl	lv_mem_free
 3247              	.LVL442:
 456:Drivers/lvgl/lvgl/src/core/lv_obj.c ****         }
 3248              		.loc 1 456 0
 3249 0052 A368     		ldr	r3, [r4, #8]
 3250 0054 0022     		movs	r2, #0
 3251 0056 DA60     		str	r2, [r3, #12]
 3252              	.L245:
 459:Drivers/lvgl/lvgl/src/core/lv_obj.c ****         obj->spec_attr = NULL;
 3253              		.loc 1 459 0
 3254 0058 A068     		ldr	r0, [r4, #8]
 3255 005a FFF7FEFF 		bl	lv_mem_free
 3256              	.LVL443:
 460:Drivers/lvgl/lvgl/src/core/lv_obj.c ****     }
 3257              		.loc 1 460 0
 3258 005e 0023     		movs	r3, #0
 3259 0060 A360     		str	r3, [r4, #8]
 3260              	.L241:
 462:Drivers/lvgl/lvgl/src/core/lv_obj.c **** 
 3261              		.loc 1 462 0
 3262 0062 10BD     		pop	{r4, pc}
 3263              	.LVL444:
 3264              	.L248:
 3265              		.align	2
 3266              	.L247:
 3267 0064 FFFF0F00 		.word	1048575
 3268              		.cfi_endproc
 3269              	.LFE221:
 3271              		.section	.text.lv_obj_allocate_spec_attr,"ax",%progbits
 3272              		.align	1
 3273              		.global	lv_obj_allocate_spec_attr
 3274              		.syntax unified
 3275              		.thumb
 3276              		.thumb_func
 3277              		.fpu fpv5-d16
 3279              	lv_obj_allocate_spec_attr:
ARM GAS  /tmp/ccJvwpHF.s 			page 105


 3280              	.LFB215:
 340:Drivers/lvgl/lvgl/src/core/lv_obj.c ****     LV_ASSERT_OBJ(obj, MY_CLASS);
 3281              		.loc 1 340 0
 3282              		.cfi_startproc
 3283              		@ args = 0, pretend = 0, frame = 0
 3284              		@ frame_needed = 0, uses_anonymous_args = 0
 3285              	.LVL445:
 343:Drivers/lvgl/lvgl/src/core/lv_obj.c ****         static uint32_t x = 0;
 3286              		.loc 1 343 0
 3287 0000 8368     		ldr	r3, [r0, #8]
 3288 0002 03B1     		cbz	r3, .L257
 3289 0004 7047     		bx	lr
 3290              	.L257:
 340:Drivers/lvgl/lvgl/src/core/lv_obj.c ****     LV_ASSERT_OBJ(obj, MY_CLASS);
 3291              		.loc 1 340 0
 3292 0006 10B5     		push	{r4, lr}
 3293              	.LCFI33:
 3294              		.cfi_def_cfa_offset 8
 3295              		.cfi_offset 4, -8
 3296              		.cfi_offset 14, -4
 3297 0008 0446     		mov	r4, r0
 3298              	.LBB226:
 345:Drivers/lvgl/lvgl/src/core/lv_obj.c ****         obj->spec_attr = lv_mem_alloc(sizeof(_lv_obj_spec_attr_t));
 3299              		.loc 1 345 0
 3300 000a 0C4A     		ldr	r2, .L258
 3301 000c 1368     		ldr	r3, [r2]
 3302 000e 0133     		adds	r3, r3, #1
 3303 0010 1360     		str	r3, [r2]
 346:Drivers/lvgl/lvgl/src/core/lv_obj.c ****         LV_ASSERT_MALLOC(obj->spec_attr);
 3304              		.loc 1 346 0
 3305 0012 1C20     		movs	r0, #28
 3306              	.LVL446:
 3307 0014 FFF7FEFF 		bl	lv_mem_alloc
 3308              	.LVL447:
 3309 0018 A060     		str	r0, [r4, #8]
 347:Drivers/lvgl/lvgl/src/core/lv_obj.c ****         if(obj->spec_attr == NULL) return;
 3310              		.loc 1 347 0
 3311 001a 00B9     		cbnz	r0, .L251
 3312              	.L252:
 3313 001c FEE7     		b	.L252
 3314              	.L251:
 350:Drivers/lvgl/lvgl/src/core/lv_obj.c **** 
 3315              		.loc 1 350 0
 3316 001e 1C21     		movs	r1, #28
 3317 0020 FFF7FEFF 		bl	lv_memset_00
 3318              	.LVL448:
 352:Drivers/lvgl/lvgl/src/core/lv_obj.c ****         obj->spec_attr->scrollbar_mode = LV_SCROLLBAR_MODE_AUTO;
 3319              		.loc 1 352 0
 3320 0024 A268     		ldr	r2, [r4, #8]
 3321 0026 537E     		ldrb	r3, [r2, #25]	@ zero_extendqisi2
 3322 0028 43F00F03 		orr	r3, r3, #15
 3323 002c 5376     		strb	r3, [r2, #25]
 353:Drivers/lvgl/lvgl/src/core/lv_obj.c ****     }
 3324              		.loc 1 353 0
 3325 002e A268     		ldr	r2, [r4, #8]
 3326 0030 137E     		ldrb	r3, [r2, #24]	@ zero_extendqisi2
 3327 0032 43F00303 		orr	r3, r3, #3
ARM GAS  /tmp/ccJvwpHF.s 			page 106


 3328 0036 1376     		strb	r3, [r2, #24]
 3329              	.LBE226:
 355:Drivers/lvgl/lvgl/src/core/lv_obj.c **** 
 3330              		.loc 1 355 0
 3331 0038 10BD     		pop	{r4, pc}
 3332              	.LVL449:
 3333              	.L259:
 3334 003a 00BF     		.align	2
 3335              	.L258:
 3336 003c 00000000 		.word	.LANCHOR2
 3337              		.cfi_endproc
 3338              	.LFE215:
 3340              		.section	.text.lv_obj_check_type,"ax",%progbits
 3341              		.align	1
 3342              		.global	lv_obj_check_type
 3343              		.syntax unified
 3344              		.thumb
 3345              		.thumb_func
 3346              		.fpu fpv5-d16
 3348              	lv_obj_check_type:
 3349              	.LFB216:
 358:Drivers/lvgl/lvgl/src/core/lv_obj.c ****     if(obj == NULL) return false;
 3350              		.loc 1 358 0
 3351              		.cfi_startproc
 3352              		@ args = 0, pretend = 0, frame = 0
 3353              		@ frame_needed = 0, uses_anonymous_args = 0
 3354              		@ link register save eliminated.
 3355              	.LVL450:
 359:Drivers/lvgl/lvgl/src/core/lv_obj.c ****     return obj->class_p == class_p ? true : false;
 3356              		.loc 1 359 0
 3357 0000 28B1     		cbz	r0, .L262
 360:Drivers/lvgl/lvgl/src/core/lv_obj.c **** }
 3358              		.loc 1 360 0
 3359 0002 0068     		ldr	r0, [r0]
 3360              	.LVL451:
 3361 0004 8842     		cmp	r0, r1
 3362 0006 14BF     		ite	ne
 3363 0008 0020     		movne	r0, #0
 3364 000a 0120     		moveq	r0, #1
 3365 000c 7047     		bx	lr
 3366              	.LVL452:
 3367              	.L262:
 359:Drivers/lvgl/lvgl/src/core/lv_obj.c ****     return obj->class_p == class_p ? true : false;
 3368              		.loc 1 359 0
 3369 000e 0020     		movs	r0, #0
 3370              	.LVL453:
 361:Drivers/lvgl/lvgl/src/core/lv_obj.c **** 
 3371              		.loc 1 361 0
 3372 0010 7047     		bx	lr
 3373              		.cfi_endproc
 3374              	.LFE216:
 3376              		.section	.text.lv_obj_has_class,"ax",%progbits
 3377              		.align	1
 3378              		.global	lv_obj_has_class
 3379              		.syntax unified
 3380              		.thumb
 3381              		.thumb_func
ARM GAS  /tmp/ccJvwpHF.s 			page 107


 3382              		.fpu fpv5-d16
 3384              	lv_obj_has_class:
 3385              	.LFB217:
 364:Drivers/lvgl/lvgl/src/core/lv_obj.c ****     const lv_obj_class_t * obj_class = obj->class_p;
 3386              		.loc 1 364 0
 3387              		.cfi_startproc
 3388              		@ args = 0, pretend = 0, frame = 0
 3389              		@ frame_needed = 0, uses_anonymous_args = 0
 3390              		@ link register save eliminated.
 3391              	.LVL454:
 365:Drivers/lvgl/lvgl/src/core/lv_obj.c ****     while(obj_class) {
 3392              		.loc 1 365 0
 3393 0000 0368     		ldr	r3, [r0]
 3394              	.LVL455:
 3395              	.L264:
 366:Drivers/lvgl/lvgl/src/core/lv_obj.c ****         if(obj_class == class_p) return true;
 3396              		.loc 1 366 0
 3397 0002 1BB1     		cbz	r3, .L268
 367:Drivers/lvgl/lvgl/src/core/lv_obj.c ****         obj_class = obj_class->base_class;
 3398              		.loc 1 367 0
 3399 0004 8B42     		cmp	r3, r1
 3400 0006 03D0     		beq	.L267
 368:Drivers/lvgl/lvgl/src/core/lv_obj.c ****     }
 3401              		.loc 1 368 0
 3402 0008 1B68     		ldr	r3, [r3]
 3403              	.LVL456:
 3404 000a FAE7     		b	.L264
 3405              	.L268:
 371:Drivers/lvgl/lvgl/src/core/lv_obj.c **** }
 3406              		.loc 1 371 0
 3407 000c 0020     		movs	r0, #0
 3408              	.LVL457:
 3409 000e 7047     		bx	lr
 3410              	.LVL458:
 3411              	.L267:
 367:Drivers/lvgl/lvgl/src/core/lv_obj.c ****         obj_class = obj_class->base_class;
 3412              		.loc 1 367 0
 3413 0010 0120     		movs	r0, #1
 3414              	.LVL459:
 372:Drivers/lvgl/lvgl/src/core/lv_obj.c **** 
 3415              		.loc 1 372 0
 3416 0012 7047     		bx	lr
 3417              		.cfi_endproc
 3418              	.LFE217:
 3420              		.section	.text.lv_obj_get_class,"ax",%progbits
 3421              		.align	1
 3422              		.global	lv_obj_get_class
 3423              		.syntax unified
 3424              		.thumb
 3425              		.thumb_func
 3426              		.fpu fpv5-d16
 3428              	lv_obj_get_class:
 3429              	.LFB218:
 375:Drivers/lvgl/lvgl/src/core/lv_obj.c ****     return obj->class_p;
 3430              		.loc 1 375 0
 3431              		.cfi_startproc
 3432              		@ args = 0, pretend = 0, frame = 0
ARM GAS  /tmp/ccJvwpHF.s 			page 108


 3433              		@ frame_needed = 0, uses_anonymous_args = 0
 3434              		@ link register save eliminated.
 3435              	.LVL460:
 377:Drivers/lvgl/lvgl/src/core/lv_obj.c **** 
 3436              		.loc 1 377 0
 3437 0000 0068     		ldr	r0, [r0]
 3438              	.LVL461:
 3439 0002 7047     		bx	lr
 3440              		.cfi_endproc
 3441              	.LFE218:
 3443              		.section	.text.lv_obj_is_valid,"ax",%progbits
 3444              		.align	1
 3445              		.global	lv_obj_is_valid
 3446              		.syntax unified
 3447              		.thumb
 3448              		.thumb_func
 3449              		.fpu fpv5-d16
 3451              	lv_obj_is_valid:
 3452              	.LFB219:
 380:Drivers/lvgl/lvgl/src/core/lv_obj.c ****     lv_disp_t * disp = lv_disp_get_next(NULL);
 3453              		.loc 1 380 0
 3454              		.cfi_startproc
 3455              		@ args = 0, pretend = 0, frame = 0
 3456              		@ frame_needed = 0, uses_anonymous_args = 0
 3457              	.LVL462:
 3458 0000 70B5     		push	{r4, r5, r6, lr}
 3459              	.LCFI34:
 3460              		.cfi_def_cfa_offset 16
 3461              		.cfi_offset 4, -16
 3462              		.cfi_offset 5, -12
 3463              		.cfi_offset 6, -8
 3464              		.cfi_offset 14, -4
 3465 0002 0646     		mov	r6, r0
 381:Drivers/lvgl/lvgl/src/core/lv_obj.c ****     while(disp) {
 3466              		.loc 1 381 0
 3467 0004 0020     		movs	r0, #0
 3468              	.LVL463:
 3469 0006 FFF7FEFF 		bl	lv_disp_get_next
 3470              	.LVL464:
 3471 000a 0546     		mov	r5, r0
 3472              	.LVL465:
 3473              	.L271:
 382:Drivers/lvgl/lvgl/src/core/lv_obj.c ****         uint32_t i;
 3474              		.loc 1 382 0
 3475 000c A5B1     		cbz	r5, .L278
 3476              	.LBB227:
 384:Drivers/lvgl/lvgl/src/core/lv_obj.c ****             if(disp->screens[i] == obj) return true;
 3477              		.loc 1 384 0
 3478 000e 0024     		movs	r4, #0
 3479              	.LVL466:
 3480              	.L274:
 384:Drivers/lvgl/lvgl/src/core/lv_obj.c ****             if(disp->screens[i] == obj) return true;
 3481              		.loc 1 384 0 is_stmt 0 discriminator 1
 3482 0010 6B6A     		ldr	r3, [r5, #36]
 3483 0012 A342     		cmp	r3, r4
 3484 0014 0BD9     		bls	.L279
 3485              	.LBB228:
ARM GAS  /tmp/ccJvwpHF.s 			page 109


 385:Drivers/lvgl/lvgl/src/core/lv_obj.c ****             bool found = obj_valid_child(disp->screens[i], obj);
 3486              		.loc 1 385 0 is_stmt 1
 3487 0016 EB68     		ldr	r3, [r5, #12]
 3488 0018 53F82400 		ldr	r0, [r3, r4, lsl #2]
 3489 001c B042     		cmp	r0, r6
 3490 001e 0DD0     		beq	.L275
 386:Drivers/lvgl/lvgl/src/core/lv_obj.c ****             if(found) return true;
 3491              		.loc 1 386 0
 3492 0020 3146     		mov	r1, r6
 3493 0022 FFF7FEFF 		bl	obj_valid_child
 3494              	.LVL467:
 387:Drivers/lvgl/lvgl/src/core/lv_obj.c ****         }
 3495              		.loc 1 387 0
 3496 0026 0346     		mov	r3, r0
 3497 0028 48B9     		cbnz	r0, .L272
 3498              	.LBE228:
 384:Drivers/lvgl/lvgl/src/core/lv_obj.c ****             if(disp->screens[i] == obj) return true;
 3499              		.loc 1 384 0 discriminator 2
 3500 002a 0134     		adds	r4, r4, #1
 3501              	.LVL468:
 3502 002c F0E7     		b	.L274
 3503              	.LVL469:
 3504              	.L279:
 390:Drivers/lvgl/lvgl/src/core/lv_obj.c ****     }
 3505              		.loc 1 390 0
 3506 002e 2846     		mov	r0, r5
 3507 0030 FFF7FEFF 		bl	lv_disp_get_next
 3508              	.LVL470:
 3509 0034 0546     		mov	r5, r0
 3510              	.LVL471:
 3511 0036 E9E7     		b	.L271
 3512              	.LVL472:
 3513              	.L278:
 3514              	.LBE227:
 393:Drivers/lvgl/lvgl/src/core/lv_obj.c **** }
 3515              		.loc 1 393 0
 3516 0038 0023     		movs	r3, #0
 3517 003a 00E0     		b	.L272
 3518              	.LVL473:
 3519              	.L275:
 3520              	.LBB230:
 3521              	.LBB229:
 385:Drivers/lvgl/lvgl/src/core/lv_obj.c ****             bool found = obj_valid_child(disp->screens[i], obj);
 3522              		.loc 1 385 0
 3523 003c 0123     		movs	r3, #1
 3524              	.LVL474:
 3525              	.L272:
 3526              	.LBE229:
 3527              	.LBE230:
 394:Drivers/lvgl/lvgl/src/core/lv_obj.c **** 
 3528              		.loc 1 394 0
 3529 003e 1846     		mov	r0, r3
 3530 0040 70BD     		pop	{r4, r5, r6, pc}
 3531              		.cfi_endproc
 3532              	.LFE219:
 3534              		.global	lv_obj_class
 3535              		.section	.bss.lv_initialized,"aw",%nobits
ARM GAS  /tmp/ccJvwpHF.s 			page 110


 3536              		.set	.LANCHOR1,. + 0
 3539              	lv_initialized:
 3540 0000 00       		.space	1
 3541              		.section	.bss.x.12615,"aw",%nobits
 3542              		.align	2
 3543              		.set	.LANCHOR2,. + 0
 3546              	x.12615:
 3547 0000 00000000 		.space	4
 3548              		.section	.rodata.lv_obj_class,"a",%progbits
 3549              		.align	2
 3550              		.set	.LANCHOR0,. + 0
 3553              	lv_obj_class:
 3554 0000 00000000 		.word	0
 3555 0004 00000000 		.word	lv_obj_constructor
 3556 0008 00000000 		.word	lv_obj_destructor
 3557 000c 00000000 		.space	4
 3558 0010 00000000 		.word	lv_obj_event
 3559 0014 8200     		.short	130
 3560 0016 8200     		.short	130
 3561 0018 4A       		.byte	74
 3562 0019 02       		.byte	2
 3563 001a 00       		.byte	0
 3564 001b 00       		.space	1
 3565              		.text
 3566              	.Letext0:
 3567              		.file 6 "/opt/gcc-arm-none-eabi-7-2017-q4-major/arm-none-eabi/include/machine/_default_types.h"
 3568              		.file 7 "/opt/gcc-arm-none-eabi-7-2017-q4-major/arm-none-eabi/include/sys/_stdint.h"
 3569              		.file 8 "/opt/gcc-arm-none-eabi-7-2017-q4-major/lib/gcc/arm-none-eabi/7.2.1/include/stddef.h"
 3570              		.file 9 "Drivers/lvgl/lvgl/src/core/../misc/../font/lv_font.h"
 3571              		.file 10 "Drivers/lvgl/lvgl/src/core/../misc/lv_types.h"
 3572              		.file 11 "/opt/gcc-arm-none-eabi-7-2017-q4-major/arm-none-eabi/include/sys/lock.h"
 3573              		.file 12 "/opt/gcc-arm-none-eabi-7-2017-q4-major/arm-none-eabi/include/sys/_types.h"
 3574              		.file 13 "/opt/gcc-arm-none-eabi-7-2017-q4-major/arm-none-eabi/include/sys/reent.h"
 3575              		.file 14 "Drivers/lvgl/lvgl/src/core/../misc/lv_mem.h"
 3576              		.file 15 "Drivers/lvgl/lvgl/src/core/../misc/lv_color.h"
 3577              		.file 16 "Drivers/lvgl/lvgl/src/core/../misc/lv_anim.h"
 3578              		.file 17 "Drivers/lvgl/lvgl/src/core/../misc/lv_txt.h"
 3579              		.file 18 "Drivers/lvgl/lvgl/src/core/../misc/lv_bidi.h"
 3580              		.file 19 "Drivers/lvgl/lvgl/src/core/../hal/../draw/lv_img_buf.h"
 3581              		.file 20 "Drivers/lvgl/lvgl/src/core/../hal/../draw/lv_img_decoder.h"
 3582              		.file 21 "Drivers/lvgl/lvgl/src/core/../hal/../draw/lv_img_cache.h"
 3583              		.file 22 "Drivers/lvgl/lvgl/src/core/../hal/../draw/sw/../../core/lv_obj_pos.h"
 3584              		.file 23 "Drivers/lvgl/lvgl/src/core/lv_obj.h"
 3585              		.file 24 "Drivers/lvgl/lvgl/src/core/../hal/../draw/lv_draw_rect.h"
 3586              		.file 25 "Drivers/lvgl/lvgl/src/core/../hal/../draw/lv_draw_label.h"
 3587              		.file 26 "Drivers/lvgl/lvgl/src/core/../hal/../draw/lv_draw_img.h"
 3588              		.file 27 "Drivers/lvgl/lvgl/src/core/../hal/../draw/lv_draw_line.h"
 3589              		.file 28 "Drivers/lvgl/lvgl/src/core/../hal/../draw/lv_draw_arc.h"
 3590              		.file 29 "Drivers/lvgl/lvgl/src/core/../hal/../draw/lv_draw_mask.h"
 3591              		.file 30 "Drivers/lvgl/lvgl/src/core/../hal/../draw/lv_draw_layer.h"
 3592              		.file 31 "Drivers/lvgl/lvgl/src/core/../hal/../draw/lv_draw.h"
 3593              		.file 32 "Drivers/lvgl/lvgl/src/core/../hal/../misc/lv_ll.h"
 3594              		.file 33 "Drivers/lvgl/lvgl/src/core/../hal/../misc/lv_timer.h"
 3595              		.file 34 "Drivers/lvgl/lvgl/src/core/../hal/lv_hal_disp.h"
 3596              		.file 35 "Drivers/lvgl/lvgl/src/core/lv_theme.h"
 3597              		.file 36 "Drivers/lvgl/lvgl/src/core/../hal/lv_hal_indev.h"
 3598              		.file 37 "Drivers/lvgl/lvgl/src/core/lv_group.h"
ARM GAS  /tmp/ccJvwpHF.s 			page 111


 3599              		.file 38 "Drivers/lvgl/lvgl/src/core/lv_obj_scroll.h"
 3600              		.file 39 "Drivers/lvgl/lvgl/src/core/lv_obj_draw.h"
 3601              		.file 40 "Drivers/lvgl/lvgl/src/core/lv_obj_class.h"
 3602              		.file 41 "Drivers/lvgl/lvgl/src/core/lv_event.h"
 3603              		.file 42 "Drivers/lvgl/lvgl/src/core/../misc/lv_gc.h"
 3604              		.file 43 "Drivers/lvgl/lvgl/src/core/../extra/layouts/flex/lv_flex.h"
 3605              		.file 44 "Drivers/lvgl/lvgl/src/core/../extra/layouts/grid/lv_grid.h"
 3606              		.file 45 "Drivers/lvgl/lvgl/src/core/../extra/libs/gif/../../../../src/widgets/lv_arc.h"
 3607              		.file 46 "Drivers/lvgl/lvgl/src/core/../extra/libs/gif/../../../../src/widgets/lv_btn.h"
 3608              		.file 47 "Drivers/lvgl/lvgl/src/core/../extra/libs/gif/../../../../src/widgets/lv_img.h"
 3609              		.file 48 "Drivers/lvgl/lvgl/src/core/../extra/libs/gif/../../../../src/widgets/lv_label.h"
 3610              		.file 49 "Drivers/lvgl/lvgl/src/core/../extra/libs/gif/../../../../src/widgets/lv_line.h"
 3611              		.file 50 "Drivers/lvgl/lvgl/src/core/../extra/libs/gif/../../../../src/widgets/lv_table.h"
 3612              		.file 51 "Drivers/lvgl/lvgl/src/core/../extra/libs/gif/../../../../src/widgets/lv_checkbox.h"
 3613              		.file 52 "Drivers/lvgl/lvgl/src/core/../extra/libs/gif/../../../../src/widgets/lv_bar.h"
 3614              		.file 53 "Drivers/lvgl/lvgl/src/core/../extra/libs/gif/../../../../src/widgets/lv_slider.h"
 3615              		.file 54 "Drivers/lvgl/lvgl/src/core/../extra/libs/gif/../../../../src/widgets/lv_btnmatrix.h"
 3616              		.file 55 "Drivers/lvgl/lvgl/src/core/../extra/libs/gif/../../../../src/widgets/lv_dropdown.h"
 3617              		.file 56 "Drivers/lvgl/lvgl/src/core/../extra/libs/gif/../../../../src/widgets/lv_roller.h"
 3618              		.file 57 "Drivers/lvgl/lvgl/src/core/../extra/libs/gif/../../../../src/widgets/lv_textarea.h"
 3619              		.file 58 "Drivers/lvgl/lvgl/src/core/../extra/libs/gif/../../../../src/widgets/lv_canvas.h"
 3620              		.file 59 "Drivers/lvgl/lvgl/src/core/../extra/libs/gif/../../../../src/widgets/lv_switch.h"
 3621              		.file 60 "Drivers/lvgl/lvgl/src/core/../extra/widgets/animimg/lv_animimg.h"
 3622              		.file 61 "Drivers/lvgl/lvgl/src/core/../extra/widgets/calendar/lv_calendar.h"
 3623              		.file 62 "Drivers/lvgl/lvgl/src/core/../extra/widgets/calendar/lv_calendar_header_arrow.h"
 3624              		.file 63 "Drivers/lvgl/lvgl/src/core/../extra/widgets/calendar/lv_calendar_header_dropdown.h"
 3625              		.file 64 "Drivers/lvgl/lvgl/src/core/../extra/widgets/chart/lv_chart.h"
 3626              		.file 65 "Drivers/lvgl/lvgl/src/core/../extra/widgets/keyboard/lv_keyboard.h"
 3627              		.file 66 "Drivers/lvgl/lvgl/src/core/../extra/widgets/list/lv_list.h"
 3628              		.file 67 "Drivers/lvgl/lvgl/src/core/../extra/widgets/menu/lv_menu.h"
 3629              		.file 68 "Drivers/lvgl/lvgl/src/core/../extra/widgets/msgbox/lv_msgbox.h"
 3630              		.file 69 "Drivers/lvgl/lvgl/src/core/../extra/widgets/meter/lv_meter.h"
 3631              		.file 70 "Drivers/lvgl/lvgl/src/core/../extra/widgets/spinbox/lv_spinbox.h"
 3632              		.file 71 "Drivers/lvgl/lvgl/src/core/../extra/widgets/spinner/lv_spinner.h"
 3633              		.file 72 "Drivers/lvgl/lvgl/src/core/../extra/widgets/tabview/lv_tabview.h"
 3634              		.file 73 "Drivers/lvgl/lvgl/src/core/../extra/widgets/tileview/lv_tileview.h"
 3635              		.file 74 "Drivers/lvgl/lvgl/src/core/../extra/widgets/win/lv_win.h"
 3636              		.file 75 "Drivers/lvgl/lvgl/src/core/../extra/widgets/colorwheel/lv_colorwheel.h"
 3637              		.file 76 "Drivers/lvgl/lvgl/src/core/../extra/widgets/led/lv_led.h"
 3638              		.file 77 "Drivers/lvgl/lvgl/src/core/../extra/widgets/imgbtn/lv_imgbtn.h"
 3639              		.file 78 "Drivers/lvgl/lvgl/src/core/../extra/widgets/span/lv_span.h"
 3640              		.file 79 "Drivers/lvgl/lvgl/src/core/lv_indev.h"
 3641              		.file 80 "Drivers/lvgl/lvgl/src/core/lv_obj_tree.h"
 3642              		.file 81 "Drivers/lvgl/lvgl/src/core/../hal/../draw/../misc/lv_fs.h"
 3643              		.file 82 "Drivers/lvgl/lvgl/src/core/lv_refr.h"
 3644              		.file 83 "Drivers/lvgl/lvgl/src/core/../extra/lv_extra.h"
ARM GAS  /tmp/ccJvwpHF.s 			page 112


DEFINED SYMBOLS
                            *ABS*:0000000000000000 lv_obj.c
     /tmp/ccJvwpHF.s:17     .text.obj_valid_child:0000000000000000 $t
     /tmp/ccJvwpHF.s:23     .text.obj_valid_child:0000000000000000 obj_valid_child
     /tmp/ccJvwpHF.s:102    .text.scrollbar_init_draw_dsc:0000000000000000 $t
     /tmp/ccJvwpHF.s:108    .text.scrollbar_init_draw_dsc:0000000000000000 scrollbar_init_draw_dsc
     /tmp/ccJvwpHF.s:362    .text.draw_scrollbar:0000000000000000 $t
     /tmp/ccJvwpHF.s:368    .text.draw_scrollbar:0000000000000000 draw_scrollbar
     /tmp/ccJvwpHF.s:505    .text.draw_scrollbar:00000000000000a8 $d
     /tmp/ccJvwpHF.s:510    .text.lv_obj_draw:0000000000000000 $t
     /tmp/ccJvwpHF.s:516    .text.lv_obj_draw:0000000000000000 lv_obj_draw
     /tmp/ccJvwpHF.s:1090   .text.lv_obj_draw:00000000000002c8 $d
     /tmp/ccJvwpHF.s:1097   .text.lv_obj_constructor:0000000000000000 $t
     /tmp/ccJvwpHF.s:1103   .text.lv_obj_constructor:0000000000000000 lv_obj_constructor
     /tmp/ccJvwpHF.s:1220   .text.lv_obj_set_state:0000000000000000 $t
     /tmp/ccJvwpHF.s:1226   .text.lv_obj_set_state:0000000000000000 lv_obj_set_state
     /tmp/ccJvwpHF.s:1757   .text.lv_is_initialized:0000000000000000 $t
     /tmp/ccJvwpHF.s:1764   .text.lv_is_initialized:0000000000000000 lv_is_initialized
     /tmp/ccJvwpHF.s:1778   .text.lv_is_initialized:0000000000000008 $d
     /tmp/ccJvwpHF.s:1783   .text.lv_init:0000000000000000 $t
     /tmp/ccJvwpHF.s:1790   .text.lv_init:0000000000000000 lv_init
     /tmp/ccJvwpHF.s:1858   .text.lv_init:000000000000004c $d
     /tmp/ccJvwpHF.s:1865   .text.lv_deinit:0000000000000000 $t
     /tmp/ccJvwpHF.s:1872   .text.lv_deinit:0000000000000000 lv_deinit
     /tmp/ccJvwpHF.s:1902   .text.lv_deinit:0000000000000018 $d
     /tmp/ccJvwpHF.s:1907   .text.lv_obj_create:0000000000000000 $t
     /tmp/ccJvwpHF.s:1914   .text.lv_obj_create:0000000000000000 lv_obj_create
     /tmp/ccJvwpHF.s:1944   .text.lv_obj_create:0000000000000014 $d
     /tmp/ccJvwpHF.s:1949   .text.lv_obj_add_flag:0000000000000000 $t
     /tmp/ccJvwpHF.s:1956   .text.lv_obj_add_flag:0000000000000000 lv_obj_add_flag
     /tmp/ccJvwpHF.s:2064   .text.lv_obj_clear_flag:0000000000000000 $t
     /tmp/ccJvwpHF.s:2071   .text.lv_obj_clear_flag:0000000000000000 lv_obj_clear_flag
     /tmp/ccJvwpHF.s:2180   .text.lv_obj_add_state:0000000000000000 $t
     /tmp/ccJvwpHF.s:2187   .text.lv_obj_add_state:0000000000000000 lv_obj_add_state
     /tmp/ccJvwpHF.s:2216   .text.lv_obj_clear_state:0000000000000000 $t
     /tmp/ccJvwpHF.s:2223   .text.lv_obj_clear_state:0000000000000000 lv_obj_clear_state
     /tmp/ccJvwpHF.s:2255   .text.lv_obj_has_flag:0000000000000000 $t
     /tmp/ccJvwpHF.s:2262   .text.lv_obj_has_flag:0000000000000000 lv_obj_has_flag
     /tmp/ccJvwpHF.s:2283   .text.lv_obj_has_flag_any:0000000000000000 $t
     /tmp/ccJvwpHF.s:2290   .text.lv_obj_has_flag_any:0000000000000000 lv_obj_has_flag_any
     /tmp/ccJvwpHF.s:2311   .text.lv_obj_get_state:0000000000000000 $t
     /tmp/ccJvwpHF.s:2318   .text.lv_obj_get_state:0000000000000000 lv_obj_get_state
     /tmp/ccJvwpHF.s:2334   .text.lv_obj_has_state:0000000000000000 $t
     /tmp/ccJvwpHF.s:2341   .text.lv_obj_has_state:0000000000000000 lv_obj_has_state
     /tmp/ccJvwpHF.s:2362   .text.lv_obj_get_group:0000000000000000 $t
     /tmp/ccJvwpHF.s:2369   .text.lv_obj_get_group:0000000000000000 lv_obj_get_group
     /tmp/ccJvwpHF.s:2395   .text.lv_obj_event:0000000000000000 $t
     /tmp/ccJvwpHF.s:2401   .text.lv_obj_event:0000000000000000 lv_obj_event
     /tmp/ccJvwpHF.s:3167   .text.lv_obj_destructor:0000000000000000 $t
     /tmp/ccJvwpHF.s:3173   .text.lv_obj_destructor:0000000000000000 lv_obj_destructor
     /tmp/ccJvwpHF.s:3267   .text.lv_obj_destructor:0000000000000064 $d
     /tmp/ccJvwpHF.s:3272   .text.lv_obj_allocate_spec_attr:0000000000000000 $t
     /tmp/ccJvwpHF.s:3279   .text.lv_obj_allocate_spec_attr:0000000000000000 lv_obj_allocate_spec_attr
     /tmp/ccJvwpHF.s:3336   .text.lv_obj_allocate_spec_attr:000000000000003c $d
     /tmp/ccJvwpHF.s:3341   .text.lv_obj_check_type:0000000000000000 $t
     /tmp/ccJvwpHF.s:3348   .text.lv_obj_check_type:0000000000000000 lv_obj_check_type
     /tmp/ccJvwpHF.s:3377   .text.lv_obj_has_class:0000000000000000 $t
ARM GAS  /tmp/ccJvwpHF.s 			page 113


     /tmp/ccJvwpHF.s:3384   .text.lv_obj_has_class:0000000000000000 lv_obj_has_class
     /tmp/ccJvwpHF.s:3421   .text.lv_obj_get_class:0000000000000000 $t
     /tmp/ccJvwpHF.s:3428   .text.lv_obj_get_class:0000000000000000 lv_obj_get_class
     /tmp/ccJvwpHF.s:3444   .text.lv_obj_is_valid:0000000000000000 $t
     /tmp/ccJvwpHF.s:3451   .text.lv_obj_is_valid:0000000000000000 lv_obj_is_valid
     /tmp/ccJvwpHF.s:3553   .rodata.lv_obj_class:0000000000000000 lv_obj_class
     /tmp/ccJvwpHF.s:3539   .bss.lv_initialized:0000000000000000 lv_initialized
     /tmp/ccJvwpHF.s:3540   .bss.lv_initialized:0000000000000000 $d
     /tmp/ccJvwpHF.s:3542   .bss.x.12615:0000000000000000 $d
     /tmp/ccJvwpHF.s:3546   .bss.x.12615:0000000000000000 x.12615
     /tmp/ccJvwpHF.s:3549   .rodata.lv_obj_class:0000000000000000 $d

UNDEFINED SYMBOLS
lv_draw_rect_dsc_init
lv_obj_get_style_prop
lv_obj_get_scrollbar_area
lv_area_get_size
lv_obj_draw_dsc_init
lv_event_send
lv_draw_rect
lv_event_get_code
lv_event_get_target
lv_event_get_param
_lv_area_is_in
lv_event_get_draw_ctx
lv_obj_init_draw_rect_dsc
lv_mem_buf_get
lv_draw_mask_radius_init
lv_draw_mask_add
lv_draw_mask_remove_custom
lv_draw_mask_free_param
lv_mem_buf_release
lv_obj_get_scroll_left
lv_obj_get_scroll_top
_lv_obj_style_state_compare
lv_memset_00
lv_style_prop_get_default
lv_obj_style_get_selector_state
lv_obj_style_get_selector_part
_lv_obj_style_create_transition
lv_obj_invalidate
lv_obj_refresh_ext_draw_size
lv_obj_refresh_style
lv_mem_init
_lv_timer_core_init
_lv_fs_init
_lv_anim_core_init
_lv_group_init
lv_draw_init
_lv_obj_style_init
_lv_ll_init
_lv_refr_init
_lv_img_decoder_init
lv_extra_init
_lv_disp_ll
_lv_indev_ll
_lv_gc_clear_roots
ARM GAS  /tmp/ccJvwpHF.s 			page 114


lv_disp_set_default
lv_mem_deinit
lv_obj_class_create_obj
lv_obj_class_init_obj
lv_obj_is_layout_positioned
lv_obj_get_parent
lv_obj_mark_layout_as_dirty
lv_obj_invalidate_area
lv_event_get_current_target
lv_indev_get_scroll_obj
lv_obj_get_child_cnt
lv_obj_is_editable
lv_obj_get_scroll_right
lv_obj_get_scroll_dir
lv_obj_get_scroll_y
lv_obj_get_height
lv_obj_scroll_to_y
lv_obj_get_scroll_x
lv_obj_get_width
lv_obj_scroll_to_x
lv_group_get_editing
lv_indev_get_act
lv_indev_get_type
lv_obj_scroll_to_view_recursive
lv_event_get_indev
lv_obj_get_scrollbar_mode
lv_obj_calculate_ext_draw_size
lv_event_set_ext_draw_size
_lv_event_mark_deleted
lv_obj_enable_style_refresh
lv_obj_remove_style
lv_anim_del
lv_group_remove_obj
lv_mem_free
lv_mem_alloc
lv_disp_get_next
