ARM GAS  /tmp/cc3JQQuJ.s 			page 1


   1              		.cpu cortex-m7
   2              		.eabi_attribute 28, 1
   3              		.eabi_attribute 20, 1
   4              		.eabi_attribute 21, 1
   5              		.eabi_attribute 23, 3
   6              		.eabi_attribute 24, 1
   7              		.eabi_attribute 25, 1
   8              		.eabi_attribute 26, 1
   9              		.eabi_attribute 30, 1
  10              		.eabi_attribute 34, 1
  11              		.eabi_attribute 18, 4
  12              		.file	"lv_obj_pos.c"
  13              		.text
  14              	.Ltext0:
  15              		.cfi_sections	.debug_frame
  16              		.section	.text.transform_point,"ax",%progbits
  17              		.align	1
  18              		.syntax unified
  19              		.thumb
  20              		.thumb_func
  21              		.fpu fpv5-d16
  23              	transform_point:
  24              	.LFB214:
  25              		.file 1 "Drivers/lvgl/lvgl/src/core/lv_obj_pos.c"
   1:Drivers/lvgl/lvgl/src/core/lv_obj_pos.c **** /**
   2:Drivers/lvgl/lvgl/src/core/lv_obj_pos.c ****  * @file lv_obj_pos.c
   3:Drivers/lvgl/lvgl/src/core/lv_obj_pos.c ****  *
   4:Drivers/lvgl/lvgl/src/core/lv_obj_pos.c ****  */
   5:Drivers/lvgl/lvgl/src/core/lv_obj_pos.c **** 
   6:Drivers/lvgl/lvgl/src/core/lv_obj_pos.c **** /*********************
   7:Drivers/lvgl/lvgl/src/core/lv_obj_pos.c ****  *      INCLUDES
   8:Drivers/lvgl/lvgl/src/core/lv_obj_pos.c ****  *********************/
   9:Drivers/lvgl/lvgl/src/core/lv_obj_pos.c **** #include "lv_obj.h"
  10:Drivers/lvgl/lvgl/src/core/lv_obj_pos.c **** #include "lv_disp.h"
  11:Drivers/lvgl/lvgl/src/core/lv_obj_pos.c **** #include "lv_refr.h"
  12:Drivers/lvgl/lvgl/src/core/lv_obj_pos.c **** #include "../misc/lv_gc.h"
  13:Drivers/lvgl/lvgl/src/core/lv_obj_pos.c **** 
  14:Drivers/lvgl/lvgl/src/core/lv_obj_pos.c **** /*********************
  15:Drivers/lvgl/lvgl/src/core/lv_obj_pos.c ****  *      DEFINES
  16:Drivers/lvgl/lvgl/src/core/lv_obj_pos.c ****  *********************/
  17:Drivers/lvgl/lvgl/src/core/lv_obj_pos.c **** #define MY_CLASS &lv_obj_class
  18:Drivers/lvgl/lvgl/src/core/lv_obj_pos.c **** 
  19:Drivers/lvgl/lvgl/src/core/lv_obj_pos.c **** /**********************
  20:Drivers/lvgl/lvgl/src/core/lv_obj_pos.c ****  *      TYPEDEFS
  21:Drivers/lvgl/lvgl/src/core/lv_obj_pos.c ****  **********************/
  22:Drivers/lvgl/lvgl/src/core/lv_obj_pos.c **** 
  23:Drivers/lvgl/lvgl/src/core/lv_obj_pos.c **** /**********************
  24:Drivers/lvgl/lvgl/src/core/lv_obj_pos.c ****  *  STATIC PROTOTYPES
  25:Drivers/lvgl/lvgl/src/core/lv_obj_pos.c ****  **********************/
  26:Drivers/lvgl/lvgl/src/core/lv_obj_pos.c **** static lv_coord_t calc_content_width(lv_obj_t * obj);
  27:Drivers/lvgl/lvgl/src/core/lv_obj_pos.c **** static lv_coord_t calc_content_height(lv_obj_t * obj);
  28:Drivers/lvgl/lvgl/src/core/lv_obj_pos.c **** static void layout_update_core(lv_obj_t * obj);
  29:Drivers/lvgl/lvgl/src/core/lv_obj_pos.c **** static void transform_point(const lv_obj_t * obj, lv_point_t * p, bool inv);
  30:Drivers/lvgl/lvgl/src/core/lv_obj_pos.c **** 
  31:Drivers/lvgl/lvgl/src/core/lv_obj_pos.c **** /**********************
  32:Drivers/lvgl/lvgl/src/core/lv_obj_pos.c ****  *  STATIC VARIABLES
  33:Drivers/lvgl/lvgl/src/core/lv_obj_pos.c ****  **********************/
ARM GAS  /tmp/cc3JQQuJ.s 			page 2


  34:Drivers/lvgl/lvgl/src/core/lv_obj_pos.c **** static uint32_t layout_cnt;
  35:Drivers/lvgl/lvgl/src/core/lv_obj_pos.c **** 
  36:Drivers/lvgl/lvgl/src/core/lv_obj_pos.c **** /**********************
  37:Drivers/lvgl/lvgl/src/core/lv_obj_pos.c ****  *      MACROS
  38:Drivers/lvgl/lvgl/src/core/lv_obj_pos.c ****  **********************/
  39:Drivers/lvgl/lvgl/src/core/lv_obj_pos.c **** 
  40:Drivers/lvgl/lvgl/src/core/lv_obj_pos.c **** /**********************
  41:Drivers/lvgl/lvgl/src/core/lv_obj_pos.c ****  *   GLOBAL FUNCTIONS
  42:Drivers/lvgl/lvgl/src/core/lv_obj_pos.c ****  **********************/
  43:Drivers/lvgl/lvgl/src/core/lv_obj_pos.c **** 
  44:Drivers/lvgl/lvgl/src/core/lv_obj_pos.c **** void lv_obj_set_pos(lv_obj_t * obj, lv_coord_t x, lv_coord_t y)
  45:Drivers/lvgl/lvgl/src/core/lv_obj_pos.c **** {
  46:Drivers/lvgl/lvgl/src/core/lv_obj_pos.c ****     LV_ASSERT_OBJ(obj, MY_CLASS);
  47:Drivers/lvgl/lvgl/src/core/lv_obj_pos.c **** 
  48:Drivers/lvgl/lvgl/src/core/lv_obj_pos.c ****     lv_obj_set_x(obj, x);
  49:Drivers/lvgl/lvgl/src/core/lv_obj_pos.c ****     lv_obj_set_y(obj, y);
  50:Drivers/lvgl/lvgl/src/core/lv_obj_pos.c **** }
  51:Drivers/lvgl/lvgl/src/core/lv_obj_pos.c **** 
  52:Drivers/lvgl/lvgl/src/core/lv_obj_pos.c **** void lv_obj_set_x(lv_obj_t * obj, lv_coord_t x)
  53:Drivers/lvgl/lvgl/src/core/lv_obj_pos.c **** {
  54:Drivers/lvgl/lvgl/src/core/lv_obj_pos.c ****     LV_ASSERT_OBJ(obj, MY_CLASS);
  55:Drivers/lvgl/lvgl/src/core/lv_obj_pos.c **** 
  56:Drivers/lvgl/lvgl/src/core/lv_obj_pos.c ****     lv_res_t res_x;
  57:Drivers/lvgl/lvgl/src/core/lv_obj_pos.c ****     lv_style_value_t v_x;
  58:Drivers/lvgl/lvgl/src/core/lv_obj_pos.c **** 
  59:Drivers/lvgl/lvgl/src/core/lv_obj_pos.c ****     res_x = lv_obj_get_local_style_prop(obj, LV_STYLE_X, &v_x, 0);
  60:Drivers/lvgl/lvgl/src/core/lv_obj_pos.c **** 
  61:Drivers/lvgl/lvgl/src/core/lv_obj_pos.c ****     if((res_x == LV_RES_OK && v_x.num != x) || res_x == LV_RES_INV) {
  62:Drivers/lvgl/lvgl/src/core/lv_obj_pos.c ****         lv_obj_set_style_x(obj, x, 0);
  63:Drivers/lvgl/lvgl/src/core/lv_obj_pos.c ****     }
  64:Drivers/lvgl/lvgl/src/core/lv_obj_pos.c **** }
  65:Drivers/lvgl/lvgl/src/core/lv_obj_pos.c **** 
  66:Drivers/lvgl/lvgl/src/core/lv_obj_pos.c **** void lv_obj_set_y(lv_obj_t * obj, lv_coord_t y)
  67:Drivers/lvgl/lvgl/src/core/lv_obj_pos.c **** {
  68:Drivers/lvgl/lvgl/src/core/lv_obj_pos.c ****     LV_ASSERT_OBJ(obj, MY_CLASS);
  69:Drivers/lvgl/lvgl/src/core/lv_obj_pos.c **** 
  70:Drivers/lvgl/lvgl/src/core/lv_obj_pos.c ****     lv_res_t res_y;
  71:Drivers/lvgl/lvgl/src/core/lv_obj_pos.c ****     lv_style_value_t v_y;
  72:Drivers/lvgl/lvgl/src/core/lv_obj_pos.c **** 
  73:Drivers/lvgl/lvgl/src/core/lv_obj_pos.c ****     res_y = lv_obj_get_local_style_prop(obj, LV_STYLE_Y, &v_y, 0);
  74:Drivers/lvgl/lvgl/src/core/lv_obj_pos.c **** 
  75:Drivers/lvgl/lvgl/src/core/lv_obj_pos.c ****     if((res_y == LV_RES_OK && v_y.num != y) || res_y == LV_RES_INV) {
  76:Drivers/lvgl/lvgl/src/core/lv_obj_pos.c ****         lv_obj_set_style_y(obj, y, 0);
  77:Drivers/lvgl/lvgl/src/core/lv_obj_pos.c ****     }
  78:Drivers/lvgl/lvgl/src/core/lv_obj_pos.c **** }
  79:Drivers/lvgl/lvgl/src/core/lv_obj_pos.c **** 
  80:Drivers/lvgl/lvgl/src/core/lv_obj_pos.c **** bool lv_obj_refr_size(lv_obj_t * obj)
  81:Drivers/lvgl/lvgl/src/core/lv_obj_pos.c **** {
  82:Drivers/lvgl/lvgl/src/core/lv_obj_pos.c ****     LV_ASSERT_OBJ(obj, MY_CLASS);
  83:Drivers/lvgl/lvgl/src/core/lv_obj_pos.c **** 
  84:Drivers/lvgl/lvgl/src/core/lv_obj_pos.c ****     /*If the width or height is set by a layout do not modify them*/
  85:Drivers/lvgl/lvgl/src/core/lv_obj_pos.c ****     if(obj->w_layout && obj->h_layout) return false;
  86:Drivers/lvgl/lvgl/src/core/lv_obj_pos.c **** 
  87:Drivers/lvgl/lvgl/src/core/lv_obj_pos.c ****     lv_obj_t * parent = lv_obj_get_parent(obj);
  88:Drivers/lvgl/lvgl/src/core/lv_obj_pos.c ****     if(parent == NULL) return false;
  89:Drivers/lvgl/lvgl/src/core/lv_obj_pos.c **** 
  90:Drivers/lvgl/lvgl/src/core/lv_obj_pos.c ****     lv_coord_t sl_ori = lv_obj_get_scroll_left(obj);
ARM GAS  /tmp/cc3JQQuJ.s 			page 3


  91:Drivers/lvgl/lvgl/src/core/lv_obj_pos.c ****     bool w_is_content = false;
  92:Drivers/lvgl/lvgl/src/core/lv_obj_pos.c ****     bool w_is_pct = false;
  93:Drivers/lvgl/lvgl/src/core/lv_obj_pos.c **** 
  94:Drivers/lvgl/lvgl/src/core/lv_obj_pos.c ****     lv_coord_t w;
  95:Drivers/lvgl/lvgl/src/core/lv_obj_pos.c ****     if(obj->w_layout) {
  96:Drivers/lvgl/lvgl/src/core/lv_obj_pos.c ****         w = lv_obj_get_width(obj);
  97:Drivers/lvgl/lvgl/src/core/lv_obj_pos.c ****     }
  98:Drivers/lvgl/lvgl/src/core/lv_obj_pos.c ****     else {
  99:Drivers/lvgl/lvgl/src/core/lv_obj_pos.c ****         w = lv_obj_get_style_width(obj, LV_PART_MAIN);
 100:Drivers/lvgl/lvgl/src/core/lv_obj_pos.c ****         w_is_content = w == LV_SIZE_CONTENT ? true : false;
 101:Drivers/lvgl/lvgl/src/core/lv_obj_pos.c ****         w_is_pct = LV_COORD_IS_PCT(w) ? true : false;
 102:Drivers/lvgl/lvgl/src/core/lv_obj_pos.c ****         lv_coord_t parent_w = lv_obj_get_content_width(parent);
 103:Drivers/lvgl/lvgl/src/core/lv_obj_pos.c **** 
 104:Drivers/lvgl/lvgl/src/core/lv_obj_pos.c ****         if(w_is_content) {
 105:Drivers/lvgl/lvgl/src/core/lv_obj_pos.c ****             w = calc_content_width(obj);
 106:Drivers/lvgl/lvgl/src/core/lv_obj_pos.c ****         }
 107:Drivers/lvgl/lvgl/src/core/lv_obj_pos.c ****         else if(w_is_pct) {
 108:Drivers/lvgl/lvgl/src/core/lv_obj_pos.c ****             /*If parent has content size and the child has pct size
 109:Drivers/lvgl/lvgl/src/core/lv_obj_pos.c ****              *a circular dependency will occur. To solve it keep child size at zero */
 110:Drivers/lvgl/lvgl/src/core/lv_obj_pos.c ****             if(parent->w_layout == 0 && lv_obj_get_style_width(parent, 0) == LV_SIZE_CONTENT) {
 111:Drivers/lvgl/lvgl/src/core/lv_obj_pos.c ****                 lv_coord_t border_w = lv_obj_get_style_border_width(obj, 0);
 112:Drivers/lvgl/lvgl/src/core/lv_obj_pos.c ****                 w = lv_obj_get_style_pad_left(obj, 0) + border_w;
 113:Drivers/lvgl/lvgl/src/core/lv_obj_pos.c ****                 w += lv_obj_get_style_pad_right(obj, 0) + border_w;
 114:Drivers/lvgl/lvgl/src/core/lv_obj_pos.c ****             }
 115:Drivers/lvgl/lvgl/src/core/lv_obj_pos.c ****             else {
 116:Drivers/lvgl/lvgl/src/core/lv_obj_pos.c ****                 w = (LV_COORD_GET_PCT(w) * parent_w) / 100;
 117:Drivers/lvgl/lvgl/src/core/lv_obj_pos.c ****             }
 118:Drivers/lvgl/lvgl/src/core/lv_obj_pos.c ****         }
 119:Drivers/lvgl/lvgl/src/core/lv_obj_pos.c **** 
 120:Drivers/lvgl/lvgl/src/core/lv_obj_pos.c ****         lv_coord_t minw = lv_obj_get_style_min_width(obj, LV_PART_MAIN);
 121:Drivers/lvgl/lvgl/src/core/lv_obj_pos.c ****         lv_coord_t maxw = lv_obj_get_style_max_width(obj, LV_PART_MAIN);
 122:Drivers/lvgl/lvgl/src/core/lv_obj_pos.c ****         w = lv_clamp_width(w, minw, maxw, parent_w);
 123:Drivers/lvgl/lvgl/src/core/lv_obj_pos.c ****     }
 124:Drivers/lvgl/lvgl/src/core/lv_obj_pos.c **** 
 125:Drivers/lvgl/lvgl/src/core/lv_obj_pos.c ****     lv_coord_t st_ori = lv_obj_get_scroll_top(obj);
 126:Drivers/lvgl/lvgl/src/core/lv_obj_pos.c ****     lv_coord_t h;
 127:Drivers/lvgl/lvgl/src/core/lv_obj_pos.c ****     bool h_is_content = false;
 128:Drivers/lvgl/lvgl/src/core/lv_obj_pos.c ****     bool h_is_pct = false;
 129:Drivers/lvgl/lvgl/src/core/lv_obj_pos.c ****     if(obj->h_layout) {
 130:Drivers/lvgl/lvgl/src/core/lv_obj_pos.c ****         h = lv_obj_get_height(obj);
 131:Drivers/lvgl/lvgl/src/core/lv_obj_pos.c ****     }
 132:Drivers/lvgl/lvgl/src/core/lv_obj_pos.c ****     else {
 133:Drivers/lvgl/lvgl/src/core/lv_obj_pos.c ****         h = lv_obj_get_style_height(obj, LV_PART_MAIN);
 134:Drivers/lvgl/lvgl/src/core/lv_obj_pos.c ****         h_is_content = h == LV_SIZE_CONTENT ? true : false;
 135:Drivers/lvgl/lvgl/src/core/lv_obj_pos.c ****         h_is_pct = LV_COORD_IS_PCT(h) ? true : false;
 136:Drivers/lvgl/lvgl/src/core/lv_obj_pos.c ****         lv_coord_t parent_h = lv_obj_get_content_height(parent);
 137:Drivers/lvgl/lvgl/src/core/lv_obj_pos.c **** 
 138:Drivers/lvgl/lvgl/src/core/lv_obj_pos.c ****         if(h_is_content) {
 139:Drivers/lvgl/lvgl/src/core/lv_obj_pos.c ****             h = calc_content_height(obj);
 140:Drivers/lvgl/lvgl/src/core/lv_obj_pos.c ****         }
 141:Drivers/lvgl/lvgl/src/core/lv_obj_pos.c ****         else if(h_is_pct) {
 142:Drivers/lvgl/lvgl/src/core/lv_obj_pos.c ****             /*If parent has content size and the child has pct size
 143:Drivers/lvgl/lvgl/src/core/lv_obj_pos.c ****              *a circular dependency will occur. To solve it keep child size at zero */
 144:Drivers/lvgl/lvgl/src/core/lv_obj_pos.c ****             if(parent->h_layout == 0 && lv_obj_get_style_height(parent, 0) == LV_SIZE_CONTENT) {
 145:Drivers/lvgl/lvgl/src/core/lv_obj_pos.c ****                 lv_coord_t border_w = lv_obj_get_style_border_width(obj, 0);
 146:Drivers/lvgl/lvgl/src/core/lv_obj_pos.c ****                 h = lv_obj_get_style_pad_top(obj, 0) + border_w;
 147:Drivers/lvgl/lvgl/src/core/lv_obj_pos.c ****                 h += lv_obj_get_style_pad_bottom(obj, 0) + border_w;
ARM GAS  /tmp/cc3JQQuJ.s 			page 4


 148:Drivers/lvgl/lvgl/src/core/lv_obj_pos.c ****             }
 149:Drivers/lvgl/lvgl/src/core/lv_obj_pos.c ****             else {
 150:Drivers/lvgl/lvgl/src/core/lv_obj_pos.c ****                 h = (LV_COORD_GET_PCT(h) * parent_h) / 100;
 151:Drivers/lvgl/lvgl/src/core/lv_obj_pos.c ****             }
 152:Drivers/lvgl/lvgl/src/core/lv_obj_pos.c ****         }
 153:Drivers/lvgl/lvgl/src/core/lv_obj_pos.c **** 
 154:Drivers/lvgl/lvgl/src/core/lv_obj_pos.c ****         lv_coord_t minh = lv_obj_get_style_min_height(obj, LV_PART_MAIN);
 155:Drivers/lvgl/lvgl/src/core/lv_obj_pos.c ****         lv_coord_t maxh = lv_obj_get_style_max_height(obj, LV_PART_MAIN);
 156:Drivers/lvgl/lvgl/src/core/lv_obj_pos.c ****         h = lv_clamp_height(h, minh, maxh, parent_h);
 157:Drivers/lvgl/lvgl/src/core/lv_obj_pos.c ****     }
 158:Drivers/lvgl/lvgl/src/core/lv_obj_pos.c **** 
 159:Drivers/lvgl/lvgl/src/core/lv_obj_pos.c ****     /*calc_auto_size set the scroll x/y to 0 so revert the original value*/
 160:Drivers/lvgl/lvgl/src/core/lv_obj_pos.c ****     if(w_is_content || h_is_content) {
 161:Drivers/lvgl/lvgl/src/core/lv_obj_pos.c ****         lv_obj_scroll_to(obj, sl_ori, st_ori, LV_ANIM_OFF);
 162:Drivers/lvgl/lvgl/src/core/lv_obj_pos.c ****     }
 163:Drivers/lvgl/lvgl/src/core/lv_obj_pos.c **** 
 164:Drivers/lvgl/lvgl/src/core/lv_obj_pos.c ****     /*Do nothing if the size is not changed*/
 165:Drivers/lvgl/lvgl/src/core/lv_obj_pos.c ****     /*It is very important else recursive resizing can occur without size change*/
 166:Drivers/lvgl/lvgl/src/core/lv_obj_pos.c ****     if(lv_obj_get_width(obj) == w && lv_obj_get_height(obj) == h) return false;
 167:Drivers/lvgl/lvgl/src/core/lv_obj_pos.c **** 
 168:Drivers/lvgl/lvgl/src/core/lv_obj_pos.c ****     /*Invalidate the original area*/
 169:Drivers/lvgl/lvgl/src/core/lv_obj_pos.c ****     lv_obj_invalidate(obj);
 170:Drivers/lvgl/lvgl/src/core/lv_obj_pos.c **** 
 171:Drivers/lvgl/lvgl/src/core/lv_obj_pos.c ****     /*Save the original coordinates*/
 172:Drivers/lvgl/lvgl/src/core/lv_obj_pos.c ****     lv_area_t ori;
 173:Drivers/lvgl/lvgl/src/core/lv_obj_pos.c ****     lv_obj_get_coords(obj, &ori);
 174:Drivers/lvgl/lvgl/src/core/lv_obj_pos.c **** 
 175:Drivers/lvgl/lvgl/src/core/lv_obj_pos.c ****     /*Check if the object inside the parent or not*/
 176:Drivers/lvgl/lvgl/src/core/lv_obj_pos.c ****     lv_area_t parent_fit_area;
 177:Drivers/lvgl/lvgl/src/core/lv_obj_pos.c ****     lv_obj_get_content_coords(parent, &parent_fit_area);
 178:Drivers/lvgl/lvgl/src/core/lv_obj_pos.c **** 
 179:Drivers/lvgl/lvgl/src/core/lv_obj_pos.c ****     /*If the object is already out of the parent and its position is changes
 180:Drivers/lvgl/lvgl/src/core/lv_obj_pos.c ****      *surely the scrollbars also changes so invalidate them*/
 181:Drivers/lvgl/lvgl/src/core/lv_obj_pos.c ****     bool on1 = _lv_area_is_in(&ori, &parent_fit_area, 0);
 182:Drivers/lvgl/lvgl/src/core/lv_obj_pos.c ****     if(!on1) lv_obj_scrollbar_invalidate(parent);
 183:Drivers/lvgl/lvgl/src/core/lv_obj_pos.c **** 
 184:Drivers/lvgl/lvgl/src/core/lv_obj_pos.c ****     /*Set the length and height
 185:Drivers/lvgl/lvgl/src/core/lv_obj_pos.c ****      *Be sure the content is not scrolled in an invalid position on the new size*/
 186:Drivers/lvgl/lvgl/src/core/lv_obj_pos.c ****     obj->coords.y2 = obj->coords.y1 + h - 1;
 187:Drivers/lvgl/lvgl/src/core/lv_obj_pos.c ****     if(lv_obj_get_style_base_dir(obj, LV_PART_MAIN) == LV_BASE_DIR_RTL) {
 188:Drivers/lvgl/lvgl/src/core/lv_obj_pos.c ****         obj->coords.x1 = obj->coords.x2 - w + 1;
 189:Drivers/lvgl/lvgl/src/core/lv_obj_pos.c ****     }
 190:Drivers/lvgl/lvgl/src/core/lv_obj_pos.c ****     else {
 191:Drivers/lvgl/lvgl/src/core/lv_obj_pos.c ****         obj->coords.x2 = obj->coords.x1 + w - 1;
 192:Drivers/lvgl/lvgl/src/core/lv_obj_pos.c ****     }
 193:Drivers/lvgl/lvgl/src/core/lv_obj_pos.c **** 
 194:Drivers/lvgl/lvgl/src/core/lv_obj_pos.c ****     /*Call the ancestor's event handler to the object with its new coordinates*/
 195:Drivers/lvgl/lvgl/src/core/lv_obj_pos.c ****     lv_event_send(obj, LV_EVENT_SIZE_CHANGED, &ori);
 196:Drivers/lvgl/lvgl/src/core/lv_obj_pos.c **** 
 197:Drivers/lvgl/lvgl/src/core/lv_obj_pos.c ****     /*Call the ancestor's event handler to the parent too*/
 198:Drivers/lvgl/lvgl/src/core/lv_obj_pos.c ****     lv_event_send(parent, LV_EVENT_CHILD_CHANGED, obj);
 199:Drivers/lvgl/lvgl/src/core/lv_obj_pos.c **** 
 200:Drivers/lvgl/lvgl/src/core/lv_obj_pos.c ****     /*Invalidate the new area*/
 201:Drivers/lvgl/lvgl/src/core/lv_obj_pos.c ****     lv_obj_invalidate(obj);
 202:Drivers/lvgl/lvgl/src/core/lv_obj_pos.c **** 
 203:Drivers/lvgl/lvgl/src/core/lv_obj_pos.c ****     lv_obj_readjust_scroll(obj, LV_ANIM_OFF);
 204:Drivers/lvgl/lvgl/src/core/lv_obj_pos.c **** 
ARM GAS  /tmp/cc3JQQuJ.s 			page 5


 205:Drivers/lvgl/lvgl/src/core/lv_obj_pos.c ****     /*If the object was out of the parent invalidate the new scrollbar area too.
 206:Drivers/lvgl/lvgl/src/core/lv_obj_pos.c ****      *If it wasn't out of the parent but out now, also invalidate the scrollbars*/
 207:Drivers/lvgl/lvgl/src/core/lv_obj_pos.c ****     bool on2 = _lv_area_is_in(&obj->coords, &parent_fit_area, 0);
 208:Drivers/lvgl/lvgl/src/core/lv_obj_pos.c ****     if(on1 || (!on1 && on2)) lv_obj_scrollbar_invalidate(parent);
 209:Drivers/lvgl/lvgl/src/core/lv_obj_pos.c **** 
 210:Drivers/lvgl/lvgl/src/core/lv_obj_pos.c ****     lv_obj_refresh_ext_draw_size(obj);
 211:Drivers/lvgl/lvgl/src/core/lv_obj_pos.c **** 
 212:Drivers/lvgl/lvgl/src/core/lv_obj_pos.c ****     return true;
 213:Drivers/lvgl/lvgl/src/core/lv_obj_pos.c **** }
 214:Drivers/lvgl/lvgl/src/core/lv_obj_pos.c **** 
 215:Drivers/lvgl/lvgl/src/core/lv_obj_pos.c **** void lv_obj_set_size(lv_obj_t * obj, lv_coord_t w, lv_coord_t h)
 216:Drivers/lvgl/lvgl/src/core/lv_obj_pos.c **** {
 217:Drivers/lvgl/lvgl/src/core/lv_obj_pos.c ****     LV_ASSERT_OBJ(obj, MY_CLASS);
 218:Drivers/lvgl/lvgl/src/core/lv_obj_pos.c **** 
 219:Drivers/lvgl/lvgl/src/core/lv_obj_pos.c ****     lv_obj_set_width(obj, w);
 220:Drivers/lvgl/lvgl/src/core/lv_obj_pos.c ****     lv_obj_set_height(obj, h);
 221:Drivers/lvgl/lvgl/src/core/lv_obj_pos.c **** }
 222:Drivers/lvgl/lvgl/src/core/lv_obj_pos.c **** 
 223:Drivers/lvgl/lvgl/src/core/lv_obj_pos.c **** void lv_obj_set_width(lv_obj_t * obj, lv_coord_t w)
 224:Drivers/lvgl/lvgl/src/core/lv_obj_pos.c **** {
 225:Drivers/lvgl/lvgl/src/core/lv_obj_pos.c ****     LV_ASSERT_OBJ(obj, MY_CLASS);
 226:Drivers/lvgl/lvgl/src/core/lv_obj_pos.c ****     lv_res_t res_w;
 227:Drivers/lvgl/lvgl/src/core/lv_obj_pos.c ****     lv_style_value_t v_w;
 228:Drivers/lvgl/lvgl/src/core/lv_obj_pos.c **** 
 229:Drivers/lvgl/lvgl/src/core/lv_obj_pos.c ****     res_w = lv_obj_get_local_style_prop(obj, LV_STYLE_WIDTH, &v_w, 0);
 230:Drivers/lvgl/lvgl/src/core/lv_obj_pos.c **** 
 231:Drivers/lvgl/lvgl/src/core/lv_obj_pos.c ****     if((res_w == LV_RES_OK && v_w.num != w) || res_w == LV_RES_INV) {
 232:Drivers/lvgl/lvgl/src/core/lv_obj_pos.c ****         lv_obj_set_style_width(obj, w, 0);
 233:Drivers/lvgl/lvgl/src/core/lv_obj_pos.c ****     }
 234:Drivers/lvgl/lvgl/src/core/lv_obj_pos.c **** }
 235:Drivers/lvgl/lvgl/src/core/lv_obj_pos.c **** 
 236:Drivers/lvgl/lvgl/src/core/lv_obj_pos.c **** void lv_obj_set_height(lv_obj_t * obj, lv_coord_t h)
 237:Drivers/lvgl/lvgl/src/core/lv_obj_pos.c **** {
 238:Drivers/lvgl/lvgl/src/core/lv_obj_pos.c ****     LV_ASSERT_OBJ(obj, MY_CLASS);
 239:Drivers/lvgl/lvgl/src/core/lv_obj_pos.c ****     lv_res_t res_h;
 240:Drivers/lvgl/lvgl/src/core/lv_obj_pos.c ****     lv_style_value_t v_h;
 241:Drivers/lvgl/lvgl/src/core/lv_obj_pos.c **** 
 242:Drivers/lvgl/lvgl/src/core/lv_obj_pos.c ****     res_h = lv_obj_get_local_style_prop(obj, LV_STYLE_HEIGHT, &v_h, 0);
 243:Drivers/lvgl/lvgl/src/core/lv_obj_pos.c **** 
 244:Drivers/lvgl/lvgl/src/core/lv_obj_pos.c ****     if((res_h == LV_RES_OK && v_h.num != h) || res_h == LV_RES_INV) {
 245:Drivers/lvgl/lvgl/src/core/lv_obj_pos.c ****         lv_obj_set_style_height(obj, h, 0);
 246:Drivers/lvgl/lvgl/src/core/lv_obj_pos.c ****     }
 247:Drivers/lvgl/lvgl/src/core/lv_obj_pos.c **** }
 248:Drivers/lvgl/lvgl/src/core/lv_obj_pos.c **** 
 249:Drivers/lvgl/lvgl/src/core/lv_obj_pos.c **** void lv_obj_set_content_width(lv_obj_t * obj, lv_coord_t w)
 250:Drivers/lvgl/lvgl/src/core/lv_obj_pos.c **** {
 251:Drivers/lvgl/lvgl/src/core/lv_obj_pos.c ****     lv_coord_t pleft = lv_obj_get_style_pad_left(obj, LV_PART_MAIN);
 252:Drivers/lvgl/lvgl/src/core/lv_obj_pos.c ****     lv_coord_t pright = lv_obj_get_style_pad_right(obj, LV_PART_MAIN);
 253:Drivers/lvgl/lvgl/src/core/lv_obj_pos.c ****     lv_coord_t border_width = lv_obj_get_style_border_width(obj, LV_PART_MAIN);
 254:Drivers/lvgl/lvgl/src/core/lv_obj_pos.c **** 
 255:Drivers/lvgl/lvgl/src/core/lv_obj_pos.c ****     lv_obj_set_width(obj, w + pleft + pright + 2 * border_width);
 256:Drivers/lvgl/lvgl/src/core/lv_obj_pos.c **** }
 257:Drivers/lvgl/lvgl/src/core/lv_obj_pos.c **** 
 258:Drivers/lvgl/lvgl/src/core/lv_obj_pos.c **** void lv_obj_set_content_height(lv_obj_t * obj, lv_coord_t h)
 259:Drivers/lvgl/lvgl/src/core/lv_obj_pos.c **** {
 260:Drivers/lvgl/lvgl/src/core/lv_obj_pos.c ****     lv_coord_t ptop = lv_obj_get_style_pad_top(obj, LV_PART_MAIN);
 261:Drivers/lvgl/lvgl/src/core/lv_obj_pos.c ****     lv_coord_t pbottom = lv_obj_get_style_pad_bottom(obj, LV_PART_MAIN);
ARM GAS  /tmp/cc3JQQuJ.s 			page 6


 262:Drivers/lvgl/lvgl/src/core/lv_obj_pos.c ****     lv_coord_t border_width = lv_obj_get_style_border_width(obj, LV_PART_MAIN);
 263:Drivers/lvgl/lvgl/src/core/lv_obj_pos.c **** 
 264:Drivers/lvgl/lvgl/src/core/lv_obj_pos.c ****     lv_obj_set_height(obj, h + ptop + pbottom + 2 * border_width);
 265:Drivers/lvgl/lvgl/src/core/lv_obj_pos.c **** }
 266:Drivers/lvgl/lvgl/src/core/lv_obj_pos.c **** 
 267:Drivers/lvgl/lvgl/src/core/lv_obj_pos.c **** void lv_obj_set_layout(lv_obj_t * obj, uint32_t layout)
 268:Drivers/lvgl/lvgl/src/core/lv_obj_pos.c **** {
 269:Drivers/lvgl/lvgl/src/core/lv_obj_pos.c ****     LV_ASSERT_OBJ(obj, MY_CLASS);
 270:Drivers/lvgl/lvgl/src/core/lv_obj_pos.c **** 
 271:Drivers/lvgl/lvgl/src/core/lv_obj_pos.c ****     lv_obj_set_style_layout(obj, layout, 0);
 272:Drivers/lvgl/lvgl/src/core/lv_obj_pos.c **** 
 273:Drivers/lvgl/lvgl/src/core/lv_obj_pos.c ****     lv_obj_mark_layout_as_dirty(obj);
 274:Drivers/lvgl/lvgl/src/core/lv_obj_pos.c **** }
 275:Drivers/lvgl/lvgl/src/core/lv_obj_pos.c **** 
 276:Drivers/lvgl/lvgl/src/core/lv_obj_pos.c **** bool lv_obj_is_layout_positioned(const lv_obj_t * obj)
 277:Drivers/lvgl/lvgl/src/core/lv_obj_pos.c **** {
 278:Drivers/lvgl/lvgl/src/core/lv_obj_pos.c ****     if(lv_obj_has_flag_any(obj, LV_OBJ_FLAG_HIDDEN | LV_OBJ_FLAG_IGNORE_LAYOUT | LV_OBJ_FLAG_FLOATI
 279:Drivers/lvgl/lvgl/src/core/lv_obj_pos.c **** 
 280:Drivers/lvgl/lvgl/src/core/lv_obj_pos.c ****     lv_obj_t * parent = lv_obj_get_parent(obj);
 281:Drivers/lvgl/lvgl/src/core/lv_obj_pos.c ****     if(parent == NULL) return false;
 282:Drivers/lvgl/lvgl/src/core/lv_obj_pos.c **** 
 283:Drivers/lvgl/lvgl/src/core/lv_obj_pos.c ****     uint32_t layout = lv_obj_get_style_layout(parent, LV_PART_MAIN);
 284:Drivers/lvgl/lvgl/src/core/lv_obj_pos.c ****     if(layout) return true;
 285:Drivers/lvgl/lvgl/src/core/lv_obj_pos.c ****     else return false;
 286:Drivers/lvgl/lvgl/src/core/lv_obj_pos.c **** }
 287:Drivers/lvgl/lvgl/src/core/lv_obj_pos.c **** 
 288:Drivers/lvgl/lvgl/src/core/lv_obj_pos.c **** void lv_obj_mark_layout_as_dirty(lv_obj_t * obj)
 289:Drivers/lvgl/lvgl/src/core/lv_obj_pos.c **** {
 290:Drivers/lvgl/lvgl/src/core/lv_obj_pos.c ****     obj->layout_inv = 1;
 291:Drivers/lvgl/lvgl/src/core/lv_obj_pos.c **** 
 292:Drivers/lvgl/lvgl/src/core/lv_obj_pos.c ****     /*Mark the screen as dirty too to mark that there is something to do on this screen*/
 293:Drivers/lvgl/lvgl/src/core/lv_obj_pos.c ****     lv_obj_t * scr = lv_obj_get_screen(obj);
 294:Drivers/lvgl/lvgl/src/core/lv_obj_pos.c ****     scr->scr_layout_inv = 1;
 295:Drivers/lvgl/lvgl/src/core/lv_obj_pos.c **** 
 296:Drivers/lvgl/lvgl/src/core/lv_obj_pos.c ****     /*Make the display refreshing*/
 297:Drivers/lvgl/lvgl/src/core/lv_obj_pos.c ****     lv_disp_t * disp = lv_obj_get_disp(scr);
 298:Drivers/lvgl/lvgl/src/core/lv_obj_pos.c ****     if(disp->refr_timer) lv_timer_resume(disp->refr_timer);
 299:Drivers/lvgl/lvgl/src/core/lv_obj_pos.c **** }
 300:Drivers/lvgl/lvgl/src/core/lv_obj_pos.c **** 
 301:Drivers/lvgl/lvgl/src/core/lv_obj_pos.c **** void lv_obj_update_layout(const lv_obj_t * obj)
 302:Drivers/lvgl/lvgl/src/core/lv_obj_pos.c **** {
 303:Drivers/lvgl/lvgl/src/core/lv_obj_pos.c ****     static bool mutex = false;
 304:Drivers/lvgl/lvgl/src/core/lv_obj_pos.c ****     if(mutex) {
 305:Drivers/lvgl/lvgl/src/core/lv_obj_pos.c ****         LV_LOG_TRACE("Already running, returning");
 306:Drivers/lvgl/lvgl/src/core/lv_obj_pos.c ****         return;
 307:Drivers/lvgl/lvgl/src/core/lv_obj_pos.c ****     }
 308:Drivers/lvgl/lvgl/src/core/lv_obj_pos.c ****     mutex = true;
 309:Drivers/lvgl/lvgl/src/core/lv_obj_pos.c **** 
 310:Drivers/lvgl/lvgl/src/core/lv_obj_pos.c ****     lv_obj_t * scr = lv_obj_get_screen(obj);
 311:Drivers/lvgl/lvgl/src/core/lv_obj_pos.c **** 
 312:Drivers/lvgl/lvgl/src/core/lv_obj_pos.c ****     /*Repeat until there where layout invalidations*/
 313:Drivers/lvgl/lvgl/src/core/lv_obj_pos.c ****     while(scr->scr_layout_inv) {
 314:Drivers/lvgl/lvgl/src/core/lv_obj_pos.c ****         LV_LOG_INFO("Layout update begin");
 315:Drivers/lvgl/lvgl/src/core/lv_obj_pos.c ****         scr->scr_layout_inv = 0;
 316:Drivers/lvgl/lvgl/src/core/lv_obj_pos.c ****         layout_update_core(scr);
 317:Drivers/lvgl/lvgl/src/core/lv_obj_pos.c ****         LV_LOG_TRACE("Layout update end");
 318:Drivers/lvgl/lvgl/src/core/lv_obj_pos.c ****     }
ARM GAS  /tmp/cc3JQQuJ.s 			page 7


 319:Drivers/lvgl/lvgl/src/core/lv_obj_pos.c **** 
 320:Drivers/lvgl/lvgl/src/core/lv_obj_pos.c ****     mutex = false;
 321:Drivers/lvgl/lvgl/src/core/lv_obj_pos.c **** }
 322:Drivers/lvgl/lvgl/src/core/lv_obj_pos.c **** 
 323:Drivers/lvgl/lvgl/src/core/lv_obj_pos.c **** uint32_t lv_layout_register(lv_layout_update_cb_t cb, void * user_data)
 324:Drivers/lvgl/lvgl/src/core/lv_obj_pos.c **** {
 325:Drivers/lvgl/lvgl/src/core/lv_obj_pos.c ****     layout_cnt++;
 326:Drivers/lvgl/lvgl/src/core/lv_obj_pos.c ****     LV_GC_ROOT(_lv_layout_list) = lv_mem_realloc(LV_GC_ROOT(_lv_layout_list), layout_cnt * sizeof(l
 327:Drivers/lvgl/lvgl/src/core/lv_obj_pos.c ****     LV_ASSERT_MALLOC(LV_GC_ROOT(_lv_layout_list));
 328:Drivers/lvgl/lvgl/src/core/lv_obj_pos.c **** 
 329:Drivers/lvgl/lvgl/src/core/lv_obj_pos.c ****     LV_GC_ROOT(_lv_layout_list)[layout_cnt - 1].cb = cb;
 330:Drivers/lvgl/lvgl/src/core/lv_obj_pos.c ****     LV_GC_ROOT(_lv_layout_list)[layout_cnt - 1].user_data = user_data;
 331:Drivers/lvgl/lvgl/src/core/lv_obj_pos.c ****     return layout_cnt;  /*No -1 to skip 0th index*/
 332:Drivers/lvgl/lvgl/src/core/lv_obj_pos.c **** }
 333:Drivers/lvgl/lvgl/src/core/lv_obj_pos.c **** 
 334:Drivers/lvgl/lvgl/src/core/lv_obj_pos.c **** void lv_obj_set_align(lv_obj_t * obj, lv_align_t align)
 335:Drivers/lvgl/lvgl/src/core/lv_obj_pos.c **** {
 336:Drivers/lvgl/lvgl/src/core/lv_obj_pos.c ****     lv_obj_set_style_align(obj, align, 0);
 337:Drivers/lvgl/lvgl/src/core/lv_obj_pos.c **** }
 338:Drivers/lvgl/lvgl/src/core/lv_obj_pos.c **** 
 339:Drivers/lvgl/lvgl/src/core/lv_obj_pos.c **** void lv_obj_align(lv_obj_t * obj, lv_align_t align, lv_coord_t x_ofs, lv_coord_t y_ofs)
 340:Drivers/lvgl/lvgl/src/core/lv_obj_pos.c **** {
 341:Drivers/lvgl/lvgl/src/core/lv_obj_pos.c ****     lv_obj_set_style_align(obj, align, 0);
 342:Drivers/lvgl/lvgl/src/core/lv_obj_pos.c ****     lv_obj_set_pos(obj, x_ofs, y_ofs);
 343:Drivers/lvgl/lvgl/src/core/lv_obj_pos.c **** }
 344:Drivers/lvgl/lvgl/src/core/lv_obj_pos.c **** 
 345:Drivers/lvgl/lvgl/src/core/lv_obj_pos.c **** void lv_obj_align_to(lv_obj_t * obj, const lv_obj_t * base, lv_align_t align, lv_coord_t x_ofs, lv_
 346:Drivers/lvgl/lvgl/src/core/lv_obj_pos.c **** {
 347:Drivers/lvgl/lvgl/src/core/lv_obj_pos.c ****     LV_ASSERT_OBJ(obj, MY_CLASS);
 348:Drivers/lvgl/lvgl/src/core/lv_obj_pos.c **** 
 349:Drivers/lvgl/lvgl/src/core/lv_obj_pos.c ****     lv_obj_update_layout(obj);
 350:Drivers/lvgl/lvgl/src/core/lv_obj_pos.c ****     if(base == NULL) base = lv_obj_get_parent(obj);
 351:Drivers/lvgl/lvgl/src/core/lv_obj_pos.c **** 
 352:Drivers/lvgl/lvgl/src/core/lv_obj_pos.c ****     LV_ASSERT_OBJ(base, MY_CLASS);
 353:Drivers/lvgl/lvgl/src/core/lv_obj_pos.c **** 
 354:Drivers/lvgl/lvgl/src/core/lv_obj_pos.c ****     lv_coord_t x = 0;
 355:Drivers/lvgl/lvgl/src/core/lv_obj_pos.c ****     lv_coord_t y = 0;
 356:Drivers/lvgl/lvgl/src/core/lv_obj_pos.c **** 
 357:Drivers/lvgl/lvgl/src/core/lv_obj_pos.c ****     lv_obj_t * parent = lv_obj_get_parent(obj);
 358:Drivers/lvgl/lvgl/src/core/lv_obj_pos.c ****     lv_coord_t pborder = lv_obj_get_style_border_width(parent, LV_PART_MAIN);
 359:Drivers/lvgl/lvgl/src/core/lv_obj_pos.c ****     lv_coord_t pleft = lv_obj_get_style_pad_left(parent, LV_PART_MAIN) + pborder;
 360:Drivers/lvgl/lvgl/src/core/lv_obj_pos.c ****     lv_coord_t ptop = lv_obj_get_style_pad_top(parent, LV_PART_MAIN) + pborder;
 361:Drivers/lvgl/lvgl/src/core/lv_obj_pos.c **** 
 362:Drivers/lvgl/lvgl/src/core/lv_obj_pos.c ****     lv_coord_t bborder = lv_obj_get_style_border_width(base, LV_PART_MAIN);
 363:Drivers/lvgl/lvgl/src/core/lv_obj_pos.c ****     lv_coord_t bleft = lv_obj_get_style_pad_left(base, LV_PART_MAIN) + bborder;
 364:Drivers/lvgl/lvgl/src/core/lv_obj_pos.c ****     lv_coord_t btop = lv_obj_get_style_pad_top(base, LV_PART_MAIN) + bborder;
 365:Drivers/lvgl/lvgl/src/core/lv_obj_pos.c **** 
 366:Drivers/lvgl/lvgl/src/core/lv_obj_pos.c ****     if(align == LV_ALIGN_DEFAULT) {
 367:Drivers/lvgl/lvgl/src/core/lv_obj_pos.c ****         if(lv_obj_get_style_base_dir(base, LV_PART_MAIN) == LV_BASE_DIR_RTL) align = LV_ALIGN_TOP_R
 368:Drivers/lvgl/lvgl/src/core/lv_obj_pos.c ****         else align = LV_ALIGN_TOP_LEFT;
 369:Drivers/lvgl/lvgl/src/core/lv_obj_pos.c ****     }
 370:Drivers/lvgl/lvgl/src/core/lv_obj_pos.c **** 
 371:Drivers/lvgl/lvgl/src/core/lv_obj_pos.c ****     switch(align) {
 372:Drivers/lvgl/lvgl/src/core/lv_obj_pos.c ****         case LV_ALIGN_CENTER:
 373:Drivers/lvgl/lvgl/src/core/lv_obj_pos.c ****             x = lv_obj_get_content_width(base) / 2 - lv_obj_get_width(obj) / 2 + bleft;
 374:Drivers/lvgl/lvgl/src/core/lv_obj_pos.c ****             y = lv_obj_get_content_height(base) / 2 - lv_obj_get_height(obj) / 2 + btop;
 375:Drivers/lvgl/lvgl/src/core/lv_obj_pos.c ****             break;
ARM GAS  /tmp/cc3JQQuJ.s 			page 8


 376:Drivers/lvgl/lvgl/src/core/lv_obj_pos.c ****         case LV_ALIGN_TOP_LEFT:
 377:Drivers/lvgl/lvgl/src/core/lv_obj_pos.c ****             x = bleft;
 378:Drivers/lvgl/lvgl/src/core/lv_obj_pos.c ****             y = btop;
 379:Drivers/lvgl/lvgl/src/core/lv_obj_pos.c ****             break;
 380:Drivers/lvgl/lvgl/src/core/lv_obj_pos.c ****         case LV_ALIGN_TOP_MID:
 381:Drivers/lvgl/lvgl/src/core/lv_obj_pos.c ****             x = lv_obj_get_content_width(base) / 2 - lv_obj_get_width(obj) / 2 + bleft;
 382:Drivers/lvgl/lvgl/src/core/lv_obj_pos.c ****             y = btop;
 383:Drivers/lvgl/lvgl/src/core/lv_obj_pos.c ****             break;
 384:Drivers/lvgl/lvgl/src/core/lv_obj_pos.c **** 
 385:Drivers/lvgl/lvgl/src/core/lv_obj_pos.c ****         case LV_ALIGN_TOP_RIGHT:
 386:Drivers/lvgl/lvgl/src/core/lv_obj_pos.c ****             x = lv_obj_get_content_width(base) - lv_obj_get_width(obj) + bleft;
 387:Drivers/lvgl/lvgl/src/core/lv_obj_pos.c ****             y = btop;
 388:Drivers/lvgl/lvgl/src/core/lv_obj_pos.c ****             break;
 389:Drivers/lvgl/lvgl/src/core/lv_obj_pos.c **** 
 390:Drivers/lvgl/lvgl/src/core/lv_obj_pos.c ****         case LV_ALIGN_BOTTOM_LEFT:
 391:Drivers/lvgl/lvgl/src/core/lv_obj_pos.c ****             x = bleft;
 392:Drivers/lvgl/lvgl/src/core/lv_obj_pos.c ****             y = lv_obj_get_content_height(base) - lv_obj_get_height(obj) + btop;
 393:Drivers/lvgl/lvgl/src/core/lv_obj_pos.c ****             break;
 394:Drivers/lvgl/lvgl/src/core/lv_obj_pos.c ****         case LV_ALIGN_BOTTOM_MID:
 395:Drivers/lvgl/lvgl/src/core/lv_obj_pos.c ****             x = lv_obj_get_content_width(base) / 2 - lv_obj_get_width(obj) / 2 + bleft;
 396:Drivers/lvgl/lvgl/src/core/lv_obj_pos.c ****             y = lv_obj_get_content_height(base) - lv_obj_get_height(obj) + btop;
 397:Drivers/lvgl/lvgl/src/core/lv_obj_pos.c ****             break;
 398:Drivers/lvgl/lvgl/src/core/lv_obj_pos.c **** 
 399:Drivers/lvgl/lvgl/src/core/lv_obj_pos.c ****         case LV_ALIGN_BOTTOM_RIGHT:
 400:Drivers/lvgl/lvgl/src/core/lv_obj_pos.c ****             x = lv_obj_get_content_width(base) - lv_obj_get_width(obj) + bleft;
 401:Drivers/lvgl/lvgl/src/core/lv_obj_pos.c ****             y = lv_obj_get_content_height(base) - lv_obj_get_height(obj) + btop;
 402:Drivers/lvgl/lvgl/src/core/lv_obj_pos.c ****             break;
 403:Drivers/lvgl/lvgl/src/core/lv_obj_pos.c **** 
 404:Drivers/lvgl/lvgl/src/core/lv_obj_pos.c ****         case LV_ALIGN_LEFT_MID:
 405:Drivers/lvgl/lvgl/src/core/lv_obj_pos.c ****             x = bleft;
 406:Drivers/lvgl/lvgl/src/core/lv_obj_pos.c ****             y = lv_obj_get_content_height(base) / 2 - lv_obj_get_height(obj) / 2 + btop;
 407:Drivers/lvgl/lvgl/src/core/lv_obj_pos.c ****             break;
 408:Drivers/lvgl/lvgl/src/core/lv_obj_pos.c **** 
 409:Drivers/lvgl/lvgl/src/core/lv_obj_pos.c ****         case LV_ALIGN_RIGHT_MID:
 410:Drivers/lvgl/lvgl/src/core/lv_obj_pos.c ****             x = lv_obj_get_content_width(base) - lv_obj_get_width(obj) + bleft;
 411:Drivers/lvgl/lvgl/src/core/lv_obj_pos.c ****             y = lv_obj_get_content_height(base) / 2 - lv_obj_get_height(obj) / 2 + btop;
 412:Drivers/lvgl/lvgl/src/core/lv_obj_pos.c ****             break;
 413:Drivers/lvgl/lvgl/src/core/lv_obj_pos.c **** 
 414:Drivers/lvgl/lvgl/src/core/lv_obj_pos.c ****         case LV_ALIGN_OUT_TOP_LEFT:
 415:Drivers/lvgl/lvgl/src/core/lv_obj_pos.c ****             x = 0;
 416:Drivers/lvgl/lvgl/src/core/lv_obj_pos.c ****             y = -lv_obj_get_height(obj);
 417:Drivers/lvgl/lvgl/src/core/lv_obj_pos.c ****             break;
 418:Drivers/lvgl/lvgl/src/core/lv_obj_pos.c **** 
 419:Drivers/lvgl/lvgl/src/core/lv_obj_pos.c ****         case LV_ALIGN_OUT_TOP_MID:
 420:Drivers/lvgl/lvgl/src/core/lv_obj_pos.c ****             x = lv_obj_get_width(base) / 2 - lv_obj_get_width(obj) / 2;
 421:Drivers/lvgl/lvgl/src/core/lv_obj_pos.c ****             y = -lv_obj_get_height(obj);
 422:Drivers/lvgl/lvgl/src/core/lv_obj_pos.c ****             break;
 423:Drivers/lvgl/lvgl/src/core/lv_obj_pos.c **** 
 424:Drivers/lvgl/lvgl/src/core/lv_obj_pos.c ****         case LV_ALIGN_OUT_TOP_RIGHT:
 425:Drivers/lvgl/lvgl/src/core/lv_obj_pos.c ****             x = lv_obj_get_width(base) - lv_obj_get_width(obj);
 426:Drivers/lvgl/lvgl/src/core/lv_obj_pos.c ****             y = -lv_obj_get_height(obj);
 427:Drivers/lvgl/lvgl/src/core/lv_obj_pos.c ****             break;
 428:Drivers/lvgl/lvgl/src/core/lv_obj_pos.c **** 
 429:Drivers/lvgl/lvgl/src/core/lv_obj_pos.c ****         case LV_ALIGN_OUT_BOTTOM_LEFT:
 430:Drivers/lvgl/lvgl/src/core/lv_obj_pos.c ****             x = 0;
 431:Drivers/lvgl/lvgl/src/core/lv_obj_pos.c ****             y = lv_obj_get_height(base);
 432:Drivers/lvgl/lvgl/src/core/lv_obj_pos.c ****             break;
ARM GAS  /tmp/cc3JQQuJ.s 			page 9


 433:Drivers/lvgl/lvgl/src/core/lv_obj_pos.c **** 
 434:Drivers/lvgl/lvgl/src/core/lv_obj_pos.c ****         case LV_ALIGN_OUT_BOTTOM_MID:
 435:Drivers/lvgl/lvgl/src/core/lv_obj_pos.c ****             x = lv_obj_get_width(base) / 2 - lv_obj_get_width(obj) / 2;
 436:Drivers/lvgl/lvgl/src/core/lv_obj_pos.c ****             y = lv_obj_get_height(base);
 437:Drivers/lvgl/lvgl/src/core/lv_obj_pos.c ****             break;
 438:Drivers/lvgl/lvgl/src/core/lv_obj_pos.c **** 
 439:Drivers/lvgl/lvgl/src/core/lv_obj_pos.c ****         case LV_ALIGN_OUT_BOTTOM_RIGHT:
 440:Drivers/lvgl/lvgl/src/core/lv_obj_pos.c ****             x = lv_obj_get_width(base) - lv_obj_get_width(obj);
 441:Drivers/lvgl/lvgl/src/core/lv_obj_pos.c ****             y = lv_obj_get_height(base);
 442:Drivers/lvgl/lvgl/src/core/lv_obj_pos.c ****             break;
 443:Drivers/lvgl/lvgl/src/core/lv_obj_pos.c **** 
 444:Drivers/lvgl/lvgl/src/core/lv_obj_pos.c ****         case LV_ALIGN_OUT_LEFT_TOP:
 445:Drivers/lvgl/lvgl/src/core/lv_obj_pos.c ****             x = -lv_obj_get_width(obj);
 446:Drivers/lvgl/lvgl/src/core/lv_obj_pos.c ****             y = 0;
 447:Drivers/lvgl/lvgl/src/core/lv_obj_pos.c ****             break;
 448:Drivers/lvgl/lvgl/src/core/lv_obj_pos.c **** 
 449:Drivers/lvgl/lvgl/src/core/lv_obj_pos.c ****         case LV_ALIGN_OUT_LEFT_MID:
 450:Drivers/lvgl/lvgl/src/core/lv_obj_pos.c ****             x = -lv_obj_get_width(obj);
 451:Drivers/lvgl/lvgl/src/core/lv_obj_pos.c ****             y = lv_obj_get_height(base) / 2 - lv_obj_get_height(obj) / 2;
 452:Drivers/lvgl/lvgl/src/core/lv_obj_pos.c ****             break;
 453:Drivers/lvgl/lvgl/src/core/lv_obj_pos.c **** 
 454:Drivers/lvgl/lvgl/src/core/lv_obj_pos.c ****         case LV_ALIGN_OUT_LEFT_BOTTOM:
 455:Drivers/lvgl/lvgl/src/core/lv_obj_pos.c ****             x = -lv_obj_get_width(obj);
 456:Drivers/lvgl/lvgl/src/core/lv_obj_pos.c ****             y = lv_obj_get_height(base) - lv_obj_get_height(obj);
 457:Drivers/lvgl/lvgl/src/core/lv_obj_pos.c ****             break;
 458:Drivers/lvgl/lvgl/src/core/lv_obj_pos.c **** 
 459:Drivers/lvgl/lvgl/src/core/lv_obj_pos.c ****         case LV_ALIGN_OUT_RIGHT_TOP:
 460:Drivers/lvgl/lvgl/src/core/lv_obj_pos.c ****             x = lv_obj_get_width(base);
 461:Drivers/lvgl/lvgl/src/core/lv_obj_pos.c ****             y = 0;
 462:Drivers/lvgl/lvgl/src/core/lv_obj_pos.c ****             break;
 463:Drivers/lvgl/lvgl/src/core/lv_obj_pos.c **** 
 464:Drivers/lvgl/lvgl/src/core/lv_obj_pos.c ****         case LV_ALIGN_OUT_RIGHT_MID:
 465:Drivers/lvgl/lvgl/src/core/lv_obj_pos.c ****             x = lv_obj_get_width(base);
 466:Drivers/lvgl/lvgl/src/core/lv_obj_pos.c ****             y = lv_obj_get_height(base) / 2 - lv_obj_get_height(obj) / 2;
 467:Drivers/lvgl/lvgl/src/core/lv_obj_pos.c ****             break;
 468:Drivers/lvgl/lvgl/src/core/lv_obj_pos.c **** 
 469:Drivers/lvgl/lvgl/src/core/lv_obj_pos.c ****         case LV_ALIGN_OUT_RIGHT_BOTTOM:
 470:Drivers/lvgl/lvgl/src/core/lv_obj_pos.c ****             x = lv_obj_get_width(base);
 471:Drivers/lvgl/lvgl/src/core/lv_obj_pos.c ****             y = lv_obj_get_height(base) - lv_obj_get_height(obj);
 472:Drivers/lvgl/lvgl/src/core/lv_obj_pos.c ****             break;
 473:Drivers/lvgl/lvgl/src/core/lv_obj_pos.c ****     }
 474:Drivers/lvgl/lvgl/src/core/lv_obj_pos.c **** 
 475:Drivers/lvgl/lvgl/src/core/lv_obj_pos.c ****     if(lv_obj_get_style_base_dir(parent, LV_PART_MAIN) == LV_BASE_DIR_RTL) {
 476:Drivers/lvgl/lvgl/src/core/lv_obj_pos.c ****         x += x_ofs + base->coords.x1 - parent->coords.x1 + lv_obj_get_scroll_right(parent) - pleft;
 477:Drivers/lvgl/lvgl/src/core/lv_obj_pos.c ****     }
 478:Drivers/lvgl/lvgl/src/core/lv_obj_pos.c ****     else {
 479:Drivers/lvgl/lvgl/src/core/lv_obj_pos.c ****         x += x_ofs + base->coords.x1 - parent->coords.x1 + lv_obj_get_scroll_left(parent) - pleft;
 480:Drivers/lvgl/lvgl/src/core/lv_obj_pos.c ****     }
 481:Drivers/lvgl/lvgl/src/core/lv_obj_pos.c ****     y += y_ofs + base->coords.y1 - parent->coords.y1 + lv_obj_get_scroll_top(parent) - ptop;
 482:Drivers/lvgl/lvgl/src/core/lv_obj_pos.c ****     lv_obj_set_style_align(obj, LV_ALIGN_TOP_LEFT, 0);
 483:Drivers/lvgl/lvgl/src/core/lv_obj_pos.c ****     lv_obj_set_pos(obj, x, y);
 484:Drivers/lvgl/lvgl/src/core/lv_obj_pos.c **** 
 485:Drivers/lvgl/lvgl/src/core/lv_obj_pos.c **** }
 486:Drivers/lvgl/lvgl/src/core/lv_obj_pos.c **** 
 487:Drivers/lvgl/lvgl/src/core/lv_obj_pos.c **** void lv_obj_get_coords(const lv_obj_t * obj, lv_area_t * coords)
 488:Drivers/lvgl/lvgl/src/core/lv_obj_pos.c **** {
 489:Drivers/lvgl/lvgl/src/core/lv_obj_pos.c ****     LV_ASSERT_OBJ(obj, MY_CLASS);
ARM GAS  /tmp/cc3JQQuJ.s 			page 10


 490:Drivers/lvgl/lvgl/src/core/lv_obj_pos.c **** 
 491:Drivers/lvgl/lvgl/src/core/lv_obj_pos.c ****     lv_area_copy(coords, &obj->coords);
 492:Drivers/lvgl/lvgl/src/core/lv_obj_pos.c **** }
 493:Drivers/lvgl/lvgl/src/core/lv_obj_pos.c **** 
 494:Drivers/lvgl/lvgl/src/core/lv_obj_pos.c **** lv_coord_t lv_obj_get_x(const lv_obj_t * obj)
 495:Drivers/lvgl/lvgl/src/core/lv_obj_pos.c **** {
 496:Drivers/lvgl/lvgl/src/core/lv_obj_pos.c ****     LV_ASSERT_OBJ(obj, MY_CLASS);
 497:Drivers/lvgl/lvgl/src/core/lv_obj_pos.c **** 
 498:Drivers/lvgl/lvgl/src/core/lv_obj_pos.c ****     lv_coord_t rel_x;
 499:Drivers/lvgl/lvgl/src/core/lv_obj_pos.c ****     lv_obj_t * parent = lv_obj_get_parent(obj);
 500:Drivers/lvgl/lvgl/src/core/lv_obj_pos.c ****     if(parent) {
 501:Drivers/lvgl/lvgl/src/core/lv_obj_pos.c ****         rel_x  = obj->coords.x1 - parent->coords.x1;
 502:Drivers/lvgl/lvgl/src/core/lv_obj_pos.c ****         rel_x += lv_obj_get_scroll_x(parent);
 503:Drivers/lvgl/lvgl/src/core/lv_obj_pos.c ****         rel_x -= lv_obj_get_style_pad_left(parent, LV_PART_MAIN);
 504:Drivers/lvgl/lvgl/src/core/lv_obj_pos.c ****         rel_x -= lv_obj_get_style_border_width(parent, LV_PART_MAIN);
 505:Drivers/lvgl/lvgl/src/core/lv_obj_pos.c ****     }
 506:Drivers/lvgl/lvgl/src/core/lv_obj_pos.c ****     else {
 507:Drivers/lvgl/lvgl/src/core/lv_obj_pos.c ****         rel_x = obj->coords.x1;
 508:Drivers/lvgl/lvgl/src/core/lv_obj_pos.c ****     }
 509:Drivers/lvgl/lvgl/src/core/lv_obj_pos.c ****     return rel_x;
 510:Drivers/lvgl/lvgl/src/core/lv_obj_pos.c **** }
 511:Drivers/lvgl/lvgl/src/core/lv_obj_pos.c **** 
 512:Drivers/lvgl/lvgl/src/core/lv_obj_pos.c **** lv_coord_t lv_obj_get_x2(const lv_obj_t * obj)
 513:Drivers/lvgl/lvgl/src/core/lv_obj_pos.c **** {
 514:Drivers/lvgl/lvgl/src/core/lv_obj_pos.c ****     LV_ASSERT_OBJ(obj, MY_CLASS);
 515:Drivers/lvgl/lvgl/src/core/lv_obj_pos.c **** 
 516:Drivers/lvgl/lvgl/src/core/lv_obj_pos.c ****     return lv_obj_get_x(obj) + lv_obj_get_width(obj);
 517:Drivers/lvgl/lvgl/src/core/lv_obj_pos.c **** }
 518:Drivers/lvgl/lvgl/src/core/lv_obj_pos.c **** 
 519:Drivers/lvgl/lvgl/src/core/lv_obj_pos.c **** lv_coord_t lv_obj_get_y(const lv_obj_t * obj)
 520:Drivers/lvgl/lvgl/src/core/lv_obj_pos.c **** {
 521:Drivers/lvgl/lvgl/src/core/lv_obj_pos.c ****     LV_ASSERT_OBJ(obj, MY_CLASS);
 522:Drivers/lvgl/lvgl/src/core/lv_obj_pos.c **** 
 523:Drivers/lvgl/lvgl/src/core/lv_obj_pos.c ****     lv_coord_t rel_y;
 524:Drivers/lvgl/lvgl/src/core/lv_obj_pos.c ****     lv_obj_t * parent = lv_obj_get_parent(obj);
 525:Drivers/lvgl/lvgl/src/core/lv_obj_pos.c ****     if(parent) {
 526:Drivers/lvgl/lvgl/src/core/lv_obj_pos.c ****         rel_y = obj->coords.y1 - parent->coords.y1;
 527:Drivers/lvgl/lvgl/src/core/lv_obj_pos.c ****         rel_y += lv_obj_get_scroll_y(parent);
 528:Drivers/lvgl/lvgl/src/core/lv_obj_pos.c ****         rel_y -= lv_obj_get_style_pad_top(parent, LV_PART_MAIN);
 529:Drivers/lvgl/lvgl/src/core/lv_obj_pos.c ****         rel_y -= lv_obj_get_style_border_width(parent, LV_PART_MAIN);
 530:Drivers/lvgl/lvgl/src/core/lv_obj_pos.c ****     }
 531:Drivers/lvgl/lvgl/src/core/lv_obj_pos.c ****     else {
 532:Drivers/lvgl/lvgl/src/core/lv_obj_pos.c ****         rel_y = obj->coords.y1;
 533:Drivers/lvgl/lvgl/src/core/lv_obj_pos.c ****     }
 534:Drivers/lvgl/lvgl/src/core/lv_obj_pos.c ****     return rel_y;
 535:Drivers/lvgl/lvgl/src/core/lv_obj_pos.c **** }
 536:Drivers/lvgl/lvgl/src/core/lv_obj_pos.c **** 
 537:Drivers/lvgl/lvgl/src/core/lv_obj_pos.c **** lv_coord_t lv_obj_get_y2(const lv_obj_t * obj)
 538:Drivers/lvgl/lvgl/src/core/lv_obj_pos.c **** {
 539:Drivers/lvgl/lvgl/src/core/lv_obj_pos.c ****     LV_ASSERT_OBJ(obj, MY_CLASS);
 540:Drivers/lvgl/lvgl/src/core/lv_obj_pos.c **** 
 541:Drivers/lvgl/lvgl/src/core/lv_obj_pos.c ****     return lv_obj_get_y(obj) + lv_obj_get_height(obj);
 542:Drivers/lvgl/lvgl/src/core/lv_obj_pos.c **** }
 543:Drivers/lvgl/lvgl/src/core/lv_obj_pos.c **** 
 544:Drivers/lvgl/lvgl/src/core/lv_obj_pos.c **** lv_coord_t lv_obj_get_x_aligned(const lv_obj_t * obj)
 545:Drivers/lvgl/lvgl/src/core/lv_obj_pos.c **** {
 546:Drivers/lvgl/lvgl/src/core/lv_obj_pos.c ****     return lv_obj_get_style_x(obj, LV_PART_MAIN);
ARM GAS  /tmp/cc3JQQuJ.s 			page 11


 547:Drivers/lvgl/lvgl/src/core/lv_obj_pos.c **** }
 548:Drivers/lvgl/lvgl/src/core/lv_obj_pos.c **** 
 549:Drivers/lvgl/lvgl/src/core/lv_obj_pos.c **** lv_coord_t lv_obj_get_y_aligned(const lv_obj_t * obj)
 550:Drivers/lvgl/lvgl/src/core/lv_obj_pos.c **** {
 551:Drivers/lvgl/lvgl/src/core/lv_obj_pos.c ****     return lv_obj_get_style_y(obj, LV_PART_MAIN);
 552:Drivers/lvgl/lvgl/src/core/lv_obj_pos.c **** }
 553:Drivers/lvgl/lvgl/src/core/lv_obj_pos.c **** 
 554:Drivers/lvgl/lvgl/src/core/lv_obj_pos.c **** 
 555:Drivers/lvgl/lvgl/src/core/lv_obj_pos.c **** lv_coord_t lv_obj_get_width(const lv_obj_t * obj)
 556:Drivers/lvgl/lvgl/src/core/lv_obj_pos.c **** {
 557:Drivers/lvgl/lvgl/src/core/lv_obj_pos.c ****     LV_ASSERT_OBJ(obj, MY_CLASS);
 558:Drivers/lvgl/lvgl/src/core/lv_obj_pos.c **** 
 559:Drivers/lvgl/lvgl/src/core/lv_obj_pos.c ****     return lv_area_get_width(&obj->coords);
 560:Drivers/lvgl/lvgl/src/core/lv_obj_pos.c **** }
 561:Drivers/lvgl/lvgl/src/core/lv_obj_pos.c **** 
 562:Drivers/lvgl/lvgl/src/core/lv_obj_pos.c **** lv_coord_t lv_obj_get_height(const lv_obj_t * obj)
 563:Drivers/lvgl/lvgl/src/core/lv_obj_pos.c **** {
 564:Drivers/lvgl/lvgl/src/core/lv_obj_pos.c ****     LV_ASSERT_OBJ(obj, MY_CLASS);
 565:Drivers/lvgl/lvgl/src/core/lv_obj_pos.c **** 
 566:Drivers/lvgl/lvgl/src/core/lv_obj_pos.c ****     return lv_area_get_height(&obj->coords);
 567:Drivers/lvgl/lvgl/src/core/lv_obj_pos.c **** }
 568:Drivers/lvgl/lvgl/src/core/lv_obj_pos.c **** 
 569:Drivers/lvgl/lvgl/src/core/lv_obj_pos.c **** lv_coord_t lv_obj_get_content_width(const lv_obj_t * obj)
 570:Drivers/lvgl/lvgl/src/core/lv_obj_pos.c **** {
 571:Drivers/lvgl/lvgl/src/core/lv_obj_pos.c ****     LV_ASSERT_OBJ(obj, MY_CLASS);
 572:Drivers/lvgl/lvgl/src/core/lv_obj_pos.c **** 
 573:Drivers/lvgl/lvgl/src/core/lv_obj_pos.c ****     lv_coord_t left = lv_obj_get_style_pad_left(obj, LV_PART_MAIN);
 574:Drivers/lvgl/lvgl/src/core/lv_obj_pos.c ****     lv_coord_t right = lv_obj_get_style_pad_right(obj, LV_PART_MAIN);
 575:Drivers/lvgl/lvgl/src/core/lv_obj_pos.c ****     lv_coord_t border_width = lv_obj_get_style_border_width(obj, LV_PART_MAIN);
 576:Drivers/lvgl/lvgl/src/core/lv_obj_pos.c **** 
 577:Drivers/lvgl/lvgl/src/core/lv_obj_pos.c ****     return lv_obj_get_width(obj) - left - right - 2 * border_width;
 578:Drivers/lvgl/lvgl/src/core/lv_obj_pos.c **** }
 579:Drivers/lvgl/lvgl/src/core/lv_obj_pos.c **** 
 580:Drivers/lvgl/lvgl/src/core/lv_obj_pos.c **** lv_coord_t lv_obj_get_content_height(const lv_obj_t * obj)
 581:Drivers/lvgl/lvgl/src/core/lv_obj_pos.c **** {
 582:Drivers/lvgl/lvgl/src/core/lv_obj_pos.c ****     LV_ASSERT_OBJ(obj, MY_CLASS);
 583:Drivers/lvgl/lvgl/src/core/lv_obj_pos.c **** 
 584:Drivers/lvgl/lvgl/src/core/lv_obj_pos.c ****     lv_coord_t top = lv_obj_get_style_pad_top(obj, LV_PART_MAIN);
 585:Drivers/lvgl/lvgl/src/core/lv_obj_pos.c ****     lv_coord_t bottom = lv_obj_get_style_pad_bottom(obj, LV_PART_MAIN);
 586:Drivers/lvgl/lvgl/src/core/lv_obj_pos.c ****     lv_coord_t border_width = lv_obj_get_style_border_width(obj, LV_PART_MAIN);
 587:Drivers/lvgl/lvgl/src/core/lv_obj_pos.c **** 
 588:Drivers/lvgl/lvgl/src/core/lv_obj_pos.c ****     return lv_obj_get_height(obj) - top - bottom - 2 * border_width;
 589:Drivers/lvgl/lvgl/src/core/lv_obj_pos.c **** }
 590:Drivers/lvgl/lvgl/src/core/lv_obj_pos.c **** 
 591:Drivers/lvgl/lvgl/src/core/lv_obj_pos.c **** void lv_obj_get_content_coords(const lv_obj_t * obj, lv_area_t * area)
 592:Drivers/lvgl/lvgl/src/core/lv_obj_pos.c **** {
 593:Drivers/lvgl/lvgl/src/core/lv_obj_pos.c ****     LV_ASSERT_OBJ(obj, MY_CLASS);
 594:Drivers/lvgl/lvgl/src/core/lv_obj_pos.c ****     lv_coord_t border_width = lv_obj_get_style_border_width(obj, LV_PART_MAIN);
 595:Drivers/lvgl/lvgl/src/core/lv_obj_pos.c **** 
 596:Drivers/lvgl/lvgl/src/core/lv_obj_pos.c ****     lv_obj_get_coords(obj, area);
 597:Drivers/lvgl/lvgl/src/core/lv_obj_pos.c ****     lv_area_increase(area, -border_width, -border_width);
 598:Drivers/lvgl/lvgl/src/core/lv_obj_pos.c ****     area->x1 += lv_obj_get_style_pad_left(obj, LV_PART_MAIN);
 599:Drivers/lvgl/lvgl/src/core/lv_obj_pos.c ****     area->x2 -= lv_obj_get_style_pad_right(obj, LV_PART_MAIN);
 600:Drivers/lvgl/lvgl/src/core/lv_obj_pos.c ****     area->y1 += lv_obj_get_style_pad_top(obj, LV_PART_MAIN);
 601:Drivers/lvgl/lvgl/src/core/lv_obj_pos.c ****     area->y2 -= lv_obj_get_style_pad_bottom(obj, LV_PART_MAIN);
 602:Drivers/lvgl/lvgl/src/core/lv_obj_pos.c **** 
 603:Drivers/lvgl/lvgl/src/core/lv_obj_pos.c **** }
ARM GAS  /tmp/cc3JQQuJ.s 			page 12


 604:Drivers/lvgl/lvgl/src/core/lv_obj_pos.c **** 
 605:Drivers/lvgl/lvgl/src/core/lv_obj_pos.c **** lv_coord_t lv_obj_get_self_width(const lv_obj_t * obj)
 606:Drivers/lvgl/lvgl/src/core/lv_obj_pos.c **** {
 607:Drivers/lvgl/lvgl/src/core/lv_obj_pos.c ****     lv_point_t p = {0, LV_COORD_MIN};
 608:Drivers/lvgl/lvgl/src/core/lv_obj_pos.c ****     lv_event_send((lv_obj_t *)obj, LV_EVENT_GET_SELF_SIZE, &p);
 609:Drivers/lvgl/lvgl/src/core/lv_obj_pos.c ****     return p.x;
 610:Drivers/lvgl/lvgl/src/core/lv_obj_pos.c **** }
 611:Drivers/lvgl/lvgl/src/core/lv_obj_pos.c **** 
 612:Drivers/lvgl/lvgl/src/core/lv_obj_pos.c **** lv_coord_t lv_obj_get_self_height(const lv_obj_t * obj)
 613:Drivers/lvgl/lvgl/src/core/lv_obj_pos.c **** {
 614:Drivers/lvgl/lvgl/src/core/lv_obj_pos.c ****     lv_point_t p = {LV_COORD_MIN, 0};
 615:Drivers/lvgl/lvgl/src/core/lv_obj_pos.c ****     lv_event_send((lv_obj_t *)obj, LV_EVENT_GET_SELF_SIZE, &p);
 616:Drivers/lvgl/lvgl/src/core/lv_obj_pos.c ****     return p.y;
 617:Drivers/lvgl/lvgl/src/core/lv_obj_pos.c **** }
 618:Drivers/lvgl/lvgl/src/core/lv_obj_pos.c **** 
 619:Drivers/lvgl/lvgl/src/core/lv_obj_pos.c **** bool lv_obj_refresh_self_size(lv_obj_t * obj)
 620:Drivers/lvgl/lvgl/src/core/lv_obj_pos.c **** {
 621:Drivers/lvgl/lvgl/src/core/lv_obj_pos.c ****     lv_coord_t w_set = lv_obj_get_style_width(obj, LV_PART_MAIN);
 622:Drivers/lvgl/lvgl/src/core/lv_obj_pos.c ****     lv_coord_t h_set = lv_obj_get_style_height(obj, LV_PART_MAIN);
 623:Drivers/lvgl/lvgl/src/core/lv_obj_pos.c ****     if(w_set != LV_SIZE_CONTENT && h_set != LV_SIZE_CONTENT) return false;
 624:Drivers/lvgl/lvgl/src/core/lv_obj_pos.c **** 
 625:Drivers/lvgl/lvgl/src/core/lv_obj_pos.c ****     lv_obj_mark_layout_as_dirty(obj);
 626:Drivers/lvgl/lvgl/src/core/lv_obj_pos.c ****     return true;
 627:Drivers/lvgl/lvgl/src/core/lv_obj_pos.c **** }
 628:Drivers/lvgl/lvgl/src/core/lv_obj_pos.c **** 
 629:Drivers/lvgl/lvgl/src/core/lv_obj_pos.c **** void lv_obj_refr_pos(lv_obj_t * obj)
 630:Drivers/lvgl/lvgl/src/core/lv_obj_pos.c **** {
 631:Drivers/lvgl/lvgl/src/core/lv_obj_pos.c ****     if(lv_obj_is_layout_positioned(obj)) return;
 632:Drivers/lvgl/lvgl/src/core/lv_obj_pos.c **** 
 633:Drivers/lvgl/lvgl/src/core/lv_obj_pos.c **** 
 634:Drivers/lvgl/lvgl/src/core/lv_obj_pos.c ****     lv_obj_t * parent = lv_obj_get_parent(obj);
 635:Drivers/lvgl/lvgl/src/core/lv_obj_pos.c ****     lv_coord_t x = lv_obj_get_style_x(obj, LV_PART_MAIN);
 636:Drivers/lvgl/lvgl/src/core/lv_obj_pos.c ****     lv_coord_t y = lv_obj_get_style_y(obj, LV_PART_MAIN);
 637:Drivers/lvgl/lvgl/src/core/lv_obj_pos.c **** 
 638:Drivers/lvgl/lvgl/src/core/lv_obj_pos.c ****     if(parent == NULL) {
 639:Drivers/lvgl/lvgl/src/core/lv_obj_pos.c ****         lv_obj_move_to(obj, x, y);
 640:Drivers/lvgl/lvgl/src/core/lv_obj_pos.c ****         return;
 641:Drivers/lvgl/lvgl/src/core/lv_obj_pos.c ****     }
 642:Drivers/lvgl/lvgl/src/core/lv_obj_pos.c **** 
 643:Drivers/lvgl/lvgl/src/core/lv_obj_pos.c ****     /*Handle percentage value*/
 644:Drivers/lvgl/lvgl/src/core/lv_obj_pos.c ****     lv_coord_t pw = lv_obj_get_content_width(parent);
 645:Drivers/lvgl/lvgl/src/core/lv_obj_pos.c ****     lv_coord_t ph = lv_obj_get_content_height(parent);
 646:Drivers/lvgl/lvgl/src/core/lv_obj_pos.c ****     if(LV_COORD_IS_PCT(x)) x = (pw * LV_COORD_GET_PCT(x)) / 100;
 647:Drivers/lvgl/lvgl/src/core/lv_obj_pos.c ****     if(LV_COORD_IS_PCT(y)) y = (ph * LV_COORD_GET_PCT(y)) / 100;
 648:Drivers/lvgl/lvgl/src/core/lv_obj_pos.c **** 
 649:Drivers/lvgl/lvgl/src/core/lv_obj_pos.c ****     /*Handle percentage value of translate*/
 650:Drivers/lvgl/lvgl/src/core/lv_obj_pos.c ****     lv_coord_t tr_x = lv_obj_get_style_translate_x(obj, LV_PART_MAIN);
 651:Drivers/lvgl/lvgl/src/core/lv_obj_pos.c ****     lv_coord_t tr_y = lv_obj_get_style_translate_y(obj, LV_PART_MAIN);
 652:Drivers/lvgl/lvgl/src/core/lv_obj_pos.c ****     lv_coord_t w = lv_obj_get_width(obj);
 653:Drivers/lvgl/lvgl/src/core/lv_obj_pos.c ****     lv_coord_t h = lv_obj_get_height(obj);
 654:Drivers/lvgl/lvgl/src/core/lv_obj_pos.c ****     if(LV_COORD_IS_PCT(tr_x)) tr_x = (w * LV_COORD_GET_PCT(tr_x)) / 100;
 655:Drivers/lvgl/lvgl/src/core/lv_obj_pos.c ****     if(LV_COORD_IS_PCT(tr_y)) tr_y = (h * LV_COORD_GET_PCT(tr_y)) / 100;
 656:Drivers/lvgl/lvgl/src/core/lv_obj_pos.c **** 
 657:Drivers/lvgl/lvgl/src/core/lv_obj_pos.c ****     /*Use the translation*/
 658:Drivers/lvgl/lvgl/src/core/lv_obj_pos.c ****     x += tr_x;
 659:Drivers/lvgl/lvgl/src/core/lv_obj_pos.c ****     y += tr_y;
 660:Drivers/lvgl/lvgl/src/core/lv_obj_pos.c **** 
ARM GAS  /tmp/cc3JQQuJ.s 			page 13


 661:Drivers/lvgl/lvgl/src/core/lv_obj_pos.c ****     lv_align_t align = lv_obj_get_style_align(obj, LV_PART_MAIN);
 662:Drivers/lvgl/lvgl/src/core/lv_obj_pos.c **** 
 663:Drivers/lvgl/lvgl/src/core/lv_obj_pos.c ****     if(align == LV_ALIGN_DEFAULT) {
 664:Drivers/lvgl/lvgl/src/core/lv_obj_pos.c ****         if(lv_obj_get_style_base_dir(parent, LV_PART_MAIN) == LV_BASE_DIR_RTL) align = LV_ALIGN_TOP
 665:Drivers/lvgl/lvgl/src/core/lv_obj_pos.c ****         else align = LV_ALIGN_TOP_LEFT;
 666:Drivers/lvgl/lvgl/src/core/lv_obj_pos.c ****     }
 667:Drivers/lvgl/lvgl/src/core/lv_obj_pos.c **** 
 668:Drivers/lvgl/lvgl/src/core/lv_obj_pos.c ****     if(align == LV_ALIGN_TOP_LEFT) {
 669:Drivers/lvgl/lvgl/src/core/lv_obj_pos.c ****         lv_obj_move_to(obj, x, y);
 670:Drivers/lvgl/lvgl/src/core/lv_obj_pos.c ****     }
 671:Drivers/lvgl/lvgl/src/core/lv_obj_pos.c ****     else {
 672:Drivers/lvgl/lvgl/src/core/lv_obj_pos.c **** 
 673:Drivers/lvgl/lvgl/src/core/lv_obj_pos.c ****         switch(align) {
 674:Drivers/lvgl/lvgl/src/core/lv_obj_pos.c ****             case LV_ALIGN_TOP_MID:
 675:Drivers/lvgl/lvgl/src/core/lv_obj_pos.c ****                 x += pw / 2 - w / 2;
 676:Drivers/lvgl/lvgl/src/core/lv_obj_pos.c ****                 break;
 677:Drivers/lvgl/lvgl/src/core/lv_obj_pos.c ****             case LV_ALIGN_TOP_RIGHT:
 678:Drivers/lvgl/lvgl/src/core/lv_obj_pos.c ****                 x += pw - w;
 679:Drivers/lvgl/lvgl/src/core/lv_obj_pos.c ****                 break;
 680:Drivers/lvgl/lvgl/src/core/lv_obj_pos.c ****             case LV_ALIGN_LEFT_MID:
 681:Drivers/lvgl/lvgl/src/core/lv_obj_pos.c ****                 y += ph / 2 - h / 2;
 682:Drivers/lvgl/lvgl/src/core/lv_obj_pos.c ****                 break;
 683:Drivers/lvgl/lvgl/src/core/lv_obj_pos.c ****             case LV_ALIGN_BOTTOM_LEFT:
 684:Drivers/lvgl/lvgl/src/core/lv_obj_pos.c ****                 y += ph - h;
 685:Drivers/lvgl/lvgl/src/core/lv_obj_pos.c ****                 break;
 686:Drivers/lvgl/lvgl/src/core/lv_obj_pos.c ****             case LV_ALIGN_BOTTOM_MID:
 687:Drivers/lvgl/lvgl/src/core/lv_obj_pos.c ****                 x += pw / 2 - w / 2;
 688:Drivers/lvgl/lvgl/src/core/lv_obj_pos.c ****                 y += ph - h;
 689:Drivers/lvgl/lvgl/src/core/lv_obj_pos.c ****                 break;
 690:Drivers/lvgl/lvgl/src/core/lv_obj_pos.c ****             case LV_ALIGN_BOTTOM_RIGHT:
 691:Drivers/lvgl/lvgl/src/core/lv_obj_pos.c ****                 x += pw - w;
 692:Drivers/lvgl/lvgl/src/core/lv_obj_pos.c ****                 y += ph - h;
 693:Drivers/lvgl/lvgl/src/core/lv_obj_pos.c ****                 break;
 694:Drivers/lvgl/lvgl/src/core/lv_obj_pos.c ****             case LV_ALIGN_RIGHT_MID:
 695:Drivers/lvgl/lvgl/src/core/lv_obj_pos.c ****                 x += pw - w;
 696:Drivers/lvgl/lvgl/src/core/lv_obj_pos.c ****                 y += ph / 2 - h / 2;
 697:Drivers/lvgl/lvgl/src/core/lv_obj_pos.c ****                 break;
 698:Drivers/lvgl/lvgl/src/core/lv_obj_pos.c ****             case LV_ALIGN_CENTER:
 699:Drivers/lvgl/lvgl/src/core/lv_obj_pos.c ****                 x += pw / 2 - w / 2;
 700:Drivers/lvgl/lvgl/src/core/lv_obj_pos.c ****                 y += ph / 2 - h / 2;
 701:Drivers/lvgl/lvgl/src/core/lv_obj_pos.c ****                 break;
 702:Drivers/lvgl/lvgl/src/core/lv_obj_pos.c ****             default:
 703:Drivers/lvgl/lvgl/src/core/lv_obj_pos.c ****                 break;
 704:Drivers/lvgl/lvgl/src/core/lv_obj_pos.c ****         }
 705:Drivers/lvgl/lvgl/src/core/lv_obj_pos.c ****         lv_obj_move_to(obj, x, y);
 706:Drivers/lvgl/lvgl/src/core/lv_obj_pos.c ****     }
 707:Drivers/lvgl/lvgl/src/core/lv_obj_pos.c **** }
 708:Drivers/lvgl/lvgl/src/core/lv_obj_pos.c **** 
 709:Drivers/lvgl/lvgl/src/core/lv_obj_pos.c **** void lv_obj_move_to(lv_obj_t * obj, lv_coord_t x, lv_coord_t y)
 710:Drivers/lvgl/lvgl/src/core/lv_obj_pos.c **** {
 711:Drivers/lvgl/lvgl/src/core/lv_obj_pos.c ****     /*Convert x and y to absolute coordinates*/
 712:Drivers/lvgl/lvgl/src/core/lv_obj_pos.c ****     lv_obj_t * parent = obj->parent;
 713:Drivers/lvgl/lvgl/src/core/lv_obj_pos.c **** 
 714:Drivers/lvgl/lvgl/src/core/lv_obj_pos.c ****     if(parent) {
 715:Drivers/lvgl/lvgl/src/core/lv_obj_pos.c ****         lv_coord_t pad_left = lv_obj_get_style_pad_left(parent, LV_PART_MAIN);
 716:Drivers/lvgl/lvgl/src/core/lv_obj_pos.c ****         lv_coord_t pad_top = lv_obj_get_style_pad_top(parent, LV_PART_MAIN);
 717:Drivers/lvgl/lvgl/src/core/lv_obj_pos.c **** 
ARM GAS  /tmp/cc3JQQuJ.s 			page 14


 718:Drivers/lvgl/lvgl/src/core/lv_obj_pos.c ****         if(lv_obj_has_flag(obj, LV_OBJ_FLAG_FLOATING)) {
 719:Drivers/lvgl/lvgl/src/core/lv_obj_pos.c ****             x += pad_left + parent->coords.x1;
 720:Drivers/lvgl/lvgl/src/core/lv_obj_pos.c ****             y += pad_top + parent->coords.y1;
 721:Drivers/lvgl/lvgl/src/core/lv_obj_pos.c ****         }
 722:Drivers/lvgl/lvgl/src/core/lv_obj_pos.c ****         else {
 723:Drivers/lvgl/lvgl/src/core/lv_obj_pos.c ****             x += pad_left + parent->coords.x1 - lv_obj_get_scroll_x(parent);
 724:Drivers/lvgl/lvgl/src/core/lv_obj_pos.c ****             y += pad_top + parent->coords.y1 - lv_obj_get_scroll_y(parent);
 725:Drivers/lvgl/lvgl/src/core/lv_obj_pos.c ****         }
 726:Drivers/lvgl/lvgl/src/core/lv_obj_pos.c **** 
 727:Drivers/lvgl/lvgl/src/core/lv_obj_pos.c ****         lv_coord_t border_width = lv_obj_get_style_border_width(parent, LV_PART_MAIN);
 728:Drivers/lvgl/lvgl/src/core/lv_obj_pos.c ****         x += border_width;
 729:Drivers/lvgl/lvgl/src/core/lv_obj_pos.c ****         y += border_width;
 730:Drivers/lvgl/lvgl/src/core/lv_obj_pos.c ****     }
 731:Drivers/lvgl/lvgl/src/core/lv_obj_pos.c **** 
 732:Drivers/lvgl/lvgl/src/core/lv_obj_pos.c ****     /*Calculate and set the movement*/
 733:Drivers/lvgl/lvgl/src/core/lv_obj_pos.c ****     lv_point_t diff;
 734:Drivers/lvgl/lvgl/src/core/lv_obj_pos.c ****     diff.x = x - obj->coords.x1;
 735:Drivers/lvgl/lvgl/src/core/lv_obj_pos.c ****     diff.y = y - obj->coords.y1;
 736:Drivers/lvgl/lvgl/src/core/lv_obj_pos.c **** 
 737:Drivers/lvgl/lvgl/src/core/lv_obj_pos.c ****     /*Do nothing if the position is not changed*/
 738:Drivers/lvgl/lvgl/src/core/lv_obj_pos.c ****     /*It is very important else recursive positioning can
 739:Drivers/lvgl/lvgl/src/core/lv_obj_pos.c ****      *occur without position change*/
 740:Drivers/lvgl/lvgl/src/core/lv_obj_pos.c ****     if(diff.x == 0 && diff.y == 0) return;
 741:Drivers/lvgl/lvgl/src/core/lv_obj_pos.c **** 
 742:Drivers/lvgl/lvgl/src/core/lv_obj_pos.c ****     /*Invalidate the original area*/
 743:Drivers/lvgl/lvgl/src/core/lv_obj_pos.c ****     lv_obj_invalidate(obj);
 744:Drivers/lvgl/lvgl/src/core/lv_obj_pos.c **** 
 745:Drivers/lvgl/lvgl/src/core/lv_obj_pos.c ****     /*Save the original coordinates*/
 746:Drivers/lvgl/lvgl/src/core/lv_obj_pos.c ****     lv_area_t ori;
 747:Drivers/lvgl/lvgl/src/core/lv_obj_pos.c ****     lv_obj_get_coords(obj, &ori);
 748:Drivers/lvgl/lvgl/src/core/lv_obj_pos.c **** 
 749:Drivers/lvgl/lvgl/src/core/lv_obj_pos.c ****     /*Check if the object inside the parent or not*/
 750:Drivers/lvgl/lvgl/src/core/lv_obj_pos.c ****     lv_area_t parent_fit_area;
 751:Drivers/lvgl/lvgl/src/core/lv_obj_pos.c ****     bool on1 = false;
 752:Drivers/lvgl/lvgl/src/core/lv_obj_pos.c ****     if(parent) {
 753:Drivers/lvgl/lvgl/src/core/lv_obj_pos.c ****         lv_obj_get_content_coords(parent, &parent_fit_area);
 754:Drivers/lvgl/lvgl/src/core/lv_obj_pos.c **** 
 755:Drivers/lvgl/lvgl/src/core/lv_obj_pos.c ****         /*If the object is already out of the parent and its position is changes
 756:Drivers/lvgl/lvgl/src/core/lv_obj_pos.c ****          *surely the scrollbars also changes so invalidate them*/
 757:Drivers/lvgl/lvgl/src/core/lv_obj_pos.c ****         on1 = _lv_area_is_in(&ori, &parent_fit_area, 0);
 758:Drivers/lvgl/lvgl/src/core/lv_obj_pos.c ****         if(!on1) lv_obj_scrollbar_invalidate(parent);
 759:Drivers/lvgl/lvgl/src/core/lv_obj_pos.c ****     }
 760:Drivers/lvgl/lvgl/src/core/lv_obj_pos.c **** 
 761:Drivers/lvgl/lvgl/src/core/lv_obj_pos.c ****     obj->coords.x1 += diff.x;
 762:Drivers/lvgl/lvgl/src/core/lv_obj_pos.c ****     obj->coords.y1 += diff.y;
 763:Drivers/lvgl/lvgl/src/core/lv_obj_pos.c ****     obj->coords.x2 += diff.x;
 764:Drivers/lvgl/lvgl/src/core/lv_obj_pos.c ****     obj->coords.y2 += diff.y;
 765:Drivers/lvgl/lvgl/src/core/lv_obj_pos.c **** 
 766:Drivers/lvgl/lvgl/src/core/lv_obj_pos.c ****     lv_obj_move_children_by(obj, diff.x, diff.y, false);
 767:Drivers/lvgl/lvgl/src/core/lv_obj_pos.c **** 
 768:Drivers/lvgl/lvgl/src/core/lv_obj_pos.c ****     /*Call the ancestor's event handler to the parent too*/
 769:Drivers/lvgl/lvgl/src/core/lv_obj_pos.c ****     if(parent) lv_event_send(parent, LV_EVENT_CHILD_CHANGED, obj);
 770:Drivers/lvgl/lvgl/src/core/lv_obj_pos.c **** 
 771:Drivers/lvgl/lvgl/src/core/lv_obj_pos.c ****     /*Invalidate the new area*/
 772:Drivers/lvgl/lvgl/src/core/lv_obj_pos.c ****     lv_obj_invalidate(obj);
 773:Drivers/lvgl/lvgl/src/core/lv_obj_pos.c **** 
 774:Drivers/lvgl/lvgl/src/core/lv_obj_pos.c ****     /*If the object was out of the parent invalidate the new scrollbar area too.
ARM GAS  /tmp/cc3JQQuJ.s 			page 15


 775:Drivers/lvgl/lvgl/src/core/lv_obj_pos.c ****      *If it wasn't out of the parent but out now, also invalidate the srollbars*/
 776:Drivers/lvgl/lvgl/src/core/lv_obj_pos.c ****     if(parent) {
 777:Drivers/lvgl/lvgl/src/core/lv_obj_pos.c ****         bool on2 = _lv_area_is_in(&obj->coords, &parent_fit_area, 0);
 778:Drivers/lvgl/lvgl/src/core/lv_obj_pos.c ****         if(on1 || (!on1 && on2)) lv_obj_scrollbar_invalidate(parent);
 779:Drivers/lvgl/lvgl/src/core/lv_obj_pos.c ****     }
 780:Drivers/lvgl/lvgl/src/core/lv_obj_pos.c **** }
 781:Drivers/lvgl/lvgl/src/core/lv_obj_pos.c **** 
 782:Drivers/lvgl/lvgl/src/core/lv_obj_pos.c **** void lv_obj_move_children_by(lv_obj_t * obj, lv_coord_t x_diff, lv_coord_t y_diff, bool ignore_floa
 783:Drivers/lvgl/lvgl/src/core/lv_obj_pos.c **** {
 784:Drivers/lvgl/lvgl/src/core/lv_obj_pos.c ****     uint32_t i;
 785:Drivers/lvgl/lvgl/src/core/lv_obj_pos.c ****     uint32_t child_cnt = lv_obj_get_child_cnt(obj);
 786:Drivers/lvgl/lvgl/src/core/lv_obj_pos.c ****     for(i = 0; i < child_cnt; i++) {
 787:Drivers/lvgl/lvgl/src/core/lv_obj_pos.c ****         lv_obj_t * child = obj->spec_attr->children[i];
 788:Drivers/lvgl/lvgl/src/core/lv_obj_pos.c ****         if(ignore_floating && lv_obj_has_flag(child, LV_OBJ_FLAG_FLOATING)) continue;
 789:Drivers/lvgl/lvgl/src/core/lv_obj_pos.c ****         child->coords.x1 += x_diff;
 790:Drivers/lvgl/lvgl/src/core/lv_obj_pos.c ****         child->coords.y1 += y_diff;
 791:Drivers/lvgl/lvgl/src/core/lv_obj_pos.c ****         child->coords.x2 += x_diff;
 792:Drivers/lvgl/lvgl/src/core/lv_obj_pos.c ****         child->coords.y2 += y_diff;
 793:Drivers/lvgl/lvgl/src/core/lv_obj_pos.c **** 
 794:Drivers/lvgl/lvgl/src/core/lv_obj_pos.c ****         lv_obj_move_children_by(child, x_diff, y_diff, false);
 795:Drivers/lvgl/lvgl/src/core/lv_obj_pos.c ****     }
 796:Drivers/lvgl/lvgl/src/core/lv_obj_pos.c **** }
 797:Drivers/lvgl/lvgl/src/core/lv_obj_pos.c **** 
 798:Drivers/lvgl/lvgl/src/core/lv_obj_pos.c **** void lv_obj_transform_point(const lv_obj_t * obj, lv_point_t * p, bool recursive, bool inv)
 799:Drivers/lvgl/lvgl/src/core/lv_obj_pos.c **** {
 800:Drivers/lvgl/lvgl/src/core/lv_obj_pos.c ****     if(obj) {
 801:Drivers/lvgl/lvgl/src/core/lv_obj_pos.c ****         lv_layer_type_t layer_type = _lv_obj_get_layer_type(obj);
 802:Drivers/lvgl/lvgl/src/core/lv_obj_pos.c ****         bool do_tranf = layer_type == LV_LAYER_TYPE_TRANSFORM;
 803:Drivers/lvgl/lvgl/src/core/lv_obj_pos.c ****         if(inv) {
 804:Drivers/lvgl/lvgl/src/core/lv_obj_pos.c ****             if(recursive) lv_obj_transform_point(lv_obj_get_parent(obj), p, recursive, inv);
 805:Drivers/lvgl/lvgl/src/core/lv_obj_pos.c ****             if(do_tranf) transform_point(obj, p, inv);
 806:Drivers/lvgl/lvgl/src/core/lv_obj_pos.c ****         }
 807:Drivers/lvgl/lvgl/src/core/lv_obj_pos.c ****         else {
 808:Drivers/lvgl/lvgl/src/core/lv_obj_pos.c ****             if(do_tranf) transform_point(obj, p, inv);
 809:Drivers/lvgl/lvgl/src/core/lv_obj_pos.c ****             if(recursive) lv_obj_transform_point(lv_obj_get_parent(obj), p, recursive, inv);
 810:Drivers/lvgl/lvgl/src/core/lv_obj_pos.c ****         }
 811:Drivers/lvgl/lvgl/src/core/lv_obj_pos.c ****     }
 812:Drivers/lvgl/lvgl/src/core/lv_obj_pos.c **** }
 813:Drivers/lvgl/lvgl/src/core/lv_obj_pos.c **** 
 814:Drivers/lvgl/lvgl/src/core/lv_obj_pos.c **** void lv_obj_get_transformed_area(const lv_obj_t * obj, lv_area_t * area, bool recursive,
 815:Drivers/lvgl/lvgl/src/core/lv_obj_pos.c ****                                  bool inv)
 816:Drivers/lvgl/lvgl/src/core/lv_obj_pos.c **** {
 817:Drivers/lvgl/lvgl/src/core/lv_obj_pos.c ****     lv_point_t p[4] = {
 818:Drivers/lvgl/lvgl/src/core/lv_obj_pos.c ****         {area->x1, area->y1},
 819:Drivers/lvgl/lvgl/src/core/lv_obj_pos.c ****         {area->x1, area->y2},
 820:Drivers/lvgl/lvgl/src/core/lv_obj_pos.c ****         {area->x2, area->y1},
 821:Drivers/lvgl/lvgl/src/core/lv_obj_pos.c ****         {area->x2, area->y2},
 822:Drivers/lvgl/lvgl/src/core/lv_obj_pos.c ****     };
 823:Drivers/lvgl/lvgl/src/core/lv_obj_pos.c **** 
 824:Drivers/lvgl/lvgl/src/core/lv_obj_pos.c ****     lv_obj_transform_point(obj, &p[0], recursive, inv);
 825:Drivers/lvgl/lvgl/src/core/lv_obj_pos.c ****     lv_obj_transform_point(obj, &p[1], recursive, inv);
 826:Drivers/lvgl/lvgl/src/core/lv_obj_pos.c ****     lv_obj_transform_point(obj, &p[2], recursive, inv);
 827:Drivers/lvgl/lvgl/src/core/lv_obj_pos.c ****     lv_obj_transform_point(obj, &p[3], recursive, inv);
 828:Drivers/lvgl/lvgl/src/core/lv_obj_pos.c **** 
 829:Drivers/lvgl/lvgl/src/core/lv_obj_pos.c ****     area->x1 = LV_MIN4(p[0].x, p[1].x, p[2].x, p[3].x);
 830:Drivers/lvgl/lvgl/src/core/lv_obj_pos.c ****     area->x2 = LV_MAX4(p[0].x, p[1].x, p[2].x, p[3].x);
 831:Drivers/lvgl/lvgl/src/core/lv_obj_pos.c ****     area->y1 = LV_MIN4(p[0].y, p[1].y, p[2].y, p[3].y);
ARM GAS  /tmp/cc3JQQuJ.s 			page 16


 832:Drivers/lvgl/lvgl/src/core/lv_obj_pos.c ****     area->y2 = LV_MAX4(p[0].y, p[1].y, p[2].y, p[3].y);
 833:Drivers/lvgl/lvgl/src/core/lv_obj_pos.c ****     lv_area_increase(area, 5, 5);
 834:Drivers/lvgl/lvgl/src/core/lv_obj_pos.c **** }
 835:Drivers/lvgl/lvgl/src/core/lv_obj_pos.c **** 
 836:Drivers/lvgl/lvgl/src/core/lv_obj_pos.c **** 
 837:Drivers/lvgl/lvgl/src/core/lv_obj_pos.c **** void lv_obj_invalidate_area(const lv_obj_t * obj, const lv_area_t * area)
 838:Drivers/lvgl/lvgl/src/core/lv_obj_pos.c **** {
 839:Drivers/lvgl/lvgl/src/core/lv_obj_pos.c ****     LV_ASSERT_OBJ(obj, MY_CLASS);
 840:Drivers/lvgl/lvgl/src/core/lv_obj_pos.c **** 
 841:Drivers/lvgl/lvgl/src/core/lv_obj_pos.c ****     lv_disp_t * disp   = lv_obj_get_disp(obj);
 842:Drivers/lvgl/lvgl/src/core/lv_obj_pos.c ****     if(!lv_disp_is_invalidation_enabled(disp)) return;
 843:Drivers/lvgl/lvgl/src/core/lv_obj_pos.c **** 
 844:Drivers/lvgl/lvgl/src/core/lv_obj_pos.c ****     lv_area_t area_tmp;
 845:Drivers/lvgl/lvgl/src/core/lv_obj_pos.c ****     lv_area_copy(&area_tmp, area);
 846:Drivers/lvgl/lvgl/src/core/lv_obj_pos.c ****     if(!lv_obj_area_is_visible(obj, &area_tmp)) return;
 847:Drivers/lvgl/lvgl/src/core/lv_obj_pos.c **** 
 848:Drivers/lvgl/lvgl/src/core/lv_obj_pos.c ****     _lv_inv_area(lv_obj_get_disp(obj),  &area_tmp);
 849:Drivers/lvgl/lvgl/src/core/lv_obj_pos.c **** }
 850:Drivers/lvgl/lvgl/src/core/lv_obj_pos.c **** 
 851:Drivers/lvgl/lvgl/src/core/lv_obj_pos.c **** void lv_obj_invalidate(const lv_obj_t * obj)
 852:Drivers/lvgl/lvgl/src/core/lv_obj_pos.c **** {
 853:Drivers/lvgl/lvgl/src/core/lv_obj_pos.c ****     LV_ASSERT_OBJ(obj, MY_CLASS);
 854:Drivers/lvgl/lvgl/src/core/lv_obj_pos.c **** 
 855:Drivers/lvgl/lvgl/src/core/lv_obj_pos.c ****     /*Truncate the area to the object*/
 856:Drivers/lvgl/lvgl/src/core/lv_obj_pos.c ****     lv_area_t obj_coords;
 857:Drivers/lvgl/lvgl/src/core/lv_obj_pos.c ****     lv_coord_t ext_size = _lv_obj_get_ext_draw_size(obj);
 858:Drivers/lvgl/lvgl/src/core/lv_obj_pos.c ****     lv_area_copy(&obj_coords, &obj->coords);
 859:Drivers/lvgl/lvgl/src/core/lv_obj_pos.c ****     obj_coords.x1 -= ext_size;
 860:Drivers/lvgl/lvgl/src/core/lv_obj_pos.c ****     obj_coords.y1 -= ext_size;
 861:Drivers/lvgl/lvgl/src/core/lv_obj_pos.c ****     obj_coords.x2 += ext_size;
 862:Drivers/lvgl/lvgl/src/core/lv_obj_pos.c ****     obj_coords.y2 += ext_size;
 863:Drivers/lvgl/lvgl/src/core/lv_obj_pos.c **** 
 864:Drivers/lvgl/lvgl/src/core/lv_obj_pos.c ****     lv_obj_invalidate_area(obj, &obj_coords);
 865:Drivers/lvgl/lvgl/src/core/lv_obj_pos.c **** 
 866:Drivers/lvgl/lvgl/src/core/lv_obj_pos.c **** }
 867:Drivers/lvgl/lvgl/src/core/lv_obj_pos.c **** 
 868:Drivers/lvgl/lvgl/src/core/lv_obj_pos.c **** bool lv_obj_area_is_visible(const lv_obj_t * obj, lv_area_t * area)
 869:Drivers/lvgl/lvgl/src/core/lv_obj_pos.c **** {
 870:Drivers/lvgl/lvgl/src/core/lv_obj_pos.c ****     if(lv_obj_has_flag(obj, LV_OBJ_FLAG_HIDDEN)) return false;
 871:Drivers/lvgl/lvgl/src/core/lv_obj_pos.c **** 
 872:Drivers/lvgl/lvgl/src/core/lv_obj_pos.c ****     /*Invalidate the object only if it belongs to the current or previous or one of the layers'*/
 873:Drivers/lvgl/lvgl/src/core/lv_obj_pos.c ****     lv_obj_t * obj_scr = lv_obj_get_screen(obj);
 874:Drivers/lvgl/lvgl/src/core/lv_obj_pos.c ****     lv_disp_t * disp   = lv_obj_get_disp(obj_scr);
 875:Drivers/lvgl/lvgl/src/core/lv_obj_pos.c ****     if(obj_scr != lv_disp_get_scr_act(disp) &&
 876:Drivers/lvgl/lvgl/src/core/lv_obj_pos.c ****        obj_scr != lv_disp_get_scr_prev(disp) &&
 877:Drivers/lvgl/lvgl/src/core/lv_obj_pos.c ****        obj_scr != lv_disp_get_layer_top(disp) &&
 878:Drivers/lvgl/lvgl/src/core/lv_obj_pos.c ****        obj_scr != lv_disp_get_layer_sys(disp)) {
 879:Drivers/lvgl/lvgl/src/core/lv_obj_pos.c ****         return false;
 880:Drivers/lvgl/lvgl/src/core/lv_obj_pos.c ****     }
 881:Drivers/lvgl/lvgl/src/core/lv_obj_pos.c **** 
 882:Drivers/lvgl/lvgl/src/core/lv_obj_pos.c ****     /*Truncate the area to the object*/
 883:Drivers/lvgl/lvgl/src/core/lv_obj_pos.c ****     if(!lv_obj_has_flag_any(obj, LV_OBJ_FLAG_OVERFLOW_VISIBLE)) {
 884:Drivers/lvgl/lvgl/src/core/lv_obj_pos.c ****         lv_area_t obj_coords;
 885:Drivers/lvgl/lvgl/src/core/lv_obj_pos.c ****         lv_coord_t ext_size = _lv_obj_get_ext_draw_size(obj);
 886:Drivers/lvgl/lvgl/src/core/lv_obj_pos.c ****         lv_area_copy(&obj_coords, &obj->coords);
 887:Drivers/lvgl/lvgl/src/core/lv_obj_pos.c ****         obj_coords.x1 -= ext_size;
 888:Drivers/lvgl/lvgl/src/core/lv_obj_pos.c ****         obj_coords.y1 -= ext_size;
ARM GAS  /tmp/cc3JQQuJ.s 			page 17


 889:Drivers/lvgl/lvgl/src/core/lv_obj_pos.c ****         obj_coords.x2 += ext_size;
 890:Drivers/lvgl/lvgl/src/core/lv_obj_pos.c ****         obj_coords.y2 += ext_size;
 891:Drivers/lvgl/lvgl/src/core/lv_obj_pos.c **** 
 892:Drivers/lvgl/lvgl/src/core/lv_obj_pos.c ****         /*The area is not on the object*/
 893:Drivers/lvgl/lvgl/src/core/lv_obj_pos.c ****         if(!_lv_area_intersect(area, area, &obj_coords)) return false;
 894:Drivers/lvgl/lvgl/src/core/lv_obj_pos.c ****     }
 895:Drivers/lvgl/lvgl/src/core/lv_obj_pos.c **** 
 896:Drivers/lvgl/lvgl/src/core/lv_obj_pos.c ****     lv_obj_get_transformed_area(obj, area, true, false);
 897:Drivers/lvgl/lvgl/src/core/lv_obj_pos.c **** 
 898:Drivers/lvgl/lvgl/src/core/lv_obj_pos.c **** 
 899:Drivers/lvgl/lvgl/src/core/lv_obj_pos.c ****     /*Truncate recursively to the parents*/
 900:Drivers/lvgl/lvgl/src/core/lv_obj_pos.c ****     lv_obj_t * par = lv_obj_get_parent(obj);
 901:Drivers/lvgl/lvgl/src/core/lv_obj_pos.c ****     while(par != NULL) {
 902:Drivers/lvgl/lvgl/src/core/lv_obj_pos.c ****         /*If the parent is hidden then the child is hidden and won't be drawn*/
 903:Drivers/lvgl/lvgl/src/core/lv_obj_pos.c ****         if(lv_obj_has_flag(par, LV_OBJ_FLAG_HIDDEN)) return false;
 904:Drivers/lvgl/lvgl/src/core/lv_obj_pos.c **** 
 905:Drivers/lvgl/lvgl/src/core/lv_obj_pos.c ****         /*Truncate to the parent and if no common parts break*/
 906:Drivers/lvgl/lvgl/src/core/lv_obj_pos.c ****         if(!lv_obj_has_flag_any(par, LV_OBJ_FLAG_OVERFLOW_VISIBLE)) {
 907:Drivers/lvgl/lvgl/src/core/lv_obj_pos.c ****             lv_area_t par_area = par->coords;
 908:Drivers/lvgl/lvgl/src/core/lv_obj_pos.c ****             lv_obj_get_transformed_area(par, &par_area, true, false);
 909:Drivers/lvgl/lvgl/src/core/lv_obj_pos.c ****             if(!_lv_area_intersect(area, area, &par_area)) return false;
 910:Drivers/lvgl/lvgl/src/core/lv_obj_pos.c ****         }
 911:Drivers/lvgl/lvgl/src/core/lv_obj_pos.c **** 
 912:Drivers/lvgl/lvgl/src/core/lv_obj_pos.c ****         par = lv_obj_get_parent(par);
 913:Drivers/lvgl/lvgl/src/core/lv_obj_pos.c ****     }
 914:Drivers/lvgl/lvgl/src/core/lv_obj_pos.c **** 
 915:Drivers/lvgl/lvgl/src/core/lv_obj_pos.c ****     return true;
 916:Drivers/lvgl/lvgl/src/core/lv_obj_pos.c **** }
 917:Drivers/lvgl/lvgl/src/core/lv_obj_pos.c **** 
 918:Drivers/lvgl/lvgl/src/core/lv_obj_pos.c **** bool lv_obj_is_visible(const lv_obj_t * obj)
 919:Drivers/lvgl/lvgl/src/core/lv_obj_pos.c **** {
 920:Drivers/lvgl/lvgl/src/core/lv_obj_pos.c ****     LV_ASSERT_OBJ(obj, MY_CLASS);
 921:Drivers/lvgl/lvgl/src/core/lv_obj_pos.c **** 
 922:Drivers/lvgl/lvgl/src/core/lv_obj_pos.c ****     lv_area_t obj_coords;
 923:Drivers/lvgl/lvgl/src/core/lv_obj_pos.c ****     lv_coord_t ext_size = _lv_obj_get_ext_draw_size(obj);
 924:Drivers/lvgl/lvgl/src/core/lv_obj_pos.c ****     lv_area_copy(&obj_coords, &obj->coords);
 925:Drivers/lvgl/lvgl/src/core/lv_obj_pos.c ****     obj_coords.x1 -= ext_size;
 926:Drivers/lvgl/lvgl/src/core/lv_obj_pos.c ****     obj_coords.y1 -= ext_size;
 927:Drivers/lvgl/lvgl/src/core/lv_obj_pos.c ****     obj_coords.x2 += ext_size;
 928:Drivers/lvgl/lvgl/src/core/lv_obj_pos.c ****     obj_coords.y2 += ext_size;
 929:Drivers/lvgl/lvgl/src/core/lv_obj_pos.c **** 
 930:Drivers/lvgl/lvgl/src/core/lv_obj_pos.c ****     return lv_obj_area_is_visible(obj, &obj_coords);
 931:Drivers/lvgl/lvgl/src/core/lv_obj_pos.c **** 
 932:Drivers/lvgl/lvgl/src/core/lv_obj_pos.c **** }
 933:Drivers/lvgl/lvgl/src/core/lv_obj_pos.c **** 
 934:Drivers/lvgl/lvgl/src/core/lv_obj_pos.c **** void lv_obj_set_ext_click_area(lv_obj_t * obj, lv_coord_t size)
 935:Drivers/lvgl/lvgl/src/core/lv_obj_pos.c **** {
 936:Drivers/lvgl/lvgl/src/core/lv_obj_pos.c ****     LV_ASSERT_OBJ(obj, MY_CLASS);
 937:Drivers/lvgl/lvgl/src/core/lv_obj_pos.c **** 
 938:Drivers/lvgl/lvgl/src/core/lv_obj_pos.c ****     lv_obj_allocate_spec_attr(obj);
 939:Drivers/lvgl/lvgl/src/core/lv_obj_pos.c ****     obj->spec_attr->ext_click_pad = size;
 940:Drivers/lvgl/lvgl/src/core/lv_obj_pos.c **** }
 941:Drivers/lvgl/lvgl/src/core/lv_obj_pos.c **** 
 942:Drivers/lvgl/lvgl/src/core/lv_obj_pos.c **** void lv_obj_get_click_area(const lv_obj_t * obj, lv_area_t * area)
 943:Drivers/lvgl/lvgl/src/core/lv_obj_pos.c **** {
 944:Drivers/lvgl/lvgl/src/core/lv_obj_pos.c ****     lv_area_copy(area, &obj->coords);
 945:Drivers/lvgl/lvgl/src/core/lv_obj_pos.c ****     if(obj->spec_attr) {
ARM GAS  /tmp/cc3JQQuJ.s 			page 18


 946:Drivers/lvgl/lvgl/src/core/lv_obj_pos.c ****         area->x1 -= obj->spec_attr->ext_click_pad;
 947:Drivers/lvgl/lvgl/src/core/lv_obj_pos.c ****         area->x2 += obj->spec_attr->ext_click_pad;
 948:Drivers/lvgl/lvgl/src/core/lv_obj_pos.c ****         area->y1 -= obj->spec_attr->ext_click_pad;
 949:Drivers/lvgl/lvgl/src/core/lv_obj_pos.c ****         area->y2 += obj->spec_attr->ext_click_pad;
 950:Drivers/lvgl/lvgl/src/core/lv_obj_pos.c ****     }
 951:Drivers/lvgl/lvgl/src/core/lv_obj_pos.c **** }
 952:Drivers/lvgl/lvgl/src/core/lv_obj_pos.c **** 
 953:Drivers/lvgl/lvgl/src/core/lv_obj_pos.c **** bool lv_obj_hit_test(lv_obj_t * obj, const lv_point_t * point)
 954:Drivers/lvgl/lvgl/src/core/lv_obj_pos.c **** {
 955:Drivers/lvgl/lvgl/src/core/lv_obj_pos.c ****     if(!lv_obj_has_flag(obj, LV_OBJ_FLAG_CLICKABLE)) return false;
 956:Drivers/lvgl/lvgl/src/core/lv_obj_pos.c ****     if(lv_obj_has_state(obj, LV_STATE_DISABLED)) return false;
 957:Drivers/lvgl/lvgl/src/core/lv_obj_pos.c **** 
 958:Drivers/lvgl/lvgl/src/core/lv_obj_pos.c ****     lv_area_t a;
 959:Drivers/lvgl/lvgl/src/core/lv_obj_pos.c ****     lv_obj_get_click_area(obj, &a);
 960:Drivers/lvgl/lvgl/src/core/lv_obj_pos.c ****     bool res = _lv_area_is_point_on(&a, point, 0);
 961:Drivers/lvgl/lvgl/src/core/lv_obj_pos.c ****     if(res == false) return false;
 962:Drivers/lvgl/lvgl/src/core/lv_obj_pos.c **** 
 963:Drivers/lvgl/lvgl/src/core/lv_obj_pos.c ****     if(lv_obj_has_flag(obj, LV_OBJ_FLAG_ADV_HITTEST)) {
 964:Drivers/lvgl/lvgl/src/core/lv_obj_pos.c ****         lv_hit_test_info_t hit_info;
 965:Drivers/lvgl/lvgl/src/core/lv_obj_pos.c ****         hit_info.point = point;
 966:Drivers/lvgl/lvgl/src/core/lv_obj_pos.c ****         hit_info.res = true;
 967:Drivers/lvgl/lvgl/src/core/lv_obj_pos.c ****         lv_event_send(obj, LV_EVENT_HIT_TEST, &hit_info);
 968:Drivers/lvgl/lvgl/src/core/lv_obj_pos.c ****         return hit_info.res;
 969:Drivers/lvgl/lvgl/src/core/lv_obj_pos.c ****     }
 970:Drivers/lvgl/lvgl/src/core/lv_obj_pos.c **** 
 971:Drivers/lvgl/lvgl/src/core/lv_obj_pos.c ****     return res;
 972:Drivers/lvgl/lvgl/src/core/lv_obj_pos.c **** }
 973:Drivers/lvgl/lvgl/src/core/lv_obj_pos.c **** 
 974:Drivers/lvgl/lvgl/src/core/lv_obj_pos.c **** lv_coord_t lv_clamp_width(lv_coord_t width, lv_coord_t min_width, lv_coord_t max_width, lv_coord_t 
 975:Drivers/lvgl/lvgl/src/core/lv_obj_pos.c **** {
 976:Drivers/lvgl/lvgl/src/core/lv_obj_pos.c ****     if(LV_COORD_IS_PCT(min_width)) min_width = (ref_width * LV_COORD_GET_PCT(min_width)) / 100;
 977:Drivers/lvgl/lvgl/src/core/lv_obj_pos.c ****     if(LV_COORD_IS_PCT(max_width)) max_width = (ref_width * LV_COORD_GET_PCT(max_width)) / 100;
 978:Drivers/lvgl/lvgl/src/core/lv_obj_pos.c ****     return LV_CLAMP(min_width, width, max_width);
 979:Drivers/lvgl/lvgl/src/core/lv_obj_pos.c **** }
 980:Drivers/lvgl/lvgl/src/core/lv_obj_pos.c **** 
 981:Drivers/lvgl/lvgl/src/core/lv_obj_pos.c **** lv_coord_t lv_clamp_height(lv_coord_t height, lv_coord_t min_height, lv_coord_t max_height, lv_coor
 982:Drivers/lvgl/lvgl/src/core/lv_obj_pos.c **** {
 983:Drivers/lvgl/lvgl/src/core/lv_obj_pos.c ****     if(LV_COORD_IS_PCT(min_height)) min_height = (ref_height * LV_COORD_GET_PCT(min_height)) / 100;
 984:Drivers/lvgl/lvgl/src/core/lv_obj_pos.c ****     if(LV_COORD_IS_PCT(max_height)) max_height = (ref_height * LV_COORD_GET_PCT(max_height)) / 100;
 985:Drivers/lvgl/lvgl/src/core/lv_obj_pos.c ****     return LV_CLAMP(min_height, height, max_height);
 986:Drivers/lvgl/lvgl/src/core/lv_obj_pos.c **** }
 987:Drivers/lvgl/lvgl/src/core/lv_obj_pos.c **** 
 988:Drivers/lvgl/lvgl/src/core/lv_obj_pos.c **** 
 989:Drivers/lvgl/lvgl/src/core/lv_obj_pos.c **** 
 990:Drivers/lvgl/lvgl/src/core/lv_obj_pos.c **** /**********************
 991:Drivers/lvgl/lvgl/src/core/lv_obj_pos.c ****  *   STATIC FUNCTIONS
 992:Drivers/lvgl/lvgl/src/core/lv_obj_pos.c ****  **********************/
 993:Drivers/lvgl/lvgl/src/core/lv_obj_pos.c **** 
 994:Drivers/lvgl/lvgl/src/core/lv_obj_pos.c **** static lv_coord_t calc_content_width(lv_obj_t * obj)
 995:Drivers/lvgl/lvgl/src/core/lv_obj_pos.c **** {
 996:Drivers/lvgl/lvgl/src/core/lv_obj_pos.c ****     lv_obj_scroll_to_x(obj, 0, LV_ANIM_OFF);
 997:Drivers/lvgl/lvgl/src/core/lv_obj_pos.c **** 
 998:Drivers/lvgl/lvgl/src/core/lv_obj_pos.c ****     lv_coord_t border_width = lv_obj_get_style_border_width(obj, LV_PART_MAIN);
 999:Drivers/lvgl/lvgl/src/core/lv_obj_pos.c ****     lv_coord_t pad_right = lv_obj_get_style_pad_right(obj, LV_PART_MAIN) + border_width;
1000:Drivers/lvgl/lvgl/src/core/lv_obj_pos.c ****     lv_coord_t pad_left = lv_obj_get_style_pad_left(obj, LV_PART_MAIN) + border_width;
1001:Drivers/lvgl/lvgl/src/core/lv_obj_pos.c **** 
1002:Drivers/lvgl/lvgl/src/core/lv_obj_pos.c ****     lv_coord_t self_w;
ARM GAS  /tmp/cc3JQQuJ.s 			page 19


1003:Drivers/lvgl/lvgl/src/core/lv_obj_pos.c ****     self_w = lv_obj_get_self_width(obj) +  pad_left + pad_right;
1004:Drivers/lvgl/lvgl/src/core/lv_obj_pos.c **** 
1005:Drivers/lvgl/lvgl/src/core/lv_obj_pos.c ****     lv_coord_t child_res = LV_COORD_MIN;
1006:Drivers/lvgl/lvgl/src/core/lv_obj_pos.c ****     uint32_t i;
1007:Drivers/lvgl/lvgl/src/core/lv_obj_pos.c ****     uint32_t child_cnt = lv_obj_get_child_cnt(obj);
1008:Drivers/lvgl/lvgl/src/core/lv_obj_pos.c ****     /*With RTL find the left most coordinate*/
1009:Drivers/lvgl/lvgl/src/core/lv_obj_pos.c ****     if(lv_obj_get_style_base_dir(obj, LV_PART_MAIN) == LV_BASE_DIR_RTL) {
1010:Drivers/lvgl/lvgl/src/core/lv_obj_pos.c ****         for(i = 0; i < child_cnt; i++) {
1011:Drivers/lvgl/lvgl/src/core/lv_obj_pos.c ****             lv_obj_t * child = obj->spec_attr->children[i];
1012:Drivers/lvgl/lvgl/src/core/lv_obj_pos.c ****             if(lv_obj_has_flag_any(child,  LV_OBJ_FLAG_HIDDEN | LV_OBJ_FLAG_FLOATING)) continue;
1013:Drivers/lvgl/lvgl/src/core/lv_obj_pos.c **** 
1014:Drivers/lvgl/lvgl/src/core/lv_obj_pos.c ****             if(!lv_obj_is_layout_positioned(child)) {
1015:Drivers/lvgl/lvgl/src/core/lv_obj_pos.c ****                 lv_align_t align = lv_obj_get_style_align(child, 0);
1016:Drivers/lvgl/lvgl/src/core/lv_obj_pos.c ****                 switch(align) {
1017:Drivers/lvgl/lvgl/src/core/lv_obj_pos.c ****                     case LV_ALIGN_DEFAULT:
1018:Drivers/lvgl/lvgl/src/core/lv_obj_pos.c ****                     case LV_ALIGN_TOP_RIGHT:
1019:Drivers/lvgl/lvgl/src/core/lv_obj_pos.c ****                     case LV_ALIGN_BOTTOM_RIGHT:
1020:Drivers/lvgl/lvgl/src/core/lv_obj_pos.c ****                     case LV_ALIGN_RIGHT_MID:
1021:Drivers/lvgl/lvgl/src/core/lv_obj_pos.c ****                         /*Normal right aligns. Other are ignored due to possible circular dependenc
1022:Drivers/lvgl/lvgl/src/core/lv_obj_pos.c ****                         child_res = LV_MAX(child_res, obj->coords.x2 - child->coords.x1 + 1);
1023:Drivers/lvgl/lvgl/src/core/lv_obj_pos.c ****                         break;
1024:Drivers/lvgl/lvgl/src/core/lv_obj_pos.c ****                     default:
1025:Drivers/lvgl/lvgl/src/core/lv_obj_pos.c ****                         /* Consider other cases only if x=0 and use the width of the object.
1026:Drivers/lvgl/lvgl/src/core/lv_obj_pos.c ****                          * With x!=0 circular dependency could occur. */
1027:Drivers/lvgl/lvgl/src/core/lv_obj_pos.c ****                         if(lv_obj_get_style_x(child, 0) == 0) {
1028:Drivers/lvgl/lvgl/src/core/lv_obj_pos.c ****                             child_res = LV_MAX(child_res, lv_area_get_width(&child->coords) + pad_r
1029:Drivers/lvgl/lvgl/src/core/lv_obj_pos.c ****                         }
1030:Drivers/lvgl/lvgl/src/core/lv_obj_pos.c ****                 }
1031:Drivers/lvgl/lvgl/src/core/lv_obj_pos.c ****             }
1032:Drivers/lvgl/lvgl/src/core/lv_obj_pos.c ****             else {
1033:Drivers/lvgl/lvgl/src/core/lv_obj_pos.c ****                 child_res = LV_MAX(child_res, obj->coords.x2 - child->coords.x1 + 1);
1034:Drivers/lvgl/lvgl/src/core/lv_obj_pos.c ****             }
1035:Drivers/lvgl/lvgl/src/core/lv_obj_pos.c ****         }
1036:Drivers/lvgl/lvgl/src/core/lv_obj_pos.c ****         if(child_res != LV_COORD_MIN) {
1037:Drivers/lvgl/lvgl/src/core/lv_obj_pos.c ****             child_res += pad_left;
1038:Drivers/lvgl/lvgl/src/core/lv_obj_pos.c ****         }
1039:Drivers/lvgl/lvgl/src/core/lv_obj_pos.c ****     }
1040:Drivers/lvgl/lvgl/src/core/lv_obj_pos.c ****     /*Else find the right most coordinate*/
1041:Drivers/lvgl/lvgl/src/core/lv_obj_pos.c ****     else {
1042:Drivers/lvgl/lvgl/src/core/lv_obj_pos.c ****         for(i = 0; i < child_cnt; i++) {
1043:Drivers/lvgl/lvgl/src/core/lv_obj_pos.c ****             lv_obj_t * child = obj->spec_attr->children[i];
1044:Drivers/lvgl/lvgl/src/core/lv_obj_pos.c ****             if(lv_obj_has_flag_any(child,  LV_OBJ_FLAG_HIDDEN | LV_OBJ_FLAG_FLOATING)) continue;
1045:Drivers/lvgl/lvgl/src/core/lv_obj_pos.c **** 
1046:Drivers/lvgl/lvgl/src/core/lv_obj_pos.c ****             if(!lv_obj_is_layout_positioned(child)) {
1047:Drivers/lvgl/lvgl/src/core/lv_obj_pos.c ****                 lv_align_t align = lv_obj_get_style_align(child, 0);
1048:Drivers/lvgl/lvgl/src/core/lv_obj_pos.c ****                 switch(align) {
1049:Drivers/lvgl/lvgl/src/core/lv_obj_pos.c ****                     case LV_ALIGN_DEFAULT:
1050:Drivers/lvgl/lvgl/src/core/lv_obj_pos.c ****                     case LV_ALIGN_TOP_LEFT:
1051:Drivers/lvgl/lvgl/src/core/lv_obj_pos.c ****                     case LV_ALIGN_BOTTOM_LEFT:
1052:Drivers/lvgl/lvgl/src/core/lv_obj_pos.c ****                     case LV_ALIGN_LEFT_MID:
1053:Drivers/lvgl/lvgl/src/core/lv_obj_pos.c ****                         /*Normal left aligns.*/
1054:Drivers/lvgl/lvgl/src/core/lv_obj_pos.c ****                         child_res = LV_MAX(child_res, child->coords.x2 - obj->coords.x1 + 1);
1055:Drivers/lvgl/lvgl/src/core/lv_obj_pos.c ****                         break;
1056:Drivers/lvgl/lvgl/src/core/lv_obj_pos.c ****                     default:
1057:Drivers/lvgl/lvgl/src/core/lv_obj_pos.c ****                         /* Consider other cases only if x=0 and use the width of the object.
1058:Drivers/lvgl/lvgl/src/core/lv_obj_pos.c ****                          * With x!=0 circular dependency could occur. */
1059:Drivers/lvgl/lvgl/src/core/lv_obj_pos.c ****                         if(lv_obj_get_style_y(child, 0) == 0) {
ARM GAS  /tmp/cc3JQQuJ.s 			page 20


1060:Drivers/lvgl/lvgl/src/core/lv_obj_pos.c ****                             child_res = LV_MAX(child_res, lv_area_get_width(&child->coords) + pad_l
1061:Drivers/lvgl/lvgl/src/core/lv_obj_pos.c ****                         }
1062:Drivers/lvgl/lvgl/src/core/lv_obj_pos.c ****                 }
1063:Drivers/lvgl/lvgl/src/core/lv_obj_pos.c ****             }
1064:Drivers/lvgl/lvgl/src/core/lv_obj_pos.c ****             else {
1065:Drivers/lvgl/lvgl/src/core/lv_obj_pos.c ****                 child_res = LV_MAX(child_res, child->coords.x2 - obj->coords.x1 + 1);
1066:Drivers/lvgl/lvgl/src/core/lv_obj_pos.c ****             }
1067:Drivers/lvgl/lvgl/src/core/lv_obj_pos.c ****         }
1068:Drivers/lvgl/lvgl/src/core/lv_obj_pos.c **** 
1069:Drivers/lvgl/lvgl/src/core/lv_obj_pos.c ****         if(child_res != LV_COORD_MIN) {
1070:Drivers/lvgl/lvgl/src/core/lv_obj_pos.c ****             child_res += pad_right;
1071:Drivers/lvgl/lvgl/src/core/lv_obj_pos.c ****         }
1072:Drivers/lvgl/lvgl/src/core/lv_obj_pos.c ****     }
1073:Drivers/lvgl/lvgl/src/core/lv_obj_pos.c **** 
1074:Drivers/lvgl/lvgl/src/core/lv_obj_pos.c ****     if(child_res == LV_COORD_MIN) return self_w;
1075:Drivers/lvgl/lvgl/src/core/lv_obj_pos.c ****     else return LV_MAX(child_res, self_w);
1076:Drivers/lvgl/lvgl/src/core/lv_obj_pos.c **** }
1077:Drivers/lvgl/lvgl/src/core/lv_obj_pos.c **** 
1078:Drivers/lvgl/lvgl/src/core/lv_obj_pos.c **** static lv_coord_t calc_content_height(lv_obj_t * obj)
1079:Drivers/lvgl/lvgl/src/core/lv_obj_pos.c **** {
1080:Drivers/lvgl/lvgl/src/core/lv_obj_pos.c ****     lv_obj_scroll_to_y(obj, 0, LV_ANIM_OFF);
1081:Drivers/lvgl/lvgl/src/core/lv_obj_pos.c **** 
1082:Drivers/lvgl/lvgl/src/core/lv_obj_pos.c ****     lv_coord_t border_width = lv_obj_get_style_border_width(obj, LV_PART_MAIN);
1083:Drivers/lvgl/lvgl/src/core/lv_obj_pos.c ****     lv_coord_t pad_top = lv_obj_get_style_pad_top(obj, LV_PART_MAIN) + border_width;
1084:Drivers/lvgl/lvgl/src/core/lv_obj_pos.c ****     lv_coord_t pad_bottom = lv_obj_get_style_pad_bottom(obj, LV_PART_MAIN) + border_width;
1085:Drivers/lvgl/lvgl/src/core/lv_obj_pos.c **** 
1086:Drivers/lvgl/lvgl/src/core/lv_obj_pos.c ****     lv_coord_t self_h;
1087:Drivers/lvgl/lvgl/src/core/lv_obj_pos.c ****     self_h = lv_obj_get_self_height(obj) + pad_top + pad_bottom;
1088:Drivers/lvgl/lvgl/src/core/lv_obj_pos.c **** 
1089:Drivers/lvgl/lvgl/src/core/lv_obj_pos.c ****     lv_coord_t child_res = LV_COORD_MIN;
1090:Drivers/lvgl/lvgl/src/core/lv_obj_pos.c ****     uint32_t i;
1091:Drivers/lvgl/lvgl/src/core/lv_obj_pos.c ****     uint32_t child_cnt = lv_obj_get_child_cnt(obj);
1092:Drivers/lvgl/lvgl/src/core/lv_obj_pos.c ****     for(i = 0; i < child_cnt; i++) {
1093:Drivers/lvgl/lvgl/src/core/lv_obj_pos.c ****         lv_obj_t * child = obj->spec_attr->children[i];
1094:Drivers/lvgl/lvgl/src/core/lv_obj_pos.c ****         if(lv_obj_has_flag_any(child,  LV_OBJ_FLAG_HIDDEN | LV_OBJ_FLAG_FLOATING)) continue;
1095:Drivers/lvgl/lvgl/src/core/lv_obj_pos.c **** 
1096:Drivers/lvgl/lvgl/src/core/lv_obj_pos.c **** 
1097:Drivers/lvgl/lvgl/src/core/lv_obj_pos.c ****         if(!lv_obj_is_layout_positioned(child)) {
1098:Drivers/lvgl/lvgl/src/core/lv_obj_pos.c ****             lv_align_t align = lv_obj_get_style_align(child, 0);
1099:Drivers/lvgl/lvgl/src/core/lv_obj_pos.c ****             switch(align) {
1100:Drivers/lvgl/lvgl/src/core/lv_obj_pos.c ****                 case LV_ALIGN_DEFAULT:
1101:Drivers/lvgl/lvgl/src/core/lv_obj_pos.c ****                 case LV_ALIGN_TOP_RIGHT:
1102:Drivers/lvgl/lvgl/src/core/lv_obj_pos.c ****                 case LV_ALIGN_TOP_MID:
1103:Drivers/lvgl/lvgl/src/core/lv_obj_pos.c ****                 case LV_ALIGN_TOP_LEFT:
1104:Drivers/lvgl/lvgl/src/core/lv_obj_pos.c ****                     /*Normal top aligns. */
1105:Drivers/lvgl/lvgl/src/core/lv_obj_pos.c ****                     child_res = LV_MAX(child_res, child->coords.y2 - obj->coords.y1 + 1);
1106:Drivers/lvgl/lvgl/src/core/lv_obj_pos.c ****                     break;
1107:Drivers/lvgl/lvgl/src/core/lv_obj_pos.c ****                 default:
1108:Drivers/lvgl/lvgl/src/core/lv_obj_pos.c ****                     /* Consider other cases only if y=0 and use the height of the object.
1109:Drivers/lvgl/lvgl/src/core/lv_obj_pos.c ****                      * With y!=0 circular dependency could occur. */
1110:Drivers/lvgl/lvgl/src/core/lv_obj_pos.c ****                     if(lv_obj_get_style_y(child, 0) == 0) {
1111:Drivers/lvgl/lvgl/src/core/lv_obj_pos.c ****                         child_res = LV_MAX(child_res, lv_area_get_height(&child->coords) + pad_top)
1112:Drivers/lvgl/lvgl/src/core/lv_obj_pos.c ****                     }
1113:Drivers/lvgl/lvgl/src/core/lv_obj_pos.c ****                     break;
1114:Drivers/lvgl/lvgl/src/core/lv_obj_pos.c ****             }
1115:Drivers/lvgl/lvgl/src/core/lv_obj_pos.c ****         }
1116:Drivers/lvgl/lvgl/src/core/lv_obj_pos.c ****         else {
ARM GAS  /tmp/cc3JQQuJ.s 			page 21


1117:Drivers/lvgl/lvgl/src/core/lv_obj_pos.c ****             child_res = LV_MAX(child_res, child->coords.y2 - obj->coords.y1 + 1);
1118:Drivers/lvgl/lvgl/src/core/lv_obj_pos.c ****         }
1119:Drivers/lvgl/lvgl/src/core/lv_obj_pos.c ****     }
1120:Drivers/lvgl/lvgl/src/core/lv_obj_pos.c **** 
1121:Drivers/lvgl/lvgl/src/core/lv_obj_pos.c ****     if(child_res != LV_COORD_MIN) {
1122:Drivers/lvgl/lvgl/src/core/lv_obj_pos.c ****         child_res += pad_bottom;
1123:Drivers/lvgl/lvgl/src/core/lv_obj_pos.c ****         return LV_MAX(child_res, self_h);
1124:Drivers/lvgl/lvgl/src/core/lv_obj_pos.c ****     }
1125:Drivers/lvgl/lvgl/src/core/lv_obj_pos.c ****     else {
1126:Drivers/lvgl/lvgl/src/core/lv_obj_pos.c ****         return self_h;
1127:Drivers/lvgl/lvgl/src/core/lv_obj_pos.c ****     }
1128:Drivers/lvgl/lvgl/src/core/lv_obj_pos.c **** 
1129:Drivers/lvgl/lvgl/src/core/lv_obj_pos.c **** }
1130:Drivers/lvgl/lvgl/src/core/lv_obj_pos.c **** 
1131:Drivers/lvgl/lvgl/src/core/lv_obj_pos.c **** static void layout_update_core(lv_obj_t * obj)
1132:Drivers/lvgl/lvgl/src/core/lv_obj_pos.c **** {
1133:Drivers/lvgl/lvgl/src/core/lv_obj_pos.c ****     uint32_t i;
1134:Drivers/lvgl/lvgl/src/core/lv_obj_pos.c ****     uint32_t child_cnt = lv_obj_get_child_cnt(obj);
1135:Drivers/lvgl/lvgl/src/core/lv_obj_pos.c ****     for(i = 0; i < child_cnt; i++) {
1136:Drivers/lvgl/lvgl/src/core/lv_obj_pos.c ****         lv_obj_t * child = obj->spec_attr->children[i];
1137:Drivers/lvgl/lvgl/src/core/lv_obj_pos.c ****         layout_update_core(child);
1138:Drivers/lvgl/lvgl/src/core/lv_obj_pos.c ****     }
1139:Drivers/lvgl/lvgl/src/core/lv_obj_pos.c **** 
1140:Drivers/lvgl/lvgl/src/core/lv_obj_pos.c ****     if(obj->layout_inv == 0) return;
1141:Drivers/lvgl/lvgl/src/core/lv_obj_pos.c **** 
1142:Drivers/lvgl/lvgl/src/core/lv_obj_pos.c ****     obj->layout_inv = 0;
1143:Drivers/lvgl/lvgl/src/core/lv_obj_pos.c **** 
1144:Drivers/lvgl/lvgl/src/core/lv_obj_pos.c ****     lv_obj_refr_size(obj);
1145:Drivers/lvgl/lvgl/src/core/lv_obj_pos.c ****     lv_obj_refr_pos(obj);
1146:Drivers/lvgl/lvgl/src/core/lv_obj_pos.c **** 
1147:Drivers/lvgl/lvgl/src/core/lv_obj_pos.c ****     if(child_cnt > 0) {
1148:Drivers/lvgl/lvgl/src/core/lv_obj_pos.c ****         uint32_t layout_id = lv_obj_get_style_layout(obj, LV_PART_MAIN);
1149:Drivers/lvgl/lvgl/src/core/lv_obj_pos.c ****         if(layout_id > 0 && layout_id <= layout_cnt) {
1150:Drivers/lvgl/lvgl/src/core/lv_obj_pos.c ****             void  * user_data = LV_GC_ROOT(_lv_layout_list)[layout_id - 1].user_data;
1151:Drivers/lvgl/lvgl/src/core/lv_obj_pos.c ****             LV_GC_ROOT(_lv_layout_list)[layout_id - 1].cb(obj, user_data);
1152:Drivers/lvgl/lvgl/src/core/lv_obj_pos.c ****         }
1153:Drivers/lvgl/lvgl/src/core/lv_obj_pos.c ****     }
1154:Drivers/lvgl/lvgl/src/core/lv_obj_pos.c **** }
1155:Drivers/lvgl/lvgl/src/core/lv_obj_pos.c **** 
1156:Drivers/lvgl/lvgl/src/core/lv_obj_pos.c **** static void transform_point(const lv_obj_t * obj, lv_point_t * p, bool inv)
1157:Drivers/lvgl/lvgl/src/core/lv_obj_pos.c **** {
  26              		.loc 1 1157 0
  27              		.cfi_startproc
  28              		@ args = 0, pretend = 0, frame = 8
  29              		@ frame_needed = 0, uses_anonymous_args = 0
  30              	.LVL0:
  31 0000 2DE9F043 		push	{r4, r5, r6, r7, r8, r9, lr}
  32              	.LCFI0:
  33              		.cfi_def_cfa_offset 28
  34              		.cfi_offset 4, -28
  35              		.cfi_offset 5, -24
  36              		.cfi_offset 6, -20
  37              		.cfi_offset 7, -16
  38              		.cfi_offset 8, -12
  39              		.cfi_offset 9, -8
  40              		.cfi_offset 14, -4
  41 0004 83B0     		sub	sp, sp, #12
ARM GAS  /tmp/cc3JQQuJ.s 			page 22


  42              	.LCFI1:
  43              		.cfi_def_cfa_offset 40
  44 0006 0446     		mov	r4, r0
  45 0008 8846     		mov	r8, r1
  46 000a 9146     		mov	r9, r2
  47              	.LVL1:
  48              	.LBB203:
  49              	.LBB204:
  50              		.file 2 "Drivers/lvgl/lvgl/src/core/lv_obj_style_gen.h"
   1:Drivers/lvgl/lvgl/src/core/lv_obj_style_gen.h **** static inline lv_coord_t lv_obj_get_style_width(const struct _lv_obj_t * obj, uint32_t part)
   2:Drivers/lvgl/lvgl/src/core/lv_obj_style_gen.h **** {
   3:Drivers/lvgl/lvgl/src/core/lv_obj_style_gen.h ****     lv_style_value_t v = lv_obj_get_style_prop(obj, part, LV_STYLE_WIDTH);
   4:Drivers/lvgl/lvgl/src/core/lv_obj_style_gen.h ****     return (lv_coord_t)v.num;
   5:Drivers/lvgl/lvgl/src/core/lv_obj_style_gen.h **** }
   6:Drivers/lvgl/lvgl/src/core/lv_obj_style_gen.h **** 
   7:Drivers/lvgl/lvgl/src/core/lv_obj_style_gen.h **** static inline lv_coord_t lv_obj_get_style_min_width(const struct _lv_obj_t * obj, uint32_t part)
   8:Drivers/lvgl/lvgl/src/core/lv_obj_style_gen.h **** {
   9:Drivers/lvgl/lvgl/src/core/lv_obj_style_gen.h ****     lv_style_value_t v = lv_obj_get_style_prop(obj, part, LV_STYLE_MIN_WIDTH);
  10:Drivers/lvgl/lvgl/src/core/lv_obj_style_gen.h ****     return (lv_coord_t)v.num;
  11:Drivers/lvgl/lvgl/src/core/lv_obj_style_gen.h **** }
  12:Drivers/lvgl/lvgl/src/core/lv_obj_style_gen.h **** 
  13:Drivers/lvgl/lvgl/src/core/lv_obj_style_gen.h **** static inline lv_coord_t lv_obj_get_style_max_width(const struct _lv_obj_t * obj, uint32_t part)
  14:Drivers/lvgl/lvgl/src/core/lv_obj_style_gen.h **** {
  15:Drivers/lvgl/lvgl/src/core/lv_obj_style_gen.h ****     lv_style_value_t v = lv_obj_get_style_prop(obj, part, LV_STYLE_MAX_WIDTH);
  16:Drivers/lvgl/lvgl/src/core/lv_obj_style_gen.h ****     return (lv_coord_t)v.num;
  17:Drivers/lvgl/lvgl/src/core/lv_obj_style_gen.h **** }
  18:Drivers/lvgl/lvgl/src/core/lv_obj_style_gen.h **** 
  19:Drivers/lvgl/lvgl/src/core/lv_obj_style_gen.h **** static inline lv_coord_t lv_obj_get_style_height(const struct _lv_obj_t * obj, uint32_t part)
  20:Drivers/lvgl/lvgl/src/core/lv_obj_style_gen.h **** {
  21:Drivers/lvgl/lvgl/src/core/lv_obj_style_gen.h ****     lv_style_value_t v = lv_obj_get_style_prop(obj, part, LV_STYLE_HEIGHT);
  22:Drivers/lvgl/lvgl/src/core/lv_obj_style_gen.h ****     return (lv_coord_t)v.num;
  23:Drivers/lvgl/lvgl/src/core/lv_obj_style_gen.h **** }
  24:Drivers/lvgl/lvgl/src/core/lv_obj_style_gen.h **** 
  25:Drivers/lvgl/lvgl/src/core/lv_obj_style_gen.h **** static inline lv_coord_t lv_obj_get_style_min_height(const struct _lv_obj_t * obj, uint32_t part)
  26:Drivers/lvgl/lvgl/src/core/lv_obj_style_gen.h **** {
  27:Drivers/lvgl/lvgl/src/core/lv_obj_style_gen.h ****     lv_style_value_t v = lv_obj_get_style_prop(obj, part, LV_STYLE_MIN_HEIGHT);
  28:Drivers/lvgl/lvgl/src/core/lv_obj_style_gen.h ****     return (lv_coord_t)v.num;
  29:Drivers/lvgl/lvgl/src/core/lv_obj_style_gen.h **** }
  30:Drivers/lvgl/lvgl/src/core/lv_obj_style_gen.h **** 
  31:Drivers/lvgl/lvgl/src/core/lv_obj_style_gen.h **** static inline lv_coord_t lv_obj_get_style_max_height(const struct _lv_obj_t * obj, uint32_t part)
  32:Drivers/lvgl/lvgl/src/core/lv_obj_style_gen.h **** {
  33:Drivers/lvgl/lvgl/src/core/lv_obj_style_gen.h ****     lv_style_value_t v = lv_obj_get_style_prop(obj, part, LV_STYLE_MAX_HEIGHT);
  34:Drivers/lvgl/lvgl/src/core/lv_obj_style_gen.h ****     return (lv_coord_t)v.num;
  35:Drivers/lvgl/lvgl/src/core/lv_obj_style_gen.h **** }
  36:Drivers/lvgl/lvgl/src/core/lv_obj_style_gen.h **** 
  37:Drivers/lvgl/lvgl/src/core/lv_obj_style_gen.h **** static inline lv_coord_t lv_obj_get_style_x(const struct _lv_obj_t * obj, uint32_t part)
  38:Drivers/lvgl/lvgl/src/core/lv_obj_style_gen.h **** {
  39:Drivers/lvgl/lvgl/src/core/lv_obj_style_gen.h ****     lv_style_value_t v = lv_obj_get_style_prop(obj, part, LV_STYLE_X);
  40:Drivers/lvgl/lvgl/src/core/lv_obj_style_gen.h ****     return (lv_coord_t)v.num;
  41:Drivers/lvgl/lvgl/src/core/lv_obj_style_gen.h **** }
  42:Drivers/lvgl/lvgl/src/core/lv_obj_style_gen.h **** 
  43:Drivers/lvgl/lvgl/src/core/lv_obj_style_gen.h **** static inline lv_coord_t lv_obj_get_style_y(const struct _lv_obj_t * obj, uint32_t part)
  44:Drivers/lvgl/lvgl/src/core/lv_obj_style_gen.h **** {
  45:Drivers/lvgl/lvgl/src/core/lv_obj_style_gen.h ****     lv_style_value_t v = lv_obj_get_style_prop(obj, part, LV_STYLE_Y);
  46:Drivers/lvgl/lvgl/src/core/lv_obj_style_gen.h ****     return (lv_coord_t)v.num;
  47:Drivers/lvgl/lvgl/src/core/lv_obj_style_gen.h **** }
  48:Drivers/lvgl/lvgl/src/core/lv_obj_style_gen.h **** 
ARM GAS  /tmp/cc3JQQuJ.s 			page 23


  49:Drivers/lvgl/lvgl/src/core/lv_obj_style_gen.h **** static inline lv_align_t lv_obj_get_style_align(const struct _lv_obj_t * obj, uint32_t part)
  50:Drivers/lvgl/lvgl/src/core/lv_obj_style_gen.h **** {
  51:Drivers/lvgl/lvgl/src/core/lv_obj_style_gen.h ****     lv_style_value_t v = lv_obj_get_style_prop(obj, part, LV_STYLE_ALIGN);
  52:Drivers/lvgl/lvgl/src/core/lv_obj_style_gen.h ****     return (lv_align_t)v.num;
  53:Drivers/lvgl/lvgl/src/core/lv_obj_style_gen.h **** }
  54:Drivers/lvgl/lvgl/src/core/lv_obj_style_gen.h **** 
  55:Drivers/lvgl/lvgl/src/core/lv_obj_style_gen.h **** static inline lv_coord_t lv_obj_get_style_transform_width(const struct _lv_obj_t * obj, uint32_t pa
  56:Drivers/lvgl/lvgl/src/core/lv_obj_style_gen.h **** {
  57:Drivers/lvgl/lvgl/src/core/lv_obj_style_gen.h ****     lv_style_value_t v = lv_obj_get_style_prop(obj, part, LV_STYLE_TRANSFORM_WIDTH);
  58:Drivers/lvgl/lvgl/src/core/lv_obj_style_gen.h ****     return (lv_coord_t)v.num;
  59:Drivers/lvgl/lvgl/src/core/lv_obj_style_gen.h **** }
  60:Drivers/lvgl/lvgl/src/core/lv_obj_style_gen.h **** 
  61:Drivers/lvgl/lvgl/src/core/lv_obj_style_gen.h **** static inline lv_coord_t lv_obj_get_style_transform_height(const struct _lv_obj_t * obj, uint32_t p
  62:Drivers/lvgl/lvgl/src/core/lv_obj_style_gen.h **** {
  63:Drivers/lvgl/lvgl/src/core/lv_obj_style_gen.h ****     lv_style_value_t v = lv_obj_get_style_prop(obj, part, LV_STYLE_TRANSFORM_HEIGHT);
  64:Drivers/lvgl/lvgl/src/core/lv_obj_style_gen.h ****     return (lv_coord_t)v.num;
  65:Drivers/lvgl/lvgl/src/core/lv_obj_style_gen.h **** }
  66:Drivers/lvgl/lvgl/src/core/lv_obj_style_gen.h **** 
  67:Drivers/lvgl/lvgl/src/core/lv_obj_style_gen.h **** static inline lv_coord_t lv_obj_get_style_translate_x(const struct _lv_obj_t * obj, uint32_t part)
  68:Drivers/lvgl/lvgl/src/core/lv_obj_style_gen.h **** {
  69:Drivers/lvgl/lvgl/src/core/lv_obj_style_gen.h ****     lv_style_value_t v = lv_obj_get_style_prop(obj, part, LV_STYLE_TRANSLATE_X);
  70:Drivers/lvgl/lvgl/src/core/lv_obj_style_gen.h ****     return (lv_coord_t)v.num;
  71:Drivers/lvgl/lvgl/src/core/lv_obj_style_gen.h **** }
  72:Drivers/lvgl/lvgl/src/core/lv_obj_style_gen.h **** 
  73:Drivers/lvgl/lvgl/src/core/lv_obj_style_gen.h **** static inline lv_coord_t lv_obj_get_style_translate_y(const struct _lv_obj_t * obj, uint32_t part)
  74:Drivers/lvgl/lvgl/src/core/lv_obj_style_gen.h **** {
  75:Drivers/lvgl/lvgl/src/core/lv_obj_style_gen.h ****     lv_style_value_t v = lv_obj_get_style_prop(obj, part, LV_STYLE_TRANSLATE_Y);
  76:Drivers/lvgl/lvgl/src/core/lv_obj_style_gen.h ****     return (lv_coord_t)v.num;
  77:Drivers/lvgl/lvgl/src/core/lv_obj_style_gen.h **** }
  78:Drivers/lvgl/lvgl/src/core/lv_obj_style_gen.h **** 
  79:Drivers/lvgl/lvgl/src/core/lv_obj_style_gen.h **** static inline lv_coord_t lv_obj_get_style_transform_zoom(const struct _lv_obj_t * obj, uint32_t par
  80:Drivers/lvgl/lvgl/src/core/lv_obj_style_gen.h **** {
  81:Drivers/lvgl/lvgl/src/core/lv_obj_style_gen.h ****     lv_style_value_t v = lv_obj_get_style_prop(obj, part, LV_STYLE_TRANSFORM_ZOOM);
  82:Drivers/lvgl/lvgl/src/core/lv_obj_style_gen.h ****     return (lv_coord_t)v.num;
  83:Drivers/lvgl/lvgl/src/core/lv_obj_style_gen.h **** }
  84:Drivers/lvgl/lvgl/src/core/lv_obj_style_gen.h **** 
  85:Drivers/lvgl/lvgl/src/core/lv_obj_style_gen.h **** static inline lv_coord_t lv_obj_get_style_transform_angle(const struct _lv_obj_t * obj, uint32_t pa
  86:Drivers/lvgl/lvgl/src/core/lv_obj_style_gen.h **** {
  87:Drivers/lvgl/lvgl/src/core/lv_obj_style_gen.h ****     lv_style_value_t v = lv_obj_get_style_prop(obj, part, LV_STYLE_TRANSFORM_ANGLE);
  51              		.loc 2 87 0
  52 000c 6D22     		movs	r2, #109
  53              	.LVL2:
  54 000e 0021     		movs	r1, #0
  55              	.LVL3:
  56 0010 FFF7FEFF 		bl	lv_obj_get_style_prop
  57              	.LVL4:
  58 0014 0646     		mov	r6, r0
  88:Drivers/lvgl/lvgl/src/core/lv_obj_style_gen.h ****     return (lv_coord_t)v.num;
  59              		.loc 2 88 0
  60 0016 07B2     		sxth	r7, r0
  61              	.LVL5:
  62              	.LBE204:
  63              	.LBE203:
  64              	.LBB205:
  65              	.LBB206:
  81:Drivers/lvgl/lvgl/src/core/lv_obj_style_gen.h ****     return (lv_coord_t)v.num;
  66              		.loc 2 81 0
ARM GAS  /tmp/cc3JQQuJ.s 			page 24


  67 0018 6C22     		movs	r2, #108
  68 001a 0021     		movs	r1, #0
  69 001c 2046     		mov	r0, r4
  70 001e FFF7FEFF 		bl	lv_obj_get_style_prop
  71              	.LVL6:
  82:Drivers/lvgl/lvgl/src/core/lv_obj_style_gen.h **** }
  72              		.loc 2 82 0
  73 0022 05B2     		sxth	r5, r0
  74              	.LVL7:
  75              	.LBE206:
  76              	.LBE205:
1158:Drivers/lvgl/lvgl/src/core/lv_obj_pos.c ****     int16_t angle = lv_obj_get_style_transform_angle(obj, 0);
1159:Drivers/lvgl/lvgl/src/core/lv_obj_pos.c ****     int16_t zoom = lv_obj_get_style_transform_zoom(obj, 0);
1160:Drivers/lvgl/lvgl/src/core/lv_obj_pos.c **** 
1161:Drivers/lvgl/lvgl/src/core/lv_obj_pos.c ****     if(angle == 0 && zoom == LV_IMG_ZOOM_NONE) return;
  77              		.loc 1 1161 0
  78 0024 B5F5807F 		cmp	r5, #256
  79 0028 14BF     		ite	ne
  80 002a 0023     		movne	r3, #0
  81 002c 0123     		moveq	r3, #1
  82 002e 002F     		cmp	r7, #0
  83 0030 18BF     		it	ne
  84 0032 0023     		movne	r3, #0
  85 0034 13B1     		cbz	r3, .L12
  86              	.L1:
1162:Drivers/lvgl/lvgl/src/core/lv_obj_pos.c **** 
1163:Drivers/lvgl/lvgl/src/core/lv_obj_pos.c ****     lv_point_t pivot = {
1164:Drivers/lvgl/lvgl/src/core/lv_obj_pos.c ****         .x = lv_obj_get_style_transform_pivot_x(obj, 0),
1165:Drivers/lvgl/lvgl/src/core/lv_obj_pos.c ****         .y = lv_obj_get_style_transform_pivot_y(obj, 0)
1166:Drivers/lvgl/lvgl/src/core/lv_obj_pos.c ****     };
1167:Drivers/lvgl/lvgl/src/core/lv_obj_pos.c **** 
1168:Drivers/lvgl/lvgl/src/core/lv_obj_pos.c ****     if(LV_COORD_IS_PCT(pivot.x)) {
1169:Drivers/lvgl/lvgl/src/core/lv_obj_pos.c ****         pivot.x = (LV_COORD_GET_PCT(pivot.x) * lv_area_get_width(&obj->coords)) / 100;
1170:Drivers/lvgl/lvgl/src/core/lv_obj_pos.c ****     }
1171:Drivers/lvgl/lvgl/src/core/lv_obj_pos.c ****     if(LV_COORD_IS_PCT(pivot.y)) {
1172:Drivers/lvgl/lvgl/src/core/lv_obj_pos.c ****         pivot.y = (LV_COORD_GET_PCT(pivot.y) * lv_area_get_height(&obj->coords)) / 100;
1173:Drivers/lvgl/lvgl/src/core/lv_obj_pos.c ****     }
1174:Drivers/lvgl/lvgl/src/core/lv_obj_pos.c **** 
1175:Drivers/lvgl/lvgl/src/core/lv_obj_pos.c ****     pivot.x = obj->coords.x1 + pivot.x;
1176:Drivers/lvgl/lvgl/src/core/lv_obj_pos.c ****     pivot.y = obj->coords.y1 + pivot.y;
1177:Drivers/lvgl/lvgl/src/core/lv_obj_pos.c **** 
1178:Drivers/lvgl/lvgl/src/core/lv_obj_pos.c ****     if(inv) {
1179:Drivers/lvgl/lvgl/src/core/lv_obj_pos.c ****         angle = -angle;
1180:Drivers/lvgl/lvgl/src/core/lv_obj_pos.c ****         zoom = (256 * 256) / zoom;
1181:Drivers/lvgl/lvgl/src/core/lv_obj_pos.c ****     }
1182:Drivers/lvgl/lvgl/src/core/lv_obj_pos.c **** 
1183:Drivers/lvgl/lvgl/src/core/lv_obj_pos.c ****     lv_point_transform(p, angle, zoom, &pivot);
1184:Drivers/lvgl/lvgl/src/core/lv_obj_pos.c **** }
  87              		.loc 1 1184 0
  88 0036 03B0     		add	sp, sp, #12
  89              	.LCFI2:
  90              		.cfi_remember_state
  91              		.cfi_def_cfa_offset 28
  92              		@ sp needed
  93 0038 BDE8F083 		pop	{r4, r5, r6, r7, r8, r9, pc}
  94              	.LVL8:
  95              	.L12:
ARM GAS  /tmp/cc3JQQuJ.s 			page 25


  96              	.LCFI3:
  97              		.cfi_restore_state
  98              	.LBB207:
  99              	.LBB208:
  89:Drivers/lvgl/lvgl/src/core/lv_obj_style_gen.h **** }
  90:Drivers/lvgl/lvgl/src/core/lv_obj_style_gen.h **** 
  91:Drivers/lvgl/lvgl/src/core/lv_obj_style_gen.h **** static inline lv_coord_t lv_obj_get_style_transform_pivot_x(const struct _lv_obj_t * obj, uint32_t 
  92:Drivers/lvgl/lvgl/src/core/lv_obj_style_gen.h **** {
  93:Drivers/lvgl/lvgl/src/core/lv_obj_style_gen.h ****     lv_style_value_t v = lv_obj_get_style_prop(obj, part, LV_STYLE_TRANSFORM_PIVOT_X);
 100              		.loc 2 93 0
 101 003c 6E22     		movs	r2, #110
 102 003e 0021     		movs	r1, #0
 103 0040 2046     		mov	r0, r4
 104 0042 FFF7FEFF 		bl	lv_obj_get_style_prop
 105              	.LVL9:
 106              	.LBE208:
 107              	.LBE207:
1163:Drivers/lvgl/lvgl/src/core/lv_obj_pos.c ****         .x = lv_obj_get_style_transform_pivot_x(obj, 0),
 108              		.loc 1 1163 0
 109 0046 ADF80400 		strh	r0, [sp, #4]	@ movhi
 110              	.LVL10:
 111              	.LBB209:
 112              	.LBB210:
  94:Drivers/lvgl/lvgl/src/core/lv_obj_style_gen.h ****     return (lv_coord_t)v.num;
  95:Drivers/lvgl/lvgl/src/core/lv_obj_style_gen.h **** }
  96:Drivers/lvgl/lvgl/src/core/lv_obj_style_gen.h **** 
  97:Drivers/lvgl/lvgl/src/core/lv_obj_style_gen.h **** static inline lv_coord_t lv_obj_get_style_transform_pivot_y(const struct _lv_obj_t * obj, uint32_t 
  98:Drivers/lvgl/lvgl/src/core/lv_obj_style_gen.h **** {
  99:Drivers/lvgl/lvgl/src/core/lv_obj_style_gen.h ****     lv_style_value_t v = lv_obj_get_style_prop(obj, part, LV_STYLE_TRANSFORM_PIVOT_Y);
 113              		.loc 2 99 0
 114 004a 6F22     		movs	r2, #111
 115 004c 0021     		movs	r1, #0
 116 004e 2046     		mov	r0, r4
 117 0050 FFF7FEFF 		bl	lv_obj_get_style_prop
 118              	.LVL11:
 100:Drivers/lvgl/lvgl/src/core/lv_obj_style_gen.h ****     return (lv_coord_t)v.num;
 119              		.loc 2 100 0
 120 0054 00B2     		sxth	r0, r0
 121              	.LVL12:
 122              	.LBE210:
 123              	.LBE209:
1163:Drivers/lvgl/lvgl/src/core/lv_obj_pos.c ****         .x = lv_obj_get_style_transform_pivot_x(obj, 0),
 124              		.loc 1 1163 0
 125 0056 ADF80600 		strh	r0, [sp, #6]	@ movhi
1168:Drivers/lvgl/lvgl/src/core/lv_obj_pos.c ****         pivot.x = (LV_COORD_GET_PCT(pivot.x) * lv_area_get_width(&obj->coords)) / 100;
 126              		.loc 1 1168 0
 127 005a BDF90430 		ldrsh	r3, [sp, #4]
 128 005e 03F4C042 		and	r2, r3, #24576
 129 0062 B2F5005F 		cmp	r2, #8192
 130 0066 21D0     		beq	.L13
 131              	.L3:
1171:Drivers/lvgl/lvgl/src/core/lv_obj_pos.c ****         pivot.y = (LV_COORD_GET_PCT(pivot.y) * lv_area_get_height(&obj->coords)) / 100;
 132              		.loc 1 1171 0
 133 0068 00F4C043 		and	r3, r0, #24576
 134 006c B3F5005F 		cmp	r3, #8192
 135 0070 37D0     		beq	.L14
 136              	.L6:
ARM GAS  /tmp/cc3JQQuJ.s 			page 26


1175:Drivers/lvgl/lvgl/src/core/lv_obj_pos.c ****     pivot.y = obj->coords.y1 + pivot.y;
 137              		.loc 1 1175 0
 138 0072 A38A     		ldrh	r3, [r4, #20]
 139 0074 BDF80420 		ldrh	r2, [sp, #4]
 140 0078 1344     		add	r3, r3, r2
 141 007a ADF80430 		strh	r3, [sp, #4]	@ movhi
1176:Drivers/lvgl/lvgl/src/core/lv_obj_pos.c **** 
 142              		.loc 1 1176 0
 143 007e E38A     		ldrh	r3, [r4, #22]
 144 0080 BDF80620 		ldrh	r2, [sp, #6]
 145 0084 1344     		add	r3, r3, r2
 146 0086 ADF80630 		strh	r3, [sp, #6]	@ movhi
1178:Drivers/lvgl/lvgl/src/core/lv_obj_pos.c ****         angle = -angle;
 147              		.loc 1 1178 0
 148 008a B9F1000F 		cmp	r9, #0
 149 008e 06D0     		beq	.L9
1179:Drivers/lvgl/lvgl/src/core/lv_obj_pos.c ****         zoom = (256 * 256) / zoom;
 150              		.loc 1 1179 0
 151 0090 7642     		negs	r6, r6
 152 0092 37B2     		sxth	r7, r6
 153              	.LVL13:
1180:Drivers/lvgl/lvgl/src/core/lv_obj_pos.c ****     }
 154              		.loc 1 1180 0
 155 0094 4FF48033 		mov	r3, #65536
 156 0098 93FBF5F5 		sdiv	r5, r3, r5
 157 009c 2DB2     		sxth	r5, r5
 158              	.LVL14:
 159              	.L9:
1183:Drivers/lvgl/lvgl/src/core/lv_obj_pos.c **** }
 160              		.loc 1 1183 0
 161 009e 01AB     		add	r3, sp, #4
 162 00a0 2A46     		mov	r2, r5
 163 00a2 3946     		mov	r1, r7
 164 00a4 4046     		mov	r0, r8
 165 00a6 FFF7FEFF 		bl	lv_point_transform
 166              	.LVL15:
 167 00aa C4E7     		b	.L1
 168              	.LVL16:
 169              	.L13:
1168:Drivers/lvgl/lvgl/src/core/lv_obj_pos.c ****         pivot.x = (LV_COORD_GET_PCT(pivot.x) * lv_area_get_width(&obj->coords)) / 100;
 170              		.loc 1 1168 0 discriminator 1
 171 00ac 23F4C043 		bic	r3, r3, #24576
 172 00b0 B3F5FA6F 		cmp	r3, #2000
 173 00b4 D8DC     		bgt	.L3
1169:Drivers/lvgl/lvgl/src/core/lv_obj_pos.c ****     }
 174              		.loc 1 1169 0
 175 00b6 B3F57A7F 		cmp	r3, #1000
 176 00ba 01DD     		ble	.L5
1169:Drivers/lvgl/lvgl/src/core/lv_obj_pos.c ****     }
 177              		.loc 1 1169 0 is_stmt 0 discriminator 1
 178 00bc C3F57A73 		rsb	r3, r3, #1000
 179              	.L5:
 180              	.LVL17:
 181              	.LBB211:
 182              	.LBB212:
 183              		.file 3 "Drivers/lvgl/lvgl/src/core/../misc/../font/../misc/lv_area.h"
   1:Drivers/lvgl/lvgl/src/core/../misc/../font/../misc/lv_area.h **** /**
ARM GAS  /tmp/cc3JQQuJ.s 			page 27


   2:Drivers/lvgl/lvgl/src/core/../misc/../font/../misc/lv_area.h ****  * @file lv_area.h
   3:Drivers/lvgl/lvgl/src/core/../misc/../font/../misc/lv_area.h ****  *
   4:Drivers/lvgl/lvgl/src/core/../misc/../font/../misc/lv_area.h ****  */
   5:Drivers/lvgl/lvgl/src/core/../misc/../font/../misc/lv_area.h **** 
   6:Drivers/lvgl/lvgl/src/core/../misc/../font/../misc/lv_area.h **** #ifndef LV_AREA_H
   7:Drivers/lvgl/lvgl/src/core/../misc/../font/../misc/lv_area.h **** #define LV_AREA_H
   8:Drivers/lvgl/lvgl/src/core/../misc/../font/../misc/lv_area.h **** 
   9:Drivers/lvgl/lvgl/src/core/../misc/../font/../misc/lv_area.h **** #ifdef __cplusplus
  10:Drivers/lvgl/lvgl/src/core/../misc/../font/../misc/lv_area.h **** extern "C" {
  11:Drivers/lvgl/lvgl/src/core/../misc/../font/../misc/lv_area.h **** #endif
  12:Drivers/lvgl/lvgl/src/core/../misc/../font/../misc/lv_area.h **** 
  13:Drivers/lvgl/lvgl/src/core/../misc/../font/../misc/lv_area.h **** /*********************
  14:Drivers/lvgl/lvgl/src/core/../misc/../font/../misc/lv_area.h ****  *      INCLUDES
  15:Drivers/lvgl/lvgl/src/core/../misc/../font/../misc/lv_area.h ****  *********************/
  16:Drivers/lvgl/lvgl/src/core/../misc/../font/../misc/lv_area.h **** #include "../lv_conf_internal.h"
  17:Drivers/lvgl/lvgl/src/core/../misc/../font/../misc/lv_area.h **** #include <stdbool.h>
  18:Drivers/lvgl/lvgl/src/core/../misc/../font/../misc/lv_area.h **** #include <stdint.h>
  19:Drivers/lvgl/lvgl/src/core/../misc/../font/../misc/lv_area.h **** 
  20:Drivers/lvgl/lvgl/src/core/../misc/../font/../misc/lv_area.h **** /*********************
  21:Drivers/lvgl/lvgl/src/core/../misc/../font/../misc/lv_area.h ****  *      DEFINES
  22:Drivers/lvgl/lvgl/src/core/../misc/../font/../misc/lv_area.h ****  *********************/
  23:Drivers/lvgl/lvgl/src/core/../misc/../font/../misc/lv_area.h **** 
  24:Drivers/lvgl/lvgl/src/core/../misc/../font/../misc/lv_area.h **** #if LV_USE_LARGE_COORD
  25:Drivers/lvgl/lvgl/src/core/../misc/../font/../misc/lv_area.h **** typedef int32_t lv_coord_t;
  26:Drivers/lvgl/lvgl/src/core/../misc/../font/../misc/lv_area.h **** #else
  27:Drivers/lvgl/lvgl/src/core/../misc/../font/../misc/lv_area.h **** typedef int16_t lv_coord_t;
  28:Drivers/lvgl/lvgl/src/core/../misc/../font/../misc/lv_area.h **** #endif
  29:Drivers/lvgl/lvgl/src/core/../misc/../font/../misc/lv_area.h **** 
  30:Drivers/lvgl/lvgl/src/core/../misc/../font/../misc/lv_area.h **** /**********************
  31:Drivers/lvgl/lvgl/src/core/../misc/../font/../misc/lv_area.h ****  *      TYPEDEFS
  32:Drivers/lvgl/lvgl/src/core/../misc/../font/../misc/lv_area.h ****  **********************/
  33:Drivers/lvgl/lvgl/src/core/../misc/../font/../misc/lv_area.h **** 
  34:Drivers/lvgl/lvgl/src/core/../misc/../font/../misc/lv_area.h **** /**
  35:Drivers/lvgl/lvgl/src/core/../misc/../font/../misc/lv_area.h ****  * Represents a point on the screen.
  36:Drivers/lvgl/lvgl/src/core/../misc/../font/../misc/lv_area.h ****  */
  37:Drivers/lvgl/lvgl/src/core/../misc/../font/../misc/lv_area.h **** typedef struct {
  38:Drivers/lvgl/lvgl/src/core/../misc/../font/../misc/lv_area.h ****     lv_coord_t x;
  39:Drivers/lvgl/lvgl/src/core/../misc/../font/../misc/lv_area.h ****     lv_coord_t y;
  40:Drivers/lvgl/lvgl/src/core/../misc/../font/../misc/lv_area.h **** } lv_point_t;
  41:Drivers/lvgl/lvgl/src/core/../misc/../font/../misc/lv_area.h **** 
  42:Drivers/lvgl/lvgl/src/core/../misc/../font/../misc/lv_area.h **** /** Represents an area of the screen.*/
  43:Drivers/lvgl/lvgl/src/core/../misc/../font/../misc/lv_area.h **** typedef struct {
  44:Drivers/lvgl/lvgl/src/core/../misc/../font/../misc/lv_area.h ****     lv_coord_t x1;
  45:Drivers/lvgl/lvgl/src/core/../misc/../font/../misc/lv_area.h ****     lv_coord_t y1;
  46:Drivers/lvgl/lvgl/src/core/../misc/../font/../misc/lv_area.h ****     lv_coord_t x2;
  47:Drivers/lvgl/lvgl/src/core/../misc/../font/../misc/lv_area.h ****     lv_coord_t y2;
  48:Drivers/lvgl/lvgl/src/core/../misc/../font/../misc/lv_area.h **** } lv_area_t;
  49:Drivers/lvgl/lvgl/src/core/../misc/../font/../misc/lv_area.h **** 
  50:Drivers/lvgl/lvgl/src/core/../misc/../font/../misc/lv_area.h **** /** Alignments*/
  51:Drivers/lvgl/lvgl/src/core/../misc/../font/../misc/lv_area.h **** enum {
  52:Drivers/lvgl/lvgl/src/core/../misc/../font/../misc/lv_area.h ****     LV_ALIGN_DEFAULT = 0,
  53:Drivers/lvgl/lvgl/src/core/../misc/../font/../misc/lv_area.h ****     LV_ALIGN_TOP_LEFT,
  54:Drivers/lvgl/lvgl/src/core/../misc/../font/../misc/lv_area.h ****     LV_ALIGN_TOP_MID,
  55:Drivers/lvgl/lvgl/src/core/../misc/../font/../misc/lv_area.h ****     LV_ALIGN_TOP_RIGHT,
  56:Drivers/lvgl/lvgl/src/core/../misc/../font/../misc/lv_area.h ****     LV_ALIGN_BOTTOM_LEFT,
  57:Drivers/lvgl/lvgl/src/core/../misc/../font/../misc/lv_area.h ****     LV_ALIGN_BOTTOM_MID,
  58:Drivers/lvgl/lvgl/src/core/../misc/../font/../misc/lv_area.h ****     LV_ALIGN_BOTTOM_RIGHT,
ARM GAS  /tmp/cc3JQQuJ.s 			page 28


  59:Drivers/lvgl/lvgl/src/core/../misc/../font/../misc/lv_area.h ****     LV_ALIGN_LEFT_MID,
  60:Drivers/lvgl/lvgl/src/core/../misc/../font/../misc/lv_area.h ****     LV_ALIGN_RIGHT_MID,
  61:Drivers/lvgl/lvgl/src/core/../misc/../font/../misc/lv_area.h ****     LV_ALIGN_CENTER,
  62:Drivers/lvgl/lvgl/src/core/../misc/../font/../misc/lv_area.h **** 
  63:Drivers/lvgl/lvgl/src/core/../misc/../font/../misc/lv_area.h ****     LV_ALIGN_OUT_TOP_LEFT,
  64:Drivers/lvgl/lvgl/src/core/../misc/../font/../misc/lv_area.h ****     LV_ALIGN_OUT_TOP_MID,
  65:Drivers/lvgl/lvgl/src/core/../misc/../font/../misc/lv_area.h ****     LV_ALIGN_OUT_TOP_RIGHT,
  66:Drivers/lvgl/lvgl/src/core/../misc/../font/../misc/lv_area.h ****     LV_ALIGN_OUT_BOTTOM_LEFT,
  67:Drivers/lvgl/lvgl/src/core/../misc/../font/../misc/lv_area.h ****     LV_ALIGN_OUT_BOTTOM_MID,
  68:Drivers/lvgl/lvgl/src/core/../misc/../font/../misc/lv_area.h ****     LV_ALIGN_OUT_BOTTOM_RIGHT,
  69:Drivers/lvgl/lvgl/src/core/../misc/../font/../misc/lv_area.h ****     LV_ALIGN_OUT_LEFT_TOP,
  70:Drivers/lvgl/lvgl/src/core/../misc/../font/../misc/lv_area.h ****     LV_ALIGN_OUT_LEFT_MID,
  71:Drivers/lvgl/lvgl/src/core/../misc/../font/../misc/lv_area.h ****     LV_ALIGN_OUT_LEFT_BOTTOM,
  72:Drivers/lvgl/lvgl/src/core/../misc/../font/../misc/lv_area.h ****     LV_ALIGN_OUT_RIGHT_TOP,
  73:Drivers/lvgl/lvgl/src/core/../misc/../font/../misc/lv_area.h ****     LV_ALIGN_OUT_RIGHT_MID,
  74:Drivers/lvgl/lvgl/src/core/../misc/../font/../misc/lv_area.h ****     LV_ALIGN_OUT_RIGHT_BOTTOM,
  75:Drivers/lvgl/lvgl/src/core/../misc/../font/../misc/lv_area.h **** };
  76:Drivers/lvgl/lvgl/src/core/../misc/../font/../misc/lv_area.h **** typedef uint8_t lv_align_t;
  77:Drivers/lvgl/lvgl/src/core/../misc/../font/../misc/lv_area.h **** 
  78:Drivers/lvgl/lvgl/src/core/../misc/../font/../misc/lv_area.h **** enum {
  79:Drivers/lvgl/lvgl/src/core/../misc/../font/../misc/lv_area.h ****     LV_DIR_NONE     = 0x00,
  80:Drivers/lvgl/lvgl/src/core/../misc/../font/../misc/lv_area.h ****     LV_DIR_LEFT     = (1 << 0),
  81:Drivers/lvgl/lvgl/src/core/../misc/../font/../misc/lv_area.h ****     LV_DIR_RIGHT    = (1 << 1),
  82:Drivers/lvgl/lvgl/src/core/../misc/../font/../misc/lv_area.h ****     LV_DIR_TOP      = (1 << 2),
  83:Drivers/lvgl/lvgl/src/core/../misc/../font/../misc/lv_area.h ****     LV_DIR_BOTTOM   = (1 << 3),
  84:Drivers/lvgl/lvgl/src/core/../misc/../font/../misc/lv_area.h ****     LV_DIR_HOR      = LV_DIR_LEFT | LV_DIR_RIGHT,
  85:Drivers/lvgl/lvgl/src/core/../misc/../font/../misc/lv_area.h ****     LV_DIR_VER      = LV_DIR_TOP | LV_DIR_BOTTOM,
  86:Drivers/lvgl/lvgl/src/core/../misc/../font/../misc/lv_area.h ****     LV_DIR_ALL      = LV_DIR_HOR | LV_DIR_VER,
  87:Drivers/lvgl/lvgl/src/core/../misc/../font/../misc/lv_area.h **** };
  88:Drivers/lvgl/lvgl/src/core/../misc/../font/../misc/lv_area.h **** 
  89:Drivers/lvgl/lvgl/src/core/../misc/../font/../misc/lv_area.h **** typedef uint8_t lv_dir_t;
  90:Drivers/lvgl/lvgl/src/core/../misc/../font/../misc/lv_area.h **** 
  91:Drivers/lvgl/lvgl/src/core/../misc/../font/../misc/lv_area.h **** /**********************
  92:Drivers/lvgl/lvgl/src/core/../misc/../font/../misc/lv_area.h ****  * GLOBAL PROTOTYPES
  93:Drivers/lvgl/lvgl/src/core/../misc/../font/../misc/lv_area.h ****  **********************/
  94:Drivers/lvgl/lvgl/src/core/../misc/../font/../misc/lv_area.h **** 
  95:Drivers/lvgl/lvgl/src/core/../misc/../font/../misc/lv_area.h **** /**
  96:Drivers/lvgl/lvgl/src/core/../misc/../font/../misc/lv_area.h ****  * Initialize an area
  97:Drivers/lvgl/lvgl/src/core/../misc/../font/../misc/lv_area.h ****  * @param area_p pointer to an area
  98:Drivers/lvgl/lvgl/src/core/../misc/../font/../misc/lv_area.h ****  * @param x1 left coordinate of the area
  99:Drivers/lvgl/lvgl/src/core/../misc/../font/../misc/lv_area.h ****  * @param y1 top coordinate of the area
 100:Drivers/lvgl/lvgl/src/core/../misc/../font/../misc/lv_area.h ****  * @param x2 right coordinate of the area
 101:Drivers/lvgl/lvgl/src/core/../misc/../font/../misc/lv_area.h ****  * @param y2 bottom coordinate of the area
 102:Drivers/lvgl/lvgl/src/core/../misc/../font/../misc/lv_area.h ****  */
 103:Drivers/lvgl/lvgl/src/core/../misc/../font/../misc/lv_area.h **** void lv_area_set(lv_area_t * area_p, lv_coord_t x1, lv_coord_t y1, lv_coord_t x2, lv_coord_t y2);
 104:Drivers/lvgl/lvgl/src/core/../misc/../font/../misc/lv_area.h **** 
 105:Drivers/lvgl/lvgl/src/core/../misc/../font/../misc/lv_area.h **** /**
 106:Drivers/lvgl/lvgl/src/core/../misc/../font/../misc/lv_area.h ****  * Copy an area
 107:Drivers/lvgl/lvgl/src/core/../misc/../font/../misc/lv_area.h ****  * @param dest pointer to the destination area
 108:Drivers/lvgl/lvgl/src/core/../misc/../font/../misc/lv_area.h ****  * @param src pointer to the source area
 109:Drivers/lvgl/lvgl/src/core/../misc/../font/../misc/lv_area.h ****  */
 110:Drivers/lvgl/lvgl/src/core/../misc/../font/../misc/lv_area.h **** inline static void lv_area_copy(lv_area_t * dest, const lv_area_t * src)
 111:Drivers/lvgl/lvgl/src/core/../misc/../font/../misc/lv_area.h **** {
 112:Drivers/lvgl/lvgl/src/core/../misc/../font/../misc/lv_area.h ****     dest->x1 = src->x1;
 113:Drivers/lvgl/lvgl/src/core/../misc/../font/../misc/lv_area.h ****     dest->y1 = src->y1;
 114:Drivers/lvgl/lvgl/src/core/../misc/../font/../misc/lv_area.h ****     dest->x2 = src->x2;
 115:Drivers/lvgl/lvgl/src/core/../misc/../font/../misc/lv_area.h ****     dest->y2 = src->y2;
ARM GAS  /tmp/cc3JQQuJ.s 			page 29


 116:Drivers/lvgl/lvgl/src/core/../misc/../font/../misc/lv_area.h **** }
 117:Drivers/lvgl/lvgl/src/core/../misc/../font/../misc/lv_area.h **** 
 118:Drivers/lvgl/lvgl/src/core/../misc/../font/../misc/lv_area.h **** /**
 119:Drivers/lvgl/lvgl/src/core/../misc/../font/../misc/lv_area.h ****  * Get the width of an area
 120:Drivers/lvgl/lvgl/src/core/../misc/../font/../misc/lv_area.h ****  * @param area_p pointer to an area
 121:Drivers/lvgl/lvgl/src/core/../misc/../font/../misc/lv_area.h ****  * @return the width of the area (if x1 == x2 -> width = 1)
 122:Drivers/lvgl/lvgl/src/core/../misc/../font/../misc/lv_area.h ****  */
 123:Drivers/lvgl/lvgl/src/core/../misc/../font/../misc/lv_area.h **** static inline lv_coord_t lv_area_get_width(const lv_area_t * area_p)
 124:Drivers/lvgl/lvgl/src/core/../misc/../font/../misc/lv_area.h **** {
 125:Drivers/lvgl/lvgl/src/core/../misc/../font/../misc/lv_area.h ****     return (lv_coord_t)(area_p->x2 - area_p->x1 + 1);
 184              		.loc 3 125 0 is_stmt 1 discriminator 4
 185 00c0 228B     		ldrh	r2, [r4, #24]
 186 00c2 A18A     		ldrh	r1, [r4, #20]
 187 00c4 521A     		subs	r2, r2, r1
 188 00c6 92B2     		uxth	r2, r2
 189 00c8 0132     		adds	r2, r2, #1
 190 00ca 12B2     		sxth	r2, r2
 191              	.LVL18:
 192              	.LBE212:
 193              	.LBE211:
1169:Drivers/lvgl/lvgl/src/core/lv_obj_pos.c ****     }
 194              		.loc 1 1169 0 discriminator 4
 195 00cc 03FB02F3 		mul	r3, r3, r2
 196 00d0 114A     		ldr	r2, .L15
 197 00d2 82FB0312 		smull	r1, r2, r2, r3
 198 00d6 DB17     		asrs	r3, r3, #31
 199 00d8 C3EB6213 		rsb	r3, r3, r2, asr #5
 200 00dc ADF80430 		strh	r3, [sp, #4]	@ movhi
 201 00e0 C2E7     		b	.L3
 202              	.L14:
1171:Drivers/lvgl/lvgl/src/core/lv_obj_pos.c ****         pivot.y = (LV_COORD_GET_PCT(pivot.y) * lv_area_get_height(&obj->coords)) / 100;
 203              		.loc 1 1171 0 discriminator 1
 204 00e2 20F4C040 		bic	r0, r0, #24576
 205 00e6 B0F5FA6F 		cmp	r0, #2000
 206 00ea C2DC     		bgt	.L6
1172:Drivers/lvgl/lvgl/src/core/lv_obj_pos.c ****     }
 207              		.loc 1 1172 0
 208 00ec B0F57A7F 		cmp	r0, #1000
 209 00f0 01DD     		ble	.L8
1172:Drivers/lvgl/lvgl/src/core/lv_obj_pos.c ****     }
 210              		.loc 1 1172 0 is_stmt 0 discriminator 1
 211 00f2 C0F57A70 		rsb	r0, r0, #1000
 212              	.L8:
 213              	.LVL19:
 214              	.LBB213:
 215              	.LBB214:
 126:Drivers/lvgl/lvgl/src/core/../misc/../font/../misc/lv_area.h **** }
 127:Drivers/lvgl/lvgl/src/core/../misc/../font/../misc/lv_area.h **** 
 128:Drivers/lvgl/lvgl/src/core/../misc/../font/../misc/lv_area.h **** /**
 129:Drivers/lvgl/lvgl/src/core/../misc/../font/../misc/lv_area.h ****  * Get the height of an area
 130:Drivers/lvgl/lvgl/src/core/../misc/../font/../misc/lv_area.h ****  * @param area_p pointer to an area
 131:Drivers/lvgl/lvgl/src/core/../misc/../font/../misc/lv_area.h ****  * @return the height of the area (if y1 == y2 -> height = 1)
 132:Drivers/lvgl/lvgl/src/core/../misc/../font/../misc/lv_area.h ****  */
 133:Drivers/lvgl/lvgl/src/core/../misc/../font/../misc/lv_area.h **** static inline lv_coord_t lv_area_get_height(const lv_area_t * area_p)
 134:Drivers/lvgl/lvgl/src/core/../misc/../font/../misc/lv_area.h **** {
 135:Drivers/lvgl/lvgl/src/core/../misc/../font/../misc/lv_area.h ****     return (lv_coord_t)(area_p->y2 - area_p->y1 + 1);
 216              		.loc 3 135 0 is_stmt 1 discriminator 4
ARM GAS  /tmp/cc3JQQuJ.s 			page 30


 217 00f6 638B     		ldrh	r3, [r4, #26]
 218 00f8 E28A     		ldrh	r2, [r4, #22]
 219 00fa 9B1A     		subs	r3, r3, r2
 220 00fc 9BB2     		uxth	r3, r3
 221 00fe 0133     		adds	r3, r3, #1
 222 0100 1BB2     		sxth	r3, r3
 223              	.LVL20:
 224              	.LBE214:
 225              	.LBE213:
1172:Drivers/lvgl/lvgl/src/core/lv_obj_pos.c ****     }
 226              		.loc 1 1172 0 discriminator 4
 227 0102 00FB03F0 		mul	r0, r0, r3
 228 0106 044B     		ldr	r3, .L15
 229 0108 83FB0023 		smull	r2, r3, r3, r0
 230 010c C017     		asrs	r0, r0, #31
 231 010e C0EB6310 		rsb	r0, r0, r3, asr #5
 232 0112 ADF80600 		strh	r0, [sp, #6]	@ movhi
 233 0116 ACE7     		b	.L6
 234              	.L16:
 235              		.align	2
 236              	.L15:
 237 0118 1F85EB51 		.word	1374389535
 238              		.cfi_endproc
 239              	.LFE214:
 241              		.section	.text.lv_obj_set_x,"ax",%progbits
 242              		.align	1
 243              		.global	lv_obj_set_x
 244              		.syntax unified
 245              		.thumb
 246              		.thumb_func
 247              		.fpu fpv5-d16
 249              	lv_obj_set_x:
 250              	.LFB166:
  53:Drivers/lvgl/lvgl/src/core/lv_obj_pos.c ****     LV_ASSERT_OBJ(obj, MY_CLASS);
 251              		.loc 1 53 0
 252              		.cfi_startproc
 253              		@ args = 0, pretend = 0, frame = 8
 254              		@ frame_needed = 0, uses_anonymous_args = 0
 255              	.LVL21:
 256 0000 30B5     		push	{r4, r5, lr}
 257              	.LCFI4:
 258              		.cfi_def_cfa_offset 12
 259              		.cfi_offset 4, -12
 260              		.cfi_offset 5, -8
 261              		.cfi_offset 14, -4
 262 0002 83B0     		sub	sp, sp, #12
 263              	.LCFI5:
 264              		.cfi_def_cfa_offset 24
 265 0004 0546     		mov	r5, r0
 266 0006 0C46     		mov	r4, r1
  59:Drivers/lvgl/lvgl/src/core/lv_obj_pos.c **** 
 267              		.loc 1 59 0
 268 0008 0023     		movs	r3, #0
 269 000a 01AA     		add	r2, sp, #4
 270 000c 0721     		movs	r1, #7
 271              	.LVL22:
 272 000e FFF7FEFF 		bl	lv_obj_get_local_style_prop
ARM GAS  /tmp/cc3JQQuJ.s 			page 31


 273              	.LVL23:
  61:Drivers/lvgl/lvgl/src/core/lv_obj_pos.c ****         lv_obj_set_style_x(obj, x, 0);
 274              		.loc 1 61 0
 275 0012 0128     		cmp	r0, #1
 276 0014 07D0     		beq	.L22
 277              	.L18:
  61:Drivers/lvgl/lvgl/src/core/lv_obj_pos.c ****         lv_obj_set_style_x(obj, x, 0);
 278              		.loc 1 61 0 is_stmt 0 discriminator 3
 279 0016 20B9     		cbnz	r0, .L17
 280              	.L19:
  62:Drivers/lvgl/lvgl/src/core/lv_obj_pos.c ****     }
 281              		.loc 1 62 0 is_stmt 1
 282 0018 0022     		movs	r2, #0
 283 001a 2146     		mov	r1, r4
 284 001c 2846     		mov	r0, r5
 285              	.LVL24:
 286 001e FFF7FEFF 		bl	lv_obj_set_style_x
 287              	.LVL25:
 288              	.L17:
  64:Drivers/lvgl/lvgl/src/core/lv_obj_pos.c **** 
 289              		.loc 1 64 0
 290 0022 03B0     		add	sp, sp, #12
 291              	.LCFI6:
 292              		.cfi_remember_state
 293              		.cfi_def_cfa_offset 12
 294              		@ sp needed
 295 0024 30BD     		pop	{r4, r5, pc}
 296              	.LVL26:
 297              	.L22:
 298              	.LCFI7:
 299              		.cfi_restore_state
  61:Drivers/lvgl/lvgl/src/core/lv_obj_pos.c ****         lv_obj_set_style_x(obj, x, 0);
 300              		.loc 1 61 0 discriminator 1
 301 0026 019B     		ldr	r3, [sp, #4]
 302 0028 A342     		cmp	r3, r4
 303 002a F5D1     		bne	.L19
 304 002c F3E7     		b	.L18
 305              		.cfi_endproc
 306              	.LFE166:
 308              		.section	.text.lv_obj_set_y,"ax",%progbits
 309              		.align	1
 310              		.global	lv_obj_set_y
 311              		.syntax unified
 312              		.thumb
 313              		.thumb_func
 314              		.fpu fpv5-d16
 316              	lv_obj_set_y:
 317              	.LFB167:
  67:Drivers/lvgl/lvgl/src/core/lv_obj_pos.c ****     LV_ASSERT_OBJ(obj, MY_CLASS);
 318              		.loc 1 67 0
 319              		.cfi_startproc
 320              		@ args = 0, pretend = 0, frame = 8
 321              		@ frame_needed = 0, uses_anonymous_args = 0
 322              	.LVL27:
 323 0000 30B5     		push	{r4, r5, lr}
 324              	.LCFI8:
 325              		.cfi_def_cfa_offset 12
ARM GAS  /tmp/cc3JQQuJ.s 			page 32


 326              		.cfi_offset 4, -12
 327              		.cfi_offset 5, -8
 328              		.cfi_offset 14, -4
 329 0002 83B0     		sub	sp, sp, #12
 330              	.LCFI9:
 331              		.cfi_def_cfa_offset 24
 332 0004 0546     		mov	r5, r0
 333 0006 0C46     		mov	r4, r1
  73:Drivers/lvgl/lvgl/src/core/lv_obj_pos.c **** 
 334              		.loc 1 73 0
 335 0008 0023     		movs	r3, #0
 336 000a 01AA     		add	r2, sp, #4
 337 000c 0821     		movs	r1, #8
 338              	.LVL28:
 339 000e FFF7FEFF 		bl	lv_obj_get_local_style_prop
 340              	.LVL29:
  75:Drivers/lvgl/lvgl/src/core/lv_obj_pos.c ****         lv_obj_set_style_y(obj, y, 0);
 341              		.loc 1 75 0
 342 0012 0128     		cmp	r0, #1
 343 0014 07D0     		beq	.L28
 344              	.L24:
  75:Drivers/lvgl/lvgl/src/core/lv_obj_pos.c ****         lv_obj_set_style_y(obj, y, 0);
 345              		.loc 1 75 0 is_stmt 0 discriminator 3
 346 0016 20B9     		cbnz	r0, .L23
 347              	.L25:
  76:Drivers/lvgl/lvgl/src/core/lv_obj_pos.c ****     }
 348              		.loc 1 76 0 is_stmt 1
 349 0018 0022     		movs	r2, #0
 350 001a 2146     		mov	r1, r4
 351 001c 2846     		mov	r0, r5
 352              	.LVL30:
 353 001e FFF7FEFF 		bl	lv_obj_set_style_y
 354              	.LVL31:
 355              	.L23:
  78:Drivers/lvgl/lvgl/src/core/lv_obj_pos.c **** 
 356              		.loc 1 78 0
 357 0022 03B0     		add	sp, sp, #12
 358              	.LCFI10:
 359              		.cfi_remember_state
 360              		.cfi_def_cfa_offset 12
 361              		@ sp needed
 362 0024 30BD     		pop	{r4, r5, pc}
 363              	.LVL32:
 364              	.L28:
 365              	.LCFI11:
 366              		.cfi_restore_state
  75:Drivers/lvgl/lvgl/src/core/lv_obj_pos.c ****         lv_obj_set_style_y(obj, y, 0);
 367              		.loc 1 75 0 discriminator 1
 368 0026 019B     		ldr	r3, [sp, #4]
 369 0028 A342     		cmp	r3, r4
 370 002a F5D1     		bne	.L25
 371 002c F3E7     		b	.L24
 372              		.cfi_endproc
 373              	.LFE167:
 375              		.section	.text.lv_obj_set_pos,"ax",%progbits
 376              		.align	1
 377              		.global	lv_obj_set_pos
ARM GAS  /tmp/cc3JQQuJ.s 			page 33


 378              		.syntax unified
 379              		.thumb
 380              		.thumb_func
 381              		.fpu fpv5-d16
 383              	lv_obj_set_pos:
 384              	.LFB165:
  45:Drivers/lvgl/lvgl/src/core/lv_obj_pos.c ****     LV_ASSERT_OBJ(obj, MY_CLASS);
 385              		.loc 1 45 0
 386              		.cfi_startproc
 387              		@ args = 0, pretend = 0, frame = 0
 388              		@ frame_needed = 0, uses_anonymous_args = 0
 389              	.LVL33:
 390 0000 38B5     		push	{r3, r4, r5, lr}
 391              	.LCFI12:
 392              		.cfi_def_cfa_offset 16
 393              		.cfi_offset 3, -16
 394              		.cfi_offset 4, -12
 395              		.cfi_offset 5, -8
 396              		.cfi_offset 14, -4
 397 0002 0446     		mov	r4, r0
 398 0004 1546     		mov	r5, r2
  48:Drivers/lvgl/lvgl/src/core/lv_obj_pos.c ****     lv_obj_set_y(obj, y);
 399              		.loc 1 48 0
 400 0006 FFF7FEFF 		bl	lv_obj_set_x
 401              	.LVL34:
  49:Drivers/lvgl/lvgl/src/core/lv_obj_pos.c **** }
 402              		.loc 1 49 0
 403 000a 2946     		mov	r1, r5
 404 000c 2046     		mov	r0, r4
 405 000e FFF7FEFF 		bl	lv_obj_set_y
 406              	.LVL35:
  50:Drivers/lvgl/lvgl/src/core/lv_obj_pos.c **** 
 407              		.loc 1 50 0
 408 0012 38BD     		pop	{r3, r4, r5, pc}
 409              		.cfi_endproc
 410              	.LFE165:
 412              		.section	.text.lv_obj_set_width,"ax",%progbits
 413              		.align	1
 414              		.global	lv_obj_set_width
 415              		.syntax unified
 416              		.thumb
 417              		.thumb_func
 418              		.fpu fpv5-d16
 420              	lv_obj_set_width:
 421              	.LFB170:
 224:Drivers/lvgl/lvgl/src/core/lv_obj_pos.c ****     LV_ASSERT_OBJ(obj, MY_CLASS);
 422              		.loc 1 224 0
 423              		.cfi_startproc
 424              		@ args = 0, pretend = 0, frame = 8
 425              		@ frame_needed = 0, uses_anonymous_args = 0
 426              	.LVL36:
 427 0000 30B5     		push	{r4, r5, lr}
 428              	.LCFI13:
 429              		.cfi_def_cfa_offset 12
 430              		.cfi_offset 4, -12
 431              		.cfi_offset 5, -8
 432              		.cfi_offset 14, -4
ARM GAS  /tmp/cc3JQQuJ.s 			page 34


 433 0002 83B0     		sub	sp, sp, #12
 434              	.LCFI14:
 435              		.cfi_def_cfa_offset 24
 436 0004 0546     		mov	r5, r0
 437 0006 0C46     		mov	r4, r1
 229:Drivers/lvgl/lvgl/src/core/lv_obj_pos.c **** 
 438              		.loc 1 229 0
 439 0008 0023     		movs	r3, #0
 440 000a 01AA     		add	r2, sp, #4
 441 000c 0121     		movs	r1, #1
 442              	.LVL37:
 443 000e FFF7FEFF 		bl	lv_obj_get_local_style_prop
 444              	.LVL38:
 231:Drivers/lvgl/lvgl/src/core/lv_obj_pos.c ****         lv_obj_set_style_width(obj, w, 0);
 445              		.loc 1 231 0
 446 0012 0128     		cmp	r0, #1
 447 0014 07D0     		beq	.L36
 448              	.L32:
 231:Drivers/lvgl/lvgl/src/core/lv_obj_pos.c ****         lv_obj_set_style_width(obj, w, 0);
 449              		.loc 1 231 0 is_stmt 0 discriminator 3
 450 0016 20B9     		cbnz	r0, .L31
 451              	.L33:
 232:Drivers/lvgl/lvgl/src/core/lv_obj_pos.c ****     }
 452              		.loc 1 232 0 is_stmt 1
 453 0018 0022     		movs	r2, #0
 454 001a 2146     		mov	r1, r4
 455 001c 2846     		mov	r0, r5
 456              	.LVL39:
 457 001e FFF7FEFF 		bl	lv_obj_set_style_width
 458              	.LVL40:
 459              	.L31:
 234:Drivers/lvgl/lvgl/src/core/lv_obj_pos.c **** 
 460              		.loc 1 234 0
 461 0022 03B0     		add	sp, sp, #12
 462              	.LCFI15:
 463              		.cfi_remember_state
 464              		.cfi_def_cfa_offset 12
 465              		@ sp needed
 466 0024 30BD     		pop	{r4, r5, pc}
 467              	.LVL41:
 468              	.L36:
 469              	.LCFI16:
 470              		.cfi_restore_state
 231:Drivers/lvgl/lvgl/src/core/lv_obj_pos.c ****         lv_obj_set_style_width(obj, w, 0);
 471              		.loc 1 231 0 discriminator 1
 472 0026 019B     		ldr	r3, [sp, #4]
 473 0028 A342     		cmp	r3, r4
 474 002a F5D1     		bne	.L33
 475 002c F3E7     		b	.L32
 476              		.cfi_endproc
 477              	.LFE170:
 479              		.section	.text.lv_obj_set_height,"ax",%progbits
 480              		.align	1
 481              		.global	lv_obj_set_height
 482              		.syntax unified
 483              		.thumb
 484              		.thumb_func
ARM GAS  /tmp/cc3JQQuJ.s 			page 35


 485              		.fpu fpv5-d16
 487              	lv_obj_set_height:
 488              	.LFB171:
 237:Drivers/lvgl/lvgl/src/core/lv_obj_pos.c ****     LV_ASSERT_OBJ(obj, MY_CLASS);
 489              		.loc 1 237 0
 490              		.cfi_startproc
 491              		@ args = 0, pretend = 0, frame = 8
 492              		@ frame_needed = 0, uses_anonymous_args = 0
 493              	.LVL42:
 494 0000 30B5     		push	{r4, r5, lr}
 495              	.LCFI17:
 496              		.cfi_def_cfa_offset 12
 497              		.cfi_offset 4, -12
 498              		.cfi_offset 5, -8
 499              		.cfi_offset 14, -4
 500 0002 83B0     		sub	sp, sp, #12
 501              	.LCFI18:
 502              		.cfi_def_cfa_offset 24
 503 0004 0546     		mov	r5, r0
 504 0006 0C46     		mov	r4, r1
 242:Drivers/lvgl/lvgl/src/core/lv_obj_pos.c **** 
 505              		.loc 1 242 0
 506 0008 0023     		movs	r3, #0
 507 000a 01AA     		add	r2, sp, #4
 508 000c 0421     		movs	r1, #4
 509              	.LVL43:
 510 000e FFF7FEFF 		bl	lv_obj_get_local_style_prop
 511              	.LVL44:
 244:Drivers/lvgl/lvgl/src/core/lv_obj_pos.c ****         lv_obj_set_style_height(obj, h, 0);
 512              		.loc 1 244 0
 513 0012 0128     		cmp	r0, #1
 514 0014 07D0     		beq	.L42
 515              	.L38:
 244:Drivers/lvgl/lvgl/src/core/lv_obj_pos.c ****         lv_obj_set_style_height(obj, h, 0);
 516              		.loc 1 244 0 is_stmt 0 discriminator 3
 517 0016 20B9     		cbnz	r0, .L37
 518              	.L39:
 245:Drivers/lvgl/lvgl/src/core/lv_obj_pos.c ****     }
 519              		.loc 1 245 0 is_stmt 1
 520 0018 0022     		movs	r2, #0
 521 001a 2146     		mov	r1, r4
 522 001c 2846     		mov	r0, r5
 523              	.LVL45:
 524 001e FFF7FEFF 		bl	lv_obj_set_style_height
 525              	.LVL46:
 526              	.L37:
 247:Drivers/lvgl/lvgl/src/core/lv_obj_pos.c **** 
 527              		.loc 1 247 0
 528 0022 03B0     		add	sp, sp, #12
 529              	.LCFI19:
 530              		.cfi_remember_state
 531              		.cfi_def_cfa_offset 12
 532              		@ sp needed
 533 0024 30BD     		pop	{r4, r5, pc}
 534              	.LVL47:
 535              	.L42:
 536              	.LCFI20:
ARM GAS  /tmp/cc3JQQuJ.s 			page 36


 537              		.cfi_restore_state
 244:Drivers/lvgl/lvgl/src/core/lv_obj_pos.c ****         lv_obj_set_style_height(obj, h, 0);
 538              		.loc 1 244 0 discriminator 1
 539 0026 019B     		ldr	r3, [sp, #4]
 540 0028 A342     		cmp	r3, r4
 541 002a F5D1     		bne	.L39
 542 002c F3E7     		b	.L38
 543              		.cfi_endproc
 544              	.LFE171:
 546              		.section	.text.lv_obj_set_size,"ax",%progbits
 547              		.align	1
 548              		.global	lv_obj_set_size
 549              		.syntax unified
 550              		.thumb
 551              		.thumb_func
 552              		.fpu fpv5-d16
 554              	lv_obj_set_size:
 555              	.LFB169:
 216:Drivers/lvgl/lvgl/src/core/lv_obj_pos.c ****     LV_ASSERT_OBJ(obj, MY_CLASS);
 556              		.loc 1 216 0
 557              		.cfi_startproc
 558              		@ args = 0, pretend = 0, frame = 0
 559              		@ frame_needed = 0, uses_anonymous_args = 0
 560              	.LVL48:
 561 0000 38B5     		push	{r3, r4, r5, lr}
 562              	.LCFI21:
 563              		.cfi_def_cfa_offset 16
 564              		.cfi_offset 3, -16
 565              		.cfi_offset 4, -12
 566              		.cfi_offset 5, -8
 567              		.cfi_offset 14, -4
 568 0002 0446     		mov	r4, r0
 569 0004 1546     		mov	r5, r2
 219:Drivers/lvgl/lvgl/src/core/lv_obj_pos.c ****     lv_obj_set_height(obj, h);
 570              		.loc 1 219 0
 571 0006 FFF7FEFF 		bl	lv_obj_set_width
 572              	.LVL49:
 220:Drivers/lvgl/lvgl/src/core/lv_obj_pos.c **** }
 573              		.loc 1 220 0
 574 000a 2946     		mov	r1, r5
 575 000c 2046     		mov	r0, r4
 576 000e FFF7FEFF 		bl	lv_obj_set_height
 577              	.LVL50:
 221:Drivers/lvgl/lvgl/src/core/lv_obj_pos.c **** 
 578              		.loc 1 221 0
 579 0012 38BD     		pop	{r3, r4, r5, pc}
 580              		.cfi_endproc
 581              	.LFE169:
 583              		.section	.text.lv_obj_set_content_width,"ax",%progbits
 584              		.align	1
 585              		.global	lv_obj_set_content_width
 586              		.syntax unified
 587              		.thumb
 588              		.thumb_func
 589              		.fpu fpv5-d16
 591              	lv_obj_set_content_width:
 592              	.LFB172:
ARM GAS  /tmp/cc3JQQuJ.s 			page 37


 250:Drivers/lvgl/lvgl/src/core/lv_obj_pos.c ****     lv_coord_t pleft = lv_obj_get_style_pad_left(obj, LV_PART_MAIN);
 593              		.loc 1 250 0
 594              		.cfi_startproc
 595              		@ args = 0, pretend = 0, frame = 0
 596              		@ frame_needed = 0, uses_anonymous_args = 0
 597              	.LVL51:
 598 0000 F8B5     		push	{r3, r4, r5, r6, r7, lr}
 599              	.LCFI22:
 600              		.cfi_def_cfa_offset 24
 601              		.cfi_offset 3, -24
 602              		.cfi_offset 4, -20
 603              		.cfi_offset 5, -16
 604              		.cfi_offset 6, -12
 605              		.cfi_offset 7, -8
 606              		.cfi_offset 14, -4
 607 0002 0546     		mov	r5, r0
 608 0004 0C46     		mov	r4, r1
 609              	.LVL52:
 610              	.LBB215:
 611              	.LBB216:
 101:Drivers/lvgl/lvgl/src/core/lv_obj_style_gen.h **** }
 102:Drivers/lvgl/lvgl/src/core/lv_obj_style_gen.h **** 
 103:Drivers/lvgl/lvgl/src/core/lv_obj_style_gen.h **** static inline lv_coord_t lv_obj_get_style_pad_top(const struct _lv_obj_t * obj, uint32_t part)
 104:Drivers/lvgl/lvgl/src/core/lv_obj_style_gen.h **** {
 105:Drivers/lvgl/lvgl/src/core/lv_obj_style_gen.h ****     lv_style_value_t v = lv_obj_get_style_prop(obj, part, LV_STYLE_PAD_TOP);
 106:Drivers/lvgl/lvgl/src/core/lv_obj_style_gen.h ****     return (lv_coord_t)v.num;
 107:Drivers/lvgl/lvgl/src/core/lv_obj_style_gen.h **** }
 108:Drivers/lvgl/lvgl/src/core/lv_obj_style_gen.h **** 
 109:Drivers/lvgl/lvgl/src/core/lv_obj_style_gen.h **** static inline lv_coord_t lv_obj_get_style_pad_bottom(const struct _lv_obj_t * obj, uint32_t part)
 110:Drivers/lvgl/lvgl/src/core/lv_obj_style_gen.h **** {
 111:Drivers/lvgl/lvgl/src/core/lv_obj_style_gen.h ****     lv_style_value_t v = lv_obj_get_style_prop(obj, part, LV_STYLE_PAD_BOTTOM);
 112:Drivers/lvgl/lvgl/src/core/lv_obj_style_gen.h ****     return (lv_coord_t)v.num;
 113:Drivers/lvgl/lvgl/src/core/lv_obj_style_gen.h **** }
 114:Drivers/lvgl/lvgl/src/core/lv_obj_style_gen.h **** 
 115:Drivers/lvgl/lvgl/src/core/lv_obj_style_gen.h **** static inline lv_coord_t lv_obj_get_style_pad_left(const struct _lv_obj_t * obj, uint32_t part)
 116:Drivers/lvgl/lvgl/src/core/lv_obj_style_gen.h **** {
 117:Drivers/lvgl/lvgl/src/core/lv_obj_style_gen.h ****     lv_style_value_t v = lv_obj_get_style_prop(obj, part, LV_STYLE_PAD_LEFT);
 612              		.loc 2 117 0
 613 0006 1222     		movs	r2, #18
 614 0008 0021     		movs	r1, #0
 615              	.LVL53:
 616 000a FFF7FEFF 		bl	lv_obj_get_style_prop
 617              	.LVL54:
 618 000e 0746     		mov	r7, r0
 619              	.LVL55:
 620              	.LBE216:
 621              	.LBE215:
 622              	.LBB217:
 623              	.LBB218:
 118:Drivers/lvgl/lvgl/src/core/lv_obj_style_gen.h ****     return (lv_coord_t)v.num;
 119:Drivers/lvgl/lvgl/src/core/lv_obj_style_gen.h **** }
 120:Drivers/lvgl/lvgl/src/core/lv_obj_style_gen.h **** 
 121:Drivers/lvgl/lvgl/src/core/lv_obj_style_gen.h **** static inline lv_coord_t lv_obj_get_style_pad_right(const struct _lv_obj_t * obj, uint32_t part)
 122:Drivers/lvgl/lvgl/src/core/lv_obj_style_gen.h **** {
 123:Drivers/lvgl/lvgl/src/core/lv_obj_style_gen.h ****     lv_style_value_t v = lv_obj_get_style_prop(obj, part, LV_STYLE_PAD_RIGHT);
 624              		.loc 2 123 0
 625 0010 1322     		movs	r2, #19
ARM GAS  /tmp/cc3JQQuJ.s 			page 38


 626 0012 0021     		movs	r1, #0
 627 0014 2846     		mov	r0, r5
 628 0016 FFF7FEFF 		bl	lv_obj_get_style_prop
 629              	.LVL56:
 630 001a 0646     		mov	r6, r0
 631              	.LVL57:
 632              	.LBE218:
 633              	.LBE217:
 634              	.LBB219:
 635              	.LBB220:
 124:Drivers/lvgl/lvgl/src/core/lv_obj_style_gen.h ****     return (lv_coord_t)v.num;
 125:Drivers/lvgl/lvgl/src/core/lv_obj_style_gen.h **** }
 126:Drivers/lvgl/lvgl/src/core/lv_obj_style_gen.h **** 
 127:Drivers/lvgl/lvgl/src/core/lv_obj_style_gen.h **** static inline lv_coord_t lv_obj_get_style_pad_row(const struct _lv_obj_t * obj, uint32_t part)
 128:Drivers/lvgl/lvgl/src/core/lv_obj_style_gen.h **** {
 129:Drivers/lvgl/lvgl/src/core/lv_obj_style_gen.h ****     lv_style_value_t v = lv_obj_get_style_prop(obj, part, LV_STYLE_PAD_ROW);
 130:Drivers/lvgl/lvgl/src/core/lv_obj_style_gen.h ****     return (lv_coord_t)v.num;
 131:Drivers/lvgl/lvgl/src/core/lv_obj_style_gen.h **** }
 132:Drivers/lvgl/lvgl/src/core/lv_obj_style_gen.h **** 
 133:Drivers/lvgl/lvgl/src/core/lv_obj_style_gen.h **** static inline lv_coord_t lv_obj_get_style_pad_column(const struct _lv_obj_t * obj, uint32_t part)
 134:Drivers/lvgl/lvgl/src/core/lv_obj_style_gen.h **** {
 135:Drivers/lvgl/lvgl/src/core/lv_obj_style_gen.h ****     lv_style_value_t v = lv_obj_get_style_prop(obj, part, LV_STYLE_PAD_COLUMN);
 136:Drivers/lvgl/lvgl/src/core/lv_obj_style_gen.h ****     return (lv_coord_t)v.num;
 137:Drivers/lvgl/lvgl/src/core/lv_obj_style_gen.h **** }
 138:Drivers/lvgl/lvgl/src/core/lv_obj_style_gen.h **** 
 139:Drivers/lvgl/lvgl/src/core/lv_obj_style_gen.h **** static inline lv_color_t lv_obj_get_style_bg_color(const struct _lv_obj_t * obj, uint32_t part)
 140:Drivers/lvgl/lvgl/src/core/lv_obj_style_gen.h **** {
 141:Drivers/lvgl/lvgl/src/core/lv_obj_style_gen.h ****     lv_style_value_t v = lv_obj_get_style_prop(obj, part, LV_STYLE_BG_COLOR);
 142:Drivers/lvgl/lvgl/src/core/lv_obj_style_gen.h ****     return v.color;
 143:Drivers/lvgl/lvgl/src/core/lv_obj_style_gen.h **** }
 144:Drivers/lvgl/lvgl/src/core/lv_obj_style_gen.h **** 
 145:Drivers/lvgl/lvgl/src/core/lv_obj_style_gen.h **** static inline lv_color_t lv_obj_get_style_bg_color_filtered(const struct _lv_obj_t * obj, uint32_t 
 146:Drivers/lvgl/lvgl/src/core/lv_obj_style_gen.h **** {
 147:Drivers/lvgl/lvgl/src/core/lv_obj_style_gen.h ****     lv_style_value_t v = _lv_obj_style_apply_color_filter(obj, part, lv_obj_get_style_prop(obj, par
 148:Drivers/lvgl/lvgl/src/core/lv_obj_style_gen.h ****     return v.color;
 149:Drivers/lvgl/lvgl/src/core/lv_obj_style_gen.h **** }
 150:Drivers/lvgl/lvgl/src/core/lv_obj_style_gen.h **** 
 151:Drivers/lvgl/lvgl/src/core/lv_obj_style_gen.h **** static inline lv_opa_t lv_obj_get_style_bg_opa(const struct _lv_obj_t * obj, uint32_t part)
 152:Drivers/lvgl/lvgl/src/core/lv_obj_style_gen.h **** {
 153:Drivers/lvgl/lvgl/src/core/lv_obj_style_gen.h ****     lv_style_value_t v = lv_obj_get_style_prop(obj, part, LV_STYLE_BG_OPA);
 154:Drivers/lvgl/lvgl/src/core/lv_obj_style_gen.h ****     return (lv_opa_t)v.num;
 155:Drivers/lvgl/lvgl/src/core/lv_obj_style_gen.h **** }
 156:Drivers/lvgl/lvgl/src/core/lv_obj_style_gen.h **** 
 157:Drivers/lvgl/lvgl/src/core/lv_obj_style_gen.h **** static inline lv_color_t lv_obj_get_style_bg_grad_color(const struct _lv_obj_t * obj, uint32_t part
 158:Drivers/lvgl/lvgl/src/core/lv_obj_style_gen.h **** {
 159:Drivers/lvgl/lvgl/src/core/lv_obj_style_gen.h ****     lv_style_value_t v = lv_obj_get_style_prop(obj, part, LV_STYLE_BG_GRAD_COLOR);
 160:Drivers/lvgl/lvgl/src/core/lv_obj_style_gen.h ****     return v.color;
 161:Drivers/lvgl/lvgl/src/core/lv_obj_style_gen.h **** }
 162:Drivers/lvgl/lvgl/src/core/lv_obj_style_gen.h **** 
 163:Drivers/lvgl/lvgl/src/core/lv_obj_style_gen.h **** static inline lv_color_t lv_obj_get_style_bg_grad_color_filtered(const struct _lv_obj_t * obj, uint
 164:Drivers/lvgl/lvgl/src/core/lv_obj_style_gen.h **** {
 165:Drivers/lvgl/lvgl/src/core/lv_obj_style_gen.h ****     lv_style_value_t v = _lv_obj_style_apply_color_filter(obj, part, lv_obj_get_style_prop(obj, par
 166:Drivers/lvgl/lvgl/src/core/lv_obj_style_gen.h ****     return v.color;
 167:Drivers/lvgl/lvgl/src/core/lv_obj_style_gen.h **** }
 168:Drivers/lvgl/lvgl/src/core/lv_obj_style_gen.h **** 
 169:Drivers/lvgl/lvgl/src/core/lv_obj_style_gen.h **** static inline lv_grad_dir_t lv_obj_get_style_bg_grad_dir(const struct _lv_obj_t * obj, uint32_t par
 170:Drivers/lvgl/lvgl/src/core/lv_obj_style_gen.h **** {
ARM GAS  /tmp/cc3JQQuJ.s 			page 39


 171:Drivers/lvgl/lvgl/src/core/lv_obj_style_gen.h ****     lv_style_value_t v = lv_obj_get_style_prop(obj, part, LV_STYLE_BG_GRAD_DIR);
 172:Drivers/lvgl/lvgl/src/core/lv_obj_style_gen.h ****     return (lv_grad_dir_t)v.num;
 173:Drivers/lvgl/lvgl/src/core/lv_obj_style_gen.h **** }
 174:Drivers/lvgl/lvgl/src/core/lv_obj_style_gen.h **** 
 175:Drivers/lvgl/lvgl/src/core/lv_obj_style_gen.h **** static inline lv_coord_t lv_obj_get_style_bg_main_stop(const struct _lv_obj_t * obj, uint32_t part)
 176:Drivers/lvgl/lvgl/src/core/lv_obj_style_gen.h **** {
 177:Drivers/lvgl/lvgl/src/core/lv_obj_style_gen.h ****     lv_style_value_t v = lv_obj_get_style_prop(obj, part, LV_STYLE_BG_MAIN_STOP);
 178:Drivers/lvgl/lvgl/src/core/lv_obj_style_gen.h ****     return (lv_coord_t)v.num;
 179:Drivers/lvgl/lvgl/src/core/lv_obj_style_gen.h **** }
 180:Drivers/lvgl/lvgl/src/core/lv_obj_style_gen.h **** 
 181:Drivers/lvgl/lvgl/src/core/lv_obj_style_gen.h **** static inline lv_coord_t lv_obj_get_style_bg_grad_stop(const struct _lv_obj_t * obj, uint32_t part)
 182:Drivers/lvgl/lvgl/src/core/lv_obj_style_gen.h **** {
 183:Drivers/lvgl/lvgl/src/core/lv_obj_style_gen.h ****     lv_style_value_t v = lv_obj_get_style_prop(obj, part, LV_STYLE_BG_GRAD_STOP);
 184:Drivers/lvgl/lvgl/src/core/lv_obj_style_gen.h ****     return (lv_coord_t)v.num;
 185:Drivers/lvgl/lvgl/src/core/lv_obj_style_gen.h **** }
 186:Drivers/lvgl/lvgl/src/core/lv_obj_style_gen.h **** 
 187:Drivers/lvgl/lvgl/src/core/lv_obj_style_gen.h **** static inline const lv_grad_dsc_t * lv_obj_get_style_bg_grad(const struct _lv_obj_t * obj, uint32_t
 188:Drivers/lvgl/lvgl/src/core/lv_obj_style_gen.h **** {
 189:Drivers/lvgl/lvgl/src/core/lv_obj_style_gen.h ****     lv_style_value_t v = lv_obj_get_style_prop(obj, part, LV_STYLE_BG_GRAD);
 190:Drivers/lvgl/lvgl/src/core/lv_obj_style_gen.h ****     return (const lv_grad_dsc_t *)v.ptr;
 191:Drivers/lvgl/lvgl/src/core/lv_obj_style_gen.h **** }
 192:Drivers/lvgl/lvgl/src/core/lv_obj_style_gen.h **** 
 193:Drivers/lvgl/lvgl/src/core/lv_obj_style_gen.h **** static inline lv_dither_mode_t lv_obj_get_style_bg_dither_mode(const struct _lv_obj_t * obj, uint32
 194:Drivers/lvgl/lvgl/src/core/lv_obj_style_gen.h **** {
 195:Drivers/lvgl/lvgl/src/core/lv_obj_style_gen.h ****     lv_style_value_t v = lv_obj_get_style_prop(obj, part, LV_STYLE_BG_DITHER_MODE);
 196:Drivers/lvgl/lvgl/src/core/lv_obj_style_gen.h ****     return (lv_dither_mode_t)v.num;
 197:Drivers/lvgl/lvgl/src/core/lv_obj_style_gen.h **** }
 198:Drivers/lvgl/lvgl/src/core/lv_obj_style_gen.h **** 
 199:Drivers/lvgl/lvgl/src/core/lv_obj_style_gen.h **** static inline const void * lv_obj_get_style_bg_img_src(const struct _lv_obj_t * obj, uint32_t part)
 200:Drivers/lvgl/lvgl/src/core/lv_obj_style_gen.h **** {
 201:Drivers/lvgl/lvgl/src/core/lv_obj_style_gen.h ****     lv_style_value_t v = lv_obj_get_style_prop(obj, part, LV_STYLE_BG_IMG_SRC);
 202:Drivers/lvgl/lvgl/src/core/lv_obj_style_gen.h ****     return (const void *)v.ptr;
 203:Drivers/lvgl/lvgl/src/core/lv_obj_style_gen.h **** }
 204:Drivers/lvgl/lvgl/src/core/lv_obj_style_gen.h **** 
 205:Drivers/lvgl/lvgl/src/core/lv_obj_style_gen.h **** static inline lv_opa_t lv_obj_get_style_bg_img_opa(const struct _lv_obj_t * obj, uint32_t part)
 206:Drivers/lvgl/lvgl/src/core/lv_obj_style_gen.h **** {
 207:Drivers/lvgl/lvgl/src/core/lv_obj_style_gen.h ****     lv_style_value_t v = lv_obj_get_style_prop(obj, part, LV_STYLE_BG_IMG_OPA);
 208:Drivers/lvgl/lvgl/src/core/lv_obj_style_gen.h ****     return (lv_opa_t)v.num;
 209:Drivers/lvgl/lvgl/src/core/lv_obj_style_gen.h **** }
 210:Drivers/lvgl/lvgl/src/core/lv_obj_style_gen.h **** 
 211:Drivers/lvgl/lvgl/src/core/lv_obj_style_gen.h **** static inline lv_color_t lv_obj_get_style_bg_img_recolor(const struct _lv_obj_t * obj, uint32_t par
 212:Drivers/lvgl/lvgl/src/core/lv_obj_style_gen.h **** {
 213:Drivers/lvgl/lvgl/src/core/lv_obj_style_gen.h ****     lv_style_value_t v = lv_obj_get_style_prop(obj, part, LV_STYLE_BG_IMG_RECOLOR);
 214:Drivers/lvgl/lvgl/src/core/lv_obj_style_gen.h ****     return v.color;
 215:Drivers/lvgl/lvgl/src/core/lv_obj_style_gen.h **** }
 216:Drivers/lvgl/lvgl/src/core/lv_obj_style_gen.h **** 
 217:Drivers/lvgl/lvgl/src/core/lv_obj_style_gen.h **** static inline lv_color_t lv_obj_get_style_bg_img_recolor_filtered(const struct _lv_obj_t * obj, uin
 218:Drivers/lvgl/lvgl/src/core/lv_obj_style_gen.h **** {
 219:Drivers/lvgl/lvgl/src/core/lv_obj_style_gen.h ****     lv_style_value_t v = _lv_obj_style_apply_color_filter(obj, part, lv_obj_get_style_prop(obj, par
 220:Drivers/lvgl/lvgl/src/core/lv_obj_style_gen.h ****     return v.color;
 221:Drivers/lvgl/lvgl/src/core/lv_obj_style_gen.h **** }
 222:Drivers/lvgl/lvgl/src/core/lv_obj_style_gen.h **** 
 223:Drivers/lvgl/lvgl/src/core/lv_obj_style_gen.h **** static inline lv_opa_t lv_obj_get_style_bg_img_recolor_opa(const struct _lv_obj_t * obj, uint32_t p
 224:Drivers/lvgl/lvgl/src/core/lv_obj_style_gen.h **** {
 225:Drivers/lvgl/lvgl/src/core/lv_obj_style_gen.h ****     lv_style_value_t v = lv_obj_get_style_prop(obj, part, LV_STYLE_BG_IMG_RECOLOR_OPA);
 226:Drivers/lvgl/lvgl/src/core/lv_obj_style_gen.h ****     return (lv_opa_t)v.num;
 227:Drivers/lvgl/lvgl/src/core/lv_obj_style_gen.h **** }
ARM GAS  /tmp/cc3JQQuJ.s 			page 40


 228:Drivers/lvgl/lvgl/src/core/lv_obj_style_gen.h **** 
 229:Drivers/lvgl/lvgl/src/core/lv_obj_style_gen.h **** static inline bool lv_obj_get_style_bg_img_tiled(const struct _lv_obj_t * obj, uint32_t part)
 230:Drivers/lvgl/lvgl/src/core/lv_obj_style_gen.h **** {
 231:Drivers/lvgl/lvgl/src/core/lv_obj_style_gen.h ****     lv_style_value_t v = lv_obj_get_style_prop(obj, part, LV_STYLE_BG_IMG_TILED);
 232:Drivers/lvgl/lvgl/src/core/lv_obj_style_gen.h ****     return (bool)v.num;
 233:Drivers/lvgl/lvgl/src/core/lv_obj_style_gen.h **** }
 234:Drivers/lvgl/lvgl/src/core/lv_obj_style_gen.h **** 
 235:Drivers/lvgl/lvgl/src/core/lv_obj_style_gen.h **** static inline lv_color_t lv_obj_get_style_border_color(const struct _lv_obj_t * obj, uint32_t part)
 236:Drivers/lvgl/lvgl/src/core/lv_obj_style_gen.h **** {
 237:Drivers/lvgl/lvgl/src/core/lv_obj_style_gen.h ****     lv_style_value_t v = lv_obj_get_style_prop(obj, part, LV_STYLE_BORDER_COLOR);
 238:Drivers/lvgl/lvgl/src/core/lv_obj_style_gen.h ****     return v.color;
 239:Drivers/lvgl/lvgl/src/core/lv_obj_style_gen.h **** }
 240:Drivers/lvgl/lvgl/src/core/lv_obj_style_gen.h **** 
 241:Drivers/lvgl/lvgl/src/core/lv_obj_style_gen.h **** static inline lv_color_t lv_obj_get_style_border_color_filtered(const struct _lv_obj_t * obj, uint3
 242:Drivers/lvgl/lvgl/src/core/lv_obj_style_gen.h **** {
 243:Drivers/lvgl/lvgl/src/core/lv_obj_style_gen.h ****     lv_style_value_t v = _lv_obj_style_apply_color_filter(obj, part, lv_obj_get_style_prop(obj, par
 244:Drivers/lvgl/lvgl/src/core/lv_obj_style_gen.h ****     return v.color;
 245:Drivers/lvgl/lvgl/src/core/lv_obj_style_gen.h **** }
 246:Drivers/lvgl/lvgl/src/core/lv_obj_style_gen.h **** 
 247:Drivers/lvgl/lvgl/src/core/lv_obj_style_gen.h **** static inline lv_opa_t lv_obj_get_style_border_opa(const struct _lv_obj_t * obj, uint32_t part)
 248:Drivers/lvgl/lvgl/src/core/lv_obj_style_gen.h **** {
 249:Drivers/lvgl/lvgl/src/core/lv_obj_style_gen.h ****     lv_style_value_t v = lv_obj_get_style_prop(obj, part, LV_STYLE_BORDER_OPA);
 250:Drivers/lvgl/lvgl/src/core/lv_obj_style_gen.h ****     return (lv_opa_t)v.num;
 251:Drivers/lvgl/lvgl/src/core/lv_obj_style_gen.h **** }
 252:Drivers/lvgl/lvgl/src/core/lv_obj_style_gen.h **** 
 253:Drivers/lvgl/lvgl/src/core/lv_obj_style_gen.h **** static inline lv_coord_t lv_obj_get_style_border_width(const struct _lv_obj_t * obj, uint32_t part)
 254:Drivers/lvgl/lvgl/src/core/lv_obj_style_gen.h **** {
 255:Drivers/lvgl/lvgl/src/core/lv_obj_style_gen.h ****     lv_style_value_t v = lv_obj_get_style_prop(obj, part, LV_STYLE_BORDER_WIDTH);
 636              		.loc 2 255 0
 637 001c 3222     		movs	r2, #50
 638 001e 0021     		movs	r1, #0
 639 0020 2846     		mov	r0, r5
 640 0022 FFF7FEFF 		bl	lv_obj_get_style_prop
 641              	.LVL58:
 642              	.LBE220:
 643              	.LBE219:
 255:Drivers/lvgl/lvgl/src/core/lv_obj_pos.c **** }
 644              		.loc 1 255 0
 645 0026 3C44     		add	r4, r4, r7
 646              	.LVL59:
 647 0028 16FA84F4 		uxtah	r4, r6, r4
 648 002c 4000     		lsls	r0, r0, #1
 649 002e 80B2     		uxth	r0, r0
 650 0030 10FA84F4 		uxtah	r4, r0, r4
 651 0034 21B2     		sxth	r1, r4
 652 0036 2846     		mov	r0, r5
 653 0038 FFF7FEFF 		bl	lv_obj_set_width
 654              	.LVL60:
 256:Drivers/lvgl/lvgl/src/core/lv_obj_pos.c **** 
 655              		.loc 1 256 0
 656 003c F8BD     		pop	{r3, r4, r5, r6, r7, pc}
 657              		.cfi_endproc
 658              	.LFE172:
 660              		.section	.text.lv_obj_set_content_height,"ax",%progbits
 661              		.align	1
 662              		.global	lv_obj_set_content_height
 663              		.syntax unified
ARM GAS  /tmp/cc3JQQuJ.s 			page 41


 664              		.thumb
 665              		.thumb_func
 666              		.fpu fpv5-d16
 668              	lv_obj_set_content_height:
 669              	.LFB173:
 259:Drivers/lvgl/lvgl/src/core/lv_obj_pos.c ****     lv_coord_t ptop = lv_obj_get_style_pad_top(obj, LV_PART_MAIN);
 670              		.loc 1 259 0
 671              		.cfi_startproc
 672              		@ args = 0, pretend = 0, frame = 0
 673              		@ frame_needed = 0, uses_anonymous_args = 0
 674              	.LVL61:
 675 0000 F8B5     		push	{r3, r4, r5, r6, r7, lr}
 676              	.LCFI23:
 677              		.cfi_def_cfa_offset 24
 678              		.cfi_offset 3, -24
 679              		.cfi_offset 4, -20
 680              		.cfi_offset 5, -16
 681              		.cfi_offset 6, -12
 682              		.cfi_offset 7, -8
 683              		.cfi_offset 14, -4
 684 0002 0546     		mov	r5, r0
 685 0004 0C46     		mov	r4, r1
 686              	.LVL62:
 687              	.LBB221:
 688              	.LBB222:
 105:Drivers/lvgl/lvgl/src/core/lv_obj_style_gen.h ****     return (lv_coord_t)v.num;
 689              		.loc 2 105 0
 690 0006 1022     		movs	r2, #16
 691 0008 0021     		movs	r1, #0
 692              	.LVL63:
 693 000a FFF7FEFF 		bl	lv_obj_get_style_prop
 694              	.LVL64:
 695 000e 0746     		mov	r7, r0
 696              	.LVL65:
 697              	.LBE222:
 698              	.LBE221:
 699              	.LBB223:
 700              	.LBB224:
 111:Drivers/lvgl/lvgl/src/core/lv_obj_style_gen.h ****     return (lv_coord_t)v.num;
 701              		.loc 2 111 0
 702 0010 1122     		movs	r2, #17
 703 0012 0021     		movs	r1, #0
 704 0014 2846     		mov	r0, r5
 705 0016 FFF7FEFF 		bl	lv_obj_get_style_prop
 706              	.LVL66:
 707 001a 0646     		mov	r6, r0
 708              	.LVL67:
 709              	.LBE224:
 710              	.LBE223:
 711              	.LBB225:
 712              	.LBB226:
 713              		.loc 2 255 0
 714 001c 3222     		movs	r2, #50
 715 001e 0021     		movs	r1, #0
 716 0020 2846     		mov	r0, r5
 717 0022 FFF7FEFF 		bl	lv_obj_get_style_prop
 718              	.LVL68:
ARM GAS  /tmp/cc3JQQuJ.s 			page 42


 719              	.LBE226:
 720              	.LBE225:
 264:Drivers/lvgl/lvgl/src/core/lv_obj_pos.c **** }
 721              		.loc 1 264 0
 722 0026 3C44     		add	r4, r4, r7
 723              	.LVL69:
 724 0028 16FA84F4 		uxtah	r4, r6, r4
 725 002c 4000     		lsls	r0, r0, #1
 726 002e 80B2     		uxth	r0, r0
 727 0030 10FA84F4 		uxtah	r4, r0, r4
 728 0034 21B2     		sxth	r1, r4
 729 0036 2846     		mov	r0, r5
 730 0038 FFF7FEFF 		bl	lv_obj_set_height
 731              	.LVL70:
 265:Drivers/lvgl/lvgl/src/core/lv_obj_pos.c **** 
 732              		.loc 1 265 0
 733 003c F8BD     		pop	{r3, r4, r5, r6, r7, pc}
 734              		.cfi_endproc
 735              	.LFE173:
 737              		.section	.text.lv_obj_is_layout_positioned,"ax",%progbits
 738              		.align	1
 739              		.global	lv_obj_is_layout_positioned
 740              		.syntax unified
 741              		.thumb
 742              		.thumb_func
 743              		.fpu fpv5-d16
 745              	lv_obj_is_layout_positioned:
 746              	.LFB175:
 277:Drivers/lvgl/lvgl/src/core/lv_obj_pos.c ****     if(lv_obj_has_flag_any(obj, LV_OBJ_FLAG_HIDDEN | LV_OBJ_FLAG_IGNORE_LAYOUT | LV_OBJ_FLAG_FLOATI
 747              		.loc 1 277 0
 748              		.cfi_startproc
 749              		@ args = 0, pretend = 0, frame = 0
 750              		@ frame_needed = 0, uses_anonymous_args = 0
 751              	.LVL71:
 752 0000 38B5     		push	{r3, r4, r5, lr}
 753              	.LCFI24:
 754              		.cfi_def_cfa_offset 16
 755              		.cfi_offset 3, -16
 756              		.cfi_offset 4, -12
 757              		.cfi_offset 5, -8
 758              		.cfi_offset 14, -4
 759 0002 0546     		mov	r5, r0
 278:Drivers/lvgl/lvgl/src/core/lv_obj_pos.c **** 
 760              		.loc 1 278 0
 761 0004 0A49     		ldr	r1, .L54
 762 0006 FFF7FEFF 		bl	lv_obj_has_flag_any
 763              	.LVL72:
 764 000a 10B1     		cbz	r0, .L53
 765 000c 0024     		movs	r4, #0
 766              	.L50:
 286:Drivers/lvgl/lvgl/src/core/lv_obj_pos.c **** 
 767              		.loc 1 286 0
 768 000e 2046     		mov	r0, r4
 769 0010 38BD     		pop	{r3, r4, r5, pc}
 770              	.LVL73:
 771              	.L53:
 772 0012 0446     		mov	r4, r0
ARM GAS  /tmp/cc3JQQuJ.s 			page 43


 280:Drivers/lvgl/lvgl/src/core/lv_obj_pos.c ****     if(parent == NULL) return false;
 773              		.loc 1 280 0
 774 0014 2846     		mov	r0, r5
 775 0016 FFF7FEFF 		bl	lv_obj_get_parent
 776              	.LVL74:
 281:Drivers/lvgl/lvgl/src/core/lv_obj_pos.c **** 
 777              		.loc 1 281 0
 778 001a 0028     		cmp	r0, #0
 779 001c F7D0     		beq	.L50
 780              	.LVL75:
 781              	.LBB227:
 782              	.LBB228:
 256:Drivers/lvgl/lvgl/src/core/lv_obj_style_gen.h ****     return (lv_coord_t)v.num;
 257:Drivers/lvgl/lvgl/src/core/lv_obj_style_gen.h **** }
 258:Drivers/lvgl/lvgl/src/core/lv_obj_style_gen.h **** 
 259:Drivers/lvgl/lvgl/src/core/lv_obj_style_gen.h **** static inline lv_border_side_t lv_obj_get_style_border_side(const struct _lv_obj_t * obj, uint32_t 
 260:Drivers/lvgl/lvgl/src/core/lv_obj_style_gen.h **** {
 261:Drivers/lvgl/lvgl/src/core/lv_obj_style_gen.h ****     lv_style_value_t v = lv_obj_get_style_prop(obj, part, LV_STYLE_BORDER_SIDE);
 262:Drivers/lvgl/lvgl/src/core/lv_obj_style_gen.h ****     return (lv_border_side_t)v.num;
 263:Drivers/lvgl/lvgl/src/core/lv_obj_style_gen.h **** }
 264:Drivers/lvgl/lvgl/src/core/lv_obj_style_gen.h **** 
 265:Drivers/lvgl/lvgl/src/core/lv_obj_style_gen.h **** static inline bool lv_obj_get_style_border_post(const struct _lv_obj_t * obj, uint32_t part)
 266:Drivers/lvgl/lvgl/src/core/lv_obj_style_gen.h **** {
 267:Drivers/lvgl/lvgl/src/core/lv_obj_style_gen.h ****     lv_style_value_t v = lv_obj_get_style_prop(obj, part, LV_STYLE_BORDER_POST);
 268:Drivers/lvgl/lvgl/src/core/lv_obj_style_gen.h ****     return (bool)v.num;
 269:Drivers/lvgl/lvgl/src/core/lv_obj_style_gen.h **** }
 270:Drivers/lvgl/lvgl/src/core/lv_obj_style_gen.h **** 
 271:Drivers/lvgl/lvgl/src/core/lv_obj_style_gen.h **** static inline lv_coord_t lv_obj_get_style_outline_width(const struct _lv_obj_t * obj, uint32_t part
 272:Drivers/lvgl/lvgl/src/core/lv_obj_style_gen.h **** {
 273:Drivers/lvgl/lvgl/src/core/lv_obj_style_gen.h ****     lv_style_value_t v = lv_obj_get_style_prop(obj, part, LV_STYLE_OUTLINE_WIDTH);
 274:Drivers/lvgl/lvgl/src/core/lv_obj_style_gen.h ****     return (lv_coord_t)v.num;
 275:Drivers/lvgl/lvgl/src/core/lv_obj_style_gen.h **** }
 276:Drivers/lvgl/lvgl/src/core/lv_obj_style_gen.h **** 
 277:Drivers/lvgl/lvgl/src/core/lv_obj_style_gen.h **** static inline lv_color_t lv_obj_get_style_outline_color(const struct _lv_obj_t * obj, uint32_t part
 278:Drivers/lvgl/lvgl/src/core/lv_obj_style_gen.h **** {
 279:Drivers/lvgl/lvgl/src/core/lv_obj_style_gen.h ****     lv_style_value_t v = lv_obj_get_style_prop(obj, part, LV_STYLE_OUTLINE_COLOR);
 280:Drivers/lvgl/lvgl/src/core/lv_obj_style_gen.h ****     return v.color;
 281:Drivers/lvgl/lvgl/src/core/lv_obj_style_gen.h **** }
 282:Drivers/lvgl/lvgl/src/core/lv_obj_style_gen.h **** 
 283:Drivers/lvgl/lvgl/src/core/lv_obj_style_gen.h **** static inline lv_color_t lv_obj_get_style_outline_color_filtered(const struct _lv_obj_t * obj, uint
 284:Drivers/lvgl/lvgl/src/core/lv_obj_style_gen.h **** {
 285:Drivers/lvgl/lvgl/src/core/lv_obj_style_gen.h ****     lv_style_value_t v = _lv_obj_style_apply_color_filter(obj, part, lv_obj_get_style_prop(obj, par
 286:Drivers/lvgl/lvgl/src/core/lv_obj_style_gen.h ****     return v.color;
 287:Drivers/lvgl/lvgl/src/core/lv_obj_style_gen.h **** }
 288:Drivers/lvgl/lvgl/src/core/lv_obj_style_gen.h **** 
 289:Drivers/lvgl/lvgl/src/core/lv_obj_style_gen.h **** static inline lv_opa_t lv_obj_get_style_outline_opa(const struct _lv_obj_t * obj, uint32_t part)
 290:Drivers/lvgl/lvgl/src/core/lv_obj_style_gen.h **** {
 291:Drivers/lvgl/lvgl/src/core/lv_obj_style_gen.h ****     lv_style_value_t v = lv_obj_get_style_prop(obj, part, LV_STYLE_OUTLINE_OPA);
 292:Drivers/lvgl/lvgl/src/core/lv_obj_style_gen.h ****     return (lv_opa_t)v.num;
 293:Drivers/lvgl/lvgl/src/core/lv_obj_style_gen.h **** }
 294:Drivers/lvgl/lvgl/src/core/lv_obj_style_gen.h **** 
 295:Drivers/lvgl/lvgl/src/core/lv_obj_style_gen.h **** static inline lv_coord_t lv_obj_get_style_outline_pad(const struct _lv_obj_t * obj, uint32_t part)
 296:Drivers/lvgl/lvgl/src/core/lv_obj_style_gen.h **** {
 297:Drivers/lvgl/lvgl/src/core/lv_obj_style_gen.h ****     lv_style_value_t v = lv_obj_get_style_prop(obj, part, LV_STYLE_OUTLINE_PAD);
 298:Drivers/lvgl/lvgl/src/core/lv_obj_style_gen.h ****     return (lv_coord_t)v.num;
 299:Drivers/lvgl/lvgl/src/core/lv_obj_style_gen.h **** }
 300:Drivers/lvgl/lvgl/src/core/lv_obj_style_gen.h **** 
ARM GAS  /tmp/cc3JQQuJ.s 			page 44


 301:Drivers/lvgl/lvgl/src/core/lv_obj_style_gen.h **** static inline lv_coord_t lv_obj_get_style_shadow_width(const struct _lv_obj_t * obj, uint32_t part)
 302:Drivers/lvgl/lvgl/src/core/lv_obj_style_gen.h **** {
 303:Drivers/lvgl/lvgl/src/core/lv_obj_style_gen.h ****     lv_style_value_t v = lv_obj_get_style_prop(obj, part, LV_STYLE_SHADOW_WIDTH);
 304:Drivers/lvgl/lvgl/src/core/lv_obj_style_gen.h ****     return (lv_coord_t)v.num;
 305:Drivers/lvgl/lvgl/src/core/lv_obj_style_gen.h **** }
 306:Drivers/lvgl/lvgl/src/core/lv_obj_style_gen.h **** 
 307:Drivers/lvgl/lvgl/src/core/lv_obj_style_gen.h **** static inline lv_coord_t lv_obj_get_style_shadow_ofs_x(const struct _lv_obj_t * obj, uint32_t part)
 308:Drivers/lvgl/lvgl/src/core/lv_obj_style_gen.h **** {
 309:Drivers/lvgl/lvgl/src/core/lv_obj_style_gen.h ****     lv_style_value_t v = lv_obj_get_style_prop(obj, part, LV_STYLE_SHADOW_OFS_X);
 310:Drivers/lvgl/lvgl/src/core/lv_obj_style_gen.h ****     return (lv_coord_t)v.num;
 311:Drivers/lvgl/lvgl/src/core/lv_obj_style_gen.h **** }
 312:Drivers/lvgl/lvgl/src/core/lv_obj_style_gen.h **** 
 313:Drivers/lvgl/lvgl/src/core/lv_obj_style_gen.h **** static inline lv_coord_t lv_obj_get_style_shadow_ofs_y(const struct _lv_obj_t * obj, uint32_t part)
 314:Drivers/lvgl/lvgl/src/core/lv_obj_style_gen.h **** {
 315:Drivers/lvgl/lvgl/src/core/lv_obj_style_gen.h ****     lv_style_value_t v = lv_obj_get_style_prop(obj, part, LV_STYLE_SHADOW_OFS_Y);
 316:Drivers/lvgl/lvgl/src/core/lv_obj_style_gen.h ****     return (lv_coord_t)v.num;
 317:Drivers/lvgl/lvgl/src/core/lv_obj_style_gen.h **** }
 318:Drivers/lvgl/lvgl/src/core/lv_obj_style_gen.h **** 
 319:Drivers/lvgl/lvgl/src/core/lv_obj_style_gen.h **** static inline lv_coord_t lv_obj_get_style_shadow_spread(const struct _lv_obj_t * obj, uint32_t part
 320:Drivers/lvgl/lvgl/src/core/lv_obj_style_gen.h **** {
 321:Drivers/lvgl/lvgl/src/core/lv_obj_style_gen.h ****     lv_style_value_t v = lv_obj_get_style_prop(obj, part, LV_STYLE_SHADOW_SPREAD);
 322:Drivers/lvgl/lvgl/src/core/lv_obj_style_gen.h ****     return (lv_coord_t)v.num;
 323:Drivers/lvgl/lvgl/src/core/lv_obj_style_gen.h **** }
 324:Drivers/lvgl/lvgl/src/core/lv_obj_style_gen.h **** 
 325:Drivers/lvgl/lvgl/src/core/lv_obj_style_gen.h **** static inline lv_color_t lv_obj_get_style_shadow_color(const struct _lv_obj_t * obj, uint32_t part)
 326:Drivers/lvgl/lvgl/src/core/lv_obj_style_gen.h **** {
 327:Drivers/lvgl/lvgl/src/core/lv_obj_style_gen.h ****     lv_style_value_t v = lv_obj_get_style_prop(obj, part, LV_STYLE_SHADOW_COLOR);
 328:Drivers/lvgl/lvgl/src/core/lv_obj_style_gen.h ****     return v.color;
 329:Drivers/lvgl/lvgl/src/core/lv_obj_style_gen.h **** }
 330:Drivers/lvgl/lvgl/src/core/lv_obj_style_gen.h **** 
 331:Drivers/lvgl/lvgl/src/core/lv_obj_style_gen.h **** static inline lv_color_t lv_obj_get_style_shadow_color_filtered(const struct _lv_obj_t * obj, uint3
 332:Drivers/lvgl/lvgl/src/core/lv_obj_style_gen.h **** {
 333:Drivers/lvgl/lvgl/src/core/lv_obj_style_gen.h ****     lv_style_value_t v = _lv_obj_style_apply_color_filter(obj, part, lv_obj_get_style_prop(obj, par
 334:Drivers/lvgl/lvgl/src/core/lv_obj_style_gen.h ****     return v.color;
 335:Drivers/lvgl/lvgl/src/core/lv_obj_style_gen.h **** }
 336:Drivers/lvgl/lvgl/src/core/lv_obj_style_gen.h **** 
 337:Drivers/lvgl/lvgl/src/core/lv_obj_style_gen.h **** static inline lv_opa_t lv_obj_get_style_shadow_opa(const struct _lv_obj_t * obj, uint32_t part)
 338:Drivers/lvgl/lvgl/src/core/lv_obj_style_gen.h **** {
 339:Drivers/lvgl/lvgl/src/core/lv_obj_style_gen.h ****     lv_style_value_t v = lv_obj_get_style_prop(obj, part, LV_STYLE_SHADOW_OPA);
 340:Drivers/lvgl/lvgl/src/core/lv_obj_style_gen.h ****     return (lv_opa_t)v.num;
 341:Drivers/lvgl/lvgl/src/core/lv_obj_style_gen.h **** }
 342:Drivers/lvgl/lvgl/src/core/lv_obj_style_gen.h **** 
 343:Drivers/lvgl/lvgl/src/core/lv_obj_style_gen.h **** static inline lv_opa_t lv_obj_get_style_img_opa(const struct _lv_obj_t * obj, uint32_t part)
 344:Drivers/lvgl/lvgl/src/core/lv_obj_style_gen.h **** {
 345:Drivers/lvgl/lvgl/src/core/lv_obj_style_gen.h ****     lv_style_value_t v = lv_obj_get_style_prop(obj, part, LV_STYLE_IMG_OPA);
 346:Drivers/lvgl/lvgl/src/core/lv_obj_style_gen.h ****     return (lv_opa_t)v.num;
 347:Drivers/lvgl/lvgl/src/core/lv_obj_style_gen.h **** }
 348:Drivers/lvgl/lvgl/src/core/lv_obj_style_gen.h **** 
 349:Drivers/lvgl/lvgl/src/core/lv_obj_style_gen.h **** static inline lv_color_t lv_obj_get_style_img_recolor(const struct _lv_obj_t * obj, uint32_t part)
 350:Drivers/lvgl/lvgl/src/core/lv_obj_style_gen.h **** {
 351:Drivers/lvgl/lvgl/src/core/lv_obj_style_gen.h ****     lv_style_value_t v = lv_obj_get_style_prop(obj, part, LV_STYLE_IMG_RECOLOR);
 352:Drivers/lvgl/lvgl/src/core/lv_obj_style_gen.h ****     return v.color;
 353:Drivers/lvgl/lvgl/src/core/lv_obj_style_gen.h **** }
 354:Drivers/lvgl/lvgl/src/core/lv_obj_style_gen.h **** 
 355:Drivers/lvgl/lvgl/src/core/lv_obj_style_gen.h **** static inline lv_color_t lv_obj_get_style_img_recolor_filtered(const struct _lv_obj_t * obj, uint32
 356:Drivers/lvgl/lvgl/src/core/lv_obj_style_gen.h **** {
 357:Drivers/lvgl/lvgl/src/core/lv_obj_style_gen.h ****     lv_style_value_t v = _lv_obj_style_apply_color_filter(obj, part, lv_obj_get_style_prop(obj, par
ARM GAS  /tmp/cc3JQQuJ.s 			page 45


 358:Drivers/lvgl/lvgl/src/core/lv_obj_style_gen.h ****     return v.color;
 359:Drivers/lvgl/lvgl/src/core/lv_obj_style_gen.h **** }
 360:Drivers/lvgl/lvgl/src/core/lv_obj_style_gen.h **** 
 361:Drivers/lvgl/lvgl/src/core/lv_obj_style_gen.h **** static inline lv_opa_t lv_obj_get_style_img_recolor_opa(const struct _lv_obj_t * obj, uint32_t part
 362:Drivers/lvgl/lvgl/src/core/lv_obj_style_gen.h **** {
 363:Drivers/lvgl/lvgl/src/core/lv_obj_style_gen.h ****     lv_style_value_t v = lv_obj_get_style_prop(obj, part, LV_STYLE_IMG_RECOLOR_OPA);
 364:Drivers/lvgl/lvgl/src/core/lv_obj_style_gen.h ****     return (lv_opa_t)v.num;
 365:Drivers/lvgl/lvgl/src/core/lv_obj_style_gen.h **** }
 366:Drivers/lvgl/lvgl/src/core/lv_obj_style_gen.h **** 
 367:Drivers/lvgl/lvgl/src/core/lv_obj_style_gen.h **** static inline lv_coord_t lv_obj_get_style_line_width(const struct _lv_obj_t * obj, uint32_t part)
 368:Drivers/lvgl/lvgl/src/core/lv_obj_style_gen.h **** {
 369:Drivers/lvgl/lvgl/src/core/lv_obj_style_gen.h ****     lv_style_value_t v = lv_obj_get_style_prop(obj, part, LV_STYLE_LINE_WIDTH);
 370:Drivers/lvgl/lvgl/src/core/lv_obj_style_gen.h ****     return (lv_coord_t)v.num;
 371:Drivers/lvgl/lvgl/src/core/lv_obj_style_gen.h **** }
 372:Drivers/lvgl/lvgl/src/core/lv_obj_style_gen.h **** 
 373:Drivers/lvgl/lvgl/src/core/lv_obj_style_gen.h **** static inline lv_coord_t lv_obj_get_style_line_dash_width(const struct _lv_obj_t * obj, uint32_t pa
 374:Drivers/lvgl/lvgl/src/core/lv_obj_style_gen.h **** {
 375:Drivers/lvgl/lvgl/src/core/lv_obj_style_gen.h ****     lv_style_value_t v = lv_obj_get_style_prop(obj, part, LV_STYLE_LINE_DASH_WIDTH);
 376:Drivers/lvgl/lvgl/src/core/lv_obj_style_gen.h ****     return (lv_coord_t)v.num;
 377:Drivers/lvgl/lvgl/src/core/lv_obj_style_gen.h **** }
 378:Drivers/lvgl/lvgl/src/core/lv_obj_style_gen.h **** 
 379:Drivers/lvgl/lvgl/src/core/lv_obj_style_gen.h **** static inline lv_coord_t lv_obj_get_style_line_dash_gap(const struct _lv_obj_t * obj, uint32_t part
 380:Drivers/lvgl/lvgl/src/core/lv_obj_style_gen.h **** {
 381:Drivers/lvgl/lvgl/src/core/lv_obj_style_gen.h ****     lv_style_value_t v = lv_obj_get_style_prop(obj, part, LV_STYLE_LINE_DASH_GAP);
 382:Drivers/lvgl/lvgl/src/core/lv_obj_style_gen.h ****     return (lv_coord_t)v.num;
 383:Drivers/lvgl/lvgl/src/core/lv_obj_style_gen.h **** }
 384:Drivers/lvgl/lvgl/src/core/lv_obj_style_gen.h **** 
 385:Drivers/lvgl/lvgl/src/core/lv_obj_style_gen.h **** static inline bool lv_obj_get_style_line_rounded(const struct _lv_obj_t * obj, uint32_t part)
 386:Drivers/lvgl/lvgl/src/core/lv_obj_style_gen.h **** {
 387:Drivers/lvgl/lvgl/src/core/lv_obj_style_gen.h ****     lv_style_value_t v = lv_obj_get_style_prop(obj, part, LV_STYLE_LINE_ROUNDED);
 388:Drivers/lvgl/lvgl/src/core/lv_obj_style_gen.h ****     return (bool)v.num;
 389:Drivers/lvgl/lvgl/src/core/lv_obj_style_gen.h **** }
 390:Drivers/lvgl/lvgl/src/core/lv_obj_style_gen.h **** 
 391:Drivers/lvgl/lvgl/src/core/lv_obj_style_gen.h **** static inline lv_color_t lv_obj_get_style_line_color(const struct _lv_obj_t * obj, uint32_t part)
 392:Drivers/lvgl/lvgl/src/core/lv_obj_style_gen.h **** {
 393:Drivers/lvgl/lvgl/src/core/lv_obj_style_gen.h ****     lv_style_value_t v = lv_obj_get_style_prop(obj, part, LV_STYLE_LINE_COLOR);
 394:Drivers/lvgl/lvgl/src/core/lv_obj_style_gen.h ****     return v.color;
 395:Drivers/lvgl/lvgl/src/core/lv_obj_style_gen.h **** }
 396:Drivers/lvgl/lvgl/src/core/lv_obj_style_gen.h **** 
 397:Drivers/lvgl/lvgl/src/core/lv_obj_style_gen.h **** static inline lv_color_t lv_obj_get_style_line_color_filtered(const struct _lv_obj_t * obj, uint32_
 398:Drivers/lvgl/lvgl/src/core/lv_obj_style_gen.h **** {
 399:Drivers/lvgl/lvgl/src/core/lv_obj_style_gen.h ****     lv_style_value_t v = _lv_obj_style_apply_color_filter(obj, part, lv_obj_get_style_prop(obj, par
 400:Drivers/lvgl/lvgl/src/core/lv_obj_style_gen.h ****     return v.color;
 401:Drivers/lvgl/lvgl/src/core/lv_obj_style_gen.h **** }
 402:Drivers/lvgl/lvgl/src/core/lv_obj_style_gen.h **** 
 403:Drivers/lvgl/lvgl/src/core/lv_obj_style_gen.h **** static inline lv_opa_t lv_obj_get_style_line_opa(const struct _lv_obj_t * obj, uint32_t part)
 404:Drivers/lvgl/lvgl/src/core/lv_obj_style_gen.h **** {
 405:Drivers/lvgl/lvgl/src/core/lv_obj_style_gen.h ****     lv_style_value_t v = lv_obj_get_style_prop(obj, part, LV_STYLE_LINE_OPA);
 406:Drivers/lvgl/lvgl/src/core/lv_obj_style_gen.h ****     return (lv_opa_t)v.num;
 407:Drivers/lvgl/lvgl/src/core/lv_obj_style_gen.h **** }
 408:Drivers/lvgl/lvgl/src/core/lv_obj_style_gen.h **** 
 409:Drivers/lvgl/lvgl/src/core/lv_obj_style_gen.h **** static inline lv_coord_t lv_obj_get_style_arc_width(const struct _lv_obj_t * obj, uint32_t part)
 410:Drivers/lvgl/lvgl/src/core/lv_obj_style_gen.h **** {
 411:Drivers/lvgl/lvgl/src/core/lv_obj_style_gen.h ****     lv_style_value_t v = lv_obj_get_style_prop(obj, part, LV_STYLE_ARC_WIDTH);
 412:Drivers/lvgl/lvgl/src/core/lv_obj_style_gen.h ****     return (lv_coord_t)v.num;
 413:Drivers/lvgl/lvgl/src/core/lv_obj_style_gen.h **** }
 414:Drivers/lvgl/lvgl/src/core/lv_obj_style_gen.h **** 
ARM GAS  /tmp/cc3JQQuJ.s 			page 46


 415:Drivers/lvgl/lvgl/src/core/lv_obj_style_gen.h **** static inline bool lv_obj_get_style_arc_rounded(const struct _lv_obj_t * obj, uint32_t part)
 416:Drivers/lvgl/lvgl/src/core/lv_obj_style_gen.h **** {
 417:Drivers/lvgl/lvgl/src/core/lv_obj_style_gen.h ****     lv_style_value_t v = lv_obj_get_style_prop(obj, part, LV_STYLE_ARC_ROUNDED);
 418:Drivers/lvgl/lvgl/src/core/lv_obj_style_gen.h ****     return (bool)v.num;
 419:Drivers/lvgl/lvgl/src/core/lv_obj_style_gen.h **** }
 420:Drivers/lvgl/lvgl/src/core/lv_obj_style_gen.h **** 
 421:Drivers/lvgl/lvgl/src/core/lv_obj_style_gen.h **** static inline lv_color_t lv_obj_get_style_arc_color(const struct _lv_obj_t * obj, uint32_t part)
 422:Drivers/lvgl/lvgl/src/core/lv_obj_style_gen.h **** {
 423:Drivers/lvgl/lvgl/src/core/lv_obj_style_gen.h ****     lv_style_value_t v = lv_obj_get_style_prop(obj, part, LV_STYLE_ARC_COLOR);
 424:Drivers/lvgl/lvgl/src/core/lv_obj_style_gen.h ****     return v.color;
 425:Drivers/lvgl/lvgl/src/core/lv_obj_style_gen.h **** }
 426:Drivers/lvgl/lvgl/src/core/lv_obj_style_gen.h **** 
 427:Drivers/lvgl/lvgl/src/core/lv_obj_style_gen.h **** static inline lv_color_t lv_obj_get_style_arc_color_filtered(const struct _lv_obj_t * obj, uint32_t
 428:Drivers/lvgl/lvgl/src/core/lv_obj_style_gen.h **** {
 429:Drivers/lvgl/lvgl/src/core/lv_obj_style_gen.h ****     lv_style_value_t v = _lv_obj_style_apply_color_filter(obj, part, lv_obj_get_style_prop(obj, par
 430:Drivers/lvgl/lvgl/src/core/lv_obj_style_gen.h ****     return v.color;
 431:Drivers/lvgl/lvgl/src/core/lv_obj_style_gen.h **** }
 432:Drivers/lvgl/lvgl/src/core/lv_obj_style_gen.h **** 
 433:Drivers/lvgl/lvgl/src/core/lv_obj_style_gen.h **** static inline lv_opa_t lv_obj_get_style_arc_opa(const struct _lv_obj_t * obj, uint32_t part)
 434:Drivers/lvgl/lvgl/src/core/lv_obj_style_gen.h **** {
 435:Drivers/lvgl/lvgl/src/core/lv_obj_style_gen.h ****     lv_style_value_t v = lv_obj_get_style_prop(obj, part, LV_STYLE_ARC_OPA);
 436:Drivers/lvgl/lvgl/src/core/lv_obj_style_gen.h ****     return (lv_opa_t)v.num;
 437:Drivers/lvgl/lvgl/src/core/lv_obj_style_gen.h **** }
 438:Drivers/lvgl/lvgl/src/core/lv_obj_style_gen.h **** 
 439:Drivers/lvgl/lvgl/src/core/lv_obj_style_gen.h **** static inline const void * lv_obj_get_style_arc_img_src(const struct _lv_obj_t * obj, uint32_t part
 440:Drivers/lvgl/lvgl/src/core/lv_obj_style_gen.h **** {
 441:Drivers/lvgl/lvgl/src/core/lv_obj_style_gen.h ****     lv_style_value_t v = lv_obj_get_style_prop(obj, part, LV_STYLE_ARC_IMG_SRC);
 442:Drivers/lvgl/lvgl/src/core/lv_obj_style_gen.h ****     return (const void *)v.ptr;
 443:Drivers/lvgl/lvgl/src/core/lv_obj_style_gen.h **** }
 444:Drivers/lvgl/lvgl/src/core/lv_obj_style_gen.h **** 
 445:Drivers/lvgl/lvgl/src/core/lv_obj_style_gen.h **** static inline lv_color_t lv_obj_get_style_text_color(const struct _lv_obj_t * obj, uint32_t part)
 446:Drivers/lvgl/lvgl/src/core/lv_obj_style_gen.h **** {
 447:Drivers/lvgl/lvgl/src/core/lv_obj_style_gen.h ****     lv_style_value_t v = lv_obj_get_style_prop(obj, part, LV_STYLE_TEXT_COLOR);
 448:Drivers/lvgl/lvgl/src/core/lv_obj_style_gen.h ****     return v.color;
 449:Drivers/lvgl/lvgl/src/core/lv_obj_style_gen.h **** }
 450:Drivers/lvgl/lvgl/src/core/lv_obj_style_gen.h **** 
 451:Drivers/lvgl/lvgl/src/core/lv_obj_style_gen.h **** static inline lv_color_t lv_obj_get_style_text_color_filtered(const struct _lv_obj_t * obj, uint32_
 452:Drivers/lvgl/lvgl/src/core/lv_obj_style_gen.h **** {
 453:Drivers/lvgl/lvgl/src/core/lv_obj_style_gen.h ****     lv_style_value_t v = _lv_obj_style_apply_color_filter(obj, part, lv_obj_get_style_prop(obj, par
 454:Drivers/lvgl/lvgl/src/core/lv_obj_style_gen.h ****     return v.color;
 455:Drivers/lvgl/lvgl/src/core/lv_obj_style_gen.h **** }
 456:Drivers/lvgl/lvgl/src/core/lv_obj_style_gen.h **** 
 457:Drivers/lvgl/lvgl/src/core/lv_obj_style_gen.h **** static inline lv_opa_t lv_obj_get_style_text_opa(const struct _lv_obj_t * obj, uint32_t part)
 458:Drivers/lvgl/lvgl/src/core/lv_obj_style_gen.h **** {
 459:Drivers/lvgl/lvgl/src/core/lv_obj_style_gen.h ****     lv_style_value_t v = lv_obj_get_style_prop(obj, part, LV_STYLE_TEXT_OPA);
 460:Drivers/lvgl/lvgl/src/core/lv_obj_style_gen.h ****     return (lv_opa_t)v.num;
 461:Drivers/lvgl/lvgl/src/core/lv_obj_style_gen.h **** }
 462:Drivers/lvgl/lvgl/src/core/lv_obj_style_gen.h **** 
 463:Drivers/lvgl/lvgl/src/core/lv_obj_style_gen.h **** static inline const lv_font_t * lv_obj_get_style_text_font(const struct _lv_obj_t * obj, uint32_t p
 464:Drivers/lvgl/lvgl/src/core/lv_obj_style_gen.h **** {
 465:Drivers/lvgl/lvgl/src/core/lv_obj_style_gen.h ****     lv_style_value_t v = lv_obj_get_style_prop(obj, part, LV_STYLE_TEXT_FONT);
 466:Drivers/lvgl/lvgl/src/core/lv_obj_style_gen.h ****     return (const lv_font_t *)v.ptr;
 467:Drivers/lvgl/lvgl/src/core/lv_obj_style_gen.h **** }
 468:Drivers/lvgl/lvgl/src/core/lv_obj_style_gen.h **** 
 469:Drivers/lvgl/lvgl/src/core/lv_obj_style_gen.h **** static inline lv_coord_t lv_obj_get_style_text_letter_space(const struct _lv_obj_t * obj, uint32_t 
 470:Drivers/lvgl/lvgl/src/core/lv_obj_style_gen.h **** {
 471:Drivers/lvgl/lvgl/src/core/lv_obj_style_gen.h ****     lv_style_value_t v = lv_obj_get_style_prop(obj, part, LV_STYLE_TEXT_LETTER_SPACE);
ARM GAS  /tmp/cc3JQQuJ.s 			page 47


 472:Drivers/lvgl/lvgl/src/core/lv_obj_style_gen.h ****     return (lv_coord_t)v.num;
 473:Drivers/lvgl/lvgl/src/core/lv_obj_style_gen.h **** }
 474:Drivers/lvgl/lvgl/src/core/lv_obj_style_gen.h **** 
 475:Drivers/lvgl/lvgl/src/core/lv_obj_style_gen.h **** static inline lv_coord_t lv_obj_get_style_text_line_space(const struct _lv_obj_t * obj, uint32_t pa
 476:Drivers/lvgl/lvgl/src/core/lv_obj_style_gen.h **** {
 477:Drivers/lvgl/lvgl/src/core/lv_obj_style_gen.h ****     lv_style_value_t v = lv_obj_get_style_prop(obj, part, LV_STYLE_TEXT_LINE_SPACE);
 478:Drivers/lvgl/lvgl/src/core/lv_obj_style_gen.h ****     return (lv_coord_t)v.num;
 479:Drivers/lvgl/lvgl/src/core/lv_obj_style_gen.h **** }
 480:Drivers/lvgl/lvgl/src/core/lv_obj_style_gen.h **** 
 481:Drivers/lvgl/lvgl/src/core/lv_obj_style_gen.h **** static inline lv_text_decor_t lv_obj_get_style_text_decor(const struct _lv_obj_t * obj, uint32_t pa
 482:Drivers/lvgl/lvgl/src/core/lv_obj_style_gen.h **** {
 483:Drivers/lvgl/lvgl/src/core/lv_obj_style_gen.h ****     lv_style_value_t v = lv_obj_get_style_prop(obj, part, LV_STYLE_TEXT_DECOR);
 484:Drivers/lvgl/lvgl/src/core/lv_obj_style_gen.h ****     return (lv_text_decor_t)v.num;
 485:Drivers/lvgl/lvgl/src/core/lv_obj_style_gen.h **** }
 486:Drivers/lvgl/lvgl/src/core/lv_obj_style_gen.h **** 
 487:Drivers/lvgl/lvgl/src/core/lv_obj_style_gen.h **** static inline lv_text_align_t lv_obj_get_style_text_align(const struct _lv_obj_t * obj, uint32_t pa
 488:Drivers/lvgl/lvgl/src/core/lv_obj_style_gen.h **** {
 489:Drivers/lvgl/lvgl/src/core/lv_obj_style_gen.h ****     lv_style_value_t v = lv_obj_get_style_prop(obj, part, LV_STYLE_TEXT_ALIGN);
 490:Drivers/lvgl/lvgl/src/core/lv_obj_style_gen.h ****     return (lv_text_align_t)v.num;
 491:Drivers/lvgl/lvgl/src/core/lv_obj_style_gen.h **** }
 492:Drivers/lvgl/lvgl/src/core/lv_obj_style_gen.h **** 
 493:Drivers/lvgl/lvgl/src/core/lv_obj_style_gen.h **** static inline lv_coord_t lv_obj_get_style_radius(const struct _lv_obj_t * obj, uint32_t part)
 494:Drivers/lvgl/lvgl/src/core/lv_obj_style_gen.h **** {
 495:Drivers/lvgl/lvgl/src/core/lv_obj_style_gen.h ****     lv_style_value_t v = lv_obj_get_style_prop(obj, part, LV_STYLE_RADIUS);
 496:Drivers/lvgl/lvgl/src/core/lv_obj_style_gen.h ****     return (lv_coord_t)v.num;
 497:Drivers/lvgl/lvgl/src/core/lv_obj_style_gen.h **** }
 498:Drivers/lvgl/lvgl/src/core/lv_obj_style_gen.h **** 
 499:Drivers/lvgl/lvgl/src/core/lv_obj_style_gen.h **** static inline bool lv_obj_get_style_clip_corner(const struct _lv_obj_t * obj, uint32_t part)
 500:Drivers/lvgl/lvgl/src/core/lv_obj_style_gen.h **** {
 501:Drivers/lvgl/lvgl/src/core/lv_obj_style_gen.h ****     lv_style_value_t v = lv_obj_get_style_prop(obj, part, LV_STYLE_CLIP_CORNER);
 502:Drivers/lvgl/lvgl/src/core/lv_obj_style_gen.h ****     return (bool)v.num;
 503:Drivers/lvgl/lvgl/src/core/lv_obj_style_gen.h **** }
 504:Drivers/lvgl/lvgl/src/core/lv_obj_style_gen.h **** 
 505:Drivers/lvgl/lvgl/src/core/lv_obj_style_gen.h **** static inline lv_opa_t lv_obj_get_style_opa(const struct _lv_obj_t * obj, uint32_t part)
 506:Drivers/lvgl/lvgl/src/core/lv_obj_style_gen.h **** {
 507:Drivers/lvgl/lvgl/src/core/lv_obj_style_gen.h ****     lv_style_value_t v = lv_obj_get_style_prop(obj, part, LV_STYLE_OPA);
 508:Drivers/lvgl/lvgl/src/core/lv_obj_style_gen.h ****     return (lv_opa_t)v.num;
 509:Drivers/lvgl/lvgl/src/core/lv_obj_style_gen.h **** }
 510:Drivers/lvgl/lvgl/src/core/lv_obj_style_gen.h **** 
 511:Drivers/lvgl/lvgl/src/core/lv_obj_style_gen.h **** static inline const lv_color_filter_dsc_t * lv_obj_get_style_color_filter_dsc(const struct _lv_obj_
 512:Drivers/lvgl/lvgl/src/core/lv_obj_style_gen.h **** {
 513:Drivers/lvgl/lvgl/src/core/lv_obj_style_gen.h ****     lv_style_value_t v = lv_obj_get_style_prop(obj, part, LV_STYLE_COLOR_FILTER_DSC);
 514:Drivers/lvgl/lvgl/src/core/lv_obj_style_gen.h ****     return (const lv_color_filter_dsc_t *)v.ptr;
 515:Drivers/lvgl/lvgl/src/core/lv_obj_style_gen.h **** }
 516:Drivers/lvgl/lvgl/src/core/lv_obj_style_gen.h **** 
 517:Drivers/lvgl/lvgl/src/core/lv_obj_style_gen.h **** static inline lv_opa_t lv_obj_get_style_color_filter_opa(const struct _lv_obj_t * obj, uint32_t par
 518:Drivers/lvgl/lvgl/src/core/lv_obj_style_gen.h **** {
 519:Drivers/lvgl/lvgl/src/core/lv_obj_style_gen.h ****     lv_style_value_t v = lv_obj_get_style_prop(obj, part, LV_STYLE_COLOR_FILTER_OPA);
 520:Drivers/lvgl/lvgl/src/core/lv_obj_style_gen.h ****     return (lv_opa_t)v.num;
 521:Drivers/lvgl/lvgl/src/core/lv_obj_style_gen.h **** }
 522:Drivers/lvgl/lvgl/src/core/lv_obj_style_gen.h **** 
 523:Drivers/lvgl/lvgl/src/core/lv_obj_style_gen.h **** static inline const lv_anim_t * lv_obj_get_style_anim(const struct _lv_obj_t * obj, uint32_t part)
 524:Drivers/lvgl/lvgl/src/core/lv_obj_style_gen.h **** {
 525:Drivers/lvgl/lvgl/src/core/lv_obj_style_gen.h ****     lv_style_value_t v = lv_obj_get_style_prop(obj, part, LV_STYLE_ANIM);
 526:Drivers/lvgl/lvgl/src/core/lv_obj_style_gen.h ****     return (const lv_anim_t *)v.ptr;
 527:Drivers/lvgl/lvgl/src/core/lv_obj_style_gen.h **** }
 528:Drivers/lvgl/lvgl/src/core/lv_obj_style_gen.h **** 
ARM GAS  /tmp/cc3JQQuJ.s 			page 48


 529:Drivers/lvgl/lvgl/src/core/lv_obj_style_gen.h **** static inline uint32_t lv_obj_get_style_anim_time(const struct _lv_obj_t * obj, uint32_t part)
 530:Drivers/lvgl/lvgl/src/core/lv_obj_style_gen.h **** {
 531:Drivers/lvgl/lvgl/src/core/lv_obj_style_gen.h ****     lv_style_value_t v = lv_obj_get_style_prop(obj, part, LV_STYLE_ANIM_TIME);
 532:Drivers/lvgl/lvgl/src/core/lv_obj_style_gen.h ****     return (uint32_t)v.num;
 533:Drivers/lvgl/lvgl/src/core/lv_obj_style_gen.h **** }
 534:Drivers/lvgl/lvgl/src/core/lv_obj_style_gen.h **** 
 535:Drivers/lvgl/lvgl/src/core/lv_obj_style_gen.h **** static inline uint32_t lv_obj_get_style_anim_speed(const struct _lv_obj_t * obj, uint32_t part)
 536:Drivers/lvgl/lvgl/src/core/lv_obj_style_gen.h **** {
 537:Drivers/lvgl/lvgl/src/core/lv_obj_style_gen.h ****     lv_style_value_t v = lv_obj_get_style_prop(obj, part, LV_STYLE_ANIM_SPEED);
 538:Drivers/lvgl/lvgl/src/core/lv_obj_style_gen.h ****     return (uint32_t)v.num;
 539:Drivers/lvgl/lvgl/src/core/lv_obj_style_gen.h **** }
 540:Drivers/lvgl/lvgl/src/core/lv_obj_style_gen.h **** 
 541:Drivers/lvgl/lvgl/src/core/lv_obj_style_gen.h **** static inline const lv_style_transition_dsc_t * lv_obj_get_style_transition(const struct _lv_obj_t 
 542:Drivers/lvgl/lvgl/src/core/lv_obj_style_gen.h **** {
 543:Drivers/lvgl/lvgl/src/core/lv_obj_style_gen.h ****     lv_style_value_t v = lv_obj_get_style_prop(obj, part, LV_STYLE_TRANSITION);
 544:Drivers/lvgl/lvgl/src/core/lv_obj_style_gen.h ****     return (const lv_style_transition_dsc_t *)v.ptr;
 545:Drivers/lvgl/lvgl/src/core/lv_obj_style_gen.h **** }
 546:Drivers/lvgl/lvgl/src/core/lv_obj_style_gen.h **** 
 547:Drivers/lvgl/lvgl/src/core/lv_obj_style_gen.h **** static inline lv_blend_mode_t lv_obj_get_style_blend_mode(const struct _lv_obj_t * obj, uint32_t pa
 548:Drivers/lvgl/lvgl/src/core/lv_obj_style_gen.h **** {
 549:Drivers/lvgl/lvgl/src/core/lv_obj_style_gen.h ****     lv_style_value_t v = lv_obj_get_style_prop(obj, part, LV_STYLE_BLEND_MODE);
 550:Drivers/lvgl/lvgl/src/core/lv_obj_style_gen.h ****     return (lv_blend_mode_t)v.num;
 551:Drivers/lvgl/lvgl/src/core/lv_obj_style_gen.h **** }
 552:Drivers/lvgl/lvgl/src/core/lv_obj_style_gen.h **** 
 553:Drivers/lvgl/lvgl/src/core/lv_obj_style_gen.h **** static inline uint16_t lv_obj_get_style_layout(const struct _lv_obj_t * obj, uint32_t part)
 554:Drivers/lvgl/lvgl/src/core/lv_obj_style_gen.h **** {
 555:Drivers/lvgl/lvgl/src/core/lv_obj_style_gen.h ****     lv_style_value_t v = lv_obj_get_style_prop(obj, part, LV_STYLE_LAYOUT);
 783              		.loc 2 555 0
 784 001e 0A22     		movs	r2, #10
 785 0020 0021     		movs	r1, #0
 786 0022 FFF7FEFF 		bl	lv_obj_get_style_prop
 787              	.LVL76:
 788              	.LBE228:
 789              	.LBE227:
 284:Drivers/lvgl/lvgl/src/core/lv_obj_pos.c ****     else return false;
 790              		.loc 1 284 0
 791 0026 80B2     		uxth	r0, r0
 792              	.LVL77:
 793 0028 0028     		cmp	r0, #0
 794 002a F0D0     		beq	.L50
 795 002c 0124     		movs	r4, #1
 796 002e EEE7     		b	.L50
 797              	.L55:
 798              		.align	2
 799              	.L54:
 800 0030 01000600 		.word	393217
 801              		.cfi_endproc
 802              	.LFE175:
 804              		.section	.text.lv_obj_mark_layout_as_dirty,"ax",%progbits
 805              		.align	1
 806              		.global	lv_obj_mark_layout_as_dirty
 807              		.syntax unified
 808              		.thumb
 809              		.thumb_func
 810              		.fpu fpv5-d16
 812              	lv_obj_mark_layout_as_dirty:
 813              	.LFB176:
ARM GAS  /tmp/cc3JQQuJ.s 			page 49


 289:Drivers/lvgl/lvgl/src/core/lv_obj_pos.c ****     obj->layout_inv = 1;
 814              		.loc 1 289 0
 815              		.cfi_startproc
 816              		@ args = 0, pretend = 0, frame = 0
 817              		@ frame_needed = 0, uses_anonymous_args = 0
 818              	.LVL78:
 819 0000 08B5     		push	{r3, lr}
 820              	.LCFI25:
 821              		.cfi_def_cfa_offset 8
 822              		.cfi_offset 3, -8
 823              		.cfi_offset 14, -4
 290:Drivers/lvgl/lvgl/src/core/lv_obj_pos.c **** 
 824              		.loc 1 290 0
 825 0002 90F82230 		ldrb	r3, [r0, #34]	@ zero_extendqisi2
 826 0006 43F00103 		orr	r3, r3, #1
 827 000a 80F82230 		strb	r3, [r0, #34]
 293:Drivers/lvgl/lvgl/src/core/lv_obj_pos.c ****     scr->scr_layout_inv = 1;
 828              		.loc 1 293 0
 829 000e FFF7FEFF 		bl	lv_obj_get_screen
 830              	.LVL79:
 294:Drivers/lvgl/lvgl/src/core/lv_obj_pos.c **** 
 831              		.loc 1 294 0
 832 0012 90F82230 		ldrb	r3, [r0, #34]	@ zero_extendqisi2
 833 0016 43F00203 		orr	r3, r3, #2
 834 001a 80F82230 		strb	r3, [r0, #34]
 297:Drivers/lvgl/lvgl/src/core/lv_obj_pos.c ****     if(disp->refr_timer) lv_timer_resume(disp->refr_timer);
 835              		.loc 1 297 0
 836 001e FFF7FEFF 		bl	lv_obj_get_disp
 837              	.LVL80:
 298:Drivers/lvgl/lvgl/src/core/lv_obj_pos.c **** }
 838              		.loc 1 298 0
 839 0022 4068     		ldr	r0, [r0, #4]
 840              	.LVL81:
 841 0024 08B1     		cbz	r0, .L56
 298:Drivers/lvgl/lvgl/src/core/lv_obj_pos.c **** }
 842              		.loc 1 298 0 is_stmt 0 discriminator 1
 843 0026 FFF7FEFF 		bl	lv_timer_resume
 844              	.LVL82:
 845              	.L56:
 299:Drivers/lvgl/lvgl/src/core/lv_obj_pos.c **** 
 846              		.loc 1 299 0 is_stmt 1
 847 002a 08BD     		pop	{r3, pc}
 848              		.cfi_endproc
 849              	.LFE176:
 851              		.section	.text.lv_obj_set_layout,"ax",%progbits
 852              		.align	1
 853              		.global	lv_obj_set_layout
 854              		.syntax unified
 855              		.thumb
 856              		.thumb_func
 857              		.fpu fpv5-d16
 859              	lv_obj_set_layout:
 860              	.LFB174:
 268:Drivers/lvgl/lvgl/src/core/lv_obj_pos.c ****     LV_ASSERT_OBJ(obj, MY_CLASS);
 861              		.loc 1 268 0
 862              		.cfi_startproc
 863              		@ args = 0, pretend = 0, frame = 0
ARM GAS  /tmp/cc3JQQuJ.s 			page 50


 864              		@ frame_needed = 0, uses_anonymous_args = 0
 865              	.LVL83:
 866 0000 10B5     		push	{r4, lr}
 867              	.LCFI26:
 868              		.cfi_def_cfa_offset 8
 869              		.cfi_offset 4, -8
 870              		.cfi_offset 14, -4
 871 0002 0446     		mov	r4, r0
 271:Drivers/lvgl/lvgl/src/core/lv_obj_pos.c **** 
 872              		.loc 1 271 0
 873 0004 0022     		movs	r2, #0
 874 0006 89B2     		uxth	r1, r1
 875              	.LVL84:
 876 0008 FFF7FEFF 		bl	lv_obj_set_style_layout
 877              	.LVL85:
 273:Drivers/lvgl/lvgl/src/core/lv_obj_pos.c **** }
 878              		.loc 1 273 0
 879 000c 2046     		mov	r0, r4
 880 000e FFF7FEFF 		bl	lv_obj_mark_layout_as_dirty
 881              	.LVL86:
 274:Drivers/lvgl/lvgl/src/core/lv_obj_pos.c **** 
 882              		.loc 1 274 0
 883 0012 10BD     		pop	{r4, pc}
 884              		.cfi_endproc
 885              	.LFE174:
 887              		.section	.text.lv_layout_register,"ax",%progbits
 888              		.align	1
 889              		.global	lv_layout_register
 890              		.syntax unified
 891              		.thumb
 892              		.thumb_func
 893              		.fpu fpv5-d16
 895              	lv_layout_register:
 896              	.LFB178:
 324:Drivers/lvgl/lvgl/src/core/lv_obj_pos.c ****     layout_cnt++;
 897              		.loc 1 324 0
 898              		.cfi_startproc
 899              		@ args = 0, pretend = 0, frame = 0
 900              		@ frame_needed = 0, uses_anonymous_args = 0
 901              	.LVL87:
 902 0000 70B5     		push	{r4, r5, r6, lr}
 903              	.LCFI27:
 904              		.cfi_def_cfa_offset 16
 905              		.cfi_offset 4, -16
 906              		.cfi_offset 5, -12
 907              		.cfi_offset 6, -8
 908              		.cfi_offset 14, -4
 909 0002 0646     		mov	r6, r0
 910 0004 0C46     		mov	r4, r1
 325:Drivers/lvgl/lvgl/src/core/lv_obj_pos.c ****     LV_GC_ROOT(_lv_layout_list) = lv_mem_realloc(LV_GC_ROOT(_lv_layout_list), layout_cnt * sizeof(l
 911              		.loc 1 325 0
 912 0006 0D4B     		ldr	r3, .L65
 913 0008 1968     		ldr	r1, [r3]
 914              	.LVL88:
 915 000a 0131     		adds	r1, r1, #1
 916 000c 1960     		str	r1, [r3]
 326:Drivers/lvgl/lvgl/src/core/lv_obj_pos.c ****     LV_ASSERT_MALLOC(LV_GC_ROOT(_lv_layout_list));
ARM GAS  /tmp/cc3JQQuJ.s 			page 51


 917              		.loc 1 326 0
 918 000e 0C4D     		ldr	r5, .L65+4
 919 0010 C900     		lsls	r1, r1, #3
 920 0012 2868     		ldr	r0, [r5]
 921              	.LVL89:
 922 0014 FFF7FEFF 		bl	lv_mem_realloc
 923              	.LVL90:
 924 0018 2860     		str	r0, [r5]
 327:Drivers/lvgl/lvgl/src/core/lv_obj_pos.c **** 
 925              		.loc 1 327 0
 926 001a 68B1     		cbz	r0, .L63
 927 001c 0246     		mov	r2, r0
 329:Drivers/lvgl/lvgl/src/core/lv_obj_pos.c ****     LV_GC_ROOT(_lv_layout_list)[layout_cnt - 1].user_data = user_data;
 928              		.loc 1 329 0
 929 001e 074B     		ldr	r3, .L65
 930 0020 1868     		ldr	r0, [r3]
 931 0022 6FF06043 		mvn	r3, #-536870912
 932 0026 0344     		add	r3, r3, r0
 933 0028 42F83360 		str	r6, [r2, r3, lsl #3]
 330:Drivers/lvgl/lvgl/src/core/lv_obj_pos.c ****     return layout_cnt;  /*No -1 to skip 0th index*/
 934              		.loc 1 330 0
 935 002c 044A     		ldr	r2, .L65+4
 936 002e 1268     		ldr	r2, [r2]
 937 0030 02EBC303 		add	r3, r2, r3, lsl #3
 938 0034 5C60     		str	r4, [r3, #4]
 332:Drivers/lvgl/lvgl/src/core/lv_obj_pos.c **** 
 939              		.loc 1 332 0
 940 0036 70BD     		pop	{r4, r5, r6, pc}
 941              	.LVL91:
 942              	.L63:
 943 0038 FEE7     		b	.L63
 944              	.L66:
 945 003a 00BF     		.align	2
 946              	.L65:
 947 003c 00000000 		.word	.LANCHOR0
 948 0040 00000000 		.word	_lv_layout_list
 949              		.cfi_endproc
 950              	.LFE178:
 952              		.section	.text.lv_obj_set_align,"ax",%progbits
 953              		.align	1
 954              		.global	lv_obj_set_align
 955              		.syntax unified
 956              		.thumb
 957              		.thumb_func
 958              		.fpu fpv5-d16
 960              	lv_obj_set_align:
 961              	.LFB179:
 335:Drivers/lvgl/lvgl/src/core/lv_obj_pos.c ****     lv_obj_set_style_align(obj, align, 0);
 962              		.loc 1 335 0
 963              		.cfi_startproc
 964              		@ args = 0, pretend = 0, frame = 0
 965              		@ frame_needed = 0, uses_anonymous_args = 0
 966              	.LVL92:
 967 0000 08B5     		push	{r3, lr}
 968              	.LCFI28:
 969              		.cfi_def_cfa_offset 8
 970              		.cfi_offset 3, -8
ARM GAS  /tmp/cc3JQQuJ.s 			page 52


 971              		.cfi_offset 14, -4
 336:Drivers/lvgl/lvgl/src/core/lv_obj_pos.c **** }
 972              		.loc 1 336 0
 973 0002 0022     		movs	r2, #0
 974 0004 FFF7FEFF 		bl	lv_obj_set_style_align
 975              	.LVL93:
 337:Drivers/lvgl/lvgl/src/core/lv_obj_pos.c **** 
 976              		.loc 1 337 0
 977 0008 08BD     		pop	{r3, pc}
 978              		.cfi_endproc
 979              	.LFE179:
 981              		.section	.text.lv_obj_align,"ax",%progbits
 982              		.align	1
 983              		.global	lv_obj_align
 984              		.syntax unified
 985              		.thumb
 986              		.thumb_func
 987              		.fpu fpv5-d16
 989              	lv_obj_align:
 990              	.LFB180:
 340:Drivers/lvgl/lvgl/src/core/lv_obj_pos.c ****     lv_obj_set_style_align(obj, align, 0);
 991              		.loc 1 340 0
 992              		.cfi_startproc
 993              		@ args = 0, pretend = 0, frame = 0
 994              		@ frame_needed = 0, uses_anonymous_args = 0
 995              	.LVL94:
 996 0000 70B5     		push	{r4, r5, r6, lr}
 997              	.LCFI29:
 998              		.cfi_def_cfa_offset 16
 999              		.cfi_offset 4, -16
 1000              		.cfi_offset 5, -12
 1001              		.cfi_offset 6, -8
 1002              		.cfi_offset 14, -4
 1003 0002 0446     		mov	r4, r0
 1004 0004 1546     		mov	r5, r2
 1005 0006 1E46     		mov	r6, r3
 341:Drivers/lvgl/lvgl/src/core/lv_obj_pos.c ****     lv_obj_set_pos(obj, x_ofs, y_ofs);
 1006              		.loc 1 341 0
 1007 0008 0022     		movs	r2, #0
 1008              	.LVL95:
 1009 000a FFF7FEFF 		bl	lv_obj_set_style_align
 1010              	.LVL96:
 342:Drivers/lvgl/lvgl/src/core/lv_obj_pos.c **** }
 1011              		.loc 1 342 0
 1012 000e 3246     		mov	r2, r6
 1013 0010 2946     		mov	r1, r5
 1014 0012 2046     		mov	r0, r4
 1015 0014 FFF7FEFF 		bl	lv_obj_set_pos
 1016              	.LVL97:
 343:Drivers/lvgl/lvgl/src/core/lv_obj_pos.c **** 
 1017              		.loc 1 343 0
 1018 0018 70BD     		pop	{r4, r5, r6, pc}
 1019              		.cfi_endproc
 1020              	.LFE180:
 1022              		.section	.text.lv_obj_get_coords,"ax",%progbits
 1023              		.align	1
 1024              		.global	lv_obj_get_coords
ARM GAS  /tmp/cc3JQQuJ.s 			page 53


 1025              		.syntax unified
 1026              		.thumb
 1027              		.thumb_func
 1028              		.fpu fpv5-d16
 1030              	lv_obj_get_coords:
 1031              	.LFB182:
 488:Drivers/lvgl/lvgl/src/core/lv_obj_pos.c ****     LV_ASSERT_OBJ(obj, MY_CLASS);
 1032              		.loc 1 488 0
 1033              		.cfi_startproc
 1034              		@ args = 0, pretend = 0, frame = 0
 1035              		@ frame_needed = 0, uses_anonymous_args = 0
 1036              		@ link register save eliminated.
 1037              	.LVL98:
 1038              	.LBB229:
 1039              	.LBB230:
 112:Drivers/lvgl/lvgl/src/core/../misc/../font/../misc/lv_area.h ****     dest->y1 = src->y1;
 1040              		.loc 3 112 0
 1041 0000 B0F91430 		ldrsh	r3, [r0, #20]
 1042 0004 0B80     		strh	r3, [r1]	@ movhi
 113:Drivers/lvgl/lvgl/src/core/../misc/../font/../misc/lv_area.h ****     dest->x2 = src->x2;
 1043              		.loc 3 113 0
 1044 0006 B0F91630 		ldrsh	r3, [r0, #22]
 1045 000a 4B80     		strh	r3, [r1, #2]	@ movhi
 114:Drivers/lvgl/lvgl/src/core/../misc/../font/../misc/lv_area.h ****     dest->y2 = src->y2;
 1046              		.loc 3 114 0
 1047 000c B0F91830 		ldrsh	r3, [r0, #24]
 1048 0010 8B80     		strh	r3, [r1, #4]	@ movhi
 115:Drivers/lvgl/lvgl/src/core/../misc/../font/../misc/lv_area.h **** }
 1049              		.loc 3 115 0
 1050 0012 B0F91A30 		ldrsh	r3, [r0, #26]
 1051 0016 CB80     		strh	r3, [r1, #6]	@ movhi
 1052              	.LVL99:
 1053              	.LBE230:
 1054              	.LBE229:
 492:Drivers/lvgl/lvgl/src/core/lv_obj_pos.c **** 
 1055              		.loc 1 492 0
 1056 0018 7047     		bx	lr
 1057              		.cfi_endproc
 1058              	.LFE182:
 1060              		.section	.text.lv_obj_get_x,"ax",%progbits
 1061              		.align	1
 1062              		.global	lv_obj_get_x
 1063              		.syntax unified
 1064              		.thumb
 1065              		.thumb_func
 1066              		.fpu fpv5-d16
 1068              	lv_obj_get_x:
 1069              	.LFB183:
 495:Drivers/lvgl/lvgl/src/core/lv_obj_pos.c ****     LV_ASSERT_OBJ(obj, MY_CLASS);
 1070              		.loc 1 495 0
 1071              		.cfi_startproc
 1072              		@ args = 0, pretend = 0, frame = 0
 1073              		@ frame_needed = 0, uses_anonymous_args = 0
 1074              	.LVL100:
 1075 0000 38B5     		push	{r3, r4, r5, lr}
 1076              	.LCFI30:
 1077              		.cfi_def_cfa_offset 16
ARM GAS  /tmp/cc3JQQuJ.s 			page 54


 1078              		.cfi_offset 3, -16
 1079              		.cfi_offset 4, -12
 1080              		.cfi_offset 5, -8
 1081              		.cfi_offset 14, -4
 1082 0002 0446     		mov	r4, r0
 499:Drivers/lvgl/lvgl/src/core/lv_obj_pos.c ****     if(parent) {
 1083              		.loc 1 499 0
 1084 0004 FFF7FEFF 		bl	lv_obj_get_parent
 1085              	.LVL101:
 500:Drivers/lvgl/lvgl/src/core/lv_obj_pos.c ****         rel_x  = obj->coords.x1 - parent->coords.x1;
 1086              		.loc 1 500 0
 1087 0008 10B9     		cbnz	r0, .L76
 507:Drivers/lvgl/lvgl/src/core/lv_obj_pos.c ****     }
 1088              		.loc 1 507 0
 1089 000a B4F91400 		ldrsh	r0, [r4, #20]
 1090              	.LVL102:
 1091              	.L74:
 510:Drivers/lvgl/lvgl/src/core/lv_obj_pos.c **** 
 1092              		.loc 1 510 0
 1093 000e 38BD     		pop	{r3, r4, r5, pc}
 1094              	.LVL103:
 1095              	.L76:
 1096 0010 0546     		mov	r5, r0
 501:Drivers/lvgl/lvgl/src/core/lv_obj_pos.c ****         rel_x += lv_obj_get_scroll_x(parent);
 1097              		.loc 1 501 0
 1098 0012 A48A     		ldrh	r4, [r4, #20]
 1099              	.LVL104:
 1100 0014 808A     		ldrh	r0, [r0, #20]
 1101              	.LVL105:
 1102 0016 241A     		subs	r4, r4, r0
 1103 0018 A4B2     		uxth	r4, r4
 1104              	.LVL106:
 502:Drivers/lvgl/lvgl/src/core/lv_obj_pos.c ****         rel_x -= lv_obj_get_style_pad_left(parent, LV_PART_MAIN);
 1105              		.loc 1 502 0
 1106 001a 2846     		mov	r0, r5
 1107 001c FFF7FEFF 		bl	lv_obj_get_scroll_x
 1108              	.LVL107:
 1109 0020 14FA80F4 		uxtah	r4, r4, r0
 1110              	.LVL108:
 1111 0024 A4B2     		uxth	r4, r4
 1112              	.LVL109:
 1113              	.LBB231:
 1114              	.LBB232:
 117:Drivers/lvgl/lvgl/src/core/lv_obj_style_gen.h ****     return (lv_coord_t)v.num;
 1115              		.loc 2 117 0
 1116 0026 1222     		movs	r2, #18
 1117 0028 0021     		movs	r1, #0
 1118 002a 2846     		mov	r0, r5
 1119 002c FFF7FEFF 		bl	lv_obj_get_style_prop
 1120              	.LVL110:
 1121              	.LBE232:
 1122              	.LBE231:
 503:Drivers/lvgl/lvgl/src/core/lv_obj_pos.c ****         rel_x -= lv_obj_get_style_border_width(parent, LV_PART_MAIN);
 1123              		.loc 1 503 0
 1124 0030 80B2     		uxth	r0, r0
 1125 0032 241A     		subs	r4, r4, r0
 1126              	.LVL111:
ARM GAS  /tmp/cc3JQQuJ.s 			page 55


 1127 0034 A4B2     		uxth	r4, r4
 1128              	.LVL112:
 1129              	.LBB233:
 1130              	.LBB234:
 255:Drivers/lvgl/lvgl/src/core/lv_obj_style_gen.h ****     return (lv_coord_t)v.num;
 1131              		.loc 2 255 0
 1132 0036 3222     		movs	r2, #50
 1133 0038 0021     		movs	r1, #0
 1134 003a 2846     		mov	r0, r5
 1135 003c FFF7FEFF 		bl	lv_obj_get_style_prop
 1136              	.LVL113:
 1137              	.LBE234:
 1138              	.LBE233:
 504:Drivers/lvgl/lvgl/src/core/lv_obj_pos.c ****     }
 1139              		.loc 1 504 0
 1140 0040 80B2     		uxth	r0, r0
 1141 0042 201A     		subs	r0, r4, r0
 1142 0044 00B2     		sxth	r0, r0
 1143              	.LVL114:
 1144 0046 E2E7     		b	.L74
 1145              		.cfi_endproc
 1146              	.LFE183:
 1148              		.section	.text.lv_obj_get_y,"ax",%progbits
 1149              		.align	1
 1150              		.global	lv_obj_get_y
 1151              		.syntax unified
 1152              		.thumb
 1153              		.thumb_func
 1154              		.fpu fpv5-d16
 1156              	lv_obj_get_y:
 1157              	.LFB185:
 520:Drivers/lvgl/lvgl/src/core/lv_obj_pos.c ****     LV_ASSERT_OBJ(obj, MY_CLASS);
 1158              		.loc 1 520 0
 1159              		.cfi_startproc
 1160              		@ args = 0, pretend = 0, frame = 0
 1161              		@ frame_needed = 0, uses_anonymous_args = 0
 1162              	.LVL115:
 1163 0000 38B5     		push	{r3, r4, r5, lr}
 1164              	.LCFI31:
 1165              		.cfi_def_cfa_offset 16
 1166              		.cfi_offset 3, -16
 1167              		.cfi_offset 4, -12
 1168              		.cfi_offset 5, -8
 1169              		.cfi_offset 14, -4
 1170 0002 0446     		mov	r4, r0
 524:Drivers/lvgl/lvgl/src/core/lv_obj_pos.c ****     if(parent) {
 1171              		.loc 1 524 0
 1172 0004 FFF7FEFF 		bl	lv_obj_get_parent
 1173              	.LVL116:
 525:Drivers/lvgl/lvgl/src/core/lv_obj_pos.c ****         rel_y = obj->coords.y1 - parent->coords.y1;
 1174              		.loc 1 525 0
 1175 0008 10B9     		cbnz	r0, .L81
 532:Drivers/lvgl/lvgl/src/core/lv_obj_pos.c ****     }
 1176              		.loc 1 532 0
 1177 000a B4F91600 		ldrsh	r0, [r4, #22]
 1178              	.LVL117:
 1179              	.L79:
ARM GAS  /tmp/cc3JQQuJ.s 			page 56


 535:Drivers/lvgl/lvgl/src/core/lv_obj_pos.c **** 
 1180              		.loc 1 535 0
 1181 000e 38BD     		pop	{r3, r4, r5, pc}
 1182              	.LVL118:
 1183              	.L81:
 1184 0010 0546     		mov	r5, r0
 526:Drivers/lvgl/lvgl/src/core/lv_obj_pos.c ****         rel_y += lv_obj_get_scroll_y(parent);
 1185              		.loc 1 526 0
 1186 0012 E48A     		ldrh	r4, [r4, #22]
 1187              	.LVL119:
 1188 0014 C08A     		ldrh	r0, [r0, #22]
 1189              	.LVL120:
 1190 0016 241A     		subs	r4, r4, r0
 1191 0018 A4B2     		uxth	r4, r4
 1192              	.LVL121:
 527:Drivers/lvgl/lvgl/src/core/lv_obj_pos.c ****         rel_y -= lv_obj_get_style_pad_top(parent, LV_PART_MAIN);
 1193              		.loc 1 527 0
 1194 001a 2846     		mov	r0, r5
 1195 001c FFF7FEFF 		bl	lv_obj_get_scroll_y
 1196              	.LVL122:
 1197 0020 14FA80F4 		uxtah	r4, r4, r0
 1198              	.LVL123:
 1199 0024 A4B2     		uxth	r4, r4
 1200              	.LVL124:
 1201              	.LBB235:
 1202              	.LBB236:
 105:Drivers/lvgl/lvgl/src/core/lv_obj_style_gen.h ****     return (lv_coord_t)v.num;
 1203              		.loc 2 105 0
 1204 0026 1022     		movs	r2, #16
 1205 0028 0021     		movs	r1, #0
 1206 002a 2846     		mov	r0, r5
 1207 002c FFF7FEFF 		bl	lv_obj_get_style_prop
 1208              	.LVL125:
 1209              	.LBE236:
 1210              	.LBE235:
 528:Drivers/lvgl/lvgl/src/core/lv_obj_pos.c ****         rel_y -= lv_obj_get_style_border_width(parent, LV_PART_MAIN);
 1211              		.loc 1 528 0
 1212 0030 80B2     		uxth	r0, r0
 1213 0032 241A     		subs	r4, r4, r0
 1214              	.LVL126:
 1215 0034 A4B2     		uxth	r4, r4
 1216              	.LVL127:
 1217              	.LBB237:
 1218              	.LBB238:
 255:Drivers/lvgl/lvgl/src/core/lv_obj_style_gen.h ****     return (lv_coord_t)v.num;
 1219              		.loc 2 255 0
 1220 0036 3222     		movs	r2, #50
 1221 0038 0021     		movs	r1, #0
 1222 003a 2846     		mov	r0, r5
 1223 003c FFF7FEFF 		bl	lv_obj_get_style_prop
 1224              	.LVL128:
 1225              	.LBE238:
 1226              	.LBE237:
 529:Drivers/lvgl/lvgl/src/core/lv_obj_pos.c ****     }
 1227              		.loc 1 529 0
 1228 0040 80B2     		uxth	r0, r0
 1229 0042 201A     		subs	r0, r4, r0
ARM GAS  /tmp/cc3JQQuJ.s 			page 57


 1230 0044 00B2     		sxth	r0, r0
 1231              	.LVL129:
 1232 0046 E2E7     		b	.L79
 1233              		.cfi_endproc
 1234              	.LFE185:
 1236              		.section	.text.lv_obj_get_x_aligned,"ax",%progbits
 1237              		.align	1
 1238              		.global	lv_obj_get_x_aligned
 1239              		.syntax unified
 1240              		.thumb
 1241              		.thumb_func
 1242              		.fpu fpv5-d16
 1244              	lv_obj_get_x_aligned:
 1245              	.LFB187:
 545:Drivers/lvgl/lvgl/src/core/lv_obj_pos.c ****     return lv_obj_get_style_x(obj, LV_PART_MAIN);
 1246              		.loc 1 545 0
 1247              		.cfi_startproc
 1248              		@ args = 0, pretend = 0, frame = 0
 1249              		@ frame_needed = 0, uses_anonymous_args = 0
 1250              	.LVL130:
 1251 0000 08B5     		push	{r3, lr}
 1252              	.LCFI32:
 1253              		.cfi_def_cfa_offset 8
 1254              		.cfi_offset 3, -8
 1255              		.cfi_offset 14, -4
 1256              	.LVL131:
 1257              	.LBB239:
 1258              	.LBB240:
  39:Drivers/lvgl/lvgl/src/core/lv_obj_style_gen.h ****     return (lv_coord_t)v.num;
 1259              		.loc 2 39 0
 1260 0002 0722     		movs	r2, #7
 1261 0004 0021     		movs	r1, #0
 1262 0006 FFF7FEFF 		bl	lv_obj_get_style_prop
 1263              	.LVL132:
 1264              	.LBE240:
 1265              	.LBE239:
 547:Drivers/lvgl/lvgl/src/core/lv_obj_pos.c **** 
 1266              		.loc 1 547 0
 1267 000a 00B2     		sxth	r0, r0
 1268 000c 08BD     		pop	{r3, pc}
 1269              		.cfi_endproc
 1270              	.LFE187:
 1272              		.section	.text.lv_obj_get_y_aligned,"ax",%progbits
 1273              		.align	1
 1274              		.global	lv_obj_get_y_aligned
 1275              		.syntax unified
 1276              		.thumb
 1277              		.thumb_func
 1278              		.fpu fpv5-d16
 1280              	lv_obj_get_y_aligned:
 1281              	.LFB188:
 550:Drivers/lvgl/lvgl/src/core/lv_obj_pos.c ****     return lv_obj_get_style_y(obj, LV_PART_MAIN);
 1282              		.loc 1 550 0
 1283              		.cfi_startproc
 1284              		@ args = 0, pretend = 0, frame = 0
 1285              		@ frame_needed = 0, uses_anonymous_args = 0
 1286              	.LVL133:
ARM GAS  /tmp/cc3JQQuJ.s 			page 58


 1287 0000 08B5     		push	{r3, lr}
 1288              	.LCFI33:
 1289              		.cfi_def_cfa_offset 8
 1290              		.cfi_offset 3, -8
 1291              		.cfi_offset 14, -4
 1292              	.LVL134:
 1293              	.LBB241:
 1294              	.LBB242:
  45:Drivers/lvgl/lvgl/src/core/lv_obj_style_gen.h ****     return (lv_coord_t)v.num;
 1295              		.loc 2 45 0
 1296 0002 0822     		movs	r2, #8
 1297 0004 0021     		movs	r1, #0
 1298 0006 FFF7FEFF 		bl	lv_obj_get_style_prop
 1299              	.LVL135:
 1300              	.LBE242:
 1301              	.LBE241:
 552:Drivers/lvgl/lvgl/src/core/lv_obj_pos.c **** 
 1302              		.loc 1 552 0
 1303 000a 00B2     		sxth	r0, r0
 1304 000c 08BD     		pop	{r3, pc}
 1305              		.cfi_endproc
 1306              	.LFE188:
 1308              		.section	.text.lv_obj_get_width,"ax",%progbits
 1309              		.align	1
 1310              		.global	lv_obj_get_width
 1311              		.syntax unified
 1312              		.thumb
 1313              		.thumb_func
 1314              		.fpu fpv5-d16
 1316              	lv_obj_get_width:
 1317              	.LFB189:
 556:Drivers/lvgl/lvgl/src/core/lv_obj_pos.c ****     LV_ASSERT_OBJ(obj, MY_CLASS);
 1318              		.loc 1 556 0
 1319              		.cfi_startproc
 1320              		@ args = 0, pretend = 0, frame = 0
 1321              		@ frame_needed = 0, uses_anonymous_args = 0
 1322              		@ link register save eliminated.
 1323              	.LVL136:
 1324              	.LBB243:
 1325              	.LBB244:
 125:Drivers/lvgl/lvgl/src/core/../misc/../font/../misc/lv_area.h **** }
 1326              		.loc 3 125 0
 1327 0000 038B     		ldrh	r3, [r0, #24]
 1328 0002 808A     		ldrh	r0, [r0, #20]
 1329              	.LVL137:
 1330 0004 181A     		subs	r0, r3, r0
 1331 0006 80B2     		uxth	r0, r0
 1332 0008 0130     		adds	r0, r0, #1
 1333              	.LVL138:
 1334              	.LBE244:
 1335              	.LBE243:
 560:Drivers/lvgl/lvgl/src/core/lv_obj_pos.c **** 
 1336              		.loc 1 560 0
 1337 000a 00B2     		sxth	r0, r0
 1338 000c 7047     		bx	lr
 1339              		.cfi_endproc
 1340              	.LFE189:
ARM GAS  /tmp/cc3JQQuJ.s 			page 59


 1342              		.section	.text.lv_obj_get_x2,"ax",%progbits
 1343              		.align	1
 1344              		.global	lv_obj_get_x2
 1345              		.syntax unified
 1346              		.thumb
 1347              		.thumb_func
 1348              		.fpu fpv5-d16
 1350              	lv_obj_get_x2:
 1351              	.LFB184:
 513:Drivers/lvgl/lvgl/src/core/lv_obj_pos.c ****     LV_ASSERT_OBJ(obj, MY_CLASS);
 1352              		.loc 1 513 0
 1353              		.cfi_startproc
 1354              		@ args = 0, pretend = 0, frame = 0
 1355              		@ frame_needed = 0, uses_anonymous_args = 0
 1356              	.LVL139:
 1357 0000 38B5     		push	{r3, r4, r5, lr}
 1358              	.LCFI34:
 1359              		.cfi_def_cfa_offset 16
 1360              		.cfi_offset 3, -16
 1361              		.cfi_offset 4, -12
 1362              		.cfi_offset 5, -8
 1363              		.cfi_offset 14, -4
 1364 0002 0546     		mov	r5, r0
 516:Drivers/lvgl/lvgl/src/core/lv_obj_pos.c **** }
 1365              		.loc 1 516 0
 1366 0004 FFF7FEFF 		bl	lv_obj_get_x
 1367              	.LVL140:
 1368 0008 84B2     		uxth	r4, r0
 1369 000a 2846     		mov	r0, r5
 1370 000c FFF7FEFF 		bl	lv_obj_get_width
 1371              	.LVL141:
 1372 0010 14FA80F0 		uxtah	r0, r4, r0
 517:Drivers/lvgl/lvgl/src/core/lv_obj_pos.c **** 
 1373              		.loc 1 517 0
 1374 0014 00B2     		sxth	r0, r0
 1375 0016 38BD     		pop	{r3, r4, r5, pc}
 1376              		.cfi_endproc
 1377              	.LFE184:
 1379              		.section	.text.lv_obj_get_height,"ax",%progbits
 1380              		.align	1
 1381              		.global	lv_obj_get_height
 1382              		.syntax unified
 1383              		.thumb
 1384              		.thumb_func
 1385              		.fpu fpv5-d16
 1387              	lv_obj_get_height:
 1388              	.LFB190:
 563:Drivers/lvgl/lvgl/src/core/lv_obj_pos.c ****     LV_ASSERT_OBJ(obj, MY_CLASS);
 1389              		.loc 1 563 0
 1390              		.cfi_startproc
 1391              		@ args = 0, pretend = 0, frame = 0
 1392              		@ frame_needed = 0, uses_anonymous_args = 0
 1393              		@ link register save eliminated.
 1394              	.LVL142:
 1395              	.LBB245:
 1396              	.LBB246:
 1397              		.loc 3 135 0
ARM GAS  /tmp/cc3JQQuJ.s 			page 60


 1398 0000 438B     		ldrh	r3, [r0, #26]
 1399 0002 C08A     		ldrh	r0, [r0, #22]
 1400              	.LVL143:
 1401 0004 181A     		subs	r0, r3, r0
 1402 0006 80B2     		uxth	r0, r0
 1403 0008 0130     		adds	r0, r0, #1
 1404              	.LVL144:
 1405              	.LBE246:
 1406              	.LBE245:
 567:Drivers/lvgl/lvgl/src/core/lv_obj_pos.c **** 
 1407              		.loc 1 567 0
 1408 000a 00B2     		sxth	r0, r0
 1409 000c 7047     		bx	lr
 1410              		.cfi_endproc
 1411              	.LFE190:
 1413              		.section	.text.lv_obj_get_y2,"ax",%progbits
 1414              		.align	1
 1415              		.global	lv_obj_get_y2
 1416              		.syntax unified
 1417              		.thumb
 1418              		.thumb_func
 1419              		.fpu fpv5-d16
 1421              	lv_obj_get_y2:
 1422              	.LFB186:
 538:Drivers/lvgl/lvgl/src/core/lv_obj_pos.c ****     LV_ASSERT_OBJ(obj, MY_CLASS);
 1423              		.loc 1 538 0
 1424              		.cfi_startproc
 1425              		@ args = 0, pretend = 0, frame = 0
 1426              		@ frame_needed = 0, uses_anonymous_args = 0
 1427              	.LVL145:
 1428 0000 38B5     		push	{r3, r4, r5, lr}
 1429              	.LCFI35:
 1430              		.cfi_def_cfa_offset 16
 1431              		.cfi_offset 3, -16
 1432              		.cfi_offset 4, -12
 1433              		.cfi_offset 5, -8
 1434              		.cfi_offset 14, -4
 1435 0002 0546     		mov	r5, r0
 541:Drivers/lvgl/lvgl/src/core/lv_obj_pos.c **** }
 1436              		.loc 1 541 0
 1437 0004 FFF7FEFF 		bl	lv_obj_get_y
 1438              	.LVL146:
 1439 0008 84B2     		uxth	r4, r0
 1440 000a 2846     		mov	r0, r5
 1441 000c FFF7FEFF 		bl	lv_obj_get_height
 1442              	.LVL147:
 1443 0010 14FA80F0 		uxtah	r0, r4, r0
 542:Drivers/lvgl/lvgl/src/core/lv_obj_pos.c **** 
 1444              		.loc 1 542 0
 1445 0014 00B2     		sxth	r0, r0
 1446 0016 38BD     		pop	{r3, r4, r5, pc}
 1447              		.cfi_endproc
 1448              	.LFE186:
 1450              		.section	.text.lv_obj_get_content_width,"ax",%progbits
 1451              		.align	1
 1452              		.global	lv_obj_get_content_width
 1453              		.syntax unified
ARM GAS  /tmp/cc3JQQuJ.s 			page 61


 1454              		.thumb
 1455              		.thumb_func
 1456              		.fpu fpv5-d16
 1458              	lv_obj_get_content_width:
 1459              	.LFB191:
 570:Drivers/lvgl/lvgl/src/core/lv_obj_pos.c ****     LV_ASSERT_OBJ(obj, MY_CLASS);
 1460              		.loc 1 570 0
 1461              		.cfi_startproc
 1462              		@ args = 0, pretend = 0, frame = 0
 1463              		@ frame_needed = 0, uses_anonymous_args = 0
 1464              	.LVL148:
 1465 0000 F8B5     		push	{r3, r4, r5, r6, r7, lr}
 1466              	.LCFI36:
 1467              		.cfi_def_cfa_offset 24
 1468              		.cfi_offset 3, -24
 1469              		.cfi_offset 4, -20
 1470              		.cfi_offset 5, -16
 1471              		.cfi_offset 6, -12
 1472              		.cfi_offset 7, -8
 1473              		.cfi_offset 14, -4
 1474 0002 0546     		mov	r5, r0
 1475              	.LVL149:
 1476              	.LBB247:
 1477              	.LBB248:
 117:Drivers/lvgl/lvgl/src/core/lv_obj_style_gen.h ****     return (lv_coord_t)v.num;
 1478              		.loc 2 117 0
 1479 0004 1222     		movs	r2, #18
 1480 0006 0021     		movs	r1, #0
 1481 0008 FFF7FEFF 		bl	lv_obj_get_style_prop
 1482              	.LVL150:
 1483 000c 0746     		mov	r7, r0
 1484              	.LVL151:
 1485              	.LBE248:
 1486              	.LBE247:
 1487              	.LBB249:
 1488              	.LBB250:
 123:Drivers/lvgl/lvgl/src/core/lv_obj_style_gen.h ****     return (lv_coord_t)v.num;
 1489              		.loc 2 123 0
 1490 000e 1322     		movs	r2, #19
 1491 0010 0021     		movs	r1, #0
 1492 0012 2846     		mov	r0, r5
 1493 0014 FFF7FEFF 		bl	lv_obj_get_style_prop
 1494              	.LVL152:
 1495 0018 0646     		mov	r6, r0
 1496              	.LVL153:
 1497              	.LBE250:
 1498              	.LBE249:
 1499              	.LBB251:
 1500              	.LBB252:
 255:Drivers/lvgl/lvgl/src/core/lv_obj_style_gen.h ****     return (lv_coord_t)v.num;
 1501              		.loc 2 255 0
 1502 001a 3222     		movs	r2, #50
 1503 001c 0021     		movs	r1, #0
 1504 001e 2846     		mov	r0, r5
 1505 0020 FFF7FEFF 		bl	lv_obj_get_style_prop
 1506              	.LVL154:
 1507 0024 0446     		mov	r4, r0
ARM GAS  /tmp/cc3JQQuJ.s 			page 62


 1508              	.LVL155:
 1509              	.LBE252:
 1510              	.LBE251:
 577:Drivers/lvgl/lvgl/src/core/lv_obj_pos.c **** }
 1511              		.loc 1 577 0
 1512 0026 2846     		mov	r0, r5
 1513 0028 FFF7FEFF 		bl	lv_obj_get_width
 1514              	.LVL156:
 1515 002c 80B2     		uxth	r0, r0
 1516              	.LVL157:
 1517 002e C01B     		subs	r0, r0, r7
 1518 0030 80B2     		uxth	r0, r0
 1519              	.LVL158:
 1520 0032 801B     		subs	r0, r0, r6
 1521 0034 80B2     		uxth	r0, r0
 1522              	.LVL159:
 1523 0036 6400     		lsls	r4, r4, #1
 1524              	.LVL160:
 1525 0038 A4B2     		uxth	r4, r4
 1526 003a 001B     		subs	r0, r0, r4
 578:Drivers/lvgl/lvgl/src/core/lv_obj_pos.c **** 
 1527              		.loc 1 578 0
 1528 003c 00B2     		sxth	r0, r0
 1529 003e F8BD     		pop	{r3, r4, r5, r6, r7, pc}
 1530              		.cfi_endproc
 1531              	.LFE191:
 1533              		.section	.text.lv_obj_get_content_height,"ax",%progbits
 1534              		.align	1
 1535              		.global	lv_obj_get_content_height
 1536              		.syntax unified
 1537              		.thumb
 1538              		.thumb_func
 1539              		.fpu fpv5-d16
 1541              	lv_obj_get_content_height:
 1542              	.LFB192:
 581:Drivers/lvgl/lvgl/src/core/lv_obj_pos.c ****     LV_ASSERT_OBJ(obj, MY_CLASS);
 1543              		.loc 1 581 0
 1544              		.cfi_startproc
 1545              		@ args = 0, pretend = 0, frame = 0
 1546              		@ frame_needed = 0, uses_anonymous_args = 0
 1547              	.LVL161:
 1548 0000 F8B5     		push	{r3, r4, r5, r6, r7, lr}
 1549              	.LCFI37:
 1550              		.cfi_def_cfa_offset 24
 1551              		.cfi_offset 3, -24
 1552              		.cfi_offset 4, -20
 1553              		.cfi_offset 5, -16
 1554              		.cfi_offset 6, -12
 1555              		.cfi_offset 7, -8
 1556              		.cfi_offset 14, -4
 1557 0002 0546     		mov	r5, r0
 1558              	.LVL162:
 1559              	.LBB253:
 1560              	.LBB254:
 105:Drivers/lvgl/lvgl/src/core/lv_obj_style_gen.h ****     return (lv_coord_t)v.num;
 1561              		.loc 2 105 0
 1562 0004 1022     		movs	r2, #16
ARM GAS  /tmp/cc3JQQuJ.s 			page 63


 1563 0006 0021     		movs	r1, #0
 1564 0008 FFF7FEFF 		bl	lv_obj_get_style_prop
 1565              	.LVL163:
 1566 000c 0746     		mov	r7, r0
 1567              	.LVL164:
 1568              	.LBE254:
 1569              	.LBE253:
 1570              	.LBB255:
 1571              	.LBB256:
 111:Drivers/lvgl/lvgl/src/core/lv_obj_style_gen.h ****     return (lv_coord_t)v.num;
 1572              		.loc 2 111 0
 1573 000e 1122     		movs	r2, #17
 1574 0010 0021     		movs	r1, #0
 1575 0012 2846     		mov	r0, r5
 1576 0014 FFF7FEFF 		bl	lv_obj_get_style_prop
 1577              	.LVL165:
 1578 0018 0646     		mov	r6, r0
 1579              	.LVL166:
 1580              	.LBE256:
 1581              	.LBE255:
 1582              	.LBB257:
 1583              	.LBB258:
 255:Drivers/lvgl/lvgl/src/core/lv_obj_style_gen.h ****     return (lv_coord_t)v.num;
 1584              		.loc 2 255 0
 1585 001a 3222     		movs	r2, #50
 1586 001c 0021     		movs	r1, #0
 1587 001e 2846     		mov	r0, r5
 1588 0020 FFF7FEFF 		bl	lv_obj_get_style_prop
 1589              	.LVL167:
 1590 0024 0446     		mov	r4, r0
 1591              	.LVL168:
 1592              	.LBE258:
 1593              	.LBE257:
 588:Drivers/lvgl/lvgl/src/core/lv_obj_pos.c **** }
 1594              		.loc 1 588 0
 1595 0026 2846     		mov	r0, r5
 1596 0028 FFF7FEFF 		bl	lv_obj_get_height
 1597              	.LVL169:
 1598 002c 80B2     		uxth	r0, r0
 1599              	.LVL170:
 1600 002e C01B     		subs	r0, r0, r7
 1601 0030 80B2     		uxth	r0, r0
 1602              	.LVL171:
 1603 0032 801B     		subs	r0, r0, r6
 1604 0034 80B2     		uxth	r0, r0
 1605              	.LVL172:
 1606 0036 6400     		lsls	r4, r4, #1
 1607              	.LVL173:
 1608 0038 A4B2     		uxth	r4, r4
 1609 003a 001B     		subs	r0, r0, r4
 589:Drivers/lvgl/lvgl/src/core/lv_obj_pos.c **** 
 1610              		.loc 1 589 0
 1611 003c 00B2     		sxth	r0, r0
 1612 003e F8BD     		pop	{r3, r4, r5, r6, r7, pc}
 1613              		.cfi_endproc
 1614              	.LFE192:
 1616              		.section	.text.lv_obj_get_content_coords,"ax",%progbits
ARM GAS  /tmp/cc3JQQuJ.s 			page 64


 1617              		.align	1
 1618              		.global	lv_obj_get_content_coords
 1619              		.syntax unified
 1620              		.thumb
 1621              		.thumb_func
 1622              		.fpu fpv5-d16
 1624              	lv_obj_get_content_coords:
 1625              	.LFB193:
 592:Drivers/lvgl/lvgl/src/core/lv_obj_pos.c ****     LV_ASSERT_OBJ(obj, MY_CLASS);
 1626              		.loc 1 592 0
 1627              		.cfi_startproc
 1628              		@ args = 0, pretend = 0, frame = 0
 1629              		@ frame_needed = 0, uses_anonymous_args = 0
 1630              	.LVL174:
 1631 0000 70B5     		push	{r4, r5, r6, lr}
 1632              	.LCFI38:
 1633              		.cfi_def_cfa_offset 16
 1634              		.cfi_offset 4, -16
 1635              		.cfi_offset 5, -12
 1636              		.cfi_offset 6, -8
 1637              		.cfi_offset 14, -4
 1638 0002 0646     		mov	r6, r0
 1639 0004 0C46     		mov	r4, r1
 1640              	.LVL175:
 1641              	.LBB259:
 1642              	.LBB260:
 255:Drivers/lvgl/lvgl/src/core/lv_obj_style_gen.h ****     return (lv_coord_t)v.num;
 1643              		.loc 2 255 0
 1644 0006 3222     		movs	r2, #50
 1645 0008 0021     		movs	r1, #0
 1646              	.LVL176:
 1647 000a FFF7FEFF 		bl	lv_obj_get_style_prop
 1648              	.LVL177:
 1649 000e 0546     		mov	r5, r0
 1650              	.LVL178:
 1651              	.LBE260:
 1652              	.LBE259:
 596:Drivers/lvgl/lvgl/src/core/lv_obj_pos.c ****     lv_area_increase(area, -border_width, -border_width);
 1653              		.loc 1 596 0
 1654 0010 2146     		mov	r1, r4
 1655 0012 3046     		mov	r0, r6
 1656 0014 FFF7FEFF 		bl	lv_obj_get_coords
 1657              	.LVL179:
 597:Drivers/lvgl/lvgl/src/core/lv_obj_pos.c ****     area->x1 += lv_obj_get_style_pad_left(obj, LV_PART_MAIN);
 1658              		.loc 1 597 0
 1659 0018 6942     		negs	r1, r5
 1660 001a 09B2     		sxth	r1, r1
 1661 001c 0A46     		mov	r2, r1
 1662 001e 2046     		mov	r0, r4
 1663 0020 FFF7FEFF 		bl	lv_area_increase
 1664              	.LVL180:
 1665              	.LBB261:
 1666              	.LBB262:
 117:Drivers/lvgl/lvgl/src/core/lv_obj_style_gen.h ****     return (lv_coord_t)v.num;
 1667              		.loc 2 117 0
 1668 0024 1222     		movs	r2, #18
 1669 0026 0021     		movs	r1, #0
ARM GAS  /tmp/cc3JQQuJ.s 			page 65


 1670 0028 3046     		mov	r0, r6
 1671 002a FFF7FEFF 		bl	lv_obj_get_style_prop
 1672              	.LVL181:
 1673              	.LBE262:
 1674              	.LBE261:
 598:Drivers/lvgl/lvgl/src/core/lv_obj_pos.c ****     area->x2 -= lv_obj_get_style_pad_right(obj, LV_PART_MAIN);
 1675              		.loc 1 598 0
 1676 002e 2388     		ldrh	r3, [r4]
 1677 0030 13FA80F0 		uxtah	r0, r3, r0
 1678 0034 2080     		strh	r0, [r4]	@ movhi
 1679              	.LVL182:
 1680              	.LBB263:
 1681              	.LBB264:
 123:Drivers/lvgl/lvgl/src/core/lv_obj_style_gen.h ****     return (lv_coord_t)v.num;
 1682              		.loc 2 123 0
 1683 0036 1322     		movs	r2, #19
 1684 0038 0021     		movs	r1, #0
 1685 003a 3046     		mov	r0, r6
 1686 003c FFF7FEFF 		bl	lv_obj_get_style_prop
 1687              	.LVL183:
 1688              	.LBE264:
 1689              	.LBE263:
 599:Drivers/lvgl/lvgl/src/core/lv_obj_pos.c ****     area->y1 += lv_obj_get_style_pad_top(obj, LV_PART_MAIN);
 1690              		.loc 1 599 0
 1691 0040 80B2     		uxth	r0, r0
 1692 0042 A388     		ldrh	r3, [r4, #4]
 1693 0044 181A     		subs	r0, r3, r0
 1694 0046 A080     		strh	r0, [r4, #4]	@ movhi
 1695              	.LVL184:
 1696              	.LBB265:
 1697              	.LBB266:
 105:Drivers/lvgl/lvgl/src/core/lv_obj_style_gen.h ****     return (lv_coord_t)v.num;
 1698              		.loc 2 105 0
 1699 0048 1022     		movs	r2, #16
 1700 004a 0021     		movs	r1, #0
 1701 004c 3046     		mov	r0, r6
 1702 004e FFF7FEFF 		bl	lv_obj_get_style_prop
 1703              	.LVL185:
 1704              	.LBE266:
 1705              	.LBE265:
 600:Drivers/lvgl/lvgl/src/core/lv_obj_pos.c ****     area->y2 -= lv_obj_get_style_pad_bottom(obj, LV_PART_MAIN);
 1706              		.loc 1 600 0
 1707 0052 6388     		ldrh	r3, [r4, #2]
 1708 0054 13FA80F0 		uxtah	r0, r3, r0
 1709 0058 6080     		strh	r0, [r4, #2]	@ movhi
 1710              	.LVL186:
 1711              	.LBB267:
 1712              	.LBB268:
 111:Drivers/lvgl/lvgl/src/core/lv_obj_style_gen.h ****     return (lv_coord_t)v.num;
 1713              		.loc 2 111 0
 1714 005a 1122     		movs	r2, #17
 1715 005c 0021     		movs	r1, #0
 1716 005e 3046     		mov	r0, r6
 1717 0060 FFF7FEFF 		bl	lv_obj_get_style_prop
 1718              	.LVL187:
 1719              	.LBE268:
 1720              	.LBE267:
ARM GAS  /tmp/cc3JQQuJ.s 			page 66


 601:Drivers/lvgl/lvgl/src/core/lv_obj_pos.c **** 
 1721              		.loc 1 601 0
 1722 0064 80B2     		uxth	r0, r0
 1723 0066 E388     		ldrh	r3, [r4, #6]
 1724 0068 181A     		subs	r0, r3, r0
 1725 006a E080     		strh	r0, [r4, #6]	@ movhi
 603:Drivers/lvgl/lvgl/src/core/lv_obj_pos.c **** 
 1726              		.loc 1 603 0
 1727 006c 70BD     		pop	{r4, r5, r6, pc}
 1728              		.cfi_endproc
 1729              	.LFE193:
 1731              		.section	.text.lv_obj_get_self_width,"ax",%progbits
 1732              		.align	1
 1733              		.global	lv_obj_get_self_width
 1734              		.syntax unified
 1735              		.thumb
 1736              		.thumb_func
 1737              		.fpu fpv5-d16
 1739              	lv_obj_get_self_width:
 1740              	.LFB194:
 606:Drivers/lvgl/lvgl/src/core/lv_obj_pos.c ****     lv_point_t p = {0, LV_COORD_MIN};
 1741              		.loc 1 606 0
 1742              		.cfi_startproc
 1743              		@ args = 0, pretend = 0, frame = 8
 1744              		@ frame_needed = 0, uses_anonymous_args = 0
 1745              	.LVL188:
 1746 0000 00B5     		push	{lr}
 1747              	.LCFI39:
 1748              		.cfi_def_cfa_offset 4
 1749              		.cfi_offset 14, -4
 1750 0002 83B0     		sub	sp, sp, #12
 1751              	.LCFI40:
 1752              		.cfi_def_cfa_offset 16
 607:Drivers/lvgl/lvgl/src/core/lv_obj_pos.c ****     lv_event_send((lv_obj_t *)obj, LV_EVENT_GET_SELF_SIZE, &p);
 1753              		.loc 1 607 0
 1754 0004 0023     		movs	r3, #0
 1755 0006 ADF80430 		strh	r3, [sp, #4]	@ movhi
 1756 000a 4EF20103 		movw	r3, #57345
 1757 000e ADF80630 		strh	r3, [sp, #6]	@ movhi
 608:Drivers/lvgl/lvgl/src/core/lv_obj_pos.c ****     return p.x;
 1758              		.loc 1 608 0
 1759 0012 01AA     		add	r2, sp, #4
 1760 0014 2C21     		movs	r1, #44
 1761 0016 FFF7FEFF 		bl	lv_event_send
 1762              	.LVL189:
 610:Drivers/lvgl/lvgl/src/core/lv_obj_pos.c **** 
 1763              		.loc 1 610 0
 1764 001a BDF90400 		ldrsh	r0, [sp, #4]
 1765 001e 03B0     		add	sp, sp, #12
 1766              	.LCFI41:
 1767              		.cfi_def_cfa_offset 4
 1768              		@ sp needed
 1769 0020 5DF804FB 		ldr	pc, [sp], #4
 1770              		.cfi_endproc
 1771              	.LFE194:
 1773              		.section	.text.calc_content_width,"ax",%progbits
 1774              		.align	1
ARM GAS  /tmp/cc3JQQuJ.s 			page 67


 1775              		.syntax unified
 1776              		.thumb
 1777              		.thumb_func
 1778              		.fpu fpv5-d16
 1780              	calc_content_width:
 1781              	.LFB211:
 995:Drivers/lvgl/lvgl/src/core/lv_obj_pos.c ****     lv_obj_scroll_to_x(obj, 0, LV_ANIM_OFF);
 1782              		.loc 1 995 0
 1783              		.cfi_startproc
 1784              		@ args = 0, pretend = 0, frame = 8
 1785              		@ frame_needed = 0, uses_anonymous_args = 0
 1786              	.LVL190:
 1787 0000 2DE9F04F 		push	{r4, r5, r6, r7, r8, r9, r10, fp, lr}
 1788              	.LCFI42:
 1789              		.cfi_def_cfa_offset 36
 1790              		.cfi_offset 4, -36
 1791              		.cfi_offset 5, -32
 1792              		.cfi_offset 6, -28
 1793              		.cfi_offset 7, -24
 1794              		.cfi_offset 8, -20
 1795              		.cfi_offset 9, -16
 1796              		.cfi_offset 10, -12
 1797              		.cfi_offset 11, -8
 1798              		.cfi_offset 14, -4
 1799 0004 83B0     		sub	sp, sp, #12
 1800              	.LCFI43:
 1801              		.cfi_def_cfa_offset 48
 1802 0006 0546     		mov	r5, r0
 996:Drivers/lvgl/lvgl/src/core/lv_obj_pos.c **** 
 1803              		.loc 1 996 0
 1804 0008 0022     		movs	r2, #0
 1805 000a 1146     		mov	r1, r2
 1806 000c FFF7FEFF 		bl	lv_obj_scroll_to_x
 1807              	.LVL191:
 1808              	.LBB269:
 1809              	.LBB270:
 255:Drivers/lvgl/lvgl/src/core/lv_obj_style_gen.h ****     return (lv_coord_t)v.num;
 1810              		.loc 2 255 0
 1811 0010 3222     		movs	r2, #50
 1812 0012 0021     		movs	r1, #0
 1813 0014 2846     		mov	r0, r5
 1814 0016 FFF7FEFF 		bl	lv_obj_get_style_prop
 1815              	.LVL192:
 1816 001a 0746     		mov	r7, r0
 1817              	.LVL193:
 1818              	.LBE270:
 1819              	.LBE269:
 1820              	.LBB271:
 1821              	.LBB272:
 123:Drivers/lvgl/lvgl/src/core/lv_obj_style_gen.h ****     return (lv_coord_t)v.num;
 1822              		.loc 2 123 0
 1823 001c 1322     		movs	r2, #19
 1824 001e 0021     		movs	r1, #0
 1825 0020 2846     		mov	r0, r5
 1826 0022 FFF7FEFF 		bl	lv_obj_get_style_prop
 1827              	.LVL194:
 1828              	.LBE272:
ARM GAS  /tmp/cc3JQQuJ.s 			page 68


 1829              	.LBE271:
 999:Drivers/lvgl/lvgl/src/core/lv_obj_pos.c ****     lv_coord_t pad_left = lv_obj_get_style_pad_left(obj, LV_PART_MAIN) + border_width;
 1830              		.loc 1 999 0
 1831 0026 BFB2     		uxth	r7, r7
 1832 0028 17FA80F0 		uxtah	r0, r7, r0
 1833 002c 1FFA80FB 		uxth	fp, r0
 1834 0030 0FFA8BF3 		sxth	r3, fp
 1835 0034 0193     		str	r3, [sp, #4]
 1836              	.LVL195:
 1837              	.LBB273:
 1838              	.LBB274:
 117:Drivers/lvgl/lvgl/src/core/lv_obj_style_gen.h ****     return (lv_coord_t)v.num;
 1839              		.loc 2 117 0
 1840 0036 1222     		movs	r2, #18
 1841 0038 0021     		movs	r1, #0
 1842 003a 2846     		mov	r0, r5
 1843 003c FFF7FEFF 		bl	lv_obj_get_style_prop
 1844              	.LVL196:
 1845              	.LBE274:
 1846              	.LBE273:
1000:Drivers/lvgl/lvgl/src/core/lv_obj_pos.c **** 
 1847              		.loc 1 1000 0
 1848 0040 17FA80F7 		uxtah	r7, r7, r0
 1849 0044 BFB2     		uxth	r7, r7
 1850 0046 3BB2     		sxth	r3, r7
 1851 0048 0093     		str	r3, [sp]
 1852              	.LVL197:
1003:Drivers/lvgl/lvgl/src/core/lv_obj_pos.c **** 
 1853              		.loc 1 1003 0
 1854 004a 2846     		mov	r0, r5
 1855 004c FFF7FEFF 		bl	lv_obj_get_self_width
 1856              	.LVL198:
 1857 0050 17FA80FA 		uxtah	r10, r7, r0
 1858 0054 1BFA8AFA 		uxtah	r10, fp, r10
 1859 0058 0FFA8AFA 		sxth	r10, r10
 1860              	.LVL199:
1007:Drivers/lvgl/lvgl/src/core/lv_obj_pos.c ****     /*With RTL find the left most coordinate*/
 1861              		.loc 1 1007 0
 1862 005c 2846     		mov	r0, r5
 1863 005e FFF7FEFF 		bl	lv_obj_get_child_cnt
 1864              	.LVL200:
 1865 0062 8146     		mov	r9, r0
 1866              	.LVL201:
 1867              	.LBB275:
 1868              	.LBB276:
 556:Drivers/lvgl/lvgl/src/core/lv_obj_style_gen.h ****     return (uint16_t)v.num;
 557:Drivers/lvgl/lvgl/src/core/lv_obj_style_gen.h **** }
 558:Drivers/lvgl/lvgl/src/core/lv_obj_style_gen.h **** 
 559:Drivers/lvgl/lvgl/src/core/lv_obj_style_gen.h **** static inline lv_base_dir_t lv_obj_get_style_base_dir(const struct _lv_obj_t * obj, uint32_t part)
 560:Drivers/lvgl/lvgl/src/core/lv_obj_style_gen.h **** {
 561:Drivers/lvgl/lvgl/src/core/lv_obj_style_gen.h ****     lv_style_value_t v = lv_obj_get_style_prop(obj, part, LV_STYLE_BASE_DIR);
 1869              		.loc 2 561 0
 1870 0064 1622     		movs	r2, #22
 1871 0066 0021     		movs	r1, #0
 1872 0068 2846     		mov	r0, r5
 1873              	.LVL202:
 1874 006a FFF7FEFF 		bl	lv_obj_get_style_prop
ARM GAS  /tmp/cc3JQQuJ.s 			page 69


 1875              	.LVL203:
 562:Drivers/lvgl/lvgl/src/core/lv_obj_style_gen.h ****     return (lv_base_dir_t)v.num;
 1876              		.loc 2 562 0
 1877 006e C0B2     		uxtb	r0, r0
 1878              	.LVL204:
 1879              	.LBE276:
 1880              	.LBE275:
1009:Drivers/lvgl/lvgl/src/core/lv_obj_pos.c ****         for(i = 0; i < child_cnt; i++) {
 1881              		.loc 1 1009 0
 1882 0070 0128     		cmp	r0, #1
 1883 0072 52D0     		beq	.L117
1042:Drivers/lvgl/lvgl/src/core/lv_obj_pos.c ****             lv_obj_t * child = obj->spec_attr->children[i];
 1884              		.loc 1 1042 0
 1885 0074 0024     		movs	r4, #0
1005:Drivers/lvgl/lvgl/src/core/lv_obj_pos.c ****     uint32_t i;
 1886              		.loc 1 1005 0
 1887 0076 DFF87881 		ldr	r8, .L123+4
 1888 007a 73E0     		b	.L102
 1889              	.LVL205:
 1890              	.L120:
 1891              	.LBB277:
 1892              	.LBB278:
 1893              	.LBB279:
 1894              	.LBB280:
  51:Drivers/lvgl/lvgl/src/core/lv_obj_style_gen.h ****     return (lv_align_t)v.num;
 1895              		.loc 2 51 0
 1896 007c 0922     		movs	r2, #9
 1897 007e 0021     		movs	r1, #0
 1898 0080 3046     		mov	r0, r6
 1899 0082 FFF7FEFF 		bl	lv_obj_get_style_prop
 1900              	.LVL206:
 1901              	.LBE280:
 1902              	.LBE279:
1016:Drivers/lvgl/lvgl/src/core/lv_obj_pos.c ****                     case LV_ALIGN_DEFAULT:
 1903              		.loc 1 1016 0
 1904 0086 C0B2     		uxtb	r0, r0
 1905 0088 0828     		cmp	r0, #8
 1906 008a 2FD8     		bhi	.L105
 1907 008c DFE800F0 		tbb	[pc, r0]
 1908              	.L107:
 1909 0090 05       		.byte	(.L106-.L107)/2
 1910 0091 2E       		.byte	(.L105-.L107)/2
 1911 0092 2E       		.byte	(.L105-.L107)/2
 1912 0093 05       		.byte	(.L106-.L107)/2
 1913 0094 2E       		.byte	(.L105-.L107)/2
 1914 0095 2E       		.byte	(.L105-.L107)/2
 1915 0096 05       		.byte	(.L106-.L107)/2
 1916 0097 2E       		.byte	(.L105-.L107)/2
 1917 0098 05       		.byte	(.L106-.L107)/2
 1918 0099 00       		.p2align 1
 1919              	.L106:
1022:Drivers/lvgl/lvgl/src/core/lv_obj_pos.c ****                         break;
 1920              		.loc 1 1022 0
 1921 009a B5F91830 		ldrsh	r3, [r5, #24]
 1922 009e B6F91420 		ldrsh	r2, [r6, #20]
 1923 00a2 9B1A     		subs	r3, r3, r2
 1924 00a4 0133     		adds	r3, r3, #1
ARM GAS  /tmp/cc3JQQuJ.s 			page 70


 1925 00a6 9845     		cmp	r8, r3
 1926 00a8 B8BF     		it	lt
 1927 00aa 9846     		movlt	r8, r3
 1928              	.LVL207:
 1929 00ac 0FFA88F8 		sxth	r8, r8
 1930              	.LVL208:
 1931              	.L103:
 1932              	.LBE278:
 1933              	.LBE277:
1010:Drivers/lvgl/lvgl/src/core/lv_obj_pos.c ****             lv_obj_t * child = obj->spec_attr->children[i];
 1934              		.loc 1 1010 0 discriminator 2
 1935 00b0 0134     		adds	r4, r4, #1
 1936              	.LVL209:
 1937              	.L101:
1010:Drivers/lvgl/lvgl/src/core/lv_obj_pos.c ****             lv_obj_t * child = obj->spec_attr->children[i];
 1938              		.loc 1 1010 0 is_stmt 0 discriminator 1
 1939 00b2 4C45     		cmp	r4, r9
 1940 00b4 35D2     		bcs	.L119
 1941              	.LBB286:
1011:Drivers/lvgl/lvgl/src/core/lv_obj_pos.c ****             if(lv_obj_has_flag_any(child,  LV_OBJ_FLAG_HIDDEN | LV_OBJ_FLAG_FLOATING)) continue;
 1942              		.loc 1 1011 0 is_stmt 1
 1943 00b6 AB68     		ldr	r3, [r5, #8]
 1944 00b8 1B68     		ldr	r3, [r3]
 1945 00ba 53F82460 		ldr	r6, [r3, r4, lsl #2]
 1946              	.LVL210:
1012:Drivers/lvgl/lvgl/src/core/lv_obj_pos.c **** 
 1947              		.loc 1 1012 0
 1948 00be 4B49     		ldr	r1, .L123
 1949 00c0 3046     		mov	r0, r6
 1950 00c2 FFF7FEFF 		bl	lv_obj_has_flag_any
 1951              	.LVL211:
 1952 00c6 0028     		cmp	r0, #0
 1953 00c8 F2D1     		bne	.L103
1014:Drivers/lvgl/lvgl/src/core/lv_obj_pos.c ****                 lv_align_t align = lv_obj_get_style_align(child, 0);
 1954              		.loc 1 1014 0
 1955 00ca 3046     		mov	r0, r6
 1956 00cc FFF7FEFF 		bl	lv_obj_is_layout_positioned
 1957              	.LVL212:
 1958 00d0 0028     		cmp	r0, #0
 1959 00d2 D3D0     		beq	.L120
1033:Drivers/lvgl/lvgl/src/core/lv_obj_pos.c ****             }
 1960              		.loc 1 1033 0
 1961 00d4 B5F91800 		ldrsh	r0, [r5, #24]
 1962 00d8 B6F91430 		ldrsh	r3, [r6, #20]
 1963 00dc C01A     		subs	r0, r0, r3
 1964 00de 0130     		adds	r0, r0, #1
 1965 00e0 8045     		cmp	r8, r0
 1966 00e2 B8BF     		it	lt
 1967 00e4 8046     		movlt	r8, r0
 1968              	.LVL213:
 1969 00e6 0FFA88F8 		sxth	r8, r8
 1970              	.LVL214:
 1971 00ea E1E7     		b	.L103
 1972              	.L105:
 1973              	.LVL215:
 1974              	.LBB285:
 1975              	.LBB281:
ARM GAS  /tmp/cc3JQQuJ.s 			page 71


 1976              	.LBB282:
  39:Drivers/lvgl/lvgl/src/core/lv_obj_style_gen.h ****     return (lv_coord_t)v.num;
 1977              		.loc 2 39 0
 1978 00ec 0722     		movs	r2, #7
 1979 00ee 0021     		movs	r1, #0
 1980 00f0 3046     		mov	r0, r6
 1981 00f2 FFF7FEFF 		bl	lv_obj_get_style_prop
 1982              	.LVL216:
  40:Drivers/lvgl/lvgl/src/core/lv_obj_style_gen.h **** }
 1983              		.loc 2 40 0
 1984 00f6 00B2     		sxth	r0, r0
 1985              	.LVL217:
 1986              	.LBE282:
 1987              	.LBE281:
1027:Drivers/lvgl/lvgl/src/core/lv_obj_pos.c ****                             child_res = LV_MAX(child_res, lv_area_get_width(&child->coords) + pad_r
 1988              		.loc 1 1027 0
 1989 00f8 0028     		cmp	r0, #0
 1990 00fa D9D1     		bne	.L103
 1991              	.LVL218:
 1992              	.LBB283:
 1993              	.LBB284:
 125:Drivers/lvgl/lvgl/src/core/../misc/../font/../misc/lv_area.h **** }
 1994              		.loc 3 125 0
 1995 00fc 338B     		ldrh	r3, [r6, #24]
 1996 00fe B28A     		ldrh	r2, [r6, #20]
 1997 0100 9B1A     		subs	r3, r3, r2
 1998 0102 9BB2     		uxth	r3, r3
 1999 0104 0133     		adds	r3, r3, #1
 2000 0106 9BB2     		uxth	r3, r3
 2001              	.LVL219:
 2002              	.LBE284:
 2003              	.LBE283:
1028:Drivers/lvgl/lvgl/src/core/lv_obj_pos.c ****                         }
 2004              		.loc 1 1028 0
 2005 0108 019A     		ldr	r2, [sp, #4]
 2006 010a 02FA83F2 		sxtah	r2, r2, r3
 2007 010e 9045     		cmp	r8, r2
 2008 0110 CEDC     		bgt	.L103
1028:Drivers/lvgl/lvgl/src/core/lv_obj_pos.c ****                         }
 2009              		.loc 1 1028 0 is_stmt 0 discriminator 1
 2010 0112 5B44     		add	r3, r3, fp
 2011 0114 0FFA83F8 		sxth	r8, r3
 2012              	.LVL220:
 2013 0118 CAE7     		b	.L103
 2014              	.LVL221:
 2015              	.L117:
 2016              	.LBE285:
 2017              	.LBE286:
1010:Drivers/lvgl/lvgl/src/core/lv_obj_pos.c ****             lv_obj_t * child = obj->spec_attr->children[i];
 2018              		.loc 1 1010 0 is_stmt 1
 2019 011a 0024     		movs	r4, #0
1005:Drivers/lvgl/lvgl/src/core/lv_obj_pos.c ****     uint32_t i;
 2020              		.loc 1 1005 0
 2021 011c DFF8D080 		ldr	r8, .L123+4
 2022 0120 C7E7     		b	.L101
 2023              	.LVL222:
 2024              	.L119:
ARM GAS  /tmp/cc3JQQuJ.s 			page 72


1036:Drivers/lvgl/lvgl/src/core/lv_obj_pos.c ****             child_res += pad_left;
 2025              		.loc 1 1036 0
 2026 0122 334B     		ldr	r3, .L123+4
 2027 0124 9845     		cmp	r8, r3
 2028 0126 57D0     		beq	.L109
1037:Drivers/lvgl/lvgl/src/core/lv_obj_pos.c ****         }
 2029              		.loc 1 1037 0
 2030 0128 B844     		add	r8, r8, r7
 2031              	.LVL223:
 2032 012a 0FFA88F8 		sxth	r8, r8
 2033              	.LVL224:
 2034 012e 53E0     		b	.L109
 2035              	.LVL225:
 2036              	.L122:
 2037              	.LBB287:
 2038              	.LBB288:
 2039              	.LBB289:
 2040              	.LBB290:
  51:Drivers/lvgl/lvgl/src/core/lv_obj_style_gen.h ****     return (lv_align_t)v.num;
 2041              		.loc 2 51 0
 2042 0130 0922     		movs	r2, #9
 2043 0132 0021     		movs	r1, #0
 2044 0134 3046     		mov	r0, r6
 2045 0136 FFF7FEFF 		bl	lv_obj_get_style_prop
 2046              	.LVL226:
 2047              	.LBE290:
 2048              	.LBE289:
1048:Drivers/lvgl/lvgl/src/core/lv_obj_pos.c ****                     case LV_ALIGN_DEFAULT:
 2049              		.loc 1 1048 0
 2050 013a C0B2     		uxtb	r0, r0
 2051 013c 0728     		cmp	r0, #7
 2052 013e 2ED8     		bhi	.L112
 2053 0140 DFE800F0 		tbb	[pc, r0]
 2054              	.L114:
 2055 0144 04       		.byte	(.L113-.L114)/2
 2056 0145 04       		.byte	(.L113-.L114)/2
 2057 0146 2D       		.byte	(.L112-.L114)/2
 2058 0147 2D       		.byte	(.L112-.L114)/2
 2059 0148 04       		.byte	(.L113-.L114)/2
 2060 0149 2D       		.byte	(.L112-.L114)/2
 2061 014a 2D       		.byte	(.L112-.L114)/2
 2062 014b 04       		.byte	(.L113-.L114)/2
 2063              		.p2align 1
 2064              	.L113:
1054:Drivers/lvgl/lvgl/src/core/lv_obj_pos.c ****                         break;
 2065              		.loc 1 1054 0
 2066 014c B6F91830 		ldrsh	r3, [r6, #24]
 2067 0150 B5F91420 		ldrsh	r2, [r5, #20]
 2068 0154 9B1A     		subs	r3, r3, r2
 2069 0156 0133     		adds	r3, r3, #1
 2070 0158 9845     		cmp	r8, r3
 2071 015a B8BF     		it	lt
 2072 015c 9846     		movlt	r8, r3
 2073              	.LVL227:
 2074 015e 0FFA88F8 		sxth	r8, r8
 2075              	.LVL228:
 2076              	.L110:
ARM GAS  /tmp/cc3JQQuJ.s 			page 73


 2077              	.LBE288:
 2078              	.LBE287:
1042:Drivers/lvgl/lvgl/src/core/lv_obj_pos.c ****             lv_obj_t * child = obj->spec_attr->children[i];
 2079              		.loc 1 1042 0 discriminator 2
 2080 0162 0134     		adds	r4, r4, #1
 2081              	.LVL229:
 2082              	.L102:
1042:Drivers/lvgl/lvgl/src/core/lv_obj_pos.c ****             lv_obj_t * child = obj->spec_attr->children[i];
 2083              		.loc 1 1042 0 is_stmt 0 discriminator 1
 2084 0164 4C45     		cmp	r4, r9
 2085 0166 31D2     		bcs	.L121
 2086              	.LBB296:
1043:Drivers/lvgl/lvgl/src/core/lv_obj_pos.c ****             if(lv_obj_has_flag_any(child,  LV_OBJ_FLAG_HIDDEN | LV_OBJ_FLAG_FLOATING)) continue;
 2087              		.loc 1 1043 0 is_stmt 1
 2088 0168 AB68     		ldr	r3, [r5, #8]
 2089 016a 1B68     		ldr	r3, [r3]
 2090 016c 53F82460 		ldr	r6, [r3, r4, lsl #2]
 2091              	.LVL230:
1044:Drivers/lvgl/lvgl/src/core/lv_obj_pos.c **** 
 2092              		.loc 1 1044 0
 2093 0170 1E49     		ldr	r1, .L123
 2094 0172 3046     		mov	r0, r6
 2095 0174 FFF7FEFF 		bl	lv_obj_has_flag_any
 2096              	.LVL231:
 2097 0178 0028     		cmp	r0, #0
 2098 017a F2D1     		bne	.L110
1046:Drivers/lvgl/lvgl/src/core/lv_obj_pos.c ****                 lv_align_t align = lv_obj_get_style_align(child, 0);
 2099              		.loc 1 1046 0
 2100 017c 3046     		mov	r0, r6
 2101 017e FFF7FEFF 		bl	lv_obj_is_layout_positioned
 2102              	.LVL232:
 2103 0182 0028     		cmp	r0, #0
 2104 0184 D4D0     		beq	.L122
1065:Drivers/lvgl/lvgl/src/core/lv_obj_pos.c ****             }
 2105              		.loc 1 1065 0
 2106 0186 B6F91800 		ldrsh	r0, [r6, #24]
 2107 018a B5F91430 		ldrsh	r3, [r5, #20]
 2108 018e C01A     		subs	r0, r0, r3
 2109 0190 0130     		adds	r0, r0, #1
 2110 0192 8045     		cmp	r8, r0
 2111 0194 B8BF     		it	lt
 2112 0196 8046     		movlt	r8, r0
 2113              	.LVL233:
 2114 0198 0FFA88F8 		sxth	r8, r8
 2115              	.LVL234:
 2116 019c E1E7     		b	.L110
 2117              	.L112:
 2118              	.LVL235:
 2119              	.LBB295:
 2120              	.LBB291:
 2121              	.LBB292:
  45:Drivers/lvgl/lvgl/src/core/lv_obj_style_gen.h ****     return (lv_coord_t)v.num;
 2122              		.loc 2 45 0
 2123 019e 0822     		movs	r2, #8
 2124 01a0 0021     		movs	r1, #0
 2125 01a2 3046     		mov	r0, r6
 2126 01a4 FFF7FEFF 		bl	lv_obj_get_style_prop
ARM GAS  /tmp/cc3JQQuJ.s 			page 74


 2127              	.LVL236:
  46:Drivers/lvgl/lvgl/src/core/lv_obj_style_gen.h **** }
 2128              		.loc 2 46 0
 2129 01a8 00B2     		sxth	r0, r0
 2130              	.LVL237:
 2131              	.LBE292:
 2132              	.LBE291:
1059:Drivers/lvgl/lvgl/src/core/lv_obj_pos.c ****                             child_res = LV_MAX(child_res, lv_area_get_width(&child->coords) + pad_l
 2133              		.loc 1 1059 0
 2134 01aa 0028     		cmp	r0, #0
 2135 01ac D9D1     		bne	.L110
 2136              	.LVL238:
 2137              	.LBB293:
 2138              	.LBB294:
 125:Drivers/lvgl/lvgl/src/core/../misc/../font/../misc/lv_area.h **** }
 2139              		.loc 3 125 0
 2140 01ae 338B     		ldrh	r3, [r6, #24]
 2141 01b0 B28A     		ldrh	r2, [r6, #20]
 2142 01b2 9B1A     		subs	r3, r3, r2
 2143 01b4 9BB2     		uxth	r3, r3
 2144 01b6 0133     		adds	r3, r3, #1
 2145 01b8 9BB2     		uxth	r3, r3
 2146              	.LVL239:
 2147              	.LBE294:
 2148              	.LBE293:
1060:Drivers/lvgl/lvgl/src/core/lv_obj_pos.c ****                         }
 2149              		.loc 1 1060 0
 2150 01ba 009A     		ldr	r2, [sp]
 2151 01bc 02FA83F2 		sxtah	r2, r2, r3
 2152 01c0 9045     		cmp	r8, r2
 2153 01c2 CEDC     		bgt	.L110
1060:Drivers/lvgl/lvgl/src/core/lv_obj_pos.c ****                         }
 2154              		.loc 1 1060 0 is_stmt 0 discriminator 1
 2155 01c4 3B44     		add	r3, r3, r7
 2156 01c6 0FFA83F8 		sxth	r8, r3
 2157              	.LVL240:
 2158 01ca CAE7     		b	.L110
 2159              	.LVL241:
 2160              	.L121:
 2161              	.LBE295:
 2162              	.LBE296:
1069:Drivers/lvgl/lvgl/src/core/lv_obj_pos.c ****             child_res += pad_right;
 2163              		.loc 1 1069 0 is_stmt 1
 2164 01cc 084B     		ldr	r3, .L123+4
 2165 01ce 9845     		cmp	r8, r3
 2166 01d0 02D0     		beq	.L109
1070:Drivers/lvgl/lvgl/src/core/lv_obj_pos.c ****         }
 2167              		.loc 1 1070 0
 2168 01d2 D844     		add	r8, r8, fp
 2169              	.LVL242:
 2170 01d4 0FFA88F8 		sxth	r8, r8
 2171              	.LVL243:
 2172              	.L109:
1074:Drivers/lvgl/lvgl/src/core/lv_obj_pos.c ****     else return LV_MAX(child_res, self_w);
 2173              		.loc 1 1074 0
 2174 01d8 054B     		ldr	r3, .L123+4
 2175 01da 9845     		cmp	r8, r3
ARM GAS  /tmp/cc3JQQuJ.s 			page 75


 2176 01dc 02D0     		beq	.L116
1075:Drivers/lvgl/lvgl/src/core/lv_obj_pos.c **** }
 2177              		.loc 1 1075 0
 2178 01de C245     		cmp	r10, r8
 2179 01e0 B8BF     		it	lt
 2180 01e2 C246     		movlt	r10, r8
 2181              	.LVL244:
 2182              	.L116:
1076:Drivers/lvgl/lvgl/src/core/lv_obj_pos.c **** 
 2183              		.loc 1 1076 0
 2184 01e4 5046     		mov	r0, r10
 2185 01e6 03B0     		add	sp, sp, #12
 2186              	.LCFI44:
 2187              		.cfi_def_cfa_offset 36
 2188              	.LVL245:
 2189              		@ sp needed
 2190 01e8 BDE8F08F 		pop	{r4, r5, r6, r7, r8, r9, r10, fp, pc}
 2191              	.LVL246:
 2192              	.L124:
 2193              		.align	2
 2194              	.L123:
 2195 01ec 01000400 		.word	262145
 2196 01f0 01E0FFFF 		.word	-8191
 2197              		.cfi_endproc
 2198              	.LFE211:
 2200              		.section	.text.lv_obj_get_self_height,"ax",%progbits
 2201              		.align	1
 2202              		.global	lv_obj_get_self_height
 2203              		.syntax unified
 2204              		.thumb
 2205              		.thumb_func
 2206              		.fpu fpv5-d16
 2208              	lv_obj_get_self_height:
 2209              	.LFB195:
 613:Drivers/lvgl/lvgl/src/core/lv_obj_pos.c ****     lv_point_t p = {LV_COORD_MIN, 0};
 2210              		.loc 1 613 0
 2211              		.cfi_startproc
 2212              		@ args = 0, pretend = 0, frame = 8
 2213              		@ frame_needed = 0, uses_anonymous_args = 0
 2214              	.LVL247:
 2215 0000 00B5     		push	{lr}
 2216              	.LCFI45:
 2217              		.cfi_def_cfa_offset 4
 2218              		.cfi_offset 14, -4
 2219 0002 83B0     		sub	sp, sp, #12
 2220              	.LCFI46:
 2221              		.cfi_def_cfa_offset 16
 614:Drivers/lvgl/lvgl/src/core/lv_obj_pos.c ****     lv_event_send((lv_obj_t *)obj, LV_EVENT_GET_SELF_SIZE, &p);
 2222              		.loc 1 614 0
 2223 0004 4EF20103 		movw	r3, #57345
 2224 0008 ADF80430 		strh	r3, [sp, #4]	@ movhi
 2225 000c 0023     		movs	r3, #0
 2226 000e ADF80630 		strh	r3, [sp, #6]	@ movhi
 615:Drivers/lvgl/lvgl/src/core/lv_obj_pos.c ****     return p.y;
 2227              		.loc 1 615 0
 2228 0012 01AA     		add	r2, sp, #4
 2229 0014 2C21     		movs	r1, #44
ARM GAS  /tmp/cc3JQQuJ.s 			page 76


 2230 0016 FFF7FEFF 		bl	lv_event_send
 2231              	.LVL248:
 617:Drivers/lvgl/lvgl/src/core/lv_obj_pos.c **** 
 2232              		.loc 1 617 0
 2233 001a BDF90600 		ldrsh	r0, [sp, #6]
 2234 001e 03B0     		add	sp, sp, #12
 2235              	.LCFI47:
 2236              		.cfi_def_cfa_offset 4
 2237              		@ sp needed
 2238 0020 5DF804FB 		ldr	pc, [sp], #4
 2239              		.cfi_endproc
 2240              	.LFE195:
 2242              		.section	.text.calc_content_height,"ax",%progbits
 2243              		.align	1
 2244              		.syntax unified
 2245              		.thumb
 2246              		.thumb_func
 2247              		.fpu fpv5-d16
 2249              	calc_content_height:
 2250              	.LFB212:
1079:Drivers/lvgl/lvgl/src/core/lv_obj_pos.c ****     lv_obj_scroll_to_y(obj, 0, LV_ANIM_OFF);
 2251              		.loc 1 1079 0
 2252              		.cfi_startproc
 2253              		@ args = 0, pretend = 0, frame = 8
 2254              		@ frame_needed = 0, uses_anonymous_args = 0
 2255              	.LVL249:
 2256 0000 2DE9F04F 		push	{r4, r5, r6, r7, r8, r9, r10, fp, lr}
 2257              	.LCFI48:
 2258              		.cfi_def_cfa_offset 36
 2259              		.cfi_offset 4, -36
 2260              		.cfi_offset 5, -32
 2261              		.cfi_offset 6, -28
 2262              		.cfi_offset 7, -24
 2263              		.cfi_offset 8, -20
 2264              		.cfi_offset 9, -16
 2265              		.cfi_offset 10, -12
 2266              		.cfi_offset 11, -8
 2267              		.cfi_offset 14, -4
 2268 0004 83B0     		sub	sp, sp, #12
 2269              	.LCFI49:
 2270              		.cfi_def_cfa_offset 48
 2271 0006 0646     		mov	r6, r0
1080:Drivers/lvgl/lvgl/src/core/lv_obj_pos.c **** 
 2272              		.loc 1 1080 0
 2273 0008 0022     		movs	r2, #0
 2274 000a 1146     		mov	r1, r2
 2275 000c FFF7FEFF 		bl	lv_obj_scroll_to_y
 2276              	.LVL250:
 2277              	.LBB297:
 2278              	.LBB298:
 255:Drivers/lvgl/lvgl/src/core/lv_obj_style_gen.h ****     return (lv_coord_t)v.num;
 2279              		.loc 2 255 0
 2280 0010 3222     		movs	r2, #50
 2281 0012 0021     		movs	r1, #0
 2282 0014 3046     		mov	r0, r6
 2283 0016 FFF7FEFF 		bl	lv_obj_get_style_prop
 2284              	.LVL251:
ARM GAS  /tmp/cc3JQQuJ.s 			page 77


 2285 001a 0746     		mov	r7, r0
 2286              	.LVL252:
 2287              	.LBE298:
 2288              	.LBE297:
 2289              	.LBB299:
 2290              	.LBB300:
 105:Drivers/lvgl/lvgl/src/core/lv_obj_style_gen.h ****     return (lv_coord_t)v.num;
 2291              		.loc 2 105 0
 2292 001c 1022     		movs	r2, #16
 2293 001e 0021     		movs	r1, #0
 2294 0020 3046     		mov	r0, r6
 2295 0022 FFF7FEFF 		bl	lv_obj_get_style_prop
 2296              	.LVL253:
 2297              	.LBE300:
 2298              	.LBE299:
1083:Drivers/lvgl/lvgl/src/core/lv_obj_pos.c ****     lv_coord_t pad_bottom = lv_obj_get_style_pad_bottom(obj, LV_PART_MAIN) + border_width;
 2299              		.loc 1 1083 0
 2300 0026 BFB2     		uxth	r7, r7
 2301 0028 17FA80F0 		uxtah	r0, r7, r0
 2302 002c 1FFA80FB 		uxth	fp, r0
 2303 0030 0FFA8BF3 		sxth	r3, fp
 2304 0034 0193     		str	r3, [sp, #4]
 2305              	.LVL254:
 2306              	.LBB301:
 2307              	.LBB302:
 111:Drivers/lvgl/lvgl/src/core/lv_obj_style_gen.h ****     return (lv_coord_t)v.num;
 2308              		.loc 2 111 0
 2309 0036 1122     		movs	r2, #17
 2310 0038 0021     		movs	r1, #0
 2311 003a 3046     		mov	r0, r6
 2312 003c FFF7FEFF 		bl	lv_obj_get_style_prop
 2313              	.LVL255:
 2314              	.LBE302:
 2315              	.LBE301:
1084:Drivers/lvgl/lvgl/src/core/lv_obj_pos.c **** 
 2316              		.loc 1 1084 0
 2317 0040 17FA80F7 		uxtah	r7, r7, r0
 2318 0044 BFB2     		uxth	r7, r7
 2319              	.LVL256:
1087:Drivers/lvgl/lvgl/src/core/lv_obj_pos.c **** 
 2320              		.loc 1 1087 0
 2321 0046 3046     		mov	r0, r6
 2322 0048 FFF7FEFF 		bl	lv_obj_get_self_height
 2323              	.LVL257:
 2324 004c 1BFA80FA 		uxtah	r10, fp, r0
 2325 0050 17FA8AFA 		uxtah	r10, r7, r10
 2326 0054 0FFA8AFA 		sxth	r10, r10
 2327              	.LVL258:
1091:Drivers/lvgl/lvgl/src/core/lv_obj_pos.c ****     for(i = 0; i < child_cnt; i++) {
 2328              		.loc 1 1091 0
 2329 0058 3046     		mov	r0, r6
 2330 005a FFF7FEFF 		bl	lv_obj_get_child_cnt
 2331              	.LVL259:
 2332 005e 8146     		mov	r9, r0
 2333              	.LVL260:
1092:Drivers/lvgl/lvgl/src/core/lv_obj_pos.c ****         lv_obj_t * child = obj->spec_attr->children[i];
 2334              		.loc 1 1092 0
ARM GAS  /tmp/cc3JQQuJ.s 			page 78


 2335 0060 0024     		movs	r4, #0
1089:Drivers/lvgl/lvgl/src/core/lv_obj_pos.c ****     uint32_t i;
 2336              		.loc 1 1089 0
 2337 0062 DFF8B080 		ldr	r8, .L138+4
1092:Drivers/lvgl/lvgl/src/core/lv_obj_pos.c ****         lv_obj_t * child = obj->spec_attr->children[i];
 2338              		.loc 1 1092 0
 2339 0066 13E0     		b	.L128
 2340              	.LVL261:
 2341              	.L137:
 2342              	.LBB303:
 2343              	.LBB304:
 2344              	.LBB305:
 2345              	.LBB306:
  51:Drivers/lvgl/lvgl/src/core/lv_obj_style_gen.h ****     return (lv_align_t)v.num;
 2346              		.loc 2 51 0
 2347 0068 0922     		movs	r2, #9
 2348 006a 0021     		movs	r1, #0
 2349 006c 2846     		mov	r0, r5
 2350 006e FFF7FEFF 		bl	lv_obj_get_style_prop
 2351              	.LVL262:
 2352              	.LBE306:
 2353              	.LBE305:
1099:Drivers/lvgl/lvgl/src/core/lv_obj_pos.c ****                 case LV_ALIGN_DEFAULT:
 2354              		.loc 1 1099 0
 2355 0072 C0B2     		uxtb	r0, r0
 2356 0074 0328     		cmp	r0, #3
 2357 0076 28D8     		bhi	.L131
1105:Drivers/lvgl/lvgl/src/core/lv_obj_pos.c ****                     break;
 2358              		.loc 1 1105 0
 2359 0078 B5F91A30 		ldrsh	r3, [r5, #26]
 2360 007c B6F91620 		ldrsh	r2, [r6, #22]
 2361 0080 9B1A     		subs	r3, r3, r2
 2362 0082 0133     		adds	r3, r3, #1
 2363 0084 9845     		cmp	r8, r3
 2364 0086 B8BF     		it	lt
 2365 0088 9846     		movlt	r8, r3
 2366              	.LVL263:
 2367 008a 0FFA88F8 		sxth	r8, r8
 2368              	.LVL264:
 2369              	.L129:
 2370              	.LBE304:
 2371              	.LBE303:
1092:Drivers/lvgl/lvgl/src/core/lv_obj_pos.c ****         lv_obj_t * child = obj->spec_attr->children[i];
 2372              		.loc 1 1092 0 discriminator 2
 2373 008e 0134     		adds	r4, r4, #1
 2374              	.LVL265:
 2375              	.L128:
1092:Drivers/lvgl/lvgl/src/core/lv_obj_pos.c ****         lv_obj_t * child = obj->spec_attr->children[i];
 2376              		.loc 1 1092 0 is_stmt 0 discriminator 1
 2377 0090 4C45     		cmp	r4, r9
 2378 0092 31D2     		bcs	.L136
 2379              	.LBB312:
1093:Drivers/lvgl/lvgl/src/core/lv_obj_pos.c ****         if(lv_obj_has_flag_any(child,  LV_OBJ_FLAG_HIDDEN | LV_OBJ_FLAG_FLOATING)) continue;
 2380              		.loc 1 1093 0 is_stmt 1
 2381 0094 B368     		ldr	r3, [r6, #8]
 2382 0096 1B68     		ldr	r3, [r3]
 2383 0098 53F82450 		ldr	r5, [r3, r4, lsl #2]
ARM GAS  /tmp/cc3JQQuJ.s 			page 79


 2384              	.LVL266:
1094:Drivers/lvgl/lvgl/src/core/lv_obj_pos.c **** 
 2385              		.loc 1 1094 0
 2386 009c 1C49     		ldr	r1, .L138
 2387 009e 2846     		mov	r0, r5
 2388 00a0 FFF7FEFF 		bl	lv_obj_has_flag_any
 2389              	.LVL267:
 2390 00a4 0028     		cmp	r0, #0
 2391 00a6 F2D1     		bne	.L129
1097:Drivers/lvgl/lvgl/src/core/lv_obj_pos.c ****             lv_align_t align = lv_obj_get_style_align(child, 0);
 2392              		.loc 1 1097 0
 2393 00a8 2846     		mov	r0, r5
 2394 00aa FFF7FEFF 		bl	lv_obj_is_layout_positioned
 2395              	.LVL268:
 2396 00ae 0028     		cmp	r0, #0
 2397 00b0 DAD0     		beq	.L137
1117:Drivers/lvgl/lvgl/src/core/lv_obj_pos.c ****         }
 2398              		.loc 1 1117 0
 2399 00b2 B5F91A00 		ldrsh	r0, [r5, #26]
 2400 00b6 B6F91630 		ldrsh	r3, [r6, #22]
 2401 00ba C01A     		subs	r0, r0, r3
 2402 00bc 0130     		adds	r0, r0, #1
 2403 00be 8045     		cmp	r8, r0
 2404 00c0 B8BF     		it	lt
 2405 00c2 8046     		movlt	r8, r0
 2406              	.LVL269:
 2407 00c4 0FFA88F8 		sxth	r8, r8
 2408              	.LVL270:
 2409 00c8 E1E7     		b	.L129
 2410              	.L131:
 2411              	.LVL271:
 2412              	.LBB311:
 2413              	.LBB307:
 2414              	.LBB308:
  45:Drivers/lvgl/lvgl/src/core/lv_obj_style_gen.h ****     return (lv_coord_t)v.num;
 2415              		.loc 2 45 0
 2416 00ca 0822     		movs	r2, #8
 2417 00cc 0021     		movs	r1, #0
 2418 00ce 2846     		mov	r0, r5
 2419 00d0 FFF7FEFF 		bl	lv_obj_get_style_prop
 2420              	.LVL272:
  46:Drivers/lvgl/lvgl/src/core/lv_obj_style_gen.h **** }
 2421              		.loc 2 46 0
 2422 00d4 00B2     		sxth	r0, r0
 2423              	.LVL273:
 2424              	.LBE308:
 2425              	.LBE307:
1110:Drivers/lvgl/lvgl/src/core/lv_obj_pos.c ****                         child_res = LV_MAX(child_res, lv_area_get_height(&child->coords) + pad_top)
 2426              		.loc 1 1110 0
 2427 00d6 0028     		cmp	r0, #0
 2428 00d8 D9D1     		bne	.L129
 2429              	.LVL274:
 2430              	.LBB309:
 2431              	.LBB310:
 2432              		.loc 3 135 0
 2433 00da 6B8B     		ldrh	r3, [r5, #26]
 2434 00dc EA8A     		ldrh	r2, [r5, #22]
ARM GAS  /tmp/cc3JQQuJ.s 			page 80


 2435 00de 9B1A     		subs	r3, r3, r2
 2436 00e0 9BB2     		uxth	r3, r3
 2437 00e2 0133     		adds	r3, r3, #1
 2438 00e4 9BB2     		uxth	r3, r3
 2439              	.LVL275:
 2440              	.LBE310:
 2441              	.LBE309:
1111:Drivers/lvgl/lvgl/src/core/lv_obj_pos.c ****                     }
 2442              		.loc 1 1111 0
 2443 00e6 019A     		ldr	r2, [sp, #4]
 2444 00e8 02FA83F2 		sxtah	r2, r2, r3
 2445 00ec 9045     		cmp	r8, r2
 2446 00ee CEDC     		bgt	.L129
1111:Drivers/lvgl/lvgl/src/core/lv_obj_pos.c ****                     }
 2447              		.loc 1 1111 0 is_stmt 0 discriminator 1
 2448 00f0 5B44     		add	r3, r3, fp
 2449 00f2 0FFA83F8 		sxth	r8, r3
 2450              	.LVL276:
 2451 00f6 CAE7     		b	.L129
 2452              	.LVL277:
 2453              	.L136:
 2454              	.LBE311:
 2455              	.LBE312:
1121:Drivers/lvgl/lvgl/src/core/lv_obj_pos.c ****         child_res += pad_bottom;
 2456              		.loc 1 1121 0 is_stmt 1
 2457 00f8 064B     		ldr	r3, .L138+4
 2458 00fa 9845     		cmp	r8, r3
 2459 00fc 04D0     		beq	.L134
1122:Drivers/lvgl/lvgl/src/core/lv_obj_pos.c ****         return LV_MAX(child_res, self_h);
 2460              		.loc 1 1122 0
 2461 00fe 4744     		add	r7, r7, r8
 2462              	.LVL278:
 2463 0100 3FB2     		sxth	r7, r7
 2464              	.LVL279:
1123:Drivers/lvgl/lvgl/src/core/lv_obj_pos.c ****     }
 2465              		.loc 1 1123 0
 2466 0102 BA45     		cmp	r10, r7
 2467 0104 B8BF     		it	lt
 2468 0106 BA46     		movlt	r10, r7
 2469              	.LVL280:
 2470              	.L134:
1129:Drivers/lvgl/lvgl/src/core/lv_obj_pos.c **** 
 2471              		.loc 1 1129 0
 2472 0108 5046     		mov	r0, r10
 2473 010a 03B0     		add	sp, sp, #12
 2474              	.LCFI50:
 2475              		.cfi_def_cfa_offset 36
 2476              		@ sp needed
 2477 010c BDE8F08F 		pop	{r4, r5, r6, r7, r8, r9, r10, fp, pc}
 2478              	.LVL281:
 2479              	.L139:
 2480              		.align	2
 2481              	.L138:
 2482 0110 01000400 		.word	262145
 2483 0114 01E0FFFF 		.word	-8191
 2484              		.cfi_endproc
 2485              	.LFE212:
ARM GAS  /tmp/cc3JQQuJ.s 			page 81


 2487              		.section	.text.lv_obj_refresh_self_size,"ax",%progbits
 2488              		.align	1
 2489              		.global	lv_obj_refresh_self_size
 2490              		.syntax unified
 2491              		.thumb
 2492              		.thumb_func
 2493              		.fpu fpv5-d16
 2495              	lv_obj_refresh_self_size:
 2496              	.LFB196:
 620:Drivers/lvgl/lvgl/src/core/lv_obj_pos.c ****     lv_coord_t w_set = lv_obj_get_style_width(obj, LV_PART_MAIN);
 2497              		.loc 1 620 0
 2498              		.cfi_startproc
 2499              		@ args = 0, pretend = 0, frame = 0
 2500              		@ frame_needed = 0, uses_anonymous_args = 0
 2501              	.LVL282:
 2502 0000 38B5     		push	{r3, r4, r5, lr}
 2503              	.LCFI51:
 2504              		.cfi_def_cfa_offset 16
 2505              		.cfi_offset 3, -16
 2506              		.cfi_offset 4, -12
 2507              		.cfi_offset 5, -8
 2508              		.cfi_offset 14, -4
 2509 0002 0446     		mov	r4, r0
 2510              	.LVL283:
 2511              	.LBB313:
 2512              	.LBB314:
   3:Drivers/lvgl/lvgl/src/core/lv_obj_style_gen.h ****     return (lv_coord_t)v.num;
 2513              		.loc 2 3 0
 2514 0004 0122     		movs	r2, #1
 2515 0006 0021     		movs	r1, #0
 2516 0008 FFF7FEFF 		bl	lv_obj_get_style_prop
 2517              	.LVL284:
   4:Drivers/lvgl/lvgl/src/core/lv_obj_style_gen.h **** }
 2518              		.loc 2 4 0
 2519 000c 05B2     		sxth	r5, r0
 2520              	.LVL285:
 2521              	.LBE314:
 2522              	.LBE313:
 2523              	.LBB315:
 2524              	.LBB316:
  21:Drivers/lvgl/lvgl/src/core/lv_obj_style_gen.h ****     return (lv_coord_t)v.num;
 2525              		.loc 2 21 0
 2526 000e 0422     		movs	r2, #4
 2527 0010 0021     		movs	r1, #0
 2528 0012 2046     		mov	r0, r4
 2529 0014 FFF7FEFF 		bl	lv_obj_get_style_prop
 2530              	.LVL286:
  22:Drivers/lvgl/lvgl/src/core/lv_obj_style_gen.h **** }
 2531              		.loc 2 22 0
 2532 0018 00B2     		sxth	r0, r0
 2533              	.LVL287:
 2534              	.LBE316:
 2535              	.LBE315:
 623:Drivers/lvgl/lvgl/src/core/lv_obj_pos.c **** 
 2536              		.loc 1 623 0
 2537 001a 42F2D173 		movw	r3, #10193
 2538 001e 9D42     		cmp	r5, r3
ARM GAS  /tmp/cc3JQQuJ.s 			page 82


 2539 0020 18BF     		it	ne
 2540 0022 9842     		cmpne	r0, r3
 2541 0024 01D0     		beq	.L144
 2542 0026 0020     		movs	r0, #0
 2543              	.L141:
 627:Drivers/lvgl/lvgl/src/core/lv_obj_pos.c **** 
 2544              		.loc 1 627 0
 2545 0028 38BD     		pop	{r3, r4, r5, pc}
 2546              	.LVL288:
 2547              	.L144:
 625:Drivers/lvgl/lvgl/src/core/lv_obj_pos.c ****     return true;
 2548              		.loc 1 625 0
 2549 002a 2046     		mov	r0, r4
 2550 002c FFF7FEFF 		bl	lv_obj_mark_layout_as_dirty
 2551              	.LVL289:
 626:Drivers/lvgl/lvgl/src/core/lv_obj_pos.c **** }
 2552              		.loc 1 626 0
 2553 0030 0120     		movs	r0, #1
 2554 0032 F9E7     		b	.L141
 2555              		.cfi_endproc
 2556              	.LFE196:
 2558              		.section	.text.lv_obj_move_children_by,"ax",%progbits
 2559              		.align	1
 2560              		.global	lv_obj_move_children_by
 2561              		.syntax unified
 2562              		.thumb
 2563              		.thumb_func
 2564              		.fpu fpv5-d16
 2566              	lv_obj_move_children_by:
 2567              	.LFB199:
 783:Drivers/lvgl/lvgl/src/core/lv_obj_pos.c ****     uint32_t i;
 2568              		.loc 1 783 0
 2569              		.cfi_startproc
 2570              		@ args = 0, pretend = 0, frame = 0
 2571              		@ frame_needed = 0, uses_anonymous_args = 0
 2572              	.LVL290:
 2573 0000 2DE9F047 		push	{r4, r5, r6, r7, r8, r9, r10, lr}
 2574              	.LCFI52:
 2575              		.cfi_def_cfa_offset 32
 2576              		.cfi_offset 4, -32
 2577              		.cfi_offset 5, -28
 2578              		.cfi_offset 6, -24
 2579              		.cfi_offset 7, -20
 2580              		.cfi_offset 8, -16
 2581              		.cfi_offset 9, -12
 2582              		.cfi_offset 10, -8
 2583              		.cfi_offset 14, -4
 2584 0004 8246     		mov	r10, r0
 2585 0006 8846     		mov	r8, r1
 2586 0008 9146     		mov	r9, r2
 2587 000a 1F46     		mov	r7, r3
 785:Drivers/lvgl/lvgl/src/core/lv_obj_pos.c ****     for(i = 0; i < child_cnt; i++) {
 2588              		.loc 1 785 0
 2589 000c FFF7FEFF 		bl	lv_obj_get_child_cnt
 2590              	.LVL291:
 2591 0010 0646     		mov	r6, r0
 2592              	.LVL292:
ARM GAS  /tmp/cc3JQQuJ.s 			page 83


 786:Drivers/lvgl/lvgl/src/core/lv_obj_pos.c ****         lv_obj_t * child = obj->spec_attr->children[i];
 2593              		.loc 1 786 0
 2594 0012 0025     		movs	r5, #0
 2595 0014 16E0     		b	.L146
 2596              	.LVL293:
 2597              	.L147:
 2598              	.LBB317:
 789:Drivers/lvgl/lvgl/src/core/lv_obj_pos.c ****         child->coords.y1 += y_diff;
 2599              		.loc 1 789 0
 2600 0016 1FFA88F2 		uxth	r2, r8
 2601 001a A38A     		ldrh	r3, [r4, #20]
 2602 001c 1344     		add	r3, r3, r2
 2603 001e A382     		strh	r3, [r4, #20]	@ movhi
 790:Drivers/lvgl/lvgl/src/core/lv_obj_pos.c ****         child->coords.x2 += x_diff;
 2604              		.loc 1 790 0
 2605 0020 1FFA89F3 		uxth	r3, r9
 2606 0024 E18A     		ldrh	r1, [r4, #22]
 2607 0026 1944     		add	r1, r1, r3
 2608 0028 E182     		strh	r1, [r4, #22]	@ movhi
 791:Drivers/lvgl/lvgl/src/core/lv_obj_pos.c ****         child->coords.y2 += y_diff;
 2609              		.loc 1 791 0
 2610 002a 218B     		ldrh	r1, [r4, #24]
 2611 002c 0A44     		add	r2, r2, r1
 2612 002e 2283     		strh	r2, [r4, #24]	@ movhi
 792:Drivers/lvgl/lvgl/src/core/lv_obj_pos.c **** 
 2613              		.loc 1 792 0
 2614 0030 628B     		ldrh	r2, [r4, #26]
 2615 0032 1344     		add	r3, r3, r2
 2616 0034 6383     		strh	r3, [r4, #26]	@ movhi
 794:Drivers/lvgl/lvgl/src/core/lv_obj_pos.c ****     }
 2617              		.loc 1 794 0
 2618 0036 0023     		movs	r3, #0
 2619 0038 4A46     		mov	r2, r9
 2620 003a 4146     		mov	r1, r8
 2621 003c 2046     		mov	r0, r4
 2622 003e FFF7FEFF 		bl	lv_obj_move_children_by
 2623              	.LVL294:
 2624              	.L148:
 2625              	.LBE317:
 786:Drivers/lvgl/lvgl/src/core/lv_obj_pos.c ****         lv_obj_t * child = obj->spec_attr->children[i];
 2626              		.loc 1 786 0 discriminator 2
 2627 0042 0135     		adds	r5, r5, #1
 2628              	.LVL295:
 2629              	.L146:
 786:Drivers/lvgl/lvgl/src/core/lv_obj_pos.c ****         lv_obj_t * child = obj->spec_attr->children[i];
 2630              		.loc 1 786 0 is_stmt 0 discriminator 1
 2631 0044 B542     		cmp	r5, r6
 2632 0046 0ED2     		bcs	.L151
 2633              	.LBB318:
 787:Drivers/lvgl/lvgl/src/core/lv_obj_pos.c ****         if(ignore_floating && lv_obj_has_flag(child, LV_OBJ_FLAG_FLOATING)) continue;
 2634              		.loc 1 787 0 is_stmt 1
 2635 0048 DAF80830 		ldr	r3, [r10, #8]
 2636 004c 1B68     		ldr	r3, [r3]
 2637 004e 53F82540 		ldr	r4, [r3, r5, lsl #2]
 2638              	.LVL296:
 788:Drivers/lvgl/lvgl/src/core/lv_obj_pos.c ****         child->coords.x1 += x_diff;
 2639              		.loc 1 788 0
ARM GAS  /tmp/cc3JQQuJ.s 			page 84


 2640 0052 002F     		cmp	r7, #0
 2641 0054 DFD0     		beq	.L147
 788:Drivers/lvgl/lvgl/src/core/lv_obj_pos.c ****         child->coords.x1 += x_diff;
 2642              		.loc 1 788 0 is_stmt 0 discriminator 1
 2643 0056 4FF48021 		mov	r1, #262144
 2644 005a 2046     		mov	r0, r4
 2645 005c FFF7FEFF 		bl	lv_obj_has_flag
 2646              	.LVL297:
 2647 0060 0028     		cmp	r0, #0
 2648 0062 EED1     		bne	.L148
 2649 0064 D7E7     		b	.L147
 2650              	.LVL298:
 2651              	.L151:
 2652              	.LBE318:
 796:Drivers/lvgl/lvgl/src/core/lv_obj_pos.c **** 
 2653              		.loc 1 796 0 is_stmt 1
 2654 0066 BDE8F087 		pop	{r4, r5, r6, r7, r8, r9, r10, pc}
 2655              		.cfi_endproc
 2656              	.LFE199:
 2658              		.section	.text.lv_obj_transform_point,"ax",%progbits
 2659              		.align	1
 2660              		.global	lv_obj_transform_point
 2661              		.syntax unified
 2662              		.thumb
 2663              		.thumb_func
 2664              		.fpu fpv5-d16
 2666              	lv_obj_transform_point:
 2667              	.LFB200:
 799:Drivers/lvgl/lvgl/src/core/lv_obj_pos.c ****     if(obj) {
 2668              		.loc 1 799 0
 2669              		.cfi_startproc
 2670              		@ args = 0, pretend = 0, frame = 0
 2671              		@ frame_needed = 0, uses_anonymous_args = 0
 2672              	.LVL299:
 800:Drivers/lvgl/lvgl/src/core/lv_obj_pos.c ****         lv_layer_type_t layer_type = _lv_obj_get_layer_type(obj);
 2673              		.loc 1 800 0
 2674 0000 80B3     		cbz	r0, .L158
 799:Drivers/lvgl/lvgl/src/core/lv_obj_pos.c ****     if(obj) {
 2675              		.loc 1 799 0
 2676 0002 2DE9F041 		push	{r4, r5, r6, r7, r8, lr}
 2677              	.LCFI53:
 2678              		.cfi_def_cfa_offset 24
 2679              		.cfi_offset 4, -24
 2680              		.cfi_offset 5, -20
 2681              		.cfi_offset 6, -16
 2682              		.cfi_offset 7, -12
 2683              		.cfi_offset 8, -8
 2684              		.cfi_offset 14, -4
 2685 0006 0546     		mov	r5, r0
 2686 0008 1C46     		mov	r4, r3
 2687 000a 1646     		mov	r6, r2
 2688 000c 0F46     		mov	r7, r1
 2689              	.LBB319:
 801:Drivers/lvgl/lvgl/src/core/lv_obj_pos.c ****         bool do_tranf = layer_type == LV_LAYER_TYPE_TRANSFORM;
 2690              		.loc 1 801 0
 2691 000e FFF7FEFF 		bl	_lv_obj_get_layer_type
 2692              	.LVL300:
ARM GAS  /tmp/cc3JQQuJ.s 			page 85


 2693 0012 8046     		mov	r8, r0
 2694              	.LVL301:
 803:Drivers/lvgl/lvgl/src/core/lv_obj_pos.c ****             if(recursive) lv_obj_transform_point(lv_obj_get_parent(obj), p, recursive, inv);
 2695              		.loc 1 803 0
 2696 0014 94B1     		cbz	r4, .L154
 804:Drivers/lvgl/lvgl/src/core/lv_obj_pos.c ****             if(do_tranf) transform_point(obj, p, inv);
 2697              		.loc 1 804 0
 2698 0016 46B9     		cbnz	r6, .L161
 2699              	.LVL302:
 2700              	.L155:
 805:Drivers/lvgl/lvgl/src/core/lv_obj_pos.c ****         }
 2701              		.loc 1 805 0
 2702 0018 B8F1020F 		cmp	r8, #2
 2703 001c 11D1     		bne	.L152
 805:Drivers/lvgl/lvgl/src/core/lv_obj_pos.c ****         }
 2704              		.loc 1 805 0 is_stmt 0 discriminator 1
 2705 001e 2246     		mov	r2, r4
 2706 0020 3946     		mov	r1, r7
 2707 0022 2846     		mov	r0, r5
 2708 0024 FFF7FEFF 		bl	transform_point
 2709              	.LVL303:
 2710 0028 0BE0     		b	.L152
 2711              	.LVL304:
 2712              	.L161:
 804:Drivers/lvgl/lvgl/src/core/lv_obj_pos.c ****             if(do_tranf) transform_point(obj, p, inv);
 2713              		.loc 1 804 0 is_stmt 1 discriminator 1
 2714 002a 2846     		mov	r0, r5
 2715              	.LVL305:
 2716 002c FFF7FEFF 		bl	lv_obj_get_parent
 2717              	.LVL306:
 2718 0030 2346     		mov	r3, r4
 2719 0032 3246     		mov	r2, r6
 2720 0034 3946     		mov	r1, r7
 2721 0036 FFF7FEFF 		bl	lv_obj_transform_point
 2722              	.LVL307:
 2723 003a EDE7     		b	.L155
 2724              	.LVL308:
 2725              	.L154:
 808:Drivers/lvgl/lvgl/src/core/lv_obj_pos.c ****             if(recursive) lv_obj_transform_point(lv_obj_get_parent(obj), p, recursive, inv);
 2726              		.loc 1 808 0
 2727 003c 0228     		cmp	r0, #2
 2728 003e 02D0     		beq	.L162
 2729              	.LVL309:
 2730              	.L156:
 809:Drivers/lvgl/lvgl/src/core/lv_obj_pos.c ****         }
 2731              		.loc 1 809 0
 2732 0040 3EB9     		cbnz	r6, .L163
 2733              	.L152:
 2734              	.LBE319:
 812:Drivers/lvgl/lvgl/src/core/lv_obj_pos.c **** 
 2735              		.loc 1 812 0
 2736 0042 BDE8F081 		pop	{r4, r5, r6, r7, r8, pc}
 2737              	.LVL310:
 2738              	.L162:
 2739              	.LBB320:
 808:Drivers/lvgl/lvgl/src/core/lv_obj_pos.c ****             if(recursive) lv_obj_transform_point(lv_obj_get_parent(obj), p, recursive, inv);
 2740              		.loc 1 808 0 discriminator 1
ARM GAS  /tmp/cc3JQQuJ.s 			page 86


 2741 0046 2246     		mov	r2, r4
 2742 0048 3946     		mov	r1, r7
 2743 004a 2846     		mov	r0, r5
 2744              	.LVL311:
 2745 004c FFF7FEFF 		bl	transform_point
 2746              	.LVL312:
 2747 0050 F6E7     		b	.L156
 2748              	.L163:
 809:Drivers/lvgl/lvgl/src/core/lv_obj_pos.c ****         }
 2749              		.loc 1 809 0 discriminator 1
 2750 0052 2846     		mov	r0, r5
 2751 0054 FFF7FEFF 		bl	lv_obj_get_parent
 2752              	.LVL313:
 2753 0058 2346     		mov	r3, r4
 2754 005a 3246     		mov	r2, r6
 2755 005c 3946     		mov	r1, r7
 2756 005e FFF7FEFF 		bl	lv_obj_transform_point
 2757              	.LVL314:
 2758              	.LBE320:
 812:Drivers/lvgl/lvgl/src/core/lv_obj_pos.c **** 
 2759              		.loc 1 812 0 discriminator 1
 2760 0062 EEE7     		b	.L152
 2761              	.LVL315:
 2762              	.L158:
 2763              	.LCFI54:
 2764              		.cfi_def_cfa_offset 0
 2765              		.cfi_restore 4
 2766              		.cfi_restore 5
 2767              		.cfi_restore 6
 2768              		.cfi_restore 7
 2769              		.cfi_restore 8
 2770              		.cfi_restore 14
 2771 0064 7047     		bx	lr
 2772              		.cfi_endproc
 2773              	.LFE200:
 2775              		.section	.text.lv_obj_get_transformed_area,"ax",%progbits
 2776              		.align	1
 2777              		.global	lv_obj_get_transformed_area
 2778              		.syntax unified
 2779              		.thumb
 2780              		.thumb_func
 2781              		.fpu fpv5-d16
 2783              	lv_obj_get_transformed_area:
 2784              	.LFB201:
 816:Drivers/lvgl/lvgl/src/core/lv_obj_pos.c ****     lv_point_t p[4] = {
 2785              		.loc 1 816 0
 2786              		.cfi_startproc
 2787              		@ args = 0, pretend = 0, frame = 16
 2788              		@ frame_needed = 0, uses_anonymous_args = 0
 2789              	.LVL316:
 2790 0000 F0B5     		push	{r4, r5, r6, r7, lr}
 2791              	.LCFI55:
 2792              		.cfi_def_cfa_offset 20
 2793              		.cfi_offset 4, -20
 2794              		.cfi_offset 5, -16
 2795              		.cfi_offset 6, -12
 2796              		.cfi_offset 7, -8
ARM GAS  /tmp/cc3JQQuJ.s 			page 87


 2797              		.cfi_offset 14, -4
 2798 0002 85B0     		sub	sp, sp, #20
 2799              	.LCFI56:
 2800              		.cfi_def_cfa_offset 40
 2801 0004 0546     		mov	r5, r0
 2802 0006 0C46     		mov	r4, r1
 2803 0008 1646     		mov	r6, r2
 2804 000a 1F46     		mov	r7, r3
 818:Drivers/lvgl/lvgl/src/core/lv_obj_pos.c ****         {area->x1, area->y2},
 2805              		.loc 1 818 0
 2806 000c B1F90010 		ldrsh	r1, [r1]
 2807              	.LVL317:
 817:Drivers/lvgl/lvgl/src/core/lv_obj_pos.c ****         {area->x1, area->y1},
 2808              		.loc 1 817 0
 2809 0010 ADF80010 		strh	r1, [sp]	@ movhi
 818:Drivers/lvgl/lvgl/src/core/lv_obj_pos.c ****         {area->x1, area->y2},
 2810              		.loc 1 818 0
 2811 0014 B4F902E0 		ldrsh	lr, [r4, #2]
 817:Drivers/lvgl/lvgl/src/core/lv_obj_pos.c ****         {area->x1, area->y1},
 2812              		.loc 1 817 0
 2813 0018 ADF802E0 		strh	lr, [sp, #2]	@ movhi
 2814 001c ADF80410 		strh	r1, [sp, #4]	@ movhi
 819:Drivers/lvgl/lvgl/src/core/lv_obj_pos.c ****         {area->x2, area->y1},
 2815              		.loc 1 819 0
 2816 0020 B4F90610 		ldrsh	r1, [r4, #6]
 817:Drivers/lvgl/lvgl/src/core/lv_obj_pos.c ****         {area->x1, area->y1},
 2817              		.loc 1 817 0
 2818 0024 ADF80610 		strh	r1, [sp, #6]	@ movhi
 820:Drivers/lvgl/lvgl/src/core/lv_obj_pos.c ****         {area->x2, area->y2},
 2819              		.loc 1 820 0
 2820 0028 B4F904C0 		ldrsh	ip, [r4, #4]
 817:Drivers/lvgl/lvgl/src/core/lv_obj_pos.c ****         {area->x1, area->y1},
 2821              		.loc 1 817 0
 2822 002c ADF808C0 		strh	ip, [sp, #8]	@ movhi
 2823 0030 ADF80AE0 		strh	lr, [sp, #10]	@ movhi
 2824 0034 ADF80CC0 		strh	ip, [sp, #12]	@ movhi
 2825 0038 ADF80E10 		strh	r1, [sp, #14]	@ movhi
 824:Drivers/lvgl/lvgl/src/core/lv_obj_pos.c ****     lv_obj_transform_point(obj, &p[1], recursive, inv);
 2826              		.loc 1 824 0
 2827 003c 6946     		mov	r1, sp
 2828 003e FFF7FEFF 		bl	lv_obj_transform_point
 2829              	.LVL318:
 825:Drivers/lvgl/lvgl/src/core/lv_obj_pos.c ****     lv_obj_transform_point(obj, &p[2], recursive, inv);
 2830              		.loc 1 825 0
 2831 0042 3B46     		mov	r3, r7
 2832 0044 3246     		mov	r2, r6
 2833 0046 01A9     		add	r1, sp, #4
 2834 0048 2846     		mov	r0, r5
 2835 004a FFF7FEFF 		bl	lv_obj_transform_point
 2836              	.LVL319:
 826:Drivers/lvgl/lvgl/src/core/lv_obj_pos.c ****     lv_obj_transform_point(obj, &p[3], recursive, inv);
 2837              		.loc 1 826 0
 2838 004e 3B46     		mov	r3, r7
 2839 0050 3246     		mov	r2, r6
 2840 0052 02A9     		add	r1, sp, #8
 2841 0054 2846     		mov	r0, r5
 2842 0056 FFF7FEFF 		bl	lv_obj_transform_point
ARM GAS  /tmp/cc3JQQuJ.s 			page 88


 2843              	.LVL320:
 827:Drivers/lvgl/lvgl/src/core/lv_obj_pos.c **** 
 2844              		.loc 1 827 0
 2845 005a 3B46     		mov	r3, r7
 2846 005c 3246     		mov	r2, r6
 2847 005e 03A9     		add	r1, sp, #12
 2848 0060 2846     		mov	r0, r5
 2849 0062 FFF7FEFF 		bl	lv_obj_transform_point
 2850              	.LVL321:
 829:Drivers/lvgl/lvgl/src/core/lv_obj_pos.c ****     area->x2 = LV_MAX4(p[0].x, p[1].x, p[2].x, p[3].x);
 2851              		.loc 1 829 0
 2852 0066 BDF90C30 		ldrsh	r3, [sp, #12]
 2853 006a BDF90850 		ldrsh	r5, [sp, #8]
 2854              	.LVL322:
 2855 006e 1946     		mov	r1, r3
 2856 0070 AB42     		cmp	r3, r5
 2857 0072 A8BF     		it	ge
 2858 0074 2946     		movge	r1, r5
 2859 0076 BDF90420 		ldrsh	r2, [sp, #4]
 2860 007a BDF90000 		ldrsh	r0, [sp]
 2861 007e 1646     		mov	r6, r2
 2862 0080 8242     		cmp	r2, r0
 2863 0082 A8BF     		it	ge
 2864 0084 0646     		movge	r6, r0
 2865 0086 B142     		cmp	r1, r6
 2866 0088 A8BF     		it	ge
 2867 008a 3146     		movge	r1, r6
 2868 008c 2180     		strh	r1, [r4]	@ movhi
 830:Drivers/lvgl/lvgl/src/core/lv_obj_pos.c ****     area->y1 = LV_MIN4(p[0].y, p[1].y, p[2].y, p[3].y);
 2869              		.loc 1 830 0
 2870 008e AB42     		cmp	r3, r5
 2871 0090 B8BF     		it	lt
 2872 0092 2B46     		movlt	r3, r5
 2873 0094 8242     		cmp	r2, r0
 2874 0096 B8BF     		it	lt
 2875 0098 0246     		movlt	r2, r0
 2876 009a 9342     		cmp	r3, r2
 2877 009c B8BF     		it	lt
 2878 009e 1346     		movlt	r3, r2
 2879 00a0 A380     		strh	r3, [r4, #4]	@ movhi
 831:Drivers/lvgl/lvgl/src/core/lv_obj_pos.c ****     area->y2 = LV_MAX4(p[0].y, p[1].y, p[2].y, p[3].y);
 2880              		.loc 1 831 0
 2881 00a2 BDF90E30 		ldrsh	r3, [sp, #14]
 2882 00a6 BDF90A50 		ldrsh	r5, [sp, #10]
 2883 00aa 1946     		mov	r1, r3
 2884 00ac AB42     		cmp	r3, r5
 2885 00ae A8BF     		it	ge
 2886 00b0 2946     		movge	r1, r5
 2887 00b2 BDF90620 		ldrsh	r2, [sp, #6]
 2888 00b6 BDF90200 		ldrsh	r0, [sp, #2]
 2889 00ba 1646     		mov	r6, r2
 2890 00bc 8242     		cmp	r2, r0
 2891 00be A8BF     		it	ge
 2892 00c0 0646     		movge	r6, r0
 2893 00c2 B142     		cmp	r1, r6
 2894 00c4 A8BF     		it	ge
 2895 00c6 3146     		movge	r1, r6
ARM GAS  /tmp/cc3JQQuJ.s 			page 89


 2896 00c8 6180     		strh	r1, [r4, #2]	@ movhi
 832:Drivers/lvgl/lvgl/src/core/lv_obj_pos.c ****     lv_area_increase(area, 5, 5);
 2897              		.loc 1 832 0
 2898 00ca AB42     		cmp	r3, r5
 2899 00cc B8BF     		it	lt
 2900 00ce 2B46     		movlt	r3, r5
 2901 00d0 8242     		cmp	r2, r0
 2902 00d2 B8BF     		it	lt
 2903 00d4 0246     		movlt	r2, r0
 2904 00d6 9342     		cmp	r3, r2
 2905 00d8 B8BF     		it	lt
 2906 00da 1346     		movlt	r3, r2
 2907 00dc E380     		strh	r3, [r4, #6]	@ movhi
 833:Drivers/lvgl/lvgl/src/core/lv_obj_pos.c **** }
 2908              		.loc 1 833 0
 2909 00de 0522     		movs	r2, #5
 2910 00e0 1146     		mov	r1, r2
 2911 00e2 2046     		mov	r0, r4
 2912 00e4 FFF7FEFF 		bl	lv_area_increase
 2913              	.LVL323:
 834:Drivers/lvgl/lvgl/src/core/lv_obj_pos.c **** 
 2914              		.loc 1 834 0
 2915 00e8 05B0     		add	sp, sp, #20
 2916              	.LCFI57:
 2917              		.cfi_def_cfa_offset 20
 2918              		@ sp needed
 2919 00ea F0BD     		pop	{r4, r5, r6, r7, pc}
 2920              		.cfi_endproc
 2921              	.LFE201:
 2923              		.section	.text.lv_obj_area_is_visible,"ax",%progbits
 2924              		.align	1
 2925              		.global	lv_obj_area_is_visible
 2926              		.syntax unified
 2927              		.thumb
 2928              		.thumb_func
 2929              		.fpu fpv5-d16
 2931              	lv_obj_area_is_visible:
 2932              	.LFB204:
 869:Drivers/lvgl/lvgl/src/core/lv_obj_pos.c ****     if(lv_obj_has_flag(obj, LV_OBJ_FLAG_HIDDEN)) return false;
 2933              		.loc 1 869 0
 2934              		.cfi_startproc
 2935              		@ args = 0, pretend = 0, frame = 8
 2936              		@ frame_needed = 0, uses_anonymous_args = 0
 2937              	.LVL324:
 2938 0000 2DE9F041 		push	{r4, r5, r6, r7, r8, lr}
 2939              	.LCFI58:
 2940              		.cfi_def_cfa_offset 24
 2941              		.cfi_offset 4, -24
 2942              		.cfi_offset 5, -20
 2943              		.cfi_offset 6, -16
 2944              		.cfi_offset 7, -12
 2945              		.cfi_offset 8, -8
 2946              		.cfi_offset 14, -4
 2947 0004 82B0     		sub	sp, sp, #8
 2948              	.LCFI59:
 2949              		.cfi_def_cfa_offset 32
 2950 0006 0446     		mov	r4, r0
ARM GAS  /tmp/cc3JQQuJ.s 			page 90


 2951 0008 0E46     		mov	r6, r1
 870:Drivers/lvgl/lvgl/src/core/lv_obj_pos.c **** 
 2952              		.loc 1 870 0
 2953 000a 0121     		movs	r1, #1
 2954              	.LVL325:
 2955 000c FFF7FEFF 		bl	lv_obj_has_flag
 2956              	.LVL326:
 2957 0010 20B1     		cbz	r0, .L177
 2958 0012 0027     		movs	r7, #0
 2959              	.LVL327:
 2960              	.L167:
 916:Drivers/lvgl/lvgl/src/core/lv_obj_pos.c **** 
 2961              		.loc 1 916 0
 2962 0014 3846     		mov	r0, r7
 2963 0016 02B0     		add	sp, sp, #8
 2964              	.LCFI60:
 2965              		.cfi_remember_state
 2966              		.cfi_def_cfa_offset 24
 2967              		@ sp needed
 2968 0018 BDE8F081 		pop	{r4, r5, r6, r7, r8, pc}
 2969              	.LVL328:
 2970              	.L177:
 2971              	.LCFI61:
 2972              		.cfi_restore_state
 2973 001c 0746     		mov	r7, r0
 873:Drivers/lvgl/lvgl/src/core/lv_obj_pos.c ****     lv_disp_t * disp   = lv_obj_get_disp(obj_scr);
 2974              		.loc 1 873 0
 2975 001e 2046     		mov	r0, r4
 2976 0020 FFF7FEFF 		bl	lv_obj_get_screen
 2977              	.LVL329:
 2978 0024 0546     		mov	r5, r0
 2979              	.LVL330:
 874:Drivers/lvgl/lvgl/src/core/lv_obj_pos.c ****     if(obj_scr != lv_disp_get_scr_act(disp) &&
 2980              		.loc 1 874 0
 2981 0026 FFF7FEFF 		bl	lv_obj_get_disp
 2982              	.LVL331:
 2983 002a 8046     		mov	r8, r0
 2984              	.LVL332:
 875:Drivers/lvgl/lvgl/src/core/lv_obj_pos.c ****        obj_scr != lv_disp_get_scr_prev(disp) &&
 2985              		.loc 1 875 0
 2986 002c FFF7FEFF 		bl	lv_disp_get_scr_act
 2987              	.LVL333:
 2988 0030 8542     		cmp	r5, r0
 2989 0032 0ED0     		beq	.L168
 876:Drivers/lvgl/lvgl/src/core/lv_obj_pos.c ****        obj_scr != lv_disp_get_layer_top(disp) &&
 2990              		.loc 1 876 0 discriminator 1
 2991 0034 4046     		mov	r0, r8
 2992 0036 FFF7FEFF 		bl	lv_disp_get_scr_prev
 2993              	.LVL334:
 875:Drivers/lvgl/lvgl/src/core/lv_obj_pos.c ****        obj_scr != lv_disp_get_scr_prev(disp) &&
 2994              		.loc 1 875 0 discriminator 1
 2995 003a 8542     		cmp	r5, r0
 2996 003c 09D0     		beq	.L168
 877:Drivers/lvgl/lvgl/src/core/lv_obj_pos.c ****        obj_scr != lv_disp_get_layer_sys(disp)) {
 2997              		.loc 1 877 0
 2998 003e 4046     		mov	r0, r8
 2999 0040 FFF7FEFF 		bl	lv_disp_get_layer_top
ARM GAS  /tmp/cc3JQQuJ.s 			page 91


 3000              	.LVL335:
 876:Drivers/lvgl/lvgl/src/core/lv_obj_pos.c ****        obj_scr != lv_disp_get_layer_top(disp) &&
 3001              		.loc 1 876 0
 3002 0044 8542     		cmp	r5, r0
 3003 0046 04D0     		beq	.L168
 878:Drivers/lvgl/lvgl/src/core/lv_obj_pos.c ****         return false;
 3004              		.loc 1 878 0
 3005 0048 4046     		mov	r0, r8
 3006 004a FFF7FEFF 		bl	lv_disp_get_layer_sys
 3007              	.LVL336:
 877:Drivers/lvgl/lvgl/src/core/lv_obj_pos.c ****        obj_scr != lv_disp_get_layer_sys(disp)) {
 3008              		.loc 1 877 0
 3009 004e 8542     		cmp	r5, r0
 3010 0050 E0D1     		bne	.L167
 3011              	.L168:
 883:Drivers/lvgl/lvgl/src/core/lv_obj_pos.c ****         lv_area_t obj_coords;
 3012              		.loc 1 883 0
 3013 0052 4FF40021 		mov	r1, #524288
 3014 0056 2046     		mov	r0, r4
 3015 0058 FFF7FEFF 		bl	lv_obj_has_flag_any
 3016              	.LVL337:
 3017 005c E8B9     		cbnz	r0, .L169
 3018              	.LBB321:
 885:Drivers/lvgl/lvgl/src/core/lv_obj_pos.c ****         lv_area_copy(&obj_coords, &obj->coords);
 3019              		.loc 1 885 0
 3020 005e 2046     		mov	r0, r4
 3021 0060 FFF7FEFF 		bl	_lv_obj_get_ext_draw_size
 3022              	.LVL338:
 3023              	.LBB322:
 3024              	.LBB323:
 112:Drivers/lvgl/lvgl/src/core/../misc/../font/../misc/lv_area.h ****     dest->y1 = src->y1;
 3025              		.loc 3 112 0
 3026 0064 B4F91410 		ldrsh	r1, [r4, #20]
 113:Drivers/lvgl/lvgl/src/core/../misc/../font/../misc/lv_area.h ****     dest->x2 = src->x2;
 3027              		.loc 3 113 0
 3028 0068 B4F91620 		ldrsh	r2, [r4, #22]
 114:Drivers/lvgl/lvgl/src/core/../misc/../font/../misc/lv_area.h ****     dest->y2 = src->y2;
 3029              		.loc 3 114 0
 3030 006c B4F91830 		ldrsh	r3, [r4, #24]
 115:Drivers/lvgl/lvgl/src/core/../misc/../font/../misc/lv_area.h **** }
 3031              		.loc 3 115 0
 3032 0070 B4F91A50 		ldrsh	r5, [r4, #26]
 3033              	.LVL339:
 3034              	.LBE323:
 3035              	.LBE322:
 887:Drivers/lvgl/lvgl/src/core/lv_obj_pos.c ****         obj_coords.y1 -= ext_size;
 3036              		.loc 1 887 0
 3037 0074 80B2     		uxth	r0, r0
 3038 0076 091A     		subs	r1, r1, r0
 3039 0078 ADF80010 		strh	r1, [sp]	@ movhi
 888:Drivers/lvgl/lvgl/src/core/lv_obj_pos.c ****         obj_coords.x2 += ext_size;
 3040              		.loc 1 888 0
 3041 007c 121A     		subs	r2, r2, r0
 3042 007e ADF80220 		strh	r2, [sp, #2]	@ movhi
 889:Drivers/lvgl/lvgl/src/core/lv_obj_pos.c ****         obj_coords.y2 += ext_size;
 3043              		.loc 1 889 0
 3044 0082 0344     		add	r3, r3, r0
ARM GAS  /tmp/cc3JQQuJ.s 			page 92


 3045 0084 ADF80430 		strh	r3, [sp, #4]	@ movhi
 890:Drivers/lvgl/lvgl/src/core/lv_obj_pos.c **** 
 3046              		.loc 1 890 0
 3047 0088 2844     		add	r0, r0, r5
 3048              	.LVL340:
 3049 008a ADF80600 		strh	r0, [sp, #6]	@ movhi
 893:Drivers/lvgl/lvgl/src/core/lv_obj_pos.c ****     }
 3050              		.loc 1 893 0
 3051 008e 6A46     		mov	r2, sp
 3052 0090 3146     		mov	r1, r6
 3053 0092 3046     		mov	r0, r6
 3054 0094 FFF7FEFF 		bl	_lv_area_intersect
 3055              	.LVL341:
 3056 0098 50B1     		cbz	r0, .L178
 3057              	.L169:
 3058              	.LBE321:
 896:Drivers/lvgl/lvgl/src/core/lv_obj_pos.c **** 
 3059              		.loc 1 896 0
 3060 009a 0023     		movs	r3, #0
 3061 009c 0122     		movs	r2, #1
 3062 009e 3146     		mov	r1, r6
 3063 00a0 2046     		mov	r0, r4
 3064 00a2 FFF7FEFF 		bl	lv_obj_get_transformed_area
 3065              	.LVL342:
 900:Drivers/lvgl/lvgl/src/core/lv_obj_pos.c ****     while(par != NULL) {
 3066              		.loc 1 900 0
 3067 00a6 2046     		mov	r0, r4
 3068 00a8 FFF7FEFF 		bl	lv_obj_get_parent
 3069              	.LVL343:
 3070 00ac 0446     		mov	r4, r0
 3071              	.LVL344:
 901:Drivers/lvgl/lvgl/src/core/lv_obj_pos.c ****         /*If the parent is hidden then the child is hidden and won't be drawn*/
 3072              		.loc 1 901 0
 3073 00ae 05E0     		b	.L171
 3074              	.LVL345:
 3075              	.L178:
 3076              	.LBB324:
 893:Drivers/lvgl/lvgl/src/core/lv_obj_pos.c ****     }
 3077              		.loc 1 893 0 discriminator 1
 3078 00b0 0746     		mov	r7, r0
 3079 00b2 AFE7     		b	.L167
 3080              	.LVL346:
 3081              	.L172:
 3082              	.LBE324:
 912:Drivers/lvgl/lvgl/src/core/lv_obj_pos.c ****     }
 3083              		.loc 1 912 0
 3084 00b4 2046     		mov	r0, r4
 3085 00b6 FFF7FEFF 		bl	lv_obj_get_parent
 3086              	.LVL347:
 3087 00ba 0446     		mov	r4, r0
 3088              	.LVL348:
 3089              	.L171:
 901:Drivers/lvgl/lvgl/src/core/lv_obj_pos.c ****         /*If the parent is hidden then the child is hidden and won't be drawn*/
 3090              		.loc 1 901 0
 3091 00bc 14B3     		cbz	r4, .L179
 903:Drivers/lvgl/lvgl/src/core/lv_obj_pos.c **** 
 3092              		.loc 1 903 0
ARM GAS  /tmp/cc3JQQuJ.s 			page 93


 3093 00be 0121     		movs	r1, #1
 3094 00c0 2046     		mov	r0, r4
 3095 00c2 FFF7FEFF 		bl	lv_obj_has_flag
 3096              	.LVL349:
 3097 00c6 0028     		cmp	r0, #0
 3098 00c8 A4D1     		bne	.L167
 906:Drivers/lvgl/lvgl/src/core/lv_obj_pos.c ****             lv_area_t par_area = par->coords;
 3099              		.loc 1 906 0
 3100 00ca 4FF40021 		mov	r1, #524288
 3101 00ce 2046     		mov	r0, r4
 3102 00d0 FFF7FEFF 		bl	lv_obj_has_flag_any
 3103              	.LVL350:
 3104 00d4 0028     		cmp	r0, #0
 3105 00d6 EDD1     		bne	.L172
 3106              	.LBB325:
 907:Drivers/lvgl/lvgl/src/core/lv_obj_pos.c ****             lv_obj_get_transformed_area(par, &par_area, true, false);
 3107              		.loc 1 907 0
 3108 00d8 6D46     		mov	r5, sp
 3109 00da 04F11403 		add	r3, r4, #20
 3110 00de 93E80300 		ldm	r3, {r0, r1}
 3111 00e2 85E80300 		stm	r5, {r0, r1}
 908:Drivers/lvgl/lvgl/src/core/lv_obj_pos.c ****             if(!_lv_area_intersect(area, area, &par_area)) return false;
 3112              		.loc 1 908 0
 3113 00e6 0023     		movs	r3, #0
 3114 00e8 0122     		movs	r2, #1
 3115 00ea 2946     		mov	r1, r5
 3116 00ec 2046     		mov	r0, r4
 3117 00ee FFF7FEFF 		bl	lv_obj_get_transformed_area
 3118              	.LVL351:
 909:Drivers/lvgl/lvgl/src/core/lv_obj_pos.c ****         }
 3119              		.loc 1 909 0
 3120 00f2 2A46     		mov	r2, r5
 3121 00f4 3146     		mov	r1, r6
 3122 00f6 3046     		mov	r0, r6
 3123 00f8 FFF7FEFF 		bl	_lv_area_intersect
 3124              	.LVL352:
 3125 00fc 0028     		cmp	r0, #0
 3126 00fe D9D1     		bne	.L172
 909:Drivers/lvgl/lvgl/src/core/lv_obj_pos.c ****         }
 3127              		.loc 1 909 0 is_stmt 0 discriminator 1
 3128 0100 0746     		mov	r7, r0
 3129 0102 87E7     		b	.L167
 3130              	.LVL353:
 3131              	.L179:
 3132              	.LBE325:
 915:Drivers/lvgl/lvgl/src/core/lv_obj_pos.c **** }
 3133              		.loc 1 915 0 is_stmt 1
 3134 0104 0127     		movs	r7, #1
 3135 0106 85E7     		b	.L167
 3136              		.cfi_endproc
 3137              	.LFE204:
 3139              		.section	.text.lv_obj_invalidate_area,"ax",%progbits
 3140              		.align	1
 3141              		.global	lv_obj_invalidate_area
 3142              		.syntax unified
 3143              		.thumb
 3144              		.thumb_func
ARM GAS  /tmp/cc3JQQuJ.s 			page 94


 3145              		.fpu fpv5-d16
 3147              	lv_obj_invalidate_area:
 3148              	.LFB202:
 838:Drivers/lvgl/lvgl/src/core/lv_obj_pos.c ****     LV_ASSERT_OBJ(obj, MY_CLASS);
 3149              		.loc 1 838 0
 3150              		.cfi_startproc
 3151              		@ args = 0, pretend = 0, frame = 8
 3152              		@ frame_needed = 0, uses_anonymous_args = 0
 3153              	.LVL354:
 3154 0000 30B5     		push	{r4, r5, lr}
 3155              	.LCFI62:
 3156              		.cfi_def_cfa_offset 12
 3157              		.cfi_offset 4, -12
 3158              		.cfi_offset 5, -8
 3159              		.cfi_offset 14, -4
 3160 0002 83B0     		sub	sp, sp, #12
 3161              	.LCFI63:
 3162              		.cfi_def_cfa_offset 24
 3163 0004 0546     		mov	r5, r0
 3164 0006 0C46     		mov	r4, r1
 841:Drivers/lvgl/lvgl/src/core/lv_obj_pos.c ****     if(!lv_disp_is_invalidation_enabled(disp)) return;
 3165              		.loc 1 841 0
 3166 0008 FFF7FEFF 		bl	lv_obj_get_disp
 3167              	.LVL355:
 842:Drivers/lvgl/lvgl/src/core/lv_obj_pos.c **** 
 3168              		.loc 1 842 0
 3169 000c FFF7FEFF 		bl	lv_disp_is_invalidation_enabled
 3170              	.LVL356:
 3171 0010 08B9     		cbnz	r0, .L184
 3172              	.L180:
 849:Drivers/lvgl/lvgl/src/core/lv_obj_pos.c **** 
 3173              		.loc 1 849 0
 3174 0012 03B0     		add	sp, sp, #12
 3175              	.LCFI64:
 3176              		.cfi_remember_state
 3177              		.cfi_def_cfa_offset 12
 3178              		@ sp needed
 3179 0014 30BD     		pop	{r4, r5, pc}
 3180              	.LVL357:
 3181              	.L184:
 3182              	.LCFI65:
 3183              		.cfi_restore_state
 3184              	.LBB326:
 3185              	.LBB327:
 112:Drivers/lvgl/lvgl/src/core/../misc/../font/../misc/lv_area.h ****     dest->y1 = src->y1;
 3186              		.loc 3 112 0
 3187 0016 B4F90030 		ldrsh	r3, [r4]
 3188 001a ADF80030 		strh	r3, [sp]	@ movhi
 113:Drivers/lvgl/lvgl/src/core/../misc/../font/../misc/lv_area.h ****     dest->x2 = src->x2;
 3189              		.loc 3 113 0
 3190 001e B4F90230 		ldrsh	r3, [r4, #2]
 3191 0022 ADF80230 		strh	r3, [sp, #2]	@ movhi
 114:Drivers/lvgl/lvgl/src/core/../misc/../font/../misc/lv_area.h ****     dest->y2 = src->y2;
 3192              		.loc 3 114 0
 3193 0026 B4F90430 		ldrsh	r3, [r4, #4]
 3194 002a ADF80430 		strh	r3, [sp, #4]	@ movhi
 115:Drivers/lvgl/lvgl/src/core/../misc/../font/../misc/lv_area.h **** }
ARM GAS  /tmp/cc3JQQuJ.s 			page 95


 3195              		.loc 3 115 0
 3196 002e B4F90630 		ldrsh	r3, [r4, #6]
 3197 0032 ADF80630 		strh	r3, [sp, #6]	@ movhi
 3198              	.LVL358:
 3199              	.LBE327:
 3200              	.LBE326:
 846:Drivers/lvgl/lvgl/src/core/lv_obj_pos.c **** 
 3201              		.loc 1 846 0
 3202 0036 6946     		mov	r1, sp
 3203 0038 2846     		mov	r0, r5
 3204 003a FFF7FEFF 		bl	lv_obj_area_is_visible
 3205              	.LVL359:
 3206 003e 0028     		cmp	r0, #0
 3207 0040 E7D0     		beq	.L180
 848:Drivers/lvgl/lvgl/src/core/lv_obj_pos.c **** }
 3208              		.loc 1 848 0
 3209 0042 2846     		mov	r0, r5
 3210 0044 FFF7FEFF 		bl	lv_obj_get_disp
 3211              	.LVL360:
 3212 0048 6946     		mov	r1, sp
 3213 004a FFF7FEFF 		bl	_lv_inv_area
 3214              	.LVL361:
 3215 004e E0E7     		b	.L180
 3216              		.cfi_endproc
 3217              	.LFE202:
 3219              		.section	.text.lv_obj_invalidate,"ax",%progbits
 3220              		.align	1
 3221              		.global	lv_obj_invalidate
 3222              		.syntax unified
 3223              		.thumb
 3224              		.thumb_func
 3225              		.fpu fpv5-d16
 3227              	lv_obj_invalidate:
 3228              	.LFB203:
 852:Drivers/lvgl/lvgl/src/core/lv_obj_pos.c ****     LV_ASSERT_OBJ(obj, MY_CLASS);
 3229              		.loc 1 852 0
 3230              		.cfi_startproc
 3231              		@ args = 0, pretend = 0, frame = 8
 3232              		@ frame_needed = 0, uses_anonymous_args = 0
 3233              	.LVL362:
 3234 0000 30B5     		push	{r4, r5, lr}
 3235              	.LCFI66:
 3236              		.cfi_def_cfa_offset 12
 3237              		.cfi_offset 4, -12
 3238              		.cfi_offset 5, -8
 3239              		.cfi_offset 14, -4
 3240 0002 83B0     		sub	sp, sp, #12
 3241              	.LCFI67:
 3242              		.cfi_def_cfa_offset 24
 3243 0004 0446     		mov	r4, r0
 857:Drivers/lvgl/lvgl/src/core/lv_obj_pos.c ****     lv_area_copy(&obj_coords, &obj->coords);
 3244              		.loc 1 857 0
 3245 0006 FFF7FEFF 		bl	_lv_obj_get_ext_draw_size
 3246              	.LVL363:
 3247              	.LBB328:
 3248              	.LBB329:
 112:Drivers/lvgl/lvgl/src/core/../misc/../font/../misc/lv_area.h ****     dest->y1 = src->y1;
ARM GAS  /tmp/cc3JQQuJ.s 			page 96


 3249              		.loc 3 112 0
 3250 000a B4F91410 		ldrsh	r1, [r4, #20]
 113:Drivers/lvgl/lvgl/src/core/../misc/../font/../misc/lv_area.h ****     dest->x2 = src->x2;
 3251              		.loc 3 113 0
 3252 000e B4F91620 		ldrsh	r2, [r4, #22]
 114:Drivers/lvgl/lvgl/src/core/../misc/../font/../misc/lv_area.h ****     dest->y2 = src->y2;
 3253              		.loc 3 114 0
 3254 0012 B4F91830 		ldrsh	r3, [r4, #24]
 115:Drivers/lvgl/lvgl/src/core/../misc/../font/../misc/lv_area.h **** }
 3255              		.loc 3 115 0
 3256 0016 B4F91A50 		ldrsh	r5, [r4, #26]
 3257              	.LVL364:
 3258              	.LBE329:
 3259              	.LBE328:
 859:Drivers/lvgl/lvgl/src/core/lv_obj_pos.c ****     obj_coords.y1 -= ext_size;
 3260              		.loc 1 859 0
 3261 001a 80B2     		uxth	r0, r0
 3262 001c 091A     		subs	r1, r1, r0
 3263 001e ADF80010 		strh	r1, [sp]	@ movhi
 860:Drivers/lvgl/lvgl/src/core/lv_obj_pos.c ****     obj_coords.x2 += ext_size;
 3264              		.loc 1 860 0
 3265 0022 121A     		subs	r2, r2, r0
 3266 0024 ADF80220 		strh	r2, [sp, #2]	@ movhi
 861:Drivers/lvgl/lvgl/src/core/lv_obj_pos.c ****     obj_coords.y2 += ext_size;
 3267              		.loc 1 861 0
 3268 0028 0344     		add	r3, r3, r0
 3269 002a ADF80430 		strh	r3, [sp, #4]	@ movhi
 862:Drivers/lvgl/lvgl/src/core/lv_obj_pos.c **** 
 3270              		.loc 1 862 0
 3271 002e 2844     		add	r0, r0, r5
 3272              	.LVL365:
 3273 0030 ADF80600 		strh	r0, [sp, #6]	@ movhi
 864:Drivers/lvgl/lvgl/src/core/lv_obj_pos.c **** 
 3274              		.loc 1 864 0
 3275 0034 6946     		mov	r1, sp
 3276 0036 2046     		mov	r0, r4
 3277 0038 FFF7FEFF 		bl	lv_obj_invalidate_area
 3278              	.LVL366:
 866:Drivers/lvgl/lvgl/src/core/lv_obj_pos.c **** 
 3279              		.loc 1 866 0
 3280 003c 03B0     		add	sp, sp, #12
 3281              	.LCFI68:
 3282              		.cfi_def_cfa_offset 12
 3283              		@ sp needed
 3284 003e 30BD     		pop	{r4, r5, pc}
 3285              		.cfi_endproc
 3286              	.LFE203:
 3288              		.section	.text.lv_obj_move_to,"ax",%progbits
 3289              		.align	1
 3290              		.global	lv_obj_move_to
 3291              		.syntax unified
 3292              		.thumb
 3293              		.thumb_func
 3294              		.fpu fpv5-d16
 3296              	lv_obj_move_to:
 3297              	.LFB198:
 710:Drivers/lvgl/lvgl/src/core/lv_obj_pos.c ****     /*Convert x and y to absolute coordinates*/
ARM GAS  /tmp/cc3JQQuJ.s 			page 97


 3298              		.loc 1 710 0
 3299              		.cfi_startproc
 3300              		@ args = 0, pretend = 0, frame = 16
 3301              		@ frame_needed = 0, uses_anonymous_args = 0
 3302              	.LVL367:
 3303 0000 2DE9F04F 		push	{r4, r5, r6, r7, r8, r9, r10, fp, lr}
 3304              	.LCFI69:
 3305              		.cfi_def_cfa_offset 36
 3306              		.cfi_offset 4, -36
 3307              		.cfi_offset 5, -32
 3308              		.cfi_offset 6, -28
 3309              		.cfi_offset 7, -24
 3310              		.cfi_offset 8, -20
 3311              		.cfi_offset 9, -16
 3312              		.cfi_offset 10, -12
 3313              		.cfi_offset 11, -8
 3314              		.cfi_offset 14, -4
 3315 0004 85B0     		sub	sp, sp, #20
 3316              	.LCFI70:
 3317              		.cfi_def_cfa_offset 56
 3318 0006 0446     		mov	r4, r0
 3319 0008 0D46     		mov	r5, r1
 3320 000a 1646     		mov	r6, r2
 712:Drivers/lvgl/lvgl/src/core/lv_obj_pos.c **** 
 3321              		.loc 1 712 0
 3322 000c 4768     		ldr	r7, [r0, #4]
 3323              	.LVL368:
 714:Drivers/lvgl/lvgl/src/core/lv_obj_pos.c ****         lv_coord_t pad_left = lv_obj_get_style_pad_left(parent, LV_PART_MAIN);
 3324              		.loc 1 714 0
 3325 000e 57B3     		cbz	r7, .L188
 3326              	.LVL369:
 3327              	.LBB330:
 3328              	.LBB331:
 3329              	.LBB332:
 117:Drivers/lvgl/lvgl/src/core/lv_obj_style_gen.h ****     return (lv_coord_t)v.num;
 3330              		.loc 2 117 0
 3331 0010 1222     		movs	r2, #18
 3332              	.LVL370:
 3333 0012 0021     		movs	r1, #0
 3334              	.LVL371:
 3335 0014 3846     		mov	r0, r7
 3336              	.LVL372:
 3337 0016 FFF7FEFF 		bl	lv_obj_get_style_prop
 3338              	.LVL373:
 3339 001a 8246     		mov	r10, r0
 118:Drivers/lvgl/lvgl/src/core/lv_obj_style_gen.h **** }
 3340              		.loc 2 118 0
 3341 001c 0FFA80FB 		sxth	fp, r0
 3342              	.LVL374:
 3343              	.LBE332:
 3344              	.LBE331:
 3345              	.LBB333:
 3346              	.LBB334:
 105:Drivers/lvgl/lvgl/src/core/lv_obj_style_gen.h ****     return (lv_coord_t)v.num;
 3347              		.loc 2 105 0
 3348 0020 1022     		movs	r2, #16
 3349 0022 0021     		movs	r1, #0
ARM GAS  /tmp/cc3JQQuJ.s 			page 98


 3350 0024 3846     		mov	r0, r7
 3351 0026 FFF7FEFF 		bl	lv_obj_get_style_prop
 3352              	.LVL375:
 3353 002a 8146     		mov	r9, r0
 106:Drivers/lvgl/lvgl/src/core/lv_obj_style_gen.h **** }
 3354              		.loc 2 106 0
 3355 002c 0FFA80F8 		sxth	r8, r0
 3356              	.LVL376:
 3357              	.LBE334:
 3358              	.LBE333:
 718:Drivers/lvgl/lvgl/src/core/lv_obj_pos.c ****             x += pad_left + parent->coords.x1;
 3359              		.loc 1 718 0
 3360 0030 4FF48021 		mov	r1, #262144
 3361 0034 2046     		mov	r0, r4
 3362 0036 FFF7FEFF 		bl	lv_obj_has_flag
 3363              	.LVL377:
 3364 003a 0028     		cmp	r0, #0
 3365 003c 3AD0     		beq	.L189
 719:Drivers/lvgl/lvgl/src/core/lv_obj_pos.c ****             y += pad_top + parent->coords.y1;
 3366              		.loc 1 719 0
 3367 003e B88A     		ldrh	r0, [r7, #20]
 3368 0040 5044     		add	r0, r0, r10
 3369 0042 15FA80F5 		uxtah	r5, r5, r0
 3370 0046 2DB2     		sxth	r5, r5
 3371              	.LVL378:
 720:Drivers/lvgl/lvgl/src/core/lv_obj_pos.c ****         }
 3372              		.loc 1 720 0
 3373 0048 F88A     		ldrh	r0, [r7, #22]
 3374 004a 4844     		add	r0, r0, r9
 3375 004c 16FA80F6 		uxtah	r6, r6, r0
 3376 0050 36B2     		sxth	r6, r6
 3377              	.LVL379:
 3378              	.L190:
 3379              	.LBB335:
 3380              	.LBB336:
 255:Drivers/lvgl/lvgl/src/core/lv_obj_style_gen.h ****     return (lv_coord_t)v.num;
 3381              		.loc 2 255 0
 3382 0052 3222     		movs	r2, #50
 3383 0054 0021     		movs	r1, #0
 3384 0056 3846     		mov	r0, r7
 3385 0058 FFF7FEFF 		bl	lv_obj_get_style_prop
 3386              	.LVL380:
 3387              	.LBE336:
 3388              	.LBE335:
 728:Drivers/lvgl/lvgl/src/core/lv_obj_pos.c ****         y += border_width;
 3389              		.loc 1 728 0
 3390 005c 80B2     		uxth	r0, r0
 3391 005e 0544     		add	r5, r5, r0
 3392              	.LVL381:
 3393 0060 2DB2     		sxth	r5, r5
 3394              	.LVL382:
 729:Drivers/lvgl/lvgl/src/core/lv_obj_pos.c ****     }
 3395              		.loc 1 729 0
 3396 0062 0644     		add	r6, r6, r0
 3397              	.LVL383:
 3398 0064 36B2     		sxth	r6, r6
 3399              	.LVL384:
ARM GAS  /tmp/cc3JQQuJ.s 			page 99


 3400              	.L188:
 3401              	.LBE330:
 734:Drivers/lvgl/lvgl/src/core/lv_obj_pos.c ****     diff.y = y - obj->coords.y1;
 3402              		.loc 1 734 0
 3403 0066 A08A     		ldrh	r0, [r4, #20]
 3404 0068 2D1A     		subs	r5, r5, r0
 3405              	.LVL385:
 3406 006a ADB2     		uxth	r5, r5
 3407 006c 0FFA85F8 		sxth	r8, r5
 735:Drivers/lvgl/lvgl/src/core/lv_obj_pos.c **** 
 3408              		.loc 1 735 0
 3409 0070 E08A     		ldrh	r0, [r4, #22]
 3410 0072 361A     		subs	r6, r6, r0
 3411              	.LVL386:
 3412 0074 B6B2     		uxth	r6, r6
 3413 0076 0FFA86F9 		sxth	r9, r6
 740:Drivers/lvgl/lvgl/src/core/lv_obj_pos.c **** 
 3414              		.loc 1 740 0
 3415 007a B8F1000F 		cmp	r8, #0
 3416 007e 02D1     		bne	.L191
 740:Drivers/lvgl/lvgl/src/core/lv_obj_pos.c **** 
 3417              		.loc 1 740 0 is_stmt 0 discriminator 1
 3418 0080 B9F1000F 		cmp	r9, #0
 3419 0084 5CD0     		beq	.L187
 3420              	.L191:
 743:Drivers/lvgl/lvgl/src/core/lv_obj_pos.c **** 
 3421              		.loc 1 743 0 is_stmt 1
 3422 0086 2046     		mov	r0, r4
 3423 0088 FFF7FEFF 		bl	lv_obj_invalidate
 3424              	.LVL387:
 747:Drivers/lvgl/lvgl/src/core/lv_obj_pos.c **** 
 3425              		.loc 1 747 0
 3426 008c 02A9     		add	r1, sp, #8
 3427 008e 2046     		mov	r0, r4
 3428 0090 FFF7FEFF 		bl	lv_obj_get_coords
 3429              	.LVL388:
 752:Drivers/lvgl/lvgl/src/core/lv_obj_pos.c ****         lv_obj_get_content_coords(parent, &parent_fit_area);
 3430              		.loc 1 752 0
 3431 0094 1FB3     		cbz	r7, .L198
 753:Drivers/lvgl/lvgl/src/core/lv_obj_pos.c **** 
 3432              		.loc 1 753 0
 3433 0096 6946     		mov	r1, sp
 3434 0098 3846     		mov	r0, r7
 3435 009a FFF7FEFF 		bl	lv_obj_get_content_coords
 3436              	.LVL389:
 757:Drivers/lvgl/lvgl/src/core/lv_obj_pos.c ****         if(!on1) lv_obj_scrollbar_invalidate(parent);
 3437              		.loc 1 757 0
 3438 009e 0022     		movs	r2, #0
 3439 00a0 6946     		mov	r1, sp
 3440 00a2 02A8     		add	r0, sp, #8
 3441 00a4 FFF7FEFF 		bl	_lv_area_is_in
 3442              	.LVL390:
 758:Drivers/lvgl/lvgl/src/core/lv_obj_pos.c ****     }
 3443              		.loc 1 758 0
 3444 00a8 8246     		mov	r10, r0
 3445 00aa D0B9     		cbnz	r0, .L193
 758:Drivers/lvgl/lvgl/src/core/lv_obj_pos.c ****     }
ARM GAS  /tmp/cc3JQQuJ.s 			page 100


 3446              		.loc 1 758 0 is_stmt 0 discriminator 1
 3447 00ac 3846     		mov	r0, r7
 3448              	.LVL391:
 3449 00ae FFF7FEFF 		bl	lv_obj_scrollbar_invalidate
 3450              	.LVL392:
 3451 00b2 16E0     		b	.L193
 3452              	.LVL393:
 3453              	.L189:
 3454              	.LBB337:
 723:Drivers/lvgl/lvgl/src/core/lv_obj_pos.c ****             y += pad_top + parent->coords.y1 - lv_obj_get_scroll_y(parent);
 3455              		.loc 1 723 0 is_stmt 1
 3456 00b4 B7F91400 		ldrsh	r0, [r7, #20]
 3457 00b8 8344     		add	fp, fp, r0
 3458 00ba 3846     		mov	r0, r7
 3459 00bc FFF7FEFF 		bl	lv_obj_get_scroll_x
 3460              	.LVL394:
 3461 00c0 ABEB000B 		sub	fp, fp, r0
 3462 00c4 5D44     		add	r5, r5, fp
 3463 00c6 2DB2     		sxth	r5, r5
 3464              	.LVL395:
 724:Drivers/lvgl/lvgl/src/core/lv_obj_pos.c ****         }
 3465              		.loc 1 724 0
 3466 00c8 B7F91600 		ldrsh	r0, [r7, #22]
 3467 00cc 8044     		add	r8, r8, r0
 3468 00ce 3846     		mov	r0, r7
 3469 00d0 FFF7FEFF 		bl	lv_obj_get_scroll_y
 3470              	.LVL396:
 3471 00d4 A8EB0008 		sub	r8, r8, r0
 3472 00d8 4644     		add	r6, r6, r8
 3473 00da 36B2     		sxth	r6, r6
 3474              	.LVL397:
 3475 00dc B9E7     		b	.L190
 3476              	.LVL398:
 3477              	.L198:
 3478              	.LBE337:
 751:Drivers/lvgl/lvgl/src/core/lv_obj_pos.c ****     if(parent) {
 3479              		.loc 1 751 0
 3480 00de 4FF0000A 		mov	r10, #0
 3481              	.LVL399:
 3482              	.L193:
 761:Drivers/lvgl/lvgl/src/core/lv_obj_pos.c ****     obj->coords.y1 += diff.y;
 3483              		.loc 1 761 0
 3484 00e2 A38A     		ldrh	r3, [r4, #20]
 3485 00e4 2B44     		add	r3, r3, r5
 3486 00e6 A382     		strh	r3, [r4, #20]	@ movhi
 762:Drivers/lvgl/lvgl/src/core/lv_obj_pos.c ****     obj->coords.x2 += diff.x;
 3487              		.loc 1 762 0
 3488 00e8 E38A     		ldrh	r3, [r4, #22]
 3489 00ea 3344     		add	r3, r3, r6
 3490 00ec E382     		strh	r3, [r4, #22]	@ movhi
 763:Drivers/lvgl/lvgl/src/core/lv_obj_pos.c ****     obj->coords.y2 += diff.y;
 3491              		.loc 1 763 0
 3492 00ee 238B     		ldrh	r3, [r4, #24]
 3493 00f0 1D44     		add	r5, r5, r3
 3494 00f2 2583     		strh	r5, [r4, #24]	@ movhi
 764:Drivers/lvgl/lvgl/src/core/lv_obj_pos.c **** 
 3495              		.loc 1 764 0
ARM GAS  /tmp/cc3JQQuJ.s 			page 101


 3496 00f4 638B     		ldrh	r3, [r4, #26]
 3497 00f6 1E44     		add	r6, r6, r3
 3498 00f8 6683     		strh	r6, [r4, #26]	@ movhi
 766:Drivers/lvgl/lvgl/src/core/lv_obj_pos.c **** 
 3499              		.loc 1 766 0
 3500 00fa 0023     		movs	r3, #0
 3501 00fc 4A46     		mov	r2, r9
 3502 00fe 4146     		mov	r1, r8
 3503 0100 2046     		mov	r0, r4
 3504 0102 FFF7FEFF 		bl	lv_obj_move_children_by
 3505              	.LVL400:
 769:Drivers/lvgl/lvgl/src/core/lv_obj_pos.c **** 
 3506              		.loc 1 769 0
 3507 0106 27B1     		cbz	r7, .L194
 769:Drivers/lvgl/lvgl/src/core/lv_obj_pos.c **** 
 3508              		.loc 1 769 0 is_stmt 0 discriminator 1
 3509 0108 2246     		mov	r2, r4
 3510 010a 2221     		movs	r1, #34
 3511 010c 3846     		mov	r0, r7
 3512 010e FFF7FEFF 		bl	lv_event_send
 3513              	.LVL401:
 3514              	.L194:
 772:Drivers/lvgl/lvgl/src/core/lv_obj_pos.c **** 
 3515              		.loc 1 772 0 is_stmt 1
 3516 0112 2046     		mov	r0, r4
 3517 0114 FFF7FEFF 		bl	lv_obj_invalidate
 3518              	.LVL402:
 776:Drivers/lvgl/lvgl/src/core/lv_obj_pos.c ****         bool on2 = _lv_area_is_in(&obj->coords, &parent_fit_area, 0);
 3519              		.loc 1 776 0
 3520 0118 97B1     		cbz	r7, .L187
 3521              	.LBB338:
 777:Drivers/lvgl/lvgl/src/core/lv_obj_pos.c ****         if(on1 || (!on1 && on2)) lv_obj_scrollbar_invalidate(parent);
 3522              		.loc 1 777 0
 3523 011a 0022     		movs	r2, #0
 3524 011c 6946     		mov	r1, sp
 3525 011e 04F11400 		add	r0, r4, #20
 3526 0122 FFF7FEFF 		bl	_lv_area_is_in
 3527              	.LVL403:
 778:Drivers/lvgl/lvgl/src/core/lv_obj_pos.c ****     }
 3528              		.loc 1 778 0
 3529 0126 BAF1000F 		cmp	r10, #0
 3530 012a 06D1     		bne	.L196
 778:Drivers/lvgl/lvgl/src/core/lv_obj_pos.c ****     }
 3531              		.loc 1 778 0 is_stmt 0 discriminator 2
 3532 012c 8AF0010A 		eor	r10, r10, #1
 3533              	.LVL404:
 3534 0130 5FFA8AFA 		uxtb	r10, r10
 3535 0134 1AEA000F 		tst	r10, r0
 3536 0138 02D0     		beq	.L187
 3537              	.L196:
 778:Drivers/lvgl/lvgl/src/core/lv_obj_pos.c ****     }
 3538              		.loc 1 778 0 discriminator 3
 3539 013a 3846     		mov	r0, r7
 3540              	.LVL405:
 3541 013c FFF7FEFF 		bl	lv_obj_scrollbar_invalidate
 3542              	.LVL406:
 3543              	.L187:
ARM GAS  /tmp/cc3JQQuJ.s 			page 102


 3544              	.LBE338:
 780:Drivers/lvgl/lvgl/src/core/lv_obj_pos.c **** 
 3545              		.loc 1 780 0 is_stmt 1
 3546 0140 05B0     		add	sp, sp, #20
 3547              	.LCFI71:
 3548              		.cfi_def_cfa_offset 36
 3549              		@ sp needed
 3550 0142 BDE8F08F 		pop	{r4, r5, r6, r7, r8, r9, r10, fp, pc}
 3551              		.cfi_endproc
 3552              	.LFE198:
 3554              		.section	.text.lv_obj_refr_pos,"ax",%progbits
 3555              		.align	1
 3556              		.global	lv_obj_refr_pos
 3557              		.syntax unified
 3558              		.thumb
 3559              		.thumb_func
 3560              		.fpu fpv5-d16
 3562              	lv_obj_refr_pos:
 3563              	.LFB197:
 630:Drivers/lvgl/lvgl/src/core/lv_obj_pos.c ****     if(lv_obj_is_layout_positioned(obj)) return;
 3564              		.loc 1 630 0
 3565              		.cfi_startproc
 3566              		@ args = 0, pretend = 0, frame = 16
 3567              		@ frame_needed = 0, uses_anonymous_args = 0
 3568              	.LVL407:
 3569 0000 2DE9F04F 		push	{r4, r5, r6, r7, r8, r9, r10, fp, lr}
 3570              	.LCFI72:
 3571              		.cfi_def_cfa_offset 36
 3572              		.cfi_offset 4, -36
 3573              		.cfi_offset 5, -32
 3574              		.cfi_offset 6, -28
 3575              		.cfi_offset 7, -24
 3576              		.cfi_offset 8, -20
 3577              		.cfi_offset 9, -16
 3578              		.cfi_offset 10, -12
 3579              		.cfi_offset 11, -8
 3580              		.cfi_offset 14, -4
 3581 0004 85B0     		sub	sp, sp, #20
 3582              	.LCFI73:
 3583              		.cfi_def_cfa_offset 56
 3584 0006 0446     		mov	r4, r0
 631:Drivers/lvgl/lvgl/src/core/lv_obj_pos.c **** 
 3585              		.loc 1 631 0
 3586 0008 FFF7FEFF 		bl	lv_obj_is_layout_positioned
 3587              	.LVL408:
 3588 000c 10B1     		cbz	r0, .L242
 3589              	.L200:
 707:Drivers/lvgl/lvgl/src/core/lv_obj_pos.c **** 
 3590              		.loc 1 707 0
 3591 000e 05B0     		add	sp, sp, #20
 3592              	.LCFI74:
 3593              		.cfi_remember_state
 3594              		.cfi_def_cfa_offset 36
 3595              		@ sp needed
 3596 0010 BDE8F08F 		pop	{r4, r5, r6, r7, r8, r9, r10, fp, pc}
 3597              	.LVL409:
 3598              	.L242:
ARM GAS  /tmp/cc3JQQuJ.s 			page 103


 3599              	.LCFI75:
 3600              		.cfi_restore_state
 634:Drivers/lvgl/lvgl/src/core/lv_obj_pos.c ****     lv_coord_t x = lv_obj_get_style_x(obj, LV_PART_MAIN);
 3601              		.loc 1 634 0
 3602 0014 2046     		mov	r0, r4
 3603 0016 FFF7FEFF 		bl	lv_obj_get_parent
 3604              	.LVL410:
 3605 001a 0746     		mov	r7, r0
 3606              	.LVL411:
 3607              	.LBB339:
 3608              	.LBB340:
  39:Drivers/lvgl/lvgl/src/core/lv_obj_style_gen.h ****     return (lv_coord_t)v.num;
 3609              		.loc 2 39 0
 3610 001c 0722     		movs	r2, #7
 3611 001e 0021     		movs	r1, #0
 3612 0020 2046     		mov	r0, r4
 3613              	.LVL412:
 3614 0022 FFF7FEFF 		bl	lv_obj_get_style_prop
 3615              	.LVL413:
 3616 0026 8146     		mov	r9, r0
  40:Drivers/lvgl/lvgl/src/core/lv_obj_style_gen.h **** }
 3617              		.loc 2 40 0
 3618 0028 06B2     		sxth	r6, r0
 3619              	.LVL414:
 3620              	.LBE340:
 3621              	.LBE339:
 3622              	.LBB341:
 3623              	.LBB342:
  45:Drivers/lvgl/lvgl/src/core/lv_obj_style_gen.h ****     return (lv_coord_t)v.num;
 3624              		.loc 2 45 0
 3625 002a 0822     		movs	r2, #8
 3626 002c 0021     		movs	r1, #0
 3627 002e 2046     		mov	r0, r4
 3628 0030 FFF7FEFF 		bl	lv_obj_get_style_prop
 3629              	.LVL415:
 3630 0034 8046     		mov	r8, r0
  46:Drivers/lvgl/lvgl/src/core/lv_obj_style_gen.h **** }
 3631              		.loc 2 46 0
 3632 0036 05B2     		sxth	r5, r0
 3633              	.LVL416:
 3634              	.LBE342:
 3635              	.LBE341:
 638:Drivers/lvgl/lvgl/src/core/lv_obj_pos.c ****         lv_obj_move_to(obj, x, y);
 3636              		.loc 1 638 0
 3637 0038 002F     		cmp	r7, #0
 3638 003a 53D0     		beq	.L243
 644:Drivers/lvgl/lvgl/src/core/lv_obj_pos.c ****     lv_coord_t ph = lv_obj_get_content_height(parent);
 3639              		.loc 1 644 0
 3640 003c 3846     		mov	r0, r7
 3641 003e FFF7FEFF 		bl	lv_obj_get_content_width
 3642              	.LVL417:
 3643 0042 0090     		str	r0, [sp]
 3644              	.LVL418:
 645:Drivers/lvgl/lvgl/src/core/lv_obj_pos.c ****     if(LV_COORD_IS_PCT(x)) x = (pw * LV_COORD_GET_PCT(x)) / 100;
 3645              		.loc 1 645 0
 3646 0044 3846     		mov	r0, r7
 3647 0046 FFF7FEFF 		bl	lv_obj_get_content_height
ARM GAS  /tmp/cc3JQQuJ.s 			page 104


 3648              	.LVL419:
 3649 004a 0190     		str	r0, [sp, #4]
 3650              	.LVL420:
 646:Drivers/lvgl/lvgl/src/core/lv_obj_pos.c ****     if(LV_COORD_IS_PCT(y)) y = (ph * LV_COORD_GET_PCT(y)) / 100;
 3651              		.loc 1 646 0
 3652 004c 09F4C049 		and	r9, r9, #24576
 3653 0050 B9F5005F 		cmp	r9, #8192
 3654 0054 4CD0     		beq	.L244
 3655              	.L203:
 3656              	.LVL421:
 647:Drivers/lvgl/lvgl/src/core/lv_obj_pos.c **** 
 3657              		.loc 1 647 0
 3658 0056 08F4C048 		and	r8, r8, #24576
 3659 005a B8F5005F 		cmp	r8, #8192
 3660 005e 5CD0     		beq	.L245
 3661              	.L206:
 3662              	.LVL422:
 3663              	.LBB343:
 3664              	.LBB344:
  69:Drivers/lvgl/lvgl/src/core/lv_obj_style_gen.h ****     return (lv_coord_t)v.num;
 3665              		.loc 2 69 0
 3666 0060 6A22     		movs	r2, #106
 3667 0062 0021     		movs	r1, #0
 3668 0064 2046     		mov	r0, r4
 3669 0066 FFF7FEFF 		bl	lv_obj_get_style_prop
 3670              	.LVL423:
 3671 006a 8146     		mov	r9, r0
 3672              	.LVL424:
  70:Drivers/lvgl/lvgl/src/core/lv_obj_style_gen.h **** }
 3673              		.loc 2 70 0
 3674 006c 0FFA80FB 		sxth	fp, r0
 3675              	.LVL425:
 3676              	.LBE344:
 3677              	.LBE343:
 3678              	.LBB345:
 3679              	.LBB346:
  75:Drivers/lvgl/lvgl/src/core/lv_obj_style_gen.h ****     return (lv_coord_t)v.num;
 3680              		.loc 2 75 0
 3681 0070 6B22     		movs	r2, #107
 3682 0072 0021     		movs	r1, #0
 3683 0074 2046     		mov	r0, r4
 3684 0076 FFF7FEFF 		bl	lv_obj_get_style_prop
 3685              	.LVL426:
 3686 007a 8046     		mov	r8, r0
  76:Drivers/lvgl/lvgl/src/core/lv_obj_style_gen.h **** }
 3687              		.loc 2 76 0
 3688 007c 0FFA80FA 		sxth	r10, r0
 3689              	.LVL427:
 3690              	.LBE346:
 3691              	.LBE345:
 652:Drivers/lvgl/lvgl/src/core/lv_obj_pos.c ****     lv_coord_t h = lv_obj_get_height(obj);
 3692              		.loc 1 652 0
 3693 0080 2046     		mov	r0, r4
 3694 0082 FFF7FEFF 		bl	lv_obj_get_width
 3695              	.LVL428:
 3696 0086 0290     		str	r0, [sp, #8]
 3697              	.LVL429:
ARM GAS  /tmp/cc3JQQuJ.s 			page 105


 653:Drivers/lvgl/lvgl/src/core/lv_obj_pos.c ****     if(LV_COORD_IS_PCT(tr_x)) tr_x = (w * LV_COORD_GET_PCT(tr_x)) / 100;
 3698              		.loc 1 653 0
 3699 0088 2046     		mov	r0, r4
 3700 008a FFF7FEFF 		bl	lv_obj_get_height
 3701              	.LVL430:
 3702 008e 0390     		str	r0, [sp, #12]
 3703              	.LVL431:
 654:Drivers/lvgl/lvgl/src/core/lv_obj_pos.c ****     if(LV_COORD_IS_PCT(tr_y)) tr_y = (h * LV_COORD_GET_PCT(tr_y)) / 100;
 3704              		.loc 1 654 0
 3705 0090 09F4C049 		and	r9, r9, #24576
 3706              	.LVL432:
 3707 0094 B9F5005F 		cmp	r9, #8192
 3708 0098 54D0     		beq	.L246
 3709              	.L209:
 3710              	.LVL433:
 655:Drivers/lvgl/lvgl/src/core/lv_obj_pos.c **** 
 3711              		.loc 1 655 0
 3712 009a 08F4C048 		and	r8, r8, #24576
 3713 009e B8F5005F 		cmp	r8, #8192
 3714 00a2 66D0     		beq	.L247
 3715              	.L212:
 3716              	.LVL434:
 658:Drivers/lvgl/lvgl/src/core/lv_obj_pos.c ****     y += tr_y;
 3717              		.loc 1 658 0
 3718 00a4 5E44     		add	r6, r6, fp
 3719              	.LVL435:
 3720 00a6 B6B2     		uxth	r6, r6
 3721 00a8 0FFA86F8 		sxth	r8, r6
 3722              	.LVL436:
 659:Drivers/lvgl/lvgl/src/core/lv_obj_pos.c **** 
 3723              		.loc 1 659 0
 3724 00ac 5544     		add	r5, r5, r10
 3725              	.LVL437:
 3726 00ae ADB2     		uxth	r5, r5
 3727 00b0 0FFA85F9 		sxth	r9, r5
 3728              	.LVL438:
 3729              	.LBB347:
 3730              	.LBB348:
  51:Drivers/lvgl/lvgl/src/core/lv_obj_style_gen.h ****     return (lv_align_t)v.num;
 3731              		.loc 2 51 0
 3732 00b4 0922     		movs	r2, #9
 3733 00b6 0021     		movs	r1, #0
 3734 00b8 2046     		mov	r0, r4
 3735 00ba FFF7FEFF 		bl	lv_obj_get_style_prop
 3736              	.LVL439:
  52:Drivers/lvgl/lvgl/src/core/lv_obj_style_gen.h **** }
 3737              		.loc 2 52 0
 3738 00be C0B2     		uxtb	r0, r0
 3739              	.LVL440:
 3740              	.LBE348:
 3741              	.LBE347:
 663:Drivers/lvgl/lvgl/src/core/lv_obj_pos.c ****         if(lv_obj_get_style_base_dir(parent, LV_PART_MAIN) == LV_BASE_DIR_RTL) align = LV_ALIGN_TOP
 3742              		.loc 1 663 0
 3743 00c0 0028     		cmp	r0, #0
 3744 00c2 6DD0     		beq	.L248
 3745              	.LVL441:
 668:Drivers/lvgl/lvgl/src/core/lv_obj_pos.c ****         lv_obj_move_to(obj, x, y);
ARM GAS  /tmp/cc3JQQuJ.s 			page 106


 3746              		.loc 1 668 0
 3747 00c4 0128     		cmp	r0, #1
 3748 00c6 73D0     		beq	.L217
 3749              	.LVL442:
 3750              	.L216:
 673:Drivers/lvgl/lvgl/src/core/lv_obj_pos.c ****             case LV_ALIGN_TOP_MID:
 3751              		.loc 1 673 0
 3752 00c8 0238     		subs	r0, r0, #2
 3753 00ca 0728     		cmp	r0, #7
 3754 00cc 00F28780 		bhi	.L218
 3755 00d0 DFE810F0 		tbh	[pc, r0, lsl #1]
 3756              	.L220:
 3757 00d4 7600     		.2byte	(.L219-.L220)/2
 3758 00d6 9000     		.2byte	(.L221-.L220)/2
 3759 00d8 AE00     		.2byte	(.L222-.L220)/2
 3760 00da B700     		.2byte	(.L223-.L220)/2
 3761 00dc D400     		.2byte	(.L224-.L220)/2
 3762 00de 9900     		.2byte	(.L225-.L220)/2
 3763 00e0 E500     		.2byte	(.L226-.L220)/2
 3764 00e2 0201     		.2byte	(.L227-.L220)/2
 3765              	.LVL443:
 3766              		.p2align 1
 3767              	.L243:
 639:Drivers/lvgl/lvgl/src/core/lv_obj_pos.c ****         return;
 3768              		.loc 1 639 0
 3769 00e4 2A46     		mov	r2, r5
 3770 00e6 3146     		mov	r1, r6
 3771 00e8 2046     		mov	r0, r4
 3772 00ea FFF7FEFF 		bl	lv_obj_move_to
 3773              	.LVL444:
 640:Drivers/lvgl/lvgl/src/core/lv_obj_pos.c ****     }
 3774              		.loc 1 640 0
 3775 00ee 8EE7     		b	.L200
 3776              	.LVL445:
 3777              	.L244:
 646:Drivers/lvgl/lvgl/src/core/lv_obj_pos.c ****     if(LV_COORD_IS_PCT(y)) y = (ph * LV_COORD_GET_PCT(y)) / 100;
 3778              		.loc 1 646 0 discriminator 1
 3779 00f0 26F4C043 		bic	r3, r6, #24576
 3780 00f4 B3F5FA6F 		cmp	r3, #2000
 3781 00f8 ADDC     		bgt	.L203
 646:Drivers/lvgl/lvgl/src/core/lv_obj_pos.c ****     if(LV_COORD_IS_PCT(y)) y = (ph * LV_COORD_GET_PCT(y)) / 100;
 3782              		.loc 1 646 0 is_stmt 0 discriminator 2
 3783 00fa B3F57A7F 		cmp	r3, #1000
 3784 00fe 01DD     		ble	.L205
 646:Drivers/lvgl/lvgl/src/core/lv_obj_pos.c ****     if(LV_COORD_IS_PCT(y)) y = (ph * LV_COORD_GET_PCT(y)) / 100;
 3785              		.loc 1 646 0 discriminator 3
 3786 0100 C3F57A73 		rsb	r3, r3, #1000
 3787              	.L205:
 646:Drivers/lvgl/lvgl/src/core/lv_obj_pos.c ****     if(LV_COORD_IS_PCT(y)) y = (ph * LV_COORD_GET_PCT(y)) / 100;
 3788              		.loc 1 646 0 discriminator 6
 3789 0104 009A     		ldr	r2, [sp]
 3790 0106 03FB02F3 		mul	r3, r3, r2
 3791 010a 884A     		ldr	r2, .L262
 3792 010c 82FB0312 		smull	r1, r2, r2, r3
 3793 0110 DE17     		asrs	r6, r3, #31
 3794 0112 C6EB6216 		rsb	r6, r6, r2, asr #5
 3795 0116 36B2     		sxth	r6, r6
ARM GAS  /tmp/cc3JQQuJ.s 			page 107


 3796              	.LVL446:
 3797 0118 9DE7     		b	.L203
 3798              	.L245:
 647:Drivers/lvgl/lvgl/src/core/lv_obj_pos.c **** 
 3799              		.loc 1 647 0 is_stmt 1 discriminator 1
 3800 011a 25F4C043 		bic	r3, r5, #24576
 3801 011e B3F5FA6F 		cmp	r3, #2000
 3802 0122 9DDC     		bgt	.L206
 647:Drivers/lvgl/lvgl/src/core/lv_obj_pos.c **** 
 3803              		.loc 1 647 0 is_stmt 0 discriminator 2
 3804 0124 B3F57A7F 		cmp	r3, #1000
 3805 0128 01DD     		ble	.L208
 647:Drivers/lvgl/lvgl/src/core/lv_obj_pos.c **** 
 3806              		.loc 1 647 0 discriminator 3
 3807 012a C3F57A73 		rsb	r3, r3, #1000
 3808              	.L208:
 647:Drivers/lvgl/lvgl/src/core/lv_obj_pos.c **** 
 3809              		.loc 1 647 0 discriminator 6
 3810 012e 019A     		ldr	r2, [sp, #4]
 3811 0130 03FB02F3 		mul	r3, r3, r2
 3812 0134 7D4A     		ldr	r2, .L262
 3813 0136 82FB0312 		smull	r1, r2, r2, r3
 3814 013a DD17     		asrs	r5, r3, #31
 3815 013c C5EB6215 		rsb	r5, r5, r2, asr #5
 3816 0140 2DB2     		sxth	r5, r5
 3817              	.LVL447:
 3818 0142 8DE7     		b	.L206
 3819              	.LVL448:
 3820              	.L246:
 654:Drivers/lvgl/lvgl/src/core/lv_obj_pos.c ****     if(LV_COORD_IS_PCT(tr_y)) tr_y = (h * LV_COORD_GET_PCT(tr_y)) / 100;
 3821              		.loc 1 654 0 is_stmt 1 discriminator 1
 3822 0144 2BF4C043 		bic	r3, fp, #24576
 3823 0148 B3F5FA6F 		cmp	r3, #2000
 3824 014c A5DC     		bgt	.L209
 654:Drivers/lvgl/lvgl/src/core/lv_obj_pos.c ****     if(LV_COORD_IS_PCT(tr_y)) tr_y = (h * LV_COORD_GET_PCT(tr_y)) / 100;
 3825              		.loc 1 654 0 is_stmt 0 discriminator 2
 3826 014e B3F57A7F 		cmp	r3, #1000
 3827 0152 01DD     		ble	.L211
 654:Drivers/lvgl/lvgl/src/core/lv_obj_pos.c ****     if(LV_COORD_IS_PCT(tr_y)) tr_y = (h * LV_COORD_GET_PCT(tr_y)) / 100;
 3828              		.loc 1 654 0 discriminator 3
 3829 0154 C3F57A73 		rsb	r3, r3, #1000
 3830              	.L211:
 654:Drivers/lvgl/lvgl/src/core/lv_obj_pos.c ****     if(LV_COORD_IS_PCT(tr_y)) tr_y = (h * LV_COORD_GET_PCT(tr_y)) / 100;
 3831              		.loc 1 654 0 discriminator 6
 3832 0158 029A     		ldr	r2, [sp, #8]
 3833 015a 03FB02F3 		mul	r3, r3, r2
 3834 015e 734A     		ldr	r2, .L262
 3835 0160 82FB0312 		smull	r1, r2, r2, r3
 3836 0164 4FEAE37B 		asr	fp, r3, #31
 3837 0168 CBEB621B 		rsb	fp, fp, r2, asr #5
 3838 016c 0FFA8BFB 		sxth	fp, fp
 3839              	.LVL449:
 3840 0170 93E7     		b	.L209
 3841              	.L247:
 655:Drivers/lvgl/lvgl/src/core/lv_obj_pos.c **** 
 3842              		.loc 1 655 0 is_stmt 1 discriminator 1
 3843 0172 2AF4C043 		bic	r3, r10, #24576
ARM GAS  /tmp/cc3JQQuJ.s 			page 108


 3844 0176 B3F5FA6F 		cmp	r3, #2000
 3845 017a 93DC     		bgt	.L212
 655:Drivers/lvgl/lvgl/src/core/lv_obj_pos.c **** 
 3846              		.loc 1 655 0 is_stmt 0 discriminator 2
 3847 017c B3F57A7F 		cmp	r3, #1000
 3848 0180 01DD     		ble	.L214
 655:Drivers/lvgl/lvgl/src/core/lv_obj_pos.c **** 
 3849              		.loc 1 655 0 discriminator 3
 3850 0182 C3F57A73 		rsb	r3, r3, #1000
 3851              	.L214:
 655:Drivers/lvgl/lvgl/src/core/lv_obj_pos.c **** 
 3852              		.loc 1 655 0 discriminator 6
 3853 0186 039A     		ldr	r2, [sp, #12]
 3854 0188 03FB02F3 		mul	r3, r3, r2
 3855 018c 674A     		ldr	r2, .L262
 3856 018e 82FB0312 		smull	r1, r2, r2, r3
 3857 0192 4FEAE37A 		asr	r10, r3, #31
 3858 0196 CAEB621A 		rsb	r10, r10, r2, asr #5
 3859 019a 0FFA8AFA 		sxth	r10, r10
 3860              	.LVL450:
 3861 019e 81E7     		b	.L212
 3862              	.LVL451:
 3863              	.L248:
 3864              	.LBB349:
 3865              	.LBB350:
 561:Drivers/lvgl/lvgl/src/core/lv_obj_style_gen.h ****     return (lv_base_dir_t)v.num;
 3866              		.loc 2 561 0 is_stmt 1
 3867 01a0 1622     		movs	r2, #22
 3868 01a2 0021     		movs	r1, #0
 3869 01a4 3846     		mov	r0, r7
 3870 01a6 FFF7FEFF 		bl	lv_obj_get_style_prop
 3871              	.LVL452:
 3872              		.loc 2 562 0
 3873 01aa C0B2     		uxtb	r0, r0
 3874              	.LVL453:
 3875              	.LBE350:
 3876              	.LBE349:
 664:Drivers/lvgl/lvgl/src/core/lv_obj_pos.c ****         else align = LV_ALIGN_TOP_LEFT;
 3877              		.loc 1 664 0
 3878 01ac 0128     		cmp	r0, #1
 3879 01ae 05D0     		beq	.L249
 3880              	.L217:
 669:Drivers/lvgl/lvgl/src/core/lv_obj_pos.c ****     }
 3881              		.loc 1 669 0
 3882 01b0 4A46     		mov	r2, r9
 3883 01b2 4146     		mov	r1, r8
 3884 01b4 2046     		mov	r0, r4
 3885 01b6 FFF7FEFF 		bl	lv_obj_move_to
 3886              	.LVL454:
 3887 01ba 28E7     		b	.L200
 3888              	.L249:
 664:Drivers/lvgl/lvgl/src/core/lv_obj_pos.c ****         else align = LV_ALIGN_TOP_LEFT;
 3889              		.loc 1 664 0
 3890 01bc 0320     		movs	r0, #3
 3891 01be 83E7     		b	.L216
 3892              	.L219:
 675:Drivers/lvgl/lvgl/src/core/lv_obj_pos.c ****                 break;
ARM GAS  /tmp/cc3JQQuJ.s 			page 109


 3893              		.loc 1 675 0
 3894 01c0 009A     		ldr	r2, [sp]
 3895 01c2 1346     		mov	r3, r2
 3896 01c4 002A     		cmp	r2, #0
 3897 01c6 10DB     		blt	.L250
 3898              	.L228:
 3899 01c8 5B10     		asrs	r3, r3, #1
 3900 01ca 029A     		ldr	r2, [sp, #8]
 3901 01cc 9046     		mov	r8, r2
 3902              	.LVL455:
 3903 01ce 002A     		cmp	r2, #0
 3904 01d0 0DDB     		blt	.L251
 3905              	.L229:
 3906 01d2 A3EB6808 		sub	r8, r3, r8, asr #1
 3907 01d6 16FA88F6 		uxtah	r6, r6, r8
 3908              	.LVL456:
 3909 01da 0FFA86F8 		sxth	r8, r6
 3910              	.LVL457:
 3911              	.L218:
 705:Drivers/lvgl/lvgl/src/core/lv_obj_pos.c ****     }
 3912              		.loc 1 705 0
 3913 01de 4A46     		mov	r2, r9
 3914 01e0 4146     		mov	r1, r8
 3915 01e2 2046     		mov	r0, r4
 3916 01e4 FFF7FEFF 		bl	lv_obj_move_to
 3917              	.LVL458:
 3918 01e8 11E7     		b	.L200
 3919              	.L250:
 675:Drivers/lvgl/lvgl/src/core/lv_obj_pos.c ****                 break;
 3920              		.loc 1 675 0
 3921 01ea 0133     		adds	r3, r3, #1
 3922 01ec ECE7     		b	.L228
 3923              	.LVL459:
 3924              	.L251:
 3925 01ee 02F10108 		add	r8, r2, #1
 3926 01f2 EEE7     		b	.L229
 3927              	.LVL460:
 3928              	.L221:
 678:Drivers/lvgl/lvgl/src/core/lv_obj_pos.c ****                 break;
 3929              		.loc 1 678 0
 3930 01f4 009B     		ldr	r3, [sp]
 3931 01f6 029A     		ldr	r2, [sp, #8]
 3932 01f8 A3EB0208 		sub	r8, r3, r2
 3933              	.LVL461:
 3934 01fc 16FA88F6 		uxtah	r6, r6, r8
 3935              	.LVL462:
 3936 0200 0FFA86F8 		sxth	r8, r6
 3937              	.LVL463:
 679:Drivers/lvgl/lvgl/src/core/lv_obj_pos.c ****             case LV_ALIGN_LEFT_MID:
 3938              		.loc 1 679 0
 3939 0204 EBE7     		b	.L218
 3940              	.L225:
 681:Drivers/lvgl/lvgl/src/core/lv_obj_pos.c ****                 break;
 3941              		.loc 1 681 0
 3942 0206 019A     		ldr	r2, [sp, #4]
 3943 0208 1346     		mov	r3, r2
 3944 020a 002A     		cmp	r2, #0
ARM GAS  /tmp/cc3JQQuJ.s 			page 110


 3945 020c 0BDB     		blt	.L252
 3946              	.L230:
 3947 020e 5B10     		asrs	r3, r3, #1
 3948 0210 039A     		ldr	r2, [sp, #12]
 3949 0212 9146     		mov	r9, r2
 3950              	.LVL464:
 3951 0214 002A     		cmp	r2, #0
 3952 0216 08DB     		blt	.L253
 3953              	.L231:
 3954 0218 A3EB6909 		sub	r9, r3, r9, asr #1
 3955 021c 15FA89F5 		uxtah	r5, r5, r9
 3956              	.LVL465:
 3957 0220 0FFA85F9 		sxth	r9, r5
 3958              	.LVL466:
 682:Drivers/lvgl/lvgl/src/core/lv_obj_pos.c ****             case LV_ALIGN_BOTTOM_LEFT:
 3959              		.loc 1 682 0
 3960 0224 DBE7     		b	.L218
 3961              	.L252:
 681:Drivers/lvgl/lvgl/src/core/lv_obj_pos.c ****                 break;
 3962              		.loc 1 681 0
 3963 0226 0133     		adds	r3, r3, #1
 3964 0228 F1E7     		b	.L230
 3965              	.LVL467:
 3966              	.L253:
 3967 022a 02F10109 		add	r9, r2, #1
 3968 022e F3E7     		b	.L231
 3969              	.LVL468:
 3970              	.L222:
 684:Drivers/lvgl/lvgl/src/core/lv_obj_pos.c ****                 break;
 3971              		.loc 1 684 0
 3972 0230 019B     		ldr	r3, [sp, #4]
 3973 0232 039A     		ldr	r2, [sp, #12]
 3974 0234 A3EB0209 		sub	r9, r3, r2
 3975              	.LVL469:
 3976 0238 15FA89F5 		uxtah	r5, r5, r9
 3977              	.LVL470:
 3978 023c 0FFA85F9 		sxth	r9, r5
 3979              	.LVL471:
 685:Drivers/lvgl/lvgl/src/core/lv_obj_pos.c ****             case LV_ALIGN_BOTTOM_MID:
 3980              		.loc 1 685 0
 3981 0240 CDE7     		b	.L218
 3982              	.L223:
 687:Drivers/lvgl/lvgl/src/core/lv_obj_pos.c ****                 y += ph - h;
 3983              		.loc 1 687 0
 3984 0242 009A     		ldr	r2, [sp]
 3985 0244 1346     		mov	r3, r2
 3986 0246 002A     		cmp	r2, #0
 3987 0248 13DB     		blt	.L254
 3988              	.L232:
 3989 024a 5B10     		asrs	r3, r3, #1
 3990 024c 029A     		ldr	r2, [sp, #8]
 3991 024e 9046     		mov	r8, r2
 3992              	.LVL472:
 3993 0250 002A     		cmp	r2, #0
 3994 0252 10DB     		blt	.L255
 3995              	.L233:
 3996 0254 A3EB6808 		sub	r8, r3, r8, asr #1
ARM GAS  /tmp/cc3JQQuJ.s 			page 111


 3997 0258 16FA88F6 		uxtah	r6, r6, r8
 3998              	.LVL473:
 3999 025c 0FFA86F8 		sxth	r8, r6
 4000              	.LVL474:
 688:Drivers/lvgl/lvgl/src/core/lv_obj_pos.c ****                 break;
 4001              		.loc 1 688 0
 4002 0260 019B     		ldr	r3, [sp, #4]
 4003 0262 039A     		ldr	r2, [sp, #12]
 4004 0264 A3EB0209 		sub	r9, r3, r2
 4005              	.LVL475:
 4006 0268 15FA89F5 		uxtah	r5, r5, r9
 4007              	.LVL476:
 4008 026c 0FFA85F9 		sxth	r9, r5
 4009              	.LVL477:
 689:Drivers/lvgl/lvgl/src/core/lv_obj_pos.c ****             case LV_ALIGN_BOTTOM_RIGHT:
 4010              		.loc 1 689 0
 4011 0270 B5E7     		b	.L218
 4012              	.L254:
 687:Drivers/lvgl/lvgl/src/core/lv_obj_pos.c ****                 y += ph - h;
 4013              		.loc 1 687 0
 4014 0272 0133     		adds	r3, r3, #1
 4015 0274 E9E7     		b	.L232
 4016              	.LVL478:
 4017              	.L255:
 4018 0276 02F10108 		add	r8, r2, #1
 4019 027a EBE7     		b	.L233
 4020              	.LVL479:
 4021              	.L224:
 691:Drivers/lvgl/lvgl/src/core/lv_obj_pos.c ****                 y += ph - h;
 4022              		.loc 1 691 0
 4023 027c 009B     		ldr	r3, [sp]
 4024 027e 029A     		ldr	r2, [sp, #8]
 4025 0280 A3EB0208 		sub	r8, r3, r2
 4026              	.LVL480:
 4027 0284 16FA88F6 		uxtah	r6, r6, r8
 4028              	.LVL481:
 4029 0288 0FFA86F8 		sxth	r8, r6
 4030              	.LVL482:
 692:Drivers/lvgl/lvgl/src/core/lv_obj_pos.c ****                 break;
 4031              		.loc 1 692 0
 4032 028c 019B     		ldr	r3, [sp, #4]
 4033 028e 039A     		ldr	r2, [sp, #12]
 4034 0290 A3EB0209 		sub	r9, r3, r2
 4035              	.LVL483:
 4036 0294 15FA89F5 		uxtah	r5, r5, r9
 4037              	.LVL484:
 4038 0298 0FFA85F9 		sxth	r9, r5
 4039              	.LVL485:
 693:Drivers/lvgl/lvgl/src/core/lv_obj_pos.c ****             case LV_ALIGN_RIGHT_MID:
 4040              		.loc 1 693 0
 4041 029c 9FE7     		b	.L218
 4042              	.L226:
 695:Drivers/lvgl/lvgl/src/core/lv_obj_pos.c ****                 y += ph / 2 - h / 2;
 4043              		.loc 1 695 0
 4044 029e 009B     		ldr	r3, [sp]
 4045 02a0 029A     		ldr	r2, [sp, #8]
 4046 02a2 A3EB0208 		sub	r8, r3, r2
ARM GAS  /tmp/cc3JQQuJ.s 			page 112


 4047              	.LVL486:
 4048 02a6 16FA88F6 		uxtah	r6, r6, r8
 4049              	.LVL487:
 4050 02aa 0FFA86F8 		sxth	r8, r6
 4051              	.LVL488:
 696:Drivers/lvgl/lvgl/src/core/lv_obj_pos.c ****                 break;
 4052              		.loc 1 696 0
 4053 02ae 019A     		ldr	r2, [sp, #4]
 4054 02b0 1346     		mov	r3, r2
 4055 02b2 002A     		cmp	r2, #0
 4056 02b4 0BDB     		blt	.L256
 4057              	.L234:
 4058 02b6 5B10     		asrs	r3, r3, #1
 4059 02b8 039A     		ldr	r2, [sp, #12]
 4060 02ba 9146     		mov	r9, r2
 4061              	.LVL489:
 4062 02bc 002A     		cmp	r2, #0
 4063 02be 08DB     		blt	.L257
 4064              	.L235:
 4065 02c0 A3EB6909 		sub	r9, r3, r9, asr #1
 4066 02c4 15FA89F5 		uxtah	r5, r5, r9
 4067              	.LVL490:
 4068 02c8 0FFA85F9 		sxth	r9, r5
 4069              	.LVL491:
 697:Drivers/lvgl/lvgl/src/core/lv_obj_pos.c ****             case LV_ALIGN_CENTER:
 4070              		.loc 1 697 0
 4071 02cc 87E7     		b	.L218
 4072              	.L256:
 696:Drivers/lvgl/lvgl/src/core/lv_obj_pos.c ****                 break;
 4073              		.loc 1 696 0
 4074 02ce 0133     		adds	r3, r3, #1
 4075 02d0 F1E7     		b	.L234
 4076              	.LVL492:
 4077              	.L257:
 4078 02d2 02F10109 		add	r9, r2, #1
 4079 02d6 F3E7     		b	.L235
 4080              	.LVL493:
 4081              	.L227:
 699:Drivers/lvgl/lvgl/src/core/lv_obj_pos.c ****                 y += ph / 2 - h / 2;
 4082              		.loc 1 699 0
 4083 02d8 009A     		ldr	r2, [sp]
 4084 02da 1346     		mov	r3, r2
 4085 02dc 002A     		cmp	r2, #0
 4086 02de 1ADB     		blt	.L258
 4087              	.L236:
 4088 02e0 5B10     		asrs	r3, r3, #1
 4089 02e2 029A     		ldr	r2, [sp, #8]
 4090 02e4 9046     		mov	r8, r2
 4091              	.LVL494:
 4092 02e6 002A     		cmp	r2, #0
 4093 02e8 17DB     		blt	.L259
 4094              	.L237:
 4095 02ea A3EB6808 		sub	r8, r3, r8, asr #1
 4096 02ee 16FA88F6 		uxtah	r6, r6, r8
 4097              	.LVL495:
 4098 02f2 0FFA86F8 		sxth	r8, r6
 4099              	.LVL496:
ARM GAS  /tmp/cc3JQQuJ.s 			page 113


 700:Drivers/lvgl/lvgl/src/core/lv_obj_pos.c ****                 break;
 4100              		.loc 1 700 0
 4101 02f6 019A     		ldr	r2, [sp, #4]
 4102 02f8 1346     		mov	r3, r2
 4103 02fa 002A     		cmp	r2, #0
 4104 02fc 10DB     		blt	.L260
 4105              	.L238:
 4106 02fe 5B10     		asrs	r3, r3, #1
 4107 0300 039A     		ldr	r2, [sp, #12]
 4108 0302 9146     		mov	r9, r2
 4109              	.LVL497:
 4110 0304 002A     		cmp	r2, #0
 4111 0306 0DDB     		blt	.L261
 4112              	.L239:
 4113 0308 A3EB6909 		sub	r9, r3, r9, asr #1
 4114 030c 15FA89F5 		uxtah	r5, r5, r9
 4115              	.LVL498:
 4116 0310 0FFA85F9 		sxth	r9, r5
 4117              	.LVL499:
 701:Drivers/lvgl/lvgl/src/core/lv_obj_pos.c ****             default:
 4118              		.loc 1 701 0
 4119 0314 63E7     		b	.L218
 4120              	.L258:
 699:Drivers/lvgl/lvgl/src/core/lv_obj_pos.c ****                 y += ph / 2 - h / 2;
 4121              		.loc 1 699 0
 4122 0316 0133     		adds	r3, r3, #1
 4123 0318 E2E7     		b	.L236
 4124              	.LVL500:
 4125              	.L259:
 4126 031a 02F10108 		add	r8, r2, #1
 4127 031e E4E7     		b	.L237
 4128              	.LVL501:
 4129              	.L260:
 700:Drivers/lvgl/lvgl/src/core/lv_obj_pos.c ****                 break;
 4130              		.loc 1 700 0
 4131 0320 0133     		adds	r3, r3, #1
 4132 0322 ECE7     		b	.L238
 4133              	.LVL502:
 4134              	.L261:
 4135 0324 02F10109 		add	r9, r2, #1
 4136 0328 EEE7     		b	.L239
 4137              	.L263:
 4138 032a 00BF     		.align	2
 4139              	.L262:
 4140 032c 1F85EB51 		.word	1374389535
 4141              		.cfi_endproc
 4142              	.LFE197:
 4144              		.section	.text.lv_obj_is_visible,"ax",%progbits
 4145              		.align	1
 4146              		.global	lv_obj_is_visible
 4147              		.syntax unified
 4148              		.thumb
 4149              		.thumb_func
 4150              		.fpu fpv5-d16
 4152              	lv_obj_is_visible:
 4153              	.LFB205:
 919:Drivers/lvgl/lvgl/src/core/lv_obj_pos.c ****     LV_ASSERT_OBJ(obj, MY_CLASS);
ARM GAS  /tmp/cc3JQQuJ.s 			page 114


 4154              		.loc 1 919 0
 4155              		.cfi_startproc
 4156              		@ args = 0, pretend = 0, frame = 8
 4157              		@ frame_needed = 0, uses_anonymous_args = 0
 4158              	.LVL503:
 4159 0000 30B5     		push	{r4, r5, lr}
 4160              	.LCFI76:
 4161              		.cfi_def_cfa_offset 12
 4162              		.cfi_offset 4, -12
 4163              		.cfi_offset 5, -8
 4164              		.cfi_offset 14, -4
 4165 0002 83B0     		sub	sp, sp, #12
 4166              	.LCFI77:
 4167              		.cfi_def_cfa_offset 24
 4168 0004 0446     		mov	r4, r0
 923:Drivers/lvgl/lvgl/src/core/lv_obj_pos.c ****     lv_area_copy(&obj_coords, &obj->coords);
 4169              		.loc 1 923 0
 4170 0006 FFF7FEFF 		bl	_lv_obj_get_ext_draw_size
 4171              	.LVL504:
 4172              	.LBB351:
 4173              	.LBB352:
 112:Drivers/lvgl/lvgl/src/core/../misc/../font/../misc/lv_area.h ****     dest->y1 = src->y1;
 4174              		.loc 3 112 0
 4175 000a B4F91410 		ldrsh	r1, [r4, #20]
 113:Drivers/lvgl/lvgl/src/core/../misc/../font/../misc/lv_area.h ****     dest->x2 = src->x2;
 4176              		.loc 3 113 0
 4177 000e B4F91620 		ldrsh	r2, [r4, #22]
 114:Drivers/lvgl/lvgl/src/core/../misc/../font/../misc/lv_area.h ****     dest->y2 = src->y2;
 4178              		.loc 3 114 0
 4179 0012 B4F91830 		ldrsh	r3, [r4, #24]
 115:Drivers/lvgl/lvgl/src/core/../misc/../font/../misc/lv_area.h **** }
 4180              		.loc 3 115 0
 4181 0016 B4F91A50 		ldrsh	r5, [r4, #26]
 4182              	.LVL505:
 4183              	.LBE352:
 4184              	.LBE351:
 925:Drivers/lvgl/lvgl/src/core/lv_obj_pos.c ****     obj_coords.y1 -= ext_size;
 4185              		.loc 1 925 0
 4186 001a 80B2     		uxth	r0, r0
 4187 001c 091A     		subs	r1, r1, r0
 4188 001e ADF80010 		strh	r1, [sp]	@ movhi
 926:Drivers/lvgl/lvgl/src/core/lv_obj_pos.c ****     obj_coords.x2 += ext_size;
 4189              		.loc 1 926 0
 4190 0022 121A     		subs	r2, r2, r0
 4191 0024 ADF80220 		strh	r2, [sp, #2]	@ movhi
 927:Drivers/lvgl/lvgl/src/core/lv_obj_pos.c ****     obj_coords.y2 += ext_size;
 4192              		.loc 1 927 0
 4193 0028 0344     		add	r3, r3, r0
 4194 002a ADF80430 		strh	r3, [sp, #4]	@ movhi
 928:Drivers/lvgl/lvgl/src/core/lv_obj_pos.c **** 
 4195              		.loc 1 928 0
 4196 002e 2844     		add	r0, r0, r5
 4197              	.LVL506:
 4198 0030 ADF80600 		strh	r0, [sp, #6]	@ movhi
 930:Drivers/lvgl/lvgl/src/core/lv_obj_pos.c **** 
 4199              		.loc 1 930 0
 4200 0034 6946     		mov	r1, sp
ARM GAS  /tmp/cc3JQQuJ.s 			page 115


 4201 0036 2046     		mov	r0, r4
 4202 0038 FFF7FEFF 		bl	lv_obj_area_is_visible
 4203              	.LVL507:
 932:Drivers/lvgl/lvgl/src/core/lv_obj_pos.c **** 
 4204              		.loc 1 932 0
 4205 003c 03B0     		add	sp, sp, #12
 4206              	.LCFI78:
 4207              		.cfi_def_cfa_offset 12
 4208              		@ sp needed
 4209 003e 30BD     		pop	{r4, r5, pc}
 4210              		.cfi_endproc
 4211              	.LFE205:
 4213              		.section	.text.lv_obj_set_ext_click_area,"ax",%progbits
 4214              		.align	1
 4215              		.global	lv_obj_set_ext_click_area
 4216              		.syntax unified
 4217              		.thumb
 4218              		.thumb_func
 4219              		.fpu fpv5-d16
 4221              	lv_obj_set_ext_click_area:
 4222              	.LFB206:
 935:Drivers/lvgl/lvgl/src/core/lv_obj_pos.c ****     LV_ASSERT_OBJ(obj, MY_CLASS);
 4223              		.loc 1 935 0
 4224              		.cfi_startproc
 4225              		@ args = 0, pretend = 0, frame = 0
 4226              		@ frame_needed = 0, uses_anonymous_args = 0
 4227              	.LVL508:
 4228 0000 38B5     		push	{r3, r4, r5, lr}
 4229              	.LCFI79:
 4230              		.cfi_def_cfa_offset 16
 4231              		.cfi_offset 3, -16
 4232              		.cfi_offset 4, -12
 4233              		.cfi_offset 5, -8
 4234              		.cfi_offset 14, -4
 4235 0002 0546     		mov	r5, r0
 4236 0004 0C46     		mov	r4, r1
 938:Drivers/lvgl/lvgl/src/core/lv_obj_pos.c ****     obj->spec_attr->ext_click_pad = size;
 4237              		.loc 1 938 0
 4238 0006 FFF7FEFF 		bl	lv_obj_allocate_spec_attr
 4239              	.LVL509:
 939:Drivers/lvgl/lvgl/src/core/lv_obj_pos.c **** }
 4240              		.loc 1 939 0
 4241 000a AB68     		ldr	r3, [r5, #8]
 4242 000c 9C82     		strh	r4, [r3, #20]	@ movhi
 940:Drivers/lvgl/lvgl/src/core/lv_obj_pos.c **** 
 4243              		.loc 1 940 0
 4244 000e 38BD     		pop	{r3, r4, r5, pc}
 4245              		.cfi_endproc
 4246              	.LFE206:
 4248              		.section	.text.lv_obj_get_click_area,"ax",%progbits
 4249              		.align	1
 4250              		.global	lv_obj_get_click_area
 4251              		.syntax unified
 4252              		.thumb
 4253              		.thumb_func
 4254              		.fpu fpv5-d16
 4256              	lv_obj_get_click_area:
ARM GAS  /tmp/cc3JQQuJ.s 			page 116


 4257              	.LFB207:
 943:Drivers/lvgl/lvgl/src/core/lv_obj_pos.c ****     lv_area_copy(area, &obj->coords);
 4258              		.loc 1 943 0
 4259              		.cfi_startproc
 4260              		@ args = 0, pretend = 0, frame = 0
 4261              		@ frame_needed = 0, uses_anonymous_args = 0
 4262              		@ link register save eliminated.
 4263              	.LVL510:
 4264 0000 70B4     		push	{r4, r5, r6}
 4265              	.LCFI80:
 4266              		.cfi_def_cfa_offset 12
 4267              		.cfi_offset 4, -12
 4268              		.cfi_offset 5, -8
 4269              		.cfi_offset 6, -4
 4270              	.LVL511:
 4271              	.LBB353:
 4272              	.LBB354:
 112:Drivers/lvgl/lvgl/src/core/../misc/../font/../misc/lv_area.h ****     dest->y1 = src->y1;
 4273              		.loc 3 112 0
 4274 0002 B0F91420 		ldrsh	r2, [r0, #20]
 4275 0006 0A80     		strh	r2, [r1]	@ movhi
 113:Drivers/lvgl/lvgl/src/core/../misc/../font/../misc/lv_area.h ****     dest->x2 = src->x2;
 4276              		.loc 3 113 0
 4277 0008 B0F91630 		ldrsh	r3, [r0, #22]
 4278 000c 4B80     		strh	r3, [r1, #2]	@ movhi
 114:Drivers/lvgl/lvgl/src/core/../misc/../font/../misc/lv_area.h ****     dest->y2 = src->y2;
 4279              		.loc 3 114 0
 4280 000e B0F91850 		ldrsh	r5, [r0, #24]
 4281 0012 8D80     		strh	r5, [r1, #4]	@ movhi
 115:Drivers/lvgl/lvgl/src/core/../misc/../font/../misc/lv_area.h **** }
 4282              		.loc 3 115 0
 4283 0014 B0F91A40 		ldrsh	r4, [r0, #26]
 4284 0018 CC80     		strh	r4, [r1, #6]	@ movhi
 4285              	.LVL512:
 4286              	.LBE354:
 4287              	.LBE353:
 945:Drivers/lvgl/lvgl/src/core/lv_obj_pos.c ****         area->x1 -= obj->spec_attr->ext_click_pad;
 4288              		.loc 1 945 0
 4289 001a 8668     		ldr	r6, [r0, #8]
 4290 001c 76B1     		cbz	r6, .L268
 946:Drivers/lvgl/lvgl/src/core/lv_obj_pos.c ****         area->x2 += obj->spec_attr->ext_click_pad;
 4291              		.loc 1 946 0
 4292 001e B68A     		ldrh	r6, [r6, #20]
 4293 0020 921B     		subs	r2, r2, r6
 4294 0022 0A80     		strh	r2, [r1]	@ movhi
 947:Drivers/lvgl/lvgl/src/core/lv_obj_pos.c ****         area->y1 -= obj->spec_attr->ext_click_pad;
 4295              		.loc 1 947 0
 4296 0024 8268     		ldr	r2, [r0, #8]
 4297 0026 928A     		ldrh	r2, [r2, #20]
 4298 0028 2A44     		add	r2, r2, r5
 4299 002a 8A80     		strh	r2, [r1, #4]	@ movhi
 948:Drivers/lvgl/lvgl/src/core/lv_obj_pos.c ****         area->y2 += obj->spec_attr->ext_click_pad;
 4300              		.loc 1 948 0
 4301 002c 8268     		ldr	r2, [r0, #8]
 4302 002e 928A     		ldrh	r2, [r2, #20]
 4303 0030 9B1A     		subs	r3, r3, r2
 4304 0032 4B80     		strh	r3, [r1, #2]	@ movhi
ARM GAS  /tmp/cc3JQQuJ.s 			page 117


 949:Drivers/lvgl/lvgl/src/core/lv_obj_pos.c ****     }
 4305              		.loc 1 949 0
 4306 0034 8368     		ldr	r3, [r0, #8]
 4307 0036 9B8A     		ldrh	r3, [r3, #20]
 4308 0038 2344     		add	r3, r3, r4
 4309 003a CB80     		strh	r3, [r1, #6]	@ movhi
 4310              	.L268:
 951:Drivers/lvgl/lvgl/src/core/lv_obj_pos.c **** 
 4311              		.loc 1 951 0
 4312 003c 70BC     		pop	{r4, r5, r6}
 4313              	.LCFI81:
 4314              		.cfi_restore 6
 4315              		.cfi_restore 5
 4316              		.cfi_restore 4
 4317              		.cfi_def_cfa_offset 0
 4318 003e 7047     		bx	lr
 4319              		.cfi_endproc
 4320              	.LFE207:
 4322              		.section	.text.lv_obj_hit_test,"ax",%progbits
 4323              		.align	1
 4324              		.global	lv_obj_hit_test
 4325              		.syntax unified
 4326              		.thumb
 4327              		.thumb_func
 4328              		.fpu fpv5-d16
 4330              	lv_obj_hit_test:
 4331              	.LFB208:
 954:Drivers/lvgl/lvgl/src/core/lv_obj_pos.c ****     if(!lv_obj_has_flag(obj, LV_OBJ_FLAG_CLICKABLE)) return false;
 4332              		.loc 1 954 0
 4333              		.cfi_startproc
 4334              		@ args = 0, pretend = 0, frame = 16
 4335              		@ frame_needed = 0, uses_anonymous_args = 0
 4336              	.LVL513:
 4337 0000 70B5     		push	{r4, r5, r6, lr}
 4338              	.LCFI82:
 4339              		.cfi_def_cfa_offset 16
 4340              		.cfi_offset 4, -16
 4341              		.cfi_offset 5, -12
 4342              		.cfi_offset 6, -8
 4343              		.cfi_offset 14, -4
 4344 0002 84B0     		sub	sp, sp, #16
 4345              	.LCFI83:
 4346              		.cfi_def_cfa_offset 32
 4347 0004 0546     		mov	r5, r0
 4348 0006 0E46     		mov	r6, r1
 955:Drivers/lvgl/lvgl/src/core/lv_obj_pos.c ****     if(lv_obj_has_state(obj, LV_STATE_DISABLED)) return false;
 4349              		.loc 1 955 0
 4350 0008 0221     		movs	r1, #2
 4351              	.LVL514:
 4352 000a FFF7FEFF 		bl	lv_obj_has_flag
 4353              	.LVL515:
 4354 000e 0446     		mov	r4, r0
 4355 0010 10B9     		cbnz	r0, .L275
 4356              	.L272:
 972:Drivers/lvgl/lvgl/src/core/lv_obj_pos.c **** 
 4357              		.loc 1 972 0 discriminator 1
 4358 0012 2046     		mov	r0, r4
ARM GAS  /tmp/cc3JQQuJ.s 			page 118


 4359 0014 04B0     		add	sp, sp, #16
 4360              	.LCFI84:
 4361              		.cfi_remember_state
 4362              		.cfi_def_cfa_offset 16
 4363              		@ sp needed
 4364 0016 70BD     		pop	{r4, r5, r6, pc}
 4365              	.LVL516:
 4366              	.L275:
 4367              	.LCFI85:
 4368              		.cfi_restore_state
 956:Drivers/lvgl/lvgl/src/core/lv_obj_pos.c **** 
 4369              		.loc 1 956 0
 4370 0018 8021     		movs	r1, #128
 4371 001a 2846     		mov	r0, r5
 4372 001c FFF7FEFF 		bl	lv_obj_has_state
 4373              	.LVL517:
 4374 0020 08B1     		cbz	r0, .L276
 4375 0022 0024     		movs	r4, #0
 4376 0024 F5E7     		b	.L272
 4377              	.L276:
 959:Drivers/lvgl/lvgl/src/core/lv_obj_pos.c ****     bool res = _lv_area_is_point_on(&a, point, 0);
 4378              		.loc 1 959 0
 4379 0026 02A9     		add	r1, sp, #8
 4380 0028 2846     		mov	r0, r5
 4381 002a FFF7FEFF 		bl	lv_obj_get_click_area
 4382              	.LVL518:
 960:Drivers/lvgl/lvgl/src/core/lv_obj_pos.c ****     if(res == false) return false;
 4383              		.loc 1 960 0
 4384 002e 0022     		movs	r2, #0
 4385 0030 3146     		mov	r1, r6
 4386 0032 02A8     		add	r0, sp, #8
 4387 0034 FFF7FEFF 		bl	_lv_area_is_point_on
 4388              	.LVL519:
 961:Drivers/lvgl/lvgl/src/core/lv_obj_pos.c **** 
 4389              		.loc 1 961 0
 4390 0038 0446     		mov	r4, r0
 4391 003a 0028     		cmp	r0, #0
 4392 003c E9D0     		beq	.L272
 963:Drivers/lvgl/lvgl/src/core/lv_obj_pos.c ****         lv_hit_test_info_t hit_info;
 4393              		.loc 1 963 0
 4394 003e 4FF48031 		mov	r1, #65536
 4395 0042 2846     		mov	r0, r5
 4396              	.LVL520:
 4397 0044 FFF7FEFF 		bl	lv_obj_has_flag
 4398              	.LVL521:
 4399 0048 0028     		cmp	r0, #0
 4400 004a E2D0     		beq	.L272
 4401              	.LBB355:
 965:Drivers/lvgl/lvgl/src/core/lv_obj_pos.c ****         hit_info.res = true;
 4402              		.loc 1 965 0
 4403 004c 0096     		str	r6, [sp]
 966:Drivers/lvgl/lvgl/src/core/lv_obj_pos.c ****         lv_event_send(obj, LV_EVENT_HIT_TEST, &hit_info);
 4404              		.loc 1 966 0
 4405 004e 0123     		movs	r3, #1
 4406 0050 8DF80430 		strb	r3, [sp, #4]
 967:Drivers/lvgl/lvgl/src/core/lv_obj_pos.c ****         return hit_info.res;
 4407              		.loc 1 967 0
ARM GAS  /tmp/cc3JQQuJ.s 			page 119


 4408 0054 6A46     		mov	r2, sp
 4409 0056 1121     		movs	r1, #17
 4410 0058 2846     		mov	r0, r5
 4411 005a FFF7FEFF 		bl	lv_event_send
 4412              	.LVL522:
 968:Drivers/lvgl/lvgl/src/core/lv_obj_pos.c ****     }
 4413              		.loc 1 968 0
 4414 005e 9DF80440 		ldrb	r4, [sp, #4]	@ zero_extendqisi2
 4415 0062 D6E7     		b	.L272
 4416              	.LBE355:
 4417              		.cfi_endproc
 4418              	.LFE208:
 4420              		.section	.text.lv_clamp_width,"ax",%progbits
 4421              		.align	1
 4422              		.global	lv_clamp_width
 4423              		.syntax unified
 4424              		.thumb
 4425              		.thumb_func
 4426              		.fpu fpv5-d16
 4428              	lv_clamp_width:
 4429              	.LFB209:
 975:Drivers/lvgl/lvgl/src/core/lv_obj_pos.c ****     if(LV_COORD_IS_PCT(min_width)) min_width = (ref_width * LV_COORD_GET_PCT(min_width)) / 100;
 4430              		.loc 1 975 0
 4431              		.cfi_startproc
 4432              		@ args = 0, pretend = 0, frame = 0
 4433              		@ frame_needed = 0, uses_anonymous_args = 0
 4434              		@ link register save eliminated.
 4435              	.LVL523:
 4436 0000 30B4     		push	{r4, r5}
 4437              	.LCFI86:
 4438              		.cfi_def_cfa_offset 8
 4439              		.cfi_offset 4, -8
 4440              		.cfi_offset 5, -4
 976:Drivers/lvgl/lvgl/src/core/lv_obj_pos.c ****     if(LV_COORD_IS_PCT(max_width)) max_width = (ref_width * LV_COORD_GET_PCT(max_width)) / 100;
 4441              		.loc 1 976 0
 4442 0002 01F4C045 		and	r5, r1, #24576
 4443 0006 B5F5005F 		cmp	r5, #8192
 4444 000a 0CD0     		beq	.L285
 4445              	.L278:
 977:Drivers/lvgl/lvgl/src/core/lv_obj_pos.c ****     return LV_CLAMP(min_width, width, max_width);
 4446              		.loc 1 977 0
 4447 000c 02F4C045 		and	r5, r2, #24576
 4448 0010 B5F5005F 		cmp	r5, #8192
 4449 0014 1BD0     		beq	.L286
 4450              	.LVL524:
 4451              	.L281:
 978:Drivers/lvgl/lvgl/src/core/lv_obj_pos.c **** }
 4452              		.loc 1 978 0
 4453 0016 9042     		cmp	r0, r2
 4454 0018 A8BF     		it	ge
 4455 001a 1046     		movge	r0, r2
 4456              	.LVL525:
 979:Drivers/lvgl/lvgl/src/core/lv_obj_pos.c **** 
 4457              		.loc 1 979 0
 4458 001c 8842     		cmp	r0, r1
 4459 001e B8BF     		it	lt
 4460 0020 0846     		movlt	r0, r1
ARM GAS  /tmp/cc3JQQuJ.s 			page 120


 4461 0022 30BC     		pop	{r4, r5}
 4462              	.LCFI87:
 4463              		.cfi_remember_state
 4464              		.cfi_restore 5
 4465              		.cfi_restore 4
 4466              		.cfi_def_cfa_offset 0
 4467 0024 7047     		bx	lr
 4468              	.LVL526:
 4469              	.L285:
 4470              	.LCFI88:
 4471              		.cfi_restore_state
 976:Drivers/lvgl/lvgl/src/core/lv_obj_pos.c ****     if(LV_COORD_IS_PCT(max_width)) max_width = (ref_width * LV_COORD_GET_PCT(max_width)) / 100;
 4472              		.loc 1 976 0 discriminator 1
 4473 0026 21F4C045 		bic	r5, r1, #24576
 4474 002a B5F5FA6F 		cmp	r5, #2000
 4475 002e EDDC     		bgt	.L278
 976:Drivers/lvgl/lvgl/src/core/lv_obj_pos.c ****     if(LV_COORD_IS_PCT(max_width)) max_width = (ref_width * LV_COORD_GET_PCT(max_width)) / 100;
 4476              		.loc 1 976 0 is_stmt 0 discriminator 2
 4477 0030 B5F57A7F 		cmp	r5, #1000
 4478 0034 01DD     		ble	.L280
 976:Drivers/lvgl/lvgl/src/core/lv_obj_pos.c ****     if(LV_COORD_IS_PCT(max_width)) max_width = (ref_width * LV_COORD_GET_PCT(max_width)) / 100;
 4479              		.loc 1 976 0 discriminator 3
 4480 0036 C5F57A75 		rsb	r5, r5, #1000
 4481              	.L280:
 976:Drivers/lvgl/lvgl/src/core/lv_obj_pos.c ****     if(LV_COORD_IS_PCT(max_width)) max_width = (ref_width * LV_COORD_GET_PCT(max_width)) / 100;
 4482              		.loc 1 976 0 discriminator 6
 4483 003a 05FB03F5 		mul	r5, r5, r3
 4484 003e 0E4C     		ldr	r4, .L287
 4485 0040 84FB0514 		smull	r1, r4, r4, r5
 4486              	.LVL527:
 4487 0044 E917     		asrs	r1, r5, #31
 4488 0046 C1EB6411 		rsb	r1, r1, r4, asr #5
 4489 004a 09B2     		sxth	r1, r1
 4490              	.LVL528:
 4491 004c DEE7     		b	.L278
 4492              	.L286:
 977:Drivers/lvgl/lvgl/src/core/lv_obj_pos.c ****     return LV_CLAMP(min_width, width, max_width);
 4493              		.loc 1 977 0 is_stmt 1 discriminator 1
 4494 004e 22F4C044 		bic	r4, r2, #24576
 4495 0052 B4F5FA6F 		cmp	r4, #2000
 4496 0056 DEDC     		bgt	.L281
 977:Drivers/lvgl/lvgl/src/core/lv_obj_pos.c ****     return LV_CLAMP(min_width, width, max_width);
 4497              		.loc 1 977 0 is_stmt 0 discriminator 2
 4498 0058 B4F57A7F 		cmp	r4, #1000
 4499 005c 01DD     		ble	.L283
 977:Drivers/lvgl/lvgl/src/core/lv_obj_pos.c ****     return LV_CLAMP(min_width, width, max_width);
 4500              		.loc 1 977 0 discriminator 3
 4501 005e C4F57A74 		rsb	r4, r4, #1000
 4502              	.L283:
 977:Drivers/lvgl/lvgl/src/core/lv_obj_pos.c ****     return LV_CLAMP(min_width, width, max_width);
 4503              		.loc 1 977 0 discriminator 6
 4504 0062 04FB03F3 		mul	r3, r4, r3
 4505              	.LVL529:
 4506 0066 044C     		ldr	r4, .L287
 4507 0068 84FB0324 		smull	r2, r4, r4, r3
 4508              	.LVL530:
 4509 006c DA17     		asrs	r2, r3, #31
ARM GAS  /tmp/cc3JQQuJ.s 			page 121


 4510 006e C2EB6412 		rsb	r2, r2, r4, asr #5
 4511 0072 12B2     		sxth	r2, r2
 4512              	.LVL531:
 4513 0074 CFE7     		b	.L281
 4514              	.L288:
 4515 0076 00BF     		.align	2
 4516              	.L287:
 4517 0078 1F85EB51 		.word	1374389535
 4518              		.cfi_endproc
 4519              	.LFE209:
 4521              		.section	.text.lv_clamp_height,"ax",%progbits
 4522              		.align	1
 4523              		.global	lv_clamp_height
 4524              		.syntax unified
 4525              		.thumb
 4526              		.thumb_func
 4527              		.fpu fpv5-d16
 4529              	lv_clamp_height:
 4530              	.LFB210:
 982:Drivers/lvgl/lvgl/src/core/lv_obj_pos.c ****     if(LV_COORD_IS_PCT(min_height)) min_height = (ref_height * LV_COORD_GET_PCT(min_height)) / 100;
 4531              		.loc 1 982 0 is_stmt 1
 4532              		.cfi_startproc
 4533              		@ args = 0, pretend = 0, frame = 0
 4534              		@ frame_needed = 0, uses_anonymous_args = 0
 4535              		@ link register save eliminated.
 4536              	.LVL532:
 4537 0000 30B4     		push	{r4, r5}
 4538              	.LCFI89:
 4539              		.cfi_def_cfa_offset 8
 4540              		.cfi_offset 4, -8
 4541              		.cfi_offset 5, -4
 983:Drivers/lvgl/lvgl/src/core/lv_obj_pos.c ****     if(LV_COORD_IS_PCT(max_height)) max_height = (ref_height * LV_COORD_GET_PCT(max_height)) / 100;
 4542              		.loc 1 983 0
 4543 0002 01F4C045 		and	r5, r1, #24576
 4544 0006 B5F5005F 		cmp	r5, #8192
 4545 000a 0CD0     		beq	.L297
 4546              	.L290:
 984:Drivers/lvgl/lvgl/src/core/lv_obj_pos.c ****     return LV_CLAMP(min_height, height, max_height);
 4547              		.loc 1 984 0
 4548 000c 02F4C045 		and	r5, r2, #24576
 4549 0010 B5F5005F 		cmp	r5, #8192
 4550 0014 1BD0     		beq	.L298
 4551              	.LVL533:
 4552              	.L293:
 985:Drivers/lvgl/lvgl/src/core/lv_obj_pos.c **** }
 4553              		.loc 1 985 0
 4554 0016 9042     		cmp	r0, r2
 4555 0018 A8BF     		it	ge
 4556 001a 1046     		movge	r0, r2
 4557              	.LVL534:
 986:Drivers/lvgl/lvgl/src/core/lv_obj_pos.c **** 
 4558              		.loc 1 986 0
 4559 001c 8842     		cmp	r0, r1
 4560 001e B8BF     		it	lt
 4561 0020 0846     		movlt	r0, r1
 4562 0022 30BC     		pop	{r4, r5}
 4563              	.LCFI90:
ARM GAS  /tmp/cc3JQQuJ.s 			page 122


 4564              		.cfi_remember_state
 4565              		.cfi_restore 5
 4566              		.cfi_restore 4
 4567              		.cfi_def_cfa_offset 0
 4568 0024 7047     		bx	lr
 4569              	.LVL535:
 4570              	.L297:
 4571              	.LCFI91:
 4572              		.cfi_restore_state
 983:Drivers/lvgl/lvgl/src/core/lv_obj_pos.c ****     if(LV_COORD_IS_PCT(max_height)) max_height = (ref_height * LV_COORD_GET_PCT(max_height)) / 100;
 4573              		.loc 1 983 0 discriminator 1
 4574 0026 21F4C045 		bic	r5, r1, #24576
 4575 002a B5F5FA6F 		cmp	r5, #2000
 4576 002e EDDC     		bgt	.L290
 983:Drivers/lvgl/lvgl/src/core/lv_obj_pos.c ****     if(LV_COORD_IS_PCT(max_height)) max_height = (ref_height * LV_COORD_GET_PCT(max_height)) / 100;
 4577              		.loc 1 983 0 is_stmt 0 discriminator 2
 4578 0030 B5F57A7F 		cmp	r5, #1000
 4579 0034 01DD     		ble	.L292
 983:Drivers/lvgl/lvgl/src/core/lv_obj_pos.c ****     if(LV_COORD_IS_PCT(max_height)) max_height = (ref_height * LV_COORD_GET_PCT(max_height)) / 100;
 4580              		.loc 1 983 0 discriminator 3
 4581 0036 C5F57A75 		rsb	r5, r5, #1000
 4582              	.L292:
 983:Drivers/lvgl/lvgl/src/core/lv_obj_pos.c ****     if(LV_COORD_IS_PCT(max_height)) max_height = (ref_height * LV_COORD_GET_PCT(max_height)) / 100;
 4583              		.loc 1 983 0 discriminator 6
 4584 003a 05FB03F5 		mul	r5, r5, r3
 4585 003e 0E4C     		ldr	r4, .L299
 4586 0040 84FB0514 		smull	r1, r4, r4, r5
 4587              	.LVL536:
 4588 0044 E917     		asrs	r1, r5, #31
 4589 0046 C1EB6411 		rsb	r1, r1, r4, asr #5
 4590 004a 09B2     		sxth	r1, r1
 4591              	.LVL537:
 4592 004c DEE7     		b	.L290
 4593              	.L298:
 984:Drivers/lvgl/lvgl/src/core/lv_obj_pos.c ****     return LV_CLAMP(min_height, height, max_height);
 4594              		.loc 1 984 0 is_stmt 1 discriminator 1
 4595 004e 22F4C044 		bic	r4, r2, #24576
 4596 0052 B4F5FA6F 		cmp	r4, #2000
 4597 0056 DEDC     		bgt	.L293
 984:Drivers/lvgl/lvgl/src/core/lv_obj_pos.c ****     return LV_CLAMP(min_height, height, max_height);
 4598              		.loc 1 984 0 is_stmt 0 discriminator 2
 4599 0058 B4F57A7F 		cmp	r4, #1000
 4600 005c 01DD     		ble	.L295
 984:Drivers/lvgl/lvgl/src/core/lv_obj_pos.c ****     return LV_CLAMP(min_height, height, max_height);
 4601              		.loc 1 984 0 discriminator 3
 4602 005e C4F57A74 		rsb	r4, r4, #1000
 4603              	.L295:
 984:Drivers/lvgl/lvgl/src/core/lv_obj_pos.c ****     return LV_CLAMP(min_height, height, max_height);
 4604              		.loc 1 984 0 discriminator 6
 4605 0062 04FB03F3 		mul	r3, r4, r3
 4606              	.LVL538:
 4607 0066 044C     		ldr	r4, .L299
 4608 0068 84FB0324 		smull	r2, r4, r4, r3
 4609              	.LVL539:
 4610 006c DA17     		asrs	r2, r3, #31
 4611 006e C2EB6412 		rsb	r2, r2, r4, asr #5
 4612 0072 12B2     		sxth	r2, r2
ARM GAS  /tmp/cc3JQQuJ.s 			page 123


 4613              	.LVL540:
 4614 0074 CFE7     		b	.L293
 4615              	.L300:
 4616 0076 00BF     		.align	2
 4617              	.L299:
 4618 0078 1F85EB51 		.word	1374389535
 4619              		.cfi_endproc
 4620              	.LFE210:
 4622              		.section	.text.lv_obj_refr_size,"ax",%progbits
 4623              		.align	1
 4624              		.global	lv_obj_refr_size
 4625              		.syntax unified
 4626              		.thumb
 4627              		.thumb_func
 4628              		.fpu fpv5-d16
 4630              	lv_obj_refr_size:
 4631              	.LFB168:
  81:Drivers/lvgl/lvgl/src/core/lv_obj_pos.c ****     LV_ASSERT_OBJ(obj, MY_CLASS);
 4632              		.loc 1 81 0 is_stmt 1
 4633              		.cfi_startproc
 4634              		@ args = 0, pretend = 0, frame = 24
 4635              		@ frame_needed = 0, uses_anonymous_args = 0
 4636              	.LVL541:
  85:Drivers/lvgl/lvgl/src/core/lv_obj_pos.c **** 
 4637              		.loc 1 85 0
 4638 0000 90F82330 		ldrb	r3, [r0, #35]	@ zero_extendqisi2
 4639 0004 03F00603 		and	r3, r3, #6
 4640 0008 062B     		cmp	r3, #6
 4641 000a 00F09581 		beq	.L326
  81:Drivers/lvgl/lvgl/src/core/lv_obj_pos.c ****     LV_ASSERT_OBJ(obj, MY_CLASS);
 4642              		.loc 1 81 0
 4643 000e 2DE9F04F 		push	{r4, r5, r6, r7, r8, r9, r10, fp, lr}
 4644              	.LCFI92:
 4645              		.cfi_def_cfa_offset 36
 4646              		.cfi_offset 4, -36
 4647              		.cfi_offset 5, -32
 4648              		.cfi_offset 6, -28
 4649              		.cfi_offset 7, -24
 4650              		.cfi_offset 8, -20
 4651              		.cfi_offset 9, -16
 4652              		.cfi_offset 10, -12
 4653              		.cfi_offset 11, -8
 4654              		.cfi_offset 14, -4
 4655 0012 87B0     		sub	sp, sp, #28
 4656              	.LCFI93:
 4657              		.cfi_def_cfa_offset 64
 4658 0014 0446     		mov	r4, r0
  87:Drivers/lvgl/lvgl/src/core/lv_obj_pos.c ****     if(parent == NULL) return false;
 4659              		.loc 1 87 0
 4660 0016 FFF7FEFF 		bl	lv_obj_get_parent
 4661              	.LVL542:
  88:Drivers/lvgl/lvgl/src/core/lv_obj_pos.c **** 
 4662              		.loc 1 88 0
 4663 001a 0546     		mov	r5, r0
 4664 001c 0028     		cmp	r0, #0
 4665 001e 00F08D81 		beq	.L327
  90:Drivers/lvgl/lvgl/src/core/lv_obj_pos.c ****     bool w_is_content = false;
ARM GAS  /tmp/cc3JQQuJ.s 			page 124


 4666              		.loc 1 90 0
 4667 0022 2046     		mov	r0, r4
 4668              	.LVL543:
 4669 0024 FFF7FEFF 		bl	lv_obj_get_scroll_left
 4670              	.LVL544:
 4671 0028 0090     		str	r0, [sp]
 4672              	.LVL545:
  95:Drivers/lvgl/lvgl/src/core/lv_obj_pos.c ****         w = lv_obj_get_width(obj);
 4673              		.loc 1 95 0
 4674 002a 94F82330 		ldrb	r3, [r4, #35]	@ zero_extendqisi2
 4675 002e 13F0040F 		tst	r3, #4
 4676 0032 76D0     		beq	.L303
  96:Drivers/lvgl/lvgl/src/core/lv_obj_pos.c ****     }
 4677              		.loc 1 96 0
 4678 0034 2046     		mov	r0, r4
 4679 0036 FFF7FEFF 		bl	lv_obj_get_width
 4680              	.LVL546:
 4681 003a 0746     		mov	r7, r0
 4682              	.LVL547:
  91:Drivers/lvgl/lvgl/src/core/lv_obj_pos.c ****     bool w_is_pct = false;
 4683              		.loc 1 91 0
 4684 003c 4FF00009 		mov	r9, #0
 4685              	.LVL548:
 4686              	.L304:
 125:Drivers/lvgl/lvgl/src/core/lv_obj_pos.c ****     lv_coord_t h;
 4687              		.loc 1 125 0
 4688 0040 2046     		mov	r0, r4
 4689 0042 FFF7FEFF 		bl	lv_obj_get_scroll_top
 4690              	.LVL549:
 4691 0046 0190     		str	r0, [sp, #4]
 4692              	.LVL550:
 129:Drivers/lvgl/lvgl/src/core/lv_obj_pos.c ****         h = lv_obj_get_height(obj);
 4693              		.loc 1 129 0
 4694 0048 94F82330 		ldrb	r3, [r4, #35]	@ zero_extendqisi2
 4695 004c 13F0020F 		tst	r3, #2
 4696 0050 00F0E380 		beq	.L311
 130:Drivers/lvgl/lvgl/src/core/lv_obj_pos.c ****     }
 4697              		.loc 1 130 0
 4698 0054 2046     		mov	r0, r4
 4699 0056 FFF7FEFF 		bl	lv_obj_get_height
 4700              	.LVL551:
 4701 005a 0646     		mov	r6, r0
 4702              	.LVL552:
 127:Drivers/lvgl/lvgl/src/core/lv_obj_pos.c ****     bool h_is_pct = false;
 4703              		.loc 1 127 0
 4704 005c 4FF00008 		mov	r8, #0
 4705              	.LVL553:
 4706              	.L312:
 160:Drivers/lvgl/lvgl/src/core/lv_obj_pos.c ****         lv_obj_scroll_to(obj, sl_ori, st_ori, LV_ANIM_OFF);
 4707              		.loc 1 160 0
 4708 0060 59EA0803 		orrs	r3, r9, r8
 4709 0064 40F05781 		bne	.L337
 4710              	.L319:
 166:Drivers/lvgl/lvgl/src/core/lv_obj_pos.c **** 
 4711              		.loc 1 166 0
 4712 0068 2046     		mov	r0, r4
 4713 006a FFF7FEFF 		bl	lv_obj_get_width
ARM GAS  /tmp/cc3JQQuJ.s 			page 125


 4714              	.LVL554:
 4715 006e B842     		cmp	r0, r7
 4716 0070 05D1     		bne	.L320
 166:Drivers/lvgl/lvgl/src/core/lv_obj_pos.c **** 
 4717              		.loc 1 166 0 is_stmt 0 discriminator 1
 4718 0072 2046     		mov	r0, r4
 4719 0074 FFF7FEFF 		bl	lv_obj_get_height
 4720              	.LVL555:
 4721 0078 B042     		cmp	r0, r6
 4722 007a 00F06181 		beq	.L332
 4723              	.L320:
 169:Drivers/lvgl/lvgl/src/core/lv_obj_pos.c **** 
 4724              		.loc 1 169 0 is_stmt 1
 4725 007e 2046     		mov	r0, r4
 4726 0080 FFF7FEFF 		bl	lv_obj_invalidate
 4727              	.LVL556:
 173:Drivers/lvgl/lvgl/src/core/lv_obj_pos.c **** 
 4728              		.loc 1 173 0
 4729 0084 04A9     		add	r1, sp, #16
 4730 0086 2046     		mov	r0, r4
 4731 0088 FFF7FEFF 		bl	lv_obj_get_coords
 4732              	.LVL557:
 177:Drivers/lvgl/lvgl/src/core/lv_obj_pos.c **** 
 4733              		.loc 1 177 0
 4734 008c 02A9     		add	r1, sp, #8
 4735 008e 2846     		mov	r0, r5
 4736 0090 FFF7FEFF 		bl	lv_obj_get_content_coords
 4737              	.LVL558:
 181:Drivers/lvgl/lvgl/src/core/lv_obj_pos.c ****     if(!on1) lv_obj_scrollbar_invalidate(parent);
 4738              		.loc 1 181 0
 4739 0094 0022     		movs	r2, #0
 4740 0096 02A9     		add	r1, sp, #8
 4741 0098 04A8     		add	r0, sp, #16
 4742 009a FFF7FEFF 		bl	_lv_area_is_in
 4743              	.LVL559:
 4744 009e 8046     		mov	r8, r0
 4745              	.LVL560:
 182:Drivers/lvgl/lvgl/src/core/lv_obj_pos.c **** 
 4746              		.loc 1 182 0
 4747 00a0 80F00109 		eor	r9, r0, #1
 4748              	.LVL561:
 4749 00a4 5FFA89F9 		uxtb	r9, r9
 4750 00a8 0028     		cmp	r0, #0
 4751 00aa 00F03B81 		beq	.L338
 4752              	.LVL562:
 4753              	.L321:
 186:Drivers/lvgl/lvgl/src/core/lv_obj_pos.c ****     if(lv_obj_get_style_base_dir(obj, LV_PART_MAIN) == LV_BASE_DIR_RTL) {
 4754              		.loc 1 186 0
 4755 00ae E38A     		ldrh	r3, [r4, #22]
 4756 00b0 3344     		add	r3, r3, r6
 4757 00b2 9BB2     		uxth	r3, r3
 4758 00b4 013B     		subs	r3, r3, #1
 4759 00b6 6383     		strh	r3, [r4, #26]	@ movhi
 4760              	.LVL563:
 4761              	.LBB356:
 4762              	.LBB357:
 561:Drivers/lvgl/lvgl/src/core/lv_obj_style_gen.h ****     return (lv_base_dir_t)v.num;
ARM GAS  /tmp/cc3JQQuJ.s 			page 126


 4763              		.loc 2 561 0
 4764 00b8 1622     		movs	r2, #22
 4765 00ba 0021     		movs	r1, #0
 4766 00bc 2046     		mov	r0, r4
 4767 00be FFF7FEFF 		bl	lv_obj_get_style_prop
 4768              	.LVL564:
 4769              		.loc 2 562 0
 4770 00c2 C0B2     		uxtb	r0, r0
 4771              	.LVL565:
 4772              	.LBE357:
 4773              	.LBE356:
 187:Drivers/lvgl/lvgl/src/core/lv_obj_pos.c ****         obj->coords.x1 = obj->coords.x2 - w + 1;
 4774              		.loc 1 187 0
 4775 00c4 0128     		cmp	r0, #1
 4776 00c6 00F03181 		beq	.L339
 191:Drivers/lvgl/lvgl/src/core/lv_obj_pos.c ****     }
 4777              		.loc 1 191 0
 4778 00ca A38A     		ldrh	r3, [r4, #20]
 4779 00cc 1F44     		add	r7, r7, r3
 4780              	.LVL566:
 4781 00ce BFB2     		uxth	r7, r7
 4782 00d0 013F     		subs	r7, r7, #1
 4783 00d2 2783     		strh	r7, [r4, #24]	@ movhi
 4784              	.L323:
 195:Drivers/lvgl/lvgl/src/core/lv_obj_pos.c **** 
 4785              		.loc 1 195 0
 4786 00d4 04AA     		add	r2, sp, #16
 4787 00d6 2921     		movs	r1, #41
 4788 00d8 2046     		mov	r0, r4
 4789 00da FFF7FEFF 		bl	lv_event_send
 4790              	.LVL567:
 198:Drivers/lvgl/lvgl/src/core/lv_obj_pos.c **** 
 4791              		.loc 1 198 0
 4792 00de 2246     		mov	r2, r4
 4793 00e0 2221     		movs	r1, #34
 4794 00e2 2846     		mov	r0, r5
 4795 00e4 FFF7FEFF 		bl	lv_event_send
 4796              	.LVL568:
 201:Drivers/lvgl/lvgl/src/core/lv_obj_pos.c **** 
 4797              		.loc 1 201 0
 4798 00e8 2046     		mov	r0, r4
 4799 00ea FFF7FEFF 		bl	lv_obj_invalidate
 4800              	.LVL569:
 203:Drivers/lvgl/lvgl/src/core/lv_obj_pos.c **** 
 4801              		.loc 1 203 0
 4802 00ee 0021     		movs	r1, #0
 4803 00f0 2046     		mov	r0, r4
 4804 00f2 FFF7FEFF 		bl	lv_obj_readjust_scroll
 4805              	.LVL570:
 207:Drivers/lvgl/lvgl/src/core/lv_obj_pos.c ****     if(on1 || (!on1 && on2)) lv_obj_scrollbar_invalidate(parent);
 4806              		.loc 1 207 0
 4807 00f6 0022     		movs	r2, #0
 4808 00f8 02A9     		add	r1, sp, #8
 4809 00fa 04F11400 		add	r0, r4, #20
 4810 00fe FFF7FEFF 		bl	_lv_area_is_in
 4811              	.LVL571:
 208:Drivers/lvgl/lvgl/src/core/lv_obj_pos.c **** 
ARM GAS  /tmp/cc3JQQuJ.s 			page 127


 4812              		.loc 1 208 0
 4813 0102 B8F1000F 		cmp	r8, #0
 4814 0106 02D1     		bne	.L324
 208:Drivers/lvgl/lvgl/src/core/lv_obj_pos.c **** 
 4815              		.loc 1 208 0 is_stmt 0 discriminator 2
 4816 0108 19EA000F 		tst	r9, r0
 4817 010c 02D0     		beq	.L325
 4818              	.L324:
 208:Drivers/lvgl/lvgl/src/core/lv_obj_pos.c **** 
 4819              		.loc 1 208 0 discriminator 3
 4820 010e 2846     		mov	r0, r5
 4821              	.LVL572:
 4822 0110 FFF7FEFF 		bl	lv_obj_scrollbar_invalidate
 4823              	.LVL573:
 4824              	.L325:
 210:Drivers/lvgl/lvgl/src/core/lv_obj_pos.c **** 
 4825              		.loc 1 210 0 is_stmt 1
 4826 0114 2046     		mov	r0, r4
 4827 0116 FFF7FEFF 		bl	lv_obj_refresh_ext_draw_size
 4828              	.LVL574:
 212:Drivers/lvgl/lvgl/src/core/lv_obj_pos.c **** }
 4829              		.loc 1 212 0
 4830 011a 0120     		movs	r0, #1
 4831              	.LVL575:
 4832              	.L302:
 213:Drivers/lvgl/lvgl/src/core/lv_obj_pos.c **** 
 4833              		.loc 1 213 0
 4834 011c 07B0     		add	sp, sp, #28
 4835              	.LCFI94:
 4836              		.cfi_remember_state
 4837              		.cfi_def_cfa_offset 36
 4838              		@ sp needed
 4839 011e BDE8F08F 		pop	{r4, r5, r6, r7, r8, r9, r10, fp, pc}
 4840              	.LVL576:
 4841              	.L303:
 4842              	.LCFI95:
 4843              		.cfi_restore_state
 4844              	.LBB358:
 4845              	.LBB359:
 4846              	.LBB360:
   3:Drivers/lvgl/lvgl/src/core/lv_obj_style_gen.h ****     return (lv_coord_t)v.num;
 4847              		.loc 2 3 0
 4848 0122 0122     		movs	r2, #1
 4849 0124 0021     		movs	r1, #0
 4850 0126 2046     		mov	r0, r4
 4851 0128 FFF7FEFF 		bl	lv_obj_get_style_prop
 4852              	.LVL577:
   4:Drivers/lvgl/lvgl/src/core/lv_obj_style_gen.h **** }
 4853              		.loc 2 4 0
 4854 012c 06B2     		sxth	r6, r0
 4855              	.LVL578:
 4856              	.LBE360:
 4857              	.LBE359:
 100:Drivers/lvgl/lvgl/src/core/lv_obj_pos.c ****         w_is_pct = LV_COORD_IS_PCT(w) ? true : false;
 4858              		.loc 1 100 0
 4859 012e 42F2D179 		movw	r9, #10193
 4860 0132 4E45     		cmp	r6, r9
ARM GAS  /tmp/cc3JQQuJ.s 			page 128


 4861 0134 14BF     		ite	ne
 4862 0136 4FF00009 		movne	r9, #0
 4863 013a 4FF00109 		moveq	r9, #1
 4864              	.LVL579:
 101:Drivers/lvgl/lvgl/src/core/lv_obj_pos.c ****         lv_coord_t parent_w = lv_obj_get_content_width(parent);
 4865              		.loc 1 101 0
 4866 013e 00F4C040 		and	r0, r0, #24576
 4867 0142 B0F5005F 		cmp	r0, #8192
 4868 0146 36D0     		beq	.L340
 4869 0148 0023     		movs	r3, #0
 4870              	.L305:
 101:Drivers/lvgl/lvgl/src/core/lv_obj_pos.c ****         lv_coord_t parent_w = lv_obj_get_content_width(parent);
 4871              		.loc 1 101 0 is_stmt 0 discriminator 6
 4872 014a 9846     		mov	r8, r3
 4873              	.LVL580:
 102:Drivers/lvgl/lvgl/src/core/lv_obj_pos.c **** 
 4874              		.loc 1 102 0 is_stmt 1 discriminator 6
 4875 014c 2846     		mov	r0, r5
 4876 014e FFF7FEFF 		bl	lv_obj_get_content_width
 4877              	.LVL581:
 4878 0152 0746     		mov	r7, r0
 4879              	.LVL582:
 104:Drivers/lvgl/lvgl/src/core/lv_obj_pos.c ****             w = calc_content_width(obj);
 4880              		.loc 1 104 0 discriminator 6
 4881 0154 42F2D173 		movw	r3, #10193
 4882 0158 9E42     		cmp	r6, r3
 4883 015a 35D0     		beq	.L341
 107:Drivers/lvgl/lvgl/src/core/lv_obj_pos.c ****             /*If parent has content size and the child has pct size
 4884              		.loc 1 107 0
 4885 015c B8F1000F 		cmp	r8, #0
 4886 0160 15D0     		beq	.L307
 110:Drivers/lvgl/lvgl/src/core/lv_obj_pos.c ****                 lv_coord_t border_w = lv_obj_get_style_border_width(obj, 0);
 4887              		.loc 1 110 0
 4888 0162 95F82330 		ldrb	r3, [r5, #35]	@ zero_extendqisi2
 4889 0166 13F0040F 		tst	r3, #4
 4890 016a 32D0     		beq	.L342
 4891              	.L308:
 116:Drivers/lvgl/lvgl/src/core/lv_obj_pos.c ****             }
 4892              		.loc 1 116 0
 4893 016c 26F4C043 		bic	r3, r6, #24576
 4894 0170 1BB2     		sxth	r3, r3
 4895 0172 B3F57A7F 		cmp	r3, #1000
 4896 0176 01DD     		ble	.L310
 116:Drivers/lvgl/lvgl/src/core/lv_obj_pos.c ****             }
 4897              		.loc 1 116 0 is_stmt 0 discriminator 1
 4898 0178 C3F57A73 		rsb	r3, r3, #1000
 4899              	.L310:
 116:Drivers/lvgl/lvgl/src/core/lv_obj_pos.c ****             }
 4900              		.loc 1 116 0 discriminator 4
 4901 017c 03FB07F3 		mul	r3, r3, r7
 4902 0180 704A     		ldr	r2, .L346
 4903 0182 82FB0312 		smull	r1, r2, r2, r3
 4904 0186 DE17     		asrs	r6, r3, #31
 4905 0188 C6EB6216 		rsb	r6, r6, r2, asr #5
 4906 018c 36B2     		sxth	r6, r6
 4907              	.LVL583:
 4908              	.L307:
ARM GAS  /tmp/cc3JQQuJ.s 			page 129


 4909              	.LBB361:
 4910              	.LBB362:
   9:Drivers/lvgl/lvgl/src/core/lv_obj_style_gen.h ****     return (lv_coord_t)v.num;
 4911              		.loc 2 9 0 is_stmt 1
 4912 018e 0222     		movs	r2, #2
 4913 0190 0021     		movs	r1, #0
 4914 0192 2046     		mov	r0, r4
 4915 0194 FFF7FEFF 		bl	lv_obj_get_style_prop
 4916              	.LVL584:
  10:Drivers/lvgl/lvgl/src/core/lv_obj_style_gen.h **** }
 4917              		.loc 2 10 0
 4918 0198 0FFA80F8 		sxth	r8, r0
 4919              	.LVL585:
 4920              	.LBE362:
 4921              	.LBE361:
 4922              	.LBB363:
 4923              	.LBB364:
  15:Drivers/lvgl/lvgl/src/core/lv_obj_style_gen.h ****     return (lv_coord_t)v.num;
 4924              		.loc 2 15 0
 4925 019c 0322     		movs	r2, #3
 4926 019e 0021     		movs	r1, #0
 4927 01a0 2046     		mov	r0, r4
 4928 01a2 FFF7FEFF 		bl	lv_obj_get_style_prop
 4929              	.LVL586:
 4930              	.LBE364:
 4931              	.LBE363:
 122:Drivers/lvgl/lvgl/src/core/lv_obj_pos.c ****     }
 4932              		.loc 1 122 0
 4933 01a6 3B46     		mov	r3, r7
 4934 01a8 02B2     		sxth	r2, r0
 4935 01aa 4146     		mov	r1, r8
 4936 01ac 3046     		mov	r0, r6
 4937 01ae FFF7FEFF 		bl	lv_clamp_width
 4938              	.LVL587:
 4939 01b2 0746     		mov	r7, r0
 4940              	.LVL588:
 4941 01b4 44E7     		b	.L304
 4942              	.LVL589:
 4943              	.L340:
 101:Drivers/lvgl/lvgl/src/core/lv_obj_pos.c ****         lv_coord_t parent_w = lv_obj_get_content_width(parent);
 4944              		.loc 1 101 0 discriminator 1
 4945 01b6 26F4C043 		bic	r3, r6, #24576
 4946 01ba B3F5FA6F 		cmp	r3, #2000
 4947 01be 01DD     		ble	.L329
 101:Drivers/lvgl/lvgl/src/core/lv_obj_pos.c ****         lv_coord_t parent_w = lv_obj_get_content_width(parent);
 4948              		.loc 1 101 0 is_stmt 0
 4949 01c0 0023     		movs	r3, #0
 4950 01c2 C2E7     		b	.L305
 4951              	.L329:
 4952 01c4 0123     		movs	r3, #1
 4953 01c6 C0E7     		b	.L305
 4954              	.LVL590:
 4955              	.L341:
 105:Drivers/lvgl/lvgl/src/core/lv_obj_pos.c ****         }
 4956              		.loc 1 105 0 is_stmt 1
 4957 01c8 2046     		mov	r0, r4
 4958 01ca FFF7FEFF 		bl	calc_content_width
ARM GAS  /tmp/cc3JQQuJ.s 			page 130


 4959              	.LVL591:
 4960 01ce 0646     		mov	r6, r0
 4961              	.LVL592:
 4962 01d0 DDE7     		b	.L307
 4963              	.LVL593:
 4964              	.L342:
 4965              	.LBB365:
 4966              	.LBB366:
   3:Drivers/lvgl/lvgl/src/core/lv_obj_style_gen.h ****     return (lv_coord_t)v.num;
 4967              		.loc 2 3 0
 4968 01d2 0122     		movs	r2, #1
 4969 01d4 0021     		movs	r1, #0
 4970 01d6 2846     		mov	r0, r5
 4971 01d8 FFF7FEFF 		bl	lv_obj_get_style_prop
 4972              	.LVL594:
   4:Drivers/lvgl/lvgl/src/core/lv_obj_style_gen.h **** }
 4973              		.loc 2 4 0
 4974 01dc 00B2     		sxth	r0, r0
 4975              	.LVL595:
 4976              	.LBE366:
 4977              	.LBE365:
 110:Drivers/lvgl/lvgl/src/core/lv_obj_pos.c ****                 lv_coord_t border_w = lv_obj_get_style_border_width(obj, 0);
 4978              		.loc 1 110 0
 4979 01de 42F2D173 		movw	r3, #10193
 4980 01e2 9842     		cmp	r0, r3
 4981 01e4 C2D1     		bne	.L308
 4982              	.LVL596:
 4983              	.LBB367:
 4984              	.LBB368:
 4985              	.LBB369:
 255:Drivers/lvgl/lvgl/src/core/lv_obj_style_gen.h ****     return (lv_coord_t)v.num;
 4986              		.loc 2 255 0
 4987 01e6 3222     		movs	r2, #50
 4988 01e8 0021     		movs	r1, #0
 4989 01ea 2046     		mov	r0, r4
 4990 01ec FFF7FEFF 		bl	lv_obj_get_style_prop
 4991              	.LVL597:
 4992 01f0 0646     		mov	r6, r0
 4993              	.LVL598:
 256:Drivers/lvgl/lvgl/src/core/lv_obj_style_gen.h **** }
 4994              		.loc 2 256 0
 4995 01f2 0FFA80F8 		sxth	r8, r0
 4996              	.LVL599:
 4997              	.LBE369:
 4998              	.LBE368:
 4999              	.LBB370:
 5000              	.LBB371:
 117:Drivers/lvgl/lvgl/src/core/lv_obj_style_gen.h ****     return (lv_coord_t)v.num;
 5001              		.loc 2 117 0
 5002 01f6 1222     		movs	r2, #18
 5003 01f8 0021     		movs	r1, #0
 5004 01fa 2046     		mov	r0, r4
 5005 01fc FFF7FEFF 		bl	lv_obj_get_style_prop
 5006              	.LVL600:
 5007              	.LBE371:
 5008              	.LBE370:
 112:Drivers/lvgl/lvgl/src/core/lv_obj_pos.c ****                 w += lv_obj_get_style_pad_right(obj, 0) + border_w;
ARM GAS  /tmp/cc3JQQuJ.s 			page 131


 5009              		.loc 1 112 0
 5010 0200 16FA80F6 		uxtah	r6, r6, r0
 5011              	.LVL601:
 5012 0204 B6B2     		uxth	r6, r6
 5013              	.LVL602:
 5014              	.LBB372:
 5015              	.LBB373:
 123:Drivers/lvgl/lvgl/src/core/lv_obj_style_gen.h ****     return (lv_coord_t)v.num;
 5016              		.loc 2 123 0
 5017 0206 1322     		movs	r2, #19
 5018 0208 0021     		movs	r1, #0
 5019 020a 2046     		mov	r0, r4
 5020 020c FFF7FEFF 		bl	lv_obj_get_style_prop
 5021              	.LVL603:
 5022              	.LBE373:
 5023              	.LBE372:
 113:Drivers/lvgl/lvgl/src/core/lv_obj_pos.c ****             }
 5024              		.loc 1 113 0
 5025 0210 08FA80F0 		sxtah	r0, r8, r0
 5026 0214 0644     		add	r6, r6, r0
 5027              	.LVL604:
 5028 0216 36B2     		sxth	r6, r6
 5029              	.LVL605:
 5030              	.LBE367:
 110:Drivers/lvgl/lvgl/src/core/lv_obj_pos.c ****                 lv_coord_t border_w = lv_obj_get_style_border_width(obj, 0);
 5031              		.loc 1 110 0
 5032 0218 B9E7     		b	.L307
 5033              	.LVL606:
 5034              	.L311:
 5035              	.LBE358:
 5036              	.LBB374:
 5037              	.LBB375:
 5038              	.LBB376:
  21:Drivers/lvgl/lvgl/src/core/lv_obj_style_gen.h ****     return (lv_coord_t)v.num;
 5039              		.loc 2 21 0
 5040 021a 0422     		movs	r2, #4
 5041 021c 0021     		movs	r1, #0
 5042 021e 2046     		mov	r0, r4
 5043 0220 FFF7FEFF 		bl	lv_obj_get_style_prop
 5044              	.LVL607:
  22:Drivers/lvgl/lvgl/src/core/lv_obj_style_gen.h **** }
 5045              		.loc 2 22 0
 5046 0224 06B2     		sxth	r6, r0
 5047              	.LVL608:
 5048              	.LBE376:
 5049              	.LBE375:
 134:Drivers/lvgl/lvgl/src/core/lv_obj_pos.c ****         h_is_pct = LV_COORD_IS_PCT(h) ? true : false;
 5050              		.loc 1 134 0
 5051 0226 42F2D178 		movw	r8, #10193
 5052 022a 4645     		cmp	r6, r8
 5053 022c 14BF     		ite	ne
 5054 022e 4FF00008 		movne	r8, #0
 5055 0232 4FF00108 		moveq	r8, #1
 5056              	.LVL609:
 135:Drivers/lvgl/lvgl/src/core/lv_obj_pos.c ****         lv_coord_t parent_h = lv_obj_get_content_height(parent);
 5057              		.loc 1 135 0
 5058 0236 00F4C040 		and	r0, r0, #24576
ARM GAS  /tmp/cc3JQQuJ.s 			page 132


 5059 023a B0F5005F 		cmp	r0, #8192
 5060 023e 36D0     		beq	.L343
 5061 0240 4FF0000B 		mov	fp, #0
 5062              	.L313:
 5063              	.LVL610:
 136:Drivers/lvgl/lvgl/src/core/lv_obj_pos.c **** 
 5064              		.loc 1 136 0 discriminator 6
 5065 0244 2846     		mov	r0, r5
 5066 0246 FFF7FEFF 		bl	lv_obj_get_content_height
 5067              	.LVL611:
 5068 024a 8246     		mov	r10, r0
 5069              	.LVL612:
 138:Drivers/lvgl/lvgl/src/core/lv_obj_pos.c ****             h = calc_content_height(obj);
 5070              		.loc 1 138 0 discriminator 6
 5071 024c 42F2D173 		movw	r3, #10193
 5072 0250 9E42     		cmp	r6, r3
 5073 0252 37D0     		beq	.L344
 141:Drivers/lvgl/lvgl/src/core/lv_obj_pos.c ****             /*If parent has content size and the child has pct size
 5074              		.loc 1 141 0
 5075 0254 BBF1000F 		cmp	fp, #0
 5076 0258 15D0     		beq	.L315
 144:Drivers/lvgl/lvgl/src/core/lv_obj_pos.c ****                 lv_coord_t border_w = lv_obj_get_style_border_width(obj, 0);
 5077              		.loc 1 144 0
 5078 025a 95F82330 		ldrb	r3, [r5, #35]	@ zero_extendqisi2
 5079 025e 13F0020F 		tst	r3, #2
 5080 0262 34D0     		beq	.L345
 5081              	.L316:
 150:Drivers/lvgl/lvgl/src/core/lv_obj_pos.c ****             }
 5082              		.loc 1 150 0
 5083 0264 26F4C043 		bic	r3, r6, #24576
 5084 0268 1BB2     		sxth	r3, r3
 5085 026a B3F57A7F 		cmp	r3, #1000
 5086 026e 01DD     		ble	.L318
 150:Drivers/lvgl/lvgl/src/core/lv_obj_pos.c ****             }
 5087              		.loc 1 150 0 is_stmt 0 discriminator 1
 5088 0270 C3F57A73 		rsb	r3, r3, #1000
 5089              	.L318:
 150:Drivers/lvgl/lvgl/src/core/lv_obj_pos.c ****             }
 5090              		.loc 1 150 0 discriminator 4
 5091 0274 03FB0AF3 		mul	r3, r3, r10
 5092 0278 324A     		ldr	r2, .L346
 5093 027a 82FB0312 		smull	r1, r2, r2, r3
 5094 027e DE17     		asrs	r6, r3, #31
 5095 0280 C6EB6216 		rsb	r6, r6, r2, asr #5
 5096 0284 36B2     		sxth	r6, r6
 5097              	.LVL613:
 5098              	.L315:
 5099              	.LBB377:
 5100              	.LBB378:
  27:Drivers/lvgl/lvgl/src/core/lv_obj_style_gen.h ****     return (lv_coord_t)v.num;
 5101              		.loc 2 27 0 is_stmt 1
 5102 0286 0522     		movs	r2, #5
 5103 0288 0021     		movs	r1, #0
 5104 028a 2046     		mov	r0, r4
 5105 028c FFF7FEFF 		bl	lv_obj_get_style_prop
 5106              	.LVL614:
  28:Drivers/lvgl/lvgl/src/core/lv_obj_style_gen.h **** }
ARM GAS  /tmp/cc3JQQuJ.s 			page 133


 5107              		.loc 2 28 0
 5108 0290 0FFA80FB 		sxth	fp, r0
 5109              	.LVL615:
 5110              	.LBE378:
 5111              	.LBE377:
 5112              	.LBB379:
 5113              	.LBB380:
  33:Drivers/lvgl/lvgl/src/core/lv_obj_style_gen.h ****     return (lv_coord_t)v.num;
 5114              		.loc 2 33 0
 5115 0294 0622     		movs	r2, #6
 5116 0296 0021     		movs	r1, #0
 5117 0298 2046     		mov	r0, r4
 5118 029a FFF7FEFF 		bl	lv_obj_get_style_prop
 5119              	.LVL616:
 5120              	.LBE380:
 5121              	.LBE379:
 156:Drivers/lvgl/lvgl/src/core/lv_obj_pos.c ****     }
 5122              		.loc 1 156 0
 5123 029e 5346     		mov	r3, r10
 5124 02a0 02B2     		sxth	r2, r0
 5125 02a2 5946     		mov	r1, fp
 5126 02a4 3046     		mov	r0, r6
 5127 02a6 FFF7FEFF 		bl	lv_clamp_height
 5128              	.LVL617:
 5129 02aa 0646     		mov	r6, r0
 5130              	.LVL618:
 5131 02ac D8E6     		b	.L312
 5132              	.LVL619:
 5133              	.L343:
 135:Drivers/lvgl/lvgl/src/core/lv_obj_pos.c ****         lv_coord_t parent_h = lv_obj_get_content_height(parent);
 5134              		.loc 1 135 0 discriminator 1
 5135 02ae 26F4C043 		bic	r3, r6, #24576
 5136 02b2 B3F5FA6F 		cmp	r3, #2000
 5137 02b6 02DD     		ble	.L331
 135:Drivers/lvgl/lvgl/src/core/lv_obj_pos.c ****         lv_coord_t parent_h = lv_obj_get_content_height(parent);
 5138              		.loc 1 135 0 is_stmt 0
 5139 02b8 4FF0000B 		mov	fp, #0
 5140 02bc C2E7     		b	.L313
 5141              	.L331:
 5142 02be 4FF0010B 		mov	fp, #1
 5143 02c2 BFE7     		b	.L313
 5144              	.LVL620:
 5145              	.L344:
 139:Drivers/lvgl/lvgl/src/core/lv_obj_pos.c ****         }
 5146              		.loc 1 139 0 is_stmt 1
 5147 02c4 2046     		mov	r0, r4
 5148 02c6 FFF7FEFF 		bl	calc_content_height
 5149              	.LVL621:
 5150 02ca 0646     		mov	r6, r0
 5151              	.LVL622:
 5152 02cc DBE7     		b	.L315
 5153              	.LVL623:
 5154              	.L345:
 5155              	.LBB381:
 5156              	.LBB382:
  21:Drivers/lvgl/lvgl/src/core/lv_obj_style_gen.h ****     return (lv_coord_t)v.num;
 5157              		.loc 2 21 0
ARM GAS  /tmp/cc3JQQuJ.s 			page 134


 5158 02ce 0422     		movs	r2, #4
 5159 02d0 0021     		movs	r1, #0
 5160 02d2 2846     		mov	r0, r5
 5161 02d4 FFF7FEFF 		bl	lv_obj_get_style_prop
 5162              	.LVL624:
  22:Drivers/lvgl/lvgl/src/core/lv_obj_style_gen.h **** }
 5163              		.loc 2 22 0
 5164 02d8 00B2     		sxth	r0, r0
 5165              	.LVL625:
 5166              	.LBE382:
 5167              	.LBE381:
 144:Drivers/lvgl/lvgl/src/core/lv_obj_pos.c ****                 lv_coord_t border_w = lv_obj_get_style_border_width(obj, 0);
 5168              		.loc 1 144 0
 5169 02da 42F2D173 		movw	r3, #10193
 5170 02de 9842     		cmp	r0, r3
 5171 02e0 C0D1     		bne	.L316
 5172              	.LVL626:
 5173              	.LBB383:
 5174              	.LBB384:
 5175              	.LBB385:
 255:Drivers/lvgl/lvgl/src/core/lv_obj_style_gen.h ****     return (lv_coord_t)v.num;
 5176              		.loc 2 255 0
 5177 02e2 3222     		movs	r2, #50
 5178 02e4 0021     		movs	r1, #0
 5179 02e6 2046     		mov	r0, r4
 5180 02e8 FFF7FEFF 		bl	lv_obj_get_style_prop
 5181              	.LVL627:
 5182 02ec 0646     		mov	r6, r0
 5183              	.LVL628:
 256:Drivers/lvgl/lvgl/src/core/lv_obj_style_gen.h **** }
 5184              		.loc 2 256 0
 5185 02ee 0FFA80FB 		sxth	fp, r0
 5186              	.LVL629:
 5187              	.LBE385:
 5188              	.LBE384:
 5189              	.LBB386:
 5190              	.LBB387:
 105:Drivers/lvgl/lvgl/src/core/lv_obj_style_gen.h ****     return (lv_coord_t)v.num;
 5191              		.loc 2 105 0
 5192 02f2 1022     		movs	r2, #16
 5193 02f4 0021     		movs	r1, #0
 5194 02f6 2046     		mov	r0, r4
 5195 02f8 FFF7FEFF 		bl	lv_obj_get_style_prop
 5196              	.LVL630:
 5197              	.LBE387:
 5198              	.LBE386:
 146:Drivers/lvgl/lvgl/src/core/lv_obj_pos.c ****                 h += lv_obj_get_style_pad_bottom(obj, 0) + border_w;
 5199              		.loc 1 146 0
 5200 02fc 16FA80F6 		uxtah	r6, r6, r0
 5201              	.LVL631:
 5202 0300 B6B2     		uxth	r6, r6
 5203              	.LVL632:
 5204              	.LBB388:
 5205              	.LBB389:
 111:Drivers/lvgl/lvgl/src/core/lv_obj_style_gen.h ****     return (lv_coord_t)v.num;
 5206              		.loc 2 111 0
 5207 0302 1122     		movs	r2, #17
ARM GAS  /tmp/cc3JQQuJ.s 			page 135


 5208 0304 0021     		movs	r1, #0
 5209 0306 2046     		mov	r0, r4
 5210 0308 FFF7FEFF 		bl	lv_obj_get_style_prop
 5211              	.LVL633:
 5212              	.LBE389:
 5213              	.LBE388:
 147:Drivers/lvgl/lvgl/src/core/lv_obj_pos.c ****             }
 5214              		.loc 1 147 0
 5215 030c 0BFA80F0 		sxtah	r0, fp, r0
 5216 0310 0644     		add	r6, r6, r0
 5217              	.LVL634:
 5218 0312 36B2     		sxth	r6, r6
 5219              	.LVL635:
 5220              	.LBE383:
 144:Drivers/lvgl/lvgl/src/core/lv_obj_pos.c ****                 lv_coord_t border_w = lv_obj_get_style_border_width(obj, 0);
 5221              		.loc 1 144 0
 5222 0314 B7E7     		b	.L315
 5223              	.LVL636:
 5224              	.L337:
 5225              	.LBE374:
 161:Drivers/lvgl/lvgl/src/core/lv_obj_pos.c ****     }
 5226              		.loc 1 161 0
 5227 0316 0023     		movs	r3, #0
 5228 0318 019A     		ldr	r2, [sp, #4]
 5229 031a 0099     		ldr	r1, [sp]
 5230 031c 2046     		mov	r0, r4
 5231 031e FFF7FEFF 		bl	lv_obj_scroll_to
 5232              	.LVL637:
 5233 0322 A1E6     		b	.L319
 5234              	.LVL638:
 5235              	.L338:
 182:Drivers/lvgl/lvgl/src/core/lv_obj_pos.c **** 
 5236              		.loc 1 182 0 discriminator 1
 5237 0324 2846     		mov	r0, r5
 5238              	.LVL639:
 5239 0326 FFF7FEFF 		bl	lv_obj_scrollbar_invalidate
 5240              	.LVL640:
 5241 032a C0E6     		b	.L321
 5242              	.L339:
 188:Drivers/lvgl/lvgl/src/core/lv_obj_pos.c ****     }
 5243              		.loc 1 188 0
 5244 032c 238B     		ldrh	r3, [r4, #24]
 5245 032e DF1B     		subs	r7, r3, r7
 5246              	.LVL641:
 5247 0330 BFB2     		uxth	r7, r7
 5248 0332 0137     		adds	r7, r7, #1
 5249 0334 A782     		strh	r7, [r4, #20]	@ movhi
 5250 0336 CDE6     		b	.L323
 5251              	.LVL642:
 5252              	.L326:
 5253              	.LCFI96:
 5254              		.cfi_def_cfa_offset 0
 5255              		.cfi_restore 4
 5256              		.cfi_restore 5
 5257              		.cfi_restore 6
 5258              		.cfi_restore 7
 5259              		.cfi_restore 8
ARM GAS  /tmp/cc3JQQuJ.s 			page 136


 5260              		.cfi_restore 9
 5261              		.cfi_restore 10
 5262              		.cfi_restore 11
 5263              		.cfi_restore 14
  85:Drivers/lvgl/lvgl/src/core/lv_obj_pos.c **** 
 5264              		.loc 1 85 0
 5265 0338 0020     		movs	r0, #0
 5266              	.LVL643:
 213:Drivers/lvgl/lvgl/src/core/lv_obj_pos.c **** 
 5267              		.loc 1 213 0
 5268 033a 7047     		bx	lr
 5269              	.LVL644:
 5270              	.L327:
 5271              	.LCFI97:
 5272              		.cfi_def_cfa_offset 64
 5273              		.cfi_offset 4, -36
 5274              		.cfi_offset 5, -32
 5275              		.cfi_offset 6, -28
 5276              		.cfi_offset 7, -24
 5277              		.cfi_offset 8, -20
 5278              		.cfi_offset 9, -16
 5279              		.cfi_offset 10, -12
 5280              		.cfi_offset 11, -8
 5281              		.cfi_offset 14, -4
  88:Drivers/lvgl/lvgl/src/core/lv_obj_pos.c **** 
 5282              		.loc 1 88 0
 5283 033c 0020     		movs	r0, #0
 5284              	.LVL645:
 5285 033e EDE6     		b	.L302
 5286              	.LVL646:
 5287              	.L332:
 166:Drivers/lvgl/lvgl/src/core/lv_obj_pos.c **** 
 5288              		.loc 1 166 0
 5289 0340 0020     		movs	r0, #0
 5290 0342 EBE6     		b	.L302
 5291              	.L347:
 5292              		.align	2
 5293              	.L346:
 5294 0344 1F85EB51 		.word	1374389535
 5295              		.cfi_endproc
 5296              	.LFE168:
 5298              		.section	.text.layout_update_core,"ax",%progbits
 5299              		.align	1
 5300              		.syntax unified
 5301              		.thumb
 5302              		.thumb_func
 5303              		.fpu fpv5-d16
 5305              	layout_update_core:
 5306              	.LFB213:
1132:Drivers/lvgl/lvgl/src/core/lv_obj_pos.c ****     uint32_t i;
 5307              		.loc 1 1132 0
 5308              		.cfi_startproc
 5309              		@ args = 0, pretend = 0, frame = 0
 5310              		@ frame_needed = 0, uses_anonymous_args = 0
 5311              	.LVL647:
 5312 0000 70B5     		push	{r4, r5, r6, lr}
 5313              	.LCFI98:
ARM GAS  /tmp/cc3JQQuJ.s 			page 137


 5314              		.cfi_def_cfa_offset 16
 5315              		.cfi_offset 4, -16
 5316              		.cfi_offset 5, -12
 5317              		.cfi_offset 6, -8
 5318              		.cfi_offset 14, -4
 5319 0002 0546     		mov	r5, r0
1134:Drivers/lvgl/lvgl/src/core/lv_obj_pos.c ****     for(i = 0; i < child_cnt; i++) {
 5320              		.loc 1 1134 0
 5321 0004 FFF7FEFF 		bl	lv_obj_get_child_cnt
 5322              	.LVL648:
 5323 0008 0646     		mov	r6, r0
 5324              	.LVL649:
1135:Drivers/lvgl/lvgl/src/core/lv_obj_pos.c ****         lv_obj_t * child = obj->spec_attr->children[i];
 5325              		.loc 1 1135 0
 5326 000a 0024     		movs	r4, #0
 5327 000c 06E0     		b	.L349
 5328              	.LVL650:
 5329              	.L350:
 5330              	.LBB390:
1136:Drivers/lvgl/lvgl/src/core/lv_obj_pos.c ****         layout_update_core(child);
 5331              		.loc 1 1136 0 discriminator 3
 5332 000e AB68     		ldr	r3, [r5, #8]
 5333 0010 1B68     		ldr	r3, [r3]
 5334              	.LVL651:
1137:Drivers/lvgl/lvgl/src/core/lv_obj_pos.c ****     }
 5335              		.loc 1 1137 0 discriminator 3
 5336 0012 53F82400 		ldr	r0, [r3, r4, lsl #2]
 5337 0016 FFF7F3FF 		bl	layout_update_core
 5338              	.LVL652:
 5339              	.LBE390:
1135:Drivers/lvgl/lvgl/src/core/lv_obj_pos.c ****         lv_obj_t * child = obj->spec_attr->children[i];
 5340              		.loc 1 1135 0 discriminator 3
 5341 001a 0134     		adds	r4, r4, #1
 5342              	.LVL653:
 5343              	.L349:
1135:Drivers/lvgl/lvgl/src/core/lv_obj_pos.c ****         lv_obj_t * child = obj->spec_attr->children[i];
 5344              		.loc 1 1135 0 is_stmt 0 discriminator 1
 5345 001c B442     		cmp	r4, r6
 5346 001e F6D3     		bcc	.L350
1140:Drivers/lvgl/lvgl/src/core/lv_obj_pos.c **** 
 5347              		.loc 1 1140 0 is_stmt 1
 5348 0020 95F82230 		ldrb	r3, [r5, #34]	@ zero_extendqisi2
 5349 0024 13F0010F 		tst	r3, #1
 5350 0028 00D1     		bne	.L353
 5351              	.L348:
1154:Drivers/lvgl/lvgl/src/core/lv_obj_pos.c **** 
 5352              		.loc 1 1154 0
 5353 002a 70BD     		pop	{r4, r5, r6, pc}
 5354              	.LVL654:
 5355              	.L353:
1142:Drivers/lvgl/lvgl/src/core/lv_obj_pos.c **** 
 5356              		.loc 1 1142 0
 5357 002c 95F82230 		ldrb	r3, [r5, #34]	@ zero_extendqisi2
 5358 0030 6FF30003 		bfc	r3, #0, #1
 5359 0034 85F82230 		strb	r3, [r5, #34]
1144:Drivers/lvgl/lvgl/src/core/lv_obj_pos.c ****     lv_obj_refr_pos(obj);
 5360              		.loc 1 1144 0
ARM GAS  /tmp/cc3JQQuJ.s 			page 138


 5361 0038 2846     		mov	r0, r5
 5362 003a FFF7FEFF 		bl	lv_obj_refr_size
 5363              	.LVL655:
1145:Drivers/lvgl/lvgl/src/core/lv_obj_pos.c **** 
 5364              		.loc 1 1145 0
 5365 003e 2846     		mov	r0, r5
 5366 0040 FFF7FEFF 		bl	lv_obj_refr_pos
 5367              	.LVL656:
1147:Drivers/lvgl/lvgl/src/core/lv_obj_pos.c ****         uint32_t layout_id = lv_obj_get_style_layout(obj, LV_PART_MAIN);
 5368              		.loc 1 1147 0
 5369 0044 002E     		cmp	r6, #0
 5370 0046 F0D0     		beq	.L348
 5371              	.LVL657:
 5372              	.LBB391:
 5373              	.LBB392:
 5374              	.LBB393:
 555:Drivers/lvgl/lvgl/src/core/lv_obj_style_gen.h ****     return (uint16_t)v.num;
 5375              		.loc 2 555 0
 5376 0048 0A22     		movs	r2, #10
 5377 004a 0021     		movs	r1, #0
 5378 004c 2846     		mov	r0, r5
 5379 004e FFF7FEFF 		bl	lv_obj_get_style_prop
 5380              	.LVL658:
 5381              	.LBE393:
 5382              	.LBE392:
1148:Drivers/lvgl/lvgl/src/core/lv_obj_pos.c ****         if(layout_id > 0 && layout_id <= layout_cnt) {
 5383              		.loc 1 1148 0
 5384 0052 80B2     		uxth	r0, r0
 5385              	.LVL659:
1149:Drivers/lvgl/lvgl/src/core/lv_obj_pos.c ****             void  * user_data = LV_GC_ROOT(_lv_layout_list)[layout_id - 1].user_data;
 5386              		.loc 1 1149 0
 5387 0054 0028     		cmp	r0, #0
 5388 0056 E8D0     		beq	.L348
1149:Drivers/lvgl/lvgl/src/core/lv_obj_pos.c ****             void  * user_data = LV_GC_ROOT(_lv_layout_list)[layout_id - 1].user_data;
 5389              		.loc 1 1149 0 is_stmt 0 discriminator 1
 5390 0058 084B     		ldr	r3, .L354
 5391 005a 1B68     		ldr	r3, [r3]
 5392 005c 8342     		cmp	r3, r0
 5393 005e E4D3     		bcc	.L348
 5394              	.LBB394:
1150:Drivers/lvgl/lvgl/src/core/lv_obj_pos.c ****             LV_GC_ROOT(_lv_layout_list)[layout_id - 1].cb(obj, user_data);
 5395              		.loc 1 1150 0 is_stmt 1
 5396 0060 6FF06043 		mvn	r3, #-536870912
 5397 0064 0344     		add	r3, r3, r0
 5398 0066 064A     		ldr	r2, .L354+4
 5399 0068 1268     		ldr	r2, [r2]
 5400 006a 02EBC301 		add	r1, r2, r3, lsl #3
 5401              	.LVL660:
1151:Drivers/lvgl/lvgl/src/core/lv_obj_pos.c ****         }
 5402              		.loc 1 1151 0
 5403 006e 52F83330 		ldr	r3, [r2, r3, lsl #3]
 5404 0072 4968     		ldr	r1, [r1, #4]
 5405              	.LVL661:
 5406 0074 2846     		mov	r0, r5
 5407              	.LVL662:
 5408 0076 9847     		blx	r3
 5409              	.LVL663:
ARM GAS  /tmp/cc3JQQuJ.s 			page 139


 5410 0078 D7E7     		b	.L348
 5411              	.L355:
 5412 007a 00BF     		.align	2
 5413              	.L354:
 5414 007c 00000000 		.word	.LANCHOR0
 5415 0080 00000000 		.word	_lv_layout_list
 5416              	.LBE394:
 5417              	.LBE391:
 5418              		.cfi_endproc
 5419              	.LFE213:
 5421              		.section	.text.lv_obj_update_layout,"ax",%progbits
 5422              		.align	1
 5423              		.global	lv_obj_update_layout
 5424              		.syntax unified
 5425              		.thumb
 5426              		.thumb_func
 5427              		.fpu fpv5-d16
 5429              	lv_obj_update_layout:
 5430              	.LFB177:
 302:Drivers/lvgl/lvgl/src/core/lv_obj_pos.c ****     static bool mutex = false;
 5431              		.loc 1 302 0
 5432              		.cfi_startproc
 5433              		@ args = 0, pretend = 0, frame = 0
 5434              		@ frame_needed = 0, uses_anonymous_args = 0
 5435              	.LVL664:
 304:Drivers/lvgl/lvgl/src/core/lv_obj_pos.c ****         LV_LOG_TRACE("Already running, returning");
 5436              		.loc 1 304 0
 5437 0000 0E4B     		ldr	r3, .L365
 5438 0002 1B78     		ldrb	r3, [r3]	@ zero_extendqisi2
 5439 0004 03B1     		cbz	r3, .L364
 5440 0006 7047     		bx	lr
 5441              	.L364:
 302:Drivers/lvgl/lvgl/src/core/lv_obj_pos.c ****     static bool mutex = false;
 5442              		.loc 1 302 0
 5443 0008 10B5     		push	{r4, lr}
 5444              	.LCFI99:
 5445              		.cfi_def_cfa_offset 8
 5446              		.cfi_offset 4, -8
 5447              		.cfi_offset 14, -4
 308:Drivers/lvgl/lvgl/src/core/lv_obj_pos.c **** 
 5448              		.loc 1 308 0
 5449 000a 0C4B     		ldr	r3, .L365
 5450 000c 0122     		movs	r2, #1
 5451 000e 1A70     		strb	r2, [r3]
 310:Drivers/lvgl/lvgl/src/core/lv_obj_pos.c **** 
 5452              		.loc 1 310 0
 5453 0010 FFF7FEFF 		bl	lv_obj_get_screen
 5454              	.LVL665:
 5455 0014 0446     		mov	r4, r0
 5456              	.LVL666:
 313:Drivers/lvgl/lvgl/src/core/lv_obj_pos.c ****         LV_LOG_INFO("Layout update begin");
 5457              		.loc 1 313 0
 5458 0016 08E0     		b	.L358
 5459              	.LVL667:
 5460              	.L359:
 315:Drivers/lvgl/lvgl/src/core/lv_obj_pos.c ****         layout_update_core(scr);
 5461              		.loc 1 315 0
ARM GAS  /tmp/cc3JQQuJ.s 			page 140


 5462 0018 94F82230 		ldrb	r3, [r4, #34]	@ zero_extendqisi2
 5463 001c 6FF34103 		bfc	r3, #1, #1
 5464 0020 84F82230 		strb	r3, [r4, #34]
 316:Drivers/lvgl/lvgl/src/core/lv_obj_pos.c ****         LV_LOG_TRACE("Layout update end");
 5465              		.loc 1 316 0
 5466 0024 2046     		mov	r0, r4
 5467 0026 FFF7FEFF 		bl	layout_update_core
 5468              	.LVL668:
 5469              	.L358:
 313:Drivers/lvgl/lvgl/src/core/lv_obj_pos.c ****         LV_LOG_INFO("Layout update begin");
 5470              		.loc 1 313 0
 5471 002a 94F82230 		ldrb	r3, [r4, #34]	@ zero_extendqisi2
 5472 002e 13F0020F 		tst	r3, #2
 5473 0032 F1D1     		bne	.L359
 320:Drivers/lvgl/lvgl/src/core/lv_obj_pos.c **** }
 5474              		.loc 1 320 0
 5475 0034 014B     		ldr	r3, .L365
 5476 0036 0022     		movs	r2, #0
 5477 0038 1A70     		strb	r2, [r3]
 321:Drivers/lvgl/lvgl/src/core/lv_obj_pos.c **** 
 5478              		.loc 1 321 0
 5479 003a 10BD     		pop	{r4, pc}
 5480              	.LVL669:
 5481              	.L366:
 5482              		.align	2
 5483              	.L365:
 5484 003c 00000000 		.word	.LANCHOR1
 5485              		.cfi_endproc
 5486              	.LFE177:
 5488              		.section	.text.lv_obj_align_to,"ax",%progbits
 5489              		.align	1
 5490              		.global	lv_obj_align_to
 5491              		.syntax unified
 5492              		.thumb
 5493              		.thumb_func
 5494              		.fpu fpv5-d16
 5496              	lv_obj_align_to:
 5497              	.LFB181:
 346:Drivers/lvgl/lvgl/src/core/lv_obj_pos.c ****     LV_ASSERT_OBJ(obj, MY_CLASS);
 5498              		.loc 1 346 0
 5499              		.cfi_startproc
 5500              		@ args = 4, pretend = 0, frame = 16
 5501              		@ frame_needed = 0, uses_anonymous_args = 0
 5502              	.LVL670:
 5503 0000 2DE9F04F 		push	{r4, r5, r6, r7, r8, r9, r10, fp, lr}
 5504              	.LCFI100:
 5505              		.cfi_def_cfa_offset 36
 5506              		.cfi_offset 4, -36
 5507              		.cfi_offset 5, -32
 5508              		.cfi_offset 6, -28
 5509              		.cfi_offset 7, -24
 5510              		.cfi_offset 8, -20
 5511              		.cfi_offset 9, -16
 5512              		.cfi_offset 10, -12
 5513              		.cfi_offset 11, -8
 5514              		.cfi_offset 14, -4
 5515 0004 85B0     		sub	sp, sp, #20
ARM GAS  /tmp/cc3JQQuJ.s 			page 141


 5516              	.LCFI101:
 5517              		.cfi_def_cfa_offset 56
 5518 0006 0190     		str	r0, [sp, #4]
 5519 0008 0E46     		mov	r6, r1
 5520 000a 9246     		mov	r10, r2
 5521 000c 0293     		str	r3, [sp, #8]
 349:Drivers/lvgl/lvgl/src/core/lv_obj_pos.c ****     if(base == NULL) base = lv_obj_get_parent(obj);
 5522              		.loc 1 349 0
 5523 000e FFF7FEFF 		bl	lv_obj_update_layout
 5524              	.LVL671:
 350:Drivers/lvgl/lvgl/src/core/lv_obj_pos.c **** 
 5525              		.loc 1 350 0
 5526 0012 002E     		cmp	r6, #0
 5527 0014 55D0     		beq	.L416
 5528              	.L368:
 5529              	.LVL672:
 357:Drivers/lvgl/lvgl/src/core/lv_obj_pos.c ****     lv_coord_t pborder = lv_obj_get_style_border_width(parent, LV_PART_MAIN);
 5530              		.loc 1 357 0
 5531 0016 0198     		ldr	r0, [sp, #4]
 5532 0018 FFF7FEFF 		bl	lv_obj_get_parent
 5533              	.LVL673:
 5534 001c 0746     		mov	r7, r0
 5535              	.LVL674:
 5536              	.LBB395:
 5537              	.LBB396:
 255:Drivers/lvgl/lvgl/src/core/lv_obj_style_gen.h ****     return (lv_coord_t)v.num;
 5538              		.loc 2 255 0
 5539 001e 3222     		movs	r2, #50
 5540 0020 0021     		movs	r1, #0
 5541 0022 FFF7FEFF 		bl	lv_obj_get_style_prop
 5542              	.LVL675:
 5543 0026 0546     		mov	r5, r0
 5544              	.LVL676:
 5545              	.LBE396:
 5546              	.LBE395:
 5547              	.LBB397:
 5548              	.LBB398:
 117:Drivers/lvgl/lvgl/src/core/lv_obj_style_gen.h ****     return (lv_coord_t)v.num;
 5549              		.loc 2 117 0
 5550 0028 1222     		movs	r2, #18
 5551 002a 0021     		movs	r1, #0
 5552 002c 3846     		mov	r0, r7
 5553 002e FFF7FEFF 		bl	lv_obj_get_style_prop
 5554              	.LVL677:
 5555              	.LBE398:
 5556              	.LBE397:
 359:Drivers/lvgl/lvgl/src/core/lv_obj_pos.c ****     lv_coord_t ptop = lv_obj_get_style_pad_top(parent, LV_PART_MAIN) + pborder;
 5557              		.loc 1 359 0
 5558 0032 ADB2     		uxth	r5, r5
 5559 0034 15FA80F0 		uxtah	r0, r5, r0
 5560 0038 0FFA80FB 		sxth	fp, r0
 5561              	.LVL678:
 5562              	.LBB399:
 5563              	.LBB400:
 105:Drivers/lvgl/lvgl/src/core/lv_obj_style_gen.h ****     return (lv_coord_t)v.num;
 5564              		.loc 2 105 0
 5565 003c 1022     		movs	r2, #16
ARM GAS  /tmp/cc3JQQuJ.s 			page 142


 5566 003e 0021     		movs	r1, #0
 5567 0040 3846     		mov	r0, r7
 5568 0042 FFF7FEFF 		bl	lv_obj_get_style_prop
 5569              	.LVL679:
 5570              	.LBE400:
 5571              	.LBE399:
 360:Drivers/lvgl/lvgl/src/core/lv_obj_pos.c **** 
 5572              		.loc 1 360 0
 5573 0046 15FA80F5 		uxtah	r5, r5, r0
 5574 004a 2DB2     		sxth	r5, r5
 5575              	.LVL680:
 5576              	.LBB401:
 5577              	.LBB402:
 255:Drivers/lvgl/lvgl/src/core/lv_obj_style_gen.h ****     return (lv_coord_t)v.num;
 5578              		.loc 2 255 0
 5579 004c 3222     		movs	r2, #50
 5580 004e 0021     		movs	r1, #0
 5581 0050 3046     		mov	r0, r6
 5582 0052 FFF7FEFF 		bl	lv_obj_get_style_prop
 5583              	.LVL681:
 5584 0056 0446     		mov	r4, r0
 5585              	.LVL682:
 5586              	.LBE402:
 5587              	.LBE401:
 5588              	.LBB403:
 5589              	.LBB404:
 117:Drivers/lvgl/lvgl/src/core/lv_obj_style_gen.h ****     return (lv_coord_t)v.num;
 5590              		.loc 2 117 0
 5591 0058 1222     		movs	r2, #18
 5592 005a 0021     		movs	r1, #0
 5593 005c 3046     		mov	r0, r6
 5594 005e FFF7FEFF 		bl	lv_obj_get_style_prop
 5595              	.LVL683:
 5596              	.LBE404:
 5597              	.LBE403:
 363:Drivers/lvgl/lvgl/src/core/lv_obj_pos.c ****     lv_coord_t btop = lv_obj_get_style_pad_top(base, LV_PART_MAIN) + bborder;
 5598              		.loc 1 363 0
 5599 0062 A4B2     		uxth	r4, r4
 5600 0064 14FA80F0 		uxtah	r0, r4, r0
 5601 0068 83B2     		uxth	r3, r0
 5602 006a 0393     		str	r3, [sp, #12]
 5603 006c 0FFA83F8 		sxth	r8, r3
 5604              	.LVL684:
 5605              	.LBB405:
 5606              	.LBB406:
 105:Drivers/lvgl/lvgl/src/core/lv_obj_style_gen.h ****     return (lv_coord_t)v.num;
 5607              		.loc 2 105 0
 5608 0070 1022     		movs	r2, #16
 5609 0072 0021     		movs	r1, #0
 5610 0074 3046     		mov	r0, r6
 5611 0076 FFF7FEFF 		bl	lv_obj_get_style_prop
 5612              	.LVL685:
 5613              	.LBE406:
 5614              	.LBE405:
 364:Drivers/lvgl/lvgl/src/core/lv_obj_pos.c **** 
 5615              		.loc 1 364 0
 5616 007a 14FA80F4 		uxtah	r4, r4, r0
ARM GAS  /tmp/cc3JQQuJ.s 			page 143


 5617 007e A4B2     		uxth	r4, r4
 5618 0080 0FFA84F9 		sxth	r9, r4
 5619              	.LVL686:
 366:Drivers/lvgl/lvgl/src/core/lv_obj_pos.c ****         if(lv_obj_get_style_base_dir(base, LV_PART_MAIN) == LV_BASE_DIR_RTL) align = LV_ALIGN_TOP_R
 5620              		.loc 1 366 0
 5621 0084 BAF1000F 		cmp	r10, #0
 5622 0088 20D0     		beq	.L417
 5623              	.LVL687:
 371:Drivers/lvgl/lvgl/src/core/lv_obj_pos.c ****         case LV_ALIGN_CENTER:
 5624              		.loc 1 371 0
 5625 008a 0AF1FF3A 		add	r10, r10, #-1
 5626              	.LVL688:
 5627 008e BAF1140F 		cmp	r10, #20
 5628 0092 5BD8     		bhi	.L372
 5629 0094 DFE81AF0 		tbh	[pc, r10, lsl #1]
 5630              	.L373:
 5631 0098 2300     		.2byte	(.L371-.L373)/2
 5632 009a 9600     		.2byte	(.L374-.L373)/2
 5633 009c B100     		.2byte	(.L370-.L373)/2
 5634 009e C200     		.2byte	(.L375-.L373)/2
 5635 00a0 D200     		.2byte	(.L376-.L373)/2
 5636 00a2 FE00     		.2byte	(.L377-.L373)/2
 5637 00a4 2001     		.2byte	(.L378-.L373)/2
 5638 00a6 3C01     		.2byte	(.L379-.L373)/2
 5639 00a8 5E00     		.2byte	(.L380-.L373)/2
 5640 00aa 6A01     		.2byte	(.L381-.L373)/2
 5641 00ac 7401     		.2byte	(.L382-.L373)/2
 5642 00ae 9301     		.2byte	(.L383-.L373)/2
 5643 00b0 A901     		.2byte	(.L384-.L373)/2
 5644 00b2 B001     		.2byte	(.L385-.L373)/2
 5645 00b4 CC01     		.2byte	(.L386-.L373)/2
 5646 00b6 DE01     		.2byte	(.L387-.L373)/2
 5647 00b8 EA01     		.2byte	(.L388-.L373)/2
 5648 00ba 0D02     		.2byte	(.L389-.L373)/2
 5649 00bc 2502     		.2byte	(.L390-.L373)/2
 5650 00be 2C02     		.2byte	(.L391-.L373)/2
 5651 00c0 4802     		.2byte	(.L392-.L373)/2
 5652              	.LVL689:
 5653              		.p2align 1
 5654              	.L416:
 350:Drivers/lvgl/lvgl/src/core/lv_obj_pos.c **** 
 5655              		.loc 1 350 0 discriminator 1
 5656 00c2 0198     		ldr	r0, [sp, #4]
 5657 00c4 FFF7FEFF 		bl	lv_obj_get_parent
 5658              	.LVL690:
 5659 00c8 0646     		mov	r6, r0
 5660              	.LVL691:
 5661 00ca A4E7     		b	.L368
 5662              	.LVL692:
 5663              	.L417:
 5664              	.LBB407:
 5665              	.LBB408:
 561:Drivers/lvgl/lvgl/src/core/lv_obj_style_gen.h ****     return (lv_base_dir_t)v.num;
 5666              		.loc 2 561 0
 5667 00cc 1622     		movs	r2, #22
 5668 00ce 0021     		movs	r1, #0
 5669 00d0 3046     		mov	r0, r6
ARM GAS  /tmp/cc3JQQuJ.s 			page 144


 5670 00d2 FFF7FEFF 		bl	lv_obj_get_style_prop
 5671              	.LVL693:
 5672              		.loc 2 562 0
 5673 00d6 C0B2     		uxtb	r0, r0
 5674              	.LVL694:
 5675              	.LBE408:
 5676              	.LBE407:
 367:Drivers/lvgl/lvgl/src/core/lv_obj_pos.c ****         else align = LV_ALIGN_TOP_LEFT;
 5677              		.loc 1 367 0
 5678 00d8 0128     		cmp	r0, #1
 5679 00da 00F08E80 		beq	.L370
 5680              	.LVL695:
 5681              	.L371:
 5682              	.LBB409:
 5683              	.LBB410:
 561:Drivers/lvgl/lvgl/src/core/lv_obj_style_gen.h ****     return (lv_base_dir_t)v.num;
 5684              		.loc 2 561 0
 5685 00de 1622     		movs	r2, #22
 5686 00e0 0021     		movs	r1, #0
 5687 00e2 3846     		mov	r0, r7
 5688 00e4 FFF7FEFF 		bl	lv_obj_get_style_prop
 5689              	.LVL696:
 5690              		.loc 2 562 0
 5691 00e8 C0B2     		uxtb	r0, r0
 5692              	.LVL697:
 5693              	.LBE410:
 5694              	.LBE409:
 475:Drivers/lvgl/lvgl/src/core/lv_obj_pos.c ****         x += x_ofs + base->coords.x1 - parent->coords.x1 + lv_obj_get_scroll_right(parent) - pleft;
 5695              		.loc 1 475 0
 5696 00ea 0128     		cmp	r0, #1
 5697 00ec 00F02E82 		beq	.L418
 479:Drivers/lvgl/lvgl/src/core/lv_obj_pos.c ****     }
 5698              		.loc 1 479 0
 5699 00f0 B6F91440 		ldrsh	r4, [r6, #20]
 5700 00f4 029B     		ldr	r3, [sp, #8]
 5701 00f6 2344     		add	r3, r3, r4
 5702 00f8 B7F91400 		ldrsh	r0, [r7, #20]
 5703 00fc 1C1A     		subs	r4, r3, r0
 5704 00fe 3846     		mov	r0, r7
 5705 0100 FFF7FEFF 		bl	lv_obj_get_scroll_left
 5706              	.LVL698:
 5707 0104 2044     		add	r0, r0, r4
 5708 0106 A0EB0B0B 		sub	fp, r0, fp
 5709              	.LVL699:
 5710 010a D844     		add	r8, r8, fp
 5711              	.LVL700:
 5712 010c 0FFA88F8 		sxth	r8, r8
 5713              	.LVL701:
 5714              	.L414:
 481:Drivers/lvgl/lvgl/src/core/lv_obj_pos.c ****     lv_obj_set_style_align(obj, LV_ALIGN_TOP_LEFT, 0);
 5715              		.loc 1 481 0
 5716 0110 B6F91600 		ldrsh	r0, [r6, #22]
 5717 0114 BDF93840 		ldrsh	r4, [sp, #56]
 5718 0118 0444     		add	r4, r4, r0
 5719 011a B7F91600 		ldrsh	r0, [r7, #22]
 5720 011e 241A     		subs	r4, r4, r0
 5721 0120 3846     		mov	r0, r7
ARM GAS  /tmp/cc3JQQuJ.s 			page 145


 5722 0122 FFF7FEFF 		bl	lv_obj_get_scroll_top
 5723              	.LVL702:
 5724 0126 2044     		add	r0, r0, r4
 5725 0128 451B     		subs	r5, r0, r5
 5726              	.LVL703:
 5727 012a A944     		add	r9, r9, r5
 5728              	.LVL704:
 5729 012c 0FFA89F9 		sxth	r9, r9
 5730              	.LVL705:
 482:Drivers/lvgl/lvgl/src/core/lv_obj_pos.c ****     lv_obj_set_pos(obj, x, y);
 5731              		.loc 1 482 0
 5732 0130 0022     		movs	r2, #0
 5733 0132 0121     		movs	r1, #1
 5734 0134 019C     		ldr	r4, [sp, #4]
 5735 0136 2046     		mov	r0, r4
 5736 0138 FFF7FEFF 		bl	lv_obj_set_style_align
 5737              	.LVL706:
 483:Drivers/lvgl/lvgl/src/core/lv_obj_pos.c **** 
 5738              		.loc 1 483 0
 5739 013c 4A46     		mov	r2, r9
 5740 013e 4146     		mov	r1, r8
 5741 0140 2046     		mov	r0, r4
 5742 0142 FFF7FEFF 		bl	lv_obj_set_pos
 5743              	.LVL707:
 485:Drivers/lvgl/lvgl/src/core/lv_obj_pos.c **** 
 5744              		.loc 1 485 0
 5745 0146 05B0     		add	sp, sp, #20
 5746              	.LCFI102:
 5747              		.cfi_remember_state
 5748              		.cfi_def_cfa_offset 36
 5749              		@ sp needed
 5750 0148 BDE8F08F 		pop	{r4, r5, r6, r7, r8, r9, r10, fp, pc}
 5751              	.LVL708:
 5752              	.L372:
 355:Drivers/lvgl/lvgl/src/core/lv_obj_pos.c **** 
 5753              		.loc 1 355 0
 5754 014c 4FF00009 		mov	r9, #0
 5755              	.LVL709:
 354:Drivers/lvgl/lvgl/src/core/lv_obj_pos.c ****     lv_coord_t y = 0;
 5756              		.loc 1 354 0
 5757 0150 C846     		mov	r8, r9
 5758              	.LVL710:
 5759 0152 C4E7     		b	.L371
 5760              	.LVL711:
 5761              	.L380:
 5762              	.LCFI103:
 5763              		.cfi_restore_state
 373:Drivers/lvgl/lvgl/src/core/lv_obj_pos.c ****             y = lv_obj_get_content_height(base) / 2 - lv_obj_get_height(obj) / 2 + btop;
 5764              		.loc 1 373 0
 5765 0154 3046     		mov	r0, r6
 5766 0156 FFF7FEFF 		bl	lv_obj_get_content_width
 5767              	.LVL712:
 5768 015a 8046     		mov	r8, r0
 5769              	.LVL713:
 5770 015c 0198     		ldr	r0, [sp, #4]
 5771 015e FFF7FEFF 		bl	lv_obj_get_width
 5772              	.LVL714:
ARM GAS  /tmp/cc3JQQuJ.s 			page 146


 5773 0162 4346     		mov	r3, r8
 5774 0164 B8F1000F 		cmp	r8, #0
 5775 0168 21DB     		blt	.L419
 5776              	.L393:
 5777 016a 4FEA6308 		asr	r8, r3, #1
 5778 016e 0346     		mov	r3, r0
 5779 0170 0028     		cmp	r0, #0
 5780 0172 1FDB     		blt	.L420
 5781              	.L394:
 5782 0174 A8EB6308 		sub	r8, r8, r3, asr #1
 5783 0178 039B     		ldr	r3, [sp, #12]
 5784 017a 13FA88F8 		uxtah	r8, r3, r8
 5785 017e 0FFA88F8 		sxth	r8, r8
 5786              	.LVL715:
 374:Drivers/lvgl/lvgl/src/core/lv_obj_pos.c ****             break;
 5787              		.loc 1 374 0
 5788 0182 3046     		mov	r0, r6
 5789 0184 FFF7FEFF 		bl	lv_obj_get_content_height
 5790              	.LVL716:
 5791 0188 8146     		mov	r9, r0
 5792              	.LVL717:
 5793 018a 0198     		ldr	r0, [sp, #4]
 5794 018c FFF7FEFF 		bl	lv_obj_get_height
 5795              	.LVL718:
 5796 0190 4B46     		mov	r3, r9
 5797 0192 B9F1000F 		cmp	r9, #0
 5798 0196 0FDB     		blt	.L421
 5799              	.L395:
 5800 0198 5B10     		asrs	r3, r3, #1
 5801 019a 8146     		mov	r9, r0
 5802 019c 0028     		cmp	r0, #0
 5803 019e 0EDB     		blt	.L422
 5804              	.L396:
 5805 01a0 A3EB6909 		sub	r9, r3, r9, asr #1
 5806 01a4 14FA89F4 		uxtah	r4, r4, r9
 5807              	.LVL719:
 5808 01a8 0FFA84F9 		sxth	r9, r4
 5809              	.LVL720:
 375:Drivers/lvgl/lvgl/src/core/lv_obj_pos.c ****         case LV_ALIGN_TOP_LEFT:
 5810              		.loc 1 375 0
 5811 01ac 97E7     		b	.L371
 5812              	.LVL721:
 5813              	.L419:
 373:Drivers/lvgl/lvgl/src/core/lv_obj_pos.c ****             y = lv_obj_get_content_height(base) / 2 - lv_obj_get_height(obj) / 2 + btop;
 5814              		.loc 1 373 0
 5815 01ae 08F10103 		add	r3, r8, #1
 5816 01b2 DAE7     		b	.L393
 5817              	.L420:
 5818 01b4 431C     		adds	r3, r0, #1
 5819 01b6 DDE7     		b	.L394
 5820              	.LVL722:
 5821              	.L421:
 374:Drivers/lvgl/lvgl/src/core/lv_obj_pos.c ****             break;
 5822              		.loc 1 374 0
 5823 01b8 09F10103 		add	r3, r9, #1
 5824 01bc ECE7     		b	.L395
 5825              	.L422:
ARM GAS  /tmp/cc3JQQuJ.s 			page 147


 5826 01be 00F10109 		add	r9, r0, #1
 5827 01c2 EDE7     		b	.L396
 5828              	.LVL723:
 5829              	.L374:
 381:Drivers/lvgl/lvgl/src/core/lv_obj_pos.c ****             y = btop;
 5830              		.loc 1 381 0
 5831 01c4 3046     		mov	r0, r6
 5832 01c6 FFF7FEFF 		bl	lv_obj_get_content_width
 5833              	.LVL724:
 5834 01ca 0446     		mov	r4, r0
 5835 01cc 0198     		ldr	r0, [sp, #4]
 5836 01ce FFF7FEFF 		bl	lv_obj_get_width
 5837              	.LVL725:
 5838 01d2 2346     		mov	r3, r4
 5839 01d4 002C     		cmp	r4, #0
 5840 01d6 0CDB     		blt	.L423
 5841              	.L397:
 5842 01d8 4FEA6308 		asr	r8, r3, #1
 5843              	.LVL726:
 5844 01dc 0346     		mov	r3, r0
 5845 01de 0028     		cmp	r0, #0
 5846 01e0 09DB     		blt	.L424
 5847              	.L398:
 5848 01e2 A8EB6308 		sub	r8, r8, r3, asr #1
 5849 01e6 039B     		ldr	r3, [sp, #12]
 5850 01e8 13FA88F8 		uxtah	r8, r3, r8
 5851 01ec 0FFA88F8 		sxth	r8, r8
 5852              	.LVL727:
 383:Drivers/lvgl/lvgl/src/core/lv_obj_pos.c **** 
 5853              		.loc 1 383 0
 5854 01f0 75E7     		b	.L371
 5855              	.LVL728:
 5856              	.L423:
 381:Drivers/lvgl/lvgl/src/core/lv_obj_pos.c ****             y = btop;
 5857              		.loc 1 381 0
 5858 01f2 631C     		adds	r3, r4, #1
 5859 01f4 F0E7     		b	.L397
 5860              	.LVL729:
 5861              	.L424:
 5862 01f6 431C     		adds	r3, r0, #1
 5863 01f8 F3E7     		b	.L398
 5864              	.LVL730:
 5865              	.L370:
 386:Drivers/lvgl/lvgl/src/core/lv_obj_pos.c ****             y = btop;
 5866              		.loc 1 386 0
 5867 01fa 3046     		mov	r0, r6
 5868 01fc FFF7FEFF 		bl	lv_obj_get_content_width
 5869              	.LVL731:
 5870 0200 1FFA80F8 		uxth	r8, r0
 5871              	.LVL732:
 5872 0204 0198     		ldr	r0, [sp, #4]
 5873 0206 FFF7FEFF 		bl	lv_obj_get_width
 5874              	.LVL733:
 5875 020a 80B2     		uxth	r0, r0
 5876 020c A8EB0008 		sub	r8, r8, r0
 5877 0210 039B     		ldr	r3, [sp, #12]
 5878 0212 13FA88F8 		uxtah	r8, r3, r8
ARM GAS  /tmp/cc3JQQuJ.s 			page 148


 5879 0216 0FFA88F8 		sxth	r8, r8
 5880              	.LVL734:
 388:Drivers/lvgl/lvgl/src/core/lv_obj_pos.c **** 
 5881              		.loc 1 388 0
 5882 021a 60E7     		b	.L371
 5883              	.LVL735:
 5884              	.L375:
 392:Drivers/lvgl/lvgl/src/core/lv_obj_pos.c ****             break;
 5885              		.loc 1 392 0
 5886 021c 3046     		mov	r0, r6
 5887 021e FFF7FEFF 		bl	lv_obj_get_content_height
 5888              	.LVL736:
 5889 0222 1FFA80F9 		uxth	r9, r0
 5890              	.LVL737:
 5891 0226 0198     		ldr	r0, [sp, #4]
 5892 0228 FFF7FEFF 		bl	lv_obj_get_height
 5893              	.LVL738:
 5894 022c 80B2     		uxth	r0, r0
 5895 022e A9EB0009 		sub	r9, r9, r0
 5896 0232 14FA89F4 		uxtah	r4, r4, r9
 5897              	.LVL739:
 5898 0236 0FFA84F9 		sxth	r9, r4
 5899              	.LVL740:
 393:Drivers/lvgl/lvgl/src/core/lv_obj_pos.c ****         case LV_ALIGN_BOTTOM_MID:
 5900              		.loc 1 393 0
 5901 023a 50E7     		b	.L371
 5902              	.LVL741:
 5903              	.L376:
 395:Drivers/lvgl/lvgl/src/core/lv_obj_pos.c ****             y = lv_obj_get_content_height(base) - lv_obj_get_height(obj) + btop;
 5904              		.loc 1 395 0
 5905 023c 3046     		mov	r0, r6
 5906 023e FFF7FEFF 		bl	lv_obj_get_content_width
 5907              	.LVL742:
 5908 0242 8046     		mov	r8, r0
 5909              	.LVL743:
 5910 0244 0198     		ldr	r0, [sp, #4]
 5911 0246 FFF7FEFF 		bl	lv_obj_get_width
 5912              	.LVL744:
 5913 024a 4346     		mov	r3, r8
 5914 024c B8F1000F 		cmp	r8, #0
 5915 0250 1BDB     		blt	.L425
 5916              	.L399:
 5917 0252 4FEA6308 		asr	r8, r3, #1
 5918 0256 0346     		mov	r3, r0
 5919 0258 0028     		cmp	r0, #0
 5920 025a 19DB     		blt	.L426
 5921              	.L400:
 5922 025c A8EB6308 		sub	r8, r8, r3, asr #1
 5923 0260 039B     		ldr	r3, [sp, #12]
 5924 0262 13FA88F8 		uxtah	r8, r3, r8
 5925 0266 0FFA88F8 		sxth	r8, r8
 5926              	.LVL745:
 396:Drivers/lvgl/lvgl/src/core/lv_obj_pos.c ****             break;
 5927              		.loc 1 396 0
 5928 026a 3046     		mov	r0, r6
 5929 026c FFF7FEFF 		bl	lv_obj_get_content_height
 5930              	.LVL746:
ARM GAS  /tmp/cc3JQQuJ.s 			page 149


 5931 0270 1FFA80F9 		uxth	r9, r0
 5932              	.LVL747:
 5933 0274 0198     		ldr	r0, [sp, #4]
 5934 0276 FFF7FEFF 		bl	lv_obj_get_height
 5935              	.LVL748:
 5936 027a 80B2     		uxth	r0, r0
 5937 027c A9EB0009 		sub	r9, r9, r0
 5938 0280 14FA89F4 		uxtah	r4, r4, r9
 5939              	.LVL749:
 5940 0284 0FFA84F9 		sxth	r9, r4
 5941              	.LVL750:
 397:Drivers/lvgl/lvgl/src/core/lv_obj_pos.c **** 
 5942              		.loc 1 397 0
 5943 0288 29E7     		b	.L371
 5944              	.LVL751:
 5945              	.L425:
 395:Drivers/lvgl/lvgl/src/core/lv_obj_pos.c ****             y = lv_obj_get_content_height(base) - lv_obj_get_height(obj) + btop;
 5946              		.loc 1 395 0
 5947 028a 08F10103 		add	r3, r8, #1
 5948 028e E0E7     		b	.L399
 5949              	.L426:
 5950 0290 431C     		adds	r3, r0, #1
 5951 0292 E3E7     		b	.L400
 5952              	.LVL752:
 5953              	.L377:
 400:Drivers/lvgl/lvgl/src/core/lv_obj_pos.c ****             y = lv_obj_get_content_height(base) - lv_obj_get_height(obj) + btop;
 5954              		.loc 1 400 0
 5955 0294 3046     		mov	r0, r6
 5956 0296 FFF7FEFF 		bl	lv_obj_get_content_width
 5957              	.LVL753:
 5958 029a 1FFA80F8 		uxth	r8, r0
 5959              	.LVL754:
 5960 029e DDF804A0 		ldr	r10, [sp, #4]
 5961 02a2 5046     		mov	r0, r10
 5962 02a4 FFF7FEFF 		bl	lv_obj_get_width
 5963              	.LVL755:
 5964 02a8 80B2     		uxth	r0, r0
 5965 02aa A8EB0008 		sub	r8, r8, r0
 5966 02ae 039B     		ldr	r3, [sp, #12]
 5967 02b0 13FA88F8 		uxtah	r8, r3, r8
 5968 02b4 0FFA88F8 		sxth	r8, r8
 5969              	.LVL756:
 401:Drivers/lvgl/lvgl/src/core/lv_obj_pos.c ****             break;
 5970              		.loc 1 401 0
 5971 02b8 3046     		mov	r0, r6
 5972 02ba FFF7FEFF 		bl	lv_obj_get_content_height
 5973              	.LVL757:
 5974 02be 1FFA80F9 		uxth	r9, r0
 5975              	.LVL758:
 5976 02c2 5046     		mov	r0, r10
 5977 02c4 FFF7FEFF 		bl	lv_obj_get_height
 5978              	.LVL759:
 5979 02c8 80B2     		uxth	r0, r0
 5980 02ca A9EB0009 		sub	r9, r9, r0
 5981 02ce 14FA89F4 		uxtah	r4, r4, r9
 5982              	.LVL760:
 5983 02d2 0FFA84F9 		sxth	r9, r4
ARM GAS  /tmp/cc3JQQuJ.s 			page 150


 5984              	.LVL761:
 402:Drivers/lvgl/lvgl/src/core/lv_obj_pos.c **** 
 5985              		.loc 1 402 0
 5986 02d6 02E7     		b	.L371
 5987              	.LVL762:
 5988              	.L378:
 406:Drivers/lvgl/lvgl/src/core/lv_obj_pos.c ****             break;
 5989              		.loc 1 406 0
 5990 02d8 3046     		mov	r0, r6
 5991 02da FFF7FEFF 		bl	lv_obj_get_content_height
 5992              	.LVL763:
 5993 02de 8146     		mov	r9, r0
 5994              	.LVL764:
 5995 02e0 0198     		ldr	r0, [sp, #4]
 5996 02e2 FFF7FEFF 		bl	lv_obj_get_height
 5997              	.LVL765:
 5998 02e6 4B46     		mov	r3, r9
 5999 02e8 B9F1000F 		cmp	r9, #0
 6000 02ec 0ADB     		blt	.L427
 6001              	.L401:
 6002 02ee 5B10     		asrs	r3, r3, #1
 6003 02f0 8146     		mov	r9, r0
 6004 02f2 0028     		cmp	r0, #0
 6005 02f4 09DB     		blt	.L428
 6006              	.L402:
 6007 02f6 A3EB6909 		sub	r9, r3, r9, asr #1
 6008 02fa 14FA89F4 		uxtah	r4, r4, r9
 6009              	.LVL766:
 6010 02fe 0FFA84F9 		sxth	r9, r4
 6011              	.LVL767:
 407:Drivers/lvgl/lvgl/src/core/lv_obj_pos.c **** 
 6012              		.loc 1 407 0
 6013 0302 ECE6     		b	.L371
 6014              	.LVL768:
 6015              	.L427:
 406:Drivers/lvgl/lvgl/src/core/lv_obj_pos.c ****             break;
 6016              		.loc 1 406 0
 6017 0304 09F10103 		add	r3, r9, #1
 6018 0308 F1E7     		b	.L401
 6019              	.L428:
 6020 030a 00F10109 		add	r9, r0, #1
 6021 030e F2E7     		b	.L402
 6022              	.LVL769:
 6023              	.L379:
 410:Drivers/lvgl/lvgl/src/core/lv_obj_pos.c ****             y = lv_obj_get_content_height(base) / 2 - lv_obj_get_height(obj) / 2 + btop;
 6024              		.loc 1 410 0
 6025 0310 3046     		mov	r0, r6
 6026 0312 FFF7FEFF 		bl	lv_obj_get_content_width
 6027              	.LVL770:
 6028 0316 1FFA80F8 		uxth	r8, r0
 6029              	.LVL771:
 6030 031a DDF804A0 		ldr	r10, [sp, #4]
 6031 031e 5046     		mov	r0, r10
 6032 0320 FFF7FEFF 		bl	lv_obj_get_width
 6033              	.LVL772:
 6034 0324 80B2     		uxth	r0, r0
 6035 0326 A8EB0008 		sub	r8, r8, r0
ARM GAS  /tmp/cc3JQQuJ.s 			page 151


 6036 032a 039B     		ldr	r3, [sp, #12]
 6037 032c 13FA88F8 		uxtah	r8, r3, r8
 6038 0330 0FFA88F8 		sxth	r8, r8
 6039              	.LVL773:
 411:Drivers/lvgl/lvgl/src/core/lv_obj_pos.c ****             break;
 6040              		.loc 1 411 0
 6041 0334 3046     		mov	r0, r6
 6042 0336 FFF7FEFF 		bl	lv_obj_get_content_height
 6043              	.LVL774:
 6044 033a 8146     		mov	r9, r0
 6045              	.LVL775:
 6046 033c 5046     		mov	r0, r10
 6047 033e FFF7FEFF 		bl	lv_obj_get_height
 6048              	.LVL776:
 6049 0342 4B46     		mov	r3, r9
 6050 0344 B9F1000F 		cmp	r9, #0
 6051 0348 0ADB     		blt	.L429
 6052              	.L403:
 6053 034a 5B10     		asrs	r3, r3, #1
 6054 034c 8146     		mov	r9, r0
 6055 034e 0028     		cmp	r0, #0
 6056 0350 09DB     		blt	.L430
 6057              	.L404:
 6058 0352 A3EB6909 		sub	r9, r3, r9, asr #1
 6059 0356 14FA89F4 		uxtah	r4, r4, r9
 6060              	.LVL777:
 6061 035a 0FFA84F9 		sxth	r9, r4
 6062              	.LVL778:
 412:Drivers/lvgl/lvgl/src/core/lv_obj_pos.c **** 
 6063              		.loc 1 412 0
 6064 035e BEE6     		b	.L371
 6065              	.LVL779:
 6066              	.L429:
 411:Drivers/lvgl/lvgl/src/core/lv_obj_pos.c ****             break;
 6067              		.loc 1 411 0
 6068 0360 09F10103 		add	r3, r9, #1
 6069 0364 F1E7     		b	.L403
 6070              	.L430:
 6071 0366 00F10109 		add	r9, r0, #1
 6072 036a F2E7     		b	.L404
 6073              	.LVL780:
 6074              	.L381:
 416:Drivers/lvgl/lvgl/src/core/lv_obj_pos.c ****             break;
 6075              		.loc 1 416 0
 6076 036c 0198     		ldr	r0, [sp, #4]
 6077 036e FFF7FEFF 		bl	lv_obj_get_height
 6078              	.LVL781:
 6079 0372 80B2     		uxth	r0, r0
 6080 0374 4442     		negs	r4, r0
 6081 0376 0FFA84F9 		sxth	r9, r4
 6082              	.LVL782:
 415:Drivers/lvgl/lvgl/src/core/lv_obj_pos.c ****             y = -lv_obj_get_height(obj);
 6083              		.loc 1 415 0
 6084 037a 4FF00008 		mov	r8, #0
 6085              	.LVL783:
 417:Drivers/lvgl/lvgl/src/core/lv_obj_pos.c **** 
 6086              		.loc 1 417 0
ARM GAS  /tmp/cc3JQQuJ.s 			page 152


 6087 037e AEE6     		b	.L371
 6088              	.LVL784:
 6089              	.L382:
 420:Drivers/lvgl/lvgl/src/core/lv_obj_pos.c ****             y = -lv_obj_get_height(obj);
 6090              		.loc 1 420 0
 6091 0380 3046     		mov	r0, r6
 6092 0382 FFF7FEFF 		bl	lv_obj_get_width
 6093              	.LVL785:
 6094 0386 0446     		mov	r4, r0
 6095 0388 0198     		ldr	r0, [sp, #4]
 6096 038a FFF7FEFF 		bl	lv_obj_get_width
 6097              	.LVL786:
 6098 038e 2346     		mov	r3, r4
 6099 0390 002C     		cmp	r4, #0
 6100 0392 10DB     		blt	.L431
 6101              	.L405:
 6102 0394 4FEA6308 		asr	r8, r3, #1
 6103              	.LVL787:
 6104 0398 0346     		mov	r3, r0
 6105 039a 0028     		cmp	r0, #0
 6106 039c 0DDB     		blt	.L432
 6107              	.L406:
 6108 039e A8EB6308 		sub	r8, r8, r3, asr #1
 6109 03a2 0FFA88F8 		sxth	r8, r8
 6110              	.LVL788:
 421:Drivers/lvgl/lvgl/src/core/lv_obj_pos.c ****             break;
 6111              		.loc 1 421 0
 6112 03a6 0198     		ldr	r0, [sp, #4]
 6113 03a8 FFF7FEFF 		bl	lv_obj_get_height
 6114              	.LVL789:
 6115 03ac 80B2     		uxth	r0, r0
 6116 03ae 4442     		negs	r4, r0
 6117 03b0 0FFA84F9 		sxth	r9, r4
 6118              	.LVL790:
 422:Drivers/lvgl/lvgl/src/core/lv_obj_pos.c **** 
 6119              		.loc 1 422 0
 6120 03b4 93E6     		b	.L371
 6121              	.LVL791:
 6122              	.L431:
 420:Drivers/lvgl/lvgl/src/core/lv_obj_pos.c ****             y = -lv_obj_get_height(obj);
 6123              		.loc 1 420 0
 6124 03b6 631C     		adds	r3, r4, #1
 6125 03b8 ECE7     		b	.L405
 6126              	.LVL792:
 6127              	.L432:
 6128 03ba 431C     		adds	r3, r0, #1
 6129 03bc EFE7     		b	.L406
 6130              	.LVL793:
 6131              	.L383:
 425:Drivers/lvgl/lvgl/src/core/lv_obj_pos.c ****             y = -lv_obj_get_height(obj);
 6132              		.loc 1 425 0
 6133 03be 3046     		mov	r0, r6
 6134 03c0 FFF7FEFF 		bl	lv_obj_get_width
 6135              	.LVL794:
 6136 03c4 1FFA80F8 		uxth	r8, r0
 6137              	.LVL795:
 6138 03c8 019C     		ldr	r4, [sp, #4]
ARM GAS  /tmp/cc3JQQuJ.s 			page 153


 6139 03ca 2046     		mov	r0, r4
 6140 03cc FFF7FEFF 		bl	lv_obj_get_width
 6141              	.LVL796:
 6142 03d0 80B2     		uxth	r0, r0
 6143 03d2 A8EB0008 		sub	r8, r8, r0
 6144 03d6 0FFA88F8 		sxth	r8, r8
 6145              	.LVL797:
 426:Drivers/lvgl/lvgl/src/core/lv_obj_pos.c ****             break;
 6146              		.loc 1 426 0
 6147 03da 2046     		mov	r0, r4
 6148 03dc FFF7FEFF 		bl	lv_obj_get_height
 6149              	.LVL798:
 6150 03e0 80B2     		uxth	r0, r0
 6151 03e2 4442     		negs	r4, r0
 6152 03e4 0FFA84F9 		sxth	r9, r4
 6153              	.LVL799:
 427:Drivers/lvgl/lvgl/src/core/lv_obj_pos.c **** 
 6154              		.loc 1 427 0
 6155 03e8 79E6     		b	.L371
 6156              	.LVL800:
 6157              	.L384:
 431:Drivers/lvgl/lvgl/src/core/lv_obj_pos.c ****             break;
 6158              		.loc 1 431 0
 6159 03ea 3046     		mov	r0, r6
 6160 03ec FFF7FEFF 		bl	lv_obj_get_height
 6161              	.LVL801:
 6162 03f0 8146     		mov	r9, r0
 6163              	.LVL802:
 430:Drivers/lvgl/lvgl/src/core/lv_obj_pos.c ****             y = lv_obj_get_height(base);
 6164              		.loc 1 430 0
 6165 03f2 4FF00008 		mov	r8, #0
 6166              	.LVL803:
 432:Drivers/lvgl/lvgl/src/core/lv_obj_pos.c **** 
 6167              		.loc 1 432 0
 6168 03f6 72E6     		b	.L371
 6169              	.LVL804:
 6170              	.L385:
 435:Drivers/lvgl/lvgl/src/core/lv_obj_pos.c ****             y = lv_obj_get_height(base);
 6171              		.loc 1 435 0
 6172 03f8 3046     		mov	r0, r6
 6173 03fa FFF7FEFF 		bl	lv_obj_get_width
 6174              	.LVL805:
 6175 03fe 0446     		mov	r4, r0
 6176 0400 0198     		ldr	r0, [sp, #4]
 6177 0402 FFF7FEFF 		bl	lv_obj_get_width
 6178              	.LVL806:
 6179 0406 2346     		mov	r3, r4
 6180 0408 002C     		cmp	r4, #0
 6181 040a 0DDB     		blt	.L433
 6182              	.L407:
 6183 040c 4FEA6308 		asr	r8, r3, #1
 6184              	.LVL807:
 6185 0410 0346     		mov	r3, r0
 6186 0412 0028     		cmp	r0, #0
 6187 0414 0ADB     		blt	.L434
 6188              	.L408:
 6189 0416 A8EB6308 		sub	r8, r8, r3, asr #1
ARM GAS  /tmp/cc3JQQuJ.s 			page 154


 6190 041a 0FFA88F8 		sxth	r8, r8
 6191              	.LVL808:
 436:Drivers/lvgl/lvgl/src/core/lv_obj_pos.c ****             break;
 6192              		.loc 1 436 0
 6193 041e 3046     		mov	r0, r6
 6194 0420 FFF7FEFF 		bl	lv_obj_get_height
 6195              	.LVL809:
 6196 0424 8146     		mov	r9, r0
 6197              	.LVL810:
 437:Drivers/lvgl/lvgl/src/core/lv_obj_pos.c **** 
 6198              		.loc 1 437 0
 6199 0426 5AE6     		b	.L371
 6200              	.LVL811:
 6201              	.L433:
 435:Drivers/lvgl/lvgl/src/core/lv_obj_pos.c ****             y = lv_obj_get_height(base);
 6202              		.loc 1 435 0
 6203 0428 631C     		adds	r3, r4, #1
 6204 042a EFE7     		b	.L407
 6205              	.LVL812:
 6206              	.L434:
 6207 042c 431C     		adds	r3, r0, #1
 6208 042e F2E7     		b	.L408
 6209              	.LVL813:
 6210              	.L386:
 440:Drivers/lvgl/lvgl/src/core/lv_obj_pos.c ****             y = lv_obj_get_height(base);
 6211              		.loc 1 440 0
 6212 0430 3046     		mov	r0, r6
 6213 0432 FFF7FEFF 		bl	lv_obj_get_width
 6214              	.LVL814:
 6215 0436 1FFA80F8 		uxth	r8, r0
 6216              	.LVL815:
 6217 043a 0198     		ldr	r0, [sp, #4]
 6218 043c FFF7FEFF 		bl	lv_obj_get_width
 6219              	.LVL816:
 6220 0440 80B2     		uxth	r0, r0
 6221 0442 A8EB0008 		sub	r8, r8, r0
 6222 0446 0FFA88F8 		sxth	r8, r8
 6223              	.LVL817:
 441:Drivers/lvgl/lvgl/src/core/lv_obj_pos.c ****             break;
 6224              		.loc 1 441 0
 6225 044a 3046     		mov	r0, r6
 6226 044c FFF7FEFF 		bl	lv_obj_get_height
 6227              	.LVL818:
 6228 0450 8146     		mov	r9, r0
 6229              	.LVL819:
 442:Drivers/lvgl/lvgl/src/core/lv_obj_pos.c **** 
 6230              		.loc 1 442 0
 6231 0452 44E6     		b	.L371
 6232              	.LVL820:
 6233              	.L387:
 445:Drivers/lvgl/lvgl/src/core/lv_obj_pos.c ****             y = 0;
 6234              		.loc 1 445 0
 6235 0454 0198     		ldr	r0, [sp, #4]
 6236 0456 FFF7FEFF 		bl	lv_obj_get_width
 6237              	.LVL821:
 6238 045a 1FFA80F8 		uxth	r8, r0
 6239              	.LVL822:
ARM GAS  /tmp/cc3JQQuJ.s 			page 155


 6240 045e C8F10008 		rsb	r8, r8, #0
 6241 0462 0FFA88F8 		sxth	r8, r8
 6242              	.LVL823:
 446:Drivers/lvgl/lvgl/src/core/lv_obj_pos.c ****             break;
 6243              		.loc 1 446 0
 6244 0466 4FF00009 		mov	r9, #0
 6245              	.LVL824:
 447:Drivers/lvgl/lvgl/src/core/lv_obj_pos.c **** 
 6246              		.loc 1 447 0
 6247 046a 38E6     		b	.L371
 6248              	.LVL825:
 6249              	.L388:
 450:Drivers/lvgl/lvgl/src/core/lv_obj_pos.c ****             y = lv_obj_get_height(base) / 2 - lv_obj_get_height(obj) / 2;
 6250              		.loc 1 450 0
 6251 046c DDF80490 		ldr	r9, [sp, #4]
 6252              	.LVL826:
 6253 0470 4846     		mov	r0, r9
 6254 0472 FFF7FEFF 		bl	lv_obj_get_width
 6255              	.LVL827:
 6256 0476 1FFA80F8 		uxth	r8, r0
 6257              	.LVL828:
 6258 047a C8F10008 		rsb	r8, r8, #0
 6259 047e 0FFA88F8 		sxth	r8, r8
 6260              	.LVL829:
 451:Drivers/lvgl/lvgl/src/core/lv_obj_pos.c ****             break;
 6261              		.loc 1 451 0
 6262 0482 3046     		mov	r0, r6
 6263 0484 FFF7FEFF 		bl	lv_obj_get_height
 6264              	.LVL830:
 6265 0488 0446     		mov	r4, r0
 6266              	.LVL831:
 6267 048a 4846     		mov	r0, r9
 6268 048c FFF7FEFF 		bl	lv_obj_get_height
 6269              	.LVL832:
 6270 0490 2346     		mov	r3, r4
 6271 0492 002C     		cmp	r4, #0
 6272 0494 08DB     		blt	.L435
 6273              	.L409:
 6274 0496 5B10     		asrs	r3, r3, #1
 6275 0498 8146     		mov	r9, r0
 6276 049a 0028     		cmp	r0, #0
 6277 049c 06DB     		blt	.L436
 6278              	.L410:
 6279 049e A3EB6904 		sub	r4, r3, r9, asr #1
 6280 04a2 0FFA84F9 		sxth	r9, r4
 6281              	.LVL833:
 452:Drivers/lvgl/lvgl/src/core/lv_obj_pos.c **** 
 6282              		.loc 1 452 0
 6283 04a6 1AE6     		b	.L371
 6284              	.LVL834:
 6285              	.L435:
 451:Drivers/lvgl/lvgl/src/core/lv_obj_pos.c ****             break;
 6286              		.loc 1 451 0
 6287 04a8 631C     		adds	r3, r4, #1
 6288 04aa F4E7     		b	.L409
 6289              	.L436:
 6290 04ac 00F10109 		add	r9, r0, #1
ARM GAS  /tmp/cc3JQQuJ.s 			page 156


 6291 04b0 F5E7     		b	.L410
 6292              	.LVL835:
 6293              	.L389:
 455:Drivers/lvgl/lvgl/src/core/lv_obj_pos.c ****             y = lv_obj_get_height(base) - lv_obj_get_height(obj);
 6294              		.loc 1 455 0
 6295 04b2 019C     		ldr	r4, [sp, #4]
 6296 04b4 2046     		mov	r0, r4
 6297 04b6 FFF7FEFF 		bl	lv_obj_get_width
 6298              	.LVL836:
 6299 04ba 1FFA80F8 		uxth	r8, r0
 6300              	.LVL837:
 6301 04be C8F10008 		rsb	r8, r8, #0
 6302 04c2 0FFA88F8 		sxth	r8, r8
 6303              	.LVL838:
 456:Drivers/lvgl/lvgl/src/core/lv_obj_pos.c ****             break;
 6304              		.loc 1 456 0
 6305 04c6 3046     		mov	r0, r6
 6306 04c8 FFF7FEFF 		bl	lv_obj_get_height
 6307              	.LVL839:
 6308 04cc 1FFA80F9 		uxth	r9, r0
 6309              	.LVL840:
 6310 04d0 2046     		mov	r0, r4
 6311 04d2 FFF7FEFF 		bl	lv_obj_get_height
 6312              	.LVL841:
 6313 04d6 80B2     		uxth	r0, r0
 6314 04d8 A9EB0009 		sub	r9, r9, r0
 6315 04dc 0FFA89F9 		sxth	r9, r9
 6316              	.LVL842:
 457:Drivers/lvgl/lvgl/src/core/lv_obj_pos.c **** 
 6317              		.loc 1 457 0
 6318 04e0 FDE5     		b	.L371
 6319              	.LVL843:
 6320              	.L390:
 460:Drivers/lvgl/lvgl/src/core/lv_obj_pos.c ****             y = 0;
 6321              		.loc 1 460 0
 6322 04e2 3046     		mov	r0, r6
 6323 04e4 FFF7FEFF 		bl	lv_obj_get_width
 6324              	.LVL844:
 6325 04e8 8046     		mov	r8, r0
 6326              	.LVL845:
 461:Drivers/lvgl/lvgl/src/core/lv_obj_pos.c ****             break;
 6327              		.loc 1 461 0
 6328 04ea 4FF00009 		mov	r9, #0
 6329              	.LVL846:
 462:Drivers/lvgl/lvgl/src/core/lv_obj_pos.c **** 
 6330              		.loc 1 462 0
 6331 04ee F6E5     		b	.L371
 6332              	.LVL847:
 6333              	.L391:
 465:Drivers/lvgl/lvgl/src/core/lv_obj_pos.c ****             y = lv_obj_get_height(base) / 2 - lv_obj_get_height(obj) / 2;
 6334              		.loc 1 465 0
 6335 04f0 3046     		mov	r0, r6
 6336 04f2 FFF7FEFF 		bl	lv_obj_get_width
 6337              	.LVL848:
 6338 04f6 8046     		mov	r8, r0
 6339              	.LVL849:
 466:Drivers/lvgl/lvgl/src/core/lv_obj_pos.c ****             break;
ARM GAS  /tmp/cc3JQQuJ.s 			page 157


 6340              		.loc 1 466 0
 6341 04f8 3046     		mov	r0, r6
 6342 04fa FFF7FEFF 		bl	lv_obj_get_height
 6343              	.LVL850:
 6344 04fe 0446     		mov	r4, r0
 6345 0500 0198     		ldr	r0, [sp, #4]
 6346 0502 FFF7FEFF 		bl	lv_obj_get_height
 6347              	.LVL851:
 6348 0506 2346     		mov	r3, r4
 6349 0508 002C     		cmp	r4, #0
 6350 050a 08DB     		blt	.L437
 6351              	.L411:
 6352 050c 5B10     		asrs	r3, r3, #1
 6353 050e 8146     		mov	r9, r0
 6354              	.LVL852:
 6355 0510 0028     		cmp	r0, #0
 6356 0512 06DB     		blt	.L438
 6357              	.L412:
 6358 0514 A3EB6904 		sub	r4, r3, r9, asr #1
 6359 0518 0FFA84F9 		sxth	r9, r4
 6360              	.LVL853:
 467:Drivers/lvgl/lvgl/src/core/lv_obj_pos.c **** 
 6361              		.loc 1 467 0
 6362 051c DFE5     		b	.L371
 6363              	.LVL854:
 6364              	.L437:
 466:Drivers/lvgl/lvgl/src/core/lv_obj_pos.c ****             break;
 6365              		.loc 1 466 0
 6366 051e 631C     		adds	r3, r4, #1
 6367 0520 F4E7     		b	.L411
 6368              	.LVL855:
 6369              	.L438:
 6370 0522 00F10109 		add	r9, r0, #1
 6371 0526 F5E7     		b	.L412
 6372              	.LVL856:
 6373              	.L392:
 470:Drivers/lvgl/lvgl/src/core/lv_obj_pos.c ****             y = lv_obj_get_height(base) - lv_obj_get_height(obj);
 6374              		.loc 1 470 0
 6375 0528 3046     		mov	r0, r6
 6376 052a FFF7FEFF 		bl	lv_obj_get_width
 6377              	.LVL857:
 6378 052e 8046     		mov	r8, r0
 6379              	.LVL858:
 471:Drivers/lvgl/lvgl/src/core/lv_obj_pos.c ****             break;
 6380              		.loc 1 471 0
 6381 0530 3046     		mov	r0, r6
 6382 0532 FFF7FEFF 		bl	lv_obj_get_height
 6383              	.LVL859:
 6384 0536 1FFA80F9 		uxth	r9, r0
 6385              	.LVL860:
 6386 053a 0198     		ldr	r0, [sp, #4]
 6387 053c FFF7FEFF 		bl	lv_obj_get_height
 6388              	.LVL861:
 6389 0540 80B2     		uxth	r0, r0
 6390 0542 A9EB0009 		sub	r9, r9, r0
 6391 0546 0FFA89F9 		sxth	r9, r9
 6392              	.LVL862:
ARM GAS  /tmp/cc3JQQuJ.s 			page 158


 472:Drivers/lvgl/lvgl/src/core/lv_obj_pos.c ****     }
 6393              		.loc 1 472 0
 6394 054a C8E5     		b	.L371
 6395              	.LVL863:
 6396              	.L418:
 476:Drivers/lvgl/lvgl/src/core/lv_obj_pos.c ****     }
 6397              		.loc 1 476 0
 6398 054c B6F91440 		ldrsh	r4, [r6, #20]
 6399 0550 029B     		ldr	r3, [sp, #8]
 6400 0552 2344     		add	r3, r3, r4
 6401 0554 B7F91400 		ldrsh	r0, [r7, #20]
 6402 0558 1C1A     		subs	r4, r3, r0
 6403 055a 3846     		mov	r0, r7
 6404 055c FFF7FEFF 		bl	lv_obj_get_scroll_right
 6405              	.LVL864:
 6406 0560 2044     		add	r0, r0, r4
 6407 0562 A0EB0B0B 		sub	fp, r0, fp
 6408              	.LVL865:
 6409 0566 D844     		add	r8, r8, fp
 6410              	.LVL866:
 6411 0568 0FFA88F8 		sxth	r8, r8
 6412              	.LVL867:
 6413 056c D0E5     		b	.L414
 6414              		.cfi_endproc
 6415              	.LFE181:
 6417              		.section	.bss.layout_cnt,"aw",%nobits
 6418              		.align	2
 6419              		.set	.LANCHOR0,. + 0
 6422              	layout_cnt:
 6423 0000 00000000 		.space	4
 6424              		.section	.bss.mutex.10348,"aw",%nobits
 6425              		.set	.LANCHOR1,. + 0
 6428              	mutex.10348:
 6429 0000 00       		.space	1
 6430              		.text
 6431              	.Letext0:
 6432              		.file 4 "/opt/gcc-arm-none-eabi-7-2017-q4-major/arm-none-eabi/include/machine/_default_types.h"
 6433              		.file 5 "/opt/gcc-arm-none-eabi-7-2017-q4-major/arm-none-eabi/include/sys/_stdint.h"
 6434              		.file 6 "/opt/gcc-arm-none-eabi-7-2017-q4-major/lib/gcc/arm-none-eabi/7.2.1/include/stddef.h"
 6435              		.file 7 "Drivers/lvgl/lvgl/src/core/../misc/../font/lv_font.h"
 6436              		.file 8 "Drivers/lvgl/lvgl/src/core/../misc/lv_types.h"
 6437              		.file 9 "/opt/gcc-arm-none-eabi-7-2017-q4-major/arm-none-eabi/include/sys/lock.h"
 6438              		.file 10 "/opt/gcc-arm-none-eabi-7-2017-q4-major/arm-none-eabi/include/sys/_types.h"
 6439              		.file 11 "/opt/gcc-arm-none-eabi-7-2017-q4-major/arm-none-eabi/include/sys/reent.h"
 6440              		.file 12 "Drivers/lvgl/lvgl/src/core/../misc/lv_mem.h"
 6441              		.file 13 "Drivers/lvgl/lvgl/src/core/../misc/lv_color.h"
 6442              		.file 14 "Drivers/lvgl/lvgl/src/core/../misc/lv_anim.h"
 6443              		.file 15 "Drivers/lvgl/lvgl/src/core/../misc/lv_txt.h"
 6444              		.file 16 "Drivers/lvgl/lvgl/src/core/../misc/lv_bidi.h"
 6445              		.file 17 "Drivers/lvgl/lvgl/src/core/../misc/lv_style.h"
 6446              		.file 18 "Drivers/lvgl/lvgl/src/core/../hal/../draw/lv_img_buf.h"
 6447              		.file 19 "Drivers/lvgl/lvgl/src/core/../hal/../draw/lv_img_decoder.h"
 6448              		.file 20 "Drivers/lvgl/lvgl/src/core/../hal/../draw/lv_img_cache.h"
 6449              		.file 21 "Drivers/lvgl/lvgl/src/core/../hal/../draw/sw/../../core/lv_obj_pos.h"
 6450              		.file 22 "Drivers/lvgl/lvgl/src/core/lv_obj.h"
 6451              		.file 23 "Drivers/lvgl/lvgl/src/core/../hal/../draw/lv_draw_rect.h"
 6452              		.file 24 "Drivers/lvgl/lvgl/src/core/../hal/../draw/lv_draw_label.h"
ARM GAS  /tmp/cc3JQQuJ.s 			page 159


 6453              		.file 25 "Drivers/lvgl/lvgl/src/core/../hal/../draw/lv_draw_img.h"
 6454              		.file 26 "Drivers/lvgl/lvgl/src/core/../hal/../draw/lv_draw_line.h"
 6455              		.file 27 "Drivers/lvgl/lvgl/src/core/../hal/../draw/lv_draw_arc.h"
 6456              		.file 28 "Drivers/lvgl/lvgl/src/core/../hal/../draw/lv_draw_mask.h"
 6457              		.file 29 "Drivers/lvgl/lvgl/src/core/../hal/../draw/lv_draw_layer.h"
 6458              		.file 30 "Drivers/lvgl/lvgl/src/core/../hal/../draw/lv_draw.h"
 6459              		.file 31 "Drivers/lvgl/lvgl/src/core/../hal/../misc/lv_ll.h"
 6460              		.file 32 "Drivers/lvgl/lvgl/src/core/../hal/../misc/lv_timer.h"
 6461              		.file 33 "Drivers/lvgl/lvgl/src/core/../hal/lv_hal_disp.h"
 6462              		.file 34 "Drivers/lvgl/lvgl/src/core/lv_theme.h"
 6463              		.file 35 "Drivers/lvgl/lvgl/src/core/lv_group.h"
 6464              		.file 36 "Drivers/lvgl/lvgl/src/core/lv_obj_scroll.h"
 6465              		.file 37 "Drivers/lvgl/lvgl/src/core/lv_obj_style.h"
 6466              		.file 38 "Drivers/lvgl/lvgl/src/core/lv_obj_draw.h"
 6467              		.file 39 "Drivers/lvgl/lvgl/src/core/lv_obj_class.h"
 6468              		.file 40 "Drivers/lvgl/lvgl/src/core/lv_event.h"
 6469              		.file 41 "Drivers/lvgl/lvgl/src/core/../misc/lv_gc.h"
 6470              		.file 42 "Drivers/lvgl/lvgl/src/core/lv_obj_tree.h"
 6471              		.file 43 "Drivers/lvgl/lvgl/src/core/lv_disp.h"
 6472              		.file 44 "Drivers/lvgl/lvgl/src/core/lv_refr.h"
ARM GAS  /tmp/cc3JQQuJ.s 			page 160


DEFINED SYMBOLS
                            *ABS*:0000000000000000 lv_obj_pos.c
     /tmp/cc3JQQuJ.s:17     .text.transform_point:0000000000000000 $t
     /tmp/cc3JQQuJ.s:23     .text.transform_point:0000000000000000 transform_point
     /tmp/cc3JQQuJ.s:237    .text.transform_point:0000000000000118 $d
     /tmp/cc3JQQuJ.s:242    .text.lv_obj_set_x:0000000000000000 $t
     /tmp/cc3JQQuJ.s:249    .text.lv_obj_set_x:0000000000000000 lv_obj_set_x
     /tmp/cc3JQQuJ.s:309    .text.lv_obj_set_y:0000000000000000 $t
     /tmp/cc3JQQuJ.s:316    .text.lv_obj_set_y:0000000000000000 lv_obj_set_y
     /tmp/cc3JQQuJ.s:376    .text.lv_obj_set_pos:0000000000000000 $t
     /tmp/cc3JQQuJ.s:383    .text.lv_obj_set_pos:0000000000000000 lv_obj_set_pos
     /tmp/cc3JQQuJ.s:413    .text.lv_obj_set_width:0000000000000000 $t
     /tmp/cc3JQQuJ.s:420    .text.lv_obj_set_width:0000000000000000 lv_obj_set_width
     /tmp/cc3JQQuJ.s:480    .text.lv_obj_set_height:0000000000000000 $t
     /tmp/cc3JQQuJ.s:487    .text.lv_obj_set_height:0000000000000000 lv_obj_set_height
     /tmp/cc3JQQuJ.s:547    .text.lv_obj_set_size:0000000000000000 $t
     /tmp/cc3JQQuJ.s:554    .text.lv_obj_set_size:0000000000000000 lv_obj_set_size
     /tmp/cc3JQQuJ.s:584    .text.lv_obj_set_content_width:0000000000000000 $t
     /tmp/cc3JQQuJ.s:591    .text.lv_obj_set_content_width:0000000000000000 lv_obj_set_content_width
     /tmp/cc3JQQuJ.s:661    .text.lv_obj_set_content_height:0000000000000000 $t
     /tmp/cc3JQQuJ.s:668    .text.lv_obj_set_content_height:0000000000000000 lv_obj_set_content_height
     /tmp/cc3JQQuJ.s:738    .text.lv_obj_is_layout_positioned:0000000000000000 $t
     /tmp/cc3JQQuJ.s:745    .text.lv_obj_is_layout_positioned:0000000000000000 lv_obj_is_layout_positioned
     /tmp/cc3JQQuJ.s:800    .text.lv_obj_is_layout_positioned:0000000000000030 $d
     /tmp/cc3JQQuJ.s:805    .text.lv_obj_mark_layout_as_dirty:0000000000000000 $t
     /tmp/cc3JQQuJ.s:812    .text.lv_obj_mark_layout_as_dirty:0000000000000000 lv_obj_mark_layout_as_dirty
     /tmp/cc3JQQuJ.s:852    .text.lv_obj_set_layout:0000000000000000 $t
     /tmp/cc3JQQuJ.s:859    .text.lv_obj_set_layout:0000000000000000 lv_obj_set_layout
     /tmp/cc3JQQuJ.s:888    .text.lv_layout_register:0000000000000000 $t
     /tmp/cc3JQQuJ.s:895    .text.lv_layout_register:0000000000000000 lv_layout_register
     /tmp/cc3JQQuJ.s:947    .text.lv_layout_register:000000000000003c $d
     /tmp/cc3JQQuJ.s:953    .text.lv_obj_set_align:0000000000000000 $t
     /tmp/cc3JQQuJ.s:960    .text.lv_obj_set_align:0000000000000000 lv_obj_set_align
     /tmp/cc3JQQuJ.s:982    .text.lv_obj_align:0000000000000000 $t
     /tmp/cc3JQQuJ.s:989    .text.lv_obj_align:0000000000000000 lv_obj_align
     /tmp/cc3JQQuJ.s:1023   .text.lv_obj_get_coords:0000000000000000 $t
     /tmp/cc3JQQuJ.s:1030   .text.lv_obj_get_coords:0000000000000000 lv_obj_get_coords
     /tmp/cc3JQQuJ.s:1061   .text.lv_obj_get_x:0000000000000000 $t
     /tmp/cc3JQQuJ.s:1068   .text.lv_obj_get_x:0000000000000000 lv_obj_get_x
     /tmp/cc3JQQuJ.s:1149   .text.lv_obj_get_y:0000000000000000 $t
     /tmp/cc3JQQuJ.s:1156   .text.lv_obj_get_y:0000000000000000 lv_obj_get_y
     /tmp/cc3JQQuJ.s:1237   .text.lv_obj_get_x_aligned:0000000000000000 $t
     /tmp/cc3JQQuJ.s:1244   .text.lv_obj_get_x_aligned:0000000000000000 lv_obj_get_x_aligned
     /tmp/cc3JQQuJ.s:1273   .text.lv_obj_get_y_aligned:0000000000000000 $t
     /tmp/cc3JQQuJ.s:1280   .text.lv_obj_get_y_aligned:0000000000000000 lv_obj_get_y_aligned
     /tmp/cc3JQQuJ.s:1309   .text.lv_obj_get_width:0000000000000000 $t
     /tmp/cc3JQQuJ.s:1316   .text.lv_obj_get_width:0000000000000000 lv_obj_get_width
     /tmp/cc3JQQuJ.s:1343   .text.lv_obj_get_x2:0000000000000000 $t
     /tmp/cc3JQQuJ.s:1350   .text.lv_obj_get_x2:0000000000000000 lv_obj_get_x2
     /tmp/cc3JQQuJ.s:1380   .text.lv_obj_get_height:0000000000000000 $t
     /tmp/cc3JQQuJ.s:1387   .text.lv_obj_get_height:0000000000000000 lv_obj_get_height
     /tmp/cc3JQQuJ.s:1414   .text.lv_obj_get_y2:0000000000000000 $t
     /tmp/cc3JQQuJ.s:1421   .text.lv_obj_get_y2:0000000000000000 lv_obj_get_y2
     /tmp/cc3JQQuJ.s:1451   .text.lv_obj_get_content_width:0000000000000000 $t
     /tmp/cc3JQQuJ.s:1458   .text.lv_obj_get_content_width:0000000000000000 lv_obj_get_content_width
     /tmp/cc3JQQuJ.s:1534   .text.lv_obj_get_content_height:0000000000000000 $t
     /tmp/cc3JQQuJ.s:1541   .text.lv_obj_get_content_height:0000000000000000 lv_obj_get_content_height
ARM GAS  /tmp/cc3JQQuJ.s 			page 161


     /tmp/cc3JQQuJ.s:1617   .text.lv_obj_get_content_coords:0000000000000000 $t
     /tmp/cc3JQQuJ.s:1624   .text.lv_obj_get_content_coords:0000000000000000 lv_obj_get_content_coords
     /tmp/cc3JQQuJ.s:1732   .text.lv_obj_get_self_width:0000000000000000 $t
     /tmp/cc3JQQuJ.s:1739   .text.lv_obj_get_self_width:0000000000000000 lv_obj_get_self_width
     /tmp/cc3JQQuJ.s:1774   .text.calc_content_width:0000000000000000 $t
     /tmp/cc3JQQuJ.s:1780   .text.calc_content_width:0000000000000000 calc_content_width
     /tmp/cc3JQQuJ.s:1909   .text.calc_content_width:0000000000000090 $d
     /tmp/cc3JQQuJ.s:2055   .text.calc_content_width:0000000000000144 $d
     /tmp/cc3JQQuJ.s:2063   .text.calc_content_width:000000000000014c $t
     /tmp/cc3JQQuJ.s:2195   .text.calc_content_width:00000000000001ec $d
     /tmp/cc3JQQuJ.s:2201   .text.lv_obj_get_self_height:0000000000000000 $t
     /tmp/cc3JQQuJ.s:2208   .text.lv_obj_get_self_height:0000000000000000 lv_obj_get_self_height
     /tmp/cc3JQQuJ.s:2243   .text.calc_content_height:0000000000000000 $t
     /tmp/cc3JQQuJ.s:2249   .text.calc_content_height:0000000000000000 calc_content_height
     /tmp/cc3JQQuJ.s:2482   .text.calc_content_height:0000000000000110 $d
     /tmp/cc3JQQuJ.s:2488   .text.lv_obj_refresh_self_size:0000000000000000 $t
     /tmp/cc3JQQuJ.s:2495   .text.lv_obj_refresh_self_size:0000000000000000 lv_obj_refresh_self_size
     /tmp/cc3JQQuJ.s:2559   .text.lv_obj_move_children_by:0000000000000000 $t
     /tmp/cc3JQQuJ.s:2566   .text.lv_obj_move_children_by:0000000000000000 lv_obj_move_children_by
     /tmp/cc3JQQuJ.s:2659   .text.lv_obj_transform_point:0000000000000000 $t
     /tmp/cc3JQQuJ.s:2666   .text.lv_obj_transform_point:0000000000000000 lv_obj_transform_point
     /tmp/cc3JQQuJ.s:2776   .text.lv_obj_get_transformed_area:0000000000000000 $t
     /tmp/cc3JQQuJ.s:2783   .text.lv_obj_get_transformed_area:0000000000000000 lv_obj_get_transformed_area
     /tmp/cc3JQQuJ.s:2924   .text.lv_obj_area_is_visible:0000000000000000 $t
     /tmp/cc3JQQuJ.s:2931   .text.lv_obj_area_is_visible:0000000000000000 lv_obj_area_is_visible
     /tmp/cc3JQQuJ.s:3140   .text.lv_obj_invalidate_area:0000000000000000 $t
     /tmp/cc3JQQuJ.s:3147   .text.lv_obj_invalidate_area:0000000000000000 lv_obj_invalidate_area
     /tmp/cc3JQQuJ.s:3220   .text.lv_obj_invalidate:0000000000000000 $t
     /tmp/cc3JQQuJ.s:3227   .text.lv_obj_invalidate:0000000000000000 lv_obj_invalidate
     /tmp/cc3JQQuJ.s:3289   .text.lv_obj_move_to:0000000000000000 $t
     /tmp/cc3JQQuJ.s:3296   .text.lv_obj_move_to:0000000000000000 lv_obj_move_to
     /tmp/cc3JQQuJ.s:3555   .text.lv_obj_refr_pos:0000000000000000 $t
     /tmp/cc3JQQuJ.s:3562   .text.lv_obj_refr_pos:0000000000000000 lv_obj_refr_pos
     /tmp/cc3JQQuJ.s:3757   .text.lv_obj_refr_pos:00000000000000d4 $d
     /tmp/cc3JQQuJ.s:3766   .text.lv_obj_refr_pos:00000000000000e4 $t
     /tmp/cc3JQQuJ.s:4140   .text.lv_obj_refr_pos:000000000000032c $d
     /tmp/cc3JQQuJ.s:4145   .text.lv_obj_is_visible:0000000000000000 $t
     /tmp/cc3JQQuJ.s:4152   .text.lv_obj_is_visible:0000000000000000 lv_obj_is_visible
     /tmp/cc3JQQuJ.s:4214   .text.lv_obj_set_ext_click_area:0000000000000000 $t
     /tmp/cc3JQQuJ.s:4221   .text.lv_obj_set_ext_click_area:0000000000000000 lv_obj_set_ext_click_area
     /tmp/cc3JQQuJ.s:4249   .text.lv_obj_get_click_area:0000000000000000 $t
     /tmp/cc3JQQuJ.s:4256   .text.lv_obj_get_click_area:0000000000000000 lv_obj_get_click_area
     /tmp/cc3JQQuJ.s:4323   .text.lv_obj_hit_test:0000000000000000 $t
     /tmp/cc3JQQuJ.s:4330   .text.lv_obj_hit_test:0000000000000000 lv_obj_hit_test
     /tmp/cc3JQQuJ.s:4421   .text.lv_clamp_width:0000000000000000 $t
     /tmp/cc3JQQuJ.s:4428   .text.lv_clamp_width:0000000000000000 lv_clamp_width
     /tmp/cc3JQQuJ.s:4517   .text.lv_clamp_width:0000000000000078 $d
     /tmp/cc3JQQuJ.s:4522   .text.lv_clamp_height:0000000000000000 $t
     /tmp/cc3JQQuJ.s:4529   .text.lv_clamp_height:0000000000000000 lv_clamp_height
     /tmp/cc3JQQuJ.s:4618   .text.lv_clamp_height:0000000000000078 $d
     /tmp/cc3JQQuJ.s:4623   .text.lv_obj_refr_size:0000000000000000 $t
     /tmp/cc3JQQuJ.s:4630   .text.lv_obj_refr_size:0000000000000000 lv_obj_refr_size
     /tmp/cc3JQQuJ.s:5294   .text.lv_obj_refr_size:0000000000000344 $d
     /tmp/cc3JQQuJ.s:5299   .text.layout_update_core:0000000000000000 $t
     /tmp/cc3JQQuJ.s:5305   .text.layout_update_core:0000000000000000 layout_update_core
     /tmp/cc3JQQuJ.s:5414   .text.layout_update_core:000000000000007c $d
     /tmp/cc3JQQuJ.s:5422   .text.lv_obj_update_layout:0000000000000000 $t
ARM GAS  /tmp/cc3JQQuJ.s 			page 162


     /tmp/cc3JQQuJ.s:5429   .text.lv_obj_update_layout:0000000000000000 lv_obj_update_layout
     /tmp/cc3JQQuJ.s:5484   .text.lv_obj_update_layout:000000000000003c $d
     /tmp/cc3JQQuJ.s:5489   .text.lv_obj_align_to:0000000000000000 $t
     /tmp/cc3JQQuJ.s:5496   .text.lv_obj_align_to:0000000000000000 lv_obj_align_to
     /tmp/cc3JQQuJ.s:5631   .text.lv_obj_align_to:0000000000000098 $d
     /tmp/cc3JQQuJ.s:5653   .text.lv_obj_align_to:00000000000000c2 $t
     /tmp/cc3JQQuJ.s:6418   .bss.layout_cnt:0000000000000000 $d
     /tmp/cc3JQQuJ.s:6422   .bss.layout_cnt:0000000000000000 layout_cnt
     /tmp/cc3JQQuJ.s:6428   .bss.mutex.10348:0000000000000000 mutex.10348
     /tmp/cc3JQQuJ.s:6429   .bss.mutex.10348:0000000000000000 $d
     /tmp/cc3JQQuJ.s:1918   .text.calc_content_width:0000000000000099 $d
     /tmp/cc3JQQuJ.s:1918   .text.calc_content_width:000000000000009a $t

UNDEFINED SYMBOLS
lv_obj_get_style_prop
lv_point_transform
lv_obj_get_local_style_prop
lv_obj_set_style_x
lv_obj_set_style_y
lv_obj_set_style_width
lv_obj_set_style_height
lv_obj_has_flag_any
lv_obj_get_parent
lv_obj_get_screen
lv_obj_get_disp
lv_timer_resume
lv_obj_set_style_layout
lv_mem_realloc
_lv_layout_list
lv_obj_set_style_align
lv_obj_get_scroll_x
lv_obj_get_scroll_y
lv_area_increase
lv_event_send
lv_obj_scroll_to_x
lv_obj_get_child_cnt
lv_obj_scroll_to_y
lv_obj_has_flag
_lv_obj_get_layer_type
lv_disp_get_scr_act
lv_disp_get_scr_prev
lv_disp_get_layer_top
lv_disp_get_layer_sys
_lv_obj_get_ext_draw_size
_lv_area_intersect
lv_disp_is_invalidation_enabled
_lv_inv_area
_lv_area_is_in
lv_obj_scrollbar_invalidate
lv_obj_allocate_spec_attr
lv_obj_has_state
_lv_area_is_point_on
lv_obj_get_scroll_left
lv_obj_get_scroll_top
lv_obj_readjust_scroll
lv_obj_refresh_ext_draw_size
lv_obj_scroll_to
ARM GAS  /tmp/cc3JQQuJ.s 			page 163


lv_obj_get_scroll_right
