ARM GAS  /tmp/cc3JQQuJ.s 			page 1


   1              		.cpu cortex-m7
   2              		.eabi_attribute 28, 1
   3              		.eabi_attribute 20, 1
   4              		.eabi_attribute 21, 1
   5              		.eabi_attribute 23, 3
   6              		.eabi_attribute 24, 1
   7              		.eabi_attribute 25, 1
   8              		.eabi_attribute 26, 1
   9              		.eabi_attribute 30, 1
  10              		.eabi_attribute 34, 1
  11              		.eabi_attribute 18, 4
  12              		.file	"lv_obj_pos.c"
  13              		.text
  14              	.Ltext0:
  15              		.cfi_sections	.debug_frame
  16              		.section	.text.transform_point,"ax",%progbits
  17              		.align	1
  18              		.syntax unified
  19              		.thumb
  20              		.thumb_func
  21              		.fpu fpv5-d16
  23              	transform_point:
  24              	.LFB214:
  25              		.file 1 "Drivers/lvgl/lvgl/src/core/lv_obj_pos.c"
   1:Drivers/lvgl/lvgl/src/core/lv_obj_pos.c **** /**
   2:Drivers/lvgl/lvgl/src/core/lv_obj_pos.c ****  * @file lv_obj_pos.c
   3:Drivers/lvgl/lvgl/src/core/lv_obj_pos.c ****  *
   4:Drivers/lvgl/lvgl/src/core/lv_obj_pos.c ****  */
   5:Drivers/lvgl/lvgl/src/core/lv_obj_pos.c **** 
   6:Drivers/lvgl/lvgl/src/core/lv_obj_pos.c **** /*********************
   7:Drivers/lvgl/lvgl/src/core/lv_obj_pos.c ****  *      INCLUDES
   8:Drivers/lvgl/lvgl/src/core/lv_obj_pos.c ****  *********************/
   9:Drivers/lvgl/lvgl/src/core/lv_obj_pos.c **** #include "lv_obj.h"
  10:Drivers/lvgl/lvgl/src/core/lv_obj_pos.c **** #include "lv_disp.h"
  11:Drivers/lvgl/lvgl/src/core/lv_obj_pos.c **** #include "lv_refr.h"
  12:Drivers/lvgl/lvgl/src/core/lv_obj_pos.c **** #include "../misc/lv_gc.h"
  13:Drivers/lvgl/lvgl/src/core/lv_obj_pos.c **** 
  14:Drivers/lvgl/lvgl/src/core/lv_obj_pos.c **** /*********************
  15:Drivers/lvgl/lvgl/src/core/lv_obj_pos.c ****  *      DEFINES
  16:Drivers/lvgl/lvgl/src/core/lv_obj_pos.c ****  *********************/
  17:Drivers/lvgl/lvgl/src/core/lv_obj_pos.c **** #define MY_CLASS &lv_obj_class
  18:Drivers/lvgl/lvgl/src/core/lv_obj_pos.c **** 
  19:Drivers/lvgl/lvgl/src/core/lv_obj_pos.c **** /**********************
  20:Drivers/lvgl/lvgl/src/core/lv_obj_pos.c ****  *      TYPEDEFS
  21:Drivers/lvgl/lvgl/src/core/lv_obj_pos.c ****  **********************/
  22:Drivers/lvgl/lvgl/src/core/lv_obj_pos.c **** 
  23:Drivers/lvgl/lvgl/src/core/lv_obj_pos.c **** /**********************
  24:Drivers/lvgl/lvgl/src/core/lv_obj_pos.c ****  *  STATIC PROTOTYPES
  25:Drivers/lvgl/lvgl/src/core/lv_obj_pos.c ****  **********************/
  26:Drivers/lvgl/lvgl/src/core/lv_obj_pos.c **** static lv_coord_t calc_content_width(lv_obj_t * obj);
  27:Drivers/lvgl/lvgl/src/core/lv_obj_pos.c **** static lv_coord_t calc_content_height(lv_obj_t * obj);
  28:Drivers/lvgl/lvgl/src/core/lv_obj_pos.c **** static void layout_update_core(lv_obj_t * obj);
  29:Drivers/lvgl/lvgl/src/core/lv_obj_pos.c **** static void transform_point(const lv_obj_t * obj, lv_point_t * p, bool inv);
  30:Drivers/lvgl/lvgl/src/core/lv_obj_pos.c **** 
  31:Drivers/lvgl/lvgl/src/core/lv_obj_pos.c **** /**********************
  32:Drivers/lvgl/lvgl/src/core/lv_obj_pos.c ****  *  STATIC VARIABLES
  33:Drivers/lvgl/lvgl/src/core/lv_obj_pos.c ****  **********************/
ARM GAS  /tmp/cc3JQQuJ.s 			page 2


  34:Drivers/lvgl/lvgl/src/core/lv_obj_pos.c **** static uint32_t layout_cnt;
  35:Drivers/lvgl/lvgl/src/core/lv_obj_pos.c **** 
  36:Drivers/lvgl/lvgl/src/core/lv_obj_pos.c **** /**********************
  37:Drivers/lvgl/lvgl/src/core/lv_obj_pos.c ****  *      MACROS
  38:Drivers/lvgl/lvgl/src/core/lv_obj_pos.c ****  **********************/
  39:Drivers/lvgl/lvgl/src/core/lv_obj_pos.c **** 
  40:Drivers/lvgl/lvgl/src/core/lv_obj_pos.c **** /**********************
  41:Drivers/lvgl/lvgl/src/core/lv_obj_pos.c ****  *   GLOBAL FUNCTIONS
  42:Drivers/lvgl/lvgl/src/core/lv_obj_pos.c ****  **********************/
  43:Drivers/lvgl/lvgl/src/core/lv_obj_pos.c **** 
  44:Drivers/lvgl/lvgl/src/core/lv_obj_pos.c **** void lv_obj_set_pos(lv_obj_t * obj, lv_coord_t x, lv_coord_t y)
  45:Drivers/lvgl/lvgl/src/core/lv_obj_pos.c **** {
  46:Drivers/lvgl/lvgl/src/core/lv_obj_pos.c ****     LV_ASSERT_OBJ(obj, MY_CLASS);
  47:Drivers/lvgl/lvgl/src/core/lv_obj_pos.c **** 
  48:Drivers/lvgl/lvgl/src/core/lv_obj_pos.c ****     lv_obj_set_x(obj, x);
  49:Drivers/lvgl/lvgl/src/core/lv_obj_pos.c ****     lv_obj_set_y(obj, y);
  50:Drivers/lvgl/lvgl/src/core/lv_obj_pos.c **** }
  51:Drivers/lvgl/lvgl/src/core/lv_obj_pos.c **** 
  52:Drivers/lvgl/lvgl/src/core/lv_obj_pos.c **** void lv_obj_set_x(lv_obj_t * obj, lv_coord_t x)
  53:Drivers/lvgl/lvgl/src/core/lv_obj_pos.c **** {
  54:Drivers/lvgl/lvgl/src/core/lv_obj_pos.c ****     LV_ASSERT_OBJ(obj, MY_CLASS);
  55:Drivers/lvgl/lvgl/src/core/lv_obj_pos.c **** 
  56:Drivers/lvgl/lvgl/src/core/lv_obj_pos.c ****     lv_res_t res_x;
  57:Drivers/lvgl/lvgl/src/core/lv_obj_pos.c ****     lv_style_value_t v_x;
  58:Drivers/lvgl/lvgl/src/core/lv_obj_pos.c **** 
  59:Drivers/lvgl/lvgl/src/core/lv_obj_pos.c ****     res_x = lv_obj_get_local_style_prop(obj, LV_STYLE_X, &v_x, 0);
  60:Drivers/lvgl/lvgl/src/core/lv_obj_pos.c **** 
  61:Drivers/lvgl/lvgl/src/core/lv_obj_pos.c ****     if((res_x == LV_RES_OK && v_x.num != x) || res_x == LV_RES_INV) {
  62:Drivers/lvgl/lvgl/src/core/lv_obj_pos.c ****         lv_obj_set_style_x(obj, x, 0);
  63:Drivers/lvgl/lvgl/src/core/lv_obj_pos.c ****     }
  64:Drivers/lvgl/lvgl/src/core/lv_obj_pos.c **** }
  65:Drivers/lvgl/lvgl/src/core/lv_obj_pos.c **** 
  66:Drivers/lvgl/lvgl/src/core/lv_obj_pos.c **** void lv_obj_set_y(lv_obj_t * obj, lv_coord_t y)
  67:Drivers/lvgl/lvgl/src/core/lv_obj_pos.c **** {
  68:Drivers/lvgl/lvgl/src/core/lv_obj_pos.c ****     LV_ASSERT_OBJ(obj, MY_CLASS);
  69:Drivers/lvgl/lvgl/src/core/lv_obj_pos.c **** 
  70:Drivers/lvgl/lvgl/src/core/lv_obj_pos.c ****     lv_res_t res_y;
  71:Drivers/lvgl/lvgl/src/core/lv_obj_pos.c ****     lv_style_value_t v_y;
  72:Drivers/lvgl/lvgl/src/core/lv_obj_pos.c **** 
  73:Drivers/lvgl/lvgl/src/core/lv_obj_pos.c ****     res_y = lv_obj_get_local_style_prop(obj, LV_STYLE_Y, &v_y, 0);
  74:Drivers/lvgl/lvgl/src/core/lv_obj_pos.c **** 
  75:Drivers/lvgl/lvgl/src/core/lv_obj_pos.c ****     if((res_y == LV_RES_OK && v_y.num != y) || res_y == LV_RES_INV) {
  76:Drivers/lvgl/lvgl/src/core/lv_obj_pos.c ****         lv_obj_set_style_y(obj, y, 0);
  77:Drivers/lvgl/lvgl/src/core/lv_obj_pos.c ****     }
  78:Drivers/lvgl/lvgl/src/core/lv_obj_pos.c **** }
  79:Drivers/lvgl/lvgl/src/core/lv_obj_pos.c **** 
  80:Drivers/lvgl/lvgl/src/core/lv_obj_pos.c **** bool lv_obj_refr_size(lv_obj_t * obj)
  81:Drivers/lvgl/lvgl/src/core/lv_obj_pos.c **** {
  82:Drivers/lvgl/lvgl/src/core/lv_obj_pos.c ****     LV_ASSERT_OBJ(obj, MY_CLASS);
  83:Drivers/lvgl/lvgl/src/core/lv_obj_pos.c **** 
  84:Drivers/lvgl/lvgl/src/core/lv_obj_pos.c ****     /*If the width or height is set by a layout do not modify them*/
  85:Drivers/lvgl/lvgl/src/core/lv_obj_pos.c ****     if(obj->w_layout && obj->h_layout) return false;
  86:Drivers/lvgl/lvgl/src/core/lv_obj_pos.c **** 
  87:Drivers/lvgl/lvgl/src/core/lv_obj_pos.c ****     lv_obj_t * parent = lv_obj_get_parent(obj);
  88:Drivers/lvgl/lvgl/src/core/lv_obj_pos.c ****     if(parent == NULL) return false;
  89:Drivers/lvgl/lvgl/src/core/lv_obj_pos.c **** 
  90:Drivers/lvgl/lvgl/src/core/lv_obj_pos.c ****     lv_coord_t sl_ori = lv_obj_get_scroll_left(obj);
ARM GAS  /tmp/cc3JQQuJ.s 			page 3


  91:Drivers/lvgl/lvgl/src/core/lv_obj_pos.c ****     bool w_is_content = false;
  92:Drivers/lvgl/lvgl/src/core/lv_obj_pos.c ****     bool w_is_pct = false;
  93:Drivers/lvgl/lvgl/src/core/lv_obj_pos.c **** 
  94:Drivers/lvgl/lvgl/src/core/lv_obj_pos.c ****     lv_coord_t w;
  95:Drivers/lvgl/lvgl/src/core/lv_obj_pos.c ****     if(obj->w_layout) {
  96:Drivers/lvgl/lvgl/src/core/lv_obj_pos.c ****         w = lv_obj_get_width(obj);
  97:Drivers/lvgl/lvgl/src/core/lv_obj_pos.c ****     }
  98:Drivers/lvgl/lvgl/src/core/lv_obj_pos.c ****     else {
  99:Drivers/lvgl/lvgl/src/core/lv_obj_pos.c ****         w = lv_obj_get_style_width(obj, LV_PART_MAIN);
 100:Drivers/lvgl/lvgl/src/core/lv_obj_pos.c ****         w_is_content = w == LV_SIZE_CONTENT ? true : false;
 101:Drivers/lvgl/lvgl/src/core/lv_obj_pos.c ****         w_is_pct = LV_COORD_IS_PCT(w) ? true : false;
 102:Drivers/lvgl/lvgl/src/core/lv_obj_pos.c ****         lv_coord_t parent_w = lv_obj_get_content_width(parent);
 103:Drivers/lvgl/lvgl/src/core/lv_obj_pos.c **** 
 104:Drivers/lvgl/lvgl/src/core/lv_obj_pos.c ****         if(w_is_content) {
 105:Drivers/lvgl/lvgl/src/core/lv_obj_pos.c ****             w = calc_content_width(obj);
 106:Drivers/lvgl/lvgl/src/core/lv_obj_pos.c ****         }
 107:Drivers/lvgl/lvgl/src/core/lv_obj_pos.c ****         else if(w_is_pct) {
 108:Drivers/lvgl/lvgl/src/core/lv_obj_pos.c ****             /*If parent has content size and the child has pct size
 109:Drivers/lvgl/lvgl/src/core/lv_obj_pos.c ****              *a circular dependency will occur. To solve it keep child size at zero */
 110:Drivers/lvgl/lvgl/src/core/lv_obj_pos.c ****             if(parent->w_layout == 0 && lv_obj_get_style_width(parent, 0) == LV_SIZE_CONTENT) {
 111:Drivers/lvgl/lvgl/src/core/lv_obj_pos.c ****                 lv_coord_t border_w = lv_obj_get_style_border_width(obj, 0);
 112:Drivers/lvgl/lvgl/src/core/lv_obj_pos.c ****                 w = lv_obj_get_style_pad_left(obj, 0) + border_w;
 113:Drivers/lvgl/lvgl/src/core/lv_obj_pos.c ****                 w += lv_obj_get_style_pad_right(obj, 0) + border_w;
 114:Drivers/lvgl/lvgl/src/core/lv_obj_pos.c ****             }
 115:Drivers/lvgl/lvgl/src/core/lv_obj_pos.c ****             else {
 116:Drivers/lvgl/lvgl/src/core/lv_obj_pos.c ****                 w = (LV_COORD_GET_PCT(w) * parent_w) / 100;
 117:Drivers/lvgl/lvgl/src/core/lv_obj_pos.c ****             }
 118:Drivers/lvgl/lvgl/src/core/lv_obj_pos.c ****         }
 119:Drivers/lvgl/lvgl/src/core/lv_obj_pos.c **** 
 120:Drivers/lvgl/lvgl/src/core/lv_obj_pos.c ****         lv_coord_t minw = lv_obj_get_style_min_width(obj, LV_PART_MAIN);
 121:Drivers/lvgl/lvgl/src/core/lv_obj_pos.c ****         lv_coord_t maxw = lv_obj_get_style_max_width(obj, LV_PART_MAIN);
 122:Drivers/lvgl/lvgl/src/core/lv_obj_pos.c ****         w = lv_clamp_width(w, minw, maxw, parent_w);
 123:Drivers/lvgl/lvgl/src/core/lv_obj_pos.c ****     }
 124:Drivers/lvgl/lvgl/src/core/lv_obj_pos.c **** 
 125:Drivers/lvgl/lvgl/src/core/lv_obj_pos.c ****     lv_coord_t st_ori = lv_obj_get_scroll_top(obj);
 126:Drivers/lvgl/lvgl/src/core/lv_obj_pos.c ****     lv_coord_t h;
 127:Drivers/lvgl/lvgl/src/core/lv_obj_pos.c ****     bool h_is_content = false;
 128:Drivers/lvgl/lvgl/src/core/lv_obj_pos.c ****     bool h_is_pct = false;
 129:Drivers/lvgl/lvgl/src/core/lv_obj_pos.c ****     if(obj->h_layout) {
 130:Drivers/lvgl/lvgl/src/core/lv_obj_pos.c ****         h = lv_obj_get_height(obj);
 131:Drivers/lvgl/lvgl/src/core/lv_obj_pos.c ****     }
 132:Drivers/lvgl/lvgl/src/core/lv_obj_pos.c ****     else {
 133:Drivers/lvgl/lvgl/src/core/lv_obj_pos.c ****         h = lv_obj_get_style_height(obj, LV_PART_MAIN);
 134:Drivers/lvgl/lvgl/src/core/lv_obj_pos.c ****         h_is_content = h == LV_SIZE_CONTENT ? true : false;
 135:Drivers/lvgl/lvgl/src/core/lv_obj_pos.c ****         h_is_pct = LV_COORD_IS_PCT(h) ? true : false;
 136:Drivers/lvgl/lvgl/src/core/lv_obj_pos.c ****         lv_coord_t parent_h = lv_obj_get_content_height(parent);
 137:Drivers/lvgl/lvgl/src/core/lv_obj_pos.c **** 
 138:Drivers/lvgl/lvgl/src/core/lv_obj_pos.c ****         if(h_is_content) {
 139:Drivers/lvgl/lvgl/src/core/lv_obj_pos.c ****             h = calc_content_height(obj);
 140:Drivers/lvgl/lvgl/src/core/lv_obj_pos.c ****         }
 141:Drivers/lvgl/lvgl/src/core/lv_obj_pos.c ****         else if(h_is_pct) {
 142:Drivers/lvgl/lvgl/src/core/lv_obj_pos.c ****             /*If parent has content size and the child has pct size
 143:Drivers/lvgl/lvgl/src/core/lv_obj_pos.c ****              *a circular dependency will occur. To solve it keep child size at zero */
 144:Drivers/lvgl/lvgl/src/core/lv_obj_pos.c ****             if(parent->h_layout == 0 && lv_obj_get_style_height(parent, 0) == LV_SIZE_CONTENT) {
 145:Drivers/lvgl/lvgl/src/core/lv_obj_pos.c ****                 lv_coord_t border_w = lv_obj_get_style_border_width(obj, 0);
 146:Drivers/lvgl/lvgl/src/core/lv_obj_pos.c ****                 h = lv_obj_get_style_pad_top(obj, 0) + border_w;
 147:Drivers/lvgl/lvgl/src/core/lv_obj_pos.c ****                 h += lv_obj_get_style_pad_bottom(obj, 0) + border_w;
ARM GAS  /tmp/cc3JQQuJ.s 			page 4


 148:Drivers/lvgl/lvgl/src/core/lv_obj_pos.c ****             }
 149:Drivers/lvgl/lvgl/src/core/lv_obj_pos.c ****             else {
 150:Drivers/lvgl/lvgl/src/core/lv_obj_pos.c ****                 h = (LV_COORD_GET_PCT(h) * parent_h) / 100;
 151:Drivers/lvgl/lvgl/src/core/lv_obj_pos.c ****             }
 152:Drivers/lvgl/lvgl/src/core/lv_obj_pos.c ****         }
 153:Drivers/lvgl/lvgl/src/core/lv_obj_pos.c **** 
 154:Drivers/lvgl/lvgl/src/core/lv_obj_pos.c ****         lv_coord_t minh = lv_obj_get_style_min_height(obj, LV_PART_MAIN);
 155:Drivers/lvgl/lvgl/src/core/lv_obj_pos.c ****         lv_coord_t maxh = lv_obj_get_style_max_height(obj, LV_PART_MAIN);
 156:Drivers/lvgl/lvgl/src/core/lv_obj_pos.c ****         h = lv_clamp_height(h, minh, maxh, parent_h);
 157:Drivers/lvgl/lvgl/src/core/lv_obj_pos.c ****     }
 158:Drivers/lvgl/lvgl/src/core/lv_obj_pos.c **** 
 159:Drivers/lvgl/lvgl/src/core/lv_obj_pos.c ****     /*calc_auto_size set the scroll x/y to 0 so revert the original value*/
 160:Drivers/lvgl/lvgl/src/core/lv_obj_pos.c ****     if(w_is_content || h_is_content) {
 161:Drivers/lvgl/lvgl/src/core/lv_obj_pos.c ****         lv_obj_scroll_to(obj, sl_ori, st_ori, LV_ANIM_OFF);
 162:Drivers/lvgl/lvgl/src/core/lv_obj_pos.c ****     }
 163:Drivers/lvgl/lvgl/src/core/lv_obj_pos.c **** 
 164:Drivers/lvgl/lvgl/src/core/lv_obj_pos.c ****     /*Do nothing if the size is not changed*/
 165:Drivers/lvgl/lvgl/src/core/lv_obj_pos.c ****     /*It is very important else recursive resizing can occur without size change*/
 166:Drivers/lvgl/lvgl/src/core/lv_obj_pos.c ****     if(lv_obj_get_width(obj) == w && lv_obj_get_height(obj) == h) return false;
 167:Drivers/lvgl/lvgl/src/core/lv_obj_pos.c **** 
 168:Drivers/lvgl/lvgl/src/core/lv_obj_pos.c ****     /*Invalidate the original area*/
 169:Drivers/lvgl/lvgl/src/core/lv_obj_pos.c ****     lv_obj_invalidate(obj);
 170:Drivers/lvgl/lvgl/src/core/lv_obj_pos.c **** 
 171:Drivers/lvgl/lvgl/src/core/lv_obj_pos.c ****     /*Save the original coordinates*/
 172:Drivers/lvgl/lvgl/src/core/lv_obj_pos.c ****     lv_area_t ori;
 173:Drivers/lvgl/lvgl/src/core/lv_obj_pos.c ****     lv_obj_get_coords(obj, &ori);
 174:Drivers/lvgl/lvgl/src/core/lv_obj_pos.c **** 
 175:Drivers/lvgl/lvgl/src/core/lv_obj_pos.c ****     /*Check if the object inside the parent or not*/
 176:Drivers/lvgl/lvgl/src/core/lv_obj_pos.c ****     lv_area_t parent_fit_area;
 177:Drivers/lvgl/lvgl/src/core/lv_obj_pos.c ****     lv_obj_get_content_coords(parent, &parent_fit_area);
 178:Drivers/lvgl/lvgl/src/core/lv_obj_pos.c **** 
 179:Drivers/lvgl/lvgl/src/core/lv_obj_pos.c ****     /*If the object is already out of the parent and its position is changes
 180:Drivers/lvgl/lvgl/src/core/lv_obj_pos.c ****      *surely the scrollbars also changes so invalidate them*/
 181:Drivers/lvgl/lvgl/src/core/lv_obj_pos.c ****     bool on1 = _lv_area_is_in(&ori, &parent_fit_area, 0);
 182:Drivers/lvgl/lvgl/src/core/lv_obj_pos.c ****     if(!on1) lv_obj_scrollbar_invalidate(parent);
 183:Drivers/lvgl/lvgl/src/core/lv_obj_pos.c **** 
 184:Drivers/lvgl/lvgl/src/core/lv_obj_pos.c ****     /*Set the length and height
 185:Drivers/lvgl/lvgl/src/core/lv_obj_pos.c ****      *Be sure the content is not scrolled in an invalid position on the new size*/
 186:Drivers/lvgl/lvgl/src/core/lv_obj_pos.c ****     obj->coords.y2 = obj->coords.y1 + h - 1;
 187:Drivers/lvgl/lvgl/src/core/lv_obj_pos.c ****     if(lv_obj_get_style_base_dir(obj, LV_PART_MAIN) == LV_BASE_DIR_RTL) {
 188:Drivers/lvgl/lvgl/src/core/lv_obj_pos.c ****         obj->coords.x1 = obj->coords.x2 - w + 1;
 189:Drivers/lvgl/lvgl/src/core/lv_obj_pos.c ****     }
 190:Drivers/lvgl/lvgl/src/core/lv_obj_pos.c ****     else {
 191:Drivers/lvgl/lvgl/src/core/lv_obj_pos.c ****         obj->coords.x2 = obj->coords.x1 + w - 1;
 192:Drivers/lvgl/lvgl/src/core/lv_obj_pos.c ****     }
 193:Drivers/lvgl/lvgl/src/core/lv_obj_pos.c **** 
 194:Drivers/lvgl/lvgl/src/core/lv_obj_pos.c ****     /*Call the ancestor's event handler to the object with its new coordinates*/
 195:Drivers/lvgl/lvgl/src/core/lv_obj_pos.c ****     lv_event_send(obj, LV_EVENT_SIZE_CHANGED, &ori);
 196:Drivers/lvgl/lvgl/src/core/lv_obj_pos.c **** 
 197:Drivers/lvgl/lvgl/src/core/lv_obj_pos.c ****     /*Call the ancestor's event handler to the parent too*/
 198:Drivers/lvgl/lvgl/src/core/lv_obj_pos.c ****     lv_event_send(parent, LV_EVENT_CHILD_CHANGED, obj);
 199:Drivers/lvgl/lvgl/src/core/lv_obj_pos.c **** 
 200:Drivers/lvgl/lvgl/src/core/lv_obj_pos.c ****     /*Invalidate the new area*/
 201:Drivers/lvgl/lvgl/src/core/lv_obj_pos.c ****     lv_obj_invalidate(obj);
 202:Drivers/lvgl/lvgl/src/core/lv_obj_pos.c **** 
 203:Drivers/lvgl/lvgl/src/core/lv_obj_pos.c ****     lv_obj_readjust_scroll(obj, LV_ANIM_OFF);
 204:Drivers/lvgl/lvgl/src/core/lv_obj_pos.c **** 
ARM GAS  /tmp/cc3JQQuJ.s 			page 5


 205:Drivers/lvgl/lvgl/src/core/lv_obj_pos.c ****     /*If the object was out of the parent invalidate the new scrollbar area too.
 206:Drivers/lvgl/lvgl/src/core/lv_obj_pos.c ****      *If it wasn't out of the parent but out now, also invalidate the scrollbars*/
 207:Drivers/lvgl/lvgl/src/core/lv_obj_pos.c ****     bool on2 = _lv_area_is_in(&obj->coords, &parent_fit_area, 0);
 208:Drivers/lvgl/lvgl/src/core/lv_obj_pos.c ****     if(on1 || (!on1 && on2)) lv_obj_scrollbar_invalidate(parent);
 209:Drivers/lvgl/lvgl/src/core/lv_obj_pos.c **** 
 210:Drivers/lvgl/lvgl/src/core/lv_obj_pos.c ****     lv_obj_refresh_ext_draw_size(obj);
 211:Drivers/lvgl/lvgl/src/core/lv_obj_pos.c **** 
 212:Drivers/lvgl/lvgl/src/core/lv_obj_pos.c ****     return true;
 213:Drivers/lvgl/lvgl/src/core/lv_obj_pos.c **** }
 214:Drivers/lvgl/lvgl/src/core/lv_obj_pos.c **** 
 215:Drivers/lvgl/lvgl/src/core/lv_obj_pos.c **** void lv_obj_set_size(lv_obj_t * obj, lv_coord_t w, lv_coord_t h)
 216:Drivers/lvgl/lvgl/src/core/lv_obj_pos.c **** {
 217:Drivers/lvgl/lvgl/src/core/lv_obj_pos.c ****     LV_ASSERT_OBJ(obj, MY_CLASS);
 218:Drivers/lvgl/lvgl/src/core/lv_obj_pos.c **** 
 219:Drivers/lvgl/lvgl/src/core/lv_obj_pos.c ****     lv_obj_set_width(obj, w);
 220:Drivers/lvgl/lvgl/src/core/lv_obj_pos.c ****     lv_obj_set_height(obj, h);
 221:Drivers/lvgl/lvgl/src/core/lv_obj_pos.c **** }
 222:Drivers/lvgl/lvgl/src/core/lv_obj_pos.c **** 
 223:Drivers/lvgl/lvgl/src/core/lv_obj_pos.c **** void lv_obj_set_width(lv_obj_t * obj, lv_coord_t w)
 224:Drivers/lvgl/lvgl/src/core/lv_obj_pos.c **** {
 225:Drivers/lvgl/lvgl/src/core/lv_obj_pos.c ****     LV_ASSERT_OBJ(obj, MY_CLASS);
 226:Drivers/lvgl/lvgl/src/core/lv_obj_pos.c ****     lv_res_t res_w;
 227:Drivers/lvgl/lvgl/src/core/lv_obj_pos.c ****     lv_style_value_t v_w;
 228:Drivers/lvgl/lvgl/src/core/lv_obj_pos.c **** 
 229:Drivers/lvgl/lvgl/src/core/lv_obj_pos.c ****     res_w = lv_obj_get_local_style_prop(obj, LV_STYLE_WIDTH, &v_w, 0);
 230:Drivers/lvgl/lvgl/src/core/lv_obj_pos.c **** 
 231:Drivers/lvgl/lvgl/src/core/lv_obj_pos.c ****     if((res_w == LV_RES_OK && v_w.num != w) || res_w == LV_RES_INV) {
 232:Drivers/lvgl/lvgl/src/core/lv_obj_pos.c ****         lv_obj_set_style_width(obj, w, 0);
 233:Drivers/lvgl/lvgl/src/core/lv_obj_pos.c ****     }
 234:Drivers/lvgl/lvgl/src/core/lv_obj_pos.c **** }
 235:Drivers/lvgl/lvgl/src/core/lv_obj_pos.c **** 
 236:Drivers/lvgl/lvgl/src/core/lv_obj_pos.c **** void lv_obj_set_height(lv_obj_t * obj, lv_coord_t h)
 237:Drivers/lvgl/lvgl/src/core/lv_obj_pos.c **** {
 238:Drivers/lvgl/lvgl/src/core/lv_obj_pos.c ****     LV_ASSERT_OBJ(obj, MY_CLASS);
 239:Drivers/lvgl/lvgl/src/core/lv_obj_pos.c ****     lv_res_t res_h;
 240:Drivers/lvgl/lvgl/src/core/lv_obj_pos.c ****     lv_style_value_t v_h;
 241:Drivers/lvgl/lvgl/src/core/lv_obj_pos.c **** 
 242:Drivers/lvgl/lvgl/src/core/lv_obj_pos.c ****     res_h = lv_obj_get_local_style_prop(obj, LV_STYLE_HEIGHT, &v_h, 0);
 243:Drivers/lvgl/lvgl/src/core/lv_obj_pos.c **** 
 244:Drivers/lvgl/lvgl/src/core/lv_obj_pos.c ****     if((res_h == LV_RES_OK && v_h.num != h) || res_h == LV_RES_INV) {
 245:Drivers/lvgl/lvgl/src/core/lv_obj_pos.c ****         lv_obj_set_style_height(obj, h, 0);
 246:Drivers/lvgl/lvgl/src/core/lv_obj_pos.c ****     }
 247:Drivers/lvgl/lvgl/src/core/lv_obj_pos.c **** }
 248:Drivers/lvgl/lvgl/src/core/lv_obj_pos.c **** 
 249:Drivers/lvgl/lvgl/src/core/lv_obj_pos.c **** void lv_obj_set_content_width(lv_obj_t * obj, lv_coord_t w)
 250:Drivers/lvgl/lvgl/src/core/lv_obj_pos.c **** {
 251:Drivers/lvgl/lvgl/src/core/lv_obj_pos.c ****     lv_coord_t pleft = lv_obj_get_style_pad_left(obj, LV_PART_MAIN);
 252:Drivers/lvgl/lvgl/src/core/lv_obj_pos.c ****     lv_coord_t pright = lv_obj_get_style_pad_right(obj, LV_PART_MAIN);
 253:Drivers/lvgl/lvgl/src/core/lv_obj_pos.c ****     lv_coord_t border_width = lv_obj_get_style_border_width(obj, LV_PART_MAIN);
 254:Drivers/lvgl/lvgl/src/core/lv_obj_pos.c **** 
 255:Drivers/lvgl/lvgl/src/core/lv_obj_pos.c ****     lv_obj_set_width(obj, w + pleft + pright + 2 * border_width);
 256:Drivers/lvgl/lvgl/src/core/lv_obj_pos.c **** }
 257:Drivers/lvgl/lvgl/src/core/lv_obj_pos.c **** 
 258:Drivers/lvgl/lvgl/src/core/lv_obj_pos.c **** void lv_obj_set_content_height(lv_obj_t * obj, lv_coord_t h)
 259:Drivers/lvgl/lvgl/src/core/lv_obj_pos.c **** {
 260:Drivers/lvgl/lvgl/src/core/lv_obj_pos.c ****     lv_coord_t ptop = lv_obj_get_style_pad_top(obj, LV_PART_MAIN);
 261:Drivers/lvgl/lvgl/src/core/lv_obj_pos.c ****     lv_coord_t pbottom = lv_obj_get_style_pad_bottom(obj, LV_PART_MAIN);
ARM GAS  /tmp/cc3JQQuJ.s 			page 6


 262:Drivers/lvgl/lvgl/src/core/lv_obj_pos.c ****     lv_coord_t border_width = lv_obj_get_style_border_width(obj, LV_PART_MAIN);
 263:Drivers/lvgl/lvgl/src/core/lv_obj_pos.c **** 
 264:Drivers/lvgl/lvgl/src/core/lv_obj_pos.c ****     lv_obj_set_height(obj, h + ptop + pbottom + 2 * border_width);
 265:Drivers/lvgl/lvgl/src/core/lv_obj_pos.c **** }
 266:Drivers/lvgl/lvgl/src/core/lv_obj_pos.c **** 
 267:Drivers/lvgl/lvgl/src/core/lv_obj_pos.c **** void lv_obj_set_layout(lv_obj_t * obj, uint32_t layout)
 268:Drivers/lvgl/lvgl/src/core/lv_obj_pos.c **** {
 269:Drivers/lvgl/lvgl/src/core/lv_obj_pos.c ****     LV_ASSERT_OBJ(obj, MY_CLASS);
 270:Drivers/lvgl/lvgl/src/core/lv_obj_pos.c **** 
 271:Drivers/lvgl/lvgl/src/core/lv_obj_pos.c ****     lv_obj_set_style_layout(obj, layout, 0);
 272:Drivers/lvgl/lvgl/src/core/lv_obj_pos.c **** 
 273:Drivers/lvgl/lvgl/src/core/lv_obj_pos.c ****     lv_obj_mark_layout_as_dirty(obj);
 274:Drivers/lvgl/lvgl/src/core/lv_obj_pos.c **** }
 275:Drivers/lvgl/lvgl/src/core/lv_obj_pos.c **** 
 276:Drivers/lvgl/lvgl/src/core/lv_obj_pos.c **** bool lv_obj_is_layout_positioned(const lv_obj_t * obj)
 277:Drivers/lvgl/lvgl/src/core/lv_obj_pos.c **** {
 278:Drivers/lvgl/lvgl/src/core/lv_obj_pos.c ****     if(lv_obj_has_flag_any(obj, LV_OBJ_FLAG_HIDDEN | LV_OBJ_FLAG_IGNORE_LAYOUT | LV_OBJ_FLAG_FLOATI
 279:Drivers/lvgl/lvgl/src/core/lv_obj_pos.c **** 
 280:Drivers/lvgl/lvgl/src/core/lv_obj_pos.c ****     lv_obj_t * parent = lv_obj_get_parent(obj);
 281:Drivers/lvgl/lvgl/src/core/lv_obj_pos.c ****     if(parent == NULL) return false;
 282:Drivers/lvgl/lvgl/src/core/lv_obj_pos.c **** 
 283:Drivers/lvgl/lvgl/src/core/lv_obj_pos.c ****     uint32_t layout = lv_obj_get_style_layout(parent, LV_PART_MAIN);
 284:Drivers/lvgl/lvgl/src/core/lv_obj_pos.c ****     if(layout) return true;
 285:Drivers/lvgl/lvgl/src/core/lv_obj_pos.c ****     else return false;
 286:Drivers/lvgl/lvgl/src/core/lv_obj_pos.c **** }
 287:Drivers/lvgl/lvgl/src/core/lv_obj_pos.c **** 
 288:Drivers/lvgl/lvgl/src/core/lv_obj_pos.c **** void lv_obj_mark_layout_as_dirty(lv_obj_t * obj)
 289:Drivers/lvgl/lvgl/src/core/lv_obj_pos.c **** {
 290:Drivers/lvgl/lvgl/src/core/lv_obj_pos.c ****     obj->layout_inv = 1;
 291:Drivers/lvgl/lvgl/src/core/lv_obj_pos.c **** 
 292:Drivers/lvgl/lvgl/src/core/lv_obj_pos.c ****     /*Mark the screen as dirty too to mark that there is something to do on this screen*/
 293:Drivers/lvgl/lvgl/src/core/lv_obj_pos.c ****     lv_obj_t * scr = lv_obj_get_screen(obj);
 294:Drivers/lvgl/lvgl/src/core/lv_obj_pos.c ****     scr->scr_layout_inv = 1;
 295:Drivers/lvgl/lvgl/src/core/lv_obj_pos.c **** 
 296:Drivers/lvgl/lvgl/src/core/lv_obj_pos.c ****     /*Make the display refreshing*/
 297:Drivers/lvgl/lvgl/src/core/lv_obj_pos.c ****     lv_disp_t * disp = lv_obj_get_disp(scr);
 298:Drivers/lvgl/lvgl/src/core/lv_obj_pos.c ****     if(disp->refr_timer) lv_timer_resume(disp->refr_timer);
 299:Drivers/lvgl/lvgl/src/core/lv_obj_pos.c **** }
 300:Drivers/lvgl/lvgl/src/core/lv_obj_pos.c **** 
 301:Drivers/lvgl/lvgl/src/core/lv_obj_pos.c **** void lv_obj_update_layout(const lv_obj_t * obj)
 302:Drivers/lvgl/lvgl/src/core/lv_obj_pos.c **** {
 303:Drivers/lvgl/lvgl/src/core/lv_obj_pos.c ****     static bool mutex = false;
 304:Drivers/lvgl/lvgl/src/core/lv_obj_pos.c ****     if(mutex) {
 305:Drivers/lvgl/lvgl/src/core/lv_obj_pos.c ****         LV_LOG_TRACE("Already running, returning");
 306:Drivers/lvgl/lvgl/src/core/lv_obj_pos.c ****         return;
 307:Drivers/lvgl/lvgl/src/core/lv_obj_pos.c ****     }
 308:Drivers/lvgl/lvgl/src/core/lv_obj_pos.c ****     mutex = true;
 309:Drivers/lvgl/lvgl/src/core/lv_obj_pos.c **** 
 310:Drivers/lvgl/lvgl/src/core/lv_obj_pos.c ****     lv_obj_t * scr = lv_obj_get_screen(obj);
 311:Drivers/lvgl/lvgl/src/core/lv_obj_pos.c **** 
 312:Drivers/lvgl/lvgl/src/core/lv_obj_pos.c ****     /*Repeat until there where layout invalidations*/
 313:Drivers/lvgl/lvgl/src/core/lv_obj_pos.c ****     while(scr->scr_layout_inv) {
 314:Drivers/lvgl/lvgl/src/core/lv_obj_pos.c ****         LV_LOG_INFO("Layout update begin");
 315:Drivers/lvgl/lvgl/src/core/lv_obj_pos.c ****         scr->scr_layout_inv = 0;
 316:Drivers/lvgl/lvgl/src/core/lv_obj_pos.c ****         layout_update_core(scr);
 317:Drivers/lvgl/lvgl/src/core/lv_obj_pos.c ****         LV_LOG_TRACE("Layout update end");
 318:Drivers/lvgl/lvgl/src/core/lv_obj_pos.c ****     }
ARM GAS  /tmp/cc3JQQuJ.s 			page 7


 319:Drivers/lvgl/lvgl/src/core/lv_obj_pos.c **** 
 320:Drivers/lvgl/lvgl/src/core/lv_obj_pos.c ****     mutex = false;
 321:Drivers/lvgl/lvgl/src/core/lv_obj_pos.c **** }
 322:Drivers/lvgl/lvgl/src/core/lv_obj_pos.c **** 
 323:Drivers/lvgl/lvgl/src/core/lv_obj_pos.c **** uint32_t lv_layout_register(lv_layout_update_cb_t cb, void * user_data)
 324:Drivers/lvgl/lvgl/src/core/lv_obj_pos.c **** {
 325:Drivers/lvgl/lvgl/src/core/lv_obj_pos.c ****     layout_cnt++;
 326:Drivers/lvgl/lvgl/src/core/lv_obj_pos.c ****     LV_GC_ROOT(_lv_layout_list) = lv_mem_realloc(LV_GC_ROOT(_lv_layout_list), layout_cnt * sizeof(l
 327:Drivers/lvgl/lvgl/src/core/lv_obj_pos.c ****     LV_ASSERT_MALLOC(LV_GC_ROOT(_lv_layout_list));
 328:Drivers/lvgl/lvgl/src/core/lv_obj_pos.c **** 
 329:Drivers/lvgl/lvgl/src/core/lv_obj_pos.c ****     LV_GC_ROOT(_lv_layout_list)[layout_cnt - 1].cb = cb;
 330:Drivers/lvgl/lvgl/src/core/lv_obj_pos.c ****     LV_GC_ROOT(_lv_layout_list)[layout_cnt - 1].user_data = user_data;
 331:Drivers/lvgl/lvgl/src/core/lv_obj_pos.c ****     return layout_cnt;  /*No -1 to skip 0th index*/
 332:Drivers/lvgl/lvgl/src/core/lv_obj_pos.c **** }
 333:Drivers/lvgl/lvgl/src/core/lv_obj_pos.c **** 
 334:Drivers/lvgl/lvgl/src/core/lv_obj_pos.c **** void lv_obj_set_align(lv_obj_t * obj, lv_align_t align)
 335:Drivers/lvgl/lvgl/src/core/lv_obj_pos.c **** {
 336:Drivers/lvgl/lvgl/src/core/lv_obj_pos.c ****     lv_obj_set_style_align(obj, align, 0);
 337:Drivers/lvgl/lvgl/src/core/lv_obj_pos.c **** }
 338:Drivers/lvgl/lvgl/src/core/lv_obj_pos.c **** 
 339:Drivers/lvgl/lvgl/src/core/lv_obj_pos.c **** void lv_obj_align(lv_obj_t * obj, lv_align_t align, lv_coord_t x_ofs, lv_coord_t y_ofs)
 340:Drivers/lvgl/lvgl/src/core/lv_obj_pos.c **** {
 341:Drivers/lvgl/lvgl/src/core/lv_obj_pos.c ****     lv_obj_set_style_align(obj, align, 0);
 342:Drivers/lvgl/lvgl/src/core/lv_obj_pos.c ****     lv_obj_set_pos(obj, x_ofs, y_ofs);
 343:Drivers/lvgl/lvgl/src/core/lv_obj_pos.c **** }
 344:Drivers/lvgl/lvgl/src/core/lv_obj_pos.c **** 
 345:Drivers/lvgl/lvgl/src/core/lv_obj_pos.c **** void lv_obj_align_to(lv_obj_t * obj, const lv_obj_t * base, lv_align_t align, lv_coord_t x_ofs, lv_
 346:Drivers/lvgl/lvgl/src/core/lv_obj_pos.c **** {
 347:Drivers/lvgl/lvgl/src/core/lv_obj_pos.c ****     LV_ASSERT_OBJ(obj, MY_CLASS);
 348:Drivers/lvgl/lvgl/src/core/lv_obj_pos.c **** 
 349:Drivers/lvgl/lvgl/src/core/lv_obj_pos.c ****     lv_obj_update_layout(obj);
 350:Drivers/lvgl/lvgl/src/core/lv_obj_pos.c ****     if(base == NULL) base = lv_obj_get_parent(obj);
 351:Drivers/lvgl/lvgl/src/core/lv_obj_pos.c **** 
 352:Drivers/lvgl/lvgl/src/core/lv_obj_pos.c ****     LV_ASSERT_OBJ(base, MY_CLASS);
 353:Drivers/lvgl/lvgl/src/core/lv_obj_pos.c **** 
 354:Drivers/lvgl/lvgl/src/core/lv_obj_pos.c ****     lv_coord_t x = 0;
 355:Drivers/lvgl/lvgl/src/core/lv_obj_pos.c ****     lv_coord_t y = 0;
 356:Drivers/lvgl/lvgl/src/core/lv_obj_pos.c **** 
 357:Drivers/lvgl/lvgl/src/core/lv_obj_pos.c ****     lv_obj_t * parent = lv_obj_get_parent(obj);
 358:Drivers/lvgl/lvgl/src/core/lv_obj_pos.c ****     lv_coord_t pborder = lv_obj_get_style_border_width(parent, LV_PART_MAIN);
 359:Drivers/lvgl/lvgl/src/core/lv_obj_pos.c ****     lv_coord_t pleft = lv_obj_get_style_pad_left(parent, LV_PART_MAIN) + pborder;
 360:Drivers/lvgl/lvgl/src/core/lv_obj_pos.c ****     lv_coord_t ptop = lv_obj_get_style_pad_top(parent, LV_PART_MAIN) + pborder;
 361:Drivers/lvgl/lvgl/src/core/lv_obj_pos.c **** 
 362:Drivers/lvgl/lvgl/src/core/lv_obj_pos.c ****     lv_coord_t bborder = lv_obj_get_style_border_width(base, LV_PART_MAIN);
 363:Drivers/lvgl/lvgl/src/core/lv_obj_pos.c ****     lv_coord_t bleft = lv_obj_get_style_pad_left(base, LV_PART_MAIN) + bborder;
 364:Drivers/lvgl/lvgl/src/core/lv_obj_pos.c ****     lv_coord_t btop = lv_obj_get_style_pad_top(base, LV_PART_MAIN) + bborder;
 365:Drivers/lvgl/lvgl/src/core/lv_obj_pos.c **** 
 366:Drivers/lvgl/lvgl/src/core/lv_obj_pos.c ****     if(align == LV_ALIGN_DEFAULT) {
 367:Drivers/lvgl/lvgl/src/core/lv_obj_pos.c ****         if(lv_obj_get_style_base_dir(base, LV_PART_MAIN) == LV_BASE_DIR_RTL) align = LV_ALIGN_TOP_R
 368:Drivers/lvgl/lvgl/src/core/lv_obj_pos.c ****         else align = LV_ALIGN_TOP_LEFT;
 369:Drivers/lvgl/lvgl/src/core/lv_obj_pos.c ****     }
 370:Drivers/lvgl/lvgl/src/core/lv_obj_pos.c **** 
 371:Drivers/lvgl/lvgl/src/core/lv_obj_pos.c ****     switch(align) {
 372:Drivers/lvgl/lvgl/src/core/lv_obj_pos.c ****         case LV_ALIGN_CENTER:
 373:Drivers/lvgl/lvgl/src/core/lv_obj_pos.c ****             x = lv_obj_get_content_width(base) / 2 - lv_obj_get_width(obj) / 2 + bleft;
 374:Drivers/lvgl/lvgl/src/core/lv_obj_pos.c ****             y = lv_obj_get_content_height(base) / 2 - lv_obj_get_height(obj) / 2 + btop;
 375:Drivers/lvgl/lvgl/src/core/lv_obj_pos.c ****             break;
ARM GAS  /tmp/cc3JQQuJ.s 			page 8


 376:Drivers/lvgl/lvgl/src/core/lv_obj_pos.c ****         case LV_ALIGN_TOP_LEFT:
 377:Drivers/lvgl/lvgl/src/core/lv_obj_pos.c ****             x = bleft;
 378:Drivers/lvgl/lvgl/src/core/lv_obj_pos.c ****             y = btop;
 379:Drivers/lvgl/lvgl/src/core/lv_obj_pos.c ****             break;
 380:Drivers/lvgl/lvgl/src/core/lv_obj_pos.c ****         case LV_ALIGN_TOP_MID:
 381:Drivers/lvgl/lvgl/src/core/lv_obj_pos.c ****             x = lv_obj_get_content_width(base) / 2 - lv_obj_get_width(obj) / 2 + bleft;
 382:Drivers/lvgl/lvgl/src/core/lv_obj_pos.c ****             y = btop;
 383:Drivers/lvgl/lvgl/src/core/lv_obj_pos.c ****             break;
 384:Drivers/lvgl/lvgl/src/core/lv_obj_pos.c **** 
 385:Drivers/lvgl/lvgl/src/core/lv_obj_pos.c ****         case LV_ALIGN_TOP_RIGHT:
 386:Drivers/lvgl/lvgl/src/core/lv_obj_pos.c ****             x = lv_obj_get_content_width(base) - lv_obj_get_width(obj) + bleft;
 387:Drivers/lvgl/lvgl/src/core/lv_obj_pos.c ****             y = btop;
 388:Drivers/lvgl/lvgl/src/core/lv_obj_pos.c ****             break;
 389:Drivers/lvgl/lvgl/src/core/lv_obj_pos.c **** 
 390:Drivers/lvgl/lvgl/src/core/lv_obj_pos.c ****         case LV_ALIGN_BOTTOM_LEFT:
 391:Drivers/lvgl/lvgl/src/core/lv_obj_pos.c ****             x = bleft;
 392:Drivers/lvgl/lvgl/src/core/lv_obj_pos.c ****             y = lv_obj_get_content_height(base) - lv_obj_get_height(obj) + btop;
 393:Drivers/lvgl/lvgl/src/core/lv_obj_pos.c ****             break;
 394:Drivers/lvgl/lvgl/src/core/lv_obj_pos.c ****         case LV_ALIGN_BOTTOM_MID:
 395:Drivers/lvgl/lvgl/src/core/lv_obj_pos.c ****             x = lv_obj_get_content_width(base) / 2 - lv_obj_get_width(obj) / 2 + bleft;
 396:Drivers/lvgl/lvgl/src/core/lv_obj_pos.c ****             y = lv_obj_get_content_height(base) - lv_obj_get_height(obj) + btop;
 397:Drivers/lvgl/lvgl/src/core/lv_obj_pos.c ****             break;
 398:Drivers/lvgl/lvgl/src/core/lv_obj_pos.c **** 
 399:Drivers/lvgl/lvgl/src/core/lv_obj_pos.c ****         case LV_ALIGN_BOTTOM_RIGHT:
 400:Drivers/lvgl/lvgl/src/core/lv_obj_pos.c ****             x = lv_obj_get_content_width(base) - lv_obj_get_width(obj) + bleft;
 401:Drivers/lvgl/lvgl/src/core/lv_obj_pos.c ****             y = lv_obj_get_content_height(base) - lv_obj_get_height(obj) + btop;
 402:Drivers/lvgl/lvgl/src/core/lv_obj_pos.c ****             break;
 403:Drivers/lvgl/lvgl/src/core/lv_obj_pos.c **** 
 404:Drivers/lvgl/lvgl/src/core/lv_obj_pos.c ****         case LV_ALIGN_LEFT_MID:
 405:Drivers/lvgl/lvgl/src/core/lv_obj_pos.c ****             x = bleft;
 406:Drivers/lvgl/lvgl/src/core/lv_obj_pos.c ****             y = lv_obj_get_content_height(base) / 2 - lv_obj_get_height(obj) / 2 + btop;
 407:Drivers/lvgl/lvgl/src/core/lv_obj_pos.c ****             break;
 408:Drivers/lvgl/lvgl/src/core/lv_obj_pos.c **** 
 409:Drivers/lvgl/lvgl/src/core/lv_obj_pos.c ****         case LV_ALIGN_RIGHT_MID:
 410:Drivers/lvgl/lvgl/src/core/lv_obj_pos.c ****             x = lv_obj_get_content_width(base) - lv_obj_get_width(obj) + bleft;
 411:Drivers/lvgl/lvgl/src/core/lv_obj_pos.c ****             y = lv_obj_get_content_height(base) / 2 - lv_obj_get_height(obj) / 2 + btop;
 412:Drivers/lvgl/lvgl/src/core/lv_obj_pos.c ****             break;
 413:Drivers/lvgl/lvgl/src/core/lv_obj_pos.c **** 
 414:Drivers/lvgl/lvgl/src/core/lv_obj_pos.c ****         case LV_ALIGN_OUT_TOP_LEFT:
 415:Drivers/lvgl/lvgl/src/core/lv_obj_pos.c ****             x = 0;
 416:Drivers/lvgl/lvgl/src/core/lv_obj_pos.c ****             y = -lv_obj_get_height(obj);
 417:Drivers/lvgl/lvgl/src/core/lv_obj_pos.c ****             break;
 418:Drivers/lvgl/lvgl/src/core/lv_obj_pos.c **** 
 419:Drivers/lvgl/lvgl/src/core/lv_obj_pos.c ****         case LV_ALIGN_OUT_TOP_MID:
 420:Drivers/lvgl/lvgl/src/core/lv_obj_pos.c ****             x = lv_obj_get_width(base) / 2 - lv_obj_get_width(obj) / 2;
 421:Drivers/lvgl/lvgl/src/core/lv_obj_pos.c ****             y = -lv_obj_get_height(obj);
 422:Drivers/lvgl/lvgl/src/core/lv_obj_pos.c ****             break;
 423:Drivers/lvgl/lvgl/src/core/lv_obj_pos.c **** 
 424:Drivers/lvgl/lvgl/src/core/lv_obj_pos.c ****         case LV_ALIGN_OUT_TOP_RIGHT:
 425:Drivers/lvgl/lvgl/src/core/lv_obj_pos.c ****             x = lv_obj_get_width(base) - lv_obj_get_width(obj);
 426:Drivers/lvgl/lvgl/src/core/lv_obj_pos.c ****             y = -lv_obj_get_height(obj);
 427:Drivers/lvgl/lvgl/src/core/lv_obj_pos.c ****             break;
 428:Drivers/lvgl/lvgl/src/core/lv_obj_pos.c **** 
 429:Drivers/lvgl/lvgl/src/core/lv_obj_pos.c ****         case LV_ALIGN_OUT_BOTTOM_LEFT:
 430:Drivers/lvgl/lvgl/src/core/lv_obj_pos.c ****             x = 0;
 431:Drivers/lvgl/lvgl/src/core/lv_obj_pos.c ****             y = lv_obj_get_height(base);
 432:Drivers/lvgl/lvgl/src/core/lv_obj_pos.c ****             break;
ARM GAS  /tmp/cc3JQQuJ.s 			page 9


 433:Drivers/lvgl/lvgl/src/core/lv_obj_pos.c **** 
 434:Drivers/lvgl/lvgl/src/core/lv_obj_pos.c ****         case LV_ALIGN_OUT_BOTTOM_MID:
 435:Drivers/lvgl/lvgl/src/core/lv_obj_pos.c ****             x = lv_obj_get_width(base) / 2 - lv_obj_get_width(obj) / 2;
 436:Drivers/lvgl/lvgl/src/core/lv_obj_pos.c ****             y = lv_obj_get_height(base);
 437:Drivers/lvgl/lvgl/src/core/lv_obj_pos.c ****             break;
 438:Drivers/lvgl/lvgl/src/core/lv_obj_pos.c **** 
 439:Drivers/lvgl/lvgl/src/core/lv_obj_pos.c ****         case LV_ALIGN_OUT_BOTTOM_RIGHT:
 440:Drivers/lvgl/lvgl/src/core/lv_obj_pos.c ****             x = lv_obj_get_width(base) - lv_obj_get_width(obj);
 441:Drivers/lvgl/lvgl/src/core/lv_obj_pos.c ****             y = lv_obj_get_height(base);
 442:Drivers/lvgl/lvgl/src/core/lv_obj_pos.c ****             break;
 443:Drivers/lvgl/lvgl/src/core/lv_obj_pos.c **** 
 444:Drivers/lvgl/lvgl/src/core/lv_obj_pos.c ****         case LV_ALIGN_OUT_LEFT_TOP:
 445:Drivers/lvgl/lvgl/src/core/lv_obj_pos.c ****             x = -lv_obj_get_width(obj);
 446:Drivers/lvgl/lvgl/src/core/lv_obj_pos.c ****             y = 0;
 447:Drivers/lvgl/lvgl/src/core/lv_obj_pos.c ****             break;
 448:Drivers/lvgl/lvgl/src/core/lv_obj_pos.c **** 
 449:Drivers/lvgl/lvgl/src/core/lv_obj_pos.c ****         case LV_ALIGN_OUT_LEFT_MID:
 450:Drivers/lvgl/lvgl/src/core/lv_obj_pos.c ****             x = -lv_obj_get_width(obj);
 451:Drivers/lvgl/lvgl/src/core/lv_obj_pos.c ****             y = lv_obj_get_height(base) / 2 - lv_obj_get_height(obj) / 2;
 452:Drivers/lvgl/lvgl/src/core/lv_obj_pos.c ****             break;
 453:Drivers/lvgl/lvgl/src/core/lv_obj_pos.c **** 
 454:Drivers/lvgl/lvgl/src/core/lv_obj_pos.c ****         case LV_ALIGN_OUT_LEFT_BOTTOM:
 455:Drivers/lvgl/lvgl/src/core/lv_obj_pos.c ****             x = -lv_obj_get_width(obj);
 456:Drivers/lvgl/lvgl/src/core/lv_obj_pos.c ****             y = lv_obj_get_height(base) - lv_obj_get_height(obj);
 457:Drivers/lvgl/lvgl/src/core/lv_obj_pos.c ****             break;
 458:Drivers/lvgl/lvgl/src/core/lv_obj_pos.c **** 
 459:Drivers/lvgl/lvgl/src/core/lv_obj_pos.c ****         case LV_ALIGN_OUT_RIGHT_TOP:
 460:Drivers/lvgl/lvgl/src/core/lv_obj_pos.c ****             x = lv_obj_get_width(base);
 461:Drivers/lvgl/lvgl/src/core/lv_obj_pos.c ****             y = 0;
 462:Drivers/lvgl/lvgl/src/core/lv_obj_pos.c ****             break;
 463:Drivers/lvgl/lvgl/src/core/lv_obj_pos.c **** 
 464:Drivers/lvgl/lvgl/src/core/lv_obj_pos.c ****         case LV_ALIGN_OUT_RIGHT_MID:
 465:Drivers/lvgl/lvgl/src/core/lv_obj_pos.c ****             x = lv_obj_get_width(base);
 466:Drivers/lvgl/lvgl/src/core/lv_obj_pos.c ****             y = lv_obj_get_height(base) / 2 - lv_obj_get_height(obj) / 2;
 467:Drivers/lvgl/lvgl/src/core/lv_obj_pos.c ****             break;
 468:Drivers/lvgl/lvgl/src/core/lv_obj_pos.c **** 
 469:Drivers/lvgl/lvgl/src/core/lv_obj_pos.c ****         case LV_ALIGN_OUT_RIGHT_BOTTOM:
 470:Drivers/lvgl/lvgl/src/core/lv_obj_pos.c ****             x = lv_obj_get_width(base);
 471:Drivers/lvgl/lvgl/src/core/lv_obj_pos.c ****             y = lv_obj_get_height(base) - lv_obj_get_height(obj);
 472:Drivers/lvgl/lvgl/src/core/lv_obj_pos.c ****             break;
 473:Drivers/lvgl/lvgl/src/core/lv_obj_pos.c ****     }
 474:Drivers/lvgl/lvgl/src/core/lv_obj_pos.c **** 
 475:Drivers/lvgl/lvgl/src/core/lv_obj_pos.c ****     if(lv_obj_get_style_base_dir(parent, LV_PART_MAIN) == LV_BASE_DIR_RTL) {
 476:Drivers/lvgl/lvgl/src/core/lv_obj_pos.c ****         x += x_ofs + base->coords.x1 - parent->coords.x1 + lv_obj_get_scroll_right(parent) - pleft;
 477:Drivers/lvgl/lvgl/src/core/lv_obj_pos.c ****     }
 478:Drivers/lvgl/lvgl/src/core/lv_obj_pos.c ****     else {
 479:Drivers/lvgl/lvgl/src/core/lv_obj_pos.c ****         x += x_ofs + base->coords.x1 - parent->coords.x1 + lv_obj_get_scroll_left(parent) - pleft;
 480:Drivers/lvgl/lvgl/src/core/lv_obj_pos.c ****     }
 481:Drivers/lvgl/lvgl/src/core/lv_obj_pos.c ****     y += y_ofs + base->coords.y1 - parent->coords.y1 + lv_obj_get_scroll_top(parent) - ptop;
 482:Drivers/lvgl/lvgl/src/core/lv_obj_pos.c ****     lv_obj_set_style_align(obj, LV_ALIGN_TOP_LEFT, 0);
 483:Drivers/lvgl/lvgl/src/core/lv_obj_pos.c ****     lv_obj_set_pos(obj, x, y);
 484:Drivers/lvgl/lvgl/src/core/lv_obj_pos.c **** 
 485:Drivers/lvgl/lvgl/src/core/lv_obj_pos.c **** }
 486:Drivers/lvgl/lvgl/src/core/lv_obj_pos.c **** 
 487:Drivers/lvgl/lvgl/src/core/lv_obj_pos.c **** void lv_obj_get_coords(const lv_obj_t * obj, lv_area_t * coords)
 488:Drivers/lvgl/lvgl/src/core/lv_obj_pos.c **** {
 489:Drivers/lvgl/lvgl/src/core/lv_obj_pos.c ****     LV_ASSERT_OBJ(obj, MY_CLASS);
ARM GAS  /tmp/cc3JQQuJ.s 			page 10


 490:Drivers/lvgl/lvgl/src/core/lv_obj_pos.c **** 
 491:Drivers/lvgl/lvgl/src/core/lv_obj_pos.c ****     lv_area_copy(coords, &obj->coords);
 492:Drivers/lvgl/lvgl/src/core/lv_obj_pos.c **** }
 493:Drivers/lvgl/lvgl/src/core/lv_obj_pos.c **** 
 494:Drivers/lvgl/lvgl/src/core/lv_obj_pos.c **** lv_coord_t lv_obj_get_x(const lv_obj_t * obj)
 495:Drivers/lvgl/lvgl/src/core/lv_obj_pos.c **** {
 496:Drivers/lvgl/lvgl/src/core/lv_obj_pos.c ****     LV_ASSERT_OBJ(obj, MY_CLASS);
 497:Drivers/lvgl/lvgl/src/core/lv_obj_pos.c **** 
 498:Drivers/lvgl/lvgl/src/core/lv_obj_pos.c ****     lv_coord_t rel_x;
 499:Drivers/lvgl/lvgl/src/core/lv_obj_pos.c ****     lv_obj_t * parent = lv_obj_get_parent(obj);
 500:Drivers/lvgl/lvgl/src/core/lv_obj_pos.c ****     if(parent) {
 501:Drivers/lvgl/lvgl/src/core/lv_obj_pos.c ****         rel_x  = obj->coords.x1 - parent->coords.x1;
 502:Drivers/lvgl/lvgl/src/core/lv_obj_pos.c ****         rel_x += lv_obj_get_scroll_x(parent);
 503:Drivers/lvgl/lvgl/src/core/lv_obj_pos.c ****         rel_x -= lv_obj_get_style_pad_left(parent, LV_PART_MAIN);
 504:Drivers/lvgl/lvgl/src/core/lv_obj_pos.c ****         rel_x -= lv_obj_get_style_border_width(parent, LV_PART_MAIN);
 505:Drivers/lvgl/lvgl/src/core/lv_obj_pos.c ****     }
 506:Drivers/lvgl/lvgl/src/core/lv_obj_pos.c ****     else {
 507:Drivers/lvgl/lvgl/src/core/lv_obj_pos.c ****         rel_x = obj->coords.x1;
 508:Drivers/lvgl/lvgl/src/core/lv_obj_pos.c ****     }
 509:Drivers/lvgl/lvgl/src/core/lv_obj_pos.c ****     return rel_x;
 510:Drivers/lvgl/lvgl/src/core/lv_obj_pos.c **** }
 511:Drivers/lvgl/lvgl/src/core/lv_obj_pos.c **** 
 512:Drivers/lvgl/lvgl/src/core/lv_obj_pos.c **** lv_coord_t lv_obj_get_x2(const lv_obj_t * obj)
 513:Drivers/lvgl/lvgl/src/core/lv_obj_pos.c **** {
 514:Drivers/lvgl/lvgl/src/core/lv_obj_pos.c ****     LV_ASSERT_OBJ(obj, MY_CLASS);
 515:Drivers/lvgl/lvgl/src/core/lv_obj_pos.c **** 
 516:Drivers/lvgl/lvgl/src/core/lv_obj_pos.c ****     return lv_obj_get_x(obj) + lv_obj_get_width(obj);
 517:Drivers/lvgl/lvgl/src/core/lv_obj_pos.c **** }
 518:Drivers/lvgl/lvgl/src/core/lv_obj_pos.c **** 
 519:Drivers/lvgl/lvgl/src/core/lv_obj_pos.c **** lv_coord_t lv_obj_get_y(const lv_obj_t * obj)
 520:Drivers/lvgl/lvgl/src/core/lv_obj_pos.c **** {
 521:Drivers/lvgl/lvgl/src/core/lv_obj_pos.c ****     LV_ASSERT_OBJ(obj, MY_CLASS);
 522:Drivers/lvgl/lvgl/src/core/lv_obj_pos.c **** 
 523:Drivers/lvgl/lvgl/src/core/lv_obj_pos.c ****     lv_coord_t rel_y;
 524:Drivers/lvgl/lvgl/src/core/lv_obj_pos.c ****     lv_obj_t * parent = lv_obj_get_parent(obj);
 525:Drivers/lvgl/lvgl/src/core/lv_obj_pos.c ****     if(parent) {
 526:Drivers/lvgl/lvgl/src/core/lv_obj_pos.c ****         rel_y = obj->coords.y1 - parent->coords.y1;
 527:Drivers/lvgl/lvgl/src/core/lv_obj_pos.c ****         rel_y += lv_obj_get_scroll_y(parent);
 528:Drivers/lvgl/lvgl/src/core/lv_obj_pos.c ****         rel_y -= lv_obj_get_style_pad_top(parent, LV_PART_MAIN);
 529:Drivers/lvgl/lvgl/src/core/lv_obj_pos.c ****         rel_y -= lv_obj_get_style_border_width(parent, LV_PART_MAIN);
 530:Drivers/lvgl/lvgl/src/core/lv_obj_pos.c ****     }
 531:Drivers/lvgl/lvgl/src/core/lv_obj_pos.c ****     else {
 532:Drivers/lvgl/lvgl/src/core/lv_obj_pos.c ****         rel_y = obj->coords.y1;
 533:Drivers/lvgl/lvgl/src/core/lv_obj_pos.c ****     }
 534:Drivers/lvgl/lvgl/src/core/lv_obj_pos.c ****     return rel_y;
 535:Drivers/lvgl/lvgl/src/core/lv_obj_pos.c **** }
 536:Drivers/lvgl/lvgl/src/core/lv_obj_pos.c **** 
 537:Drivers/lvgl/lvgl/src/core/lv_obj_pos.c **** lv_coord_t lv_obj_get_y2(const lv_obj_t * obj)
 538:Drivers/lvgl/lvgl/src/core/lv_obj_pos.c **** {
 539:Drivers/lvgl/lvgl/src/core/lv_obj_pos.c ****     LV_ASSERT_OBJ(obj, MY_CLASS);
 540:Drivers/lvgl/lvgl/src/core/lv_obj_pos.c **** 
 541:Drivers/lvgl/lvgl/src/core/lv_obj_pos.c ****     return lv_obj_get_y(obj) + lv_obj_get_height(obj);
 542:Drivers/lvgl/lvgl/src/core/lv_obj_pos.c **** }
 543:Drivers/lvgl/lvgl/src/core/lv_obj_pos.c **** 
 544:Drivers/lvgl/lvgl/src/core/lv_obj_pos.c **** lv_coord_t lv_obj_get_x_aligned(const lv_obj_t * obj)
 545:Drivers/lvgl/lvgl/src/core/lv_obj_pos.c **** {
 546:Drivers/lvgl/lvgl/src/core/lv_obj_pos.c ****     return lv_obj_get_style_x(obj, LV_PART_MAIN);
ARM GAS  /tmp/cc3JQQuJ.s 			page 11


 547:Drivers/lvgl/lvgl/src/core/lv_obj_pos.c **** }
 548:Drivers/lvgl/lvgl/src/core/lv_obj_pos.c **** 
 549:Drivers/lvgl/lvgl/src/core/lv_obj_pos.c **** lv_coord_t lv_obj_get_y_aligned(const lv_obj_t * obj)
 550:Drivers/lvgl/lvgl/src/core/lv_obj_pos.c **** {
 551:Drivers/lvgl/lvgl/src/core/lv_obj_pos.c ****     return lv_obj_get_style_y(obj, LV_PART_MAIN);
 552:Drivers/lvgl/lvgl/src/core/lv_obj_pos.c **** }
 553:Drivers/lvgl/lvgl/src/core/lv_obj_pos.c **** 
 554:Drivers/lvgl/lvgl/src/core/lv_obj_pos.c **** 
 555:Drivers/lvgl/lvgl/src/core/lv_obj_pos.c **** lv_coord_t lv_obj_get_width(const lv_obj_t * obj)
 556:Drivers/lvgl/lvgl/src/core/lv_obj_pos.c **** {
 557:Drivers/lvgl/lvgl/src/core/lv_obj_pos.c ****     LV_ASSERT_OBJ(obj, MY_CLASS);
 558:Drivers/lvgl/lvgl/src/core/lv_obj_pos.c **** 
 559:Drivers/lvgl/lvgl/src/core/lv_obj_pos.c ****     return lv_area_get_width(&obj->coords);
 560:Drivers/lvgl/lvgl/src/core/lv_obj_pos.c **** }
 561:Drivers/lvgl/lvgl/src/core/lv_obj_pos.c **** 
 562:Drivers/lvgl/lvgl/src/core/lv_obj_pos.c **** lv_coord_t lv_obj_get_height(const lv_obj_t * obj)
 563:Drivers/lvgl/lvgl/src/core/lv_obj_pos.c **** {
 564:Drivers/lvgl/lvgl/src/core/lv_obj_pos.c ****     LV_ASSERT_OBJ(obj, MY_CLASS);
 565:Drivers/lvgl/lvgl/src/core/lv_obj_pos.c **** 
 566:Drivers/lvgl/lvgl/src/core/lv_obj_pos.c ****     return lv_area_get_height(&obj->coords);
 567:Drivers/lvgl/lvgl/src/core/lv_obj_pos.c **** }
 568:Drivers/lvgl/lvgl/src/core/lv_obj_pos.c **** 
 569:Drivers/lvgl/lvgl/src/core/lv_obj_pos.c **** lv_coord_t lv_obj_get_content_width(const lv_obj_t * obj)
 570:Drivers/lvgl/lvgl/src/core/lv_obj_pos.c **** {
 571:Drivers/lvgl/lvgl/src/core/lv_obj_pos.c ****     LV_ASSERT_OBJ(obj, MY_CLASS);
 572:Drivers/lvgl/lvgl/src/core/lv_obj_pos.c **** 
 573:Drivers/lvgl/lvgl/src/core/lv_obj_pos.c ****     lv_coord_t left = lv_obj_get_style_pad_left(obj, LV_PART_MAIN);
 574:Drivers/lvgl/lvgl/src/core/lv_obj_pos.c ****     lv_coord_t right = lv_obj_get_style_pad_right(obj, LV_PART_MAIN);
 575:Drivers/lvgl/lvgl/src/core/lv_obj_pos.c ****     lv_coord_t border_width = lv_obj_get_style_border_width(obj, LV_PART_MAIN);
 576:Drivers/lvgl/lvgl/src/core/lv_obj_pos.c **** 
 577:Drivers/lvgl/lvgl/src/core/lv_obj_pos.c ****     return lv_obj_get_width(obj) - left - right - 2 * border_width;
 578:Drivers/lvgl/lvgl/src/core/lv_obj_pos.c **** }
 579:Drivers/lvgl/lvgl/src/core/lv_obj_pos.c **** 
 580:Drivers/lvgl/lvgl/src/core/lv_obj_pos.c **** lv_coord_t lv_obj_get_content_height(const lv_obj_t * obj)
 581:Drivers/lvgl/lvgl/src/core/lv_obj_pos.c **** {
 582:Drivers/lvgl/lvgl/src/core/lv_obj_pos.c ****     LV_ASSERT_OBJ(obj, MY_CLASS);
 583:Drivers/lvgl/lvgl/src/core/lv_obj_pos.c **** 
 584:Drivers/lvgl/lvgl/src/core/lv_obj_pos.c ****     lv_coord_t top = lv_obj_get_style_pad_top(obj, LV_PART_MAIN);
 585:Drivers/lvgl/lvgl/src/core/lv_obj_pos.c ****     lv_coord_t bottom = lv_obj_get_style_pad_bottom(obj, LV_PART_MAIN);
 586:Drivers/lvgl/lvgl/src/core/lv_obj_pos.c ****     lv_coord_t border_width = lv_obj_get_style_border_width(obj, LV_PART_MAIN);
 587:Drivers/lvgl/lvgl/src/core/lv_obj_pos.c **** 
 588:Drivers/lvgl/lvgl/src/core/lv_obj_pos.c ****     return lv_obj_get_height(obj) - top - bottom - 2 * border_width;
 589:Drivers/lvgl/lvgl/src/core/lv_obj_pos.c **** }
 590:Drivers/lvgl/lvgl/src/core/lv_obj_pos.c **** 
 591:Drivers/lvgl/lvgl/src/core/lv_obj_pos.c **** void lv_obj_get_content_coords(const lv_obj_t * obj, lv_area_t * area)
 592:Drivers/lvgl/lvgl/src/core/lv_obj_pos.c **** {
 593:Drivers/lvgl/lvgl/src/core/lv_obj_pos.c ****     LV_ASSERT_OBJ(obj, MY_CLASS);
 594:Drivers/lvgl/lvgl/src/core/lv_obj_pos.c ****     lv_coord_t border_width = lv_obj_get_style_border_width(obj, LV_PART_MAIN);
 595:Drivers/lvgl/lvgl/src/core/lv_obj_pos.c **** 
 596:Drivers/lvgl/lvgl/src/core/lv_obj_pos.c ****     lv_obj_get_coords(obj, area);
 597:Drivers/lvgl/lvgl/src/core/lv_obj_pos.c ****     lv_area_increase(area, -border_width, -border_width);
 598:Drivers/lvgl/lvgl/src/core/lv_obj_pos.c ****     area->x1 += lv_obj_get_style_pad_left(obj, LV_PART_MAIN);
 599:Drivers/lvgl/lvgl/src/core/lv_obj_pos.c ****     area->x2 -= lv_obj_get_style_pad_right(obj, LV_PART_MAIN);
 600:Drivers/lvgl/lvgl/src/core/lv_obj_pos.c ****     area->y1 += lv_obj_get_style_pad_top(obj, LV_PART_MAIN);
 601:Drivers/lvgl/lvgl/src/core/lv_obj_pos.c ****     area->y2 -= lv_obj_get_style_pad_bottom(obj, LV_PART_MAIN);
 602:Drivers/lvgl/lvgl/src/core/lv_obj_pos.c **** 
 603:Drivers/lvgl/lvgl/src/core/lv_obj_pos.c **** }
ARM GAS  /tmp/cc3JQQuJ.s 			page 12


 604:Drivers/lvgl/lvgl/src/core/lv_obj_pos.c **** 
 605:Drivers/lvgl/lvgl/src/core/lv_obj_pos.c **** lv_coord_t lv_obj_get_self_width(const lv_obj_t * obj)
 606:Drivers/lvgl/lvgl/src/core/lv_obj_pos.c **** {
 607:Drivers/lvgl/lvgl/src/core/lv_obj_pos.c ****     lv_point_t p = {0, LV_COORD_MIN};
 608:Drivers/lvgl/lvgl/src/core/lv_obj_pos.c ****     lv_event_send((lv_obj_t *)obj, LV_EVENT_GET_SELF_SIZE, &p);
 609:Drivers/lvgl/lvgl/src/core/lv_obj_pos.c ****     return p.x;
 610:Drivers/lvgl/lvgl/src/core/lv_obj_pos.c **** }
 611:Drivers/lvgl/lvgl/src/core/lv_obj_pos.c **** 
 612:Drivers/lvgl/lvgl/src/core/lv_obj_pos.c **** lv_coord_t lv_obj_get_self_height(const lv_obj_t * obj)
 613:Drivers/lvgl/lvgl/src/core/lv_obj_pos.c **** {
 614:Drivers/lvgl/lvgl/src/core/lv_obj_pos.c ****     lv_point_t p = {LV_COORD_MIN, 0};
 615:Drivers/lvgl/lvgl/src/core/lv_obj_pos.c ****     lv_event_send((lv_obj_t *)obj, LV_EVENT_GET_SELF_SIZE, &p);
 616:Drivers/lvgl/lvgl/src/core/lv_obj_pos.c ****     return p.y;
 617:Drivers/lvgl/lvgl/src/core/lv_obj_pos.c **** }
 618:Drivers/lvgl/lvgl/src/core/lv_obj_pos.c **** 
 619:Drivers/lvgl/lvgl/src/core/lv_obj_pos.c **** bool lv_obj_refresh_self_size(lv_obj_t * obj)
 620:Drivers/lvgl/lvgl/src/core/lv_obj_pos.c **** {
 621:Drivers/lvgl/lvgl/src/core/lv_obj_pos.c ****     lv_coord_t w_set = lv_obj_get_style_width(obj, LV_PART_MAIN);
 622:Drivers/lvgl/lvgl/src/core/lv_obj_pos.c ****     lv_coord_t h_set = lv_obj_get_style_height(obj, LV_PART_MAIN);
 623:Drivers/lvgl/lvgl/src/core/lv_obj_pos.c ****     if(w_set != LV_SIZE_CONTENT && h_set != LV_SIZE_CONTENT) return false;
 624:Drivers/lvgl/lvgl/src/core/lv_obj_pos.c **** 
 625:Drivers/lvgl/lvgl/src/core/lv_obj_pos.c ****     lv_obj_mark_layout_as_dirty(obj);
 626:Drivers/lvgl/lvgl/src/core/lv_obj_pos.c ****     return true;
 627:Drivers/lvgl/lvgl/src/core/lv_obj_pos.c **** }
 628:Drivers/lvgl/lvgl/src/core/lv_obj_pos.c **** 
 629:Drivers/lvgl/lvgl/src/core/lv_obj_pos.c **** void lv_obj_refr_pos(lv_obj_t * obj)
 630:Drivers/lvgl/lvgl/src/core/lv_obj_pos.c **** {
 631:Drivers/lvgl/lvgl/src/core/lv_obj_pos.c ****     if(lv_obj_is_layout_positioned(obj)) return;
 632:Drivers/lvgl/lvgl/src/core/lv_obj_pos.c **** 
 633:Drivers/lvgl/lvgl/src/core/lv_obj_pos.c **** 
 634:Drivers/lvgl/lvgl/src/core/lv_obj_pos.c ****     lv_obj_t * parent = lv_obj_get_parent(obj);
 635:Drivers/lvgl/lvgl/src/core/lv_obj_pos.c ****     lv_coord_t x = lv_obj_get_style_x(obj, LV_PART_MAIN);
 636:Drivers/lvgl/lvgl/src/core/lv_obj_pos.c ****     lv_coord_t y = lv_obj_get_style_y(obj, LV_PART_MAIN);
 637:Drivers/lvgl/lvgl/src/core/lv_obj_pos.c **** 
 638:Drivers/lvgl/lvgl/src/core/lv_obj_pos.c ****     if(parent == NULL) {
 639:Drivers/lvgl/lvgl/src/core/lv_obj_pos.c ****         lv_obj_move_to(obj, x, y);
 640:Drivers/lvgl/lvgl/src/core/lv_obj_pos.c ****         return;
 641:Drivers/lvgl/lvgl/src/core/lv_obj_pos.c ****     }
 642:Drivers/lvgl/lvgl/src/core/lv_obj_pos.c **** 
 643:Drivers/lvgl/lvgl/src/core/lv_obj_pos.c ****     /*Handle percentage value*/
 644:Drivers/lvgl/lvgl/src/core/lv_obj_pos.c ****     lv_coord_t pw = lv_obj_get_content_width(parent);
 645:Drivers/lvgl/lvgl/src/core/lv_obj_pos.c ****     lv_coord_t ph = lv_obj_get_content_height(parent);
 646:Drivers/lvgl/lvgl/src/core/lv_obj_pos.c ****     if(LV_COORD_IS_PCT(x)) x = (pw * LV_COORD_GET_PCT(x)) / 100;
 647:Drivers/lvgl/lvgl/src/core/lv_obj_pos.c ****     if(LV_COORD_IS_PCT(y)) y = (ph * LV_COORD_GET_PCT(y)) / 100;
 648:Drivers/lvgl/lvgl/src/core/lv_obj_pos.c **** 
 649:Drivers/lvgl/lvgl/src/core/lv_obj_pos.c ****     /*Handle percentage value of translate*/
 650:Drivers/lvgl/lvgl/src/core/lv_obj_pos.c ****     lv_coord_t tr_x = lv_obj_get_style_translate_x(obj, LV_PART_MAIN);
 651:Drivers/lvgl/lvgl/src/core/lv_obj_pos.c ****     lv_coord_t tr_y = lv_obj_get_style_translate_y(obj, LV_PART_MAIN);
 652:Drivers/lvgl/lvgl/src/core/lv_obj_pos.c ****     lv_coord_t w = lv_obj_get_width(obj);
 653:Drivers/lvgl/lvgl/src/core/lv_obj_pos.c ****     lv_coord_t h = lv_obj_get_height(obj);
 654:Drivers/lvgl/lvgl/src/core/lv_obj_pos.c ****     if(LV_COORD_IS_PCT(tr_x)) tr_x = (w * LV_COORD_GET_PCT(tr_x)) / 100;
 655:Drivers/lvgl/lvgl/src/core/lv_obj_pos.c ****     if(LV_COORD_IS_PCT(tr_y)) tr_y = (h * LV_COORD_GET_PCT(tr_y)) / 100;
 656:Drivers/lvgl/lvgl/src/core/lv_obj_pos.c **** 
 657:Drivers/lvgl/lvgl/src/core/lv_obj_pos.c ****     /*Use the translation*/
 658:Drivers/lvgl/lvgl/src/core/lv_obj_pos.c ****     x += tr_x;
 659:Drivers/lvgl/lvgl/src/core/lv_obj_pos.c ****     y += tr_y;
 660:Drivers/lvgl/lvgl/src/core/lv_obj_pos.c **** 
ARM GAS  /tmp/cc3JQQuJ.s 			page 13


 661:Drivers/lvgl/lvgl/src/core/lv_obj_pos.c ****     lv_align_t align = lv_obj_get_style_align(obj, LV_PART_MAIN);
 662:Drivers/lvgl/lvgl/src/core/lv_obj_pos.c **** 
 663:Drivers/lvgl/lvgl/src/core/lv_obj_pos.c ****     if(align == LV_ALIGN_DEFAULT) {
 664:Drivers/lvgl/lvgl/src/core/lv_obj_pos.c ****         if(lv_obj_get_style_base_dir(parent, LV_PART_MAIN) == LV_BASE_DIR_RTL) align = LV_ALIGN_TOP
 665:Drivers/lvgl/lvgl/src/core/lv_obj_pos.c ****         else align = LV_ALIGN_TOP_LEFT;
 666:Drivers/lvgl/lvgl/src/core/lv_obj_pos.c ****     }
 667:Drivers/lvgl/lvgl/src/core/lv_obj_pos.c **** 
 668:Drivers/lvgl/lvgl/src/core/lv_obj_pos.c ****     if(align == LV_ALIGN_TOP_LEFT) {
 669:Drivers/lvgl/lvgl/src/core/lv_obj_pos.c ****         lv_obj_move_to(obj, x, y);
 670:Drivers/lvgl/lvgl/src/core/lv_obj_pos.c ****     }
 671:Drivers/lvgl/lvgl/src/core/lv_obj_pos.c ****     else {
 672:Drivers/lvgl/lvgl/src/core/lv_obj_pos.c **** 
 673:Drivers/lvgl/lvgl/src/core/lv_obj_pos.c ****         switch(align) {
 674:Drivers/lvgl/lvgl/src/core/lv_obj_pos.c ****             case LV_ALIGN_TOP_MID:
 675:Drivers/lvgl/lvgl/src/core/lv_obj_pos.c ****                 x += pw / 2 - w / 2;
 676:Drivers/lvgl/lvgl/src/core/lv_obj_pos.c ****                 break;
 677:Drivers/lvgl/lvgl/src/core/lv_obj_pos.c ****             case LV_ALIGN_TOP_RIGHT:
 678:Drivers/lvgl/lvgl/src/core/lv_obj_pos.c ****                 x += pw - w;
 679:Drivers/lvgl/lvgl/src/core/lv_obj_pos.c ****                 break;
 680:Drivers/lvgl/lvgl/src/core/lv_obj_pos.c ****             case LV_ALIGN_LEFT_MID:
 681:Drivers/lvgl/lvgl/src/core/lv_obj_pos.c ****                 y += ph / 2 - h / 2;
 682:Drivers/lvgl/lvgl/src/core/lv_obj_pos.c ****                 break;
 683:Drivers/lvgl/lvgl/src/core/lv_obj_pos.c ****             case LV_ALIGN_BOTTOM_LEFT:
 684:Drivers/lvgl/lvgl/src/core/lv_obj_pos.c ****                 y += ph - h;
 685:Drivers/lvgl/lvgl/src/core/lv_obj_pos.c ****                 break;
 686:Drivers/lvgl/lvgl/src/core/lv_obj_pos.c ****             case LV_ALIGN_BOTTOM_MID:
 687:Drivers/lvgl/lvgl/src/core/lv_obj_pos.c ****                 x += pw / 2 - w / 2;
 688:Drivers/lvgl/lvgl/src/core/lv_obj_pos.c ****                 y += ph - h;
 689:Drivers/lvgl/lvgl/src/core/lv_obj_pos.c ****                 break;
 690:Drivers/lvgl/lvgl/src/core/lv_obj_pos.c ****             case LV_ALIGN_BOTTOM_RIGHT:
 691:Drivers/lvgl/lvgl/src/core/lv_obj_pos.c ****                 x += pw - w;
 692:Drivers/lvgl/lvgl/src/core/lv_obj_pos.c ****                 y += ph - h;
 693:Drivers/lvgl/lvgl/src/core/lv_obj_pos.c ****                 break;
 694:Drivers/lvgl/lvgl/src/core/lv_obj_pos.c ****             case LV_ALIGN_RIGHT_MID:
 695:Drivers/lvgl/lvgl/src/core/lv_obj_pos.c ****                 x += pw - w;
 696:Drivers/lvgl/lvgl/src/core/lv_obj_pos.c ****                 y += ph / 2 - h / 2;
 697:Drivers/lvgl/lvgl/src/core/lv_obj_pos.c ****                 break;
 698:Drivers/lvgl/lvgl/src/core/lv_obj_pos.c ****             case LV_ALIGN_CENTER:
 699:Drivers/lvgl/lvgl/src/core/lv_obj_pos.c ****                 x += pw / 2 - w / 2;
 700:Drivers/lvgl/lvgl/src/core/lv_obj_pos.c ****                 y += ph / 2 - h / 2;
 701:Drivers/lvgl/lvgl/src/core/lv_obj_pos.c ****                 break;
 702:Drivers/lvgl/lvgl/src/core/lv_obj_pos.c ****             default:
 703:Drivers/lvgl/lvgl/src/core/lv_obj_pos.c ****                 break;
 704:Drivers/lvgl/lvgl/src/core/lv_obj_pos.c ****         }
 705:Drivers/lvgl/lvgl/src/core/lv_obj_pos.c ****         lv_obj_move_to(obj, x, y);
 706:Drivers/lvgl/lvgl/src/core/lv_obj_pos.c ****     }
 707:Drivers/lvgl/lvgl/src/core/lv_obj_pos.c **** }
 708:Drivers/lvgl/lvgl/src/core/lv_obj_pos.c **** 
 709:Drivers/lvgl/lvgl/src/core/lv_obj_pos.c **** void lv_obj_move_to(lv_obj_t * obj, lv_coord_t x, lv_coord_t y)
 710:Drivers/lvgl/lvgl/src/core/lv_obj_pos.c **** {
 711:Drivers/lvgl/lvgl/src/core/lv_obj_pos.c ****     /*Convert x and y to absolute coordinates*/
 712:Drivers/lvgl/lvgl/src/core/lv_obj_pos.c ****     lv_obj_t * parent = obj->parent;
 713:Drivers/lvgl/lvgl/src/core/lv_obj_pos.c **** 
 714:Drivers/lvgl/lvgl/src/core/lv_obj_pos.c ****     if(parent) {
 715:Drivers/lvgl/lvgl/src/core/lv_obj_pos.c ****         lv_coord_t pad_left = lv_obj_get_style_pad_left(parent, LV_PART_MAIN);
 716:Drivers/lvgl/lvgl/src/core/lv_obj_pos.c ****         lv_coord_t pad_top = lv_obj_get_style_pad_top(parent, LV_PART_MAIN);
 717:Drivers/lvgl/lvgl/src/core/lv_obj_pos.c **** 
ARM GAS  /tmp/cc3JQQuJ.s 			page 14


 718:Drivers/lvgl/lvgl/src/core/lv_obj_pos.c ****         if(lv_obj_has_flag(obj, LV_OBJ_FLAG_FLOATING)) {
 719:Drivers/lvgl/lvgl/src/core/lv_obj_pos.c ****             x += pad_left + parent->coords.x1;
 720:Drivers/lvgl/lvgl/src/core/lv_obj_pos.c ****             y += pad_top + parent->coords.y1;
 721:Drivers/lvgl/lvgl/src/core/lv_obj_pos.c ****         }
 722:Drivers/lvgl/lvgl/src/core/lv_obj_pos.c ****         else {
 723:Drivers/lvgl/lvgl/src/core/lv_obj_pos.c ****             x += pad_left + parent->coords.x1 - lv_obj_get_scroll_x(parent);
 724:Drivers/lvgl/lvgl/src/core/lv_obj_pos.c ****             y += pad_top + parent->coords.y1 - lv_obj_get_scroll_y(parent);
 725:Drivers/lvgl/lvgl/src/core/lv_obj_pos.c ****         }
 726:Drivers/lvgl/lvgl/src/core/lv_obj_pos.c **** 
 727:Drivers/lvgl/lvgl/src/core/lv_obj_pos.c ****         lv_coord_t border_width = lv_obj_get_style_border_width(parent, LV_PART_MAIN);
 728:Drivers/lvgl/lvgl/src/core/lv_obj_pos.c ****         x += border_width;
 729:Drivers/lvgl/lvgl/src/core/lv_obj_pos.c ****         y += border_width;
 730:Drivers/lvgl/lvgl/src/core/lv_obj_pos.c ****     }
 731:Drivers/lvgl/lvgl/src/core/lv_obj_pos.c **** 
 732:Drivers/lvgl/lvgl/src/core/lv_obj_pos.c ****     /*Calculate and set the movement*/
 733:Drivers/lvgl/lvgl/src/core/lv_obj_pos.c ****     lv_point_t diff;
 734:Drivers/lvgl/lvgl/src/core/lv_obj_pos.c ****     diff.x = x - obj->coords.x1;
 735:Drivers/lvgl/lvgl/src/core/lv_obj_pos.c ****     diff.y = y - obj->coords.y1;
 736:Drivers/lvgl/lvgl/src/core/lv_obj_pos.c **** 
 737:Drivers/lvgl/lvgl/src/core/lv_obj_pos.c ****     /*Do nothing if the position is not changed*/
 738:Drivers/lvgl/lvgl/src/core/lv_obj_pos.c ****     /*It is very important else recursive positioning can
 739:Drivers/lvgl/lvgl/src/core/lv_obj_pos.c ****      *occur without position change*/
 740:Drivers/lvgl/lvgl/src/core/lv_obj_pos.c ****     if(diff.x == 0 && diff.y == 0) return;
 741:Drivers/lvgl/lvgl/src/core/lv_obj_pos.c **** 
 742:Drivers/lvgl/lvgl/src/core/lv_obj_pos.c ****     /*Invalidate the original area*/
 743:Drivers/lvgl/lvgl/src/core/lv_obj_pos.c ****     lv_obj_invalidate(obj);
 744:Drivers/lvgl/lvgl/src/core/lv_obj_pos.c **** 
 745:Drivers/lvgl/lvgl/src/core/lv_obj_pos.c ****     /*Save the original coordinates*/
 746:Drivers/lvgl/lvgl/src/core/lv_obj_pos.c ****     lv_area_t ori;
 747:Drivers/lvgl/lvgl/src/core/lv_obj_pos.c ****     lv_obj_get_coords(obj, &ori);
 748:Drivers/lvgl/lvgl/src/core/lv_obj_pos.c **** 
 749:Drivers/lvgl/lvgl/src/core/lv_obj_pos.c ****     /*Check if the object inside the parent or not*/
 750:Drivers/lvgl/lvgl/src/core/lv_obj_pos.c ****     lv_area_t parent_fit_area;
 751:Drivers/lvgl/lvgl/src/core/lv_obj_pos.c ****     bool on1 = false;
 752:Drivers/lvgl/lvgl/src/core/lv_obj_pos.c ****     if(parent) {
 753:Drivers/lvgl/lvgl/src/core/lv_obj_pos.c ****         lv_obj_get_content_coords(parent, &parent_fit_area);
 754:Drivers/lvgl/lvgl/src/core/lv_obj_pos.c **** 
 755:Drivers/lvgl/lvgl/src/core/lv_obj_pos.c ****         /*If the object is already out of the parent and its position is changes
 756:Drivers/lvgl/lvgl/src/core/lv_obj_pos.c ****          *surely the scrollbars also changes so invalidate them*/
 757:Drivers/lvgl/lvgl/src/core/lv_obj_pos.c ****         on1 = _lv_area_is_in(&ori, &parent_fit_area, 0);
 758:Drivers/lvgl/lvgl/src/core/lv_obj_pos.c ****         if(!on1) lv_obj_scrollbar_invalidate(parent);
 759:Drivers/lvgl/lvgl/src/core/lv_obj_pos.c ****     }
 760:Drivers/lvgl/lvgl/src/core/lv_obj_pos.c **** 
 761:Drivers/lvgl/lvgl/src/core/lv_obj_pos.c ****     obj->coords.x1 += diff.x;
 762:Drivers/lvgl/lvgl/src/core/lv_obj_pos.c ****     obj->coords.y1 += diff.y;
 763:Drivers/lvgl/lvgl/src/core/lv_obj_pos.c ****     obj->coords.x2 += diff.x;
 764:Drivers/lvgl/lvgl/src/core/lv_obj_pos.c ****     obj->coords.y2 += diff.y;
 765:Drivers/lvgl/lvgl/src/core/lv_obj_pos.c **** 
 766:Drivers/lvgl/lvgl/src/core/lv_obj_pos.c ****     lv_obj_move_children_by(obj, diff.x, diff.y, false);
 767:Drivers/lvgl/lvgl/src/core/lv_obj_pos.c **** 
 768:Drivers/lvgl/lvgl/src/core/lv_obj_pos.c ****     /*Call the ancestor's event handler to the parent too*/
 769:Drivers/lvgl/lvgl/src/core/lv_obj_pos.c ****     if(parent) lv_event_send(parent, LV_EVENT_CHILD_CHANGED, obj);
 770:Drivers/lvgl/lvgl/src/core/lv_obj_pos.c **** 
 771:Drivers/lvgl/lvgl/src/core/lv_obj_pos.c ****     /*Invalidate the new area*/
 772:Drivers/lvgl/lvgl/src/core/lv_obj_pos.c ****     lv_obj_invalidate(obj);
 773:Drivers/lvgl/lvgl/src/core/lv_obj_pos.c **** 
 774:Drivers/lvgl/lvgl/src/core/lv_obj_pos.c ****     /*If the object was out of the parent invalidate the new scrollbar area too.
ARM GAS  /tmp/cc3JQQuJ.s 			page 15


 775:Drivers/lvgl/lvgl/src/core/lv_obj_pos.c ****      *If it wasn't out of the parent but out now, also invalidate the srollbars*/
 776:Drivers/lvgl/lvgl/src/core/lv_obj_pos.c ****     if(parent) {
 777:Drivers/lvgl/lvgl/src/core/lv_obj_pos.c ****         bool on2 = _lv_area_is_in(&obj->coords, &parent_fit_area, 0);
 778:Drivers/lvgl/lvgl/src/core/lv_obj_pos.c ****         if(on1 || (!on1 && on2)) lv_obj_scrollbar_invalidate(parent);
 779:Drivers/lvgl/lvgl/src/core/lv_obj_pos.c ****     }
 780:Drivers/lvgl/lvgl/src/core/lv_obj_pos.c **** }
 781:Drivers/lvgl/lvgl/src/core/lv_obj_pos.c **** 
 782:Drivers/lvgl/lvgl/src/core/lv_obj_pos.c **** void lv_obj_move_children_by(lv_obj_t * obj, lv_coord_t x_diff, lv_coord_t y_diff, bool ignore_floa
 783:Drivers/lvgl/lvgl/src/core/lv_obj_pos.c **** {
 784:Drivers/lvgl/lvgl/src/core/lv_obj_pos.c ****     uint32_t i;
 785:Drivers/lvgl/lvgl/src/core/lv_obj_pos.c ****     uint32_t child_cnt = lv_obj_get_child_cnt(obj);
 786:Drivers/lvgl/lvgl/src/core/lv_obj_pos.c ****     for(i = 0; i < child_cnt; i++) {
 787:Drivers/lvgl/lvgl/src/core/lv_obj_pos.c ****         lv_obj_t * child = obj->spec_attr->children[i];
 788:Drivers/lvgl/lvgl/src/core/lv_obj_pos.c ****         if(ignore_floating && lv_obj_has_flag(child, LV_OBJ_FLAG_FLOATING)) continue;
 789:Drivers/lvgl/lvgl/src/core/lv_obj_pos.c ****         child->coords.x1 += x_diff;
 790:Drivers/lvgl/lvgl/src/core/lv_obj_pos.c ****         child->coords.y1 += y_diff;
 791:Drivers/lvgl/lvgl/src/core/lv_obj_pos.c ****         child->coords.x2 += x_diff;
 792:Drivers/lvgl/lvgl/src/core/lv_obj_pos.c ****         child->coords.y2 += y_diff;
 793:Drivers/lvgl/lvgl/src/core/lv_obj_pos.c **** 
 794:Drivers/lvgl/lvgl/src/core/lv_obj_pos.c ****         lv_obj_move_children_by(child, x_diff, y_diff, false);
 795:Drivers/lvgl/lvgl/src/core/lv_obj_pos.c ****     }
 796:Drivers/lvgl/lvgl/src/core/lv_obj_pos.c **** }
 797:Drivers/lvgl/lvgl/src/core/lv_obj_pos.c **** 
 798:Drivers/lvgl/lvgl/src/core/lv_obj_pos.c **** void lv_obj_transform_point(const lv_obj_t * obj, lv_point_t * p, bool recursive, bool inv)
 799:Drivers/lvgl/lvgl/src/core/lv_obj_pos.c **** {
 800:Drivers/lvgl/lvgl/src/core/lv_obj_pos.c ****     if(obj) {
 801:Drivers/lvgl/lvgl/src/core/lv_obj_pos.c ****         lv_layer_type_t layer_type = _lv_obj_get_layer_type(obj);
 802:Drivers/lvgl/lvgl/src/core/lv_obj_pos.c ****         bool do_tranf = layer_type == LV_LAYER_TYPE_TRANSFORM;
 803:Drivers/lvgl/lvgl/src/core/lv_obj_pos.c ****         if(inv) {
 804:Drivers/lvgl/lvgl/src/core/lv_obj_pos.c ****             if(recursive) lv_obj_transform_point(lv_obj_get_parent(obj), p, recursive, inv);
 805:Drivers/lvgl/lvgl/src/core/lv_obj_pos.c ****             if(do_tranf) transform_point(obj, p, inv);
 806:Drivers/lvgl/lvgl/src/core/lv_obj_pos.c ****         }
 807:Drivers/lvgl/lvgl/src/core/lv_obj_pos.c ****         else {
 808:Drivers/lvgl/lvgl/src/core/lv_obj_pos.c ****             if(do_tranf) transform_point(obj, p, inv);
 809:Drivers/lvgl/lvgl/src/core/lv_obj_pos.c ****             if(recursive) lv_obj_transform_point(lv_obj_get_parent(obj), p, recursive, inv);
 810:Drivers/lvgl/lvgl/src/core/lv_obj_pos.c ****         }
 811:Drivers/lvgl/lvgl/src/core/lv_obj_pos.c ****     }
 812:Drivers/lvgl/lvgl/src/core/lv_obj_pos.c **** }
 813:Drivers/lvgl/lvgl/src/core/lv_obj_pos.c **** 
 814:Drivers/lvgl/lvgl/src/core/lv_obj_pos.c **** void lv_obj_get_transformed_area(const lv_obj_t * obj, lv_area_t * area, bool recursive,
 815:Drivers/lvgl/lvgl/src/core/lv_obj_pos.c ****                                  bool inv)
 816:Drivers/lvgl/lvgl/src/core/lv_obj_pos.c **** {
 817:Drivers/lvgl/lvgl/src/core/lv_obj_pos.c ****     lv_point_t p[4] = {
 818:Drivers/lvgl/lvgl/src/core/lv_obj_pos.c ****         {area->x1, area->y1},
 819:Drivers/lvgl/lvgl/src/core/lv_obj_pos.c ****         {area->x1, area->y2},
 820:Drivers/lvgl/lvgl/src/core/lv_obj_pos.c ****         {area->x2, area->y1},
 821:Drivers/lvgl/lvgl/src/core/lv_obj_pos.c ****         {area->x2, area->y2},
 822:Drivers/lvgl/lvgl/src/core/lv_obj_pos.c ****     };
 823:Drivers/lvgl/lvgl/src/core/lv_obj_pos.c **** 
 824:Drivers/lvgl/lvgl/src/core/lv_obj_pos.c ****     lv_obj_transform_point(obj, &p[0], recursive, inv);
 825:Drivers/lvgl/lvgl/src/core/lv_obj_pos.c ****     lv_obj_transform_point(obj, &p[1], recursive, inv);
 826:Drivers/lvgl/lvgl/src/core/lv_obj_pos.c ****     lv_obj_transform_point(obj, &p[2], recursive, inv);
 827:Drivers/lvgl/lvgl/src/core/lv_obj_pos.c ****     lv_obj_transform_point(obj, &p[3], recursive, inv);
 828:Drivers/lvgl/lvgl/src/core/lv_obj_pos.c **** 
 829:Drivers/lvgl/lvgl/src/core/lv_obj_pos.c ****     area->x1 = LV_MIN4(p[0].x, p[1].x, p[2].x, p[3].x);
 830:Drivers/lvgl/lvgl/src/core/lv_obj_pos.c ****     area->x2 = LV_MAX4(p[0].x, p[1].x, p[2].x, p[3].x);
 831:Drivers/lvgl/lvgl/src/core/lv_obj_pos.c ****     area->y1 = LV_MIN4(p[0].y, p[1].y, p[2].y, p[3].y);
ARM GAS  /tmp/cc3JQQuJ.s 			page 16


 832:Drivers/lvgl/lvgl/src/core/lv_obj_pos.c ****     area->y2 = LV_MAX4(p[0].y, p[1].y, p[2].y, p[3].y);
 833:Drivers/lvgl/lvgl/src/core/lv_obj_pos.c ****     lv_area_increase(area, 5, 5);
 834:Drivers/lvgl/lvgl/src/core/lv_obj_pos.c **** }
 835:Drivers/lvgl/lvgl/src/core/lv_obj_pos.c **** 
 836:Drivers/lvgl/lvgl/src/core/lv_obj_pos.c **** 
 837:Drivers/lvgl/lvgl/src/core/lv_obj_pos.c **** void lv_obj_invalidate_area(const lv_obj_t * obj, const lv_area_t * area)
 838:Drivers/lvgl/lvgl/src/core/lv_obj_pos.c **** {
 839:Drivers/lvgl/lvgl/src/core/lv_obj_pos.c ****     LV_ASSERT_OBJ(obj, MY_CLASS);
 840:Drivers/lvgl/lvgl/src/core/lv_obj_pos.c **** 
 841:Drivers/lvgl/lvgl/src/core/lv_obj_pos.c ****     lv_disp_t * disp   = lv_obj_get_disp(obj);
 842:Drivers/lvgl/lvgl/src/core/lv_obj_pos.c ****     if(!lv_disp_is_invalidation_enabled(disp)) return;
 843:Drivers/lvgl/lvgl/src/core/lv_obj_pos.c **** 
 844:Drivers/lvgl/lvgl/src/core/lv_obj_pos.c ****     lv_area_t area_tmp;
 845:Drivers/lvgl/lvgl/src/core/lv_obj_pos.c ****     lv_area_copy(&area_tmp, area);
 846:Drivers/lvgl/lvgl/src/core/lv_obj_pos.c ****     if(!lv_obj_area_is_visible(obj, &area_tmp)) return;
 847:Drivers/lvgl/lvgl/src/core/lv_obj_pos.c **** 
 848:Drivers/lvgl/lvgl/src/core/lv_obj_pos.c ****     _lv_inv_area(lv_obj_get_disp(obj),  &area_tmp);
 849:Drivers/lvgl/lvgl/src/core/lv_obj_pos.c **** }
 850:Drivers/lvgl/lvgl/src/core/lv_obj_pos.c **** 
 851:Drivers/lvgl/lvgl/src/core/lv_obj_pos.c **** void lv_obj_invalidate(const lv_obj_t * obj)
 852:Drivers/lvgl/lvgl/src/core/lv_obj_pos.c **** {
 853:Drivers/lvgl/lvgl/src/core/lv_obj_pos.c ****     LV_ASSERT_OBJ(obj, MY_CLASS);
 854:Drivers/lvgl/lvgl/src/core/lv_obj_pos.c **** 
 855:Drivers/lvgl/lvgl/src/core/lv_obj_pos.c ****     /*Truncate the area to the object*/
 856:Drivers/lvgl/lvgl/src/core/lv_obj_pos.c ****     lv_area_t obj_coords;
 857:Drivers/lvgl/lvgl/src/core/lv_obj_pos.c ****     lv_coord_t ext_size = _lv_obj_get_ext_draw_size(obj);
 858:Drivers/lvgl/lvgl/src/core/lv_obj_pos.c ****     lv_area_copy(&obj_coords, &obj->coords);
 859:Drivers/lvgl/lvgl/src/core/lv_obj_pos.c ****     obj_coords.x1 -= ext_size;
 860:Drivers/lvgl/lvgl/src/core/lv_obj_pos.c ****     obj_coords.y1 -= ext_size;
 861:Drivers/lvgl/lvgl/src/core/lv_obj_pos.c ****     obj_coords.x2 += ext_size;
 862:Drivers/lvgl/lvgl/src/core/lv_obj_pos.c ****     obj_coords.y2 += ext_size;
 863:Drivers/lvgl/lvgl/src/core/lv_obj_pos.c **** 
 864:Drivers/lvgl/lvgl/src/core/lv_obj_pos.c ****     lv_obj_invalidate_area(obj, &obj_coords);
 865:Drivers/lvgl/lvgl/src/core/lv_obj_pos.c **** 
 866:Drivers/lvgl/lvgl/src/core/lv_obj_pos.c **** }
 867:Drivers/lvgl/lvgl/src/core/lv_obj_pos.c **** 
 868:Drivers/lvgl/lvgl/src/core/lv_obj_pos.c **** bool lv_obj_area_is_visible(const lv_obj_t * obj, lv_area_t * area)
 869:Drivers/lvgl/lvgl/src/core/lv_obj_pos.c **** {
 870:Drivers/lvgl/lvgl/src/core/lv_obj_pos.c ****     if(lv_obj_has_flag(obj, LV_OBJ_FLAG_HIDDEN)) return false;
 871:Drivers/lvgl/lvgl/src/core/lv_obj_pos.c **** 
 872:Drivers/lvgl/lvgl/src/core/lv_obj_pos.c ****     /*Invalidate the object only if it belongs to the current or previous or one of the layers'*/
 873:Drivers/lvgl/lvgl/src/core/lv_obj_pos.c ****     lv_obj_t * obj_scr = lv_obj_get_screen(obj);
 874:Drivers/lvgl/lvgl/src/core/lv_obj_pos.c ****     lv_disp_t * disp   = lv_obj_get_disp(obj_scr);
 875:Drivers/lvgl/lvgl/src/core/lv_obj_pos.c ****     if(obj_scr != lv_disp_get_scr_act(disp) &&
 876:Drivers/lvgl/lvgl/src/core/lv_obj_pos.c ****        obj_scr != lv_disp_get_scr_prev(disp) &&
 877:Drivers/lvgl/lvgl/src/core/lv_obj_pos.c ****        obj_scr != lv_disp_get_layer_top(disp) &&
 878:Drivers/lvgl/lvgl/src/core/lv_obj_pos.c ****        obj_scr != lv_disp_get_layer_sys(disp)) {
 879:Drivers/lvgl/lvgl/src/core/lv_obj_pos.c ****         return false;
 880:Drivers/lvgl/lvgl/src/core/lv_obj_pos.c ****     }
 881:Drivers/lvgl/lvgl/src/core/lv_obj_pos.c **** 
 882:Drivers/lvgl/lvgl/src/core/lv_obj_pos.c ****     /*Truncate the area to the object*/
 883:Drivers/lvgl/lvgl/src/core/lv_obj_pos.c ****     if(!lv_obj_has_flag_any(obj, LV_OBJ_FLAG_OVERFLOW_VISIBLE)) {
 884:Drivers/lvgl/lvgl/src/core/lv_obj_pos.c ****         lv_area_t obj_coords;
 885:Drivers/lvgl/lvgl/src/core/lv_obj_pos.c ****         lv_coord_t ext_size = _lv_obj_get_ext_draw_size(obj);
 886:Drivers/lvgl/lvgl/src/core/lv_obj_pos.c ****         lv_area_copy(&obj_coords, &obj->coords);
 887:Drivers/lvgl/lvgl/src/core/lv_obj_pos.c ****         obj_coords.x1 -= ext_size;
 888:Drivers/lvgl/lvgl/src/core/lv_obj_pos.c ****         obj_coords.y1 -= ext_size;
ARM GAS  /tmp/cc3JQQuJ.s 			page 17


 889:Drivers/lvgl/lvgl/src/core/lv_obj_pos.c ****         obj_coords.x2 += ext_size;
 890:Drivers/lvgl/lvgl/src/core/lv_obj_pos.c ****         obj_coords.y2 += ext_size;
 891:Drivers/lvgl/lvgl/src/core/lv_obj_pos.c **** 
 892:Drivers/lvgl/lvgl/src/core/lv_obj_pos.c ****         /*The area is not on the object*/
 893:Drivers/lvgl/lvgl/src/core/lv_obj_pos.c ****         if(!_lv_area_intersect(area, area, &obj_coords)) return false;
 894:Drivers/lvgl/lvgl/src/core/lv_obj_pos.c ****     }
 895:Drivers/lvgl/lvgl/src/core/lv_obj_pos.c **** 
 896:Drivers/lvgl/lvgl/src/core/lv_obj_pos.c ****     lv_obj_get_transformed_area(obj, area, true, false);
 897:Drivers/lvgl/lvgl/src/core/lv_obj_pos.c **** 
 898:Drivers/lvgl/lvgl/src/core/lv_obj_pos.c **** 
 899:Drivers/lvgl/lvgl/src/core/lv_obj_pos.c ****     /*Truncate recursively to the parents*/
 900:Drivers/lvgl/lvgl/src/core/lv_obj_pos.c ****     lv_obj_t * par = lv_obj_get_parent(obj);
 901:Drivers/lvgl/lvgl/src/core/lv_obj_pos.c ****     while(par != NULL) {
 902:Drivers/lvgl/lvgl/src/core/lv_obj_pos.c ****         /*If the parent is hidden then the child is hidden and won't be drawn*/
 903:Drivers/lvgl/lvgl/src/core/lv_obj_pos.c ****         if(lv_obj_has_flag(par, LV_OBJ_FLAG_HIDDEN)) return false;
 904:Drivers/lvgl/lvgl/src/core/lv_obj_pos.c **** 
 905:Drivers/lvgl/lvgl/src/core/lv_obj_pos.c ****         /*Truncate to the parent and if no common parts break*/
 906:Drivers/lvgl/lvgl/src/core/lv_obj_pos.c ****         if(!lv_obj_has_flag_any(par, LV_OBJ_FLAG_OVERFLOW_VISIBLE)) {
 907:Drivers/lvgl/lvgl/src/core/lv_obj_pos.c ****             lv_area_t par_area = par->coords;
 908:Drivers/lvgl/lvgl/src/core/lv_obj_pos.c ****             lv_obj_get_transformed_area(par, &par_area, true, false);
 909:Drivers/lvgl/lvgl/src/core/lv_obj_pos.c ****             if(!_lv_area_intersect(area, area, &par_area)) return false;
 910:Drivers/lvgl/lvgl/src/core/lv_obj_pos.c ****         }
 911:Drivers/lvgl/lvgl/src/core/lv_obj_pos.c **** 
 912:Drivers/lvgl/lvgl/src/core/lv_obj_pos.c ****         par = lv_obj_get_parent(par);
 913:Drivers/lvgl/lvgl/src/core/lv_obj_pos.c ****     }
 914:Drivers/lvgl/lvgl/src/core/lv_obj_pos.c **** 
 915:Drivers/lvgl/lvgl/src/core/lv_obj_pos.c ****     return true;
 916:Drivers/lvgl/lvgl/src/core/lv_obj_pos.c **** }
 917:Drivers/lvgl/lvgl/src/core/lv_obj_pos.c **** 
 918:Drivers/lvgl/lvgl/src/core/lv_obj_pos.c **** bool lv_obj_is_visible(const lv_obj_t * obj)
 919:Drivers/lvgl/lvgl/src/core/lv_obj_pos.c **** {
 920:Drivers/lvgl/lvgl/src/core/lv_obj_pos.c ****     LV_ASSERT_OBJ(obj, MY_CLASS);
 921:Drivers/lvgl/lvgl/src/core/lv_obj_pos.c **** 
 922:Drivers/lvgl/lvgl/src/core/lv_obj_pos.c ****     lv_area_t obj_coords;
 923:Drivers/lvgl/lvgl/src/core/lv_obj_pos.c ****     lv_coord_t ext_size = _lv_obj_get_ext_draw_size(obj);
 924:Drivers/lvgl/lvgl/src/core/lv_obj_pos.c ****     lv_area_copy(&obj_coords, &obj->coords);
 925:Drivers/lvgl/lvgl/src/core/lv_obj_pos.c ****     obj_coords.x1 -= ext_size;
 926:Drivers/lvgl/lvgl/src/core/lv_obj_pos.c ****     obj_coords.y1 -= ext_size;
 927:Drivers/lvgl/lvgl/src/core/lv_obj_pos.c ****     obj_coords.x2 += ext_size;
 928:Drivers/lvgl/lvgl/src/core/lv_obj_pos.c ****     obj_coords.y2 += ext_size;
 929:Drivers/lvgl/lvgl/src/core/lv_obj_pos.c **** 
 930:Drivers/lvgl/lvgl/src/core/lv_obj_pos.c ****     return lv_obj_area_is_visible(obj, &obj_coords);
 931:Drivers/lvgl/lvgl/src/core/lv_obj_pos.c **** 
 932:Drivers/lvgl/lvgl/src/core/lv_obj_pos.c **** }
 933:Drivers/lvgl/lvgl/src/core/lv_obj_pos.c **** 
 934:Drivers/lvgl/lvgl/src/core/lv_obj_pos.c **** void lv_obj_set_ext_click_area(lv_obj_t * obj, lv_coord_t size)
 935:Drivers/lvgl/lvgl/src/core/lv_obj_pos.c **** {
 936:Drivers/lvgl/lvgl/src/core/lv_obj_pos.c ****     LV_ASSERT_OBJ(obj, MY_CLASS);
 937:Drivers/lvgl/lvgl/src/core/lv_obj_pos.c **** 
 938:Drivers/lvgl/lvgl/src/core/lv_obj_pos.c ****     lv_obj_allocate_spec_attr(obj);
 939:Drivers/lvgl/lvgl/src/core/lv_obj_pos.c ****     obj->spec_attr->ext_click_pad = size;
 940:Drivers/lvgl/lvgl/src/core/lv_obj_pos.c **** }
 941:Drivers/lvgl/lvgl/src/core/lv_obj_pos.c **** 
 942:Drivers/lvgl/lvgl/src/core/lv_obj_pos.c **** void lv_obj_get_click_area(const lv_obj_t * obj, lv_area_t * area)
 943:Drivers/lvgl/lvgl/src/core/lv_obj_pos.c **** {
 944:Drivers/lvgl/lvgl/src/core/lv_obj_pos.c ****     lv_area_copy(area, &obj->coords);
 945:Drivers/lvgl/lvgl/src/core/lv_obj_pos.c ****     if(obj->spec_attr) {
ARM GAS  /tmp/cc3JQQuJ.s 			page 18


 946:Drivers/lvgl/lvgl/src/core/lv_obj_pos.c ****         area->x1 -= obj->spec_attr->ext_click_pad;
 947:Drivers/lvgl/lvgl/src/core/lv_obj_pos.c ****         area->x2 += obj->spec_attr->ext_click_pad;
 948:Drivers/lvgl/lvgl/src/core/lv_obj_pos.c ****         area->y1 -= obj->spec_attr->ext_click_pad;
 949:Drivers/lvgl/lvgl/src/core/lv_obj_pos.c ****         area->y2 += obj->spec_attr->ext_click_pad;
 950:Drivers/lvgl/lvgl/src/core/lv_obj_pos.c ****     }
 951:Drivers/lvgl/lvgl/src/core/lv_obj_pos.c **** }
 952:Drivers/lvgl/lvgl/src/core/lv_obj_pos.c **** 
 953:Drivers/lvgl/lvgl/src/core/lv_obj_pos.c **** bool lv_obj_hit_test(lv_obj_t * obj, const lv_point_t * point)
 954:Drivers/lvgl/lvgl/src/core/lv_obj_pos.c **** {
 955:Drivers/lvgl/lvgl/src/core/lv_obj_pos.c ****     if(!lv_obj_has_flag(obj, LV_OBJ_FLAG_CLICKABLE)) return false;
 956:Drivers/lvgl/lvgl/src/core/lv_obj_pos.c ****     if(lv_obj_has_state(obj, LV_STATE_DISABLED)) return false;
 957:Drivers/lvgl/lvgl/src/core/lv_obj_pos.c **** 
 958:Drivers/lvgl/lvgl/src/core/lv_obj_pos.c ****     lv_area_t a;
 959:Drivers/lvgl/lvgl/src/core/lv_obj_pos.c ****     lv_obj_get_click_area(obj, &a);
 960:Drivers/lvgl/lvgl/src/core/lv_obj_pos.c ****     bool res = _lv_area_is_point_on(&a, point, 0);
 961:Drivers/lvgl/lvgl/src/core/lv_obj_pos.c ****     if(res == false) return false;
 962:Drivers/lvgl/lvgl/src/core/lv_obj_pos.c **** 
 963:Drivers/lvgl/lvgl/src/core/lv_obj_pos.c ****     if(lv_obj_has_flag(obj, LV_OBJ_FLAG_ADV_HITTEST)) {
 964:Drivers/lvgl/lvgl/src/core/lv_obj_pos.c ****         lv_hit_test_info_t hit_info;
 965:Drivers/lvgl/lvgl/src/core/lv_obj_pos.c ****         hit_info.point = point;
 966:Drivers/lvgl/lvgl/src/core/lv_obj_pos.c ****         hit_info.res = true;
 967:Drivers/lvgl/lvgl/src/core/lv_obj_pos.c ****         lv_event_send(obj, LV_EVENT_HIT_TEST, &hit_info);
 968:Drivers/lvgl/lvgl/src/core/lv_obj_pos.c ****         return hit_info.res;
 969:Drivers/lvgl/lvgl/src/core/lv_obj_pos.c ****     }
 970:Drivers/lvgl/lvgl/src/core/lv_obj_pos.c **** 
 971:Drivers/lvgl/lvgl/src/core/lv_obj_pos.c ****     return res;
 972:Drivers/lvgl/lvgl/src/core/lv_obj_pos.c **** }
 973:Drivers/lvgl/lvgl/src/core/lv_obj_pos.c **** 
 974:Drivers/lvgl/lvgl/src/core/lv_obj_pos.c **** lv_coord_t lv_clamp_width(lv_coord_t width, lv_coord_t min_width, lv_coord_t max_width, lv_coord_t 
 975:Drivers/lvgl/lvgl/src/core/lv_obj_pos.c **** {
 976:Drivers/lvgl/lvgl/src/core/lv_obj_pos.c ****     if(LV_COORD_IS_PCT(min_width)) min_width = (ref_width * LV_COORD_GET_PCT(min_width)) / 100;
 977:Drivers/lvgl/lvgl/src/core/lv_obj_pos.c ****     if(LV_COORD_IS_PCT(max_width)) max_width = (ref_width * LV_COORD_GET_PCT(max_width)) / 100;
 978:Drivers/lvgl/lvgl/src/core/lv_obj_pos.c ****     return LV_CLAMP(min_width, width, max_width);
 979:Drivers/lvgl/lvgl/src/core/lv_obj_pos.c **** }
 980:Drivers/lvgl/lvgl/src/core/lv_obj_pos.c **** 
 981:Drivers/lvgl/lvgl/src/core/lv_obj_pos.c **** lv_coord_t lv_clamp_height(lv_coord_t height, lv_coord_t min_height, lv_coord_t max_height, lv_coor
 982:Drivers/lvgl/lvgl/src/core/lv_obj_pos.c **** {
 983:Drivers/lvgl/lvgl/src/core/lv_obj_pos.c ****     if(LV_COORD_IS_PCT(min_height)) min_height = (ref_height * LV_COORD_GET_PCT(min_height)) / 100;
 984:Drivers/lvgl/lvgl/src/core/lv_obj_pos.c ****     if(LV_COORD_IS_PCT(max_height)) max_height = (ref_height * LV_COORD_GET_PCT(max_height)) / 100;
 985:Drivers/lvgl/lvgl/src/core/lv_obj_pos.c ****     return LV_CLAMP(min_height, height, max_height);
 986:Drivers/lvgl/lvgl/src/core/lv_obj_pos.c **** }
 987:Drivers/lvgl/lvgl/src/core/lv_obj_pos.c **** 
 988:Drivers/lvgl/lvgl/src/core/lv_obj_pos.c **** 
 989:Drivers/lvgl/lvgl/src/core/lv_obj_pos.c **** 
 990:Drivers/lvgl/lvgl/src/core/lv_obj_pos.c **** /**********************
 991:Drivers/lvgl/lvgl/src/core/lv_obj_pos.c ****  *   STATIC FUNCTIONS
 992:Drivers/lvgl/lvgl/src/core/lv_obj_pos.c ****  **********************/
 993:Drivers/lvgl/lvgl/src/core/lv_obj_pos.c **** 
 994:Drivers/lvgl/lvgl/src/core/lv_obj_pos.c **** static lv_coord_t calc_content_width(lv_obj_t * obj)
 995:Drivers/lvgl/lvgl/src/core/lv_obj_pos.c **** {
 996:Drivers/lvgl/lvgl/src/core/lv_obj_pos.c ****     lv_obj_scroll_to_x(obj, 0, LV_ANIM_OFF);
 997:Drivers/lvgl/lvgl/src/core/lv_obj_pos.c **** 
 998:Drivers/lvgl/lvgl/src/core/lv_obj_pos.c ****     lv_coord_t border_width = lv_obj_get_style_border_width(obj, LV_PART_MAIN);
 999:Drivers/lvgl/lvgl/src/core/lv_obj_pos.c ****     lv_coord_t pad_right = lv_obj_get_style_pad_right(obj, LV_PART_MAIN) + border_width;
1000:Drivers/lvgl/lvgl/src/core/lv_obj_pos.c ****     lv_coord_t pad_left = lv_obj_get_style_pad_left(obj, LV_PART_MAIN) + border_width;
1001:Drivers/lvgl/lvgl/src/core/lv_obj_pos.c **** 
1002:Drivers/lvgl/lvgl/src/core/lv_obj_pos.c ****     lv_coord_t self_w;
ARM GAS  /tmp/cc3JQQuJ.s 			page 19


1003:Drivers/lvgl/lvgl/src/core/lv_obj_pos.c ****     self_w = lv_obj_get_self_width(obj) +  pad_left + pad_right;
1004:Drivers/lvgl/lvgl/src/core/lv_obj_pos.c **** 
1005:Drivers/lvgl/lvgl/src/core/lv_obj_pos.c ****     lv_coord_t child_res = LV_COORD_MIN;
1006:Drivers/lvgl/lvgl/src/core/lv_obj_pos.c ****     uint32_t i;
1007:Drivers/lvgl/lvgl/src/core/lv_obj_pos.c ****     uint32_t child_cnt = lv_obj_get_child_cnt(obj);
1008:Drivers/lvgl/lvgl/src/core/lv_obj_pos.c ****     /*With RTL find the left most coordinate*/
1009:Drivers/lvgl/lvgl/src/core/lv_obj_pos.c ****     if(lv_obj_get_style_base_dir(obj, LV_PART_MAIN) == LV_BASE_DIR_RTL) {
1010:Drivers/lvgl/lvgl/src/core/lv_obj_pos.c ****         for(i = 0; i < child_cnt; i++) {
1011:Drivers/lvgl/lvgl/src/core/lv_obj_pos.c ****             lv_obj_t * child = obj->spec_attr->children[i];
1012:Drivers/lvgl/lvgl/src/core/lv_obj_pos.c ****             if(lv_obj_has_flag_any(child,  LV_OBJ_FLAG_HIDDEN | LV_OBJ_FLAG_FLOATING)) continue;
1013:Drivers/lvgl/lvgl/src/core/lv_obj_pos.c **** 
1014:Drivers/lvgl/lvgl/src/core/lv_obj_pos.c ****             if(!lv_obj_is_layout_positioned(child)) {
1015:Drivers/lvgl/lvgl/src/core/lv_obj_pos.c ****                 lv_align_t align = lv_obj_get_style_align(child, 0);
1016:Drivers/lvgl/lvgl/src/core/lv_obj_pos.c ****                 switch(align) {
1017:Drivers/lvgl/lvgl/src/core/lv_obj_pos.c ****                     case LV_ALIGN_DEFAULT:
1018:Drivers/lvgl/lvgl/src/core/lv_obj_pos.c ****                     case LV_ALIGN_TOP_RIGHT:
1019:Drivers/lvgl/lvgl/src/core/lv_obj_pos.c ****                     case LV_ALIGN_BOTTOM_RIGHT:
1020:Drivers/lvgl/lvgl/src/core/lv_obj_pos.c ****                     case LV_ALIGN_RIGHT_MID:
1021:Drivers/lvgl/lvgl/src/core/lv_obj_pos.c ****                         /*Normal right aligns. Other are ignored due to possible circular dependenc
1022:Drivers/lvgl/lvgl/src/core/lv_obj_pos.c ****                         child_res = LV_MAX(child_res, obj->coords.x2 - child->coords.x1 + 1);
1023:Drivers/lvgl/lvgl/src/core/lv_obj_pos.c ****                         break;
1024:Drivers/lvgl/lvgl/src/core/lv_obj_pos.c ****                     default:
1025:Drivers/lvgl/lvgl/src/core/lv_obj_pos.c ****                         /* Consider other cases only if x=0 and use the width of the object.
1026:Drivers/lvgl/lvgl/src/core/lv_obj_pos.c ****                          * With x!=0 circular dependency could occur. */
1027:Drivers/lvgl/lvgl/src/core/lv_obj_pos.c ****                         if(lv_obj_get_style_x(child, 0) == 0) {
1028:Drivers/lvgl/lvgl/src/core/lv_obj_pos.c ****                             child_res = LV_MAX(child_res, lv_area_get_width(&child->coords) + pad_r
1029:Drivers/lvgl/lvgl/src/core/lv_obj_pos.c ****                         }
1030:Drivers/lvgl/lvgl/src/core/lv_obj_pos.c ****                 }
1031:Drivers/lvgl/lvgl/src/core/lv_obj_pos.c ****             }
1032:Drivers/lvgl/lvgl/src/core/lv_obj_pos.c ****             else {
1033:Drivers/lvgl/lvgl/src/core/lv_obj_pos.c ****                 child_res = LV_MAX(child_res, obj->coords.x2 - child->coords.x1 + 1);
1034:Drivers/lvgl/lvgl/src/core/lv_obj_pos.c ****             }
1035:Drivers/lvgl/lvgl/src/core/lv_obj_pos.c ****         }
1036:Drivers/lvgl/lvgl/src/core/lv_obj_pos.c ****         if(child_res != LV_COORD_MIN) {
1037:Drivers/lvgl/lvgl/src/core/lv_obj_pos.c ****             child_res += pad_left;
1038:Drivers/lvgl/lvgl/src/core/lv_obj_pos.c ****         }
1039:Drivers/lvgl/lvgl/src/core/lv_obj_pos.c ****     }
1040:Drivers/lvgl/lvgl/src/core/lv_obj_pos.c ****     /*Else find the right most coordinate*/
1041:Drivers/lvgl/lvgl/src/core/lv_obj_pos.c ****     else {
1042:Drivers/lvgl/lvgl/src/core/lv_obj_pos.c ****         for(i = 0; i < child_cnt; i++) {
1043:Drivers/lvgl/lvgl/src/core/lv_obj_pos.c ****             lv_obj_t * child = obj->spec_attr->children[i];
1044:Drivers/lvgl/lvgl/src/core/lv_obj_pos.c ****             if(lv_obj_has_flag_any(child,  LV_OBJ_FLAG_HIDDEN | LV_OBJ_FLAG_FLOATING)) continue;
1045:Drivers/lvgl/lvgl/src/core/lv_obj_pos.c **** 
1046:Drivers/lvgl/lvgl/src/core/lv_obj_pos.c ****             if(!lv_obj_is_layout_positioned(child)) {
1047:Drivers/lvgl/lvgl/src/core/lv_obj_pos.c ****                 lv_align_t align = lv_obj_get_style_align(child, 0);
1048:Drivers/lvgl/lvgl/src/core/lv_obj_pos.c ****                 switch(align) {
1049:Drivers/lvgl/lvgl/src/core/lv_obj_pos.c ****                     case LV_ALIGN_DEFAULT:
1050:Drivers/lvgl/lvgl/src/core/lv_obj_pos.c ****                     case LV_ALIGN_TOP_LEFT:
1051:Drivers/lvgl/lvgl/src/core/lv_obj_pos.c ****                     case LV_ALIGN_BOTTOM_LEFT:
1052:Drivers/lvgl/lvgl/src/core/lv_obj_pos.c ****                     case LV_ALIGN_LEFT_MID:
1053:Drivers/lvgl/lvgl/src/core/lv_obj_pos.c ****                         /*Normal left aligns.*/
1054:Drivers/lvgl/lvgl/src/core/lv_obj_pos.c ****                         child_res = LV_MAX(child_res, child->coords.x2 - obj->coords.x1 + 1);
1055:Drivers/lvgl/lvgl/src/core/lv_obj_pos.c ****                         break;
1056:Drivers/lvgl/lvgl/src/core/lv_obj_pos.c ****                     default:
1057:Drivers/lvgl/lvgl/src/core/lv_obj_pos.c ****                         /* Consider other cases only if x=0 and use the width of the object.
1058:Drivers/lvgl/lvgl/src/core/lv_obj_pos.c ****                          * With x!=0 circular dependency could occur. */
1059:Drivers/lvgl/lvgl/src/core/lv_obj_pos.c ****                         if(lv_obj_get_style_y(child, 0) == 0) {
ARM GAS  /tmp/cc3JQQuJ.s 			page 20


1060:Drivers/lvgl/lvgl/src/core/lv_obj_pos.c ****                             child_res = LV_MAX(child_res, lv_area_get_width(&child->coords) + pad_l
1061:Drivers/lvgl/lvgl/src/core/lv_obj_pos.c ****                         }
1062:Drivers/lvgl/lvgl/src/core/lv_obj_pos.c ****                 }
1063:Drivers/lvgl/lvgl/src/core/lv_obj_pos.c ****             }
1064:Drivers/lvgl/lvgl/src/core/lv_obj_pos.c ****             else {
1065:Drivers/lvgl/lvgl/src/core/lv_obj_pos.c ****                 child_res = LV_MAX(child_res, child->coords.x2 - obj->coords.x1 + 1);
1066:Drivers/lvgl/lvgl/src/core/lv_obj_pos.c ****             }
1067:Drivers/lvgl/lvgl/src/core/lv_obj_pos.c ****         }
1068:Drivers/lvgl/lvgl/src/core/lv_obj_pos.c **** 
1069:Drivers/lvgl/lvgl/src/core/lv_obj_pos.c ****         if(child_res != LV_COORD_MIN) {
1070:Drivers/lvgl/lvgl/src/core/lv_obj_pos.c ****             child_res += pad_right;
1071:Drivers/lvgl/lvgl/src/core/lv_obj_pos.c ****         }
1072:Drivers/lvgl/lvgl/src/core/lv_obj_pos.c ****     }
1073:Drivers/lvgl/lvgl/src/core/lv_obj_pos.c **** 
1074:Drivers/lvgl/lvgl/src/core/lv_obj_pos.c ****     if(child_res == LV_COORD_MIN) return self_w;
1075:Drivers/lvgl/lvgl/src/core/lv_obj_pos.c ****     else return LV_MAX(child_res, self_w);
1076:Drivers/lvgl/lvgl/src/core/lv_obj_pos.c **** }
1077:Drivers/lvgl/lvgl/src/core/lv_obj_pos.c **** 
1078:Drivers/lvgl/lvgl/src/core/lv_obj_pos.c **** static lv_coord_t calc_content_height(lv_obj_t * obj)
1079:Drivers/lvgl/lvgl/src/core/lv_obj_pos.c **** {
1080:Drivers/lvgl/lvgl/src/core/lv_obj_pos.c ****     lv_obj_scroll_to_y(obj, 0, LV_ANIM_OFF);
1081:Drivers/lvgl/lvgl/src/core/lv_obj_pos.c **** 
1082:Drivers/lvgl/lvgl/src/core/lv_obj_pos.c ****     lv_coord_t border_width = lv_obj_get_style_border_width(obj, LV_PART_MAIN);
1083:Drivers/lvgl/lvgl/src/core/lv_obj_pos.c ****     lv_coord_t pad_top = lv_obj_get_style_pad_top(obj, LV_PART_MAIN) + border_width;
1084:Drivers/lvgl/lvgl/src/core/lv_obj_pos.c ****     lv_coord_t pad_bottom = lv_obj_get_style_pad_bottom(obj, LV_PART_MAIN) + border_width;
1085:Drivers/lvgl/lvgl/src/core/lv_obj_pos.c **** 
1086:Drivers/lvgl/lvgl/src/core/lv_obj_pos.c ****     lv_coord_t self_h;
1087:Drivers/lvgl/lvgl/src/core/lv_obj_pos.c ****     self_h = lv_obj_get_self_height(obj) + pad_top + pad_bottom;
1088:Drivers/lvgl/lvgl/src/core/lv_obj_pos.c **** 
1089:Drivers/lvgl/lvgl/src/core/lv_obj_pos.c ****     lv_coord_t child_res = LV_COORD_MIN;
1090:Drivers/lvgl/lvgl/src/core/lv_obj_pos.c ****     uint32_t i;
1091:Drivers/lvgl/lvgl/src/core/lv_obj_pos.c ****     uint32_t child_cnt = lv_obj_get_child_cnt(obj);
1092:Drivers/lvgl/lvgl/src/core/lv_obj_pos.c ****     for(i = 0; i < child_cnt; i++) {
1093:Drivers/lvgl/lvgl/src/core/lv_obj_pos.c ****         lv_obj_t * child = obj->spec_attr->children[i];
1094:Drivers/lvgl/lvgl/src/core/lv_obj_pos.c ****         if(lv_obj_has_flag_any(child,  LV_OBJ_FLAG_HIDDEN | LV_OBJ_FLAG_FLOATING)) continue;
1095:Drivers/lvgl/lvgl/src/core/lv_obj_pos.c **** 
1096:Drivers/lvgl/lvgl/src/core/lv_obj_pos.c **** 
1097:Drivers/lvgl/lvgl/src/core/lv_obj_pos.c ****         if(!lv_obj_is_layout_positioned(child)) {
1098:Drivers/lvgl/lvgl/src/core/lv_obj_pos.c ****             lv_align_t align = lv_obj_get_style_align(child, 0);
1099:Drivers/lvgl/lvgl/src/core/lv_obj_pos.c ****             switch(align) {
1100:Drivers/lvgl/lvgl/src/core/lv_obj_pos.c ****                 case LV_ALIGN_DEFAULT:
1101:Drivers/lvgl/lvgl/src/core/lv_obj_pos.c ****                 case LV_ALIGN_TOP_RIGHT:
1102:Drivers/lvgl/lvgl/src/core/lv_obj_pos.c ****                 case LV_ALIGN_TOP_MID:
1103:Drivers/lvgl/lvgl/src/core/lv_obj_pos.c ****                 case LV_ALIGN_TOP_LEFT:
1104:Drivers/lvgl/lvgl/src/core/lv_obj_pos.c ****                     /*Normal top aligns. */
1105:Drivers/lvgl/lvgl/src/core/lv_obj_pos.c ****                     child_res = LV_MAX(child_res, child->coords.y2 - obj->coords.y1 + 1);
1106:Drivers/lvgl/lvgl/src/core/lv_obj_pos.c ****                     break;
1107:Drivers/lvgl/lvgl/src/core/lv_obj_pos.c ****                 default:
1108:Drivers/lvgl/lvgl/src/core/lv_obj_pos.c ****                     /* Consider other cases only if y=0 and use the height of the object.
1109:Drivers/lvgl/lvgl/src/core/lv_obj_pos.c ****                      * With y!=0 circular dependency could occur. */
1110:Drivers/lvgl/lvgl/src/core/lv_obj_pos.c ****                     if(lv_obj_get_style_y(child, 0) == 0) {
1111:Drivers/lvgl/lvgl/src/core/lv_obj_pos.c ****                         child_res = LV_MAX(child_res, lv_area_get_height(&child->coords) + pad_top)
1112:Drivers/lvgl/lvgl/src/core/lv_obj_pos.c ****                     }
1113:Drivers/lvgl/lvgl/src/core/lv_obj_pos.c ****                     break;
1114:Drivers/lvgl/lvgl/src/core/lv_obj_pos.c ****             }
1115:Drivers/lvgl/lvgl/src/core/lv_obj_pos.c ****         }
1116:Drivers/lvgl/lvgl/src/core/lv_obj_pos.c ****         else {
ARM GAS  /tmp/cc3JQQuJ.s 			page 21


1117:Drivers/lvgl/lvgl/src/core/lv_obj_pos.c ****             child_res = LV_MAX(child_res, child->coords.y2 - obj->coords.y1 + 1);
1118:Drivers/lvgl/lvgl/src/core/lv_obj_pos.c ****         }
1119:Drivers/lvgl/lvgl/src/core/lv_obj_pos.c ****     }
1120:Drivers/lvgl/lvgl/src/core/lv_obj_pos.c **** 
1121:Drivers/lvgl/lvgl/src/core/lv_obj_pos.c ****     if(child_res != LV_COORD_MIN) {
1122:Drivers/lvgl/lvgl/src/core/lv_obj_pos.c ****         child_res += pad_bottom;
1123:Drivers/lvgl/lvgl/src/core/lv_obj_pos.c ****         return LV_MAX(child_res, self_h);
1124:Drivers/lvgl/lvgl/src/core/lv_obj_pos.c ****     }
1125:Drivers/lvgl/lvgl/src/core/lv_obj_pos.c ****     else {
1126:Drivers/lvgl/lvgl/src/core/lv_obj_pos.c ****         return self_h;
1127:Drivers/lvgl/lvgl/src/core/lv_obj_pos.c ****     }
1128:Drivers/lvgl/lvgl/src/core/lv_obj_pos.c **** 
1129:Drivers/lvgl/lvgl/src/core/lv_obj_pos.c **** }
1130:Drivers/lvgl/lvgl/src/core/lv_obj_pos.c **** 
1131:Drivers/lvgl/lvgl/src/core/lv_obj_pos.c **** static void layout_update_core(lv_obj_t * obj)
1132:Drivers/lvgl/lvgl/src/core/lv_obj_pos.c **** {
1133:Drivers/lvgl/lvgl/src/core/lv_obj_pos.c ****     uint32_t i;
1134:Drivers/lvgl/lvgl/src/core/lv_obj_pos.c ****     uint32_t child_cnt = lv_obj_get_child_cnt(obj);
1135:Drivers/lvgl/lvgl/src/core/lv_obj_pos.c ****     for(i = 0; i < child_cnt; i++) {
1136:Drivers/lvgl/lvgl/src/core/lv_obj_pos.c ****         lv_obj_t * child = obj->spec_attr->children[i];
1137:Drivers/lvgl/lvgl/src/core/lv_obj_pos.c ****         layout_update_core(child);
1138:Drivers/lvgl/lvgl/src/core/lv_obj_pos.c ****     }
1139:Drivers/lvgl/lvgl/src/core/lv_obj_pos.c **** 
1140:Drivers/lvgl/lvgl/src/core/lv_obj_pos.c ****     if(obj->layout_inv == 0) return;
1141:Drivers/lvgl/lvgl/src/core/lv_obj_pos.c **** 
1142:Drivers/lvgl/lvgl/src/core/lv_obj_pos.c ****     obj->layout_inv = 0;
1143:Drivers/lvgl/lvgl/src/core/lv_obj_pos.c **** 
1144:Drivers/lvgl/lvgl/src/core/lv_obj_pos.c ****     lv_obj_refr_size(obj);
1145:Drivers/lvgl/lvgl/src/core/lv_obj_pos.c ****     lv_obj_refr_pos(obj);
1146:Drivers/lvgl/lvgl/src/core/lv_obj_pos.c **** 
1147:Drivers/lvgl/lvgl/src/core/lv_obj_pos.c ****     if(child_cnt > 0) {
1148:Drivers/lvgl/lvgl/src/core/lv_obj_pos.c ****         uint32_t layout_id = lv_obj_get_style_layout(obj, LV_PART_MAIN);
1149:Drivers/lvgl/lvgl/src/core/lv_obj_pos.c ****         if(layout_id > 0 && layout_id <= layout_cnt) {
1150:Drivers/lvgl/lvgl/src/core/lv_obj_pos.c ****             void  * user_data = LV_GC_ROOT(_lv_layout_list)[layout_id - 1].user_data;
1151:Drivers/lvgl/lvgl/src/core/lv_obj_pos.c ****             LV_GC_ROOT(_lv_layout_list)[layout_id - 1].cb(obj, user_data);
1152:Drivers/lvgl/lvgl/src/core/lv_obj_pos.c ****         }
1153:Drivers/lvgl/lvgl/src/core/lv_obj_pos.c ****     }
1154:Drivers/lvgl/lvgl/src/core/lv_obj_pos.c **** }
1155:Drivers/lvgl/lvgl/src/core/lv_obj_pos.c **** 
1156:Drivers/lvgl/lvgl/src/core/lv_obj_pos.c **** static void transform_point(const lv_obj_t * obj, lv_point_t * p, bool inv)
1157:Drivers/lvgl/lvgl/src/core/lv_obj_pos.c **** {
  26              		.loc 1 1157 0
  27              		.cfi_startproc
  28              		@ args = 0, pretend = 0, frame = 8
  29              		@ frame_needed = 0, uses_anonymous_args = 0
  30              	.LVL0:
  31 0000 2DE9F043 		push	{r4, r5, r6, r7, r8, r9, lr}
  32              	.LCFI0:
  33              		.cfi_def_cfa_offset 28
  34              		.cfi_offset 4, -28
  35              		.cfi_offset 5, -24
  36              		.cfi_offset 6, -20
  37              		.cfi_offset 7, -16
  38              		.cfi_offset 8, -12
  39              		.cfi_offset 9, -8
  40              		.cfi_offset 14, -4
  41 0004 83B0     		sub	sp, sp, #12
ARM GAS  /tmp/cc3JQQuJ.s 			page 22


  42              	.LCFI1:
  43              		.cfi_def_cfa_offset 40
  44 0006 0446     		mov	r4, r0
  45 0008 8846     		mov	r8, r1
  46 000a 9146     		mov	r9, r2
  47              	.LVL1:
  48              	.LBB203:
  49              	.LBB204:
  50              		.file 2 "Drivers/lvgl/lvgl/src/core/lv_obj_style_gen.h"
   1:Drivers/lvgl/lvgl/src/core/lv_obj_style_gen.h **** static inline lv_coord_t lv_obj_get_style_width(const struct _lv_obj_t * obj, uint32_t part)
   2:Drivers/lvgl/lvgl/src/core/lv_obj_style_gen.h **** {
   3:Drivers/lvgl/lvgl/src/core/lv_obj_style_gen.h ****     lv_style_value_t v = lv_obj_get_style_prop(obj, part, LV_STYLE_WIDTH);
   4:Drivers/lvgl/lvgl/src/core/lv_obj_style_gen.h ****     return (lv_coord_t)v.num;
   5:Drivers/lvgl/lvgl/src/core/lv_obj_style_gen.h **** }
   6:Drivers/lvgl/lvgl/src/core/lv_obj_style_gen.h **** 
   7:Drivers/lvgl/lvgl/src/core/lv_obj_style_gen.h **** static inline lv_coord_t lv_obj_get_style_min_width(const struct _lv_obj_t * obj, uint32_t part)
   8:Drivers/lvgl/lvgl/src/core/lv_obj_style_gen.h **** {
   9:Drivers/lvgl/lvgl/src/core/lv_obj_style_gen.h ****     lv_style_value_t v = lv_obj_get_style_prop(obj, part, LV_STYLE_MIN_WIDTH);
  10:Drivers/lvgl/lvgl/src/core/lv_obj_style_gen.h ****     return (lv_coord_t)v.num;
  11:Drivers/lvgl/lvgl/src/core/lv_obj_style_gen.h **** }
  12:Drivers/lvgl/lvgl/src/core/lv_obj_style_gen.h **** 
  13:Drivers/lvgl/lvgl/src/core/lv_obj_style_gen.h **** static inline lv_coord_t lv_obj_get_style_max_width(const struct _lv_obj_t * obj, uint32_t part)
  14:Drivers/lvgl/lvgl/src/core/lv_obj_style_gen.h **** {
  15:Drivers/lvgl/lvgl/src/core/lv_obj_style_gen.h ****     lv_style_value_t v = lv_obj_get_style_prop(obj, part, LV_STYLE_MAX_WIDTH);
  16:Drivers/lvgl/lvgl/src/core/lv_obj_style_gen.h ****     return (lv_coord_t)v.num;
  17:Drivers/lvgl/lvgl/src/core/lv_obj_style_gen.h **** }
  18:Drivers/lvgl/lvgl/src/core/lv_obj_style_gen.h **** 
  19:Drivers/lvgl/lvgl/src/core/lv_obj_style_gen.h **** static inline lv_coord_t lv_obj_get_style_height(const struct _lv_obj_t * obj, uint32_t part)
  20:Drivers/lvgl/lvgl/src/core/lv_obj_style_gen.h **** {
  21:Drivers/lvgl/lvgl/src/core/lv_obj_style_gen.h ****     lv_style_value_t v = lv_obj_get_style_prop(obj, part, LV_STYLE_HEIGHT);
  22:Drivers/lvgl/lvgl/src/core/lv_obj_style_gen.h ****     return (lv_coord_t)v.num;
  23:Drivers/lvgl/lvgl/src/core/lv_obj_style_gen.h **** }
  24:Drivers/lvgl/lvgl/src/core/lv_obj_style_gen.h **** 
  25:Drivers/lvgl/lvgl/src/core/lv_obj_style_gen.h **** static inline lv_coord_t lv_obj_get_style_min_height(const struct _lv_obj_t * obj, uint32_t part)
  26:Drivers/lvgl/lvgl/src/core/lv_obj_style_gen.h **** {
  27:Drivers/lvgl/lvgl/src/core/lv_obj_style_gen.h ****     lv_style_value_t v = lv_obj_get_style_prop(obj, part, LV_STYLE_MIN_HEIGHT);
  28:Drivers/lvgl/lvgl/src/core/lv_obj_style_gen.h ****     return (lv_coord_t)v.num;
  29:Drivers/lvgl/lvgl/src/core/lv_obj_style_gen.h **** }
  30:Drivers/lvgl/lvgl/src/core/lv_obj_style_gen.h **** 
  31:Drivers/lvgl/lvgl/src/core/lv_obj_style_gen.h **** static inline lv_coord_t lv_obj_get_style_max_height(const struct _lv_obj_t * obj, uint32_t part)
  32:Drivers/lvgl/lvgl/src/core/lv_obj_style_gen.h **** {
  33:Drivers/lvgl/lvgl/src/core/lv_obj_style_gen.h ****     lv_style_value_t v = lv_obj_get_style_prop(obj, part, LV_STYLE_MAX_HEIGHT);
  34:Drivers/lvgl/lvgl/src/core/lv_obj_style_gen.h ****     return (lv_coord_t)v.num;
  35:Drivers/lvgl/lvgl/src/core/lv_obj_style_gen.h **** }
  36:Drivers/lvgl/lvgl/src/core/lv_obj_style_gen.h **** 
  37:Drivers/lvgl/lvgl/src/core/lv_obj_style_gen.h **** static inline lv_coord_t lv_obj_get_style_x(const struct _lv_obj_t * obj, uint32_t part)
  38:Drivers/lvgl/lvgl/src/core/lv_obj_style_gen.h **** {
  39:Drivers/lvgl/lvgl/src/core/lv_obj_style_gen.h ****     lv_style_value_t v = lv_obj_get_style_prop(obj, part, LV_STYLE_X);
  40:Drivers/lvgl/lvgl/src/core/lv_obj_style_gen.h ****     return (lv_coord_t)v.num;
  41:Drivers/lvgl/lvgl/src/core/lv_obj_style_gen.h **** }
  42:Drivers/lvgl/lvgl/src/core/lv_obj_style_gen.h **** 
  43:Drivers/lvgl/lvgl/src/core/lv_obj_style_gen.h **** static inline lv_coord_t lv_obj_get_style_y(const struct _lv_obj_t * obj, uint32_t part)
  44:Drivers/lvgl/lvgl/src/core/lv_obj_style_gen.h **** {
  45:Drivers/lvgl/lvgl/src/core/lv_obj_style_gen.h ****     lv_style_value_t v = lv_obj_get_style_prop(obj, part, LV_STYLE_Y);
  46:Drivers/lvgl/lvgl/src/core/lv_obj_style_gen.h ****     return (lv_coord_t)v.num;
  47:Drivers/lvgl/lvgl/src/core/lv_obj_style_gen.h **** }
  48:Drivers/lvgl/lvgl/src/core/lv_obj_style_gen.h **** 
ARM GAS  /tmp/cc3JQQuJ.s 			page 23


  49:Drivers/lvgl/lvgl/src/core/lv_obj_style_gen.h **** static inline lv_align_t lv_obj_get_style_align(const struct _lv_obj_t * obj, uint32_t part)
  50:Drivers/lvgl/lvgl/src/core/lv_obj_style_gen.h **** {
  51:Drivers/lvgl/lvgl/src/core/lv_obj_style_gen.h ****     lv_style_value_t v = lv_obj_get_style_prop(obj, part, LV_STYLE_ALIGN);
  52:Drivers/lvgl/lvgl/src/core/lv_obj_style_gen.h ****     return (lv_align_t)v.num;
  53:Drivers/lvgl/lvgl/src/core/lv_obj_style_gen.h **** }
  54:Drivers/lvgl/lvgl/src/core/lv_obj_style_gen.h **** 
  55:Drivers/lvgl/lvgl/src/core/lv_obj_style_gen.h **** static inline lv_coord_t lv_obj_get_style_transform_width(const struct _lv_obj_t * obj, uint32_t pa
  56:Drivers/lvgl/lvgl/src/core/lv_obj_style_gen.h **** {
  57:Drivers/lvgl/lvgl/src/core/lv_obj_style_gen.h ****     lv_style_value_t v = lv_obj_get_style_prop(obj, part, LV_STYLE_TRANSFORM_WIDTH);
  58:Drivers/lvgl/lvgl/src/core/lv_obj_style_gen.h ****     return (lv_coord_t)v.num;
  59:Drivers/lvgl/lvgl/src/core/lv_obj_style_gen.h **** }
  60:Drivers/lvgl/lvgl/src/core/lv_obj_style_gen.h **** 
  61:Drivers/lvgl/lvgl/src/core/lv_obj_style_gen.h **** static inline lv_coord_t lv_obj_get_style_transform_height(const struct _lv_obj_t * obj, uint32_t p
  62:Drivers/lvgl/lvgl/src/core/lv_obj_style_gen.h **** {
  63:Drivers/lvgl/lvgl/src/core/lv_obj_style_gen.h ****     lv_style_value_t v = lv_obj_get_style_prop(obj, part, LV_STYLE_TRANSFORM_HEIGHT);
  64:Drivers/lvgl/lvgl/src/core/lv_obj_style_gen.h ****     return (lv_coord_t)v.num;
  65:Drivers/lvgl/lvgl/src/core/lv_obj_style_gen.h **** }
  66:Drivers/lvgl/lvgl/src/core/lv_obj_style_gen.h **** 
  67:Drivers/lvgl/lvgl/src/core/lv_obj_style_gen.h **** static inline lv_coord_t lv_obj_get_style_translate_x(const struct _lv_obj_t * obj, uint32_t part)
  68:Drivers/lvgl/lvgl/src/core/lv_obj_style_gen.h **** {
  69:Drivers/lvgl/lvgl/src/core/lv_obj_style_gen.h ****     lv_style_value_t v = lv_obj_get_style_prop(obj, part, LV_STYLE_TRANSLATE_X);
  70:Drivers/lvgl/lvgl/src/core/lv_obj_style_gen.h ****     return (lv_coord_t)v.num;
  71:Drivers/lvgl/lvgl/src/core/lv_obj_style_gen.h **** }
  72:Drivers/lvgl/lvgl/src/core/lv_obj_style_gen.h **** 
  73:Drivers/lvgl/lvgl/src/core/lv_obj_style_gen.h **** static inline lv_coord_t lv_obj_get_style_translate_y(const struct _lv_obj_t * obj, uint32_t part)
  74:Drivers/lvgl/lvgl/src/core/lv_obj_style_gen.h **** {
  75:Drivers/lvgl/lvgl/src/core/lv_obj_style_gen.h ****     lv_style_value_t v = lv_obj_get_style_prop(obj, part, LV_STYLE_TRANSLATE_Y);
  76:Drivers/lvgl/lvgl/src/core/lv_obj_style_gen.h ****     return (lv_coord_t)v.num;
  77:Drivers/lvgl/lvgl/src/core/lv_obj_style_gen.h **** }
  78:Drivers/lvgl/lvgl/src/core/lv_obj_style_gen.h **** 
  79:Drivers/lvgl/lvgl/src/core/lv_obj_style_gen.h **** static inline lv_coord_t lv_obj_get_style_transform_zoom(const struct _lv_obj_t * obj, uint32_t par
  80:Drivers/lvgl/lvgl/src/core/lv_obj_style_gen.h **** {
  81:Drivers/lvgl/lvgl/src/core/lv_obj_style_gen.h ****     lv_style_value_t v = lv_obj_get_style_prop(obj, part, LV_STYLE_TRANSFORM_ZOOM);
  82:Drivers/lvgl/lvgl/src/core/lv_obj_style_gen.h ****     return (lv_coord_t)v.num;
  83:Drivers/lvgl/lvgl/src/core/lv_obj_style_gen.h **** }
  84:Drivers/lvgl/lvgl/src/core/lv_obj_style_gen.h **** 
  85:Drivers/lvgl/lvgl/src/core/lv_obj_style_gen.h **** static inline lv_coord_t lv_obj_get_style_transform_angle(const struct _lv_obj_t * obj, uint32_t pa
  86:Drivers/lvgl/lvgl/src/core/lv_obj_style_gen.h **** {
  87:Drivers/lvgl/lvgl/src/core/lv_obj_style_gen.h ****     lv_style_value_t v = lv_obj_get_style_prop(obj, part, LV_STYLE_TRANSFORM_ANGLE);
  51              		.loc 2 87 0
  52 000c 6D22     		movs	r2, #109
  53              	.LVL2:
  54 000e 0021     		movs	r1, #0
  55              	.LVL3:
  56 0010 FFF7FEFF 		bl	lv_obj_get_style_prop
  57              	.LVL4:
  58 0014 0646     		mov	r6, r0
  88:Drivers/lvgl/lvgl/src/core/lv_obj_style_gen.h ****     return (lv_coord_t)v.num;
  59              		.loc 2 88 0
  60 0016 07B2     		sxth	r7, r0
  61              	.LVL5:
  62              	.LBE204:
  63              	.LBE203:
  64              	.LBB205:
  65              	.LBB206:
  81:Drivers/lvgl/lvgl/src/core/lv_obj_style_gen.h ****     return (lv_coord_t)v.num;
  66              		.loc 2 81 0
ARM GAS  /tmp/cc3JQQuJ.s 			page 24


  67 0018 6C22     		movs	r2, #108
  68 001a 0021     		movs	r1, #0
  69 001c 2046     		mov	r0, r4
  70 001e FFF7FEFF 		bl	lv_obj_get_style_prop
  71              	.LVL6:
  82:Drivers/lvgl/lvgl/src/core/lv_obj_style_gen.h **** }
  72              		.loc 2 82 0
  73 0022 05B2     		sxth	r5, r0
  74              	.LVL7:
  75              	.LBE206:
  76              	.LBE205:
1158:Drivers/lvgl/lvgl/src/core/lv_obj_pos.c ****     int16_t angle = lv_obj_get_style_transform_angle(obj, 0);
1159:Drivers/lvgl/lvgl/src/core/lv_obj_pos.c ****     int16_t zoom = lv_obj_get_style_transform_zoom(obj, 0);
1160:Drivers/lvgl/lvgl/src/core/lv_obj_pos.c **** 
1161:Drivers/lvgl/lvgl/src/core/lv_obj_pos.c ****     if(angle == 0 && zoom == LV_IMG_ZOOM_NONE) return;
  77              		.loc 1 1161 0
  78 0024 B5F5807F 		cmp	r5, #256
  79 0028 14BF     		ite	ne
  80 002a 0023     		movne	r3, #0
  81 002c 0123     		moveq	r3, #1
  82 002e 002F     		cmp	r7, #0
  83 0030 18BF     		it	ne
  84 0032 0023     		movne	r3, #0
  85 0034 13B1     		cbz	r3, .L12
  86              	.L1:
1162:Drivers/lvgl/lvgl/src/core/lv_obj_pos.c **** 
1163:Drivers/lvgl/lvgl/src/core/lv_obj_pos.c ****     lv_point_t pivot = {
1164:Drivers/lvgl/lvgl/src/core/lv_obj_pos.c ****         .x = lv_obj_get_style_transform_pivot_x(obj, 0),
1165:Drivers/lvgl/lvgl/src/core/lv_obj_pos.c ****         .y = lv_obj_get_style_transform_pivot_y(obj, 0)
1166:Drivers/lvgl/lvgl/src/core/lv_obj_pos.c ****     };
1167:Drivers/lvgl/lvgl/src/core/lv_obj_pos.c **** 
1168:Drivers/lvgl/lvgl/src/core/lv_obj_pos.c ****     if(LV_COORD_IS_PCT(pivot.x)) {
1169:Drivers/lvgl/lvgl/src/core/lv_obj_pos.c ****         pivot.x = (LV_COORD_GET_PCT(pivot.x) * lv_area_get_width(&obj->coords)) / 100;
1170:Drivers/lvgl/lvgl/src/core/lv_obj_pos.c ****     }
1171:Drivers/lvgl/lvgl/src/core/lv_obj_pos.c ****     if(LV_COORD_IS_PCT(pivot.y)) {
1172:Drivers/lvgl/lvgl/src/core/lv_obj_pos.c ****         pivot.y = (LV_COORD_GET_PCT(pivot.y) * lv_area_get_height(&obj->coords)) / 100;
1173:Drivers/lvgl/lvgl/src/core/lv_obj_pos.c ****     }
1174:Drivers/lvgl/lvgl/src/core/lv_obj_pos.c **** 
1175:Drivers/lvgl/lvgl/src/core/lv_obj_pos.c ****     pivot.x = obj->coords.x1 + pivot.x;
1176:Drivers/lvgl/lvgl/src/core/lv_obj_pos.c ****     pivot.y = obj->coords.y1 + pivot.y;
1177:Drivers/lvgl/lvgl/src/core/lv_obj_pos.c **** 
1178:Drivers/lvgl/lvgl/src/core/lv_obj_pos.c ****     if(inv) {
1179:Drivers/lvgl/lvgl/src/core/lv_obj_pos.c ****         angle = -angle;
1180:Drivers/lvgl/lvgl/src/core/lv_obj_pos.c ****         zoom = (256 * 256) / zoom;
1181:Drivers/lvgl/lvgl/src/core/lv_obj_pos.c ****     }
1182:Drivers/lvgl/lvgl/src/core/lv_obj_pos.c **** 
1183:Drivers/lvgl/lvgl/src/core/lv_obj_pos.c ****     lv_point_transform(p, angle, zoom, &pivot);
1184:Drivers/lvgl/lvgl/src/core/lv_obj_pos.c **** }
  87              		.loc 1 1184 0
  88 0036 03B0     		add	sp, sp, #12
  89              	.LCFI2:
  90              		.cfi_remember_state
  91              		.cfi_def_cfa_offset 28
  92              		@ sp needed
  93 0038 BDE8F083 		pop	{r4, r5, r6, r7, r8, r9, pc}
  94              	.LVL8:
  95              	.L12:
ARM GAS  /tmp/cc3JQQuJ.s 			page 25


  96              	.LCFI3:
  97              		.cfi_restore_state
  98              	.LBB207:
  99              	.LBB208:
  89:Drivers/lvgl/lvgl/src/core/lv_obj_style_gen.h **** }
  90:Drivers/lvgl/lvgl/src/core/lv_obj_style_gen.h **** 
  91:Drivers/lvgl/lvgl/src/core/lv_obj_style_gen.h **** static inline lv_coord_t lv_obj_get_style_transform_pivot_x(const struct _lv_obj_t * obj, uint32_t 
  92:Drivers/lvgl/lvgl/src/core/lv_obj_style_gen.h **** {
  93:Drivers/lvgl/lvgl/src/core/lv_obj_style_gen.h ****     lv_style_value_t v = lv_obj_get_style_prop(obj, part, LV_STYLE_TRANSFORM_PIVOT_X);
 100              		.loc 2 93 0
 101 003c 6E22     		movs	r2, #110
 102 003e 0021     		movs	r1, #0
 103 0040 2046     		mov	r0, r4
 104 0042 FFF7FEFF 		bl	lv_obj_get_style_prop
 105              	.LVL9:
 106              	.LBE208:
 107              	.LBE207:
1163:Drivers/lvgl/lvgl/src/core/lv_obj_pos.c ****         .x = lv_obj_get_style_transform_pivot_x(obj, 0),
 108              		.loc 1 1163 0
 109 0046 ADF80400 		strh	r0, [sp, #4]	@ movhi
 110              	.LVL10:
 111              	.LBB209:
 112              	.LBB210:
  94:Drivers/lvgl/lvgl/src/core/lv_obj_style_gen.h ****     return (lv_coord_t)v.num;
  95:Drivers/lvgl/lvgl/src/core/lv_obj_style_gen.h **** }
  96:Drivers/lvgl/lvgl/src/core/lv_obj_style_gen.h **** 
  97:Drivers/lvgl/lvgl/src/core/lv_obj_style_gen.h **** static inline lv_coord_t lv_obj_get_style_transform_pivot_y(const struct _lv_obj_t * obj, uint32_t 
  98:Drivers/lvgl/lvgl/src/core/lv_obj_style_gen.h **** {
  99:Drivers/lvgl/lvgl/src/core/lv_obj_style_gen.h ****     lv_style_value_t v = lv_obj_get_style_prop(obj, part, LV_STYLE_TRANSFORM_PIVOT_Y);
 113              		.loc 2 99 0
 114 004a 6F22     		movs	r2, #111
 115 004c 0021     		movs	r1, #0
 116 004e 2046     		mov	r0, r4
 117 0050 FFF7FEFF 		bl	lv_obj_get_style_prop
 118              	.LVL11:
 100:Drivers/lvgl/lvgl/src/core/lv_obj_style_gen.h ****     return (lv_coord_t)v.num;
 119              		.loc 2 100 0
 120 0054 00B2     		sxth	r0, r0
 121              	.LVL12:
 122              	.LBE210:
 123              	.LBE209:
1163:Drivers/lvgl/lvgl/src/core/lv_obj_pos.c ****         .x = lv_obj_get_style_transform_pivot_x(obj, 0),
 124              		.loc 1 1163 0
 125 0056 ADF80600 		strh	r0, [sp, #6]	@ movhi
1168:Drivers/lvgl/lvgl/src/core/lv_obj_pos.c ****         pivot.x = (LV_COORD_GET_PCT(pivot.x) * lv_area_get_width(&obj->coords)) / 100;
 126              		.loc 1 1168 0
 127 005a BDF90430 		ldrsh	r3, [sp, #4]
 128 005e 03F4C042 		and	r2, r3, #24576
 129 0062 B2F5005F 		cmp	r2, #8192
 130 0066 21D0     		beq	.L13
 131              	.L3:
1171:Drivers/lvgl/lvgl/src/core/lv_obj_pos.c ****         pivot.y = (LV_COORD_GET_PCT(pivot.y) * lv_area_get_height(&obj->coords)) / 100;
 132              		.loc 1 1171 0
 133 0068 00F4C043 		and	r3, r0, #24576
 134 006c B3F5005F 		cmp	r3, #8192
 135 0070 37D0     		beq	.L14
 136              	.L6:
ARM GAS  /tmp/cc3JQQuJ.s 			page 26


1175:Drivers/lvgl/lvgl/src/core/lv_obj_pos.c ****     pivot.y = obj->coords.y1 + pivot.y;
 137              		.loc 1 1175 0
 138 0072 A38A     		ldrh	r3, [r4, #20]
 139 0074 BDF80420 		ldrh	r2, [sp, #4]
 140 0078 1344     		add	r3, r3, r2
 141 007a ADF80430 		strh	r3, [sp, #4]	@ movhi
1176:Drivers/lvgl/lvgl/src/core/lv_obj_pos.c **** 
 142              		.loc 1 1176 0
 143 007e E38A     		ldrh	r3, [r4, #22]
 144 0080 BDF80620 		ldrh	r2, [sp, #6]
 145 0084 1344     		add	r3, r3, r2
 146 0086 ADF80630 		strh	r3, [sp, #6]	@ movhi
1178:Drivers/lvgl/lvgl/src/core/lv_obj_pos.c ****         angle = -angle;
 147              		.loc 1 1178 0
 148 008a B9F1000F 		cmp	r9, #0
 149 008e 06D0     		beq	.L9
1179:Drivers/lvgl/lvgl/src/core/lv_obj_pos.c ****         zoom = (256 * 256) / zoom;
 150              		.loc 1 1179 0
 151 0090 7642     		negs	r6, r6
 152 0092 37B2     		sxth	r7, r6
 153              	.LVL13:
1180:Drivers/lvgl/lvgl/src/core/lv_obj_pos.c ****     }
 154              		.loc 1 1180 0
 155 0094 4FF48033 		mov	r3, #65536
 156 0098 93FBF5F5 		sdiv	r5, r3, r5
 157 009c 2DB2     		sxth	r5, r5
 158              	.LVL14:
 159              	.L9:
1183:Drivers/lvgl/lvgl/src/core/lv_obj_pos.c **** }
 160              		.loc 1 1183 0
 161 009e 01AB     		add	r3, sp, #4
 162 00a0 2A46     		mov	r2, r5
 163 00a2 3946     		mov	r1, r7
 164 00a4 4046     		mov	r0, r8
 165 00a6 FFF7FEFF 		bl	lv_point_transform
 166              	.LVL15:
 167 00aa C4E7     		b	.L1
 168              	.LVL16:
 169              	.L13:
1168:Drivers/lvgl/lvgl/src/core/lv_obj_pos.c ****         pivot.x = (LV_COORD_GET_PCT(pivot.x) * lv_area_get_width(&obj->coords)) / 100;
 170              		.loc 1 1168 0 discriminator 1
 171 00ac 23F4C043 		bic	r3, r3, #24576
 172 00b0 B3F5FA6F 		cmp	r3, #2000
 173 00b4 D8DC     		bgt	.L3
1169:Drivers/lvgl/lvgl/src/core/lv_obj_pos.c ****     }
 174              		.loc 1 1169 0
 175 00b6 B3F57A7F 		cmp	r3, #1000
 176 00ba 01DD     		ble	.L5
1169:Drivers/lvgl/lvgl/src/core/lv_obj_pos.c ****     }
 177              		.loc 1 1169 0 is_stmt 0 discriminator 1
 178 00bc C3F57A73 		rsb	r3, r3, #1000
 179              	.L5:
 180              	.LVL17:
 181              	.LBB211:
 182              	.LBB212:
 183              		.file 3 "Drivers/lvgl/lvgl/src/core/../misc/../font/../misc/lv_area.h"
   1:Drivers/lvgl/lvgl/src/core/../misc/../font/../misc/lv_area.h **** /**
ARM GAS  /tmp/cc3JQQuJ.s 			page 27


   2:Drivers/lvgl/lvgl/src/core/../misc/../font/../misc/lv_area.h ****  * @file lv_area.h
   3:Drivers/lvgl/lvgl/src/core/../misc/../font/../misc/lv_area.h ****  *
   4:Drivers/lvgl/lvgl/src/core/../misc/../font/../misc/lv_area.h ****  */
   5:Drivers/lvgl/lvgl/src/core/../misc/../font/../misc/lv_area.h **** 
   6:Drivers/lvgl/lvgl/src/core/../misc/../font/../misc/lv_area.h **** #ifndef LV_AREA_H
   7:Drivers/lvgl/lvgl/src/core/../misc/../font/../misc/lv_area.h **** #define LV_AREA_H
   8:Drivers/lvgl/lvgl/src/core/../misc/../font/../misc/lv_area.h **** 
   9:Drivers/lvgl/lvgl/src/core/../misc/../font/../misc/lv_area.h **** #ifdef __cplusplus
  10:Drivers/lvgl/lvgl/src/core/../misc/../font/../misc/lv_area.h **** extern "C" {
  11:Drivers/lvgl/lvgl/src/core/../misc/../font/../misc/lv_area.h **** #endif
  12:Drivers/lvgl/lvgl/src/core/../misc/../font/../misc/lv_area.h **** 
  13:Drivers/lvgl/lvgl/src/core/../misc/../font/../misc/lv_area.h **** /*********************
  14:Drivers/lvgl/lvgl/src/core/../misc/../font/../misc/lv_area.h ****  *      INCLUDES
  15:Drivers/lvgl/lvgl/src/core/../misc/../font/../misc/lv_area.h ****  *********************/
  16:Drivers/lvgl/lvgl/src/core/../misc/../font/../misc/lv_area.h **** #include "../lv_conf_internal.h"
  17:Drivers/lvgl/lvgl/src/core/../misc/../font/../misc/lv_area.h **** #include <stdbool.h>
  18:Drivers/lvgl/lvgl/src/core/../misc/../font/../misc/lv_area.h **** #include <stdint.h>
  19:Drivers/lvgl/lvgl/src/core/../misc/../font/../misc/lv_area.h **** 
  20:Drivers/lvgl/lvgl/src/core/../misc/../font/../misc/lv_area.h **** /*********************
  21:Drivers/lvgl/lvgl/src/core/../misc/../font/../misc/lv_area.h ****  *      DEFINES
  22:Drivers/lvgl/lvgl/src/core/../misc/../font/../misc/lv_area.h ****  *********************/
  23:Drivers/lvgl/lvgl/src/core/../misc/../font/../misc/lv_area.h **** 
  24:Drivers/lvgl/lvgl/src/core/../misc/../font/../misc/lv_area.h **** #if LV_USE_LARGE_COORD
  25:Drivers/lvgl/lvgl/src/core/../misc/../font/../misc/lv_area.h **** typedef int32_t lv_coord_t;
  26:Drivers/lvgl/lvgl/src/core/../misc/../font/../misc/lv_area.h **** #else
  27:Drivers/lvgl/lvgl/src/core/../misc/../font/../misc/lv_area.h **** typedef int16_t lv_coord_t;
  28:Drivers/lvgl/lvgl/src/core/../misc/../font/../misc/lv_area.h **** #endif
  29:Drivers/lvgl/lvgl/src/core/../misc/../font/../misc/lv_area.h **** 
  30:Drivers/lvgl/lvgl/src/core/../misc/../font/../misc/lv_area.h **** /**********************
  31:Drivers/lvgl/lvgl/src/core/../misc/../font/../misc/lv_area.h ****  *      TYPEDEFS
  32:Drivers/lvgl/lvgl/src/core/../misc/../font/../misc/lv_area.h ****  **********************/
  33:Drivers/lvgl/lvgl/src/core/../misc/../font/../misc/lv_area.h **** 
  34:Drivers/lvgl/lvgl/src/core/../misc/../font/../misc/lv_area.h **** /**
  35:Drivers/lvgl/lvgl/src/core/../misc/../font/../misc/lv_area.h ****  * Represents a point on the screen.
  36:Drivers/lvgl/lvgl/src/core/../misc/../font/../misc/lv_area.h ****  */
  37:Drivers/lvgl/lvgl/src/core/../misc/../font/../misc/lv_area.h **** typedef struct {
  38:Drivers/lvgl/lvgl/src/core/../misc/../font/../misc/lv_area.h ****     lv_coord_t x;
  39:Drivers/lvgl/lvgl/src/core/../misc/../font/../misc/lv_area.h ****     lv_coord_t y;
  40:Drivers/lvgl/lvgl/src/core/../misc/../font/../misc/lv_area.h **** } lv_point_t;
  41:Drivers/lvgl/lvgl/src/core/../misc/../font/../misc/lv_area.h **** 
  42:Drivers/lvgl/lvgl/src/core/../misc/../font/../misc/lv_area.h **** /** Represents an area of the screen.*/
  43:Drivers/lvgl/lvgl/src/core/../misc/../font/../misc/lv_area.h **** typedef struct {
  44:Drivers/lvgl/lvgl/src/core/../misc/../font/../misc/lv_area.h ****     lv_coord_t x1;
  45:Drivers/lvgl/lvgl/src/core/../misc/../font/../misc/lv_area.h ****     lv_coord_t y1;
  46:Drivers/lvgl/lvgl/src/core/../misc/../font/../misc/lv_area.h ****     lv_coord_t x2;
  47:Drivers/lvgl/lvgl/src/core/../misc/../font/../misc/lv_area.h ****     lv_coord_t y2;
  48:Drivers/lvgl/lvgl/src/core/../misc/../font/../misc/lv_area.h **** } lv_area_t;
  49:Drivers/lvgl/lvgl/src/core/../misc/../font/../misc/lv_area.h **** 
  50:Drivers/lvgl/lvgl/src/core/../misc/../font/../misc/lv_area.h **** /** Alignments*/
  51:Drivers/lvgl/lvgl/src/core/../misc/../font/../misc/lv_area.h **** enum {
  52:Drivers/lvgl/lvgl/src/core/../misc/../font/../misc/lv_area.h ****     LV_ALIGN_DEFAULT = 0,
  53:Drivers/lvgl/lvgl/src/core/../misc/../font/../misc/lv_area.h ****     LV_ALIGN_TOP_LEFT,
  54:Drivers/lvgl/lvgl/src/core/../misc/../font/../misc/lv_area.h ****     LV_ALIGN_TOP_MID,
  55:Drivers/lvgl/lvgl/src/core/../misc/../font/../misc/lv_area.h ****     LV_ALIGN_TOP_RIGHT,
  56:Drivers/lvgl/lvgl/src/core/../misc/../font/../misc/lv_area.h ****     LV_ALIGN_BOTTOM_LEFT,
  57:Drivers/lvgl/lvgl/src/core/../misc/../font/../misc/lv_area.h ****     LV_ALIGN_BOTTOM_MID,
  58:Drivers/lvgl/lvgl/src/core/../misc/../font/../misc/lv_area.h ****     LV_ALIGN_BOTTOM_RIGHT,
ARM GAS  /tmp/cc3JQQuJ.s 			page 28


  59:Drivers/lvgl/lvgl/src/core/../misc/../font/../misc/lv_area.h ****     LV_ALIGN_LEFT_MID,
  60:Drivers/lvgl/lvgl/src/core/../misc/../font/../misc/lv_area.h ****     LV_ALIGN_RIGHT_MID,
  61:Drivers/lvgl/lvgl/src/core/../misc/../font/../misc/lv_area.h ****     LV_ALIGN_CENTER,
  62:Drivers/lvgl/lvgl/src/core/../misc/../font/../misc/lv_area.h **** 
  63:Drivers/lvgl/lvgl/src/core/../misc/../font/../misc/lv_area.h ****     LV_ALIGN_OUT_TOP_LEFT,
  64:Drivers/lvgl/lvgl/src/core/../misc/../font/../misc/lv_area.h ****     LV_ALIGN_OUT_TOP_MID,
  65:Drivers/lvgl/lvgl/src/core/../misc/../font/../misc/lv_area.h ****     LV_ALIGN_OUT_TOP_RIGHT,
  66:Drivers/lvgl/lvgl/src/core/../misc/../font/../misc/lv_area.h ****     LV_ALIGN_OUT_BOTTOM_LEFT,
  67:Drivers/lvgl/lvgl/src/core/../misc/../font/../misc/lv_area.h ****     LV_ALIGN_OUT_BOTTOM_MID,
  68:Drivers/lvgl/lvgl/src/core/../misc/../font/../misc/lv_area.h ****     LV_ALIGN_OUT_BOTTOM_RIGHT,
  69:Drivers/lvgl/lvgl/src/core/../misc/../font/../misc/lv_area.h ****     LV_ALIGN_OUT_LEFT_TOP,
  70:Drivers/lvgl/lvgl/src/core/../misc/../font/../misc/lv_area.h ****     LV_ALIGN_OUT_LEFT_MID,
  71:Drivers/lvgl/lvgl/src/core/../misc/../font/../misc/lv_area.h ****     LV_ALIGN_OUT_LEFT_BOTTOM,
  72:Drivers/lvgl/lvgl/src/core/../misc/../font/../misc/lv_area.h ****     LV_ALIGN_OUT_RIGHT_TOP,
  73:Drivers/lvgl/lvgl/src/core/../misc/../font/../misc/lv_area.h ****     LV_ALIGN_OUT_RIGHT_MID,
  74:Drivers/lvgl/lvgl/src/core/../misc/../font/../misc/lv_area.h ****     LV_ALIGN_OUT_RIGHT_BOTTOM,
  75:Drivers/lvgl/lvgl/src/core/../misc/../font/../misc/lv_area.h **** };
  76:Drivers/lvgl/lvgl/src/core/../misc/../font/../misc/lv_area.h **** typedef uint8_t lv_align_t;
  77:Drivers/lvgl/lvgl/src/core/../misc/../font/../misc/lv_area.h **** 
  78:Drivers/lvgl/lvgl/src/core/../misc/../font/../misc/lv_area.h **** enum {
  79:Drivers/lvgl/lvgl/src/core/../misc/../font/../misc/lv_area.h ****     LV_DIR_NONE     = 0x00,
  80:Drivers/lvgl/lvgl/src/core/../misc/../font/../misc/lv_area.h ****     LV_DIR_LEFT     = (1 << 0),
  81:Drivers/lvgl/lvgl/src/core/../misc/../font/../misc/lv_area.h ****     LV_DIR_RIGHT    = (1 << 1),
  82:Drivers/lvgl/lvgl/src/core/../misc/../font/../misc/lv_area.h ****     LV_DIR_TOP      = (1 << 2),
  83:Drivers/lvgl/lvgl/src/core/../misc/../font/../misc/lv_area.h ****     LV_DIR_BOTTOM   = (1 << 3),
  84:Drivers/lvgl/lvgl/src/core/../misc/../font/../misc/lv_area.h ****     LV_DIR_HOR      = LV_DIR_LEFT | LV_DIR_RIGHT,
  85:Drivers/lvgl/lvgl/src/core/../misc/../font/../misc/lv_area.h ****     LV_DIR_VER      = LV_DIR_TOP | LV_DIR_BOTTOM,
  86:Drivers/lvgl/lvgl/src/core/../misc/../font/../misc/lv_area.h ****     LV_DIR_ALL      = LV_DIR_HOR | LV_DIR_VER,
  87:Drivers/lvgl/lvgl/src/core/../misc/../font/../misc/lv_area.h **** };
  88:Drivers/lvgl/lvgl/src/core/../misc/../font/../misc/lv_area.h **** 
  89:Drivers/lvgl/lvgl/src/core/../misc/../font/../misc/lv_area.h **** typedef uint8_t lv_dir_t;
  90:Drivers/lvgl/lvgl/src/core/../misc/../font/../misc/lv_area.h **** 
  91:Drivers/lvgl/lvgl/src/core/../misc/../font/../misc/lv_area.h **** /**********************
  92:Drivers/lvgl/lvgl/src/core/../misc/../font/../misc/lv_area.h ****  * GLOBAL PROTOTYPES
  93:Drivers/lvgl/lvgl/src/core/../misc/../font/../misc/lv_area.h ****  **********************/
  94:Drivers/lvgl/lvgl/src/core/../misc/../font/../misc/lv_area.h **** 
  95:Drivers/lvgl/lvgl/src/core/../misc/../font/../misc/lv_area.h **** /**
  96:Drivers/lvgl/lvgl/src/core/../misc/../font/../misc/lv_area.h ****  * Initialize an area
  97:Drivers/lvgl/lvgl/src/core/../misc/../font/../misc/lv_area.h ****  * @param area_p pointer to an area
  98:Drivers/lvgl/lvgl/src/core/../misc/../font/../misc/lv_area.h ****  * @param x1 left coordinate of the area
  99:Drivers/lvgl/lvgl/src/core/../misc/../font/../misc/lv_area.h ****  * @param y1 top coordinate of the area
 100:Drivers/lvgl/lvgl/src/core/../misc/../font/../misc/lv_area.h ****  * @param x2 right coordinate of the area
 101:Drivers/lvgl/lvgl/src/core/../misc/../font/../misc/lv_area.h ****  * @param y2 bottom coordinate of the area
 102:Drivers/lvgl/lvgl/src/core/../misc/../font/../misc/lv_area.h ****  */
 103:Drivers/lvgl/lvgl/src/core/../misc/../font/../misc/lv_area.h **** void lv_area_set(lv_area_t * area_p, lv_coord_t x1, lv_coord_t y1, lv_coord_t x2, lv_coord_t y2);
 104:Drivers/lvgl/lvgl/src/core/../misc/../font/../misc/lv_area.h **** 
 105:Drivers/lvgl/lvgl/src/core/../misc/../font/../misc/lv_area.h **** /**
 106:Drivers/lvgl/lvgl/src/core/../misc/../font/../misc/lv_area.h ****  * Copy an area
 107:Drivers/lvgl/lvgl/src/core/../misc/../font/../misc/lv_area.h ****  * @param dest pointer to the destination area
 108:Drivers/lvgl/lvgl/src/core/../misc/../font/../misc/lv_area.h ****  * @param src pointer to the source area
 109:Drivers/lvgl/lvgl/src/core/../misc/../font/../misc/lv_area.h ****  */
 110:Drivers/lvgl/lvgl/src/core/../misc/../font/../misc/lv_area.h **** inline static void lv_area_copy(lv_area_t * dest, const lv_area_t * src)
 111:Drivers/lvgl/lvgl/src/core/../misc/../font/../misc/lv_area.h **** {
 112:Drivers/lvgl/lvgl/src/core/../misc/../font/../misc/lv_area.h ****     dest->x1 = src->x1;
 113:Drivers/lvgl/lvgl/src/core/../misc/../font/../misc/lv_area.h ****     dest->y1 = src->y1;
 114:Drivers/lvgl/lvgl/src/core/../misc/../font/../misc/lv_area.h ****     dest->x2 = src->x2;
 115:Drivers/lvgl/lvgl/src/core/../misc/../font/../misc/lv_area.h ****     dest->y2 = src->y2;
ARM GAS  /tmp/cc3JQQuJ.s 			page 29


 116:Drivers/lvgl/lvgl/src/core/../misc/../font/../misc/lv_area.h **** }
 117:Drivers/lvgl/lvgl/src/core/../misc/../font/../misc/lv_area.h **** 
 118:Drivers/lvgl/lvgl/src/core/../misc/../font/../misc/lv_area.h **** /**
 119:Drivers/lvgl/lvgl/src/core/../misc/../font/../misc/lv_area.h ****  * Get the width of an area
 120:Drivers/lvgl/lvgl/src/core/../misc/../font/../misc/lv_area.h ****  * @param area_p pointer to an area
 121:Drivers/lvgl/lvgl/src/core/../misc/../font/../misc/lv_area.h ****  * @return the width of the area (if x1 == x2 -> width = 1)
 122:Drivers/lvgl/lvgl/src/core/../misc/../font/../misc/lv_area.h ****  */
 123:Drivers/lvgl/lvgl/src/core/../misc/../font/../misc/lv_area.h **** static inline lv_coord_t lv_area_get_width(const lv_area_t * area_p)
 124:Drivers/lvgl/lvgl/src/core/../misc/../font/../misc/lv_area.h **** {
 125:Drivers/lvgl/lvgl/src/core/../misc/../font/../misc/lv_area.h ****     return (lv_coord_t)(area_p->x2 - area_p->x1 + 1);
 184              		.loc 3 125 0 is_stmt 1 discriminator 4
 185 00c0 228B     		ldrh	r2, [r4, #24]
 186 00c2 A18A     		ldrh	r1, [r4, #20]
 187 00c4 521A     		subs	r2, r2, r1
 188 00c6 92B2     		uxth	r2, r2
 189 00c8 0132     		adds	r2, r2, #1
 190 00ca 12B2     		sxth	r2, r2
 191              	.LVL18:
 192              	.LBE212:
 193              	.LBE211:
1169:Drivers/lvgl/lvgl/src/core/lv_obj_pos.c ****     }
 194              		.loc 1 1169 0 discriminator 4
 195 00cc 03FB02F3 		mul	r3, r3, r2
 196 00d0 114A     		ldr	r2, .L15
 197 00d2 82FB0312 		smull	r1, r2, r2, r3
 198 00d6 DB17     		asrs	r3, r3, #31
 199 00d8 C3EB6213 		rsb	r3, r3, r2, asr #5
 200 00dc ADF80430 		strh	r3, [sp, #4]	@ movhi
 201 00e0 C2E7     		b	.L3
 202              	.L14:
1171:Drivers/lvgl/lvgl/src/core/lv_obj_pos.c ****         pivot.y = (LV_COORD_GET_PCT(pivot.y) * lv_area_get_height(&obj->coords)) / 100;
 203              		.loc 1 1171 0 discriminator 1
 204 00e2 20F4C040 		bic	r0, r0, #24576
 205 00e6 B0F5FA6F 		cmp	r0, #2000
 206 00ea C2DC     		bgt	.L6
1172:Drivers/lvgl/lvgl/src/core/lv_obj_pos.c ****     }
 207              		.loc 1 1172 0
 208 00ec B0F57A7F 		cmp	r0, #1000
 209 00f0 01DD     		ble	.L8
1172:Drivers/lvgl/lvgl/src/core/lv_obj_pos.c ****     }
 210              		.loc 1 1172 0 is_stmt 0 discriminator 1
 211 00f2 C0F57A70 		rsb	r0, r0, #1000
 212              	.L8:
 213              	.LVL19:
 214              	.LBB213:
 215              	.LBB214:
 126:Drivers/lvgl/lvgl/src/core/../misc/../font/../misc/lv_area.h **** }
 127:Drivers/lvgl/lvgl/src/core/../misc/../font/../misc/lv_area.h **** 
 128:Drivers/lvgl/lvgl/src/core/../misc/../font/../misc/lv_area.h **** /**
 129:Drivers/lvgl/lvgl/src/core/../misc/../font/../misc/lv_area.h ****  * Get the height of an area
 130:Drivers/lvgl/lvgl/src/core/../misc/../font/../misc/lv_area.h ****  * @param area_p pointer to an area
 131:Drivers/lvgl/lvgl/src/core/../misc/../font/../misc/lv_area.h ****  * @return the height of the area (if y1 == y2 -> height = 1)
 132:Drivers/lvgl/lvgl/src/core/../misc/../font/../misc/lv_area.h ****  */
 133:Drivers/lvgl/lvgl/src/core/../misc/../font/../misc/lv_area.h **** static inline lv_coord_t lv_area_get_height(const lv_area_t * area_p)
 134:Drivers/lvgl/lvgl/src/core/../misc/../font/../misc/lv_area.h **** {
 135:Drivers/lvgl/lvgl/src/core/../misc/../font/../misc/lv_area.h ****     return (lv_coord_t)(area_p->y2 - area_p->y1 + 1);
 216              		.loc 3 135 0 is_stmt 1 discriminator 4
ARM GAS  /tmp/cc3JQQuJ.s 			page 30


 217 00f6 638B     		ldrh	r3, [r4, #26]
 218 00f8 E28A     		ldrh	r2, [r4, #22]
 219 00fa 9B1A     		subs	r3, r3, r2
 220 00fc 9BB2     		uxth	r3, r3
 221 00fe 0133     		adds	r3, r3, #1
 222 0100 1BB2     		sxth	r3, r3
 223              	.LVL20:
 224              	.LBE214:
 225              	.LBE213:
1172:Drivers/lvgl/lvgl/src/core/lv_obj_pos.c ****     }
 226              		.loc 1 1172 0 discriminator 4
 227 0102 00FB03F0 		mul	r0, r0, r3
 228 0106 044B     		ldr	r3, .L15
 229 0108 83FB0023 		smull	r2, r3, r3, r0
 230 010c C017     		asrs	r0, r0, #31
 231 010e C0EB6310 		rsb	r0, r0, r3, asr #5
 232 0112 ADF80600 		strh	r0, [sp, #6]	@ movhi
 233 0116 ACE7     		b	.L6
 234              	.L16:
 235              		.align	2
 236              	.L15:
 237 0118 1F85EB51 		.word	1374389535
 238              		.cfi_endproc
 239              	.LFE214:
 241              		.section	.text.lv_obj_set_x,"ax",%progbits
 242              		.align	1
 243              		.global	lv_obj_set_x
 244              		.syntax unified
 245              		.thumb
 246              		.thumb_func
 247              		.fpu fpv5-d16
 249              	lv_obj_set_x:
 250              	.LFB166:
  53:Drivers/lvgl/lvgl/src/core/lv_obj_pos.c ****     LV_ASSERT_OBJ(obj, MY_CLASS);
 251              		.loc 1 53 0
 252              		.cfi_startproc
 253              		@ args = 0, pretend = 0, frame = 8
 254              		@ frame_needed = 0, uses_anonymous_args = 0
 255              	.LVL21:
 256 0000 30B5     		push	{r4, r5, lr}
 257              	.LCFI4:
 258              		.cfi_def_cfa_offset 12
 259              		.cfi_offset 4, -12
 260              		.cfi_offset 5, -8
 261              		.cfi_offset 14, -4
 262 0002 83B0     		sub	sp, sp, #12
 263              	.LCFI5:
 264              		.cfi_def_cfa_offset 24
 265 0004 0546     		mov	r5, r0
 266 0006 0C46     		mov	r4, r1
  59:Drivers/lvgl/lvgl/src/core/lv_obj_pos.c **** 
 267              		.loc 1 59 0
 268 0008 0023     		movs	r3, #0
 269 000a 01AA     		add	r2, sp, #4
 270 000c 0721     		movs	r1, #7
 271              	.LVL22:
 272 000e FFF7FEFF 		bl	lv_obj_get_local_style_prop
ARM GAS  /tmp/cc3JQQuJ.s 			page 31


 273              	.LVL23:
  61:Drivers/lvgl/lvgl/src/core/lv_obj_pos.c ****         lv_obj_set_style_x(obj, x, 0);
 274              		.loc 1 61 0
 275 0012 0128     		cmp	r0, #1
 276 0014 07D0     		beq	.L22
 277              	.L18:
  61:Drivers/lvgl/lvgl/src/core/lv_obj_pos.c ****         lv_obj_set_style_x(obj, x, 0);
 278              		.loc 1 61 0 is_stmt 0 discriminator 3
 279 0016 20B9     		cbnz	r0, .L17
 280              	.L19:
  62:Drivers/lvgl/lvgl/src/core/lv_obj_pos.c ****     }
 281              		.loc 1 62 0 is_stmt 1
 282 0018 0022     		movs	r2, #0
 283 001a 2146     		mov	r1, r4
 284 001c 2846     		mov	r0, r5
 285              	.LVL24:
 286 001e FFF7FEFF 		bl	lv_obj_set_style_x
 287              	.LVL25:
 288              	.L17:
  64:Drivers/lvgl/lvgl/src/core/lv_obj_pos.c **** 
 289              		.loc 1 64 0
 290 0022 03B0     		add	sp, sp, #12
 291              	.LCFI6:
 292              		.cfi_remember_state
 293              		.cfi_def_cfa_offset 12
 294              		@ sp needed
 295 0024 30BD     		pop	{r4, r5, pc}
 296              	.LVL26:
 297              	.L22:
 298              	.LCFI7:
 299              		.cfi_restore_state
  61:Drivers/lvgl/lvgl/src/core/lv_obj_pos.c ****         lv_obj_set_style_x(obj, x, 0);
 300              		.loc 1 61 0 discriminator 1
 301 0026 019B     		ldr	r3, [sp, #4]
 302 0028 A342     		cmp	r3, r4
 303 002a F5D1     		bne	.L19
 304 002c F3E7     		b	.L18
 305              		.cfi_endproc
 306              	.LFE166:
 308              		.section	.text.lv_obj_set_y,"ax",%progbits
 309              		.align	1
 310              		.global	lv_obj_set_y
 311              		.syntax unified
 312              		.thumb
 313              		.thumb_func
 314              		.fpu fpv5-d16
 316              	lv_obj_set_y:
 317              	.LFB167:
  67:Drivers/lvgl/lvgl/src/core/lv_obj_pos.c ****     LV_ASSERT_OBJ(obj, MY_CLASS);
 318              		.loc 1 67 0
 319              		.cfi_startproc
 320              		@ args = 0, pretend = 0, frame = 8
 321              		@ frame_needed = 0, uses_anonymous_args = 0
 322              	.LVL27:
 323 0000 30B5     		push	{r4, r5, lr}
 324              	.LCFI8:
 325              		.cfi_def_cfa_offset 12
ARM GAS  /tmp/cc3JQQuJ.s 			page 32


 326              		.cfi_offset 4, -12
 327              		.cfi_offset 5, -8
 328              		.cfi_offset 14, -4
 329 0002 83B0     		sub	sp, sp, #12
 330              	.LCFI9:
 331              		.cfi_def_cfa_offset 24
 332 0004 0546     		mov	r5, r0
 333 0006 0C46     		mov	r4, r1
  73:Drivers/lvgl/lvgl/src/core/lv_obj_pos.c **** 
 334              		.loc 1 73 0
 335 0008 0023     		movs	r3, #0
 336 000a 01AA     		add	r2, sp, #4
 337 000c 0821     		movs	r1, #8
 338              	.LVL28:
 339 000e FFF7FEFF 		bl	lv_obj_get_local_style_prop
 340              	.LVL29:
  75:Drivers/lvgl/lvgl/src/core/lv_obj_pos.c ****         lv_obj_set_style_y(obj, y, 0);
 341              		.loc 1 75 0
 342 0012 0128     		cmp	r0, #1
 343 0014 07D0     		beq	.L28
 344              	.L24:
  75:Drivers/lvgl/lvgl/src/core/lv_obj_pos.c ****         lv_obj_set_style_y(obj, y, 0);
 345              		.loc 1 75 0 is_stmt 0 discriminator 3
 346 0016 20B9     		cbnz	r0, .L23
 347              	.L25:
  76:Drivers/lvgl/lvgl/src/core/lv_obj_pos.c ****     }
 348              		.loc 1 76 0 is_stmt 1
 349 0018 0022     		movs	r2, #0
 350 001a 2146     		mov	r1, r4
 351 001c 2846     		mov	r0, r5
 352              	.LVL30:
 353 001e FFF7FEFF 		bl	lv_obj_set_style_y
 354              	.LVL31:
 355              	.L23:
  78:Drivers/lvgl/lvgl/src/core/lv_obj_pos.c **** 
 356              		.loc 1 78 0
 357 0022 03B0     		add	sp, sp, #12
 358              	.LCFI10:
 359              		.cfi_remember_state
 360              		.cfi_def_cfa_offset 12
 361              		@ sp needed
 362 0024 30BD     		pop	{r4, r5, pc}
 363              	.LVL32:
 364              	.L28:
 365              	.LCFI11:
 366              		.cfi_restore_state
  75:Drivers/lvgl/lvgl/src/core/lv_obj_pos.c ****         lv_obj_set_style_y(obj, y, 0);
 367              		.loc 1 75 0 discriminator 1
 368 0026 019B     		ldr	r3, [sp, #4]
 369 0028 A342     		cmp	r3, r4
 370 002a F5D1     		bne	.L25
 371 002c F3E7     		b	.L24
 372              		.cfi_endproc
 373              	.LFE167:
 375              		.section	.text.lv_obj_set_pos,"ax",%progbits
 376              		.align	1
 377              		.global	lv_obj_set_pos
ARM GAS  /tmp/cc3JQQuJ.s 			page 33


 378              		.syntax unified
 379              		.thumb
 380              		.thumb_func
 381              		.fpu fpv5-d16
 383              	lv_obj_set_pos:
 384              	.LFB165:
  45:Drivers/lvgl/lvgl/src/core/lv_obj_pos.c ****     LV_ASSERT_OBJ(obj, MY_CLASS);
 385              		.loc 1 45 0
 386              		.cfi_startproc
 387              		@ args = 0, pretend = 0, frame = 0
 388              		@ frame_needed = 0, uses_anonymous_args = 0
 389              	.LVL33:
 390 0000 38B5     		push	{r3, r4, r5, lr}
 391              	.LCFI12:
 392              		.cfi_def_cfa_offset 16
 393              		.cfi_offset 3, -16
 394              		.cfi_offset 4, -12
 395              		.cfi_offset 5, -8
 396              		.cfi_offset 14, -4
 397 0002 0446     		mov	r4, r0
 398 0004 1546     		mov	r5, r2
  48:Drivers/lvgl/lvgl/src/core/lv_obj_pos.c ****     lv_obj_set_y(obj, y);
 399              		.loc 1 48 0
 400 0006 FFF7FEFF 		bl	lv_obj_set_x
 401              	.LVL34:
  49:Drivers/lvgl/lvgl/src/core/lv_obj_pos.c **** }
 402              		.loc 1 49 0
 403 000a 2946     		mov	r1, r5
 404 000c 2046     		mov	r0, r4
 405 000e FFF7FEFF 		bl	lv_obj_set_y
 406              	.LVL35:
  50:Drivers/lvgl/lvgl/src/core/lv_obj_pos.c **** 
 407              		.loc 1 50 0
 408 0012 38BD     		pop	{r3, r4, r5, pc}
 409              		.cfi_endproc
 410              	.LFE165:
 412              		.section	.text.lv_obj_set_width,"ax",%progbits
 413              		.align	1
 414              		.global	lv_obj_set_width
 415              		.syntax unified
 416              		.thumb
 417              		.thumb_func
 418              		.fpu fpv5-d16
 420              	lv_obj_set_width:
 421              	.LFB170:
 224:Drivers/lvgl/lvgl/src/core/lv_obj_pos.c ****     LV_ASSERT_OBJ(obj, MY_CLASS);
 422              		.loc 1 224 0
 423              		.cfi_startproc
 424              		@ args = 0, pretend = 0, frame = 8
 425              		@ frame_needed = 0, uses_anonymous_args = 0
 426              	.LVL36:
 427 0000 30B5     		push	{r4, r5, lr}
 428              	.LCFI13:
 429              		.cfi_def_cfa_offset 12
 430              		.cfi_offset 4, -12
 431              		.cfi_offset 5, -8
 432              		.cfi_offset 14, -4
ARM GAS  /tmp/cc3JQQuJ.s 			page 34


 433 0002 83B0     		sub	sp, sp, #12
 434              	.LCFI14:
 435              		.cfi_def_cfa_offset 24
 436 0004 0546     		mov	r5, r0
 437 0006 0C46     		mov	r4, r1
 229:Drivers/lvgl/lvgl/src/core/lv_obj_pos.c **** 
 438              		.loc 1 229 0
 439 0008 0023     		movs	r3, #0
 440 000a 01AA     		add	r2, sp, #4
 441 000c 0121     		movs	r1, #1
 442              	.LVL37:
 443 000e FFF7FEFF 		bl	lv_obj_get_local_style_prop
 444              	.LVL38:
 231:Drivers/lvgl/lvgl/src/core/lv_obj_pos.c ****         lv_obj_set_style_width(obj, w, 0);
 445              		.loc 1 231 0
 446 0012 0128     		cmp	r0, #1
 447 0014 07D0     		beq	.L36
 448              	.L32:
 231:Drivers/lvgl/lvgl/src/core/lv_obj_pos.c ****         lv_obj_set_style_width(obj, w, 0);
 449              		.loc 1 231 0 is_stmt 0 discriminator 3
 450 0016 20B9     		cbnz	r0, .L31
 451              	.L33:
 232:Drivers/lvgl/lvgl/src/core/lv_obj_pos.c ****     }
 452              		.loc 1 232 0 is_stmt 1
 453 0018 0022     		movs	r2, #0
 454 001a 2146     		mov	r1, r4
 455 001c 2846     		mov	r0, r5
 456              	.LVL39:
 457 001e FFF7FEFF 		bl	lv_obj_set_style_width
 458              	.LVL40:
 459              	.L31:
 234:Drivers/lvgl/lvgl/src/core/lv_obj_pos.c **** 
 460              		.loc 1 234 0
 461 0022 03B0     		add	sp, sp, #12
 462              	.LCFI15:
 463              		.cfi_remember_state
 464              		.cfi_def_cfa_offset 12
 465              		@ sp needed
 466 0024 30BD     		pop	{r4, r5, pc}
 467              	.LVL41:
 468              	.L36:
 469              	.LCFI16:
 470              		.cfi_restore_state
 231:Drivers/lvgl/lvgl/src/core/lv_obj_pos.c ****         lv_obj_set_style_width(obj, w, 0);
 471              		.loc 1 231 0 discriminator 1
 472 0026 019B     		ldr	r3, [sp, #4]
 473 0028 A342     		cmp	r3, r4
 474 002a F5D1     		bne	.L33
 475 002c F3E7     		b	.L32
 476              		.cfi_endproc
 477              	.LFE170:
 479              		.section	.text.lv_obj_set_height,"ax",%progbits
 480              		.align	1
 481              		.global	lv_obj_set_height
 482              		.syntax unified
 483              		.thumb
 484              		.thumb_func
ARM GAS  /tmp/cc3JQQuJ.s 			page 35


 485              		.fpu fpv5-d16
 487              	lv_obj_set_height:
 488              	.LFB171:
 237:Drivers/lvgl/lvgl/src/core/lv_obj_pos.c ****     LV_ASSERT_OBJ(obj, MY_CLASS);
 489              		.loc 1 237 0
 490              		.cfi_startproc
 491              		@ args = 0, pretend = 0, frame = 8
 492              		@ frame_needed = 0, uses_anonymous_args = 0
 493              	.LVL42:
 494 0000 30B5     		push	{r4, r5, lr}
 495              	.LCFI17:
 496              		.cfi_def_cfa_offset 12
 497              		.cfi_offset 4, -12
 498              		.cfi_offset 5, -8
 499              		.cfi_offset 14, -4
 500 0002 83B0     		sub	sp, sp, #12
 501              	.LCFI18:
 502              		.cfi_def_cfa_offset 24
 503 0004 0546     		mov	r5, r0
 504 0006 0C46     		mov	r4, r1
 242:Drivers/lvgl/lvgl/src/core/lv_obj_pos.c **** 
 505              		.loc 1 242 0
 506 0008 0023     		movs	r3, #0
 507 000a 01AA     		add	r2, sp, #4
 508 000c 0421     		movs	r1, #4
 509              	.LVL43:
 510 000e FFF7FEFF 		bl	lv_obj_get_local_style_prop
 511              	.LVL44:
 244:Drivers/lvgl/lvgl/src/core/lv_obj_pos.c ****         lv_obj_set_style_height(obj, h, 0);
 512              		.loc 1 244 0
 513 0012 0128     		cmp	r0, #1
 514 0014 07D0     		beq	.L42
 515              	.L38:
 244:Drivers/lvgl/lvgl/src/core/lv_obj_pos.c ****         lv_obj_set_style_height(obj, h, 0);
 516              		.loc 1 244 0 is_stmt 0 discriminator 3
 517 0016 20B9     		cbnz	r0, .L37
 518              	.L39:
 245:Drivers/lvgl/lvgl/src/core/lv_obj_pos.c ****     }
 519              		.loc 1 245 0 is_stmt 1
 520 0018 0022     		movs	r2, #0
 521 001a 2146     		mov	r1, r4
 522 001c 2846     		mov	r0, r5
 523              	.LVL45:
 524 001e FFF7FEFF 		bl	lv_obj_set_style_height
 525              	.LVL46:
 526              	.L37:
 247:Drivers/lvgl/lvgl/src/core/lv_obj_pos.c **** 
 527              		.loc 1 247 0
 528 0022 03B0     		add	sp, sp, #12
 529              	.LCFI19:
 530              		.cfi_remember_state
 531              		.cfi_def_cfa_offset 12
 532              		@ sp needed
 533 0024 30BD     		pop	{r4, r5, pc}
 534              	.LVL47:
 535              	.L42:
 536              	.LCFI20:
ARM GAS  /tmp/cc3JQQuJ.s 			page 36


 537              		.cfi_restore_state
 244:Drivers/lvgl/lvgl/src/core/lv_obj_pos.c ****         lv_obj_set_style_height(obj, h, 0);
 538              		.loc 1 244 0 discriminator 1
 539 0026 019B     		ldr	r3, [sp, #4]
 540 0028 A342     		cmp	r3, r4
 541 002a F5D1     		bne	.L39
 542 002c F3E7     		b	.L38
 543              		.cfi_endproc
 544              	.LFE171:
 546              		.section	.text.lv_obj_set_size,"ax",%progbits
 547              		.align	1
 548              		.global	lv_obj_set_size
 549              		.syntax unified
 550              		.thumb
 551              		.thumb_func
 552              		.fpu fpv5-d16
 554              	lv_obj_set_size:
 555              	.LFB169:
 216:Drivers/lvgl/lvgl/src/core/lv_obj_pos.c ****     LV_ASSERT_OBJ(obj, MY_CLASS);
 556              		.loc 1 216 0
 557              		.cfi_startproc
 558              		@ args = 0, pretend = 0, frame = 0
 559              		@ frame_needed = 0, uses_anonymous_args = 0
 560              	.LVL48:
 561 0000 38B5     		push	{r3, r4, r5, lr}
 562              	.LCFI21:
 563              		.cfi_def_cfa_offset 16
 564              		.cfi_offset 3, -16
 565              		.cfi_offset 4, -12
 566              		.cfi_offset 5, -8
 567              		.cfi_offset 14, -4
 568 0002 0446     		mov	r4, r0
 569 0004 1546     		mov	r5, r2
 219:Drivers/lvgl/lvgl/src/core/lv_obj_pos.c ****     lv_obj_set_height(obj, h);
 570              		.loc 1 219 0
 571 0006 FFF7FEFF 		bl	lv_obj_set_width
 572              	.LVL49:
 220:Drivers/lvgl/lvgl/src/core/lv_obj_pos.c **** }
 573              		.loc 1 220 0
 574 000a 2946     		mov	r1, r5
 575 000c 2046     		mov	r0, r4
 576 000e FFF7FEFF 		bl	lv_obj_set_height
 577              	.LVL50:
 221:Drivers/lvgl/lvgl/src/core/lv_obj_pos.c **** 
 578              		.loc 1 221 0
 579 0012 38BD     		pop	{r3, r4, r5, pc}
 580              		.cfi_endproc
 581              	.LFE169:
 583              		.section	.text.lv_obj_set_content_width,"ax",%progbits
 584              		.align	1
 585              		.global	lv_obj_set_content_width
 586              		.syntax unified
 587              		.thumb
 588              		.thumb_func
 589              		.fpu fpv5-d16
 591              	lv_obj_set_content_width:
 592              	.LFB172:
ARM GAS  /tmp/cc3JQQuJ.s 			page 37


 250:Drivers/lvgl/lvgl/src/core/lv_obj_pos.c ****     lv_coord_t pleft = lv_obj_get_style_pad_left(obj, LV_PART_MAIN);
 593              		.loc 1 250 0
 594              		.cfi_startproc
 595              		@ args = 0, pretend = 0, frame = 0
 596              		@ frame_needed = 0, uses_anonymous_args = 0
 597              	.LVL51:
 598 0000 F8B5     		push	{r3, r4, r5, r6, r7, lr}
 599              	.LCFI22:
 600              		.cfi_def_cfa_offset 24
 601              		.cfi_offset 3, -24
 602              		.cfi_offset 4, -20
 603              		.cfi_offset 5, -16
 604              		.cfi_offset 6, -12
 605              		.cfi_offset 7, -8
 606              		.cfi_offset 14, -4
 607 0002 0546     		mov	r5, r0
 608 0004 0C46     		mov	r4, r1
 609              	.LVL52:
 610              	.LBB215:
 611              	.LBB216:
 101:Drivers/lvgl/lvgl/src/core/lv_obj_style_gen.h **** }
 102:Drivers/lvgl/lvgl/src/core/lv_obj_style_gen.h **** 
 103:Drivers/lvgl/lvgl/src/core/lv_obj_style_gen.h **** static inline lv_coord_t lv_obj_get_style_pad_top(const struct _lv_obj_t * obj, uint32_t part)
 104:Drivers/lvgl/lvgl/src/core/lv_obj_style_gen.h **** {
 105:Drivers/lvgl/lvgl/src/core/lv_obj_style_gen.h ****     lv_style_value_t v = lv_obj_get_style_prop(obj, part, LV_STYLE_PAD_TOP);
 106:Drivers/lvgl/lvgl/src/core/lv_obj_style_gen.h ****     return (lv_coord_t)v.num;
 107:Drivers/lvgl/lvgl/src/core/lv_obj_style_gen.h **** }
 108:Drivers/lvgl/lvgl/src/core/lv_obj_style_gen.h **** 
 109:Drivers/lvgl/lvgl/src/core/lv_obj_style_gen.h **** static inline lv_coord_t lv_obj_get_style_pad_bottom(const struct _lv_obj_t * obj, uint32_t part)
 110:Drivers/lvgl/lvgl/src/core/lv_obj_style_gen.h **** {
 111:Drivers/lvgl/lvgl/src/core/lv_obj_style_gen.h ****     lv_style_value_t v = lv_obj_get_style_prop(obj, part, LV_STYLE_PAD_BOTTOM);
 112:Drivers/lvgl/lvgl/src/core/lv_obj_style_gen.h ****     return (lv_coord_t)v.num;
 113:Drivers/lvgl/lvgl/src/core/lv_obj_style_gen.h **** }
 114:Drivers/lvgl/lvgl/src/core/lv_obj_style_gen.h **** 
 115:Drivers/lvgl/lvgl/src/core/lv_obj_style_gen.h **** static inline lv_coord_t lv_obj_get_style_pad_left(const struct _lv_obj_t * obj, uint32_t part)
 116:Drivers/lvgl/lvgl/src/core/lv_obj_style_gen.h **** {
 117:Drivers/lvgl/lvgl/src/core/lv_obj_style_gen.h ****     lv_style_value_t v = lv_obj_get_style_prop(obj, part, LV_STYLE_PAD_LEFT);
 612              		.loc 2 117 0
 613 0006 1222     		movs	r2, #18
 614 0008 0021     		movs	r1, #0
 615              	.LVL53:
 616 000a FFF7FEFF 		bl	lv_obj_get_style_prop
 617              	.LVL54:
 618 000e 0746     		mov	r7, r0
 619              	.LVL55:
 620              	.LBE216:
 621              	.LBE215:
 622              	.LBB217:
 623              	.LBB218:
 118:Drivers/lvgl/lvgl/src/core/lv_obj_style_gen.h ****     return (lv_coord_t)v.num;
 119:Drivers/lvgl/lvgl/src/core/lv_obj_style_gen.h **** }
 120:Drivers/lvgl/lvgl/src/core/lv_obj_style_gen.h **** 
 121:Drivers/lvgl/lvgl/src/core/lv_obj_style_gen.h **** static inline lv_coord_t lv_obj_get_style_pad_right(const struct _lv_obj_t * obj, uint32_t part)
 122:Drivers/lvgl/lvgl/src/core/lv_obj_style_gen.h **** {
 123:Drivers/lvgl/lvgl/src/core/lv_obj_style_gen.h ****     lv_style_value_t v = lv_obj_get_style_prop(obj, part, LV_STYLE_PAD_RIGHT);
 624              		.loc 2 123 0
 625 0010 1322     		movs	r2, #19
ARM GAS  /tmp/cc3JQQuJ.s 			page 38


 626 0012 0021     		movs	r1, #0
 627 0014 2846     		mov	r0, r5
 628 0016 FFF7FEFF 		bl	lv_obj_get_style_prop
 629              	.LVL56:
 630 001a 0646     		mov	r6, r0
 631              	.LVL57:
 632              	.LBE218:
 633              	.LBE217:
 634              	.LBB219:
 635              	.LBB220:
 124:Drivers/lvgl/lvgl/src/core/lv_obj_style_gen.h ****     return (lv_coord_t)v.num;
 125:Drivers/lvgl/lvgl/src/core/lv_obj_style_gen.h **** }
 126:Drivers/lvgl/lvgl/src/core/lv_obj_style_gen.h **** 
 127:Drivers/lvgl/lvgl/src/core/lv_obj_style_gen.h **** static inline lv_coord_t lv_obj_get_style_pad_row(const struct _lv_obj_t * obj, uint32_t part)
 128:Drivers/lvgl/lvgl/src/core/lv_obj_style_gen.h **** {
 129:Drivers/lvgl/lvgl/src/core/lv_obj_style_gen.h ****     lv_style_value_t v = lv_obj_get_style_prop(obj, part, LV_STYLE_PAD_ROW);
 130:Drivers/lvgl/lvgl/src/core/lv_obj_style_gen.h ****     return (lv_coord_t)v.num;
 131:Drivers/lvgl/lvgl/src/core/lv_obj_style_gen.h **** }
 132:Drivers/lvgl/lvgl/src/core/lv_obj_style_gen.h **** 
 133:Drivers/lvgl/lvgl/src/core/lv_obj_style_gen.h **** static inline lv_coord_t lv_obj_get_style_pad_column(const struct _lv_obj_t * obj, uint32_t part)
 134:Drivers/lvgl/lvgl/src/core/lv_obj_style_gen.h **** {
 135:Drivers/lvgl/lvgl/src/core/lv_obj_style_gen.h ****     lv_style_value_t v = lv_obj_get_style_prop(obj, part, LV_STYLE_PAD_COLUMN);
 136:Drivers/lvgl/lvgl/src/core/lv_obj_style_gen.h ****     return (lv_coord_t)v.num;
 137:Drivers/lvgl/lvgl/src/core/lv_obj_style_gen.h **** }
 138:Drivers/lvgl/lvgl/src/core/lv_obj_style_gen.h **** 
 139:Drivers/lvgl/lvgl/src/core/lv_obj_style_gen.h **** static inline lv_color_t lv_obj_get_style_bg_color(const struct _lv_obj_t * obj, uint32_t part)
 140:Drivers/lvgl/lvgl/src/core/lv_obj_style_gen.h **** {
 141:Drivers/lvgl/lvgl/src/core/lv_obj_style_gen.h ****     lv_style_value_t v = lv_obj_get_style_prop(obj, part, LV_STYLE_BG_COLOR);
 142:Drivers/lvgl/lvgl/src/core/lv_obj_style_gen.h ****     return v.color;
 143:Drivers/lvgl/lvgl/src/core/lv_obj_style_gen.h **** }
 144:Drivers/lvgl/lvgl/src/core/lv_obj_style_gen.h **** 
 145:Drivers/lvgl/lvgl/src/core/lv_obj_style_gen.h **** static inline lv_color_t lv_obj_get_style_bg_color_filtered(const struct _lv_obj_t * obj, uint32_t 
 146:Drivers/lvgl/lvgl/src/core/lv_obj_style_gen.h **** {
 147:Drivers/lvgl/lvgl/src/core/lv_obj_style_gen.h ****     lv_style_value_t v = _lv_obj_style_apply_color_filter(obj, part, lv_obj_get_style_prop(obj, par
 148:Drivers/lvgl/lvgl/src/core/lv_obj_style_gen.h ****     return v.color;
 149:Drivers/lvgl/lvgl/src/core/lv_obj_style_gen.h **** }
 150:Drivers/lvgl/lvgl/src/core/lv_obj_style_gen.h **** 
 151:Drivers/lvgl/lvgl/src/core/lv_obj_style_gen.h **** static inline lv_opa_t lv_obj_get_style_bg_opa(const struct _lv_obj_t * obj, uint32_t part)
 152:Drivers/lvgl/lvgl/src/core/lv_obj_style_gen.h **** {
 153:Drivers/lvgl/lvgl/src/core/lv_obj_style_gen.h ****     lv_style_value_t v = lv_obj_get_style_prop(obj, part, LV_STYLE_BG_OPA);
 154:Drivers/lvgl/lvgl/src/core/lv_obj_style_gen.h ****     return (lv_opa_t)v.num;
 155:Drivers/lvgl/lvgl/src/core/lv_obj_style_gen.h **** }
 156:Drivers/lvgl/lvgl/src/core/lv_obj_style_gen.h **** 
 157:Drivers/lvgl/lvgl/src/core/lv_obj_style_gen.h **** static inline lv_color_t lv_obj_get_style_bg_grad_color(const struct _lv_obj_t * obj, uint32_t part
 158:Drivers/lvgl/lvgl/src/core/lv_obj_style_gen.h **** {
 159:Drivers/lvgl/lvgl/src/core/lv_obj_style_gen.h ****     lv_style_value_t v = lv_obj_get_style_prop(obj, part, LV_STYLE_BG_GRAD_COLOR);
 160:Drivers/lvgl/lvgl/src/core/lv_obj_style_gen.h ****     return v.color;
 161:Drivers/lvgl/lvgl/src/core/lv_obj_style_gen.h **** }
 162:Drivers/lvgl/lvgl/src/core/lv_obj_style_gen.h **** 
 163:Drivers/lvgl/lvgl/src/core/lv_obj_style_gen.h **** static inline lv_color_t lv_obj_get_style_bg_grad_color_filtered(const struct _lv_obj_t * obj, uint
 164:Drivers/lvgl/lvgl/src/core/lv_obj_style_gen.h **** {
 165:Drivers/lvgl/lvgl/src/core/lv_obj_style_gen.h ****     lv_style_value_t v = _lv_obj_style_apply_color_filter(obj, part, lv_obj_get_style_prop(obj, par
 166:Drivers/lvgl/lvgl/src/core/lv_obj_style_gen.h ****     return v.color;
 167:Drivers/lvgl/lvgl/src/core/lv_obj_style_gen.h **** }
 168:Drivers/lvgl/lvgl/src/core/lv_obj_style_gen.h **** 
 169:Drivers/lvgl/lvgl/src/core/lv_obj_style_gen.h **** static inline lv_grad_dir_t lv_obj_get_style_bg_grad_dir(const struct _lv_obj_t * obj, uint32_t par
 170:Drivers/lvgl/lvgl/src/core/lv_obj_style_gen.h **** {
ARM GAS  /tmp/cc3JQQuJ.s 			page 39


 171:Drivers/lvgl/lvgl/src/core/lv_obj_style_gen.h ****     lv_style_value_t v = lv_obj_get_style_prop(obj, part, LV_STYLE_BG_GRAD_DIR);
 172:Drivers/lvgl/lvgl/src/core/lv_obj_style_gen.h ****     return (lv_grad_dir_t)v.num;
 173:Drivers/lvgl/lvgl/src/core/lv_obj_style_gen.h **** }
 174:Drivers/lvgl/lvgl/src/core/lv_obj_style_gen.h **** 
 175:Drivers/lvgl/lvgl/src/core/lv_obj_style_gen.h **** static inline lv_coord_t lv_obj_get_style_bg_main_stop(const struct _lv_obj_t * obj, uint32_t part)
 176:Drivers/lvgl/lvgl/src/core/lv_obj_style_gen.h **** {
 177:Drivers/lvgl/lvgl/src/core/lv_obj_style_gen.h ****     lv_style_value_t v = lv_obj_get_style_prop(obj, part, LV_STYLE_BG_MAIN_STOP);
 178:Drivers/lvgl/lvgl/src/core/lv_obj_style_gen.h ****     return (lv_coord_t)v.num;
 179:Drivers/lvgl/lvgl/src/core/lv_obj_style_gen.h **** }
 180:Drivers/lvgl/lvgl/src/core/lv_obj_style_gen.h **** 
 181:Drivers/lvgl/lvgl/src/core/lv_obj_style_gen.h **** static inline lv_coord_t lv_obj_get_style_bg_grad_stop(const struct _lv_obj_t * obj, uint32_t part)
 182:Drivers/lvgl/lvgl/src/core/lv_obj_style_gen.h **** {
 183:Drivers/lvgl/lvgl/src/core/lv_obj_style_gen.h ****     lv_style_value_t v = lv_obj_get_style_prop(obj, part, LV_STYLE_BG_GRAD_STOP);
 184:Drivers/lvgl/lvgl/src/core/lv_obj_style_gen.h ****     return (lv_coord_t)v.num;
 185:Drivers/lvgl/lvgl/src/core/lv_obj_style_gen.h **** }
 186:Drivers/lvgl/lvgl/src/core/lv_obj_style_gen.h **** 
 187:Drivers/lvgl/lvgl/src/core/lv_obj_style_gen.h **** static inline const lv_grad_dsc_t * lv_obj_get_style_bg_grad(const struct _lv_obj_t * obj, uint32_t
 188:Drivers/lvgl/lvgl/src/core/lv_obj_style_gen.h **** {
 189:Drivers/lvgl/lvgl/src/core/lv_obj_style_gen.h ****     lv_style_value_t v = lv_obj_get_style_prop(obj, part, LV_STYLE_BG_GRAD);
 190:Drivers/lvgl/lvgl/src/core/lv_obj_style_gen.h ****     return (const lv_grad_dsc_t *)v.ptr;
 191:Drivers/lvgl/lvgl/src/core/lv_obj_style_gen.h **** }
 192:Drivers/lvgl/lvgl/src/core/lv_obj_style_gen.h **** 
 193:Drivers/lvgl/lvgl/src/core/lv_obj_style_gen.h **** static inline lv_dither_mode_t lv_obj_get_style_bg_dither_mode(const struct _lv_obj_t * obj, uint32
 194:Drivers/lvgl/lvgl/src/core/lv_obj_style_gen.h **** {
 195:Drivers/lvgl/lvgl/src/core/lv_obj_style_gen.h ****     lv_style_value_t v = lv_obj_get_style_prop(obj, part, LV_STYLE_BG_DITHER_MODE);
 196:Drivers/lvgl/lvgl/src/core/lv_obj_style_gen.h ****     return (lv_dither_mode_t)v.num;
 197:Drivers/lvgl/lvgl/src/core/lv_obj_style_gen.h **** }
 198:Drivers/lvgl/lvgl/src/core/lv_obj_style_gen.h **** 
 199:Drivers/lvgl/lvgl/src/core/lv_obj_style_gen.h **** static inline const void * lv_obj_get_style_bg_img_src(const struct _lv_obj_t * obj, uint32_t part)
 200:Drivers/lvgl/lvgl/src/core/lv_obj_style_gen.h **** {
 201:Drivers/lvgl/lvgl/src/core/lv_obj_style_gen.h ****     lv_style_value_t v = lv_obj_get_style_prop(obj, part, LV_STYLE_BG_IMG_SRC);
 202:Drivers/lvgl/lvgl/src/core/lv_obj_style_gen.h ****     return (const void *)v.ptr;
 203:Drivers/lvgl/lvgl/src/core/lv_obj_style_gen.h **** }
 204:Drivers/lvgl/lvgl/src/core/lv_obj_style_gen.h **** 
 205:Drivers/lvgl/lvgl/src/core/lv_obj_style_gen.h **** static inline lv_opa_t lv_obj_get_style_bg_img_opa(const struct _lv_obj_t * obj, uint32_t part)
 206:Drivers/lvgl/lvgl/src/core/lv_obj_style_gen.h **** {
 207:Drivers/lvgl/lvgl/src/core/lv_obj_style_gen.h ****     lv_style_value_t v = lv_obj_get_style_prop(obj, part, LV_STYLE_BG_IMG_OPA);
 208:Drivers/lvgl/lvgl/src/core/lv_obj_style_gen.h ****     return (lv_opa_t)v.num;
 209:Drivers/lvgl/lvgl/src/core/lv_obj_style_gen.h **** }
 210:Drivers/lvgl/lvgl/src/core/lv_obj_style_gen.h **** 
 211:Drivers/lvgl/lvgl/src/core/lv_obj_style_gen.h **** static inline lv_color_t lv_obj_get_style_bg_img_recolor(const struct _lv_obj_t * obj, uint32_t par
 212:Drivers/lvgl/lvgl/src/core/lv_obj_style_gen.h **** {
 213:Drivers/lvgl/lvgl/src/core/lv_obj_style_gen.h ****     lv_style_value_t v = lv_obj_get_style_prop(obj, part, LV_STYLE_BG_IMG_RECOLOR);
 214:Drivers/lvgl/lvgl/src/core/lv_obj_style_gen.h ****     return v.color;
 215:Drivers/lvgl/lvgl/src/core/lv_obj_style_gen.h **** }
 216:Drivers/lvgl/lvgl/src/core/lv_obj_style_gen.h **** 
 217:Drivers/lvgl/lvgl/src/core/lv_obj_style_gen.h **** static inline lv_color_t lv_obj_get_style_bg_img_recolor_filtered(const struct _lv_obj_t * obj, uin
 218:Drivers/lvgl/lvgl/src/core/lv_obj_style_gen.h **** {
 219:Drivers/lvgl/lvgl/src/core/lv_obj_style_gen.h ****     lv_style_value_t v = _lv_obj_style_apply_color_filter(obj, part, lv_obj_get_style_prop(obj, par
 220:Drivers/lvgl/lvgl/src/core/lv_obj_style_gen.h ****     return v.color;
 221:Drivers/lvgl/lvgl/src/core/lv_obj_style_gen.h **** }
 222:Drivers/lvgl/lvgl/src/core/lv_obj_style_gen.h **** 
 223:Drivers/lvgl/lvgl/src/core/lv_obj_style_gen.h **** static inline lv_opa_t lv_obj_get_style_bg_img_recolor_opa(const struct _lv_obj_t * obj, uint32_t p
 224:Drivers/lvgl/lvgl/src/core/lv_obj_style_gen.h **** {
 225:Drivers/lvgl/lvgl/src/core/lv_obj_style_gen.h ****     lv_style_value_t v = lv_obj_get_style_prop(obj, part, LV_STYLE_BG_IMG_RECOLOR_OPA);
 226:Drivers/lvgl/lvgl/src/core/lv_obj_style_gen.h ****     return (lv_opa_t)v.num;
 227:Drivers/lvgl/lvgl/src/core/lv_obj_style_gen.h **** }
ARM GAS  /tmp/cc3JQQuJ.s 			page 40


 228:Drivers/lvgl/lvgl/src/core/lv_obj_style_gen.h **** 
 229:Drivers/lvgl/lvgl/src/core/lv_obj_style_gen.h **** static inline bool lv_obj_get_style_bg_img_tiled(const struct _lv_obj_t * obj, uint32_t part)
 230:Drivers/lvgl/lvgl/src/core/lv_obj_style_gen.h **** {
 231:Drivers/lvgl/lvgl/src/core/lv_obj_style_gen.h ****     lv_style_value_t v = lv_obj_get_style_prop(obj, part, LV_STYLE_BG_IMG_TILED);
 232:Drivers/lvgl/lvgl/src/core/lv_obj_style_gen.h ****     return (bool)v.num;
 233:Drivers/lvgl/lvgl/src/core/lv_obj_style_gen.h **** }
 234:Drivers/lvgl/lvgl/src/core/lv_obj_style_gen.h **** 
 235:Drivers/lvgl/lvgl/src/core/lv_obj_style_gen.h **** static inline lv_color_t lv_obj_get_style_border_color(const struct _lv_obj_t * obj, uint32_t part)
 236:Drivers/lvgl/lvgl/src/core/lv_obj_style_gen.h **** {
 237:Drivers/lvgl/lvgl/src/core/lv_obj_style_gen.h ****     lv_style_value_t v = lv_obj_get_style_prop(obj, part, LV_STYLE_BORDER_COLOR);
 238:Drivers/lvgl/lvgl/src/core/lv_obj_style_gen.h ****     return v.color;
 239:Drivers/lvgl/lvgl/src/core/lv_obj_style_gen.h **** }
 240:Drivers/lvgl/lvgl/src/core/lv_obj_style_gen.h **** 
 241:Drivers/lvgl/lvgl/src/core/lv_obj_style_gen.h **** static inline lv_color_t lv_obj_get_style_border_color_filtered(const struct _lv_obj_t * obj, uint3
 242:Drivers/lvgl/lvgl/src/core/lv_obj_style_gen.h **** {
 243:Drivers/lvgl/lvgl/src/core/lv_obj_style_gen.h ****     lv_style_value_t v = _lv_obj_style_apply_color_filter(obj, part, lv_obj_get_style_prop(obj, par
 244:Drivers/lvgl/lvgl/src/core/lv_obj_style_gen.h ****     return v.color;
 245:Drivers/lvgl/lvgl/src/core/lv_obj_style_gen.h **** }
 246:Drivers/lvgl/lvgl/src/core/lv_obj_style_gen.h **** 
 247:Drivers/lvgl/lvgl/src/core/lv_obj_style_gen.h **** static inline lv_opa_t lv_obj_get_style_border_opa(const struct _lv_obj_t * obj, uint32_t part)
 248:Drivers/lvgl/lvgl/src/core/lv_obj_style_gen.h **** {
 249:Drivers/lvgl/lvgl/src/core/lv_obj_style_gen.h ****     lv_style_value_t v = lv_obj_get_style_prop(obj, part, LV_STYLE_BORDER_OPA);
 250:Drivers/lvgl/lvgl/src/core/lv_obj_style_gen.h ****     return (lv_opa_t)v.num;
 251:Drivers/lvgl/lvgl/src/core/lv_obj_style_gen.h **** }
 252:Drivers/lvgl/lvgl/src/core/lv_obj_style_gen.h **** 
 253:Drivers/lvgl/lvgl/src/core/lv_obj_style_gen.h **** static inline lv_coord_t lv_obj_get_style_border_width(const struct _lv_obj_t * obj, uint32_t part)
 254:Drivers/lvgl/lvgl/src/core/lv_obj_style_gen.h **** {
 255:Drivers/lvgl/lvgl/src/core/lv_obj_style_gen.h ****     lv_style_value_t v = lv_obj_get_style_prop(obj, part, LV_STYLE_BORDER_WIDTH);
 636              		.loc 2 255 0
 637 001c 3222     		movs	r2, #50
 638 001e 0021     		movs	r1, #0
 639 0020 2846     		mov	r0, r5
 640 0022 FFF7FEFF 		bl	lv_obj_get_style_prop
 641              	.LVL58:
 642              	.LBE220:
 643              	.LBE219:
 255:Drivers/lvgl/lvgl/src/core/lv_obj_pos.c **** }
 644              		.loc 1 255 0
 645 0026 3C44     		add	r4, r4, r7
 646              	.LVL59:
 647 0028 16FA84F4 		uxtah	r4, r6, r4
 648 002c 4000     		lsls	r0, r0, #1
 649 002e 80B2     		uxth	r0, r0
 650 0030 10FA84F4 		uxtah	r4, r0, r4
 651 0034 21B2     		sxth	r1, r4
 652 0036 2846     		mov	r0, r5
 653 0038 FFF7FEFF 		bl	lv_obj_set_width
 654              	.LVL60:
 256:Drivers/lvgl/lvgl/src/core/lv_obj_pos.c **** 
 655              		.loc 1 256 0
 656 003c F8BD     		pop	{r3, r4, r5, r6, r7, pc}
 657              		.cfi_endproc
 658              	.LFE172:
 660              		.section	.text.lv_obj_set_content_height,"ax",%progbits
 661              		.align	1
 662              		.global	lv_obj_set_content_height
 663              		.syntax unified
ARM GAS  /tmp/cc3JQQuJ.s 			page 41


 664              		.thumb
 665              		.thumb_func
 666              		.fpu fpv5-d16
 668              	lv_obj_set_content_height:
 669              	.LFB173:
 259:Drivers/lvgl/lvgl/src/core/lv_obj_pos.c ****     lv_coord_t ptop = lv_obj_get_style_pad_top(obj, LV_PART_MAIN);
 670              		.loc 1 259 0
 671              		.cfi_startproc
 672              		@ args = 0, pretend = 0, frame = 0
 673              		@ frame_needed = 0, uses_anonymous_args = 0
 674              	.LVL61:
 675 0000 F8B5     		push	{r3, r4, r5, r6, r7, lr}
 676              	.LCFI23:
 677              		.cfi_def_cfa_offset 24
 678              		.cfi_offset 3, -24
 679              		.cfi_offset 4, -20
 680              		.cfi_offset 5, -16
 681              		.cfi_offset 6, -12
 682              		.cfi_offset 7, -8
 683              		.cfi_offset 14, -4
 684 0002 0546     		mov	r5, r0
 685 0004 0C46     		mov	r4, r1
 686              	.LVL62:
 687              	.LBB221:
 688              	.LBB222:
 105:Drivers/lvgl/lvgl/src/core/lv_obj_style_gen.h ****     return (lv_coord_t)v.num;
 689              		.loc 2 105 0
 690 0006 1022     		movs	r2, #16
 691 0008 0021     		movs	r1, #0
 692              	.LVL63:
 693 000a FFF7FEFF 		bl	lv_obj_get_style_prop
 694              	.LVL64:
 695 000e 0746     		mov	r7, r0
 696              	.LVL65:
 697              	.LBE222:
 698              	.LBE221:
 699              	.LBB223:
 700              	.LBB224:
 111:Drivers/lvgl/lvgl/src/core/lv_obj_style_gen.h ****     return (lv_coord_t)v.num;
 701              		.loc 2 111 0
 702 0010 1122     		movs	r2, #17
 703 0012 0021     		movs	r1, #0
 704 0014 2846     		mov	r0, r5
 705 0016 FFF7FEFF 		bl	lv_obj_get_style_prop
 706              	.LVL66:
 707 001a 0646     		mov	r6, r0
 708              	.LVL67:
 709              	.LBE224:
 710              	.LBE223:
 711              	.LBB225:
 712              	.LBB226:
 713              		.loc 2 255 0
 714 001c 3222     		movs	r2, #50
 715 001e 0021     		movs	r1, #0
 716 0020 2846     		mov	r0, r5
 717 0022 FFF7FEFF 		bl	lv_obj_get_style_prop
 718              	.LVL68:
ARM GAS  /tmp/cc3JQQuJ.s 			page 42


 719              	.LBE226:
 720              	.LBE225:
 264:Drivers/lvgl/lvgl/src/core/lv_obj_pos.c **** }
 721              		.loc 1 264 0
 722 0026 3C44     		add	r4, r4, r7
 723              	.LVL69:
 724 0028 16FA84F4 		uxtah	r4, r6, r4
 725 002c 4000     		lsls	r0, r0, #1
 726 002e 80B2     		uxth	r0, r0
 727 0030 10FA84F4 		uxtah	r4, r0, r4
 728 0034 21B2     		sxth	r1, r4
 729 0036 2846     		mov	r0, r5
 730 0038 FFF7FEFF 		bl	lv_obj_set_height
 731              	.LVL70:
 265:Drivers/lvgl/lvgl/src/core/lv_obj_pos.c **** 
 732              		.loc 1 265 0
 733 003c F8BD     		pop	{r3, r4, r5, r6, r7, pc}
 734              		.cfi_endproc
 735              	.LFE173:
 737              		.section	.text.lv_obj_is_layout_positioned,"ax",%progbits
 738              		.align	1
 739              		.global	lv_obj_is_layout_positioned
 740              		.syntax unified
 741              		.thumb
 742              		.thumb_func
 743              		.fpu fpv5-d16
 745              	lv_obj_is_layout_positioned:
 746              	.LFB175:
 277:Drivers/lvgl/lvgl/src/core/lv_obj_pos.c ****     if(lv_obj_has_flag_any(obj, LV_OBJ_FLAG_HIDDEN | LV_OBJ_FLAG_IGNORE_LAYOUT | LV_OBJ_FLAG_FLOATI
 747              		.loc 1 277 0
 748              		.cfi_startproc
 749              		@ args = 0, pretend = 0, frame = 0
 750              		@ frame_needed = 0, uses_anonymous_args = 0
 751              	.LVL71:
 752 0000 38B5     		push	{r3, r4, r5, lr}
 753              	.LCFI24:
 754              		.cfi_def_cfa_offset 16
 755              		.cfi_offset 3, -16
 756              		.cfi_offset 4, -12
 757              		.cfi_offset 5, -8
 758              		.cfi_offset 14, -4
 759 0002 0546     		mov	r5, r0
 278:Drivers/lvgl/lvgl/src/core/lv_obj_pos.c **** 
 760              		.loc 1 278 0
 761 0004 0A49     		ldr	r1, .L54
 762 0006 FFF7FEFF 		bl	lv_obj_has_flag_any
 763              	.LVL72:
 764 000a 10B1     		cbz	r0, .L53
 765 000c 0024     		movs	r4, #0
 766              	.L50:
 286:Drivers/lvgl/lvgl/src/core/lv_obj_pos.c **** 
 767              		.loc 1 286 0
 768 000e 2046     		mov	r0, r4
 769 0010 38BD     		pop	{r3, r4, r5, pc}
 770              	.LVL73:
 771              	.L53:
 772 0012 0446     		mov	r4, r0
ARM GAS  /tmp/cc3JQQuJ.s 			page 43


 280:Drivers/lvgl/lvgl/src/core/lv_obj_pos.c ****     if(parent == NULL) return false;
 773              		.loc 1 280 0
 774 0014 2846     		mov	r0, r5
 775 0016 FFF7FEFF 		bl	lv_obj_get_parent
 776              	.LVL74:
 281:Drivers/lvgl/lvgl/src/core/lv_obj_pos.c **** 
 777              		.loc 1 281 0
 778 001a 0028     		cmp	r0, #0
 779 001c F7D0     		beq	.L50
 780              	.LVL75:
 781              	.LBB227:
 782              	.LBB228:
 256:Drivers/lvgl/lvgl/src/core/lv_obj_style_gen.h ****     return (lv_coord_t)v.num;
 257:Drivers/lvgl/lvgl/src/core/lv_obj_style_gen.h **** }
 258:Drivers/lvgl/lvgl/src/core/lv_obj_style_gen.h **** 
 259:Drivers/lvgl/lvgl/src/core/lv_obj_style_gen.h **** static inline lv_border_side_t lv_obj_get_style_border_side(const struct _lv_obj_t * obj, uint32_t 
 260:Drivers/lvgl/lvgl/src/core/lv_obj_style_gen.h **** {
 261:Drivers/lvgl/lvgl/src/core/lv_obj_style_gen.h ****     lv_style_value_t v = lv_obj_get_style_prop(obj, part, LV_STYLE_BORDER_SIDE);
 262:Drivers/lvgl/lvgl/src/core/lv_obj_style_gen.h ****     return (lv_border_side_t)v.num;
 263:Drivers/lvgl/lvgl/src/core/lv_obj_style_gen.h **** }
 264:Drivers/lvgl/lvgl/src/core/lv_obj_style_gen.h **** 
 265:Drivers/lvgl/lvgl/src/core/lv_obj_style_gen.h **** static inline bool lv_obj_get_style_border_post(const struct _lv_obj_t * obj, uint32_t part)
 266:Drivers/lvgl/lvgl/src/core/lv_obj_style_gen.h **** {
 267:Drivers/lvgl/lvgl/src/core/lv_obj_style_gen.h ****     lv_style_value_t v = lv_obj_get_style_prop(obj, part, LV_STYLE_BORDER_POST);
 268:Drivers/lvgl/lvgl/src/core/lv_obj_style_gen.h ****     return (bool)v.num;
 269:Drivers/lvgl/lvgl/src/core/lv_obj_style_gen.h **** }
 270:Drivers/lvgl/lvgl/src/core/lv_obj_style_gen.h **** 
 271:Drivers/lvgl/lvgl/src/core/lv_obj_style_gen.h **** static inline lv_coord_t lv_obj_get_style_outline_width(const struct _lv_obj_t * obj, uint32_t part
 272:Drivers/lvgl/lvgl/src/core/lv_obj_style_gen.h **** {
 273:Drivers/lvgl/lvgl/src/core/lv_obj_style_gen.h ****     lv_style_value_t v = lv_obj_get_style_prop(obj, part, LV_STYLE_OUTLINE_WIDTH);
 274:Drivers/lvgl/lvgl/src/core/lv_obj_style_gen.h ****     return (lv_coord_t)v.num;
 275:Drivers/lvgl/lvgl/src/core/lv_obj_style_gen.h **** }
 276:Drivers/lvgl/lvgl/src/core/lv_obj_style_gen.h **** 
 277:Drivers/lvgl/lvgl/src/core/lv_obj_style_gen.h **** static inline lv_color_t lv_obj_get_style_outline_color(const struct _lv_obj_t * obj, uint32_t part
 278:Drivers/lvgl/lvgl/src/core/lv_obj_style_gen.h **** {
 279:Drivers/lvgl/lvgl/src/core/lv_obj_style_gen.h ****     lv_style_value_t v = lv_obj_get_style_prop(obj, part, LV_STYLE_OUTLINE_COLOR);
 280:Drivers/lvgl/lvgl/src/core/lv_obj_style_gen.h ****     return v.color;
 281:Drivers/lvgl/lvgl/src/core/lv_obj_style_gen.h **** }
 282:Drivers/lvgl/lvgl/src/core/lv_obj_style_gen.h **** 
 283:Drivers/lvgl/lvgl/src/core/lv_obj_style_gen.h **** static inline lv_color_t lv_obj_get_style_outline_color_filtered(const struct _lv_obj_t * obj, uint
 284:Drivers/lvgl/lvgl/src/core/lv_obj_style_gen.h **** {
 285:Drivers/lvgl/lvgl/src/core/lv_obj_style_gen.h ****     lv_style_value_t v = _lv_obj_style_apply_color_filter(obj, part, lv_obj_get_style_prop(obj, par
 286:Drivers/lvgl/lvgl/src/core/lv_obj_style_gen.h ****     return v.color;
 287:Drivers/lvgl/lvgl/src/core/lv_obj_style_gen.h **** }
 288:Drivers/lvgl/lvgl/src/core/lv_obj_style_gen.h **** 
 289:Drivers/lvgl/lvgl/src/core/lv_obj_style_gen.h **** static inline lv_opa_t lv_obj_get_style_outline_opa(const struct _lv_obj_t * obj, uint32_t part)
 290:Drivers/lvgl/lvgl/src/core/lv_obj_style_gen.h **** {
 291:Drivers/lvgl/lvgl/src/core/lv_obj_style_gen.h ****     lv_style_value_t v = lv_obj_get_style_prop(obj, part, LV_STYLE_OUTLINE_OPA);
 292:Drivers/lvgl/lvgl/src/core/lv_obj_style_gen.h ****     return (lv_opa_t)v.num;
 293:Drivers/lvgl/lvgl/src/core/lv_obj_style_gen.h **** }
 294:Drivers/lvgl/lvgl/src/core/lv_obj_style_gen.h **** 
 295:Drivers/lvgl/lvgl/src/core/lv_obj_style_gen.h **** static inline lv_coord_t lv_obj_get_style_outline_pad(const struct _lv_obj_t * obj, uint32_t part)
 296:Drivers/lvgl/lvgl/src/core/lv_obj_style_gen.h **** {
 297:Drivers/lvgl/lvgl/src/core/lv_obj_style_gen.h ****     lv_style_value_t v = lv_obj_get_style_prop(obj, part, LV_STYLE_OUTLINE_PAD);
 298:Drivers/lvgl/lvgl/src/core/lv_obj_style_gen.h ****     return (lv_coord_t)v.num;
 299:Drivers/lvgl/lvgl/src/core/lv_obj_style_gen.h **** }
 300:Drivers/lvgl/lvgl/src/core/lv_obj_style_gen.h **** 
ARM GAS  /tmp/cc3JQQuJ.s 			page 44


 301:Drivers/lvgl/lvgl/src/core/lv_obj_style_gen.h **** static inline lv_coord_t lv_obj_get_style_shadow_width(const struct _lv_obj_t * obj, uint32_t part)
 302:Drivers/lvgl/lvgl/src/core/lv_obj_style_gen.h **** {
 303:Drivers/lvgl/lvgl/src/core/lv_obj_style_gen.h ****     lv_style_value_t v = lv_obj_get_style_prop(obj, part, LV_STYLE_SHADOW_WIDTH);
 304:Drivers/lvgl/lvgl/src/core/lv_obj_style_gen.h ****     return (lv_coord_t)v.num;
 305:Drivers/lvgl/lvgl/src/core/lv_obj_style_gen.h **** }
 306:Drivers/lvgl/lvgl/src/core/lv_obj_style_gen.h **** 
 307:Drivers/lvgl/lvgl/src/core/lv_obj_style_gen.h **** static inline lv_coord_t lv_obj_get_style_shadow_ofs_x(const struct _lv_obj_t * obj, uint32_t part)
 308:Drivers/lvgl/lvgl/src/core/lv_obj_style_gen.h **** {
 309:Drivers/lvgl/lvgl/src/core/lv_obj_style_gen.h ****     lv_style_value_t v = lv_obj_get_style_prop(obj, part, LV_STYLE_SHADOW_OFS_X);
 310:Drivers/lvgl/lvgl/src/core/lv_obj_style_gen.h ****     return (lv_coord_t)v.num;
 311:Drivers/lvgl/lvgl/src/core/lv_obj_style_gen.h **** }
 312:Drivers/lvgl/lvgl/src/core/lv_obj_style_gen.h **** 
 313:Drivers/lvgl/lvgl/src/core/lv_obj_style_gen.h **** static inline lv_coord_t lv_obj_get_style_shadow_ofs_y(const struct _lv_obj_t * obj, uint32_t part)
 314:Drivers/lvgl/lvgl/src/core/lv_obj_style_gen.h **** {
 315:Drivers/lvgl/lvgl/src/core/lv_obj_style_gen.h ****     lv_style_value_t v = lv_obj_get_style_prop(obj, part, LV_STYLE_SHADOW_OFS_Y);
 316:Drivers/lvgl/lvgl/src/core/lv_obj_style_gen.h ****     return (lv_coord_t)v.num;
 317:Drivers/lvgl/lvgl/src/core/lv_obj_style_gen.h **** }
 318:Drivers/lvgl/lvgl/src/core/lv_obj_style_gen.h **** 
 319:Drivers/lvgl/lvgl/src/core/lv_obj_style_gen.h **** static inline lv_coord_t lv_obj_get_style_shadow_spread(const struct _lv_obj_t * obj, uint32_t part
 320:Drivers/lvgl/lvgl/src/core/lv_obj_style_gen.h **** {
 321:Drivers/lvgl/lvgl/src/core/lv_obj_style_gen.h ****     lv_style_value_t v = lv_obj_get_style_prop(obj, part, LV_STYLE_SHADOW_SPREAD);
 322:Drivers/lvgl/lvgl/src/core/lv_obj_style_gen.h ****     return (lv_coord_t)v.num;
 323:Drivers/lvgl/lvgl/src/core/lv_obj_style_gen.h **** }
 324:Drivers/lvgl/lvgl/src/core/lv_obj_style_gen.h **** 
 325:Drivers/lvgl/lvgl/src/core/lv_obj_style_gen.h **** static inline lv_color_t lv_obj_get_style_shadow_color(const struct _lv_obj_t * obj, uint32_t part)
 326:Drivers/lvgl/lvgl/src/core/lv_obj_style_gen.h **** {
 327:Drivers/lvgl/lvgl/src/core/lv_obj_style_gen.h ****     lv_style_value_t v = lv_obj_get_style_prop(obj, part, LV_STYLE_SHADOW_COLOR);
 328:Drivers/lvgl/lvgl/src/core/lv_obj_style_gen.h ****     return v.color;
 329:Drivers/lvgl/lvgl/src/core/lv_obj_style_gen.h **** }
 330:Drivers/lvgl/lvgl/src/core/lv_obj_style_gen.h **** 
 331:Drivers/lvgl/lvgl/src/core/lv_obj_style_gen.h **** static inline lv_color_t lv_obj_get_style_shadow_color_filtered(const struct _lv_obj_t * obj, uint3
 332:Drivers/lvgl/lvgl/src/core/lv_obj_style_gen.h **** {
 333:Drivers/lvgl/lvgl/src/core/lv_obj_style_gen.h ****     lv_style_value_t v = _lv_obj_style_apply_color_filter(obj, part, lv_obj_get_style_prop(obj, par
 334:Drivers/lvgl/lvgl/src/core/lv_obj_style_gen.h ****     return v.color;
 335:Drivers/lvgl/lvgl/src/core/lv_obj_style_gen.h **** }
 336:Drivers/lvgl/lvgl/src/core/lv_obj_style_gen.h **** 
 337:Drivers/lvgl/lvgl/src/core/lv_obj_style_gen.h **** static inline lv_opa_t lv_obj_get_style_shadow_opa(const struct _lv_obj_t * obj, uint32_t part)
 338:Drivers/lvgl/lvgl/src/core/lv_obj_style_gen.h **** {
 339:Drivers/lvgl/lvgl/src/core/lv_obj_style_gen.h ****     lv_style_value_t v = lv_obj_get_style_prop(obj, part, LV_STYLE_SHADOW_OPA);
 340:Drivers/lvgl/lvgl/src/core/lv_obj_style_gen.h ****     return (lv_opa_t)v.num;
 341:Drivers/lvgl/lvgl/src/core/lv_obj_style_gen.h **** }
 342:Drivers/lvgl/lvgl/src/core/lv_obj_style_gen.h **** 
 343:Drivers/lvgl/lvgl/src/core/lv_obj_style_gen.h **** static inline lv_opa_t lv_obj_get_style_img_opa(const struct _lv_obj_t * obj, uint32_t part)
 344:Drivers/lvgl/lvgl/src/core/lv_obj_style_gen.h **** {
 345:Drivers/lvgl/lvgl/src/core/lv_obj_style_gen.h ****     lv_style_value_t v = lv_obj_get_style_prop(obj, part, LV_STYLE_IMG_OPA);
 346:Drivers/lvgl/lvgl/src/core/lv_obj_style_gen.h ****     return (lv_opa_t)v.num;
 347:Drivers/lvgl/lvgl/src/core/lv_obj_style_gen.h **** }
 348:Drivers/lvgl/lvgl/src/core/lv_obj_style_gen.h **** 
 349:Drivers/lvgl/lvgl/src/core/lv_obj_style_gen.h **** static inline lv_color_t lv_obj_get_style_img_recolor(const struct _lv_obj_t * obj, uint32_t part)
 350:Drivers/lvgl/lvgl/src/core/lv_obj_style_gen.h **** {
 351:Drivers/lvgl/lvgl/src/core/lv_obj_style_gen.h ****     lv_style_value_t v = lv_obj_get_style_prop(obj, part, LV_STYLE_IMG_RECOLOR);
 352:Drivers/lvgl/lvgl/src/core/lv_obj_style_gen.h ****     return v.color;
 353:Drivers/lvgl/lvgl/src/core/lv_obj_style_gen.h **** }
 354:Drivers/lvgl/lvgl/src/core/lv_obj_style_gen.h **** 
 355:Drivers/lvgl/lvgl/src/core/lv_obj_style_gen.h **** static inline lv_color_t lv_obj_get_style_img_recolor_filtered(const struct _lv_obj_t * obj, uint32
 356:Drivers/lvgl/lvgl/src/core/lv_obj_style_gen.h **** {
 357:Drivers/lvgl/lvgl/src/core/lv_obj_style_gen.h ****     lv_style_value_t v = _lv_obj_style_apply_color_filter(obj, part, lv_obj_get_style_prop(obj, par
ARM GAS  /tmp/cc3JQQuJ.s 			page 45


 358:Drivers/lvgl/lvgl/src/core/lv_obj_style_gen.h ****     return v.color;
 359:Drivers/lvgl/lvgl/src/core/lv_obj_style_gen.h **** }
 360:Drivers/lvgl/lvgl/src/core/lv_obj_style_gen.h **** 
 361:Drivers/lvgl/lvgl/src/core/lv_obj_style_gen.h **** static inline lv_opa_t lv_obj_get_style_img_recolor_opa(const struct _lv_obj_t * obj, uint32_t part
 362:Drivers/lvgl/lvgl/src/core/lv_obj_style_gen.h **** {
 363:Drivers/lvgl/lvgl/src/core/lv_obj_style_gen.h ****     lv_style_value_t v = lv_obj_get_style_prop(obj, part, LV_STYLE_IMG_RECOLOR_OPA);
 364:Drivers/lvgl/lvgl/src/core/lv_obj_style_gen.h ****     return (lv_opa_t)v.num;
 365:Drivers/lvgl/lvgl/src/core/lv_obj_style_gen.h **** }
 366:Drivers/lvgl/lvgl/src/core/lv_obj_style_gen.h **** 
 367:Drivers/lvgl/lvgl/src/core/lv_obj_style_gen.h **** static inline lv_coord_t lv_obj_get_style_line_width(const struct _lv_obj_t * obj, uint32_t part)
 368:Drivers/lvgl/lvgl/src/core/lv_obj_style_gen.h **** {
 369:Drivers/lvgl/lvgl/src/core/lv_obj_style_gen.h ****     lv_style_value_t v = lv_obj_get_style_prop(obj, part, LV_STYLE_LINE_WIDTH);
 370:Drivers/lvgl/lvgl/src/core/lv_obj_style_gen.h ****     return (lv_coord_t)v.num;
 371:Drivers/lvgl/lvgl/src/core/lv_obj_style_gen.h **** }
 372:Drivers/lvgl/lvgl/src/core/lv_obj_style_gen.h **** 
 373:Drivers/lvgl/lvgl/src/core/lv_obj_style_gen.h **** static inline lv_coord_t lv_obj_get_style_line_dash_width(const struct _lv_obj_t * obj, uint32_t pa
 374:Drivers/lvgl/lvgl/src/core/lv_obj_style_gen.h **** {
 375:Drivers/lvgl/lvgl/src/core/lv_obj_style_gen.h ****     lv_style_value_t v = lv_obj_get_style_prop(obj, part, LV_STYLE_LINE_DASH_WIDTH);
 376:Drivers/lvgl/lvgl/src/core/lv_obj_style_gen.h ****     return (lv_coord_t)v.num;
 377:Drivers/lvgl/lvgl/src/core/lv_obj_style_gen.h **** }
 378:Drivers/lvgl/lvgl/src/core/lv_obj_style_gen.h **** 
 379:Drivers/lvgl/lvgl/src/core/lv_obj_style_gen.h **** static inline lv_coord_t lv_obj_get_style_line_dash_gap(const struct _lv_obj_t * obj, uint32_t part
 380:Drivers/lvgl/lvgl/src/core/lv_obj_style_gen.h **** {
 381:Drivers/lvgl/lvgl/src/core/lv_obj_style_gen.h ****     lv_style_value_t v = lv_obj_get_style_prop(obj, part, LV_STYLE_LINE_DASH_GAP);
 382:Drivers/lvgl/lvgl/src/core/lv_obj_style_gen.h ****     return (lv_coord_t)v.num;
 383:Drivers/lvgl/lvgl/src/core/lv_obj_style_gen.h **** }
 384:Drivers/lvgl/lvgl/src/core/lv_obj_style_gen.h **** 
 385:Drivers/lvgl/lvgl/src/core/lv_obj_style_gen.h **** static inline bool lv_obj_get_style_line_rounded(const struct _lv_obj_t * obj, uint32_t part)
 386:Drivers/lvgl/lvgl/src/core/lv_obj_style_gen.h **** {
 387:Drivers/lvgl/lvgl/src/core/lv_obj_style_gen.h ****     lv_style_value_t v = lv_obj_get_style_prop(obj, part, LV_STYLE_LINE_ROUNDED);
 388:Drivers/lvgl/lvgl/src/core/lv_obj_style_gen.h ****     return (bool)v.num;
 389:Drivers/lvgl/lvgl/src/core/lv_obj_style_gen.h **** }
 390:Drivers/lvgl/lvgl/src/core/lv_obj_style_gen.h **** 
 391:Drivers/lvgl/lvgl/src/core/lv_obj_style_gen.h **** static inline lv_color_t lv_obj_get_style_line_color(const struct _lv_obj_t * obj, uint32_t part)
 392:Drivers/lvgl/lvgl/src/core/lv_obj_style_gen.h **** {
 393:Drivers/lvgl/lvgl/src/core/lv_obj_style_gen.h ****     lv_style_value_t v = lv_obj_get_style_prop(obj, part, LV_STYLE_LINE_COLOR);
 394:Drivers/lvgl/lvgl/src/core/lv_obj_style_gen.h ****     return v.color;
 395:Drivers/lvgl/lvgl/src/core/lv_obj_style_gen.h **** }
 396:Drivers/lvgl/lvgl/src/core/lv_obj_style_gen.h **** 
 397:Drivers/lvgl/lvgl/src/core/lv_obj_style_gen.h **** static inline lv_color_t lv_obj_get_style_line_color_filtered(const struct _lv_obj_t * obj, uint32_
 398:Drivers/lvgl/lvgl/src/core/lv_obj_style_gen.h **** {
 399:Drivers/lvgl/lvgl/src/core/lv_obj_style_gen.h ****     lv_style_value_t v = _lv_obj_style_apply_color_filter(obj, part, lv_obj_get_style_prop(obj, par
 400:Drivers/lvgl/lvgl/src/core/lv_obj_style_gen.h ****     return v.color;
 401:Drivers/lvgl/lvgl/src/core/lv_obj_style_gen.h **** }
 402:Drivers/lvgl/lvgl/src/core/lv_obj_style_gen.h **** 
 403:Drivers/lvgl/lvgl/src/core/lv_obj_style_gen.h **** static inline lv_opa_t lv_obj_get_style_line_opa(const struct _lv_obj_t * obj, uint32_t part)
 404:Drivers/lvgl/lvgl/src/core/lv_obj_style_gen.h **** {
 405:Drivers/lvgl/lvgl/src/core/lv_obj_style_gen.h ****     lv_style_value_t v = lv_obj_get_style_prop(obj, part, LV_STYLE_LINE_OPA);
 406:Drivers/lvgl/lvgl/src/core/lv_obj_style_gen.h ****     return (lv_opa_t)v.num;
 407:Drivers/lvgl/lvgl/src/core/lv_obj_style_gen.h **** }
 408:Drivers/lvgl/lvgl/src/core/lv_obj_style_gen.h **** 
 409:Drivers/lvgl/lvgl/src/core/lv_obj_style_gen.h **** static inline lv_coord_t lv_obj_get_style_arc_width(const struct _lv_obj_t * obj, uint32_t part)
 410:Drivers/lvgl/lvgl/src/core/lv_obj_style_gen.h **** {
 411:Drivers/lvgl/lvgl/src/core/lv_obj_style_gen.h ****     lv_style_value_t v = lv_obj_get_style_prop(obj, part, LV_STYLE_ARC_WIDTH);
 412:Drivers/lvgl/lvgl/src/core/lv_obj_style_gen.h ****     return (lv_coord_t)v.num;
 413:Drivers/lvgl/lvgl/src/core/lv_obj_style_gen.h **** }
 414:Drivers/lvgl/lvgl/src/core/lv_obj_style_gen.h **** 
ARM GAS  /tmp/cc3JQQuJ.s 			page 46


 415:Drivers/lvgl/lvgl/src/core/lv_obj_style_gen.h **** static inline bool lv_obj_get_style_arc_rounded(const struct _lv_obj_t * obj, uint32_t part)
 416:Drivers/lvgl/lvgl/src/core/lv_obj_style_gen.h **** {
 417:Drivers/lvgl/lvgl/src/core/lv_obj_style_gen.h ****     lv_style_value_t v = lv_obj_get_style_prop(obj, part, LV_STYLE_ARC_ROUNDED);
 418:Drivers/lvgl/lvgl/src/core/lv_obj_style_gen.h ****     return (bool)v.num;
 419:Drivers/lvgl/lvgl/src/core/lv_obj_style_gen.h **** }
 420:Drivers/lvgl/lvgl/src/core/lv_obj_style_gen.h **** 
 421:Drivers/lvgl/lvgl/src/core/lv_obj_style_gen.h **** static inline lv_color_t lv_obj_get_style_arc_color(const struct _lv_obj_t * obj, uint32_t part)
 422:Drivers/lvgl/lvgl/src/core/lv_obj_style_gen.h **** {
 423:Drivers/lvgl/lvgl/src/core/lv_obj_style_gen.h ****     lv_style_value_t v = lv_obj_get_style_prop(obj, part, LV_STYLE_ARC_COLOR);
 424:Drivers/lvgl/lvgl/src/core/lv_obj_style_gen.h ****     return v.color;
 425:Drivers/lvgl/lvgl/src/core/lv_obj_style_gen.h **** }
 426:Drivers/lvgl/lvgl/src/core/lv_obj_style_gen.h **** 
 427:Drivers/lvgl/lvgl/src/core/lv_obj_style_gen.h **** static inline lv_color_t lv_obj_get_style_arc_color_filtered(const struct _lv_obj_t * obj, uint32_t
 428:Drivers/lvgl/lvgl/src/core/lv_obj_style_gen.h **** {
 429:Drivers/lvgl/lvgl/src/core/lv_obj_style_gen.h ****     lv_style_value_t v = _lv_obj_style_apply_color_filter(obj, part, lv_obj_get_style_prop(obj, par
 430:Drivers/lvgl/lvgl/src/core/lv_obj_style_gen.h ****     return v.color;
 431:Drivers/lvgl/lvgl/src/core/lv_obj_style_gen.h **** }
 432:Drivers/lvgl/lvgl/src/core/lv_obj_style_gen.h **** 
 433:Drivers/lvgl/lvgl/src/core/lv_obj_style_gen.h **** static inline lv_opa_t lv_obj_get_style_arc_opa(const struct _lv_obj_t * obj, uint32_t part)
 434:Drivers/lvgl/lvgl/src/core/lv_obj_style_gen.h **** {
 435:Drivers/lvgl/lvgl/src/core/lv_obj_style_gen.h ****     lv_style_value_t v = lv_obj_get_style_prop(obj, part, LV_STYLE_ARC_OPA);
 436:Drivers/lvgl/lvgl/src/core/lv_obj_style_gen.h ****     return (lv_opa_t)v.num;
 437:Drivers/lvgl/lvgl/src/core/lv_obj_style_gen.h **** }
 438:Drivers/lvgl/lvgl/src/core/lv_obj_style_gen.h **** 
 439:Drivers/lvgl/lvgl/src/core/lv_obj_style_gen.h **** static inline const void * lv_obj_get_style_arc_img_src(const struct _lv_obj_t * obj, uint32_t part
 440:Drivers/lvgl/lvgl/src/core/lv_obj_style_gen.h **** {
 441:Drivers/lvgl/lvgl/src/core/lv_obj_style_gen.h ****     lv_style_value_t v = lv_obj_get_style_prop(obj, part, LV_STYLE_ARC_IMG_SRC);
 442:Drivers/lvgl/lvgl/src/core/lv_obj_style_gen.h ****     return (const void *)v.ptr;
 443:Drivers/lvgl/lvgl/src/core/lv_obj_style_gen.h **** }
 444:Drivers/lvgl/lvgl/src/core/lv_obj_style_gen.h **** 
 445:Drivers/lvgl/lvgl/src/core/lv_obj_style_gen.h **** static inline lv_color_t lv_obj_get_style_text_color(const struct _lv_obj_t * obj, uint32_t part)
 446:Drivers/lvgl/lvgl/src/core/lv_obj_style_gen.h **** {
 447:Drivers/lvgl/lvgl/src/core/lv_obj_style_gen.h ****     lv_style_value_t v = lv_obj_get_style_prop(obj, part, LV_STYLE_TEXT_COLOR);
 448:Drivers/lvgl/lvgl/src/core/lv_obj_style_gen.h ****     return v.color;
 449:Drivers/lvgl/lvgl/src/core/lv_obj_style_gen.h **** }
 450:Drivers/lvgl/lvgl/src/core/lv_obj_style_gen.h **** 
 451:Drivers/lvgl/lvgl/src/core/lv_obj_style_gen.h **** static inline lv_color_t lv_obj_get_style_text_color_filtered(const struct _lv_obj_t * obj, uint32_
 452:Drivers/lvgl/lvgl/src/core/lv_obj_style_gen.h **** {
 453:Drivers/lvgl/lvgl/src/core/lv_obj_style_gen.h ****     lv_style_value_t v = _lv_obj_style_apply_color_filter(obj, part, lv_obj_get_style_prop(obj, par
 454:Drivers/lvgl/lvgl/src/core/lv_obj_style_gen.h ****     return v.color;
 455:Drivers/lvgl/lvgl/src/core/lv_obj_style_gen.h **** }
 456:Drivers/lvgl/lvgl/src/core/lv_obj_style_gen.h **** 
 457:Drivers/lvgl/lvgl/src/core/lv_obj_style_gen.h **** static inline lv_opa_t lv_obj_get_style_text_opa(const struct _lv_obj_t * obj, uint32_t part)
 458:Drivers/lvgl/lvgl/src/core/lv_obj_style_gen.h **** {
 459:Drivers/lvgl/lvgl/src/core/lv_obj_style_gen.h ****     lv_style_value_t v = lv_obj_get_style_prop(obj, part, LV_STYLE_TEXT_OPA);
 460:Drivers/lvgl/lvgl/src/core/lv_obj_style_gen.h ****     return (lv_opa_t)v.num;
 461:Drivers/lvgl/lvgl/src/core/lv_obj_style_gen.h **** }
 462:Drivers/lvgl/lvgl/src/core/lv_obj_style_gen.h **** 
 463:Drivers/lvgl/lvgl/src/core/lv_obj_style_gen.h **** static inline const lv_font_t * lv_obj_get_style_text_font(const struct _lv_obj_t * obj, uint32_t p
 464:Drivers/lvgl/lvgl/src/core/lv_obj_style_gen.h **** {
 465:Drivers/lvgl/lvgl/src/core/lv_obj_style_gen.h ****     lv_style_value_t v = lv_obj_get_style_prop(obj, part, LV_STYLE_TEXT_FONT);
 466:Drivers/lvgl/lvgl/src/core/lv_obj_style_gen.h ****     return (const lv_font_t *)v.ptr;
 467:Drivers/lvgl/lvgl/src/core/lv_obj_style_gen.h **** }
 468:Drivers/lvgl/lvgl/src/core/lv_obj_style_gen.h **** 
 469:Drivers/lvgl/lvgl/src/core/lv_obj_style_gen.h **** static inline lv_coord_t lv_obj_get_style_text_letter_space(const struct _lv_obj_t * obj, uint32_t 
 470:Drivers/lvgl/lvgl/src/core/lv_obj_style_gen.h **** {
 471:Drivers/lvgl/lvgl/src/core/lv_obj_style_gen.h ****     lv_style_value_t v = lv_obj_get_style_prop(obj, part, LV_STYLE_TEXT_LETTER_SPACE);
ARM GAS  /tmp/cc3JQQuJ.s 			page 47


 472:Drivers/lvgl/lvgl/src/core/lv_obj_style_gen.h ****     return (lv_coord_t)v.num;
 473:Drivers/lvgl/lvgl/src/core/lv_obj_style_gen.h **** }
 474:Drivers/lvgl/lvgl/src/core/lv_obj_style_gen.h **** 
 475:Drivers/lvgl/lvgl/src/core/lv_obj_style_gen.h **** static inline lv_coord_t lv_obj_get_style_text_line_space(const struct _lv_obj_t * obj, uint32_t pa
 476:Drivers/lvgl/lvgl/src/core/lv_obj_style_gen.h **** {
 477:Drivers/lvgl/lvgl/src/core/lv_obj_style_gen.h ****     lv_style_value_t v = lv_obj_get_style_prop(obj, part, LV_STYLE_TEXT_LINE_SPACE);
 478:Drivers/lvgl/lvgl/src/core/lv_obj_style_gen.h ****     return (lv_coord_t)v.num;
 479:Drivers/lvgl/lvgl/src/core/lv_obj_style_gen.h **** }
 480:Drivers/lvgl/lvgl/src/core/lv_obj_style_gen.h **** 
 481:Drivers/lvgl/lvgl/src/core/lv_obj_style_gen.h **** static inline lv_text_decor_t lv_obj_get_style_text_decor(const struct _lv_obj_t * obj, uint32_t pa
 482:Drivers/lvgl/lvgl/src/core/lv_obj_style_gen.h **** {
 483:Drivers/lvgl/lvgl/src/core/lv_obj_style_gen.h ****     lv_style_value_t v = lv_obj_get_style_prop(obj, part, LV_STYLE_TEXT_DECOR);
 484:Drivers/lvgl/lvgl/src/core/lv_obj_style_gen.h ****     return (lv_text_decor_t)v.num;
 485:Drivers/lvgl/lvgl/src/core/lv_obj_style_gen.h **** }
 486:Drivers/lvgl/lvgl/src/core/lv_obj_style_gen.h **** 
 487:Drivers/lvgl/lvgl/src/core/lv_obj_style_gen.h **** static inline lv_text_align_t lv_obj_get_style_text_align(const struct _lv_obj_t * obj, uint32_t pa
 488:Drivers/lvgl/lvgl/src/core/lv_obj_style_gen.h **** {
 489:Drivers/lvgl/lvgl/src/core/lv_obj_style_gen.h ****     lv_style_value_t v = lv_obj_get_style_prop(obj, part, LV_STYLE_TEXT_ALIGN);
 490:Drivers/lvgl/lvgl/src/core/lv_obj_style_gen.h ****     return (lv_text_align_t)v.num;
 491:Drivers/lvgl/lvgl/src/core/lv_obj_style_gen.h **** }
 492:Drivers/lvgl/lvgl/src/core/lv_obj_style_gen.h **** 
 493:Drivers/lvgl/lvgl/src/core/lv_obj_style_gen.h **** static inline lv_coord_t lv_obj_get_style_radius(const struct _lv_obj_t * obj, uint32_t part)
 494:Drivers/lvgl/lvgl/src/core/lv_obj_style_gen.h **** {
 495:Drivers/lvgl/lvgl/src/core/lv_obj_style_gen.h ****     lv_style_value_t v = lv_obj_get_style_prop(obj, part, LV_STYLE_RADIUS);
 496:Drivers/lvgl/lvgl/src/core/lv_obj_style_gen.h ****     return (lv_coord_t)v.num;
 497:Drivers/lvgl/lvgl/src/core/lv_obj_style_gen.h **** }
 498:Drivers/lvgl/lvgl/src/core/lv_obj_style_gen.h **** 
 499:Drivers/lvgl/lvgl/src/core/lv_obj_style_gen.h **** static inline bool lv_obj_get_style_clip_corner(const struct _lv_obj_t * obj, uint32_t part)
 500:Drivers/lvgl/lvgl/src/core/lv_obj_style_gen.h **** {
 501:Drivers/lvgl/lvgl/src/core/lv_obj_style_gen.h ****     lv_style_value_t v = lv_obj_get_style_prop(obj, part, LV_STYLE_CLIP_CORNER);
 502:Drivers/lvgl/lvgl/src/core/lv_obj_style_gen.h ****     return (bool)v.num;
 503:Drivers/lvgl/lvgl/src/core/lv_obj_style_gen.h **** }
 504:Drivers/lvgl/lvgl/src/core/lv_obj_style_gen.h **** 
 505:Drivers/lvgl/lvgl/src/core/lv_obj_style_gen.h **** static inline lv_opa_t lv_obj_get_style_opa(const struct _lv_obj_t * obj, uint32_t part)
 506:Drivers/lvgl/lvgl/src/core/lv_obj_style_gen.h **** {
 507:Drivers/lvgl/lvgl/src/core/lv_obj_style_gen.h ****     lv_style_value_t v = lv_obj_get_style_prop(obj, part, LV_STYLE_OPA);
 508:Drivers/lvgl/lvgl/src/core/lv_obj_style_gen.h ****     return (lv_opa_t)v.num;
 509:Drivers/lvgl/lvgl/src/core/lv_obj_style_gen.h **** }
 510:Drivers/lvgl/lvgl/src/core/lv_obj_style_gen.h **** 
 511:Drivers/lvgl/lvgl/src/core/lv_obj_style_gen.h **** static inline const lv_color_filter_dsc_t * lv_obj_get_style_color_filter_dsc(const struct _lv_obj_
 512:Drivers/lvgl/lvgl/src/core/lv_obj_style_gen.h **** {
 513:Drivers/lvgl/lvgl/src/core/lv_obj_style_gen.h ****     lv_style_value_t v = lv_obj_get_style_prop(obj, part, LV_STYLE_COLOR_FILTER_DSC);
 514:Drivers/lvgl/lvgl/src/core/lv_obj_style_gen.h ****     return (const lv_color_filter_dsc_t *)v.ptr;
 515:Drivers/lvgl/lvgl/src/core/lv_obj_style_gen.h **** }
 516:Drivers/lvgl/lvgl/src/core/lv_obj_style_gen.h **** 
 517:Drivers/lvgl/lvgl/src/core/lv_obj_style_gen.h **** static inline lv_opa_t lv_obj_get_style_color_filter_opa(const struct _lv_obj_t * obj, uint32_t par
 518:Drivers/lvgl/lvgl/src/core/lv_obj_style_gen.h **** {
 519:Drivers/lvgl/lvgl/src/core/lv_obj_style_gen.h ****     lv_style_value_t v = lv_obj_get_style_prop(obj, part, LV_STYLE_COLOR_FILTER_OPA);
 520:Drivers/lvgl/lvgl/src/core/lv_obj_style_gen.h ****     return (lv_opa_t)v.num;
 521:Drivers/lvgl/lvgl/src/core/lv_obj_style_gen.h **** }
 522:Drivers/lvgl/lvgl/src/core/lv_obj_style_gen.h **** 
 523:Drivers/lvgl/lvgl/src/core/lv_obj_style_gen.h **** static inline const lv_anim_t * lv_obj_get_style_anim(const struct _lv_obj_t * obj, uint32_t part)
 524:Drivers/lvgl/lvgl/src/core/lv_obj_style_gen.h **** {
 525:Drivers/lvgl/lvgl/src/core/lv_obj_style_gen.h ****     lv_style_value_t v = lv_obj_get_style_prop(obj, part, LV_STYLE_ANIM);
 526:Drivers/lvgl/lvgl/src/core/lv_obj_style_gen.h ****     return (const lv_anim_t *)v.ptr;
 527:Drivers/lvgl/lvgl/src/core/lv_obj_style_gen.h **** }
 528:Drivers/lvgl/lvgl/src/core/lv_obj_style_gen.h **** 
ARM GAS  /tmp/cc3JQQuJ.s 			page 48


 529:Drivers/lvgl/lvgl/src/core/lv_obj_style_gen.h **** static inline uint32_t lv_obj_get_style_anim_time(const struct _lv_obj_t * obj, uint32_t part)
 530:Drivers/lvgl/lvgl/src/core/lv_obj_style_gen.h **** {
 531:Drivers/lvgl/lvgl/src/core/lv_obj_style_gen.h ****     lv_style_value_t v = lv_obj_get_style_prop(obj, part, LV_STYLE_ANIM_TIME);
 532:Drivers/lvgl/lvgl/src/core/lv_obj_style_gen.h ****     return (uint32_t)v.num;
 533:Drivers/lvgl/lvgl/src/core/lv_obj_style_gen.h **** }
 534:Drivers/lvgl/lvgl/src/core/lv_obj_style_gen.h **** 
 535:Drivers/lvgl/lvgl/src/core/lv_obj_style_gen.h **** static inline uint32_t lv_obj_get_style_anim_speed(const struct _lv_obj_t * obj, uint32_t part)
 536:Drivers/lvgl/lvgl/src/core/lv_obj_style_gen.h **** {
 537:Drivers/lvgl/lvgl/src/core/lv_obj_style_gen.h ****     lv_style_value_t v = lv_obj_get_style_prop(obj, part, LV_STYLE_ANIM_SPEED);
 538:Drivers/lvgl/lvgl/src/core/lv_obj_style_gen.h ****     return (uint32_t)v.num;
 539:Drivers/lvgl/lvgl/src/core/lv_obj_style_gen.h **** }
 540:Drivers/lvgl/lvgl/src/core/lv_obj_style_gen.h **** 
 541:Drivers/lvgl/lvgl/src/core/lv_obj_style_gen.h **** static inline const lv_style_transition_dsc_t * lv_obj_get_style_transition(const struct _lv_obj_t 
 542:Drivers/lvgl/lvgl/src/core/lv_obj_style_gen.h **** {
 543:Drivers/lvgl/lvgl/src/core/lv_obj_style_gen.h ****     lv_style_value_t v = lv_obj_get_style_prop(obj, part, LV_STYLE_TRANSITION);
 544:Drivers/lvgl/lvgl/src/core/lv_obj_style_gen.h ****     return (const lv_style_transition_dsc_t *)v.ptr;
 545:Drivers/lvgl/lvgl/src/core/lv_obj_style_gen.h **** }
 546:Drivers/lvgl/lvgl/src/core/lv_obj_style_gen.h **** 
 547:Drivers/lvgl/lvgl/src/core/lv_obj_style_gen.h **** static inline lv_blend_mode_t lv_obj_get_style_blend_mode(const struct _lv_obj_t * obj, uint32_t pa
 548:Drivers/lvgl/lvgl/src/core/lv_obj_style_gen.h **** {
 549:Drivers/lvgl/lvgl/src/core/lv_obj_style_gen.h ****     lv_style_value_t v = lv_obj_get_style_prop(obj, part, LV_STYLE_BLEND_MODE);
 550:Drivers/lvgl/lvgl/src/core/lv_obj_style_gen.h ****     return (lv_blend_mode_t)v.num;
 551:Drivers/lvgl/lvgl/src/core/lv_obj_style_gen.h **** }
 552:Drivers/lvgl/lvgl/src/core/lv_obj_style_gen.h **** 
 553:Drivers/lvgl/lvgl/src/core/lv_obj_style_gen.h **** static inline uint16_t lv_obj_get_style_layout(const struct _lv_obj_t * obj, uint32_t part)
 554:Drivers/lvgl/lvgl/src/core/lv_obj_style_gen.h **** {
 555:Drivers/lvgl/lvgl/src/core/lv_obj_style_gen.h ****     lv_style_value_t v = lv_obj_get_style_prop(obj, part, LV_STYLE_LAYOUT);
 783              		.loc 2 555 0
 784 001e 0A22     		movs	r2, #10
 785 0020 0021     		movs	r1, #0
 786 0022 FFF7FEFF 		bl	lv_obj_get_style_prop
 787              	.LVL76:
 788              	.LBE228:
 789              	.LBE227:
 284:Drivers/lvgl/lvgl/src/core/lv_obj_pos.c ****     else return false;
 790              		.loc 1 284 0
 791 0026 80B2     		uxth	r0, r0
 792              	.LVL77:
 793 0028 0028     		cmp	r0, #0
 794 002a F0D0     		beq	.L50
 795 002c 0124     		movs	r4, #1
 796 002e EEE7     		b	.L50
 797              	.L55:
 798              		.align	2
 799              	.L54:
 800 0030 01000600 		.word	393217
 801              		.cfi_endproc
 802              	.LFE175:
 804              		.section	.text.lv_obj_mark_layout_as_dirty,"ax",%progbits
 805              		.align	1
 806              		.global	lv_obj_mark_layout_as_dirty
 807              		.syntax unified
 808              		.thumb
 809              		.thumb_func
 810              		.fpu fpv5-d16
 812              	lv_obj_mark_layout_as_dirty:
 813              	.LFB176:
ARM GAS  /tmp/cc3JQQuJ.s 			page 49


 289:Drivers/lvgl/lvgl/src/core/lv_obj_pos.c ****     obj->layout_inv = 1;
 814              		.loc 1 289 0
 815              		.cfi_startproc
 816              		@ args = 0, pretend = 0, frame = 0
 817              		@ frame_needed = 0, uses_anonymous_args = 0
 818              	.LVL78:
 819 0000 08B5     		push	{r3, lr}
 820              	.LCFI25:
 821              		.cfi_def_cfa_offset 8
 822              		.cfi_offset 3, -8
 823              		.cfi_offset 14, -4
 290:Drivers/lvgl/lvgl/src/core/lv_obj_pos.c **** 
 824              		.loc 1 290 0
 825 0002 90F82230 		ldrb	r3, [r0, #34]	@ zero_extendqisi2
 826 0006 43F00103 		orr	r3, r3, #1
 827 000a 80F82230 		strb	r3, [r0, #34]
 293:Drivers/lvgl/lvgl/src/core/lv_obj_pos.c ****     scr->scr_layout_inv = 1;
 828              		.loc 1 293 0
 829 000e FFF7FEFF 		bl	lv_obj_get_screen
 830              	.LVL79:
 294:Drivers/lvgl/lvgl/src/core/lv_obj_pos.c **** 
 831              		.loc 1 294 0
 832 0012 90F82230 		ldrb	r3, [r0, #34]	@ zero_extendqisi2
 833 0016 43F00203 		orr	r3, r3, #2
 834 001a 80F82230 		strb	r3, [r0, #34]
 297:Drivers/lvgl/lvgl/src/core/lv_obj_pos.c ****     if(disp->refr_timer) lv_timer_resume(disp->refr_timer);
 835              		.loc 1 297 0
 836 001e FFF7FEFF 		bl	lv_obj_get_disp
 837              	.LVL80:
 298:Drivers/lvgl/lvgl/src/core/lv_obj_pos.c **** }
 838              		.loc 1 298 0
 839 0022 4068     		ldr	r0, [r0, #4]
 840              	.LVL81:
 841 0024 08B1     		cbz	r0, .L56
 298:Drivers/lvgl/lvgl/src/core/lv_obj_pos.c **** }
 842              		.loc 1 298 0 is_stmt 0 discriminator 1
 843 0026 FFF7FEFF 		bl	lv_timer_resume
 844              	.LVL82:
 845              	.L56:
 299:Drivers/lvgl/lvgl/src/core/lv_obj_pos.c **** 
 846              		.loc 1 299 0 is_stmt 1
 847 002a 08BD     		pop	{r3, pc}
 848              		.cfi_endproc
 849              	.LFE176:
 851              		.section	.text.lv_obj_set_layout,"ax",%progbits
 852              		.align	1
 853              		.global	lv_obj_set_layout
 854              		.syntax unified
 855              		.thumb
 856              		.thumb_func
 857              		.fpu fpv5-d16
 859              	lv_obj_set_layout:
 860              	.LFB174:
 268:Drivers/lvgl/lvgl/src/core/lv_obj_pos.c ****     LV_ASSERT_OBJ(obj, MY_CLASS);
 861              		.loc 1 268 0
 862              		.cfi_startproc
 863              		@ args = 0, pretend = 0, frame = 0
ARM GAS  /tmp/cc3JQQuJ.s 			page 50


 864              		@ frame_needed = 0, uses_anonymous_args = 0
 865              	.LVL83:
 866 0000 10B5     		push	{r4, lr}
 867              	.LCFI26:
 868              		.cfi_def_cfa_offset 8
 869              		.cfi_offset 4, -8
 870              		.cfi_offset 14, -4
 871 0002 0446     		mov	r4, r0
 271:Drivers/lvgl/lvgl/src/core/lv_obj_pos.c **** 
 872              		.loc 1 271 0
 873 0004 0022     		movs	r2, #0
 874 0006 89B2     		uxth	r1, r1
 875              	.LVL84:
 876 0008 FFF7FEFF 		bl	lv_obj_set_style_layout
 877              	.LVL85:
 273:Drivers/lvgl/lvgl/src/core/lv_obj_pos.c **** }
 878              		.loc 1 273 0
 879 000c 2046     		mov	r0, r4
 880 000e FFF7FEFF 		bl	lv_obj_mark_layout_as_dirty
 881              	.LVL86:
 274:Drivers/lvgl/lvgl/src/core/lv_obj_pos.c **** 
 882              		.loc 1 274 0
 883 0012 10BD     		pop	{r4, pc}
 884              		.cfi_endproc
 885              	.LFE174:
 887              		.section	.text.lv_layout_register,"ax",%progbits
 888              		.align	1
 889              		.global	lv_layout_register
 890              		.syntax unified
 891              		.thumb
 892              		.thumb_func
 893              		.fpu fpv5-d16
 895              	lv_layout_register:
 896              	.LFB178:
 324:Drivers/lvgl/lvgl/src/core/lv_obj_pos.c ****     layout_cnt++;
 897              		.loc 1 324 0
 898              		.cfi_startproc
 899              		@ args = 0, pretend = 0, frame = 0
 900              		@ frame_needed = 0, uses_anonymous_args = 0
 901              	.LVL87:
 902 0000 70B5     		push	{r4, r5, r6, lr}
 903              	.LCFI27:
 904              		.cfi_def_cfa_offset 16
 905              		.cfi_offset 4, -16
 906              		.cfi_offset 5, -12
 907              		.cfi_offset 6, -8
 908              		.cfi_offset 14, -4
 909 0002 0646     		mov	r6, r0
 910 0004 0C46     		mov	r4, r1
 325:Drivers/lvgl/lvgl/src/core/lv_obj_pos.c ****     LV_GC_ROOT(_lv_layout_list) = lv_mem_realloc(LV_GC_ROOT(_lv_layout_list), layout_cnt * sizeof(l
 911              		.loc 1 325 0
 912 0006 0D4B     		ldr	r3, .L65
 913 0008 1968     		ldr	r1, [r3]
 914              	.LVL88:
 915 000a 0131     		adds	r1, r1, #1
 916 000c 1960     		str	r1, [r3]
 326:Drivers/lvgl/lvgl/src/core/lv_obj_pos.c ****     LV_ASSERT_MALLOC(LV_GC_ROOT(_lv_layout_list));
ARM GAS  /tmp/cc3JQQuJ.s 			page 51


 917              		.loc 1 326 0
 918 000e 0C4D     		ldr	r5, .L65+4
 919 0010 C900     		lsls	r1, r1, #3
 920 0012 2868     		ldr	r0, [r5]
 921              	.LVL89:
 922 0014 FFF7FEFF 		bl	lv_mem_realloc
 923              	.LVL90:
 924 0018 2860     		str	r0, [r5]
 327:Drivers/lvgl/lvgl/src/core/lv_obj_pos.c **** 
 925              		.loc 1 327 0
 926 001a 68B1     		cbz	r0, .L63
 927 001c 0246     		mov	r2, r0
 329:Drivers/lvgl/lvgl/src/core/lv_obj_pos.c ****     LV_GC_ROOT(_lv_layout_list)[layout_cnt - 1].user_data = user_data;
 928              		.loc 1 329 0
 929 001e 074B     		ldr	r3, .L65
 930 0020 1868     		ldr	r0, [r3]
 931 0022 6FF06043 		mvn	r3, #-536870912
 932 0026 0344     		add	r3, r3, r0
 933 0028 42F83360 		str	r6, [r2, r3, lsl #3]
 330:Drivers/lvgl/lvgl/src/core/lv_obj_pos.c ****     return layout_cnt;  /*No -1 to skip 0th index*/
 934              		.loc 1 330 0
 935 002c 044A     		ldr	r2, .L65+4
 936 002e 1268     		ldr	r2, [r2]
 937 0030 02EBC303 		add	r3, r2, r3, lsl #3
 938 0034 5C60     		str	r4, [r3, #4]
 332:Drivers/lvgl/lvgl/src/core/lv_obj_pos.c **** 
 939              		.loc 1 332 0
 940 0036 70BD     		pop	{r4, r5, r6, pc}
 941              	.LVL91:
 942              	.L63:
 943 0038 FEE7     		b	.L63
 944              	.L66:
 945 003a 00BF     		.align	2
 946              	.L65:
 947 003c 00000000 		.word	.LANCHOR0
 948 0040 00000000 		.word	_lv_layout_list
 949              		.cfi_endproc
 950              	.LFE178:
 952              		.section	.text.lv_obj_set_align,"ax",%progbits
 953              		.align	1
 954              		.global	lv_obj_set_align
 955              		.syntax unified
 956              		.thumb
 957              		.thumb_func
 958              		.fpu fpv5-d16
 960              	lv_obj_set_align:
 961              	.LFB179:
 335:Drivers/lvgl/lvgl/src/core/lv_obj_pos.c ****     lv_obj_set_style_align(obj, align, 0);
 962              		.loc 1 335 0
 963              		.cfi_startproc
 964              		@ args = 0, pretend = 0, frame = 0
 965              		@ frame_needed = 0, uses_anonymous_args = 0
 966              	.LVL92:
 967 0000 08B5     		push	{r3, lr}
 968              	.LCFI28:
 969              		.cfi_def_cfa_offset 8
 970              		.cfi_offset 3, -8
ARM GAS  /tmp/cc3JQQuJ.s 			page 52


 971              		.cfi_offset 14, -4
 336:Drivers/lvgl/lvgl/src/core/lv_obj_pos.c **** }
 972              		.loc 1 336 0
 973 0002 0022     		movs	r2, #0
 974 0004 FFF7FEFF 		bl	lv_obj_set_style_align
 975              	.LVL93:
 337:Drivers/lvgl/lvgl/src/core/lv_obj_pos.c **** 
 976              		.loc 1 337 0
 977 0008 08BD     		pop	{r3, pc}
 978              		.cfi_endproc
 979              	.LFE179:
 981              		.section	.text.lv_obj_align,"ax",%progbits
 982              		.align	1
 983              		.global	lv_obj_align
 984              		.syntax unified
 985              		.thumb
 986              		.thumb_func
 987              		.fpu fpv5-d16
 989              	lv_obj_align:
 990              	.LFB180:
 340:Drivers/lvgl/lvgl/src/core/lv_obj_pos.c ****     lv_obj_set_style_align(obj, align, 0);
 991              		.loc 1 340 0
 992              		.cfi_startproc
 993              		@ args = 0, pretend = 0, frame = 0
 994              		@ frame_needed = 0, uses_anonymous_args = 0
 995              	.LVL94:
 996 0000 70B5     		push	{r4, r5, r6, lr}
 997              	.LCFI29:
 998              		.cfi_def_cfa_offset 16
 999              		.cfi_offset 4, -16
 1000              		.cfi_offset 5, -12
 1001              		.cfi_offset 6, -8
 1002              		.cfi_offset 14, -4
 1003 0002 0446     		mov	r4, r0
 1004 0004 1546     		mov	r5, r2
 1005 0006 1E46     		mov	r6, r3
 341:Drivers/lvgl/lvgl/src/core/lv_obj_pos.c ****     lv_obj_set_pos(obj, x_ofs, y_ofs);
 1006              		.loc 1 341 0
 1007 0008 0022     		movs	r2, #0
 1008              	.LVL95:
 1009 000a FFF7FEFF 		bl	lv_obj_set_style_align
 1010              	.LVL96:
 342:Drivers/lvgl/lvgl/src/core/lv_obj_pos.c **** }
 1011              		.loc 1 342 0
 1012 000e 3246     		mov	r2, r6
 1013 0010 2946     		mov	r1, r5
 1014 0012 2046     		mov	r0, r4
 1015 0014 FFF7FEFF 		bl	lv_obj_set_pos
 1016              	.LVL97:
 343:Drivers/lvgl/lvgl/src/core/lv_obj_pos.c **** 
 1017              		.loc 1 343 0
 1018 0018 70BD     		pop	{r4, r5, r6, pc}
 1019              		.cfi_endproc
 1020              	.LFE180:
 1022              		.section	.text.lv_obj_get_coords,"ax",%progbits
 1023              		.align	1
 1024              		.global	lv_obj_get_coords
ARM GAS  /tmp/cc3JQQuJ.s 			page 53


 1025              		.syntax unified
 1026              		.thumb
 1027              		.thumb_func
 1028              		.fpu fpv5-d16
 1030              	lv_obj_get_coords:
 1031              	.LFB182:
 488:Drivers/lvgl/lvgl/src/core/lv_obj_pos.c ****     LV_ASSERT_OBJ(obj, MY_CLASS);
 1032              		.loc 1 488 0
 1033              		.cfi_startproc
 1034              		@ args = 0, pretend = 0, frame = 0
 1035              		@ frame_needed = 0, uses_anonymous_args = 0
 1036              		@ link register save eliminated.
 1037              	.LVL98:
 1038              	.LBB229:
 1039              	.LBB230:
 112:Drivers/lvgl/lvgl/src/core/../misc/../font/../misc/lv_area.h ****     dest->y1 = src->y1;
 1040              		.loc 3 112 0
 1041 0000 B0F91430 		ldrsh	r3, [r0, #20]
 1042 0004 0B80     		strh	r3, [r1]	@ movhi
 113:Drivers/lvgl/lvgl/src/core/../misc/../font/../misc/lv_area.h ****     dest->x2 = src->x2;
 1043              		.loc 3 113 0
 1044 0006 B0F91630 		ldrsh	r3, [r0, #22]
 1045 000a 4B80     		strh	r3, [r1, #2]	@ movhi
 114:Drivers/lvgl/lvgl/src/core/../misc/../font/../misc/lv_area.h ****     dest->y2 = src->y2;
 1046              		.loc 3 114 0
 1047 000c B0F91830 		ldrsh	r3, [r0, #24]
 1048 0010 8B80     		strh	r3, [r1, #4]	@ movhi
 115:Drivers/lvgl/lvgl/src/core/../misc/../font/../misc/lv_area.h **** }
 1049              		.loc 3 115 0
 1050 0012 B0F91A30 		ldrsh	r3, [r0, #26]
 1051 0016 CB80     		strh	r3, [r1, #6]	@ movhi
 1052              	.LVL99:
 1053              	.LBE230:
 1054              	.LBE229:
 492:Drivers/lvgl/lvgl/src/core/lv_obj_pos.c **** 
 1055              		.loc 1 492 0
 1056 0018 7047     		bx	lr
 1057              		.cfi_endproc
 1058              	.LFE182:
 1060              		.section	.text.lv_obj_get_x,"ax",%progbits
 1061              		.align	1
 1062              		.global	lv_obj_get_x
 1063              		.syntax unified
 1064              		.thumb
 1065              		.thumb_func
 1066              		.fpu fpv5-d16
 1068              	lv_obj_get_x:
 1069              	.LFB183:
 495:Drivers/lvgl/lvgl/src/core/lv_obj_pos.c ****     LV_ASSERT_OBJ(obj, MY_CLASS);
 1070              		.loc 1 495 0
 1071              		.cfi_startproc
 1072              		@ args = 0, pretend = 0, frame = 0
 1073              		@ frame_needed = 0, uses_anonymous_args = 0
 1074              	.LVL100:
 1075 0000 38B5     		push	{r3, r4, r5, lr}
 1076              	.LCFI30:
 1077              		.cfi_def_cfa_offset 16
ARM GAS  /tmp/cc3JQQuJ.s 			page 54


 1078              		.cfi_offset 3, -16
 1079              		.cfi_offset 4, -12
 1080              		.cfi_offset 5, -8
 1081              		.cfi_offset 14, -4
 1082 0002 0446     		mov	r4, r0
 499:Drivers/lvgl/lvgl/src/core/lv_obj_pos.c ****     if(parent) {
 1083              		.loc 1 499 0
 1084 0004 FFF7FEFF 		bl	lv_obj_get_parent
 1085              	.LVL101:
 500:Drivers/lvgl/lvgl/src/core/lv_obj_pos.c ****         rel_x  = obj->coords.x1 - parent->coords.x1;
 1086              		.loc 1 500 0
 1087 0008 10B9     		cbnz	r0, .L76
 507:Drivers/lvgl/lvgl/src/core/lv_obj_pos.c ****     }
 1088              		.loc 1 507 0
 1089 000a B4F91400 		ldrsh	r0, [r4, #20]
 1090              	.LVL102:
 1091              	.L74:
 510:Drivers/lvgl/lvgl/src/core/lv_obj_pos.c **** 
 1092              		.loc 1 510 0
 1093 000e 38BD     		pop	{r3, r4, r5, pc}
 1094              	.LVL103:
 1095              	.L76:
 1096 0010 0546     		mov	r5, r0
 501:Drivers/lvgl/lvgl/src/core/lv_obj_pos.c ****         rel_x += lv_obj_get_scroll_x(parent);
 1097              		.loc 1 501 0
 1098 0012 A48A     		ldrh	r4, [r4, #20]
 1099              	.LVL104:
 1100 0014 808A     		ldrh	r0, [r0, #20]
 1101              	.LVL105:
 1102 0016 241A     		subs	r4, r4, r0
 1103 0018 A4B2     		uxth	r4, r4
 1104              	.LVL106:
 502:Drivers/lvgl/lvgl/src/core/lv_obj_pos.c ****         rel_x -= lv_obj_get_style_pad_left(parent, LV_PART_MAIN);
 1105              		.loc 1 502 0
 1106 001a 2846     		mov	r0, r5
 1107 001c FFF7FEFF 		bl	lv_obj_get_scroll_x
 1108              	.LVL107:
 1109 0020 14FA80F4 		uxtah	r4, r4, r0
 1110              	.LVL108:
 1111 0024 A4B2     		uxth	r4, r4
 1112              	.LVL109:
 1113              	.LBB231:
 1114              	.LBB232:
 117:Drivers/lvgl/lvgl/src/core/lv_obj_style_gen.h ****     return (lv_coord_t)v.num;
 1115              		.loc 2 117 0
 1116 0026 1222     		movs	r2, #18
 1117 0028 0021     		movs	r1, #0
 1118 002a 2846     		mov	r0, r5
 1119 002c FFF7FEFF 		bl	lv_obj_get_style_prop
 1120              	.LVL110:
 1121              	.LBE232:
 1122              	.LBE231:
 503:Drivers/lvgl/lvgl/src/core/lv_obj_pos.c ****         rel_x -= lv_obj_get_style_border_width(parent, LV_PART_MAIN);
 1123              		.loc 1 503 0
 1124 0030 80B2     		uxth	r0, r0
 1125 0032 241A     		subs	r4, r4, r0
 1126              	.LVL111:
ARM GAS  /tmp/cc3JQQuJ.s 			page 55


 1127 0034 A4B2     		uxth	r4, r4
 1128              	.LVL112:
 1129              	.LBB233:
 1130              	.LBB234:
 255:Drivers/lvgl/lvgl/src/core/lv_obj_style_gen.h ****     return (lv_coord_t)v.num;
 1131              		.loc 2 255 0
 1132 0036 3222     		movs	r2, #50
 1133 0038 0021     		movs	r1, #0
 1134 003a 2846     		mov	r0, r5
 1135 003c FFF7FEFF 		bl	lv_obj_get_style_prop
 1136              	.LVL113:
 1137              	.LBE234:
 1138              	.LBE233:
 504:Drivers/lvgl/lvgl/src/core/lv_obj_pos.c ****     }
 1139              		.loc 1 504 0
 1140 0040 80B2     		uxth	r0, r0
 1141 0042 201A     		subs	r0, r4, r0
 1142 0044 00B2     		sxth	r0, r0
 1143              	.LVL114:
 1144 0046 E2E7     		b	.L74
 1145              		.cfi_endproc
 1146              	.LFE183:
 1148              		.section	.text.lv_obj_get_y,"ax",%progbits
 1149              		.align	1
 1150              		.global	lv_obj_get_y
 1151              		.syntax unified
 1152              		.thumb
 1153              		.thumb_func
 1154              		.fpu fpv5-d16
 1156              	lv_obj_get_y:
 1157              	.LFB185:
 520:Drivers/lvgl/lvgl/src/core/lv_obj_pos.c ****     LV_ASSERT_OBJ(obj, MY_CLASS);
 1158              		.loc 1 520 0
 1159              		.cfi_startproc
 1160              		@ args = 0, pretend = 0, frame = 0
 1161              		@ frame_needed = 0, uses_anonymous_args = 0
 1162              	.LVL115:
 1163 0000 38B5     		push	{r3, r4, r5, lr}
 1164              	.LCFI31:
 1165              		.cfi_def_cfa_offset 16
 1166              		.cfi_offset 3, -16
 1167              		.cfi_offset 4, -12
 1168              		.cfi_offset 5, -8
 1169              		.cfi_offset 14, -4
 1170 0002 0446     		mov	r4, r0
 524:Drivers/lvgl/lvgl/src/core/lv_obj_pos.c ****     if(parent) {
 1171              		.loc 1 524 0
 1172 0004 FFF7FEFF 		bl	lv_obj_get_parent
 1173              	.LVL116:
 525:Drivers/lvgl/lvgl/src/core/lv_obj_pos.c ****         rel_y = obj->coords.y1 - parent->coords.y1;
 1174              		.loc 1 525 0
 1175 0008 10B9     		cbnz	r0, .L81
 532:Drivers/lvgl/lvgl/src/core/lv_obj_pos.c ****     }
 1176              		.loc 1 532 0
 1177 000a B4F91600 		ldrsh	r0, [r4, #22]
 1178              	.LVL117:
 1179              	.L79:
ARM GAS  /tmp/cc3JQQuJ.s 			page 56


 535:Drivers/lvgl/lvgl/src/core/lv_obj_pos.c **** 
 1180              		.loc 1 535 0
 1181 000e 38BD     		pop	{r3, r4, r5, pc}
 1182              	.LVL118:
 1183              	.L81:
 1184 0010 0546     		mov	r5, r0
 526:Drivers/lvgl/lvgl/src/core/lv_obj_pos.c ****         rel_y += lv_obj_get_scroll_y(parent);
 1185              		.loc 1 526 0
 1186 0012 E48A     		ldrh	r4, [r4, #22]
 1187              	.LVL119:
 1188 0014 C08A     		ldrh	r0, [r0, #22]
 1189              	.LVL120:
 1190 0016 241A     		subs	r4, r4, r0
 1191 0018 A4B2     		uxth	r4, r4
 1192              	.LVL121:
 527:Drivers/lvgl/lvgl/src/core/lv_obj_pos.c ****         rel_y -= lv_obj_get_style_pad_top(parent, LV_PART_MAIN);
 1193              		.loc 1 527 0
 1194 001a 2846     		mov	r0, r5
 1195 001c FFF7FEFF 		bl	lv_obj_get_scroll_y
 1196              	.LVL122:
 1197 0020 14FA80F4 		uxtah	r4, r4, r0
 1198              	.LVL123:
 1199 0024 A4B2     		uxth	r4, r4
 1200              	.LVL124:
 1201              	.LBB235:
 1202              	.LBB236:
 105:Drivers/lvgl/lvgl/src/core/lv_obj_style_gen.h ****     return (lv_coord_t)v.num;
 1203              		.loc 2 105 0
 1204 0026 1022     		movs	r2, #16
 1205 0028 0021     		movs	r1, #0
 1206 002a 2846     		mov	r0, r5
 1207 002c FFF7FEFF 		bl	lv_obj_get_style_prop
 1208              	.LVL125:
 1209              	.LBE236:
 1210              	.LBE235:
 528:Drivers/lvgl/lvgl/src/core/lv_obj_pos.c ****         rel_y -= lv_obj_get_style_border_width(parent, LV_PART_MAIN);
 1211              		.loc 1 528 0
 1212 0030 80B2     		uxth	r0, r0
 1213 0032 241A     		subs	r4, r4, r0
 1214              	.LVL126:
 1215 0034 A4B2     		uxth	r4, r4
 1216              	.LVL127:
 1217              	.LBB237:
 1218              	.LBB238:
 255:Drivers/lvgl/lvgl/src/core/lv_obj_style_gen.h ****     return (lv_coord_t)v.num;
 1219              		.loc 2 255 0
 1220 0036 3222     		movs	r2, #50
 1221 0038 0021     		movs	r1, #0
 1222 003a 2846     		mov	r0, r5
 1223 003c FFF7FEFF 		bl	lv_obj_get_style_prop
 1224              	.LVL128:
 1225              	.LBE238:
 1226              	.LBE237:
 529:Drivers/lvgl/lvgl/src/core/lv_obj_pos.c ****     }
 1227              		.loc 1 529 0
 1228 0040 80B2     		uxth	r0, r0
 1229 0042 201A     		subs	r0, r4, r0
ARM GAS  /tmp/cc3JQQuJ.s 			page 57


 1230 0044 00B2     		sxth	r0, r0
 1231              	.LVL129:
 1232 0046 E2E7     		b	.L79
 1233              		.cfi_endproc
 1234              	.LFE185:
 1236              		.section	.text.lv_obj_get_x_aligned,"ax",%progbits
 1237              		.align	1
 1238              		.global	lv_obj_get_x_aligned
 1239              		.syntax unified
 1240              		.thumb
 1241              		.thumb_func
 1242              		.fpu fpv5-d16
 1244              	lv_obj_get_x_aligned:
 1245              	.LFB187:
 545:Drivers/lvgl/lvgl/src/core/lv_obj_pos.c ****     return lv_obj_get_style_x(obj, LV_PART_MAIN);
 1246              		.loc 1 545 0
 1247              		.cfi_startproc
 1248              		@ args = 0, pretend = 0, frame = 0
 1249              		@ frame_needed = 0, uses_anonymous_args = 0
 1250              	.LVL130:
 1251 0000 08B5     		push	{r3, lr}
 1252              	.LCFI32:
 1253              		.cfi_def_cfa_offset 8
 1254              		.cfi_offset 3, -8
 1255              		.cfi_offset 14, -4
 1256              	.LVL131:
 1257              	.LBB239:
 1258              	.LBB240:
  39:Drivers/lvgl/lvgl/src/core/lv_obj_style_gen.h ****     return (lv_coord_t)v.num;
 1259              		.loc 2 39 0
 1260 0002 0722     		movs	r2, #7
 1261 0004 0021     		movs	r1, #0
 1262 0006 FFF7FEFF 		bl	lv_obj_get_style_prop
 1263              	.LVL132:
 1264              	.LBE240:
 1265              	.LBE239:
 547:Drivers/lvgl/lvgl/src/core/lv_obj_pos.c **** 
 1266              		.loc 1 547 0
 1267 000a 00B2     		sxth	r0, r0
 1268 000c 08BD     		pop	{r3, pc}
 1269              		.cfi_endproc
 1270              	.LFE187:
 1272              		.section	.text.lv_obj_get_y_aligned,"ax",%progbits
 1273              		.align	1
 1274              		.global	lv_obj_get_y_aligned
 1275              		.syntax unified
 1276              		.thumb
 1277              		.thumb_func
 1278              		.fpu fpv5-d16
 1280              	lv_obj_get_y_aligned:
 1281              	.LFB188:
 550:Drivers/lvgl/lvgl/src/core/lv_obj_pos.c ****     return lv_obj_get_style_y(obj, LV_PART_MAIN);
 1282              		.loc 1 550 0
 1283              		.cfi_startproc
 1284              		@ args = 0, pretend = 0, frame = 0
 1285              		@ frame_needed = 0, uses_anonymous_args = 0
 1286              	.LVL133:
ARM GAS  /tmp/cc3JQQuJ.s 			page 58


 1287 0000 08B5     		push	{r3, lr}
 1288              	.LCFI33:
 1289              		.cfi_def_cfa_offset 8
 1290              		.cfi_offset 3, -8
 1291              		.cfi_offset 14, -4
 1292              	.LVL134:
 1293              	.LBB241:
 1294              	.LBB242:
  45:Drivers/lvgl/lvgl/src/core/lv_obj_style_gen.h ****     return (lv_coord_t)v.num;
 1295              		.loc 2 45 0
 1296 0002 0822     		movs	r2, #8
 1297 0004 0021     		movs	r1, #0
 1298 0006 FFF7FEFF 		bl	lv_obj_get_style_prop
 1299              	.LVL135:
 1300              	.LBE242:
 1301              	.LBE241:
 552:Drivers/lvgl/lvgl/src/core/lv_obj_pos.c **** 
 1302              		.loc 1 552 0
 1303 000a 00B2     		sxth	r0, r0
 1304 000c 08BD     		pop	{r3, pc}
 1305              		.cfi_endproc
 1306              	.LFE188:
 1308              		.section	.text.lv_obj_get_width,"ax",%progbits
 1309              		.align	1
 1310              		.global	lv_obj_get_width
 1311              		.syntax unified
 1312              		.thumb
 1313              		.thumb_func
 1314              		.fpu fpv5-d16
 1316              	lv_obj_get_width:
 1317              	.LFB189:
 556:Drivers/lvgl/lvgl/src/core/lv_obj_pos.c ****     LV_ASSERT_OBJ(obj, MY_CLASS);
 1318              		.loc 1 556 0
 1319              		.cfi_startproc
 1320              		@ args = 0, pretend = 0, frame = 0
 1321              		@ frame_needed = 0, uses_anonymous_args = 0
 1322              		@ link register save eliminated.
 1323              	.LVL136:
 1324              	.LBB243:
 1325              	.LBB244:
 125:Drivers/lvgl/lvgl/src/core/../misc/../font/../misc/lv_area.h **** }
 1326              		.loc 3 125 0
 1327 0000 038B     		ldrh	r3, [r0, #24]
 1328 0002 808A     		ldrh	r0, [r0, #20]
 1329              	.LVL137:
 1330 0004 181A     		subs	r0, r3, r0
 1331 0006 80B2     		uxth	r0, r0
 1332 0008 0130     		adds	r0, r0, #1
 1333              	.LVL138:
 1334              	.LBE244:
 1335              	.LBE243:
 560:Drivers/lvgl/lvgl/src/core/lv_obj_pos.c **** 
 1336              		.loc 1 560 0
 1337 000a 00B2     		sxth	r0, r0
 1338 000c 7047     		bx	lr
 1339              		.cfi_endproc
 1340              	.LFE189:
ARM GAS  /tmp/cc3JQQuJ.s 			page 59


 1342              		.section	.text.lv_obj_get_x2,"ax",%progbits
 1343              		.align	1
 1344              		.global	lv_obj_get_x2
 1345              		.syntax unified
 1346              		.thumb
 1347              		.thumb_func
 1348              		.fpu fpv5-d16
 1350              	lv_obj_get_x2:
 1351              	.LFB184:
 513:Drivers/lvgl/lvgl/src/core/lv_obj_pos.c ****     LV_ASSERT_OBJ(obj, MY_CLASS);
 1352              		.loc 1 513 0
 1353              		.cfi_startproc
 1354              		@ args = 0, pretend = 0, frame = 0
 1355              		@ frame_needed = 0, uses_anonymous_args = 0
 1356              	.LVL139:
 1357 0000 38B5     		push	{r3, r4, r5, lr}
 1358              	.LCFI34:
 1359              		.cfi_def_cfa_offset 16
 1360              		.cfi_offset 3, -16
 1361              		.cfi_offset 4, -12
 1362              		.cfi_offset 5, -8
 1363              		.cfi_offset 14, -4
 1364 0002 0546     		mov	r5, r0
 516:Drivers/lvgl/lvgl/src/core/lv_obj_pos.c **** }
 1365              		.loc 1 516 0
 1366 0004 FFF7FEFF 		bl	lv_obj_get_x
 1367              	.LVL140:
 1368 0008 84B2     		uxth	r4, r0
 1369 000a 2846     		mov	r0, r5
 1370 000c FFF7FEFF 		bl	lv_obj_get_width
 1371              	.LVL141:
 1372 0010 14FA80F0 		uxtah	r0, r4, r0
 517:Drivers/lvgl/lvgl/src/core/lv_obj_pos.c **** 
 1373              		.loc 1 517 0
 1374 0014 00B2     		sxth	r0, r0
 1375 0016 38BD     		pop	{r3, r4, r5, pc}
 1376              		.cfi_endproc
 1377              	.LFE184:
 1379              		.section	.text.lv_obj_get_height,"ax",%progbits
 1380              		.align	1
 1381              		.global	lv_obj_get_height
 1382              		.syntax unified
 1383              		.thumb
 1384              		.thumb_func
 1385              		.fpu fpv5-d16
 1387              	lv_obj_get_height:
 1388              	.LFB190:
 563:Drivers/lvgl/lvgl/src/core/lv_obj_pos.c ****     LV_ASSERT_OBJ(obj, MY_CLASS);
 1389              		.loc 1 563 0
 1390              		.cfi_startproc
 1391              		@ args = 0, pretend = 0, frame = 0
 1392              		@ frame_needed = 0, uses_anonymous_args = 0
 1393              		@ link register save eliminated.
 1394              	.LVL142:
 1395              	.LBB245:
 1396              	.LBB246:
 1397              		.loc 3 135 0
ARM GAS  /tmp/cc3JQQuJ.s 			page 60


 1398 0000 438B     		ldrh	r3, [r0, #26]
 1399 0002 C08A     		ldrh	r0, [r0, #22]
 1400              	.LVL143:
 1401 0004 181A     		subs	r0, r3, r0
 1402 0006 80B2     		uxth	r0, r0
 1403 0008 0130     		adds	r0, r0, #1
 1404              	.LVL144:
 1405              	.LBE246:
 1406              	.LBE245:
 567:Drivers/lvgl/lvgl/src/core/lv_obj_pos.c **** 
 1407              		.loc 1 567 0
 1408 000a 00B2     		sxth	r0, r0
 1409 000c 7047     		bx	lr
 1410              		.cfi_endproc
 1411              	.LFE190:
 1413              		.section	.text.lv_obj_get_y2,"ax",%progbits
 1414              		.align	1
 1415              		.global	lv_obj_get_y2
 1416              		.syntax unified
 1417              		.thumb
 1418              		.thumb_func
 1419              		.fpu fpv5-d16
 1421              	lv_obj_get_y2:
 1422              	.LFB186:
 538:Drivers/lvgl/lvgl/src/core/lv_obj_pos.c ****     LV_ASSERT_OBJ(obj, MY_CLASS);
 1423              		.loc 1 538 0
 1424              		.cfi_startproc
 1425              		@ args = 0, pretend = 0, frame = 0
 1426              		@ frame_needed = 0, uses_anonymous_args = 0
 1427              	.LVL145:
 1428 0000 38B5     		push	{r3, r4, r5, lr}
 1429              	.LCFI35:
 1430              		.cfi_def_cfa_offset 16
 1431              		.cfi_offset 3, -16
 1432              		.cfi_offset 4, -12
 1433              		.cfi_offset 5, -8
 1434              		.cfi_offset 14, -4
 1435 0002 0546     		mov	r5, r0
 541:Drivers/lvgl/lvgl/src/core/lv_obj_pos.c **** }
 1436              		.loc 1 541 0
 1437 0004 FFF7FEFF 		bl	lv_obj_get_y
 1438              	.LVL146:
 1439 0008 84B2     		uxth	r4, r0
 1440 000a 2846     		mov	r0, r5
 1441 000c FFF7FEFF 		bl	lv_obj_get_height
 1442              	.LVL147:
 1443 0010 14FA80F0 		uxtah	r0, r4, r0
 542:Drivers/lvgl/lvgl/src/core/lv_obj_pos.c **** 
 1444              		.loc 1 542 0
 1445 0014 00B2     		sxth	r0, r0
 1446 0016 38BD     		pop	{r3, r4, r5, pc}
 1447              		.cfi_endproc
 1448              	.LFE186:
 1450              		.section	.text.lv_obj_get_content_width,"ax",%progbits
 1451              		.align	1
 1452              		.global	lv_obj_get_content_width
 1453              		.syntax unified
ARM GAS  /tmp/cc3JQQuJ.s 			page 61


 1454              		.thumb
 1455              		.thumb_func
 1456              		.fpu fpv5-d16
 1458              	lv_obj_get_content_width:
 1459              	.LFB191:
 570:Drivers/lvgl/lvgl/src/core/lv_obj_pos.c ****     LV_ASSERT_OBJ(obj, MY_CLASS);
 1460              		.loc 1 570 0
 1461              		.cfi_startproc
 1462              		@ args = 0, pretend = 0, frame = 0
 1463              		@ frame_needed = 0, uses_anonymous_args = 0
 1464              	.LVL148:
 1465 0000 F8B5     		push	{r3, r4, r5, r6, r7, lr}
 1466              	.LCFI36:
 1467              		.cfi_def_cfa_offset 24
 1468              		.cfi_offset 3, -24
 1469              		.cfi_offset 4, -20
 1470              		.cfi_offset 5, -16
 1471              		.cfi_offset 6, -12
 1472              		.cfi_offset 7, -8
 1473              		.cfi_offset 14, -4
 1474 0002 0546     		mov	r5, r0
 1475              	.LVL149:
 1476              	.LBB247:
 1477              	.LBB248:
 117:Drivers/lvgl/lvgl/src/core/lv_obj_style_gen.h ****     return (lv_coord_t)v.num;
 1478              		.loc 2 117 0
 1479 0004 1222     		movs	r2, #18
 1480 0006 0021     		movs	r1, #0
 1481 0008 FFF7FEFF 		bl	lv_obj_get_style_prop
 1482              	.LVL150:
 1483 000c 0746     		mov	r7, r0
 1484              	.LVL151:
 1485              	.LBE248:
 1486              	.LBE247:
 1487              	.LBB249:
 1488              	.LBB250:
 123:Drivers/lvgl/lvgl/src/core/lv_obj_style_gen.h ****     return (lv_coord_t)v.num;
 1489              		.loc 2 123 0
 1490 000e 1322     		movs	r2, #19
 1491 0010 0021     		movs	r1, #0
 1492 0012 2846     		mov	r0, r5
 1493 0014 FFF7FEFF 		bl	lv_obj_get_style_prop
 1494              	.LVL152:
 1495 0018 0646     		mov	r6, r0
 1496              	.LVL153:
 1497              	.LBE250:
 1498              	.LBE249:
 1499              	.LBB251:
 1500              	.LBB252:
 255:Drivers/lvgl/lvgl/src/core/lv_obj_style_gen.h ****     return (lv_coord_t)v.num;
 1501              		.loc 2 255 0
 1502 001a 3222     		movs	r2, #50
 1503 001c 0021     		movs	r1, #0
 1504 001e 2846     		mov	r0, r5
 1505 0020 FFF7FEFF 		bl	lv_obj_get_style_prop
 1506              	.LVL154:
 1507 0024 0446     		mov	r4, r0
ARM GAS  /tmp/cc3JQQuJ.s 			page 62


 1508              	.LVL155:
 1509              	.LBE252:
 1510              	.LBE251:
 577:Drivers/lvgl/lvgl/src/core/lv_obj_pos.c **** }
 1511              		.loc 1 577 0
 1512 0026 2846     		mov	r0, r5
 1513 0028 FFF7FEFF 		bl	lv_obj_get_width
 1514              	.LVL156:
 1515 002c 80B2     		uxth	r0, r0
 1516              	.LVL157:
 1517 002e C01B     		subs	r0, r0, r7
 1518 0030 80B2     		uxth	r0, r0
 1519              	.LVL158:
 1520 0032 801B     		subs	r0, r0, r6
 1521 0034 80B2     		uxth	r0, r0
 1522              	.LVL159:
 1523 0036 6400     		lsls	r4, r4, #1
 1524              	.LVL160:
 1525 0038 A4B2     		uxth	r4, r4
 1526 003a 001B     		subs	r0, r0, r4
 578:Drivers/lvgl/lvgl/src/core/lv_obj_pos.c **** 
 1527              		.loc 1 578 0
 1528 003c 00B2     		sxth	r0, r0
 1529 003e F8BD     		pop	{r3, r4, r5, r6, r7, pc}
 1530              		.cfi_endproc
 1531              	.LFE191:
 1533              		.section	.text.lv_obj_get_content_height,"ax",%progbits
 1534              		.align	1
 1535              		.global	lv_obj_get_content_height
 1536              		.syntax unified
 1537              		.thumb
 1538              		.thumb_func
 1539              		.fpu fpv5-d16
 1541              	lv_obj_get_content_height:
 1542              	.LFB192:
 581:Drivers/lvgl/lvgl/src/core/lv_obj_pos.c ****     LV_ASSERT_OBJ(obj, MY_CLASS);
 1543              		.loc 1 581 0
 1544              		.cfi_startproc
 1545              		@ args = 0, pretend = 0, frame = 0
 1546              		@ frame_needed = 0, uses_anonymous_args = 0
 1547              	.LVL161:
 1548 0000 F8B5     		push	{r3, r4, r5, r6, r7, lr}
 1549              	.LCFI37:
 1550              		.cfi_def_cfa_offset 24
 1551              		.cfi_offset 3, -24
 1552              		.cfi_offset 4, -20
 1553              		.cfi_offset 5, -16
 1554              		.cfi_offset 6, -12
 1555              		.cfi_offset 7, -8
 1556              		.cfi_offset 14, -4
 1557 0002 0546     		mov	r5, r0
 1558              	.LVL162:
 1559              	.LBB253:
 1560              	.LBB254:
 105:Drivers/lvgl/lvgl/src/core/lv_obj_style_gen.h ****     return (lv_coord_t)v.num;
 1561              		.loc 2 105 0
 1562 0004 1022     		movs	r2, #16
ARM GAS  /tmp/cc3JQQuJ.s 			page 63


 1563 0006 0021     		movs	r1, #0
 1564 0008 FFF7FEFF 		bl	lv_obj_get_style_prop
 1565              	.LVL163:
 1566 000c 0746     		mov	r7, r0
 1567              	.LVL164:
 1568              	.LBE254:
 1569              	.LBE253:
 1570              	.LBB255:
 1571              	.LBB256:
 111:Drivers/lvgl/lvgl/src/core/lv_obj_style_gen.h ****     return (lv_coord_t)v.num;
 1572              		.loc 2 111 0
 1573 000e 1122     		movs	r2, #17
 1574 0010 0021     		movs	r1, #0
 1575 0012 2846     		mov	r0, r5
 1576 0014 FFF7FEFF 		bl	lv_obj_get_style_prop
 1577              	.LVL165:
 1578 0018 0646     		mov	r6, r0
 1579              	.LVL166:
 1580              	.LBE256:
 1581              	.LBE255:
 1582              	.LBB257:
 1583              	.LBB258:
 255:Drivers/lvgl/lvgl/src/core/lv_obj_style_gen.h ****     return (lv_coord_t)v.num;
 1584              		.loc 2 255 0
 1585 001a 3222     		movs	r2, #50
 1586 001c 0021     		movs	r1, #0
 1587 001e 2846     		mov	r0, r5
 1588 0020 FFF7FEFF 		bl	lv_obj_get_style_prop
 1589              	.LVL167:
 1590 0024 0446     		mov	r4, r0
 1591              	.LVL168:
 1592              	.LBE258:
 1593              	.LBE257:
 588:Drivers/lvgl/lvgl/src/core/lv_obj_pos.c **** }
 1594              		.loc 1 588 0
 1595 0026 2846     		mov	r0, r5
 1596 0028 FFF7FEFF 		bl	lv_obj_get_height
 1597              	.LVL169:
 1598 002c 80B2     		uxth	r0, r0
 1599              	.LVL170:
 1600 002e C01B     		subs	r0, r0, r7
 1601 0030 80B2     		uxth	r0, r0
 1602              	.LVL171:
 1603 0032 801B     		subs	r0, r0, r6
 1604 0034 80B2     		uxth	r0, r0
 1605              	.LVL172:
 1606 0036 6400     		lsls	r4, r4, #1
 1607              	.LVL173:
 1608 0038 A4B2     		uxth	r4, r4
 1609 003a 001B     		subs	r0, r0, r4
 589:Drivers/lvgl/lvgl/src/core/lv_obj_pos.c **** 
 1610              		.loc 1 589 0
 1611 003c 00B2     		sxth	r0, r0
 1612 003e F8BD     		pop	{r3, r4, r5, r6, r7, pc}
 1613              		.cfi_endproc
 1614              	.LFE192:
 1616              		.section	.text.lv_obj_get_content_coords,"ax",%progbits
ARM GAS  /tmp/cc3JQQuJ.s 			page 64


 1617              		.align	1
 1618              		.global	lv_obj_get_content_coords
 1619              		.syntax unified
 1620              		.thumb
 1621              		.thumb_func
 1622              		.fpu fpv5-d16
 1624              	lv_obj_get_content_coords:
 1625              	.LFB193:
 592:Drivers/lvgl/lvgl/src/core/lv_obj_pos.c ****     LV_ASSERT_OBJ(obj, MY_CLASS);
 1626              		.loc 1 592 0
 1627              		.cfi_startproc
 1628              		@ args = 0, pretend = 0, frame = 0
 1629              		@ frame_needed = 0, uses_anonymous_args = 0
 1630              	.LVL174:
 1631 0000 70B5     		push	{r4, r5, r6, lr}
 1632              	.LCFI38:
 1633              		.cfi_def_cfa_offset 16
 1634              		.cfi_offset 4, -16
 1635              		.cfi_offset 5, -12
 1636              		.cfi_offset 6, -8
 1637              		.cfi_offset 14, -4
 1638 0002 0646     		mov	r6, r0
 1639 0004 0C46     		mov	r4, r1
 1640              	.LVL175:
 1641              	.LBB259:
 1642              	.LBB260:
 255:Drivers/lvgl/lvgl/src/core/lv_obj_style_gen.h ****     return (lv_coord_t)v.num;
 1643              		.loc 2 255 0
 1644 0006 3222     		movs	r2, #50
 1645 0008 0021     		movs	r1, #0
 1646              	.LVL176:
 1647 000a FFF7FEFF 		bl	lv_obj_get_style_prop
 1648              	.LVL177:
 1649 000e 0546     		mov	r5, r0
 1650              	.LVL178:
 1651              	.LBE260:
 1652              	.LBE259:
 596:Drivers/lvgl/lvgl/src/core/lv_obj_pos.c ****     lv_area_increase(area, -border_width, -border_width);
 1653              		.loc 1 596 0
 1654 0010 2146     		mov	r1, r4
 1655 0012 3046     		mov	r0, r6
 1656 0014 FFF7FEFF 		bl	lv_obj_get_coords
 1657              	.LVL179:
 597:Drivers/lvgl/lvgl/src/core/lv_obj_pos.c ****     area->x1 += lv_obj_get_style_pad_left(obj, LV_PART_MAIN);
 1658              		.loc 1 597 0
 1659 0018 6942     		negs	r1, r5
 1660 001a 09B2     		sxth	r1, r1
 1661 001c 0A46     		mov	r2, r1
 1662 001e 2046     		mov	r0, r4
 1663 0020 FFF7FEFF 		bl	lv_area_increase
 1664              	.LVL180:
 1665              	.LBB261:
 1666              	.LBB262:
 117:Drivers/lvgl/lvgl/src/core/lv_obj_style_gen.h ****     return (lv_coord_t)v.num;
 1667              		.loc 2 117 0
 1668 0024 1222     		movs	r2, #18
 1669 0026 0021     		movs	r1, #0
ARM GAS  /tmp/cc3JQQuJ.s 			page 65


 1670 0028 3046     		mov	r0, r6
 1671 002a FFF7FEFF 		bl	lv_obj_get_style_prop
 1672              	.LVL181:
 1673              	.LBE262:
 1674              	.LBE261:
 598:Drivers/lvgl/lvgl/src/core/lv_obj_pos.c ****     area->x2 -= lv_obj_get_style_pad_right(obj, LV_PART_MAIN);
 1675              		.loc 1 598 0
 1676 002e 2388     		ldrh	r3, [r4]
 1677 0030 13FA80F0 		uxtah	r0, r3, r0
 1678 0034 2080     		strh	r0, [r4]	@ movhi
 1679              	.LVL182:
 1680              	.LBB263:
 1681              	.LBB264:
 123:Drivers/lvgl/lvgl/src/core/lv_obj_style_gen.h ****     return (lv_coord_t)v.num;
 1682              		.loc 2 123 0
 1683 0036 1322     		movs	r2, #19
 1684 0038 0021     		movs	r1, #0
 1685 003a 3046     		mov	r0, r6
 1686 003c FFF7FEFF 		bl	lv_obj_get_style_prop
 1687              	.LVL183:
 1688              	.LBE264:
 1689              	.LBE263:
 599:Drivers/lvgl/lvgl/src/core/lv_obj_pos.c ****     area->y1 += lv_obj_get_style_pad_top(obj, LV_PART_MAIN);
 1690              		.loc 1 599 0
 1691 0040 80B2     		uxth	r0, r0
 1692 0042 A388     		ldrh	r3, [r4, #4]
 1693 0044 181A     		subs	r0, r3, r0
 1694 0046 A080     		strh	r0, [r4, #4]	@ movhi
 1695              	.LVL184:
 1696              	.LBB265:
 1697              	.LBB266:
 105:Drivers/lvgl/lvgl/src/core/lv_obj_style_gen.h ****     return (lv_coord_t)v.num;
 1698              		.loc 2 105 0
 1699 0048 1022     		movs	r2, #16
 1700 004a 0021     		movs	r1, #0
 1701 004c 3046     		mov	r0, r6
 1702 004e FFF7FEFF 		bl	lv_obj_get_style_prop
 1703              	.LVL185:
 1704              	.LBE266:
 1705              	.LBE265:
 600:Drivers/lvgl/lvgl/src/core/lv_obj_pos.c ****     area->y2 -= lv_obj_get_style_pad_bottom(obj, LV_PART_MAIN);
 1706              		.loc 1 600 0
 1707 0052 6388     		ldrh	r3, [r4, #2]
 1708 0054 13FA80F0 		uxtah	r0, r3, r0
 1709 0058 6080     		strh	r0, [r4, #2]	@ movhi
 1710              	.LVL186:
 1711              	.LBB267:
 1712              	.LBB268:
 111:Drivers/lvgl/lvgl/src/core/lv_obj_style_gen.h ****     return (lv_coord_t)v.num;
 1713              		.loc 2 111 0
 1714 005a 1122     		movs	r2, #17
 1715 005c 0021     		movs	r1, #0
 1716 005e 3046     		mov	r0, r6
 1717 0060 FFF7FEFF 		bl	lv_obj_get_style_prop
 1718              	.LVL187:
 1719              	.LBE268:
 1720              	.LBE267:
ARM GAS  /tmp/cc3JQQuJ.s 			page 66


 601:Drivers/lvgl/lvgl/src/core/lv_obj_pos.c **** 
 1721              		.loc 1 601 0
 1722 0064 80B2     		uxth	r0, r0
 1723 0066 E388     		ldrh	r3, [r4, #6]
 1724 0068 181A     		subs	r0, r3, r0
 1725 006a E080     		strh	r0, [r4, #6]	@ movhi
 603:Drivers/lvgl/lvgl/src/core/lv_obj_pos.c **** 
 1726              		.loc 1 603 0
 1727 006c 70BD     		pop	{r4, r5, r6, pc}
 1728              		.cfi_endproc
 1729              	.LFE193:
 1731              		.section	.text.lv_obj_get_self_width,"ax",%progbits
 1732              		.align	1
 1733              		.global	lv_obj_get_self_width
 1734              		.syntax unified
 1735              		.thumb
 1736              		.thumb_func
 1737              		.fpu fpv5-d16
 1739              	lv_obj_get_self_width:
 1740              	.LFB194:
 606:Drivers/lvgl/lvgl/src/core/lv_obj_pos.c ****     lv_point_t p = {0, LV_COORD_MIN};
 1741              		.loc 1 606 0
 1742              		.cfi_startproc
 1743              		@ args = 0, pretend = 0, frame = 8
 1744              		@ frame_needed = 0, uses_anonymous_args = 0
 1745              	.LVL188:
 1746 0000 00B5     		push	{lr}
 1747              	.LCFI39:
 1748              		.cfi_def_cfa_offset 4
 1749              		.cfi_offset 14, -4
 1750 0002 83B0     		sub	sp, sp, #12
 1751              	.LCFI40:
 1752              		.cfi_def_cfa_offset 16
 607:Drivers/lvgl/lvgl/src/core/lv_obj_pos.c ****     lv_event_send((lv_obj_t *)obj, LV_EVENT_GET_SELF_SIZE, &p);
 1753              		.loc 1 607 0
 1754 0004 0023     		movs	r3, #0
 1755 0006 ADF80430 		strh	r3, [sp, #4]	@ movhi
 1756 000a 4EF20103 		movw	r3, #57345
 1757 000e ADF80630 		strh	r3, [sp, #6]	@ movhi
 608:Drivers/lvgl/lvgl/src/core/lv_obj_pos.c ****     return p.x;
 1758              		.loc 1 608 0
 1759 0012 01AA     		add	r2, sp, #4
 1760 0014 2C21     		movs	r1, #44
 1761 0016 FFF7FEFF 		bl	lv_event_send
 1762              	.LVL189:
 610:Drivers/lvgl/lvgl/src/core/lv_obj_pos.c **** 
 1763              		.loc 1 610 0
 1764 001a BDF90400 		ldrsh	r0, [sp, #4]
 1765 001e 03B0     		add	sp, sp, #12
 1766              	.LCFI41:
 1767              		.cfi_def_cfa_offset 4
 1768              		@ sp needed
 1769 0020 5DF804FB 		ldr	pc, [sp], #4
 1770              		.cfi_endproc
 1771              	.LFE194:
 1773              		.section	.text.calc_content_width,"ax",%progbits
 1774              		.align	1
ARM GAS  /tmp/cc3JQQuJ.s 			page 67


 1775              		.syntax unified
 1776              		.thumb
 1777              		.thumb_func
 1778              		.fpu fpv5-d16
 1780              	calc_content_width:
 1781              	.LFB211:
 995:Drivers/lvgl/lvgl/src/core/lv_obj_pos.c ****     lv_obj_scroll_to_x(obj, 0, LV_ANIM_OFF);
 1782              		.loc 1 995 0
 1783              		.cfi_startproc
 1784              		@ args = 0, pretend = 0, frame = 8
 1785              		@ frame_needed = 0, uses_anonymous_args = 0
 1786              	.LVL190:
 1787 0000 2DE9F04F 		push	{r4, r5, r6, r7, r8, r9, r10, fp, lr}
 1788              	.LCFI42:
 1789              		.cfi_def_cfa_offset 36
 1790              		.cfi_offset 4, -36
 1791              		.cfi_offset 5, -32
 1792              		.cfi_offset 6, -28
 1793              		.cfi_offset 7, -24
 1794              		.cfi_offset 8, -20
 1795              		.cfi_offset 9, -16
 1796              		.cfi_offset 10, -12
 1797              		.cfi_offset 11, -8
 1798              		.cfi_offset 14, -4
 1799 0004 83B0     		sub	sp, sp, #12
 1800              	.LCFI43:
 1801              		.cfi_def_cfa_offset 48
 1802 0006 0546     		mov	r5, r0
 996:Drivers/lvgl/lvgl/src/core/lv_obj_pos.c **** 
 1803              		.loc 1 996 0
 1804 0008 0022     		movs	r2, #0
 1805 000a 1146     		mov	r1, r2
 1806 000c FFF7FEFF 		bl	lv_obj_scroll_to_x
 1807              	.LVL191:
 1808              	.LBB269:
 1809              	.LBB270:
 255:Drivers/lvgl/lvgl/src/core/lv_obj_style_gen.h ****     return (lv_coord_t)v.num;
 1810              		.loc 2 255 0
 1811 0010 3222     		movs	r2, #50
 1812 0012 0021     		movs	r1, #0
 1813 0014 2846     		mov	r0, r5
 1814 0016 FFF7FEFF 		bl	lv_obj_get_style_prop
 1815              	.LVL192:
 1816 001a 0746     		mov	r7, r0
 1817              	.LVL193:
 1818              	.LBE270:
 1819              	.LBE269:
 1820              	.LBB271:
 1821              	.LBB272:
 123:Drivers/lvgl/lvgl/src/core/lv_obj_style_gen.h ****     return (lv_coord_t)v.num;
 1822              		.loc 2 123 0
 1823 001c 1322     		movs	r2, #19
 1824 001e 0021     		movs	r1, #0
 1825 0020 2846     		mov	r0, r5
 1826 0022 FFF7FEFF 		bl	lv_obj_get_style_prop
 1827              	.LVL194:
 1828              	.LBE272:
ARM GAS  /tmp/cc3JQQuJ.s 			page 68


 1829              	.LBE271:
 999:Drivers/lvgl/lvgl/src/core/lv_obj_pos.c ****     lv_coord_t pad_left = lv_obj_get_style_pad_left(obj, LV_PART_MAIN) + border_width;
 1830              		.loc 1 999 0
 1831 0026 BFB2     		uxth	r7, r7
 1832 0028 17FA80F0 		uxtah	r0, r7, r0
 1833 002c 1FFA80FB 		uxth	fp, r0
 1834 0030 0FFA8BF3 		sxth	r3, fp
 1835 0034 0193     		str	r3, [sp, #4]
 1836              	.LVL195:
 1837              	.LBB273:
 1838              	.LBB274:
 117:Drivers/lvgl/lvgl/src/core/lv_obj_style_gen.h ****     return (lv_coord_t)v.num;
 1839              		.loc 2 117 0
 1840 0036 1222     		movs	r2, #18
 1841 0038 0021     		movs	r1, #0
 1842 003a 2846     		mov	r0, r5
 1843 003c FFF7FEFF 		bl	lv_obj_get_style_prop
 1844              	.LVL196:
 1845              	.LBE274:
 1846              	.LBE273:
1000:Drivers/lvgl/lvgl/src/core/lv_obj_pos.c **** 
 1847              		.loc 1 1000 0
 1848 0040 17FA80F7 		uxtah	r7, r7, r0
 1849 0044 BFB2     		uxth	r7, r7
 1850 0046 3BB2     		sxth	r3, r7
 1851 0048 0093     		str	r3, [sp]
 1852              	.LVL197:
1003:Drivers/lvgl/lvgl/src/core/lv_obj_pos.c **** 
 1853              		.loc 1 1003 0
 1854 004a 2846     		mov	r0, r5
 1855 004c FFF7FEFF 		bl	lv_obj_get_self_width
 1856              	.LVL198:
 1857 0050 17FA80FA 		uxtah	r10, r7, r0
 1858 0054 1BFA8AFA 		uxtah	r10, fp, r10
 1859 0058 0FFA8AFA 		sxth	r10, r10
 1860              	.LVL199:
1007:Drivers/lvgl/lvgl/src/core/lv_obj_pos.c ****     /*With RTL find the left most coordinate*/
 1861              		.loc 1 1007 0
 1862 005c 2846     		mov	r0, r5
 1863 005e FFF7FEFF 		bl	lv_obj_get_child_cnt
 1864              	.LVL200:
 1865 0062 8146     		mov	r9, r0
 1866              	.LVL201:
 1867              	.LBB275:
 1868              	.LBB276:
 556:Drivers/lvgl/lvgl/src/core/lv_obj_style_gen.h ****     return (uint16_t)v.num;
 557:Drivers/lvgl/lvgl/src/core/lv_obj_style_gen.h **** }
 558:Drivers/lvgl/lvgl/src/core/lv_obj_style_gen.h **** 
 559:Drivers/lvgl/lvgl/src/core/lv_obj_style_gen.h **** static inline lv_base_dir_t lv_obj_get_style_base_dir(const struct _lv_obj_t * obj, uint32_t part)
 560:Drivers/lvgl/lvgl/src/core/lv_obj_style_gen.h **** {
 561:Drivers/lvgl/lvgl/src/core/lv_obj_style_gen.h ****     lv_style_value_t v = lv_obj_get_style_prop(obj, part, LV_STYLE_BASE_DIR);
 1869              		.loc 2 561 0
 1870 0064 1622     		movs	r2, #22
 1871 0066 0021     		movs	r1, #0
 1872 0068 2846     		mov	r0, r5
 1873              	.LVL202:
 1874 006a FFF7FEFF 		bl	lv_obj_get_style_prop
ARM GAS  /tmp/cc3JQQuJ.s 			page 69


 1875              	.LVL203:
 562:Drivers/lvgl/lvgl/src/core/lv_obj_style_gen.h ****     return (lv_base_dir_t)v.num;
 1876              		.loc 2 562 0
 1877 006e C0B2     		uxtb	r0, r0
 1878              	.LVL204:
 1879              	.LBE276:
 1880              	.LBE275:
1009:Drivers/lvgl/lvgl/src/core/lv_obj_pos.c ****         for(i = 0; i < child_cnt; i++) {
 1881              		.loc 1 1009 0
 1882 0070 0128     		cmp	r0, #1
 1883 0072 52D0     		beq	.L117
1042:Drivers/lvgl/lvgl/src/core/lv_obj_pos.c ****             lv_obj_t * child = obj->spec_attr->children[i];
 1884              		.loc 1 1042 0
 1885 0074 0024     		movs	r4, #0
1005:Drivers/lvgl/lvgl/src/core/lv_obj_pos.c ****     uint32_t i;
 1886              		.loc 1 1005 0
 1887 0076 DFF87881 		ldr	r8, .L123+4
 1888 007a 73E0     		b	.L102
 1889              	.LVL205:
 1890              	.L120:
 1891              	.LBB277:
 1892              	.LBB278:
 1893              	.LBB279:
 1894              	.LBB280:
  51:Drivers/lvgl/lvgl/src/core/lv_obj_style_gen.h ****     return (lv_align_t)v.num;
 1895              		.loc 2 51 0
 1896 007c 0922     		movs	r2, #9
 1897 007e 0021     		movs	r1, #0
 1898 0080 3046     		mov	r0, r6
 1899 0082 FFF7FEFF 		bl	lv_obj_get_style_prop
 1900              	.LVL206:
 1901              	.LBE280:
 1902              	.LBE279:
1016:Drivers/lvgl/lvgl/src/core/lv_obj_pos.c ****                     case LV_ALIGN_DEFAULT:
 1903              		.loc 1 1016 0
 1904 0086 C0B2     		uxtb	r0, r0
 1905 0088 0828     		cmp	r0, #8
 1906 008a 2FD8     		bhi	.L105
 1907 008c DFE800F0 		tbb	[pc, r0]
 1908              	.L107:
 1909 0090 05       		.byte	(.L106-.L107)/2
 1910 0091 2E       		.byte	(.L105-.L107)/2
 1911 0092 2E       		.byte	(.L105-.L107)/2
 1912 0093 05       		.byte	(.L106-.L107)/2
 1913 0094 2E       		.byte	(.L105-.L107)/2
 1914 0095 2E       		.byte	(.L105-.L107)/2
 1915 0096 05       		.byte	(.L106-.L107)/2
 1916 0097 2E       		.byte	(.L105-.L107)/2
 1917 0098 05       		.byte	(.L106-.L107)/2
 1918 0099 00       		.p2align 1
 1919              	.L106:
1022:Drivers/lvgl/lvgl/src/core/lv_obj_pos.c ****                         break;
 1920              		.loc 1 1022 0
 1921 009a B5F91830 		ldrsh	r3, [r5, #24]
 1922 009e B6F91420 		ldrsh	r2, [r6, #20]
 1923 00a2 9B1A     		subs	r3, r3, r2
 1924 00a4 0133     		adds	r3, r3, #1
ARM GAS  /tmp/cc3JQQuJ.s 			page 70


 1925 00a6 9845     		cmp	r8, r3
 1926 00a8 B8BF     		it	lt
 1927 00aa 9846     		movlt	r8, r3
 1928              	.LVL207:
 1929 00ac 0FFA88F8 		sxth	r8, r8
 1930              	.LVL208:
 1931              	.L103:
 1932              	.LBE278:
 1933              	.LBE277:
1010:Drivers/lvgl/lvgl/src/core/lv_obj_pos.c ****             lv_obj_t * child = obj->spec_attr->children[i];
 1934              		.loc 1 1010 0 discriminator 2
 1935 00b0 0134     		adds	r4, r4, #1
 1936              	.LVL209:
 1937              	.L101:
1010:Drivers/lvgl/lvgl/src/core/lv_obj_pos.c ****             lv_obj_t * child = obj->spec_attr->children[i];
 1938              		.loc 1 1010 0 is_stmt 0 discriminator 1
 1939 00b2 4C45     		cmp	r4, r9
 1940 00b4 35D2     		bcs	.L119
 1941              	.LBB286:
1011:Drivers/lvgl/lvgl/src/core/lv_obj_pos.c ****             if(lv_obj_has_flag_any(child,  LV_OBJ_FLAG_HIDDEN | LV_OBJ_FLAG_FLOATING)) continue;
 1942              		.loc 1 1011 0 is_stmt 1
 1943 00b6 AB68     		ldr	r3, [r5, #8]
 1944 00b8 1B68     		ldr	r3, [r3]
 1945 00ba 53F82460 		ldr	r6, [r3, r4, lsl #2]
 1946              	.LVL210:
1012:Drivers/lvgl/lvgl/src/core/lv_obj_pos.c **** 
 1947              		.loc 1 1012 0
 1948 00be 4B49     		ldr	r1, .L123
 1949 00c0 3046     		mov	r0, r6
 1950 00c2 FFF7FEFF 		bl	lv_obj_has_flag_any
 1951              	.LVL211:
 1952 00c6 0028     		cmp	r0, #0
 1953 00c8 F2D1     		bne	.L103
1014:Drivers/lvgl/lvgl/src/core/lv_obj_pos.c ****                 lv_align_t align = lv_obj_get_style_align(child, 0);
 1954              		.loc 1 1014 0
 1955 00ca 3046     		mov	r0, r6
 1956 00cc FFF7FEFF 		bl	lv_obj_is_layout_positioned
 1957              	.LVL212:
 1958 00d0 0028     		cmp	r0, #0
 1959 00d2 D3D0     		beq	.L120
1033:Drivers/lvgl/lvgl/src/core/lv_obj_pos.c ****             }
 1960              		.loc 1 1033 0
 1961 00d4 B5F91800 		ldrsh	r0, [r5, #24]
 1962 00d8 B6F91430 		ldrsh	r3, [r6, #20]
 1963 00dc C01A     		subs	r0, r0, r3
 1964 00de 0130     		adds	r0, r0, #1
 1965 00e0 8045     		cmp	r8, r0
 1966 00e2 B8BF     		it	lt
 1967 00e4 8046     		movlt	r8, r0
 1968              	.LVL213:
 1969 00e6 0FFA88F8 		sxth	r8, r8
 1970              	.LVL214:
 1971 00ea E1E7     		b	.L103
 1972              	.L105:
 1973              	.LVL215:
 1974              	.LBB285:
 1975              	.LBB281:
ARM GAS  /tmp/cc3JQQuJ.s 			page 71


 1976              	.LBB282:
  39:Drivers/lvgl/lvgl/src/core/lv_obj_style_gen.h ****     return (lv_coord_t)v.num;
 1977              		.loc 2 39 0
 1978 00ec 0722     		movs	r2, #7
 1979 00ee 0021     		movs	r1, #0
 1980 00f0 3046     		mov	r0, r6
 1981 00f2 FFF7FEFF 		bl	lv_obj_get_style_prop
 1982              	.LVL216:
  40:Drivers/lvgl/lvgl/src/core/lv_obj_style_gen.h **** }
 1983              		.loc 2 40 0
 1984 00f6 00B2     		sxth	r0, r0
 1985              	.LVL217:
 1986              	.LBE282:
 1987              	.LBE281:
1027:Drivers/lvgl/lvgl/src/core/lv_obj_pos.c ****                             child_res = LV_MAX(child_res, lv_area_get_width(&child->coords) + pad_r
 1988              		.loc 1 1027 0
 1989 00f8 0028     		cmp	r0, #0
 1990 00fa D9D1     		bne	.L103
 1991              	.LVL218:
 1992              	.LBB283:
 1993              	.LBB284:
 125:Drivers/lvgl/lvgl/src/core/../misc/../font/../misc/lv_area.h **** }
 1994              		.loc 3 125 0
 1995 00fc 338B     		ldrh	r3, [r6, #24]
 1996 00fe B28A     		ldrh	r2, [r6, #20]
 1997 0100 9B1A     		subs	r3, r3, r2
 1998 0102 9BB2     		uxth	r3, r3
 1999 0104 0133     		adds	r3, r3, #1
 2000 0106 9BB2     		uxth	r3, r3
 2001              	.LVL219:
 2002              	.LBE284:
 2003              	.LBE283:
1028:Drivers/lvgl/lvgl/src/core/lv_obj_pos.c ****                         }
 2004              		.loc 1 1028 0
 2005 0108 019A     		ldr	r2, [sp, #4]
 2006 010a 02FA83F2 		sxtah	r2, r2, r3
 2007 010e 9045     		cmp	r8, r2
 2008 0110 CEDC     		bgt	.L103
1028:Drivers/lvgl/lvgl/src/core/lv_obj_pos.c ****                         }
 2009              		.loc 1 1028 0 is_stmt 0 discriminator 1
 2010 0112 5B44     		add	r3, r3, fp
 2011 0114 0FFA83F8 		sxth	r8, r3
 2012              	.LVL220:
 2013 0118 CAE7     		b	.L103
 2014              	.LVL221:
 2015              	.L117:
 2016              	.LBE285:
 2017              	.LBE286:
1010:Drivers/lvgl/lvgl/src/core/lv_obj_pos.c ****             lv_obj_t * child = obj->spec_attr->children[i];
 2018              		.loc 1 1010 0 is_stmt 1
 2019 011a 0024     		movs	r4, #0
1005:Drivers/lvgl/lvgl/src/core/lv_obj_pos.c ****     uint32_t i;
 2020              		.loc 1 1005 0
 2021 011c DFF8D080 		ldr	r8, .L123+4
 2022 0120 C7E7     		b	.L101
 2023              	.LVL222:
 2024              	.L119:
ARM GAS  /tmp/cc3JQQuJ.s 			page 72


1036:Drivers/lvgl/lvgl/src/core/lv_obj_pos.c ****             child_res += pad_left;
 2025              		.loc 1 1036 0
 2026 0122 334B     		ldr	r3, .L123+4
 2027 0124 9845     		cmp	r8, r3
 2028 0126 57D0     		beq	.L109
1037:Drivers/lvgl/lvgl/src/core/lv_obj_pos.c ****         }
 2029              		.loc 1 1037 0
