ARM GAS  /tmp/ccrtAI1Z.s 			page 1


   1              		.cpu cortex-m7
   2              		.eabi_attribute 28, 1
   3              		.eabi_attribute 20, 1
   4              		.eabi_attribute 21, 1
   5              		.eabi_attribute 23, 3
   6              		.eabi_attribute 24, 1
   7              		.eabi_attribute 25, 1
   8              		.eabi_attribute 26, 1
   9              		.eabi_attribute 30, 1
  10              		.eabi_attribute 34, 1
  11              		.eabi_attribute 18, 4
  12              		.file	"lv_obj_scroll.c"
  13              		.text
  14              	.Ltext0:
  15              		.cfi_sections	.debug_frame
  16              		.section	.text.scroll_anim_ready_cb,"ax",%progbits
  17              		.align	1
  18              		.syntax unified
  19              		.thumb
  20              		.thumb_func
  21              		.fpu fpv5-d16
  23              	scroll_anim_ready_cb:
  24              	.LFB195:
  25              		.file 1 "Drivers/lvgl/lvgl/src/core/lv_obj_scroll.c"
   1:Drivers/lvgl/lvgl/src/core/lv_obj_scroll.c **** /**
   2:Drivers/lvgl/lvgl/src/core/lv_obj_scroll.c ****  * @file lv_obj_scroll.c
   3:Drivers/lvgl/lvgl/src/core/lv_obj_scroll.c ****  *
   4:Drivers/lvgl/lvgl/src/core/lv_obj_scroll.c ****  */
   5:Drivers/lvgl/lvgl/src/core/lv_obj_scroll.c **** 
   6:Drivers/lvgl/lvgl/src/core/lv_obj_scroll.c **** /*********************
   7:Drivers/lvgl/lvgl/src/core/lv_obj_scroll.c ****  *      INCLUDES
   8:Drivers/lvgl/lvgl/src/core/lv_obj_scroll.c ****  *********************/
   9:Drivers/lvgl/lvgl/src/core/lv_obj_scroll.c **** #include "lv_obj_scroll.h"
  10:Drivers/lvgl/lvgl/src/core/lv_obj_scroll.c **** #include "lv_obj.h"
  11:Drivers/lvgl/lvgl/src/core/lv_obj_scroll.c **** #include "lv_indev.h"
  12:Drivers/lvgl/lvgl/src/core/lv_obj_scroll.c **** #include "lv_disp.h"
  13:Drivers/lvgl/lvgl/src/core/lv_obj_scroll.c **** #include "lv_indev_scroll.h"
  14:Drivers/lvgl/lvgl/src/core/lv_obj_scroll.c **** 
  15:Drivers/lvgl/lvgl/src/core/lv_obj_scroll.c **** /*********************
  16:Drivers/lvgl/lvgl/src/core/lv_obj_scroll.c ****  *      DEFINES
  17:Drivers/lvgl/lvgl/src/core/lv_obj_scroll.c ****  *********************/
  18:Drivers/lvgl/lvgl/src/core/lv_obj_scroll.c **** #define MY_CLASS &lv_obj_class
  19:Drivers/lvgl/lvgl/src/core/lv_obj_scroll.c **** #define SCROLL_ANIM_TIME_MIN    200    /*ms*/
  20:Drivers/lvgl/lvgl/src/core/lv_obj_scroll.c **** #define SCROLL_ANIM_TIME_MAX    400    /*ms*/
  21:Drivers/lvgl/lvgl/src/core/lv_obj_scroll.c **** #define SCROLLBAR_MIN_SIZE      (LV_DPX(10))
  22:Drivers/lvgl/lvgl/src/core/lv_obj_scroll.c **** 
  23:Drivers/lvgl/lvgl/src/core/lv_obj_scroll.c **** /**********************
  24:Drivers/lvgl/lvgl/src/core/lv_obj_scroll.c ****  *      TYPEDEFS
  25:Drivers/lvgl/lvgl/src/core/lv_obj_scroll.c ****  **********************/
  26:Drivers/lvgl/lvgl/src/core/lv_obj_scroll.c **** 
  27:Drivers/lvgl/lvgl/src/core/lv_obj_scroll.c **** /**********************
  28:Drivers/lvgl/lvgl/src/core/lv_obj_scroll.c ****  *  GLOBAL PROTOTYPES
  29:Drivers/lvgl/lvgl/src/core/lv_obj_scroll.c ****  **********************/
  30:Drivers/lvgl/lvgl/src/core/lv_obj_scroll.c **** 
  31:Drivers/lvgl/lvgl/src/core/lv_obj_scroll.c **** /**********************
  32:Drivers/lvgl/lvgl/src/core/lv_obj_scroll.c ****  *  STATIC PROTOTYPES
  33:Drivers/lvgl/lvgl/src/core/lv_obj_scroll.c ****  **********************/
ARM GAS  /tmp/ccrtAI1Z.s 			page 2


  34:Drivers/lvgl/lvgl/src/core/lv_obj_scroll.c **** static void scroll_x_anim(void * obj, int32_t v);
  35:Drivers/lvgl/lvgl/src/core/lv_obj_scroll.c **** static void scroll_y_anim(void * obj, int32_t v);
  36:Drivers/lvgl/lvgl/src/core/lv_obj_scroll.c **** static void scroll_anim_ready_cb(lv_anim_t * a);
  37:Drivers/lvgl/lvgl/src/core/lv_obj_scroll.c **** static void scroll_area_into_view(const lv_area_t * area, lv_obj_t * child, lv_point_t * scroll_val
  38:Drivers/lvgl/lvgl/src/core/lv_obj_scroll.c ****                                   lv_anim_enable_t anim_en);
  39:Drivers/lvgl/lvgl/src/core/lv_obj_scroll.c **** 
  40:Drivers/lvgl/lvgl/src/core/lv_obj_scroll.c **** /**********************
  41:Drivers/lvgl/lvgl/src/core/lv_obj_scroll.c ****  *  STATIC VARIABLES
  42:Drivers/lvgl/lvgl/src/core/lv_obj_scroll.c ****  **********************/
  43:Drivers/lvgl/lvgl/src/core/lv_obj_scroll.c **** 
  44:Drivers/lvgl/lvgl/src/core/lv_obj_scroll.c **** /**********************
  45:Drivers/lvgl/lvgl/src/core/lv_obj_scroll.c ****  *      MACROS
  46:Drivers/lvgl/lvgl/src/core/lv_obj_scroll.c ****  **********************/
  47:Drivers/lvgl/lvgl/src/core/lv_obj_scroll.c **** 
  48:Drivers/lvgl/lvgl/src/core/lv_obj_scroll.c **** /**********************
  49:Drivers/lvgl/lvgl/src/core/lv_obj_scroll.c ****  *   GLOBAL FUNCTIONS
  50:Drivers/lvgl/lvgl/src/core/lv_obj_scroll.c ****  **********************/
  51:Drivers/lvgl/lvgl/src/core/lv_obj_scroll.c **** 
  52:Drivers/lvgl/lvgl/src/core/lv_obj_scroll.c **** /*=====================
  53:Drivers/lvgl/lvgl/src/core/lv_obj_scroll.c ****  * Setter functions
  54:Drivers/lvgl/lvgl/src/core/lv_obj_scroll.c ****  *====================*/
  55:Drivers/lvgl/lvgl/src/core/lv_obj_scroll.c **** 
  56:Drivers/lvgl/lvgl/src/core/lv_obj_scroll.c **** void lv_obj_set_scrollbar_mode(lv_obj_t * obj, lv_scrollbar_mode_t mode)
  57:Drivers/lvgl/lvgl/src/core/lv_obj_scroll.c **** {
  58:Drivers/lvgl/lvgl/src/core/lv_obj_scroll.c ****     LV_ASSERT_OBJ(obj, MY_CLASS);
  59:Drivers/lvgl/lvgl/src/core/lv_obj_scroll.c **** 
  60:Drivers/lvgl/lvgl/src/core/lv_obj_scroll.c ****     lv_obj_allocate_spec_attr(obj);
  61:Drivers/lvgl/lvgl/src/core/lv_obj_scroll.c **** 
  62:Drivers/lvgl/lvgl/src/core/lv_obj_scroll.c ****     if(obj->spec_attr->scrollbar_mode == mode) return;
  63:Drivers/lvgl/lvgl/src/core/lv_obj_scroll.c ****     obj->spec_attr->scrollbar_mode = mode;
  64:Drivers/lvgl/lvgl/src/core/lv_obj_scroll.c ****     lv_obj_invalidate(obj);
  65:Drivers/lvgl/lvgl/src/core/lv_obj_scroll.c **** }
  66:Drivers/lvgl/lvgl/src/core/lv_obj_scroll.c **** 
  67:Drivers/lvgl/lvgl/src/core/lv_obj_scroll.c **** void lv_obj_set_scroll_dir(lv_obj_t * obj, lv_dir_t dir)
  68:Drivers/lvgl/lvgl/src/core/lv_obj_scroll.c **** {
  69:Drivers/lvgl/lvgl/src/core/lv_obj_scroll.c ****     lv_obj_allocate_spec_attr(obj);
  70:Drivers/lvgl/lvgl/src/core/lv_obj_scroll.c **** 
  71:Drivers/lvgl/lvgl/src/core/lv_obj_scroll.c ****     if(dir != obj->spec_attr->scroll_dir) {
  72:Drivers/lvgl/lvgl/src/core/lv_obj_scroll.c ****         obj->spec_attr->scroll_dir = dir;
  73:Drivers/lvgl/lvgl/src/core/lv_obj_scroll.c ****     }
  74:Drivers/lvgl/lvgl/src/core/lv_obj_scroll.c **** }
  75:Drivers/lvgl/lvgl/src/core/lv_obj_scroll.c **** 
  76:Drivers/lvgl/lvgl/src/core/lv_obj_scroll.c **** void lv_obj_set_scroll_snap_x(lv_obj_t * obj, lv_scroll_snap_t align)
  77:Drivers/lvgl/lvgl/src/core/lv_obj_scroll.c **** {
  78:Drivers/lvgl/lvgl/src/core/lv_obj_scroll.c ****     lv_obj_allocate_spec_attr(obj);
  79:Drivers/lvgl/lvgl/src/core/lv_obj_scroll.c ****     obj->spec_attr->scroll_snap_x = align;
  80:Drivers/lvgl/lvgl/src/core/lv_obj_scroll.c **** }
  81:Drivers/lvgl/lvgl/src/core/lv_obj_scroll.c **** 
  82:Drivers/lvgl/lvgl/src/core/lv_obj_scroll.c **** void lv_obj_set_scroll_snap_y(lv_obj_t * obj, lv_scroll_snap_t align)
  83:Drivers/lvgl/lvgl/src/core/lv_obj_scroll.c **** {
  84:Drivers/lvgl/lvgl/src/core/lv_obj_scroll.c ****     lv_obj_allocate_spec_attr(obj);
  85:Drivers/lvgl/lvgl/src/core/lv_obj_scroll.c ****     obj->spec_attr->scroll_snap_y = align;
  86:Drivers/lvgl/lvgl/src/core/lv_obj_scroll.c **** }
  87:Drivers/lvgl/lvgl/src/core/lv_obj_scroll.c **** 
  88:Drivers/lvgl/lvgl/src/core/lv_obj_scroll.c **** /*=====================
  89:Drivers/lvgl/lvgl/src/core/lv_obj_scroll.c ****  * Getter functions
  90:Drivers/lvgl/lvgl/src/core/lv_obj_scroll.c ****  *====================*/
ARM GAS  /tmp/ccrtAI1Z.s 			page 3


  91:Drivers/lvgl/lvgl/src/core/lv_obj_scroll.c **** 
  92:Drivers/lvgl/lvgl/src/core/lv_obj_scroll.c **** lv_scrollbar_mode_t lv_obj_get_scrollbar_mode(const lv_obj_t * obj)
  93:Drivers/lvgl/lvgl/src/core/lv_obj_scroll.c **** {
  94:Drivers/lvgl/lvgl/src/core/lv_obj_scroll.c ****     if(obj->spec_attr) return obj->spec_attr->scrollbar_mode;
  95:Drivers/lvgl/lvgl/src/core/lv_obj_scroll.c ****     else return LV_SCROLLBAR_MODE_AUTO;
  96:Drivers/lvgl/lvgl/src/core/lv_obj_scroll.c **** }
  97:Drivers/lvgl/lvgl/src/core/lv_obj_scroll.c **** 
  98:Drivers/lvgl/lvgl/src/core/lv_obj_scroll.c **** lv_dir_t lv_obj_get_scroll_dir(const lv_obj_t * obj)
  99:Drivers/lvgl/lvgl/src/core/lv_obj_scroll.c **** {
 100:Drivers/lvgl/lvgl/src/core/lv_obj_scroll.c ****     if(obj->spec_attr) return obj->spec_attr->scroll_dir;
 101:Drivers/lvgl/lvgl/src/core/lv_obj_scroll.c ****     else return LV_DIR_ALL;
 102:Drivers/lvgl/lvgl/src/core/lv_obj_scroll.c **** }
 103:Drivers/lvgl/lvgl/src/core/lv_obj_scroll.c **** 
 104:Drivers/lvgl/lvgl/src/core/lv_obj_scroll.c **** lv_scroll_snap_t lv_obj_get_scroll_snap_x(const lv_obj_t * obj)
 105:Drivers/lvgl/lvgl/src/core/lv_obj_scroll.c **** {
 106:Drivers/lvgl/lvgl/src/core/lv_obj_scroll.c ****     if(obj->spec_attr) return obj->spec_attr->scroll_snap_x;
 107:Drivers/lvgl/lvgl/src/core/lv_obj_scroll.c ****     else return LV_SCROLL_SNAP_NONE;
 108:Drivers/lvgl/lvgl/src/core/lv_obj_scroll.c **** }
 109:Drivers/lvgl/lvgl/src/core/lv_obj_scroll.c **** 
 110:Drivers/lvgl/lvgl/src/core/lv_obj_scroll.c **** lv_scroll_snap_t lv_obj_get_scroll_snap_y(const lv_obj_t * obj)
 111:Drivers/lvgl/lvgl/src/core/lv_obj_scroll.c **** {
 112:Drivers/lvgl/lvgl/src/core/lv_obj_scroll.c ****     if(obj->spec_attr) return obj->spec_attr->scroll_snap_y;
 113:Drivers/lvgl/lvgl/src/core/lv_obj_scroll.c ****     else return LV_SCROLL_SNAP_NONE;
 114:Drivers/lvgl/lvgl/src/core/lv_obj_scroll.c **** }
 115:Drivers/lvgl/lvgl/src/core/lv_obj_scroll.c **** 
 116:Drivers/lvgl/lvgl/src/core/lv_obj_scroll.c **** lv_coord_t lv_obj_get_scroll_x(const lv_obj_t * obj)
 117:Drivers/lvgl/lvgl/src/core/lv_obj_scroll.c **** {
 118:Drivers/lvgl/lvgl/src/core/lv_obj_scroll.c ****     if(obj->spec_attr == NULL) return 0;
 119:Drivers/lvgl/lvgl/src/core/lv_obj_scroll.c ****     return -obj->spec_attr->scroll.x;
 120:Drivers/lvgl/lvgl/src/core/lv_obj_scroll.c **** }
 121:Drivers/lvgl/lvgl/src/core/lv_obj_scroll.c **** 
 122:Drivers/lvgl/lvgl/src/core/lv_obj_scroll.c **** lv_coord_t lv_obj_get_scroll_y(const lv_obj_t * obj)
 123:Drivers/lvgl/lvgl/src/core/lv_obj_scroll.c **** {
 124:Drivers/lvgl/lvgl/src/core/lv_obj_scroll.c ****     if(obj->spec_attr == NULL) return 0;
 125:Drivers/lvgl/lvgl/src/core/lv_obj_scroll.c ****     return -obj->spec_attr->scroll.y;
 126:Drivers/lvgl/lvgl/src/core/lv_obj_scroll.c **** }
 127:Drivers/lvgl/lvgl/src/core/lv_obj_scroll.c **** 
 128:Drivers/lvgl/lvgl/src/core/lv_obj_scroll.c **** lv_coord_t lv_obj_get_scroll_top(lv_obj_t * obj)
 129:Drivers/lvgl/lvgl/src/core/lv_obj_scroll.c **** {
 130:Drivers/lvgl/lvgl/src/core/lv_obj_scroll.c ****     if(obj->spec_attr == NULL) return 0;
 131:Drivers/lvgl/lvgl/src/core/lv_obj_scroll.c ****     return -obj->spec_attr->scroll.y;
 132:Drivers/lvgl/lvgl/src/core/lv_obj_scroll.c **** }
 133:Drivers/lvgl/lvgl/src/core/lv_obj_scroll.c **** 
 134:Drivers/lvgl/lvgl/src/core/lv_obj_scroll.c **** lv_coord_t lv_obj_get_scroll_bottom(lv_obj_t * obj)
 135:Drivers/lvgl/lvgl/src/core/lv_obj_scroll.c **** {
 136:Drivers/lvgl/lvgl/src/core/lv_obj_scroll.c ****     LV_ASSERT_OBJ(obj, MY_CLASS);
 137:Drivers/lvgl/lvgl/src/core/lv_obj_scroll.c **** 
 138:Drivers/lvgl/lvgl/src/core/lv_obj_scroll.c ****     lv_coord_t child_res = LV_COORD_MIN;
 139:Drivers/lvgl/lvgl/src/core/lv_obj_scroll.c ****     uint32_t i;
 140:Drivers/lvgl/lvgl/src/core/lv_obj_scroll.c ****     uint32_t child_cnt = lv_obj_get_child_cnt(obj);
 141:Drivers/lvgl/lvgl/src/core/lv_obj_scroll.c ****     for(i = 0; i < child_cnt; i++) {
 142:Drivers/lvgl/lvgl/src/core/lv_obj_scroll.c ****         lv_obj_t * child = obj->spec_attr->children[i];
 143:Drivers/lvgl/lvgl/src/core/lv_obj_scroll.c ****         if(lv_obj_has_flag_any(child,  LV_OBJ_FLAG_HIDDEN | LV_OBJ_FLAG_FLOATING)) continue;
 144:Drivers/lvgl/lvgl/src/core/lv_obj_scroll.c ****         child_res = LV_MAX(child_res, child->coords.y2);
 145:Drivers/lvgl/lvgl/src/core/lv_obj_scroll.c ****     }
 146:Drivers/lvgl/lvgl/src/core/lv_obj_scroll.c **** 
 147:Drivers/lvgl/lvgl/src/core/lv_obj_scroll.c ****     lv_coord_t pad_top = lv_obj_get_style_pad_top(obj, LV_PART_MAIN);
ARM GAS  /tmp/ccrtAI1Z.s 			page 4


 148:Drivers/lvgl/lvgl/src/core/lv_obj_scroll.c ****     lv_coord_t pad_bottom = lv_obj_get_style_pad_bottom(obj, LV_PART_MAIN);
 149:Drivers/lvgl/lvgl/src/core/lv_obj_scroll.c ****     lv_coord_t border_width = lv_obj_get_style_border_width(obj, LV_PART_MAIN);
 150:Drivers/lvgl/lvgl/src/core/lv_obj_scroll.c **** 
 151:Drivers/lvgl/lvgl/src/core/lv_obj_scroll.c ****     if(child_res != LV_COORD_MIN) {
 152:Drivers/lvgl/lvgl/src/core/lv_obj_scroll.c ****         child_res -= (obj->coords.y2 - pad_bottom - border_width);
 153:Drivers/lvgl/lvgl/src/core/lv_obj_scroll.c ****     }
 154:Drivers/lvgl/lvgl/src/core/lv_obj_scroll.c **** 
 155:Drivers/lvgl/lvgl/src/core/lv_obj_scroll.c ****     lv_coord_t self_h = lv_obj_get_self_height(obj);
 156:Drivers/lvgl/lvgl/src/core/lv_obj_scroll.c ****     self_h = self_h - (lv_obj_get_height(obj) - pad_top - pad_bottom - 2 * border_width);
 157:Drivers/lvgl/lvgl/src/core/lv_obj_scroll.c ****     self_h -= lv_obj_get_scroll_y(obj);
 158:Drivers/lvgl/lvgl/src/core/lv_obj_scroll.c ****     return LV_MAX(child_res, self_h);
 159:Drivers/lvgl/lvgl/src/core/lv_obj_scroll.c **** }
 160:Drivers/lvgl/lvgl/src/core/lv_obj_scroll.c **** 
 161:Drivers/lvgl/lvgl/src/core/lv_obj_scroll.c **** lv_coord_t lv_obj_get_scroll_left(lv_obj_t * obj)
 162:Drivers/lvgl/lvgl/src/core/lv_obj_scroll.c **** {
 163:Drivers/lvgl/lvgl/src/core/lv_obj_scroll.c ****     LV_ASSERT_OBJ(obj, MY_CLASS);
 164:Drivers/lvgl/lvgl/src/core/lv_obj_scroll.c **** 
 165:Drivers/lvgl/lvgl/src/core/lv_obj_scroll.c ****     /*Normally can't scroll the object out on the left.
 166:Drivers/lvgl/lvgl/src/core/lv_obj_scroll.c ****      *So simply use the current scroll position as "left size"*/
 167:Drivers/lvgl/lvgl/src/core/lv_obj_scroll.c ****     if(lv_obj_get_style_base_dir(obj, LV_PART_MAIN) != LV_BASE_DIR_RTL) {
 168:Drivers/lvgl/lvgl/src/core/lv_obj_scroll.c ****         if(obj->spec_attr == NULL) return 0;
 169:Drivers/lvgl/lvgl/src/core/lv_obj_scroll.c ****         return -obj->spec_attr->scroll.x;
 170:Drivers/lvgl/lvgl/src/core/lv_obj_scroll.c ****     }
 171:Drivers/lvgl/lvgl/src/core/lv_obj_scroll.c **** 
 172:Drivers/lvgl/lvgl/src/core/lv_obj_scroll.c ****     /*With RTL base direction scrolling the left is normal so find the left most coordinate*/
 173:Drivers/lvgl/lvgl/src/core/lv_obj_scroll.c ****     lv_coord_t pad_right = lv_obj_get_style_pad_right(obj, LV_PART_MAIN);
 174:Drivers/lvgl/lvgl/src/core/lv_obj_scroll.c ****     lv_coord_t pad_left = lv_obj_get_style_pad_left(obj, LV_PART_MAIN);
 175:Drivers/lvgl/lvgl/src/core/lv_obj_scroll.c ****     lv_coord_t border_width = lv_obj_get_style_border_width(obj, LV_PART_MAIN);
 176:Drivers/lvgl/lvgl/src/core/lv_obj_scroll.c **** 
 177:Drivers/lvgl/lvgl/src/core/lv_obj_scroll.c ****     lv_coord_t child_res = 0;
 178:Drivers/lvgl/lvgl/src/core/lv_obj_scroll.c **** 
 179:Drivers/lvgl/lvgl/src/core/lv_obj_scroll.c ****     uint32_t i;
 180:Drivers/lvgl/lvgl/src/core/lv_obj_scroll.c ****     lv_coord_t x1 = LV_COORD_MAX;
 181:Drivers/lvgl/lvgl/src/core/lv_obj_scroll.c ****     uint32_t child_cnt = lv_obj_get_child_cnt(obj);
 182:Drivers/lvgl/lvgl/src/core/lv_obj_scroll.c ****     for(i = 0; i < child_cnt; i++) {
 183:Drivers/lvgl/lvgl/src/core/lv_obj_scroll.c ****         lv_obj_t * child = obj->spec_attr->children[i];
 184:Drivers/lvgl/lvgl/src/core/lv_obj_scroll.c ****         if(lv_obj_has_flag_any(child,  LV_OBJ_FLAG_HIDDEN | LV_OBJ_FLAG_FLOATING)) continue;
 185:Drivers/lvgl/lvgl/src/core/lv_obj_scroll.c ****         x1 = LV_MIN(x1, child->coords.x1);
 186:Drivers/lvgl/lvgl/src/core/lv_obj_scroll.c **** 
 187:Drivers/lvgl/lvgl/src/core/lv_obj_scroll.c ****     }
 188:Drivers/lvgl/lvgl/src/core/lv_obj_scroll.c **** 
 189:Drivers/lvgl/lvgl/src/core/lv_obj_scroll.c ****     if(x1 != LV_COORD_MAX) {
 190:Drivers/lvgl/lvgl/src/core/lv_obj_scroll.c ****         child_res = x1;
 191:Drivers/lvgl/lvgl/src/core/lv_obj_scroll.c ****         child_res = (obj->coords.x1 + pad_left + border_width) - child_res;
 192:Drivers/lvgl/lvgl/src/core/lv_obj_scroll.c ****     }
 193:Drivers/lvgl/lvgl/src/core/lv_obj_scroll.c ****     else {
 194:Drivers/lvgl/lvgl/src/core/lv_obj_scroll.c ****         child_res = LV_COORD_MIN;
 195:Drivers/lvgl/lvgl/src/core/lv_obj_scroll.c ****     }
 196:Drivers/lvgl/lvgl/src/core/lv_obj_scroll.c **** 
 197:Drivers/lvgl/lvgl/src/core/lv_obj_scroll.c ****     lv_coord_t self_w = lv_obj_get_self_width(obj);
 198:Drivers/lvgl/lvgl/src/core/lv_obj_scroll.c ****     self_w = self_w - (lv_obj_get_width(obj) - pad_right - pad_left - 2 * border_width);
 199:Drivers/lvgl/lvgl/src/core/lv_obj_scroll.c ****     self_w += lv_obj_get_scroll_x(obj);
 200:Drivers/lvgl/lvgl/src/core/lv_obj_scroll.c **** 
 201:Drivers/lvgl/lvgl/src/core/lv_obj_scroll.c ****     return LV_MAX(child_res, self_w);
 202:Drivers/lvgl/lvgl/src/core/lv_obj_scroll.c **** }
 203:Drivers/lvgl/lvgl/src/core/lv_obj_scroll.c **** 
 204:Drivers/lvgl/lvgl/src/core/lv_obj_scroll.c **** lv_coord_t lv_obj_get_scroll_right(lv_obj_t * obj)
ARM GAS  /tmp/ccrtAI1Z.s 			page 5


 205:Drivers/lvgl/lvgl/src/core/lv_obj_scroll.c **** {
 206:Drivers/lvgl/lvgl/src/core/lv_obj_scroll.c ****     LV_ASSERT_OBJ(obj, MY_CLASS);
 207:Drivers/lvgl/lvgl/src/core/lv_obj_scroll.c **** 
 208:Drivers/lvgl/lvgl/src/core/lv_obj_scroll.c ****     /*With RTL base dir can't scroll to the object out on the right.
 209:Drivers/lvgl/lvgl/src/core/lv_obj_scroll.c ****      *So simply use the current scroll position as "right size"*/
 210:Drivers/lvgl/lvgl/src/core/lv_obj_scroll.c ****     if(lv_obj_get_style_base_dir(obj, LV_PART_MAIN) == LV_BASE_DIR_RTL) {
 211:Drivers/lvgl/lvgl/src/core/lv_obj_scroll.c ****         if(obj->spec_attr == NULL) return 0;
 212:Drivers/lvgl/lvgl/src/core/lv_obj_scroll.c ****         return obj->spec_attr->scroll.x;
 213:Drivers/lvgl/lvgl/src/core/lv_obj_scroll.c ****     }
 214:Drivers/lvgl/lvgl/src/core/lv_obj_scroll.c **** 
 215:Drivers/lvgl/lvgl/src/core/lv_obj_scroll.c ****     /*With other base direction (LTR) scrolling to the right is normal so find the right most coord
 216:Drivers/lvgl/lvgl/src/core/lv_obj_scroll.c ****     lv_coord_t child_res = LV_COORD_MIN;
 217:Drivers/lvgl/lvgl/src/core/lv_obj_scroll.c ****     uint32_t i;
 218:Drivers/lvgl/lvgl/src/core/lv_obj_scroll.c ****     uint32_t child_cnt = lv_obj_get_child_cnt(obj);
 219:Drivers/lvgl/lvgl/src/core/lv_obj_scroll.c ****     for(i = 0; i < child_cnt; i++) {
 220:Drivers/lvgl/lvgl/src/core/lv_obj_scroll.c ****         lv_obj_t * child = obj->spec_attr->children[i];
 221:Drivers/lvgl/lvgl/src/core/lv_obj_scroll.c ****         if(lv_obj_has_flag_any(child,  LV_OBJ_FLAG_HIDDEN | LV_OBJ_FLAG_FLOATING)) continue;
 222:Drivers/lvgl/lvgl/src/core/lv_obj_scroll.c ****         child_res = LV_MAX(child_res, child->coords.x2);
 223:Drivers/lvgl/lvgl/src/core/lv_obj_scroll.c ****     }
 224:Drivers/lvgl/lvgl/src/core/lv_obj_scroll.c **** 
 225:Drivers/lvgl/lvgl/src/core/lv_obj_scroll.c ****     lv_coord_t pad_right = lv_obj_get_style_pad_right(obj, LV_PART_MAIN);
 226:Drivers/lvgl/lvgl/src/core/lv_obj_scroll.c ****     lv_coord_t pad_left = lv_obj_get_style_pad_left(obj, LV_PART_MAIN);
 227:Drivers/lvgl/lvgl/src/core/lv_obj_scroll.c ****     lv_coord_t border_width = lv_obj_get_style_border_width(obj, LV_PART_MAIN);
 228:Drivers/lvgl/lvgl/src/core/lv_obj_scroll.c **** 
 229:Drivers/lvgl/lvgl/src/core/lv_obj_scroll.c ****     if(child_res != LV_COORD_MIN) {
 230:Drivers/lvgl/lvgl/src/core/lv_obj_scroll.c ****         child_res -= (obj->coords.x2 - pad_right - border_width);
 231:Drivers/lvgl/lvgl/src/core/lv_obj_scroll.c ****     }
 232:Drivers/lvgl/lvgl/src/core/lv_obj_scroll.c **** 
 233:Drivers/lvgl/lvgl/src/core/lv_obj_scroll.c ****     lv_coord_t self_w;
 234:Drivers/lvgl/lvgl/src/core/lv_obj_scroll.c ****     self_w = lv_obj_get_self_width(obj);
 235:Drivers/lvgl/lvgl/src/core/lv_obj_scroll.c ****     self_w = self_w - (lv_obj_get_width(obj) - pad_right - pad_left - 2 * border_width);
 236:Drivers/lvgl/lvgl/src/core/lv_obj_scroll.c ****     self_w -= lv_obj_get_scroll_x(obj);
 237:Drivers/lvgl/lvgl/src/core/lv_obj_scroll.c ****     return LV_MAX(child_res, self_w);
 238:Drivers/lvgl/lvgl/src/core/lv_obj_scroll.c **** }
 239:Drivers/lvgl/lvgl/src/core/lv_obj_scroll.c **** 
 240:Drivers/lvgl/lvgl/src/core/lv_obj_scroll.c **** void lv_obj_get_scroll_end(struct _lv_obj_t  * obj, lv_point_t * end)
 241:Drivers/lvgl/lvgl/src/core/lv_obj_scroll.c **** {
 242:Drivers/lvgl/lvgl/src/core/lv_obj_scroll.c ****     lv_anim_t * a;
 243:Drivers/lvgl/lvgl/src/core/lv_obj_scroll.c ****     a = lv_anim_get(obj, scroll_x_anim);
 244:Drivers/lvgl/lvgl/src/core/lv_obj_scroll.c ****     end->x = a ? -a->end_value : lv_obj_get_scroll_x(obj);
 245:Drivers/lvgl/lvgl/src/core/lv_obj_scroll.c **** 
 246:Drivers/lvgl/lvgl/src/core/lv_obj_scroll.c ****     a = lv_anim_get(obj, scroll_y_anim);
 247:Drivers/lvgl/lvgl/src/core/lv_obj_scroll.c ****     end->y = a ? -a->end_value : lv_obj_get_scroll_y(obj);
 248:Drivers/lvgl/lvgl/src/core/lv_obj_scroll.c **** }
 249:Drivers/lvgl/lvgl/src/core/lv_obj_scroll.c **** 
 250:Drivers/lvgl/lvgl/src/core/lv_obj_scroll.c **** /*=====================
 251:Drivers/lvgl/lvgl/src/core/lv_obj_scroll.c ****  * Other functions
 252:Drivers/lvgl/lvgl/src/core/lv_obj_scroll.c ****  *====================*/
 253:Drivers/lvgl/lvgl/src/core/lv_obj_scroll.c **** 
 254:Drivers/lvgl/lvgl/src/core/lv_obj_scroll.c **** void lv_obj_scroll_by_bounded(lv_obj_t * obj, lv_coord_t dx, lv_coord_t dy, lv_anim_enable_t anim_e
 255:Drivers/lvgl/lvgl/src/core/lv_obj_scroll.c **** {
 256:Drivers/lvgl/lvgl/src/core/lv_obj_scroll.c ****     if(dx == 0 && dy == 0) return;
 257:Drivers/lvgl/lvgl/src/core/lv_obj_scroll.c **** 
 258:Drivers/lvgl/lvgl/src/core/lv_obj_scroll.c ****     /*We need to know the final sizes for bound check*/
 259:Drivers/lvgl/lvgl/src/core/lv_obj_scroll.c ****     lv_obj_update_layout(obj);
 260:Drivers/lvgl/lvgl/src/core/lv_obj_scroll.c **** 
 261:Drivers/lvgl/lvgl/src/core/lv_obj_scroll.c ****     /*Don't let scroll more then naturally possible by the size of the content*/
ARM GAS  /tmp/ccrtAI1Z.s 			page 6


 262:Drivers/lvgl/lvgl/src/core/lv_obj_scroll.c ****     lv_coord_t x_current = -lv_obj_get_scroll_x(obj);
 263:Drivers/lvgl/lvgl/src/core/lv_obj_scroll.c ****     lv_coord_t x_bounded = x_current + dx;
 264:Drivers/lvgl/lvgl/src/core/lv_obj_scroll.c **** 
 265:Drivers/lvgl/lvgl/src/core/lv_obj_scroll.c ****     if(lv_obj_get_style_base_dir(obj, LV_PART_MAIN) != LV_BASE_DIR_RTL) {
 266:Drivers/lvgl/lvgl/src/core/lv_obj_scroll.c ****         if(x_bounded > 0) x_bounded = 0;
 267:Drivers/lvgl/lvgl/src/core/lv_obj_scroll.c ****         if(x_bounded < 0) {
 268:Drivers/lvgl/lvgl/src/core/lv_obj_scroll.c ****             lv_coord_t  scroll_max = lv_obj_get_scroll_left(obj) + lv_obj_get_scroll_right(obj);
 269:Drivers/lvgl/lvgl/src/core/lv_obj_scroll.c ****             if(scroll_max < 0) scroll_max = 0;
 270:Drivers/lvgl/lvgl/src/core/lv_obj_scroll.c **** 
 271:Drivers/lvgl/lvgl/src/core/lv_obj_scroll.c ****             if(x_bounded < -scroll_max) x_bounded = -scroll_max;
 272:Drivers/lvgl/lvgl/src/core/lv_obj_scroll.c ****         }
 273:Drivers/lvgl/lvgl/src/core/lv_obj_scroll.c ****     }
 274:Drivers/lvgl/lvgl/src/core/lv_obj_scroll.c ****     else {
 275:Drivers/lvgl/lvgl/src/core/lv_obj_scroll.c ****         if(x_bounded < 0) x_bounded = 0;
 276:Drivers/lvgl/lvgl/src/core/lv_obj_scroll.c ****         if(x_bounded > 0) {
 277:Drivers/lvgl/lvgl/src/core/lv_obj_scroll.c ****             lv_coord_t  scroll_max = lv_obj_get_scroll_left(obj) + lv_obj_get_scroll_right(obj);
 278:Drivers/lvgl/lvgl/src/core/lv_obj_scroll.c ****             if(scroll_max < 0) scroll_max = 0;
 279:Drivers/lvgl/lvgl/src/core/lv_obj_scroll.c **** 
 280:Drivers/lvgl/lvgl/src/core/lv_obj_scroll.c ****             if(x_bounded > scroll_max) x_bounded = scroll_max;
 281:Drivers/lvgl/lvgl/src/core/lv_obj_scroll.c ****         }
 282:Drivers/lvgl/lvgl/src/core/lv_obj_scroll.c ****     }
 283:Drivers/lvgl/lvgl/src/core/lv_obj_scroll.c **** 
 284:Drivers/lvgl/lvgl/src/core/lv_obj_scroll.c ****     /*Don't let scroll more then naturally possible by the size of the content*/
 285:Drivers/lvgl/lvgl/src/core/lv_obj_scroll.c ****     lv_coord_t y_current = -lv_obj_get_scroll_y(obj);
 286:Drivers/lvgl/lvgl/src/core/lv_obj_scroll.c ****     lv_coord_t y_bounded = y_current + dy;
 287:Drivers/lvgl/lvgl/src/core/lv_obj_scroll.c **** 
 288:Drivers/lvgl/lvgl/src/core/lv_obj_scroll.c ****     if(y_bounded > 0) y_bounded = 0;
 289:Drivers/lvgl/lvgl/src/core/lv_obj_scroll.c ****     if(y_bounded < 0) {
 290:Drivers/lvgl/lvgl/src/core/lv_obj_scroll.c ****         lv_coord_t  scroll_max = lv_obj_get_scroll_top(obj) + lv_obj_get_scroll_bottom(obj);
 291:Drivers/lvgl/lvgl/src/core/lv_obj_scroll.c ****         if(scroll_max < 0) scroll_max = 0;
 292:Drivers/lvgl/lvgl/src/core/lv_obj_scroll.c ****         if(y_bounded < -scroll_max) y_bounded = -scroll_max;
 293:Drivers/lvgl/lvgl/src/core/lv_obj_scroll.c ****     }
 294:Drivers/lvgl/lvgl/src/core/lv_obj_scroll.c **** 
 295:Drivers/lvgl/lvgl/src/core/lv_obj_scroll.c ****     dx = x_bounded - x_current;
 296:Drivers/lvgl/lvgl/src/core/lv_obj_scroll.c ****     dy = y_bounded - y_current;
 297:Drivers/lvgl/lvgl/src/core/lv_obj_scroll.c ****     if(dx || dy) {
 298:Drivers/lvgl/lvgl/src/core/lv_obj_scroll.c ****         lv_obj_scroll_by(obj, dx, dy, anim_en);
 299:Drivers/lvgl/lvgl/src/core/lv_obj_scroll.c ****     }
 300:Drivers/lvgl/lvgl/src/core/lv_obj_scroll.c **** }
 301:Drivers/lvgl/lvgl/src/core/lv_obj_scroll.c **** 
 302:Drivers/lvgl/lvgl/src/core/lv_obj_scroll.c **** 
 303:Drivers/lvgl/lvgl/src/core/lv_obj_scroll.c **** void lv_obj_scroll_by(lv_obj_t * obj, lv_coord_t dx, lv_coord_t dy, lv_anim_enable_t anim_en)
 304:Drivers/lvgl/lvgl/src/core/lv_obj_scroll.c **** {
 305:Drivers/lvgl/lvgl/src/core/lv_obj_scroll.c ****     if(dx == 0 && dy == 0) return;
 306:Drivers/lvgl/lvgl/src/core/lv_obj_scroll.c ****     if(anim_en == LV_ANIM_ON) {
 307:Drivers/lvgl/lvgl/src/core/lv_obj_scroll.c ****         lv_disp_t * d = lv_obj_get_disp(obj);
 308:Drivers/lvgl/lvgl/src/core/lv_obj_scroll.c ****         lv_anim_t a;
 309:Drivers/lvgl/lvgl/src/core/lv_obj_scroll.c ****         lv_anim_init(&a);
 310:Drivers/lvgl/lvgl/src/core/lv_obj_scroll.c ****         lv_anim_set_var(&a, obj);
 311:Drivers/lvgl/lvgl/src/core/lv_obj_scroll.c ****         lv_anim_set_ready_cb(&a, scroll_anim_ready_cb);
 312:Drivers/lvgl/lvgl/src/core/lv_obj_scroll.c **** 
 313:Drivers/lvgl/lvgl/src/core/lv_obj_scroll.c ****         if(dx) {
 314:Drivers/lvgl/lvgl/src/core/lv_obj_scroll.c ****             uint32_t t = lv_anim_speed_to_time((lv_disp_get_hor_res(d) * 2) >> 2, 0, dx);
 315:Drivers/lvgl/lvgl/src/core/lv_obj_scroll.c ****             if(t < SCROLL_ANIM_TIME_MIN) t = SCROLL_ANIM_TIME_MIN;
 316:Drivers/lvgl/lvgl/src/core/lv_obj_scroll.c ****             if(t > SCROLL_ANIM_TIME_MAX) t = SCROLL_ANIM_TIME_MAX;
 317:Drivers/lvgl/lvgl/src/core/lv_obj_scroll.c ****             lv_anim_set_time(&a, t);
 318:Drivers/lvgl/lvgl/src/core/lv_obj_scroll.c ****             lv_coord_t sx = lv_obj_get_scroll_x(obj);
ARM GAS  /tmp/ccrtAI1Z.s 			page 7


 319:Drivers/lvgl/lvgl/src/core/lv_obj_scroll.c ****             lv_anim_set_values(&a, -sx, -sx + dx);
 320:Drivers/lvgl/lvgl/src/core/lv_obj_scroll.c ****             lv_anim_set_exec_cb(&a, scroll_x_anim);
 321:Drivers/lvgl/lvgl/src/core/lv_obj_scroll.c ****             lv_anim_set_path_cb(&a, lv_anim_path_ease_out);
 322:Drivers/lvgl/lvgl/src/core/lv_obj_scroll.c **** 
 323:Drivers/lvgl/lvgl/src/core/lv_obj_scroll.c ****             lv_res_t res;
 324:Drivers/lvgl/lvgl/src/core/lv_obj_scroll.c ****             res = lv_event_send(obj, LV_EVENT_SCROLL_BEGIN, &a);
 325:Drivers/lvgl/lvgl/src/core/lv_obj_scroll.c ****             if(res != LV_RES_OK) return;
 326:Drivers/lvgl/lvgl/src/core/lv_obj_scroll.c ****             lv_anim_start(&a);
 327:Drivers/lvgl/lvgl/src/core/lv_obj_scroll.c ****         }
 328:Drivers/lvgl/lvgl/src/core/lv_obj_scroll.c **** 
 329:Drivers/lvgl/lvgl/src/core/lv_obj_scroll.c ****         if(dy) {
 330:Drivers/lvgl/lvgl/src/core/lv_obj_scroll.c ****             uint32_t t = lv_anim_speed_to_time((lv_disp_get_ver_res(d) * 2) >> 2, 0, dy);
 331:Drivers/lvgl/lvgl/src/core/lv_obj_scroll.c ****             if(t < SCROLL_ANIM_TIME_MIN) t = SCROLL_ANIM_TIME_MIN;
 332:Drivers/lvgl/lvgl/src/core/lv_obj_scroll.c ****             if(t > SCROLL_ANIM_TIME_MAX) t = SCROLL_ANIM_TIME_MAX;
 333:Drivers/lvgl/lvgl/src/core/lv_obj_scroll.c ****             lv_anim_set_time(&a, t);
 334:Drivers/lvgl/lvgl/src/core/lv_obj_scroll.c ****             lv_coord_t sy = lv_obj_get_scroll_y(obj);
 335:Drivers/lvgl/lvgl/src/core/lv_obj_scroll.c ****             lv_anim_set_values(&a, -sy, -sy + dy);
 336:Drivers/lvgl/lvgl/src/core/lv_obj_scroll.c ****             lv_anim_set_exec_cb(&a,  scroll_y_anim);
 337:Drivers/lvgl/lvgl/src/core/lv_obj_scroll.c ****             lv_anim_set_path_cb(&a, lv_anim_path_ease_out);
 338:Drivers/lvgl/lvgl/src/core/lv_obj_scroll.c **** 
 339:Drivers/lvgl/lvgl/src/core/lv_obj_scroll.c ****             lv_res_t res;
 340:Drivers/lvgl/lvgl/src/core/lv_obj_scroll.c ****             res = lv_event_send(obj, LV_EVENT_SCROLL_BEGIN, &a);
 341:Drivers/lvgl/lvgl/src/core/lv_obj_scroll.c ****             if(res != LV_RES_OK) return;
 342:Drivers/lvgl/lvgl/src/core/lv_obj_scroll.c ****             lv_anim_start(&a);
 343:Drivers/lvgl/lvgl/src/core/lv_obj_scroll.c ****         }
 344:Drivers/lvgl/lvgl/src/core/lv_obj_scroll.c ****     }
 345:Drivers/lvgl/lvgl/src/core/lv_obj_scroll.c ****     else {
 346:Drivers/lvgl/lvgl/src/core/lv_obj_scroll.c ****         /*Remove pending animations*/
 347:Drivers/lvgl/lvgl/src/core/lv_obj_scroll.c ****         lv_anim_del(obj, scroll_y_anim);
 348:Drivers/lvgl/lvgl/src/core/lv_obj_scroll.c ****         lv_anim_del(obj, scroll_x_anim);
 349:Drivers/lvgl/lvgl/src/core/lv_obj_scroll.c **** 
 350:Drivers/lvgl/lvgl/src/core/lv_obj_scroll.c ****         lv_res_t res;
 351:Drivers/lvgl/lvgl/src/core/lv_obj_scroll.c ****         res = lv_event_send(obj, LV_EVENT_SCROLL_BEGIN, NULL);
 352:Drivers/lvgl/lvgl/src/core/lv_obj_scroll.c ****         if(res != LV_RES_OK) return;
 353:Drivers/lvgl/lvgl/src/core/lv_obj_scroll.c **** 
 354:Drivers/lvgl/lvgl/src/core/lv_obj_scroll.c ****         res = _lv_obj_scroll_by_raw(obj, dx, dy);
 355:Drivers/lvgl/lvgl/src/core/lv_obj_scroll.c ****         if(res != LV_RES_OK) return;
 356:Drivers/lvgl/lvgl/src/core/lv_obj_scroll.c **** 
 357:Drivers/lvgl/lvgl/src/core/lv_obj_scroll.c ****         res = lv_event_send(obj, LV_EVENT_SCROLL_END, NULL);
 358:Drivers/lvgl/lvgl/src/core/lv_obj_scroll.c ****         if(res != LV_RES_OK) return;
 359:Drivers/lvgl/lvgl/src/core/lv_obj_scroll.c ****     }
 360:Drivers/lvgl/lvgl/src/core/lv_obj_scroll.c **** }
 361:Drivers/lvgl/lvgl/src/core/lv_obj_scroll.c **** 
 362:Drivers/lvgl/lvgl/src/core/lv_obj_scroll.c **** void lv_obj_scroll_to(lv_obj_t * obj, lv_coord_t x, lv_coord_t y, lv_anim_enable_t anim_en)
 363:Drivers/lvgl/lvgl/src/core/lv_obj_scroll.c **** {
 364:Drivers/lvgl/lvgl/src/core/lv_obj_scroll.c ****     lv_obj_scroll_to_x(obj, x, anim_en);
 365:Drivers/lvgl/lvgl/src/core/lv_obj_scroll.c ****     lv_obj_scroll_to_y(obj, y, anim_en);
 366:Drivers/lvgl/lvgl/src/core/lv_obj_scroll.c **** }
 367:Drivers/lvgl/lvgl/src/core/lv_obj_scroll.c **** 
 368:Drivers/lvgl/lvgl/src/core/lv_obj_scroll.c **** void lv_obj_scroll_to_x(lv_obj_t * obj, lv_coord_t x, lv_anim_enable_t anim_en)
 369:Drivers/lvgl/lvgl/src/core/lv_obj_scroll.c **** {
 370:Drivers/lvgl/lvgl/src/core/lv_obj_scroll.c ****     lv_anim_del(obj, scroll_x_anim);
 371:Drivers/lvgl/lvgl/src/core/lv_obj_scroll.c **** 
 372:Drivers/lvgl/lvgl/src/core/lv_obj_scroll.c ****     lv_coord_t scroll_x = lv_obj_get_scroll_x(obj);
 373:Drivers/lvgl/lvgl/src/core/lv_obj_scroll.c ****     lv_coord_t diff = -x + scroll_x;
 374:Drivers/lvgl/lvgl/src/core/lv_obj_scroll.c **** 
 375:Drivers/lvgl/lvgl/src/core/lv_obj_scroll.c ****     lv_obj_scroll_by_bounded(obj, diff, 0, anim_en);
ARM GAS  /tmp/ccrtAI1Z.s 			page 8


 376:Drivers/lvgl/lvgl/src/core/lv_obj_scroll.c **** }
 377:Drivers/lvgl/lvgl/src/core/lv_obj_scroll.c **** 
 378:Drivers/lvgl/lvgl/src/core/lv_obj_scroll.c **** void lv_obj_scroll_to_y(lv_obj_t * obj, lv_coord_t y, lv_anim_enable_t anim_en)
 379:Drivers/lvgl/lvgl/src/core/lv_obj_scroll.c **** {
 380:Drivers/lvgl/lvgl/src/core/lv_obj_scroll.c ****     lv_anim_del(obj, scroll_y_anim);
 381:Drivers/lvgl/lvgl/src/core/lv_obj_scroll.c **** 
 382:Drivers/lvgl/lvgl/src/core/lv_obj_scroll.c ****     lv_coord_t scroll_y = lv_obj_get_scroll_y(obj);
 383:Drivers/lvgl/lvgl/src/core/lv_obj_scroll.c ****     lv_coord_t diff = -y + scroll_y;
 384:Drivers/lvgl/lvgl/src/core/lv_obj_scroll.c **** 
 385:Drivers/lvgl/lvgl/src/core/lv_obj_scroll.c ****     lv_obj_scroll_by_bounded(obj, 0, diff, anim_en);
 386:Drivers/lvgl/lvgl/src/core/lv_obj_scroll.c **** }
 387:Drivers/lvgl/lvgl/src/core/lv_obj_scroll.c **** 
 388:Drivers/lvgl/lvgl/src/core/lv_obj_scroll.c **** void lv_obj_scroll_to_view(lv_obj_t * obj, lv_anim_enable_t anim_en)
 389:Drivers/lvgl/lvgl/src/core/lv_obj_scroll.c **** {
 390:Drivers/lvgl/lvgl/src/core/lv_obj_scroll.c ****     /*Be sure the screens layout is correct*/
 391:Drivers/lvgl/lvgl/src/core/lv_obj_scroll.c ****     lv_obj_update_layout(obj);
 392:Drivers/lvgl/lvgl/src/core/lv_obj_scroll.c **** 
 393:Drivers/lvgl/lvgl/src/core/lv_obj_scroll.c ****     lv_point_t p = {0, 0};
 394:Drivers/lvgl/lvgl/src/core/lv_obj_scroll.c ****     scroll_area_into_view(&obj->coords, obj, &p, anim_en);
 395:Drivers/lvgl/lvgl/src/core/lv_obj_scroll.c **** }
 396:Drivers/lvgl/lvgl/src/core/lv_obj_scroll.c **** 
 397:Drivers/lvgl/lvgl/src/core/lv_obj_scroll.c **** void lv_obj_scroll_to_view_recursive(lv_obj_t * obj, lv_anim_enable_t anim_en)
 398:Drivers/lvgl/lvgl/src/core/lv_obj_scroll.c **** {
 399:Drivers/lvgl/lvgl/src/core/lv_obj_scroll.c ****     /*Be sure the screens layout is correct*/
 400:Drivers/lvgl/lvgl/src/core/lv_obj_scroll.c ****     lv_obj_update_layout(obj);
 401:Drivers/lvgl/lvgl/src/core/lv_obj_scroll.c **** 
 402:Drivers/lvgl/lvgl/src/core/lv_obj_scroll.c ****     lv_point_t p = {0, 0};
 403:Drivers/lvgl/lvgl/src/core/lv_obj_scroll.c ****     lv_obj_t * child = obj;
 404:Drivers/lvgl/lvgl/src/core/lv_obj_scroll.c ****     lv_obj_t * parent = lv_obj_get_parent(child);
 405:Drivers/lvgl/lvgl/src/core/lv_obj_scroll.c ****     while(parent) {
 406:Drivers/lvgl/lvgl/src/core/lv_obj_scroll.c ****         scroll_area_into_view(&obj->coords, child, &p, anim_en);
 407:Drivers/lvgl/lvgl/src/core/lv_obj_scroll.c ****         child = parent;
 408:Drivers/lvgl/lvgl/src/core/lv_obj_scroll.c ****         parent = lv_obj_get_parent(parent);
 409:Drivers/lvgl/lvgl/src/core/lv_obj_scroll.c ****     }
 410:Drivers/lvgl/lvgl/src/core/lv_obj_scroll.c **** }
 411:Drivers/lvgl/lvgl/src/core/lv_obj_scroll.c **** 
 412:Drivers/lvgl/lvgl/src/core/lv_obj_scroll.c **** lv_res_t _lv_obj_scroll_by_raw(lv_obj_t * obj, lv_coord_t x, lv_coord_t y)
 413:Drivers/lvgl/lvgl/src/core/lv_obj_scroll.c **** {
 414:Drivers/lvgl/lvgl/src/core/lv_obj_scroll.c ****     if(x == 0 && y == 0) return LV_RES_OK;
 415:Drivers/lvgl/lvgl/src/core/lv_obj_scroll.c **** 
 416:Drivers/lvgl/lvgl/src/core/lv_obj_scroll.c ****     lv_obj_allocate_spec_attr(obj);
 417:Drivers/lvgl/lvgl/src/core/lv_obj_scroll.c **** 
 418:Drivers/lvgl/lvgl/src/core/lv_obj_scroll.c ****     obj->spec_attr->scroll.x += x;
 419:Drivers/lvgl/lvgl/src/core/lv_obj_scroll.c ****     obj->spec_attr->scroll.y += y;
 420:Drivers/lvgl/lvgl/src/core/lv_obj_scroll.c **** 
 421:Drivers/lvgl/lvgl/src/core/lv_obj_scroll.c ****     lv_obj_move_children_by(obj, x, y, true);
 422:Drivers/lvgl/lvgl/src/core/lv_obj_scroll.c ****     lv_res_t res = lv_event_send(obj, LV_EVENT_SCROLL, NULL);
 423:Drivers/lvgl/lvgl/src/core/lv_obj_scroll.c ****     if(res != LV_RES_OK) return res;
 424:Drivers/lvgl/lvgl/src/core/lv_obj_scroll.c ****     lv_obj_invalidate(obj);
 425:Drivers/lvgl/lvgl/src/core/lv_obj_scroll.c ****     return LV_RES_OK;
 426:Drivers/lvgl/lvgl/src/core/lv_obj_scroll.c **** }
 427:Drivers/lvgl/lvgl/src/core/lv_obj_scroll.c **** 
 428:Drivers/lvgl/lvgl/src/core/lv_obj_scroll.c **** 
 429:Drivers/lvgl/lvgl/src/core/lv_obj_scroll.c **** bool lv_obj_is_scrolling(const lv_obj_t * obj)
 430:Drivers/lvgl/lvgl/src/core/lv_obj_scroll.c **** {
 431:Drivers/lvgl/lvgl/src/core/lv_obj_scroll.c ****     lv_indev_t * indev = lv_indev_get_next(NULL);
 432:Drivers/lvgl/lvgl/src/core/lv_obj_scroll.c ****     while(indev) {
ARM GAS  /tmp/ccrtAI1Z.s 			page 9


 433:Drivers/lvgl/lvgl/src/core/lv_obj_scroll.c ****         if(lv_indev_get_scroll_obj(indev) == obj) return true;
 434:Drivers/lvgl/lvgl/src/core/lv_obj_scroll.c ****         indev = lv_indev_get_next(indev);
 435:Drivers/lvgl/lvgl/src/core/lv_obj_scroll.c ****     }
 436:Drivers/lvgl/lvgl/src/core/lv_obj_scroll.c **** 
 437:Drivers/lvgl/lvgl/src/core/lv_obj_scroll.c ****     return false;
 438:Drivers/lvgl/lvgl/src/core/lv_obj_scroll.c **** }
 439:Drivers/lvgl/lvgl/src/core/lv_obj_scroll.c **** 
 440:Drivers/lvgl/lvgl/src/core/lv_obj_scroll.c **** void lv_obj_update_snap(lv_obj_t * obj, lv_anim_enable_t anim_en)
 441:Drivers/lvgl/lvgl/src/core/lv_obj_scroll.c **** {
 442:Drivers/lvgl/lvgl/src/core/lv_obj_scroll.c ****     lv_obj_update_layout(obj);
 443:Drivers/lvgl/lvgl/src/core/lv_obj_scroll.c ****     lv_point_t p;
 444:Drivers/lvgl/lvgl/src/core/lv_obj_scroll.c ****     lv_indev_scroll_get_snap_dist(obj, &p);
 445:Drivers/lvgl/lvgl/src/core/lv_obj_scroll.c ****     lv_obj_scroll_by(obj, p.x, p.y, anim_en);
 446:Drivers/lvgl/lvgl/src/core/lv_obj_scroll.c **** }
 447:Drivers/lvgl/lvgl/src/core/lv_obj_scroll.c **** 
 448:Drivers/lvgl/lvgl/src/core/lv_obj_scroll.c **** void lv_obj_get_scrollbar_area(lv_obj_t * obj, lv_area_t * hor_area, lv_area_t * ver_area)
 449:Drivers/lvgl/lvgl/src/core/lv_obj_scroll.c **** {
 450:Drivers/lvgl/lvgl/src/core/lv_obj_scroll.c ****     lv_area_set(hor_area, 0, 0, -1, -1);
 451:Drivers/lvgl/lvgl/src/core/lv_obj_scroll.c ****     lv_area_set(ver_area, 0, 0, -1, -1);
 452:Drivers/lvgl/lvgl/src/core/lv_obj_scroll.c **** 
 453:Drivers/lvgl/lvgl/src/core/lv_obj_scroll.c ****     if(lv_obj_has_flag(obj, LV_OBJ_FLAG_SCROLLABLE) == false) return;
 454:Drivers/lvgl/lvgl/src/core/lv_obj_scroll.c **** 
 455:Drivers/lvgl/lvgl/src/core/lv_obj_scroll.c ****     lv_dir_t sm = lv_obj_get_scrollbar_mode(obj);
 456:Drivers/lvgl/lvgl/src/core/lv_obj_scroll.c ****     if(sm == LV_SCROLLBAR_MODE_OFF)  return;
 457:Drivers/lvgl/lvgl/src/core/lv_obj_scroll.c **** 
 458:Drivers/lvgl/lvgl/src/core/lv_obj_scroll.c ****     /*If there is no indev scrolling this object but `mode==active` return*/
 459:Drivers/lvgl/lvgl/src/core/lv_obj_scroll.c ****     lv_indev_t * indev = lv_indev_get_next(NULL);
 460:Drivers/lvgl/lvgl/src/core/lv_obj_scroll.c ****     if(sm == LV_SCROLLBAR_MODE_ACTIVE) {
 461:Drivers/lvgl/lvgl/src/core/lv_obj_scroll.c ****         while(indev) {
 462:Drivers/lvgl/lvgl/src/core/lv_obj_scroll.c ****             if(lv_indev_get_scroll_obj(indev) == obj) break;
 463:Drivers/lvgl/lvgl/src/core/lv_obj_scroll.c ****             indev = lv_indev_get_next(indev);
 464:Drivers/lvgl/lvgl/src/core/lv_obj_scroll.c ****         }
 465:Drivers/lvgl/lvgl/src/core/lv_obj_scroll.c ****         if(indev == NULL)  return;
 466:Drivers/lvgl/lvgl/src/core/lv_obj_scroll.c ****     }
 467:Drivers/lvgl/lvgl/src/core/lv_obj_scroll.c **** 
 468:Drivers/lvgl/lvgl/src/core/lv_obj_scroll.c ****     lv_coord_t st = lv_obj_get_scroll_top(obj);
 469:Drivers/lvgl/lvgl/src/core/lv_obj_scroll.c ****     lv_coord_t sb = lv_obj_get_scroll_bottom(obj);
 470:Drivers/lvgl/lvgl/src/core/lv_obj_scroll.c ****     lv_coord_t sl = lv_obj_get_scroll_left(obj);
 471:Drivers/lvgl/lvgl/src/core/lv_obj_scroll.c ****     lv_coord_t sr = lv_obj_get_scroll_right(obj);
 472:Drivers/lvgl/lvgl/src/core/lv_obj_scroll.c **** 
 473:Drivers/lvgl/lvgl/src/core/lv_obj_scroll.c ****     lv_dir_t dir = lv_obj_get_scroll_dir(obj);
 474:Drivers/lvgl/lvgl/src/core/lv_obj_scroll.c **** 
 475:Drivers/lvgl/lvgl/src/core/lv_obj_scroll.c ****     bool ver_draw = false;
 476:Drivers/lvgl/lvgl/src/core/lv_obj_scroll.c ****     if((dir & LV_DIR_VER) &&
 477:Drivers/lvgl/lvgl/src/core/lv_obj_scroll.c ****        ((sm == LV_SCROLLBAR_MODE_ON) ||
 478:Drivers/lvgl/lvgl/src/core/lv_obj_scroll.c ****         (sm == LV_SCROLLBAR_MODE_AUTO && (st > 0 || sb > 0)) ||
 479:Drivers/lvgl/lvgl/src/core/lv_obj_scroll.c ****         (sm == LV_SCROLLBAR_MODE_ACTIVE && lv_indev_get_scroll_dir(indev) == LV_DIR_VER))) {
 480:Drivers/lvgl/lvgl/src/core/lv_obj_scroll.c ****         ver_draw = true;
 481:Drivers/lvgl/lvgl/src/core/lv_obj_scroll.c ****     }
 482:Drivers/lvgl/lvgl/src/core/lv_obj_scroll.c **** 
 483:Drivers/lvgl/lvgl/src/core/lv_obj_scroll.c **** 
 484:Drivers/lvgl/lvgl/src/core/lv_obj_scroll.c ****     bool hor_draw = false;
 485:Drivers/lvgl/lvgl/src/core/lv_obj_scroll.c ****     if((dir & LV_DIR_HOR) &&
 486:Drivers/lvgl/lvgl/src/core/lv_obj_scroll.c ****        ((sm == LV_SCROLLBAR_MODE_ON) ||
 487:Drivers/lvgl/lvgl/src/core/lv_obj_scroll.c ****         (sm == LV_SCROLLBAR_MODE_AUTO && (sl > 0 || sr > 0)) ||
 488:Drivers/lvgl/lvgl/src/core/lv_obj_scroll.c ****         (sm == LV_SCROLLBAR_MODE_ACTIVE && lv_indev_get_scroll_dir(indev) == LV_DIR_HOR))) {
 489:Drivers/lvgl/lvgl/src/core/lv_obj_scroll.c ****         hor_draw = true;
ARM GAS  /tmp/ccrtAI1Z.s 			page 10


 490:Drivers/lvgl/lvgl/src/core/lv_obj_scroll.c ****     }
 491:Drivers/lvgl/lvgl/src/core/lv_obj_scroll.c **** 
 492:Drivers/lvgl/lvgl/src/core/lv_obj_scroll.c ****     if(!hor_draw && !ver_draw) return;
 493:Drivers/lvgl/lvgl/src/core/lv_obj_scroll.c **** 
 494:Drivers/lvgl/lvgl/src/core/lv_obj_scroll.c ****     bool rtl = lv_obj_get_style_base_dir(obj, LV_PART_SCROLLBAR) == LV_BASE_DIR_RTL ? true : false;
 495:Drivers/lvgl/lvgl/src/core/lv_obj_scroll.c **** 
 496:Drivers/lvgl/lvgl/src/core/lv_obj_scroll.c ****     lv_coord_t top_space = lv_obj_get_style_pad_top(obj, LV_PART_SCROLLBAR);
 497:Drivers/lvgl/lvgl/src/core/lv_obj_scroll.c ****     lv_coord_t bottom_space = lv_obj_get_style_pad_bottom(obj, LV_PART_SCROLLBAR);
 498:Drivers/lvgl/lvgl/src/core/lv_obj_scroll.c ****     lv_coord_t left_space = lv_obj_get_style_pad_left(obj, LV_PART_SCROLLBAR);
 499:Drivers/lvgl/lvgl/src/core/lv_obj_scroll.c ****     lv_coord_t right_space = lv_obj_get_style_pad_right(obj, LV_PART_SCROLLBAR);
 500:Drivers/lvgl/lvgl/src/core/lv_obj_scroll.c ****     lv_coord_t tickness = lv_obj_get_style_width(obj, LV_PART_SCROLLBAR);
 501:Drivers/lvgl/lvgl/src/core/lv_obj_scroll.c **** 
 502:Drivers/lvgl/lvgl/src/core/lv_obj_scroll.c ****     lv_coord_t obj_h = lv_obj_get_height(obj);
 503:Drivers/lvgl/lvgl/src/core/lv_obj_scroll.c ****     lv_coord_t obj_w = lv_obj_get_width(obj);
 504:Drivers/lvgl/lvgl/src/core/lv_obj_scroll.c **** 
 505:Drivers/lvgl/lvgl/src/core/lv_obj_scroll.c ****     /*Space required for the vertical and horizontal scrollbars*/
 506:Drivers/lvgl/lvgl/src/core/lv_obj_scroll.c ****     lv_coord_t ver_reg_space = ver_draw ? tickness : 0;
 507:Drivers/lvgl/lvgl/src/core/lv_obj_scroll.c ****     lv_coord_t hor_req_space = hor_draw ? tickness : 0;
 508:Drivers/lvgl/lvgl/src/core/lv_obj_scroll.c ****     lv_coord_t rem;
 509:Drivers/lvgl/lvgl/src/core/lv_obj_scroll.c **** 
 510:Drivers/lvgl/lvgl/src/core/lv_obj_scroll.c ****     if(lv_obj_get_style_bg_opa(obj, LV_PART_SCROLLBAR) < LV_OPA_MIN &&
 511:Drivers/lvgl/lvgl/src/core/lv_obj_scroll.c ****        lv_obj_get_style_border_opa(obj, LV_PART_SCROLLBAR) < LV_OPA_MIN) {
 512:Drivers/lvgl/lvgl/src/core/lv_obj_scroll.c ****         return;
 513:Drivers/lvgl/lvgl/src/core/lv_obj_scroll.c ****     }
 514:Drivers/lvgl/lvgl/src/core/lv_obj_scroll.c **** 
 515:Drivers/lvgl/lvgl/src/core/lv_obj_scroll.c ****     /*Draw vertical scrollbar if the mode is ON or can be scrolled in this direction*/
 516:Drivers/lvgl/lvgl/src/core/lv_obj_scroll.c ****     lv_coord_t content_h = obj_h + st + sb;
 517:Drivers/lvgl/lvgl/src/core/lv_obj_scroll.c ****     if(ver_draw && content_h) {
 518:Drivers/lvgl/lvgl/src/core/lv_obj_scroll.c ****         ver_area->y1 = obj->coords.y1;
 519:Drivers/lvgl/lvgl/src/core/lv_obj_scroll.c ****         ver_area->y2 = obj->coords.y2;
 520:Drivers/lvgl/lvgl/src/core/lv_obj_scroll.c ****         if(rtl) {
 521:Drivers/lvgl/lvgl/src/core/lv_obj_scroll.c ****             ver_area->x1 = obj->coords.x1 + left_space;
 522:Drivers/lvgl/lvgl/src/core/lv_obj_scroll.c ****             ver_area->x2 = ver_area->x1 + tickness - 1;
 523:Drivers/lvgl/lvgl/src/core/lv_obj_scroll.c ****         }
 524:Drivers/lvgl/lvgl/src/core/lv_obj_scroll.c ****         else {
 525:Drivers/lvgl/lvgl/src/core/lv_obj_scroll.c ****             ver_area->x2 = obj->coords.x2 - right_space;
 526:Drivers/lvgl/lvgl/src/core/lv_obj_scroll.c ****             ver_area->x1 = ver_area->x2 - tickness + 1;
 527:Drivers/lvgl/lvgl/src/core/lv_obj_scroll.c ****         }
 528:Drivers/lvgl/lvgl/src/core/lv_obj_scroll.c **** 
 529:Drivers/lvgl/lvgl/src/core/lv_obj_scroll.c ****         lv_coord_t sb_h = ((obj_h - top_space - bottom_space - hor_req_space) * obj_h) / content_h;
 530:Drivers/lvgl/lvgl/src/core/lv_obj_scroll.c ****         sb_h = LV_MAX(sb_h, SCROLLBAR_MIN_SIZE);
 531:Drivers/lvgl/lvgl/src/core/lv_obj_scroll.c ****         rem = (obj_h - top_space - bottom_space - hor_req_space) -
 532:Drivers/lvgl/lvgl/src/core/lv_obj_scroll.c ****               sb_h;  /*Remaining size from the scrollbar track that is not the scrollbar itself*/
 533:Drivers/lvgl/lvgl/src/core/lv_obj_scroll.c ****         lv_coord_t scroll_h = content_h - obj_h; /*The size of the content which can be really scro
 534:Drivers/lvgl/lvgl/src/core/lv_obj_scroll.c ****         if(scroll_h <= 0) {
 535:Drivers/lvgl/lvgl/src/core/lv_obj_scroll.c ****             ver_area->y1 = obj->coords.y1 + top_space;
 536:Drivers/lvgl/lvgl/src/core/lv_obj_scroll.c ****             ver_area->y2 = obj->coords.y2 - bottom_space - hor_req_space - 1;
 537:Drivers/lvgl/lvgl/src/core/lv_obj_scroll.c ****         }
 538:Drivers/lvgl/lvgl/src/core/lv_obj_scroll.c ****         else {
 539:Drivers/lvgl/lvgl/src/core/lv_obj_scroll.c ****             lv_coord_t sb_y = (rem * sb) / scroll_h;
 540:Drivers/lvgl/lvgl/src/core/lv_obj_scroll.c ****             sb_y = rem - sb_y;
 541:Drivers/lvgl/lvgl/src/core/lv_obj_scroll.c **** 
 542:Drivers/lvgl/lvgl/src/core/lv_obj_scroll.c ****             ver_area->y1 = obj->coords.y1 + sb_y + top_space;
 543:Drivers/lvgl/lvgl/src/core/lv_obj_scroll.c ****             ver_area->y2 = ver_area->y1 + sb_h - 1;
 544:Drivers/lvgl/lvgl/src/core/lv_obj_scroll.c ****             if(ver_area->y1 < obj->coords.y1 + top_space) {
 545:Drivers/lvgl/lvgl/src/core/lv_obj_scroll.c ****                 ver_area->y1 = obj->coords.y1 + top_space;
 546:Drivers/lvgl/lvgl/src/core/lv_obj_scroll.c ****                 if(ver_area->y1 + SCROLLBAR_MIN_SIZE > ver_area->y2) {
ARM GAS  /tmp/ccrtAI1Z.s 			page 11


 547:Drivers/lvgl/lvgl/src/core/lv_obj_scroll.c ****                     ver_area->y2 = ver_area->y1 + SCROLLBAR_MIN_SIZE;
 548:Drivers/lvgl/lvgl/src/core/lv_obj_scroll.c ****                 }
 549:Drivers/lvgl/lvgl/src/core/lv_obj_scroll.c ****             }
 550:Drivers/lvgl/lvgl/src/core/lv_obj_scroll.c ****             if(ver_area->y2 > obj->coords.y2 - hor_req_space - bottom_space) {
 551:Drivers/lvgl/lvgl/src/core/lv_obj_scroll.c ****                 ver_area->y2 = obj->coords.y2 - hor_req_space - bottom_space;
 552:Drivers/lvgl/lvgl/src/core/lv_obj_scroll.c ****                 if(ver_area->y2 - SCROLLBAR_MIN_SIZE < ver_area->y1) {
 553:Drivers/lvgl/lvgl/src/core/lv_obj_scroll.c ****                     ver_area->y1 = ver_area->y2 - SCROLLBAR_MIN_SIZE;
 554:Drivers/lvgl/lvgl/src/core/lv_obj_scroll.c ****                 }
 555:Drivers/lvgl/lvgl/src/core/lv_obj_scroll.c ****             }
 556:Drivers/lvgl/lvgl/src/core/lv_obj_scroll.c ****         }
 557:Drivers/lvgl/lvgl/src/core/lv_obj_scroll.c ****     }
 558:Drivers/lvgl/lvgl/src/core/lv_obj_scroll.c **** 
 559:Drivers/lvgl/lvgl/src/core/lv_obj_scroll.c ****     /*Draw horizontal scrollbar if the mode is ON or can be scrolled in this direction*/
 560:Drivers/lvgl/lvgl/src/core/lv_obj_scroll.c ****     lv_coord_t content_w = obj_w + sl + sr;
 561:Drivers/lvgl/lvgl/src/core/lv_obj_scroll.c ****     if(hor_draw && content_w) {
 562:Drivers/lvgl/lvgl/src/core/lv_obj_scroll.c ****         hor_area->y2 = obj->coords.y2 - bottom_space;
 563:Drivers/lvgl/lvgl/src/core/lv_obj_scroll.c ****         hor_area->y1 = hor_area->y2 - tickness + 1;
 564:Drivers/lvgl/lvgl/src/core/lv_obj_scroll.c ****         hor_area->x1 = obj->coords.x1;
 565:Drivers/lvgl/lvgl/src/core/lv_obj_scroll.c ****         hor_area->x2 = obj->coords.x2;
 566:Drivers/lvgl/lvgl/src/core/lv_obj_scroll.c **** 
 567:Drivers/lvgl/lvgl/src/core/lv_obj_scroll.c ****         lv_coord_t sb_w = ((obj_w - left_space - right_space - ver_reg_space) * obj_w) / content_w;
 568:Drivers/lvgl/lvgl/src/core/lv_obj_scroll.c ****         sb_w = LV_MAX(sb_w, SCROLLBAR_MIN_SIZE);
 569:Drivers/lvgl/lvgl/src/core/lv_obj_scroll.c ****         rem = (obj_w - left_space - right_space - ver_reg_space) -
 570:Drivers/lvgl/lvgl/src/core/lv_obj_scroll.c ****               sb_w;  /*Remaining size from the scrollbar track that is not the scrollbar itself*/
 571:Drivers/lvgl/lvgl/src/core/lv_obj_scroll.c ****         lv_coord_t scroll_w = content_w - obj_w; /*The size of the content which can be really scro
 572:Drivers/lvgl/lvgl/src/core/lv_obj_scroll.c ****         if(scroll_w <= 0) {
 573:Drivers/lvgl/lvgl/src/core/lv_obj_scroll.c ****             if(rtl) {
 574:Drivers/lvgl/lvgl/src/core/lv_obj_scroll.c ****                 hor_area->x1 = obj->coords.x1 + left_space + ver_reg_space - 1;
 575:Drivers/lvgl/lvgl/src/core/lv_obj_scroll.c ****                 hor_area->x2 = obj->coords.x2 - right_space;
 576:Drivers/lvgl/lvgl/src/core/lv_obj_scroll.c ****             }
 577:Drivers/lvgl/lvgl/src/core/lv_obj_scroll.c ****             else {
 578:Drivers/lvgl/lvgl/src/core/lv_obj_scroll.c ****                 hor_area->x1 = obj->coords.x1 + left_space;
 579:Drivers/lvgl/lvgl/src/core/lv_obj_scroll.c ****                 hor_area->x2 = obj->coords.x2 - right_space - ver_reg_space - 1;
 580:Drivers/lvgl/lvgl/src/core/lv_obj_scroll.c ****             }
 581:Drivers/lvgl/lvgl/src/core/lv_obj_scroll.c ****         }
 582:Drivers/lvgl/lvgl/src/core/lv_obj_scroll.c ****         else {
 583:Drivers/lvgl/lvgl/src/core/lv_obj_scroll.c ****             lv_coord_t sb_x = (rem * sr) / scroll_w;
 584:Drivers/lvgl/lvgl/src/core/lv_obj_scroll.c ****             sb_x = rem - sb_x;
 585:Drivers/lvgl/lvgl/src/core/lv_obj_scroll.c **** 
 586:Drivers/lvgl/lvgl/src/core/lv_obj_scroll.c ****             if(rtl) {
 587:Drivers/lvgl/lvgl/src/core/lv_obj_scroll.c ****                 hor_area->x1 = obj->coords.x1 + sb_x + left_space + ver_reg_space;
 588:Drivers/lvgl/lvgl/src/core/lv_obj_scroll.c ****                 hor_area->x2 = hor_area->x1 + sb_w - 1;
 589:Drivers/lvgl/lvgl/src/core/lv_obj_scroll.c ****                 if(hor_area->x1 < obj->coords.x1 + left_space + ver_reg_space) {
 590:Drivers/lvgl/lvgl/src/core/lv_obj_scroll.c ****                     hor_area->x1 = obj->coords.x1 + left_space + ver_reg_space;
 591:Drivers/lvgl/lvgl/src/core/lv_obj_scroll.c ****                     if(hor_area->x1 + SCROLLBAR_MIN_SIZE > hor_area->x2) {
 592:Drivers/lvgl/lvgl/src/core/lv_obj_scroll.c ****                         hor_area->x2 = hor_area->x1 + SCROLLBAR_MIN_SIZE;
 593:Drivers/lvgl/lvgl/src/core/lv_obj_scroll.c ****                     }
 594:Drivers/lvgl/lvgl/src/core/lv_obj_scroll.c ****                 }
 595:Drivers/lvgl/lvgl/src/core/lv_obj_scroll.c ****                 if(hor_area->x2 > obj->coords.x2 - right_space) {
 596:Drivers/lvgl/lvgl/src/core/lv_obj_scroll.c ****                     hor_area->x2 = obj->coords.x2 - right_space;
 597:Drivers/lvgl/lvgl/src/core/lv_obj_scroll.c ****                     if(hor_area->x2 - SCROLLBAR_MIN_SIZE < hor_area->x1) {
 598:Drivers/lvgl/lvgl/src/core/lv_obj_scroll.c ****                         hor_area->x1 = hor_area->x2 - SCROLLBAR_MIN_SIZE;
 599:Drivers/lvgl/lvgl/src/core/lv_obj_scroll.c ****                     }
 600:Drivers/lvgl/lvgl/src/core/lv_obj_scroll.c ****                 }
 601:Drivers/lvgl/lvgl/src/core/lv_obj_scroll.c ****             }
 602:Drivers/lvgl/lvgl/src/core/lv_obj_scroll.c ****             else {
 603:Drivers/lvgl/lvgl/src/core/lv_obj_scroll.c ****                 hor_area->x1 = obj->coords.x1 + sb_x + left_space;
ARM GAS  /tmp/ccrtAI1Z.s 			page 12


 604:Drivers/lvgl/lvgl/src/core/lv_obj_scroll.c ****                 hor_area->x2 = hor_area->x1 + sb_w - 1;
 605:Drivers/lvgl/lvgl/src/core/lv_obj_scroll.c ****                 if(hor_area->x1 < obj->coords.x1 + left_space) {
 606:Drivers/lvgl/lvgl/src/core/lv_obj_scroll.c ****                     hor_area->x1 = obj->coords.x1 + left_space;
 607:Drivers/lvgl/lvgl/src/core/lv_obj_scroll.c ****                     if(hor_area->x1 + SCROLLBAR_MIN_SIZE > hor_area->x2) {
 608:Drivers/lvgl/lvgl/src/core/lv_obj_scroll.c ****                         hor_area->x2 = hor_area->x1 + SCROLLBAR_MIN_SIZE;
 609:Drivers/lvgl/lvgl/src/core/lv_obj_scroll.c ****                     }
 610:Drivers/lvgl/lvgl/src/core/lv_obj_scroll.c ****                 }
 611:Drivers/lvgl/lvgl/src/core/lv_obj_scroll.c ****                 if(hor_area->x2 > obj->coords.x2 - ver_reg_space - right_space) {
 612:Drivers/lvgl/lvgl/src/core/lv_obj_scroll.c ****                     hor_area->x2 = obj->coords.x2 - ver_reg_space - right_space;
 613:Drivers/lvgl/lvgl/src/core/lv_obj_scroll.c ****                     if(hor_area->x2 - SCROLLBAR_MIN_SIZE < hor_area->x1) {
 614:Drivers/lvgl/lvgl/src/core/lv_obj_scroll.c ****                         hor_area->x1 = hor_area->x2 - SCROLLBAR_MIN_SIZE;
 615:Drivers/lvgl/lvgl/src/core/lv_obj_scroll.c ****                     }
 616:Drivers/lvgl/lvgl/src/core/lv_obj_scroll.c ****                 }
 617:Drivers/lvgl/lvgl/src/core/lv_obj_scroll.c ****             }
 618:Drivers/lvgl/lvgl/src/core/lv_obj_scroll.c ****         }
 619:Drivers/lvgl/lvgl/src/core/lv_obj_scroll.c ****     }
 620:Drivers/lvgl/lvgl/src/core/lv_obj_scroll.c **** }
 621:Drivers/lvgl/lvgl/src/core/lv_obj_scroll.c **** 
 622:Drivers/lvgl/lvgl/src/core/lv_obj_scroll.c **** void lv_obj_scrollbar_invalidate(lv_obj_t * obj)
 623:Drivers/lvgl/lvgl/src/core/lv_obj_scroll.c **** {
 624:Drivers/lvgl/lvgl/src/core/lv_obj_scroll.c ****     lv_area_t hor_area;
 625:Drivers/lvgl/lvgl/src/core/lv_obj_scroll.c ****     lv_area_t ver_area;
 626:Drivers/lvgl/lvgl/src/core/lv_obj_scroll.c ****     lv_obj_get_scrollbar_area(obj, &hor_area, &ver_area);
 627:Drivers/lvgl/lvgl/src/core/lv_obj_scroll.c **** 
 628:Drivers/lvgl/lvgl/src/core/lv_obj_scroll.c ****     if(lv_area_get_size(&hor_area) <= 0 && lv_area_get_size(&ver_area) <= 0) return;
 629:Drivers/lvgl/lvgl/src/core/lv_obj_scroll.c **** 
 630:Drivers/lvgl/lvgl/src/core/lv_obj_scroll.c ****     if(lv_area_get_size(&hor_area) > 0) lv_obj_invalidate_area(obj, &hor_area);
 631:Drivers/lvgl/lvgl/src/core/lv_obj_scroll.c ****     if(lv_area_get_size(&ver_area) > 0) lv_obj_invalidate_area(obj, &ver_area);
 632:Drivers/lvgl/lvgl/src/core/lv_obj_scroll.c **** }
 633:Drivers/lvgl/lvgl/src/core/lv_obj_scroll.c **** 
 634:Drivers/lvgl/lvgl/src/core/lv_obj_scroll.c **** void lv_obj_readjust_scroll(lv_obj_t * obj, lv_anim_enable_t anim_en)
 635:Drivers/lvgl/lvgl/src/core/lv_obj_scroll.c **** {
 636:Drivers/lvgl/lvgl/src/core/lv_obj_scroll.c ****     /*Be sure the bottom side is not remains scrolled in*/
 637:Drivers/lvgl/lvgl/src/core/lv_obj_scroll.c ****     /*With snapping the content can't be scrolled in*/
 638:Drivers/lvgl/lvgl/src/core/lv_obj_scroll.c ****     if(lv_obj_get_scroll_snap_y(obj) == LV_SCROLL_SNAP_NONE) {
 639:Drivers/lvgl/lvgl/src/core/lv_obj_scroll.c ****         lv_coord_t st = lv_obj_get_scroll_top(obj);
 640:Drivers/lvgl/lvgl/src/core/lv_obj_scroll.c ****         lv_coord_t sb = lv_obj_get_scroll_bottom(obj);
 641:Drivers/lvgl/lvgl/src/core/lv_obj_scroll.c ****         if(sb < 0 && st > 0) {
 642:Drivers/lvgl/lvgl/src/core/lv_obj_scroll.c ****             sb = LV_MIN(st, -sb);
 643:Drivers/lvgl/lvgl/src/core/lv_obj_scroll.c ****             lv_obj_scroll_by(obj, 0, sb, anim_en);
 644:Drivers/lvgl/lvgl/src/core/lv_obj_scroll.c ****         }
 645:Drivers/lvgl/lvgl/src/core/lv_obj_scroll.c ****     }
 646:Drivers/lvgl/lvgl/src/core/lv_obj_scroll.c **** 
 647:Drivers/lvgl/lvgl/src/core/lv_obj_scroll.c ****     if(lv_obj_get_scroll_snap_x(obj) == LV_SCROLL_SNAP_NONE) {
 648:Drivers/lvgl/lvgl/src/core/lv_obj_scroll.c ****         lv_coord_t sl = lv_obj_get_scroll_left(obj);
 649:Drivers/lvgl/lvgl/src/core/lv_obj_scroll.c ****         lv_coord_t sr = lv_obj_get_scroll_right(obj);
 650:Drivers/lvgl/lvgl/src/core/lv_obj_scroll.c ****         if(lv_obj_get_style_base_dir(obj, LV_PART_MAIN) != LV_BASE_DIR_RTL) {
 651:Drivers/lvgl/lvgl/src/core/lv_obj_scroll.c ****             /*Be sure the left side is not remains scrolled in*/
 652:Drivers/lvgl/lvgl/src/core/lv_obj_scroll.c ****             if(sr < 0 && sl > 0) {
 653:Drivers/lvgl/lvgl/src/core/lv_obj_scroll.c ****                 sr = LV_MIN(sl, -sr);
 654:Drivers/lvgl/lvgl/src/core/lv_obj_scroll.c ****                 lv_obj_scroll_by(obj, sr, 0, anim_en);
 655:Drivers/lvgl/lvgl/src/core/lv_obj_scroll.c ****             }
 656:Drivers/lvgl/lvgl/src/core/lv_obj_scroll.c ****         }
 657:Drivers/lvgl/lvgl/src/core/lv_obj_scroll.c ****         else {
 658:Drivers/lvgl/lvgl/src/core/lv_obj_scroll.c ****             /*Be sure the right side is not remains scrolled in*/
 659:Drivers/lvgl/lvgl/src/core/lv_obj_scroll.c ****             if(sl < 0 && sr > 0) {
 660:Drivers/lvgl/lvgl/src/core/lv_obj_scroll.c ****                 sr = LV_MIN(sr, -sl);
ARM GAS  /tmp/ccrtAI1Z.s 			page 13


 661:Drivers/lvgl/lvgl/src/core/lv_obj_scroll.c ****                 lv_obj_scroll_by(obj, sl, 0, anim_en);
 662:Drivers/lvgl/lvgl/src/core/lv_obj_scroll.c ****             }
 663:Drivers/lvgl/lvgl/src/core/lv_obj_scroll.c ****         }
 664:Drivers/lvgl/lvgl/src/core/lv_obj_scroll.c ****     }
 665:Drivers/lvgl/lvgl/src/core/lv_obj_scroll.c **** }
 666:Drivers/lvgl/lvgl/src/core/lv_obj_scroll.c **** 
 667:Drivers/lvgl/lvgl/src/core/lv_obj_scroll.c **** /**********************
 668:Drivers/lvgl/lvgl/src/core/lv_obj_scroll.c ****  *   STATIC FUNCTIONS
 669:Drivers/lvgl/lvgl/src/core/lv_obj_scroll.c ****  **********************/
 670:Drivers/lvgl/lvgl/src/core/lv_obj_scroll.c **** 
 671:Drivers/lvgl/lvgl/src/core/lv_obj_scroll.c **** 
 672:Drivers/lvgl/lvgl/src/core/lv_obj_scroll.c **** static void scroll_x_anim(void * obj, int32_t v)
 673:Drivers/lvgl/lvgl/src/core/lv_obj_scroll.c **** {
 674:Drivers/lvgl/lvgl/src/core/lv_obj_scroll.c ****     _lv_obj_scroll_by_raw(obj, v + lv_obj_get_scroll_x(obj), 0);
 675:Drivers/lvgl/lvgl/src/core/lv_obj_scroll.c **** }
 676:Drivers/lvgl/lvgl/src/core/lv_obj_scroll.c **** 
 677:Drivers/lvgl/lvgl/src/core/lv_obj_scroll.c **** static void scroll_y_anim(void * obj, int32_t v)
 678:Drivers/lvgl/lvgl/src/core/lv_obj_scroll.c **** {
 679:Drivers/lvgl/lvgl/src/core/lv_obj_scroll.c ****     _lv_obj_scroll_by_raw(obj, 0, v + lv_obj_get_scroll_y(obj));
 680:Drivers/lvgl/lvgl/src/core/lv_obj_scroll.c **** }
 681:Drivers/lvgl/lvgl/src/core/lv_obj_scroll.c **** 
 682:Drivers/lvgl/lvgl/src/core/lv_obj_scroll.c **** static void scroll_anim_ready_cb(lv_anim_t * a)
 683:Drivers/lvgl/lvgl/src/core/lv_obj_scroll.c **** {
  26              		.loc 1 683 0
  27              		.cfi_startproc
  28              		@ args = 0, pretend = 0, frame = 0
  29              		@ frame_needed = 0, uses_anonymous_args = 0
  30              	.LVL0:
  31 0000 08B5     		push	{r3, lr}
  32              	.LCFI0:
  33              		.cfi_def_cfa_offset 8
  34              		.cfi_offset 3, -8
  35              		.cfi_offset 14, -4
 684:Drivers/lvgl/lvgl/src/core/lv_obj_scroll.c ****     lv_event_send(a->var, LV_EVENT_SCROLL_END, NULL);
  36              		.loc 1 684 0
  37 0002 0022     		movs	r2, #0
  38 0004 0A21     		movs	r1, #10
  39 0006 0068     		ldr	r0, [r0]
  40              	.LVL1:
  41 0008 FFF7FEFF 		bl	lv_event_send
  42              	.LVL2:
 685:Drivers/lvgl/lvgl/src/core/lv_obj_scroll.c **** }
  43              		.loc 1 685 0
  44 000c 08BD     		pop	{r3, pc}
  45              		.cfi_endproc
  46              	.LFE195:
  48              		.section	.text.lv_obj_set_scrollbar_mode,"ax",%progbits
  49              		.align	1
  50              		.global	lv_obj_set_scrollbar_mode
  51              		.syntax unified
  52              		.thumb
  53              		.thumb_func
  54              		.fpu fpv5-d16
  56              	lv_obj_set_scrollbar_mode:
  57              	.LFB165:
  57:Drivers/lvgl/lvgl/src/core/lv_obj_scroll.c ****     LV_ASSERT_OBJ(obj, MY_CLASS);
  58              		.loc 1 57 0
ARM GAS  /tmp/ccrtAI1Z.s 			page 14


  59              		.cfi_startproc
  60              		@ args = 0, pretend = 0, frame = 0
  61              		@ frame_needed = 0, uses_anonymous_args = 0
  62              	.LVL3:
  63 0000 38B5     		push	{r3, r4, r5, lr}
  64              	.LCFI1:
  65              		.cfi_def_cfa_offset 16
  66              		.cfi_offset 3, -16
  67              		.cfi_offset 4, -12
  68              		.cfi_offset 5, -8
  69              		.cfi_offset 14, -4
  70 0002 0446     		mov	r4, r0
  71 0004 0D46     		mov	r5, r1
  60:Drivers/lvgl/lvgl/src/core/lv_obj_scroll.c **** 
  72              		.loc 1 60 0
  73 0006 FFF7FEFF 		bl	lv_obj_allocate_spec_attr
  74              	.LVL4:
  62:Drivers/lvgl/lvgl/src/core/lv_obj_scroll.c ****     obj->spec_attr->scrollbar_mode = mode;
  75              		.loc 1 62 0
  76 000a A268     		ldr	r2, [r4, #8]
  77 000c 137E     		ldrb	r3, [r2, #24]	@ zero_extendqisi2
  78 000e 03F00303 		and	r3, r3, #3
  79 0012 AB42     		cmp	r3, r5
  80 0014 06D0     		beq	.L3
  63:Drivers/lvgl/lvgl/src/core/lv_obj_scroll.c ****     lv_obj_invalidate(obj);
  81              		.loc 1 63 0
  82 0016 137E     		ldrb	r3, [r2, #24]	@ zero_extendqisi2
  83 0018 65F30103 		bfi	r3, r5, #0, #2
  84 001c 1376     		strb	r3, [r2, #24]
  64:Drivers/lvgl/lvgl/src/core/lv_obj_scroll.c **** }
  85              		.loc 1 64 0
  86 001e 2046     		mov	r0, r4
  87 0020 FFF7FEFF 		bl	lv_obj_invalidate
  88              	.LVL5:
  89              	.L3:
  65:Drivers/lvgl/lvgl/src/core/lv_obj_scroll.c **** 
  90              		.loc 1 65 0
  91 0024 38BD     		pop	{r3, r4, r5, pc}
  92              		.cfi_endproc
  93              	.LFE165:
  95              		.section	.text.lv_obj_set_scroll_dir,"ax",%progbits
  96              		.align	1
  97              		.global	lv_obj_set_scroll_dir
  98              		.syntax unified
  99              		.thumb
 100              		.thumb_func
 101              		.fpu fpv5-d16
 103              	lv_obj_set_scroll_dir:
 104              	.LFB166:
  68:Drivers/lvgl/lvgl/src/core/lv_obj_scroll.c ****     lv_obj_allocate_spec_attr(obj);
 105              		.loc 1 68 0
 106              		.cfi_startproc
 107              		@ args = 0, pretend = 0, frame = 0
 108              		@ frame_needed = 0, uses_anonymous_args = 0
 109              	.LVL6:
 110 0000 38B5     		push	{r3, r4, r5, lr}
 111              	.LCFI2:
ARM GAS  /tmp/ccrtAI1Z.s 			page 15


 112              		.cfi_def_cfa_offset 16
 113              		.cfi_offset 3, -16
 114              		.cfi_offset 4, -12
 115              		.cfi_offset 5, -8
 116              		.cfi_offset 14, -4
 117 0002 0546     		mov	r5, r0
 118 0004 0C46     		mov	r4, r1
  69:Drivers/lvgl/lvgl/src/core/lv_obj_scroll.c **** 
 119              		.loc 1 69 0
 120 0006 FFF7FEFF 		bl	lv_obj_allocate_spec_attr
 121              	.LVL7:
  71:Drivers/lvgl/lvgl/src/core/lv_obj_scroll.c ****         obj->spec_attr->scroll_dir = dir;
 122              		.loc 1 71 0
 123 000a AA68     		ldr	r2, [r5, #8]
 124 000c 537E     		ldrb	r3, [r2, #25]	@ zero_extendqisi2
 125 000e 03F00F03 		and	r3, r3, #15
 126 0012 A342     		cmp	r3, r4
 127 0014 03D0     		beq	.L6
  72:Drivers/lvgl/lvgl/src/core/lv_obj_scroll.c ****     }
 128              		.loc 1 72 0
 129 0016 537E     		ldrb	r3, [r2, #25]	@ zero_extendqisi2
 130 0018 64F30303 		bfi	r3, r4, #0, #4
 131              	.LVL8:
 132 001c 5376     		strb	r3, [r2, #25]
 133              	.L6:
  74:Drivers/lvgl/lvgl/src/core/lv_obj_scroll.c **** 
 134              		.loc 1 74 0
 135 001e 38BD     		pop	{r3, r4, r5, pc}
 136              		.cfi_endproc
 137              	.LFE166:
 139              		.section	.text.lv_obj_set_scroll_snap_x,"ax",%progbits
 140              		.align	1
 141              		.global	lv_obj_set_scroll_snap_x
 142              		.syntax unified
 143              		.thumb
 144              		.thumb_func
 145              		.fpu fpv5-d16
 147              	lv_obj_set_scroll_snap_x:
 148              	.LFB167:
  77:Drivers/lvgl/lvgl/src/core/lv_obj_scroll.c ****     lv_obj_allocate_spec_attr(obj);
 149              		.loc 1 77 0
 150              		.cfi_startproc
 151              		@ args = 0, pretend = 0, frame = 0
 152              		@ frame_needed = 0, uses_anonymous_args = 0
 153              	.LVL9:
 154 0000 38B5     		push	{r3, r4, r5, lr}
 155              	.LCFI3:
 156              		.cfi_def_cfa_offset 16
 157              		.cfi_offset 3, -16
 158              		.cfi_offset 4, -12
 159              		.cfi_offset 5, -8
 160              		.cfi_offset 14, -4
 161 0002 0546     		mov	r5, r0
 162 0004 0C46     		mov	r4, r1
  78:Drivers/lvgl/lvgl/src/core/lv_obj_scroll.c ****     obj->spec_attr->scroll_snap_x = align;
 163              		.loc 1 78 0
 164 0006 FFF7FEFF 		bl	lv_obj_allocate_spec_attr
ARM GAS  /tmp/ccrtAI1Z.s 			page 16


 165              	.LVL10:
  79:Drivers/lvgl/lvgl/src/core/lv_obj_scroll.c **** }
 166              		.loc 1 79 0
 167 000a AB68     		ldr	r3, [r5, #8]
 168 000c 1A7E     		ldrb	r2, [r3, #24]	@ zero_extendqisi2
 169 000e 64F38302 		bfi	r2, r4, #2, #2
 170 0012 1A76     		strb	r2, [r3, #24]
  80:Drivers/lvgl/lvgl/src/core/lv_obj_scroll.c **** 
 171              		.loc 1 80 0
 172 0014 38BD     		pop	{r3, r4, r5, pc}
 173              		.cfi_endproc
 174              	.LFE167:
 176              		.section	.text.lv_obj_set_scroll_snap_y,"ax",%progbits
 177              		.align	1
 178              		.global	lv_obj_set_scroll_snap_y
 179              		.syntax unified
 180              		.thumb
 181              		.thumb_func
 182              		.fpu fpv5-d16
 184              	lv_obj_set_scroll_snap_y:
 185              	.LFB168:
  83:Drivers/lvgl/lvgl/src/core/lv_obj_scroll.c ****     lv_obj_allocate_spec_attr(obj);
 186              		.loc 1 83 0
 187              		.cfi_startproc
 188              		@ args = 0, pretend = 0, frame = 0
 189              		@ frame_needed = 0, uses_anonymous_args = 0
 190              	.LVL11:
 191 0000 38B5     		push	{r3, r4, r5, lr}
 192              	.LCFI4:
 193              		.cfi_def_cfa_offset 16
 194              		.cfi_offset 3, -16
 195              		.cfi_offset 4, -12
 196              		.cfi_offset 5, -8
 197              		.cfi_offset 14, -4
 198 0002 0546     		mov	r5, r0
 199 0004 0C46     		mov	r4, r1
  84:Drivers/lvgl/lvgl/src/core/lv_obj_scroll.c ****     obj->spec_attr->scroll_snap_y = align;
 200              		.loc 1 84 0
 201 0006 FFF7FEFF 		bl	lv_obj_allocate_spec_attr
 202              	.LVL12:
  85:Drivers/lvgl/lvgl/src/core/lv_obj_scroll.c **** }
 203              		.loc 1 85 0
 204 000a AB68     		ldr	r3, [r5, #8]
 205 000c 1A7E     		ldrb	r2, [r3, #24]	@ zero_extendqisi2
 206 000e 64F30512 		bfi	r2, r4, #4, #2
 207 0012 1A76     		strb	r2, [r3, #24]
  86:Drivers/lvgl/lvgl/src/core/lv_obj_scroll.c **** 
 208              		.loc 1 86 0
 209 0014 38BD     		pop	{r3, r4, r5, pc}
 210              		.cfi_endproc
 211              	.LFE168:
 213              		.section	.text.lv_obj_get_scrollbar_mode,"ax",%progbits
 214              		.align	1
 215              		.global	lv_obj_get_scrollbar_mode
 216              		.syntax unified
 217              		.thumb
 218              		.thumb_func
ARM GAS  /tmp/ccrtAI1Z.s 			page 17


 219              		.fpu fpv5-d16
 221              	lv_obj_get_scrollbar_mode:
 222              	.LFB169:
  93:Drivers/lvgl/lvgl/src/core/lv_obj_scroll.c ****     if(obj->spec_attr) return obj->spec_attr->scrollbar_mode;
 223              		.loc 1 93 0
 224              		.cfi_startproc
 225              		@ args = 0, pretend = 0, frame = 0
 226              		@ frame_needed = 0, uses_anonymous_args = 0
 227              		@ link register save eliminated.
 228              	.LVL13:
  94:Drivers/lvgl/lvgl/src/core/lv_obj_scroll.c ****     else return LV_SCROLLBAR_MODE_AUTO;
 229              		.loc 1 94 0
 230 0000 8368     		ldr	r3, [r0, #8]
 231 0002 1BB1     		cbz	r3, .L15
  94:Drivers/lvgl/lvgl/src/core/lv_obj_scroll.c ****     else return LV_SCROLLBAR_MODE_AUTO;
 232              		.loc 1 94 0 is_stmt 0 discriminator 1
 233 0004 187E     		ldrb	r0, [r3, #24]	@ zero_extendqisi2
 234              	.LVL14:
 235 0006 00F00300 		and	r0, r0, #3
 236 000a 7047     		bx	lr
 237              	.LVL15:
 238              	.L15:
  95:Drivers/lvgl/lvgl/src/core/lv_obj_scroll.c **** }
 239              		.loc 1 95 0 is_stmt 1
 240 000c 0320     		movs	r0, #3
 241              	.LVL16:
  96:Drivers/lvgl/lvgl/src/core/lv_obj_scroll.c **** 
 242              		.loc 1 96 0
 243 000e 7047     		bx	lr
 244              		.cfi_endproc
 245              	.LFE169:
 247              		.section	.text.lv_obj_get_scroll_dir,"ax",%progbits
 248              		.align	1
 249              		.global	lv_obj_get_scroll_dir
 250              		.syntax unified
 251              		.thumb
 252              		.thumb_func
 253              		.fpu fpv5-d16
 255              	lv_obj_get_scroll_dir:
 256              	.LFB170:
  99:Drivers/lvgl/lvgl/src/core/lv_obj_scroll.c ****     if(obj->spec_attr) return obj->spec_attr->scroll_dir;
 257              		.loc 1 99 0
 258              		.cfi_startproc
 259              		@ args = 0, pretend = 0, frame = 0
 260              		@ frame_needed = 0, uses_anonymous_args = 0
 261              		@ link register save eliminated.
 262              	.LVL17:
 100:Drivers/lvgl/lvgl/src/core/lv_obj_scroll.c ****     else return LV_DIR_ALL;
 263              		.loc 1 100 0
 264 0000 8368     		ldr	r3, [r0, #8]
 265 0002 1BB1     		cbz	r3, .L18
 100:Drivers/lvgl/lvgl/src/core/lv_obj_scroll.c ****     else return LV_DIR_ALL;
 266              		.loc 1 100 0 is_stmt 0 discriminator 1
 267 0004 587E     		ldrb	r0, [r3, #25]	@ zero_extendqisi2
 268              	.LVL18:
 269 0006 00F00F00 		and	r0, r0, #15
 270 000a 7047     		bx	lr
ARM GAS  /tmp/ccrtAI1Z.s 			page 18


 271              	.LVL19:
 272              	.L18:
 101:Drivers/lvgl/lvgl/src/core/lv_obj_scroll.c **** }
 273              		.loc 1 101 0 is_stmt 1
 274 000c 0F20     		movs	r0, #15
 275              	.LVL20:
 102:Drivers/lvgl/lvgl/src/core/lv_obj_scroll.c **** 
 276              		.loc 1 102 0
 277 000e 7047     		bx	lr
 278              		.cfi_endproc
 279              	.LFE170:
 281              		.section	.text.lv_obj_get_scroll_snap_x,"ax",%progbits
 282              		.align	1
 283              		.global	lv_obj_get_scroll_snap_x
 284              		.syntax unified
 285              		.thumb
 286              		.thumb_func
 287              		.fpu fpv5-d16
 289              	lv_obj_get_scroll_snap_x:
 290              	.LFB171:
 105:Drivers/lvgl/lvgl/src/core/lv_obj_scroll.c ****     if(obj->spec_attr) return obj->spec_attr->scroll_snap_x;
 291              		.loc 1 105 0
 292              		.cfi_startproc
 293              		@ args = 0, pretend = 0, frame = 0
 294              		@ frame_needed = 0, uses_anonymous_args = 0
 295              		@ link register save eliminated.
 296              	.LVL21:
 106:Drivers/lvgl/lvgl/src/core/lv_obj_scroll.c ****     else return LV_SCROLL_SNAP_NONE;
 297              		.loc 1 106 0
 298 0000 8368     		ldr	r3, [r0, #8]
 299 0002 1BB1     		cbz	r3, .L21
 106:Drivers/lvgl/lvgl/src/core/lv_obj_scroll.c ****     else return LV_SCROLL_SNAP_NONE;
 300              		.loc 1 106 0 is_stmt 0 discriminator 1
 301 0004 187E     		ldrb	r0, [r3, #24]	@ zero_extendqisi2
 302              	.LVL22:
 303 0006 C0F38100 		ubfx	r0, r0, #2, #2
 304 000a 7047     		bx	lr
 305              	.LVL23:
 306              	.L21:
 107:Drivers/lvgl/lvgl/src/core/lv_obj_scroll.c **** }
 307              		.loc 1 107 0 is_stmt 1
 308 000c 0020     		movs	r0, #0
 309              	.LVL24:
 108:Drivers/lvgl/lvgl/src/core/lv_obj_scroll.c **** 
 310              		.loc 1 108 0
 311 000e 7047     		bx	lr
 312              		.cfi_endproc
 313              	.LFE171:
 315              		.section	.text.lv_obj_get_scroll_snap_y,"ax",%progbits
 316              		.align	1
 317              		.global	lv_obj_get_scroll_snap_y
 318              		.syntax unified
 319              		.thumb
 320              		.thumb_func
 321              		.fpu fpv5-d16
 323              	lv_obj_get_scroll_snap_y:
 324              	.LFB172:
ARM GAS  /tmp/ccrtAI1Z.s 			page 19


 111:Drivers/lvgl/lvgl/src/core/lv_obj_scroll.c ****     if(obj->spec_attr) return obj->spec_attr->scroll_snap_y;
 325              		.loc 1 111 0
 326              		.cfi_startproc
 327              		@ args = 0, pretend = 0, frame = 0
 328              		@ frame_needed = 0, uses_anonymous_args = 0
 329              		@ link register save eliminated.
 330              	.LVL25:
 112:Drivers/lvgl/lvgl/src/core/lv_obj_scroll.c ****     else return LV_SCROLL_SNAP_NONE;
 331              		.loc 1 112 0
 332 0000 8368     		ldr	r3, [r0, #8]
 333 0002 1BB1     		cbz	r3, .L24
 112:Drivers/lvgl/lvgl/src/core/lv_obj_scroll.c ****     else return LV_SCROLL_SNAP_NONE;
 334              		.loc 1 112 0 is_stmt 0 discriminator 1
 335 0004 187E     		ldrb	r0, [r3, #24]	@ zero_extendqisi2
 336              	.LVL26:
 337 0006 C0F30110 		ubfx	r0, r0, #4, #2
 338 000a 7047     		bx	lr
 339              	.LVL27:
 340              	.L24:
 113:Drivers/lvgl/lvgl/src/core/lv_obj_scroll.c **** }
 341              		.loc 1 113 0 is_stmt 1
 342 000c 0020     		movs	r0, #0
 343              	.LVL28:
 114:Drivers/lvgl/lvgl/src/core/lv_obj_scroll.c **** 
 344              		.loc 1 114 0
 345 000e 7047     		bx	lr
 346              		.cfi_endproc
 347              	.LFE172:
 349              		.section	.text.lv_obj_get_scroll_x,"ax",%progbits
 350              		.align	1
 351              		.global	lv_obj_get_scroll_x
 352              		.syntax unified
 353              		.thumb
 354              		.thumb_func
 355              		.fpu fpv5-d16
 357              	lv_obj_get_scroll_x:
 358              	.LFB173:
 117:Drivers/lvgl/lvgl/src/core/lv_obj_scroll.c ****     if(obj->spec_attr == NULL) return 0;
 359              		.loc 1 117 0
 360              		.cfi_startproc
 361              		@ args = 0, pretend = 0, frame = 0
 362              		@ frame_needed = 0, uses_anonymous_args = 0
 363              		@ link register save eliminated.
 364              	.LVL29:
 118:Drivers/lvgl/lvgl/src/core/lv_obj_scroll.c ****     return -obj->spec_attr->scroll.x;
 365              		.loc 1 118 0
 366 0000 8368     		ldr	r3, [r0, #8]
 367 0002 1BB1     		cbz	r3, .L27
 119:Drivers/lvgl/lvgl/src/core/lv_obj_scroll.c **** }
 368              		.loc 1 119 0
 369 0004 188A     		ldrh	r0, [r3, #16]
 370              	.LVL30:
 371 0006 4042     		negs	r0, r0
 372 0008 00B2     		sxth	r0, r0
 373 000a 7047     		bx	lr
 374              	.LVL31:
 375              	.L27:
ARM GAS  /tmp/ccrtAI1Z.s 			page 20


 118:Drivers/lvgl/lvgl/src/core/lv_obj_scroll.c ****     return -obj->spec_attr->scroll.x;
 376              		.loc 1 118 0
 377 000c 0020     		movs	r0, #0
 378              	.LVL32:
 120:Drivers/lvgl/lvgl/src/core/lv_obj_scroll.c **** 
 379              		.loc 1 120 0
 380 000e 7047     		bx	lr
 381              		.cfi_endproc
 382              	.LFE173:
 384              		.section	.text.lv_obj_get_scroll_y,"ax",%progbits
 385              		.align	1
 386              		.global	lv_obj_get_scroll_y
 387              		.syntax unified
 388              		.thumb
 389              		.thumb_func
 390              		.fpu fpv5-d16
 392              	lv_obj_get_scroll_y:
 393              	.LFB174:
 123:Drivers/lvgl/lvgl/src/core/lv_obj_scroll.c ****     if(obj->spec_attr == NULL) return 0;
 394              		.loc 1 123 0
 395              		.cfi_startproc
 396              		@ args = 0, pretend = 0, frame = 0
 397              		@ frame_needed = 0, uses_anonymous_args = 0
 398              		@ link register save eliminated.
 399              	.LVL33:
 124:Drivers/lvgl/lvgl/src/core/lv_obj_scroll.c ****     return -obj->spec_attr->scroll.y;
 400              		.loc 1 124 0
 401 0000 8368     		ldr	r3, [r0, #8]
 402 0002 1BB1     		cbz	r3, .L30
 125:Drivers/lvgl/lvgl/src/core/lv_obj_scroll.c **** }
 403              		.loc 1 125 0
 404 0004 588A     		ldrh	r0, [r3, #18]
 405              	.LVL34:
 406 0006 4042     		negs	r0, r0
 407 0008 00B2     		sxth	r0, r0
 408 000a 7047     		bx	lr
 409              	.LVL35:
 410              	.L30:
 124:Drivers/lvgl/lvgl/src/core/lv_obj_scroll.c ****     return -obj->spec_attr->scroll.y;
 411              		.loc 1 124 0
 412 000c 0020     		movs	r0, #0
 413              	.LVL36:
 126:Drivers/lvgl/lvgl/src/core/lv_obj_scroll.c **** 
 414              		.loc 1 126 0
 415 000e 7047     		bx	lr
 416              		.cfi_endproc
 417              	.LFE174:
 419              		.section	.text.lv_obj_get_scroll_top,"ax",%progbits
 420              		.align	1
 421              		.global	lv_obj_get_scroll_top
 422              		.syntax unified
 423              		.thumb
 424              		.thumb_func
 425              		.fpu fpv5-d16
 427              	lv_obj_get_scroll_top:
 428              	.LFB175:
 129:Drivers/lvgl/lvgl/src/core/lv_obj_scroll.c ****     if(obj->spec_attr == NULL) return 0;
ARM GAS  /tmp/ccrtAI1Z.s 			page 21


 429              		.loc 1 129 0
 430              		.cfi_startproc
 431              		@ args = 0, pretend = 0, frame = 0
 432              		@ frame_needed = 0, uses_anonymous_args = 0
 433              		@ link register save eliminated.
 434              	.LVL37:
 130:Drivers/lvgl/lvgl/src/core/lv_obj_scroll.c ****     return -obj->spec_attr->scroll.y;
 435              		.loc 1 130 0
 436 0000 8368     		ldr	r3, [r0, #8]
 437 0002 1BB1     		cbz	r3, .L33
 131:Drivers/lvgl/lvgl/src/core/lv_obj_scroll.c **** }
 438              		.loc 1 131 0
 439 0004 588A     		ldrh	r0, [r3, #18]
 440              	.LVL38:
 441 0006 4042     		negs	r0, r0
 442 0008 00B2     		sxth	r0, r0
 443 000a 7047     		bx	lr
 444              	.LVL39:
 445              	.L33:
 130:Drivers/lvgl/lvgl/src/core/lv_obj_scroll.c ****     return -obj->spec_attr->scroll.y;
 446              		.loc 1 130 0
 447 000c 0020     		movs	r0, #0
 448              	.LVL40:
 132:Drivers/lvgl/lvgl/src/core/lv_obj_scroll.c **** 
 449              		.loc 1 132 0
 450 000e 7047     		bx	lr
 451              		.cfi_endproc
 452              	.LFE175:
 454              		.section	.text.lv_obj_get_scroll_bottom,"ax",%progbits
 455              		.align	1
 456              		.global	lv_obj_get_scroll_bottom
 457              		.syntax unified
 458              		.thumb
 459              		.thumb_func
 460              		.fpu fpv5-d16
 462              	lv_obj_get_scroll_bottom:
 463              	.LFB176:
 135:Drivers/lvgl/lvgl/src/core/lv_obj_scroll.c ****     LV_ASSERT_OBJ(obj, MY_CLASS);
 464              		.loc 1 135 0
 465              		.cfi_startproc
 466              		@ args = 0, pretend = 0, frame = 0
 467              		@ frame_needed = 0, uses_anonymous_args = 0
 468              	.LVL41:
 469 0000 2DE9F843 		push	{r3, r4, r5, r6, r7, r8, r9, lr}
 470              	.LCFI5:
 471              		.cfi_def_cfa_offset 32
 472              		.cfi_offset 3, -32
 473              		.cfi_offset 4, -28
 474              		.cfi_offset 5, -24
 475              		.cfi_offset 6, -20
 476              		.cfi_offset 7, -16
 477              		.cfi_offset 8, -12
 478              		.cfi_offset 9, -8
 479              		.cfi_offset 14, -4
 480 0004 0746     		mov	r7, r0
 481              	.LVL42:
 140:Drivers/lvgl/lvgl/src/core/lv_obj_scroll.c ****     for(i = 0; i < child_cnt; i++) {
ARM GAS  /tmp/ccrtAI1Z.s 			page 22


 482              		.loc 1 140 0
 483 0006 FFF7FEFF 		bl	lv_obj_get_child_cnt
 484              	.LVL43:
 485 000a 8046     		mov	r8, r0
 486              	.LVL44:
 141:Drivers/lvgl/lvgl/src/core/lv_obj_scroll.c ****         lv_obj_t * child = obj->spec_attr->children[i];
 487              		.loc 1 141 0
 488 000c 0024     		movs	r4, #0
 138:Drivers/lvgl/lvgl/src/core/lv_obj_scroll.c ****     uint32_t i;
 489              		.loc 1 138 0
 490 000e 284E     		ldr	r6, .L41
 141:Drivers/lvgl/lvgl/src/core/lv_obj_scroll.c ****         lv_obj_t * child = obj->spec_attr->children[i];
 491              		.loc 1 141 0
 492 0010 00E0     		b	.L35
 493              	.LVL45:
 494              	.L36:
 141:Drivers/lvgl/lvgl/src/core/lv_obj_scroll.c ****         lv_obj_t * child = obj->spec_attr->children[i];
 495              		.loc 1 141 0 is_stmt 0 discriminator 2
 496 0012 0134     		adds	r4, r4, #1
 497              	.LVL46:
 498              	.L35:
 141:Drivers/lvgl/lvgl/src/core/lv_obj_scroll.c ****         lv_obj_t * child = obj->spec_attr->children[i];
 499              		.loc 1 141 0 discriminator 1
 500 0014 4445     		cmp	r4, r8
 501 0016 0FD2     		bcs	.L40
 502              	.LBB99:
 142:Drivers/lvgl/lvgl/src/core/lv_obj_scroll.c ****         if(lv_obj_has_flag_any(child,  LV_OBJ_FLAG_HIDDEN | LV_OBJ_FLAG_FLOATING)) continue;
 503              		.loc 1 142 0 is_stmt 1
 504 0018 BB68     		ldr	r3, [r7, #8]
 505 001a 1B68     		ldr	r3, [r3]
 506 001c 53F82450 		ldr	r5, [r3, r4, lsl #2]
 507              	.LVL47:
 143:Drivers/lvgl/lvgl/src/core/lv_obj_scroll.c ****         child_res = LV_MAX(child_res, child->coords.y2);
 508              		.loc 1 143 0
 509 0020 2449     		ldr	r1, .L41+4
 510 0022 2846     		mov	r0, r5
 511 0024 FFF7FEFF 		bl	lv_obj_has_flag_any
 512              	.LVL48:
 513 0028 0028     		cmp	r0, #0
 514 002a F2D1     		bne	.L36
 144:Drivers/lvgl/lvgl/src/core/lv_obj_scroll.c ****     }
 515              		.loc 1 144 0
 516 002c B5F91A30 		ldrsh	r3, [r5, #26]
 517 0030 9E42     		cmp	r6, r3
 518 0032 B8BF     		it	lt
 519 0034 1E46     		movlt	r6, r3
 520              	.LVL49:
 521 0036 ECE7     		b	.L36
 522              	.LVL50:
 523              	.L40:
 524              	.LBE99:
 525              	.LBB100:
 526              	.LBB101:
 527              		.file 2 "Drivers/lvgl/lvgl/src/core/lv_obj_style_gen.h"
   1:Drivers/lvgl/lvgl/src/core/lv_obj_style_gen.h **** static inline lv_coord_t lv_obj_get_style_width(const struct _lv_obj_t * obj, uint32_t part)
   2:Drivers/lvgl/lvgl/src/core/lv_obj_style_gen.h **** {
   3:Drivers/lvgl/lvgl/src/core/lv_obj_style_gen.h ****     lv_style_value_t v = lv_obj_get_style_prop(obj, part, LV_STYLE_WIDTH);
ARM GAS  /tmp/ccrtAI1Z.s 			page 23


   4:Drivers/lvgl/lvgl/src/core/lv_obj_style_gen.h ****     return (lv_coord_t)v.num;
   5:Drivers/lvgl/lvgl/src/core/lv_obj_style_gen.h **** }
   6:Drivers/lvgl/lvgl/src/core/lv_obj_style_gen.h **** 
   7:Drivers/lvgl/lvgl/src/core/lv_obj_style_gen.h **** static inline lv_coord_t lv_obj_get_style_min_width(const struct _lv_obj_t * obj, uint32_t part)
   8:Drivers/lvgl/lvgl/src/core/lv_obj_style_gen.h **** {
   9:Drivers/lvgl/lvgl/src/core/lv_obj_style_gen.h ****     lv_style_value_t v = lv_obj_get_style_prop(obj, part, LV_STYLE_MIN_WIDTH);
  10:Drivers/lvgl/lvgl/src/core/lv_obj_style_gen.h ****     return (lv_coord_t)v.num;
  11:Drivers/lvgl/lvgl/src/core/lv_obj_style_gen.h **** }
  12:Drivers/lvgl/lvgl/src/core/lv_obj_style_gen.h **** 
  13:Drivers/lvgl/lvgl/src/core/lv_obj_style_gen.h **** static inline lv_coord_t lv_obj_get_style_max_width(const struct _lv_obj_t * obj, uint32_t part)
  14:Drivers/lvgl/lvgl/src/core/lv_obj_style_gen.h **** {
  15:Drivers/lvgl/lvgl/src/core/lv_obj_style_gen.h ****     lv_style_value_t v = lv_obj_get_style_prop(obj, part, LV_STYLE_MAX_WIDTH);
  16:Drivers/lvgl/lvgl/src/core/lv_obj_style_gen.h ****     return (lv_coord_t)v.num;
  17:Drivers/lvgl/lvgl/src/core/lv_obj_style_gen.h **** }
  18:Drivers/lvgl/lvgl/src/core/lv_obj_style_gen.h **** 
  19:Drivers/lvgl/lvgl/src/core/lv_obj_style_gen.h **** static inline lv_coord_t lv_obj_get_style_height(const struct _lv_obj_t * obj, uint32_t part)
  20:Drivers/lvgl/lvgl/src/core/lv_obj_style_gen.h **** {
  21:Drivers/lvgl/lvgl/src/core/lv_obj_style_gen.h ****     lv_style_value_t v = lv_obj_get_style_prop(obj, part, LV_STYLE_HEIGHT);
  22:Drivers/lvgl/lvgl/src/core/lv_obj_style_gen.h ****     return (lv_coord_t)v.num;
  23:Drivers/lvgl/lvgl/src/core/lv_obj_style_gen.h **** }
  24:Drivers/lvgl/lvgl/src/core/lv_obj_style_gen.h **** 
  25:Drivers/lvgl/lvgl/src/core/lv_obj_style_gen.h **** static inline lv_coord_t lv_obj_get_style_min_height(const struct _lv_obj_t * obj, uint32_t part)
  26:Drivers/lvgl/lvgl/src/core/lv_obj_style_gen.h **** {
  27:Drivers/lvgl/lvgl/src/core/lv_obj_style_gen.h ****     lv_style_value_t v = lv_obj_get_style_prop(obj, part, LV_STYLE_MIN_HEIGHT);
  28:Drivers/lvgl/lvgl/src/core/lv_obj_style_gen.h ****     return (lv_coord_t)v.num;
  29:Drivers/lvgl/lvgl/src/core/lv_obj_style_gen.h **** }
  30:Drivers/lvgl/lvgl/src/core/lv_obj_style_gen.h **** 
  31:Drivers/lvgl/lvgl/src/core/lv_obj_style_gen.h **** static inline lv_coord_t lv_obj_get_style_max_height(const struct _lv_obj_t * obj, uint32_t part)
  32:Drivers/lvgl/lvgl/src/core/lv_obj_style_gen.h **** {
  33:Drivers/lvgl/lvgl/src/core/lv_obj_style_gen.h ****     lv_style_value_t v = lv_obj_get_style_prop(obj, part, LV_STYLE_MAX_HEIGHT);
  34:Drivers/lvgl/lvgl/src/core/lv_obj_style_gen.h ****     return (lv_coord_t)v.num;
  35:Drivers/lvgl/lvgl/src/core/lv_obj_style_gen.h **** }
  36:Drivers/lvgl/lvgl/src/core/lv_obj_style_gen.h **** 
  37:Drivers/lvgl/lvgl/src/core/lv_obj_style_gen.h **** static inline lv_coord_t lv_obj_get_style_x(const struct _lv_obj_t * obj, uint32_t part)
  38:Drivers/lvgl/lvgl/src/core/lv_obj_style_gen.h **** {
  39:Drivers/lvgl/lvgl/src/core/lv_obj_style_gen.h ****     lv_style_value_t v = lv_obj_get_style_prop(obj, part, LV_STYLE_X);
  40:Drivers/lvgl/lvgl/src/core/lv_obj_style_gen.h ****     return (lv_coord_t)v.num;
  41:Drivers/lvgl/lvgl/src/core/lv_obj_style_gen.h **** }
  42:Drivers/lvgl/lvgl/src/core/lv_obj_style_gen.h **** 
  43:Drivers/lvgl/lvgl/src/core/lv_obj_style_gen.h **** static inline lv_coord_t lv_obj_get_style_y(const struct _lv_obj_t * obj, uint32_t part)
  44:Drivers/lvgl/lvgl/src/core/lv_obj_style_gen.h **** {
  45:Drivers/lvgl/lvgl/src/core/lv_obj_style_gen.h ****     lv_style_value_t v = lv_obj_get_style_prop(obj, part, LV_STYLE_Y);
  46:Drivers/lvgl/lvgl/src/core/lv_obj_style_gen.h ****     return (lv_coord_t)v.num;
  47:Drivers/lvgl/lvgl/src/core/lv_obj_style_gen.h **** }
  48:Drivers/lvgl/lvgl/src/core/lv_obj_style_gen.h **** 
  49:Drivers/lvgl/lvgl/src/core/lv_obj_style_gen.h **** static inline lv_align_t lv_obj_get_style_align(const struct _lv_obj_t * obj, uint32_t part)
  50:Drivers/lvgl/lvgl/src/core/lv_obj_style_gen.h **** {
  51:Drivers/lvgl/lvgl/src/core/lv_obj_style_gen.h ****     lv_style_value_t v = lv_obj_get_style_prop(obj, part, LV_STYLE_ALIGN);
  52:Drivers/lvgl/lvgl/src/core/lv_obj_style_gen.h ****     return (lv_align_t)v.num;
  53:Drivers/lvgl/lvgl/src/core/lv_obj_style_gen.h **** }
  54:Drivers/lvgl/lvgl/src/core/lv_obj_style_gen.h **** 
  55:Drivers/lvgl/lvgl/src/core/lv_obj_style_gen.h **** static inline lv_coord_t lv_obj_get_style_transform_width(const struct _lv_obj_t * obj, uint32_t pa
  56:Drivers/lvgl/lvgl/src/core/lv_obj_style_gen.h **** {
  57:Drivers/lvgl/lvgl/src/core/lv_obj_style_gen.h ****     lv_style_value_t v = lv_obj_get_style_prop(obj, part, LV_STYLE_TRANSFORM_WIDTH);
  58:Drivers/lvgl/lvgl/src/core/lv_obj_style_gen.h ****     return (lv_coord_t)v.num;
  59:Drivers/lvgl/lvgl/src/core/lv_obj_style_gen.h **** }
  60:Drivers/lvgl/lvgl/src/core/lv_obj_style_gen.h **** 
ARM GAS  /tmp/ccrtAI1Z.s 			page 24


  61:Drivers/lvgl/lvgl/src/core/lv_obj_style_gen.h **** static inline lv_coord_t lv_obj_get_style_transform_height(const struct _lv_obj_t * obj, uint32_t p
  62:Drivers/lvgl/lvgl/src/core/lv_obj_style_gen.h **** {
  63:Drivers/lvgl/lvgl/src/core/lv_obj_style_gen.h ****     lv_style_value_t v = lv_obj_get_style_prop(obj, part, LV_STYLE_TRANSFORM_HEIGHT);
  64:Drivers/lvgl/lvgl/src/core/lv_obj_style_gen.h ****     return (lv_coord_t)v.num;
  65:Drivers/lvgl/lvgl/src/core/lv_obj_style_gen.h **** }
  66:Drivers/lvgl/lvgl/src/core/lv_obj_style_gen.h **** 
  67:Drivers/lvgl/lvgl/src/core/lv_obj_style_gen.h **** static inline lv_coord_t lv_obj_get_style_translate_x(const struct _lv_obj_t * obj, uint32_t part)
  68:Drivers/lvgl/lvgl/src/core/lv_obj_style_gen.h **** {
  69:Drivers/lvgl/lvgl/src/core/lv_obj_style_gen.h ****     lv_style_value_t v = lv_obj_get_style_prop(obj, part, LV_STYLE_TRANSLATE_X);
  70:Drivers/lvgl/lvgl/src/core/lv_obj_style_gen.h ****     return (lv_coord_t)v.num;
  71:Drivers/lvgl/lvgl/src/core/lv_obj_style_gen.h **** }
  72:Drivers/lvgl/lvgl/src/core/lv_obj_style_gen.h **** 
  73:Drivers/lvgl/lvgl/src/core/lv_obj_style_gen.h **** static inline lv_coord_t lv_obj_get_style_translate_y(const struct _lv_obj_t * obj, uint32_t part)
  74:Drivers/lvgl/lvgl/src/core/lv_obj_style_gen.h **** {
  75:Drivers/lvgl/lvgl/src/core/lv_obj_style_gen.h ****     lv_style_value_t v = lv_obj_get_style_prop(obj, part, LV_STYLE_TRANSLATE_Y);
  76:Drivers/lvgl/lvgl/src/core/lv_obj_style_gen.h ****     return (lv_coord_t)v.num;
  77:Drivers/lvgl/lvgl/src/core/lv_obj_style_gen.h **** }
  78:Drivers/lvgl/lvgl/src/core/lv_obj_style_gen.h **** 
  79:Drivers/lvgl/lvgl/src/core/lv_obj_style_gen.h **** static inline lv_coord_t lv_obj_get_style_transform_zoom(const struct _lv_obj_t * obj, uint32_t par
  80:Drivers/lvgl/lvgl/src/core/lv_obj_style_gen.h **** {
  81:Drivers/lvgl/lvgl/src/core/lv_obj_style_gen.h ****     lv_style_value_t v = lv_obj_get_style_prop(obj, part, LV_STYLE_TRANSFORM_ZOOM);
  82:Drivers/lvgl/lvgl/src/core/lv_obj_style_gen.h ****     return (lv_coord_t)v.num;
  83:Drivers/lvgl/lvgl/src/core/lv_obj_style_gen.h **** }
  84:Drivers/lvgl/lvgl/src/core/lv_obj_style_gen.h **** 
  85:Drivers/lvgl/lvgl/src/core/lv_obj_style_gen.h **** static inline lv_coord_t lv_obj_get_style_transform_angle(const struct _lv_obj_t * obj, uint32_t pa
  86:Drivers/lvgl/lvgl/src/core/lv_obj_style_gen.h **** {
  87:Drivers/lvgl/lvgl/src/core/lv_obj_style_gen.h ****     lv_style_value_t v = lv_obj_get_style_prop(obj, part, LV_STYLE_TRANSFORM_ANGLE);
  88:Drivers/lvgl/lvgl/src/core/lv_obj_style_gen.h ****     return (lv_coord_t)v.num;
  89:Drivers/lvgl/lvgl/src/core/lv_obj_style_gen.h **** }
  90:Drivers/lvgl/lvgl/src/core/lv_obj_style_gen.h **** 
  91:Drivers/lvgl/lvgl/src/core/lv_obj_style_gen.h **** static inline lv_coord_t lv_obj_get_style_transform_pivot_x(const struct _lv_obj_t * obj, uint32_t 
  92:Drivers/lvgl/lvgl/src/core/lv_obj_style_gen.h **** {
  93:Drivers/lvgl/lvgl/src/core/lv_obj_style_gen.h ****     lv_style_value_t v = lv_obj_get_style_prop(obj, part, LV_STYLE_TRANSFORM_PIVOT_X);
  94:Drivers/lvgl/lvgl/src/core/lv_obj_style_gen.h ****     return (lv_coord_t)v.num;
  95:Drivers/lvgl/lvgl/src/core/lv_obj_style_gen.h **** }
  96:Drivers/lvgl/lvgl/src/core/lv_obj_style_gen.h **** 
  97:Drivers/lvgl/lvgl/src/core/lv_obj_style_gen.h **** static inline lv_coord_t lv_obj_get_style_transform_pivot_y(const struct _lv_obj_t * obj, uint32_t 
  98:Drivers/lvgl/lvgl/src/core/lv_obj_style_gen.h **** {
  99:Drivers/lvgl/lvgl/src/core/lv_obj_style_gen.h ****     lv_style_value_t v = lv_obj_get_style_prop(obj, part, LV_STYLE_TRANSFORM_PIVOT_Y);
 100:Drivers/lvgl/lvgl/src/core/lv_obj_style_gen.h ****     return (lv_coord_t)v.num;
 101:Drivers/lvgl/lvgl/src/core/lv_obj_style_gen.h **** }
 102:Drivers/lvgl/lvgl/src/core/lv_obj_style_gen.h **** 
 103:Drivers/lvgl/lvgl/src/core/lv_obj_style_gen.h **** static inline lv_coord_t lv_obj_get_style_pad_top(const struct _lv_obj_t * obj, uint32_t part)
 104:Drivers/lvgl/lvgl/src/core/lv_obj_style_gen.h **** {
 105:Drivers/lvgl/lvgl/src/core/lv_obj_style_gen.h ****     lv_style_value_t v = lv_obj_get_style_prop(obj, part, LV_STYLE_PAD_TOP);
 528              		.loc 2 105 0
 529 0038 1022     		movs	r2, #16
 530 003a 0021     		movs	r1, #0
 531 003c 3846     		mov	r0, r7
 532 003e FFF7FEFF 		bl	lv_obj_get_style_prop
 533              	.LVL51:
 534 0042 0546     		mov	r5, r0
 535              	.LVL52:
 536              	.LBE101:
 537              	.LBE100:
 538              	.LBB102:
 539              	.LBB103:
ARM GAS  /tmp/ccrtAI1Z.s 			page 25


 106:Drivers/lvgl/lvgl/src/core/lv_obj_style_gen.h ****     return (lv_coord_t)v.num;
 107:Drivers/lvgl/lvgl/src/core/lv_obj_style_gen.h **** }
 108:Drivers/lvgl/lvgl/src/core/lv_obj_style_gen.h **** 
 109:Drivers/lvgl/lvgl/src/core/lv_obj_style_gen.h **** static inline lv_coord_t lv_obj_get_style_pad_bottom(const struct _lv_obj_t * obj, uint32_t part)
 110:Drivers/lvgl/lvgl/src/core/lv_obj_style_gen.h **** {
 111:Drivers/lvgl/lvgl/src/core/lv_obj_style_gen.h ****     lv_style_value_t v = lv_obj_get_style_prop(obj, part, LV_STYLE_PAD_BOTTOM);
 540              		.loc 2 111 0
 541 0044 1122     		movs	r2, #17
 542 0046 0021     		movs	r1, #0
 543 0048 3846     		mov	r0, r7
 544 004a FFF7FEFF 		bl	lv_obj_get_style_prop
 545              	.LVL53:
 546 004e 0446     		mov	r4, r0
 547              	.LVL54:
 548              	.LBE103:
 549              	.LBE102:
 550              	.LBB104:
 551              	.LBB105:
 112:Drivers/lvgl/lvgl/src/core/lv_obj_style_gen.h ****     return (lv_coord_t)v.num;
 113:Drivers/lvgl/lvgl/src/core/lv_obj_style_gen.h **** }
 114:Drivers/lvgl/lvgl/src/core/lv_obj_style_gen.h **** 
 115:Drivers/lvgl/lvgl/src/core/lv_obj_style_gen.h **** static inline lv_coord_t lv_obj_get_style_pad_left(const struct _lv_obj_t * obj, uint32_t part)
 116:Drivers/lvgl/lvgl/src/core/lv_obj_style_gen.h **** {
 117:Drivers/lvgl/lvgl/src/core/lv_obj_style_gen.h ****     lv_style_value_t v = lv_obj_get_style_prop(obj, part, LV_STYLE_PAD_LEFT);
 118:Drivers/lvgl/lvgl/src/core/lv_obj_style_gen.h ****     return (lv_coord_t)v.num;
 119:Drivers/lvgl/lvgl/src/core/lv_obj_style_gen.h **** }
 120:Drivers/lvgl/lvgl/src/core/lv_obj_style_gen.h **** 
 121:Drivers/lvgl/lvgl/src/core/lv_obj_style_gen.h **** static inline lv_coord_t lv_obj_get_style_pad_right(const struct _lv_obj_t * obj, uint32_t part)
 122:Drivers/lvgl/lvgl/src/core/lv_obj_style_gen.h **** {
 123:Drivers/lvgl/lvgl/src/core/lv_obj_style_gen.h ****     lv_style_value_t v = lv_obj_get_style_prop(obj, part, LV_STYLE_PAD_RIGHT);
 124:Drivers/lvgl/lvgl/src/core/lv_obj_style_gen.h ****     return (lv_coord_t)v.num;
 125:Drivers/lvgl/lvgl/src/core/lv_obj_style_gen.h **** }
 126:Drivers/lvgl/lvgl/src/core/lv_obj_style_gen.h **** 
 127:Drivers/lvgl/lvgl/src/core/lv_obj_style_gen.h **** static inline lv_coord_t lv_obj_get_style_pad_row(const struct _lv_obj_t * obj, uint32_t part)
 128:Drivers/lvgl/lvgl/src/core/lv_obj_style_gen.h **** {
 129:Drivers/lvgl/lvgl/src/core/lv_obj_style_gen.h ****     lv_style_value_t v = lv_obj_get_style_prop(obj, part, LV_STYLE_PAD_ROW);
 130:Drivers/lvgl/lvgl/src/core/lv_obj_style_gen.h ****     return (lv_coord_t)v.num;
 131:Drivers/lvgl/lvgl/src/core/lv_obj_style_gen.h **** }
 132:Drivers/lvgl/lvgl/src/core/lv_obj_style_gen.h **** 
 133:Drivers/lvgl/lvgl/src/core/lv_obj_style_gen.h **** static inline lv_coord_t lv_obj_get_style_pad_column(const struct _lv_obj_t * obj, uint32_t part)
 134:Drivers/lvgl/lvgl/src/core/lv_obj_style_gen.h **** {
 135:Drivers/lvgl/lvgl/src/core/lv_obj_style_gen.h ****     lv_style_value_t v = lv_obj_get_style_prop(obj, part, LV_STYLE_PAD_COLUMN);
 136:Drivers/lvgl/lvgl/src/core/lv_obj_style_gen.h ****     return (lv_coord_t)v.num;
 137:Drivers/lvgl/lvgl/src/core/lv_obj_style_gen.h **** }
 138:Drivers/lvgl/lvgl/src/core/lv_obj_style_gen.h **** 
 139:Drivers/lvgl/lvgl/src/core/lv_obj_style_gen.h **** static inline lv_color_t lv_obj_get_style_bg_color(const struct _lv_obj_t * obj, uint32_t part)
 140:Drivers/lvgl/lvgl/src/core/lv_obj_style_gen.h **** {
 141:Drivers/lvgl/lvgl/src/core/lv_obj_style_gen.h ****     lv_style_value_t v = lv_obj_get_style_prop(obj, part, LV_STYLE_BG_COLOR);
 142:Drivers/lvgl/lvgl/src/core/lv_obj_style_gen.h ****     return v.color;
 143:Drivers/lvgl/lvgl/src/core/lv_obj_style_gen.h **** }
 144:Drivers/lvgl/lvgl/src/core/lv_obj_style_gen.h **** 
 145:Drivers/lvgl/lvgl/src/core/lv_obj_style_gen.h **** static inline lv_color_t lv_obj_get_style_bg_color_filtered(const struct _lv_obj_t * obj, uint32_t 
 146:Drivers/lvgl/lvgl/src/core/lv_obj_style_gen.h **** {
 147:Drivers/lvgl/lvgl/src/core/lv_obj_style_gen.h ****     lv_style_value_t v = _lv_obj_style_apply_color_filter(obj, part, lv_obj_get_style_prop(obj, par
 148:Drivers/lvgl/lvgl/src/core/lv_obj_style_gen.h ****     return v.color;
 149:Drivers/lvgl/lvgl/src/core/lv_obj_style_gen.h **** }
 150:Drivers/lvgl/lvgl/src/core/lv_obj_style_gen.h **** 
ARM GAS  /tmp/ccrtAI1Z.s 			page 26


 151:Drivers/lvgl/lvgl/src/core/lv_obj_style_gen.h **** static inline lv_opa_t lv_obj_get_style_bg_opa(const struct _lv_obj_t * obj, uint32_t part)
 152:Drivers/lvgl/lvgl/src/core/lv_obj_style_gen.h **** {
 153:Drivers/lvgl/lvgl/src/core/lv_obj_style_gen.h ****     lv_style_value_t v = lv_obj_get_style_prop(obj, part, LV_STYLE_BG_OPA);
 154:Drivers/lvgl/lvgl/src/core/lv_obj_style_gen.h ****     return (lv_opa_t)v.num;
 155:Drivers/lvgl/lvgl/src/core/lv_obj_style_gen.h **** }
 156:Drivers/lvgl/lvgl/src/core/lv_obj_style_gen.h **** 
 157:Drivers/lvgl/lvgl/src/core/lv_obj_style_gen.h **** static inline lv_color_t lv_obj_get_style_bg_grad_color(const struct _lv_obj_t * obj, uint32_t part
 158:Drivers/lvgl/lvgl/src/core/lv_obj_style_gen.h **** {
 159:Drivers/lvgl/lvgl/src/core/lv_obj_style_gen.h ****     lv_style_value_t v = lv_obj_get_style_prop(obj, part, LV_STYLE_BG_GRAD_COLOR);
 160:Drivers/lvgl/lvgl/src/core/lv_obj_style_gen.h ****     return v.color;
 161:Drivers/lvgl/lvgl/src/core/lv_obj_style_gen.h **** }
 162:Drivers/lvgl/lvgl/src/core/lv_obj_style_gen.h **** 
 163:Drivers/lvgl/lvgl/src/core/lv_obj_style_gen.h **** static inline lv_color_t lv_obj_get_style_bg_grad_color_filtered(const struct _lv_obj_t * obj, uint
 164:Drivers/lvgl/lvgl/src/core/lv_obj_style_gen.h **** {
 165:Drivers/lvgl/lvgl/src/core/lv_obj_style_gen.h ****     lv_style_value_t v = _lv_obj_style_apply_color_filter(obj, part, lv_obj_get_style_prop(obj, par
 166:Drivers/lvgl/lvgl/src/core/lv_obj_style_gen.h ****     return v.color;
 167:Drivers/lvgl/lvgl/src/core/lv_obj_style_gen.h **** }
 168:Drivers/lvgl/lvgl/src/core/lv_obj_style_gen.h **** 
 169:Drivers/lvgl/lvgl/src/core/lv_obj_style_gen.h **** static inline lv_grad_dir_t lv_obj_get_style_bg_grad_dir(const struct _lv_obj_t * obj, uint32_t par
 170:Drivers/lvgl/lvgl/src/core/lv_obj_style_gen.h **** {
 171:Drivers/lvgl/lvgl/src/core/lv_obj_style_gen.h ****     lv_style_value_t v = lv_obj_get_style_prop(obj, part, LV_STYLE_BG_GRAD_DIR);
 172:Drivers/lvgl/lvgl/src/core/lv_obj_style_gen.h ****     return (lv_grad_dir_t)v.num;
 173:Drivers/lvgl/lvgl/src/core/lv_obj_style_gen.h **** }
 174:Drivers/lvgl/lvgl/src/core/lv_obj_style_gen.h **** 
 175:Drivers/lvgl/lvgl/src/core/lv_obj_style_gen.h **** static inline lv_coord_t lv_obj_get_style_bg_main_stop(const struct _lv_obj_t * obj, uint32_t part)
 176:Drivers/lvgl/lvgl/src/core/lv_obj_style_gen.h **** {
 177:Drivers/lvgl/lvgl/src/core/lv_obj_style_gen.h ****     lv_style_value_t v = lv_obj_get_style_prop(obj, part, LV_STYLE_BG_MAIN_STOP);
 178:Drivers/lvgl/lvgl/src/core/lv_obj_style_gen.h ****     return (lv_coord_t)v.num;
 179:Drivers/lvgl/lvgl/src/core/lv_obj_style_gen.h **** }
 180:Drivers/lvgl/lvgl/src/core/lv_obj_style_gen.h **** 
 181:Drivers/lvgl/lvgl/src/core/lv_obj_style_gen.h **** static inline lv_coord_t lv_obj_get_style_bg_grad_stop(const struct _lv_obj_t * obj, uint32_t part)
 182:Drivers/lvgl/lvgl/src/core/lv_obj_style_gen.h **** {
 183:Drivers/lvgl/lvgl/src/core/lv_obj_style_gen.h ****     lv_style_value_t v = lv_obj_get_style_prop(obj, part, LV_STYLE_BG_GRAD_STOP);
 184:Drivers/lvgl/lvgl/src/core/lv_obj_style_gen.h ****     return (lv_coord_t)v.num;
 185:Drivers/lvgl/lvgl/src/core/lv_obj_style_gen.h **** }
 186:Drivers/lvgl/lvgl/src/core/lv_obj_style_gen.h **** 
 187:Drivers/lvgl/lvgl/src/core/lv_obj_style_gen.h **** static inline const lv_grad_dsc_t * lv_obj_get_style_bg_grad(const struct _lv_obj_t * obj, uint32_t
 188:Drivers/lvgl/lvgl/src/core/lv_obj_style_gen.h **** {
 189:Drivers/lvgl/lvgl/src/core/lv_obj_style_gen.h ****     lv_style_value_t v = lv_obj_get_style_prop(obj, part, LV_STYLE_BG_GRAD);
 190:Drivers/lvgl/lvgl/src/core/lv_obj_style_gen.h ****     return (const lv_grad_dsc_t *)v.ptr;
 191:Drivers/lvgl/lvgl/src/core/lv_obj_style_gen.h **** }
 192:Drivers/lvgl/lvgl/src/core/lv_obj_style_gen.h **** 
 193:Drivers/lvgl/lvgl/src/core/lv_obj_style_gen.h **** static inline lv_dither_mode_t lv_obj_get_style_bg_dither_mode(const struct _lv_obj_t * obj, uint32
 194:Drivers/lvgl/lvgl/src/core/lv_obj_style_gen.h **** {
 195:Drivers/lvgl/lvgl/src/core/lv_obj_style_gen.h ****     lv_style_value_t v = lv_obj_get_style_prop(obj, part, LV_STYLE_BG_DITHER_MODE);
 196:Drivers/lvgl/lvgl/src/core/lv_obj_style_gen.h ****     return (lv_dither_mode_t)v.num;
 197:Drivers/lvgl/lvgl/src/core/lv_obj_style_gen.h **** }
 198:Drivers/lvgl/lvgl/src/core/lv_obj_style_gen.h **** 
 199:Drivers/lvgl/lvgl/src/core/lv_obj_style_gen.h **** static inline const void * lv_obj_get_style_bg_img_src(const struct _lv_obj_t * obj, uint32_t part)
 200:Drivers/lvgl/lvgl/src/core/lv_obj_style_gen.h **** {
 201:Drivers/lvgl/lvgl/src/core/lv_obj_style_gen.h ****     lv_style_value_t v = lv_obj_get_style_prop(obj, part, LV_STYLE_BG_IMG_SRC);
 202:Drivers/lvgl/lvgl/src/core/lv_obj_style_gen.h ****     return (const void *)v.ptr;
 203:Drivers/lvgl/lvgl/src/core/lv_obj_style_gen.h **** }
 204:Drivers/lvgl/lvgl/src/core/lv_obj_style_gen.h **** 
 205:Drivers/lvgl/lvgl/src/core/lv_obj_style_gen.h **** static inline lv_opa_t lv_obj_get_style_bg_img_opa(const struct _lv_obj_t * obj, uint32_t part)
 206:Drivers/lvgl/lvgl/src/core/lv_obj_style_gen.h **** {
 207:Drivers/lvgl/lvgl/src/core/lv_obj_style_gen.h ****     lv_style_value_t v = lv_obj_get_style_prop(obj, part, LV_STYLE_BG_IMG_OPA);
ARM GAS  /tmp/ccrtAI1Z.s 			page 27


 208:Drivers/lvgl/lvgl/src/core/lv_obj_style_gen.h ****     return (lv_opa_t)v.num;
 209:Drivers/lvgl/lvgl/src/core/lv_obj_style_gen.h **** }
 210:Drivers/lvgl/lvgl/src/core/lv_obj_style_gen.h **** 
 211:Drivers/lvgl/lvgl/src/core/lv_obj_style_gen.h **** static inline lv_color_t lv_obj_get_style_bg_img_recolor(const struct _lv_obj_t * obj, uint32_t par
 212:Drivers/lvgl/lvgl/src/core/lv_obj_style_gen.h **** {
 213:Drivers/lvgl/lvgl/src/core/lv_obj_style_gen.h ****     lv_style_value_t v = lv_obj_get_style_prop(obj, part, LV_STYLE_BG_IMG_RECOLOR);
 214:Drivers/lvgl/lvgl/src/core/lv_obj_style_gen.h ****     return v.color;
 215:Drivers/lvgl/lvgl/src/core/lv_obj_style_gen.h **** }
 216:Drivers/lvgl/lvgl/src/core/lv_obj_style_gen.h **** 
 217:Drivers/lvgl/lvgl/src/core/lv_obj_style_gen.h **** static inline lv_color_t lv_obj_get_style_bg_img_recolor_filtered(const struct _lv_obj_t * obj, uin
 218:Drivers/lvgl/lvgl/src/core/lv_obj_style_gen.h **** {
 219:Drivers/lvgl/lvgl/src/core/lv_obj_style_gen.h ****     lv_style_value_t v = _lv_obj_style_apply_color_filter(obj, part, lv_obj_get_style_prop(obj, par
 220:Drivers/lvgl/lvgl/src/core/lv_obj_style_gen.h ****     return v.color;
 221:Drivers/lvgl/lvgl/src/core/lv_obj_style_gen.h **** }
 222:Drivers/lvgl/lvgl/src/core/lv_obj_style_gen.h **** 
 223:Drivers/lvgl/lvgl/src/core/lv_obj_style_gen.h **** static inline lv_opa_t lv_obj_get_style_bg_img_recolor_opa(const struct _lv_obj_t * obj, uint32_t p
 224:Drivers/lvgl/lvgl/src/core/lv_obj_style_gen.h **** {
 225:Drivers/lvgl/lvgl/src/core/lv_obj_style_gen.h ****     lv_style_value_t v = lv_obj_get_style_prop(obj, part, LV_STYLE_BG_IMG_RECOLOR_OPA);
 226:Drivers/lvgl/lvgl/src/core/lv_obj_style_gen.h ****     return (lv_opa_t)v.num;
 227:Drivers/lvgl/lvgl/src/core/lv_obj_style_gen.h **** }
 228:Drivers/lvgl/lvgl/src/core/lv_obj_style_gen.h **** 
 229:Drivers/lvgl/lvgl/src/core/lv_obj_style_gen.h **** static inline bool lv_obj_get_style_bg_img_tiled(const struct _lv_obj_t * obj, uint32_t part)
 230:Drivers/lvgl/lvgl/src/core/lv_obj_style_gen.h **** {
 231:Drivers/lvgl/lvgl/src/core/lv_obj_style_gen.h ****     lv_style_value_t v = lv_obj_get_style_prop(obj, part, LV_STYLE_BG_IMG_TILED);
 232:Drivers/lvgl/lvgl/src/core/lv_obj_style_gen.h ****     return (bool)v.num;
 233:Drivers/lvgl/lvgl/src/core/lv_obj_style_gen.h **** }
 234:Drivers/lvgl/lvgl/src/core/lv_obj_style_gen.h **** 
 235:Drivers/lvgl/lvgl/src/core/lv_obj_style_gen.h **** static inline lv_color_t lv_obj_get_style_border_color(const struct _lv_obj_t * obj, uint32_t part)
 236:Drivers/lvgl/lvgl/src/core/lv_obj_style_gen.h **** {
 237:Drivers/lvgl/lvgl/src/core/lv_obj_style_gen.h ****     lv_style_value_t v = lv_obj_get_style_prop(obj, part, LV_STYLE_BORDER_COLOR);
 238:Drivers/lvgl/lvgl/src/core/lv_obj_style_gen.h ****     return v.color;
 239:Drivers/lvgl/lvgl/src/core/lv_obj_style_gen.h **** }
 240:Drivers/lvgl/lvgl/src/core/lv_obj_style_gen.h **** 
 241:Drivers/lvgl/lvgl/src/core/lv_obj_style_gen.h **** static inline lv_color_t lv_obj_get_style_border_color_filtered(const struct _lv_obj_t * obj, uint3
 242:Drivers/lvgl/lvgl/src/core/lv_obj_style_gen.h **** {
 243:Drivers/lvgl/lvgl/src/core/lv_obj_style_gen.h ****     lv_style_value_t v = _lv_obj_style_apply_color_filter(obj, part, lv_obj_get_style_prop(obj, par
 244:Drivers/lvgl/lvgl/src/core/lv_obj_style_gen.h ****     return v.color;
 245:Drivers/lvgl/lvgl/src/core/lv_obj_style_gen.h **** }
 246:Drivers/lvgl/lvgl/src/core/lv_obj_style_gen.h **** 
 247:Drivers/lvgl/lvgl/src/core/lv_obj_style_gen.h **** static inline lv_opa_t lv_obj_get_style_border_opa(const struct _lv_obj_t * obj, uint32_t part)
 248:Drivers/lvgl/lvgl/src/core/lv_obj_style_gen.h **** {
 249:Drivers/lvgl/lvgl/src/core/lv_obj_style_gen.h ****     lv_style_value_t v = lv_obj_get_style_prop(obj, part, LV_STYLE_BORDER_OPA);
 250:Drivers/lvgl/lvgl/src/core/lv_obj_style_gen.h ****     return (lv_opa_t)v.num;
 251:Drivers/lvgl/lvgl/src/core/lv_obj_style_gen.h **** }
 252:Drivers/lvgl/lvgl/src/core/lv_obj_style_gen.h **** 
 253:Drivers/lvgl/lvgl/src/core/lv_obj_style_gen.h **** static inline lv_coord_t lv_obj_get_style_border_width(const struct _lv_obj_t * obj, uint32_t part)
 254:Drivers/lvgl/lvgl/src/core/lv_obj_style_gen.h **** {
 255:Drivers/lvgl/lvgl/src/core/lv_obj_style_gen.h ****     lv_style_value_t v = lv_obj_get_style_prop(obj, part, LV_STYLE_BORDER_WIDTH);
 552              		.loc 2 255 0
 553 0050 3222     		movs	r2, #50
 554 0052 0021     		movs	r1, #0
 555 0054 3846     		mov	r0, r7
 556 0056 FFF7FEFF 		bl	lv_obj_get_style_prop
 557              	.LVL55:
 558 005a 8046     		mov	r8, r0
 559              	.LVL56:
 560              	.LBE105:
ARM GAS  /tmp/ccrtAI1Z.s 			page 28


 561              	.LBE104:
 151:Drivers/lvgl/lvgl/src/core/lv_obj_scroll.c ****         child_res -= (obj->coords.y2 - pad_bottom - border_width);
 562              		.loc 1 151 0
 563 005c 144B     		ldr	r3, .L41
 564 005e 9E42     		cmp	r6, r3
 565 0060 06D0     		beq	.L38
 152:Drivers/lvgl/lvgl/src/core/lv_obj_scroll.c ****     }
 566              		.loc 1 152 0
 567 0062 7B8B     		ldrh	r3, [r7, #26]
 568 0064 E31A     		subs	r3, r4, r3
 569 0066 10FA83F3 		uxtah	r3, r0, r3
 570 006a 16FA83F6 		uxtah	r6, r6, r3
 571              	.LVL57:
 572 006e 36B2     		sxth	r6, r6
 573              	.LVL58:
 574              	.L38:
 155:Drivers/lvgl/lvgl/src/core/lv_obj_scroll.c ****     self_h = self_h - (lv_obj_get_height(obj) - pad_top - pad_bottom - 2 * border_width);
 575              		.loc 1 155 0
 576 0070 3846     		mov	r0, r7
 577 0072 FFF7FEFF 		bl	lv_obj_get_self_height
 578              	.LVL59:
 579 0076 8146     		mov	r9, r0
 580              	.LVL60:
 156:Drivers/lvgl/lvgl/src/core/lv_obj_scroll.c ****     self_h -= lv_obj_get_scroll_y(obj);
 581              		.loc 1 156 0
 582 0078 4FEA4808 		lsl	r8, r8, #1
 583 007c 1FFA88F8 		uxth	r8, r8
 584 0080 3846     		mov	r0, r7
 585 0082 FFF7FEFF 		bl	lv_obj_get_height
 586              	.LVL61:
 587 0086 80B2     		uxth	r0, r0
 588 0088 2D1A     		subs	r5, r5, r0
 589 008a 14FA85F4 		uxtah	r4, r4, r5
 590 008e 18FA84F4 		uxtah	r4, r8, r4
 591 0092 19FA84F4 		uxtah	r4, r9, r4
 592 0096 A4B2     		uxth	r4, r4
 593              	.LVL62:
 157:Drivers/lvgl/lvgl/src/core/lv_obj_scroll.c ****     return LV_MAX(child_res, self_h);
 594              		.loc 1 157 0
 595 0098 3846     		mov	r0, r7
 596 009a FFF7FEFF 		bl	lv_obj_get_scroll_y
 597              	.LVL63:
 598 009e 80B2     		uxth	r0, r0
 599 00a0 201A     		subs	r0, r4, r0
 600 00a2 00B2     		sxth	r0, r0
 601              	.LVL64:
 159:Drivers/lvgl/lvgl/src/core/lv_obj_scroll.c **** 
 602              		.loc 1 159 0
 603 00a4 B042     		cmp	r0, r6
 604 00a6 B8BF     		it	lt
 605 00a8 3046     		movlt	r0, r6
 606              	.LVL65:
 607 00aa BDE8F883 		pop	{r3, r4, r5, r6, r7, r8, r9, pc}
 608              	.LVL66:
 609              	.L42:
 610 00ae 00BF     		.align	2
 611              	.L41:
ARM GAS  /tmp/ccrtAI1Z.s 			page 29


 612 00b0 01E0FFFF 		.word	-8191
 613 00b4 01000400 		.word	262145
 614              		.cfi_endproc
 615              	.LFE176:
 617              		.section	.text.lv_obj_get_scroll_left,"ax",%progbits
 618              		.align	1
 619              		.global	lv_obj_get_scroll_left
 620              		.syntax unified
 621              		.thumb
 622              		.thumb_func
 623              		.fpu fpv5-d16
 625              	lv_obj_get_scroll_left:
 626              	.LFB177:
 162:Drivers/lvgl/lvgl/src/core/lv_obj_scroll.c ****     LV_ASSERT_OBJ(obj, MY_CLASS);
 627              		.loc 1 162 0
 628              		.cfi_startproc
 629              		@ args = 0, pretend = 0, frame = 0
 630              		@ frame_needed = 0, uses_anonymous_args = 0
 631              	.LVL67:
 632 0000 2DE9F84F 		push	{r3, r4, r5, r6, r7, r8, r9, r10, fp, lr}
 633              	.LCFI6:
 634              		.cfi_def_cfa_offset 40
 635              		.cfi_offset 3, -40
 636              		.cfi_offset 4, -36
 637              		.cfi_offset 5, -32
 638              		.cfi_offset 6, -28
 639              		.cfi_offset 7, -24
 640              		.cfi_offset 8, -20
 641              		.cfi_offset 9, -16
 642              		.cfi_offset 10, -12
 643              		.cfi_offset 11, -8
 644              		.cfi_offset 14, -4
 645 0004 0546     		mov	r5, r0
 646              	.LVL68:
 647              	.LBB106:
 648              	.LBB107:
 256:Drivers/lvgl/lvgl/src/core/lv_obj_style_gen.h ****     return (lv_coord_t)v.num;
 257:Drivers/lvgl/lvgl/src/core/lv_obj_style_gen.h **** }
 258:Drivers/lvgl/lvgl/src/core/lv_obj_style_gen.h **** 
 259:Drivers/lvgl/lvgl/src/core/lv_obj_style_gen.h **** static inline lv_border_side_t lv_obj_get_style_border_side(const struct _lv_obj_t * obj, uint32_t 
 260:Drivers/lvgl/lvgl/src/core/lv_obj_style_gen.h **** {
 261:Drivers/lvgl/lvgl/src/core/lv_obj_style_gen.h ****     lv_style_value_t v = lv_obj_get_style_prop(obj, part, LV_STYLE_BORDER_SIDE);
 262:Drivers/lvgl/lvgl/src/core/lv_obj_style_gen.h ****     return (lv_border_side_t)v.num;
 263:Drivers/lvgl/lvgl/src/core/lv_obj_style_gen.h **** }
 264:Drivers/lvgl/lvgl/src/core/lv_obj_style_gen.h **** 
 265:Drivers/lvgl/lvgl/src/core/lv_obj_style_gen.h **** static inline bool lv_obj_get_style_border_post(const struct _lv_obj_t * obj, uint32_t part)
 266:Drivers/lvgl/lvgl/src/core/lv_obj_style_gen.h **** {
 267:Drivers/lvgl/lvgl/src/core/lv_obj_style_gen.h ****     lv_style_value_t v = lv_obj_get_style_prop(obj, part, LV_STYLE_BORDER_POST);
 268:Drivers/lvgl/lvgl/src/core/lv_obj_style_gen.h ****     return (bool)v.num;
 269:Drivers/lvgl/lvgl/src/core/lv_obj_style_gen.h **** }
 270:Drivers/lvgl/lvgl/src/core/lv_obj_style_gen.h **** 
 271:Drivers/lvgl/lvgl/src/core/lv_obj_style_gen.h **** static inline lv_coord_t lv_obj_get_style_outline_width(const struct _lv_obj_t * obj, uint32_t part
 272:Drivers/lvgl/lvgl/src/core/lv_obj_style_gen.h **** {
 273:Drivers/lvgl/lvgl/src/core/lv_obj_style_gen.h ****     lv_style_value_t v = lv_obj_get_style_prop(obj, part, LV_STYLE_OUTLINE_WIDTH);
 274:Drivers/lvgl/lvgl/src/core/lv_obj_style_gen.h ****     return (lv_coord_t)v.num;
 275:Drivers/lvgl/lvgl/src/core/lv_obj_style_gen.h **** }
 276:Drivers/lvgl/lvgl/src/core/lv_obj_style_gen.h **** 
ARM GAS  /tmp/ccrtAI1Z.s 			page 30


 277:Drivers/lvgl/lvgl/src/core/lv_obj_style_gen.h **** static inline lv_color_t lv_obj_get_style_outline_color(const struct _lv_obj_t * obj, uint32_t part
 278:Drivers/lvgl/lvgl/src/core/lv_obj_style_gen.h **** {
 279:Drivers/lvgl/lvgl/src/core/lv_obj_style_gen.h ****     lv_style_value_t v = lv_obj_get_style_prop(obj, part, LV_STYLE_OUTLINE_COLOR);
 280:Drivers/lvgl/lvgl/src/core/lv_obj_style_gen.h ****     return v.color;
 281:Drivers/lvgl/lvgl/src/core/lv_obj_style_gen.h **** }
 282:Drivers/lvgl/lvgl/src/core/lv_obj_style_gen.h **** 
 283:Drivers/lvgl/lvgl/src/core/lv_obj_style_gen.h **** static inline lv_color_t lv_obj_get_style_outline_color_filtered(const struct _lv_obj_t * obj, uint
 284:Drivers/lvgl/lvgl/src/core/lv_obj_style_gen.h **** {
 285:Drivers/lvgl/lvgl/src/core/lv_obj_style_gen.h ****     lv_style_value_t v = _lv_obj_style_apply_color_filter(obj, part, lv_obj_get_style_prop(obj, par
 286:Drivers/lvgl/lvgl/src/core/lv_obj_style_gen.h ****     return v.color;
 287:Drivers/lvgl/lvgl/src/core/lv_obj_style_gen.h **** }
 288:Drivers/lvgl/lvgl/src/core/lv_obj_style_gen.h **** 
 289:Drivers/lvgl/lvgl/src/core/lv_obj_style_gen.h **** static inline lv_opa_t lv_obj_get_style_outline_opa(const struct _lv_obj_t * obj, uint32_t part)
 290:Drivers/lvgl/lvgl/src/core/lv_obj_style_gen.h **** {
 291:Drivers/lvgl/lvgl/src/core/lv_obj_style_gen.h ****     lv_style_value_t v = lv_obj_get_style_prop(obj, part, LV_STYLE_OUTLINE_OPA);
 292:Drivers/lvgl/lvgl/src/core/lv_obj_style_gen.h ****     return (lv_opa_t)v.num;
 293:Drivers/lvgl/lvgl/src/core/lv_obj_style_gen.h **** }
 294:Drivers/lvgl/lvgl/src/core/lv_obj_style_gen.h **** 
 295:Drivers/lvgl/lvgl/src/core/lv_obj_style_gen.h **** static inline lv_coord_t lv_obj_get_style_outline_pad(const struct _lv_obj_t * obj, uint32_t part)
 296:Drivers/lvgl/lvgl/src/core/lv_obj_style_gen.h **** {
 297:Drivers/lvgl/lvgl/src/core/lv_obj_style_gen.h ****     lv_style_value_t v = lv_obj_get_style_prop(obj, part, LV_STYLE_OUTLINE_PAD);
 298:Drivers/lvgl/lvgl/src/core/lv_obj_style_gen.h ****     return (lv_coord_t)v.num;
 299:Drivers/lvgl/lvgl/src/core/lv_obj_style_gen.h **** }
 300:Drivers/lvgl/lvgl/src/core/lv_obj_style_gen.h **** 
 301:Drivers/lvgl/lvgl/src/core/lv_obj_style_gen.h **** static inline lv_coord_t lv_obj_get_style_shadow_width(const struct _lv_obj_t * obj, uint32_t part)
 302:Drivers/lvgl/lvgl/src/core/lv_obj_style_gen.h **** {
 303:Drivers/lvgl/lvgl/src/core/lv_obj_style_gen.h ****     lv_style_value_t v = lv_obj_get_style_prop(obj, part, LV_STYLE_SHADOW_WIDTH);
 304:Drivers/lvgl/lvgl/src/core/lv_obj_style_gen.h ****     return (lv_coord_t)v.num;
 305:Drivers/lvgl/lvgl/src/core/lv_obj_style_gen.h **** }
 306:Drivers/lvgl/lvgl/src/core/lv_obj_style_gen.h **** 
 307:Drivers/lvgl/lvgl/src/core/lv_obj_style_gen.h **** static inline lv_coord_t lv_obj_get_style_shadow_ofs_x(const struct _lv_obj_t * obj, uint32_t part)
 308:Drivers/lvgl/lvgl/src/core/lv_obj_style_gen.h **** {
 309:Drivers/lvgl/lvgl/src/core/lv_obj_style_gen.h ****     lv_style_value_t v = lv_obj_get_style_prop(obj, part, LV_STYLE_SHADOW_OFS_X);
 310:Drivers/lvgl/lvgl/src/core/lv_obj_style_gen.h ****     return (lv_coord_t)v.num;
 311:Drivers/lvgl/lvgl/src/core/lv_obj_style_gen.h **** }
 312:Drivers/lvgl/lvgl/src/core/lv_obj_style_gen.h **** 
 313:Drivers/lvgl/lvgl/src/core/lv_obj_style_gen.h **** static inline lv_coord_t lv_obj_get_style_shadow_ofs_y(const struct _lv_obj_t * obj, uint32_t part)
 314:Drivers/lvgl/lvgl/src/core/lv_obj_style_gen.h **** {
 315:Drivers/lvgl/lvgl/src/core/lv_obj_style_gen.h ****     lv_style_value_t v = lv_obj_get_style_prop(obj, part, LV_STYLE_SHADOW_OFS_Y);
 316:Drivers/lvgl/lvgl/src/core/lv_obj_style_gen.h ****     return (lv_coord_t)v.num;
 317:Drivers/lvgl/lvgl/src/core/lv_obj_style_gen.h **** }
 318:Drivers/lvgl/lvgl/src/core/lv_obj_style_gen.h **** 
 319:Drivers/lvgl/lvgl/src/core/lv_obj_style_gen.h **** static inline lv_coord_t lv_obj_get_style_shadow_spread(const struct _lv_obj_t * obj, uint32_t part
 320:Drivers/lvgl/lvgl/src/core/lv_obj_style_gen.h **** {
 321:Drivers/lvgl/lvgl/src/core/lv_obj_style_gen.h ****     lv_style_value_t v = lv_obj_get_style_prop(obj, part, LV_STYLE_SHADOW_SPREAD);
 322:Drivers/lvgl/lvgl/src/core/lv_obj_style_gen.h ****     return (lv_coord_t)v.num;
 323:Drivers/lvgl/lvgl/src/core/lv_obj_style_gen.h **** }
 324:Drivers/lvgl/lvgl/src/core/lv_obj_style_gen.h **** 
 325:Drivers/lvgl/lvgl/src/core/lv_obj_style_gen.h **** static inline lv_color_t lv_obj_get_style_shadow_color(const struct _lv_obj_t * obj, uint32_t part)
 326:Drivers/lvgl/lvgl/src/core/lv_obj_style_gen.h **** {
 327:Drivers/lvgl/lvgl/src/core/lv_obj_style_gen.h ****     lv_style_value_t v = lv_obj_get_style_prop(obj, part, LV_STYLE_SHADOW_COLOR);
 328:Drivers/lvgl/lvgl/src/core/lv_obj_style_gen.h ****     return v.color;
 329:Drivers/lvgl/lvgl/src/core/lv_obj_style_gen.h **** }
 330:Drivers/lvgl/lvgl/src/core/lv_obj_style_gen.h **** 
 331:Drivers/lvgl/lvgl/src/core/lv_obj_style_gen.h **** static inline lv_color_t lv_obj_get_style_shadow_color_filtered(const struct _lv_obj_t * obj, uint3
 332:Drivers/lvgl/lvgl/src/core/lv_obj_style_gen.h **** {
 333:Drivers/lvgl/lvgl/src/core/lv_obj_style_gen.h ****     lv_style_value_t v = _lv_obj_style_apply_color_filter(obj, part, lv_obj_get_style_prop(obj, par
ARM GAS  /tmp/ccrtAI1Z.s 			page 31


 334:Drivers/lvgl/lvgl/src/core/lv_obj_style_gen.h ****     return v.color;
 335:Drivers/lvgl/lvgl/src/core/lv_obj_style_gen.h **** }
 336:Drivers/lvgl/lvgl/src/core/lv_obj_style_gen.h **** 
 337:Drivers/lvgl/lvgl/src/core/lv_obj_style_gen.h **** static inline lv_opa_t lv_obj_get_style_shadow_opa(const struct _lv_obj_t * obj, uint32_t part)
 338:Drivers/lvgl/lvgl/src/core/lv_obj_style_gen.h **** {
 339:Drivers/lvgl/lvgl/src/core/lv_obj_style_gen.h ****     lv_style_value_t v = lv_obj_get_style_prop(obj, part, LV_STYLE_SHADOW_OPA);
 340:Drivers/lvgl/lvgl/src/core/lv_obj_style_gen.h ****     return (lv_opa_t)v.num;
 341:Drivers/lvgl/lvgl/src/core/lv_obj_style_gen.h **** }
 342:Drivers/lvgl/lvgl/src/core/lv_obj_style_gen.h **** 
 343:Drivers/lvgl/lvgl/src/core/lv_obj_style_gen.h **** static inline lv_opa_t lv_obj_get_style_img_opa(const struct _lv_obj_t * obj, uint32_t part)
 344:Drivers/lvgl/lvgl/src/core/lv_obj_style_gen.h **** {
 345:Drivers/lvgl/lvgl/src/core/lv_obj_style_gen.h ****     lv_style_value_t v = lv_obj_get_style_prop(obj, part, LV_STYLE_IMG_OPA);
 346:Drivers/lvgl/lvgl/src/core/lv_obj_style_gen.h ****     return (lv_opa_t)v.num;
 347:Drivers/lvgl/lvgl/src/core/lv_obj_style_gen.h **** }
 348:Drivers/lvgl/lvgl/src/core/lv_obj_style_gen.h **** 
 349:Drivers/lvgl/lvgl/src/core/lv_obj_style_gen.h **** static inline lv_color_t lv_obj_get_style_img_recolor(const struct _lv_obj_t * obj, uint32_t part)
 350:Drivers/lvgl/lvgl/src/core/lv_obj_style_gen.h **** {
 351:Drivers/lvgl/lvgl/src/core/lv_obj_style_gen.h ****     lv_style_value_t v = lv_obj_get_style_prop(obj, part, LV_STYLE_IMG_RECOLOR);
 352:Drivers/lvgl/lvgl/src/core/lv_obj_style_gen.h ****     return v.color;
 353:Drivers/lvgl/lvgl/src/core/lv_obj_style_gen.h **** }
 354:Drivers/lvgl/lvgl/src/core/lv_obj_style_gen.h **** 
 355:Drivers/lvgl/lvgl/src/core/lv_obj_style_gen.h **** static inline lv_color_t lv_obj_get_style_img_recolor_filtered(const struct _lv_obj_t * obj, uint32
 356:Drivers/lvgl/lvgl/src/core/lv_obj_style_gen.h **** {
 357:Drivers/lvgl/lvgl/src/core/lv_obj_style_gen.h ****     lv_style_value_t v = _lv_obj_style_apply_color_filter(obj, part, lv_obj_get_style_prop(obj, par
 358:Drivers/lvgl/lvgl/src/core/lv_obj_style_gen.h ****     return v.color;
 359:Drivers/lvgl/lvgl/src/core/lv_obj_style_gen.h **** }
 360:Drivers/lvgl/lvgl/src/core/lv_obj_style_gen.h **** 
 361:Drivers/lvgl/lvgl/src/core/lv_obj_style_gen.h **** static inline lv_opa_t lv_obj_get_style_img_recolor_opa(const struct _lv_obj_t * obj, uint32_t part
 362:Drivers/lvgl/lvgl/src/core/lv_obj_style_gen.h **** {
 363:Drivers/lvgl/lvgl/src/core/lv_obj_style_gen.h ****     lv_style_value_t v = lv_obj_get_style_prop(obj, part, LV_STYLE_IMG_RECOLOR_OPA);
 364:Drivers/lvgl/lvgl/src/core/lv_obj_style_gen.h ****     return (lv_opa_t)v.num;
 365:Drivers/lvgl/lvgl/src/core/lv_obj_style_gen.h **** }
 366:Drivers/lvgl/lvgl/src/core/lv_obj_style_gen.h **** 
 367:Drivers/lvgl/lvgl/src/core/lv_obj_style_gen.h **** static inline lv_coord_t lv_obj_get_style_line_width(const struct _lv_obj_t * obj, uint32_t part)
 368:Drivers/lvgl/lvgl/src/core/lv_obj_style_gen.h **** {
 369:Drivers/lvgl/lvgl/src/core/lv_obj_style_gen.h ****     lv_style_value_t v = lv_obj_get_style_prop(obj, part, LV_STYLE_LINE_WIDTH);
 370:Drivers/lvgl/lvgl/src/core/lv_obj_style_gen.h ****     return (lv_coord_t)v.num;
 371:Drivers/lvgl/lvgl/src/core/lv_obj_style_gen.h **** }
 372:Drivers/lvgl/lvgl/src/core/lv_obj_style_gen.h **** 
 373:Drivers/lvgl/lvgl/src/core/lv_obj_style_gen.h **** static inline lv_coord_t lv_obj_get_style_line_dash_width(const struct _lv_obj_t * obj, uint32_t pa
 374:Drivers/lvgl/lvgl/src/core/lv_obj_style_gen.h **** {
 375:Drivers/lvgl/lvgl/src/core/lv_obj_style_gen.h ****     lv_style_value_t v = lv_obj_get_style_prop(obj, part, LV_STYLE_LINE_DASH_WIDTH);
 376:Drivers/lvgl/lvgl/src/core/lv_obj_style_gen.h ****     return (lv_coord_t)v.num;
 377:Drivers/lvgl/lvgl/src/core/lv_obj_style_gen.h **** }
 378:Drivers/lvgl/lvgl/src/core/lv_obj_style_gen.h **** 
 379:Drivers/lvgl/lvgl/src/core/lv_obj_style_gen.h **** static inline lv_coord_t lv_obj_get_style_line_dash_gap(const struct _lv_obj_t * obj, uint32_t part
 380:Drivers/lvgl/lvgl/src/core/lv_obj_style_gen.h **** {
 381:Drivers/lvgl/lvgl/src/core/lv_obj_style_gen.h ****     lv_style_value_t v = lv_obj_get_style_prop(obj, part, LV_STYLE_LINE_DASH_GAP);
 382:Drivers/lvgl/lvgl/src/core/lv_obj_style_gen.h ****     return (lv_coord_t)v.num;
 383:Drivers/lvgl/lvgl/src/core/lv_obj_style_gen.h **** }
 384:Drivers/lvgl/lvgl/src/core/lv_obj_style_gen.h **** 
 385:Drivers/lvgl/lvgl/src/core/lv_obj_style_gen.h **** static inline bool lv_obj_get_style_line_rounded(const struct _lv_obj_t * obj, uint32_t part)
 386:Drivers/lvgl/lvgl/src/core/lv_obj_style_gen.h **** {
 387:Drivers/lvgl/lvgl/src/core/lv_obj_style_gen.h ****     lv_style_value_t v = lv_obj_get_style_prop(obj, part, LV_STYLE_LINE_ROUNDED);
 388:Drivers/lvgl/lvgl/src/core/lv_obj_style_gen.h ****     return (bool)v.num;
 389:Drivers/lvgl/lvgl/src/core/lv_obj_style_gen.h **** }
 390:Drivers/lvgl/lvgl/src/core/lv_obj_style_gen.h **** 
ARM GAS  /tmp/ccrtAI1Z.s 			page 32


 391:Drivers/lvgl/lvgl/src/core/lv_obj_style_gen.h **** static inline lv_color_t lv_obj_get_style_line_color(const struct _lv_obj_t * obj, uint32_t part)
 392:Drivers/lvgl/lvgl/src/core/lv_obj_style_gen.h **** {
 393:Drivers/lvgl/lvgl/src/core/lv_obj_style_gen.h ****     lv_style_value_t v = lv_obj_get_style_prop(obj, part, LV_STYLE_LINE_COLOR);
 394:Drivers/lvgl/lvgl/src/core/lv_obj_style_gen.h ****     return v.color;
 395:Drivers/lvgl/lvgl/src/core/lv_obj_style_gen.h **** }
 396:Drivers/lvgl/lvgl/src/core/lv_obj_style_gen.h **** 
 397:Drivers/lvgl/lvgl/src/core/lv_obj_style_gen.h **** static inline lv_color_t lv_obj_get_style_line_color_filtered(const struct _lv_obj_t * obj, uint32_
 398:Drivers/lvgl/lvgl/src/core/lv_obj_style_gen.h **** {
 399:Drivers/lvgl/lvgl/src/core/lv_obj_style_gen.h ****     lv_style_value_t v = _lv_obj_style_apply_color_filter(obj, part, lv_obj_get_style_prop(obj, par
 400:Drivers/lvgl/lvgl/src/core/lv_obj_style_gen.h ****     return v.color;
 401:Drivers/lvgl/lvgl/src/core/lv_obj_style_gen.h **** }
 402:Drivers/lvgl/lvgl/src/core/lv_obj_style_gen.h **** 
 403:Drivers/lvgl/lvgl/src/core/lv_obj_style_gen.h **** static inline lv_opa_t lv_obj_get_style_line_opa(const struct _lv_obj_t * obj, uint32_t part)
 404:Drivers/lvgl/lvgl/src/core/lv_obj_style_gen.h **** {
 405:Drivers/lvgl/lvgl/src/core/lv_obj_style_gen.h ****     lv_style_value_t v = lv_obj_get_style_prop(obj, part, LV_STYLE_LINE_OPA);
 406:Drivers/lvgl/lvgl/src/core/lv_obj_style_gen.h ****     return (lv_opa_t)v.num;
 407:Drivers/lvgl/lvgl/src/core/lv_obj_style_gen.h **** }
 408:Drivers/lvgl/lvgl/src/core/lv_obj_style_gen.h **** 
 409:Drivers/lvgl/lvgl/src/core/lv_obj_style_gen.h **** static inline lv_coord_t lv_obj_get_style_arc_width(const struct _lv_obj_t * obj, uint32_t part)
 410:Drivers/lvgl/lvgl/src/core/lv_obj_style_gen.h **** {
 411:Drivers/lvgl/lvgl/src/core/lv_obj_style_gen.h ****     lv_style_value_t v = lv_obj_get_style_prop(obj, part, LV_STYLE_ARC_WIDTH);
 412:Drivers/lvgl/lvgl/src/core/lv_obj_style_gen.h ****     return (lv_coord_t)v.num;
 413:Drivers/lvgl/lvgl/src/core/lv_obj_style_gen.h **** }
 414:Drivers/lvgl/lvgl/src/core/lv_obj_style_gen.h **** 
 415:Drivers/lvgl/lvgl/src/core/lv_obj_style_gen.h **** static inline bool lv_obj_get_style_arc_rounded(const struct _lv_obj_t * obj, uint32_t part)
 416:Drivers/lvgl/lvgl/src/core/lv_obj_style_gen.h **** {
 417:Drivers/lvgl/lvgl/src/core/lv_obj_style_gen.h ****     lv_style_value_t v = lv_obj_get_style_prop(obj, part, LV_STYLE_ARC_ROUNDED);
 418:Drivers/lvgl/lvgl/src/core/lv_obj_style_gen.h ****     return (bool)v.num;
 419:Drivers/lvgl/lvgl/src/core/lv_obj_style_gen.h **** }
 420:Drivers/lvgl/lvgl/src/core/lv_obj_style_gen.h **** 
 421:Drivers/lvgl/lvgl/src/core/lv_obj_style_gen.h **** static inline lv_color_t lv_obj_get_style_arc_color(const struct _lv_obj_t * obj, uint32_t part)
 422:Drivers/lvgl/lvgl/src/core/lv_obj_style_gen.h **** {
 423:Drivers/lvgl/lvgl/src/core/lv_obj_style_gen.h ****     lv_style_value_t v = lv_obj_get_style_prop(obj, part, LV_STYLE_ARC_COLOR);
 424:Drivers/lvgl/lvgl/src/core/lv_obj_style_gen.h ****     return v.color;
 425:Drivers/lvgl/lvgl/src/core/lv_obj_style_gen.h **** }
 426:Drivers/lvgl/lvgl/src/core/lv_obj_style_gen.h **** 
 427:Drivers/lvgl/lvgl/src/core/lv_obj_style_gen.h **** static inline lv_color_t lv_obj_get_style_arc_color_filtered(const struct _lv_obj_t * obj, uint32_t
 428:Drivers/lvgl/lvgl/src/core/lv_obj_style_gen.h **** {
 429:Drivers/lvgl/lvgl/src/core/lv_obj_style_gen.h ****     lv_style_value_t v = _lv_obj_style_apply_color_filter(obj, part, lv_obj_get_style_prop(obj, par
 430:Drivers/lvgl/lvgl/src/core/lv_obj_style_gen.h ****     return v.color;
 431:Drivers/lvgl/lvgl/src/core/lv_obj_style_gen.h **** }
 432:Drivers/lvgl/lvgl/src/core/lv_obj_style_gen.h **** 
 433:Drivers/lvgl/lvgl/src/core/lv_obj_style_gen.h **** static inline lv_opa_t lv_obj_get_style_arc_opa(const struct _lv_obj_t * obj, uint32_t part)
 434:Drivers/lvgl/lvgl/src/core/lv_obj_style_gen.h **** {
 435:Drivers/lvgl/lvgl/src/core/lv_obj_style_gen.h ****     lv_style_value_t v = lv_obj_get_style_prop(obj, part, LV_STYLE_ARC_OPA);
 436:Drivers/lvgl/lvgl/src/core/lv_obj_style_gen.h ****     return (lv_opa_t)v.num;
 437:Drivers/lvgl/lvgl/src/core/lv_obj_style_gen.h **** }
 438:Drivers/lvgl/lvgl/src/core/lv_obj_style_gen.h **** 
 439:Drivers/lvgl/lvgl/src/core/lv_obj_style_gen.h **** static inline const void * lv_obj_get_style_arc_img_src(const struct _lv_obj_t * obj, uint32_t part
 440:Drivers/lvgl/lvgl/src/core/lv_obj_style_gen.h **** {
 441:Drivers/lvgl/lvgl/src/core/lv_obj_style_gen.h ****     lv_style_value_t v = lv_obj_get_style_prop(obj, part, LV_STYLE_ARC_IMG_SRC);
 442:Drivers/lvgl/lvgl/src/core/lv_obj_style_gen.h ****     return (const void *)v.ptr;
 443:Drivers/lvgl/lvgl/src/core/lv_obj_style_gen.h **** }
 444:Drivers/lvgl/lvgl/src/core/lv_obj_style_gen.h **** 
 445:Drivers/lvgl/lvgl/src/core/lv_obj_style_gen.h **** static inline lv_color_t lv_obj_get_style_text_color(const struct _lv_obj_t * obj, uint32_t part)
 446:Drivers/lvgl/lvgl/src/core/lv_obj_style_gen.h **** {
 447:Drivers/lvgl/lvgl/src/core/lv_obj_style_gen.h ****     lv_style_value_t v = lv_obj_get_style_prop(obj, part, LV_STYLE_TEXT_COLOR);
ARM GAS  /tmp/ccrtAI1Z.s 			page 33


 448:Drivers/lvgl/lvgl/src/core/lv_obj_style_gen.h ****     return v.color;
 449:Drivers/lvgl/lvgl/src/core/lv_obj_style_gen.h **** }
 450:Drivers/lvgl/lvgl/src/core/lv_obj_style_gen.h **** 
 451:Drivers/lvgl/lvgl/src/core/lv_obj_style_gen.h **** static inline lv_color_t lv_obj_get_style_text_color_filtered(const struct _lv_obj_t * obj, uint32_
 452:Drivers/lvgl/lvgl/src/core/lv_obj_style_gen.h **** {
 453:Drivers/lvgl/lvgl/src/core/lv_obj_style_gen.h ****     lv_style_value_t v = _lv_obj_style_apply_color_filter(obj, part, lv_obj_get_style_prop(obj, par
 454:Drivers/lvgl/lvgl/src/core/lv_obj_style_gen.h ****     return v.color;
 455:Drivers/lvgl/lvgl/src/core/lv_obj_style_gen.h **** }
 456:Drivers/lvgl/lvgl/src/core/lv_obj_style_gen.h **** 
 457:Drivers/lvgl/lvgl/src/core/lv_obj_style_gen.h **** static inline lv_opa_t lv_obj_get_style_text_opa(const struct _lv_obj_t * obj, uint32_t part)
 458:Drivers/lvgl/lvgl/src/core/lv_obj_style_gen.h **** {
 459:Drivers/lvgl/lvgl/src/core/lv_obj_style_gen.h ****     lv_style_value_t v = lv_obj_get_style_prop(obj, part, LV_STYLE_TEXT_OPA);
 460:Drivers/lvgl/lvgl/src/core/lv_obj_style_gen.h ****     return (lv_opa_t)v.num;
 461:Drivers/lvgl/lvgl/src/core/lv_obj_style_gen.h **** }
 462:Drivers/lvgl/lvgl/src/core/lv_obj_style_gen.h **** 
 463:Drivers/lvgl/lvgl/src/core/lv_obj_style_gen.h **** static inline const lv_font_t * lv_obj_get_style_text_font(const struct _lv_obj_t * obj, uint32_t p
 464:Drivers/lvgl/lvgl/src/core/lv_obj_style_gen.h **** {
 465:Drivers/lvgl/lvgl/src/core/lv_obj_style_gen.h ****     lv_style_value_t v = lv_obj_get_style_prop(obj, part, LV_STYLE_TEXT_FONT);
 466:Drivers/lvgl/lvgl/src/core/lv_obj_style_gen.h ****     return (const lv_font_t *)v.ptr;
 467:Drivers/lvgl/lvgl/src/core/lv_obj_style_gen.h **** }
 468:Drivers/lvgl/lvgl/src/core/lv_obj_style_gen.h **** 
 469:Drivers/lvgl/lvgl/src/core/lv_obj_style_gen.h **** static inline lv_coord_t lv_obj_get_style_text_letter_space(const struct _lv_obj_t * obj, uint32_t 
 470:Drivers/lvgl/lvgl/src/core/lv_obj_style_gen.h **** {
 471:Drivers/lvgl/lvgl/src/core/lv_obj_style_gen.h ****     lv_style_value_t v = lv_obj_get_style_prop(obj, part, LV_STYLE_TEXT_LETTER_SPACE);
 472:Drivers/lvgl/lvgl/src/core/lv_obj_style_gen.h ****     return (lv_coord_t)v.num;
 473:Drivers/lvgl/lvgl/src/core/lv_obj_style_gen.h **** }
 474:Drivers/lvgl/lvgl/src/core/lv_obj_style_gen.h **** 
 475:Drivers/lvgl/lvgl/src/core/lv_obj_style_gen.h **** static inline lv_coord_t lv_obj_get_style_text_line_space(const struct _lv_obj_t * obj, uint32_t pa
 476:Drivers/lvgl/lvgl/src/core/lv_obj_style_gen.h **** {
 477:Drivers/lvgl/lvgl/src/core/lv_obj_style_gen.h ****     lv_style_value_t v = lv_obj_get_style_prop(obj, part, LV_STYLE_TEXT_LINE_SPACE);
 478:Drivers/lvgl/lvgl/src/core/lv_obj_style_gen.h ****     return (lv_coord_t)v.num;
 479:Drivers/lvgl/lvgl/src/core/lv_obj_style_gen.h **** }
 480:Drivers/lvgl/lvgl/src/core/lv_obj_style_gen.h **** 
 481:Drivers/lvgl/lvgl/src/core/lv_obj_style_gen.h **** static inline lv_text_decor_t lv_obj_get_style_text_decor(const struct _lv_obj_t * obj, uint32_t pa
 482:Drivers/lvgl/lvgl/src/core/lv_obj_style_gen.h **** {
 483:Drivers/lvgl/lvgl/src/core/lv_obj_style_gen.h ****     lv_style_value_t v = lv_obj_get_style_prop(obj, part, LV_STYLE_TEXT_DECOR);
 484:Drivers/lvgl/lvgl/src/core/lv_obj_style_gen.h ****     return (lv_text_decor_t)v.num;
 485:Drivers/lvgl/lvgl/src/core/lv_obj_style_gen.h **** }
 486:Drivers/lvgl/lvgl/src/core/lv_obj_style_gen.h **** 
 487:Drivers/lvgl/lvgl/src/core/lv_obj_style_gen.h **** static inline lv_text_align_t lv_obj_get_style_text_align(const struct _lv_obj_t * obj, uint32_t pa
 488:Drivers/lvgl/lvgl/src/core/lv_obj_style_gen.h **** {
 489:Drivers/lvgl/lvgl/src/core/lv_obj_style_gen.h ****     lv_style_value_t v = lv_obj_get_style_prop(obj, part, LV_STYLE_TEXT_ALIGN);
 490:Drivers/lvgl/lvgl/src/core/lv_obj_style_gen.h ****     return (lv_text_align_t)v.num;
 491:Drivers/lvgl/lvgl/src/core/lv_obj_style_gen.h **** }
 492:Drivers/lvgl/lvgl/src/core/lv_obj_style_gen.h **** 
 493:Drivers/lvgl/lvgl/src/core/lv_obj_style_gen.h **** static inline lv_coord_t lv_obj_get_style_radius(const struct _lv_obj_t * obj, uint32_t part)
 494:Drivers/lvgl/lvgl/src/core/lv_obj_style_gen.h **** {
 495:Drivers/lvgl/lvgl/src/core/lv_obj_style_gen.h ****     lv_style_value_t v = lv_obj_get_style_prop(obj, part, LV_STYLE_RADIUS);
 496:Drivers/lvgl/lvgl/src/core/lv_obj_style_gen.h ****     return (lv_coord_t)v.num;
 497:Drivers/lvgl/lvgl/src/core/lv_obj_style_gen.h **** }
 498:Drivers/lvgl/lvgl/src/core/lv_obj_style_gen.h **** 
 499:Drivers/lvgl/lvgl/src/core/lv_obj_style_gen.h **** static inline bool lv_obj_get_style_clip_corner(const struct _lv_obj_t * obj, uint32_t part)
 500:Drivers/lvgl/lvgl/src/core/lv_obj_style_gen.h **** {
 501:Drivers/lvgl/lvgl/src/core/lv_obj_style_gen.h ****     lv_style_value_t v = lv_obj_get_style_prop(obj, part, LV_STYLE_CLIP_CORNER);
 502:Drivers/lvgl/lvgl/src/core/lv_obj_style_gen.h ****     return (bool)v.num;
 503:Drivers/lvgl/lvgl/src/core/lv_obj_style_gen.h **** }
 504:Drivers/lvgl/lvgl/src/core/lv_obj_style_gen.h **** 
ARM GAS  /tmp/ccrtAI1Z.s 			page 34


 505:Drivers/lvgl/lvgl/src/core/lv_obj_style_gen.h **** static inline lv_opa_t lv_obj_get_style_opa(const struct _lv_obj_t * obj, uint32_t part)
 506:Drivers/lvgl/lvgl/src/core/lv_obj_style_gen.h **** {
 507:Drivers/lvgl/lvgl/src/core/lv_obj_style_gen.h ****     lv_style_value_t v = lv_obj_get_style_prop(obj, part, LV_STYLE_OPA);
 508:Drivers/lvgl/lvgl/src/core/lv_obj_style_gen.h ****     return (lv_opa_t)v.num;
 509:Drivers/lvgl/lvgl/src/core/lv_obj_style_gen.h **** }
 510:Drivers/lvgl/lvgl/src/core/lv_obj_style_gen.h **** 
 511:Drivers/lvgl/lvgl/src/core/lv_obj_style_gen.h **** static inline const lv_color_filter_dsc_t * lv_obj_get_style_color_filter_dsc(const struct _lv_obj_
 512:Drivers/lvgl/lvgl/src/core/lv_obj_style_gen.h **** {
 513:Drivers/lvgl/lvgl/src/core/lv_obj_style_gen.h ****     lv_style_value_t v = lv_obj_get_style_prop(obj, part, LV_STYLE_COLOR_FILTER_DSC);
 514:Drivers/lvgl/lvgl/src/core/lv_obj_style_gen.h ****     return (const lv_color_filter_dsc_t *)v.ptr;
 515:Drivers/lvgl/lvgl/src/core/lv_obj_style_gen.h **** }
 516:Drivers/lvgl/lvgl/src/core/lv_obj_style_gen.h **** 
 517:Drivers/lvgl/lvgl/src/core/lv_obj_style_gen.h **** static inline lv_opa_t lv_obj_get_style_color_filter_opa(const struct _lv_obj_t * obj, uint32_t par
 518:Drivers/lvgl/lvgl/src/core/lv_obj_style_gen.h **** {
 519:Drivers/lvgl/lvgl/src/core/lv_obj_style_gen.h ****     lv_style_value_t v = lv_obj_get_style_prop(obj, part, LV_STYLE_COLOR_FILTER_OPA);
 520:Drivers/lvgl/lvgl/src/core/lv_obj_style_gen.h ****     return (lv_opa_t)v.num;
 521:Drivers/lvgl/lvgl/src/core/lv_obj_style_gen.h **** }
 522:Drivers/lvgl/lvgl/src/core/lv_obj_style_gen.h **** 
 523:Drivers/lvgl/lvgl/src/core/lv_obj_style_gen.h **** static inline const lv_anim_t * lv_obj_get_style_anim(const struct _lv_obj_t * obj, uint32_t part)
 524:Drivers/lvgl/lvgl/src/core/lv_obj_style_gen.h **** {
 525:Drivers/lvgl/lvgl/src/core/lv_obj_style_gen.h ****     lv_style_value_t v = lv_obj_get_style_prop(obj, part, LV_STYLE_ANIM);
 526:Drivers/lvgl/lvgl/src/core/lv_obj_style_gen.h ****     return (const lv_anim_t *)v.ptr;
 527:Drivers/lvgl/lvgl/src/core/lv_obj_style_gen.h **** }
 528:Drivers/lvgl/lvgl/src/core/lv_obj_style_gen.h **** 
 529:Drivers/lvgl/lvgl/src/core/lv_obj_style_gen.h **** static inline uint32_t lv_obj_get_style_anim_time(const struct _lv_obj_t * obj, uint32_t part)
 530:Drivers/lvgl/lvgl/src/core/lv_obj_style_gen.h **** {
 531:Drivers/lvgl/lvgl/src/core/lv_obj_style_gen.h ****     lv_style_value_t v = lv_obj_get_style_prop(obj, part, LV_STYLE_ANIM_TIME);
 532:Drivers/lvgl/lvgl/src/core/lv_obj_style_gen.h ****     return (uint32_t)v.num;
 533:Drivers/lvgl/lvgl/src/core/lv_obj_style_gen.h **** }
 534:Drivers/lvgl/lvgl/src/core/lv_obj_style_gen.h **** 
 535:Drivers/lvgl/lvgl/src/core/lv_obj_style_gen.h **** static inline uint32_t lv_obj_get_style_anim_speed(const struct _lv_obj_t * obj, uint32_t part)
 536:Drivers/lvgl/lvgl/src/core/lv_obj_style_gen.h **** {
 537:Drivers/lvgl/lvgl/src/core/lv_obj_style_gen.h ****     lv_style_value_t v = lv_obj_get_style_prop(obj, part, LV_STYLE_ANIM_SPEED);
 538:Drivers/lvgl/lvgl/src/core/lv_obj_style_gen.h ****     return (uint32_t)v.num;
 539:Drivers/lvgl/lvgl/src/core/lv_obj_style_gen.h **** }
 540:Drivers/lvgl/lvgl/src/core/lv_obj_style_gen.h **** 
 541:Drivers/lvgl/lvgl/src/core/lv_obj_style_gen.h **** static inline const lv_style_transition_dsc_t * lv_obj_get_style_transition(const struct _lv_obj_t 
 542:Drivers/lvgl/lvgl/src/core/lv_obj_style_gen.h **** {
 543:Drivers/lvgl/lvgl/src/core/lv_obj_style_gen.h ****     lv_style_value_t v = lv_obj_get_style_prop(obj, part, LV_STYLE_TRANSITION);
 544:Drivers/lvgl/lvgl/src/core/lv_obj_style_gen.h ****     return (const lv_style_transition_dsc_t *)v.ptr;
 545:Drivers/lvgl/lvgl/src/core/lv_obj_style_gen.h **** }
 546:Drivers/lvgl/lvgl/src/core/lv_obj_style_gen.h **** 
 547:Drivers/lvgl/lvgl/src/core/lv_obj_style_gen.h **** static inline lv_blend_mode_t lv_obj_get_style_blend_mode(const struct _lv_obj_t * obj, uint32_t pa
 548:Drivers/lvgl/lvgl/src/core/lv_obj_style_gen.h **** {
 549:Drivers/lvgl/lvgl/src/core/lv_obj_style_gen.h ****     lv_style_value_t v = lv_obj_get_style_prop(obj, part, LV_STYLE_BLEND_MODE);
 550:Drivers/lvgl/lvgl/src/core/lv_obj_style_gen.h ****     return (lv_blend_mode_t)v.num;
 551:Drivers/lvgl/lvgl/src/core/lv_obj_style_gen.h **** }
 552:Drivers/lvgl/lvgl/src/core/lv_obj_style_gen.h **** 
 553:Drivers/lvgl/lvgl/src/core/lv_obj_style_gen.h **** static inline uint16_t lv_obj_get_style_layout(const struct _lv_obj_t * obj, uint32_t part)
 554:Drivers/lvgl/lvgl/src/core/lv_obj_style_gen.h **** {
 555:Drivers/lvgl/lvgl/src/core/lv_obj_style_gen.h ****     lv_style_value_t v = lv_obj_get_style_prop(obj, part, LV_STYLE_LAYOUT);
 556:Drivers/lvgl/lvgl/src/core/lv_obj_style_gen.h ****     return (uint16_t)v.num;
 557:Drivers/lvgl/lvgl/src/core/lv_obj_style_gen.h **** }
 558:Drivers/lvgl/lvgl/src/core/lv_obj_style_gen.h **** 
 559:Drivers/lvgl/lvgl/src/core/lv_obj_style_gen.h **** static inline lv_base_dir_t lv_obj_get_style_base_dir(const struct _lv_obj_t * obj, uint32_t part)
 560:Drivers/lvgl/lvgl/src/core/lv_obj_style_gen.h **** {
 561:Drivers/lvgl/lvgl/src/core/lv_obj_style_gen.h ****     lv_style_value_t v = lv_obj_get_style_prop(obj, part, LV_STYLE_BASE_DIR);
ARM GAS  /tmp/ccrtAI1Z.s 			page 35


 649              		.loc 2 561 0
 650 0006 1622     		movs	r2, #22
 651 0008 0021     		movs	r1, #0
 652 000a FFF7FEFF 		bl	lv_obj_get_style_prop
 653              	.LVL69:
 562:Drivers/lvgl/lvgl/src/core/lv_obj_style_gen.h ****     return (lv_base_dir_t)v.num;
 654              		.loc 2 562 0
 655 000e C0B2     		uxtb	r0, r0
 656              	.LVL70:
 657              	.LBE107:
 658              	.LBE106:
 167:Drivers/lvgl/lvgl/src/core/lv_obj_scroll.c ****         if(obj->spec_attr == NULL) return 0;
 659              		.loc 1 167 0
 660 0010 0128     		cmp	r0, #1
 661 0012 07D0     		beq	.L44
 168:Drivers/lvgl/lvgl/src/core/lv_obj_scroll.c ****         return -obj->spec_attr->scroll.x;
 662              		.loc 1 168 0
 663 0014 AB68     		ldr	r3, [r5, #8]
 664 0016 002B     		cmp	r3, #0
 665 0018 5DD0     		beq	.L50
 169:Drivers/lvgl/lvgl/src/core/lv_obj_scroll.c ****     }
 666              		.loc 1 169 0
 667 001a 188A     		ldrh	r0, [r3, #16]
 668 001c 4042     		negs	r0, r0
 669 001e 00B2     		sxth	r0, r0
 670              	.L45:
 202:Drivers/lvgl/lvgl/src/core/lv_obj_scroll.c **** 
 671              		.loc 1 202 0
 672 0020 BDE8F88F 		pop	{r3, r4, r5, r6, r7, r8, r9, r10, fp, pc}
 673              	.LVL71:
 674              	.L44:
 675              	.LBB108:
 676              	.LBB109:
 123:Drivers/lvgl/lvgl/src/core/lv_obj_style_gen.h ****     return (lv_coord_t)v.num;
 677              		.loc 2 123 0
 678 0024 1322     		movs	r2, #19
 679 0026 0021     		movs	r1, #0
 680 0028 2846     		mov	r0, r5
 681 002a FFF7FEFF 		bl	lv_obj_get_style_prop
 682              	.LVL72:
 683 002e 0746     		mov	r7, r0
 684              	.LVL73:
 685              	.LBE109:
 686              	.LBE108:
 687              	.LBB110:
 688              	.LBB111:
 117:Drivers/lvgl/lvgl/src/core/lv_obj_style_gen.h ****     return (lv_coord_t)v.num;
 689              		.loc 2 117 0
 690 0030 1222     		movs	r2, #18
 691 0032 0021     		movs	r1, #0
 692 0034 2846     		mov	r0, r5
 693 0036 FFF7FEFF 		bl	lv_obj_get_style_prop
 694              	.LVL74:
 695 003a 8046     		mov	r8, r0
 696              	.LVL75:
 697              	.LBE111:
 698              	.LBE110:
ARM GAS  /tmp/ccrtAI1Z.s 			page 36


 699              	.LBB112:
 700              	.LBB113:
 255:Drivers/lvgl/lvgl/src/core/lv_obj_style_gen.h ****     return (lv_coord_t)v.num;
 701              		.loc 2 255 0
 702 003c 3222     		movs	r2, #50
 703 003e 0021     		movs	r1, #0
 704 0040 2846     		mov	r0, r5
 705 0042 FFF7FEFF 		bl	lv_obj_get_style_prop
 706              	.LVL76:
 707 0046 8246     		mov	r10, r0
 708              	.LVL77:
 709              	.LBE113:
 710              	.LBE112:
 181:Drivers/lvgl/lvgl/src/core/lv_obj_scroll.c ****     for(i = 0; i < child_cnt; i++) {
 711              		.loc 1 181 0
 712 0048 2846     		mov	r0, r5
 713 004a FFF7FEFF 		bl	lv_obj_get_child_cnt
 714              	.LVL78:
 715 004e 8346     		mov	fp, r0
 716              	.LVL79:
 180:Drivers/lvgl/lvgl/src/core/lv_obj_scroll.c ****     uint32_t child_cnt = lv_obj_get_child_cnt(obj);
 717              		.loc 1 180 0
 718 0050 41F6FF79 		movw	r9, #8191
 182:Drivers/lvgl/lvgl/src/core/lv_obj_scroll.c ****         lv_obj_t * child = obj->spec_attr->children[i];
 719              		.loc 1 182 0
 720 0054 0024     		movs	r4, #0
 721 0056 00E0     		b	.L46
 722              	.LVL80:
 723              	.L47:
 182:Drivers/lvgl/lvgl/src/core/lv_obj_scroll.c ****         lv_obj_t * child = obj->spec_attr->children[i];
 724              		.loc 1 182 0 is_stmt 0 discriminator 2
 725 0058 0134     		adds	r4, r4, #1
 726              	.LVL81:
 727              	.L46:
 182:Drivers/lvgl/lvgl/src/core/lv_obj_scroll.c ****         lv_obj_t * child = obj->spec_attr->children[i];
 728              		.loc 1 182 0 discriminator 1
 729 005a 5C45     		cmp	r4, fp
 730 005c 0FD2     		bcs	.L53
 731              	.LBB114:
 183:Drivers/lvgl/lvgl/src/core/lv_obj_scroll.c ****         if(lv_obj_has_flag_any(child,  LV_OBJ_FLAG_HIDDEN | LV_OBJ_FLAG_FLOATING)) continue;
 732              		.loc 1 183 0 is_stmt 1
 733 005e AB68     		ldr	r3, [r5, #8]
 734 0060 1B68     		ldr	r3, [r3]
 735 0062 53F82460 		ldr	r6, [r3, r4, lsl #2]
 736              	.LVL82:
 184:Drivers/lvgl/lvgl/src/core/lv_obj_scroll.c ****         x1 = LV_MIN(x1, child->coords.x1);
 737              		.loc 1 184 0
 738 0066 1D49     		ldr	r1, .L54
 739 0068 3046     		mov	r0, r6
 740 006a FFF7FEFF 		bl	lv_obj_has_flag_any
 741              	.LVL83:
 742 006e 0028     		cmp	r0, #0
 743 0070 F2D1     		bne	.L47
 185:Drivers/lvgl/lvgl/src/core/lv_obj_scroll.c **** 
 744              		.loc 1 185 0
 745 0072 B6F91430 		ldrsh	r3, [r6, #20]
 746 0076 9945     		cmp	r9, r3
ARM GAS  /tmp/ccrtAI1Z.s 			page 37


 747 0078 A8BF     		it	ge
 748 007a 9946     		movge	r9, r3
 749              	.LVL84:
 750 007c ECE7     		b	.L47
 751              	.LVL85:
 752              	.L53:
 753              	.LBE114:
 189:Drivers/lvgl/lvgl/src/core/lv_obj_scroll.c ****         child_res = x1;
 754              		.loc 1 189 0
 755 007e 41F6FF73 		movw	r3, #8191
 756 0082 9945     		cmp	r9, r3
 757 0084 25D0     		beq	.L51
 758              	.LVL86:
 191:Drivers/lvgl/lvgl/src/core/lv_obj_scroll.c ****     }
 759              		.loc 1 191 0
 760 0086 A88A     		ldrh	r0, [r5, #20]
 761 0088 4044     		add	r0, r0, r8
 762 008a 1AFA80F0 		uxtah	r0, r10, r0
 763 008e 80B2     		uxth	r0, r0
 764 0090 A0EB0900 		sub	r0, r0, r9
 765 0094 04B2     		sxth	r4, r0
 766              	.LVL87:
 767              	.L49:
 197:Drivers/lvgl/lvgl/src/core/lv_obj_scroll.c ****     self_w = self_w - (lv_obj_get_width(obj) - pad_right - pad_left - 2 * border_width);
 768              		.loc 1 197 0
 769 0096 2846     		mov	r0, r5
 770 0098 FFF7FEFF 		bl	lv_obj_get_self_width
 771              	.LVL88:
 772 009c 8146     		mov	r9, r0
 773              	.LVL89:
 198:Drivers/lvgl/lvgl/src/core/lv_obj_scroll.c ****     self_w += lv_obj_get_scroll_x(obj);
 774              		.loc 1 198 0
 775 009e 4FEA4A0A 		lsl	r10, r10, #1
 776 00a2 1FFA8AFA 		uxth	r10, r10
 777 00a6 2846     		mov	r0, r5
 778 00a8 FFF7FEFF 		bl	lv_obj_get_width
 779              	.LVL90:
 780 00ac 80B2     		uxth	r0, r0
 781 00ae 3F1A     		subs	r7, r7, r0
 782 00b0 18FA87F6 		uxtah	r6, r8, r7
 783 00b4 1AFA86F6 		uxtah	r6, r10, r6
 784 00b8 19FA86F6 		uxtah	r6, r9, r6
 785 00bc B6B2     		uxth	r6, r6
 786              	.LVL91:
 199:Drivers/lvgl/lvgl/src/core/lv_obj_scroll.c **** 
 787              		.loc 1 199 0
 788 00be 2846     		mov	r0, r5
 789 00c0 FFF7FEFF 		bl	lv_obj_get_scroll_x
 790              	.LVL92:
 791 00c4 16FA80F0 		uxtah	r0, r6, r0
 792 00c8 00B2     		sxth	r0, r0
 793              	.LVL93:
 201:Drivers/lvgl/lvgl/src/core/lv_obj_scroll.c **** }
 794              		.loc 1 201 0
 795 00ca A042     		cmp	r0, r4
 796 00cc B8BF     		it	lt
 797 00ce 2046     		movlt	r0, r4
ARM GAS  /tmp/ccrtAI1Z.s 			page 38


 798              	.LVL94:
 799 00d0 A6E7     		b	.L45
 800              	.LVL95:
 801              	.L51:
 194:Drivers/lvgl/lvgl/src/core/lv_obj_scroll.c ****     }
 802              		.loc 1 194 0
 803 00d2 034C     		ldr	r4, .L54+4
 804              	.LVL96:
 805 00d4 DFE7     		b	.L49
 806              	.LVL97:
 807              	.L50:
 168:Drivers/lvgl/lvgl/src/core/lv_obj_scroll.c ****         return -obj->spec_attr->scroll.x;
 808              		.loc 1 168 0
 809 00d6 0020     		movs	r0, #0
 810 00d8 A2E7     		b	.L45
 811              	.L55:
 812 00da 00BF     		.align	2
 813              	.L54:
 814 00dc 01000400 		.word	262145
 815 00e0 01E0FFFF 		.word	-8191
 816              		.cfi_endproc
 817              	.LFE177:
 819              		.section	.text.lv_obj_get_scroll_right,"ax",%progbits
 820              		.align	1
 821              		.global	lv_obj_get_scroll_right
 822              		.syntax unified
 823              		.thumb
 824              		.thumb_func
 825              		.fpu fpv5-d16
 827              	lv_obj_get_scroll_right:
 828              	.LFB178:
 205:Drivers/lvgl/lvgl/src/core/lv_obj_scroll.c ****     LV_ASSERT_OBJ(obj, MY_CLASS);
 829              		.loc 1 205 0
 830              		.cfi_startproc
 831              		@ args = 0, pretend = 0, frame = 0
 832              		@ frame_needed = 0, uses_anonymous_args = 0
 833              	.LVL98:
 834 0000 2DE9F843 		push	{r3, r4, r5, r6, r7, r8, r9, lr}
 835              	.LCFI7:
 836              		.cfi_def_cfa_offset 32
 837              		.cfi_offset 3, -32
 838              		.cfi_offset 4, -28
 839              		.cfi_offset 5, -24
 840              		.cfi_offset 6, -20
 841              		.cfi_offset 7, -16
 842              		.cfi_offset 8, -12
 843              		.cfi_offset 9, -8
 844              		.cfi_offset 14, -4
 845 0004 0646     		mov	r6, r0
 846              	.LVL99:
 847              	.LBB115:
 848              	.LBB116:
 561:Drivers/lvgl/lvgl/src/core/lv_obj_style_gen.h ****     return (lv_base_dir_t)v.num;
 849              		.loc 2 561 0
 850 0006 1622     		movs	r2, #22
 851 0008 0021     		movs	r1, #0
 852 000a FFF7FEFF 		bl	lv_obj_get_style_prop
ARM GAS  /tmp/ccrtAI1Z.s 			page 39


 853              	.LVL100:
 854              		.loc 2 562 0
 855 000e C0B2     		uxtb	r0, r0
 856              	.LVL101:
 857              	.LBE116:
 858              	.LBE115:
 210:Drivers/lvgl/lvgl/src/core/lv_obj_scroll.c ****         if(obj->spec_attr == NULL) return 0;
 859              		.loc 1 210 0
 860 0010 0128     		cmp	r0, #1
 861 0012 05D1     		bne	.L57
 211:Drivers/lvgl/lvgl/src/core/lv_obj_scroll.c ****         return obj->spec_attr->scroll.x;
 862              		.loc 1 211 0
 863 0014 B368     		ldr	r3, [r6, #8]
 864 0016 002B     		cmp	r3, #0
 865 0018 55D0     		beq	.L63
 212:Drivers/lvgl/lvgl/src/core/lv_obj_scroll.c ****     }
 866              		.loc 1 212 0
 867 001a B3F91000 		ldrsh	r0, [r3, #16]
 868 001e 50E0     		b	.L58
 869              	.L57:
 870              	.LVL102:
 218:Drivers/lvgl/lvgl/src/core/lv_obj_scroll.c ****     for(i = 0; i < child_cnt; i++) {
 871              		.loc 1 218 0
 872 0020 3046     		mov	r0, r6
 873 0022 FFF7FEFF 		bl	lv_obj_get_child_cnt
 874              	.LVL103:
 875 0026 8046     		mov	r8, r0
 876              	.LVL104:
 219:Drivers/lvgl/lvgl/src/core/lv_obj_scroll.c ****         lv_obj_t * child = obj->spec_attr->children[i];
 877              		.loc 1 219 0
 878 0028 0024     		movs	r4, #0
 216:Drivers/lvgl/lvgl/src/core/lv_obj_scroll.c ****     uint32_t i;
 879              		.loc 1 216 0
 880 002a 284D     		ldr	r5, .L66
 219:Drivers/lvgl/lvgl/src/core/lv_obj_scroll.c ****         lv_obj_t * child = obj->spec_attr->children[i];
 881              		.loc 1 219 0
 882 002c 00E0     		b	.L59
 883              	.LVL105:
 884              	.L60:
 219:Drivers/lvgl/lvgl/src/core/lv_obj_scroll.c ****         lv_obj_t * child = obj->spec_attr->children[i];
 885              		.loc 1 219 0 is_stmt 0 discriminator 2
 886 002e 0134     		adds	r4, r4, #1
 887              	.LVL106:
 888              	.L59:
 219:Drivers/lvgl/lvgl/src/core/lv_obj_scroll.c ****         lv_obj_t * child = obj->spec_attr->children[i];
 889              		.loc 1 219 0 discriminator 1
 890 0030 4445     		cmp	r4, r8
 891 0032 0FD2     		bcs	.L65
 892              	.LBB117:
 220:Drivers/lvgl/lvgl/src/core/lv_obj_scroll.c ****         if(lv_obj_has_flag_any(child,  LV_OBJ_FLAG_HIDDEN | LV_OBJ_FLAG_FLOATING)) continue;
 893              		.loc 1 220 0 is_stmt 1
 894 0034 B368     		ldr	r3, [r6, #8]
 895 0036 1B68     		ldr	r3, [r3]
 896 0038 53F82470 		ldr	r7, [r3, r4, lsl #2]
 897              	.LVL107:
 221:Drivers/lvgl/lvgl/src/core/lv_obj_scroll.c ****         child_res = LV_MAX(child_res, child->coords.x2);
 898              		.loc 1 221 0
ARM GAS  /tmp/ccrtAI1Z.s 			page 40


 899 003c 2449     		ldr	r1, .L66+4
 900 003e 3846     		mov	r0, r7
 901 0040 FFF7FEFF 		bl	lv_obj_has_flag_any
 902              	.LVL108:
 903 0044 0028     		cmp	r0, #0
 904 0046 F2D1     		bne	.L60
 222:Drivers/lvgl/lvgl/src/core/lv_obj_scroll.c ****     }
 905              		.loc 1 222 0
 906 0048 B7F91830 		ldrsh	r3, [r7, #24]
 907 004c 9D42     		cmp	r5, r3
 908 004e B8BF     		it	lt
 909 0050 1D46     		movlt	r5, r3
 910              	.LVL109:
 911 0052 ECE7     		b	.L60
 912              	.LVL110:
 913              	.L65:
 914              	.LBE117:
 915              	.LBB118:
 916              	.LBB119:
 123:Drivers/lvgl/lvgl/src/core/lv_obj_style_gen.h ****     return (lv_coord_t)v.num;
 917              		.loc 2 123 0
 918 0054 1322     		movs	r2, #19
 919 0056 0021     		movs	r1, #0
 920 0058 3046     		mov	r0, r6
 921 005a FFF7FEFF 		bl	lv_obj_get_style_prop
 922              	.LVL111:
 923 005e 0446     		mov	r4, r0
 924              	.LVL112:
 925              	.LBE119:
 926              	.LBE118:
 927              	.LBB120:
 928              	.LBB121:
 117:Drivers/lvgl/lvgl/src/core/lv_obj_style_gen.h ****     return (lv_coord_t)v.num;
 929              		.loc 2 117 0
 930 0060 1222     		movs	r2, #18
 931 0062 0021     		movs	r1, #0
 932 0064 3046     		mov	r0, r6
 933 0066 FFF7FEFF 		bl	lv_obj_get_style_prop
 934              	.LVL113:
 935 006a 8146     		mov	r9, r0
 936              	.LVL114:
 937              	.LBE121:
 938              	.LBE120:
 939              	.LBB122:
 940              	.LBB123:
 255:Drivers/lvgl/lvgl/src/core/lv_obj_style_gen.h ****     return (lv_coord_t)v.num;
 941              		.loc 2 255 0
 942 006c 3222     		movs	r2, #50
 943 006e 0021     		movs	r1, #0
 944 0070 3046     		mov	r0, r6
 945 0072 FFF7FEFF 		bl	lv_obj_get_style_prop
 946              	.LVL115:
 947 0076 0746     		mov	r7, r0
 948              	.LVL116:
 949              	.LBE123:
 950              	.LBE122:
 229:Drivers/lvgl/lvgl/src/core/lv_obj_scroll.c ****         child_res -= (obj->coords.x2 - pad_right - border_width);
ARM GAS  /tmp/ccrtAI1Z.s 			page 41


 951              		.loc 1 229 0
 952 0078 144B     		ldr	r3, .L66
 953 007a 9D42     		cmp	r5, r3
 954 007c 06D0     		beq	.L62
 230:Drivers/lvgl/lvgl/src/core/lv_obj_scroll.c ****     }
 955              		.loc 1 230 0
 956 007e 308B     		ldrh	r0, [r6, #24]
 957 0080 201A     		subs	r0, r4, r0
 958 0082 17FA80F0 		uxtah	r0, r7, r0
 959 0086 15FA80F5 		uxtah	r5, r5, r0
 960              	.LVL117:
 961 008a 2DB2     		sxth	r5, r5
 962              	.LVL118:
 963              	.L62:
 234:Drivers/lvgl/lvgl/src/core/lv_obj_scroll.c ****     self_w = self_w - (lv_obj_get_width(obj) - pad_right - pad_left - 2 * border_width);
 964              		.loc 1 234 0
 965 008c 3046     		mov	r0, r6
 966 008e FFF7FEFF 		bl	lv_obj_get_self_width
 967              	.LVL119:
 968 0092 8046     		mov	r8, r0
 969              	.LVL120:
 235:Drivers/lvgl/lvgl/src/core/lv_obj_scroll.c ****     self_w -= lv_obj_get_scroll_x(obj);
 970              		.loc 1 235 0
 971 0094 7F00     		lsls	r7, r7, #1
 972 0096 BFB2     		uxth	r7, r7
 973 0098 3046     		mov	r0, r6
 974 009a FFF7FEFF 		bl	lv_obj_get_width
 975              	.LVL121:
 976 009e 80B2     		uxth	r0, r0
 977 00a0 241A     		subs	r4, r4, r0
 978 00a2 19FA84F4 		uxtah	r4, r9, r4
 979 00a6 17FA84F4 		uxtah	r4, r7, r4
 980 00aa 18FA84F4 		uxtah	r4, r8, r4
 981 00ae A4B2     		uxth	r4, r4
 982              	.LVL122:
 236:Drivers/lvgl/lvgl/src/core/lv_obj_scroll.c ****     return LV_MAX(child_res, self_w);
 983              		.loc 1 236 0
 984 00b0 3046     		mov	r0, r6
 985 00b2 FFF7FEFF 		bl	lv_obj_get_scroll_x
 986              	.LVL123:
 987 00b6 80B2     		uxth	r0, r0
 988 00b8 241A     		subs	r4, r4, r0
 989              	.LVL124:
 990 00ba 20B2     		sxth	r0, r4
 991              	.LVL125:
 237:Drivers/lvgl/lvgl/src/core/lv_obj_scroll.c **** }
 992              		.loc 1 237 0
 993 00bc A842     		cmp	r0, r5
 994 00be B8BF     		it	lt
 995 00c0 2846     		movlt	r0, r5
 996              	.LVL126:
 997              	.L58:
 238:Drivers/lvgl/lvgl/src/core/lv_obj_scroll.c **** 
 998              		.loc 1 238 0
 999 00c2 BDE8F883 		pop	{r3, r4, r5, r6, r7, r8, r9, pc}
 1000              	.LVL127:
 1001              	.L63:
ARM GAS  /tmp/ccrtAI1Z.s 			page 42


 211:Drivers/lvgl/lvgl/src/core/lv_obj_scroll.c ****         return obj->spec_attr->scroll.x;
 1002              		.loc 1 211 0
 1003 00c6 0020     		movs	r0, #0
 1004 00c8 FBE7     		b	.L58
 1005              	.L67:
 1006 00ca 00BF     		.align	2
 1007              	.L66:
 1008 00cc 01E0FFFF 		.word	-8191
 1009 00d0 01000400 		.word	262145
 1010              		.cfi_endproc
 1011              	.LFE178:
 1013              		.section	.text.lv_obj_get_scroll_end,"ax",%progbits
 1014              		.align	1
 1015              		.global	lv_obj_get_scroll_end
 1016              		.syntax unified
 1017              		.thumb
 1018              		.thumb_func
 1019              		.fpu fpv5-d16
 1021              	lv_obj_get_scroll_end:
 1022              	.LFB179:
 241:Drivers/lvgl/lvgl/src/core/lv_obj_scroll.c ****     lv_anim_t * a;
 1023              		.loc 1 241 0
 1024              		.cfi_startproc
 1025              		@ args = 0, pretend = 0, frame = 0
 1026              		@ frame_needed = 0, uses_anonymous_args = 0
 1027              	.LVL128:
 1028 0000 38B5     		push	{r3, r4, r5, lr}
 1029              	.LCFI8:
 1030              		.cfi_def_cfa_offset 16
 1031              		.cfi_offset 3, -16
 1032              		.cfi_offset 4, -12
 1033              		.cfi_offset 5, -8
 1034              		.cfi_offset 14, -4
 1035 0002 0546     		mov	r5, r0
 1036 0004 0C46     		mov	r4, r1
 243:Drivers/lvgl/lvgl/src/core/lv_obj_scroll.c ****     end->x = a ? -a->end_value : lv_obj_get_scroll_x(obj);
 1037              		.loc 1 243 0
 1038 0006 0D49     		ldr	r1, .L74
 1039              	.LVL129:
 1040 0008 FFF7FEFF 		bl	lv_anim_get
 1041              	.LVL130:
 244:Drivers/lvgl/lvgl/src/core/lv_obj_scroll.c **** 
 1042              		.loc 1 244 0
 1043 000c 68B1     		cbz	r0, .L69
 244:Drivers/lvgl/lvgl/src/core/lv_obj_scroll.c **** 
 1044              		.loc 1 244 0 is_stmt 0 discriminator 1
 1045 000e 806A     		ldr	r0, [r0, #40]
 1046              	.LVL131:
 1047 0010 4042     		negs	r0, r0
 1048 0012 00B2     		sxth	r0, r0
 1049              	.L70:
 244:Drivers/lvgl/lvgl/src/core/lv_obj_scroll.c **** 
 1050              		.loc 1 244 0 discriminator 4
 1051 0014 2080     		strh	r0, [r4]	@ movhi
 246:Drivers/lvgl/lvgl/src/core/lv_obj_scroll.c ****     end->y = a ? -a->end_value : lv_obj_get_scroll_y(obj);
 1052              		.loc 1 246 0 is_stmt 1 discriminator 4
 1053 0016 0A49     		ldr	r1, .L74+4
ARM GAS  /tmp/ccrtAI1Z.s 			page 43


 1054 0018 2846     		mov	r0, r5
 1055 001a FFF7FEFF 		bl	lv_anim_get
 1056              	.LVL132:
 247:Drivers/lvgl/lvgl/src/core/lv_obj_scroll.c **** }
 1057              		.loc 1 247 0 discriminator 4
 1058 001e 40B1     		cbz	r0, .L71
 247:Drivers/lvgl/lvgl/src/core/lv_obj_scroll.c **** }
 1059              		.loc 1 247 0 is_stmt 0 discriminator 1
 1060 0020 806A     		ldr	r0, [r0, #40]
 1061              	.LVL133:
 1062 0022 4042     		negs	r0, r0
 1063 0024 00B2     		sxth	r0, r0
 1064              	.L72:
 247:Drivers/lvgl/lvgl/src/core/lv_obj_scroll.c **** }
 1065              		.loc 1 247 0 discriminator 4
 1066 0026 6080     		strh	r0, [r4, #2]	@ movhi
 248:Drivers/lvgl/lvgl/src/core/lv_obj_scroll.c **** 
 1067              		.loc 1 248 0 is_stmt 1 discriminator 4
 1068 0028 38BD     		pop	{r3, r4, r5, pc}
 1069              	.LVL134:
 1070              	.L69:
 244:Drivers/lvgl/lvgl/src/core/lv_obj_scroll.c **** 
 1071              		.loc 1 244 0 discriminator 2
 1072 002a 2846     		mov	r0, r5
 1073              	.LVL135:
 1074 002c FFF7FEFF 		bl	lv_obj_get_scroll_x
 1075              	.LVL136:
 1076 0030 F0E7     		b	.L70
 1077              	.LVL137:
 1078              	.L71:
 247:Drivers/lvgl/lvgl/src/core/lv_obj_scroll.c **** }
 1079              		.loc 1 247 0 discriminator 2
 1080 0032 2846     		mov	r0, r5
 1081              	.LVL138:
 1082 0034 FFF7FEFF 		bl	lv_obj_get_scroll_y
 1083              	.LVL139:
 1084 0038 F5E7     		b	.L72
 1085              	.L75:
 1086 003a 00BF     		.align	2
 1087              	.L74:
 1088 003c 00000000 		.word	scroll_x_anim
 1089 0040 00000000 		.word	scroll_y_anim
 1090              		.cfi_endproc
 1091              	.LFE179:
 1093              		.section	.text._lv_obj_scroll_by_raw,"ax",%progbits
 1094              		.align	1
 1095              		.global	_lv_obj_scroll_by_raw
 1096              		.syntax unified
 1097              		.thumb
 1098              		.thumb_func
 1099              		.fpu fpv5-d16
 1101              	_lv_obj_scroll_by_raw:
 1102              	.LFB187:
 413:Drivers/lvgl/lvgl/src/core/lv_obj_scroll.c ****     if(x == 0 && y == 0) return LV_RES_OK;
 1103              		.loc 1 413 0
 1104              		.cfi_startproc
 1105              		@ args = 0, pretend = 0, frame = 0
ARM GAS  /tmp/ccrtAI1Z.s 			page 44


 1106              		@ frame_needed = 0, uses_anonymous_args = 0
 1107              	.LVL140:
 1108 0000 70B5     		push	{r4, r5, r6, lr}
 1109              	.LCFI9:
 1110              		.cfi_def_cfa_offset 16
 1111              		.cfi_offset 4, -16
 1112              		.cfi_offset 5, -12
 1113              		.cfi_offset 6, -8
 1114              		.cfi_offset 14, -4
 414:Drivers/lvgl/lvgl/src/core/lv_obj_scroll.c **** 
 1115              		.loc 1 414 0
 1116 0002 51EA0203 		orrs	r3, r1, r2
 1117 0006 02D1     		bne	.L80
 1118 0008 0125     		movs	r5, #1
 1119              	.LVL141:
 1120              	.L77:
 426:Drivers/lvgl/lvgl/src/core/lv_obj_scroll.c **** 
 1121              		.loc 1 426 0
 1122 000a 2846     		mov	r0, r5
 1123 000c 70BD     		pop	{r4, r5, r6, pc}
 1124              	.LVL142:
 1125              	.L80:
 1126 000e 1546     		mov	r5, r2
 1127 0010 0E46     		mov	r6, r1
 1128 0012 0446     		mov	r4, r0
 416:Drivers/lvgl/lvgl/src/core/lv_obj_scroll.c **** 
 1129              		.loc 1 416 0
 1130 0014 FFF7FEFF 		bl	lv_obj_allocate_spec_attr
 1131              	.LVL143:
 418:Drivers/lvgl/lvgl/src/core/lv_obj_scroll.c ****     obj->spec_attr->scroll.y += y;
 1132              		.loc 1 418 0
 1133 0018 A268     		ldr	r2, [r4, #8]
 1134 001a 138A     		ldrh	r3, [r2, #16]
 1135 001c 3344     		add	r3, r3, r6
 1136 001e 1382     		strh	r3, [r2, #16]	@ movhi
 419:Drivers/lvgl/lvgl/src/core/lv_obj_scroll.c **** 
 1137              		.loc 1 419 0
 1138 0020 A268     		ldr	r2, [r4, #8]
 1139 0022 538A     		ldrh	r3, [r2, #18]
 1140 0024 2B44     		add	r3, r3, r5
 1141 0026 5382     		strh	r3, [r2, #18]	@ movhi
 421:Drivers/lvgl/lvgl/src/core/lv_obj_scroll.c ****     lv_res_t res = lv_event_send(obj, LV_EVENT_SCROLL, NULL);
 1142              		.loc 1 421 0
 1143 0028 0123     		movs	r3, #1
 1144 002a 2A46     		mov	r2, r5
 1145 002c 3146     		mov	r1, r6
 1146 002e 2046     		mov	r0, r4
 1147 0030 FFF7FEFF 		bl	lv_obj_move_children_by
 1148              	.LVL144:
 422:Drivers/lvgl/lvgl/src/core/lv_obj_scroll.c ****     if(res != LV_RES_OK) return res;
 1149              		.loc 1 422 0
 1150 0034 0022     		movs	r2, #0
 1151 0036 0B21     		movs	r1, #11
 1152 0038 2046     		mov	r0, r4
 1153 003a FFF7FEFF 		bl	lv_event_send
 1154              	.LVL145:
 1155 003e 0546     		mov	r5, r0
ARM GAS  /tmp/ccrtAI1Z.s 			page 45


 1156              	.LVL146:
 423:Drivers/lvgl/lvgl/src/core/lv_obj_scroll.c ****     lv_obj_invalidate(obj);
 1157              		.loc 1 423 0
 1158 0040 0128     		cmp	r0, #1
 1159 0042 E2D1     		bne	.L77
 424:Drivers/lvgl/lvgl/src/core/lv_obj_scroll.c ****     return LV_RES_OK;
 1160              		.loc 1 424 0
 1161 0044 2046     		mov	r0, r4
 1162              	.LVL147:
 1163 0046 FFF7FEFF 		bl	lv_obj_invalidate
 1164              	.LVL148:
 425:Drivers/lvgl/lvgl/src/core/lv_obj_scroll.c **** }
 1165              		.loc 1 425 0
 1166 004a DEE7     		b	.L77
 1167              		.cfi_endproc
 1168              	.LFE187:
 1170              		.section	.text.scroll_y_anim,"ax",%progbits
 1171              		.align	1
 1172              		.syntax unified
 1173              		.thumb
 1174              		.thumb_func
 1175              		.fpu fpv5-d16
 1177              	scroll_y_anim:
 1178              	.LFB194:
 678:Drivers/lvgl/lvgl/src/core/lv_obj_scroll.c ****     _lv_obj_scroll_by_raw(obj, 0, v + lv_obj_get_scroll_y(obj));
 1179              		.loc 1 678 0
 1180              		.cfi_startproc
 1181              		@ args = 0, pretend = 0, frame = 0
 1182              		@ frame_needed = 0, uses_anonymous_args = 0
 1183              	.LVL149:
 1184 0000 38B5     		push	{r3, r4, r5, lr}
 1185              	.LCFI10:
 1186              		.cfi_def_cfa_offset 16
 1187              		.cfi_offset 3, -16
 1188              		.cfi_offset 4, -12
 1189              		.cfi_offset 5, -8
 1190              		.cfi_offset 14, -4
 1191 0002 0546     		mov	r5, r0
 1192 0004 0C46     		mov	r4, r1
 679:Drivers/lvgl/lvgl/src/core/lv_obj_scroll.c **** }
 1193              		.loc 1 679 0
 1194 0006 FFF7FEFF 		bl	lv_obj_get_scroll_y
 1195              	.LVL150:
 1196 000a 14FA80F2 		uxtah	r2, r4, r0
 1197 000e 12B2     		sxth	r2, r2
 1198 0010 0021     		movs	r1, #0
 1199 0012 2846     		mov	r0, r5
 1200 0014 FFF7FEFF 		bl	_lv_obj_scroll_by_raw
 1201              	.LVL151:
 680:Drivers/lvgl/lvgl/src/core/lv_obj_scroll.c **** 
 1202              		.loc 1 680 0
 1203 0018 38BD     		pop	{r3, r4, r5, pc}
 1204              		.cfi_endproc
 1205              	.LFE194:
 1207              		.section	.text.scroll_x_anim,"ax",%progbits
 1208              		.align	1
 1209              		.syntax unified
ARM GAS  /tmp/ccrtAI1Z.s 			page 46


 1210              		.thumb
 1211              		.thumb_func
 1212              		.fpu fpv5-d16
 1214              	scroll_x_anim:
 1215              	.LFB193:
 673:Drivers/lvgl/lvgl/src/core/lv_obj_scroll.c ****     _lv_obj_scroll_by_raw(obj, v + lv_obj_get_scroll_x(obj), 0);
 1216              		.loc 1 673 0
 1217              		.cfi_startproc
 1218              		@ args = 0, pretend = 0, frame = 0
 1219              		@ frame_needed = 0, uses_anonymous_args = 0
 1220              	.LVL152:
 1221 0000 38B5     		push	{r3, r4, r5, lr}
 1222              	.LCFI11:
 1223              		.cfi_def_cfa_offset 16
 1224              		.cfi_offset 3, -16
 1225              		.cfi_offset 4, -12
 1226              		.cfi_offset 5, -8
 1227              		.cfi_offset 14, -4
 1228 0002 0546     		mov	r5, r0
 1229 0004 0C46     		mov	r4, r1
 674:Drivers/lvgl/lvgl/src/core/lv_obj_scroll.c **** }
 1230              		.loc 1 674 0
 1231 0006 FFF7FEFF 		bl	lv_obj_get_scroll_x
 1232              	.LVL153:
 1233 000a 14FA80F1 		uxtah	r1, r4, r0
 1234 000e 0022     		movs	r2, #0
 1235 0010 09B2     		sxth	r1, r1
 1236 0012 2846     		mov	r0, r5
 1237 0014 FFF7FEFF 		bl	_lv_obj_scroll_by_raw
 1238              	.LVL154:
 675:Drivers/lvgl/lvgl/src/core/lv_obj_scroll.c **** 
 1239              		.loc 1 675 0
 1240 0018 38BD     		pop	{r3, r4, r5, pc}
 1241              		.cfi_endproc
 1242              	.LFE193:
 1244              		.section	.text.lv_obj_scroll_by,"ax",%progbits
 1245              		.align	1
 1246              		.global	lv_obj_scroll_by
 1247              		.syntax unified
 1248              		.thumb
 1249              		.thumb_func
 1250              		.fpu fpv5-d16
 1252              	lv_obj_scroll_by:
 1253              	.LFB181:
 304:Drivers/lvgl/lvgl/src/core/lv_obj_scroll.c ****     if(dx == 0 && dy == 0) return;
 1254              		.loc 1 304 0
 1255              		.cfi_startproc
 1256              		@ args = 0, pretend = 0, frame = 72
 1257              		@ frame_needed = 0, uses_anonymous_args = 0
 1258              	.LVL155:
 1259 0000 F0B5     		push	{r4, r5, r6, r7, lr}
 1260              	.LCFI12:
 1261              		.cfi_def_cfa_offset 20
 1262              		.cfi_offset 4, -20
 1263              		.cfi_offset 5, -16
 1264              		.cfi_offset 6, -12
 1265              		.cfi_offset 7, -8
ARM GAS  /tmp/ccrtAI1Z.s 			page 47


 1266              		.cfi_offset 14, -4
 1267 0002 93B0     		sub	sp, sp, #76
 1268              	.LCFI13:
 1269              		.cfi_def_cfa_offset 96
 305:Drivers/lvgl/lvgl/src/core/lv_obj_scroll.c ****     if(anim_en == LV_ANIM_ON) {
 1270              		.loc 1 305 0
 1271 0004 51EA0204 		orrs	r4, r1, r2
 1272 0008 12D0     		beq	.L85
 1273 000a 1646     		mov	r6, r2
 1274 000c 0D46     		mov	r5, r1
 1275 000e 0446     		mov	r4, r0
 306:Drivers/lvgl/lvgl/src/core/lv_obj_scroll.c ****         lv_disp_t * d = lv_obj_get_disp(obj);
 1276              		.loc 1 306 0
 1277 0010 012B     		cmp	r3, #1
 1278 0012 0FD0     		beq	.L98
 1279              	.LBB124:
 347:Drivers/lvgl/lvgl/src/core/lv_obj_scroll.c ****         lv_anim_del(obj, scroll_x_anim);
 1280              		.loc 1 347 0
 1281 0014 3E49     		ldr	r1, .L101
 1282              	.LVL156:
 1283 0016 FFF7FEFF 		bl	lv_anim_del
 1284              	.LVL157:
 348:Drivers/lvgl/lvgl/src/core/lv_obj_scroll.c **** 
 1285              		.loc 1 348 0
 1286 001a 3E49     		ldr	r1, .L101+4
 1287 001c 2046     		mov	r0, r4
 1288 001e FFF7FEFF 		bl	lv_anim_del
 1289              	.LVL158:
 351:Drivers/lvgl/lvgl/src/core/lv_obj_scroll.c ****         if(res != LV_RES_OK) return;
 1290              		.loc 1 351 0
 1291 0022 0022     		movs	r2, #0
 1292 0024 0921     		movs	r1, #9
 1293 0026 2046     		mov	r0, r4
 1294 0028 FFF7FEFF 		bl	lv_event_send
 1295              	.LVL159:
 352:Drivers/lvgl/lvgl/src/core/lv_obj_scroll.c **** 
 1296              		.loc 1 352 0
 1297 002c 0128     		cmp	r0, #1
 1298 002e 61D0     		beq	.L99
 1299              	.LVL160:
 1300              	.L85:
 1301              	.LBE124:
 360:Drivers/lvgl/lvgl/src/core/lv_obj_scroll.c **** 
 1302              		.loc 1 360 0
 1303 0030 13B0     		add	sp, sp, #76
 1304              	.LCFI14:
 1305              		.cfi_remember_state
 1306              		.cfi_def_cfa_offset 20
 1307              		@ sp needed
 1308 0032 F0BD     		pop	{r4, r5, r6, r7, pc}
 1309              	.LVL161:
 1310              	.L98:
 1311              	.LCFI15:
 1312              		.cfi_restore_state
 1313              	.LBB125:
 307:Drivers/lvgl/lvgl/src/core/lv_obj_scroll.c ****         lv_anim_t a;
 1314              		.loc 1 307 0
ARM GAS  /tmp/ccrtAI1Z.s 			page 48


 1315 0034 FFF7FEFF 		bl	lv_obj_get_disp
 1316              	.LVL162:
 1317 0038 0746     		mov	r7, r0
 1318              	.LVL163:
 309:Drivers/lvgl/lvgl/src/core/lv_obj_scroll.c ****         lv_anim_set_var(&a, obj);
 1319              		.loc 1 309 0
 1320 003a 01A8     		add	r0, sp, #4
 1321              	.LVL164:
 1322 003c FFF7FEFF 		bl	lv_anim_init
 1323              	.LVL165:
 1324              	.LBB126:
 1325              	.LBB127:
 1326              		.file 3 "Drivers/lvgl/lvgl/src/core/../misc/lv_anim.h"
   1:Drivers/lvgl/lvgl/src/core/../misc/lv_anim.h **** /**
   2:Drivers/lvgl/lvgl/src/core/../misc/lv_anim.h ****  * @file lv_anim.h
   3:Drivers/lvgl/lvgl/src/core/../misc/lv_anim.h ****  *
   4:Drivers/lvgl/lvgl/src/core/../misc/lv_anim.h ****  */
   5:Drivers/lvgl/lvgl/src/core/../misc/lv_anim.h **** 
   6:Drivers/lvgl/lvgl/src/core/../misc/lv_anim.h **** #ifndef LV_ANIM_H
   7:Drivers/lvgl/lvgl/src/core/../misc/lv_anim.h **** #define LV_ANIM_H
   8:Drivers/lvgl/lvgl/src/core/../misc/lv_anim.h **** 
   9:Drivers/lvgl/lvgl/src/core/../misc/lv_anim.h **** #ifdef __cplusplus
  10:Drivers/lvgl/lvgl/src/core/../misc/lv_anim.h **** extern "C" {
  11:Drivers/lvgl/lvgl/src/core/../misc/lv_anim.h **** #endif
  12:Drivers/lvgl/lvgl/src/core/../misc/lv_anim.h **** 
  13:Drivers/lvgl/lvgl/src/core/../misc/lv_anim.h **** /*********************
  14:Drivers/lvgl/lvgl/src/core/../misc/lv_anim.h ****  *      INCLUDES
  15:Drivers/lvgl/lvgl/src/core/../misc/lv_anim.h ****  *********************/
  16:Drivers/lvgl/lvgl/src/core/../misc/lv_anim.h **** #include "../lv_conf_internal.h"
  17:Drivers/lvgl/lvgl/src/core/../misc/lv_anim.h **** 
  18:Drivers/lvgl/lvgl/src/core/../misc/lv_anim.h **** #include <stdint.h>
  19:Drivers/lvgl/lvgl/src/core/../misc/lv_anim.h **** #include <stdbool.h>
  20:Drivers/lvgl/lvgl/src/core/../misc/lv_anim.h **** #include <stddef.h>
  21:Drivers/lvgl/lvgl/src/core/../misc/lv_anim.h **** 
  22:Drivers/lvgl/lvgl/src/core/../misc/lv_anim.h **** /*********************
  23:Drivers/lvgl/lvgl/src/core/../misc/lv_anim.h ****  *      DEFINES
  24:Drivers/lvgl/lvgl/src/core/../misc/lv_anim.h ****  *********************/
  25:Drivers/lvgl/lvgl/src/core/../misc/lv_anim.h **** 
  26:Drivers/lvgl/lvgl/src/core/../misc/lv_anim.h **** #define LV_ANIM_REPEAT_INFINITE      0xFFFF
  27:Drivers/lvgl/lvgl/src/core/../misc/lv_anim.h **** #define LV_ANIM_PLAYTIME_INFINITE    0xFFFFFFFF
  28:Drivers/lvgl/lvgl/src/core/../misc/lv_anim.h **** 
  29:Drivers/lvgl/lvgl/src/core/../misc/lv_anim.h **** LV_EXPORT_CONST_INT(LV_ANIM_REPEAT_INFINITE);
  30:Drivers/lvgl/lvgl/src/core/../misc/lv_anim.h **** LV_EXPORT_CONST_INT(LV_ANIM_PLAYTIME_INFINITE);
  31:Drivers/lvgl/lvgl/src/core/../misc/lv_anim.h **** 
  32:Drivers/lvgl/lvgl/src/core/../misc/lv_anim.h **** /**********************
  33:Drivers/lvgl/lvgl/src/core/../misc/lv_anim.h ****  *      TYPEDEFS
  34:Drivers/lvgl/lvgl/src/core/../misc/lv_anim.h ****  **********************/
  35:Drivers/lvgl/lvgl/src/core/../misc/lv_anim.h **** 
  36:Drivers/lvgl/lvgl/src/core/../misc/lv_anim.h **** /** Can be used to indicate if animations are enabled or disabled in a case*/
  37:Drivers/lvgl/lvgl/src/core/../misc/lv_anim.h **** typedef enum {
  38:Drivers/lvgl/lvgl/src/core/../misc/lv_anim.h ****     LV_ANIM_OFF,
  39:Drivers/lvgl/lvgl/src/core/../misc/lv_anim.h ****     LV_ANIM_ON,
  40:Drivers/lvgl/lvgl/src/core/../misc/lv_anim.h **** } lv_anim_enable_t;
  41:Drivers/lvgl/lvgl/src/core/../misc/lv_anim.h **** 
  42:Drivers/lvgl/lvgl/src/core/../misc/lv_anim.h **** struct _lv_anim_t;
  43:Drivers/lvgl/lvgl/src/core/../misc/lv_anim.h **** struct _lv_timer_t;
  44:Drivers/lvgl/lvgl/src/core/../misc/lv_anim.h **** 
ARM GAS  /tmp/ccrtAI1Z.s 			page 49


  45:Drivers/lvgl/lvgl/src/core/../misc/lv_anim.h **** /** Get the current value during an animation*/
  46:Drivers/lvgl/lvgl/src/core/../misc/lv_anim.h **** typedef int32_t (*lv_anim_path_cb_t)(const struct _lv_anim_t *);
  47:Drivers/lvgl/lvgl/src/core/../misc/lv_anim.h **** 
  48:Drivers/lvgl/lvgl/src/core/../misc/lv_anim.h **** /** Generic prototype of "animator" functions.
  49:Drivers/lvgl/lvgl/src/core/../misc/lv_anim.h ****  * First parameter is the variable to animate.
  50:Drivers/lvgl/lvgl/src/core/../misc/lv_anim.h ****  * Second parameter is the value to set.
  51:Drivers/lvgl/lvgl/src/core/../misc/lv_anim.h ****  * Compatible with `lv_xxx_set_yyy(obj, value)` functions
  52:Drivers/lvgl/lvgl/src/core/../misc/lv_anim.h ****  * The `x` in `_xcb_t` means it's not a fully generic prototype because
  53:Drivers/lvgl/lvgl/src/core/../misc/lv_anim.h ****  * it doesn't receive `lv_anim_t *` as its first argument*/
  54:Drivers/lvgl/lvgl/src/core/../misc/lv_anim.h **** typedef void (*lv_anim_exec_xcb_t)(void *, int32_t);
  55:Drivers/lvgl/lvgl/src/core/../misc/lv_anim.h **** 
  56:Drivers/lvgl/lvgl/src/core/../misc/lv_anim.h **** /** Same as `lv_anim_exec_xcb_t` but receives `lv_anim_t *` as the first parameter.
  57:Drivers/lvgl/lvgl/src/core/../misc/lv_anim.h ****  * It's more consistent but less convenient. Might be used by binding generator functions.*/
  58:Drivers/lvgl/lvgl/src/core/../misc/lv_anim.h **** typedef void (*lv_anim_custom_exec_cb_t)(struct _lv_anim_t *, int32_t);
  59:Drivers/lvgl/lvgl/src/core/../misc/lv_anim.h **** 
  60:Drivers/lvgl/lvgl/src/core/../misc/lv_anim.h **** /** Callback to call when the animation is ready*/
  61:Drivers/lvgl/lvgl/src/core/../misc/lv_anim.h **** typedef void (*lv_anim_ready_cb_t)(struct _lv_anim_t *);
  62:Drivers/lvgl/lvgl/src/core/../misc/lv_anim.h **** 
  63:Drivers/lvgl/lvgl/src/core/../misc/lv_anim.h **** /** Callback to call when the animation really stars (considering `delay`)*/
  64:Drivers/lvgl/lvgl/src/core/../misc/lv_anim.h **** typedef void (*lv_anim_start_cb_t)(struct _lv_anim_t *);
  65:Drivers/lvgl/lvgl/src/core/../misc/lv_anim.h **** 
  66:Drivers/lvgl/lvgl/src/core/../misc/lv_anim.h **** /** Callback used when the animation values are relative to get the current value*/
  67:Drivers/lvgl/lvgl/src/core/../misc/lv_anim.h **** typedef int32_t (*lv_anim_get_value_cb_t)(struct _lv_anim_t *);
  68:Drivers/lvgl/lvgl/src/core/../misc/lv_anim.h **** 
  69:Drivers/lvgl/lvgl/src/core/../misc/lv_anim.h **** /** Callback used when the animation is deleted*/
  70:Drivers/lvgl/lvgl/src/core/../misc/lv_anim.h **** typedef void (*lv_anim_deleted_cb_t)(struct _lv_anim_t *);
  71:Drivers/lvgl/lvgl/src/core/../misc/lv_anim.h **** 
  72:Drivers/lvgl/lvgl/src/core/../misc/lv_anim.h **** /** Describes an animation*/
  73:Drivers/lvgl/lvgl/src/core/../misc/lv_anim.h **** typedef struct _lv_anim_t {
  74:Drivers/lvgl/lvgl/src/core/../misc/lv_anim.h ****     void * var;                          /**<Variable to animate*/
  75:Drivers/lvgl/lvgl/src/core/../misc/lv_anim.h ****     lv_anim_exec_xcb_t exec_cb;          /**< Function to execute to animate*/
  76:Drivers/lvgl/lvgl/src/core/../misc/lv_anim.h ****     lv_anim_start_cb_t start_cb;         /**< Call it when the animation is starts (considering `de
  77:Drivers/lvgl/lvgl/src/core/../misc/lv_anim.h ****     lv_anim_ready_cb_t ready_cb;         /**< Call it when the animation is ready*/
  78:Drivers/lvgl/lvgl/src/core/../misc/lv_anim.h ****     lv_anim_deleted_cb_t deleted_cb;     /**< Call it when the animation is deleted*/
  79:Drivers/lvgl/lvgl/src/core/../misc/lv_anim.h ****     lv_anim_get_value_cb_t get_value_cb; /**< Get the current value in relative mode*/
  80:Drivers/lvgl/lvgl/src/core/../misc/lv_anim.h **** #if LV_USE_USER_DATA
  81:Drivers/lvgl/lvgl/src/core/../misc/lv_anim.h ****     void * user_data; /**< Custom user data*/
  82:Drivers/lvgl/lvgl/src/core/../misc/lv_anim.h **** #endif
  83:Drivers/lvgl/lvgl/src/core/../misc/lv_anim.h ****     lv_anim_path_cb_t path_cb;         /**< Describe the path (curve) of animations*/
  84:Drivers/lvgl/lvgl/src/core/../misc/lv_anim.h ****     int32_t start_value;               /**< Start value*/
  85:Drivers/lvgl/lvgl/src/core/../misc/lv_anim.h ****     int32_t current_value;             /**< Current value*/
  86:Drivers/lvgl/lvgl/src/core/../misc/lv_anim.h ****     int32_t end_value;                 /**< End value*/
  87:Drivers/lvgl/lvgl/src/core/../misc/lv_anim.h ****     int32_t time;                /**< Animation time in ms*/
  88:Drivers/lvgl/lvgl/src/core/../misc/lv_anim.h ****     int32_t act_time;            /**< Current time in animation. Set to negative to make delay.*/
  89:Drivers/lvgl/lvgl/src/core/../misc/lv_anim.h ****     uint32_t playback_delay;     /**< Wait before play back*/
  90:Drivers/lvgl/lvgl/src/core/../misc/lv_anim.h ****     uint32_t playback_time;      /**< Duration of playback animation*/
  91:Drivers/lvgl/lvgl/src/core/../misc/lv_anim.h ****     uint32_t repeat_delay;       /**< Wait before repeat*/
  92:Drivers/lvgl/lvgl/src/core/../misc/lv_anim.h ****     uint16_t repeat_cnt;         /**< Repeat count for the animation*/
  93:Drivers/lvgl/lvgl/src/core/../misc/lv_anim.h ****     uint8_t early_apply  : 1;    /**< 1: Apply start value immediately even is there is `delay`*/
  94:Drivers/lvgl/lvgl/src/core/../misc/lv_anim.h **** 
  95:Drivers/lvgl/lvgl/src/core/../misc/lv_anim.h ****     /*Animation system use these - user shouldn't set*/
  96:Drivers/lvgl/lvgl/src/core/../misc/lv_anim.h ****     uint8_t playback_now : 1; /**< Play back is in progress*/
  97:Drivers/lvgl/lvgl/src/core/../misc/lv_anim.h ****     uint8_t run_round : 1;    /**< Indicates the animation has run in this round*/
  98:Drivers/lvgl/lvgl/src/core/../misc/lv_anim.h ****     uint8_t start_cb_called : 1;    /**< Indicates that the `start_cb` was already called*/
  99:Drivers/lvgl/lvgl/src/core/../misc/lv_anim.h **** } lv_anim_t;
 100:Drivers/lvgl/lvgl/src/core/../misc/lv_anim.h **** 
 101:Drivers/lvgl/lvgl/src/core/../misc/lv_anim.h **** /**********************
ARM GAS  /tmp/ccrtAI1Z.s 			page 50


 102:Drivers/lvgl/lvgl/src/core/../misc/lv_anim.h ****  * GLOBAL PROTOTYPES
 103:Drivers/lvgl/lvgl/src/core/../misc/lv_anim.h ****  **********************/
 104:Drivers/lvgl/lvgl/src/core/../misc/lv_anim.h **** 
 105:Drivers/lvgl/lvgl/src/core/../misc/lv_anim.h **** /**
 106:Drivers/lvgl/lvgl/src/core/../misc/lv_anim.h ****  * Init. the animation module
 107:Drivers/lvgl/lvgl/src/core/../misc/lv_anim.h ****  */
 108:Drivers/lvgl/lvgl/src/core/../misc/lv_anim.h **** void _lv_anim_core_init(void);
 109:Drivers/lvgl/lvgl/src/core/../misc/lv_anim.h **** 
 110:Drivers/lvgl/lvgl/src/core/../misc/lv_anim.h **** /**
 111:Drivers/lvgl/lvgl/src/core/../misc/lv_anim.h ****  * Initialize an animation variable.
 112:Drivers/lvgl/lvgl/src/core/../misc/lv_anim.h ****  * E.g.:
 113:Drivers/lvgl/lvgl/src/core/../misc/lv_anim.h ****  * lv_anim_t a;
 114:Drivers/lvgl/lvgl/src/core/../misc/lv_anim.h ****  * lv_anim_init(&a);
 115:Drivers/lvgl/lvgl/src/core/../misc/lv_anim.h ****  * lv_anim_set_...(&a);
 116:Drivers/lvgl/lvgl/src/core/../misc/lv_anim.h ****  * lv_anim_start(&a);
 117:Drivers/lvgl/lvgl/src/core/../misc/lv_anim.h ****  * @param a     pointer to an `lv_anim_t` variable to initialize
 118:Drivers/lvgl/lvgl/src/core/../misc/lv_anim.h ****  */
 119:Drivers/lvgl/lvgl/src/core/../misc/lv_anim.h **** void lv_anim_init(lv_anim_t * a);
 120:Drivers/lvgl/lvgl/src/core/../misc/lv_anim.h **** 
 121:Drivers/lvgl/lvgl/src/core/../misc/lv_anim.h **** /**
 122:Drivers/lvgl/lvgl/src/core/../misc/lv_anim.h ****  * Set a variable to animate
 123:Drivers/lvgl/lvgl/src/core/../misc/lv_anim.h ****  * @param a     pointer to an initialized `lv_anim_t` variable
 124:Drivers/lvgl/lvgl/src/core/../misc/lv_anim.h ****  * @param var   pointer to a variable to animate
 125:Drivers/lvgl/lvgl/src/core/../misc/lv_anim.h ****  */
 126:Drivers/lvgl/lvgl/src/core/../misc/lv_anim.h **** static inline void lv_anim_set_var(lv_anim_t * a, void * var)
 127:Drivers/lvgl/lvgl/src/core/../misc/lv_anim.h **** {
 128:Drivers/lvgl/lvgl/src/core/../misc/lv_anim.h ****     a->var = var;
 1327              		.loc 3 128 0
 1328 0040 0194     		str	r4, [sp, #4]
 1329              	.LVL166:
 1330              	.LBE127:
 1331              	.LBE126:
 1332              	.LBB128:
 1333              	.LBB129:
 129:Drivers/lvgl/lvgl/src/core/../misc/lv_anim.h **** }
 130:Drivers/lvgl/lvgl/src/core/../misc/lv_anim.h **** 
 131:Drivers/lvgl/lvgl/src/core/../misc/lv_anim.h **** /**
 132:Drivers/lvgl/lvgl/src/core/../misc/lv_anim.h ****  * Set a function to animate `var`
 133:Drivers/lvgl/lvgl/src/core/../misc/lv_anim.h ****  * @param a         pointer to an initialized `lv_anim_t` variable
 134:Drivers/lvgl/lvgl/src/core/../misc/lv_anim.h ****  * @param exec_cb   a function to execute during animation
 135:Drivers/lvgl/lvgl/src/core/../misc/lv_anim.h ****  *                  LVGL's built-in functions can be used.
 136:Drivers/lvgl/lvgl/src/core/../misc/lv_anim.h ****  *                  E.g. lv_obj_set_x
 137:Drivers/lvgl/lvgl/src/core/../misc/lv_anim.h ****  */
 138:Drivers/lvgl/lvgl/src/core/../misc/lv_anim.h **** static inline void lv_anim_set_exec_cb(lv_anim_t * a, lv_anim_exec_xcb_t exec_cb)
 139:Drivers/lvgl/lvgl/src/core/../misc/lv_anim.h **** {
 140:Drivers/lvgl/lvgl/src/core/../misc/lv_anim.h ****     a->exec_cb = exec_cb;
 141:Drivers/lvgl/lvgl/src/core/../misc/lv_anim.h **** }
 142:Drivers/lvgl/lvgl/src/core/../misc/lv_anim.h **** 
 143:Drivers/lvgl/lvgl/src/core/../misc/lv_anim.h **** /**
 144:Drivers/lvgl/lvgl/src/core/../misc/lv_anim.h ****  * Set the duration of an animation
 145:Drivers/lvgl/lvgl/src/core/../misc/lv_anim.h ****  * @param a         pointer to an initialized `lv_anim_t` variable
 146:Drivers/lvgl/lvgl/src/core/../misc/lv_anim.h ****  * @param duration  duration of the animation in milliseconds
 147:Drivers/lvgl/lvgl/src/core/../misc/lv_anim.h ****  */
 148:Drivers/lvgl/lvgl/src/core/../misc/lv_anim.h **** static inline void lv_anim_set_time(lv_anim_t * a, uint32_t duration)
 149:Drivers/lvgl/lvgl/src/core/../misc/lv_anim.h **** {
 150:Drivers/lvgl/lvgl/src/core/../misc/lv_anim.h ****     a->time = duration;
 151:Drivers/lvgl/lvgl/src/core/../misc/lv_anim.h **** }
ARM GAS  /tmp/ccrtAI1Z.s 			page 51


 152:Drivers/lvgl/lvgl/src/core/../misc/lv_anim.h **** 
 153:Drivers/lvgl/lvgl/src/core/../misc/lv_anim.h **** /**
 154:Drivers/lvgl/lvgl/src/core/../misc/lv_anim.h ****  * Set a delay before starting the animation
 155:Drivers/lvgl/lvgl/src/core/../misc/lv_anim.h ****  * @param a         pointer to an initialized `lv_anim_t` variable
 156:Drivers/lvgl/lvgl/src/core/../misc/lv_anim.h ****  * @param delay     delay before the animation in milliseconds
 157:Drivers/lvgl/lvgl/src/core/../misc/lv_anim.h ****  */
 158:Drivers/lvgl/lvgl/src/core/../misc/lv_anim.h **** static inline void lv_anim_set_delay(lv_anim_t * a, uint32_t delay)
 159:Drivers/lvgl/lvgl/src/core/../misc/lv_anim.h **** {
 160:Drivers/lvgl/lvgl/src/core/../misc/lv_anim.h ****     a->act_time = -(int32_t)(delay);
 161:Drivers/lvgl/lvgl/src/core/../misc/lv_anim.h **** }
 162:Drivers/lvgl/lvgl/src/core/../misc/lv_anim.h **** 
 163:Drivers/lvgl/lvgl/src/core/../misc/lv_anim.h **** /**
 164:Drivers/lvgl/lvgl/src/core/../misc/lv_anim.h ****  * Set the start and end values of an animation
 165:Drivers/lvgl/lvgl/src/core/../misc/lv_anim.h ****  * @param a         pointer to an initialized `lv_anim_t` variable
 166:Drivers/lvgl/lvgl/src/core/../misc/lv_anim.h ****  * @param start     the start value
 167:Drivers/lvgl/lvgl/src/core/../misc/lv_anim.h ****  * @param end       the end value
 168:Drivers/lvgl/lvgl/src/core/../misc/lv_anim.h ****  */
 169:Drivers/lvgl/lvgl/src/core/../misc/lv_anim.h **** static inline void lv_anim_set_values(lv_anim_t * a, int32_t start, int32_t end)
 170:Drivers/lvgl/lvgl/src/core/../misc/lv_anim.h **** {
 171:Drivers/lvgl/lvgl/src/core/../misc/lv_anim.h ****     a->start_value = start;
 172:Drivers/lvgl/lvgl/src/core/../misc/lv_anim.h ****     a->current_value = start;
 173:Drivers/lvgl/lvgl/src/core/../misc/lv_anim.h ****     a->end_value = end;
 174:Drivers/lvgl/lvgl/src/core/../misc/lv_anim.h **** }
 175:Drivers/lvgl/lvgl/src/core/../misc/lv_anim.h **** 
 176:Drivers/lvgl/lvgl/src/core/../misc/lv_anim.h **** /**
 177:Drivers/lvgl/lvgl/src/core/../misc/lv_anim.h ****  * Similar to `lv_anim_set_exec_cb` but `lv_anim_custom_exec_cb_t` receives
 178:Drivers/lvgl/lvgl/src/core/../misc/lv_anim.h ****  * `lv_anim_t * ` as its first parameter instead of `void *`.
 179:Drivers/lvgl/lvgl/src/core/../misc/lv_anim.h ****  * This function might be used when LVGL is bound to other languages because
 180:Drivers/lvgl/lvgl/src/core/../misc/lv_anim.h ****  * it's more consistent to have `lv_anim_t *` as first parameter.
 181:Drivers/lvgl/lvgl/src/core/../misc/lv_anim.h ****  * The variable to animate can be stored in the animation's `user_data`
 182:Drivers/lvgl/lvgl/src/core/../misc/lv_anim.h ****  * @param a         pointer to an initialized `lv_anim_t` variable
 183:Drivers/lvgl/lvgl/src/core/../misc/lv_anim.h ****  * @param exec_cb   a function to execute.
 184:Drivers/lvgl/lvgl/src/core/../misc/lv_anim.h ****  */
 185:Drivers/lvgl/lvgl/src/core/../misc/lv_anim.h **** static inline void lv_anim_set_custom_exec_cb(lv_anim_t * a, lv_anim_custom_exec_cb_t exec_cb)
 186:Drivers/lvgl/lvgl/src/core/../misc/lv_anim.h **** {
 187:Drivers/lvgl/lvgl/src/core/../misc/lv_anim.h ****     a->var     = a;
 188:Drivers/lvgl/lvgl/src/core/../misc/lv_anim.h ****     a->exec_cb = (lv_anim_exec_xcb_t)exec_cb;
 189:Drivers/lvgl/lvgl/src/core/../misc/lv_anim.h **** }
 190:Drivers/lvgl/lvgl/src/core/../misc/lv_anim.h **** 
 191:Drivers/lvgl/lvgl/src/core/../misc/lv_anim.h **** /**
 192:Drivers/lvgl/lvgl/src/core/../misc/lv_anim.h ****  * Set the path (curve) of the animation.
 193:Drivers/lvgl/lvgl/src/core/../misc/lv_anim.h ****  * @param a         pointer to an initialized `lv_anim_t` variable
 194:Drivers/lvgl/lvgl/src/core/../misc/lv_anim.h ****  * @param path_cb a function to set the current value of the animation.
 195:Drivers/lvgl/lvgl/src/core/../misc/lv_anim.h ****  */
 196:Drivers/lvgl/lvgl/src/core/../misc/lv_anim.h **** static inline void lv_anim_set_path_cb(lv_anim_t * a, lv_anim_path_cb_t path_cb)
 197:Drivers/lvgl/lvgl/src/core/../misc/lv_anim.h **** {
 198:Drivers/lvgl/lvgl/src/core/../misc/lv_anim.h ****     a->path_cb = path_cb;
 199:Drivers/lvgl/lvgl/src/core/../misc/lv_anim.h **** }
 200:Drivers/lvgl/lvgl/src/core/../misc/lv_anim.h **** 
 201:Drivers/lvgl/lvgl/src/core/../misc/lv_anim.h **** /**
 202:Drivers/lvgl/lvgl/src/core/../misc/lv_anim.h ****  * Set a function call when the animation really starts (considering `delay`)
 203:Drivers/lvgl/lvgl/src/core/../misc/lv_anim.h ****  * @param a         pointer to an initialized `lv_anim_t` variable
 204:Drivers/lvgl/lvgl/src/core/../misc/lv_anim.h ****  * @param start_cb  a function call when the animation starts
 205:Drivers/lvgl/lvgl/src/core/../misc/lv_anim.h ****  */
 206:Drivers/lvgl/lvgl/src/core/../misc/lv_anim.h **** static inline void lv_anim_set_start_cb(lv_anim_t * a, lv_anim_start_cb_t start_cb)
 207:Drivers/lvgl/lvgl/src/core/../misc/lv_anim.h **** {
 208:Drivers/lvgl/lvgl/src/core/../misc/lv_anim.h ****     a->start_cb = start_cb;
ARM GAS  /tmp/ccrtAI1Z.s 			page 52


 209:Drivers/lvgl/lvgl/src/core/../misc/lv_anim.h **** }
 210:Drivers/lvgl/lvgl/src/core/../misc/lv_anim.h **** 
 211:Drivers/lvgl/lvgl/src/core/../misc/lv_anim.h **** /**
 212:Drivers/lvgl/lvgl/src/core/../misc/lv_anim.h ****  * Set a function to use the current value of the variable and make start and end value
 213:Drivers/lvgl/lvgl/src/core/../misc/lv_anim.h ****  * relative to the returned current value.
 214:Drivers/lvgl/lvgl/src/core/../misc/lv_anim.h ****  * @param a             pointer to an initialized `lv_anim_t` variable
 215:Drivers/lvgl/lvgl/src/core/../misc/lv_anim.h ****  * @param get_value_cb  a function call when the animation starts
 216:Drivers/lvgl/lvgl/src/core/../misc/lv_anim.h ****  */
 217:Drivers/lvgl/lvgl/src/core/../misc/lv_anim.h **** static inline void lv_anim_set_get_value_cb(lv_anim_t * a, lv_anim_get_value_cb_t get_value_cb)
 218:Drivers/lvgl/lvgl/src/core/../misc/lv_anim.h **** {
 219:Drivers/lvgl/lvgl/src/core/../misc/lv_anim.h ****     a->get_value_cb = get_value_cb;
 220:Drivers/lvgl/lvgl/src/core/../misc/lv_anim.h **** }
 221:Drivers/lvgl/lvgl/src/core/../misc/lv_anim.h **** 
 222:Drivers/lvgl/lvgl/src/core/../misc/lv_anim.h **** /**
 223:Drivers/lvgl/lvgl/src/core/../misc/lv_anim.h ****  * Set a function call when the animation is ready
 224:Drivers/lvgl/lvgl/src/core/../misc/lv_anim.h ****  * @param a         pointer to an initialized `lv_anim_t` variable
 225:Drivers/lvgl/lvgl/src/core/../misc/lv_anim.h ****  * @param ready_cb  a function call when the animation is ready
 226:Drivers/lvgl/lvgl/src/core/../misc/lv_anim.h ****  */
 227:Drivers/lvgl/lvgl/src/core/../misc/lv_anim.h **** static inline void lv_anim_set_ready_cb(lv_anim_t * a, lv_anim_ready_cb_t ready_cb)
 228:Drivers/lvgl/lvgl/src/core/../misc/lv_anim.h **** {
 229:Drivers/lvgl/lvgl/src/core/../misc/lv_anim.h ****     a->ready_cb = ready_cb;
 1334              		.loc 3 229 0
 1335 0042 354B     		ldr	r3, .L101+8
 1336 0044 0493     		str	r3, [sp, #16]
 1337              	.LVL167:
 1338              	.LBE129:
 1339              	.LBE128:
 313:Drivers/lvgl/lvgl/src/core/lv_obj_scroll.c ****             uint32_t t = lv_anim_speed_to_time((lv_disp_get_hor_res(d) * 2) >> 2, 0, dx);
 1340              		.loc 1 313 0
 1341 0046 95B9     		cbnz	r5, .L100
 1342              	.L88:
 329:Drivers/lvgl/lvgl/src/core/lv_obj_scroll.c ****             uint32_t t = lv_anim_speed_to_time((lv_disp_get_ver_res(d) * 2) >> 2, 0, dy);
 1343              		.loc 1 329 0
 1344 0048 002E     		cmp	r6, #0
 1345 004a F1D0     		beq	.L85
 1346              	.LBB130:
 330:Drivers/lvgl/lvgl/src/core/lv_obj_scroll.c ****             if(t < SCROLL_ANIM_TIME_MIN) t = SCROLL_ANIM_TIME_MIN;
 1347              		.loc 1 330 0
 1348 004c 3846     		mov	r0, r7
 1349 004e FFF7FEFF 		bl	lv_disp_get_ver_res
 1350              	.LVL168:
 1351 0052 3246     		mov	r2, r6
 1352 0054 0021     		movs	r1, #0
 1353 0056 40F35D00 		sbfx	r0, r0, #1, #30
 1354 005a FFF7FEFF 		bl	lv_anim_speed_to_time
 1355              	.LVL169:
 331:Drivers/lvgl/lvgl/src/core/lv_obj_scroll.c ****             if(t > SCROLL_ANIM_TIME_MAX) t = SCROLL_ANIM_TIME_MAX;
 1356              		.loc 1 331 0
 1357 005e C728     		cmp	r0, #199
 1358 0060 2FD9     		bls	.L95
 332:Drivers/lvgl/lvgl/src/core/lv_obj_scroll.c ****             lv_anim_set_time(&a, t);
 1359              		.loc 1 332 0
 1360 0062 B0F5C87F 		cmp	r0, #400
 1361 0066 2DD9     		bls	.L92
 1362 0068 4FF4C870 		mov	r0, #400
 1363              	.LVL170:
 1364 006c 2AE0     		b	.L92
ARM GAS  /tmp/ccrtAI1Z.s 			page 53


 1365              	.L100:
 1366              	.LBE130:
 1367              	.LBB139:
 314:Drivers/lvgl/lvgl/src/core/lv_obj_scroll.c ****             if(t < SCROLL_ANIM_TIME_MIN) t = SCROLL_ANIM_TIME_MIN;
 1368              		.loc 1 314 0
 1369 006e 3846     		mov	r0, r7
 1370 0070 FFF7FEFF 		bl	lv_disp_get_hor_res
 1371              	.LVL171:
 1372 0074 2A46     		mov	r2, r5
 1373 0076 0021     		movs	r1, #0
 1374 0078 40F35D00 		sbfx	r0, r0, #1, #30
 1375 007c FFF7FEFF 		bl	lv_anim_speed_to_time
 1376              	.LVL172:
 315:Drivers/lvgl/lvgl/src/core/lv_obj_scroll.c ****             if(t > SCROLL_ANIM_TIME_MAX) t = SCROLL_ANIM_TIME_MAX;
 1377              		.loc 1 315 0
 1378 0080 C728     		cmp	r0, #199
 1379 0082 05D9     		bls	.L93
 316:Drivers/lvgl/lvgl/src/core/lv_obj_scroll.c ****             lv_anim_set_time(&a, t);
 1380              		.loc 1 316 0
 1381 0084 B0F5C87F 		cmp	r0, #400
 1382 0088 03D9     		bls	.L89
 1383 008a 4FF4C870 		mov	r0, #400
 1384              	.LVL173:
 1385 008e 00E0     		b	.L89
 1386              	.LVL174:
 1387              	.L93:
 315:Drivers/lvgl/lvgl/src/core/lv_obj_scroll.c ****             if(t > SCROLL_ANIM_TIME_MAX) t = SCROLL_ANIM_TIME_MAX;
 1388              		.loc 1 315 0
 1389 0090 C820     		movs	r0, #200
 1390              	.LVL175:
 1391              	.L89:
 1392              	.LBB140:
 1393              	.LBB141:
 150:Drivers/lvgl/lvgl/src/core/../misc/lv_anim.h **** }
 1394              		.loc 3 150 0
 1395 0092 0C90     		str	r0, [sp, #48]
 1396              	.LVL176:
 1397              	.LBE141:
 1398              	.LBE140:
 318:Drivers/lvgl/lvgl/src/core/lv_obj_scroll.c ****             lv_anim_set_values(&a, -sx, -sx + dx);
 1399              		.loc 1 318 0
 1400 0094 2046     		mov	r0, r4
 1401              	.LVL177:
 1402 0096 FFF7FEFF 		bl	lv_obj_get_scroll_x
 1403              	.LVL178:
 319:Drivers/lvgl/lvgl/src/core/lv_obj_scroll.c ****             lv_anim_set_exec_cb(&a, scroll_x_anim);
 1404              		.loc 1 319 0
 1405 009a 4342     		negs	r3, r0
 1406 009c 281A     		subs	r0, r5, r0
 1407              	.LVL179:
 1408              	.LBB142:
 1409              	.LBB143:
 171:Drivers/lvgl/lvgl/src/core/../misc/lv_anim.h ****     a->current_value = start;
 1410              		.loc 3 171 0
 1411 009e 0993     		str	r3, [sp, #36]
 172:Drivers/lvgl/lvgl/src/core/../misc/lv_anim.h ****     a->end_value = end;
 1412              		.loc 3 172 0
ARM GAS  /tmp/ccrtAI1Z.s 			page 54


 1413 00a0 0A93     		str	r3, [sp, #40]
 173:Drivers/lvgl/lvgl/src/core/../misc/lv_anim.h **** }
 1414              		.loc 3 173 0
 1415 00a2 0B90     		str	r0, [sp, #44]
 1416              	.LVL180:
 1417              	.LBE143:
 1418              	.LBE142:
 1419              	.LBB144:
 1420              	.LBB145:
 140:Drivers/lvgl/lvgl/src/core/../misc/lv_anim.h **** }
 1421              		.loc 3 140 0
 1422 00a4 1B4B     		ldr	r3, .L101+4
 1423 00a6 0293     		str	r3, [sp, #8]
 1424              	.LVL181:
 1425              	.LBE145:
 1426              	.LBE144:
 1427              	.LBB146:
 1428              	.LBB147:
 198:Drivers/lvgl/lvgl/src/core/../misc/lv_anim.h **** }
 1429              		.loc 3 198 0
 1430 00a8 1C4B     		ldr	r3, .L101+12
 1431 00aa 0893     		str	r3, [sp, #32]
 1432              	.LVL182:
 1433              	.LBE147:
 1434              	.LBE146:
 324:Drivers/lvgl/lvgl/src/core/lv_obj_scroll.c ****             if(res != LV_RES_OK) return;
 1435              		.loc 1 324 0
 1436 00ac 01AA     		add	r2, sp, #4
 1437 00ae 0921     		movs	r1, #9
 1438 00b0 2046     		mov	r0, r4
 1439 00b2 FFF7FEFF 		bl	lv_event_send
 1440              	.LVL183:
 325:Drivers/lvgl/lvgl/src/core/lv_obj_scroll.c ****             lv_anim_start(&a);
 1441              		.loc 1 325 0
 1442 00b6 0128     		cmp	r0, #1
 1443 00b8 BAD1     		bne	.L85
 326:Drivers/lvgl/lvgl/src/core/lv_obj_scroll.c ****         }
 1444              		.loc 1 326 0
 1445 00ba 01A8     		add	r0, sp, #4
 1446              	.LVL184:
 1447 00bc FFF7FEFF 		bl	lv_anim_start
 1448              	.LVL185:
 1449 00c0 C2E7     		b	.L88
 1450              	.LVL186:
 1451              	.L95:
 1452              	.LBE139:
 1453              	.LBB148:
 331:Drivers/lvgl/lvgl/src/core/lv_obj_scroll.c ****             if(t > SCROLL_ANIM_TIME_MAX) t = SCROLL_ANIM_TIME_MAX;
 1454              		.loc 1 331 0
 1455 00c2 C820     		movs	r0, #200
 1456              	.LVL187:
 1457              	.L92:
 1458              	.LBB131:
 1459              	.LBB132:
 150:Drivers/lvgl/lvgl/src/core/../misc/lv_anim.h **** }
 1460              		.loc 3 150 0
 1461 00c4 0C90     		str	r0, [sp, #48]
ARM GAS  /tmp/ccrtAI1Z.s 			page 55


 1462              	.LVL188:
 1463              	.LBE132:
 1464              	.LBE131:
 334:Drivers/lvgl/lvgl/src/core/lv_obj_scroll.c ****             lv_anim_set_values(&a, -sy, -sy + dy);
 1465              		.loc 1 334 0
 1466 00c6 2046     		mov	r0, r4
 1467              	.LVL189:
 1468 00c8 FFF7FEFF 		bl	lv_obj_get_scroll_y
 1469              	.LVL190:
 335:Drivers/lvgl/lvgl/src/core/lv_obj_scroll.c ****             lv_anim_set_exec_cb(&a,  scroll_y_anim);
 1470              		.loc 1 335 0
 1471 00cc 4342     		negs	r3, r0
 1472 00ce 301A     		subs	r0, r6, r0
 1473              	.LVL191:
 1474              	.LBB133:
 1475              	.LBB134:
 171:Drivers/lvgl/lvgl/src/core/../misc/lv_anim.h ****     a->current_value = start;
 1476              		.loc 3 171 0
 1477 00d0 0993     		str	r3, [sp, #36]
 172:Drivers/lvgl/lvgl/src/core/../misc/lv_anim.h ****     a->end_value = end;
 1478              		.loc 3 172 0
 1479 00d2 0A93     		str	r3, [sp, #40]
 173:Drivers/lvgl/lvgl/src/core/../misc/lv_anim.h **** }
 1480              		.loc 3 173 0
 1481 00d4 0B90     		str	r0, [sp, #44]
 1482              	.LVL192:
 1483              	.LBE134:
 1484              	.LBE133:
 1485              	.LBB135:
 1486              	.LBB136:
 140:Drivers/lvgl/lvgl/src/core/../misc/lv_anim.h **** }
 1487              		.loc 3 140 0
 1488 00d6 0E4B     		ldr	r3, .L101
 1489 00d8 0293     		str	r3, [sp, #8]
 1490              	.LVL193:
 1491              	.LBE136:
 1492              	.LBE135:
 1493              	.LBB137:
 1494              	.LBB138:
 198:Drivers/lvgl/lvgl/src/core/../misc/lv_anim.h **** }
 1495              		.loc 3 198 0
 1496 00da 104B     		ldr	r3, .L101+12
 1497 00dc 0893     		str	r3, [sp, #32]
 1498              	.LVL194:
 1499              	.LBE138:
 1500              	.LBE137:
 340:Drivers/lvgl/lvgl/src/core/lv_obj_scroll.c ****             if(res != LV_RES_OK) return;
 1501              		.loc 1 340 0
 1502 00de 01AA     		add	r2, sp, #4
 1503 00e0 0921     		movs	r1, #9
 1504 00e2 2046     		mov	r0, r4
 1505 00e4 FFF7FEFF 		bl	lv_event_send
 1506              	.LVL195:
 341:Drivers/lvgl/lvgl/src/core/lv_obj_scroll.c ****             lv_anim_start(&a);
 1507              		.loc 1 341 0
 1508 00e8 0128     		cmp	r0, #1
 1509 00ea A1D1     		bne	.L85
ARM GAS  /tmp/ccrtAI1Z.s 			page 56


 342:Drivers/lvgl/lvgl/src/core/lv_obj_scroll.c ****         }
 1510              		.loc 1 342 0
 1511 00ec 01A8     		add	r0, sp, #4
 1512              	.LVL196:
 1513 00ee FFF7FEFF 		bl	lv_anim_start
 1514              	.LVL197:
 1515 00f2 9DE7     		b	.L85
 1516              	.LVL198:
 1517              	.L99:
 1518              	.LBE148:
 1519              	.LBE125:
 1520              	.LBB149:
 354:Drivers/lvgl/lvgl/src/core/lv_obj_scroll.c ****         if(res != LV_RES_OK) return;
 1521              		.loc 1 354 0
 1522 00f4 3246     		mov	r2, r6
 1523 00f6 2946     		mov	r1, r5
 1524 00f8 2046     		mov	r0, r4
 1525              	.LVL199:
 1526 00fa FFF7FEFF 		bl	_lv_obj_scroll_by_raw
 1527              	.LVL200:
 355:Drivers/lvgl/lvgl/src/core/lv_obj_scroll.c **** 
 1528              		.loc 1 355 0
 1529 00fe 0128     		cmp	r0, #1
 1530 0100 96D1     		bne	.L85
 357:Drivers/lvgl/lvgl/src/core/lv_obj_scroll.c ****         if(res != LV_RES_OK) return;
 1531              		.loc 1 357 0
 1532 0102 0022     		movs	r2, #0
 1533 0104 0A21     		movs	r1, #10
 1534 0106 2046     		mov	r0, r4
 1535              	.LVL201:
 1536 0108 FFF7FEFF 		bl	lv_event_send
 1537              	.LVL202:
 1538 010c 90E7     		b	.L85
 1539              	.L102:
 1540 010e 00BF     		.align	2
 1541              	.L101:
 1542 0110 00000000 		.word	scroll_y_anim
 1543 0114 00000000 		.word	scroll_x_anim
 1544 0118 00000000 		.word	scroll_anim_ready_cb
 1545 011c 00000000 		.word	lv_anim_path_ease_out
 1546              	.LBE149:
 1547              		.cfi_endproc
 1548              	.LFE181:
 1550              		.section	.text.lv_obj_scroll_by_bounded,"ax",%progbits
 1551              		.align	1
 1552              		.global	lv_obj_scroll_by_bounded
 1553              		.syntax unified
 1554              		.thumb
 1555              		.thumb_func
 1556              		.fpu fpv5-d16
 1558              	lv_obj_scroll_by_bounded:
 1559              	.LFB180:
 255:Drivers/lvgl/lvgl/src/core/lv_obj_scroll.c ****     if(dx == 0 && dy == 0) return;
 1560              		.loc 1 255 0
 1561              		.cfi_startproc
 1562              		@ args = 0, pretend = 0, frame = 0
 1563              		@ frame_needed = 0, uses_anonymous_args = 0
ARM GAS  /tmp/ccrtAI1Z.s 			page 57


 1564              	.LVL203:
 1565 0000 2DE9F047 		push	{r4, r5, r6, r7, r8, r9, r10, lr}
 1566              	.LCFI16:
 1567              		.cfi_def_cfa_offset 32
 1568              		.cfi_offset 4, -32
 1569              		.cfi_offset 5, -28
 1570              		.cfi_offset 6, -24
 1571              		.cfi_offset 7, -20
 1572              		.cfi_offset 8, -16
 1573              		.cfi_offset 9, -12
 1574              		.cfi_offset 10, -8
 1575              		.cfi_offset 14, -4
 256:Drivers/lvgl/lvgl/src/core/lv_obj_scroll.c **** 
 1576              		.loc 1 256 0
 1577 0004 51EA0204 		orrs	r4, r1, r2
 1578 0008 01D1     		bne	.L119
 1579              	.LVL204:
 1580              	.L103:
 300:Drivers/lvgl/lvgl/src/core/lv_obj_scroll.c **** 
 1581              		.loc 1 300 0
 1582 000a BDE8F087 		pop	{r4, r5, r6, r7, r8, r9, r10, pc}
 1583              	.LVL205:
 1584              	.L119:
 1585 000e 9846     		mov	r8, r3
 1586 0010 1646     		mov	r6, r2
 1587 0012 0C46     		mov	r4, r1
 1588 0014 0746     		mov	r7, r0
 259:Drivers/lvgl/lvgl/src/core/lv_obj_scroll.c **** 
 1589              		.loc 1 259 0
 1590 0016 FFF7FEFF 		bl	lv_obj_update_layout
 1591              	.LVL206:
 262:Drivers/lvgl/lvgl/src/core/lv_obj_scroll.c ****     lv_coord_t x_bounded = x_current + dx;
 1592              		.loc 1 262 0
 1593 001a 3846     		mov	r0, r7
 1594 001c FFF7FEFF 		bl	lv_obj_get_scroll_x
 1595              	.LVL207:
 1596 0020 1FFA80F9 		uxth	r9, r0
 1597              	.LVL208:
 263:Drivers/lvgl/lvgl/src/core/lv_obj_scroll.c **** 
 1598              		.loc 1 263 0
 1599 0024 A4B2     		uxth	r4, r4
 1600 0026 A4EB0904 		sub	r4, r4, r9
 1601 002a 24B2     		sxth	r4, r4
 1602              	.LVL209:
 1603              	.LBB150:
 1604              	.LBB151:
 561:Drivers/lvgl/lvgl/src/core/lv_obj_style_gen.h ****     return (lv_base_dir_t)v.num;
 1605              		.loc 2 561 0
 1606 002c 1622     		movs	r2, #22
 1607 002e 0021     		movs	r1, #0
 1608 0030 3846     		mov	r0, r7
 1609 0032 FFF7FEFF 		bl	lv_obj_get_style_prop
 1610              	.LVL210:
 1611              		.loc 2 562 0
 1612 0036 C0B2     		uxtb	r0, r0
 1613              	.LVL211:
 1614              	.LBE151:
ARM GAS  /tmp/ccrtAI1Z.s 			page 58


 1615              	.LBE150:
 265:Drivers/lvgl/lvgl/src/core/lv_obj_scroll.c ****         if(x_bounded > 0) x_bounded = 0;
 1616              		.loc 1 265 0
 1617 0038 0128     		cmp	r0, #1
 1618 003a 2CD0     		beq	.L105
 266:Drivers/lvgl/lvgl/src/core/lv_obj_scroll.c ****         if(x_bounded < 0) {
 1619              		.loc 1 266 0
 1620 003c 002C     		cmp	r4, #0
 1621 003e 16DD     		ble	.L120
 1622 0040 0024     		movs	r4, #0
 1623              	.LVL212:
 1624              	.L106:
 285:Drivers/lvgl/lvgl/src/core/lv_obj_scroll.c ****     lv_coord_t y_bounded = y_current + dy;
 1625              		.loc 1 285 0
 1626 0042 3846     		mov	r0, r7
 1627 0044 FFF7FEFF 		bl	lv_obj_get_scroll_y
 1628              	.LVL213:
 1629 0048 85B2     		uxth	r5, r0
 1630              	.LVL214:
 286:Drivers/lvgl/lvgl/src/core/lv_obj_scroll.c **** 
 1631              		.loc 1 286 0
 1632 004a B6B2     		uxth	r6, r6
 1633 004c 761B     		subs	r6, r6, r5
 1634 004e 36B2     		sxth	r6, r6
 1635              	.LVL215:
 288:Drivers/lvgl/lvgl/src/core/lv_obj_scroll.c ****     if(y_bounded < 0) {
 1636              		.loc 1 288 0
 1637 0050 002E     		cmp	r6, #0
 1638 0052 37DD     		ble	.L121
 1639 0054 0026     		movs	r6, #0
 1640              	.LVL216:
 1641              	.L109:
 295:Drivers/lvgl/lvgl/src/core/lv_obj_scroll.c ****     dy = y_bounded - y_current;
 1642              		.loc 1 295 0
 1643 0056 4C44     		add	r4, r4, r9
 1644              	.LVL217:
 1645 0058 21B2     		sxth	r1, r4
 1646              	.LVL218:
 296:Drivers/lvgl/lvgl/src/core/lv_obj_scroll.c ****     if(dx || dy) {
 1647              		.loc 1 296 0
 1648 005a 2E44     		add	r6, r6, r5
 1649              	.LVL219:
 1650 005c 32B2     		sxth	r2, r6
 1651              	.LVL220:
 297:Drivers/lvgl/lvgl/src/core/lv_obj_scroll.c ****         lv_obj_scroll_by(obj, dx, dy, anim_en);
 1652              		.loc 1 297 0
 1653 005e 51EA0203 		orrs	r3, r1, r2
 1654 0062 D2D0     		beq	.L103
 298:Drivers/lvgl/lvgl/src/core/lv_obj_scroll.c ****     }
 1655              		.loc 1 298 0
 1656 0064 4346     		mov	r3, r8
 1657 0066 3846     		mov	r0, r7
 1658 0068 FFF7FEFF 		bl	lv_obj_scroll_by
 1659              	.LVL221:
 1660 006c CDE7     		b	.L103
 1661              	.LVL222:
 1662              	.L120:
ARM GAS  /tmp/ccrtAI1Z.s 			page 59


 267:Drivers/lvgl/lvgl/src/core/lv_obj_scroll.c ****             lv_coord_t  scroll_max = lv_obj_get_scroll_left(obj) + lv_obj_get_scroll_right(obj);
 1663              		.loc 1 267 0
 1664 006e E8DA     		bge	.L106
 1665              	.LBB152:
 268:Drivers/lvgl/lvgl/src/core/lv_obj_scroll.c ****             if(scroll_max < 0) scroll_max = 0;
 1666              		.loc 1 268 0
 1667 0070 3846     		mov	r0, r7
 1668 0072 FFF7FEFF 		bl	lv_obj_get_scroll_left
 1669              	.LVL223:
 1670 0076 85B2     		uxth	r5, r0
 1671 0078 3846     		mov	r0, r7
 1672 007a FFF7FEFF 		bl	lv_obj_get_scroll_right
 1673              	.LVL224:
 1674 007e 15FA80F0 		uxtah	r0, r5, r0
 1675 0082 00B2     		sxth	r0, r0
 1676              	.LVL225:
 269:Drivers/lvgl/lvgl/src/core/lv_obj_scroll.c **** 
 1677              		.loc 1 269 0
 1678 0084 0028     		cmp	r0, #0
 1679 0086 04DB     		blt	.L122
 1680              	.LVL226:
 1681              	.L107:
 271:Drivers/lvgl/lvgl/src/core/lv_obj_scroll.c ****         }
 1682              		.loc 1 271 0
 1683 0088 4342     		negs	r3, r0
 1684 008a 9C42     		cmp	r4, r3
 1685 008c D9DA     		bge	.L106
 271:Drivers/lvgl/lvgl/src/core/lv_obj_scroll.c ****         }
 1686              		.loc 1 271 0 is_stmt 0 discriminator 1
 1687 008e 1CB2     		sxth	r4, r3
 1688              	.LVL227:
 1689 0090 D7E7     		b	.L106
 1690              	.L122:
 269:Drivers/lvgl/lvgl/src/core/lv_obj_scroll.c **** 
 1691              		.loc 1 269 0 is_stmt 1
 1692 0092 0020     		movs	r0, #0
 1693              	.LVL228:
 1694 0094 F8E7     		b	.L107
 1695              	.L105:
 1696              	.LBE152:
 275:Drivers/lvgl/lvgl/src/core/lv_obj_scroll.c ****         if(x_bounded > 0) {
 1697              		.loc 1 275 0
 1698 0096 002C     		cmp	r4, #0
 1699 0098 12DB     		blt	.L113
 276:Drivers/lvgl/lvgl/src/core/lv_obj_scroll.c ****             lv_coord_t  scroll_max = lv_obj_get_scroll_left(obj) + lv_obj_get_scroll_right(obj);
 1700              		.loc 1 276 0
 1701 009a D2DD     		ble	.L106
 1702              	.LBB153:
 277:Drivers/lvgl/lvgl/src/core/lv_obj_scroll.c ****             if(scroll_max < 0) scroll_max = 0;
 1703              		.loc 1 277 0
 1704 009c 3846     		mov	r0, r7
 1705 009e FFF7FEFF 		bl	lv_obj_get_scroll_left
 1706              	.LVL229:
 1707 00a2 85B2     		uxth	r5, r0
 1708 00a4 3846     		mov	r0, r7
 1709 00a6 FFF7FEFF 		bl	lv_obj_get_scroll_right
 1710              	.LVL230:
ARM GAS  /tmp/ccrtAI1Z.s 			page 60


 1711 00aa 15FA80F0 		uxtah	r0, r5, r0
 1712 00ae 00B2     		sxth	r0, r0
 1713              	.LVL231:
 278:Drivers/lvgl/lvgl/src/core/lv_obj_scroll.c **** 
 1714              		.loc 1 278 0
 1715 00b0 0028     		cmp	r0, #0
 1716 00b2 03DB     		blt	.L123
 1717              	.LVL232:
 1718              	.L108:
 280:Drivers/lvgl/lvgl/src/core/lv_obj_scroll.c ****         }
 1719              		.loc 1 280 0
 1720 00b4 A042     		cmp	r0, r4
 1721 00b6 C4DA     		bge	.L106
 1722 00b8 0446     		mov	r4, r0
 1723              	.LVL233:
 1724 00ba C2E7     		b	.L106
 1725              	.LVL234:
 1726              	.L123:
 278:Drivers/lvgl/lvgl/src/core/lv_obj_scroll.c **** 
 1727              		.loc 1 278 0
 1728 00bc 0020     		movs	r0, #0
 1729              	.LVL235:
 1730 00be F9E7     		b	.L108
 1731              	.L113:
 1732              	.LBE153:
 275:Drivers/lvgl/lvgl/src/core/lv_obj_scroll.c ****         if(x_bounded > 0) {
 1733              		.loc 1 275 0
 1734 00c0 0024     		movs	r4, #0
 1735              	.LVL236:
 1736 00c2 BEE7     		b	.L106
 1737              	.LVL237:
 1738              	.L121:
 289:Drivers/lvgl/lvgl/src/core/lv_obj_scroll.c ****         lv_coord_t  scroll_max = lv_obj_get_scroll_top(obj) + lv_obj_get_scroll_bottom(obj);
 1739              		.loc 1 289 0
 1740 00c4 C7DA     		bge	.L109
 1741              	.LBB154:
 290:Drivers/lvgl/lvgl/src/core/lv_obj_scroll.c ****         if(scroll_max < 0) scroll_max = 0;
 1742              		.loc 1 290 0
 1743 00c6 3846     		mov	r0, r7
 1744 00c8 FFF7FEFF 		bl	lv_obj_get_scroll_top
 1745              	.LVL238:
 1746 00cc 1FFA80FA 		uxth	r10, r0
 1747 00d0 3846     		mov	r0, r7
 1748 00d2 FFF7FEFF 		bl	lv_obj_get_scroll_bottom
 1749              	.LVL239:
 1750 00d6 1AFA80F0 		uxtah	r0, r10, r0
 1751 00da 00B2     		sxth	r0, r0
 1752              	.LVL240:
 291:Drivers/lvgl/lvgl/src/core/lv_obj_scroll.c ****         if(y_bounded < -scroll_max) y_bounded = -scroll_max;
 1753              		.loc 1 291 0
 1754 00dc 0028     		cmp	r0, #0
 1755 00de 04DB     		blt	.L124
 1756              	.LVL241:
 1757              	.L110:
 292:Drivers/lvgl/lvgl/src/core/lv_obj_scroll.c ****     }
 1758              		.loc 1 292 0
 1759 00e0 4342     		negs	r3, r0
ARM GAS  /tmp/ccrtAI1Z.s 			page 61


 1760 00e2 9E42     		cmp	r6, r3
 1761 00e4 B7DA     		bge	.L109
 292:Drivers/lvgl/lvgl/src/core/lv_obj_scroll.c ****     }
 1762              		.loc 1 292 0 is_stmt 0 discriminator 1
 1763 00e6 1EB2     		sxth	r6, r3
 1764              	.LVL242:
 1765 00e8 B5E7     		b	.L109
 1766              	.L124:
 291:Drivers/lvgl/lvgl/src/core/lv_obj_scroll.c ****         if(y_bounded < -scroll_max) y_bounded = -scroll_max;
 1767              		.loc 1 291 0 is_stmt 1
 1768 00ea 0020     		movs	r0, #0
 1769              	.LVL243:
 1770 00ec F8E7     		b	.L110
 1771              	.LBE154:
 1772              		.cfi_endproc
 1773              	.LFE180:
 1775              		.section	.text.lv_obj_scroll_to_x,"ax",%progbits
 1776              		.align	1
 1777              		.global	lv_obj_scroll_to_x
 1778              		.syntax unified
 1779              		.thumb
 1780              		.thumb_func
 1781              		.fpu fpv5-d16
 1783              	lv_obj_scroll_to_x:
 1784              	.LFB183:
 369:Drivers/lvgl/lvgl/src/core/lv_obj_scroll.c ****     lv_anim_del(obj, scroll_x_anim);
 1785              		.loc 1 369 0
 1786              		.cfi_startproc
 1787              		@ args = 0, pretend = 0, frame = 0
 1788              		@ frame_needed = 0, uses_anonymous_args = 0
 1789              	.LVL244:
 1790 0000 70B5     		push	{r4, r5, r6, lr}
 1791              	.LCFI17:
 1792              		.cfi_def_cfa_offset 16
 1793              		.cfi_offset 4, -16
 1794              		.cfi_offset 5, -12
 1795              		.cfi_offset 6, -8
 1796              		.cfi_offset 14, -4
 1797 0002 0546     		mov	r5, r0
 1798 0004 0C46     		mov	r4, r1
 1799 0006 1646     		mov	r6, r2
 370:Drivers/lvgl/lvgl/src/core/lv_obj_scroll.c **** 
 1800              		.loc 1 370 0
 1801 0008 0649     		ldr	r1, .L127
 1802              	.LVL245:
 1803 000a FFF7FEFF 		bl	lv_anim_del
 1804              	.LVL246:
 372:Drivers/lvgl/lvgl/src/core/lv_obj_scroll.c ****     lv_coord_t diff = -x + scroll_x;
 1805              		.loc 1 372 0
 1806 000e 2846     		mov	r0, r5
 1807 0010 FFF7FEFF 		bl	lv_obj_get_scroll_x
 1808              	.LVL247:
 373:Drivers/lvgl/lvgl/src/core/lv_obj_scroll.c **** 
 1809              		.loc 1 373 0
 1810 0014 011B     		subs	r1, r0, r4
 1811              	.LVL248:
 375:Drivers/lvgl/lvgl/src/core/lv_obj_scroll.c **** }
ARM GAS  /tmp/ccrtAI1Z.s 			page 62


 1812              		.loc 1 375 0
 1813 0016 3346     		mov	r3, r6
 1814 0018 0022     		movs	r2, #0
 1815 001a 09B2     		sxth	r1, r1
 1816 001c 2846     		mov	r0, r5
 1817              	.LVL249:
 1818 001e FFF7FEFF 		bl	lv_obj_scroll_by_bounded
 1819              	.LVL250:
 376:Drivers/lvgl/lvgl/src/core/lv_obj_scroll.c **** 
 1820              		.loc 1 376 0
 1821 0022 70BD     		pop	{r4, r5, r6, pc}
 1822              	.LVL251:
 1823              	.L128:
 1824              		.align	2
 1825              	.L127:
 1826 0024 00000000 		.word	scroll_x_anim
 1827              		.cfi_endproc
 1828              	.LFE183:
 1830              		.section	.text.lv_obj_scroll_to_y,"ax",%progbits
 1831              		.align	1
 1832              		.global	lv_obj_scroll_to_y
 1833              		.syntax unified
 1834              		.thumb
 1835              		.thumb_func
 1836              		.fpu fpv5-d16
 1838              	lv_obj_scroll_to_y:
 1839              	.LFB184:
 379:Drivers/lvgl/lvgl/src/core/lv_obj_scroll.c ****     lv_anim_del(obj, scroll_y_anim);
 1840              		.loc 1 379 0
 1841              		.cfi_startproc
 1842              		@ args = 0, pretend = 0, frame = 0
 1843              		@ frame_needed = 0, uses_anonymous_args = 0
 1844              	.LVL252:
 1845 0000 70B5     		push	{r4, r5, r6, lr}
 1846              	.LCFI18:
 1847              		.cfi_def_cfa_offset 16
 1848              		.cfi_offset 4, -16
 1849              		.cfi_offset 5, -12
 1850              		.cfi_offset 6, -8
 1851              		.cfi_offset 14, -4
 1852 0002 0546     		mov	r5, r0
 1853 0004 0C46     		mov	r4, r1
 1854 0006 1646     		mov	r6, r2
 380:Drivers/lvgl/lvgl/src/core/lv_obj_scroll.c **** 
 1855              		.loc 1 380 0
 1856 0008 0649     		ldr	r1, .L131
 1857              	.LVL253:
 1858 000a FFF7FEFF 		bl	lv_anim_del
 1859              	.LVL254:
 382:Drivers/lvgl/lvgl/src/core/lv_obj_scroll.c ****     lv_coord_t diff = -y + scroll_y;
 1860              		.loc 1 382 0
 1861 000e 2846     		mov	r0, r5
 1862 0010 FFF7FEFF 		bl	lv_obj_get_scroll_y
 1863              	.LVL255:
 383:Drivers/lvgl/lvgl/src/core/lv_obj_scroll.c **** 
 1864              		.loc 1 383 0
 1865 0014 021B     		subs	r2, r0, r4
ARM GAS  /tmp/ccrtAI1Z.s 			page 63


 1866              	.LVL256:
 385:Drivers/lvgl/lvgl/src/core/lv_obj_scroll.c **** }
 1867              		.loc 1 385 0
 1868 0016 3346     		mov	r3, r6
 1869 0018 12B2     		sxth	r2, r2
 1870 001a 0021     		movs	r1, #0
 1871 001c 2846     		mov	r0, r5
 1872              	.LVL257:
 1873 001e FFF7FEFF 		bl	lv_obj_scroll_by_bounded
 1874              	.LVL258:
 386:Drivers/lvgl/lvgl/src/core/lv_obj_scroll.c **** 
 1875              		.loc 1 386 0
 1876 0022 70BD     		pop	{r4, r5, r6, pc}
 1877              	.LVL259:
 1878              	.L132:
 1879              		.align	2
 1880              	.L131:
 1881 0024 00000000 		.word	scroll_y_anim
 1882              		.cfi_endproc
 1883              	.LFE184:
 1885              		.section	.text.lv_obj_scroll_to,"ax",%progbits
 1886              		.align	1
 1887              		.global	lv_obj_scroll_to
 1888              		.syntax unified
 1889              		.thumb
 1890              		.thumb_func
 1891              		.fpu fpv5-d16
 1893              	lv_obj_scroll_to:
 1894              	.LFB182:
 363:Drivers/lvgl/lvgl/src/core/lv_obj_scroll.c ****     lv_obj_scroll_to_x(obj, x, anim_en);
 1895              		.loc 1 363 0
 1896              		.cfi_startproc
 1897              		@ args = 0, pretend = 0, frame = 0
 1898              		@ frame_needed = 0, uses_anonymous_args = 0
 1899              	.LVL260:
 1900 0000 70B5     		push	{r4, r5, r6, lr}
 1901              	.LCFI19:
 1902              		.cfi_def_cfa_offset 16
 1903              		.cfi_offset 4, -16
 1904              		.cfi_offset 5, -12
 1905              		.cfi_offset 6, -8
 1906              		.cfi_offset 14, -4
 1907 0002 0546     		mov	r5, r0
 1908 0004 1646     		mov	r6, r2
 1909 0006 1C46     		mov	r4, r3
 364:Drivers/lvgl/lvgl/src/core/lv_obj_scroll.c ****     lv_obj_scroll_to_y(obj, y, anim_en);
 1910              		.loc 1 364 0
 1911 0008 1A46     		mov	r2, r3
 1912              	.LVL261:
 1913 000a FFF7FEFF 		bl	lv_obj_scroll_to_x
 1914              	.LVL262:
 365:Drivers/lvgl/lvgl/src/core/lv_obj_scroll.c **** }
 1915              		.loc 1 365 0
 1916 000e 2246     		mov	r2, r4
 1917 0010 3146     		mov	r1, r6
 1918 0012 2846     		mov	r0, r5
 1919 0014 FFF7FEFF 		bl	lv_obj_scroll_to_y
ARM GAS  /tmp/ccrtAI1Z.s 			page 64


 1920              	.LVL263:
 366:Drivers/lvgl/lvgl/src/core/lv_obj_scroll.c **** 
 1921              		.loc 1 366 0
 1922 0018 70BD     		pop	{r4, r5, r6, pc}
 1923              		.cfi_endproc
 1924              	.LFE182:
 1926              		.section	.text.scroll_area_into_view,"ax",%progbits
 1927              		.align	1
 1928              		.syntax unified
 1929              		.thumb
 1930              		.thumb_func
 1931              		.fpu fpv5-d16
 1933              	scroll_area_into_view:
 1934              	.LFB196:
 686:Drivers/lvgl/lvgl/src/core/lv_obj_scroll.c **** 
 687:Drivers/lvgl/lvgl/src/core/lv_obj_scroll.c **** static void scroll_area_into_view(const lv_area_t * area, lv_obj_t * child, lv_point_t * scroll_val
 688:Drivers/lvgl/lvgl/src/core/lv_obj_scroll.c ****                                   lv_anim_enable_t anim_en)
 689:Drivers/lvgl/lvgl/src/core/lv_obj_scroll.c **** {
 1935              		.loc 1 689 0
 1936              		.cfi_startproc
 1937              		@ args = 0, pretend = 0, frame = 32
 1938              		@ frame_needed = 0, uses_anonymous_args = 0
 1939              	.LVL264:
 1940 0000 2DE9F04F 		push	{r4, r5, r6, r7, r8, r9, r10, fp, lr}
 1941              	.LCFI20:
 1942              		.cfi_def_cfa_offset 36
 1943              		.cfi_offset 4, -36
 1944              		.cfi_offset 5, -32
 1945              		.cfi_offset 6, -28
 1946              		.cfi_offset 7, -24
 1947              		.cfi_offset 8, -20
 1948              		.cfi_offset 9, -16
 1949              		.cfi_offset 10, -12
 1950              		.cfi_offset 11, -8
 1951              		.cfi_offset 14, -4
 1952 0004 89B0     		sub	sp, sp, #36
 1953              	.LCFI21:
 1954              		.cfi_def_cfa_offset 72
 1955 0006 8246     		mov	r10, r0
 1956 0008 0C46     		mov	r4, r1
 1957 000a 0391     		str	r1, [sp, #12]
 1958 000c 9146     		mov	r9, r2
 1959 000e 0193     		str	r3, [sp, #4]
 690:Drivers/lvgl/lvgl/src/core/lv_obj_scroll.c ****     lv_obj_t * parent = lv_obj_get_parent(child);
 1960              		.loc 1 690 0
 1961 0010 0846     		mov	r0, r1
 1962              	.LVL265:
 1963 0012 FFF7FEFF 		bl	lv_obj_get_parent
 1964              	.LVL266:
 1965 0016 0646     		mov	r6, r0
 1966              	.LVL267:
 691:Drivers/lvgl/lvgl/src/core/lv_obj_scroll.c ****     if(!lv_obj_has_flag(parent, LV_OBJ_FLAG_SCROLLABLE)) return;
 1967              		.loc 1 691 0
 1968 0018 1021     		movs	r1, #16
 1969 001a FFF7FEFF 		bl	lv_obj_has_flag
 1970              	.LVL268:
 1971 001e 0028     		cmp	r0, #0
ARM GAS  /tmp/ccrtAI1Z.s 			page 65


 1972 0020 00F04981 		beq	.L135
 692:Drivers/lvgl/lvgl/src/core/lv_obj_scroll.c **** 
 693:Drivers/lvgl/lvgl/src/core/lv_obj_scroll.c ****     lv_dir_t scroll_dir = lv_obj_get_scroll_dir(parent);
 1973              		.loc 1 693 0
 1974 0024 3046     		mov	r0, r6
 1975 0026 FFF7FEFF 		bl	lv_obj_get_scroll_dir
 1976              	.LVL269:
 1977 002a 0290     		str	r0, [sp, #8]
 1978              	.LVL270:
 694:Drivers/lvgl/lvgl/src/core/lv_obj_scroll.c ****     lv_coord_t snap_goal = 0;
 695:Drivers/lvgl/lvgl/src/core/lv_obj_scroll.c ****     lv_coord_t act = 0;
 696:Drivers/lvgl/lvgl/src/core/lv_obj_scroll.c ****     const lv_area_t * area_tmp;
 697:Drivers/lvgl/lvgl/src/core/lv_obj_scroll.c **** 
 698:Drivers/lvgl/lvgl/src/core/lv_obj_scroll.c ****     lv_coord_t y_scroll = 0;
 699:Drivers/lvgl/lvgl/src/core/lv_obj_scroll.c ****     lv_scroll_snap_t snap_y = lv_obj_get_scroll_snap_y(parent);
 1979              		.loc 1 699 0
 1980 002c 3046     		mov	r0, r6
 1981 002e FFF7FEFF 		bl	lv_obj_get_scroll_snap_y
 1982              	.LVL271:
 700:Drivers/lvgl/lvgl/src/core/lv_obj_scroll.c ****     if(snap_y != LV_SCROLL_SNAP_NONE) area_tmp = &child->coords;
 1983              		.loc 1 700 0
 1984 0032 0590     		str	r0, [sp, #20]
 1985 0034 0028     		cmp	r0, #0
 1986 0036 4AD0     		beq	.L162
 1987              		.loc 1 700 0 is_stmt 0 discriminator 1
 1988 0038 04F11408 		add	r8, r4, #20
 1989              	.LVL272:
 1990              	.L137:
 1991              	.LBB155:
 1992              	.LBB156:
 255:Drivers/lvgl/lvgl/src/core/lv_obj_style_gen.h ****     return (lv_coord_t)v.num;
 1993              		.loc 2 255 0 is_stmt 1
 1994 003c 3222     		movs	r2, #50
 1995 003e 0021     		movs	r1, #0
 1996 0040 3046     		mov	r0, r6
 1997              	.LVL273:
 1998 0042 FFF7FEFF 		bl	lv_obj_get_style_prop
 1999              	.LVL274:
 2000 0046 0746     		mov	r7, r0
 2001              	.LVL275:
 2002              	.LBE156:
 2003              	.LBE155:
 2004              	.LBB157:
 2005              	.LBB158:
 105:Drivers/lvgl/lvgl/src/core/lv_obj_style_gen.h ****     return (lv_coord_t)v.num;
 2006              		.loc 2 105 0
 2007 0048 1022     		movs	r2, #16
 2008 004a 0021     		movs	r1, #0
 2009 004c 3046     		mov	r0, r6
 2010 004e FFF7FEFF 		bl	lv_obj_get_style_prop
 2011              	.LVL276:
 2012              	.LBE158:
 2013              	.LBE157:
 701:Drivers/lvgl/lvgl/src/core/lv_obj_scroll.c ****     else area_tmp = area;
 702:Drivers/lvgl/lvgl/src/core/lv_obj_scroll.c **** 
 703:Drivers/lvgl/lvgl/src/core/lv_obj_scroll.c ****     lv_coord_t border_width = lv_obj_get_style_border_width(parent, LV_PART_MAIN);
 704:Drivers/lvgl/lvgl/src/core/lv_obj_scroll.c ****     lv_coord_t ptop = lv_obj_get_style_pad_top(parent, LV_PART_MAIN) + border_width;
ARM GAS  /tmp/ccrtAI1Z.s 			page 66


 2014              		.loc 1 704 0
 2015 0052 BFB2     		uxth	r7, r7
 2016 0054 17FA80F0 		uxtah	r0, r7, r0
 2017 0058 84B2     		uxth	r4, r0
 2018              	.LVL277:
 2019              	.LBB159:
 2020              	.LBB160:
 111:Drivers/lvgl/lvgl/src/core/lv_obj_style_gen.h ****     return (lv_coord_t)v.num;
 2021              		.loc 2 111 0
 2022 005a 1122     		movs	r2, #17
 2023 005c 0021     		movs	r1, #0
 2024 005e 3046     		mov	r0, r6
 2025 0060 FFF7FEFF 		bl	lv_obj_get_style_prop
 2026              	.LVL278:
 2027              	.LBE160:
 2028              	.LBE159:
 705:Drivers/lvgl/lvgl/src/core/lv_obj_scroll.c ****     lv_coord_t pbottom = lv_obj_get_style_pad_bottom(parent, LV_PART_MAIN) + border_width;
 2029              		.loc 1 705 0
 2030 0064 17FA80F0 		uxtah	r0, r7, r0
 2031 0068 1FFA80FB 		uxth	fp, r0
 2032              	.LVL279:
 706:Drivers/lvgl/lvgl/src/core/lv_obj_scroll.c ****     lv_coord_t top_diff = parent->coords.y1 + ptop - area_tmp->y1 - scroll_value->y;
 2033              		.loc 1 706 0
 2034 006c F58A     		ldrh	r5, [r6, #22]
 2035 006e 2544     		add	r5, r5, r4
 2036 0070 ADB2     		uxth	r5, r5
 2037 0072 B8F80230 		ldrh	r3, [r8, #2]
 2038 0076 ED1A     		subs	r5, r5, r3
 2039 0078 ADB2     		uxth	r5, r5
 2040 007a B9F80220 		ldrh	r2, [r9, #2]
 2041 007e AD1A     		subs	r5, r5, r2
 2042 0080 2DB2     		sxth	r5, r5
 2043              	.LVL280:
 707:Drivers/lvgl/lvgl/src/core/lv_obj_scroll.c ****     lv_coord_t bottom_diff = -(parent->coords.y2 - pbottom - area_tmp->y2 - scroll_value->y);
 2044              		.loc 1 707 0
 2045 0082 B8F90610 		ldrsh	r1, [r8, #6]
 2046 0086 738B     		ldrh	r3, [r6, #26]
 2047 0088 ABEB0303 		sub	r3, fp, r3
 2048 008c 11FA83F3 		uxtah	r3, r1, r3
 2049 0090 12FA83F3 		uxtah	r3, r2, r3
 2050 0094 9BB2     		uxth	r3, r3
 2051 0096 0793     		str	r3, [sp, #28]
 2052 0098 1BB2     		sxth	r3, r3
 2053 009a 0493     		str	r3, [sp, #16]
 2054              	.LVL281:
 708:Drivers/lvgl/lvgl/src/core/lv_obj_scroll.c ****     lv_coord_t parent_h = lv_obj_get_height(parent) - ptop - pbottom;
 2055              		.loc 1 708 0
 2056 009c 3046     		mov	r0, r6
 2057 009e FFF7FEFF 		bl	lv_obj_get_height
 2058              	.LVL282:
 2059 00a2 80B2     		uxth	r0, r0
 2060 00a4 001B     		subs	r0, r0, r4
 2061 00a6 80B2     		uxth	r0, r0
 2062 00a8 A0EB0B00 		sub	r0, r0, fp
 2063 00ac 02B2     		sxth	r2, r0
 2064 00ae 0692     		str	r2, [sp, #24]
 2065              	.LVL283:
ARM GAS  /tmp/ccrtAI1Z.s 			page 67


 709:Drivers/lvgl/lvgl/src/core/lv_obj_scroll.c ****     if((top_diff >= 0 && bottom_diff >= 0)) y_scroll = 0;
 2066              		.loc 1 709 0
 2067 00b0 049B     		ldr	r3, [sp, #16]
 2068 00b2 002D     		cmp	r5, #0
 2069 00b4 A8BF     		it	ge
 2070 00b6 002B     		cmpge	r3, #0
 2071 00b8 1ADA     		bge	.L163
 710:Drivers/lvgl/lvgl/src/core/lv_obj_scroll.c ****     else if(top_diff > 0) {
 2072              		.loc 1 710 0
 2073 00ba 002D     		cmp	r5, #0
 2074 00bc 09DD     		ble	.L139
 2075              	.LVL284:
 2076              	.LBB161:
 711:Drivers/lvgl/lvgl/src/core/lv_obj_scroll.c ****         y_scroll = top_diff;
 712:Drivers/lvgl/lvgl/src/core/lv_obj_scroll.c ****         /*Do not let scrolling in*/
 713:Drivers/lvgl/lvgl/src/core/lv_obj_scroll.c ****         lv_coord_t st = lv_obj_get_scroll_top(parent);
 2077              		.loc 1 713 0
 2078 00be 3046     		mov	r0, r6
 2079 00c0 FFF7FEFF 		bl	lv_obj_get_scroll_top
 2080              	.LVL285:
 714:Drivers/lvgl/lvgl/src/core/lv_obj_scroll.c ****         if(st - y_scroll < 0) y_scroll = 0;
 2081              		.loc 1 714 0
 2082 00c4 401B     		subs	r0, r0, r5
 2083              	.LVL286:
 2084 00c6 0028     		cmp	r0, #0
 2085 00c8 13DA     		bge	.L138
 2086 00ca 0025     		movs	r5, #0
 2087              	.LVL287:
 2088 00cc 11E0     		b	.L138
 2089              	.LVL288:
 2090              	.L162:
 2091              	.LBE161:
 701:Drivers/lvgl/lvgl/src/core/lv_obj_scroll.c **** 
 2092              		.loc 1 701 0
 2093 00ce D046     		mov	r8, r10
 2094 00d0 B4E7     		b	.L137
 2095              	.LVL289:
 2096              	.L139:
 715:Drivers/lvgl/lvgl/src/core/lv_obj_scroll.c ****     }
 716:Drivers/lvgl/lvgl/src/core/lv_obj_scroll.c ****     else if(bottom_diff > 0) {
 2097              		.loc 1 716 0
 2098 00d2 049B     		ldr	r3, [sp, #16]
 2099 00d4 002B     		cmp	r3, #0
 2100 00d6 01DC     		bgt	.L178
 698:Drivers/lvgl/lvgl/src/core/lv_obj_scroll.c ****     lv_scroll_snap_t snap_y = lv_obj_get_scroll_snap_y(parent);
 2101              		.loc 1 698 0
 2102 00d8 0025     		movs	r5, #0
 2103              	.LVL290:
 2104 00da 0AE0     		b	.L138
 2105              	.LVL291:
 2106              	.L178:
 2107              	.LBB162:
 717:Drivers/lvgl/lvgl/src/core/lv_obj_scroll.c ****         y_scroll = -bottom_diff;
 2108              		.loc 1 717 0
 2109 00dc 079B     		ldr	r3, [sp, #28]
 2110 00de 5D42     		negs	r5, r3
 2111              	.LVL292:
ARM GAS  /tmp/ccrtAI1Z.s 			page 68


 2112 00e0 2DB2     		sxth	r5, r5
 2113              	.LVL293:
 718:Drivers/lvgl/lvgl/src/core/lv_obj_scroll.c ****         /*Do not let scrolling in*/
 719:Drivers/lvgl/lvgl/src/core/lv_obj_scroll.c ****         lv_coord_t sb = lv_obj_get_scroll_bottom(parent);
 2114              		.loc 1 719 0
 2115 00e2 3046     		mov	r0, r6
 2116 00e4 FFF7FEFF 		bl	lv_obj_get_scroll_bottom
 2117              	.LVL294:
 720:Drivers/lvgl/lvgl/src/core/lv_obj_scroll.c ****         if(sb + y_scroll < 0) y_scroll = 0;
 2118              		.loc 1 720 0
 2119 00e8 E842     		cmn	r0, r5
 2120 00ea 02D5     		bpl	.L138
 2121 00ec 0025     		movs	r5, #0
 2122              	.LVL295:
 2123 00ee 00E0     		b	.L138
 2124              	.LVL296:
 2125              	.L163:
 2126              	.LBE162:
 709:Drivers/lvgl/lvgl/src/core/lv_obj_scroll.c ****     else if(top_diff > 0) {
 2127              		.loc 1 709 0
 2128 00f0 0025     		movs	r5, #0
 2129              	.LVL297:
 2130              	.L138:
 721:Drivers/lvgl/lvgl/src/core/lv_obj_scroll.c ****     }
 722:Drivers/lvgl/lvgl/src/core/lv_obj_scroll.c **** 
 723:Drivers/lvgl/lvgl/src/core/lv_obj_scroll.c ****     switch(snap_y) {
 2131              		.loc 1 723 0
 2132 00f2 059B     		ldr	r3, [sp, #20]
 2133 00f4 022B     		cmp	r3, #2
 2134 00f6 48D0     		beq	.L141
 2135 00f8 032B     		cmp	r3, #3
 2136 00fa 56D0     		beq	.L142
 2137 00fc 012B     		cmp	r3, #1
 2138 00fe 37D0     		beq	.L179
 2139              	.LVL298:
 2140              	.L140:
 724:Drivers/lvgl/lvgl/src/core/lv_obj_scroll.c ****         case LV_SCROLL_SNAP_START:
 725:Drivers/lvgl/lvgl/src/core/lv_obj_scroll.c ****             snap_goal = parent->coords.y1 + ptop;
 726:Drivers/lvgl/lvgl/src/core/lv_obj_scroll.c ****             act = area_tmp->y1 + y_scroll;
 727:Drivers/lvgl/lvgl/src/core/lv_obj_scroll.c ****             y_scroll += snap_goal - act;
 728:Drivers/lvgl/lvgl/src/core/lv_obj_scroll.c ****             break;
 729:Drivers/lvgl/lvgl/src/core/lv_obj_scroll.c ****         case LV_SCROLL_SNAP_END:
 730:Drivers/lvgl/lvgl/src/core/lv_obj_scroll.c ****             snap_goal = parent->coords.y2 - pbottom;
 731:Drivers/lvgl/lvgl/src/core/lv_obj_scroll.c ****             act = area_tmp->y2 + y_scroll;
 732:Drivers/lvgl/lvgl/src/core/lv_obj_scroll.c ****             y_scroll += snap_goal - act;
 733:Drivers/lvgl/lvgl/src/core/lv_obj_scroll.c ****             break;
 734:Drivers/lvgl/lvgl/src/core/lv_obj_scroll.c ****         case LV_SCROLL_SNAP_CENTER:
 735:Drivers/lvgl/lvgl/src/core/lv_obj_scroll.c ****             snap_goal = parent->coords.y1 + ptop + parent_h / 2;
 736:Drivers/lvgl/lvgl/src/core/lv_obj_scroll.c ****             act = lv_area_get_height(area_tmp) / 2 + area_tmp->y1 + y_scroll;
 737:Drivers/lvgl/lvgl/src/core/lv_obj_scroll.c ****             y_scroll += snap_goal - act;
 738:Drivers/lvgl/lvgl/src/core/lv_obj_scroll.c ****             break;
 739:Drivers/lvgl/lvgl/src/core/lv_obj_scroll.c ****     }
 740:Drivers/lvgl/lvgl/src/core/lv_obj_scroll.c **** 
 741:Drivers/lvgl/lvgl/src/core/lv_obj_scroll.c ****     lv_coord_t x_scroll = 0;
 742:Drivers/lvgl/lvgl/src/core/lv_obj_scroll.c ****     lv_scroll_snap_t snap_x = lv_obj_get_scroll_snap_x(parent);
 2141              		.loc 1 742 0
 2142 0100 3046     		mov	r0, r6
ARM GAS  /tmp/ccrtAI1Z.s 			page 69


 2143 0102 FFF7FEFF 		bl	lv_obj_get_scroll_snap_x
 2144              	.LVL299:
 743:Drivers/lvgl/lvgl/src/core/lv_obj_scroll.c ****     if(snap_x != LV_SCROLL_SNAP_NONE) area_tmp = &child->coords;
 2145              		.loc 1 743 0
 2146 0106 8346     		mov	fp, r0
 2147 0108 10B1     		cbz	r0, .L146
 2148              		.loc 1 743 0 is_stmt 0 discriminator 1
 2149 010a 039B     		ldr	r3, [sp, #12]
 2150 010c 03F1140A 		add	r10, r3, #20
 2151              	.LVL300:
 2152              	.L146:
 2153              	.LBB163:
 2154              	.LBB164:
 117:Drivers/lvgl/lvgl/src/core/lv_obj_style_gen.h ****     return (lv_coord_t)v.num;
 2155              		.loc 2 117 0 is_stmt 1
 2156 0110 1222     		movs	r2, #18
 2157 0112 0021     		movs	r1, #0
 2158 0114 3046     		mov	r0, r6
 2159              	.LVL301:
 2160 0116 FFF7FEFF 		bl	lv_obj_get_style_prop
 2161              	.LVL302:
 2162              	.LBE164:
 2163              	.LBE163:
 744:Drivers/lvgl/lvgl/src/core/lv_obj_scroll.c ****     else area_tmp = area;
 745:Drivers/lvgl/lvgl/src/core/lv_obj_scroll.c **** 
 746:Drivers/lvgl/lvgl/src/core/lv_obj_scroll.c ****     lv_coord_t pleft = lv_obj_get_style_pad_left(parent, LV_PART_MAIN) + border_width;
 2164              		.loc 1 746 0
 2165 011a 17FA80F0 		uxtah	r0, r7, r0
 2166 011e 1FFA80F8 		uxth	r8, r0
 2167              	.LVL303:
 2168              	.LBB165:
 2169              	.LBB166:
 123:Drivers/lvgl/lvgl/src/core/lv_obj_style_gen.h ****     return (lv_coord_t)v.num;
 2170              		.loc 2 123 0
 2171 0122 1322     		movs	r2, #19
 2172 0124 0021     		movs	r1, #0
 2173 0126 3046     		mov	r0, r6
 2174 0128 FFF7FEFF 		bl	lv_obj_get_style_prop
 2175              	.LVL304:
 2176              	.LBE166:
 2177              	.LBE165:
 747:Drivers/lvgl/lvgl/src/core/lv_obj_scroll.c ****     lv_coord_t pright = lv_obj_get_style_pad_right(parent, LV_PART_MAIN) + border_width;
 2178              		.loc 1 747 0
 2179 012c 17FA80F7 		uxtah	r7, r7, r0
 2180 0130 BFB2     		uxth	r7, r7
 2181              	.LVL305:
 748:Drivers/lvgl/lvgl/src/core/lv_obj_scroll.c ****     lv_coord_t left_diff = parent->coords.x1 + pleft - area_tmp->x1 - scroll_value->x;
 2182              		.loc 1 748 0
 2183 0132 B48A     		ldrh	r4, [r6, #20]
 2184 0134 4444     		add	r4, r4, r8
 2185 0136 A4B2     		uxth	r4, r4
 2186 0138 BAF80030 		ldrh	r3, [r10]
 2187 013c E41A     		subs	r4, r4, r3
 2188 013e A4B2     		uxth	r4, r4
 2189 0140 B9F80020 		ldrh	r2, [r9]
 2190 0144 A41A     		subs	r4, r4, r2
 2191 0146 24B2     		sxth	r4, r4
ARM GAS  /tmp/ccrtAI1Z.s 			page 70


 2192              	.LVL306:
 749:Drivers/lvgl/lvgl/src/core/lv_obj_scroll.c ****     lv_coord_t right_diff = -(parent->coords.x2 - pright - area_tmp->x2 - scroll_value->x);
 2193              		.loc 1 749 0
 2194 0148 BAF90410 		ldrsh	r1, [r10, #4]
 2195 014c 338B     		ldrh	r3, [r6, #24]
 2196 014e FB1A     		subs	r3, r7, r3
 2197 0150 11FA83F3 		uxtah	r3, r1, r3
 2198 0154 12FA83F3 		uxtah	r3, r2, r3
 2199 0158 9BB2     		uxth	r3, r3
 2200 015a 1AB2     		sxth	r2, r3
 2201              	.LVL307:
 750:Drivers/lvgl/lvgl/src/core/lv_obj_scroll.c ****     if((left_diff >= 0 && right_diff >= 0)) x_scroll = 0;
 2202              		.loc 1 750 0
 2203 015c 002C     		cmp	r4, #0
 2204 015e A8BF     		it	ge
 2205 0160 002A     		cmpge	r2, #0
 2206 0162 56DA     		bge	.L167
 751:Drivers/lvgl/lvgl/src/core/lv_obj_scroll.c ****     else if(left_diff > 0) {
 2207              		.loc 1 751 0
 2208 0164 002C     		cmp	r4, #0
 2209 0166 43DC     		bgt	.L180
 752:Drivers/lvgl/lvgl/src/core/lv_obj_scroll.c ****         x_scroll = left_diff;
 753:Drivers/lvgl/lvgl/src/core/lv_obj_scroll.c ****         /*Do not let scrolling in*/
 754:Drivers/lvgl/lvgl/src/core/lv_obj_scroll.c ****         lv_coord_t sl = lv_obj_get_scroll_left(parent);
 755:Drivers/lvgl/lvgl/src/core/lv_obj_scroll.c ****         if(sl - x_scroll < 0) x_scroll = 0;
 756:Drivers/lvgl/lvgl/src/core/lv_obj_scroll.c ****     }
 757:Drivers/lvgl/lvgl/src/core/lv_obj_scroll.c ****     else if(right_diff > 0) {
 2210              		.loc 1 757 0
 2211 0168 002A     		cmp	r2, #0
 2212 016a 49DC     		bgt	.L181
 741:Drivers/lvgl/lvgl/src/core/lv_obj_scroll.c ****     lv_scroll_snap_t snap_x = lv_obj_get_scroll_snap_x(parent);
 2213              		.loc 1 741 0
 2214 016c 0024     		movs	r4, #0
 2215              	.LVL308:
 2216 016e 51E0     		b	.L147
 2217              	.LVL309:
 2218              	.L179:
 725:Drivers/lvgl/lvgl/src/core/lv_obj_scroll.c ****             act = area_tmp->y1 + y_scroll;
 2219              		.loc 1 725 0
 2220 0170 F08A     		ldrh	r0, [r6, #22]
 2221 0172 0444     		add	r4, r4, r0
 2222              	.LVL310:
 2223 0174 A4B2     		uxth	r4, r4
 2224              	.LVL311:
 726:Drivers/lvgl/lvgl/src/core/lv_obj_scroll.c ****             y_scroll += snap_goal - act;
 2225              		.loc 1 726 0
 2226 0176 B8F80230 		ldrh	r3, [r8, #2]
 2227 017a AAB2     		uxth	r2, r5
 2228 017c 9D18     		adds	r5, r3, r2
 2229              	.LVL312:
 2230 017e ADB2     		uxth	r5, r5
 2231              	.LVL313:
 727:Drivers/lvgl/lvgl/src/core/lv_obj_scroll.c ****             break;
 2232              		.loc 1 727 0
 2233 0180 651B     		subs	r5, r4, r5
 2234              	.LVL314:
 2235 0182 12FA85F5 		uxtah	r5, r2, r5
ARM GAS  /tmp/ccrtAI1Z.s 			page 71


 2236 0186 2DB2     		sxth	r5, r5
 2237              	.LVL315:
 728:Drivers/lvgl/lvgl/src/core/lv_obj_scroll.c ****         case LV_SCROLL_SNAP_END:
 2238              		.loc 1 728 0
 2239 0188 BAE7     		b	.L140
 2240              	.LVL316:
 2241              	.L141:
 730:Drivers/lvgl/lvgl/src/core/lv_obj_scroll.c ****             act = area_tmp->y2 + y_scroll;
 2242              		.loc 1 730 0
 2243 018a 708B     		ldrh	r0, [r6, #26]
 2244 018c A0EB0B0B 		sub	fp, r0, fp
 2245              	.LVL317:
 2246 0190 1FFA8BFB 		uxth	fp, fp
 2247              	.LVL318:
 731:Drivers/lvgl/lvgl/src/core/lv_obj_scroll.c ****             y_scroll += snap_goal - act;
 2248              		.loc 1 731 0
 2249 0194 B8F80630 		ldrh	r3, [r8, #6]
 2250 0198 AAB2     		uxth	r2, r5
 2251 019a 9D18     		adds	r5, r3, r2
 2252              	.LVL319:
 2253 019c ADB2     		uxth	r5, r5
 2254              	.LVL320:
 732:Drivers/lvgl/lvgl/src/core/lv_obj_scroll.c ****             break;
 2255              		.loc 1 732 0
 2256 019e ABEB0505 		sub	r5, fp, r5
 2257              	.LVL321:
 2258 01a2 12FA85F5 		uxtah	r5, r2, r5
 2259 01a6 2DB2     		sxth	r5, r5
 2260              	.LVL322:
 733:Drivers/lvgl/lvgl/src/core/lv_obj_scroll.c ****         case LV_SCROLL_SNAP_CENTER:
 2261              		.loc 1 733 0
 2262 01a8 AAE7     		b	.L140
 2263              	.LVL323:
 2264              	.L142:
 735:Drivers/lvgl/lvgl/src/core/lv_obj_scroll.c ****             act = lv_area_get_height(area_tmp) / 2 + area_tmp->y1 + y_scroll;
 2265              		.loc 1 735 0
 2266 01aa F38A     		ldrh	r3, [r6, #22]
 2267 01ac 2344     		add	r3, r3, r4
 2268 01ae 9BB2     		uxth	r3, r3
 2269 01b0 069A     		ldr	r2, [sp, #24]
 2270 01b2 1446     		mov	r4, r2
 2271              	.LVL324:
 2272 01b4 002A     		cmp	r2, #0
 2273 01b6 17DB     		blt	.L182
 2274              	.L144:
 2275 01b8 03EB6403 		add	r3, r3, r4, asr #1
 2276 01bc 9BB2     		uxth	r3, r3
 2277              	.LVL325:
 2278              	.LBB167:
 2279              	.LBB168:
 2280              		.file 4 "Drivers/lvgl/lvgl/src/core/../misc/lv_area.h"
   1:Drivers/lvgl/lvgl/src/core/../misc/lv_area.h **** /**
   2:Drivers/lvgl/lvgl/src/core/../misc/lv_area.h ****  * @file lv_area.h
   3:Drivers/lvgl/lvgl/src/core/../misc/lv_area.h ****  *
   4:Drivers/lvgl/lvgl/src/core/../misc/lv_area.h ****  */
   5:Drivers/lvgl/lvgl/src/core/../misc/lv_area.h **** 
   6:Drivers/lvgl/lvgl/src/core/../misc/lv_area.h **** #ifndef LV_AREA_H
ARM GAS  /tmp/ccrtAI1Z.s 			page 72


   7:Drivers/lvgl/lvgl/src/core/../misc/lv_area.h **** #define LV_AREA_H
   8:Drivers/lvgl/lvgl/src/core/../misc/lv_area.h **** 
   9:Drivers/lvgl/lvgl/src/core/../misc/lv_area.h **** #ifdef __cplusplus
  10:Drivers/lvgl/lvgl/src/core/../misc/lv_area.h **** extern "C" {
  11:Drivers/lvgl/lvgl/src/core/../misc/lv_area.h **** #endif
  12:Drivers/lvgl/lvgl/src/core/../misc/lv_area.h **** 
  13:Drivers/lvgl/lvgl/src/core/../misc/lv_area.h **** /*********************
  14:Drivers/lvgl/lvgl/src/core/../misc/lv_area.h ****  *      INCLUDES
  15:Drivers/lvgl/lvgl/src/core/../misc/lv_area.h ****  *********************/
  16:Drivers/lvgl/lvgl/src/core/../misc/lv_area.h **** #include "../lv_conf_internal.h"
  17:Drivers/lvgl/lvgl/src/core/../misc/lv_area.h **** #include <stdbool.h>
  18:Drivers/lvgl/lvgl/src/core/../misc/lv_area.h **** #include <stdint.h>
  19:Drivers/lvgl/lvgl/src/core/../misc/lv_area.h **** 
  20:Drivers/lvgl/lvgl/src/core/../misc/lv_area.h **** /*********************
  21:Drivers/lvgl/lvgl/src/core/../misc/lv_area.h ****  *      DEFINES
  22:Drivers/lvgl/lvgl/src/core/../misc/lv_area.h ****  *********************/
  23:Drivers/lvgl/lvgl/src/core/../misc/lv_area.h **** 
  24:Drivers/lvgl/lvgl/src/core/../misc/lv_area.h **** #if LV_USE_LARGE_COORD
  25:Drivers/lvgl/lvgl/src/core/../misc/lv_area.h **** typedef int32_t lv_coord_t;
  26:Drivers/lvgl/lvgl/src/core/../misc/lv_area.h **** #else
  27:Drivers/lvgl/lvgl/src/core/../misc/lv_area.h **** typedef int16_t lv_coord_t;
  28:Drivers/lvgl/lvgl/src/core/../misc/lv_area.h **** #endif
  29:Drivers/lvgl/lvgl/src/core/../misc/lv_area.h **** 
  30:Drivers/lvgl/lvgl/src/core/../misc/lv_area.h **** /**********************
  31:Drivers/lvgl/lvgl/src/core/../misc/lv_area.h ****  *      TYPEDEFS
  32:Drivers/lvgl/lvgl/src/core/../misc/lv_area.h ****  **********************/
  33:Drivers/lvgl/lvgl/src/core/../misc/lv_area.h **** 
  34:Drivers/lvgl/lvgl/src/core/../misc/lv_area.h **** /**
  35:Drivers/lvgl/lvgl/src/core/../misc/lv_area.h ****  * Represents a point on the screen.
  36:Drivers/lvgl/lvgl/src/core/../misc/lv_area.h ****  */
  37:Drivers/lvgl/lvgl/src/core/../misc/lv_area.h **** typedef struct {
  38:Drivers/lvgl/lvgl/src/core/../misc/lv_area.h ****     lv_coord_t x;
  39:Drivers/lvgl/lvgl/src/core/../misc/lv_area.h ****     lv_coord_t y;
  40:Drivers/lvgl/lvgl/src/core/../misc/lv_area.h **** } lv_point_t;
  41:Drivers/lvgl/lvgl/src/core/../misc/lv_area.h **** 
  42:Drivers/lvgl/lvgl/src/core/../misc/lv_area.h **** /** Represents an area of the screen.*/
  43:Drivers/lvgl/lvgl/src/core/../misc/lv_area.h **** typedef struct {
  44:Drivers/lvgl/lvgl/src/core/../misc/lv_area.h ****     lv_coord_t x1;
  45:Drivers/lvgl/lvgl/src/core/../misc/lv_area.h ****     lv_coord_t y1;
  46:Drivers/lvgl/lvgl/src/core/../misc/lv_area.h ****     lv_coord_t x2;
  47:Drivers/lvgl/lvgl/src/core/../misc/lv_area.h ****     lv_coord_t y2;
  48:Drivers/lvgl/lvgl/src/core/../misc/lv_area.h **** } lv_area_t;
  49:Drivers/lvgl/lvgl/src/core/../misc/lv_area.h **** 
  50:Drivers/lvgl/lvgl/src/core/../misc/lv_area.h **** /** Alignments*/
  51:Drivers/lvgl/lvgl/src/core/../misc/lv_area.h **** enum {
  52:Drivers/lvgl/lvgl/src/core/../misc/lv_area.h ****     LV_ALIGN_DEFAULT = 0,
  53:Drivers/lvgl/lvgl/src/core/../misc/lv_area.h ****     LV_ALIGN_TOP_LEFT,
  54:Drivers/lvgl/lvgl/src/core/../misc/lv_area.h ****     LV_ALIGN_TOP_MID,
  55:Drivers/lvgl/lvgl/src/core/../misc/lv_area.h ****     LV_ALIGN_TOP_RIGHT,
  56:Drivers/lvgl/lvgl/src/core/../misc/lv_area.h ****     LV_ALIGN_BOTTOM_LEFT,
  57:Drivers/lvgl/lvgl/src/core/../misc/lv_area.h ****     LV_ALIGN_BOTTOM_MID,
  58:Drivers/lvgl/lvgl/src/core/../misc/lv_area.h ****     LV_ALIGN_BOTTOM_RIGHT,
  59:Drivers/lvgl/lvgl/src/core/../misc/lv_area.h ****     LV_ALIGN_LEFT_MID,
  60:Drivers/lvgl/lvgl/src/core/../misc/lv_area.h ****     LV_ALIGN_RIGHT_MID,
  61:Drivers/lvgl/lvgl/src/core/../misc/lv_area.h ****     LV_ALIGN_CENTER,
  62:Drivers/lvgl/lvgl/src/core/../misc/lv_area.h **** 
  63:Drivers/lvgl/lvgl/src/core/../misc/lv_area.h ****     LV_ALIGN_OUT_TOP_LEFT,
ARM GAS  /tmp/ccrtAI1Z.s 			page 73


  64:Drivers/lvgl/lvgl/src/core/../misc/lv_area.h ****     LV_ALIGN_OUT_TOP_MID,
  65:Drivers/lvgl/lvgl/src/core/../misc/lv_area.h ****     LV_ALIGN_OUT_TOP_RIGHT,
  66:Drivers/lvgl/lvgl/src/core/../misc/lv_area.h ****     LV_ALIGN_OUT_BOTTOM_LEFT,
  67:Drivers/lvgl/lvgl/src/core/../misc/lv_area.h ****     LV_ALIGN_OUT_BOTTOM_MID,
  68:Drivers/lvgl/lvgl/src/core/../misc/lv_area.h ****     LV_ALIGN_OUT_BOTTOM_RIGHT,
  69:Drivers/lvgl/lvgl/src/core/../misc/lv_area.h ****     LV_ALIGN_OUT_LEFT_TOP,
  70:Drivers/lvgl/lvgl/src/core/../misc/lv_area.h ****     LV_ALIGN_OUT_LEFT_MID,
  71:Drivers/lvgl/lvgl/src/core/../misc/lv_area.h ****     LV_ALIGN_OUT_LEFT_BOTTOM,
  72:Drivers/lvgl/lvgl/src/core/../misc/lv_area.h ****     LV_ALIGN_OUT_RIGHT_TOP,
  73:Drivers/lvgl/lvgl/src/core/../misc/lv_area.h ****     LV_ALIGN_OUT_RIGHT_MID,
  74:Drivers/lvgl/lvgl/src/core/../misc/lv_area.h ****     LV_ALIGN_OUT_RIGHT_BOTTOM,
  75:Drivers/lvgl/lvgl/src/core/../misc/lv_area.h **** };
  76:Drivers/lvgl/lvgl/src/core/../misc/lv_area.h **** typedef uint8_t lv_align_t;
  77:Drivers/lvgl/lvgl/src/core/../misc/lv_area.h **** 
  78:Drivers/lvgl/lvgl/src/core/../misc/lv_area.h **** enum {
  79:Drivers/lvgl/lvgl/src/core/../misc/lv_area.h ****     LV_DIR_NONE     = 0x00,
  80:Drivers/lvgl/lvgl/src/core/../misc/lv_area.h ****     LV_DIR_LEFT     = (1 << 0),
  81:Drivers/lvgl/lvgl/src/core/../misc/lv_area.h ****     LV_DIR_RIGHT    = (1 << 1),
  82:Drivers/lvgl/lvgl/src/core/../misc/lv_area.h ****     LV_DIR_TOP      = (1 << 2),
  83:Drivers/lvgl/lvgl/src/core/../misc/lv_area.h ****     LV_DIR_BOTTOM   = (1 << 3),
  84:Drivers/lvgl/lvgl/src/core/../misc/lv_area.h ****     LV_DIR_HOR      = LV_DIR_LEFT | LV_DIR_RIGHT,
  85:Drivers/lvgl/lvgl/src/core/../misc/lv_area.h ****     LV_DIR_VER      = LV_DIR_TOP | LV_DIR_BOTTOM,
  86:Drivers/lvgl/lvgl/src/core/../misc/lv_area.h ****     LV_DIR_ALL      = LV_DIR_HOR | LV_DIR_VER,
  87:Drivers/lvgl/lvgl/src/core/../misc/lv_area.h **** };
  88:Drivers/lvgl/lvgl/src/core/../misc/lv_area.h **** 
  89:Drivers/lvgl/lvgl/src/core/../misc/lv_area.h **** typedef uint8_t lv_dir_t;
  90:Drivers/lvgl/lvgl/src/core/../misc/lv_area.h **** 
  91:Drivers/lvgl/lvgl/src/core/../misc/lv_area.h **** /**********************
  92:Drivers/lvgl/lvgl/src/core/../misc/lv_area.h ****  * GLOBAL PROTOTYPES
  93:Drivers/lvgl/lvgl/src/core/../misc/lv_area.h ****  **********************/
  94:Drivers/lvgl/lvgl/src/core/../misc/lv_area.h **** 
  95:Drivers/lvgl/lvgl/src/core/../misc/lv_area.h **** /**
  96:Drivers/lvgl/lvgl/src/core/../misc/lv_area.h ****  * Initialize an area
  97:Drivers/lvgl/lvgl/src/core/../misc/lv_area.h ****  * @param area_p pointer to an area
  98:Drivers/lvgl/lvgl/src/core/../misc/lv_area.h ****  * @param x1 left coordinate of the area
  99:Drivers/lvgl/lvgl/src/core/../misc/lv_area.h ****  * @param y1 top coordinate of the area
 100:Drivers/lvgl/lvgl/src/core/../misc/lv_area.h ****  * @param x2 right coordinate of the area
 101:Drivers/lvgl/lvgl/src/core/../misc/lv_area.h ****  * @param y2 bottom coordinate of the area
 102:Drivers/lvgl/lvgl/src/core/../misc/lv_area.h ****  */
 103:Drivers/lvgl/lvgl/src/core/../misc/lv_area.h **** void lv_area_set(lv_area_t * area_p, lv_coord_t x1, lv_coord_t y1, lv_coord_t x2, lv_coord_t y2);
 104:Drivers/lvgl/lvgl/src/core/../misc/lv_area.h **** 
 105:Drivers/lvgl/lvgl/src/core/../misc/lv_area.h **** /**
 106:Drivers/lvgl/lvgl/src/core/../misc/lv_area.h ****  * Copy an area
 107:Drivers/lvgl/lvgl/src/core/../misc/lv_area.h ****  * @param dest pointer to the destination area
 108:Drivers/lvgl/lvgl/src/core/../misc/lv_area.h ****  * @param src pointer to the source area
 109:Drivers/lvgl/lvgl/src/core/../misc/lv_area.h ****  */
 110:Drivers/lvgl/lvgl/src/core/../misc/lv_area.h **** inline static void lv_area_copy(lv_area_t * dest, const lv_area_t * src)
 111:Drivers/lvgl/lvgl/src/core/../misc/lv_area.h **** {
 112:Drivers/lvgl/lvgl/src/core/../misc/lv_area.h ****     dest->x1 = src->x1;
 113:Drivers/lvgl/lvgl/src/core/../misc/lv_area.h ****     dest->y1 = src->y1;
 114:Drivers/lvgl/lvgl/src/core/../misc/lv_area.h ****     dest->x2 = src->x2;
 115:Drivers/lvgl/lvgl/src/core/../misc/lv_area.h ****     dest->y2 = src->y2;
 116:Drivers/lvgl/lvgl/src/core/../misc/lv_area.h **** }
 117:Drivers/lvgl/lvgl/src/core/../misc/lv_area.h **** 
 118:Drivers/lvgl/lvgl/src/core/../misc/lv_area.h **** /**
 119:Drivers/lvgl/lvgl/src/core/../misc/lv_area.h ****  * Get the width of an area
 120:Drivers/lvgl/lvgl/src/core/../misc/lv_area.h ****  * @param area_p pointer to an area
ARM GAS  /tmp/ccrtAI1Z.s 			page 74


 121:Drivers/lvgl/lvgl/src/core/../misc/lv_area.h ****  * @return the width of the area (if x1 == x2 -> width = 1)
 122:Drivers/lvgl/lvgl/src/core/../misc/lv_area.h ****  */
