ARM GAS  /tmp/ccJvwpHF.s 			page 1


   1              		.cpu cortex-m7
   2              		.eabi_attribute 28, 1
   3              		.eabi_attribute 20, 1
   4              		.eabi_attribute 21, 1
   5              		.eabi_attribute 23, 3
   6              		.eabi_attribute 24, 1
   7              		.eabi_attribute 25, 1
   8              		.eabi_attribute 26, 1
   9              		.eabi_attribute 30, 1
  10              		.eabi_attribute 34, 1
  11              		.eabi_attribute 18, 4
  12              		.file	"lv_obj.c"
  13              		.text
  14              	.Ltext0:
  15              		.cfi_sections	.debug_frame
  16              		.section	.text.obj_valid_child,"ax",%progbits
  17              		.align	1
  18              		.syntax unified
  19              		.thumb
  20              		.thumb_func
  21              		.fpu fpv5-d16
  23              	obj_valid_child:
  24              	.LFB227:
  25              		.file 1 "Drivers/lvgl/lvgl/src/core/lv_obj.c"
   1:Drivers/lvgl/lvgl/src/core/lv_obj.c **** /**
   2:Drivers/lvgl/lvgl/src/core/lv_obj.c ****  * @file lv_obj.c
   3:Drivers/lvgl/lvgl/src/core/lv_obj.c ****  *
   4:Drivers/lvgl/lvgl/src/core/lv_obj.c ****  */
   5:Drivers/lvgl/lvgl/src/core/lv_obj.c **** 
   6:Drivers/lvgl/lvgl/src/core/lv_obj.c **** /*********************
   7:Drivers/lvgl/lvgl/src/core/lv_obj.c ****  *      INCLUDES
   8:Drivers/lvgl/lvgl/src/core/lv_obj.c ****  *********************/
   9:Drivers/lvgl/lvgl/src/core/lv_obj.c **** #include "lv_obj.h"
  10:Drivers/lvgl/lvgl/src/core/lv_obj.c **** #include "lv_indev.h"
  11:Drivers/lvgl/lvgl/src/core/lv_obj.c **** #include "lv_refr.h"
  12:Drivers/lvgl/lvgl/src/core/lv_obj.c **** #include "lv_group.h"
  13:Drivers/lvgl/lvgl/src/core/lv_obj.c **** #include "lv_disp.h"
  14:Drivers/lvgl/lvgl/src/core/lv_obj.c **** #include "lv_theme.h"
  15:Drivers/lvgl/lvgl/src/core/lv_obj.c **** #include "../misc/lv_assert.h"
  16:Drivers/lvgl/lvgl/src/core/lv_obj.c **** #include "../draw/lv_draw.h"
  17:Drivers/lvgl/lvgl/src/core/lv_obj.c **** #include "../misc/lv_anim.h"
  18:Drivers/lvgl/lvgl/src/core/lv_obj.c **** #include "../misc/lv_timer.h"
  19:Drivers/lvgl/lvgl/src/core/lv_obj.c **** #include "../misc/lv_async.h"
  20:Drivers/lvgl/lvgl/src/core/lv_obj.c **** #include "../misc/lv_fs.h"
  21:Drivers/lvgl/lvgl/src/core/lv_obj.c **** #include "../misc/lv_gc.h"
  22:Drivers/lvgl/lvgl/src/core/lv_obj.c **** #include "../misc/lv_math.h"
  23:Drivers/lvgl/lvgl/src/core/lv_obj.c **** #include "../misc/lv_log.h"
  24:Drivers/lvgl/lvgl/src/core/lv_obj.c **** #include "../hal/lv_hal.h"
  25:Drivers/lvgl/lvgl/src/core/lv_obj.c **** #include "../extra/lv_extra.h"
  26:Drivers/lvgl/lvgl/src/core/lv_obj.c **** #include <stdint.h>
  27:Drivers/lvgl/lvgl/src/core/lv_obj.c **** #include <string.h>
  28:Drivers/lvgl/lvgl/src/core/lv_obj.c **** 
  29:Drivers/lvgl/lvgl/src/core/lv_obj.c **** #if LV_USE_GPU_STM32_DMA2D
  30:Drivers/lvgl/lvgl/src/core/lv_obj.c ****     #include "../draw/stm32_dma2d/lv_gpu_stm32_dma2d.h"
  31:Drivers/lvgl/lvgl/src/core/lv_obj.c **** #endif
  32:Drivers/lvgl/lvgl/src/core/lv_obj.c **** 
  33:Drivers/lvgl/lvgl/src/core/lv_obj.c **** #if LV_USE_GPU_SWM341_DMA2D
ARM GAS  /tmp/ccJvwpHF.s 			page 2


  34:Drivers/lvgl/lvgl/src/core/lv_obj.c ****     #include "../draw/swm341_dma2d/lv_gpu_swm341_dma2d.h"
  35:Drivers/lvgl/lvgl/src/core/lv_obj.c **** #endif
  36:Drivers/lvgl/lvgl/src/core/lv_obj.c **** 
  37:Drivers/lvgl/lvgl/src/core/lv_obj.c **** #if LV_USE_GPU_NXP_PXP && LV_USE_GPU_NXP_PXP_AUTO_INIT
  38:Drivers/lvgl/lvgl/src/core/lv_obj.c ****     #include "../draw/nxp/pxp/lv_gpu_nxp_pxp.h"
  39:Drivers/lvgl/lvgl/src/core/lv_obj.c **** #endif
  40:Drivers/lvgl/lvgl/src/core/lv_obj.c **** 
  41:Drivers/lvgl/lvgl/src/core/lv_obj.c **** /*********************
  42:Drivers/lvgl/lvgl/src/core/lv_obj.c ****  *      DEFINES
  43:Drivers/lvgl/lvgl/src/core/lv_obj.c ****  *********************/
  44:Drivers/lvgl/lvgl/src/core/lv_obj.c **** #define MY_CLASS &lv_obj_class
  45:Drivers/lvgl/lvgl/src/core/lv_obj.c **** #define LV_OBJ_DEF_WIDTH    (LV_DPX(100))
  46:Drivers/lvgl/lvgl/src/core/lv_obj.c **** #define LV_OBJ_DEF_HEIGHT   (LV_DPX(50))
  47:Drivers/lvgl/lvgl/src/core/lv_obj.c **** #define STYLE_TRANSITION_MAX 32
  48:Drivers/lvgl/lvgl/src/core/lv_obj.c **** 
  49:Drivers/lvgl/lvgl/src/core/lv_obj.c **** /**********************
  50:Drivers/lvgl/lvgl/src/core/lv_obj.c ****  *      TYPEDEFS
  51:Drivers/lvgl/lvgl/src/core/lv_obj.c ****  **********************/
  52:Drivers/lvgl/lvgl/src/core/lv_obj.c **** 
  53:Drivers/lvgl/lvgl/src/core/lv_obj.c **** /**********************
  54:Drivers/lvgl/lvgl/src/core/lv_obj.c ****  *  STATIC PROTOTYPES
  55:Drivers/lvgl/lvgl/src/core/lv_obj.c ****  **********************/
  56:Drivers/lvgl/lvgl/src/core/lv_obj.c **** static void lv_obj_constructor(const lv_obj_class_t * class_p, lv_obj_t * obj);
  57:Drivers/lvgl/lvgl/src/core/lv_obj.c **** static void lv_obj_destructor(const lv_obj_class_t * class_p, lv_obj_t * obj);
  58:Drivers/lvgl/lvgl/src/core/lv_obj.c **** static void lv_obj_draw(lv_event_t * e);
  59:Drivers/lvgl/lvgl/src/core/lv_obj.c **** static void lv_obj_event(const lv_obj_class_t * class_p, lv_event_t * e);
  60:Drivers/lvgl/lvgl/src/core/lv_obj.c **** static void draw_scrollbar(lv_obj_t * obj, lv_draw_ctx_t * draw_ctx);
  61:Drivers/lvgl/lvgl/src/core/lv_obj.c **** static lv_res_t scrollbar_init_draw_dsc(lv_obj_t * obj, lv_draw_rect_dsc_t * dsc);
  62:Drivers/lvgl/lvgl/src/core/lv_obj.c **** static bool obj_valid_child(const lv_obj_t * parent, const lv_obj_t * obj_to_find);
  63:Drivers/lvgl/lvgl/src/core/lv_obj.c **** static void lv_obj_set_state(lv_obj_t * obj, lv_state_t new_state);
  64:Drivers/lvgl/lvgl/src/core/lv_obj.c **** 
  65:Drivers/lvgl/lvgl/src/core/lv_obj.c **** /**********************
  66:Drivers/lvgl/lvgl/src/core/lv_obj.c ****  *  STATIC VARIABLES
  67:Drivers/lvgl/lvgl/src/core/lv_obj.c ****  **********************/
  68:Drivers/lvgl/lvgl/src/core/lv_obj.c **** static bool lv_initialized = false;
  69:Drivers/lvgl/lvgl/src/core/lv_obj.c **** const lv_obj_class_t lv_obj_class = {
  70:Drivers/lvgl/lvgl/src/core/lv_obj.c ****     .constructor_cb = lv_obj_constructor,
  71:Drivers/lvgl/lvgl/src/core/lv_obj.c ****     .destructor_cb = lv_obj_destructor,
  72:Drivers/lvgl/lvgl/src/core/lv_obj.c ****     .event_cb = lv_obj_event,
  73:Drivers/lvgl/lvgl/src/core/lv_obj.c ****     .width_def = LV_DPI_DEF,
  74:Drivers/lvgl/lvgl/src/core/lv_obj.c ****     .height_def = LV_DPI_DEF,
  75:Drivers/lvgl/lvgl/src/core/lv_obj.c ****     .editable = LV_OBJ_CLASS_EDITABLE_FALSE,
  76:Drivers/lvgl/lvgl/src/core/lv_obj.c ****     .group_def = LV_OBJ_CLASS_GROUP_DEF_FALSE,
  77:Drivers/lvgl/lvgl/src/core/lv_obj.c ****     .instance_size = (sizeof(lv_obj_t)),
  78:Drivers/lvgl/lvgl/src/core/lv_obj.c ****     .base_class = NULL,
  79:Drivers/lvgl/lvgl/src/core/lv_obj.c **** };
  80:Drivers/lvgl/lvgl/src/core/lv_obj.c **** 
  81:Drivers/lvgl/lvgl/src/core/lv_obj.c **** /**********************
  82:Drivers/lvgl/lvgl/src/core/lv_obj.c ****  *      MACROS
  83:Drivers/lvgl/lvgl/src/core/lv_obj.c ****  **********************/
  84:Drivers/lvgl/lvgl/src/core/lv_obj.c **** 
  85:Drivers/lvgl/lvgl/src/core/lv_obj.c **** /**********************
  86:Drivers/lvgl/lvgl/src/core/lv_obj.c ****  *   GLOBAL FUNCTIONS
  87:Drivers/lvgl/lvgl/src/core/lv_obj.c ****  **********************/
  88:Drivers/lvgl/lvgl/src/core/lv_obj.c **** 
  89:Drivers/lvgl/lvgl/src/core/lv_obj.c **** bool lv_is_initialized(void)
  90:Drivers/lvgl/lvgl/src/core/lv_obj.c **** {
ARM GAS  /tmp/ccJvwpHF.s 			page 3


  91:Drivers/lvgl/lvgl/src/core/lv_obj.c ****     return lv_initialized;
  92:Drivers/lvgl/lvgl/src/core/lv_obj.c **** }
  93:Drivers/lvgl/lvgl/src/core/lv_obj.c **** 
  94:Drivers/lvgl/lvgl/src/core/lv_obj.c **** void lv_init(void)
  95:Drivers/lvgl/lvgl/src/core/lv_obj.c **** {
  96:Drivers/lvgl/lvgl/src/core/lv_obj.c ****     /*Do nothing if already initialized*/
  97:Drivers/lvgl/lvgl/src/core/lv_obj.c ****     if(lv_initialized) {
  98:Drivers/lvgl/lvgl/src/core/lv_obj.c ****         LV_LOG_WARN("lv_init: already inited");
  99:Drivers/lvgl/lvgl/src/core/lv_obj.c ****         return;
 100:Drivers/lvgl/lvgl/src/core/lv_obj.c ****     }
 101:Drivers/lvgl/lvgl/src/core/lv_obj.c **** 
 102:Drivers/lvgl/lvgl/src/core/lv_obj.c ****     LV_LOG_INFO("begin");
 103:Drivers/lvgl/lvgl/src/core/lv_obj.c **** 
 104:Drivers/lvgl/lvgl/src/core/lv_obj.c ****     /*Initialize the misc modules*/
 105:Drivers/lvgl/lvgl/src/core/lv_obj.c ****     lv_mem_init();
 106:Drivers/lvgl/lvgl/src/core/lv_obj.c **** 
 107:Drivers/lvgl/lvgl/src/core/lv_obj.c ****     _lv_timer_core_init();
 108:Drivers/lvgl/lvgl/src/core/lv_obj.c **** 
 109:Drivers/lvgl/lvgl/src/core/lv_obj.c ****     _lv_fs_init();
 110:Drivers/lvgl/lvgl/src/core/lv_obj.c **** 
 111:Drivers/lvgl/lvgl/src/core/lv_obj.c ****     _lv_anim_core_init();
 112:Drivers/lvgl/lvgl/src/core/lv_obj.c **** 
 113:Drivers/lvgl/lvgl/src/core/lv_obj.c ****     _lv_group_init();
 114:Drivers/lvgl/lvgl/src/core/lv_obj.c **** 
 115:Drivers/lvgl/lvgl/src/core/lv_obj.c ****     lv_draw_init();
 116:Drivers/lvgl/lvgl/src/core/lv_obj.c **** 
 117:Drivers/lvgl/lvgl/src/core/lv_obj.c **** #if LV_USE_GPU_STM32_DMA2D
 118:Drivers/lvgl/lvgl/src/core/lv_obj.c ****     /*Initialize DMA2D GPU*/
 119:Drivers/lvgl/lvgl/src/core/lv_obj.c ****     lv_draw_stm32_dma2d_init();
 120:Drivers/lvgl/lvgl/src/core/lv_obj.c **** #endif
 121:Drivers/lvgl/lvgl/src/core/lv_obj.c **** 
 122:Drivers/lvgl/lvgl/src/core/lv_obj.c **** #if LV_USE_GPU_SWM341_DMA2D
 123:Drivers/lvgl/lvgl/src/core/lv_obj.c ****     /*Initialize DMA2D GPU*/
 124:Drivers/lvgl/lvgl/src/core/lv_obj.c ****     lv_draw_swm341_dma2d_init();
 125:Drivers/lvgl/lvgl/src/core/lv_obj.c **** #endif
 126:Drivers/lvgl/lvgl/src/core/lv_obj.c **** 
 127:Drivers/lvgl/lvgl/src/core/lv_obj.c **** #if LV_USE_GPU_NXP_PXP && LV_USE_GPU_NXP_PXP_AUTO_INIT
 128:Drivers/lvgl/lvgl/src/core/lv_obj.c ****     PXP_COND_STOP(!lv_gpu_nxp_pxp_init(), "PXP init failed.");
 129:Drivers/lvgl/lvgl/src/core/lv_obj.c **** #endif
 130:Drivers/lvgl/lvgl/src/core/lv_obj.c **** 
 131:Drivers/lvgl/lvgl/src/core/lv_obj.c ****     _lv_obj_style_init();
 132:Drivers/lvgl/lvgl/src/core/lv_obj.c ****     _lv_ll_init(&LV_GC_ROOT(_lv_disp_ll), sizeof(lv_disp_t));
 133:Drivers/lvgl/lvgl/src/core/lv_obj.c ****     _lv_ll_init(&LV_GC_ROOT(_lv_indev_ll), sizeof(lv_indev_t));
 134:Drivers/lvgl/lvgl/src/core/lv_obj.c **** 
 135:Drivers/lvgl/lvgl/src/core/lv_obj.c ****     /*Initialize the screen refresh system*/
 136:Drivers/lvgl/lvgl/src/core/lv_obj.c ****     _lv_refr_init();
 137:Drivers/lvgl/lvgl/src/core/lv_obj.c **** 
 138:Drivers/lvgl/lvgl/src/core/lv_obj.c ****     _lv_img_decoder_init();
 139:Drivers/lvgl/lvgl/src/core/lv_obj.c **** #if LV_IMG_CACHE_DEF_SIZE
 140:Drivers/lvgl/lvgl/src/core/lv_obj.c ****     lv_img_cache_set_size(LV_IMG_CACHE_DEF_SIZE);
 141:Drivers/lvgl/lvgl/src/core/lv_obj.c **** #endif
 142:Drivers/lvgl/lvgl/src/core/lv_obj.c ****     /*Test if the IDE has UTF-8 encoding*/
 143:Drivers/lvgl/lvgl/src/core/lv_obj.c ****     char * txt = "Ã";
 144:Drivers/lvgl/lvgl/src/core/lv_obj.c **** 
 145:Drivers/lvgl/lvgl/src/core/lv_obj.c ****     uint8_t * txt_u8 = (uint8_t *)txt;
 146:Drivers/lvgl/lvgl/src/core/lv_obj.c ****     if(txt_u8[0] != 0xc3 || txt_u8[1] != 0x81 || txt_u8[2] != 0x00) {
 147:Drivers/lvgl/lvgl/src/core/lv_obj.c ****         LV_LOG_WARN("The strings have no UTF-8 encoding. Non-ASCII characters won't be displayed.")
ARM GAS  /tmp/ccJvwpHF.s 			page 4


 148:Drivers/lvgl/lvgl/src/core/lv_obj.c ****     }
 149:Drivers/lvgl/lvgl/src/core/lv_obj.c **** 
 150:Drivers/lvgl/lvgl/src/core/lv_obj.c ****     uint32_t endianess_test = 0x11223344;
 151:Drivers/lvgl/lvgl/src/core/lv_obj.c ****     uint8_t * endianess_test_p = (uint8_t *) &endianess_test;
 152:Drivers/lvgl/lvgl/src/core/lv_obj.c ****     bool big_endian = endianess_test_p[0] == 0x11 ? true : false;
 153:Drivers/lvgl/lvgl/src/core/lv_obj.c **** 
 154:Drivers/lvgl/lvgl/src/core/lv_obj.c ****     if(big_endian) {
 155:Drivers/lvgl/lvgl/src/core/lv_obj.c ****         LV_ASSERT_MSG(LV_BIG_ENDIAN_SYSTEM == 1,
 156:Drivers/lvgl/lvgl/src/core/lv_obj.c ****                       "It's a big endian system but LV_BIG_ENDIAN_SYSTEM is not enabled in lv_conf.
 157:Drivers/lvgl/lvgl/src/core/lv_obj.c ****     }
 158:Drivers/lvgl/lvgl/src/core/lv_obj.c ****     else {
 159:Drivers/lvgl/lvgl/src/core/lv_obj.c ****         LV_ASSERT_MSG(LV_BIG_ENDIAN_SYSTEM == 0,
 160:Drivers/lvgl/lvgl/src/core/lv_obj.c ****                       "It's a little endian system but LV_BIG_ENDIAN_SYSTEM is enabled in lv_conf.h
 161:Drivers/lvgl/lvgl/src/core/lv_obj.c ****     }
 162:Drivers/lvgl/lvgl/src/core/lv_obj.c **** 
 163:Drivers/lvgl/lvgl/src/core/lv_obj.c **** #if LV_USE_ASSERT_MEM_INTEGRITY
 164:Drivers/lvgl/lvgl/src/core/lv_obj.c ****     LV_LOG_WARN("Memory integrity checks are enabled via LV_USE_ASSERT_MEM_INTEGRITY which makes LV
 165:Drivers/lvgl/lvgl/src/core/lv_obj.c **** #endif
 166:Drivers/lvgl/lvgl/src/core/lv_obj.c **** 
 167:Drivers/lvgl/lvgl/src/core/lv_obj.c **** #if LV_USE_ASSERT_OBJ
 168:Drivers/lvgl/lvgl/src/core/lv_obj.c ****     LV_LOG_WARN("Object sanity checks are enabled via LV_USE_ASSERT_OBJ which makes LVGL much slowe
 169:Drivers/lvgl/lvgl/src/core/lv_obj.c **** #endif
 170:Drivers/lvgl/lvgl/src/core/lv_obj.c **** 
 171:Drivers/lvgl/lvgl/src/core/lv_obj.c **** #if LV_USE_ASSERT_STYLE
 172:Drivers/lvgl/lvgl/src/core/lv_obj.c ****     LV_LOG_WARN("Style sanity checks are enabled that uses more RAM");
 173:Drivers/lvgl/lvgl/src/core/lv_obj.c **** #endif
 174:Drivers/lvgl/lvgl/src/core/lv_obj.c **** 
 175:Drivers/lvgl/lvgl/src/core/lv_obj.c **** #if LV_LOG_LEVEL == LV_LOG_LEVEL_TRACE
 176:Drivers/lvgl/lvgl/src/core/lv_obj.c ****     LV_LOG_WARN("Log level is set to 'Trace' which makes LVGL much slower");
 177:Drivers/lvgl/lvgl/src/core/lv_obj.c **** #endif
 178:Drivers/lvgl/lvgl/src/core/lv_obj.c **** 
 179:Drivers/lvgl/lvgl/src/core/lv_obj.c ****     lv_extra_init();
 180:Drivers/lvgl/lvgl/src/core/lv_obj.c **** 
 181:Drivers/lvgl/lvgl/src/core/lv_obj.c ****     lv_initialized = true;
 182:Drivers/lvgl/lvgl/src/core/lv_obj.c **** 
 183:Drivers/lvgl/lvgl/src/core/lv_obj.c ****     LV_LOG_TRACE("finished");
 184:Drivers/lvgl/lvgl/src/core/lv_obj.c **** }
 185:Drivers/lvgl/lvgl/src/core/lv_obj.c **** 
 186:Drivers/lvgl/lvgl/src/core/lv_obj.c **** #if LV_ENABLE_GC || !LV_MEM_CUSTOM
 187:Drivers/lvgl/lvgl/src/core/lv_obj.c **** 
 188:Drivers/lvgl/lvgl/src/core/lv_obj.c **** void lv_deinit(void)
 189:Drivers/lvgl/lvgl/src/core/lv_obj.c **** {
 190:Drivers/lvgl/lvgl/src/core/lv_obj.c ****     _lv_gc_clear_roots();
 191:Drivers/lvgl/lvgl/src/core/lv_obj.c **** 
 192:Drivers/lvgl/lvgl/src/core/lv_obj.c ****     lv_disp_set_default(NULL);
 193:Drivers/lvgl/lvgl/src/core/lv_obj.c ****     lv_mem_deinit();
 194:Drivers/lvgl/lvgl/src/core/lv_obj.c ****     lv_initialized = false;
 195:Drivers/lvgl/lvgl/src/core/lv_obj.c **** 
 196:Drivers/lvgl/lvgl/src/core/lv_obj.c ****     LV_LOG_INFO("lv_deinit done");
 197:Drivers/lvgl/lvgl/src/core/lv_obj.c **** 
 198:Drivers/lvgl/lvgl/src/core/lv_obj.c **** #if LV_USE_LOG
 199:Drivers/lvgl/lvgl/src/core/lv_obj.c ****     lv_log_register_print_cb(NULL);
 200:Drivers/lvgl/lvgl/src/core/lv_obj.c **** #endif
 201:Drivers/lvgl/lvgl/src/core/lv_obj.c **** }
 202:Drivers/lvgl/lvgl/src/core/lv_obj.c **** #endif
 203:Drivers/lvgl/lvgl/src/core/lv_obj.c **** 
 204:Drivers/lvgl/lvgl/src/core/lv_obj.c **** lv_obj_t * lv_obj_create(lv_obj_t * parent)
ARM GAS  /tmp/ccJvwpHF.s 			page 5


 205:Drivers/lvgl/lvgl/src/core/lv_obj.c **** {
 206:Drivers/lvgl/lvgl/src/core/lv_obj.c ****     LV_LOG_INFO("begin");
 207:Drivers/lvgl/lvgl/src/core/lv_obj.c ****     lv_obj_t * obj = lv_obj_class_create_obj(MY_CLASS, parent);
 208:Drivers/lvgl/lvgl/src/core/lv_obj.c ****     lv_obj_class_init_obj(obj);
 209:Drivers/lvgl/lvgl/src/core/lv_obj.c ****     return obj;
 210:Drivers/lvgl/lvgl/src/core/lv_obj.c **** }
 211:Drivers/lvgl/lvgl/src/core/lv_obj.c **** 
 212:Drivers/lvgl/lvgl/src/core/lv_obj.c **** /*=====================
 213:Drivers/lvgl/lvgl/src/core/lv_obj.c ****  * Setter functions
 214:Drivers/lvgl/lvgl/src/core/lv_obj.c ****  *====================*/
 215:Drivers/lvgl/lvgl/src/core/lv_obj.c **** 
 216:Drivers/lvgl/lvgl/src/core/lv_obj.c **** /*-----------------
 217:Drivers/lvgl/lvgl/src/core/lv_obj.c ****  * Attribute set
 218:Drivers/lvgl/lvgl/src/core/lv_obj.c ****  *----------------*/
 219:Drivers/lvgl/lvgl/src/core/lv_obj.c **** 
 220:Drivers/lvgl/lvgl/src/core/lv_obj.c **** void lv_obj_add_flag(lv_obj_t * obj, lv_obj_flag_t f)
 221:Drivers/lvgl/lvgl/src/core/lv_obj.c **** {
 222:Drivers/lvgl/lvgl/src/core/lv_obj.c ****     LV_ASSERT_OBJ(obj, MY_CLASS);
 223:Drivers/lvgl/lvgl/src/core/lv_obj.c **** 
 224:Drivers/lvgl/lvgl/src/core/lv_obj.c ****     bool was_on_layout = lv_obj_is_layout_positioned(obj);
 225:Drivers/lvgl/lvgl/src/core/lv_obj.c **** 
 226:Drivers/lvgl/lvgl/src/core/lv_obj.c ****     if(f & LV_OBJ_FLAG_HIDDEN) lv_obj_invalidate(obj);
 227:Drivers/lvgl/lvgl/src/core/lv_obj.c **** 
 228:Drivers/lvgl/lvgl/src/core/lv_obj.c ****     obj->flags |= f;
 229:Drivers/lvgl/lvgl/src/core/lv_obj.c **** 
 230:Drivers/lvgl/lvgl/src/core/lv_obj.c ****     if(f & LV_OBJ_FLAG_HIDDEN) {
 231:Drivers/lvgl/lvgl/src/core/lv_obj.c ****         lv_obj_invalidate(obj);
 232:Drivers/lvgl/lvgl/src/core/lv_obj.c ****     }
 233:Drivers/lvgl/lvgl/src/core/lv_obj.c **** 
 234:Drivers/lvgl/lvgl/src/core/lv_obj.c ****     if((was_on_layout != lv_obj_is_layout_positioned(obj)) || (f & (LV_OBJ_FLAG_LAYOUT_1 |  LV_OBJ_
 235:Drivers/lvgl/lvgl/src/core/lv_obj.c ****         lv_obj_mark_layout_as_dirty(lv_obj_get_parent(obj));
 236:Drivers/lvgl/lvgl/src/core/lv_obj.c ****         lv_obj_mark_layout_as_dirty(obj);
 237:Drivers/lvgl/lvgl/src/core/lv_obj.c ****     }
 238:Drivers/lvgl/lvgl/src/core/lv_obj.c **** 
 239:Drivers/lvgl/lvgl/src/core/lv_obj.c ****     if(f & LV_OBJ_FLAG_SCROLLABLE) {
 240:Drivers/lvgl/lvgl/src/core/lv_obj.c ****         lv_area_t hor_area, ver_area;
 241:Drivers/lvgl/lvgl/src/core/lv_obj.c ****         lv_obj_get_scrollbar_area(obj, &hor_area, &ver_area);
 242:Drivers/lvgl/lvgl/src/core/lv_obj.c ****         lv_obj_invalidate_area(obj, &hor_area);
 243:Drivers/lvgl/lvgl/src/core/lv_obj.c ****         lv_obj_invalidate_area(obj, &ver_area);
 244:Drivers/lvgl/lvgl/src/core/lv_obj.c ****     }
 245:Drivers/lvgl/lvgl/src/core/lv_obj.c **** }
 246:Drivers/lvgl/lvgl/src/core/lv_obj.c **** 
 247:Drivers/lvgl/lvgl/src/core/lv_obj.c **** void lv_obj_clear_flag(lv_obj_t * obj, lv_obj_flag_t f)
 248:Drivers/lvgl/lvgl/src/core/lv_obj.c **** {
 249:Drivers/lvgl/lvgl/src/core/lv_obj.c ****     LV_ASSERT_OBJ(obj, MY_CLASS);
 250:Drivers/lvgl/lvgl/src/core/lv_obj.c **** 
 251:Drivers/lvgl/lvgl/src/core/lv_obj.c ****     bool was_on_layout = lv_obj_is_layout_positioned(obj);
 252:Drivers/lvgl/lvgl/src/core/lv_obj.c ****     if(f & LV_OBJ_FLAG_SCROLLABLE) {
 253:Drivers/lvgl/lvgl/src/core/lv_obj.c ****         lv_area_t hor_area, ver_area;
 254:Drivers/lvgl/lvgl/src/core/lv_obj.c ****         lv_obj_get_scrollbar_area(obj, &hor_area, &ver_area);
 255:Drivers/lvgl/lvgl/src/core/lv_obj.c ****         lv_obj_invalidate_area(obj, &hor_area);
 256:Drivers/lvgl/lvgl/src/core/lv_obj.c ****         lv_obj_invalidate_area(obj, &ver_area);
 257:Drivers/lvgl/lvgl/src/core/lv_obj.c ****     }
 258:Drivers/lvgl/lvgl/src/core/lv_obj.c **** 
 259:Drivers/lvgl/lvgl/src/core/lv_obj.c ****     obj->flags &= (~f);
 260:Drivers/lvgl/lvgl/src/core/lv_obj.c **** 
 261:Drivers/lvgl/lvgl/src/core/lv_obj.c ****     if(f & LV_OBJ_FLAG_HIDDEN) {
ARM GAS  /tmp/ccJvwpHF.s 			page 6


 262:Drivers/lvgl/lvgl/src/core/lv_obj.c ****         lv_obj_invalidate(obj);
 263:Drivers/lvgl/lvgl/src/core/lv_obj.c ****         if(lv_obj_is_layout_positioned(obj)) {
 264:Drivers/lvgl/lvgl/src/core/lv_obj.c ****             lv_obj_mark_layout_as_dirty(lv_obj_get_parent(obj));
 265:Drivers/lvgl/lvgl/src/core/lv_obj.c ****             lv_obj_mark_layout_as_dirty(obj);
 266:Drivers/lvgl/lvgl/src/core/lv_obj.c ****         }
 267:Drivers/lvgl/lvgl/src/core/lv_obj.c ****     }
 268:Drivers/lvgl/lvgl/src/core/lv_obj.c **** 
 269:Drivers/lvgl/lvgl/src/core/lv_obj.c ****     if((was_on_layout != lv_obj_is_layout_positioned(obj)) || (f & (LV_OBJ_FLAG_LAYOUT_1 |  LV_OBJ_
 270:Drivers/lvgl/lvgl/src/core/lv_obj.c ****         lv_obj_mark_layout_as_dirty(lv_obj_get_parent(obj));
 271:Drivers/lvgl/lvgl/src/core/lv_obj.c ****     }
 272:Drivers/lvgl/lvgl/src/core/lv_obj.c **** 
 273:Drivers/lvgl/lvgl/src/core/lv_obj.c **** }
 274:Drivers/lvgl/lvgl/src/core/lv_obj.c **** 
 275:Drivers/lvgl/lvgl/src/core/lv_obj.c **** void lv_obj_add_state(lv_obj_t * obj, lv_state_t state)
 276:Drivers/lvgl/lvgl/src/core/lv_obj.c **** {
 277:Drivers/lvgl/lvgl/src/core/lv_obj.c ****     LV_ASSERT_OBJ(obj, MY_CLASS);
 278:Drivers/lvgl/lvgl/src/core/lv_obj.c **** 
 279:Drivers/lvgl/lvgl/src/core/lv_obj.c ****     lv_state_t new_state = obj->state | state;
 280:Drivers/lvgl/lvgl/src/core/lv_obj.c ****     if(obj->state != new_state) {
 281:Drivers/lvgl/lvgl/src/core/lv_obj.c ****         lv_obj_set_state(obj, new_state);
 282:Drivers/lvgl/lvgl/src/core/lv_obj.c ****     }
 283:Drivers/lvgl/lvgl/src/core/lv_obj.c **** }
 284:Drivers/lvgl/lvgl/src/core/lv_obj.c **** 
 285:Drivers/lvgl/lvgl/src/core/lv_obj.c **** void lv_obj_clear_state(lv_obj_t * obj, lv_state_t state)
 286:Drivers/lvgl/lvgl/src/core/lv_obj.c **** {
 287:Drivers/lvgl/lvgl/src/core/lv_obj.c ****     LV_ASSERT_OBJ(obj, MY_CLASS);
 288:Drivers/lvgl/lvgl/src/core/lv_obj.c **** 
 289:Drivers/lvgl/lvgl/src/core/lv_obj.c ****     lv_state_t new_state = obj->state & (~state);
 290:Drivers/lvgl/lvgl/src/core/lv_obj.c ****     if(obj->state != new_state) {
 291:Drivers/lvgl/lvgl/src/core/lv_obj.c ****         lv_obj_set_state(obj, new_state);
 292:Drivers/lvgl/lvgl/src/core/lv_obj.c ****     }
 293:Drivers/lvgl/lvgl/src/core/lv_obj.c **** }
 294:Drivers/lvgl/lvgl/src/core/lv_obj.c **** 
 295:Drivers/lvgl/lvgl/src/core/lv_obj.c **** /*=======================
 296:Drivers/lvgl/lvgl/src/core/lv_obj.c ****  * Getter functions
 297:Drivers/lvgl/lvgl/src/core/lv_obj.c ****  *======================*/
 298:Drivers/lvgl/lvgl/src/core/lv_obj.c **** 
 299:Drivers/lvgl/lvgl/src/core/lv_obj.c **** bool lv_obj_has_flag(const lv_obj_t * obj, lv_obj_flag_t f)
 300:Drivers/lvgl/lvgl/src/core/lv_obj.c **** {
 301:Drivers/lvgl/lvgl/src/core/lv_obj.c ****     LV_ASSERT_OBJ(obj, MY_CLASS);
 302:Drivers/lvgl/lvgl/src/core/lv_obj.c **** 
 303:Drivers/lvgl/lvgl/src/core/lv_obj.c ****     return (obj->flags & f)  == f ? true : false;
 304:Drivers/lvgl/lvgl/src/core/lv_obj.c **** }
 305:Drivers/lvgl/lvgl/src/core/lv_obj.c **** 
 306:Drivers/lvgl/lvgl/src/core/lv_obj.c **** bool lv_obj_has_flag_any(const lv_obj_t * obj, lv_obj_flag_t f)
 307:Drivers/lvgl/lvgl/src/core/lv_obj.c **** {
 308:Drivers/lvgl/lvgl/src/core/lv_obj.c ****     LV_ASSERT_OBJ(obj, MY_CLASS);
 309:Drivers/lvgl/lvgl/src/core/lv_obj.c **** 
 310:Drivers/lvgl/lvgl/src/core/lv_obj.c ****     return (obj->flags & f) ? true : false;
 311:Drivers/lvgl/lvgl/src/core/lv_obj.c **** }
 312:Drivers/lvgl/lvgl/src/core/lv_obj.c **** 
 313:Drivers/lvgl/lvgl/src/core/lv_obj.c **** lv_state_t lv_obj_get_state(const lv_obj_t * obj)
 314:Drivers/lvgl/lvgl/src/core/lv_obj.c **** {
 315:Drivers/lvgl/lvgl/src/core/lv_obj.c ****     LV_ASSERT_OBJ(obj, MY_CLASS);
 316:Drivers/lvgl/lvgl/src/core/lv_obj.c **** 
 317:Drivers/lvgl/lvgl/src/core/lv_obj.c ****     return obj->state;
 318:Drivers/lvgl/lvgl/src/core/lv_obj.c **** }
ARM GAS  /tmp/ccJvwpHF.s 			page 7


 319:Drivers/lvgl/lvgl/src/core/lv_obj.c **** 
 320:Drivers/lvgl/lvgl/src/core/lv_obj.c **** bool lv_obj_has_state(const lv_obj_t * obj, lv_state_t state)
 321:Drivers/lvgl/lvgl/src/core/lv_obj.c **** {
 322:Drivers/lvgl/lvgl/src/core/lv_obj.c ****     LV_ASSERT_OBJ(obj, MY_CLASS);
 323:Drivers/lvgl/lvgl/src/core/lv_obj.c **** 
 324:Drivers/lvgl/lvgl/src/core/lv_obj.c ****     return obj->state & state ? true : false;
 325:Drivers/lvgl/lvgl/src/core/lv_obj.c **** }
 326:Drivers/lvgl/lvgl/src/core/lv_obj.c **** 
 327:Drivers/lvgl/lvgl/src/core/lv_obj.c **** void * lv_obj_get_group(const lv_obj_t * obj)
 328:Drivers/lvgl/lvgl/src/core/lv_obj.c **** {
 329:Drivers/lvgl/lvgl/src/core/lv_obj.c ****     LV_ASSERT_OBJ(obj, MY_CLASS);
 330:Drivers/lvgl/lvgl/src/core/lv_obj.c **** 
 331:Drivers/lvgl/lvgl/src/core/lv_obj.c ****     if(obj->spec_attr) return obj->spec_attr->group_p;
 332:Drivers/lvgl/lvgl/src/core/lv_obj.c ****     else return NULL;
 333:Drivers/lvgl/lvgl/src/core/lv_obj.c **** }
 334:Drivers/lvgl/lvgl/src/core/lv_obj.c **** 
 335:Drivers/lvgl/lvgl/src/core/lv_obj.c **** /*-------------------
 336:Drivers/lvgl/lvgl/src/core/lv_obj.c ****  * OTHER FUNCTIONS
 337:Drivers/lvgl/lvgl/src/core/lv_obj.c ****  *------------------*/
 338:Drivers/lvgl/lvgl/src/core/lv_obj.c **** 
 339:Drivers/lvgl/lvgl/src/core/lv_obj.c **** void lv_obj_allocate_spec_attr(lv_obj_t * obj)
 340:Drivers/lvgl/lvgl/src/core/lv_obj.c **** {
 341:Drivers/lvgl/lvgl/src/core/lv_obj.c ****     LV_ASSERT_OBJ(obj, MY_CLASS);
 342:Drivers/lvgl/lvgl/src/core/lv_obj.c **** 
 343:Drivers/lvgl/lvgl/src/core/lv_obj.c ****     if(obj->spec_attr == NULL) {
 344:Drivers/lvgl/lvgl/src/core/lv_obj.c ****         static uint32_t x = 0;
 345:Drivers/lvgl/lvgl/src/core/lv_obj.c ****         x++;
 346:Drivers/lvgl/lvgl/src/core/lv_obj.c ****         obj->spec_attr = lv_mem_alloc(sizeof(_lv_obj_spec_attr_t));
 347:Drivers/lvgl/lvgl/src/core/lv_obj.c ****         LV_ASSERT_MALLOC(obj->spec_attr);
 348:Drivers/lvgl/lvgl/src/core/lv_obj.c ****         if(obj->spec_attr == NULL) return;
 349:Drivers/lvgl/lvgl/src/core/lv_obj.c **** 
 350:Drivers/lvgl/lvgl/src/core/lv_obj.c ****         lv_memset_00(obj->spec_attr, sizeof(_lv_obj_spec_attr_t));
 351:Drivers/lvgl/lvgl/src/core/lv_obj.c **** 
 352:Drivers/lvgl/lvgl/src/core/lv_obj.c ****         obj->spec_attr->scroll_dir = LV_DIR_ALL;
 353:Drivers/lvgl/lvgl/src/core/lv_obj.c ****         obj->spec_attr->scrollbar_mode = LV_SCROLLBAR_MODE_AUTO;
 354:Drivers/lvgl/lvgl/src/core/lv_obj.c ****     }
 355:Drivers/lvgl/lvgl/src/core/lv_obj.c **** }
 356:Drivers/lvgl/lvgl/src/core/lv_obj.c **** 
 357:Drivers/lvgl/lvgl/src/core/lv_obj.c **** bool lv_obj_check_type(const lv_obj_t * obj, const lv_obj_class_t * class_p)
 358:Drivers/lvgl/lvgl/src/core/lv_obj.c **** {
 359:Drivers/lvgl/lvgl/src/core/lv_obj.c ****     if(obj == NULL) return false;
 360:Drivers/lvgl/lvgl/src/core/lv_obj.c ****     return obj->class_p == class_p ? true : false;
 361:Drivers/lvgl/lvgl/src/core/lv_obj.c **** }
 362:Drivers/lvgl/lvgl/src/core/lv_obj.c **** 
 363:Drivers/lvgl/lvgl/src/core/lv_obj.c **** bool lv_obj_has_class(const lv_obj_t * obj, const lv_obj_class_t * class_p)
 364:Drivers/lvgl/lvgl/src/core/lv_obj.c **** {
 365:Drivers/lvgl/lvgl/src/core/lv_obj.c ****     const lv_obj_class_t * obj_class = obj->class_p;
 366:Drivers/lvgl/lvgl/src/core/lv_obj.c ****     while(obj_class) {
 367:Drivers/lvgl/lvgl/src/core/lv_obj.c ****         if(obj_class == class_p) return true;
 368:Drivers/lvgl/lvgl/src/core/lv_obj.c ****         obj_class = obj_class->base_class;
 369:Drivers/lvgl/lvgl/src/core/lv_obj.c ****     }
 370:Drivers/lvgl/lvgl/src/core/lv_obj.c **** 
 371:Drivers/lvgl/lvgl/src/core/lv_obj.c ****     return false;
 372:Drivers/lvgl/lvgl/src/core/lv_obj.c **** }
 373:Drivers/lvgl/lvgl/src/core/lv_obj.c **** 
 374:Drivers/lvgl/lvgl/src/core/lv_obj.c **** const lv_obj_class_t * lv_obj_get_class(const lv_obj_t * obj)
 375:Drivers/lvgl/lvgl/src/core/lv_obj.c **** {
ARM GAS  /tmp/ccJvwpHF.s 			page 8


 376:Drivers/lvgl/lvgl/src/core/lv_obj.c ****     return obj->class_p;
 377:Drivers/lvgl/lvgl/src/core/lv_obj.c **** }
 378:Drivers/lvgl/lvgl/src/core/lv_obj.c **** 
 379:Drivers/lvgl/lvgl/src/core/lv_obj.c **** bool lv_obj_is_valid(const lv_obj_t * obj)
 380:Drivers/lvgl/lvgl/src/core/lv_obj.c **** {
 381:Drivers/lvgl/lvgl/src/core/lv_obj.c ****     lv_disp_t * disp = lv_disp_get_next(NULL);
 382:Drivers/lvgl/lvgl/src/core/lv_obj.c ****     while(disp) {
 383:Drivers/lvgl/lvgl/src/core/lv_obj.c ****         uint32_t i;
 384:Drivers/lvgl/lvgl/src/core/lv_obj.c ****         for(i = 0; i < disp->screen_cnt; i++) {
 385:Drivers/lvgl/lvgl/src/core/lv_obj.c ****             if(disp->screens[i] == obj) return true;
 386:Drivers/lvgl/lvgl/src/core/lv_obj.c ****             bool found = obj_valid_child(disp->screens[i], obj);
 387:Drivers/lvgl/lvgl/src/core/lv_obj.c ****             if(found) return true;
 388:Drivers/lvgl/lvgl/src/core/lv_obj.c ****         }
 389:Drivers/lvgl/lvgl/src/core/lv_obj.c **** 
 390:Drivers/lvgl/lvgl/src/core/lv_obj.c ****         disp = lv_disp_get_next(disp);
 391:Drivers/lvgl/lvgl/src/core/lv_obj.c ****     }
 392:Drivers/lvgl/lvgl/src/core/lv_obj.c **** 
 393:Drivers/lvgl/lvgl/src/core/lv_obj.c ****     return false;
 394:Drivers/lvgl/lvgl/src/core/lv_obj.c **** }
 395:Drivers/lvgl/lvgl/src/core/lv_obj.c **** 
 396:Drivers/lvgl/lvgl/src/core/lv_obj.c **** /**********************
 397:Drivers/lvgl/lvgl/src/core/lv_obj.c ****  *   STATIC FUNCTIONS
 398:Drivers/lvgl/lvgl/src/core/lv_obj.c ****  **********************/
 399:Drivers/lvgl/lvgl/src/core/lv_obj.c **** 
 400:Drivers/lvgl/lvgl/src/core/lv_obj.c **** static void lv_obj_constructor(const lv_obj_class_t * class_p, lv_obj_t * obj)
 401:Drivers/lvgl/lvgl/src/core/lv_obj.c **** {
 402:Drivers/lvgl/lvgl/src/core/lv_obj.c ****     LV_UNUSED(class_p);
 403:Drivers/lvgl/lvgl/src/core/lv_obj.c ****     LV_TRACE_OBJ_CREATE("begin");
 404:Drivers/lvgl/lvgl/src/core/lv_obj.c **** 
 405:Drivers/lvgl/lvgl/src/core/lv_obj.c ****     lv_obj_t * parent = obj->parent;
 406:Drivers/lvgl/lvgl/src/core/lv_obj.c ****     if(parent) {
 407:Drivers/lvgl/lvgl/src/core/lv_obj.c ****         lv_coord_t sl = lv_obj_get_scroll_left(parent);
 408:Drivers/lvgl/lvgl/src/core/lv_obj.c ****         lv_coord_t st = lv_obj_get_scroll_top(parent);
 409:Drivers/lvgl/lvgl/src/core/lv_obj.c **** 
 410:Drivers/lvgl/lvgl/src/core/lv_obj.c ****         obj->coords.y1 = parent->coords.y1 + lv_obj_get_style_pad_top(parent, LV_PART_MAIN) - st;
 411:Drivers/lvgl/lvgl/src/core/lv_obj.c ****         obj->coords.y2 = obj->coords.y1 - 1;
 412:Drivers/lvgl/lvgl/src/core/lv_obj.c ****         obj->coords.x1  = parent->coords.x1 + lv_obj_get_style_pad_left(parent, LV_PART_MAIN) - sl;
 413:Drivers/lvgl/lvgl/src/core/lv_obj.c ****         obj->coords.x2  = obj->coords.x1 - 1;
 414:Drivers/lvgl/lvgl/src/core/lv_obj.c ****     }
 415:Drivers/lvgl/lvgl/src/core/lv_obj.c **** 
 416:Drivers/lvgl/lvgl/src/core/lv_obj.c ****     /*Set attributes*/
 417:Drivers/lvgl/lvgl/src/core/lv_obj.c ****     obj->flags = LV_OBJ_FLAG_CLICKABLE;
 418:Drivers/lvgl/lvgl/src/core/lv_obj.c ****     obj->flags |= LV_OBJ_FLAG_SNAPPABLE;
 419:Drivers/lvgl/lvgl/src/core/lv_obj.c ****     if(parent) obj->flags |= LV_OBJ_FLAG_PRESS_LOCK;
 420:Drivers/lvgl/lvgl/src/core/lv_obj.c ****     if(parent) obj->flags |= LV_OBJ_FLAG_SCROLL_CHAIN;
 421:Drivers/lvgl/lvgl/src/core/lv_obj.c ****     obj->flags |= LV_OBJ_FLAG_CLICK_FOCUSABLE;
 422:Drivers/lvgl/lvgl/src/core/lv_obj.c ****     obj->flags |= LV_OBJ_FLAG_SCROLLABLE;
 423:Drivers/lvgl/lvgl/src/core/lv_obj.c ****     obj->flags |= LV_OBJ_FLAG_SCROLL_ELASTIC;
 424:Drivers/lvgl/lvgl/src/core/lv_obj.c ****     obj->flags |= LV_OBJ_FLAG_SCROLL_MOMENTUM;
 425:Drivers/lvgl/lvgl/src/core/lv_obj.c ****     obj->flags |= LV_OBJ_FLAG_SCROLL_WITH_ARROW;
 426:Drivers/lvgl/lvgl/src/core/lv_obj.c ****     if(parent) obj->flags |= LV_OBJ_FLAG_GESTURE_BUBBLE;
 427:Drivers/lvgl/lvgl/src/core/lv_obj.c **** 
 428:Drivers/lvgl/lvgl/src/core/lv_obj.c ****     LV_TRACE_OBJ_CREATE("finished");
 429:Drivers/lvgl/lvgl/src/core/lv_obj.c **** }
 430:Drivers/lvgl/lvgl/src/core/lv_obj.c **** 
 431:Drivers/lvgl/lvgl/src/core/lv_obj.c **** static void lv_obj_destructor(const lv_obj_class_t * class_p, lv_obj_t * obj)
 432:Drivers/lvgl/lvgl/src/core/lv_obj.c **** {
ARM GAS  /tmp/ccJvwpHF.s 			page 9


 433:Drivers/lvgl/lvgl/src/core/lv_obj.c ****     LV_UNUSED(class_p);
 434:Drivers/lvgl/lvgl/src/core/lv_obj.c **** 
 435:Drivers/lvgl/lvgl/src/core/lv_obj.c ****     _lv_event_mark_deleted(obj);
 436:Drivers/lvgl/lvgl/src/core/lv_obj.c **** 
 437:Drivers/lvgl/lvgl/src/core/lv_obj.c ****     /*Remove all style*/
 438:Drivers/lvgl/lvgl/src/core/lv_obj.c ****     lv_obj_enable_style_refresh(false); /*No need to refresh the style because the object will be d
 439:Drivers/lvgl/lvgl/src/core/lv_obj.c ****     lv_obj_remove_style_all(obj);
 440:Drivers/lvgl/lvgl/src/core/lv_obj.c ****     lv_obj_enable_style_refresh(true);
 441:Drivers/lvgl/lvgl/src/core/lv_obj.c **** 
 442:Drivers/lvgl/lvgl/src/core/lv_obj.c ****     /*Remove the animations from this object*/
 443:Drivers/lvgl/lvgl/src/core/lv_obj.c ****     lv_anim_del(obj, NULL);
 444:Drivers/lvgl/lvgl/src/core/lv_obj.c **** 
 445:Drivers/lvgl/lvgl/src/core/lv_obj.c ****     /*Delete from the group*/
 446:Drivers/lvgl/lvgl/src/core/lv_obj.c ****     lv_group_t * group = lv_obj_get_group(obj);
 447:Drivers/lvgl/lvgl/src/core/lv_obj.c ****     if(group) lv_group_remove_obj(obj);
 448:Drivers/lvgl/lvgl/src/core/lv_obj.c **** 
 449:Drivers/lvgl/lvgl/src/core/lv_obj.c ****     if(obj->spec_attr) {
 450:Drivers/lvgl/lvgl/src/core/lv_obj.c ****         if(obj->spec_attr->children) {
 451:Drivers/lvgl/lvgl/src/core/lv_obj.c ****             lv_mem_free(obj->spec_attr->children);
 452:Drivers/lvgl/lvgl/src/core/lv_obj.c ****             obj->spec_attr->children = NULL;
 453:Drivers/lvgl/lvgl/src/core/lv_obj.c ****         }
 454:Drivers/lvgl/lvgl/src/core/lv_obj.c ****         if(obj->spec_attr->event_dsc) {
 455:Drivers/lvgl/lvgl/src/core/lv_obj.c ****             lv_mem_free(obj->spec_attr->event_dsc);
 456:Drivers/lvgl/lvgl/src/core/lv_obj.c ****             obj->spec_attr->event_dsc = NULL;
 457:Drivers/lvgl/lvgl/src/core/lv_obj.c ****         }
 458:Drivers/lvgl/lvgl/src/core/lv_obj.c **** 
 459:Drivers/lvgl/lvgl/src/core/lv_obj.c ****         lv_mem_free(obj->spec_attr);
 460:Drivers/lvgl/lvgl/src/core/lv_obj.c ****         obj->spec_attr = NULL;
 461:Drivers/lvgl/lvgl/src/core/lv_obj.c ****     }
 462:Drivers/lvgl/lvgl/src/core/lv_obj.c **** }
 463:Drivers/lvgl/lvgl/src/core/lv_obj.c **** 
 464:Drivers/lvgl/lvgl/src/core/lv_obj.c **** static void lv_obj_draw(lv_event_t * e)
 465:Drivers/lvgl/lvgl/src/core/lv_obj.c **** {
 466:Drivers/lvgl/lvgl/src/core/lv_obj.c ****     lv_event_code_t code = lv_event_get_code(e);
 467:Drivers/lvgl/lvgl/src/core/lv_obj.c ****     lv_obj_t * obj = lv_event_get_target(e);
 468:Drivers/lvgl/lvgl/src/core/lv_obj.c ****     if(code == LV_EVENT_COVER_CHECK) {
 469:Drivers/lvgl/lvgl/src/core/lv_obj.c ****         lv_cover_check_info_t * info = lv_event_get_param(e);
 470:Drivers/lvgl/lvgl/src/core/lv_obj.c ****         if(info->res == LV_COVER_RES_MASKED) return;
 471:Drivers/lvgl/lvgl/src/core/lv_obj.c ****         if(lv_obj_get_style_clip_corner(obj, LV_PART_MAIN)) {
 472:Drivers/lvgl/lvgl/src/core/lv_obj.c ****             info->res = LV_COVER_RES_MASKED;
 473:Drivers/lvgl/lvgl/src/core/lv_obj.c ****             return;
 474:Drivers/lvgl/lvgl/src/core/lv_obj.c ****         }
 475:Drivers/lvgl/lvgl/src/core/lv_obj.c **** 
 476:Drivers/lvgl/lvgl/src/core/lv_obj.c ****         /*Most trivial test. Is the mask fully IN the object? If no it surely doesn't cover it*/
 477:Drivers/lvgl/lvgl/src/core/lv_obj.c ****         lv_coord_t r = lv_obj_get_style_radius(obj, LV_PART_MAIN);
 478:Drivers/lvgl/lvgl/src/core/lv_obj.c ****         lv_coord_t w = lv_obj_get_style_transform_width(obj, LV_PART_MAIN);
 479:Drivers/lvgl/lvgl/src/core/lv_obj.c ****         lv_coord_t h = lv_obj_get_style_transform_height(obj, LV_PART_MAIN);
 480:Drivers/lvgl/lvgl/src/core/lv_obj.c ****         lv_area_t coords;
 481:Drivers/lvgl/lvgl/src/core/lv_obj.c ****         lv_area_copy(&coords, &obj->coords);
 482:Drivers/lvgl/lvgl/src/core/lv_obj.c ****         coords.x1 -= w;
 483:Drivers/lvgl/lvgl/src/core/lv_obj.c ****         coords.x2 += w;
 484:Drivers/lvgl/lvgl/src/core/lv_obj.c ****         coords.y1 -= h;
 485:Drivers/lvgl/lvgl/src/core/lv_obj.c ****         coords.y2 += h;
 486:Drivers/lvgl/lvgl/src/core/lv_obj.c **** 
 487:Drivers/lvgl/lvgl/src/core/lv_obj.c ****         if(_lv_area_is_in(info->area, &coords, r) == false) {
 488:Drivers/lvgl/lvgl/src/core/lv_obj.c ****             info->res = LV_COVER_RES_NOT_COVER;
 489:Drivers/lvgl/lvgl/src/core/lv_obj.c ****             return;
ARM GAS  /tmp/ccJvwpHF.s 			page 10


 490:Drivers/lvgl/lvgl/src/core/lv_obj.c ****         }
 491:Drivers/lvgl/lvgl/src/core/lv_obj.c **** 
 492:Drivers/lvgl/lvgl/src/core/lv_obj.c ****         if(lv_obj_get_style_bg_opa(obj, LV_PART_MAIN) < LV_OPA_MAX) {
 493:Drivers/lvgl/lvgl/src/core/lv_obj.c ****             info->res = LV_COVER_RES_NOT_COVER;
 494:Drivers/lvgl/lvgl/src/core/lv_obj.c ****             return;
 495:Drivers/lvgl/lvgl/src/core/lv_obj.c ****         }
 496:Drivers/lvgl/lvgl/src/core/lv_obj.c **** 
 497:Drivers/lvgl/lvgl/src/core/lv_obj.c ****         info->res = LV_COVER_RES_COVER;
 498:Drivers/lvgl/lvgl/src/core/lv_obj.c **** 
 499:Drivers/lvgl/lvgl/src/core/lv_obj.c ****     }
 500:Drivers/lvgl/lvgl/src/core/lv_obj.c ****     else if(code == LV_EVENT_DRAW_MAIN) {
 501:Drivers/lvgl/lvgl/src/core/lv_obj.c ****         lv_draw_ctx_t * draw_ctx = lv_event_get_draw_ctx(e);
 502:Drivers/lvgl/lvgl/src/core/lv_obj.c ****         lv_draw_rect_dsc_t draw_dsc;
 503:Drivers/lvgl/lvgl/src/core/lv_obj.c ****         lv_draw_rect_dsc_init(&draw_dsc);
 504:Drivers/lvgl/lvgl/src/core/lv_obj.c ****         /*If the border is drawn later disable loading its properties*/
 505:Drivers/lvgl/lvgl/src/core/lv_obj.c ****         if(lv_obj_get_style_border_post(obj, LV_PART_MAIN)) {
 506:Drivers/lvgl/lvgl/src/core/lv_obj.c ****             draw_dsc.border_post = 1;
 507:Drivers/lvgl/lvgl/src/core/lv_obj.c ****         }
 508:Drivers/lvgl/lvgl/src/core/lv_obj.c **** 
 509:Drivers/lvgl/lvgl/src/core/lv_obj.c ****         lv_obj_init_draw_rect_dsc(obj, LV_PART_MAIN, &draw_dsc);
 510:Drivers/lvgl/lvgl/src/core/lv_obj.c ****         lv_coord_t w = lv_obj_get_style_transform_width(obj, LV_PART_MAIN);
 511:Drivers/lvgl/lvgl/src/core/lv_obj.c ****         lv_coord_t h = lv_obj_get_style_transform_height(obj, LV_PART_MAIN);
 512:Drivers/lvgl/lvgl/src/core/lv_obj.c ****         lv_area_t coords;
 513:Drivers/lvgl/lvgl/src/core/lv_obj.c ****         lv_area_copy(&coords, &obj->coords);
 514:Drivers/lvgl/lvgl/src/core/lv_obj.c ****         coords.x1 -= w;
 515:Drivers/lvgl/lvgl/src/core/lv_obj.c ****         coords.x2 += w;
 516:Drivers/lvgl/lvgl/src/core/lv_obj.c ****         coords.y1 -= h;
 517:Drivers/lvgl/lvgl/src/core/lv_obj.c ****         coords.y2 += h;
 518:Drivers/lvgl/lvgl/src/core/lv_obj.c **** 
 519:Drivers/lvgl/lvgl/src/core/lv_obj.c ****         lv_obj_draw_part_dsc_t part_dsc;
 520:Drivers/lvgl/lvgl/src/core/lv_obj.c ****         lv_obj_draw_dsc_init(&part_dsc, draw_ctx);
 521:Drivers/lvgl/lvgl/src/core/lv_obj.c ****         part_dsc.class_p = MY_CLASS;
 522:Drivers/lvgl/lvgl/src/core/lv_obj.c ****         part_dsc.type = LV_OBJ_DRAW_PART_RECTANGLE;
 523:Drivers/lvgl/lvgl/src/core/lv_obj.c ****         part_dsc.rect_dsc = &draw_dsc;
 524:Drivers/lvgl/lvgl/src/core/lv_obj.c ****         part_dsc.draw_area = &coords;
 525:Drivers/lvgl/lvgl/src/core/lv_obj.c ****         part_dsc.part = LV_PART_MAIN;
 526:Drivers/lvgl/lvgl/src/core/lv_obj.c ****         lv_event_send(obj, LV_EVENT_DRAW_PART_BEGIN, &part_dsc);
 527:Drivers/lvgl/lvgl/src/core/lv_obj.c **** 
 528:Drivers/lvgl/lvgl/src/core/lv_obj.c **** #if LV_DRAW_COMPLEX
 529:Drivers/lvgl/lvgl/src/core/lv_obj.c ****         /*With clip corner enabled draw the bg img separately to make it clipped*/
 530:Drivers/lvgl/lvgl/src/core/lv_obj.c ****         bool clip_corner = (lv_obj_get_style_clip_corner(obj, LV_PART_MAIN) && draw_dsc.radius != 0
 531:Drivers/lvgl/lvgl/src/core/lv_obj.c ****         const void * bg_img_src = draw_dsc.bg_img_src;
 532:Drivers/lvgl/lvgl/src/core/lv_obj.c ****         if(clip_corner) {
 533:Drivers/lvgl/lvgl/src/core/lv_obj.c ****             draw_dsc.bg_img_src = NULL;
 534:Drivers/lvgl/lvgl/src/core/lv_obj.c ****         }
 535:Drivers/lvgl/lvgl/src/core/lv_obj.c **** #endif
 536:Drivers/lvgl/lvgl/src/core/lv_obj.c **** 
 537:Drivers/lvgl/lvgl/src/core/lv_obj.c ****         lv_draw_rect(draw_ctx, &draw_dsc, &coords);
 538:Drivers/lvgl/lvgl/src/core/lv_obj.c **** 
 539:Drivers/lvgl/lvgl/src/core/lv_obj.c **** 
 540:Drivers/lvgl/lvgl/src/core/lv_obj.c **** #if LV_DRAW_COMPLEX
 541:Drivers/lvgl/lvgl/src/core/lv_obj.c ****         if(clip_corner) {
 542:Drivers/lvgl/lvgl/src/core/lv_obj.c ****             lv_draw_mask_radius_param_t * mp = lv_mem_buf_get(sizeof(lv_draw_mask_radius_param_t));
 543:Drivers/lvgl/lvgl/src/core/lv_obj.c ****             lv_draw_mask_radius_init(mp, &obj->coords, draw_dsc.radius, false);
 544:Drivers/lvgl/lvgl/src/core/lv_obj.c ****             /*Add the mask and use `obj+8` as custom id. Don't use `obj` directly because it might 
 545:Drivers/lvgl/lvgl/src/core/lv_obj.c ****             lv_draw_mask_add(mp, obj + 8);
 546:Drivers/lvgl/lvgl/src/core/lv_obj.c **** 
ARM GAS  /tmp/ccJvwpHF.s 			page 11


 547:Drivers/lvgl/lvgl/src/core/lv_obj.c ****             if(bg_img_src) {
 548:Drivers/lvgl/lvgl/src/core/lv_obj.c ****                 draw_dsc.bg_opa = LV_OPA_TRANSP;
 549:Drivers/lvgl/lvgl/src/core/lv_obj.c ****                 draw_dsc.border_opa = LV_OPA_TRANSP;
 550:Drivers/lvgl/lvgl/src/core/lv_obj.c ****                 draw_dsc.outline_opa = LV_OPA_TRANSP;
 551:Drivers/lvgl/lvgl/src/core/lv_obj.c ****                 draw_dsc.shadow_opa = LV_OPA_TRANSP;
 552:Drivers/lvgl/lvgl/src/core/lv_obj.c ****                 draw_dsc.bg_img_src = bg_img_src;
 553:Drivers/lvgl/lvgl/src/core/lv_obj.c ****                 lv_draw_rect(draw_ctx, &draw_dsc, &coords);
 554:Drivers/lvgl/lvgl/src/core/lv_obj.c ****             }
 555:Drivers/lvgl/lvgl/src/core/lv_obj.c **** 
 556:Drivers/lvgl/lvgl/src/core/lv_obj.c ****         }
 557:Drivers/lvgl/lvgl/src/core/lv_obj.c **** #endif
 558:Drivers/lvgl/lvgl/src/core/lv_obj.c ****         lv_event_send(obj, LV_EVENT_DRAW_PART_END, &part_dsc);
 559:Drivers/lvgl/lvgl/src/core/lv_obj.c ****     }
 560:Drivers/lvgl/lvgl/src/core/lv_obj.c ****     else if(code == LV_EVENT_DRAW_POST) {
 561:Drivers/lvgl/lvgl/src/core/lv_obj.c ****         lv_draw_ctx_t * draw_ctx = lv_event_get_draw_ctx(e);
 562:Drivers/lvgl/lvgl/src/core/lv_obj.c ****         draw_scrollbar(obj, draw_ctx);
 563:Drivers/lvgl/lvgl/src/core/lv_obj.c **** 
 564:Drivers/lvgl/lvgl/src/core/lv_obj.c **** #if LV_DRAW_COMPLEX
 565:Drivers/lvgl/lvgl/src/core/lv_obj.c ****         if(lv_obj_get_style_clip_corner(obj, LV_PART_MAIN)) {
 566:Drivers/lvgl/lvgl/src/core/lv_obj.c ****             lv_draw_mask_radius_param_t * param = lv_draw_mask_remove_custom(obj + 8);
 567:Drivers/lvgl/lvgl/src/core/lv_obj.c ****             if(param) {
 568:Drivers/lvgl/lvgl/src/core/lv_obj.c ****                 lv_draw_mask_free_param(param);
 569:Drivers/lvgl/lvgl/src/core/lv_obj.c ****                 lv_mem_buf_release(param);
 570:Drivers/lvgl/lvgl/src/core/lv_obj.c ****             }
 571:Drivers/lvgl/lvgl/src/core/lv_obj.c ****         }
 572:Drivers/lvgl/lvgl/src/core/lv_obj.c **** #endif
 573:Drivers/lvgl/lvgl/src/core/lv_obj.c **** 
 574:Drivers/lvgl/lvgl/src/core/lv_obj.c ****         /*If the border is drawn later disable loading other properties*/
 575:Drivers/lvgl/lvgl/src/core/lv_obj.c ****         if(lv_obj_get_style_border_post(obj, LV_PART_MAIN)) {
 576:Drivers/lvgl/lvgl/src/core/lv_obj.c ****             lv_draw_rect_dsc_t draw_dsc;
 577:Drivers/lvgl/lvgl/src/core/lv_obj.c ****             lv_draw_rect_dsc_init(&draw_dsc);
 578:Drivers/lvgl/lvgl/src/core/lv_obj.c ****             draw_dsc.bg_opa = LV_OPA_TRANSP;
 579:Drivers/lvgl/lvgl/src/core/lv_obj.c ****             draw_dsc.bg_img_opa = LV_OPA_TRANSP;
 580:Drivers/lvgl/lvgl/src/core/lv_obj.c ****             draw_dsc.outline_opa = LV_OPA_TRANSP;
 581:Drivers/lvgl/lvgl/src/core/lv_obj.c ****             draw_dsc.shadow_opa = LV_OPA_TRANSP;
 582:Drivers/lvgl/lvgl/src/core/lv_obj.c ****             lv_obj_init_draw_rect_dsc(obj, LV_PART_MAIN, &draw_dsc);
 583:Drivers/lvgl/lvgl/src/core/lv_obj.c **** 
 584:Drivers/lvgl/lvgl/src/core/lv_obj.c ****             lv_coord_t w = lv_obj_get_style_transform_width(obj, LV_PART_MAIN);
 585:Drivers/lvgl/lvgl/src/core/lv_obj.c ****             lv_coord_t h = lv_obj_get_style_transform_height(obj, LV_PART_MAIN);
 586:Drivers/lvgl/lvgl/src/core/lv_obj.c ****             lv_area_t coords;
 587:Drivers/lvgl/lvgl/src/core/lv_obj.c ****             lv_area_copy(&coords, &obj->coords);
 588:Drivers/lvgl/lvgl/src/core/lv_obj.c ****             coords.x1 -= w;
 589:Drivers/lvgl/lvgl/src/core/lv_obj.c ****             coords.x2 += w;
 590:Drivers/lvgl/lvgl/src/core/lv_obj.c ****             coords.y1 -= h;
 591:Drivers/lvgl/lvgl/src/core/lv_obj.c ****             coords.y2 += h;
 592:Drivers/lvgl/lvgl/src/core/lv_obj.c **** 
 593:Drivers/lvgl/lvgl/src/core/lv_obj.c ****             lv_obj_draw_part_dsc_t part_dsc;
 594:Drivers/lvgl/lvgl/src/core/lv_obj.c ****             lv_obj_draw_dsc_init(&part_dsc, draw_ctx);
 595:Drivers/lvgl/lvgl/src/core/lv_obj.c ****             part_dsc.class_p = MY_CLASS;
 596:Drivers/lvgl/lvgl/src/core/lv_obj.c ****             part_dsc.type = LV_OBJ_DRAW_PART_BORDER_POST;
 597:Drivers/lvgl/lvgl/src/core/lv_obj.c ****             part_dsc.rect_dsc = &draw_dsc;
 598:Drivers/lvgl/lvgl/src/core/lv_obj.c ****             part_dsc.draw_area = &coords;
 599:Drivers/lvgl/lvgl/src/core/lv_obj.c ****             part_dsc.part = LV_PART_MAIN;
 600:Drivers/lvgl/lvgl/src/core/lv_obj.c ****             lv_event_send(obj, LV_EVENT_DRAW_PART_BEGIN, &part_dsc);
 601:Drivers/lvgl/lvgl/src/core/lv_obj.c **** 
 602:Drivers/lvgl/lvgl/src/core/lv_obj.c ****             lv_draw_rect(draw_ctx, &draw_dsc, &coords);
 603:Drivers/lvgl/lvgl/src/core/lv_obj.c ****             lv_event_send(obj, LV_EVENT_DRAW_PART_END, &part_dsc);
ARM GAS  /tmp/ccJvwpHF.s 			page 12


 604:Drivers/lvgl/lvgl/src/core/lv_obj.c ****         }
 605:Drivers/lvgl/lvgl/src/core/lv_obj.c ****     }
 606:Drivers/lvgl/lvgl/src/core/lv_obj.c **** }
 607:Drivers/lvgl/lvgl/src/core/lv_obj.c **** 
 608:Drivers/lvgl/lvgl/src/core/lv_obj.c **** static void draw_scrollbar(lv_obj_t * obj, lv_draw_ctx_t * draw_ctx)
 609:Drivers/lvgl/lvgl/src/core/lv_obj.c **** {
 610:Drivers/lvgl/lvgl/src/core/lv_obj.c **** 
 611:Drivers/lvgl/lvgl/src/core/lv_obj.c ****     lv_area_t hor_area;
 612:Drivers/lvgl/lvgl/src/core/lv_obj.c ****     lv_area_t ver_area;
 613:Drivers/lvgl/lvgl/src/core/lv_obj.c ****     lv_obj_get_scrollbar_area(obj, &hor_area, &ver_area);
 614:Drivers/lvgl/lvgl/src/core/lv_obj.c **** 
 615:Drivers/lvgl/lvgl/src/core/lv_obj.c ****     if(lv_area_get_size(&hor_area) <= 0 && lv_area_get_size(&ver_area) <= 0) return;
 616:Drivers/lvgl/lvgl/src/core/lv_obj.c **** 
 617:Drivers/lvgl/lvgl/src/core/lv_obj.c ****     lv_draw_rect_dsc_t draw_dsc;
 618:Drivers/lvgl/lvgl/src/core/lv_obj.c ****     lv_res_t sb_res = scrollbar_init_draw_dsc(obj, &draw_dsc);
 619:Drivers/lvgl/lvgl/src/core/lv_obj.c ****     if(sb_res != LV_RES_OK) return;
 620:Drivers/lvgl/lvgl/src/core/lv_obj.c **** 
 621:Drivers/lvgl/lvgl/src/core/lv_obj.c ****     lv_obj_draw_part_dsc_t part_dsc;
 622:Drivers/lvgl/lvgl/src/core/lv_obj.c ****     lv_obj_draw_dsc_init(&part_dsc, draw_ctx);
 623:Drivers/lvgl/lvgl/src/core/lv_obj.c ****     part_dsc.class_p = MY_CLASS;
 624:Drivers/lvgl/lvgl/src/core/lv_obj.c ****     part_dsc.type = LV_OBJ_DRAW_PART_SCROLLBAR;
 625:Drivers/lvgl/lvgl/src/core/lv_obj.c ****     part_dsc.rect_dsc = &draw_dsc;
 626:Drivers/lvgl/lvgl/src/core/lv_obj.c ****     part_dsc.part = LV_PART_SCROLLBAR;
 627:Drivers/lvgl/lvgl/src/core/lv_obj.c **** 
 628:Drivers/lvgl/lvgl/src/core/lv_obj.c ****     if(lv_area_get_size(&hor_area) > 0) {
 629:Drivers/lvgl/lvgl/src/core/lv_obj.c ****         part_dsc.draw_area = &hor_area;
 630:Drivers/lvgl/lvgl/src/core/lv_obj.c ****         lv_event_send(obj, LV_EVENT_DRAW_PART_BEGIN, &part_dsc);
 631:Drivers/lvgl/lvgl/src/core/lv_obj.c ****         lv_draw_rect(draw_ctx, &draw_dsc, &hor_area);
 632:Drivers/lvgl/lvgl/src/core/lv_obj.c ****         lv_event_send(obj, LV_EVENT_DRAW_PART_END, &part_dsc);
 633:Drivers/lvgl/lvgl/src/core/lv_obj.c ****     }
 634:Drivers/lvgl/lvgl/src/core/lv_obj.c ****     if(lv_area_get_size(&ver_area) > 0) {
 635:Drivers/lvgl/lvgl/src/core/lv_obj.c ****         part_dsc.draw_area = &ver_area;
 636:Drivers/lvgl/lvgl/src/core/lv_obj.c ****         lv_event_send(obj, LV_EVENT_DRAW_PART_BEGIN, &part_dsc);
 637:Drivers/lvgl/lvgl/src/core/lv_obj.c ****         part_dsc.draw_area = &ver_area;
 638:Drivers/lvgl/lvgl/src/core/lv_obj.c ****         lv_draw_rect(draw_ctx, &draw_dsc, &ver_area);
 639:Drivers/lvgl/lvgl/src/core/lv_obj.c ****         lv_event_send(obj, LV_EVENT_DRAW_PART_END, &part_dsc);
 640:Drivers/lvgl/lvgl/src/core/lv_obj.c ****     }
 641:Drivers/lvgl/lvgl/src/core/lv_obj.c **** }
 642:Drivers/lvgl/lvgl/src/core/lv_obj.c **** 
 643:Drivers/lvgl/lvgl/src/core/lv_obj.c **** /**
 644:Drivers/lvgl/lvgl/src/core/lv_obj.c ****  * Initialize the draw descriptor for the scrollbar
 645:Drivers/lvgl/lvgl/src/core/lv_obj.c ****  * @param obj pointer to an object
 646:Drivers/lvgl/lvgl/src/core/lv_obj.c ****  * @param dsc the draw descriptor to initialize
 647:Drivers/lvgl/lvgl/src/core/lv_obj.c ****  * @return LV_RES_OK: the scrollbar is visible; LV_RES_INV: the scrollbar is not visible
 648:Drivers/lvgl/lvgl/src/core/lv_obj.c ****  */
 649:Drivers/lvgl/lvgl/src/core/lv_obj.c **** static lv_res_t scrollbar_init_draw_dsc(lv_obj_t * obj, lv_draw_rect_dsc_t * dsc)
 650:Drivers/lvgl/lvgl/src/core/lv_obj.c **** {
 651:Drivers/lvgl/lvgl/src/core/lv_obj.c ****     lv_draw_rect_dsc_init(dsc);
 652:Drivers/lvgl/lvgl/src/core/lv_obj.c ****     dsc->bg_opa = lv_obj_get_style_bg_opa(obj, LV_PART_SCROLLBAR);
 653:Drivers/lvgl/lvgl/src/core/lv_obj.c ****     if(dsc->bg_opa > LV_OPA_MIN) {
 654:Drivers/lvgl/lvgl/src/core/lv_obj.c ****         dsc->bg_color = lv_obj_get_style_bg_color(obj, LV_PART_SCROLLBAR);
 655:Drivers/lvgl/lvgl/src/core/lv_obj.c ****     }
 656:Drivers/lvgl/lvgl/src/core/lv_obj.c **** 
 657:Drivers/lvgl/lvgl/src/core/lv_obj.c ****     dsc->border_opa = lv_obj_get_style_border_opa(obj, LV_PART_SCROLLBAR);
 658:Drivers/lvgl/lvgl/src/core/lv_obj.c ****     if(dsc->border_opa > LV_OPA_MIN) {
 659:Drivers/lvgl/lvgl/src/core/lv_obj.c ****         dsc->border_width = lv_obj_get_style_border_width(obj, LV_PART_SCROLLBAR);
 660:Drivers/lvgl/lvgl/src/core/lv_obj.c ****         if(dsc->border_width > 0) {
ARM GAS  /tmp/ccJvwpHF.s 			page 13


 661:Drivers/lvgl/lvgl/src/core/lv_obj.c ****             dsc->border_color = lv_obj_get_style_border_color(obj, LV_PART_SCROLLBAR);
 662:Drivers/lvgl/lvgl/src/core/lv_obj.c ****         }
 663:Drivers/lvgl/lvgl/src/core/lv_obj.c ****         else {
 664:Drivers/lvgl/lvgl/src/core/lv_obj.c ****             dsc->border_opa = LV_OPA_TRANSP;
 665:Drivers/lvgl/lvgl/src/core/lv_obj.c ****         }
 666:Drivers/lvgl/lvgl/src/core/lv_obj.c ****     }
 667:Drivers/lvgl/lvgl/src/core/lv_obj.c **** 
 668:Drivers/lvgl/lvgl/src/core/lv_obj.c **** #if LV_DRAW_COMPLEX
 669:Drivers/lvgl/lvgl/src/core/lv_obj.c ****     dsc->shadow_opa = lv_obj_get_style_shadow_opa(obj, LV_PART_SCROLLBAR);
 670:Drivers/lvgl/lvgl/src/core/lv_obj.c ****     if(dsc->shadow_opa > LV_OPA_MIN) {
 671:Drivers/lvgl/lvgl/src/core/lv_obj.c ****         dsc->shadow_width = lv_obj_get_style_shadow_width(obj, LV_PART_SCROLLBAR);
 672:Drivers/lvgl/lvgl/src/core/lv_obj.c ****         if(dsc->shadow_width > 0) {
 673:Drivers/lvgl/lvgl/src/core/lv_obj.c ****             dsc->shadow_spread = lv_obj_get_style_shadow_spread(obj, LV_PART_SCROLLBAR);
 674:Drivers/lvgl/lvgl/src/core/lv_obj.c ****             dsc->shadow_color = lv_obj_get_style_shadow_color(obj, LV_PART_SCROLLBAR);
 675:Drivers/lvgl/lvgl/src/core/lv_obj.c ****         }
 676:Drivers/lvgl/lvgl/src/core/lv_obj.c ****         else {
 677:Drivers/lvgl/lvgl/src/core/lv_obj.c ****             dsc->shadow_opa = LV_OPA_TRANSP;
 678:Drivers/lvgl/lvgl/src/core/lv_obj.c ****         }
 679:Drivers/lvgl/lvgl/src/core/lv_obj.c ****     }
 680:Drivers/lvgl/lvgl/src/core/lv_obj.c **** 
 681:Drivers/lvgl/lvgl/src/core/lv_obj.c ****     lv_opa_t opa = lv_obj_get_style_opa(obj, LV_PART_SCROLLBAR);
 682:Drivers/lvgl/lvgl/src/core/lv_obj.c ****     if(opa < LV_OPA_MAX) {
 683:Drivers/lvgl/lvgl/src/core/lv_obj.c ****         dsc->bg_opa = (dsc->bg_opa * opa) >> 8;
 684:Drivers/lvgl/lvgl/src/core/lv_obj.c ****         dsc->border_opa = (dsc->bg_opa * opa) >> 8;
 685:Drivers/lvgl/lvgl/src/core/lv_obj.c ****         dsc->shadow_opa = (dsc->bg_opa * opa) >> 8;
 686:Drivers/lvgl/lvgl/src/core/lv_obj.c ****     }
 687:Drivers/lvgl/lvgl/src/core/lv_obj.c **** 
 688:Drivers/lvgl/lvgl/src/core/lv_obj.c ****     if(dsc->bg_opa != LV_OPA_TRANSP || dsc->border_opa != LV_OPA_TRANSP || dsc->shadow_opa != LV_OP
 689:Drivers/lvgl/lvgl/src/core/lv_obj.c ****         dsc->radius = lv_obj_get_style_radius(obj, LV_PART_SCROLLBAR);
 690:Drivers/lvgl/lvgl/src/core/lv_obj.c ****         return LV_RES_OK;
 691:Drivers/lvgl/lvgl/src/core/lv_obj.c ****     }
 692:Drivers/lvgl/lvgl/src/core/lv_obj.c ****     else {
 693:Drivers/lvgl/lvgl/src/core/lv_obj.c ****         return LV_RES_INV;
 694:Drivers/lvgl/lvgl/src/core/lv_obj.c ****     }
 695:Drivers/lvgl/lvgl/src/core/lv_obj.c **** #else
 696:Drivers/lvgl/lvgl/src/core/lv_obj.c ****     if(dsc->bg_opa != LV_OPA_TRANSP || dsc->border_opa != LV_OPA_TRANSP) return LV_RES_OK;
 697:Drivers/lvgl/lvgl/src/core/lv_obj.c ****     else return LV_RES_INV;
 698:Drivers/lvgl/lvgl/src/core/lv_obj.c **** #endif
 699:Drivers/lvgl/lvgl/src/core/lv_obj.c **** }
 700:Drivers/lvgl/lvgl/src/core/lv_obj.c **** 
 701:Drivers/lvgl/lvgl/src/core/lv_obj.c **** static void lv_obj_event(const lv_obj_class_t * class_p, lv_event_t * e)
 702:Drivers/lvgl/lvgl/src/core/lv_obj.c **** {
 703:Drivers/lvgl/lvgl/src/core/lv_obj.c ****     LV_UNUSED(class_p);
 704:Drivers/lvgl/lvgl/src/core/lv_obj.c **** 
 705:Drivers/lvgl/lvgl/src/core/lv_obj.c ****     lv_event_code_t code = lv_event_get_code(e);
 706:Drivers/lvgl/lvgl/src/core/lv_obj.c ****     lv_obj_t * obj = lv_event_get_current_target(e);
 707:Drivers/lvgl/lvgl/src/core/lv_obj.c ****     if(code == LV_EVENT_PRESSED) {
 708:Drivers/lvgl/lvgl/src/core/lv_obj.c ****         lv_obj_add_state(obj, LV_STATE_PRESSED);
 709:Drivers/lvgl/lvgl/src/core/lv_obj.c ****     }
 710:Drivers/lvgl/lvgl/src/core/lv_obj.c ****     else if(code == LV_EVENT_RELEASED) {
 711:Drivers/lvgl/lvgl/src/core/lv_obj.c ****         lv_obj_clear_state(obj, LV_STATE_PRESSED);
 712:Drivers/lvgl/lvgl/src/core/lv_obj.c ****         void * param = lv_event_get_param(e);
 713:Drivers/lvgl/lvgl/src/core/lv_obj.c ****         /*Go the checked state if enabled*/
 714:Drivers/lvgl/lvgl/src/core/lv_obj.c ****         if(lv_indev_get_scroll_obj(param) == NULL && lv_obj_has_flag(obj, LV_OBJ_FLAG_CHECKABLE)) {
 715:Drivers/lvgl/lvgl/src/core/lv_obj.c ****             if(!(lv_obj_get_state(obj) & LV_STATE_CHECKED)) lv_obj_add_state(obj, LV_STATE_CHECKED)
 716:Drivers/lvgl/lvgl/src/core/lv_obj.c ****             else lv_obj_clear_state(obj, LV_STATE_CHECKED);
 717:Drivers/lvgl/lvgl/src/core/lv_obj.c **** 
ARM GAS  /tmp/ccJvwpHF.s 			page 14


 718:Drivers/lvgl/lvgl/src/core/lv_obj.c ****             lv_res_t res = lv_event_send(obj, LV_EVENT_VALUE_CHANGED, NULL);
 719:Drivers/lvgl/lvgl/src/core/lv_obj.c ****             if(res != LV_RES_OK) return;
 720:Drivers/lvgl/lvgl/src/core/lv_obj.c ****         }
 721:Drivers/lvgl/lvgl/src/core/lv_obj.c ****     }
 722:Drivers/lvgl/lvgl/src/core/lv_obj.c ****     else if(code == LV_EVENT_PRESS_LOST) {
 723:Drivers/lvgl/lvgl/src/core/lv_obj.c ****         lv_obj_clear_state(obj, LV_STATE_PRESSED);
 724:Drivers/lvgl/lvgl/src/core/lv_obj.c ****     }
 725:Drivers/lvgl/lvgl/src/core/lv_obj.c ****     else if(code == LV_EVENT_STYLE_CHANGED) {
 726:Drivers/lvgl/lvgl/src/core/lv_obj.c ****         uint32_t child_cnt = lv_obj_get_child_cnt(obj);
 727:Drivers/lvgl/lvgl/src/core/lv_obj.c ****         for(uint32_t i = 0; i < child_cnt; i++) {
 728:Drivers/lvgl/lvgl/src/core/lv_obj.c ****             lv_obj_t * child = obj->spec_attr->children[i];
 729:Drivers/lvgl/lvgl/src/core/lv_obj.c ****             lv_obj_mark_layout_as_dirty(child);
 730:Drivers/lvgl/lvgl/src/core/lv_obj.c ****         }
 731:Drivers/lvgl/lvgl/src/core/lv_obj.c ****     }
 732:Drivers/lvgl/lvgl/src/core/lv_obj.c ****     else if(code == LV_EVENT_KEY) {
 733:Drivers/lvgl/lvgl/src/core/lv_obj.c ****         if(lv_obj_has_flag(obj, LV_OBJ_FLAG_CHECKABLE)) {
 734:Drivers/lvgl/lvgl/src/core/lv_obj.c ****             char c = *((char *)lv_event_get_param(e));
 735:Drivers/lvgl/lvgl/src/core/lv_obj.c ****             if(c == LV_KEY_RIGHT || c == LV_KEY_UP) {
 736:Drivers/lvgl/lvgl/src/core/lv_obj.c ****                 lv_obj_add_state(obj, LV_STATE_CHECKED);
 737:Drivers/lvgl/lvgl/src/core/lv_obj.c ****             }
 738:Drivers/lvgl/lvgl/src/core/lv_obj.c ****             else if(c == LV_KEY_LEFT || c == LV_KEY_DOWN) {
 739:Drivers/lvgl/lvgl/src/core/lv_obj.c ****                 lv_obj_clear_state(obj, LV_STATE_CHECKED);
 740:Drivers/lvgl/lvgl/src/core/lv_obj.c ****             }
 741:Drivers/lvgl/lvgl/src/core/lv_obj.c **** 
 742:Drivers/lvgl/lvgl/src/core/lv_obj.c ****             /*With Enter LV_EVENT_RELEASED will send VALUE_CHANGE event*/
 743:Drivers/lvgl/lvgl/src/core/lv_obj.c ****             if(c != LV_KEY_ENTER) {
 744:Drivers/lvgl/lvgl/src/core/lv_obj.c ****                 lv_res_t res = lv_event_send(obj, LV_EVENT_VALUE_CHANGED, NULL);
 745:Drivers/lvgl/lvgl/src/core/lv_obj.c ****                 if(res != LV_RES_OK) return;
 746:Drivers/lvgl/lvgl/src/core/lv_obj.c ****             }
 747:Drivers/lvgl/lvgl/src/core/lv_obj.c ****         }
 748:Drivers/lvgl/lvgl/src/core/lv_obj.c ****         else if(lv_obj_has_flag(obj, LV_OBJ_FLAG_SCROLLABLE | LV_OBJ_FLAG_SCROLL_WITH_ARROW) && !lv
 749:Drivers/lvgl/lvgl/src/core/lv_obj.c ****             /*scroll by keypad or encoder*/
 750:Drivers/lvgl/lvgl/src/core/lv_obj.c ****             lv_anim_enable_t anim_enable = LV_ANIM_OFF;
 751:Drivers/lvgl/lvgl/src/core/lv_obj.c ****             lv_coord_t sl = lv_obj_get_scroll_left(obj);
 752:Drivers/lvgl/lvgl/src/core/lv_obj.c ****             lv_coord_t sr = lv_obj_get_scroll_right(obj);
 753:Drivers/lvgl/lvgl/src/core/lv_obj.c ****             char c = *((char *)lv_event_get_param(e));
 754:Drivers/lvgl/lvgl/src/core/lv_obj.c ****             if(c == LV_KEY_DOWN) {
 755:Drivers/lvgl/lvgl/src/core/lv_obj.c ****                 /*use scroll_to_x/y functions to enforce scroll limits*/
 756:Drivers/lvgl/lvgl/src/core/lv_obj.c ****                 lv_obj_scroll_to_y(obj, lv_obj_get_scroll_y(obj) + lv_obj_get_height(obj) / 4, anim
 757:Drivers/lvgl/lvgl/src/core/lv_obj.c ****             }
 758:Drivers/lvgl/lvgl/src/core/lv_obj.c ****             else if(c == LV_KEY_UP) {
 759:Drivers/lvgl/lvgl/src/core/lv_obj.c ****                 lv_obj_scroll_to_y(obj, lv_obj_get_scroll_y(obj) - lv_obj_get_height(obj) / 4, anim
 760:Drivers/lvgl/lvgl/src/core/lv_obj.c ****             }
 761:Drivers/lvgl/lvgl/src/core/lv_obj.c ****             else if(c == LV_KEY_RIGHT) {
 762:Drivers/lvgl/lvgl/src/core/lv_obj.c ****                 /*If the object can't be scrolled horizontally then scroll it vertically*/
 763:Drivers/lvgl/lvgl/src/core/lv_obj.c ****                 if(!((lv_obj_get_scroll_dir(obj) & LV_DIR_HOR) && (sl > 0 || sr > 0)))
 764:Drivers/lvgl/lvgl/src/core/lv_obj.c ****                     lv_obj_scroll_to_y(obj, lv_obj_get_scroll_y(obj) + lv_obj_get_height(obj) / 4, 
 765:Drivers/lvgl/lvgl/src/core/lv_obj.c ****                 else
 766:Drivers/lvgl/lvgl/src/core/lv_obj.c ****                     lv_obj_scroll_to_x(obj, lv_obj_get_scroll_x(obj) + lv_obj_get_width(obj) / 4, a
 767:Drivers/lvgl/lvgl/src/core/lv_obj.c ****             }
 768:Drivers/lvgl/lvgl/src/core/lv_obj.c ****             else if(c == LV_KEY_LEFT) {
 769:Drivers/lvgl/lvgl/src/core/lv_obj.c ****                 /*If the object can't be scrolled horizontally then scroll it vertically*/
 770:Drivers/lvgl/lvgl/src/core/lv_obj.c ****                 if(!((lv_obj_get_scroll_dir(obj) & LV_DIR_HOR) && (sl > 0 || sr > 0)))
 771:Drivers/lvgl/lvgl/src/core/lv_obj.c ****                     lv_obj_scroll_to_y(obj, lv_obj_get_scroll_y(obj) - lv_obj_get_height(obj) / 4, 
 772:Drivers/lvgl/lvgl/src/core/lv_obj.c ****                 else
 773:Drivers/lvgl/lvgl/src/core/lv_obj.c ****                     lv_obj_scroll_to_x(obj, lv_obj_get_scroll_x(obj) - lv_obj_get_width(obj) / 4, a
 774:Drivers/lvgl/lvgl/src/core/lv_obj.c ****             }
ARM GAS  /tmp/ccJvwpHF.s 			page 15


 775:Drivers/lvgl/lvgl/src/core/lv_obj.c ****         }
 776:Drivers/lvgl/lvgl/src/core/lv_obj.c ****     }
 777:Drivers/lvgl/lvgl/src/core/lv_obj.c ****     else if(code == LV_EVENT_FOCUSED) {
 778:Drivers/lvgl/lvgl/src/core/lv_obj.c ****         if(lv_obj_has_flag(obj, LV_OBJ_FLAG_SCROLL_ON_FOCUS)) {
 779:Drivers/lvgl/lvgl/src/core/lv_obj.c ****             lv_obj_scroll_to_view_recursive(obj, LV_ANIM_ON);
 780:Drivers/lvgl/lvgl/src/core/lv_obj.c ****         }
 781:Drivers/lvgl/lvgl/src/core/lv_obj.c **** 
 782:Drivers/lvgl/lvgl/src/core/lv_obj.c ****         bool editing = false;
 783:Drivers/lvgl/lvgl/src/core/lv_obj.c ****         editing = lv_group_get_editing(lv_obj_get_group(obj));
 784:Drivers/lvgl/lvgl/src/core/lv_obj.c ****         lv_state_t state = LV_STATE_FOCUSED;
 785:Drivers/lvgl/lvgl/src/core/lv_obj.c **** 
 786:Drivers/lvgl/lvgl/src/core/lv_obj.c ****         /* Use the indev for then indev handler.
 787:Drivers/lvgl/lvgl/src/core/lv_obj.c ****          * But if the obj was focused manually it returns NULL so try to
 788:Drivers/lvgl/lvgl/src/core/lv_obj.c ****          * use the indev from the event*/
 789:Drivers/lvgl/lvgl/src/core/lv_obj.c ****         lv_indev_t * indev = lv_indev_get_act();
 790:Drivers/lvgl/lvgl/src/core/lv_obj.c ****         if(indev == NULL) indev = lv_event_get_indev(e);
 791:Drivers/lvgl/lvgl/src/core/lv_obj.c **** 
 792:Drivers/lvgl/lvgl/src/core/lv_obj.c ****         lv_indev_type_t indev_type = lv_indev_get_type(indev);
 793:Drivers/lvgl/lvgl/src/core/lv_obj.c ****         if(indev_type == LV_INDEV_TYPE_KEYPAD || indev_type == LV_INDEV_TYPE_ENCODER) state |= LV_S
 794:Drivers/lvgl/lvgl/src/core/lv_obj.c ****         if(editing) {
 795:Drivers/lvgl/lvgl/src/core/lv_obj.c ****             state |= LV_STATE_EDITED;
 796:Drivers/lvgl/lvgl/src/core/lv_obj.c ****             lv_obj_add_state(obj, state);
 797:Drivers/lvgl/lvgl/src/core/lv_obj.c ****         }
 798:Drivers/lvgl/lvgl/src/core/lv_obj.c ****         else {
 799:Drivers/lvgl/lvgl/src/core/lv_obj.c ****             lv_obj_add_state(obj, state);
 800:Drivers/lvgl/lvgl/src/core/lv_obj.c ****             lv_obj_clear_state(obj, LV_STATE_EDITED);
 801:Drivers/lvgl/lvgl/src/core/lv_obj.c ****         }
 802:Drivers/lvgl/lvgl/src/core/lv_obj.c ****     }
 803:Drivers/lvgl/lvgl/src/core/lv_obj.c ****     else if(code == LV_EVENT_SCROLL_BEGIN) {
 804:Drivers/lvgl/lvgl/src/core/lv_obj.c ****         lv_obj_add_state(obj, LV_STATE_SCROLLED);
 805:Drivers/lvgl/lvgl/src/core/lv_obj.c ****     }
 806:Drivers/lvgl/lvgl/src/core/lv_obj.c ****     else if(code == LV_EVENT_SCROLL_END) {
 807:Drivers/lvgl/lvgl/src/core/lv_obj.c ****         lv_obj_clear_state(obj, LV_STATE_SCROLLED);
 808:Drivers/lvgl/lvgl/src/core/lv_obj.c ****         if(lv_obj_get_scrollbar_mode(obj) == LV_SCROLLBAR_MODE_ACTIVE) {
 809:Drivers/lvgl/lvgl/src/core/lv_obj.c ****             lv_area_t hor_area, ver_area;
 810:Drivers/lvgl/lvgl/src/core/lv_obj.c ****             lv_obj_get_scrollbar_area(obj, &hor_area, &ver_area);
 811:Drivers/lvgl/lvgl/src/core/lv_obj.c ****             lv_obj_invalidate_area(obj, &hor_area);
 812:Drivers/lvgl/lvgl/src/core/lv_obj.c ****             lv_obj_invalidate_area(obj, &ver_area);
 813:Drivers/lvgl/lvgl/src/core/lv_obj.c ****         }
 814:Drivers/lvgl/lvgl/src/core/lv_obj.c ****     }
 815:Drivers/lvgl/lvgl/src/core/lv_obj.c ****     else if(code == LV_EVENT_DEFOCUSED) {
 816:Drivers/lvgl/lvgl/src/core/lv_obj.c ****         lv_obj_clear_state(obj, LV_STATE_FOCUSED | LV_STATE_EDITED | LV_STATE_FOCUS_KEY);
 817:Drivers/lvgl/lvgl/src/core/lv_obj.c ****     }
 818:Drivers/lvgl/lvgl/src/core/lv_obj.c ****     else if(code == LV_EVENT_SIZE_CHANGED) {
 819:Drivers/lvgl/lvgl/src/core/lv_obj.c ****         lv_coord_t align = lv_obj_get_style_align(obj, LV_PART_MAIN);
 820:Drivers/lvgl/lvgl/src/core/lv_obj.c ****         uint16_t layout = lv_obj_get_style_layout(obj, LV_PART_MAIN);
 821:Drivers/lvgl/lvgl/src/core/lv_obj.c ****         if(layout || align) {
 822:Drivers/lvgl/lvgl/src/core/lv_obj.c ****             lv_obj_mark_layout_as_dirty(obj);
 823:Drivers/lvgl/lvgl/src/core/lv_obj.c ****         }
 824:Drivers/lvgl/lvgl/src/core/lv_obj.c **** 
 825:Drivers/lvgl/lvgl/src/core/lv_obj.c ****         uint32_t i;
 826:Drivers/lvgl/lvgl/src/core/lv_obj.c ****         uint32_t child_cnt = lv_obj_get_child_cnt(obj);
 827:Drivers/lvgl/lvgl/src/core/lv_obj.c ****         for(i = 0; i < child_cnt; i++) {
 828:Drivers/lvgl/lvgl/src/core/lv_obj.c ****             lv_obj_t * child = obj->spec_attr->children[i];
 829:Drivers/lvgl/lvgl/src/core/lv_obj.c ****             lv_obj_mark_layout_as_dirty(child);
 830:Drivers/lvgl/lvgl/src/core/lv_obj.c ****         }
 831:Drivers/lvgl/lvgl/src/core/lv_obj.c ****     }
ARM GAS  /tmp/ccJvwpHF.s 			page 16


 832:Drivers/lvgl/lvgl/src/core/lv_obj.c ****     else if(code == LV_EVENT_CHILD_CHANGED) {
 833:Drivers/lvgl/lvgl/src/core/lv_obj.c ****         lv_coord_t w = lv_obj_get_style_width(obj, LV_PART_MAIN);
 834:Drivers/lvgl/lvgl/src/core/lv_obj.c ****         lv_coord_t h = lv_obj_get_style_height(obj, LV_PART_MAIN);
 835:Drivers/lvgl/lvgl/src/core/lv_obj.c ****         lv_coord_t align = lv_obj_get_style_align(obj, LV_PART_MAIN);
 836:Drivers/lvgl/lvgl/src/core/lv_obj.c ****         uint16_t layout = lv_obj_get_style_layout(obj, LV_PART_MAIN);
 837:Drivers/lvgl/lvgl/src/core/lv_obj.c ****         if(layout || align || w == LV_SIZE_CONTENT || h == LV_SIZE_CONTENT) {
 838:Drivers/lvgl/lvgl/src/core/lv_obj.c ****             lv_obj_mark_layout_as_dirty(obj);
 839:Drivers/lvgl/lvgl/src/core/lv_obj.c ****         }
 840:Drivers/lvgl/lvgl/src/core/lv_obj.c ****     }
 841:Drivers/lvgl/lvgl/src/core/lv_obj.c ****     else if(code == LV_EVENT_REFR_EXT_DRAW_SIZE) {
 842:Drivers/lvgl/lvgl/src/core/lv_obj.c ****         lv_coord_t d = lv_obj_calculate_ext_draw_size(obj, LV_PART_MAIN);
 843:Drivers/lvgl/lvgl/src/core/lv_obj.c ****         lv_event_set_ext_draw_size(e, d);
 844:Drivers/lvgl/lvgl/src/core/lv_obj.c ****     }
 845:Drivers/lvgl/lvgl/src/core/lv_obj.c ****     else if(code == LV_EVENT_DRAW_MAIN || code == LV_EVENT_DRAW_POST || code == LV_EVENT_COVER_CHEC
 846:Drivers/lvgl/lvgl/src/core/lv_obj.c ****         lv_obj_draw(e);
 847:Drivers/lvgl/lvgl/src/core/lv_obj.c ****     }
 848:Drivers/lvgl/lvgl/src/core/lv_obj.c **** }
 849:Drivers/lvgl/lvgl/src/core/lv_obj.c **** 
 850:Drivers/lvgl/lvgl/src/core/lv_obj.c **** /**
 851:Drivers/lvgl/lvgl/src/core/lv_obj.c ****  * Set the state (fully overwrite) of an object.
 852:Drivers/lvgl/lvgl/src/core/lv_obj.c ****  * If specified in the styles, transition animations will be started from the previous state to the
 853:Drivers/lvgl/lvgl/src/core/lv_obj.c ****  * @param obj       pointer to an object
 854:Drivers/lvgl/lvgl/src/core/lv_obj.c ****  * @param state     the new state
 855:Drivers/lvgl/lvgl/src/core/lv_obj.c ****  */
 856:Drivers/lvgl/lvgl/src/core/lv_obj.c **** static void lv_obj_set_state(lv_obj_t * obj, lv_state_t new_state)
 857:Drivers/lvgl/lvgl/src/core/lv_obj.c **** {
 858:Drivers/lvgl/lvgl/src/core/lv_obj.c ****     if(obj->state == new_state) return;
 859:Drivers/lvgl/lvgl/src/core/lv_obj.c **** 
 860:Drivers/lvgl/lvgl/src/core/lv_obj.c ****     LV_ASSERT_OBJ(obj, MY_CLASS);
 861:Drivers/lvgl/lvgl/src/core/lv_obj.c **** 
 862:Drivers/lvgl/lvgl/src/core/lv_obj.c ****     lv_state_t prev_state = obj->state;
 863:Drivers/lvgl/lvgl/src/core/lv_obj.c ****     obj->state = new_state;
 864:Drivers/lvgl/lvgl/src/core/lv_obj.c **** 
 865:Drivers/lvgl/lvgl/src/core/lv_obj.c ****     _lv_style_state_cmp_t cmp_res = _lv_obj_style_state_compare(obj, prev_state, new_state);
 866:Drivers/lvgl/lvgl/src/core/lv_obj.c ****     /*If there is no difference in styles there is nothing else to do*/
 867:Drivers/lvgl/lvgl/src/core/lv_obj.c ****     if(cmp_res == _LV_STYLE_STATE_CMP_SAME) return;
 868:Drivers/lvgl/lvgl/src/core/lv_obj.c **** 
 869:Drivers/lvgl/lvgl/src/core/lv_obj.c ****     _lv_obj_style_transition_dsc_t * ts = lv_mem_buf_get(sizeof(_lv_obj_style_transition_dsc_t) * S
 870:Drivers/lvgl/lvgl/src/core/lv_obj.c ****     lv_memset_00(ts, sizeof(_lv_obj_style_transition_dsc_t) * STYLE_TRANSITION_MAX);
 871:Drivers/lvgl/lvgl/src/core/lv_obj.c ****     uint32_t tsi = 0;
 872:Drivers/lvgl/lvgl/src/core/lv_obj.c ****     uint32_t i;
 873:Drivers/lvgl/lvgl/src/core/lv_obj.c ****     for(i = 0; i < obj->style_cnt && tsi < STYLE_TRANSITION_MAX; i++) {
 874:Drivers/lvgl/lvgl/src/core/lv_obj.c ****         _lv_obj_style_t * obj_style = &obj->styles[i];
 875:Drivers/lvgl/lvgl/src/core/lv_obj.c ****         lv_state_t state_act = lv_obj_style_get_selector_state(obj->styles[i].selector);
 876:Drivers/lvgl/lvgl/src/core/lv_obj.c ****         lv_part_t part_act = lv_obj_style_get_selector_part(obj->styles[i].selector);
 877:Drivers/lvgl/lvgl/src/core/lv_obj.c ****         if(state_act & (~new_state)) continue; /*Skip unrelated styles*/
 878:Drivers/lvgl/lvgl/src/core/lv_obj.c ****         if(obj_style->is_trans) continue;
 879:Drivers/lvgl/lvgl/src/core/lv_obj.c **** 
 880:Drivers/lvgl/lvgl/src/core/lv_obj.c ****         lv_style_value_t v;
 881:Drivers/lvgl/lvgl/src/core/lv_obj.c ****         if(lv_style_get_prop_inlined(obj_style->style, LV_STYLE_TRANSITION, &v) != LV_STYLE_RES_FOU
 882:Drivers/lvgl/lvgl/src/core/lv_obj.c ****         const lv_style_transition_dsc_t * tr = v.ptr;
 883:Drivers/lvgl/lvgl/src/core/lv_obj.c **** 
 884:Drivers/lvgl/lvgl/src/core/lv_obj.c ****         /*Add the props to the set if not added yet or added but with smaller weight*/
 885:Drivers/lvgl/lvgl/src/core/lv_obj.c ****         uint32_t j;
 886:Drivers/lvgl/lvgl/src/core/lv_obj.c ****         for(j = 0; tr->props[j] != 0 && tsi < STYLE_TRANSITION_MAX; j++) {
 887:Drivers/lvgl/lvgl/src/core/lv_obj.c ****             uint32_t t;
 888:Drivers/lvgl/lvgl/src/core/lv_obj.c ****             for(t = 0; t < tsi; t++) {
ARM GAS  /tmp/ccJvwpHF.s 			page 17


 889:Drivers/lvgl/lvgl/src/core/lv_obj.c ****                 lv_style_selector_t selector = ts[t].selector;
 890:Drivers/lvgl/lvgl/src/core/lv_obj.c ****                 lv_state_t state_ts = lv_obj_style_get_selector_state(selector);
 891:Drivers/lvgl/lvgl/src/core/lv_obj.c ****                 lv_part_t part_ts = lv_obj_style_get_selector_part(selector);
 892:Drivers/lvgl/lvgl/src/core/lv_obj.c ****                 if(ts[t].prop == tr->props[j] && part_ts == part_act && state_ts >= state_act) brea
 893:Drivers/lvgl/lvgl/src/core/lv_obj.c ****             }
 894:Drivers/lvgl/lvgl/src/core/lv_obj.c **** 
 895:Drivers/lvgl/lvgl/src/core/lv_obj.c ****             /*If not found  add it*/
 896:Drivers/lvgl/lvgl/src/core/lv_obj.c ****             if(t == tsi) {
 897:Drivers/lvgl/lvgl/src/core/lv_obj.c ****                 ts[tsi].time = tr->time;
 898:Drivers/lvgl/lvgl/src/core/lv_obj.c ****                 ts[tsi].delay = tr->delay;
 899:Drivers/lvgl/lvgl/src/core/lv_obj.c ****                 ts[tsi].path_cb = tr->path_xcb;
 900:Drivers/lvgl/lvgl/src/core/lv_obj.c ****                 ts[tsi].prop = tr->props[j];
 901:Drivers/lvgl/lvgl/src/core/lv_obj.c **** #if LV_USE_USER_DATA
 902:Drivers/lvgl/lvgl/src/core/lv_obj.c ****                 ts[tsi].user_data = tr->user_data;
 903:Drivers/lvgl/lvgl/src/core/lv_obj.c **** #endif
 904:Drivers/lvgl/lvgl/src/core/lv_obj.c ****                 ts[tsi].selector = obj_style->selector;
 905:Drivers/lvgl/lvgl/src/core/lv_obj.c ****                 tsi++;
 906:Drivers/lvgl/lvgl/src/core/lv_obj.c ****             }
 907:Drivers/lvgl/lvgl/src/core/lv_obj.c ****         }
 908:Drivers/lvgl/lvgl/src/core/lv_obj.c ****     }
 909:Drivers/lvgl/lvgl/src/core/lv_obj.c **** 
 910:Drivers/lvgl/lvgl/src/core/lv_obj.c ****     for(i = 0; i < tsi; i++) {
 911:Drivers/lvgl/lvgl/src/core/lv_obj.c ****         lv_part_t part_act = lv_obj_style_get_selector_part(ts[i].selector);
 912:Drivers/lvgl/lvgl/src/core/lv_obj.c ****         _lv_obj_style_create_transition(obj, part_act, prev_state, new_state, &ts[i]);
 913:Drivers/lvgl/lvgl/src/core/lv_obj.c ****     }
 914:Drivers/lvgl/lvgl/src/core/lv_obj.c **** 
 915:Drivers/lvgl/lvgl/src/core/lv_obj.c ****     lv_mem_buf_release(ts);
 916:Drivers/lvgl/lvgl/src/core/lv_obj.c **** 
 917:Drivers/lvgl/lvgl/src/core/lv_obj.c ****     if(cmp_res == _LV_STYLE_STATE_CMP_DIFF_REDRAW) {
 918:Drivers/lvgl/lvgl/src/core/lv_obj.c ****         lv_obj_invalidate(obj);
 919:Drivers/lvgl/lvgl/src/core/lv_obj.c ****     }
 920:Drivers/lvgl/lvgl/src/core/lv_obj.c ****     else if(cmp_res == _LV_STYLE_STATE_CMP_DIFF_LAYOUT) {
 921:Drivers/lvgl/lvgl/src/core/lv_obj.c ****         lv_obj_refresh_style(obj, LV_PART_ANY, LV_STYLE_PROP_ANY);
 922:Drivers/lvgl/lvgl/src/core/lv_obj.c ****     }
 923:Drivers/lvgl/lvgl/src/core/lv_obj.c ****     else if(cmp_res == _LV_STYLE_STATE_CMP_DIFF_DRAW_PAD) {
 924:Drivers/lvgl/lvgl/src/core/lv_obj.c ****         lv_obj_invalidate(obj);
 925:Drivers/lvgl/lvgl/src/core/lv_obj.c ****         lv_obj_refresh_ext_draw_size(obj);
 926:Drivers/lvgl/lvgl/src/core/lv_obj.c ****     }
 927:Drivers/lvgl/lvgl/src/core/lv_obj.c **** }
 928:Drivers/lvgl/lvgl/src/core/lv_obj.c **** 
 929:Drivers/lvgl/lvgl/src/core/lv_obj.c **** static bool obj_valid_child(const lv_obj_t * parent, const lv_obj_t * obj_to_find)
 930:Drivers/lvgl/lvgl/src/core/lv_obj.c **** {
  26              		.loc 1 930 0
  27              		.cfi_startproc
  28              		@ args = 0, pretend = 0, frame = 0
  29              		@ frame_needed = 0, uses_anonymous_args = 0
  30              	.LVL0:
  31 0000 F8B5     		push	{r3, r4, r5, r6, r7, lr}
  32              	.LCFI0:
  33              		.cfi_def_cfa_offset 24
  34              		.cfi_offset 3, -24
  35              		.cfi_offset 4, -20
  36              		.cfi_offset 5, -16
  37              		.cfi_offset 6, -12
  38              		.cfi_offset 7, -8
  39              		.cfi_offset 14, -4
  40 0002 0646     		mov	r6, r0
ARM GAS  /tmp/ccJvwpHF.s 			page 18


  41 0004 0D46     		mov	r5, r1
  42              	.LVL1:
 931:Drivers/lvgl/lvgl/src/core/lv_obj.c ****     /*Check all children of `parent`*/
 932:Drivers/lvgl/lvgl/src/core/lv_obj.c ****     uint32_t child_cnt = 0;
 933:Drivers/lvgl/lvgl/src/core/lv_obj.c ****     if(parent->spec_attr) child_cnt = parent->spec_attr->child_cnt;
  43              		.loc 1 933 0
  44 0006 8368     		ldr	r3, [r0, #8]
  45 0008 83B1     		cbz	r3, .L6
  46              		.loc 1 933 0 is_stmt 0 discriminator 1
  47 000a 5F68     		ldr	r7, [r3, #4]
  48              	.LVL2:
  49              	.L2:
 934:Drivers/lvgl/lvgl/src/core/lv_obj.c ****     uint32_t i;
 935:Drivers/lvgl/lvgl/src/core/lv_obj.c ****     for(i = 0; i < child_cnt; i++) {
  50              		.loc 1 935 0 is_stmt 1
  51 000c 0024     		movs	r4, #0
  52              	.LVL3:
  53              	.L3:
  54              		.loc 1 935 0 is_stmt 0 discriminator 1
  55 000e A742     		cmp	r7, r4
  56 0010 0ED9     		bls	.L9
  57              	.LBB95:
 936:Drivers/lvgl/lvgl/src/core/lv_obj.c ****         lv_obj_t * child = parent->spec_attr->children[i];
  58              		.loc 1 936 0 is_stmt 1
  59 0012 B368     		ldr	r3, [r6, #8]
  60 0014 1B68     		ldr	r3, [r3]
  61 0016 53F82400 		ldr	r0, [r3, r4, lsl #2]
  62              	.LVL4:
 937:Drivers/lvgl/lvgl/src/core/lv_obj.c ****         if(child == obj_to_find) {
  63              		.loc 1 937 0
  64 001a A842     		cmp	r0, r5
  65 001c 0BD0     		beq	.L7
 938:Drivers/lvgl/lvgl/src/core/lv_obj.c ****             return true;
 939:Drivers/lvgl/lvgl/src/core/lv_obj.c ****         }
 940:Drivers/lvgl/lvgl/src/core/lv_obj.c **** 
 941:Drivers/lvgl/lvgl/src/core/lv_obj.c ****         /*Check the children*/
 942:Drivers/lvgl/lvgl/src/core/lv_obj.c ****         bool found = obj_valid_child(child, obj_to_find);
  66              		.loc 1 942 0
  67 001e 2946     		mov	r1, r5
  68 0020 FFF7EEFF 		bl	obj_valid_child
  69              	.LVL5:
 943:Drivers/lvgl/lvgl/src/core/lv_obj.c ****         if(found) {
  70              		.loc 1 943 0
  71 0024 0346     		mov	r3, r0
  72 0026 20B9     		cbnz	r0, .L4
  73              	.LBE95:
 935:Drivers/lvgl/lvgl/src/core/lv_obj.c ****         lv_obj_t * child = parent->spec_attr->children[i];
  74              		.loc 1 935 0 discriminator 2
  75 0028 0134     		adds	r4, r4, #1
  76              	.LVL6:
  77 002a F0E7     		b	.L3
  78              	.LVL7:
  79              	.L6:
 932:Drivers/lvgl/lvgl/src/core/lv_obj.c ****     if(parent->spec_attr) child_cnt = parent->spec_attr->child_cnt;
  80              		.loc 1 932 0
  81 002c 0027     		movs	r7, #0
  82 002e EDE7     		b	.L2
ARM GAS  /tmp/ccJvwpHF.s 			page 19


  83              	.LVL8:
  84              	.L9:
 944:Drivers/lvgl/lvgl/src/core/lv_obj.c ****             return true;
 945:Drivers/lvgl/lvgl/src/core/lv_obj.c ****         }
 946:Drivers/lvgl/lvgl/src/core/lv_obj.c ****     }
 947:Drivers/lvgl/lvgl/src/core/lv_obj.c ****     return false;
  85              		.loc 1 947 0
  86 0030 0023     		movs	r3, #0
  87              	.L4:
 948:Drivers/lvgl/lvgl/src/core/lv_obj.c **** }
  88              		.loc 1 948 0
  89 0032 1846     		mov	r0, r3
  90 0034 F8BD     		pop	{r3, r4, r5, r6, r7, pc}
  91              	.LVL9:
  92              	.L7:
  93              	.LBB96:
 938:Drivers/lvgl/lvgl/src/core/lv_obj.c ****         }
  94              		.loc 1 938 0
  95 0036 0123     		movs	r3, #1
  96 0038 FBE7     		b	.L4
  97              	.LBE96:
  98              		.cfi_endproc
  99              	.LFE227:
 101              		.section	.text.scrollbar_init_draw_dsc,"ax",%progbits
 102              		.align	1
 103              		.syntax unified
 104              		.thumb
 105              		.thumb_func
 106              		.fpu fpv5-d16
 108              	scrollbar_init_draw_dsc:
 109              	.LFB224:
 650:Drivers/lvgl/lvgl/src/core/lv_obj.c ****     lv_draw_rect_dsc_init(dsc);
 110              		.loc 1 650 0
 111              		.cfi_startproc
 112              		@ args = 0, pretend = 0, frame = 0
 113              		@ frame_needed = 0, uses_anonymous_args = 0
 114              	.LVL10:
 115 0000 38B5     		push	{r3, r4, r5, lr}
 116              	.LCFI1:
 117              		.cfi_def_cfa_offset 16
 118              		.cfi_offset 3, -16
 119              		.cfi_offset 4, -12
 120              		.cfi_offset 5, -8
 121              		.cfi_offset 14, -4
 122 0002 0546     		mov	r5, r0
 123 0004 0C46     		mov	r4, r1
 651:Drivers/lvgl/lvgl/src/core/lv_obj.c ****     dsc->bg_opa = lv_obj_get_style_bg_opa(obj, LV_PART_SCROLLBAR);
 124              		.loc 1 651 0
 125 0006 0846     		mov	r0, r1
 126              	.LVL11:
 127 0008 FFF7FEFF 		bl	lv_draw_rect_dsc_init
 128              	.LVL12:
 129              	.LBB97:
 130              	.LBB98:
 131              		.file 2 "Drivers/lvgl/lvgl/src/core/lv_obj_style_gen.h"
   1:Drivers/lvgl/lvgl/src/core/lv_obj_style_gen.h **** static inline lv_coord_t lv_obj_get_style_width(const struct _lv_obj_t * obj, uint32_t part)
   2:Drivers/lvgl/lvgl/src/core/lv_obj_style_gen.h **** {
ARM GAS  /tmp/ccJvwpHF.s 			page 20


   3:Drivers/lvgl/lvgl/src/core/lv_obj_style_gen.h ****     lv_style_value_t v = lv_obj_get_style_prop(obj, part, LV_STYLE_WIDTH);
   4:Drivers/lvgl/lvgl/src/core/lv_obj_style_gen.h ****     return (lv_coord_t)v.num;
   5:Drivers/lvgl/lvgl/src/core/lv_obj_style_gen.h **** }
   6:Drivers/lvgl/lvgl/src/core/lv_obj_style_gen.h **** 
   7:Drivers/lvgl/lvgl/src/core/lv_obj_style_gen.h **** static inline lv_coord_t lv_obj_get_style_min_width(const struct _lv_obj_t * obj, uint32_t part)
   8:Drivers/lvgl/lvgl/src/core/lv_obj_style_gen.h **** {
   9:Drivers/lvgl/lvgl/src/core/lv_obj_style_gen.h ****     lv_style_value_t v = lv_obj_get_style_prop(obj, part, LV_STYLE_MIN_WIDTH);
  10:Drivers/lvgl/lvgl/src/core/lv_obj_style_gen.h ****     return (lv_coord_t)v.num;
  11:Drivers/lvgl/lvgl/src/core/lv_obj_style_gen.h **** }
  12:Drivers/lvgl/lvgl/src/core/lv_obj_style_gen.h **** 
  13:Drivers/lvgl/lvgl/src/core/lv_obj_style_gen.h **** static inline lv_coord_t lv_obj_get_style_max_width(const struct _lv_obj_t * obj, uint32_t part)
  14:Drivers/lvgl/lvgl/src/core/lv_obj_style_gen.h **** {
  15:Drivers/lvgl/lvgl/src/core/lv_obj_style_gen.h ****     lv_style_value_t v = lv_obj_get_style_prop(obj, part, LV_STYLE_MAX_WIDTH);
  16:Drivers/lvgl/lvgl/src/core/lv_obj_style_gen.h ****     return (lv_coord_t)v.num;
  17:Drivers/lvgl/lvgl/src/core/lv_obj_style_gen.h **** }
  18:Drivers/lvgl/lvgl/src/core/lv_obj_style_gen.h **** 
  19:Drivers/lvgl/lvgl/src/core/lv_obj_style_gen.h **** static inline lv_coord_t lv_obj_get_style_height(const struct _lv_obj_t * obj, uint32_t part)
  20:Drivers/lvgl/lvgl/src/core/lv_obj_style_gen.h **** {
  21:Drivers/lvgl/lvgl/src/core/lv_obj_style_gen.h ****     lv_style_value_t v = lv_obj_get_style_prop(obj, part, LV_STYLE_HEIGHT);
  22:Drivers/lvgl/lvgl/src/core/lv_obj_style_gen.h ****     return (lv_coord_t)v.num;
  23:Drivers/lvgl/lvgl/src/core/lv_obj_style_gen.h **** }
  24:Drivers/lvgl/lvgl/src/core/lv_obj_style_gen.h **** 
  25:Drivers/lvgl/lvgl/src/core/lv_obj_style_gen.h **** static inline lv_coord_t lv_obj_get_style_min_height(const struct _lv_obj_t * obj, uint32_t part)
  26:Drivers/lvgl/lvgl/src/core/lv_obj_style_gen.h **** {
  27:Drivers/lvgl/lvgl/src/core/lv_obj_style_gen.h ****     lv_style_value_t v = lv_obj_get_style_prop(obj, part, LV_STYLE_MIN_HEIGHT);
  28:Drivers/lvgl/lvgl/src/core/lv_obj_style_gen.h ****     return (lv_coord_t)v.num;
  29:Drivers/lvgl/lvgl/src/core/lv_obj_style_gen.h **** }
  30:Drivers/lvgl/lvgl/src/core/lv_obj_style_gen.h **** 
  31:Drivers/lvgl/lvgl/src/core/lv_obj_style_gen.h **** static inline lv_coord_t lv_obj_get_style_max_height(const struct _lv_obj_t * obj, uint32_t part)
  32:Drivers/lvgl/lvgl/src/core/lv_obj_style_gen.h **** {
  33:Drivers/lvgl/lvgl/src/core/lv_obj_style_gen.h ****     lv_style_value_t v = lv_obj_get_style_prop(obj, part, LV_STYLE_MAX_HEIGHT);
  34:Drivers/lvgl/lvgl/src/core/lv_obj_style_gen.h ****     return (lv_coord_t)v.num;
  35:Drivers/lvgl/lvgl/src/core/lv_obj_style_gen.h **** }
  36:Drivers/lvgl/lvgl/src/core/lv_obj_style_gen.h **** 
  37:Drivers/lvgl/lvgl/src/core/lv_obj_style_gen.h **** static inline lv_coord_t lv_obj_get_style_x(const struct _lv_obj_t * obj, uint32_t part)
  38:Drivers/lvgl/lvgl/src/core/lv_obj_style_gen.h **** {
  39:Drivers/lvgl/lvgl/src/core/lv_obj_style_gen.h ****     lv_style_value_t v = lv_obj_get_style_prop(obj, part, LV_STYLE_X);
  40:Drivers/lvgl/lvgl/src/core/lv_obj_style_gen.h ****     return (lv_coord_t)v.num;
  41:Drivers/lvgl/lvgl/src/core/lv_obj_style_gen.h **** }
  42:Drivers/lvgl/lvgl/src/core/lv_obj_style_gen.h **** 
  43:Drivers/lvgl/lvgl/src/core/lv_obj_style_gen.h **** static inline lv_coord_t lv_obj_get_style_y(const struct _lv_obj_t * obj, uint32_t part)
  44:Drivers/lvgl/lvgl/src/core/lv_obj_style_gen.h **** {
  45:Drivers/lvgl/lvgl/src/core/lv_obj_style_gen.h ****     lv_style_value_t v = lv_obj_get_style_prop(obj, part, LV_STYLE_Y);
  46:Drivers/lvgl/lvgl/src/core/lv_obj_style_gen.h ****     return (lv_coord_t)v.num;
  47:Drivers/lvgl/lvgl/src/core/lv_obj_style_gen.h **** }
  48:Drivers/lvgl/lvgl/src/core/lv_obj_style_gen.h **** 
  49:Drivers/lvgl/lvgl/src/core/lv_obj_style_gen.h **** static inline lv_align_t lv_obj_get_style_align(const struct _lv_obj_t * obj, uint32_t part)
  50:Drivers/lvgl/lvgl/src/core/lv_obj_style_gen.h **** {
  51:Drivers/lvgl/lvgl/src/core/lv_obj_style_gen.h ****     lv_style_value_t v = lv_obj_get_style_prop(obj, part, LV_STYLE_ALIGN);
  52:Drivers/lvgl/lvgl/src/core/lv_obj_style_gen.h ****     return (lv_align_t)v.num;
  53:Drivers/lvgl/lvgl/src/core/lv_obj_style_gen.h **** }
  54:Drivers/lvgl/lvgl/src/core/lv_obj_style_gen.h **** 
  55:Drivers/lvgl/lvgl/src/core/lv_obj_style_gen.h **** static inline lv_coord_t lv_obj_get_style_transform_width(const struct _lv_obj_t * obj, uint32_t pa
  56:Drivers/lvgl/lvgl/src/core/lv_obj_style_gen.h **** {
  57:Drivers/lvgl/lvgl/src/core/lv_obj_style_gen.h ****     lv_style_value_t v = lv_obj_get_style_prop(obj, part, LV_STYLE_TRANSFORM_WIDTH);
  58:Drivers/lvgl/lvgl/src/core/lv_obj_style_gen.h ****     return (lv_coord_t)v.num;
  59:Drivers/lvgl/lvgl/src/core/lv_obj_style_gen.h **** }
ARM GAS  /tmp/ccJvwpHF.s 			page 21


  60:Drivers/lvgl/lvgl/src/core/lv_obj_style_gen.h **** 
  61:Drivers/lvgl/lvgl/src/core/lv_obj_style_gen.h **** static inline lv_coord_t lv_obj_get_style_transform_height(const struct _lv_obj_t * obj, uint32_t p
  62:Drivers/lvgl/lvgl/src/core/lv_obj_style_gen.h **** {
  63:Drivers/lvgl/lvgl/src/core/lv_obj_style_gen.h ****     lv_style_value_t v = lv_obj_get_style_prop(obj, part, LV_STYLE_TRANSFORM_HEIGHT);
  64:Drivers/lvgl/lvgl/src/core/lv_obj_style_gen.h ****     return (lv_coord_t)v.num;
  65:Drivers/lvgl/lvgl/src/core/lv_obj_style_gen.h **** }
  66:Drivers/lvgl/lvgl/src/core/lv_obj_style_gen.h **** 
  67:Drivers/lvgl/lvgl/src/core/lv_obj_style_gen.h **** static inline lv_coord_t lv_obj_get_style_translate_x(const struct _lv_obj_t * obj, uint32_t part)
  68:Drivers/lvgl/lvgl/src/core/lv_obj_style_gen.h **** {
  69:Drivers/lvgl/lvgl/src/core/lv_obj_style_gen.h ****     lv_style_value_t v = lv_obj_get_style_prop(obj, part, LV_STYLE_TRANSLATE_X);
  70:Drivers/lvgl/lvgl/src/core/lv_obj_style_gen.h ****     return (lv_coord_t)v.num;
  71:Drivers/lvgl/lvgl/src/core/lv_obj_style_gen.h **** }
  72:Drivers/lvgl/lvgl/src/core/lv_obj_style_gen.h **** 
  73:Drivers/lvgl/lvgl/src/core/lv_obj_style_gen.h **** static inline lv_coord_t lv_obj_get_style_translate_y(const struct _lv_obj_t * obj, uint32_t part)
  74:Drivers/lvgl/lvgl/src/core/lv_obj_style_gen.h **** {
  75:Drivers/lvgl/lvgl/src/core/lv_obj_style_gen.h ****     lv_style_value_t v = lv_obj_get_style_prop(obj, part, LV_STYLE_TRANSLATE_Y);
  76:Drivers/lvgl/lvgl/src/core/lv_obj_style_gen.h ****     return (lv_coord_t)v.num;
  77:Drivers/lvgl/lvgl/src/core/lv_obj_style_gen.h **** }
  78:Drivers/lvgl/lvgl/src/core/lv_obj_style_gen.h **** 
  79:Drivers/lvgl/lvgl/src/core/lv_obj_style_gen.h **** static inline lv_coord_t lv_obj_get_style_transform_zoom(const struct _lv_obj_t * obj, uint32_t par
  80:Drivers/lvgl/lvgl/src/core/lv_obj_style_gen.h **** {
  81:Drivers/lvgl/lvgl/src/core/lv_obj_style_gen.h ****     lv_style_value_t v = lv_obj_get_style_prop(obj, part, LV_STYLE_TRANSFORM_ZOOM);
  82:Drivers/lvgl/lvgl/src/core/lv_obj_style_gen.h ****     return (lv_coord_t)v.num;
  83:Drivers/lvgl/lvgl/src/core/lv_obj_style_gen.h **** }
  84:Drivers/lvgl/lvgl/src/core/lv_obj_style_gen.h **** 
  85:Drivers/lvgl/lvgl/src/core/lv_obj_style_gen.h **** static inline lv_coord_t lv_obj_get_style_transform_angle(const struct _lv_obj_t * obj, uint32_t pa
  86:Drivers/lvgl/lvgl/src/core/lv_obj_style_gen.h **** {
  87:Drivers/lvgl/lvgl/src/core/lv_obj_style_gen.h ****     lv_style_value_t v = lv_obj_get_style_prop(obj, part, LV_STYLE_TRANSFORM_ANGLE);
  88:Drivers/lvgl/lvgl/src/core/lv_obj_style_gen.h ****     return (lv_coord_t)v.num;
  89:Drivers/lvgl/lvgl/src/core/lv_obj_style_gen.h **** }
  90:Drivers/lvgl/lvgl/src/core/lv_obj_style_gen.h **** 
  91:Drivers/lvgl/lvgl/src/core/lv_obj_style_gen.h **** static inline lv_coord_t lv_obj_get_style_transform_pivot_x(const struct _lv_obj_t * obj, uint32_t 
  92:Drivers/lvgl/lvgl/src/core/lv_obj_style_gen.h **** {
  93:Drivers/lvgl/lvgl/src/core/lv_obj_style_gen.h ****     lv_style_value_t v = lv_obj_get_style_prop(obj, part, LV_STYLE_TRANSFORM_PIVOT_X);
  94:Drivers/lvgl/lvgl/src/core/lv_obj_style_gen.h ****     return (lv_coord_t)v.num;
  95:Drivers/lvgl/lvgl/src/core/lv_obj_style_gen.h **** }
  96:Drivers/lvgl/lvgl/src/core/lv_obj_style_gen.h **** 
  97:Drivers/lvgl/lvgl/src/core/lv_obj_style_gen.h **** static inline lv_coord_t lv_obj_get_style_transform_pivot_y(const struct _lv_obj_t * obj, uint32_t 
  98:Drivers/lvgl/lvgl/src/core/lv_obj_style_gen.h **** {
  99:Drivers/lvgl/lvgl/src/core/lv_obj_style_gen.h ****     lv_style_value_t v = lv_obj_get_style_prop(obj, part, LV_STYLE_TRANSFORM_PIVOT_Y);
 100:Drivers/lvgl/lvgl/src/core/lv_obj_style_gen.h ****     return (lv_coord_t)v.num;
 101:Drivers/lvgl/lvgl/src/core/lv_obj_style_gen.h **** }
 102:Drivers/lvgl/lvgl/src/core/lv_obj_style_gen.h **** 
 103:Drivers/lvgl/lvgl/src/core/lv_obj_style_gen.h **** static inline lv_coord_t lv_obj_get_style_pad_top(const struct _lv_obj_t * obj, uint32_t part)
 104:Drivers/lvgl/lvgl/src/core/lv_obj_style_gen.h **** {
 105:Drivers/lvgl/lvgl/src/core/lv_obj_style_gen.h ****     lv_style_value_t v = lv_obj_get_style_prop(obj, part, LV_STYLE_PAD_TOP);
 106:Drivers/lvgl/lvgl/src/core/lv_obj_style_gen.h ****     return (lv_coord_t)v.num;
 107:Drivers/lvgl/lvgl/src/core/lv_obj_style_gen.h **** }
 108:Drivers/lvgl/lvgl/src/core/lv_obj_style_gen.h **** 
 109:Drivers/lvgl/lvgl/src/core/lv_obj_style_gen.h **** static inline lv_coord_t lv_obj_get_style_pad_bottom(const struct _lv_obj_t * obj, uint32_t part)
 110:Drivers/lvgl/lvgl/src/core/lv_obj_style_gen.h **** {
 111:Drivers/lvgl/lvgl/src/core/lv_obj_style_gen.h ****     lv_style_value_t v = lv_obj_get_style_prop(obj, part, LV_STYLE_PAD_BOTTOM);
 112:Drivers/lvgl/lvgl/src/core/lv_obj_style_gen.h ****     return (lv_coord_t)v.num;
 113:Drivers/lvgl/lvgl/src/core/lv_obj_style_gen.h **** }
 114:Drivers/lvgl/lvgl/src/core/lv_obj_style_gen.h **** 
 115:Drivers/lvgl/lvgl/src/core/lv_obj_style_gen.h **** static inline lv_coord_t lv_obj_get_style_pad_left(const struct _lv_obj_t * obj, uint32_t part)
 116:Drivers/lvgl/lvgl/src/core/lv_obj_style_gen.h **** {
ARM GAS  /tmp/ccJvwpHF.s 			page 22


 117:Drivers/lvgl/lvgl/src/core/lv_obj_style_gen.h ****     lv_style_value_t v = lv_obj_get_style_prop(obj, part, LV_STYLE_PAD_LEFT);
 118:Drivers/lvgl/lvgl/src/core/lv_obj_style_gen.h ****     return (lv_coord_t)v.num;
 119:Drivers/lvgl/lvgl/src/core/lv_obj_style_gen.h **** }
 120:Drivers/lvgl/lvgl/src/core/lv_obj_style_gen.h **** 
 121:Drivers/lvgl/lvgl/src/core/lv_obj_style_gen.h **** static inline lv_coord_t lv_obj_get_style_pad_right(const struct _lv_obj_t * obj, uint32_t part)
 122:Drivers/lvgl/lvgl/src/core/lv_obj_style_gen.h **** {
 123:Drivers/lvgl/lvgl/src/core/lv_obj_style_gen.h ****     lv_style_value_t v = lv_obj_get_style_prop(obj, part, LV_STYLE_PAD_RIGHT);
 124:Drivers/lvgl/lvgl/src/core/lv_obj_style_gen.h ****     return (lv_coord_t)v.num;
 125:Drivers/lvgl/lvgl/src/core/lv_obj_style_gen.h **** }
 126:Drivers/lvgl/lvgl/src/core/lv_obj_style_gen.h **** 
 127:Drivers/lvgl/lvgl/src/core/lv_obj_style_gen.h **** static inline lv_coord_t lv_obj_get_style_pad_row(const struct _lv_obj_t * obj, uint32_t part)
 128:Drivers/lvgl/lvgl/src/core/lv_obj_style_gen.h **** {
 129:Drivers/lvgl/lvgl/src/core/lv_obj_style_gen.h ****     lv_style_value_t v = lv_obj_get_style_prop(obj, part, LV_STYLE_PAD_ROW);
 130:Drivers/lvgl/lvgl/src/core/lv_obj_style_gen.h ****     return (lv_coord_t)v.num;
 131:Drivers/lvgl/lvgl/src/core/lv_obj_style_gen.h **** }
 132:Drivers/lvgl/lvgl/src/core/lv_obj_style_gen.h **** 
 133:Drivers/lvgl/lvgl/src/core/lv_obj_style_gen.h **** static inline lv_coord_t lv_obj_get_style_pad_column(const struct _lv_obj_t * obj, uint32_t part)
 134:Drivers/lvgl/lvgl/src/core/lv_obj_style_gen.h **** {
 135:Drivers/lvgl/lvgl/src/core/lv_obj_style_gen.h ****     lv_style_value_t v = lv_obj_get_style_prop(obj, part, LV_STYLE_PAD_COLUMN);
 136:Drivers/lvgl/lvgl/src/core/lv_obj_style_gen.h ****     return (lv_coord_t)v.num;
 137:Drivers/lvgl/lvgl/src/core/lv_obj_style_gen.h **** }
 138:Drivers/lvgl/lvgl/src/core/lv_obj_style_gen.h **** 
 139:Drivers/lvgl/lvgl/src/core/lv_obj_style_gen.h **** static inline lv_color_t lv_obj_get_style_bg_color(const struct _lv_obj_t * obj, uint32_t part)
 140:Drivers/lvgl/lvgl/src/core/lv_obj_style_gen.h **** {
 141:Drivers/lvgl/lvgl/src/core/lv_obj_style_gen.h ****     lv_style_value_t v = lv_obj_get_style_prop(obj, part, LV_STYLE_BG_COLOR);
 142:Drivers/lvgl/lvgl/src/core/lv_obj_style_gen.h ****     return v.color;
 143:Drivers/lvgl/lvgl/src/core/lv_obj_style_gen.h **** }
 144:Drivers/lvgl/lvgl/src/core/lv_obj_style_gen.h **** 
 145:Drivers/lvgl/lvgl/src/core/lv_obj_style_gen.h **** static inline lv_color_t lv_obj_get_style_bg_color_filtered(const struct _lv_obj_t * obj, uint32_t 
 146:Drivers/lvgl/lvgl/src/core/lv_obj_style_gen.h **** {
 147:Drivers/lvgl/lvgl/src/core/lv_obj_style_gen.h ****     lv_style_value_t v = _lv_obj_style_apply_color_filter(obj, part, lv_obj_get_style_prop(obj, par
 148:Drivers/lvgl/lvgl/src/core/lv_obj_style_gen.h ****     return v.color;
 149:Drivers/lvgl/lvgl/src/core/lv_obj_style_gen.h **** }
 150:Drivers/lvgl/lvgl/src/core/lv_obj_style_gen.h **** 
 151:Drivers/lvgl/lvgl/src/core/lv_obj_style_gen.h **** static inline lv_opa_t lv_obj_get_style_bg_opa(const struct _lv_obj_t * obj, uint32_t part)
 152:Drivers/lvgl/lvgl/src/core/lv_obj_style_gen.h **** {
 153:Drivers/lvgl/lvgl/src/core/lv_obj_style_gen.h ****     lv_style_value_t v = lv_obj_get_style_prop(obj, part, LV_STYLE_BG_OPA);
 132              		.loc 2 153 0
 133 000c 2122     		movs	r2, #33
 134 000e 4FF48031 		mov	r1, #65536
 135 0012 2846     		mov	r0, r5
 136 0014 FFF7FEFF 		bl	lv_obj_get_style_prop
 137              	.LVL13:
 154:Drivers/lvgl/lvgl/src/core/lv_obj_style_gen.h ****     return (lv_opa_t)v.num;
 138              		.loc 2 154 0
 139 0018 C0B2     		uxtb	r0, r0
 140              	.LVL14:
 141              	.LBE98:
 142              	.LBE97:
 652:Drivers/lvgl/lvgl/src/core/lv_obj.c ****     if(dsc->bg_opa > LV_OPA_MIN) {
 143              		.loc 1 652 0
 144 001a E070     		strb	r0, [r4, #3]
 653:Drivers/lvgl/lvgl/src/core/lv_obj.c ****         dsc->bg_color = lv_obj_get_style_bg_color(obj, LV_PART_SCROLLBAR);
 145              		.loc 1 653 0
 146 001c 0228     		cmp	r0, #2
 147 001e 3DD8     		bhi	.L21
 148              	.L11:
ARM GAS  /tmp/ccJvwpHF.s 			page 23


 149              	.LVL15:
 150              	.LBB99:
 151              	.LBB100:
 155:Drivers/lvgl/lvgl/src/core/lv_obj_style_gen.h **** }
 156:Drivers/lvgl/lvgl/src/core/lv_obj_style_gen.h **** 
 157:Drivers/lvgl/lvgl/src/core/lv_obj_style_gen.h **** static inline lv_color_t lv_obj_get_style_bg_grad_color(const struct _lv_obj_t * obj, uint32_t part
 158:Drivers/lvgl/lvgl/src/core/lv_obj_style_gen.h **** {
 159:Drivers/lvgl/lvgl/src/core/lv_obj_style_gen.h ****     lv_style_value_t v = lv_obj_get_style_prop(obj, part, LV_STYLE_BG_GRAD_COLOR);
 160:Drivers/lvgl/lvgl/src/core/lv_obj_style_gen.h ****     return v.color;
 161:Drivers/lvgl/lvgl/src/core/lv_obj_style_gen.h **** }
 162:Drivers/lvgl/lvgl/src/core/lv_obj_style_gen.h **** 
 163:Drivers/lvgl/lvgl/src/core/lv_obj_style_gen.h **** static inline lv_color_t lv_obj_get_style_bg_grad_color_filtered(const struct _lv_obj_t * obj, uint
 164:Drivers/lvgl/lvgl/src/core/lv_obj_style_gen.h **** {
 165:Drivers/lvgl/lvgl/src/core/lv_obj_style_gen.h ****     lv_style_value_t v = _lv_obj_style_apply_color_filter(obj, part, lv_obj_get_style_prop(obj, par
 166:Drivers/lvgl/lvgl/src/core/lv_obj_style_gen.h ****     return v.color;
 167:Drivers/lvgl/lvgl/src/core/lv_obj_style_gen.h **** }
 168:Drivers/lvgl/lvgl/src/core/lv_obj_style_gen.h **** 
 169:Drivers/lvgl/lvgl/src/core/lv_obj_style_gen.h **** static inline lv_grad_dir_t lv_obj_get_style_bg_grad_dir(const struct _lv_obj_t * obj, uint32_t par
 170:Drivers/lvgl/lvgl/src/core/lv_obj_style_gen.h **** {
 171:Drivers/lvgl/lvgl/src/core/lv_obj_style_gen.h ****     lv_style_value_t v = lv_obj_get_style_prop(obj, part, LV_STYLE_BG_GRAD_DIR);
 172:Drivers/lvgl/lvgl/src/core/lv_obj_style_gen.h ****     return (lv_grad_dir_t)v.num;
 173:Drivers/lvgl/lvgl/src/core/lv_obj_style_gen.h **** }
 174:Drivers/lvgl/lvgl/src/core/lv_obj_style_gen.h **** 
 175:Drivers/lvgl/lvgl/src/core/lv_obj_style_gen.h **** static inline lv_coord_t lv_obj_get_style_bg_main_stop(const struct _lv_obj_t * obj, uint32_t part)
 176:Drivers/lvgl/lvgl/src/core/lv_obj_style_gen.h **** {
 177:Drivers/lvgl/lvgl/src/core/lv_obj_style_gen.h ****     lv_style_value_t v = lv_obj_get_style_prop(obj, part, LV_STYLE_BG_MAIN_STOP);
 178:Drivers/lvgl/lvgl/src/core/lv_obj_style_gen.h ****     return (lv_coord_t)v.num;
 179:Drivers/lvgl/lvgl/src/core/lv_obj_style_gen.h **** }
 180:Drivers/lvgl/lvgl/src/core/lv_obj_style_gen.h **** 
 181:Drivers/lvgl/lvgl/src/core/lv_obj_style_gen.h **** static inline lv_coord_t lv_obj_get_style_bg_grad_stop(const struct _lv_obj_t * obj, uint32_t part)
 182:Drivers/lvgl/lvgl/src/core/lv_obj_style_gen.h **** {
 183:Drivers/lvgl/lvgl/src/core/lv_obj_style_gen.h ****     lv_style_value_t v = lv_obj_get_style_prop(obj, part, LV_STYLE_BG_GRAD_STOP);
 184:Drivers/lvgl/lvgl/src/core/lv_obj_style_gen.h ****     return (lv_coord_t)v.num;
 185:Drivers/lvgl/lvgl/src/core/lv_obj_style_gen.h **** }
 186:Drivers/lvgl/lvgl/src/core/lv_obj_style_gen.h **** 
 187:Drivers/lvgl/lvgl/src/core/lv_obj_style_gen.h **** static inline const lv_grad_dsc_t * lv_obj_get_style_bg_grad(const struct _lv_obj_t * obj, uint32_t
 188:Drivers/lvgl/lvgl/src/core/lv_obj_style_gen.h **** {
 189:Drivers/lvgl/lvgl/src/core/lv_obj_style_gen.h ****     lv_style_value_t v = lv_obj_get_style_prop(obj, part, LV_STYLE_BG_GRAD);
 190:Drivers/lvgl/lvgl/src/core/lv_obj_style_gen.h ****     return (const lv_grad_dsc_t *)v.ptr;
 191:Drivers/lvgl/lvgl/src/core/lv_obj_style_gen.h **** }
 192:Drivers/lvgl/lvgl/src/core/lv_obj_style_gen.h **** 
 193:Drivers/lvgl/lvgl/src/core/lv_obj_style_gen.h **** static inline lv_dither_mode_t lv_obj_get_style_bg_dither_mode(const struct _lv_obj_t * obj, uint32
 194:Drivers/lvgl/lvgl/src/core/lv_obj_style_gen.h **** {
 195:Drivers/lvgl/lvgl/src/core/lv_obj_style_gen.h ****     lv_style_value_t v = lv_obj_get_style_prop(obj, part, LV_STYLE_BG_DITHER_MODE);
 196:Drivers/lvgl/lvgl/src/core/lv_obj_style_gen.h ****     return (lv_dither_mode_t)v.num;
 197:Drivers/lvgl/lvgl/src/core/lv_obj_style_gen.h **** }
 198:Drivers/lvgl/lvgl/src/core/lv_obj_style_gen.h **** 
 199:Drivers/lvgl/lvgl/src/core/lv_obj_style_gen.h **** static inline const void * lv_obj_get_style_bg_img_src(const struct _lv_obj_t * obj, uint32_t part)
 200:Drivers/lvgl/lvgl/src/core/lv_obj_style_gen.h **** {
 201:Drivers/lvgl/lvgl/src/core/lv_obj_style_gen.h ****     lv_style_value_t v = lv_obj_get_style_prop(obj, part, LV_STYLE_BG_IMG_SRC);
 202:Drivers/lvgl/lvgl/src/core/lv_obj_style_gen.h ****     return (const void *)v.ptr;
 203:Drivers/lvgl/lvgl/src/core/lv_obj_style_gen.h **** }
 204:Drivers/lvgl/lvgl/src/core/lv_obj_style_gen.h **** 
 205:Drivers/lvgl/lvgl/src/core/lv_obj_style_gen.h **** static inline lv_opa_t lv_obj_get_style_bg_img_opa(const struct _lv_obj_t * obj, uint32_t part)
 206:Drivers/lvgl/lvgl/src/core/lv_obj_style_gen.h **** {
 207:Drivers/lvgl/lvgl/src/core/lv_obj_style_gen.h ****     lv_style_value_t v = lv_obj_get_style_prop(obj, part, LV_STYLE_BG_IMG_OPA);
 208:Drivers/lvgl/lvgl/src/core/lv_obj_style_gen.h ****     return (lv_opa_t)v.num;
ARM GAS  /tmp/ccJvwpHF.s 			page 24


 209:Drivers/lvgl/lvgl/src/core/lv_obj_style_gen.h **** }
 210:Drivers/lvgl/lvgl/src/core/lv_obj_style_gen.h **** 
 211:Drivers/lvgl/lvgl/src/core/lv_obj_style_gen.h **** static inline lv_color_t lv_obj_get_style_bg_img_recolor(const struct _lv_obj_t * obj, uint32_t par
 212:Drivers/lvgl/lvgl/src/core/lv_obj_style_gen.h **** {
 213:Drivers/lvgl/lvgl/src/core/lv_obj_style_gen.h ****     lv_style_value_t v = lv_obj_get_style_prop(obj, part, LV_STYLE_BG_IMG_RECOLOR);
 214:Drivers/lvgl/lvgl/src/core/lv_obj_style_gen.h ****     return v.color;
 215:Drivers/lvgl/lvgl/src/core/lv_obj_style_gen.h **** }
 216:Drivers/lvgl/lvgl/src/core/lv_obj_style_gen.h **** 
 217:Drivers/lvgl/lvgl/src/core/lv_obj_style_gen.h **** static inline lv_color_t lv_obj_get_style_bg_img_recolor_filtered(const struct _lv_obj_t * obj, uin
 218:Drivers/lvgl/lvgl/src/core/lv_obj_style_gen.h **** {
 219:Drivers/lvgl/lvgl/src/core/lv_obj_style_gen.h ****     lv_style_value_t v = _lv_obj_style_apply_color_filter(obj, part, lv_obj_get_style_prop(obj, par
 220:Drivers/lvgl/lvgl/src/core/lv_obj_style_gen.h ****     return v.color;
 221:Drivers/lvgl/lvgl/src/core/lv_obj_style_gen.h **** }
 222:Drivers/lvgl/lvgl/src/core/lv_obj_style_gen.h **** 
 223:Drivers/lvgl/lvgl/src/core/lv_obj_style_gen.h **** static inline lv_opa_t lv_obj_get_style_bg_img_recolor_opa(const struct _lv_obj_t * obj, uint32_t p
 224:Drivers/lvgl/lvgl/src/core/lv_obj_style_gen.h **** {
 225:Drivers/lvgl/lvgl/src/core/lv_obj_style_gen.h ****     lv_style_value_t v = lv_obj_get_style_prop(obj, part, LV_STYLE_BG_IMG_RECOLOR_OPA);
 226:Drivers/lvgl/lvgl/src/core/lv_obj_style_gen.h ****     return (lv_opa_t)v.num;
 227:Drivers/lvgl/lvgl/src/core/lv_obj_style_gen.h **** }
 228:Drivers/lvgl/lvgl/src/core/lv_obj_style_gen.h **** 
 229:Drivers/lvgl/lvgl/src/core/lv_obj_style_gen.h **** static inline bool lv_obj_get_style_bg_img_tiled(const struct _lv_obj_t * obj, uint32_t part)
 230:Drivers/lvgl/lvgl/src/core/lv_obj_style_gen.h **** {
 231:Drivers/lvgl/lvgl/src/core/lv_obj_style_gen.h ****     lv_style_value_t v = lv_obj_get_style_prop(obj, part, LV_STYLE_BG_IMG_TILED);
 232:Drivers/lvgl/lvgl/src/core/lv_obj_style_gen.h ****     return (bool)v.num;
 233:Drivers/lvgl/lvgl/src/core/lv_obj_style_gen.h **** }
 234:Drivers/lvgl/lvgl/src/core/lv_obj_style_gen.h **** 
 235:Drivers/lvgl/lvgl/src/core/lv_obj_style_gen.h **** static inline lv_color_t lv_obj_get_style_border_color(const struct _lv_obj_t * obj, uint32_t part)
 236:Drivers/lvgl/lvgl/src/core/lv_obj_style_gen.h **** {
 237:Drivers/lvgl/lvgl/src/core/lv_obj_style_gen.h ****     lv_style_value_t v = lv_obj_get_style_prop(obj, part, LV_STYLE_BORDER_COLOR);
 238:Drivers/lvgl/lvgl/src/core/lv_obj_style_gen.h ****     return v.color;
 239:Drivers/lvgl/lvgl/src/core/lv_obj_style_gen.h **** }
 240:Drivers/lvgl/lvgl/src/core/lv_obj_style_gen.h **** 
 241:Drivers/lvgl/lvgl/src/core/lv_obj_style_gen.h **** static inline lv_color_t lv_obj_get_style_border_color_filtered(const struct _lv_obj_t * obj, uint3
 242:Drivers/lvgl/lvgl/src/core/lv_obj_style_gen.h **** {
 243:Drivers/lvgl/lvgl/src/core/lv_obj_style_gen.h ****     lv_style_value_t v = _lv_obj_style_apply_color_filter(obj, part, lv_obj_get_style_prop(obj, par
 244:Drivers/lvgl/lvgl/src/core/lv_obj_style_gen.h ****     return v.color;
 245:Drivers/lvgl/lvgl/src/core/lv_obj_style_gen.h **** }
 246:Drivers/lvgl/lvgl/src/core/lv_obj_style_gen.h **** 
 247:Drivers/lvgl/lvgl/src/core/lv_obj_style_gen.h **** static inline lv_opa_t lv_obj_get_style_border_opa(const struct _lv_obj_t * obj, uint32_t part)
 248:Drivers/lvgl/lvgl/src/core/lv_obj_style_gen.h **** {
 249:Drivers/lvgl/lvgl/src/core/lv_obj_style_gen.h ****     lv_style_value_t v = lv_obj_get_style_prop(obj, part, LV_STYLE_BORDER_OPA);
 152              		.loc 2 249 0
 153 0020 3122     		movs	r2, #49
 154 0022 4FF48031 		mov	r1, #65536
 155 0026 2846     		mov	r0, r5
 156 0028 FFF7FEFF 		bl	lv_obj_get_style_prop
 157              	.LVL16:
 250:Drivers/lvgl/lvgl/src/core/lv_obj_style_gen.h ****     return (lv_opa_t)v.num;
 158              		.loc 2 250 0
 159 002c C0B2     		uxtb	r0, r0
 160              	.LVL17:
 161              	.LBE100:
 162              	.LBE99:
 657:Drivers/lvgl/lvgl/src/core/lv_obj.c ****     if(dsc->border_opa > LV_OPA_MIN) {
 163              		.loc 1 657 0
 164 002e 84F82200 		strb	r0, [r4, #34]
 658:Drivers/lvgl/lvgl/src/core/lv_obj.c ****         dsc->border_width = lv_obj_get_style_border_width(obj, LV_PART_SCROLLBAR);
ARM GAS  /tmp/ccJvwpHF.s 			page 25


 165              		.loc 1 658 0
 166 0032 0228     		cmp	r0, #2
 167 0034 3AD8     		bhi	.L22
 168              	.L12:
 169              	.LVL18:
 170              	.LBB101:
 171              	.LBB102:
 251:Drivers/lvgl/lvgl/src/core/lv_obj_style_gen.h **** }
 252:Drivers/lvgl/lvgl/src/core/lv_obj_style_gen.h **** 
 253:Drivers/lvgl/lvgl/src/core/lv_obj_style_gen.h **** static inline lv_coord_t lv_obj_get_style_border_width(const struct _lv_obj_t * obj, uint32_t part)
 254:Drivers/lvgl/lvgl/src/core/lv_obj_style_gen.h **** {
 255:Drivers/lvgl/lvgl/src/core/lv_obj_style_gen.h ****     lv_style_value_t v = lv_obj_get_style_prop(obj, part, LV_STYLE_BORDER_WIDTH);
 256:Drivers/lvgl/lvgl/src/core/lv_obj_style_gen.h ****     return (lv_coord_t)v.num;
 257:Drivers/lvgl/lvgl/src/core/lv_obj_style_gen.h **** }
 258:Drivers/lvgl/lvgl/src/core/lv_obj_style_gen.h **** 
 259:Drivers/lvgl/lvgl/src/core/lv_obj_style_gen.h **** static inline lv_border_side_t lv_obj_get_style_border_side(const struct _lv_obj_t * obj, uint32_t 
 260:Drivers/lvgl/lvgl/src/core/lv_obj_style_gen.h **** {
 261:Drivers/lvgl/lvgl/src/core/lv_obj_style_gen.h ****     lv_style_value_t v = lv_obj_get_style_prop(obj, part, LV_STYLE_BORDER_SIDE);
 262:Drivers/lvgl/lvgl/src/core/lv_obj_style_gen.h ****     return (lv_border_side_t)v.num;
 263:Drivers/lvgl/lvgl/src/core/lv_obj_style_gen.h **** }
 264:Drivers/lvgl/lvgl/src/core/lv_obj_style_gen.h **** 
 265:Drivers/lvgl/lvgl/src/core/lv_obj_style_gen.h **** static inline bool lv_obj_get_style_border_post(const struct _lv_obj_t * obj, uint32_t part)
 266:Drivers/lvgl/lvgl/src/core/lv_obj_style_gen.h **** {
 267:Drivers/lvgl/lvgl/src/core/lv_obj_style_gen.h ****     lv_style_value_t v = lv_obj_get_style_prop(obj, part, LV_STYLE_BORDER_POST);
 268:Drivers/lvgl/lvgl/src/core/lv_obj_style_gen.h ****     return (bool)v.num;
 269:Drivers/lvgl/lvgl/src/core/lv_obj_style_gen.h **** }
 270:Drivers/lvgl/lvgl/src/core/lv_obj_style_gen.h **** 
 271:Drivers/lvgl/lvgl/src/core/lv_obj_style_gen.h **** static inline lv_coord_t lv_obj_get_style_outline_width(const struct _lv_obj_t * obj, uint32_t part
 272:Drivers/lvgl/lvgl/src/core/lv_obj_style_gen.h **** {
 273:Drivers/lvgl/lvgl/src/core/lv_obj_style_gen.h ****     lv_style_value_t v = lv_obj_get_style_prop(obj, part, LV_STYLE_OUTLINE_WIDTH);
 274:Drivers/lvgl/lvgl/src/core/lv_obj_style_gen.h ****     return (lv_coord_t)v.num;
 275:Drivers/lvgl/lvgl/src/core/lv_obj_style_gen.h **** }
 276:Drivers/lvgl/lvgl/src/core/lv_obj_style_gen.h **** 
 277:Drivers/lvgl/lvgl/src/core/lv_obj_style_gen.h **** static inline lv_color_t lv_obj_get_style_outline_color(const struct _lv_obj_t * obj, uint32_t part
 278:Drivers/lvgl/lvgl/src/core/lv_obj_style_gen.h **** {
 279:Drivers/lvgl/lvgl/src/core/lv_obj_style_gen.h ****     lv_style_value_t v = lv_obj_get_style_prop(obj, part, LV_STYLE_OUTLINE_COLOR);
 280:Drivers/lvgl/lvgl/src/core/lv_obj_style_gen.h ****     return v.color;
 281:Drivers/lvgl/lvgl/src/core/lv_obj_style_gen.h **** }
 282:Drivers/lvgl/lvgl/src/core/lv_obj_style_gen.h **** 
 283:Drivers/lvgl/lvgl/src/core/lv_obj_style_gen.h **** static inline lv_color_t lv_obj_get_style_outline_color_filtered(const struct _lv_obj_t * obj, uint
 284:Drivers/lvgl/lvgl/src/core/lv_obj_style_gen.h **** {
 285:Drivers/lvgl/lvgl/src/core/lv_obj_style_gen.h ****     lv_style_value_t v = _lv_obj_style_apply_color_filter(obj, part, lv_obj_get_style_prop(obj, par
 286:Drivers/lvgl/lvgl/src/core/lv_obj_style_gen.h ****     return v.color;
 287:Drivers/lvgl/lvgl/src/core/lv_obj_style_gen.h **** }
 288:Drivers/lvgl/lvgl/src/core/lv_obj_style_gen.h **** 
 289:Drivers/lvgl/lvgl/src/core/lv_obj_style_gen.h **** static inline lv_opa_t lv_obj_get_style_outline_opa(const struct _lv_obj_t * obj, uint32_t part)
 290:Drivers/lvgl/lvgl/src/core/lv_obj_style_gen.h **** {
 291:Drivers/lvgl/lvgl/src/core/lv_obj_style_gen.h ****     lv_style_value_t v = lv_obj_get_style_prop(obj, part, LV_STYLE_OUTLINE_OPA);
 292:Drivers/lvgl/lvgl/src/core/lv_obj_style_gen.h ****     return (lv_opa_t)v.num;
 293:Drivers/lvgl/lvgl/src/core/lv_obj_style_gen.h **** }
 294:Drivers/lvgl/lvgl/src/core/lv_obj_style_gen.h **** 
 295:Drivers/lvgl/lvgl/src/core/lv_obj_style_gen.h **** static inline lv_coord_t lv_obj_get_style_outline_pad(const struct _lv_obj_t * obj, uint32_t part)
 296:Drivers/lvgl/lvgl/src/core/lv_obj_style_gen.h **** {
 297:Drivers/lvgl/lvgl/src/core/lv_obj_style_gen.h ****     lv_style_value_t v = lv_obj_get_style_prop(obj, part, LV_STYLE_OUTLINE_PAD);
 298:Drivers/lvgl/lvgl/src/core/lv_obj_style_gen.h ****     return (lv_coord_t)v.num;
 299:Drivers/lvgl/lvgl/src/core/lv_obj_style_gen.h **** }
 300:Drivers/lvgl/lvgl/src/core/lv_obj_style_gen.h **** 
ARM GAS  /tmp/ccJvwpHF.s 			page 26


 301:Drivers/lvgl/lvgl/src/core/lv_obj_style_gen.h **** static inline lv_coord_t lv_obj_get_style_shadow_width(const struct _lv_obj_t * obj, uint32_t part)
 302:Drivers/lvgl/lvgl/src/core/lv_obj_style_gen.h **** {
 303:Drivers/lvgl/lvgl/src/core/lv_obj_style_gen.h ****     lv_style_value_t v = lv_obj_get_style_prop(obj, part, LV_STYLE_SHADOW_WIDTH);
 304:Drivers/lvgl/lvgl/src/core/lv_obj_style_gen.h ****     return (lv_coord_t)v.num;
 305:Drivers/lvgl/lvgl/src/core/lv_obj_style_gen.h **** }
 306:Drivers/lvgl/lvgl/src/core/lv_obj_style_gen.h **** 
 307:Drivers/lvgl/lvgl/src/core/lv_obj_style_gen.h **** static inline lv_coord_t lv_obj_get_style_shadow_ofs_x(const struct _lv_obj_t * obj, uint32_t part)
 308:Drivers/lvgl/lvgl/src/core/lv_obj_style_gen.h **** {
 309:Drivers/lvgl/lvgl/src/core/lv_obj_style_gen.h ****     lv_style_value_t v = lv_obj_get_style_prop(obj, part, LV_STYLE_SHADOW_OFS_X);
 310:Drivers/lvgl/lvgl/src/core/lv_obj_style_gen.h ****     return (lv_coord_t)v.num;
 311:Drivers/lvgl/lvgl/src/core/lv_obj_style_gen.h **** }
 312:Drivers/lvgl/lvgl/src/core/lv_obj_style_gen.h **** 
 313:Drivers/lvgl/lvgl/src/core/lv_obj_style_gen.h **** static inline lv_coord_t lv_obj_get_style_shadow_ofs_y(const struct _lv_obj_t * obj, uint32_t part)
 314:Drivers/lvgl/lvgl/src/core/lv_obj_style_gen.h **** {
 315:Drivers/lvgl/lvgl/src/core/lv_obj_style_gen.h ****     lv_style_value_t v = lv_obj_get_style_prop(obj, part, LV_STYLE_SHADOW_OFS_Y);
 316:Drivers/lvgl/lvgl/src/core/lv_obj_style_gen.h ****     return (lv_coord_t)v.num;
 317:Drivers/lvgl/lvgl/src/core/lv_obj_style_gen.h **** }
 318:Drivers/lvgl/lvgl/src/core/lv_obj_style_gen.h **** 
 319:Drivers/lvgl/lvgl/src/core/lv_obj_style_gen.h **** static inline lv_coord_t lv_obj_get_style_shadow_spread(const struct _lv_obj_t * obj, uint32_t part
 320:Drivers/lvgl/lvgl/src/core/lv_obj_style_gen.h **** {
 321:Drivers/lvgl/lvgl/src/core/lv_obj_style_gen.h ****     lv_style_value_t v = lv_obj_get_style_prop(obj, part, LV_STYLE_SHADOW_SPREAD);
 322:Drivers/lvgl/lvgl/src/core/lv_obj_style_gen.h ****     return (lv_coord_t)v.num;
 323:Drivers/lvgl/lvgl/src/core/lv_obj_style_gen.h **** }
 324:Drivers/lvgl/lvgl/src/core/lv_obj_style_gen.h **** 
 325:Drivers/lvgl/lvgl/src/core/lv_obj_style_gen.h **** static inline lv_color_t lv_obj_get_style_shadow_color(const struct _lv_obj_t * obj, uint32_t part)
 326:Drivers/lvgl/lvgl/src/core/lv_obj_style_gen.h **** {
 327:Drivers/lvgl/lvgl/src/core/lv_obj_style_gen.h ****     lv_style_value_t v = lv_obj_get_style_prop(obj, part, LV_STYLE_SHADOW_COLOR);
 328:Drivers/lvgl/lvgl/src/core/lv_obj_style_gen.h ****     return v.color;
 329:Drivers/lvgl/lvgl/src/core/lv_obj_style_gen.h **** }
 330:Drivers/lvgl/lvgl/src/core/lv_obj_style_gen.h **** 
 331:Drivers/lvgl/lvgl/src/core/lv_obj_style_gen.h **** static inline lv_color_t lv_obj_get_style_shadow_color_filtered(const struct _lv_obj_t * obj, uint3
 332:Drivers/lvgl/lvgl/src/core/lv_obj_style_gen.h **** {
 333:Drivers/lvgl/lvgl/src/core/lv_obj_style_gen.h ****     lv_style_value_t v = _lv_obj_style_apply_color_filter(obj, part, lv_obj_get_style_prop(obj, par
 334:Drivers/lvgl/lvgl/src/core/lv_obj_style_gen.h ****     return v.color;
 335:Drivers/lvgl/lvgl/src/core/lv_obj_style_gen.h **** }
 336:Drivers/lvgl/lvgl/src/core/lv_obj_style_gen.h **** 
 337:Drivers/lvgl/lvgl/src/core/lv_obj_style_gen.h **** static inline lv_opa_t lv_obj_get_style_shadow_opa(const struct _lv_obj_t * obj, uint32_t part)
 338:Drivers/lvgl/lvgl/src/core/lv_obj_style_gen.h **** {
 339:Drivers/lvgl/lvgl/src/core/lv_obj_style_gen.h ****     lv_style_value_t v = lv_obj_get_style_prop(obj, part, LV_STYLE_SHADOW_OPA);
 172              		.loc 2 339 0
 173 0036 4522     		movs	r2, #69
 174 0038 4FF48031 		mov	r1, #65536
 175 003c 2846     		mov	r0, r5
 176 003e FFF7FEFF 		bl	lv_obj_get_style_prop
 177              	.LVL19:
 340:Drivers/lvgl/lvgl/src/core/lv_obj_style_gen.h ****     return (lv_opa_t)v.num;
 178              		.loc 2 340 0
 179 0042 C0B2     		uxtb	r0, r0
 180              	.LVL20:
 181              	.LBE102:
 182              	.LBE101:
 669:Drivers/lvgl/lvgl/src/core/lv_obj.c ****     if(dsc->shadow_opa > LV_OPA_MIN) {
 183              		.loc 1 669 0
 184 0044 84F83600 		strb	r0, [r4, #54]
 670:Drivers/lvgl/lvgl/src/core/lv_obj.c ****         dsc->shadow_width = lv_obj_get_style_shadow_width(obj, LV_PART_SCROLLBAR);
 185              		.loc 1 670 0
 186 0048 0228     		cmp	r0, #2
ARM GAS  /tmp/ccJvwpHF.s 			page 27


 187 004a 45D8     		bhi	.L23
 188              	.L14:
 189              	.LVL21:
 190              	.LBB103:
 191              	.LBB104:
 341:Drivers/lvgl/lvgl/src/core/lv_obj_style_gen.h **** }
 342:Drivers/lvgl/lvgl/src/core/lv_obj_style_gen.h **** 
 343:Drivers/lvgl/lvgl/src/core/lv_obj_style_gen.h **** static inline lv_opa_t lv_obj_get_style_img_opa(const struct _lv_obj_t * obj, uint32_t part)
 344:Drivers/lvgl/lvgl/src/core/lv_obj_style_gen.h **** {
 345:Drivers/lvgl/lvgl/src/core/lv_obj_style_gen.h ****     lv_style_value_t v = lv_obj_get_style_prop(obj, part, LV_STYLE_IMG_OPA);
 346:Drivers/lvgl/lvgl/src/core/lv_obj_style_gen.h ****     return (lv_opa_t)v.num;
 347:Drivers/lvgl/lvgl/src/core/lv_obj_style_gen.h **** }
 348:Drivers/lvgl/lvgl/src/core/lv_obj_style_gen.h **** 
 349:Drivers/lvgl/lvgl/src/core/lv_obj_style_gen.h **** static inline lv_color_t lv_obj_get_style_img_recolor(const struct _lv_obj_t * obj, uint32_t part)
 350:Drivers/lvgl/lvgl/src/core/lv_obj_style_gen.h **** {
 351:Drivers/lvgl/lvgl/src/core/lv_obj_style_gen.h ****     lv_style_value_t v = lv_obj_get_style_prop(obj, part, LV_STYLE_IMG_RECOLOR);
 352:Drivers/lvgl/lvgl/src/core/lv_obj_style_gen.h ****     return v.color;
 353:Drivers/lvgl/lvgl/src/core/lv_obj_style_gen.h **** }
 354:Drivers/lvgl/lvgl/src/core/lv_obj_style_gen.h **** 
 355:Drivers/lvgl/lvgl/src/core/lv_obj_style_gen.h **** static inline lv_color_t lv_obj_get_style_img_recolor_filtered(const struct _lv_obj_t * obj, uint32
 356:Drivers/lvgl/lvgl/src/core/lv_obj_style_gen.h **** {
 357:Drivers/lvgl/lvgl/src/core/lv_obj_style_gen.h ****     lv_style_value_t v = _lv_obj_style_apply_color_filter(obj, part, lv_obj_get_style_prop(obj, par
 358:Drivers/lvgl/lvgl/src/core/lv_obj_style_gen.h ****     return v.color;
 359:Drivers/lvgl/lvgl/src/core/lv_obj_style_gen.h **** }
 360:Drivers/lvgl/lvgl/src/core/lv_obj_style_gen.h **** 
 361:Drivers/lvgl/lvgl/src/core/lv_obj_style_gen.h **** static inline lv_opa_t lv_obj_get_style_img_recolor_opa(const struct _lv_obj_t * obj, uint32_t part
 362:Drivers/lvgl/lvgl/src/core/lv_obj_style_gen.h **** {
 363:Drivers/lvgl/lvgl/src/core/lv_obj_style_gen.h ****     lv_style_value_t v = lv_obj_get_style_prop(obj, part, LV_STYLE_IMG_RECOLOR_OPA);
 364:Drivers/lvgl/lvgl/src/core/lv_obj_style_gen.h ****     return (lv_opa_t)v.num;
 365:Drivers/lvgl/lvgl/src/core/lv_obj_style_gen.h **** }
 366:Drivers/lvgl/lvgl/src/core/lv_obj_style_gen.h **** 
 367:Drivers/lvgl/lvgl/src/core/lv_obj_style_gen.h **** static inline lv_coord_t lv_obj_get_style_line_width(const struct _lv_obj_t * obj, uint32_t part)
 368:Drivers/lvgl/lvgl/src/core/lv_obj_style_gen.h **** {
 369:Drivers/lvgl/lvgl/src/core/lv_obj_style_gen.h ****     lv_style_value_t v = lv_obj_get_style_prop(obj, part, LV_STYLE_LINE_WIDTH);
 370:Drivers/lvgl/lvgl/src/core/lv_obj_style_gen.h ****     return (lv_coord_t)v.num;
 371:Drivers/lvgl/lvgl/src/core/lv_obj_style_gen.h **** }
 372:Drivers/lvgl/lvgl/src/core/lv_obj_style_gen.h **** 
 373:Drivers/lvgl/lvgl/src/core/lv_obj_style_gen.h **** static inline lv_coord_t lv_obj_get_style_line_dash_width(const struct _lv_obj_t * obj, uint32_t pa
 374:Drivers/lvgl/lvgl/src/core/lv_obj_style_gen.h **** {
 375:Drivers/lvgl/lvgl/src/core/lv_obj_style_gen.h ****     lv_style_value_t v = lv_obj_get_style_prop(obj, part, LV_STYLE_LINE_DASH_WIDTH);
 376:Drivers/lvgl/lvgl/src/core/lv_obj_style_gen.h ****     return (lv_coord_t)v.num;
 377:Drivers/lvgl/lvgl/src/core/lv_obj_style_gen.h **** }
 378:Drivers/lvgl/lvgl/src/core/lv_obj_style_gen.h **** 
 379:Drivers/lvgl/lvgl/src/core/lv_obj_style_gen.h **** static inline lv_coord_t lv_obj_get_style_line_dash_gap(const struct _lv_obj_t * obj, uint32_t part
 380:Drivers/lvgl/lvgl/src/core/lv_obj_style_gen.h **** {
 381:Drivers/lvgl/lvgl/src/core/lv_obj_style_gen.h ****     lv_style_value_t v = lv_obj_get_style_prop(obj, part, LV_STYLE_LINE_DASH_GAP);
 382:Drivers/lvgl/lvgl/src/core/lv_obj_style_gen.h ****     return (lv_coord_t)v.num;
 383:Drivers/lvgl/lvgl/src/core/lv_obj_style_gen.h **** }
 384:Drivers/lvgl/lvgl/src/core/lv_obj_style_gen.h **** 
 385:Drivers/lvgl/lvgl/src/core/lv_obj_style_gen.h **** static inline bool lv_obj_get_style_line_rounded(const struct _lv_obj_t * obj, uint32_t part)
 386:Drivers/lvgl/lvgl/src/core/lv_obj_style_gen.h **** {
 387:Drivers/lvgl/lvgl/src/core/lv_obj_style_gen.h ****     lv_style_value_t v = lv_obj_get_style_prop(obj, part, LV_STYLE_LINE_ROUNDED);
 388:Drivers/lvgl/lvgl/src/core/lv_obj_style_gen.h ****     return (bool)v.num;
 389:Drivers/lvgl/lvgl/src/core/lv_obj_style_gen.h **** }
 390:Drivers/lvgl/lvgl/src/core/lv_obj_style_gen.h **** 
 391:Drivers/lvgl/lvgl/src/core/lv_obj_style_gen.h **** static inline lv_color_t lv_obj_get_style_line_color(const struct _lv_obj_t * obj, uint32_t part)
 392:Drivers/lvgl/lvgl/src/core/lv_obj_style_gen.h **** {
ARM GAS  /tmp/ccJvwpHF.s 			page 28


 393:Drivers/lvgl/lvgl/src/core/lv_obj_style_gen.h ****     lv_style_value_t v = lv_obj_get_style_prop(obj, part, LV_STYLE_LINE_COLOR);
 394:Drivers/lvgl/lvgl/src/core/lv_obj_style_gen.h ****     return v.color;
 395:Drivers/lvgl/lvgl/src/core/lv_obj_style_gen.h **** }
 396:Drivers/lvgl/lvgl/src/core/lv_obj_style_gen.h **** 
 397:Drivers/lvgl/lvgl/src/core/lv_obj_style_gen.h **** static inline lv_color_t lv_obj_get_style_line_color_filtered(const struct _lv_obj_t * obj, uint32_
 398:Drivers/lvgl/lvgl/src/core/lv_obj_style_gen.h **** {
 399:Drivers/lvgl/lvgl/src/core/lv_obj_style_gen.h ****     lv_style_value_t v = _lv_obj_style_apply_color_filter(obj, part, lv_obj_get_style_prop(obj, par
 400:Drivers/lvgl/lvgl/src/core/lv_obj_style_gen.h ****     return v.color;
 401:Drivers/lvgl/lvgl/src/core/lv_obj_style_gen.h **** }
 402:Drivers/lvgl/lvgl/src/core/lv_obj_style_gen.h **** 
 403:Drivers/lvgl/lvgl/src/core/lv_obj_style_gen.h **** static inline lv_opa_t lv_obj_get_style_line_opa(const struct _lv_obj_t * obj, uint32_t part)
 404:Drivers/lvgl/lvgl/src/core/lv_obj_style_gen.h **** {
 405:Drivers/lvgl/lvgl/src/core/lv_obj_style_gen.h ****     lv_style_value_t v = lv_obj_get_style_prop(obj, part, LV_STYLE_LINE_OPA);
 406:Drivers/lvgl/lvgl/src/core/lv_obj_style_gen.h ****     return (lv_opa_t)v.num;
 407:Drivers/lvgl/lvgl/src/core/lv_obj_style_gen.h **** }
 408:Drivers/lvgl/lvgl/src/core/lv_obj_style_gen.h **** 
 409:Drivers/lvgl/lvgl/src/core/lv_obj_style_gen.h **** static inline lv_coord_t lv_obj_get_style_arc_width(const struct _lv_obj_t * obj, uint32_t part)
 410:Drivers/lvgl/lvgl/src/core/lv_obj_style_gen.h **** {
 411:Drivers/lvgl/lvgl/src/core/lv_obj_style_gen.h ****     lv_style_value_t v = lv_obj_get_style_prop(obj, part, LV_STYLE_ARC_WIDTH);
 412:Drivers/lvgl/lvgl/src/core/lv_obj_style_gen.h ****     return (lv_coord_t)v.num;
 413:Drivers/lvgl/lvgl/src/core/lv_obj_style_gen.h **** }
 414:Drivers/lvgl/lvgl/src/core/lv_obj_style_gen.h **** 
 415:Drivers/lvgl/lvgl/src/core/lv_obj_style_gen.h **** static inline bool lv_obj_get_style_arc_rounded(const struct _lv_obj_t * obj, uint32_t part)
 416:Drivers/lvgl/lvgl/src/core/lv_obj_style_gen.h **** {
 417:Drivers/lvgl/lvgl/src/core/lv_obj_style_gen.h ****     lv_style_value_t v = lv_obj_get_style_prop(obj, part, LV_STYLE_ARC_ROUNDED);
 418:Drivers/lvgl/lvgl/src/core/lv_obj_style_gen.h ****     return (bool)v.num;
 419:Drivers/lvgl/lvgl/src/core/lv_obj_style_gen.h **** }
 420:Drivers/lvgl/lvgl/src/core/lv_obj_style_gen.h **** 
 421:Drivers/lvgl/lvgl/src/core/lv_obj_style_gen.h **** static inline lv_color_t lv_obj_get_style_arc_color(const struct _lv_obj_t * obj, uint32_t part)
 422:Drivers/lvgl/lvgl/src/core/lv_obj_style_gen.h **** {
 423:Drivers/lvgl/lvgl/src/core/lv_obj_style_gen.h ****     lv_style_value_t v = lv_obj_get_style_prop(obj, part, LV_STYLE_ARC_COLOR);
 424:Drivers/lvgl/lvgl/src/core/lv_obj_style_gen.h ****     return v.color;
 425:Drivers/lvgl/lvgl/src/core/lv_obj_style_gen.h **** }
 426:Drivers/lvgl/lvgl/src/core/lv_obj_style_gen.h **** 
 427:Drivers/lvgl/lvgl/src/core/lv_obj_style_gen.h **** static inline lv_color_t lv_obj_get_style_arc_color_filtered(const struct _lv_obj_t * obj, uint32_t
 428:Drivers/lvgl/lvgl/src/core/lv_obj_style_gen.h **** {
 429:Drivers/lvgl/lvgl/src/core/lv_obj_style_gen.h ****     lv_style_value_t v = _lv_obj_style_apply_color_filter(obj, part, lv_obj_get_style_prop(obj, par
 430:Drivers/lvgl/lvgl/src/core/lv_obj_style_gen.h ****     return v.color;
 431:Drivers/lvgl/lvgl/src/core/lv_obj_style_gen.h **** }
 432:Drivers/lvgl/lvgl/src/core/lv_obj_style_gen.h **** 
 433:Drivers/lvgl/lvgl/src/core/lv_obj_style_gen.h **** static inline lv_opa_t lv_obj_get_style_arc_opa(const struct _lv_obj_t * obj, uint32_t part)
 434:Drivers/lvgl/lvgl/src/core/lv_obj_style_gen.h **** {
 435:Drivers/lvgl/lvgl/src/core/lv_obj_style_gen.h ****     lv_style_value_t v = lv_obj_get_style_prop(obj, part, LV_STYLE_ARC_OPA);
 436:Drivers/lvgl/lvgl/src/core/lv_obj_style_gen.h ****     return (lv_opa_t)v.num;
 437:Drivers/lvgl/lvgl/src/core/lv_obj_style_gen.h **** }
 438:Drivers/lvgl/lvgl/src/core/lv_obj_style_gen.h **** 
 439:Drivers/lvgl/lvgl/src/core/lv_obj_style_gen.h **** static inline const void * lv_obj_get_style_arc_img_src(const struct _lv_obj_t * obj, uint32_t part
 440:Drivers/lvgl/lvgl/src/core/lv_obj_style_gen.h **** {
 441:Drivers/lvgl/lvgl/src/core/lv_obj_style_gen.h ****     lv_style_value_t v = lv_obj_get_style_prop(obj, part, LV_STYLE_ARC_IMG_SRC);
 442:Drivers/lvgl/lvgl/src/core/lv_obj_style_gen.h ****     return (const void *)v.ptr;
 443:Drivers/lvgl/lvgl/src/core/lv_obj_style_gen.h **** }
 444:Drivers/lvgl/lvgl/src/core/lv_obj_style_gen.h **** 
 445:Drivers/lvgl/lvgl/src/core/lv_obj_style_gen.h **** static inline lv_color_t lv_obj_get_style_text_color(const struct _lv_obj_t * obj, uint32_t part)
 446:Drivers/lvgl/lvgl/src/core/lv_obj_style_gen.h **** {
 447:Drivers/lvgl/lvgl/src/core/lv_obj_style_gen.h ****     lv_style_value_t v = lv_obj_get_style_prop(obj, part, LV_STYLE_TEXT_COLOR);
 448:Drivers/lvgl/lvgl/src/core/lv_obj_style_gen.h ****     return v.color;
 449:Drivers/lvgl/lvgl/src/core/lv_obj_style_gen.h **** }
ARM GAS  /tmp/ccJvwpHF.s 			page 29


 450:Drivers/lvgl/lvgl/src/core/lv_obj_style_gen.h **** 
 451:Drivers/lvgl/lvgl/src/core/lv_obj_style_gen.h **** static inline lv_color_t lv_obj_get_style_text_color_filtered(const struct _lv_obj_t * obj, uint32_
 452:Drivers/lvgl/lvgl/src/core/lv_obj_style_gen.h **** {
 453:Drivers/lvgl/lvgl/src/core/lv_obj_style_gen.h ****     lv_style_value_t v = _lv_obj_style_apply_color_filter(obj, part, lv_obj_get_style_prop(obj, par
 454:Drivers/lvgl/lvgl/src/core/lv_obj_style_gen.h ****     return v.color;
 455:Drivers/lvgl/lvgl/src/core/lv_obj_style_gen.h **** }
 456:Drivers/lvgl/lvgl/src/core/lv_obj_style_gen.h **** 
 457:Drivers/lvgl/lvgl/src/core/lv_obj_style_gen.h **** static inline lv_opa_t lv_obj_get_style_text_opa(const struct _lv_obj_t * obj, uint32_t part)
 458:Drivers/lvgl/lvgl/src/core/lv_obj_style_gen.h **** {
 459:Drivers/lvgl/lvgl/src/core/lv_obj_style_gen.h ****     lv_style_value_t v = lv_obj_get_style_prop(obj, part, LV_STYLE_TEXT_OPA);
 460:Drivers/lvgl/lvgl/src/core/lv_obj_style_gen.h ****     return (lv_opa_t)v.num;
 461:Drivers/lvgl/lvgl/src/core/lv_obj_style_gen.h **** }
 462:Drivers/lvgl/lvgl/src/core/lv_obj_style_gen.h **** 
 463:Drivers/lvgl/lvgl/src/core/lv_obj_style_gen.h **** static inline const lv_font_t * lv_obj_get_style_text_font(const struct _lv_obj_t * obj, uint32_t p
 464:Drivers/lvgl/lvgl/src/core/lv_obj_style_gen.h **** {
 465:Drivers/lvgl/lvgl/src/core/lv_obj_style_gen.h ****     lv_style_value_t v = lv_obj_get_style_prop(obj, part, LV_STYLE_TEXT_FONT);
 466:Drivers/lvgl/lvgl/src/core/lv_obj_style_gen.h ****     return (const lv_font_t *)v.ptr;
 467:Drivers/lvgl/lvgl/src/core/lv_obj_style_gen.h **** }
 468:Drivers/lvgl/lvgl/src/core/lv_obj_style_gen.h **** 
 469:Drivers/lvgl/lvgl/src/core/lv_obj_style_gen.h **** static inline lv_coord_t lv_obj_get_style_text_letter_space(const struct _lv_obj_t * obj, uint32_t 
 470:Drivers/lvgl/lvgl/src/core/lv_obj_style_gen.h **** {
 471:Drivers/lvgl/lvgl/src/core/lv_obj_style_gen.h ****     lv_style_value_t v = lv_obj_get_style_prop(obj, part, LV_STYLE_TEXT_LETTER_SPACE);
 472:Drivers/lvgl/lvgl/src/core/lv_obj_style_gen.h ****     return (lv_coord_t)v.num;
 473:Drivers/lvgl/lvgl/src/core/lv_obj_style_gen.h **** }
 474:Drivers/lvgl/lvgl/src/core/lv_obj_style_gen.h **** 
 475:Drivers/lvgl/lvgl/src/core/lv_obj_style_gen.h **** static inline lv_coord_t lv_obj_get_style_text_line_space(const struct _lv_obj_t * obj, uint32_t pa
 476:Drivers/lvgl/lvgl/src/core/lv_obj_style_gen.h **** {
 477:Drivers/lvgl/lvgl/src/core/lv_obj_style_gen.h ****     lv_style_value_t v = lv_obj_get_style_prop(obj, part, LV_STYLE_TEXT_LINE_SPACE);
 478:Drivers/lvgl/lvgl/src/core/lv_obj_style_gen.h ****     return (lv_coord_t)v.num;
 479:Drivers/lvgl/lvgl/src/core/lv_obj_style_gen.h **** }
 480:Drivers/lvgl/lvgl/src/core/lv_obj_style_gen.h **** 
 481:Drivers/lvgl/lvgl/src/core/lv_obj_style_gen.h **** static inline lv_text_decor_t lv_obj_get_style_text_decor(const struct _lv_obj_t * obj, uint32_t pa
 482:Drivers/lvgl/lvgl/src/core/lv_obj_style_gen.h **** {
 483:Drivers/lvgl/lvgl/src/core/lv_obj_style_gen.h ****     lv_style_value_t v = lv_obj_get_style_prop(obj, part, LV_STYLE_TEXT_DECOR);
 484:Drivers/lvgl/lvgl/src/core/lv_obj_style_gen.h ****     return (lv_text_decor_t)v.num;
 485:Drivers/lvgl/lvgl/src/core/lv_obj_style_gen.h **** }
 486:Drivers/lvgl/lvgl/src/core/lv_obj_style_gen.h **** 
 487:Drivers/lvgl/lvgl/src/core/lv_obj_style_gen.h **** static inline lv_text_align_t lv_obj_get_style_text_align(const struct _lv_obj_t * obj, uint32_t pa
 488:Drivers/lvgl/lvgl/src/core/lv_obj_style_gen.h **** {
 489:Drivers/lvgl/lvgl/src/core/lv_obj_style_gen.h ****     lv_style_value_t v = lv_obj_get_style_prop(obj, part, LV_STYLE_TEXT_ALIGN);
 490:Drivers/lvgl/lvgl/src/core/lv_obj_style_gen.h ****     return (lv_text_align_t)v.num;
 491:Drivers/lvgl/lvgl/src/core/lv_obj_style_gen.h **** }
 492:Drivers/lvgl/lvgl/src/core/lv_obj_style_gen.h **** 
 493:Drivers/lvgl/lvgl/src/core/lv_obj_style_gen.h **** static inline lv_coord_t lv_obj_get_style_radius(const struct _lv_obj_t * obj, uint32_t part)
 494:Drivers/lvgl/lvgl/src/core/lv_obj_style_gen.h **** {
 495:Drivers/lvgl/lvgl/src/core/lv_obj_style_gen.h ****     lv_style_value_t v = lv_obj_get_style_prop(obj, part, LV_STYLE_RADIUS);
 496:Drivers/lvgl/lvgl/src/core/lv_obj_style_gen.h ****     return (lv_coord_t)v.num;
 497:Drivers/lvgl/lvgl/src/core/lv_obj_style_gen.h **** }
 498:Drivers/lvgl/lvgl/src/core/lv_obj_style_gen.h **** 
 499:Drivers/lvgl/lvgl/src/core/lv_obj_style_gen.h **** static inline bool lv_obj_get_style_clip_corner(const struct _lv_obj_t * obj, uint32_t part)
 500:Drivers/lvgl/lvgl/src/core/lv_obj_style_gen.h **** {
 501:Drivers/lvgl/lvgl/src/core/lv_obj_style_gen.h ****     lv_style_value_t v = lv_obj_get_style_prop(obj, part, LV_STYLE_CLIP_CORNER);
 502:Drivers/lvgl/lvgl/src/core/lv_obj_style_gen.h ****     return (bool)v.num;
 503:Drivers/lvgl/lvgl/src/core/lv_obj_style_gen.h **** }
 504:Drivers/lvgl/lvgl/src/core/lv_obj_style_gen.h **** 
 505:Drivers/lvgl/lvgl/src/core/lv_obj_style_gen.h **** static inline lv_opa_t lv_obj_get_style_opa(const struct _lv_obj_t * obj, uint32_t part)
 506:Drivers/lvgl/lvgl/src/core/lv_obj_style_gen.h **** {
ARM GAS  /tmp/ccJvwpHF.s 			page 30


 507:Drivers/lvgl/lvgl/src/core/lv_obj_style_gen.h ****     lv_style_value_t v = lv_obj_get_style_prop(obj, part, LV_STYLE_OPA);
 192              		.loc 2 507 0
 193 004c 6022     		movs	r2, #96
 194 004e 4FF48031 		mov	r1, #65536
 195 0052 2846     		mov	r0, r5
 196 0054 FFF7FEFF 		bl	lv_obj_get_style_prop
 197              	.LVL22:
 508:Drivers/lvgl/lvgl/src/core/lv_obj_style_gen.h ****     return (lv_opa_t)v.num;
 198              		.loc 2 508 0
 199 0058 C3B2     		uxtb	r3, r0
 200              	.LVL23:
 201              	.LBE104:
 202              	.LBE103:
 682:Drivers/lvgl/lvgl/src/core/lv_obj.c ****         dsc->bg_opa = (dsc->bg_opa * opa) >> 8;
 203              		.loc 1 682 0
 204 005a FC2B     		cmp	r3, #252
 205 005c 0CD8     		bhi	.L16
 683:Drivers/lvgl/lvgl/src/core/lv_obj.c ****         dsc->border_opa = (dsc->bg_opa * opa) >> 8;
 206              		.loc 1 683 0
 207 005e E378     		ldrb	r3, [r4, #3]	@ zero_extendqisi2
 208 0060 C0B2     		uxtb	r0, r0
 209 0062 00FB03F3 		mul	r3, r0, r3
 210 0066 1B0A     		lsrs	r3, r3, #8
 211 0068 E370     		strb	r3, [r4, #3]
 684:Drivers/lvgl/lvgl/src/core/lv_obj.c ****         dsc->shadow_opa = (dsc->bg_opa * opa) >> 8;
 212              		.loc 1 684 0
 213 006a 00FB03F0 		mul	r0, r0, r3
 214 006e 000A     		lsrs	r0, r0, #8
 215 0070 84F82200 		strb	r0, [r4, #34]
 685:Drivers/lvgl/lvgl/src/core/lv_obj.c ****     }
 216              		.loc 1 685 0
 217 0074 84F83600 		strb	r0, [r4, #54]
 218              	.L16:
 688:Drivers/lvgl/lvgl/src/core/lv_obj.c ****         dsc->radius = lv_obj_get_style_radius(obj, LV_PART_SCROLLBAR);
 219              		.loc 1 688 0
 220 0078 E378     		ldrb	r3, [r4, #3]	@ zero_extendqisi2
 221 007a 33B9     		cbnz	r3, .L17
 688:Drivers/lvgl/lvgl/src/core/lv_obj.c ****         dsc->radius = lv_obj_get_style_radius(obj, LV_PART_SCROLLBAR);
 222              		.loc 1 688 0 is_stmt 0 discriminator 1
 223 007c 94F82230 		ldrb	r3, [r4, #34]	@ zero_extendqisi2
 224 0080 1BB9     		cbnz	r3, .L17
 688:Drivers/lvgl/lvgl/src/core/lv_obj.c ****         dsc->radius = lv_obj_get_style_radius(obj, LV_PART_SCROLLBAR);
 225              		.loc 1 688 0 discriminator 2
 226 0082 94F83630 		ldrb	r3, [r4, #54]	@ zero_extendqisi2
 227 0086 002B     		cmp	r3, #0
 228 0088 43D0     		beq	.L19
 229              	.L17:
 230              	.LVL24:
 231              	.LBB105:
 232              	.LBB106:
 495:Drivers/lvgl/lvgl/src/core/lv_obj_style_gen.h ****     return (lv_coord_t)v.num;
 233              		.loc 2 495 0 is_stmt 1
 234 008a 0B22     		movs	r2, #11
 235 008c 4FF48031 		mov	r1, #65536
 236 0090 2846     		mov	r0, r5
 237 0092 FFF7FEFF 		bl	lv_obj_get_style_prop
 238              	.LVL25:
ARM GAS  /tmp/ccJvwpHF.s 			page 31


 239              	.LBE106:
 240              	.LBE105:
 689:Drivers/lvgl/lvgl/src/core/lv_obj.c ****         return LV_RES_OK;
 241              		.loc 1 689 0
 242 0096 2080     		strh	r0, [r4]	@ movhi
 690:Drivers/lvgl/lvgl/src/core/lv_obj.c ****     }
 243              		.loc 1 690 0
 244 0098 0120     		movs	r0, #1
 245              	.L18:
 699:Drivers/lvgl/lvgl/src/core/lv_obj.c **** 
 246              		.loc 1 699 0
 247 009a 38BD     		pop	{r3, r4, r5, pc}
 248              	.LVL26:
 249              	.L21:
 250              	.LBB107:
 251              	.LBB108:
 141:Drivers/lvgl/lvgl/src/core/lv_obj_style_gen.h ****     return v.color;
 252              		.loc 2 141 0
 253 009c 2022     		movs	r2, #32
 254 009e 4FF48031 		mov	r1, #65536
 255 00a2 2846     		mov	r0, r5
 256 00a4 FFF7FEFF 		bl	lv_obj_get_style_prop
 257              	.LVL27:
 258              	.LBE108:
 259              	.LBE107:
 654:Drivers/lvgl/lvgl/src/core/lv_obj.c ****     }
 260              		.loc 1 654 0
 261 00a8 A080     		strh	r0, [r4, #4]	@ movhi
 262 00aa B9E7     		b	.L11
 263              	.L22:
 264              	.LVL28:
 265              	.LBB109:
 266              	.LBB110:
 255:Drivers/lvgl/lvgl/src/core/lv_obj_style_gen.h ****     return (lv_coord_t)v.num;
 267              		.loc 2 255 0
 268 00ac 3222     		movs	r2, #50
 269 00ae 4FF48031 		mov	r1, #65536
 270 00b2 2846     		mov	r0, r5
 271 00b4 FFF7FEFF 		bl	lv_obj_get_style_prop
 272              	.LVL29:
 256:Drivers/lvgl/lvgl/src/core/lv_obj_style_gen.h **** }
 273              		.loc 2 256 0
 274 00b8 00B2     		sxth	r0, r0
 275              	.LVL30:
 276              	.LBE110:
 277              	.LBE109:
 659:Drivers/lvgl/lvgl/src/core/lv_obj.c ****         if(dsc->border_width > 0) {
 278              		.loc 1 659 0
 279 00ba 2084     		strh	r0, [r4, #32]	@ movhi
 660:Drivers/lvgl/lvgl/src/core/lv_obj.c ****             dsc->border_color = lv_obj_get_style_border_color(obj, LV_PART_SCROLLBAR);
 280              		.loc 1 660 0
 281 00bc 0028     		cmp	r0, #0
 282 00be 03DC     		bgt	.L24
 664:Drivers/lvgl/lvgl/src/core/lv_obj.c ****         }
 283              		.loc 1 664 0
 284 00c0 0023     		movs	r3, #0
 285 00c2 84F82230 		strb	r3, [r4, #34]
ARM GAS  /tmp/ccJvwpHF.s 			page 32


 286 00c6 B6E7     		b	.L12
 287              	.L24:
 288              	.LVL31:
 289              	.LBB111:
 290              	.LBB112:
 237:Drivers/lvgl/lvgl/src/core/lv_obj_style_gen.h ****     return v.color;
 291              		.loc 2 237 0
 292 00c8 3022     		movs	r2, #48
 293 00ca 4FF48031 		mov	r1, #65536
 294 00ce 2846     		mov	r0, r5
 295 00d0 FFF7FEFF 		bl	lv_obj_get_style_prop
 296              	.LVL32:
 297              	.LBE112:
 298              	.LBE111:
 661:Drivers/lvgl/lvgl/src/core/lv_obj.c ****         }
 299              		.loc 1 661 0
 300 00d4 E083     		strh	r0, [r4, #30]	@ movhi
 301 00d6 AEE7     		b	.L12
 302              	.L23:
 303              	.LVL33:
 304              	.LBB113:
 305              	.LBB114:
 303:Drivers/lvgl/lvgl/src/core/lv_obj_style_gen.h ****     return (lv_coord_t)v.num;
 306              		.loc 2 303 0
 307 00d8 4022     		movs	r2, #64
 308 00da 4FF48031 		mov	r1, #65536
 309 00de 2846     		mov	r0, r5
 310 00e0 FFF7FEFF 		bl	lv_obj_get_style_prop
 311              	.LVL34:
 304:Drivers/lvgl/lvgl/src/core/lv_obj_style_gen.h **** }
 312              		.loc 2 304 0
 313 00e4 00B2     		sxth	r0, r0
 314              	.LVL35:
 315              	.LBE114:
 316              	.LBE113:
 671:Drivers/lvgl/lvgl/src/core/lv_obj.c ****         if(dsc->shadow_width > 0) {
 317              		.loc 1 671 0
 318 00e6 E085     		strh	r0, [r4, #46]	@ movhi
 672:Drivers/lvgl/lvgl/src/core/lv_obj.c ****             dsc->shadow_spread = lv_obj_get_style_shadow_spread(obj, LV_PART_SCROLLBAR);
 319              		.loc 1 672 0
 320 00e8 0028     		cmp	r0, #0
 321 00ea 03DC     		bgt	.L25
 677:Drivers/lvgl/lvgl/src/core/lv_obj.c ****         }
 322              		.loc 1 677 0
 323 00ec 0023     		movs	r3, #0
 324 00ee 84F83630 		strb	r3, [r4, #54]
 325 00f2 ABE7     		b	.L14
 326              	.L25:
 327              	.LVL36:
 328              	.LBB115:
 329              	.LBB116:
 321:Drivers/lvgl/lvgl/src/core/lv_obj_style_gen.h ****     return (lv_coord_t)v.num;
 330              		.loc 2 321 0
 331 00f4 4322     		movs	r2, #67
 332 00f6 4FF48031 		mov	r1, #65536
 333 00fa 2846     		mov	r0, r5
 334 00fc FFF7FEFF 		bl	lv_obj_get_style_prop
ARM GAS  /tmp/ccJvwpHF.s 			page 33


 335              	.LVL37:
 336              	.LBE116:
 337              	.LBE115:
 673:Drivers/lvgl/lvgl/src/core/lv_obj.c ****             dsc->shadow_color = lv_obj_get_style_shadow_color(obj, LV_PART_SCROLLBAR);
 338              		.loc 1 673 0
 339 0100 A086     		strh	r0, [r4, #52]	@ movhi
 340              	.LVL38:
 341              	.LBB117:
 342              	.LBB118:
 327:Drivers/lvgl/lvgl/src/core/lv_obj_style_gen.h ****     return v.color;
 343              		.loc 2 327 0
 344 0102 4422     		movs	r2, #68
 345 0104 4FF48031 		mov	r1, #65536
 346 0108 2846     		mov	r0, r5
 347 010a FFF7FEFF 		bl	lv_obj_get_style_prop
 348              	.LVL39:
 349              	.LBE118:
 350              	.LBE117:
 674:Drivers/lvgl/lvgl/src/core/lv_obj.c ****         }
 351              		.loc 1 674 0
 352 010e A085     		strh	r0, [r4, #44]	@ movhi
 353 0110 9CE7     		b	.L14
 354              	.L19:
 693:Drivers/lvgl/lvgl/src/core/lv_obj.c ****     }
 355              		.loc 1 693 0
 356 0112 0020     		movs	r0, #0
 357 0114 C1E7     		b	.L18
 358              		.cfi_endproc
 359              	.LFE224:
 361              		.section	.text.draw_scrollbar,"ax",%progbits
 362              		.align	1
 363              		.syntax unified
 364              		.thumb
 365              		.thumb_func
 366              		.fpu fpv5-d16
 368              	draw_scrollbar:
 369              	.LFB223:
 609:Drivers/lvgl/lvgl/src/core/lv_obj.c **** 
 370              		.loc 1 609 0
 371              		.cfi_startproc
 372              		@ args = 0, pretend = 0, frame = 144
 373              		@ frame_needed = 0, uses_anonymous_args = 0
 374              	.LVL40:
 375 0000 70B5     		push	{r4, r5, r6, lr}
 376              	.LCFI2:
 377              		.cfi_def_cfa_offset 16
 378              		.cfi_offset 4, -16
 379              		.cfi_offset 5, -12
 380              		.cfi_offset 6, -8
 381              		.cfi_offset 14, -4
 382 0002 A4B0     		sub	sp, sp, #144
 383              	.LCFI3:
 384              		.cfi_def_cfa_offset 160
 385 0004 0446     		mov	r4, r0
 386 0006 0D46     		mov	r5, r1
 613:Drivers/lvgl/lvgl/src/core/lv_obj.c **** 
 387              		.loc 1 613 0
ARM GAS  /tmp/ccJvwpHF.s 			page 34


 388 0008 20AA     		add	r2, sp, #128
 389 000a 22A9     		add	r1, sp, #136
 390              	.LVL41:
 391 000c FFF7FEFF 		bl	lv_obj_get_scrollbar_area
 392              	.LVL42:
 615:Drivers/lvgl/lvgl/src/core/lv_obj.c **** 
 393              		.loc 1 615 0
 394 0010 22A8     		add	r0, sp, #136
 395 0012 FFF7FEFF 		bl	lv_area_get_size
 396              	.LVL43:
 397 0016 18B9     		cbnz	r0, .L27
 615:Drivers/lvgl/lvgl/src/core/lv_obj.c **** 
 398              		.loc 1 615 0 is_stmt 0 discriminator 1
 399 0018 20A8     		add	r0, sp, #128
 400 001a FFF7FEFF 		bl	lv_area_get_size
 401              	.LVL44:
 402 001e 28B1     		cbz	r0, .L26
 403              	.L27:
 618:Drivers/lvgl/lvgl/src/core/lv_obj.c ****     if(sb_res != LV_RES_OK) return;
 404              		.loc 1 618 0 is_stmt 1
 405 0020 12A9     		add	r1, sp, #72
 406 0022 2046     		mov	r0, r4
 407 0024 FFF7FEFF 		bl	scrollbar_init_draw_dsc
 408              	.LVL45:
 619:Drivers/lvgl/lvgl/src/core/lv_obj.c **** 
 409              		.loc 1 619 0
 410 0028 0128     		cmp	r0, #1
 411 002a 01D0     		beq	.L33
 412              	.LVL46:
 413              	.L26:
 641:Drivers/lvgl/lvgl/src/core/lv_obj.c **** 
 414              		.loc 1 641 0
 415 002c 24B0     		add	sp, sp, #144
 416              	.LCFI4:
 417              		.cfi_remember_state
 418              		.cfi_def_cfa_offset 16
 419              		@ sp needed
 420 002e 70BD     		pop	{r4, r5, r6, pc}
 421              	.LVL47:
 422              	.L33:
 423              	.LCFI5:
 424              		.cfi_restore_state
 622:Drivers/lvgl/lvgl/src/core/lv_obj.c ****     part_dsc.class_p = MY_CLASS;
 425              		.loc 1 622 0
 426 0030 2946     		mov	r1, r5
 427 0032 6846     		mov	r0, sp
 428              	.LVL48:
 429 0034 FFF7FEFF 		bl	lv_obj_draw_dsc_init
 430              	.LVL49:
 623:Drivers/lvgl/lvgl/src/core/lv_obj.c ****     part_dsc.type = LV_OBJ_DRAW_PART_SCROLLBAR;
 431              		.loc 1 623 0
 432 0038 1B4B     		ldr	r3, .L35
 433 003a 0193     		str	r3, [sp, #4]
 624:Drivers/lvgl/lvgl/src/core/lv_obj.c ****     part_dsc.rect_dsc = &draw_dsc;
 434              		.loc 1 624 0
 435 003c 0223     		movs	r3, #2
 436 003e 0293     		str	r3, [sp, #8]
ARM GAS  /tmp/ccJvwpHF.s 			page 35


 625:Drivers/lvgl/lvgl/src/core/lv_obj.c ****     part_dsc.part = LV_PART_SCROLLBAR;
 437              		.loc 1 625 0
 438 0040 12AB     		add	r3, sp, #72
 439 0042 0493     		str	r3, [sp, #16]
 626:Drivers/lvgl/lvgl/src/core/lv_obj.c **** 
 440              		.loc 1 626 0
 441 0044 4FF48033 		mov	r3, #65536
 442 0048 0D93     		str	r3, [sp, #52]
 628:Drivers/lvgl/lvgl/src/core/lv_obj.c ****         part_dsc.draw_area = &hor_area;
 443              		.loc 1 628 0
 444 004a 22A8     		add	r0, sp, #136
 445 004c FFF7FEFF 		bl	lv_area_get_size
 446              	.LVL50:
 447 0050 B8B9     		cbnz	r0, .L34
 448              	.L29:
 634:Drivers/lvgl/lvgl/src/core/lv_obj.c ****         part_dsc.draw_area = &ver_area;
 449              		.loc 1 634 0
 450 0052 20A8     		add	r0, sp, #128
 451 0054 FFF7FEFF 		bl	lv_area_get_size
 452              	.LVL51:
 453 0058 0028     		cmp	r0, #0
 454 005a E7D0     		beq	.L26
 635:Drivers/lvgl/lvgl/src/core/lv_obj.c ****         lv_event_send(obj, LV_EVENT_DRAW_PART_BEGIN, &part_dsc);
 455              		.loc 1 635 0
 456 005c 20AE     		add	r6, sp, #128
 457 005e 0396     		str	r6, [sp, #12]
 636:Drivers/lvgl/lvgl/src/core/lv_obj.c ****         part_dsc.draw_area = &ver_area;
 458              		.loc 1 636 0
 459 0060 6A46     		mov	r2, sp
 460 0062 1A21     		movs	r1, #26
 461 0064 2046     		mov	r0, r4
 462 0066 FFF7FEFF 		bl	lv_event_send
 463              	.LVL52:
 637:Drivers/lvgl/lvgl/src/core/lv_obj.c ****         lv_draw_rect(draw_ctx, &draw_dsc, &ver_area);
 464              		.loc 1 637 0
 465 006a 0396     		str	r6, [sp, #12]
 638:Drivers/lvgl/lvgl/src/core/lv_obj.c ****         lv_event_send(obj, LV_EVENT_DRAW_PART_END, &part_dsc);
 466              		.loc 1 638 0
 467 006c 3246     		mov	r2, r6
 468 006e 12A9     		add	r1, sp, #72
 469 0070 2846     		mov	r0, r5
 470 0072 FFF7FEFF 		bl	lv_draw_rect
 471              	.LVL53:
 639:Drivers/lvgl/lvgl/src/core/lv_obj.c ****     }
 472              		.loc 1 639 0
 473 0076 6A46     		mov	r2, sp
 474 0078 1B21     		movs	r1, #27
 475 007a 2046     		mov	r0, r4
 476 007c FFF7FEFF 		bl	lv_event_send
 477              	.LVL54:
 478 0080 D4E7     		b	.L26
 479              	.L34:
 629:Drivers/lvgl/lvgl/src/core/lv_obj.c ****         lv_event_send(obj, LV_EVENT_DRAW_PART_BEGIN, &part_dsc);
 480              		.loc 1 629 0
 481 0082 22AE     		add	r6, sp, #136
 482 0084 0396     		str	r6, [sp, #12]
 630:Drivers/lvgl/lvgl/src/core/lv_obj.c ****         lv_draw_rect(draw_ctx, &draw_dsc, &hor_area);
ARM GAS  /tmp/ccJvwpHF.s 			page 36


 483              		.loc 1 630 0
 484 0086 6A46     		mov	r2, sp
 485 0088 1A21     		movs	r1, #26
 486 008a 2046     		mov	r0, r4
 487 008c FFF7FEFF 		bl	lv_event_send
 488              	.LVL55:
 631:Drivers/lvgl/lvgl/src/core/lv_obj.c ****         lv_event_send(obj, LV_EVENT_DRAW_PART_END, &part_dsc);
 489              		.loc 1 631 0
 490 0090 3246     		mov	r2, r6
 491 0092 12A9     		add	r1, sp, #72
 492 0094 2846     		mov	r0, r5
 493 0096 FFF7FEFF 		bl	lv_draw_rect
 494              	.LVL56:
 632:Drivers/lvgl/lvgl/src/core/lv_obj.c ****     }
 495              		.loc 1 632 0
 496 009a 6A46     		mov	r2, sp
 497 009c 1B21     		movs	r1, #27
 498 009e 2046     		mov	r0, r4
 499 00a0 FFF7FEFF 		bl	lv_event_send
 500              	.LVL57:
 501 00a4 D5E7     		b	.L29
 502              	.L36:
 503 00a6 00BF     		.align	2
 504              	.L35:
 505 00a8 00000000 		.word	.LANCHOR0
 506              		.cfi_endproc
 507              	.LFE223:
 509              		.section	.text.lv_obj_draw,"ax",%progbits
 510              		.align	1
 511              		.syntax unified
 512              		.thumb
 513              		.thumb_func
 514              		.fpu fpv5-d16
 516              	lv_obj_draw:
 517              	.LFB222:
 465:Drivers/lvgl/lvgl/src/core/lv_obj.c ****     lv_event_code_t code = lv_event_get_code(e);
 518              		.loc 1 465 0
 519              		.cfi_startproc
 520              		@ args = 0, pretend = 0, frame = 136
 521              		@ frame_needed = 0, uses_anonymous_args = 0
 522              	.LVL58:
 523 0000 2DE9F041 		push	{r4, r5, r6, r7, r8, lr}
 524              	.LCFI6:
 525              		.cfi_def_cfa_offset 24
 526              		.cfi_offset 4, -24
 527              		.cfi_offset 5, -20
 528              		.cfi_offset 6, -16
 529              		.cfi_offset 7, -12
 530              		.cfi_offset 8, -8
 531              		.cfi_offset 14, -4
 532 0004 A2B0     		sub	sp, sp, #136
 533              	.LCFI7:
 534              		.cfi_def_cfa_offset 160
 535 0006 0646     		mov	r6, r0
 466:Drivers/lvgl/lvgl/src/core/lv_obj.c ****     lv_obj_t * obj = lv_event_get_target(e);
 536              		.loc 1 466 0
 537 0008 FFF7FEFF 		bl	lv_event_get_code
ARM GAS  /tmp/ccJvwpHF.s 			page 37


 538              	.LVL59:
 539 000c 0546     		mov	r5, r0
 540              	.LVL60:
 467:Drivers/lvgl/lvgl/src/core/lv_obj.c ****     if(code == LV_EVENT_COVER_CHECK) {
 541              		.loc 1 467 0
 542 000e 3046     		mov	r0, r6
 543 0010 FFF7FEFF 		bl	lv_event_get_target
 544              	.LVL61:
 545 0014 0446     		mov	r4, r0
 546              	.LVL62:
 468:Drivers/lvgl/lvgl/src/core/lv_obj.c ****         lv_cover_check_info_t * info = lv_event_get_param(e);
 547              		.loc 1 468 0
 548 0016 122D     		cmp	r5, #18
 549 0018 07D0     		beq	.L53
 500:Drivers/lvgl/lvgl/src/core/lv_obj.c ****         lv_draw_ctx_t * draw_ctx = lv_event_get_draw_ctx(e);
 550              		.loc 1 500 0
 551 001a 152D     		cmp	r5, #21
 552 001c 53D0     		beq	.L54
 560:Drivers/lvgl/lvgl/src/core/lv_obj.c ****         lv_draw_ctx_t * draw_ctx = lv_event_get_draw_ctx(e);
 553              		.loc 1 560 0
 554 001e 182D     		cmp	r5, #24
 555 0020 00F0DD80 		beq	.L55
 556              	.LVL63:
 557              	.L37:
 606:Drivers/lvgl/lvgl/src/core/lv_obj.c **** 
 558              		.loc 1 606 0
 559 0024 22B0     		add	sp, sp, #136
 560              	.LCFI8:
 561              		.cfi_remember_state
 562              		.cfi_def_cfa_offset 24
 563              		@ sp needed
 564 0026 BDE8F081 		pop	{r4, r5, r6, r7, r8, pc}
 565              	.LVL64:
 566              	.L53:
 567              	.LCFI9:
 568              		.cfi_restore_state
 569              	.LBB119:
 469:Drivers/lvgl/lvgl/src/core/lv_obj.c ****         if(info->res == LV_COVER_RES_MASKED) return;
 570              		.loc 1 469 0
 571 002a 3046     		mov	r0, r6
 572              	.LVL65:
 573 002c FFF7FEFF 		bl	lv_event_get_param
 574              	.LVL66:
 575 0030 0546     		mov	r5, r0
 576              	.LVL67:
 470:Drivers/lvgl/lvgl/src/core/lv_obj.c ****         if(lv_obj_get_style_clip_corner(obj, LV_PART_MAIN)) {
 577              		.loc 1 470 0
 578 0032 0378     		ldrb	r3, [r0]	@ zero_extendqisi2
 579 0034 022B     		cmp	r3, #2
 580 0036 F5D0     		beq	.L37
 581              	.LVL68:
 582              	.LBB120:
 583              	.LBB121:
 501:Drivers/lvgl/lvgl/src/core/lv_obj_style_gen.h ****     return (bool)v.num;
 584              		.loc 2 501 0
 585 0038 1722     		movs	r2, #23
 586 003a 0021     		movs	r1, #0
ARM GAS  /tmp/ccJvwpHF.s 			page 38


 587 003c 2046     		mov	r0, r4
 588              	.LVL69:
 589 003e FFF7FEFF 		bl	lv_obj_get_style_prop
 590              	.LVL70:
 591              	.LBE121:
 592              	.LBE120:
 471:Drivers/lvgl/lvgl/src/core/lv_obj.c ****             info->res = LV_COVER_RES_MASKED;
 593              		.loc 1 471 0
 594 0042 10B1     		cbz	r0, .L40
 472:Drivers/lvgl/lvgl/src/core/lv_obj.c ****             return;
 595              		.loc 1 472 0
 596 0044 0223     		movs	r3, #2
 597 0046 2B70     		strb	r3, [r5]
 473:Drivers/lvgl/lvgl/src/core/lv_obj.c ****         }
 598              		.loc 1 473 0
 599 0048 ECE7     		b	.L37
 600              	.L40:
 601              	.LVL71:
 602              	.LBB122:
 603              	.LBB123:
 495:Drivers/lvgl/lvgl/src/core/lv_obj_style_gen.h ****     return (lv_coord_t)v.num;
 604              		.loc 2 495 0
 605 004a 0B22     		movs	r2, #11
 606 004c 0021     		movs	r1, #0
 607 004e 2046     		mov	r0, r4
 608 0050 FFF7FEFF 		bl	lv_obj_get_style_prop
 609              	.LVL72:
 496:Drivers/lvgl/lvgl/src/core/lv_obj_style_gen.h **** }
 610              		.loc 2 496 0
 611 0054 07B2     		sxth	r7, r0
 612              	.LVL73:
 613              	.LBE123:
 614              	.LBE122:
 615              	.LBB124:
 616              	.LBB125:
  57:Drivers/lvgl/lvgl/src/core/lv_obj_style_gen.h ****     return (lv_coord_t)v.num;
 617              		.loc 2 57 0
 618 0056 6822     		movs	r2, #104
 619 0058 0021     		movs	r1, #0
 620 005a 2046     		mov	r0, r4
 621 005c FFF7FEFF 		bl	lv_obj_get_style_prop
 622              	.LVL74:
 623 0060 0646     		mov	r6, r0
 624              	.LVL75:
 625              	.LBE125:
 626              	.LBE124:
 627              	.LBB126:
 628              	.LBB127:
  63:Drivers/lvgl/lvgl/src/core/lv_obj_style_gen.h ****     return (lv_coord_t)v.num;
 629              		.loc 2 63 0
 630 0062 6922     		movs	r2, #105
 631 0064 0021     		movs	r1, #0
 632 0066 2046     		mov	r0, r4
 633 0068 FFF7FEFF 		bl	lv_obj_get_style_prop
 634              	.LVL76:
 635              	.LBE127:
 636              	.LBE126:
ARM GAS  /tmp/ccJvwpHF.s 			page 39


 637              	.LBB128:
 638              	.LBB129:
 639              		.file 3 "Drivers/lvgl/lvgl/src/core/../misc/../font/../misc/lv_area.h"
   1:Drivers/lvgl/lvgl/src/core/../misc/../font/../misc/lv_area.h **** /**
   2:Drivers/lvgl/lvgl/src/core/../misc/../font/../misc/lv_area.h ****  * @file lv_area.h
   3:Drivers/lvgl/lvgl/src/core/../misc/../font/../misc/lv_area.h ****  *
   4:Drivers/lvgl/lvgl/src/core/../misc/../font/../misc/lv_area.h ****  */
   5:Drivers/lvgl/lvgl/src/core/../misc/../font/../misc/lv_area.h **** 
   6:Drivers/lvgl/lvgl/src/core/../misc/../font/../misc/lv_area.h **** #ifndef LV_AREA_H
   7:Drivers/lvgl/lvgl/src/core/../misc/../font/../misc/lv_area.h **** #define LV_AREA_H
   8:Drivers/lvgl/lvgl/src/core/../misc/../font/../misc/lv_area.h **** 
   9:Drivers/lvgl/lvgl/src/core/../misc/../font/../misc/lv_area.h **** #ifdef __cplusplus
  10:Drivers/lvgl/lvgl/src/core/../misc/../font/../misc/lv_area.h **** extern "C" {
  11:Drivers/lvgl/lvgl/src/core/../misc/../font/../misc/lv_area.h **** #endif
  12:Drivers/lvgl/lvgl/src/core/../misc/../font/../misc/lv_area.h **** 
  13:Drivers/lvgl/lvgl/src/core/../misc/../font/../misc/lv_area.h **** /*********************
  14:Drivers/lvgl/lvgl/src/core/../misc/../font/../misc/lv_area.h ****  *      INCLUDES
  15:Drivers/lvgl/lvgl/src/core/../misc/../font/../misc/lv_area.h ****  *********************/
  16:Drivers/lvgl/lvgl/src/core/../misc/../font/../misc/lv_area.h **** #include "../lv_conf_internal.h"
  17:Drivers/lvgl/lvgl/src/core/../misc/../font/../misc/lv_area.h **** #include <stdbool.h>
  18:Drivers/lvgl/lvgl/src/core/../misc/../font/../misc/lv_area.h **** #include <stdint.h>
  19:Drivers/lvgl/lvgl/src/core/../misc/../font/../misc/lv_area.h **** 
  20:Drivers/lvgl/lvgl/src/core/../misc/../font/../misc/lv_area.h **** /*********************
  21:Drivers/lvgl/lvgl/src/core/../misc/../font/../misc/lv_area.h ****  *      DEFINES
  22:Drivers/lvgl/lvgl/src/core/../misc/../font/../misc/lv_area.h ****  *********************/
  23:Drivers/lvgl/lvgl/src/core/../misc/../font/../misc/lv_area.h **** 
  24:Drivers/lvgl/lvgl/src/core/../misc/../font/../misc/lv_area.h **** #if LV_USE_LARGE_COORD
  25:Drivers/lvgl/lvgl/src/core/../misc/../font/../misc/lv_area.h **** typedef int32_t lv_coord_t;
  26:Drivers/lvgl/lvgl/src/core/../misc/../font/../misc/lv_area.h **** #else
  27:Drivers/lvgl/lvgl/src/core/../misc/../font/../misc/lv_area.h **** typedef int16_t lv_coord_t;
  28:Drivers/lvgl/lvgl/src/core/../misc/../font/../misc/lv_area.h **** #endif
  29:Drivers/lvgl/lvgl/src/core/../misc/../font/../misc/lv_area.h **** 
  30:Drivers/lvgl/lvgl/src/core/../misc/../font/../misc/lv_area.h **** /**********************
  31:Drivers/lvgl/lvgl/src/core/../misc/../font/../misc/lv_area.h ****  *      TYPEDEFS
  32:Drivers/lvgl/lvgl/src/core/../misc/../font/../misc/lv_area.h ****  **********************/
  33:Drivers/lvgl/lvgl/src/core/../misc/../font/../misc/lv_area.h **** 
  34:Drivers/lvgl/lvgl/src/core/../misc/../font/../misc/lv_area.h **** /**
  35:Drivers/lvgl/lvgl/src/core/../misc/../font/../misc/lv_area.h ****  * Represents a point on the screen.
  36:Drivers/lvgl/lvgl/src/core/../misc/../font/../misc/lv_area.h ****  */
  37:Drivers/lvgl/lvgl/src/core/../misc/../font/../misc/lv_area.h **** typedef struct {
  38:Drivers/lvgl/lvgl/src/core/../misc/../font/../misc/lv_area.h ****     lv_coord_t x;
  39:Drivers/lvgl/lvgl/src/core/../misc/../font/../misc/lv_area.h ****     lv_coord_t y;
  40:Drivers/lvgl/lvgl/src/core/../misc/../font/../misc/lv_area.h **** } lv_point_t;
  41:Drivers/lvgl/lvgl/src/core/../misc/../font/../misc/lv_area.h **** 
  42:Drivers/lvgl/lvgl/src/core/../misc/../font/../misc/lv_area.h **** /** Represents an area of the screen.*/
  43:Drivers/lvgl/lvgl/src/core/../misc/../font/../misc/lv_area.h **** typedef struct {
  44:Drivers/lvgl/lvgl/src/core/../misc/../font/../misc/lv_area.h ****     lv_coord_t x1;
  45:Drivers/lvgl/lvgl/src/core/../misc/../font/../misc/lv_area.h ****     lv_coord_t y1;
  46:Drivers/lvgl/lvgl/src/core/../misc/../font/../misc/lv_area.h ****     lv_coord_t x2;
  47:Drivers/lvgl/lvgl/src/core/../misc/../font/../misc/lv_area.h ****     lv_coord_t y2;
  48:Drivers/lvgl/lvgl/src/core/../misc/../font/../misc/lv_area.h **** } lv_area_t;
  49:Drivers/lvgl/lvgl/src/core/../misc/../font/../misc/lv_area.h **** 
  50:Drivers/lvgl/lvgl/src/core/../misc/../font/../misc/lv_area.h **** /** Alignments*/
  51:Drivers/lvgl/lvgl/src/core/../misc/../font/../misc/lv_area.h **** enum {
  52:Drivers/lvgl/lvgl/src/core/../misc/../font/../misc/lv_area.h ****     LV_ALIGN_DEFAULT = 0,
  53:Drivers/lvgl/lvgl/src/core/../misc/../font/../misc/lv_area.h ****     LV_ALIGN_TOP_LEFT,
  54:Drivers/lvgl/lvgl/src/core/../misc/../font/../misc/lv_area.h ****     LV_ALIGN_TOP_MID,
ARM GAS  /tmp/ccJvwpHF.s 			page 40


  55:Drivers/lvgl/lvgl/src/core/../misc/../font/../misc/lv_area.h ****     LV_ALIGN_TOP_RIGHT,
  56:Drivers/lvgl/lvgl/src/core/../misc/../font/../misc/lv_area.h ****     LV_ALIGN_BOTTOM_LEFT,
  57:Drivers/lvgl/lvgl/src/core/../misc/../font/../misc/lv_area.h ****     LV_ALIGN_BOTTOM_MID,
  58:Drivers/lvgl/lvgl/src/core/../misc/../font/../misc/lv_area.h ****     LV_ALIGN_BOTTOM_RIGHT,
  59:Drivers/lvgl/lvgl/src/core/../misc/../font/../misc/lv_area.h ****     LV_ALIGN_LEFT_MID,
  60:Drivers/lvgl/lvgl/src/core/../misc/../font/../misc/lv_area.h ****     LV_ALIGN_RIGHT_MID,
  61:Drivers/lvgl/lvgl/src/core/../misc/../font/../misc/lv_area.h ****     LV_ALIGN_CENTER,
  62:Drivers/lvgl/lvgl/src/core/../misc/../font/../misc/lv_area.h **** 
  63:Drivers/lvgl/lvgl/src/core/../misc/../font/../misc/lv_area.h ****     LV_ALIGN_OUT_TOP_LEFT,
  64:Drivers/lvgl/lvgl/src/core/../misc/../font/../misc/lv_area.h ****     LV_ALIGN_OUT_TOP_MID,
  65:Drivers/lvgl/lvgl/src/core/../misc/../font/../misc/lv_area.h ****     LV_ALIGN_OUT_TOP_RIGHT,
  66:Drivers/lvgl/lvgl/src/core/../misc/../font/../misc/lv_area.h ****     LV_ALIGN_OUT_BOTTOM_LEFT,
  67:Drivers/lvgl/lvgl/src/core/../misc/../font/../misc/lv_area.h ****     LV_ALIGN_OUT_BOTTOM_MID,
  68:Drivers/lvgl/lvgl/src/core/../misc/../font/../misc/lv_area.h ****     LV_ALIGN_OUT_BOTTOM_RIGHT,
  69:Drivers/lvgl/lvgl/src/core/../misc/../font/../misc/lv_area.h ****     LV_ALIGN_OUT_LEFT_TOP,
  70:Drivers/lvgl/lvgl/src/core/../misc/../font/../misc/lv_area.h ****     LV_ALIGN_OUT_LEFT_MID,
  71:Drivers/lvgl/lvgl/src/core/../misc/../font/../misc/lv_area.h ****     LV_ALIGN_OUT_LEFT_BOTTOM,
  72:Drivers/lvgl/lvgl/src/core/../misc/../font/../misc/lv_area.h ****     LV_ALIGN_OUT_RIGHT_TOP,
  73:Drivers/lvgl/lvgl/src/core/../misc/../font/../misc/lv_area.h ****     LV_ALIGN_OUT_RIGHT_MID,
  74:Drivers/lvgl/lvgl/src/core/../misc/../font/../misc/lv_area.h ****     LV_ALIGN_OUT_RIGHT_BOTTOM,
  75:Drivers/lvgl/lvgl/src/core/../misc/../font/../misc/lv_area.h **** };
  76:Drivers/lvgl/lvgl/src/core/../misc/../font/../misc/lv_area.h **** typedef uint8_t lv_align_t;
  77:Drivers/lvgl/lvgl/src/core/../misc/../font/../misc/lv_area.h **** 
  78:Drivers/lvgl/lvgl/src/core/../misc/../font/../misc/lv_area.h **** enum {
  79:Drivers/lvgl/lvgl/src/core/../misc/../font/../misc/lv_area.h ****     LV_DIR_NONE     = 0x00,
  80:Drivers/lvgl/lvgl/src/core/../misc/../font/../misc/lv_area.h ****     LV_DIR_LEFT     = (1 << 0),
  81:Drivers/lvgl/lvgl/src/core/../misc/../font/../misc/lv_area.h ****     LV_DIR_RIGHT    = (1 << 1),
  82:Drivers/lvgl/lvgl/src/core/../misc/../font/../misc/lv_area.h ****     LV_DIR_TOP      = (1 << 2),
  83:Drivers/lvgl/lvgl/src/core/../misc/../font/../misc/lv_area.h ****     LV_DIR_BOTTOM   = (1 << 3),
  84:Drivers/lvgl/lvgl/src/core/../misc/../font/../misc/lv_area.h ****     LV_DIR_HOR      = LV_DIR_LEFT | LV_DIR_RIGHT,
  85:Drivers/lvgl/lvgl/src/core/../misc/../font/../misc/lv_area.h ****     LV_DIR_VER      = LV_DIR_TOP | LV_DIR_BOTTOM,
  86:Drivers/lvgl/lvgl/src/core/../misc/../font/../misc/lv_area.h ****     LV_DIR_ALL      = LV_DIR_HOR | LV_DIR_VER,
  87:Drivers/lvgl/lvgl/src/core/../misc/../font/../misc/lv_area.h **** };
  88:Drivers/lvgl/lvgl/src/core/../misc/../font/../misc/lv_area.h **** 
  89:Drivers/lvgl/lvgl/src/core/../misc/../font/../misc/lv_area.h **** typedef uint8_t lv_dir_t;
  90:Drivers/lvgl/lvgl/src/core/../misc/../font/../misc/lv_area.h **** 
  91:Drivers/lvgl/lvgl/src/core/../misc/../font/../misc/lv_area.h **** /**********************
  92:Drivers/lvgl/lvgl/src/core/../misc/../font/../misc/lv_area.h ****  * GLOBAL PROTOTYPES
  93:Drivers/lvgl/lvgl/src/core/../misc/../font/../misc/lv_area.h ****  **********************/
  94:Drivers/lvgl/lvgl/src/core/../misc/../font/../misc/lv_area.h **** 
  95:Drivers/lvgl/lvgl/src/core/../misc/../font/../misc/lv_area.h **** /**
  96:Drivers/lvgl/lvgl/src/core/../misc/../font/../misc/lv_area.h ****  * Initialize an area
  97:Drivers/lvgl/lvgl/src/core/../misc/../font/../misc/lv_area.h ****  * @param area_p pointer to an area
  98:Drivers/lvgl/lvgl/src/core/../misc/../font/../misc/lv_area.h ****  * @param x1 left coordinate of the area
  99:Drivers/lvgl/lvgl/src/core/../misc/../font/../misc/lv_area.h ****  * @param y1 top coordinate of the area
 100:Drivers/lvgl/lvgl/src/core/../misc/../font/../misc/lv_area.h ****  * @param x2 right coordinate of the area
 101:Drivers/lvgl/lvgl/src/core/../misc/../font/../misc/lv_area.h ****  * @param y2 bottom coordinate of the area
 102:Drivers/lvgl/lvgl/src/core/../misc/../font/../misc/lv_area.h ****  */
 103:Drivers/lvgl/lvgl/src/core/../misc/../font/../misc/lv_area.h **** void lv_area_set(lv_area_t * area_p, lv_coord_t x1, lv_coord_t y1, lv_coord_t x2, lv_coord_t y2);
 104:Drivers/lvgl/lvgl/src/core/../misc/../font/../misc/lv_area.h **** 
 105:Drivers/lvgl/lvgl/src/core/../misc/../font/../misc/lv_area.h **** /**
 106:Drivers/lvgl/lvgl/src/core/../misc/../font/../misc/lv_area.h ****  * Copy an area
 107:Drivers/lvgl/lvgl/src/core/../misc/../font/../misc/lv_area.h ****  * @param dest pointer to the destination area
 108:Drivers/lvgl/lvgl/src/core/../misc/../font/../misc/lv_area.h ****  * @param src pointer to the source area
 109:Drivers/lvgl/lvgl/src/core/../misc/../font/../misc/lv_area.h ****  */
 110:Drivers/lvgl/lvgl/src/core/../misc/../font/../misc/lv_area.h **** inline static void lv_area_copy(lv_area_t * dest, const lv_area_t * src)
 111:Drivers/lvgl/lvgl/src/core/../misc/../font/../misc/lv_area.h **** {
ARM GAS  /tmp/ccJvwpHF.s 			page 41


 112:Drivers/lvgl/lvgl/src/core/../misc/../font/../misc/lv_area.h ****     dest->x1 = src->x1;
 640              		.loc 3 112 0
 641 006c B4F91410 		ldrsh	r1, [r4, #20]
 113:Drivers/lvgl/lvgl/src/core/../misc/../font/../misc/lv_area.h ****     dest->y1 = src->y1;
 642              		.loc 3 113 0
 643 0070 B4F91620 		ldrsh	r2, [r4, #22]
 114:Drivers/lvgl/lvgl/src/core/../misc/../font/../misc/lv_area.h ****     dest->x2 = src->x2;
 644              		.loc 3 114 0
 645 0074 B4F918E0 		ldrsh	lr, [r4, #24]
 115:Drivers/lvgl/lvgl/src/core/../misc/../font/../misc/lv_area.h ****     dest->y2 = src->y2;
 646              		.loc 3 115 0
 647 0078 B4F91AC0 		ldrsh	ip, [r4, #26]
 648              	.LVL77:
 649              	.LBE129:
 650              	.LBE128:
 482:Drivers/lvgl/lvgl/src/core/lv_obj.c ****         coords.x2 += w;
 651              		.loc 1 482 0
 652 007c B3B2     		uxth	r3, r6
 653 007e C91A     		subs	r1, r1, r3
 654 0080 ADF84010 		strh	r1, [sp, #64]	@ movhi
 483:Drivers/lvgl/lvgl/src/core/lv_obj.c ****         coords.y1 -= h;
 655              		.loc 1 483 0
 656 0084 7344     		add	r3, r3, lr
 657 0086 ADF84430 		strh	r3, [sp, #68]	@ movhi
 484:Drivers/lvgl/lvgl/src/core/lv_obj.c ****         coords.y2 += h;
 658              		.loc 1 484 0
 659 008a 80B2     		uxth	r0, r0
 660 008c 121A     		subs	r2, r2, r0
 661 008e ADF84220 		strh	r2, [sp, #66]	@ movhi
 485:Drivers/lvgl/lvgl/src/core/lv_obj.c **** 
 662              		.loc 1 485 0
 663 0092 6044     		add	r0, r0, ip
 664 0094 ADF84600 		strh	r0, [sp, #70]	@ movhi
 487:Drivers/lvgl/lvgl/src/core/lv_obj.c ****             info->res = LV_COVER_RES_NOT_COVER;
 665              		.loc 1 487 0
 666 0098 3A46     		mov	r2, r7
 667 009a 10A9     		add	r1, sp, #64
 668 009c 6868     		ldr	r0, [r5, #4]
 669 009e FFF7FEFF 		bl	_lv_area_is_in
 670              	.LVL78:
 671 00a2 10B9     		cbnz	r0, .L41
 488:Drivers/lvgl/lvgl/src/core/lv_obj.c ****             return;
 672              		.loc 1 488 0
 673 00a4 0123     		movs	r3, #1
 674 00a6 2B70     		strb	r3, [r5]
 489:Drivers/lvgl/lvgl/src/core/lv_obj.c ****         }
 675              		.loc 1 489 0
 676 00a8 BCE7     		b	.L37
 677              	.L41:
 678              	.LVL79:
 679              	.LBB130:
 680              	.LBB131:
 153:Drivers/lvgl/lvgl/src/core/lv_obj_style_gen.h ****     return (lv_opa_t)v.num;
 681              		.loc 2 153 0
 682 00aa 2122     		movs	r2, #33
 683 00ac 0021     		movs	r1, #0
 684 00ae 2046     		mov	r0, r4
ARM GAS  /tmp/ccJvwpHF.s 			page 42


 685 00b0 FFF7FEFF 		bl	lv_obj_get_style_prop
 686              	.LVL80:
 154:Drivers/lvgl/lvgl/src/core/lv_obj_style_gen.h **** }
 687              		.loc 2 154 0
 688 00b4 C0B2     		uxtb	r0, r0
 689              	.LVL81:
 690              	.LBE131:
 691              	.LBE130:
 492:Drivers/lvgl/lvgl/src/core/lv_obj.c ****             info->res = LV_COVER_RES_NOT_COVER;
 692              		.loc 1 492 0
 693 00b6 FC28     		cmp	r0, #252
 694 00b8 02D8     		bhi	.L42
 493:Drivers/lvgl/lvgl/src/core/lv_obj.c ****             return;
 695              		.loc 1 493 0
 696 00ba 0123     		movs	r3, #1
 697 00bc 2B70     		strb	r3, [r5]
 494:Drivers/lvgl/lvgl/src/core/lv_obj.c ****         }
 698              		.loc 1 494 0
 699 00be B1E7     		b	.L37
 700              	.L42:
 497:Drivers/lvgl/lvgl/src/core/lv_obj.c **** 
 701              		.loc 1 497 0
 702 00c0 0023     		movs	r3, #0
 703 00c2 2B70     		strb	r3, [r5]
 704              	.LBE119:
 705 00c4 AEE7     		b	.L37
 706              	.LVL82:
 707              	.L54:
 708              	.LBB132:
 501:Drivers/lvgl/lvgl/src/core/lv_obj.c ****         lv_draw_rect_dsc_t draw_dsc;
 709              		.loc 1 501 0
 710 00c6 3046     		mov	r0, r6
 711              	.LVL83:
 712 00c8 FFF7FEFF 		bl	lv_event_get_draw_ctx
 713              	.LVL84:
 714 00cc 0646     		mov	r6, r0
 715              	.LVL85:
 503:Drivers/lvgl/lvgl/src/core/lv_obj.c ****         /*If the border is drawn later disable loading its properties*/
 716              		.loc 1 503 0
 717 00ce 02A8     		add	r0, sp, #8
 718              	.LVL86:
 719 00d0 FFF7FEFF 		bl	lv_draw_rect_dsc_init
 720              	.LVL87:
 721              	.LBB133:
 722              	.LBB134:
 267:Drivers/lvgl/lvgl/src/core/lv_obj_style_gen.h ****     return (bool)v.num;
 723              		.loc 2 267 0
 724 00d4 3422     		movs	r2, #52
 725 00d6 0021     		movs	r1, #0
 726 00d8 2046     		mov	r0, r4
 727 00da FFF7FEFF 		bl	lv_obj_get_style_prop
 728              	.LVL88:
 729              	.LBE134:
 730              	.LBE133:
 505:Drivers/lvgl/lvgl/src/core/lv_obj.c ****             draw_dsc.border_post = 1;
 731              		.loc 1 505 0
 732 00de 28B1     		cbz	r0, .L45
ARM GAS  /tmp/ccJvwpHF.s 			page 43


 506:Drivers/lvgl/lvgl/src/core/lv_obj.c ****         }
 733              		.loc 1 506 0
 734 00e0 9DF82B30 		ldrb	r3, [sp, #43]	@ zero_extendqisi2
 735 00e4 43F00103 		orr	r3, r3, #1
 736 00e8 8DF82B30 		strb	r3, [sp, #43]
 737              	.L45:
 509:Drivers/lvgl/lvgl/src/core/lv_obj.c ****         lv_coord_t w = lv_obj_get_style_transform_width(obj, LV_PART_MAIN);
 738              		.loc 1 509 0
 739 00ec 02AF     		add	r7, sp, #8
 740 00ee 3A46     		mov	r2, r7
 741 00f0 0021     		movs	r1, #0
 742 00f2 2046     		mov	r0, r4
 743 00f4 FFF7FEFF 		bl	lv_obj_init_draw_rect_dsc
 744              	.LVL89:
 745              	.LBB135:
 746              	.LBB136:
  57:Drivers/lvgl/lvgl/src/core/lv_obj_style_gen.h ****     return (lv_coord_t)v.num;
 747              		.loc 2 57 0
 748 00f8 6822     		movs	r2, #104
 749 00fa 0021     		movs	r1, #0
 750 00fc 2046     		mov	r0, r4
 751 00fe FFF7FEFF 		bl	lv_obj_get_style_prop
 752              	.LVL90:
 753 0102 0546     		mov	r5, r0
 754              	.LVL91:
 755              	.LBE136:
 756              	.LBE135:
 757              	.LBB137:
 758              	.LBB138:
  63:Drivers/lvgl/lvgl/src/core/lv_obj_style_gen.h ****     return (lv_coord_t)v.num;
 759              		.loc 2 63 0
 760 0104 6922     		movs	r2, #105
 761 0106 0021     		movs	r1, #0
 762 0108 2046     		mov	r0, r4
 763 010a FFF7FEFF 		bl	lv_obj_get_style_prop
 764              	.LVL92:
 765              	.LBE138:
 766              	.LBE137:
 767              	.LBB139:
 768              	.LBB140:
 112:Drivers/lvgl/lvgl/src/core/../misc/../font/../misc/lv_area.h ****     dest->y1 = src->y1;
 769              		.loc 3 112 0
 770 010e B4F91410 		ldrsh	r1, [r4, #20]
 113:Drivers/lvgl/lvgl/src/core/../misc/../font/../misc/lv_area.h ****     dest->x2 = src->x2;
 771              		.loc 3 113 0
 772 0112 B4F91620 		ldrsh	r2, [r4, #22]
 114:Drivers/lvgl/lvgl/src/core/../misc/../font/../misc/lv_area.h ****     dest->y2 = src->y2;
 773              		.loc 3 114 0
 774 0116 B4F918E0 		ldrsh	lr, [r4, #24]
 775              		.loc 3 115 0
 776 011a B4F91AC0 		ldrsh	ip, [r4, #26]
 777              	.LVL93:
 778              	.LBE140:
 779              	.LBE139:
 514:Drivers/lvgl/lvgl/src/core/lv_obj.c ****         coords.x2 += w;
 780              		.loc 1 514 0
 781 011e ABB2     		uxth	r3, r5
ARM GAS  /tmp/ccJvwpHF.s 			page 44


 782 0120 C91A     		subs	r1, r1, r3
 783 0122 ADF80010 		strh	r1, [sp]	@ movhi
 515:Drivers/lvgl/lvgl/src/core/lv_obj.c ****         coords.y1 -= h;
 784              		.loc 1 515 0
 785 0126 7344     		add	r3, r3, lr
 786 0128 ADF80430 		strh	r3, [sp, #4]	@ movhi
 516:Drivers/lvgl/lvgl/src/core/lv_obj.c ****         coords.y2 += h;
 787              		.loc 1 516 0
 788 012c 80B2     		uxth	r0, r0
 789 012e 121A     		subs	r2, r2, r0
 790 0130 ADF80220 		strh	r2, [sp, #2]	@ movhi
 517:Drivers/lvgl/lvgl/src/core/lv_obj.c **** 
 791              		.loc 1 517 0
 792 0134 6044     		add	r0, r0, ip
 793 0136 ADF80600 		strh	r0, [sp, #6]	@ movhi
 520:Drivers/lvgl/lvgl/src/core/lv_obj.c ****         part_dsc.class_p = MY_CLASS;
 794              		.loc 1 520 0
 795 013a 3146     		mov	r1, r6
 796 013c 10A8     		add	r0, sp, #64
 797 013e FFF7FEFF 		bl	lv_obj_draw_dsc_init
 798              	.LVL94:
 521:Drivers/lvgl/lvgl/src/core/lv_obj.c ****         part_dsc.type = LV_OBJ_DRAW_PART_RECTANGLE;
 799              		.loc 1 521 0
 800 0142 614B     		ldr	r3, .L58
 801 0144 1193     		str	r3, [sp, #68]
 522:Drivers/lvgl/lvgl/src/core/lv_obj.c ****         part_dsc.rect_dsc = &draw_dsc;
 802              		.loc 1 522 0
 803 0146 0025     		movs	r5, #0
 804 0148 1295     		str	r5, [sp, #72]
 523:Drivers/lvgl/lvgl/src/core/lv_obj.c ****         part_dsc.draw_area = &coords;
 805              		.loc 1 523 0
 806 014a 1497     		str	r7, [sp, #80]
 524:Drivers/lvgl/lvgl/src/core/lv_obj.c ****         part_dsc.part = LV_PART_MAIN;
 807              		.loc 1 524 0
 808 014c CDF84CD0 		str	sp, [sp, #76]
 525:Drivers/lvgl/lvgl/src/core/lv_obj.c ****         lv_event_send(obj, LV_EVENT_DRAW_PART_BEGIN, &part_dsc);
 809              		.loc 1 525 0
 810 0150 1D95     		str	r5, [sp, #116]
 526:Drivers/lvgl/lvgl/src/core/lv_obj.c **** 
 811              		.loc 1 526 0
 812 0152 10AA     		add	r2, sp, #64
 813 0154 1A21     		movs	r1, #26
 814 0156 2046     		mov	r0, r4
 815 0158 FFF7FEFF 		bl	lv_event_send
 816              	.LVL95:
 817              	.LBB141:
 818              	.LBB142:
 501:Drivers/lvgl/lvgl/src/core/lv_obj_style_gen.h ****     return (bool)v.num;
 819              		.loc 2 501 0
 820 015c 1722     		movs	r2, #23
 821 015e 2946     		mov	r1, r5
 822 0160 2046     		mov	r0, r4
 823 0162 FFF7FEFF 		bl	lv_obj_get_style_prop
 824              	.LVL96:
 825              	.LBE142:
 826              	.LBE141:
 530:Drivers/lvgl/lvgl/src/core/lv_obj.c ****         const void * bg_img_src = draw_dsc.bg_img_src;
ARM GAS  /tmp/ccJvwpHF.s 			page 45


 827              		.loc 1 530 0
 828 0166 20B1     		cbz	r0, .L50
 530:Drivers/lvgl/lvgl/src/core/lv_obj.c ****         const void * bg_img_src = draw_dsc.bg_img_src;
 829              		.loc 1 530 0 is_stmt 0 discriminator 1
 830 0168 BDF90830 		ldrsh	r3, [sp, #8]
 831 016c 9BB9     		cbnz	r3, .L51
 530:Drivers/lvgl/lvgl/src/core/lv_obj.c ****         const void * bg_img_src = draw_dsc.bg_img_src;
 832              		.loc 1 530 0
 833 016e 2B46     		mov	r3, r5
 834 0170 00E0     		b	.L46
 835              	.L50:
 836 0172 0023     		movs	r3, #0
 837              	.L46:
 838              	.LVL97:
 531:Drivers/lvgl/lvgl/src/core/lv_obj.c ****         if(clip_corner) {
 839              		.loc 1 531 0 is_stmt 1 discriminator 6
 840 0174 069F     		ldr	r7, [sp, #24]
 841              	.LVL98:
 532:Drivers/lvgl/lvgl/src/core/lv_obj.c ****             draw_dsc.bg_img_src = NULL;
 842              		.loc 1 532 0 discriminator 6
 843 0176 1D46     		mov	r5, r3
 844 0178 0BB1     		cbz	r3, .L47
 533:Drivers/lvgl/lvgl/src/core/lv_obj.c ****         }
 845              		.loc 1 533 0
 846 017a 0023     		movs	r3, #0
 847              	.LVL99:
 848 017c 0693     		str	r3, [sp, #24]
 849              	.L47:
 537:Drivers/lvgl/lvgl/src/core/lv_obj.c **** 
 850              		.loc 1 537 0
 851 017e 6A46     		mov	r2, sp
 852 0180 02A9     		add	r1, sp, #8
 853 0182 3046     		mov	r0, r6
 854 0184 FFF7FEFF 		bl	lv_draw_rect
 855              	.LVL100:
 541:Drivers/lvgl/lvgl/src/core/lv_obj.c ****             lv_draw_mask_radius_param_t * mp = lv_mem_buf_get(sizeof(lv_draw_mask_radius_param_t));
 856              		.loc 1 541 0
 857 0188 3DB9     		cbnz	r5, .L56
 858              	.L48:
 558:Drivers/lvgl/lvgl/src/core/lv_obj.c ****     }
 859              		.loc 1 558 0
 860 018a 10AA     		add	r2, sp, #64
 861 018c 1B21     		movs	r1, #27
 862 018e 2046     		mov	r0, r4
 863 0190 FFF7FEFF 		bl	lv_event_send
 864              	.LVL101:
 865              	.LBE132:
 866 0194 46E7     		b	.L37
 867              	.LVL102:
 868              	.L51:
 869              	.LBB144:
 530:Drivers/lvgl/lvgl/src/core/lv_obj.c ****         const void * bg_img_src = draw_dsc.bg_img_src;
 870              		.loc 1 530 0
 871 0196 0123     		movs	r3, #1
 872 0198 ECE7     		b	.L46
 873              	.LVL103:
 874              	.L56:
ARM GAS  /tmp/ccJvwpHF.s 			page 46


 875              	.LBB143:
 542:Drivers/lvgl/lvgl/src/core/lv_obj.c ****             lv_draw_mask_radius_init(mp, &obj->coords, draw_dsc.radius, false);
 876              		.loc 1 542 0
 877 019a 1820     		movs	r0, #24
 878 019c FFF7FEFF 		bl	lv_mem_buf_get
 879              	.LVL104:
 880 01a0 0546     		mov	r5, r0
 881              	.LVL105:
 543:Drivers/lvgl/lvgl/src/core/lv_obj.c ****             /*Add the mask and use `obj+8` as custom id. Don't use `obj` directly because it might 
 882              		.loc 1 543 0
 883 01a2 0023     		movs	r3, #0
 884 01a4 BDF90820 		ldrsh	r2, [sp, #8]
 885 01a8 04F11401 		add	r1, r4, #20
 886 01ac FFF7FEFF 		bl	lv_draw_mask_radius_init
 887              	.LVL106:
 545:Drivers/lvgl/lvgl/src/core/lv_obj.c **** 
 888              		.loc 1 545 0
 889 01b0 04F59071 		add	r1, r4, #288
 890 01b4 2846     		mov	r0, r5
 891 01b6 FFF7FEFF 		bl	lv_draw_mask_add
 892              	.LVL107:
 547:Drivers/lvgl/lvgl/src/core/lv_obj.c ****                 draw_dsc.bg_opa = LV_OPA_TRANSP;
 893              		.loc 1 547 0
 894 01ba 002F     		cmp	r7, #0
 895 01bc E5D0     		beq	.L48
 548:Drivers/lvgl/lvgl/src/core/lv_obj.c ****                 draw_dsc.border_opa = LV_OPA_TRANSP;
 896              		.loc 1 548 0
 897 01be 0023     		movs	r3, #0
 898 01c0 8DF80B30 		strb	r3, [sp, #11]
 549:Drivers/lvgl/lvgl/src/core/lv_obj.c ****                 draw_dsc.outline_opa = LV_OPA_TRANSP;
 899              		.loc 1 549 0
 900 01c4 8DF82A30 		strb	r3, [sp, #42]
 550:Drivers/lvgl/lvgl/src/core/lv_obj.c ****                 draw_dsc.shadow_opa = LV_OPA_TRANSP;
 901              		.loc 1 550 0
 902 01c8 8DF83230 		strb	r3, [sp, #50]
 551:Drivers/lvgl/lvgl/src/core/lv_obj.c ****                 draw_dsc.bg_img_src = bg_img_src;
 903              		.loc 1 551 0
 904 01cc 8DF83E30 		strb	r3, [sp, #62]
 552:Drivers/lvgl/lvgl/src/core/lv_obj.c ****                 lv_draw_rect(draw_ctx, &draw_dsc, &coords);
 905              		.loc 1 552 0
 906 01d0 0697     		str	r7, [sp, #24]
 553:Drivers/lvgl/lvgl/src/core/lv_obj.c ****             }
 907              		.loc 1 553 0
 908 01d2 6A46     		mov	r2, sp
 909 01d4 02A9     		add	r1, sp, #8
 910 01d6 3046     		mov	r0, r6
 911 01d8 FFF7FEFF 		bl	lv_draw_rect
 912              	.LVL108:
 913 01dc D5E7     		b	.L48
 914              	.LVL109:
 915              	.L55:
 916              	.LBE143:
 917              	.LBE144:
 918              	.LBB145:
 561:Drivers/lvgl/lvgl/src/core/lv_obj.c ****         draw_scrollbar(obj, draw_ctx);
 919              		.loc 1 561 0
 920 01de 3046     		mov	r0, r6
ARM GAS  /tmp/ccJvwpHF.s 			page 47


 921              	.LVL110:
 922 01e0 FFF7FEFF 		bl	lv_event_get_draw_ctx
 923              	.LVL111:
 924 01e4 0646     		mov	r6, r0
 925              	.LVL112:
 562:Drivers/lvgl/lvgl/src/core/lv_obj.c **** 
 926              		.loc 1 562 0
 927 01e6 0146     		mov	r1, r0
 928 01e8 2046     		mov	r0, r4
 929              	.LVL113:
 930 01ea FFF7FEFF 		bl	draw_scrollbar
 931              	.LVL114:
 932              	.LBB146:
 933              	.LBB147:
 501:Drivers/lvgl/lvgl/src/core/lv_obj_style_gen.h ****     return (bool)v.num;
 934              		.loc 2 501 0
 935 01ee 1722     		movs	r2, #23
 936 01f0 0021     		movs	r1, #0
 937 01f2 2046     		mov	r0, r4
 938 01f4 FFF7FEFF 		bl	lv_obj_get_style_prop
 939              	.LVL115:
 940              	.LBE147:
 941              	.LBE146:
 565:Drivers/lvgl/lvgl/src/core/lv_obj.c ****             lv_draw_mask_radius_param_t * param = lv_draw_mask_remove_custom(obj + 8);
 942              		.loc 1 565 0
 943 01f8 0028     		cmp	r0, #0
 944 01fa 58D1     		bne	.L57
 945              	.LVL116:
 946              	.L49:
 947              	.LBB148:
 948              	.LBB149:
 267:Drivers/lvgl/lvgl/src/core/lv_obj_style_gen.h ****     return (bool)v.num;
 949              		.loc 2 267 0
 950 01fc 3422     		movs	r2, #52
 951 01fe 0021     		movs	r1, #0
 952 0200 2046     		mov	r0, r4
 953 0202 FFF7FEFF 		bl	lv_obj_get_style_prop
 954              	.LVL117:
 955              	.LBE149:
 956              	.LBE148:
 575:Drivers/lvgl/lvgl/src/core/lv_obj.c ****             lv_draw_rect_dsc_t draw_dsc;
 957              		.loc 1 575 0
 958 0206 0028     		cmp	r0, #0
 959 0208 3FF40CAF 		beq	.L37
 960              	.LBB150:
 577:Drivers/lvgl/lvgl/src/core/lv_obj.c ****             draw_dsc.bg_opa = LV_OPA_TRANSP;
 961              		.loc 1 577 0 discriminator 3
 962 020c 0DF10808 		add	r8, sp, #8
 963 0210 4046     		mov	r0, r8
 964 0212 FFF7FEFF 		bl	lv_draw_rect_dsc_init
 965              	.LVL118:
 578:Drivers/lvgl/lvgl/src/core/lv_obj.c ****             draw_dsc.bg_img_opa = LV_OPA_TRANSP;
 966              		.loc 1 578 0 discriminator 3
 967 0216 0025     		movs	r5, #0
 968 0218 8DF80B50 		strb	r5, [sp, #11]
 579:Drivers/lvgl/lvgl/src/core/lv_obj.c ****             draw_dsc.outline_opa = LV_OPA_TRANSP;
 969              		.loc 1 579 0 discriminator 3
ARM GAS  /tmp/ccJvwpHF.s 			page 48


 970 021c 8DF82250 		strb	r5, [sp, #34]
 580:Drivers/lvgl/lvgl/src/core/lv_obj.c ****             draw_dsc.shadow_opa = LV_OPA_TRANSP;
 971              		.loc 1 580 0 discriminator 3
 972 0220 8DF83250 		strb	r5, [sp, #50]
 581:Drivers/lvgl/lvgl/src/core/lv_obj.c ****             lv_obj_init_draw_rect_dsc(obj, LV_PART_MAIN, &draw_dsc);
 973              		.loc 1 581 0 discriminator 3
 974 0224 8DF83E50 		strb	r5, [sp, #62]
 582:Drivers/lvgl/lvgl/src/core/lv_obj.c **** 
 975              		.loc 1 582 0 discriminator 3
 976 0228 4246     		mov	r2, r8
 977 022a 2946     		mov	r1, r5
 978 022c 2046     		mov	r0, r4
 979 022e FFF7FEFF 		bl	lv_obj_init_draw_rect_dsc
 980              	.LVL119:
 981              	.LBB151:
 982              	.LBB152:
  57:Drivers/lvgl/lvgl/src/core/lv_obj_style_gen.h ****     return (lv_coord_t)v.num;
 983              		.loc 2 57 0 discriminator 3
 984 0232 6822     		movs	r2, #104
 985 0234 2946     		mov	r1, r5
 986 0236 2046     		mov	r0, r4
 987 0238 FFF7FEFF 		bl	lv_obj_get_style_prop
 988              	.LVL120:
 989 023c 0746     		mov	r7, r0
 990              	.LVL121:
 991              	.LBE152:
 992              	.LBE151:
 993              	.LBB153:
 994              	.LBB154:
  63:Drivers/lvgl/lvgl/src/core/lv_obj_style_gen.h ****     return (lv_coord_t)v.num;
 995              		.loc 2 63 0 discriminator 3
 996 023e 6922     		movs	r2, #105
 997 0240 2946     		mov	r1, r5
 998 0242 2046     		mov	r0, r4
 999 0244 FFF7FEFF 		bl	lv_obj_get_style_prop
 1000              	.LVL122:
 1001              	.LBE154:
 1002              	.LBE153:
 1003              	.LBB155:
 1004              	.LBB156:
 112:Drivers/lvgl/lvgl/src/core/../misc/../font/../misc/lv_area.h ****     dest->y1 = src->y1;
 1005              		.loc 3 112 0 discriminator 3
 1006 0248 B4F91410 		ldrsh	r1, [r4, #20]
 113:Drivers/lvgl/lvgl/src/core/../misc/../font/../misc/lv_area.h ****     dest->x2 = src->x2;
 1007              		.loc 3 113 0 discriminator 3
 1008 024c B4F91620 		ldrsh	r2, [r4, #22]
 114:Drivers/lvgl/lvgl/src/core/../misc/../font/../misc/lv_area.h ****     dest->y2 = src->y2;
 1009              		.loc 3 114 0 discriminator 3
 1010 0250 B4F918E0 		ldrsh	lr, [r4, #24]
 1011              		.loc 3 115 0 discriminator 3
 1012 0254 B4F91AC0 		ldrsh	ip, [r4, #26]
 1013              	.LVL123:
 1014              	.LBE156:
 1015              	.LBE155:
 588:Drivers/lvgl/lvgl/src/core/lv_obj.c ****             coords.x2 += w;
 1016              		.loc 1 588 0 discriminator 3
 1017 0258 BBB2     		uxth	r3, r7
ARM GAS  /tmp/ccJvwpHF.s 			page 49


 1018 025a C91A     		subs	r1, r1, r3
 1019 025c ADF80010 		strh	r1, [sp]	@ movhi
 589:Drivers/lvgl/lvgl/src/core/lv_obj.c ****             coords.y1 -= h;
 1020              		.loc 1 589 0 discriminator 3
 1021 0260 7344     		add	r3, r3, lr
 1022 0262 ADF80430 		strh	r3, [sp, #4]	@ movhi
 590:Drivers/lvgl/lvgl/src/core/lv_obj.c ****             coords.y2 += h;
 1023              		.loc 1 590 0 discriminator 3
 1024 0266 80B2     		uxth	r0, r0
 1025 0268 121A     		subs	r2, r2, r0
 1026 026a ADF80220 		strh	r2, [sp, #2]	@ movhi
 591:Drivers/lvgl/lvgl/src/core/lv_obj.c **** 
 1027              		.loc 1 591 0 discriminator 3
 1028 026e 6044     		add	r0, r0, ip
 1029 0270 ADF80600 		strh	r0, [sp, #6]	@ movhi
 594:Drivers/lvgl/lvgl/src/core/lv_obj.c ****             part_dsc.class_p = MY_CLASS;
 1030              		.loc 1 594 0 discriminator 3
 1031 0274 3146     		mov	r1, r6
 1032 0276 10A8     		add	r0, sp, #64
 1033 0278 FFF7FEFF 		bl	lv_obj_draw_dsc_init
 1034              	.LVL124:
 595:Drivers/lvgl/lvgl/src/core/lv_obj.c ****             part_dsc.type = LV_OBJ_DRAW_PART_BORDER_POST;
 1035              		.loc 1 595 0 discriminator 3
 1036 027c 124B     		ldr	r3, .L58
 1037 027e 1193     		str	r3, [sp, #68]
 596:Drivers/lvgl/lvgl/src/core/lv_obj.c ****             part_dsc.rect_dsc = &draw_dsc;
 1038              		.loc 1 596 0 discriminator 3
 1039 0280 0123     		movs	r3, #1
 1040 0282 1293     		str	r3, [sp, #72]
 597:Drivers/lvgl/lvgl/src/core/lv_obj.c ****             part_dsc.draw_area = &coords;
 1041              		.loc 1 597 0 discriminator 3
 1042 0284 CDF85080 		str	r8, [sp, #80]
 598:Drivers/lvgl/lvgl/src/core/lv_obj.c ****             part_dsc.part = LV_PART_MAIN;
 1043              		.loc 1 598 0 discriminator 3
 1044 0288 CDF84CD0 		str	sp, [sp, #76]
 599:Drivers/lvgl/lvgl/src/core/lv_obj.c ****             lv_event_send(obj, LV_EVENT_DRAW_PART_BEGIN, &part_dsc);
 1045              		.loc 1 599 0 discriminator 3
 1046 028c 1D95     		str	r5, [sp, #116]
 600:Drivers/lvgl/lvgl/src/core/lv_obj.c **** 
 1047              		.loc 1 600 0 discriminator 3
 1048 028e 10AA     		add	r2, sp, #64
 1049 0290 1A21     		movs	r1, #26
 1050 0292 2046     		mov	r0, r4
 1051 0294 FFF7FEFF 		bl	lv_event_send
 1052              	.LVL125:
 602:Drivers/lvgl/lvgl/src/core/lv_obj.c ****             lv_event_send(obj, LV_EVENT_DRAW_PART_END, &part_dsc);
 1053              		.loc 1 602 0 discriminator 3
 1054 0298 6A46     		mov	r2, sp
 1055 029a 4146     		mov	r1, r8
 1056 029c 3046     		mov	r0, r6
 1057 029e FFF7FEFF 		bl	lv_draw_rect
 1058              	.LVL126:
 603:Drivers/lvgl/lvgl/src/core/lv_obj.c ****         }
 1059              		.loc 1 603 0 discriminator 3
 1060 02a2 10AA     		add	r2, sp, #64
 1061 02a4 1B21     		movs	r1, #27
 1062 02a6 2046     		mov	r0, r4
ARM GAS  /tmp/ccJvwpHF.s 			page 50


 1063 02a8 FFF7FEFF 		bl	lv_event_send
 1064              	.LVL127:
 1065 02ac BAE6     		b	.L37
 1066              	.LVL128:
 1067              	.L57:
 1068              	.LBE150:
 1069              	.LBB157:
 566:Drivers/lvgl/lvgl/src/core/lv_obj.c ****             if(param) {
 1070              		.loc 1 566 0
 1071 02ae 04F59070 		add	r0, r4, #288
 1072 02b2 FFF7FEFF 		bl	lv_draw_mask_remove_custom
 1073              	.LVL129:
 567:Drivers/lvgl/lvgl/src/core/lv_obj.c ****                 lv_draw_mask_free_param(param);
 1074              		.loc 1 567 0
 1075 02b6 0546     		mov	r5, r0
 1076              	.LVL130:
 1077 02b8 0028     		cmp	r0, #0
 1078 02ba 9FD0     		beq	.L49
 568:Drivers/lvgl/lvgl/src/core/lv_obj.c ****                 lv_mem_buf_release(param);
 1079              		.loc 1 568 0
 1080 02bc FFF7FEFF 		bl	lv_draw_mask_free_param
 1081              	.LVL131:
 569:Drivers/lvgl/lvgl/src/core/lv_obj.c ****             }
 1082              		.loc 1 569 0
 1083 02c0 2846     		mov	r0, r5
 1084 02c2 FFF7FEFF 		bl	lv_mem_buf_release
 1085              	.LVL132:
 1086 02c6 99E7     		b	.L49
 1087              	.L59:
 1088              		.align	2
 1089              	.L58:
 1090 02c8 00000000 		.word	.LANCHOR0
 1091              	.LBE157:
 1092              	.LBE145:
 1093              		.cfi_endproc
 1094              	.LFE222:
 1096              		.section	.text.lv_obj_constructor,"ax",%progbits
 1097              		.align	1
 1098              		.syntax unified
 1099              		.thumb
 1100              		.thumb_func
 1101              		.fpu fpv5-d16
 1103              	lv_obj_constructor:
 1104              	.LFB220:
 401:Drivers/lvgl/lvgl/src/core/lv_obj.c ****     LV_UNUSED(class_p);
 1105              		.loc 1 401 0
 1106              		.cfi_startproc
 1107              		@ args = 0, pretend = 0, frame = 0
 1108              		@ frame_needed = 0, uses_anonymous_args = 0
 1109              	.LVL133:
 1110 0000 2DE9F041 		push	{r4, r5, r6, r7, r8, lr}
 1111              	.LCFI10:
 1112              		.cfi_def_cfa_offset 24
 1113              		.cfi_offset 4, -24
 1114              		.cfi_offset 5, -20
 1115              		.cfi_offset 6, -16
 1116              		.cfi_offset 7, -12
ARM GAS  /tmp/ccJvwpHF.s 			page 51


 1117              		.cfi_offset 8, -8
 1118              		.cfi_offset 14, -4
 1119 0004 0C46     		mov	r4, r1
 405:Drivers/lvgl/lvgl/src/core/lv_obj.c ****     if(parent) {
 1120              		.loc 1 405 0
 1121 0006 4D68     		ldr	r5, [r1, #4]
 1122              	.LVL134:
 406:Drivers/lvgl/lvgl/src/core/lv_obj.c ****         lv_coord_t sl = lv_obj_get_scroll_left(parent);
 1123              		.loc 1 406 0
 1124 0008 25B3     		cbz	r5, .L61
 1125              	.LBB158:
 407:Drivers/lvgl/lvgl/src/core/lv_obj.c ****         lv_coord_t st = lv_obj_get_scroll_top(parent);
 1126              		.loc 1 407 0
 1127 000a 2846     		mov	r0, r5
 1128              	.LVL135:
 1129 000c FFF7FEFF 		bl	lv_obj_get_scroll_left
 1130              	.LVL136:
 1131 0010 8046     		mov	r8, r0
 1132              	.LVL137:
 408:Drivers/lvgl/lvgl/src/core/lv_obj.c **** 
 1133              		.loc 1 408 0
 1134 0012 2846     		mov	r0, r5
 1135 0014 FFF7FEFF 		bl	lv_obj_get_scroll_top
 1136              	.LVL138:
 1137 0018 0646     		mov	r6, r0
 1138              	.LVL139:
 410:Drivers/lvgl/lvgl/src/core/lv_obj.c ****         obj->coords.y2 = obj->coords.y1 - 1;
 1139              		.loc 1 410 0
 1140 001a EF8A     		ldrh	r7, [r5, #22]
 1141              	.LVL140:
 1142              	.LBB159:
 1143              	.LBB160:
 105:Drivers/lvgl/lvgl/src/core/lv_obj_style_gen.h ****     return (lv_coord_t)v.num;
 1144              		.loc 2 105 0
 1145 001c 1022     		movs	r2, #16
 1146 001e 0021     		movs	r1, #0
 1147 0020 2846     		mov	r0, r5
 1148 0022 FFF7FEFF 		bl	lv_obj_get_style_prop
 1149              	.LVL141:
 1150              	.LBE160:
 1151              	.LBE159:
 410:Drivers/lvgl/lvgl/src/core/lv_obj.c ****         obj->coords.y2 = obj->coords.y1 - 1;
 1152              		.loc 1 410 0
 1153 0026 17FA80F0 		uxtah	r0, r7, r0
 1154 002a 80B2     		uxth	r0, r0
 1155 002c 801B     		subs	r0, r0, r6
 1156 002e 80B2     		uxth	r0, r0
 1157 0030 E082     		strh	r0, [r4, #22]	@ movhi
 411:Drivers/lvgl/lvgl/src/core/lv_obj.c ****         obj->coords.x1  = parent->coords.x1 + lv_obj_get_style_pad_left(parent, LV_PART_MAIN) - sl;
 1158              		.loc 1 411 0
 1159 0032 0138     		subs	r0, r0, #1
 1160 0034 6083     		strh	r0, [r4, #26]	@ movhi
 412:Drivers/lvgl/lvgl/src/core/lv_obj.c ****         obj->coords.x2  = obj->coords.x1 - 1;
 1161              		.loc 1 412 0
 1162 0036 AE8A     		ldrh	r6, [r5, #20]
 1163              	.LVL142:
 1164              	.LBB161:
ARM GAS  /tmp/ccJvwpHF.s 			page 52


 1165              	.LBB162:
 117:Drivers/lvgl/lvgl/src/core/lv_obj_style_gen.h ****     return (lv_coord_t)v.num;
 1166              		.loc 2 117 0
 1167 0038 1222     		movs	r2, #18
 1168 003a 0021     		movs	r1, #0
 1169 003c 2846     		mov	r0, r5
 1170 003e FFF7FEFF 		bl	lv_obj_get_style_prop
 1171              	.LVL143:
 1172              	.LBE162:
 1173              	.LBE161:
 412:Drivers/lvgl/lvgl/src/core/lv_obj.c ****         obj->coords.x2  = obj->coords.x1 - 1;
 1174              		.loc 1 412 0
 1175 0042 16FA80F0 		uxtah	r0, r6, r0
 1176 0046 80B2     		uxth	r0, r0
 1177 0048 A0EB0800 		sub	r0, r0, r8
 1178 004c 80B2     		uxth	r0, r0
 1179 004e A082     		strh	r0, [r4, #20]	@ movhi
 413:Drivers/lvgl/lvgl/src/core/lv_obj.c ****     }
 1180              		.loc 1 413 0
 1181 0050 0138     		subs	r0, r0, #1
 1182 0052 2083     		strh	r0, [r4, #24]	@ movhi
 1183              	.LVL144:
 1184              	.L61:
 1185              	.LBE158:
 418:Drivers/lvgl/lvgl/src/core/lv_obj.c ****     if(parent) obj->flags |= LV_OBJ_FLAG_PRESS_LOCK;
 1186              		.loc 1 418 0
 1187 0054 41F20203 		movw	r3, #4098
 1188 0058 E361     		str	r3, [r4, #28]
 419:Drivers/lvgl/lvgl/src/core/lv_obj.c ****     if(parent) obj->flags |= LV_OBJ_FLAG_SCROLL_CHAIN;
 1189              		.loc 1 419 0
 1190 005a 15B1     		cbz	r5, .L62
 419:Drivers/lvgl/lvgl/src/core/lv_obj.c ****     if(parent) obj->flags |= LV_OBJ_FLAG_SCROLL_CHAIN;
 1191              		.loc 1 419 0 is_stmt 0 discriminator 1
 1192 005c 43F20203 		movw	r3, #12290
 1193 0060 E361     		str	r3, [r4, #28]
 1194              	.L62:
 420:Drivers/lvgl/lvgl/src/core/lv_obj.c ****     obj->flags |= LV_OBJ_FLAG_CLICK_FOCUSABLE;
 1195              		.loc 1 420 0 is_stmt 1
 1196 0062 1DB1     		cbz	r5, .L63
 420:Drivers/lvgl/lvgl/src/core/lv_obj.c ****     obj->flags |= LV_OBJ_FLAG_CLICK_FOCUSABLE;
 1197              		.loc 1 420 0 is_stmt 0 discriminator 1
 1198 0064 E369     		ldr	r3, [r4, #28]
 1199 0066 43F44073 		orr	r3, r3, #768
 1200 006a E361     		str	r3, [r4, #28]
 1201              	.L63:
 421:Drivers/lvgl/lvgl/src/core/lv_obj.c ****     obj->flags |= LV_OBJ_FLAG_SCROLLABLE;
 1202              		.loc 1 421 0 is_stmt 1
 1203 006c E269     		ldr	r2, [r4, #28]
 425:Drivers/lvgl/lvgl/src/core/lv_obj.c ****     if(parent) obj->flags |= LV_OBJ_FLAG_GESTURE_BUBBLE;
 1204              		.loc 1 425 0
 1205 006e 40F67403 		movw	r3, #2164
 1206 0072 1343     		orrs	r3, r3, r2
 1207 0074 E361     		str	r3, [r4, #28]
 426:Drivers/lvgl/lvgl/src/core/lv_obj.c **** 
 1208              		.loc 1 426 0
 1209 0076 15B1     		cbz	r5, .L60
 426:Drivers/lvgl/lvgl/src/core/lv_obj.c **** 
ARM GAS  /tmp/ccJvwpHF.s 			page 53


 1210              		.loc 1 426 0 is_stmt 0 discriminator 1
 1211 0078 43F40043 		orr	r3, r3, #32768
 1212 007c E361     		str	r3, [r4, #28]
 1213              	.L60:
 429:Drivers/lvgl/lvgl/src/core/lv_obj.c **** 
 1214              		.loc 1 429 0 is_stmt 1
 1215 007e BDE8F081 		pop	{r4, r5, r6, r7, r8, pc}
 1216              		.cfi_endproc
 1217              	.LFE220:
 1219              		.section	.text.lv_obj_set_state,"ax",%progbits
 1220              		.align	1
 1221              		.syntax unified
 1222              		.thumb
 1223              		.thumb_func
 1224              		.fpu fpv5-d16
 1226              	lv_obj_set_state:
 1227              	.LFB226:
 857:Drivers/lvgl/lvgl/src/core/lv_obj.c ****     if(obj->state == new_state) return;
 1228              		.loc 1 857 0
 1229              		.cfi_startproc
 1230              		@ args = 0, pretend = 0, frame = 40
 1231              		@ frame_needed = 0, uses_anonymous_args = 0
 1232              	.LVL145:
 1233 0000 2DE9F04F 		push	{r4, r5, r6, r7, r8, r9, r10, fp, lr}
 1234              	.LCFI11:
 1235              		.cfi_def_cfa_offset 36
 1236              		.cfi_offset 4, -36
 1237              		.cfi_offset 5, -32
 1238              		.cfi_offset 6, -28
 1239              		.cfi_offset 7, -24
 1240              		.cfi_offset 8, -20
 1241              		.cfi_offset 9, -16
 1242              		.cfi_offset 10, -12
 1243              		.cfi_offset 11, -8
 1244              		.cfi_offset 14, -4
 1245 0004 8DB0     		sub	sp, sp, #52
 1246              	.LCFI12:
 1247              		.cfi_def_cfa_offset 88
 858:Drivers/lvgl/lvgl/src/core/lv_obj.c **** 
 1248              		.loc 1 858 0
 1249 0006 038C     		ldrh	r3, [r0, #32]
 1250 0008 0893     		str	r3, [sp, #32]
 1251 000a 8B42     		cmp	r3, r1
 1252 000c 09D0     		beq	.L66
 1253 000e 0691     		str	r1, [sp, #24]
 1254 0010 0390     		str	r0, [sp, #12]
 1255              	.LVL146:
 863:Drivers/lvgl/lvgl/src/core/lv_obj.c **** 
 1256              		.loc 1 863 0
 1257 0012 0246     		mov	r2, r0
 1258 0014 1184     		strh	r1, [r2, #32]	@ movhi
 865:Drivers/lvgl/lvgl/src/core/lv_obj.c ****     /*If there is no difference in styles there is nothing else to do*/
 1259              		.loc 1 865 0
 1260 0016 0A46     		mov	r2, r1
 1261 0018 1946     		mov	r1, r3
 1262              	.LVL147:
 1263 001a FFF7FEFF 		bl	_lv_obj_style_state_compare
ARM GAS  /tmp/ccJvwpHF.s 			page 54


 1264              	.LVL148:
 867:Drivers/lvgl/lvgl/src/core/lv_obj.c **** 
 1265              		.loc 1 867 0
 1266 001e 0A90     		str	r0, [sp, #40]
 1267 0020 10B9     		cbnz	r0, .L108
 1268              	.LVL149:
 1269              	.L66:
 927:Drivers/lvgl/lvgl/src/core/lv_obj.c **** 
 1270              		.loc 1 927 0
 1271 0022 0DB0     		add	sp, sp, #52
 1272              	.LCFI13:
 1273              		.cfi_remember_state
 1274              		.cfi_def_cfa_offset 36
 1275              		@ sp needed
 1276 0024 BDE8F08F 		pop	{r4, r5, r6, r7, r8, r9, r10, fp, pc}
 1277              	.LVL150:
 1278              	.L108:
 1279              	.LCFI14:
 1280              		.cfi_restore_state
 869:Drivers/lvgl/lvgl/src/core/lv_obj.c ****     lv_memset_00(ts, sizeof(_lv_obj_style_transition_dsc_t) * STYLE_TRANSITION_MAX);
 1281              		.loc 1 869 0
 1282 0028 4FF42070 		mov	r0, #640
 1283              	.LVL151:
 1284 002c FFF7FEFF 		bl	lv_mem_buf_get
 1285              	.LVL152:
 1286 0030 8346     		mov	fp, r0
 1287              	.LVL153:
 870:Drivers/lvgl/lvgl/src/core/lv_obj.c ****     uint32_t tsi = 0;
 1288              		.loc 1 870 0
 1289 0032 4FF42071 		mov	r1, #640
 1290 0036 FFF7FEFF 		bl	lv_memset_00
 1291              	.LVL154:
 873:Drivers/lvgl/lvgl/src/core/lv_obj.c ****         _lv_obj_style_t * obj_style = &obj->styles[i];
 1292              		.loc 1 873 0
 1293 003a 0023     		movs	r3, #0
 1294 003c 0293     		str	r3, [sp, #8]
 871:Drivers/lvgl/lvgl/src/core/lv_obj.c ****     uint32_t i;
 1295              		.loc 1 871 0
 1296 003e 9A46     		mov	r10, r3
 873:Drivers/lvgl/lvgl/src/core/lv_obj.c ****         _lv_obj_style_t * obj_style = &obj->styles[i];
 1297              		.loc 1 873 0
 1298 0040 4EE0     		b	.L68
 1299              	.LVL155:
 1300              	.L111:
 1301              	.LBB174:
 1302              	.LBB175:
 1303              	.LBB176:
 1304              	.LBB177:
 1305              	.LBB178:
 1306              		.file 4 "Drivers/lvgl/lvgl/src/core/../misc/lv_style.h"
   1:Drivers/lvgl/lvgl/src/core/../misc/lv_style.h **** /**
   2:Drivers/lvgl/lvgl/src/core/../misc/lv_style.h ****  * @file lv_style.h
   3:Drivers/lvgl/lvgl/src/core/../misc/lv_style.h ****  *
   4:Drivers/lvgl/lvgl/src/core/../misc/lv_style.h ****  */
   5:Drivers/lvgl/lvgl/src/core/../misc/lv_style.h **** 
   6:Drivers/lvgl/lvgl/src/core/../misc/lv_style.h **** #ifndef LV_STYLE_H
   7:Drivers/lvgl/lvgl/src/core/../misc/lv_style.h **** #define LV_STYLE_H
ARM GAS  /tmp/ccJvwpHF.s 			page 55


   8:Drivers/lvgl/lvgl/src/core/../misc/lv_style.h **** 
   9:Drivers/lvgl/lvgl/src/core/../misc/lv_style.h **** #ifdef __cplusplus
  10:Drivers/lvgl/lvgl/src/core/../misc/lv_style.h **** extern "C" {
  11:Drivers/lvgl/lvgl/src/core/../misc/lv_style.h **** #endif
  12:Drivers/lvgl/lvgl/src/core/../misc/lv_style.h **** 
  13:Drivers/lvgl/lvgl/src/core/../misc/lv_style.h **** /*********************
  14:Drivers/lvgl/lvgl/src/core/../misc/lv_style.h ****  *      INCLUDES
  15:Drivers/lvgl/lvgl/src/core/../misc/lv_style.h ****  *********************/
  16:Drivers/lvgl/lvgl/src/core/../misc/lv_style.h **** #include <stdbool.h>
  17:Drivers/lvgl/lvgl/src/core/../misc/lv_style.h **** #include <stdint.h>
  18:Drivers/lvgl/lvgl/src/core/../misc/lv_style.h **** #include "../font/lv_font.h"
  19:Drivers/lvgl/lvgl/src/core/../misc/lv_style.h **** #include "lv_color.h"
  20:Drivers/lvgl/lvgl/src/core/../misc/lv_style.h **** #include "lv_area.h"
  21:Drivers/lvgl/lvgl/src/core/../misc/lv_style.h **** #include "lv_anim.h"
  22:Drivers/lvgl/lvgl/src/core/../misc/lv_style.h **** #include "lv_txt.h"
  23:Drivers/lvgl/lvgl/src/core/../misc/lv_style.h **** #include "lv_types.h"
  24:Drivers/lvgl/lvgl/src/core/../misc/lv_style.h **** #include "lv_assert.h"
  25:Drivers/lvgl/lvgl/src/core/../misc/lv_style.h **** #include "lv_bidi.h"
  26:Drivers/lvgl/lvgl/src/core/../misc/lv_style.h **** 
  27:Drivers/lvgl/lvgl/src/core/../misc/lv_style.h **** /*********************
  28:Drivers/lvgl/lvgl/src/core/../misc/lv_style.h ****  *      DEFINES
  29:Drivers/lvgl/lvgl/src/core/../misc/lv_style.h ****  *********************/
  30:Drivers/lvgl/lvgl/src/core/../misc/lv_style.h **** 
  31:Drivers/lvgl/lvgl/src/core/../misc/lv_style.h **** #define LV_STYLE_SENTINEL_VALUE     0xAABBCCDD
  32:Drivers/lvgl/lvgl/src/core/../misc/lv_style.h **** 
  33:Drivers/lvgl/lvgl/src/core/../misc/lv_style.h **** /**
  34:Drivers/lvgl/lvgl/src/core/../misc/lv_style.h ****  * Flags for style behavior
  35:Drivers/lvgl/lvgl/src/core/../misc/lv_style.h ****  *
  36:Drivers/lvgl/lvgl/src/core/../misc/lv_style.h ****  * The rest of the flags will have _FLAG added to their name in v9.
  37:Drivers/lvgl/lvgl/src/core/../misc/lv_style.h ****  */
  38:Drivers/lvgl/lvgl/src/core/../misc/lv_style.h **** #define LV_STYLE_PROP_FLAG_NONE             (0)
  39:Drivers/lvgl/lvgl/src/core/../misc/lv_style.h **** #define LV_STYLE_PROP_INHERIT               (1 << 0)  /*Inherited*/
  40:Drivers/lvgl/lvgl/src/core/../misc/lv_style.h **** #define LV_STYLE_PROP_EXT_DRAW              (1 << 1)  /*Requires ext. draw size update when changed
  41:Drivers/lvgl/lvgl/src/core/../misc/lv_style.h **** #define LV_STYLE_PROP_LAYOUT_REFR           (1 << 2)  /*Requires layout update when changed*/
  42:Drivers/lvgl/lvgl/src/core/../misc/lv_style.h **** #define LV_STYLE_PROP_PARENT_LAYOUT_REFR    (1 << 3)  /*Requires layout update on parent when chang
  43:Drivers/lvgl/lvgl/src/core/../misc/lv_style.h **** #define LV_STYLE_PROP_LAYER_REFR            (1 << 4)  /*Affects layer handling*/
  44:Drivers/lvgl/lvgl/src/core/../misc/lv_style.h **** #define LV_STYLE_PROP_ALL                   (0x1F)     /*Indicating all flags*/
  45:Drivers/lvgl/lvgl/src/core/../misc/lv_style.h **** 
  46:Drivers/lvgl/lvgl/src/core/../misc/lv_style.h **** /**
  47:Drivers/lvgl/lvgl/src/core/../misc/lv_style.h ****  * Other constants
  48:Drivers/lvgl/lvgl/src/core/../misc/lv_style.h ****  */
  49:Drivers/lvgl/lvgl/src/core/../misc/lv_style.h **** #define LV_IMG_ZOOM_NONE            256        /*Value for not zooming the image*/
  50:Drivers/lvgl/lvgl/src/core/../misc/lv_style.h **** LV_EXPORT_CONST_INT(LV_IMG_ZOOM_NONE);
  51:Drivers/lvgl/lvgl/src/core/../misc/lv_style.h **** 
  52:Drivers/lvgl/lvgl/src/core/../misc/lv_style.h **** // *INDENT-OFF*
  53:Drivers/lvgl/lvgl/src/core/../misc/lv_style.h **** #if LV_USE_ASSERT_STYLE
  54:Drivers/lvgl/lvgl/src/core/../misc/lv_style.h **** #define LV_STYLE_CONST_INIT(var_name, prop_array)                       \
  55:Drivers/lvgl/lvgl/src/core/../misc/lv_style.h ****     const lv_style_t var_name = {                                       \
  56:Drivers/lvgl/lvgl/src/core/../misc/lv_style.h ****         .sentinel = LV_STYLE_SENTINEL_VALUE,                            \
  57:Drivers/lvgl/lvgl/src/core/../misc/lv_style.h ****         .v_p = { .const_props = prop_array },                           \
  58:Drivers/lvgl/lvgl/src/core/../misc/lv_style.h ****         .has_group = 0xFF,                                              \
  59:Drivers/lvgl/lvgl/src/core/../misc/lv_style.h ****         .prop1 = LV_STYLE_PROP_ANY,                                     \
  60:Drivers/lvgl/lvgl/src/core/../misc/lv_style.h ****         .prop_cnt = (sizeof(prop_array) / sizeof((prop_array)[0])),     \
  61:Drivers/lvgl/lvgl/src/core/../misc/lv_style.h ****     }
  62:Drivers/lvgl/lvgl/src/core/../misc/lv_style.h **** #else
  63:Drivers/lvgl/lvgl/src/core/../misc/lv_style.h **** #define LV_STYLE_CONST_INIT(var_name, prop_array)                       \
  64:Drivers/lvgl/lvgl/src/core/../misc/lv_style.h ****     const lv_style_t var_name = {                                       \
ARM GAS  /tmp/ccJvwpHF.s 			page 56


  65:Drivers/lvgl/lvgl/src/core/../misc/lv_style.h ****         .v_p = { .const_props = prop_array },                           \
  66:Drivers/lvgl/lvgl/src/core/../misc/lv_style.h ****         .has_group = 0xFF,                                              \
  67:Drivers/lvgl/lvgl/src/core/../misc/lv_style.h ****         .prop1 = LV_STYLE_PROP_ANY,                                     \
  68:Drivers/lvgl/lvgl/src/core/../misc/lv_style.h ****         .prop_cnt = (sizeof(prop_array) / sizeof((prop_array)[0])),     \
  69:Drivers/lvgl/lvgl/src/core/../misc/lv_style.h ****     }
  70:Drivers/lvgl/lvgl/src/core/../misc/lv_style.h **** #endif
  71:Drivers/lvgl/lvgl/src/core/../misc/lv_style.h **** // *INDENT-ON*
  72:Drivers/lvgl/lvgl/src/core/../misc/lv_style.h **** 
  73:Drivers/lvgl/lvgl/src/core/../misc/lv_style.h **** #define LV_STYLE_PROP_META_INHERIT 0x8000
  74:Drivers/lvgl/lvgl/src/core/../misc/lv_style.h **** #define LV_STYLE_PROP_META_INITIAL 0x4000
  75:Drivers/lvgl/lvgl/src/core/../misc/lv_style.h **** #define LV_STYLE_PROP_META_MASK (LV_STYLE_PROP_META_INHERIT | LV_STYLE_PROP_META_INITIAL)
  76:Drivers/lvgl/lvgl/src/core/../misc/lv_style.h **** 
  77:Drivers/lvgl/lvgl/src/core/../misc/lv_style.h **** #define LV_STYLE_PROP_ID_MASK(prop) ((lv_style_prop_t)((prop) & ~LV_STYLE_PROP_META_MASK))
  78:Drivers/lvgl/lvgl/src/core/../misc/lv_style.h **** 
  79:Drivers/lvgl/lvgl/src/core/../misc/lv_style.h **** /**********************
  80:Drivers/lvgl/lvgl/src/core/../misc/lv_style.h ****  *      TYPEDEFS
  81:Drivers/lvgl/lvgl/src/core/../misc/lv_style.h ****  **********************/
  82:Drivers/lvgl/lvgl/src/core/../misc/lv_style.h **** 
  83:Drivers/lvgl/lvgl/src/core/../misc/lv_style.h **** /**
  84:Drivers/lvgl/lvgl/src/core/../misc/lv_style.h ****  * Possible options how to blend opaque drawings
  85:Drivers/lvgl/lvgl/src/core/../misc/lv_style.h ****  */
  86:Drivers/lvgl/lvgl/src/core/../misc/lv_style.h **** enum {
  87:Drivers/lvgl/lvgl/src/core/../misc/lv_style.h ****     LV_BLEND_MODE_NORMAL,     /**< Simply mix according to the opacity value*/
  88:Drivers/lvgl/lvgl/src/core/../misc/lv_style.h ****     LV_BLEND_MODE_ADDITIVE,   /**< Add the respective color channels*/
  89:Drivers/lvgl/lvgl/src/core/../misc/lv_style.h ****     LV_BLEND_MODE_SUBTRACTIVE,/**< Subtract the foreground from the background*/
  90:Drivers/lvgl/lvgl/src/core/../misc/lv_style.h ****     LV_BLEND_MODE_MULTIPLY,   /**< Multiply the foreground and background*/
  91:Drivers/lvgl/lvgl/src/core/../misc/lv_style.h ****     LV_BLEND_MODE_REPLACE,    /**< Replace background with foreground in the area*/
  92:Drivers/lvgl/lvgl/src/core/../misc/lv_style.h **** };
  93:Drivers/lvgl/lvgl/src/core/../misc/lv_style.h **** 
  94:Drivers/lvgl/lvgl/src/core/../misc/lv_style.h **** typedef uint8_t lv_blend_mode_t;
  95:Drivers/lvgl/lvgl/src/core/../misc/lv_style.h **** 
  96:Drivers/lvgl/lvgl/src/core/../misc/lv_style.h **** /**
  97:Drivers/lvgl/lvgl/src/core/../misc/lv_style.h ****  * Some options to apply decorations on texts.
  98:Drivers/lvgl/lvgl/src/core/../misc/lv_style.h ****  * 'OR'ed values can be used.
  99:Drivers/lvgl/lvgl/src/core/../misc/lv_style.h ****  */
 100:Drivers/lvgl/lvgl/src/core/../misc/lv_style.h **** enum {
 101:Drivers/lvgl/lvgl/src/core/../misc/lv_style.h ****     LV_TEXT_DECOR_NONE          = 0x00,
 102:Drivers/lvgl/lvgl/src/core/../misc/lv_style.h ****     LV_TEXT_DECOR_UNDERLINE     = 0x01,
 103:Drivers/lvgl/lvgl/src/core/../misc/lv_style.h ****     LV_TEXT_DECOR_STRIKETHROUGH = 0x02,
 104:Drivers/lvgl/lvgl/src/core/../misc/lv_style.h **** };
 105:Drivers/lvgl/lvgl/src/core/../misc/lv_style.h **** 
 106:Drivers/lvgl/lvgl/src/core/../misc/lv_style.h **** typedef uint8_t lv_text_decor_t;
 107:Drivers/lvgl/lvgl/src/core/../misc/lv_style.h **** 
 108:Drivers/lvgl/lvgl/src/core/../misc/lv_style.h **** /**
 109:Drivers/lvgl/lvgl/src/core/../misc/lv_style.h ****  * Selects on which sides border should be drawn
 110:Drivers/lvgl/lvgl/src/core/../misc/lv_style.h ****  * 'OR'ed values can be used.
 111:Drivers/lvgl/lvgl/src/core/../misc/lv_style.h ****  */
 112:Drivers/lvgl/lvgl/src/core/../misc/lv_style.h **** enum {
 113:Drivers/lvgl/lvgl/src/core/../misc/lv_style.h ****     LV_BORDER_SIDE_NONE     = 0x00,
 114:Drivers/lvgl/lvgl/src/core/../misc/lv_style.h ****     LV_BORDER_SIDE_BOTTOM   = 0x01,
 115:Drivers/lvgl/lvgl/src/core/../misc/lv_style.h ****     LV_BORDER_SIDE_TOP      = 0x02,
 116:Drivers/lvgl/lvgl/src/core/../misc/lv_style.h ****     LV_BORDER_SIDE_LEFT     = 0x04,
 117:Drivers/lvgl/lvgl/src/core/../misc/lv_style.h ****     LV_BORDER_SIDE_RIGHT    = 0x08,
 118:Drivers/lvgl/lvgl/src/core/../misc/lv_style.h ****     LV_BORDER_SIDE_FULL     = 0x0F,
 119:Drivers/lvgl/lvgl/src/core/../misc/lv_style.h ****     LV_BORDER_SIDE_INTERNAL = 0x10, /**< FOR matrix-like objects (e.g. Button matrix)*/
 120:Drivers/lvgl/lvgl/src/core/../misc/lv_style.h **** };
 121:Drivers/lvgl/lvgl/src/core/../misc/lv_style.h **** typedef uint8_t lv_border_side_t;
ARM GAS  /tmp/ccJvwpHF.s 			page 57


 122:Drivers/lvgl/lvgl/src/core/../misc/lv_style.h **** 
 123:Drivers/lvgl/lvgl/src/core/../misc/lv_style.h **** /**
 124:Drivers/lvgl/lvgl/src/core/../misc/lv_style.h ****  * The direction of the gradient.
 125:Drivers/lvgl/lvgl/src/core/../misc/lv_style.h ****  */
 126:Drivers/lvgl/lvgl/src/core/../misc/lv_style.h **** enum {
 127:Drivers/lvgl/lvgl/src/core/../misc/lv_style.h ****     LV_GRAD_DIR_NONE, /**< No gradient (the `grad_color` property is ignored)*/
 128:Drivers/lvgl/lvgl/src/core/../misc/lv_style.h ****     LV_GRAD_DIR_VER,  /**< Vertical (top to bottom) gradient*/
 129:Drivers/lvgl/lvgl/src/core/../misc/lv_style.h ****     LV_GRAD_DIR_HOR,  /**< Horizontal (left to right) gradient*/
 130:Drivers/lvgl/lvgl/src/core/../misc/lv_style.h **** };
 131:Drivers/lvgl/lvgl/src/core/../misc/lv_style.h **** 
 132:Drivers/lvgl/lvgl/src/core/../misc/lv_style.h **** typedef uint8_t lv_grad_dir_t;
 133:Drivers/lvgl/lvgl/src/core/../misc/lv_style.h **** 
 134:Drivers/lvgl/lvgl/src/core/../misc/lv_style.h **** /**
 135:Drivers/lvgl/lvgl/src/core/../misc/lv_style.h ****  * The dithering algorithm for the gradient
 136:Drivers/lvgl/lvgl/src/core/../misc/lv_style.h ****  * Depends on LV_DITHER_GRADIENT
 137:Drivers/lvgl/lvgl/src/core/../misc/lv_style.h ****  */
 138:Drivers/lvgl/lvgl/src/core/../misc/lv_style.h **** enum {
 139:Drivers/lvgl/lvgl/src/core/../misc/lv_style.h ****     LV_DITHER_NONE,     /**< No dithering, colors are just quantized to the output resolution*/
 140:Drivers/lvgl/lvgl/src/core/../misc/lv_style.h ****     LV_DITHER_ORDERED,  /**< Ordered dithering. Faster to compute and use less memory but lower qua
 141:Drivers/lvgl/lvgl/src/core/../misc/lv_style.h ****     LV_DITHER_ERR_DIFF, /**< Error diffusion mode. Slower to compute and use more memory but give h
 142:Drivers/lvgl/lvgl/src/core/../misc/lv_style.h **** };
 143:Drivers/lvgl/lvgl/src/core/../misc/lv_style.h **** 
 144:Drivers/lvgl/lvgl/src/core/../misc/lv_style.h **** typedef uint8_t lv_dither_mode_t;
 145:Drivers/lvgl/lvgl/src/core/../misc/lv_style.h **** 
 146:Drivers/lvgl/lvgl/src/core/../misc/lv_style.h **** /** A gradient stop definition.
 147:Drivers/lvgl/lvgl/src/core/../misc/lv_style.h ****  *  This matches a color and a position in a virtual 0-255 scale.
 148:Drivers/lvgl/lvgl/src/core/../misc/lv_style.h ****  */
 149:Drivers/lvgl/lvgl/src/core/../misc/lv_style.h **** typedef struct {
 150:Drivers/lvgl/lvgl/src/core/../misc/lv_style.h ****     lv_color_t color;   /**< The stop color */
 151:Drivers/lvgl/lvgl/src/core/../misc/lv_style.h ****     uint8_t    frac;    /**< The stop position in 1/255 unit */
 152:Drivers/lvgl/lvgl/src/core/../misc/lv_style.h **** } lv_gradient_stop_t;
 153:Drivers/lvgl/lvgl/src/core/../misc/lv_style.h **** 
 154:Drivers/lvgl/lvgl/src/core/../misc/lv_style.h **** /** A descriptor of a gradient. */
 155:Drivers/lvgl/lvgl/src/core/../misc/lv_style.h **** typedef struct {
 156:Drivers/lvgl/lvgl/src/core/../misc/lv_style.h ****     lv_gradient_stop_t   stops[LV_GRADIENT_MAX_STOPS]; /**< A gradient stop array */
 157:Drivers/lvgl/lvgl/src/core/../misc/lv_style.h ****     uint8_t              stops_count;                  /**< The number of used stops in the array *
 158:Drivers/lvgl/lvgl/src/core/../misc/lv_style.h ****     lv_grad_dir_t        dir : 3;                      /**< The gradient direction.
 159:Drivers/lvgl/lvgl/src/core/../misc/lv_style.h ****                                                         * Any of LV_GRAD_DIR_HOR, LV_GRAD_DIR_VER, 
 160:Drivers/lvgl/lvgl/src/core/../misc/lv_style.h ****     lv_dither_mode_t     dither : 3;                   /**< Whether to dither the gradient or not.
 161:Drivers/lvgl/lvgl/src/core/../misc/lv_style.h ****                                                         * Any of LV_DITHER_NONE, LV_DITHER_ORDERED,
 162:Drivers/lvgl/lvgl/src/core/../misc/lv_style.h **** } lv_grad_dsc_t;
 163:Drivers/lvgl/lvgl/src/core/../misc/lv_style.h **** 
 164:Drivers/lvgl/lvgl/src/core/../misc/lv_style.h **** /**
 165:Drivers/lvgl/lvgl/src/core/../misc/lv_style.h ****  * A common type to handle all the property types in the same way.
 166:Drivers/lvgl/lvgl/src/core/../misc/lv_style.h ****  */
 167:Drivers/lvgl/lvgl/src/core/../misc/lv_style.h **** typedef union {
 168:Drivers/lvgl/lvgl/src/core/../misc/lv_style.h ****     int32_t num;         /**< Number integer number (opacity, enums, booleans or "normal" numbers)*
 169:Drivers/lvgl/lvgl/src/core/../misc/lv_style.h ****     const void * ptr;    /**< Constant pointers  (font, cone text, etc)*/
 170:Drivers/lvgl/lvgl/src/core/../misc/lv_style.h ****     lv_color_t color;    /**< Colors*/
 171:Drivers/lvgl/lvgl/src/core/../misc/lv_style.h **** } lv_style_value_t;
 172:Drivers/lvgl/lvgl/src/core/../misc/lv_style.h **** 
 173:Drivers/lvgl/lvgl/src/core/../misc/lv_style.h **** /**
 174:Drivers/lvgl/lvgl/src/core/../misc/lv_style.h ****  * Enumeration of all built in style properties
 175:Drivers/lvgl/lvgl/src/core/../misc/lv_style.h ****  *
 176:Drivers/lvgl/lvgl/src/core/../misc/lv_style.h ****  * Props are split into groups of 16. When adding a new prop to a group, ensure it does not overflo
 177:Drivers/lvgl/lvgl/src/core/../misc/lv_style.h ****  */
 178:Drivers/lvgl/lvgl/src/core/../misc/lv_style.h **** typedef enum {
ARM GAS  /tmp/ccJvwpHF.s 			page 58


 179:Drivers/lvgl/lvgl/src/core/../misc/lv_style.h ****     LV_STYLE_PROP_INV               = 0,
 180:Drivers/lvgl/lvgl/src/core/../misc/lv_style.h **** 
 181:Drivers/lvgl/lvgl/src/core/../misc/lv_style.h ****     /*Group 0*/
 182:Drivers/lvgl/lvgl/src/core/../misc/lv_style.h ****     LV_STYLE_WIDTH                  = 1,
 183:Drivers/lvgl/lvgl/src/core/../misc/lv_style.h ****     LV_STYLE_MIN_WIDTH              = 2,
 184:Drivers/lvgl/lvgl/src/core/../misc/lv_style.h ****     LV_STYLE_MAX_WIDTH              = 3,
 185:Drivers/lvgl/lvgl/src/core/../misc/lv_style.h ****     LV_STYLE_HEIGHT                 = 4,
 186:Drivers/lvgl/lvgl/src/core/../misc/lv_style.h ****     LV_STYLE_MIN_HEIGHT             = 5,
 187:Drivers/lvgl/lvgl/src/core/../misc/lv_style.h ****     LV_STYLE_MAX_HEIGHT             = 6,
 188:Drivers/lvgl/lvgl/src/core/../misc/lv_style.h ****     LV_STYLE_X                      = 7,
 189:Drivers/lvgl/lvgl/src/core/../misc/lv_style.h ****     LV_STYLE_Y                      = 8,
 190:Drivers/lvgl/lvgl/src/core/../misc/lv_style.h ****     LV_STYLE_ALIGN                  = 9,
 191:Drivers/lvgl/lvgl/src/core/../misc/lv_style.h ****     LV_STYLE_LAYOUT                 = 10,
 192:Drivers/lvgl/lvgl/src/core/../misc/lv_style.h ****     LV_STYLE_RADIUS                 = 11,
 193:Drivers/lvgl/lvgl/src/core/../misc/lv_style.h **** 
 194:Drivers/lvgl/lvgl/src/core/../misc/lv_style.h ****     /*Group 1*/
 195:Drivers/lvgl/lvgl/src/core/../misc/lv_style.h ****     LV_STYLE_PAD_TOP                = 16,
 196:Drivers/lvgl/lvgl/src/core/../misc/lv_style.h ****     LV_STYLE_PAD_BOTTOM             = 17,
 197:Drivers/lvgl/lvgl/src/core/../misc/lv_style.h ****     LV_STYLE_PAD_LEFT               = 18,
 198:Drivers/lvgl/lvgl/src/core/../misc/lv_style.h ****     LV_STYLE_PAD_RIGHT              = 19,
 199:Drivers/lvgl/lvgl/src/core/../misc/lv_style.h ****     LV_STYLE_PAD_ROW                = 20,
 200:Drivers/lvgl/lvgl/src/core/../misc/lv_style.h ****     LV_STYLE_PAD_COLUMN             = 21,
 201:Drivers/lvgl/lvgl/src/core/../misc/lv_style.h ****     LV_STYLE_BASE_DIR               = 22,
 202:Drivers/lvgl/lvgl/src/core/../misc/lv_style.h ****     LV_STYLE_CLIP_CORNER            = 23,
 203:Drivers/lvgl/lvgl/src/core/../misc/lv_style.h **** 
 204:Drivers/lvgl/lvgl/src/core/../misc/lv_style.h ****     /*Group 2*/
 205:Drivers/lvgl/lvgl/src/core/../misc/lv_style.h ****     LV_STYLE_BG_COLOR               = 32,
 206:Drivers/lvgl/lvgl/src/core/../misc/lv_style.h ****     LV_STYLE_BG_OPA                 = 33,
 207:Drivers/lvgl/lvgl/src/core/../misc/lv_style.h ****     LV_STYLE_BG_GRAD_COLOR          = 34,
 208:Drivers/lvgl/lvgl/src/core/../misc/lv_style.h ****     LV_STYLE_BG_GRAD_DIR            = 35,
 209:Drivers/lvgl/lvgl/src/core/../misc/lv_style.h ****     LV_STYLE_BG_MAIN_STOP           = 36,
 210:Drivers/lvgl/lvgl/src/core/../misc/lv_style.h ****     LV_STYLE_BG_GRAD_STOP           = 37,
 211:Drivers/lvgl/lvgl/src/core/../misc/lv_style.h ****     LV_STYLE_BG_GRAD                = 38,
 212:Drivers/lvgl/lvgl/src/core/../misc/lv_style.h ****     LV_STYLE_BG_DITHER_MODE         = 39,
 213:Drivers/lvgl/lvgl/src/core/../misc/lv_style.h ****     LV_STYLE_BG_IMG_SRC             = 40,
 214:Drivers/lvgl/lvgl/src/core/../misc/lv_style.h ****     LV_STYLE_BG_IMG_OPA             = 41,
 215:Drivers/lvgl/lvgl/src/core/../misc/lv_style.h ****     LV_STYLE_BG_IMG_RECOLOR         = 42,
 216:Drivers/lvgl/lvgl/src/core/../misc/lv_style.h ****     LV_STYLE_BG_IMG_RECOLOR_OPA     = 43,
 217:Drivers/lvgl/lvgl/src/core/../misc/lv_style.h ****     LV_STYLE_BG_IMG_TILED           = 44,
 218:Drivers/lvgl/lvgl/src/core/../misc/lv_style.h **** 
 219:Drivers/lvgl/lvgl/src/core/../misc/lv_style.h ****     /*Group 3*/
 220:Drivers/lvgl/lvgl/src/core/../misc/lv_style.h ****     LV_STYLE_BORDER_COLOR           = 48,
 221:Drivers/lvgl/lvgl/src/core/../misc/lv_style.h ****     LV_STYLE_BORDER_OPA             = 49,
 222:Drivers/lvgl/lvgl/src/core/../misc/lv_style.h ****     LV_STYLE_BORDER_WIDTH           = 50,
 223:Drivers/lvgl/lvgl/src/core/../misc/lv_style.h ****     LV_STYLE_BORDER_SIDE            = 51,
 224:Drivers/lvgl/lvgl/src/core/../misc/lv_style.h ****     LV_STYLE_BORDER_POST            = 52,
 225:Drivers/lvgl/lvgl/src/core/../misc/lv_style.h ****     LV_STYLE_OUTLINE_WIDTH          = 53,
 226:Drivers/lvgl/lvgl/src/core/../misc/lv_style.h ****     LV_STYLE_OUTLINE_COLOR          = 54,
 227:Drivers/lvgl/lvgl/src/core/../misc/lv_style.h ****     LV_STYLE_OUTLINE_OPA            = 55,
 228:Drivers/lvgl/lvgl/src/core/../misc/lv_style.h ****     LV_STYLE_OUTLINE_PAD            = 56,
 229:Drivers/lvgl/lvgl/src/core/../misc/lv_style.h **** 
 230:Drivers/lvgl/lvgl/src/core/../misc/lv_style.h ****     /*Group 4*/
 231:Drivers/lvgl/lvgl/src/core/../misc/lv_style.h ****     LV_STYLE_SHADOW_WIDTH           = 64,
 232:Drivers/lvgl/lvgl/src/core/../misc/lv_style.h ****     LV_STYLE_SHADOW_OFS_X           = 65,
 233:Drivers/lvgl/lvgl/src/core/../misc/lv_style.h ****     LV_STYLE_SHADOW_OFS_Y           = 66,
 234:Drivers/lvgl/lvgl/src/core/../misc/lv_style.h ****     LV_STYLE_SHADOW_SPREAD          = 67,
 235:Drivers/lvgl/lvgl/src/core/../misc/lv_style.h ****     LV_STYLE_SHADOW_COLOR           = 68,
ARM GAS  /tmp/ccJvwpHF.s 			page 59


 236:Drivers/lvgl/lvgl/src/core/../misc/lv_style.h ****     LV_STYLE_SHADOW_OPA             = 69,
 237:Drivers/lvgl/lvgl/src/core/../misc/lv_style.h ****     LV_STYLE_IMG_OPA                = 70,
 238:Drivers/lvgl/lvgl/src/core/../misc/lv_style.h ****     LV_STYLE_IMG_RECOLOR            = 71,
 239:Drivers/lvgl/lvgl/src/core/../misc/lv_style.h ****     LV_STYLE_IMG_RECOLOR_OPA        = 72,
 240:Drivers/lvgl/lvgl/src/core/../misc/lv_style.h ****     LV_STYLE_LINE_WIDTH             = 73,
 241:Drivers/lvgl/lvgl/src/core/../misc/lv_style.h ****     LV_STYLE_LINE_DASH_WIDTH        = 74,
 242:Drivers/lvgl/lvgl/src/core/../misc/lv_style.h ****     LV_STYLE_LINE_DASH_GAP          = 75,
 243:Drivers/lvgl/lvgl/src/core/../misc/lv_style.h ****     LV_STYLE_LINE_ROUNDED           = 76,
 244:Drivers/lvgl/lvgl/src/core/../misc/lv_style.h ****     LV_STYLE_LINE_COLOR             = 77,
 245:Drivers/lvgl/lvgl/src/core/../misc/lv_style.h ****     LV_STYLE_LINE_OPA               = 78,
 246:Drivers/lvgl/lvgl/src/core/../misc/lv_style.h **** 
 247:Drivers/lvgl/lvgl/src/core/../misc/lv_style.h ****     /*Group 5*/
 248:Drivers/lvgl/lvgl/src/core/../misc/lv_style.h ****     LV_STYLE_ARC_WIDTH              = 80,
 249:Drivers/lvgl/lvgl/src/core/../misc/lv_style.h ****     LV_STYLE_ARC_ROUNDED            = 81,
 250:Drivers/lvgl/lvgl/src/core/../misc/lv_style.h ****     LV_STYLE_ARC_COLOR              = 82,
 251:Drivers/lvgl/lvgl/src/core/../misc/lv_style.h ****     LV_STYLE_ARC_OPA                = 83,
 252:Drivers/lvgl/lvgl/src/core/../misc/lv_style.h ****     LV_STYLE_ARC_IMG_SRC            = 84,
 253:Drivers/lvgl/lvgl/src/core/../misc/lv_style.h ****     LV_STYLE_TEXT_COLOR             = 85,
 254:Drivers/lvgl/lvgl/src/core/../misc/lv_style.h ****     LV_STYLE_TEXT_OPA               = 86,
 255:Drivers/lvgl/lvgl/src/core/../misc/lv_style.h ****     LV_STYLE_TEXT_FONT              = 87,
 256:Drivers/lvgl/lvgl/src/core/../misc/lv_style.h ****     LV_STYLE_TEXT_LETTER_SPACE      = 88,
 257:Drivers/lvgl/lvgl/src/core/../misc/lv_style.h ****     LV_STYLE_TEXT_LINE_SPACE        = 89,
 258:Drivers/lvgl/lvgl/src/core/../misc/lv_style.h ****     LV_STYLE_TEXT_DECOR             = 90,
 259:Drivers/lvgl/lvgl/src/core/../misc/lv_style.h ****     LV_STYLE_TEXT_ALIGN             = 91,
 260:Drivers/lvgl/lvgl/src/core/../misc/lv_style.h **** 
 261:Drivers/lvgl/lvgl/src/core/../misc/lv_style.h ****     /*Group 6*/
 262:Drivers/lvgl/lvgl/src/core/../misc/lv_style.h ****     LV_STYLE_OPA                    = 96,
 263:Drivers/lvgl/lvgl/src/core/../misc/lv_style.h ****     LV_STYLE_COLOR_FILTER_DSC       = 97,
 264:Drivers/lvgl/lvgl/src/core/../misc/lv_style.h ****     LV_STYLE_COLOR_FILTER_OPA       = 98,
 265:Drivers/lvgl/lvgl/src/core/../misc/lv_style.h ****     LV_STYLE_ANIM                   = 99,
 266:Drivers/lvgl/lvgl/src/core/../misc/lv_style.h ****     LV_STYLE_ANIM_TIME              = 100,
 267:Drivers/lvgl/lvgl/src/core/../misc/lv_style.h ****     LV_STYLE_ANIM_SPEED             = 101,
 268:Drivers/lvgl/lvgl/src/core/../misc/lv_style.h ****     LV_STYLE_TRANSITION             = 102,
 269:Drivers/lvgl/lvgl/src/core/../misc/lv_style.h ****     LV_STYLE_BLEND_MODE             = 103,
 270:Drivers/lvgl/lvgl/src/core/../misc/lv_style.h ****     LV_STYLE_TRANSFORM_WIDTH        = 104,
 271:Drivers/lvgl/lvgl/src/core/../misc/lv_style.h ****     LV_STYLE_TRANSFORM_HEIGHT       = 105,
 272:Drivers/lvgl/lvgl/src/core/../misc/lv_style.h ****     LV_STYLE_TRANSLATE_X            = 106,
 273:Drivers/lvgl/lvgl/src/core/../misc/lv_style.h ****     LV_STYLE_TRANSLATE_Y            = 107,
 274:Drivers/lvgl/lvgl/src/core/../misc/lv_style.h ****     LV_STYLE_TRANSFORM_ZOOM         = 108,
 275:Drivers/lvgl/lvgl/src/core/../misc/lv_style.h ****     LV_STYLE_TRANSFORM_ANGLE        = 109,
 276:Drivers/lvgl/lvgl/src/core/../misc/lv_style.h ****     LV_STYLE_TRANSFORM_PIVOT_X      = 110,
 277:Drivers/lvgl/lvgl/src/core/../misc/lv_style.h ****     LV_STYLE_TRANSFORM_PIVOT_Y      = 111,
 278:Drivers/lvgl/lvgl/src/core/../misc/lv_style.h **** 
 279:Drivers/lvgl/lvgl/src/core/../misc/lv_style.h ****     _LV_STYLE_LAST_BUILT_IN_PROP     = 111,
 280:Drivers/lvgl/lvgl/src/core/../misc/lv_style.h ****     _LV_STYLE_NUM_BUILT_IN_PROPS     = _LV_STYLE_LAST_BUILT_IN_PROP + 1,
 281:Drivers/lvgl/lvgl/src/core/../misc/lv_style.h **** 
 282:Drivers/lvgl/lvgl/src/core/../misc/lv_style.h ****     LV_STYLE_PROP_ANY                = 0xFFFF,
 283:Drivers/lvgl/lvgl/src/core/../misc/lv_style.h ****     _LV_STYLE_PROP_CONST             = 0xFFFF /* magic value for const styles */
 284:Drivers/lvgl/lvgl/src/core/../misc/lv_style.h **** } lv_style_prop_t;
 285:Drivers/lvgl/lvgl/src/core/../misc/lv_style.h **** 
 286:Drivers/lvgl/lvgl/src/core/../misc/lv_style.h **** enum {
 287:Drivers/lvgl/lvgl/src/core/../misc/lv_style.h ****     LV_STYLE_RES_NOT_FOUND,
 288:Drivers/lvgl/lvgl/src/core/../misc/lv_style.h ****     LV_STYLE_RES_FOUND,
 289:Drivers/lvgl/lvgl/src/core/../misc/lv_style.h ****     LV_STYLE_RES_INHERIT
 290:Drivers/lvgl/lvgl/src/core/../misc/lv_style.h **** };
 291:Drivers/lvgl/lvgl/src/core/../misc/lv_style.h **** 
 292:Drivers/lvgl/lvgl/src/core/../misc/lv_style.h **** typedef uint8_t lv_style_res_t;
ARM GAS  /tmp/ccJvwpHF.s 			page 60


 293:Drivers/lvgl/lvgl/src/core/../misc/lv_style.h **** 
 294:Drivers/lvgl/lvgl/src/core/../misc/lv_style.h **** /**
 295:Drivers/lvgl/lvgl/src/core/../misc/lv_style.h ****  * Descriptor for style transitions
 296:Drivers/lvgl/lvgl/src/core/../misc/lv_style.h ****  */
 297:Drivers/lvgl/lvgl/src/core/../misc/lv_style.h **** typedef struct {
 298:Drivers/lvgl/lvgl/src/core/../misc/lv_style.h ****     const lv_style_prop_t * props; /**< An array with the properties to animate.*/
 299:Drivers/lvgl/lvgl/src/core/../misc/lv_style.h **** #if LV_USE_USER_DATA
 300:Drivers/lvgl/lvgl/src/core/../misc/lv_style.h ****     void * user_data;              /**< A custom user data that will be passed to the animation's u
 301:Drivers/lvgl/lvgl/src/core/../misc/lv_style.h **** #endif
 302:Drivers/lvgl/lvgl/src/core/../misc/lv_style.h ****     lv_anim_path_cb_t path_xcb;     /**< A path for the animation.*/
 303:Drivers/lvgl/lvgl/src/core/../misc/lv_style.h ****     uint32_t time;                 /**< Duration of the transition in [ms]*/
 304:Drivers/lvgl/lvgl/src/core/../misc/lv_style.h ****     uint32_t delay;                /**< Delay before the transition in [ms]*/
 305:Drivers/lvgl/lvgl/src/core/../misc/lv_style.h **** } lv_style_transition_dsc_t;
 306:Drivers/lvgl/lvgl/src/core/../misc/lv_style.h **** 
 307:Drivers/lvgl/lvgl/src/core/../misc/lv_style.h **** /**
 308:Drivers/lvgl/lvgl/src/core/../misc/lv_style.h ****  * Descriptor of a constant style property.
 309:Drivers/lvgl/lvgl/src/core/../misc/lv_style.h ****  */
 310:Drivers/lvgl/lvgl/src/core/../misc/lv_style.h **** typedef struct {
 311:Drivers/lvgl/lvgl/src/core/../misc/lv_style.h ****     lv_style_prop_t prop;
 312:Drivers/lvgl/lvgl/src/core/../misc/lv_style.h ****     lv_style_value_t value;
 313:Drivers/lvgl/lvgl/src/core/../misc/lv_style.h **** } lv_style_const_prop_t;
 314:Drivers/lvgl/lvgl/src/core/../misc/lv_style.h **** 
 315:Drivers/lvgl/lvgl/src/core/../misc/lv_style.h **** /**
 316:Drivers/lvgl/lvgl/src/core/../misc/lv_style.h ****  * Descriptor of a style (a collection of properties and values).
 317:Drivers/lvgl/lvgl/src/core/../misc/lv_style.h ****  */
 318:Drivers/lvgl/lvgl/src/core/../misc/lv_style.h **** typedef struct {
 319:Drivers/lvgl/lvgl/src/core/../misc/lv_style.h **** 
 320:Drivers/lvgl/lvgl/src/core/../misc/lv_style.h **** #if LV_USE_ASSERT_STYLE
 321:Drivers/lvgl/lvgl/src/core/../misc/lv_style.h ****     uint32_t sentinel;
 322:Drivers/lvgl/lvgl/src/core/../misc/lv_style.h **** #endif
 323:Drivers/lvgl/lvgl/src/core/../misc/lv_style.h **** 
 324:Drivers/lvgl/lvgl/src/core/../misc/lv_style.h ****     /*If there is only one property store it directly.
 325:Drivers/lvgl/lvgl/src/core/../misc/lv_style.h ****      *For more properties allocate an array*/
 326:Drivers/lvgl/lvgl/src/core/../misc/lv_style.h ****     union {
 327:Drivers/lvgl/lvgl/src/core/../misc/lv_style.h ****         lv_style_value_t value1;
 328:Drivers/lvgl/lvgl/src/core/../misc/lv_style.h ****         uint8_t * values_and_props;
 329:Drivers/lvgl/lvgl/src/core/../misc/lv_style.h ****         const lv_style_const_prop_t * const_props;
 330:Drivers/lvgl/lvgl/src/core/../misc/lv_style.h ****     } v_p;
 331:Drivers/lvgl/lvgl/src/core/../misc/lv_style.h **** 
 332:Drivers/lvgl/lvgl/src/core/../misc/lv_style.h ****     uint16_t prop1;
 333:Drivers/lvgl/lvgl/src/core/../misc/lv_style.h ****     uint8_t has_group;
 334:Drivers/lvgl/lvgl/src/core/../misc/lv_style.h ****     uint8_t prop_cnt;
 335:Drivers/lvgl/lvgl/src/core/../misc/lv_style.h **** } lv_style_t;
 336:Drivers/lvgl/lvgl/src/core/../misc/lv_style.h **** 
 337:Drivers/lvgl/lvgl/src/core/../misc/lv_style.h **** /**********************
 338:Drivers/lvgl/lvgl/src/core/../misc/lv_style.h ****  * GLOBAL PROTOTYPES
 339:Drivers/lvgl/lvgl/src/core/../misc/lv_style.h ****  **********************/
 340:Drivers/lvgl/lvgl/src/core/../misc/lv_style.h **** 
 341:Drivers/lvgl/lvgl/src/core/../misc/lv_style.h **** 
 342:Drivers/lvgl/lvgl/src/core/../misc/lv_style.h **** /**
 343:Drivers/lvgl/lvgl/src/core/../misc/lv_style.h ****  * Initialize a style
 344:Drivers/lvgl/lvgl/src/core/../misc/lv_style.h ****  * @param style pointer to a style to initialize
 345:Drivers/lvgl/lvgl/src/core/../misc/lv_style.h ****  * @note Do not call `lv_style_init` on styles that already have some properties
 346:Drivers/lvgl/lvgl/src/core/../misc/lv_style.h ****  *       because this function won't free the used memory, just sets a default state for the style.
 347:Drivers/lvgl/lvgl/src/core/../misc/lv_style.h ****  *       In other words be sure to initialize styles only once!
 348:Drivers/lvgl/lvgl/src/core/../misc/lv_style.h ****  */
 349:Drivers/lvgl/lvgl/src/core/../misc/lv_style.h **** void lv_style_init(lv_style_t * style);
ARM GAS  /tmp/ccJvwpHF.s 			page 61


 350:Drivers/lvgl/lvgl/src/core/../misc/lv_style.h **** 
 351:Drivers/lvgl/lvgl/src/core/../misc/lv_style.h **** /**
 352:Drivers/lvgl/lvgl/src/core/../misc/lv_style.h ****  * Clear all properties from a style and free all allocated memories.
 353:Drivers/lvgl/lvgl/src/core/../misc/lv_style.h ****  * @param style pointer to a style
 354:Drivers/lvgl/lvgl/src/core/../misc/lv_style.h ****  */
 355:Drivers/lvgl/lvgl/src/core/../misc/lv_style.h **** void lv_style_reset(lv_style_t * style);
 356:Drivers/lvgl/lvgl/src/core/../misc/lv_style.h **** 
 357:Drivers/lvgl/lvgl/src/core/../misc/lv_style.h **** /**
 358:Drivers/lvgl/lvgl/src/core/../misc/lv_style.h ****  * Register a new style property for custom usage
 359:Drivers/lvgl/lvgl/src/core/../misc/lv_style.h ****  * @return a new property ID, or LV_STYLE_PROP_INV if there are no more available.
 360:Drivers/lvgl/lvgl/src/core/../misc/lv_style.h ****  * @example
 361:Drivers/lvgl/lvgl/src/core/../misc/lv_style.h ****  * lv_style_prop_t MY_PROP;
 362:Drivers/lvgl/lvgl/src/core/../misc/lv_style.h ****  * static inline void lv_style_set_my_prop(lv_style_t * style, lv_color_t value) {
 363:Drivers/lvgl/lvgl/src/core/../misc/lv_style.h ****  * lv_style_value_t v = {.color = value}; lv_style_set_prop(style, MY_PROP, v); }
 364:Drivers/lvgl/lvgl/src/core/../misc/lv_style.h ****  *
 365:Drivers/lvgl/lvgl/src/core/../misc/lv_style.h ****  * ...
 366:Drivers/lvgl/lvgl/src/core/../misc/lv_style.h ****  * MY_PROP = lv_style_register_prop();
 367:Drivers/lvgl/lvgl/src/core/../misc/lv_style.h ****  * ...
 368:Drivers/lvgl/lvgl/src/core/../misc/lv_style.h ****  * lv_style_set_my_prop(&style1, lv_palette_main(LV_PALETTE_RED));
 369:Drivers/lvgl/lvgl/src/core/../misc/lv_style.h ****  */
 370:Drivers/lvgl/lvgl/src/core/../misc/lv_style.h **** lv_style_prop_t lv_style_register_prop(uint8_t flag);
 371:Drivers/lvgl/lvgl/src/core/../misc/lv_style.h **** 
 372:Drivers/lvgl/lvgl/src/core/../misc/lv_style.h **** /**
 373:Drivers/lvgl/lvgl/src/core/../misc/lv_style.h ****  * Get the number of custom properties that have been registered thus far.
 374:Drivers/lvgl/lvgl/src/core/../misc/lv_style.h ****  */
 375:Drivers/lvgl/lvgl/src/core/../misc/lv_style.h **** lv_style_prop_t lv_style_get_num_custom_props(void);
 376:Drivers/lvgl/lvgl/src/core/../misc/lv_style.h **** 
 377:Drivers/lvgl/lvgl/src/core/../misc/lv_style.h **** /**
 378:Drivers/lvgl/lvgl/src/core/../misc/lv_style.h ****  * Remove a property from a style
 379:Drivers/lvgl/lvgl/src/core/../misc/lv_style.h ****  * @param style pointer to a style
 380:Drivers/lvgl/lvgl/src/core/../misc/lv_style.h ****  * @param prop  a style property ORed with a state.
 381:Drivers/lvgl/lvgl/src/core/../misc/lv_style.h ****  * @return true: the property was found and removed; false: the property wasn't found
 382:Drivers/lvgl/lvgl/src/core/../misc/lv_style.h ****  */
 383:Drivers/lvgl/lvgl/src/core/../misc/lv_style.h **** bool lv_style_remove_prop(lv_style_t * style, lv_style_prop_t prop);
 384:Drivers/lvgl/lvgl/src/core/../misc/lv_style.h **** 
 385:Drivers/lvgl/lvgl/src/core/../misc/lv_style.h **** /**
 386:Drivers/lvgl/lvgl/src/core/../misc/lv_style.h ****  * Set the value of property in a style.
 387:Drivers/lvgl/lvgl/src/core/../misc/lv_style.h ****  * This function shouldn't be used directly by the user.
 388:Drivers/lvgl/lvgl/src/core/../misc/lv_style.h ****  * Instead use `lv_style_set_<prop_name>()`. E.g. `lv_style_set_bg_color()`
 389:Drivers/lvgl/lvgl/src/core/../misc/lv_style.h ****  * @param style pointer to style
 390:Drivers/lvgl/lvgl/src/core/../misc/lv_style.h ****  * @param prop the ID of a property (e.g. `LV_STYLE_BG_COLOR`)
 391:Drivers/lvgl/lvgl/src/core/../misc/lv_style.h ****  * @param value `lv_style_value_t` variable in which a field is set according to the type of `prop`
 392:Drivers/lvgl/lvgl/src/core/../misc/lv_style.h ****  */
 393:Drivers/lvgl/lvgl/src/core/../misc/lv_style.h **** void lv_style_set_prop(lv_style_t * style, lv_style_prop_t prop, lv_style_value_t value);
 394:Drivers/lvgl/lvgl/src/core/../misc/lv_style.h **** 
 395:Drivers/lvgl/lvgl/src/core/../misc/lv_style.h **** /**
 396:Drivers/lvgl/lvgl/src/core/../misc/lv_style.h ****  * Set a special meta state for a property in a style.
 397:Drivers/lvgl/lvgl/src/core/../misc/lv_style.h ****  * This function shouldn't be used directly by the user.
 398:Drivers/lvgl/lvgl/src/core/../misc/lv_style.h ****  * @param style pointer to style
 399:Drivers/lvgl/lvgl/src/core/../misc/lv_style.h ****  * @param prop the ID of a property (e.g. `LV_STYLE_BG_COLOR`)
 400:Drivers/lvgl/lvgl/src/core/../misc/lv_style.h ****  * @param meta the meta value to attach to the property in the style
 401:Drivers/lvgl/lvgl/src/core/../misc/lv_style.h ****  */
 402:Drivers/lvgl/lvgl/src/core/../misc/lv_style.h **** void lv_style_set_prop_meta(lv_style_t * style, lv_style_prop_t prop, uint16_t meta);
 403:Drivers/lvgl/lvgl/src/core/../misc/lv_style.h **** 
 404:Drivers/lvgl/lvgl/src/core/../misc/lv_style.h **** /**
 405:Drivers/lvgl/lvgl/src/core/../misc/lv_style.h ****  * Get the value of a property
 406:Drivers/lvgl/lvgl/src/core/../misc/lv_style.h ****  * @param style pointer to a style
ARM GAS  /tmp/ccJvwpHF.s 			page 62


 407:Drivers/lvgl/lvgl/src/core/../misc/lv_style.h ****  * @param prop  the ID of a property
 408:Drivers/lvgl/lvgl/src/core/../misc/lv_style.h ****  * @param value pointer to a `lv_style_value_t` variable to store the value
 409:Drivers/lvgl/lvgl/src/core/../misc/lv_style.h ****  * @return LV_RES_INV: the property wasn't found in the style (`value` is unchanged)
 410:Drivers/lvgl/lvgl/src/core/../misc/lv_style.h ****  *         LV_RES_OK: the property was fond, and `value` is set accordingly
 411:Drivers/lvgl/lvgl/src/core/../misc/lv_style.h ****  * @note For performance reasons there are no sanity check on `style`
 412:Drivers/lvgl/lvgl/src/core/../misc/lv_style.h ****  */
 413:Drivers/lvgl/lvgl/src/core/../misc/lv_style.h **** lv_style_res_t lv_style_get_prop(const lv_style_t * style, lv_style_prop_t prop, lv_style_value_t *
 414:Drivers/lvgl/lvgl/src/core/../misc/lv_style.h **** 
 415:Drivers/lvgl/lvgl/src/core/../misc/lv_style.h **** /**
 416:Drivers/lvgl/lvgl/src/core/../misc/lv_style.h ****  * Initialize a transition descriptor.
 417:Drivers/lvgl/lvgl/src/core/../misc/lv_style.h ****  * @param tr        pointer to a transition descriptor to initialize
 418:Drivers/lvgl/lvgl/src/core/../misc/lv_style.h ****  * @param props     an array with the properties to transition. The last element must be zero.
 419:Drivers/lvgl/lvgl/src/core/../misc/lv_style.h ****  * @param path_cb   an animation path (ease) callback. If `NULL` liner path will be used.
 420:Drivers/lvgl/lvgl/src/core/../misc/lv_style.h ****  * @param time      duration of the transition in [ms]
 421:Drivers/lvgl/lvgl/src/core/../misc/lv_style.h ****  * @param delay     delay before the transition in [ms]
 422:Drivers/lvgl/lvgl/src/core/../misc/lv_style.h ****  * @param user_data any custom data that will be saved in the transition animation and will be avai
 423:Drivers/lvgl/lvgl/src/core/../misc/lv_style.h ****  * @example
 424:Drivers/lvgl/lvgl/src/core/../misc/lv_style.h ****  * const static lv_style_prop_t trans_props[] = { LV_STYLE_BG_OPA, LV_STYLE_BG_COLOR, 0 };
 425:Drivers/lvgl/lvgl/src/core/../misc/lv_style.h ****  *  static lv_style_transition_dsc_t trans1;
 426:Drivers/lvgl/lvgl/src/core/../misc/lv_style.h ****  *  lv_style_transition_dsc_init(&trans1, trans_props, NULL, 300, 0, NULL);
 427:Drivers/lvgl/lvgl/src/core/../misc/lv_style.h ****  */
 428:Drivers/lvgl/lvgl/src/core/../misc/lv_style.h **** void lv_style_transition_dsc_init(lv_style_transition_dsc_t * tr, const lv_style_prop_t props[],
 429:Drivers/lvgl/lvgl/src/core/../misc/lv_style.h ****                                   lv_anim_path_cb_t path_cb, uint32_t time, uint32_t delay, void * 
 430:Drivers/lvgl/lvgl/src/core/../misc/lv_style.h **** 
 431:Drivers/lvgl/lvgl/src/core/../misc/lv_style.h **** /**
 432:Drivers/lvgl/lvgl/src/core/../misc/lv_style.h ****  * Get the default value of a property
 433:Drivers/lvgl/lvgl/src/core/../misc/lv_style.h ****  * @param prop the ID of a property
 434:Drivers/lvgl/lvgl/src/core/../misc/lv_style.h ****  * @return the default value
 435:Drivers/lvgl/lvgl/src/core/../misc/lv_style.h ****  */
 436:Drivers/lvgl/lvgl/src/core/../misc/lv_style.h **** lv_style_value_t lv_style_prop_get_default(lv_style_prop_t prop);
 437:Drivers/lvgl/lvgl/src/core/../misc/lv_style.h **** 
 438:Drivers/lvgl/lvgl/src/core/../misc/lv_style.h **** /**
 439:Drivers/lvgl/lvgl/src/core/../misc/lv_style.h ****  * Get the value of a property
 440:Drivers/lvgl/lvgl/src/core/../misc/lv_style.h ****  * @param style pointer to a style
 441:Drivers/lvgl/lvgl/src/core/../misc/lv_style.h ****  * @param prop  the ID of a property
 442:Drivers/lvgl/lvgl/src/core/../misc/lv_style.h ****  * @param value pointer to a `lv_style_value_t` variable to store the value
 443:Drivers/lvgl/lvgl/src/core/../misc/lv_style.h ****  * @return LV_RES_INV: the property wasn't found in the style (`value` is unchanged)
 444:Drivers/lvgl/lvgl/src/core/../misc/lv_style.h ****  *         LV_RES_OK: the property was fond, and `value` is set accordingly
 445:Drivers/lvgl/lvgl/src/core/../misc/lv_style.h ****  * @note For performance reasons there are no sanity check on `style`
 446:Drivers/lvgl/lvgl/src/core/../misc/lv_style.h ****  * @note This function is the same as ::lv_style_get_prop but inlined. Use it only on performance c
 447:Drivers/lvgl/lvgl/src/core/../misc/lv_style.h ****  */
 448:Drivers/lvgl/lvgl/src/core/../misc/lv_style.h **** static inline lv_style_res_t lv_style_get_prop_inlined(const lv_style_t * style, lv_style_prop_t pr
 449:Drivers/lvgl/lvgl/src/core/../misc/lv_style.h ****                                                        lv_style_value_t * value)
 450:Drivers/lvgl/lvgl/src/core/../misc/lv_style.h **** {
 451:Drivers/lvgl/lvgl/src/core/../misc/lv_style.h ****     if(style->prop1 == LV_STYLE_PROP_ANY) {
 452:Drivers/lvgl/lvgl/src/core/../misc/lv_style.h ****         const lv_style_const_prop_t * const_prop;
 453:Drivers/lvgl/lvgl/src/core/../misc/lv_style.h ****         uint32_t i;
 454:Drivers/lvgl/lvgl/src/core/../misc/lv_style.h ****         for(i = 0; i < style->prop_cnt; i++) {
 455:Drivers/lvgl/lvgl/src/core/../misc/lv_style.h ****             const_prop = style->v_p.const_props + i;
 456:Drivers/lvgl/lvgl/src/core/../misc/lv_style.h ****             lv_style_prop_t prop_id = LV_STYLE_PROP_ID_MASK(const_prop->prop);
 457:Drivers/lvgl/lvgl/src/core/../misc/lv_style.h ****             if(prop_id == prop) {
 458:Drivers/lvgl/lvgl/src/core/../misc/lv_style.h ****                 if(const_prop->prop & LV_STYLE_PROP_META_INHERIT)
 1307              		.loc 4 458 0
 1308 0042 11F4004F 		tst	r1, #32768
 1309 0046 43D1     		bne	.L98
 459:Drivers/lvgl/lvgl/src/core/../misc/lv_style.h ****                     return LV_STYLE_RES_INHERIT;
 460:Drivers/lvgl/lvgl/src/core/../misc/lv_style.h ****                 *value = (const_prop->prop & LV_STYLE_PROP_META_INITIAL) ? lv_style_prop_get_defaul
ARM GAS  /tmp/ccJvwpHF.s 			page 63


 1310              		.loc 4 460 0
 1311 0048 11F4804F 		tst	r1, #16384
 1312 004c 03D1     		bne	.L109
 1313 004e 6368     		ldr	r3, [r4, #4]
 1314              	.LVL156:
 1315 0050 0B93     		str	r3, [sp, #44]
 461:Drivers/lvgl/lvgl/src/core/../misc/lv_style.h ****                 return LV_STYLE_RES_FOUND;
 1316              		.loc 4 461 0
 1317 0052 0123     		movs	r3, #1
 1318              	.LVL157:
 1319 0054 3FE0     		b	.L73
 1320              	.LVL158:
 1321              	.L109:
 460:Drivers/lvgl/lvgl/src/core/../misc/lv_style.h ****                 return LV_STYLE_RES_FOUND;
 1322              		.loc 4 460 0
 1323 0056 FFF7FEFF 		bl	lv_style_prop_get_default
 1324              	.LVL159:
 1325 005a 0B90     		str	r0, [sp, #44]
 1326              		.loc 4 461 0
 1327 005c 0123     		movs	r3, #1
 1328 005e 3AE0     		b	.L73
 1329              	.LVL160:
 1330              	.L117:
 1331              	.LBE178:
 454:Drivers/lvgl/lvgl/src/core/../misc/lv_style.h ****             const_prop = style->v_p.const_props + i;
 1332              		.loc 4 454 0
 1333 0060 0023     		movs	r3, #0
 1334              	.LVL161:
 1335              	.L70:
 1336 0062 D179     		ldrb	r1, [r2, #7]	@ zero_extendqisi2
 1337 0064 8B42     		cmp	r3, r1
 1338 0066 0AD2     		bcs	.L110
 1339              	.LBB179:
 455:Drivers/lvgl/lvgl/src/core/../misc/lv_style.h ****             lv_style_prop_t prop_id = LV_STYLE_PROP_ID_MASK(const_prop->prop);
 1340              		.loc 4 455 0
 1341 0068 1168     		ldr	r1, [r2]
 1342 006a 01EBC304 		add	r4, r1, r3, lsl #3
 1343              	.LVL162:
 456:Drivers/lvgl/lvgl/src/core/../misc/lv_style.h ****             if(prop_id == prop) {
 1344              		.loc 4 456 0
 1345 006e 31F83310 		ldrh	r1, [r1, r3, lsl #3]
 1346 0072 C1F30D00 		ubfx	r0, r1, #0, #14
 1347              	.LVL163:
 457:Drivers/lvgl/lvgl/src/core/../misc/lv_style.h ****                 if(const_prop->prop & LV_STYLE_PROP_META_INHERIT)
 1348              		.loc 4 457 0
 1349 0076 6628     		cmp	r0, #102
 1350 0078 E3D0     		beq	.L111
 1351              	.LBE179:
 454:Drivers/lvgl/lvgl/src/core/../misc/lv_style.h ****             const_prop = style->v_p.const_props + i;
 1352              		.loc 4 454 0
 1353 007a 0133     		adds	r3, r3, #1
 1354              	.LVL164:
 1355 007c F1E7     		b	.L70
 1356              	.LVL165:
 1357              	.L110:
 462:Drivers/lvgl/lvgl/src/core/../misc/lv_style.h ****             }
 463:Drivers/lvgl/lvgl/src/core/../misc/lv_style.h ****         }
ARM GAS  /tmp/ccJvwpHF.s 			page 64


 464:Drivers/lvgl/lvgl/src/core/../misc/lv_style.h ****         return LV_STYLE_RES_NOT_FOUND;
 1358              		.loc 4 464 0
 1359 007e 0023     		movs	r3, #0
 1360              	.LVL166:
 1361 0080 29E0     		b	.L73
 1362              	.LVL167:
 1363              	.L119:
 1364              	.LBE177:
 1365              	.LBB181:
 1366              	.LBB182:
 465:Drivers/lvgl/lvgl/src/core/../misc/lv_style.h ****     }
 466:Drivers/lvgl/lvgl/src/core/../misc/lv_style.h **** 
 467:Drivers/lvgl/lvgl/src/core/../misc/lv_style.h ****     if(style->prop_cnt == 0) return LV_STYLE_RES_NOT_FOUND;
 468:Drivers/lvgl/lvgl/src/core/../misc/lv_style.h **** 
 469:Drivers/lvgl/lvgl/src/core/../misc/lv_style.h ****     if(style->prop_cnt > 1) {
 470:Drivers/lvgl/lvgl/src/core/../misc/lv_style.h ****         uint8_t * tmp = style->v_p.values_and_props + style->prop_cnt * sizeof(lv_style_value_t);
 471:Drivers/lvgl/lvgl/src/core/../misc/lv_style.h ****         uint16_t * props = (uint16_t *)tmp;
 472:Drivers/lvgl/lvgl/src/core/../misc/lv_style.h ****         uint32_t i;
 473:Drivers/lvgl/lvgl/src/core/../misc/lv_style.h ****         for(i = 0; i < style->prop_cnt; i++) {
 474:Drivers/lvgl/lvgl/src/core/../misc/lv_style.h ****             lv_style_prop_t prop_id = LV_STYLE_PROP_ID_MASK(props[i]);
 475:Drivers/lvgl/lvgl/src/core/../misc/lv_style.h ****             if(prop_id == prop) {
 476:Drivers/lvgl/lvgl/src/core/../misc/lv_style.h ****                 if(props[i] & LV_STYLE_PROP_META_INHERIT)
 1367              		.loc 4 476 0
 1368 0082 11F4004F 		tst	r1, #32768
 1369 0086 6ED1     		bne	.L100
 477:Drivers/lvgl/lvgl/src/core/../misc/lv_style.h ****                     return LV_STYLE_RES_INHERIT;
 478:Drivers/lvgl/lvgl/src/core/../misc/lv_style.h ****                 if(props[i] & LV_STYLE_PROP_META_INITIAL)
 1370              		.loc 4 478 0
 1371 0088 11F4804F 		tst	r1, #16384
 1372 008c 04D1     		bne	.L112
 1373              	.LVL168:
 1374              	.LBB183:
 479:Drivers/lvgl/lvgl/src/core/../misc/lv_style.h ****                     *value = lv_style_prop_get_default(prop_id);
 480:Drivers/lvgl/lvgl/src/core/../misc/lv_style.h ****                 else {
 481:Drivers/lvgl/lvgl/src/core/../misc/lv_style.h ****                     lv_style_value_t * values = (lv_style_value_t *)style->v_p.values_and_props;
 482:Drivers/lvgl/lvgl/src/core/../misc/lv_style.h ****                     *value = values[i];
 1375              		.loc 4 482 0
 1376 008e 55F82330 		ldr	r3, [r5, r3, lsl #2]
 1377              	.LVL169:
 1378 0092 0B93     		str	r3, [sp, #44]
 1379              	.LBE183:
 483:Drivers/lvgl/lvgl/src/core/../misc/lv_style.h ****                 }
 484:Drivers/lvgl/lvgl/src/core/../misc/lv_style.h ****                 return LV_STYLE_RES_FOUND;
 1380              		.loc 4 484 0
 1381 0094 0123     		movs	r3, #1
 1382              	.LVL170:
 1383 0096 1EE0     		b	.L73
 1384              	.LVL171:
 1385              	.L112:
 479:Drivers/lvgl/lvgl/src/core/../misc/lv_style.h ****                     *value = lv_style_prop_get_default(prop_id);
 1386              		.loc 4 479 0
 1387 0098 FFF7FEFF 		bl	lv_style_prop_get_default
 1388              	.LVL172:
 1389 009c 0B90     		str	r0, [sp, #44]
 1390              		.loc 4 484 0
 1391 009e 0123     		movs	r3, #1
 1392 00a0 19E0     		b	.L73
ARM GAS  /tmp/ccJvwpHF.s 			page 65


 1393              	.LVL173:
 1394              	.L118:
 1395              	.LBE182:
 1396              	.LBE181:
 485:Drivers/lvgl/lvgl/src/core/../misc/lv_style.h ****             }
 486:Drivers/lvgl/lvgl/src/core/../misc/lv_style.h ****         }
 487:Drivers/lvgl/lvgl/src/core/../misc/lv_style.h ****     }
 488:Drivers/lvgl/lvgl/src/core/../misc/lv_style.h ****     else if(LV_STYLE_PROP_ID_MASK(style->prop1) == prop) {
 489:Drivers/lvgl/lvgl/src/core/../misc/lv_style.h ****         if(style->prop1 & LV_STYLE_PROP_META_INHERIT)
 490:Drivers/lvgl/lvgl/src/core/../misc/lv_style.h ****             return LV_STYLE_RES_INHERIT;
 491:Drivers/lvgl/lvgl/src/core/../misc/lv_style.h ****         *value = (style->prop1 & LV_STYLE_PROP_META_INITIAL) ? lv_style_prop_get_default(LV_STYLE_P
 492:Drivers/lvgl/lvgl/src/core/../misc/lv_style.h ****                                                                                              style-
 493:Drivers/lvgl/lvgl/src/core/../misc/lv_style.h ****         return LV_STYLE_RES_FOUND;
 494:Drivers/lvgl/lvgl/src/core/../misc/lv_style.h ****     }
 495:Drivers/lvgl/lvgl/src/core/../misc/lv_style.h ****     return LV_STYLE_RES_NOT_FOUND;
 1397              		.loc 4 495 0
 1398 00a2 0023     		movs	r3, #0
 1399              	.LVL174:
 1400 00a4 17E0     		b	.L73
 1401              	.LVL175:
 1402              	.L76:
 1403 00a6 C1F30D00 		ubfx	r0, r1, #0, #14
 1404              	.LVL176:
 488:Drivers/lvgl/lvgl/src/core/../misc/lv_style.h ****         if(style->prop1 & LV_STYLE_PROP_META_INHERIT)
 1405              		.loc 4 488 0
 1406 00aa 6628     		cmp	r0, #102
 1407 00ac 01D0     		beq	.L113
 1408              		.loc 4 495 0
 1409 00ae 0023     		movs	r3, #0
 1410 00b0 11E0     		b	.L73
 1411              	.L113:
 489:Drivers/lvgl/lvgl/src/core/../misc/lv_style.h ****             return LV_STYLE_RES_INHERIT;
 1412              		.loc 4 489 0
 1413 00b2 11F4004F 		tst	r1, #32768
 1414 00b6 58D1     		bne	.L102
 491:Drivers/lvgl/lvgl/src/core/../misc/lv_style.h ****                                                                                              style-
 1415              		.loc 4 491 0
 1416 00b8 11F4804F 		tst	r1, #16384
 1417 00bc 03D1     		bne	.L114
 1418 00be 1368     		ldr	r3, [r2]
 1419              	.LVL177:
 1420 00c0 0B93     		str	r3, [sp, #44]
 493:Drivers/lvgl/lvgl/src/core/../misc/lv_style.h ****     }
 1421              		.loc 4 493 0
 1422 00c2 0123     		movs	r3, #1
 1423              	.LVL178:
 1424 00c4 07E0     		b	.L73
 1425              	.L114:
 491:Drivers/lvgl/lvgl/src/core/../misc/lv_style.h ****                                                                                              style-
 1426              		.loc 4 491 0
 1427 00c6 FFF7FEFF 		bl	lv_style_prop_get_default
 1428              	.LVL179:
 1429 00ca 0B90     		str	r0, [sp, #44]
 493:Drivers/lvgl/lvgl/src/core/../misc/lv_style.h ****     }
 1430              		.loc 4 493 0
 1431 00cc 0123     		movs	r3, #1
 1432 00ce 02E0     		b	.L73
ARM GAS  /tmp/ccJvwpHF.s 			page 66


 1433              	.LVL180:
 1434              	.L98:
 1435              	.LBB186:
 1436              	.LBB180:
 459:Drivers/lvgl/lvgl/src/core/../misc/lv_style.h ****                 *value = (const_prop->prop & LV_STYLE_PROP_META_INITIAL) ? lv_style_prop_get_defaul
 1437              		.loc 4 459 0
 1438 00d0 0223     		movs	r3, #2
 1439              	.LVL181:
 1440 00d2 00E0     		b	.L73
 1441              	.LVL182:
 1442              	.L99:
 1443              	.LBE180:
 1444              	.LBE186:
 467:Drivers/lvgl/lvgl/src/core/../misc/lv_style.h **** 
 1445              		.loc 4 467 0
 1446 00d4 0023     		movs	r3, #0
 1447              	.LVL183:
 1448              	.L73:
 1449              	.LBE176:
 1450              	.LBE175:
 881:Drivers/lvgl/lvgl/src/core/lv_obj.c ****         const lv_style_transition_dsc_t * tr = v.ptr;
 1451              		.loc 1 881 0
 1452 00d6 012B     		cmp	r3, #1
 1453 00d8 49D0     		beq	.L115
 1454              	.LVL184:
 1455              	.L90:
 1456              	.LBE174:
 873:Drivers/lvgl/lvgl/src/core/lv_obj.c ****         _lv_obj_style_t * obj_style = &obj->styles[i];
 1457              		.loc 1 873 0 discriminator 2
 1458 00da 029B     		ldr	r3, [sp, #8]
 1459 00dc 0133     		adds	r3, r3, #1
 1460 00de 0293     		str	r3, [sp, #8]
 1461              	.LVL185:
 1462              	.L68:
 873:Drivers/lvgl/lvgl/src/core/lv_obj.c ****         _lv_obj_style_t * obj_style = &obj->styles[i];
 1463              		.loc 1 873 0 is_stmt 0 discriminator 1
 1464 00e0 039B     		ldr	r3, [sp, #12]
 1465 00e2 5B8C     		ldrh	r3, [r3, #34]
 1466 00e4 C3F3C503 		ubfx	r3, r3, #3, #6
 1467 00e8 029A     		ldr	r2, [sp, #8]
 1468 00ea 9342     		cmp	r3, r2
 1469 00ec 40F29980 		bls	.L104
 873:Drivers/lvgl/lvgl/src/core/lv_obj.c ****         _lv_obj_style_t * obj_style = &obj->styles[i];
 1470              		.loc 1 873 0 discriminator 3
 1471 00f0 BAF11F0F 		cmp	r10, #31
 1472 00f4 00F29380 		bhi	.L116
 1473              	.LBB193:
 874:Drivers/lvgl/lvgl/src/core/lv_obj.c ****         lv_state_t state_act = lv_obj_style_get_selector_state(obj->styles[i].selector);
 1474              		.loc 1 874 0 is_stmt 1
 1475 00f8 039F     		ldr	r7, [sp, #12]
 1476 00fa FD68     		ldr	r5, [r7, #12]
 1477 00fc 029B     		ldr	r3, [sp, #8]
 1478 00fe DC00     		lsls	r4, r3, #3
 1479 0100 2E19     		adds	r6, r5, r4
 1480 0102 0996     		str	r6, [sp, #36]
 1481              	.LVL186:
 875:Drivers/lvgl/lvgl/src/core/lv_obj.c ****         lv_part_t part_act = lv_obj_style_get_selector_part(obj->styles[i].selector);
ARM GAS  /tmp/ccJvwpHF.s 			page 67


 1482              		.loc 1 875 0
 1483 0104 7068     		ldr	r0, [r6, #4]
 1484 0106 20F07F40 		bic	r0, r0, #-16777216
 1485 010a FFF7FEFF 		bl	lv_obj_style_get_selector_state
