ARM GAS  /tmp/cc7G7enf.s 			page 1


   1              		.cpu cortex-m7
   2              		.eabi_attribute 28, 1
   3              		.eabi_attribute 20, 1
   4              		.eabi_attribute 21, 1
   5              		.eabi_attribute 23, 3
   6              		.eabi_attribute 24, 1
   7              		.eabi_attribute 25, 1
   8              		.eabi_attribute 26, 1
   9              		.eabi_attribute 30, 1
  10              		.eabi_attribute 34, 1
  11              		.eabi_attribute 18, 4
  12              		.file	"lv_obj_style_gen.c"
  13              		.text
  14              	.Ltext0:
  15              		.cfi_sections	.debug_frame
  16              		.section	.text.lv_obj_set_style_width,"ax",%progbits
  17              		.align	1
  18              		.global	lv_obj_set_style_width
  19              		.syntax unified
  20              		.thumb
  21              		.thumb_func
  22              		.fpu fpv5-d16
  24              	lv_obj_set_style_width:
  25              	.LFB159:
  26              		.file 1 "Drivers/lvgl/lvgl/src/core/lv_obj_style_gen.c"
   1:Drivers/lvgl/lvgl/src/core/lv_obj_style_gen.c **** #include "lv_obj.h"
   2:Drivers/lvgl/lvgl/src/core/lv_obj_style_gen.c **** 
   3:Drivers/lvgl/lvgl/src/core/lv_obj_style_gen.c **** void lv_obj_set_style_width(struct _lv_obj_t * obj, lv_coord_t value, lv_style_selector_t selector)
   4:Drivers/lvgl/lvgl/src/core/lv_obj_style_gen.c **** {
  27              		.loc 1 4 0
  28              		.cfi_startproc
  29              		@ args = 0, pretend = 0, frame = 0
  30              		@ frame_needed = 0, uses_anonymous_args = 0
  31              	.LVL0:
  32 0000 08B5     		push	{r3, lr}
  33              	.LCFI0:
  34              		.cfi_def_cfa_offset 8
  35              		.cfi_offset 3, -8
  36              		.cfi_offset 14, -4
   5:Drivers/lvgl/lvgl/src/core/lv_obj_style_gen.c ****     lv_style_value_t v = {
   6:Drivers/lvgl/lvgl/src/core/lv_obj_style_gen.c ****         .num = (int32_t)value
   7:Drivers/lvgl/lvgl/src/core/lv_obj_style_gen.c ****     };
   8:Drivers/lvgl/lvgl/src/core/lv_obj_style_gen.c ****     lv_obj_set_local_style_prop(obj, LV_STYLE_WIDTH, v, selector);
  37              		.loc 1 8 0
  38 0002 1346     		mov	r3, r2
  39 0004 0A46     		mov	r2, r1
  40              	.LVL1:
  41 0006 0121     		movs	r1, #1
  42              	.LVL2:
  43 0008 FFF7FEFF 		bl	lv_obj_set_local_style_prop
  44              	.LVL3:
   9:Drivers/lvgl/lvgl/src/core/lv_obj_style_gen.c **** }
  45              		.loc 1 9 0
  46 000c 08BD     		pop	{r3, pc}
  47              		.cfi_endproc
  48              	.LFE159:
  50              		.section	.text.lv_obj_set_style_min_width,"ax",%progbits
ARM GAS  /tmp/cc7G7enf.s 			page 2


  51              		.align	1
  52              		.global	lv_obj_set_style_min_width
  53              		.syntax unified
  54              		.thumb
  55              		.thumb_func
  56              		.fpu fpv5-d16
  58              	lv_obj_set_style_min_width:
  59              	.LFB160:
  10:Drivers/lvgl/lvgl/src/core/lv_obj_style_gen.c **** 
  11:Drivers/lvgl/lvgl/src/core/lv_obj_style_gen.c **** void lv_obj_set_style_min_width(struct _lv_obj_t * obj, lv_coord_t value, lv_style_selector_t selec
  12:Drivers/lvgl/lvgl/src/core/lv_obj_style_gen.c **** {
  60              		.loc 1 12 0
  61              		.cfi_startproc
  62              		@ args = 0, pretend = 0, frame = 0
  63              		@ frame_needed = 0, uses_anonymous_args = 0
  64              	.LVL4:
  65 0000 08B5     		push	{r3, lr}
  66              	.LCFI1:
  67              		.cfi_def_cfa_offset 8
  68              		.cfi_offset 3, -8
  69              		.cfi_offset 14, -4
  13:Drivers/lvgl/lvgl/src/core/lv_obj_style_gen.c ****     lv_style_value_t v = {
  14:Drivers/lvgl/lvgl/src/core/lv_obj_style_gen.c ****         .num = (int32_t)value
  15:Drivers/lvgl/lvgl/src/core/lv_obj_style_gen.c ****     };
  16:Drivers/lvgl/lvgl/src/core/lv_obj_style_gen.c ****     lv_obj_set_local_style_prop(obj, LV_STYLE_MIN_WIDTH, v, selector);
  70              		.loc 1 16 0
  71 0002 1346     		mov	r3, r2
  72 0004 0A46     		mov	r2, r1
  73              	.LVL5:
  74 0006 0221     		movs	r1, #2
  75              	.LVL6:
  76 0008 FFF7FEFF 		bl	lv_obj_set_local_style_prop
  77              	.LVL7:
  17:Drivers/lvgl/lvgl/src/core/lv_obj_style_gen.c **** }
  78              		.loc 1 17 0
  79 000c 08BD     		pop	{r3, pc}
  80              		.cfi_endproc
  81              	.LFE160:
  83              		.section	.text.lv_obj_set_style_max_width,"ax",%progbits
  84              		.align	1
  85              		.global	lv_obj_set_style_max_width
  86              		.syntax unified
  87              		.thumb
  88              		.thumb_func
  89              		.fpu fpv5-d16
  91              	lv_obj_set_style_max_width:
  92              	.LFB161:
  18:Drivers/lvgl/lvgl/src/core/lv_obj_style_gen.c **** 
  19:Drivers/lvgl/lvgl/src/core/lv_obj_style_gen.c **** void lv_obj_set_style_max_width(struct _lv_obj_t * obj, lv_coord_t value, lv_style_selector_t selec
  20:Drivers/lvgl/lvgl/src/core/lv_obj_style_gen.c **** {
  93              		.loc 1 20 0
  94              		.cfi_startproc
  95              		@ args = 0, pretend = 0, frame = 0
  96              		@ frame_needed = 0, uses_anonymous_args = 0
  97              	.LVL8:
  98 0000 08B5     		push	{r3, lr}
  99              	.LCFI2:
ARM GAS  /tmp/cc7G7enf.s 			page 3


 100              		.cfi_def_cfa_offset 8
 101              		.cfi_offset 3, -8
 102              		.cfi_offset 14, -4
  21:Drivers/lvgl/lvgl/src/core/lv_obj_style_gen.c ****     lv_style_value_t v = {
  22:Drivers/lvgl/lvgl/src/core/lv_obj_style_gen.c ****         .num = (int32_t)value
  23:Drivers/lvgl/lvgl/src/core/lv_obj_style_gen.c ****     };
  24:Drivers/lvgl/lvgl/src/core/lv_obj_style_gen.c ****     lv_obj_set_local_style_prop(obj, LV_STYLE_MAX_WIDTH, v, selector);
 103              		.loc 1 24 0
 104 0002 1346     		mov	r3, r2
 105 0004 0A46     		mov	r2, r1
 106              	.LVL9:
 107 0006 0321     		movs	r1, #3
 108              	.LVL10:
 109 0008 FFF7FEFF 		bl	lv_obj_set_local_style_prop
 110              	.LVL11:
  25:Drivers/lvgl/lvgl/src/core/lv_obj_style_gen.c **** }
 111              		.loc 1 25 0
 112 000c 08BD     		pop	{r3, pc}
 113              		.cfi_endproc
 114              	.LFE161:
 116              		.section	.text.lv_obj_set_style_height,"ax",%progbits
 117              		.align	1
 118              		.global	lv_obj_set_style_height
 119              		.syntax unified
 120              		.thumb
 121              		.thumb_func
 122              		.fpu fpv5-d16
 124              	lv_obj_set_style_height:
 125              	.LFB162:
  26:Drivers/lvgl/lvgl/src/core/lv_obj_style_gen.c **** 
  27:Drivers/lvgl/lvgl/src/core/lv_obj_style_gen.c **** void lv_obj_set_style_height(struct _lv_obj_t * obj, lv_coord_t value, lv_style_selector_t selector
  28:Drivers/lvgl/lvgl/src/core/lv_obj_style_gen.c **** {
 126              		.loc 1 28 0
 127              		.cfi_startproc
 128              		@ args = 0, pretend = 0, frame = 0
 129              		@ frame_needed = 0, uses_anonymous_args = 0
 130              	.LVL12:
 131 0000 08B5     		push	{r3, lr}
 132              	.LCFI3:
 133              		.cfi_def_cfa_offset 8
 134              		.cfi_offset 3, -8
 135              		.cfi_offset 14, -4
  29:Drivers/lvgl/lvgl/src/core/lv_obj_style_gen.c ****     lv_style_value_t v = {
  30:Drivers/lvgl/lvgl/src/core/lv_obj_style_gen.c ****         .num = (int32_t)value
  31:Drivers/lvgl/lvgl/src/core/lv_obj_style_gen.c ****     };
  32:Drivers/lvgl/lvgl/src/core/lv_obj_style_gen.c ****     lv_obj_set_local_style_prop(obj, LV_STYLE_HEIGHT, v, selector);
 136              		.loc 1 32 0
 137 0002 1346     		mov	r3, r2
 138 0004 0A46     		mov	r2, r1
 139              	.LVL13:
 140 0006 0421     		movs	r1, #4
 141              	.LVL14:
 142 0008 FFF7FEFF 		bl	lv_obj_set_local_style_prop
 143              	.LVL15:
  33:Drivers/lvgl/lvgl/src/core/lv_obj_style_gen.c **** }
 144              		.loc 1 33 0
 145 000c 08BD     		pop	{r3, pc}
ARM GAS  /tmp/cc7G7enf.s 			page 4


 146              		.cfi_endproc
 147              	.LFE162:
 149              		.section	.text.lv_obj_set_style_min_height,"ax",%progbits
 150              		.align	1
 151              		.global	lv_obj_set_style_min_height
 152              		.syntax unified
 153              		.thumb
 154              		.thumb_func
 155              		.fpu fpv5-d16
 157              	lv_obj_set_style_min_height:
 158              	.LFB163:
  34:Drivers/lvgl/lvgl/src/core/lv_obj_style_gen.c **** 
  35:Drivers/lvgl/lvgl/src/core/lv_obj_style_gen.c **** void lv_obj_set_style_min_height(struct _lv_obj_t * obj, lv_coord_t value, lv_style_selector_t sele
  36:Drivers/lvgl/lvgl/src/core/lv_obj_style_gen.c **** {
 159              		.loc 1 36 0
 160              		.cfi_startproc
 161              		@ args = 0, pretend = 0, frame = 0
 162              		@ frame_needed = 0, uses_anonymous_args = 0
 163              	.LVL16:
 164 0000 08B5     		push	{r3, lr}
 165              	.LCFI4:
 166              		.cfi_def_cfa_offset 8
 167              		.cfi_offset 3, -8
 168              		.cfi_offset 14, -4
  37:Drivers/lvgl/lvgl/src/core/lv_obj_style_gen.c ****     lv_style_value_t v = {
  38:Drivers/lvgl/lvgl/src/core/lv_obj_style_gen.c ****         .num = (int32_t)value
  39:Drivers/lvgl/lvgl/src/core/lv_obj_style_gen.c ****     };
  40:Drivers/lvgl/lvgl/src/core/lv_obj_style_gen.c ****     lv_obj_set_local_style_prop(obj, LV_STYLE_MIN_HEIGHT, v, selector);
 169              		.loc 1 40 0
 170 0002 1346     		mov	r3, r2
 171 0004 0A46     		mov	r2, r1
 172              	.LVL17:
 173 0006 0521     		movs	r1, #5
 174              	.LVL18:
 175 0008 FFF7FEFF 		bl	lv_obj_set_local_style_prop
 176              	.LVL19:
  41:Drivers/lvgl/lvgl/src/core/lv_obj_style_gen.c **** }
 177              		.loc 1 41 0
 178 000c 08BD     		pop	{r3, pc}
 179              		.cfi_endproc
 180              	.LFE163:
 182              		.section	.text.lv_obj_set_style_max_height,"ax",%progbits
 183              		.align	1
 184              		.global	lv_obj_set_style_max_height
 185              		.syntax unified
 186              		.thumb
 187              		.thumb_func
 188              		.fpu fpv5-d16
 190              	lv_obj_set_style_max_height:
 191              	.LFB164:
  42:Drivers/lvgl/lvgl/src/core/lv_obj_style_gen.c **** 
  43:Drivers/lvgl/lvgl/src/core/lv_obj_style_gen.c **** void lv_obj_set_style_max_height(struct _lv_obj_t * obj, lv_coord_t value, lv_style_selector_t sele
  44:Drivers/lvgl/lvgl/src/core/lv_obj_style_gen.c **** {
 192              		.loc 1 44 0
 193              		.cfi_startproc
 194              		@ args = 0, pretend = 0, frame = 0
 195              		@ frame_needed = 0, uses_anonymous_args = 0
ARM GAS  /tmp/cc7G7enf.s 			page 5


 196              	.LVL20:
 197 0000 08B5     		push	{r3, lr}
 198              	.LCFI5:
 199              		.cfi_def_cfa_offset 8
 200              		.cfi_offset 3, -8
 201              		.cfi_offset 14, -4
  45:Drivers/lvgl/lvgl/src/core/lv_obj_style_gen.c ****     lv_style_value_t v = {
  46:Drivers/lvgl/lvgl/src/core/lv_obj_style_gen.c ****         .num = (int32_t)value
  47:Drivers/lvgl/lvgl/src/core/lv_obj_style_gen.c ****     };
  48:Drivers/lvgl/lvgl/src/core/lv_obj_style_gen.c ****     lv_obj_set_local_style_prop(obj, LV_STYLE_MAX_HEIGHT, v, selector);
 202              		.loc 1 48 0
 203 0002 1346     		mov	r3, r2
 204 0004 0A46     		mov	r2, r1
 205              	.LVL21:
 206 0006 0621     		movs	r1, #6
 207              	.LVL22:
 208 0008 FFF7FEFF 		bl	lv_obj_set_local_style_prop
 209              	.LVL23:
  49:Drivers/lvgl/lvgl/src/core/lv_obj_style_gen.c **** }
 210              		.loc 1 49 0
 211 000c 08BD     		pop	{r3, pc}
 212              		.cfi_endproc
 213              	.LFE164:
 215              		.section	.text.lv_obj_set_style_x,"ax",%progbits
 216              		.align	1
 217              		.global	lv_obj_set_style_x
 218              		.syntax unified
 219              		.thumb
 220              		.thumb_func
 221              		.fpu fpv5-d16
 223              	lv_obj_set_style_x:
 224              	.LFB165:
  50:Drivers/lvgl/lvgl/src/core/lv_obj_style_gen.c **** 
  51:Drivers/lvgl/lvgl/src/core/lv_obj_style_gen.c **** void lv_obj_set_style_x(struct _lv_obj_t * obj, lv_coord_t value, lv_style_selector_t selector)
  52:Drivers/lvgl/lvgl/src/core/lv_obj_style_gen.c **** {
 225              		.loc 1 52 0
 226              		.cfi_startproc
 227              		@ args = 0, pretend = 0, frame = 0
 228              		@ frame_needed = 0, uses_anonymous_args = 0
 229              	.LVL24:
 230 0000 08B5     		push	{r3, lr}
 231              	.LCFI6:
 232              		.cfi_def_cfa_offset 8
 233              		.cfi_offset 3, -8
 234              		.cfi_offset 14, -4
  53:Drivers/lvgl/lvgl/src/core/lv_obj_style_gen.c ****     lv_style_value_t v = {
  54:Drivers/lvgl/lvgl/src/core/lv_obj_style_gen.c ****         .num = (int32_t)value
  55:Drivers/lvgl/lvgl/src/core/lv_obj_style_gen.c ****     };
  56:Drivers/lvgl/lvgl/src/core/lv_obj_style_gen.c ****     lv_obj_set_local_style_prop(obj, LV_STYLE_X, v, selector);
 235              		.loc 1 56 0
 236 0002 1346     		mov	r3, r2
 237 0004 0A46     		mov	r2, r1
 238              	.LVL25:
 239 0006 0721     		movs	r1, #7
 240              	.LVL26:
 241 0008 FFF7FEFF 		bl	lv_obj_set_local_style_prop
 242              	.LVL27:
ARM GAS  /tmp/cc7G7enf.s 			page 6


  57:Drivers/lvgl/lvgl/src/core/lv_obj_style_gen.c **** }
 243              		.loc 1 57 0
 244 000c 08BD     		pop	{r3, pc}
 245              		.cfi_endproc
 246              	.LFE165:
 248              		.section	.text.lv_obj_set_style_y,"ax",%progbits
 249              		.align	1
 250              		.global	lv_obj_set_style_y
 251              		.syntax unified
 252              		.thumb
 253              		.thumb_func
 254              		.fpu fpv5-d16
 256              	lv_obj_set_style_y:
 257              	.LFB166:
  58:Drivers/lvgl/lvgl/src/core/lv_obj_style_gen.c **** 
  59:Drivers/lvgl/lvgl/src/core/lv_obj_style_gen.c **** void lv_obj_set_style_y(struct _lv_obj_t * obj, lv_coord_t value, lv_style_selector_t selector)
  60:Drivers/lvgl/lvgl/src/core/lv_obj_style_gen.c **** {
 258              		.loc 1 60 0
 259              		.cfi_startproc
 260              		@ args = 0, pretend = 0, frame = 0
 261              		@ frame_needed = 0, uses_anonymous_args = 0
 262              	.LVL28:
 263 0000 08B5     		push	{r3, lr}
 264              	.LCFI7:
 265              		.cfi_def_cfa_offset 8
 266              		.cfi_offset 3, -8
 267              		.cfi_offset 14, -4
  61:Drivers/lvgl/lvgl/src/core/lv_obj_style_gen.c ****     lv_style_value_t v = {
  62:Drivers/lvgl/lvgl/src/core/lv_obj_style_gen.c ****         .num = (int32_t)value
  63:Drivers/lvgl/lvgl/src/core/lv_obj_style_gen.c ****     };
  64:Drivers/lvgl/lvgl/src/core/lv_obj_style_gen.c ****     lv_obj_set_local_style_prop(obj, LV_STYLE_Y, v, selector);
 268              		.loc 1 64 0
 269 0002 1346     		mov	r3, r2
 270 0004 0A46     		mov	r2, r1
 271              	.LVL29:
 272 0006 0821     		movs	r1, #8
 273              	.LVL30:
 274 0008 FFF7FEFF 		bl	lv_obj_set_local_style_prop
 275              	.LVL31:
  65:Drivers/lvgl/lvgl/src/core/lv_obj_style_gen.c **** }
 276              		.loc 1 65 0
 277 000c 08BD     		pop	{r3, pc}
 278              		.cfi_endproc
 279              	.LFE166:
 281              		.section	.text.lv_obj_set_style_align,"ax",%progbits
 282              		.align	1
 283              		.global	lv_obj_set_style_align
 284              		.syntax unified
 285              		.thumb
 286              		.thumb_func
 287              		.fpu fpv5-d16
 289              	lv_obj_set_style_align:
 290              	.LFB167:
  66:Drivers/lvgl/lvgl/src/core/lv_obj_style_gen.c **** 
  67:Drivers/lvgl/lvgl/src/core/lv_obj_style_gen.c **** void lv_obj_set_style_align(struct _lv_obj_t * obj, lv_align_t value, lv_style_selector_t selector)
  68:Drivers/lvgl/lvgl/src/core/lv_obj_style_gen.c **** {
 291              		.loc 1 68 0
ARM GAS  /tmp/cc7G7enf.s 			page 7


 292              		.cfi_startproc
 293              		@ args = 0, pretend = 0, frame = 0
 294              		@ frame_needed = 0, uses_anonymous_args = 0
 295              	.LVL32:
 296 0000 08B5     		push	{r3, lr}
 297              	.LCFI8:
 298              		.cfi_def_cfa_offset 8
 299              		.cfi_offset 3, -8
 300              		.cfi_offset 14, -4
  69:Drivers/lvgl/lvgl/src/core/lv_obj_style_gen.c ****     lv_style_value_t v = {
  70:Drivers/lvgl/lvgl/src/core/lv_obj_style_gen.c ****         .num = (int32_t)value
  71:Drivers/lvgl/lvgl/src/core/lv_obj_style_gen.c ****     };
  72:Drivers/lvgl/lvgl/src/core/lv_obj_style_gen.c ****     lv_obj_set_local_style_prop(obj, LV_STYLE_ALIGN, v, selector);
 301              		.loc 1 72 0
 302 0002 1346     		mov	r3, r2
 303 0004 0A46     		mov	r2, r1
 304              	.LVL33:
 305 0006 0921     		movs	r1, #9
 306              	.LVL34:
 307 0008 FFF7FEFF 		bl	lv_obj_set_local_style_prop
 308              	.LVL35:
  73:Drivers/lvgl/lvgl/src/core/lv_obj_style_gen.c **** }
 309              		.loc 1 73 0
 310 000c 08BD     		pop	{r3, pc}
 311              		.cfi_endproc
 312              	.LFE167:
 314              		.section	.text.lv_obj_set_style_transform_width,"ax",%progbits
 315              		.align	1
 316              		.global	lv_obj_set_style_transform_width
 317              		.syntax unified
 318              		.thumb
 319              		.thumb_func
 320              		.fpu fpv5-d16
 322              	lv_obj_set_style_transform_width:
 323              	.LFB168:
  74:Drivers/lvgl/lvgl/src/core/lv_obj_style_gen.c **** 
  75:Drivers/lvgl/lvgl/src/core/lv_obj_style_gen.c **** void lv_obj_set_style_transform_width(struct _lv_obj_t * obj, lv_coord_t value, lv_style_selector_t
  76:Drivers/lvgl/lvgl/src/core/lv_obj_style_gen.c **** {
 324              		.loc 1 76 0
 325              		.cfi_startproc
 326              		@ args = 0, pretend = 0, frame = 0
 327              		@ frame_needed = 0, uses_anonymous_args = 0
 328              	.LVL36:
 329 0000 08B5     		push	{r3, lr}
 330              	.LCFI9:
 331              		.cfi_def_cfa_offset 8
 332              		.cfi_offset 3, -8
 333              		.cfi_offset 14, -4
  77:Drivers/lvgl/lvgl/src/core/lv_obj_style_gen.c ****     lv_style_value_t v = {
  78:Drivers/lvgl/lvgl/src/core/lv_obj_style_gen.c ****         .num = (int32_t)value
  79:Drivers/lvgl/lvgl/src/core/lv_obj_style_gen.c ****     };
  80:Drivers/lvgl/lvgl/src/core/lv_obj_style_gen.c ****     lv_obj_set_local_style_prop(obj, LV_STYLE_TRANSFORM_WIDTH, v, selector);
 334              		.loc 1 80 0
 335 0002 1346     		mov	r3, r2
 336 0004 0A46     		mov	r2, r1
 337              	.LVL37:
 338 0006 6821     		movs	r1, #104
ARM GAS  /tmp/cc7G7enf.s 			page 8


 339              	.LVL38:
 340 0008 FFF7FEFF 		bl	lv_obj_set_local_style_prop
 341              	.LVL39:
  81:Drivers/lvgl/lvgl/src/core/lv_obj_style_gen.c **** }
 342              		.loc 1 81 0
 343 000c 08BD     		pop	{r3, pc}
 344              		.cfi_endproc
 345              	.LFE168:
 347              		.section	.text.lv_obj_set_style_transform_height,"ax",%progbits
 348              		.align	1
 349              		.global	lv_obj_set_style_transform_height
 350              		.syntax unified
 351              		.thumb
 352              		.thumb_func
 353              		.fpu fpv5-d16
 355              	lv_obj_set_style_transform_height:
 356              	.LFB169:
  82:Drivers/lvgl/lvgl/src/core/lv_obj_style_gen.c **** 
  83:Drivers/lvgl/lvgl/src/core/lv_obj_style_gen.c **** void lv_obj_set_style_transform_height(struct _lv_obj_t * obj, lv_coord_t value, lv_style_selector_
  84:Drivers/lvgl/lvgl/src/core/lv_obj_style_gen.c **** {
 357              		.loc 1 84 0
 358              		.cfi_startproc
 359              		@ args = 0, pretend = 0, frame = 0
 360              		@ frame_needed = 0, uses_anonymous_args = 0
 361              	.LVL40:
 362 0000 08B5     		push	{r3, lr}
 363              	.LCFI10:
 364              		.cfi_def_cfa_offset 8
 365              		.cfi_offset 3, -8
 366              		.cfi_offset 14, -4
  85:Drivers/lvgl/lvgl/src/core/lv_obj_style_gen.c ****     lv_style_value_t v = {
  86:Drivers/lvgl/lvgl/src/core/lv_obj_style_gen.c ****         .num = (int32_t)value
  87:Drivers/lvgl/lvgl/src/core/lv_obj_style_gen.c ****     };
  88:Drivers/lvgl/lvgl/src/core/lv_obj_style_gen.c ****     lv_obj_set_local_style_prop(obj, LV_STYLE_TRANSFORM_HEIGHT, v, selector);
 367              		.loc 1 88 0
 368 0002 1346     		mov	r3, r2
 369 0004 0A46     		mov	r2, r1
 370              	.LVL41:
 371 0006 6921     		movs	r1, #105
 372              	.LVL42:
 373 0008 FFF7FEFF 		bl	lv_obj_set_local_style_prop
 374              	.LVL43:
  89:Drivers/lvgl/lvgl/src/core/lv_obj_style_gen.c **** }
 375              		.loc 1 89 0
 376 000c 08BD     		pop	{r3, pc}
 377              		.cfi_endproc
 378              	.LFE169:
 380              		.section	.text.lv_obj_set_style_translate_x,"ax",%progbits
 381              		.align	1
 382              		.global	lv_obj_set_style_translate_x
 383              		.syntax unified
 384              		.thumb
 385              		.thumb_func
 386              		.fpu fpv5-d16
 388              	lv_obj_set_style_translate_x:
 389              	.LFB170:
  90:Drivers/lvgl/lvgl/src/core/lv_obj_style_gen.c **** 
ARM GAS  /tmp/cc7G7enf.s 			page 9


  91:Drivers/lvgl/lvgl/src/core/lv_obj_style_gen.c **** void lv_obj_set_style_translate_x(struct _lv_obj_t * obj, lv_coord_t value, lv_style_selector_t sel
  92:Drivers/lvgl/lvgl/src/core/lv_obj_style_gen.c **** {
 390              		.loc 1 92 0
 391              		.cfi_startproc
 392              		@ args = 0, pretend = 0, frame = 0
 393              		@ frame_needed = 0, uses_anonymous_args = 0
 394              	.LVL44:
 395 0000 08B5     		push	{r3, lr}
 396              	.LCFI11:
 397              		.cfi_def_cfa_offset 8
 398              		.cfi_offset 3, -8
 399              		.cfi_offset 14, -4
  93:Drivers/lvgl/lvgl/src/core/lv_obj_style_gen.c ****     lv_style_value_t v = {
  94:Drivers/lvgl/lvgl/src/core/lv_obj_style_gen.c ****         .num = (int32_t)value
  95:Drivers/lvgl/lvgl/src/core/lv_obj_style_gen.c ****     };
  96:Drivers/lvgl/lvgl/src/core/lv_obj_style_gen.c ****     lv_obj_set_local_style_prop(obj, LV_STYLE_TRANSLATE_X, v, selector);
 400              		.loc 1 96 0
 401 0002 1346     		mov	r3, r2
 402 0004 0A46     		mov	r2, r1
 403              	.LVL45:
 404 0006 6A21     		movs	r1, #106
 405              	.LVL46:
 406 0008 FFF7FEFF 		bl	lv_obj_set_local_style_prop
 407              	.LVL47:
  97:Drivers/lvgl/lvgl/src/core/lv_obj_style_gen.c **** }
 408              		.loc 1 97 0
 409 000c 08BD     		pop	{r3, pc}
 410              		.cfi_endproc
 411              	.LFE170:
 413              		.section	.text.lv_obj_set_style_translate_y,"ax",%progbits
 414              		.align	1
 415              		.global	lv_obj_set_style_translate_y
 416              		.syntax unified
 417              		.thumb
 418              		.thumb_func
 419              		.fpu fpv5-d16
 421              	lv_obj_set_style_translate_y:
 422              	.LFB171:
  98:Drivers/lvgl/lvgl/src/core/lv_obj_style_gen.c **** 
  99:Drivers/lvgl/lvgl/src/core/lv_obj_style_gen.c **** void lv_obj_set_style_translate_y(struct _lv_obj_t * obj, lv_coord_t value, lv_style_selector_t sel
 100:Drivers/lvgl/lvgl/src/core/lv_obj_style_gen.c **** {
 423              		.loc 1 100 0
 424              		.cfi_startproc
 425              		@ args = 0, pretend = 0, frame = 0
 426              		@ frame_needed = 0, uses_anonymous_args = 0
 427              	.LVL48:
 428 0000 08B5     		push	{r3, lr}
 429              	.LCFI12:
 430              		.cfi_def_cfa_offset 8
 431              		.cfi_offset 3, -8
 432              		.cfi_offset 14, -4
 101:Drivers/lvgl/lvgl/src/core/lv_obj_style_gen.c ****     lv_style_value_t v = {
 102:Drivers/lvgl/lvgl/src/core/lv_obj_style_gen.c ****         .num = (int32_t)value
 103:Drivers/lvgl/lvgl/src/core/lv_obj_style_gen.c ****     };
 104:Drivers/lvgl/lvgl/src/core/lv_obj_style_gen.c ****     lv_obj_set_local_style_prop(obj, LV_STYLE_TRANSLATE_Y, v, selector);
 433              		.loc 1 104 0
 434 0002 1346     		mov	r3, r2
ARM GAS  /tmp/cc7G7enf.s 			page 10


 435 0004 0A46     		mov	r2, r1
 436              	.LVL49:
 437 0006 6B21     		movs	r1, #107
 438              	.LVL50:
 439 0008 FFF7FEFF 		bl	lv_obj_set_local_style_prop
 440              	.LVL51:
 105:Drivers/lvgl/lvgl/src/core/lv_obj_style_gen.c **** }
 441              		.loc 1 105 0
 442 000c 08BD     		pop	{r3, pc}
 443              		.cfi_endproc
 444              	.LFE171:
 446              		.section	.text.lv_obj_set_style_transform_zoom,"ax",%progbits
 447              		.align	1
 448              		.global	lv_obj_set_style_transform_zoom
 449              		.syntax unified
 450              		.thumb
 451              		.thumb_func
 452              		.fpu fpv5-d16
 454              	lv_obj_set_style_transform_zoom:
 455              	.LFB172:
 106:Drivers/lvgl/lvgl/src/core/lv_obj_style_gen.c **** 
 107:Drivers/lvgl/lvgl/src/core/lv_obj_style_gen.c **** void lv_obj_set_style_transform_zoom(struct _lv_obj_t * obj, lv_coord_t value, lv_style_selector_t 
 108:Drivers/lvgl/lvgl/src/core/lv_obj_style_gen.c **** {
 456              		.loc 1 108 0
 457              		.cfi_startproc
 458              		@ args = 0, pretend = 0, frame = 0
 459              		@ frame_needed = 0, uses_anonymous_args = 0
 460              	.LVL52:
 461 0000 08B5     		push	{r3, lr}
 462              	.LCFI13:
 463              		.cfi_def_cfa_offset 8
 464              		.cfi_offset 3, -8
 465              		.cfi_offset 14, -4
 109:Drivers/lvgl/lvgl/src/core/lv_obj_style_gen.c ****     lv_style_value_t v = {
 110:Drivers/lvgl/lvgl/src/core/lv_obj_style_gen.c ****         .num = (int32_t)value
 111:Drivers/lvgl/lvgl/src/core/lv_obj_style_gen.c ****     };
 112:Drivers/lvgl/lvgl/src/core/lv_obj_style_gen.c ****     lv_obj_set_local_style_prop(obj, LV_STYLE_TRANSFORM_ZOOM, v, selector);
 466              		.loc 1 112 0
 467 0002 1346     		mov	r3, r2
 468 0004 0A46     		mov	r2, r1
 469              	.LVL53:
 470 0006 6C21     		movs	r1, #108
 471              	.LVL54:
 472 0008 FFF7FEFF 		bl	lv_obj_set_local_style_prop
 473              	.LVL55:
 113:Drivers/lvgl/lvgl/src/core/lv_obj_style_gen.c **** }
 474              		.loc 1 113 0
 475 000c 08BD     		pop	{r3, pc}
 476              		.cfi_endproc
 477              	.LFE172:
 479              		.section	.text.lv_obj_set_style_transform_angle,"ax",%progbits
 480              		.align	1
 481              		.global	lv_obj_set_style_transform_angle
 482              		.syntax unified
 483              		.thumb
 484              		.thumb_func
 485              		.fpu fpv5-d16
ARM GAS  /tmp/cc7G7enf.s 			page 11


 487              	lv_obj_set_style_transform_angle:
 488              	.LFB173:
 114:Drivers/lvgl/lvgl/src/core/lv_obj_style_gen.c **** 
 115:Drivers/lvgl/lvgl/src/core/lv_obj_style_gen.c **** void lv_obj_set_style_transform_angle(struct _lv_obj_t * obj, lv_coord_t value, lv_style_selector_t
 116:Drivers/lvgl/lvgl/src/core/lv_obj_style_gen.c **** {
 489              		.loc 1 116 0
 490              		.cfi_startproc
 491              		@ args = 0, pretend = 0, frame = 0
 492              		@ frame_needed = 0, uses_anonymous_args = 0
 493              	.LVL56:
 494 0000 08B5     		push	{r3, lr}
 495              	.LCFI14:
 496              		.cfi_def_cfa_offset 8
 497              		.cfi_offset 3, -8
 498              		.cfi_offset 14, -4
 117:Drivers/lvgl/lvgl/src/core/lv_obj_style_gen.c ****     lv_style_value_t v = {
 118:Drivers/lvgl/lvgl/src/core/lv_obj_style_gen.c ****         .num = (int32_t)value
 119:Drivers/lvgl/lvgl/src/core/lv_obj_style_gen.c ****     };
 120:Drivers/lvgl/lvgl/src/core/lv_obj_style_gen.c ****     lv_obj_set_local_style_prop(obj, LV_STYLE_TRANSFORM_ANGLE, v, selector);
 499              		.loc 1 120 0
 500 0002 1346     		mov	r3, r2
 501 0004 0A46     		mov	r2, r1
 502              	.LVL57:
 503 0006 6D21     		movs	r1, #109
 504              	.LVL58:
 505 0008 FFF7FEFF 		bl	lv_obj_set_local_style_prop
 506              	.LVL59:
 121:Drivers/lvgl/lvgl/src/core/lv_obj_style_gen.c **** }
 507              		.loc 1 121 0
 508 000c 08BD     		pop	{r3, pc}
 509              		.cfi_endproc
 510              	.LFE173:
 512              		.section	.text.lv_obj_set_style_transform_pivot_x,"ax",%progbits
 513              		.align	1
 514              		.global	lv_obj_set_style_transform_pivot_x
 515              		.syntax unified
 516              		.thumb
 517              		.thumb_func
 518              		.fpu fpv5-d16
 520              	lv_obj_set_style_transform_pivot_x:
 521              	.LFB174:
 122:Drivers/lvgl/lvgl/src/core/lv_obj_style_gen.c **** 
 123:Drivers/lvgl/lvgl/src/core/lv_obj_style_gen.c **** void lv_obj_set_style_transform_pivot_x(struct _lv_obj_t * obj, lv_coord_t value, lv_style_selector
 124:Drivers/lvgl/lvgl/src/core/lv_obj_style_gen.c **** {
 522              		.loc 1 124 0
 523              		.cfi_startproc
 524              		@ args = 0, pretend = 0, frame = 0
 525              		@ frame_needed = 0, uses_anonymous_args = 0
 526              	.LVL60:
 527 0000 08B5     		push	{r3, lr}
 528              	.LCFI15:
 529              		.cfi_def_cfa_offset 8
 530              		.cfi_offset 3, -8
 531              		.cfi_offset 14, -4
 125:Drivers/lvgl/lvgl/src/core/lv_obj_style_gen.c ****     lv_style_value_t v = {
 126:Drivers/lvgl/lvgl/src/core/lv_obj_style_gen.c ****         .num = (int32_t)value
 127:Drivers/lvgl/lvgl/src/core/lv_obj_style_gen.c ****     };
ARM GAS  /tmp/cc7G7enf.s 			page 12


 128:Drivers/lvgl/lvgl/src/core/lv_obj_style_gen.c ****     lv_obj_set_local_style_prop(obj, LV_STYLE_TRANSFORM_PIVOT_X, v, selector);
 532              		.loc 1 128 0
 533 0002 1346     		mov	r3, r2
 534 0004 0A46     		mov	r2, r1
 535              	.LVL61:
 536 0006 6E21     		movs	r1, #110
 537              	.LVL62:
 538 0008 FFF7FEFF 		bl	lv_obj_set_local_style_prop
 539              	.LVL63:
 129:Drivers/lvgl/lvgl/src/core/lv_obj_style_gen.c **** }
 540              		.loc 1 129 0
 541 000c 08BD     		pop	{r3, pc}
 542              		.cfi_endproc
 543              	.LFE174:
 545              		.section	.text.lv_obj_set_style_transform_pivot_y,"ax",%progbits
 546              		.align	1
 547              		.global	lv_obj_set_style_transform_pivot_y
 548              		.syntax unified
 549              		.thumb
 550              		.thumb_func
 551              		.fpu fpv5-d16
 553              	lv_obj_set_style_transform_pivot_y:
 554              	.LFB175:
 130:Drivers/lvgl/lvgl/src/core/lv_obj_style_gen.c **** 
 131:Drivers/lvgl/lvgl/src/core/lv_obj_style_gen.c **** void lv_obj_set_style_transform_pivot_y(struct _lv_obj_t * obj, lv_coord_t value, lv_style_selector
 132:Drivers/lvgl/lvgl/src/core/lv_obj_style_gen.c **** {
 555              		.loc 1 132 0
 556              		.cfi_startproc
 557              		@ args = 0, pretend = 0, frame = 0
 558              		@ frame_needed = 0, uses_anonymous_args = 0
 559              	.LVL64:
 560 0000 08B5     		push	{r3, lr}
 561              	.LCFI16:
 562              		.cfi_def_cfa_offset 8
 563              		.cfi_offset 3, -8
 564              		.cfi_offset 14, -4
 133:Drivers/lvgl/lvgl/src/core/lv_obj_style_gen.c ****     lv_style_value_t v = {
 134:Drivers/lvgl/lvgl/src/core/lv_obj_style_gen.c ****         .num = (int32_t)value
 135:Drivers/lvgl/lvgl/src/core/lv_obj_style_gen.c ****     };
 136:Drivers/lvgl/lvgl/src/core/lv_obj_style_gen.c ****     lv_obj_set_local_style_prop(obj, LV_STYLE_TRANSFORM_PIVOT_Y, v, selector);
 565              		.loc 1 136 0
 566 0002 1346     		mov	r3, r2
 567 0004 0A46     		mov	r2, r1
 568              	.LVL65:
 569 0006 6F21     		movs	r1, #111
 570              	.LVL66:
 571 0008 FFF7FEFF 		bl	lv_obj_set_local_style_prop
 572              	.LVL67:
 137:Drivers/lvgl/lvgl/src/core/lv_obj_style_gen.c **** }
 573              		.loc 1 137 0
 574 000c 08BD     		pop	{r3, pc}
 575              		.cfi_endproc
 576              	.LFE175:
 578              		.section	.text.lv_obj_set_style_pad_top,"ax",%progbits
 579              		.align	1
 580              		.global	lv_obj_set_style_pad_top
 581              		.syntax unified
ARM GAS  /tmp/cc7G7enf.s 			page 13


 582              		.thumb
 583              		.thumb_func
 584              		.fpu fpv5-d16
 586              	lv_obj_set_style_pad_top:
 587              	.LFB176:
 138:Drivers/lvgl/lvgl/src/core/lv_obj_style_gen.c **** 
 139:Drivers/lvgl/lvgl/src/core/lv_obj_style_gen.c **** void lv_obj_set_style_pad_top(struct _lv_obj_t * obj, lv_coord_t value, lv_style_selector_t selecto
 140:Drivers/lvgl/lvgl/src/core/lv_obj_style_gen.c **** {
 588              		.loc 1 140 0
 589              		.cfi_startproc
 590              		@ args = 0, pretend = 0, frame = 0
 591              		@ frame_needed = 0, uses_anonymous_args = 0
 592              	.LVL68:
 593 0000 08B5     		push	{r3, lr}
 594              	.LCFI17:
 595              		.cfi_def_cfa_offset 8
 596              		.cfi_offset 3, -8
 597              		.cfi_offset 14, -4
 141:Drivers/lvgl/lvgl/src/core/lv_obj_style_gen.c ****     lv_style_value_t v = {
 142:Drivers/lvgl/lvgl/src/core/lv_obj_style_gen.c ****         .num = (int32_t)value
 143:Drivers/lvgl/lvgl/src/core/lv_obj_style_gen.c ****     };
 144:Drivers/lvgl/lvgl/src/core/lv_obj_style_gen.c ****     lv_obj_set_local_style_prop(obj, LV_STYLE_PAD_TOP, v, selector);
 598              		.loc 1 144 0
 599 0002 1346     		mov	r3, r2
 600 0004 0A46     		mov	r2, r1
 601              	.LVL69:
 602 0006 1021     		movs	r1, #16
 603              	.LVL70:
 604 0008 FFF7FEFF 		bl	lv_obj_set_local_style_prop
 605              	.LVL71:
 145:Drivers/lvgl/lvgl/src/core/lv_obj_style_gen.c **** }
 606              		.loc 1 145 0
 607 000c 08BD     		pop	{r3, pc}
 608              		.cfi_endproc
 609              	.LFE176:
 611              		.section	.text.lv_obj_set_style_pad_bottom,"ax",%progbits
 612              		.align	1
 613              		.global	lv_obj_set_style_pad_bottom
 614              		.syntax unified
 615              		.thumb
 616              		.thumb_func
 617              		.fpu fpv5-d16
 619              	lv_obj_set_style_pad_bottom:
 620              	.LFB177:
 146:Drivers/lvgl/lvgl/src/core/lv_obj_style_gen.c **** 
 147:Drivers/lvgl/lvgl/src/core/lv_obj_style_gen.c **** void lv_obj_set_style_pad_bottom(struct _lv_obj_t * obj, lv_coord_t value, lv_style_selector_t sele
 148:Drivers/lvgl/lvgl/src/core/lv_obj_style_gen.c **** {
 621              		.loc 1 148 0
 622              		.cfi_startproc
 623              		@ args = 0, pretend = 0, frame = 0
 624              		@ frame_needed = 0, uses_anonymous_args = 0
 625              	.LVL72:
 626 0000 08B5     		push	{r3, lr}
 627              	.LCFI18:
 628              		.cfi_def_cfa_offset 8
 629              		.cfi_offset 3, -8
 630              		.cfi_offset 14, -4
ARM GAS  /tmp/cc7G7enf.s 			page 14


 149:Drivers/lvgl/lvgl/src/core/lv_obj_style_gen.c ****     lv_style_value_t v = {
 150:Drivers/lvgl/lvgl/src/core/lv_obj_style_gen.c ****         .num = (int32_t)value
 151:Drivers/lvgl/lvgl/src/core/lv_obj_style_gen.c ****     };
 152:Drivers/lvgl/lvgl/src/core/lv_obj_style_gen.c ****     lv_obj_set_local_style_prop(obj, LV_STYLE_PAD_BOTTOM, v, selector);
 631              		.loc 1 152 0
 632 0002 1346     		mov	r3, r2
 633 0004 0A46     		mov	r2, r1
 634              	.LVL73:
 635 0006 1121     		movs	r1, #17
 636              	.LVL74:
 637 0008 FFF7FEFF 		bl	lv_obj_set_local_style_prop
 638              	.LVL75:
 153:Drivers/lvgl/lvgl/src/core/lv_obj_style_gen.c **** }
 639              		.loc 1 153 0
 640 000c 08BD     		pop	{r3, pc}
 641              		.cfi_endproc
 642              	.LFE177:
 644              		.section	.text.lv_obj_set_style_pad_left,"ax",%progbits
 645              		.align	1
 646              		.global	lv_obj_set_style_pad_left
 647              		.syntax unified
 648              		.thumb
 649              		.thumb_func
 650              		.fpu fpv5-d16
 652              	lv_obj_set_style_pad_left:
 653              	.LFB178:
 154:Drivers/lvgl/lvgl/src/core/lv_obj_style_gen.c **** 
 155:Drivers/lvgl/lvgl/src/core/lv_obj_style_gen.c **** void lv_obj_set_style_pad_left(struct _lv_obj_t * obj, lv_coord_t value, lv_style_selector_t select
 156:Drivers/lvgl/lvgl/src/core/lv_obj_style_gen.c **** {
 654              		.loc 1 156 0
 655              		.cfi_startproc
 656              		@ args = 0, pretend = 0, frame = 0
 657              		@ frame_needed = 0, uses_anonymous_args = 0
 658              	.LVL76:
 659 0000 08B5     		push	{r3, lr}
 660              	.LCFI19:
 661              		.cfi_def_cfa_offset 8
 662              		.cfi_offset 3, -8
 663              		.cfi_offset 14, -4
 157:Drivers/lvgl/lvgl/src/core/lv_obj_style_gen.c ****     lv_style_value_t v = {
 158:Drivers/lvgl/lvgl/src/core/lv_obj_style_gen.c ****         .num = (int32_t)value
 159:Drivers/lvgl/lvgl/src/core/lv_obj_style_gen.c ****     };
 160:Drivers/lvgl/lvgl/src/core/lv_obj_style_gen.c ****     lv_obj_set_local_style_prop(obj, LV_STYLE_PAD_LEFT, v, selector);
 664              		.loc 1 160 0
 665 0002 1346     		mov	r3, r2
 666 0004 0A46     		mov	r2, r1
 667              	.LVL77:
 668 0006 1221     		movs	r1, #18
 669              	.LVL78:
 670 0008 FFF7FEFF 		bl	lv_obj_set_local_style_prop
 671              	.LVL79:
 161:Drivers/lvgl/lvgl/src/core/lv_obj_style_gen.c **** }
 672              		.loc 1 161 0
 673 000c 08BD     		pop	{r3, pc}
 674              		.cfi_endproc
 675              	.LFE178:
 677              		.section	.text.lv_obj_set_style_pad_right,"ax",%progbits
ARM GAS  /tmp/cc7G7enf.s 			page 15


 678              		.align	1
 679              		.global	lv_obj_set_style_pad_right
 680              		.syntax unified
 681              		.thumb
 682              		.thumb_func
 683              		.fpu fpv5-d16
 685              	lv_obj_set_style_pad_right:
 686              	.LFB179:
 162:Drivers/lvgl/lvgl/src/core/lv_obj_style_gen.c **** 
 163:Drivers/lvgl/lvgl/src/core/lv_obj_style_gen.c **** void lv_obj_set_style_pad_right(struct _lv_obj_t * obj, lv_coord_t value, lv_style_selector_t selec
 164:Drivers/lvgl/lvgl/src/core/lv_obj_style_gen.c **** {
 687              		.loc 1 164 0
 688              		.cfi_startproc
 689              		@ args = 0, pretend = 0, frame = 0
 690              		@ frame_needed = 0, uses_anonymous_args = 0
 691              	.LVL80:
 692 0000 08B5     		push	{r3, lr}
 693              	.LCFI20:
 694              		.cfi_def_cfa_offset 8
 695              		.cfi_offset 3, -8
 696              		.cfi_offset 14, -4
 165:Drivers/lvgl/lvgl/src/core/lv_obj_style_gen.c ****     lv_style_value_t v = {
 166:Drivers/lvgl/lvgl/src/core/lv_obj_style_gen.c ****         .num = (int32_t)value
 167:Drivers/lvgl/lvgl/src/core/lv_obj_style_gen.c ****     };
 168:Drivers/lvgl/lvgl/src/core/lv_obj_style_gen.c ****     lv_obj_set_local_style_prop(obj, LV_STYLE_PAD_RIGHT, v, selector);
 697              		.loc 1 168 0
 698 0002 1346     		mov	r3, r2
 699 0004 0A46     		mov	r2, r1
 700              	.LVL81:
 701 0006 1321     		movs	r1, #19
 702              	.LVL82:
 703 0008 FFF7FEFF 		bl	lv_obj_set_local_style_prop
 704              	.LVL83:
 169:Drivers/lvgl/lvgl/src/core/lv_obj_style_gen.c **** }
 705              		.loc 1 169 0
 706 000c 08BD     		pop	{r3, pc}
 707              		.cfi_endproc
 708              	.LFE179:
 710              		.section	.text.lv_obj_set_style_pad_row,"ax",%progbits
 711              		.align	1
 712              		.global	lv_obj_set_style_pad_row
 713              		.syntax unified
 714              		.thumb
 715              		.thumb_func
 716              		.fpu fpv5-d16
 718              	lv_obj_set_style_pad_row:
 719              	.LFB180:
 170:Drivers/lvgl/lvgl/src/core/lv_obj_style_gen.c **** 
 171:Drivers/lvgl/lvgl/src/core/lv_obj_style_gen.c **** void lv_obj_set_style_pad_row(struct _lv_obj_t * obj, lv_coord_t value, lv_style_selector_t selecto
 172:Drivers/lvgl/lvgl/src/core/lv_obj_style_gen.c **** {
 720              		.loc 1 172 0
 721              		.cfi_startproc
 722              		@ args = 0, pretend = 0, frame = 0
 723              		@ frame_needed = 0, uses_anonymous_args = 0
 724              	.LVL84:
 725 0000 08B5     		push	{r3, lr}
 726              	.LCFI21:
ARM GAS  /tmp/cc7G7enf.s 			page 16


 727              		.cfi_def_cfa_offset 8
 728              		.cfi_offset 3, -8
 729              		.cfi_offset 14, -4
 173:Drivers/lvgl/lvgl/src/core/lv_obj_style_gen.c ****     lv_style_value_t v = {
 174:Drivers/lvgl/lvgl/src/core/lv_obj_style_gen.c ****         .num = (int32_t)value
 175:Drivers/lvgl/lvgl/src/core/lv_obj_style_gen.c ****     };
 176:Drivers/lvgl/lvgl/src/core/lv_obj_style_gen.c ****     lv_obj_set_local_style_prop(obj, LV_STYLE_PAD_ROW, v, selector);
 730              		.loc 1 176 0
 731 0002 1346     		mov	r3, r2
 732 0004 0A46     		mov	r2, r1
 733              	.LVL85:
 734 0006 1421     		movs	r1, #20
 735              	.LVL86:
 736 0008 FFF7FEFF 		bl	lv_obj_set_local_style_prop
 737              	.LVL87:
 177:Drivers/lvgl/lvgl/src/core/lv_obj_style_gen.c **** }
 738              		.loc 1 177 0
 739 000c 08BD     		pop	{r3, pc}
 740              		.cfi_endproc
 741              	.LFE180:
 743              		.section	.text.lv_obj_set_style_pad_column,"ax",%progbits
 744              		.align	1
 745              		.global	lv_obj_set_style_pad_column
 746              		.syntax unified
 747              		.thumb
 748              		.thumb_func
 749              		.fpu fpv5-d16
 751              	lv_obj_set_style_pad_column:
 752              	.LFB181:
 178:Drivers/lvgl/lvgl/src/core/lv_obj_style_gen.c **** 
 179:Drivers/lvgl/lvgl/src/core/lv_obj_style_gen.c **** void lv_obj_set_style_pad_column(struct _lv_obj_t * obj, lv_coord_t value, lv_style_selector_t sele
 180:Drivers/lvgl/lvgl/src/core/lv_obj_style_gen.c **** {
 753              		.loc 1 180 0
 754              		.cfi_startproc
 755              		@ args = 0, pretend = 0, frame = 0
 756              		@ frame_needed = 0, uses_anonymous_args = 0
 757              	.LVL88:
 758 0000 08B5     		push	{r3, lr}
 759              	.LCFI22:
 760              		.cfi_def_cfa_offset 8
 761              		.cfi_offset 3, -8
 762              		.cfi_offset 14, -4
 181:Drivers/lvgl/lvgl/src/core/lv_obj_style_gen.c ****     lv_style_value_t v = {
 182:Drivers/lvgl/lvgl/src/core/lv_obj_style_gen.c ****         .num = (int32_t)value
 183:Drivers/lvgl/lvgl/src/core/lv_obj_style_gen.c ****     };
 184:Drivers/lvgl/lvgl/src/core/lv_obj_style_gen.c ****     lv_obj_set_local_style_prop(obj, LV_STYLE_PAD_COLUMN, v, selector);
 763              		.loc 1 184 0
 764 0002 1346     		mov	r3, r2
 765 0004 0A46     		mov	r2, r1
 766              	.LVL89:
 767 0006 1521     		movs	r1, #21
 768              	.LVL90:
 769 0008 FFF7FEFF 		bl	lv_obj_set_local_style_prop
 770              	.LVL91:
 185:Drivers/lvgl/lvgl/src/core/lv_obj_style_gen.c **** }
 771              		.loc 1 185 0
 772 000c 08BD     		pop	{r3, pc}
ARM GAS  /tmp/cc7G7enf.s 			page 17


 773              		.cfi_endproc
 774              	.LFE181:
 776              		.section	.text.lv_obj_set_style_bg_color,"ax",%progbits
 777              		.align	1
 778              		.global	lv_obj_set_style_bg_color
 779              		.syntax unified
 780              		.thumb
 781              		.thumb_func
 782              		.fpu fpv5-d16
 784              	lv_obj_set_style_bg_color:
 785              	.LFB182:
 186:Drivers/lvgl/lvgl/src/core/lv_obj_style_gen.c **** 
 187:Drivers/lvgl/lvgl/src/core/lv_obj_style_gen.c **** void lv_obj_set_style_bg_color(struct _lv_obj_t * obj, lv_color_t value, lv_style_selector_t select
 188:Drivers/lvgl/lvgl/src/core/lv_obj_style_gen.c **** {
 786              		.loc 1 188 0
 787              		.cfi_startproc
 788              		@ args = 0, pretend = 0, frame = 8
 789              		@ frame_needed = 0, uses_anonymous_args = 0
 790              	.LVL92:
 791 0000 10B5     		push	{r4, lr}
 792              	.LCFI23:
 793              		.cfi_def_cfa_offset 8
 794              		.cfi_offset 4, -8
 795              		.cfi_offset 14, -4
 796 0002 82B0     		sub	sp, sp, #8
 797              	.LCFI24:
 798              		.cfi_def_cfa_offset 16
 189:Drivers/lvgl/lvgl/src/core/lv_obj_style_gen.c ****     lv_style_value_t v = {
 799              		.loc 1 189 0
 800 0004 0023     		movs	r3, #0
 801 0006 ADF80030 		strh	r3, [sp]	@ movhi
 802 000a 1C46     		mov	r4, r3
 803              	.LVL93:
 804 000c 63F31F44 		bfi	r4, r3, #16, #16
 805              	.LVL94:
 806 0010 61F30F04 		bfi	r4, r1, #0, #16
 190:Drivers/lvgl/lvgl/src/core/lv_obj_style_gen.c ****         .color = value
 191:Drivers/lvgl/lvgl/src/core/lv_obj_style_gen.c ****     };
 192:Drivers/lvgl/lvgl/src/core/lv_obj_style_gen.c ****     lv_obj_set_local_style_prop(obj, LV_STYLE_BG_COLOR, v, selector);
 807              		.loc 1 192 0
 808 0014 1346     		mov	r3, r2
 809 0016 2246     		mov	r2, r4
 810              	.LVL95:
 811 0018 2021     		movs	r1, #32
 812              	.LVL96:
 813 001a FFF7FEFF 		bl	lv_obj_set_local_style_prop
 814              	.LVL97:
 193:Drivers/lvgl/lvgl/src/core/lv_obj_style_gen.c **** }
 815              		.loc 1 193 0
 816 001e 02B0     		add	sp, sp, #8
 817              	.LCFI25:
 818              		.cfi_def_cfa_offset 8
 819              		@ sp needed
 820 0020 10BD     		pop	{r4, pc}
 821              		.cfi_endproc
 822              	.LFE182:
 824              		.section	.text.lv_obj_set_style_bg_opa,"ax",%progbits
ARM GAS  /tmp/cc7G7enf.s 			page 18


 825              		.align	1
 826              		.global	lv_obj_set_style_bg_opa
 827              		.syntax unified
 828              		.thumb
 829              		.thumb_func
 830              		.fpu fpv5-d16
 832              	lv_obj_set_style_bg_opa:
 833              	.LFB183:
 194:Drivers/lvgl/lvgl/src/core/lv_obj_style_gen.c **** 
 195:Drivers/lvgl/lvgl/src/core/lv_obj_style_gen.c **** void lv_obj_set_style_bg_opa(struct _lv_obj_t * obj, lv_opa_t value, lv_style_selector_t selector)
 196:Drivers/lvgl/lvgl/src/core/lv_obj_style_gen.c **** {
 834              		.loc 1 196 0
 835              		.cfi_startproc
 836              		@ args = 0, pretend = 0, frame = 0
 837              		@ frame_needed = 0, uses_anonymous_args = 0
 838              	.LVL98:
 839 0000 08B5     		push	{r3, lr}
 840              	.LCFI26:
 841              		.cfi_def_cfa_offset 8
 842              		.cfi_offset 3, -8
 843              		.cfi_offset 14, -4
 197:Drivers/lvgl/lvgl/src/core/lv_obj_style_gen.c ****     lv_style_value_t v = {
 198:Drivers/lvgl/lvgl/src/core/lv_obj_style_gen.c ****         .num = (int32_t)value
 199:Drivers/lvgl/lvgl/src/core/lv_obj_style_gen.c ****     };
 200:Drivers/lvgl/lvgl/src/core/lv_obj_style_gen.c ****     lv_obj_set_local_style_prop(obj, LV_STYLE_BG_OPA, v, selector);
 844              		.loc 1 200 0
 845 0002 1346     		mov	r3, r2
 846 0004 0A46     		mov	r2, r1
 847              	.LVL99:
 848 0006 2121     		movs	r1, #33
 849              	.LVL100:
 850 0008 FFF7FEFF 		bl	lv_obj_set_local_style_prop
 851              	.LVL101:
 201:Drivers/lvgl/lvgl/src/core/lv_obj_style_gen.c **** }
 852              		.loc 1 201 0
 853 000c 08BD     		pop	{r3, pc}
 854              		.cfi_endproc
 855              	.LFE183:
 857              		.section	.text.lv_obj_set_style_bg_grad_color,"ax",%progbits
 858              		.align	1
 859              		.global	lv_obj_set_style_bg_grad_color
 860              		.syntax unified
 861              		.thumb
 862              		.thumb_func
 863              		.fpu fpv5-d16
 865              	lv_obj_set_style_bg_grad_color:
 866              	.LFB184:
 202:Drivers/lvgl/lvgl/src/core/lv_obj_style_gen.c **** 
 203:Drivers/lvgl/lvgl/src/core/lv_obj_style_gen.c **** void lv_obj_set_style_bg_grad_color(struct _lv_obj_t * obj, lv_color_t value, lv_style_selector_t s
 204:Drivers/lvgl/lvgl/src/core/lv_obj_style_gen.c **** {
 867              		.loc 1 204 0
 868              		.cfi_startproc
 869              		@ args = 0, pretend = 0, frame = 8
 870              		@ frame_needed = 0, uses_anonymous_args = 0
 871              	.LVL102:
 872 0000 10B5     		push	{r4, lr}
 873              	.LCFI27:
ARM GAS  /tmp/cc7G7enf.s 			page 19


 874              		.cfi_def_cfa_offset 8
 875              		.cfi_offset 4, -8
 876              		.cfi_offset 14, -4
 877 0002 82B0     		sub	sp, sp, #8
 878              	.LCFI28:
 879              		.cfi_def_cfa_offset 16
 205:Drivers/lvgl/lvgl/src/core/lv_obj_style_gen.c ****     lv_style_value_t v = {
 880              		.loc 1 205 0
 881 0004 0023     		movs	r3, #0
 882 0006 ADF80030 		strh	r3, [sp]	@ movhi
 883 000a 1C46     		mov	r4, r3
 884              	.LVL103:
 885 000c 63F31F44 		bfi	r4, r3, #16, #16
 886              	.LVL104:
 887 0010 61F30F04 		bfi	r4, r1, #0, #16
 206:Drivers/lvgl/lvgl/src/core/lv_obj_style_gen.c ****         .color = value
 207:Drivers/lvgl/lvgl/src/core/lv_obj_style_gen.c ****     };
 208:Drivers/lvgl/lvgl/src/core/lv_obj_style_gen.c ****     lv_obj_set_local_style_prop(obj, LV_STYLE_BG_GRAD_COLOR, v, selector);
 888              		.loc 1 208 0
 889 0014 1346     		mov	r3, r2
 890 0016 2246     		mov	r2, r4
 891              	.LVL105:
 892 0018 2221     		movs	r1, #34
 893              	.LVL106:
 894 001a FFF7FEFF 		bl	lv_obj_set_local_style_prop
 895              	.LVL107:
 209:Drivers/lvgl/lvgl/src/core/lv_obj_style_gen.c **** }
 896              		.loc 1 209 0
 897 001e 02B0     		add	sp, sp, #8
 898              	.LCFI29:
 899              		.cfi_def_cfa_offset 8
 900              		@ sp needed
 901 0020 10BD     		pop	{r4, pc}
 902              		.cfi_endproc
 903              	.LFE184:
 905              		.section	.text.lv_obj_set_style_bg_grad_dir,"ax",%progbits
 906              		.align	1
 907              		.global	lv_obj_set_style_bg_grad_dir
 908              		.syntax unified
 909              		.thumb
 910              		.thumb_func
 911              		.fpu fpv5-d16
 913              	lv_obj_set_style_bg_grad_dir:
 914              	.LFB185:
 210:Drivers/lvgl/lvgl/src/core/lv_obj_style_gen.c **** 
 211:Drivers/lvgl/lvgl/src/core/lv_obj_style_gen.c **** void lv_obj_set_style_bg_grad_dir(struct _lv_obj_t * obj, lv_grad_dir_t value, lv_style_selector_t 
 212:Drivers/lvgl/lvgl/src/core/lv_obj_style_gen.c **** {
 915              		.loc 1 212 0
 916              		.cfi_startproc
 917              		@ args = 0, pretend = 0, frame = 0
 918              		@ frame_needed = 0, uses_anonymous_args = 0
 919              	.LVL108:
 920 0000 08B5     		push	{r3, lr}
 921              	.LCFI30:
 922              		.cfi_def_cfa_offset 8
 923              		.cfi_offset 3, -8
 924              		.cfi_offset 14, -4
ARM GAS  /tmp/cc7G7enf.s 			page 20


 213:Drivers/lvgl/lvgl/src/core/lv_obj_style_gen.c ****     lv_style_value_t v = {
 214:Drivers/lvgl/lvgl/src/core/lv_obj_style_gen.c ****         .num = (int32_t)value
 215:Drivers/lvgl/lvgl/src/core/lv_obj_style_gen.c ****     };
 216:Drivers/lvgl/lvgl/src/core/lv_obj_style_gen.c ****     lv_obj_set_local_style_prop(obj, LV_STYLE_BG_GRAD_DIR, v, selector);
 925              		.loc 1 216 0
 926 0002 1346     		mov	r3, r2
 927 0004 0A46     		mov	r2, r1
 928              	.LVL109:
 929 0006 2321     		movs	r1, #35
 930              	.LVL110:
 931 0008 FFF7FEFF 		bl	lv_obj_set_local_style_prop
 932              	.LVL111:
 217:Drivers/lvgl/lvgl/src/core/lv_obj_style_gen.c **** }
 933              		.loc 1 217 0
 934 000c 08BD     		pop	{r3, pc}
 935              		.cfi_endproc
 936              	.LFE185:
 938              		.section	.text.lv_obj_set_style_bg_main_stop,"ax",%progbits
 939              		.align	1
 940              		.global	lv_obj_set_style_bg_main_stop
 941              		.syntax unified
 942              		.thumb
 943              		.thumb_func
 944              		.fpu fpv5-d16
 946              	lv_obj_set_style_bg_main_stop:
 947              	.LFB186:
 218:Drivers/lvgl/lvgl/src/core/lv_obj_style_gen.c **** 
 219:Drivers/lvgl/lvgl/src/core/lv_obj_style_gen.c **** void lv_obj_set_style_bg_main_stop(struct _lv_obj_t * obj, lv_coord_t value, lv_style_selector_t se
 220:Drivers/lvgl/lvgl/src/core/lv_obj_style_gen.c **** {
 948              		.loc 1 220 0
 949              		.cfi_startproc
 950              		@ args = 0, pretend = 0, frame = 0
 951              		@ frame_needed = 0, uses_anonymous_args = 0
 952              	.LVL112:
 953 0000 08B5     		push	{r3, lr}
 954              	.LCFI31:
 955              		.cfi_def_cfa_offset 8
 956              		.cfi_offset 3, -8
 957              		.cfi_offset 14, -4
 221:Drivers/lvgl/lvgl/src/core/lv_obj_style_gen.c ****     lv_style_value_t v = {
 222:Drivers/lvgl/lvgl/src/core/lv_obj_style_gen.c ****         .num = (int32_t)value
 223:Drivers/lvgl/lvgl/src/core/lv_obj_style_gen.c ****     };
 224:Drivers/lvgl/lvgl/src/core/lv_obj_style_gen.c ****     lv_obj_set_local_style_prop(obj, LV_STYLE_BG_MAIN_STOP, v, selector);
 958              		.loc 1 224 0
 959 0002 1346     		mov	r3, r2
 960 0004 0A46     		mov	r2, r1
 961              	.LVL113:
 962 0006 2421     		movs	r1, #36
 963              	.LVL114:
 964 0008 FFF7FEFF 		bl	lv_obj_set_local_style_prop
 965              	.LVL115:
 225:Drivers/lvgl/lvgl/src/core/lv_obj_style_gen.c **** }
 966              		.loc 1 225 0
 967 000c 08BD     		pop	{r3, pc}
 968              		.cfi_endproc
 969              	.LFE186:
 971              		.section	.text.lv_obj_set_style_bg_grad_stop,"ax",%progbits
ARM GAS  /tmp/cc7G7enf.s 			page 21


 972              		.align	1
 973              		.global	lv_obj_set_style_bg_grad_stop
 974              		.syntax unified
 975              		.thumb
 976              		.thumb_func
 977              		.fpu fpv5-d16
 979              	lv_obj_set_style_bg_grad_stop:
 980              	.LFB187:
 226:Drivers/lvgl/lvgl/src/core/lv_obj_style_gen.c **** 
 227:Drivers/lvgl/lvgl/src/core/lv_obj_style_gen.c **** void lv_obj_set_style_bg_grad_stop(struct _lv_obj_t * obj, lv_coord_t value, lv_style_selector_t se
 228:Drivers/lvgl/lvgl/src/core/lv_obj_style_gen.c **** {
 981              		.loc 1 228 0
 982              		.cfi_startproc
 983              		@ args = 0, pretend = 0, frame = 0
 984              		@ frame_needed = 0, uses_anonymous_args = 0
 985              	.LVL116:
 986 0000 08B5     		push	{r3, lr}
 987              	.LCFI32:
 988              		.cfi_def_cfa_offset 8
 989              		.cfi_offset 3, -8
 990              		.cfi_offset 14, -4
 229:Drivers/lvgl/lvgl/src/core/lv_obj_style_gen.c ****     lv_style_value_t v = {
 230:Drivers/lvgl/lvgl/src/core/lv_obj_style_gen.c ****         .num = (int32_t)value
 231:Drivers/lvgl/lvgl/src/core/lv_obj_style_gen.c ****     };
 232:Drivers/lvgl/lvgl/src/core/lv_obj_style_gen.c ****     lv_obj_set_local_style_prop(obj, LV_STYLE_BG_GRAD_STOP, v, selector);
 991              		.loc 1 232 0
 992 0002 1346     		mov	r3, r2
 993 0004 0A46     		mov	r2, r1
 994              	.LVL117:
 995 0006 2521     		movs	r1, #37
 996              	.LVL118:
 997 0008 FFF7FEFF 		bl	lv_obj_set_local_style_prop
 998              	.LVL119:
 233:Drivers/lvgl/lvgl/src/core/lv_obj_style_gen.c **** }
 999              		.loc 1 233 0
 1000 000c 08BD     		pop	{r3, pc}
 1001              		.cfi_endproc
 1002              	.LFE187:
 1004              		.section	.text.lv_obj_set_style_bg_grad,"ax",%progbits
 1005              		.align	1
 1006              		.global	lv_obj_set_style_bg_grad
 1007              		.syntax unified
 1008              		.thumb
 1009              		.thumb_func
 1010              		.fpu fpv5-d16
 1012              	lv_obj_set_style_bg_grad:
 1013              	.LFB188:
 234:Drivers/lvgl/lvgl/src/core/lv_obj_style_gen.c **** 
 235:Drivers/lvgl/lvgl/src/core/lv_obj_style_gen.c **** void lv_obj_set_style_bg_grad(struct _lv_obj_t * obj, const lv_grad_dsc_t * value, lv_style_selecto
 236:Drivers/lvgl/lvgl/src/core/lv_obj_style_gen.c **** {
 1014              		.loc 1 236 0
 1015              		.cfi_startproc
 1016              		@ args = 0, pretend = 0, frame = 0
 1017              		@ frame_needed = 0, uses_anonymous_args = 0
 1018              	.LVL120:
 1019 0000 08B5     		push	{r3, lr}
 1020              	.LCFI33:
ARM GAS  /tmp/cc7G7enf.s 			page 22


 1021              		.cfi_def_cfa_offset 8
 1022              		.cfi_offset 3, -8
 1023              		.cfi_offset 14, -4
 237:Drivers/lvgl/lvgl/src/core/lv_obj_style_gen.c ****     lv_style_value_t v = {
 238:Drivers/lvgl/lvgl/src/core/lv_obj_style_gen.c ****         .ptr = value
 239:Drivers/lvgl/lvgl/src/core/lv_obj_style_gen.c ****     };
 240:Drivers/lvgl/lvgl/src/core/lv_obj_style_gen.c ****     lv_obj_set_local_style_prop(obj, LV_STYLE_BG_GRAD, v, selector);
 1024              		.loc 1 240 0
 1025 0002 1346     		mov	r3, r2
 1026 0004 0A46     		mov	r2, r1
 1027              	.LVL121:
 1028 0006 2621     		movs	r1, #38
 1029              	.LVL122:
 1030 0008 FFF7FEFF 		bl	lv_obj_set_local_style_prop
 1031              	.LVL123:
 241:Drivers/lvgl/lvgl/src/core/lv_obj_style_gen.c **** }
 1032              		.loc 1 241 0
 1033 000c 08BD     		pop	{r3, pc}
 1034              		.cfi_endproc
 1035              	.LFE188:
 1037              		.section	.text.lv_obj_set_style_bg_dither_mode,"ax",%progbits
 1038              		.align	1
 1039              		.global	lv_obj_set_style_bg_dither_mode
 1040              		.syntax unified
 1041              		.thumb
 1042              		.thumb_func
 1043              		.fpu fpv5-d16
 1045              	lv_obj_set_style_bg_dither_mode:
 1046              	.LFB189:
 242:Drivers/lvgl/lvgl/src/core/lv_obj_style_gen.c **** 
 243:Drivers/lvgl/lvgl/src/core/lv_obj_style_gen.c **** void lv_obj_set_style_bg_dither_mode(struct _lv_obj_t * obj, lv_dither_mode_t value, lv_style_selec
 244:Drivers/lvgl/lvgl/src/core/lv_obj_style_gen.c **** {
 1047              		.loc 1 244 0
 1048              		.cfi_startproc
 1049              		@ args = 0, pretend = 0, frame = 0
 1050              		@ frame_needed = 0, uses_anonymous_args = 0
 1051              	.LVL124:
 1052 0000 08B5     		push	{r3, lr}
 1053              	.LCFI34:
 1054              		.cfi_def_cfa_offset 8
 1055              		.cfi_offset 3, -8
 1056              		.cfi_offset 14, -4
 245:Drivers/lvgl/lvgl/src/core/lv_obj_style_gen.c ****     lv_style_value_t v = {
 246:Drivers/lvgl/lvgl/src/core/lv_obj_style_gen.c ****         .num = (int32_t)value
 247:Drivers/lvgl/lvgl/src/core/lv_obj_style_gen.c ****     };
 248:Drivers/lvgl/lvgl/src/core/lv_obj_style_gen.c ****     lv_obj_set_local_style_prop(obj, LV_STYLE_BG_DITHER_MODE, v, selector);
 1057              		.loc 1 248 0
 1058 0002 1346     		mov	r3, r2
 1059 0004 0A46     		mov	r2, r1
 1060              	.LVL125:
 1061 0006 2721     		movs	r1, #39
 1062              	.LVL126:
 1063 0008 FFF7FEFF 		bl	lv_obj_set_local_style_prop
 1064              	.LVL127:
 249:Drivers/lvgl/lvgl/src/core/lv_obj_style_gen.c **** }
 1065              		.loc 1 249 0
 1066 000c 08BD     		pop	{r3, pc}
ARM GAS  /tmp/cc7G7enf.s 			page 23


 1067              		.cfi_endproc
 1068              	.LFE189:
 1070              		.section	.text.lv_obj_set_style_bg_img_src,"ax",%progbits
 1071              		.align	1
 1072              		.global	lv_obj_set_style_bg_img_src
 1073              		.syntax unified
 1074              		.thumb
 1075              		.thumb_func
 1076              		.fpu fpv5-d16
 1078              	lv_obj_set_style_bg_img_src:
 1079              	.LFB190:
 250:Drivers/lvgl/lvgl/src/core/lv_obj_style_gen.c **** 
 251:Drivers/lvgl/lvgl/src/core/lv_obj_style_gen.c **** void lv_obj_set_style_bg_img_src(struct _lv_obj_t * obj, const void * value, lv_style_selector_t se
 252:Drivers/lvgl/lvgl/src/core/lv_obj_style_gen.c **** {
 1080              		.loc 1 252 0
 1081              		.cfi_startproc
 1082              		@ args = 0, pretend = 0, frame = 0
 1083              		@ frame_needed = 0, uses_anonymous_args = 0
 1084              	.LVL128:
 1085 0000 08B5     		push	{r3, lr}
 1086              	.LCFI35:
 1087              		.cfi_def_cfa_offset 8
 1088              		.cfi_offset 3, -8
 1089              		.cfi_offset 14, -4
 253:Drivers/lvgl/lvgl/src/core/lv_obj_style_gen.c ****     lv_style_value_t v = {
 254:Drivers/lvgl/lvgl/src/core/lv_obj_style_gen.c ****         .ptr = value
 255:Drivers/lvgl/lvgl/src/core/lv_obj_style_gen.c ****     };
 256:Drivers/lvgl/lvgl/src/core/lv_obj_style_gen.c ****     lv_obj_set_local_style_prop(obj, LV_STYLE_BG_IMG_SRC, v, selector);
 1090              		.loc 1 256 0
 1091 0002 1346     		mov	r3, r2
 1092 0004 0A46     		mov	r2, r1
 1093              	.LVL129:
 1094 0006 2821     		movs	r1, #40
 1095              	.LVL130:
 1096 0008 FFF7FEFF 		bl	lv_obj_set_local_style_prop
 1097              	.LVL131:
 257:Drivers/lvgl/lvgl/src/core/lv_obj_style_gen.c **** }
 1098              		.loc 1 257 0
 1099 000c 08BD     		pop	{r3, pc}
 1100              		.cfi_endproc
 1101              	.LFE190:
 1103              		.section	.text.lv_obj_set_style_bg_img_opa,"ax",%progbits
 1104              		.align	1
 1105              		.global	lv_obj_set_style_bg_img_opa
 1106              		.syntax unified
 1107              		.thumb
 1108              		.thumb_func
 1109              		.fpu fpv5-d16
 1111              	lv_obj_set_style_bg_img_opa:
 1112              	.LFB191:
 258:Drivers/lvgl/lvgl/src/core/lv_obj_style_gen.c **** 
 259:Drivers/lvgl/lvgl/src/core/lv_obj_style_gen.c **** void lv_obj_set_style_bg_img_opa(struct _lv_obj_t * obj, lv_opa_t value, lv_style_selector_t select
 260:Drivers/lvgl/lvgl/src/core/lv_obj_style_gen.c **** {
 1113              		.loc 1 260 0
 1114              		.cfi_startproc
 1115              		@ args = 0, pretend = 0, frame = 0
 1116              		@ frame_needed = 0, uses_anonymous_args = 0
ARM GAS  /tmp/cc7G7enf.s 			page 24


 1117              	.LVL132:
 1118 0000 08B5     		push	{r3, lr}
 1119              	.LCFI36:
 1120              		.cfi_def_cfa_offset 8
 1121              		.cfi_offset 3, -8
 1122              		.cfi_offset 14, -4
 261:Drivers/lvgl/lvgl/src/core/lv_obj_style_gen.c ****     lv_style_value_t v = {
 262:Drivers/lvgl/lvgl/src/core/lv_obj_style_gen.c ****         .num = (int32_t)value
 263:Drivers/lvgl/lvgl/src/core/lv_obj_style_gen.c ****     };
 264:Drivers/lvgl/lvgl/src/core/lv_obj_style_gen.c ****     lv_obj_set_local_style_prop(obj, LV_STYLE_BG_IMG_OPA, v, selector);
 1123              		.loc 1 264 0
 1124 0002 1346     		mov	r3, r2
 1125 0004 0A46     		mov	r2, r1
 1126              	.LVL133:
 1127 0006 2921     		movs	r1, #41
 1128              	.LVL134:
 1129 0008 FFF7FEFF 		bl	lv_obj_set_local_style_prop
 1130              	.LVL135:
 265:Drivers/lvgl/lvgl/src/core/lv_obj_style_gen.c **** }
 1131              		.loc 1 265 0
 1132 000c 08BD     		pop	{r3, pc}
 1133              		.cfi_endproc
 1134              	.LFE191:
 1136              		.section	.text.lv_obj_set_style_bg_img_recolor,"ax",%progbits
 1137              		.align	1
 1138              		.global	lv_obj_set_style_bg_img_recolor
 1139              		.syntax unified
 1140              		.thumb
 1141              		.thumb_func
 1142              		.fpu fpv5-d16
 1144              	lv_obj_set_style_bg_img_recolor:
 1145              	.LFB192:
 266:Drivers/lvgl/lvgl/src/core/lv_obj_style_gen.c **** 
 267:Drivers/lvgl/lvgl/src/core/lv_obj_style_gen.c **** void lv_obj_set_style_bg_img_recolor(struct _lv_obj_t * obj, lv_color_t value, lv_style_selector_t 
 268:Drivers/lvgl/lvgl/src/core/lv_obj_style_gen.c **** {
 1146              		.loc 1 268 0
 1147              		.cfi_startproc
 1148              		@ args = 0, pretend = 0, frame = 8
 1149              		@ frame_needed = 0, uses_anonymous_args = 0
 1150              	.LVL136:
 1151 0000 10B5     		push	{r4, lr}
 1152              	.LCFI37:
 1153              		.cfi_def_cfa_offset 8
 1154              		.cfi_offset 4, -8
 1155              		.cfi_offset 14, -4
 1156 0002 82B0     		sub	sp, sp, #8
 1157              	.LCFI38:
 1158              		.cfi_def_cfa_offset 16
 269:Drivers/lvgl/lvgl/src/core/lv_obj_style_gen.c ****     lv_style_value_t v = {
 1159              		.loc 1 269 0
 1160 0004 0023     		movs	r3, #0
 1161 0006 ADF80030 		strh	r3, [sp]	@ movhi
 1162 000a 1C46     		mov	r4, r3
 1163              	.LVL137:
 1164 000c 63F31F44 		bfi	r4, r3, #16, #16
 1165              	.LVL138:
 1166 0010 61F30F04 		bfi	r4, r1, #0, #16
ARM GAS  /tmp/cc7G7enf.s 			page 25


 270:Drivers/lvgl/lvgl/src/core/lv_obj_style_gen.c ****         .color = value
 271:Drivers/lvgl/lvgl/src/core/lv_obj_style_gen.c ****     };
 272:Drivers/lvgl/lvgl/src/core/lv_obj_style_gen.c ****     lv_obj_set_local_style_prop(obj, LV_STYLE_BG_IMG_RECOLOR, v, selector);
 1167              		.loc 1 272 0
 1168 0014 1346     		mov	r3, r2
 1169 0016 2246     		mov	r2, r4
 1170              	.LVL139:
 1171 0018 2A21     		movs	r1, #42
 1172              	.LVL140:
 1173 001a FFF7FEFF 		bl	lv_obj_set_local_style_prop
 1174              	.LVL141:
 273:Drivers/lvgl/lvgl/src/core/lv_obj_style_gen.c **** }
 1175              		.loc 1 273 0
 1176 001e 02B0     		add	sp, sp, #8
 1177              	.LCFI39:
 1178              		.cfi_def_cfa_offset 8
 1179              		@ sp needed
 1180 0020 10BD     		pop	{r4, pc}
 1181              		.cfi_endproc
 1182              	.LFE192:
 1184              		.section	.text.lv_obj_set_style_bg_img_recolor_opa,"ax",%progbits
 1185              		.align	1
 1186              		.global	lv_obj_set_style_bg_img_recolor_opa
 1187              		.syntax unified
 1188              		.thumb
 1189              		.thumb_func
 1190              		.fpu fpv5-d16
 1192              	lv_obj_set_style_bg_img_recolor_opa:
 1193              	.LFB193:
 274:Drivers/lvgl/lvgl/src/core/lv_obj_style_gen.c **** 
 275:Drivers/lvgl/lvgl/src/core/lv_obj_style_gen.c **** void lv_obj_set_style_bg_img_recolor_opa(struct _lv_obj_t * obj, lv_opa_t value, lv_style_selector_
 276:Drivers/lvgl/lvgl/src/core/lv_obj_style_gen.c **** {
 1194              		.loc 1 276 0
 1195              		.cfi_startproc
 1196              		@ args = 0, pretend = 0, frame = 0
 1197              		@ frame_needed = 0, uses_anonymous_args = 0
 1198              	.LVL142:
 1199 0000 08B5     		push	{r3, lr}
 1200              	.LCFI40:
 1201              		.cfi_def_cfa_offset 8
 1202              		.cfi_offset 3, -8
 1203              		.cfi_offset 14, -4
 277:Drivers/lvgl/lvgl/src/core/lv_obj_style_gen.c ****     lv_style_value_t v = {
 278:Drivers/lvgl/lvgl/src/core/lv_obj_style_gen.c ****         .num = (int32_t)value
 279:Drivers/lvgl/lvgl/src/core/lv_obj_style_gen.c ****     };
 280:Drivers/lvgl/lvgl/src/core/lv_obj_style_gen.c ****     lv_obj_set_local_style_prop(obj, LV_STYLE_BG_IMG_RECOLOR_OPA, v, selector);
 1204              		.loc 1 280 0
 1205 0002 1346     		mov	r3, r2
 1206 0004 0A46     		mov	r2, r1
 1207              	.LVL143:
 1208 0006 2B21     		movs	r1, #43
 1209              	.LVL144:
 1210 0008 FFF7FEFF 		bl	lv_obj_set_local_style_prop
 1211              	.LVL145:
 281:Drivers/lvgl/lvgl/src/core/lv_obj_style_gen.c **** }
 1212              		.loc 1 281 0
 1213 000c 08BD     		pop	{r3, pc}
ARM GAS  /tmp/cc7G7enf.s 			page 26


 1214              		.cfi_endproc
 1215              	.LFE193:
 1217              		.section	.text.lv_obj_set_style_bg_img_tiled,"ax",%progbits
 1218              		.align	1
 1219              		.global	lv_obj_set_style_bg_img_tiled
 1220              		.syntax unified
 1221              		.thumb
 1222              		.thumb_func
 1223              		.fpu fpv5-d16
 1225              	lv_obj_set_style_bg_img_tiled:
 1226              	.LFB194:
 282:Drivers/lvgl/lvgl/src/core/lv_obj_style_gen.c **** 
 283:Drivers/lvgl/lvgl/src/core/lv_obj_style_gen.c **** void lv_obj_set_style_bg_img_tiled(struct _lv_obj_t * obj, bool value, lv_style_selector_t selector
 284:Drivers/lvgl/lvgl/src/core/lv_obj_style_gen.c **** {
 1227              		.loc 1 284 0
 1228              		.cfi_startproc
 1229              		@ args = 0, pretend = 0, frame = 0
 1230              		@ frame_needed = 0, uses_anonymous_args = 0
 1231              	.LVL146:
 1232 0000 08B5     		push	{r3, lr}
 1233              	.LCFI41:
 1234              		.cfi_def_cfa_offset 8
 1235              		.cfi_offset 3, -8
 1236              		.cfi_offset 14, -4
 285:Drivers/lvgl/lvgl/src/core/lv_obj_style_gen.c ****     lv_style_value_t v = {
 286:Drivers/lvgl/lvgl/src/core/lv_obj_style_gen.c ****         .num = (int32_t)value
 287:Drivers/lvgl/lvgl/src/core/lv_obj_style_gen.c ****     };
 288:Drivers/lvgl/lvgl/src/core/lv_obj_style_gen.c ****     lv_obj_set_local_style_prop(obj, LV_STYLE_BG_IMG_TILED, v, selector);
 1237              		.loc 1 288 0
 1238 0002 1346     		mov	r3, r2
 1239 0004 0A46     		mov	r2, r1
 1240              	.LVL147:
 1241 0006 2C21     		movs	r1, #44
 1242              	.LVL148:
 1243 0008 FFF7FEFF 		bl	lv_obj_set_local_style_prop
 1244              	.LVL149:
 289:Drivers/lvgl/lvgl/src/core/lv_obj_style_gen.c **** }
 1245              		.loc 1 289 0
 1246 000c 08BD     		pop	{r3, pc}
 1247              		.cfi_endproc
 1248              	.LFE194:
 1250              		.section	.text.lv_obj_set_style_border_color,"ax",%progbits
 1251              		.align	1
 1252              		.global	lv_obj_set_style_border_color
 1253              		.syntax unified
 1254              		.thumb
 1255              		.thumb_func
 1256              		.fpu fpv5-d16
 1258              	lv_obj_set_style_border_color:
 1259              	.LFB195:
 290:Drivers/lvgl/lvgl/src/core/lv_obj_style_gen.c **** 
 291:Drivers/lvgl/lvgl/src/core/lv_obj_style_gen.c **** void lv_obj_set_style_border_color(struct _lv_obj_t * obj, lv_color_t value, lv_style_selector_t se
 292:Drivers/lvgl/lvgl/src/core/lv_obj_style_gen.c **** {
 1260              		.loc 1 292 0
 1261              		.cfi_startproc
 1262              		@ args = 0, pretend = 0, frame = 8
 1263              		@ frame_needed = 0, uses_anonymous_args = 0
ARM GAS  /tmp/cc7G7enf.s 			page 27


 1264              	.LVL150:
 1265 0000 10B5     		push	{r4, lr}
 1266              	.LCFI42:
 1267              		.cfi_def_cfa_offset 8
 1268              		.cfi_offset 4, -8
 1269              		.cfi_offset 14, -4
 1270 0002 82B0     		sub	sp, sp, #8
 1271              	.LCFI43:
 1272              		.cfi_def_cfa_offset 16
 293:Drivers/lvgl/lvgl/src/core/lv_obj_style_gen.c ****     lv_style_value_t v = {
 1273              		.loc 1 293 0
 1274 0004 0023     		movs	r3, #0
 1275 0006 ADF80030 		strh	r3, [sp]	@ movhi
 1276 000a 1C46     		mov	r4, r3
 1277              	.LVL151:
 1278 000c 63F31F44 		bfi	r4, r3, #16, #16
 1279              	.LVL152:
 1280 0010 61F30F04 		bfi	r4, r1, #0, #16
 294:Drivers/lvgl/lvgl/src/core/lv_obj_style_gen.c ****         .color = value
 295:Drivers/lvgl/lvgl/src/core/lv_obj_style_gen.c ****     };
 296:Drivers/lvgl/lvgl/src/core/lv_obj_style_gen.c ****     lv_obj_set_local_style_prop(obj, LV_STYLE_BORDER_COLOR, v, selector);
 1281              		.loc 1 296 0
 1282 0014 1346     		mov	r3, r2
 1283 0016 2246     		mov	r2, r4
 1284              	.LVL153:
 1285 0018 3021     		movs	r1, #48
 1286              	.LVL154:
 1287 001a FFF7FEFF 		bl	lv_obj_set_local_style_prop
 1288              	.LVL155:
 297:Drivers/lvgl/lvgl/src/core/lv_obj_style_gen.c **** }
 1289              		.loc 1 297 0
 1290 001e 02B0     		add	sp, sp, #8
 1291              	.LCFI44:
 1292              		.cfi_def_cfa_offset 8
 1293              		@ sp needed
 1294 0020 10BD     		pop	{r4, pc}
 1295              		.cfi_endproc
 1296              	.LFE195:
 1298              		.section	.text.lv_obj_set_style_border_opa,"ax",%progbits
 1299              		.align	1
 1300              		.global	lv_obj_set_style_border_opa
 1301              		.syntax unified
 1302              		.thumb
 1303              		.thumb_func
 1304              		.fpu fpv5-d16
 1306              	lv_obj_set_style_border_opa:
 1307              	.LFB196:
 298:Drivers/lvgl/lvgl/src/core/lv_obj_style_gen.c **** 
 299:Drivers/lvgl/lvgl/src/core/lv_obj_style_gen.c **** void lv_obj_set_style_border_opa(struct _lv_obj_t * obj, lv_opa_t value, lv_style_selector_t select
 300:Drivers/lvgl/lvgl/src/core/lv_obj_style_gen.c **** {
 1308              		.loc 1 300 0
 1309              		.cfi_startproc
 1310              		@ args = 0, pretend = 0, frame = 0
 1311              		@ frame_needed = 0, uses_anonymous_args = 0
 1312              	.LVL156:
 1313 0000 08B5     		push	{r3, lr}
 1314              	.LCFI45:
ARM GAS  /tmp/cc7G7enf.s 			page 28


 1315              		.cfi_def_cfa_offset 8
 1316              		.cfi_offset 3, -8
 1317              		.cfi_offset 14, -4
 301:Drivers/lvgl/lvgl/src/core/lv_obj_style_gen.c ****     lv_style_value_t v = {
 302:Drivers/lvgl/lvgl/src/core/lv_obj_style_gen.c ****         .num = (int32_t)value
 303:Drivers/lvgl/lvgl/src/core/lv_obj_style_gen.c ****     };
 304:Drivers/lvgl/lvgl/src/core/lv_obj_style_gen.c ****     lv_obj_set_local_style_prop(obj, LV_STYLE_BORDER_OPA, v, selector);
 1318              		.loc 1 304 0
 1319 0002 1346     		mov	r3, r2
 1320 0004 0A46     		mov	r2, r1
 1321              	.LVL157:
 1322 0006 3121     		movs	r1, #49
 1323              	.LVL158:
 1324 0008 FFF7FEFF 		bl	lv_obj_set_local_style_prop
 1325              	.LVL159:
 305:Drivers/lvgl/lvgl/src/core/lv_obj_style_gen.c **** }
 1326              		.loc 1 305 0
 1327 000c 08BD     		pop	{r3, pc}
 1328              		.cfi_endproc
 1329              	.LFE196:
 1331              		.section	.text.lv_obj_set_style_border_width,"ax",%progbits
 1332              		.align	1
 1333              		.global	lv_obj_set_style_border_width
 1334              		.syntax unified
 1335              		.thumb
 1336              		.thumb_func
 1337              		.fpu fpv5-d16
 1339              	lv_obj_set_style_border_width:
 1340              	.LFB197:
 306:Drivers/lvgl/lvgl/src/core/lv_obj_style_gen.c **** 
 307:Drivers/lvgl/lvgl/src/core/lv_obj_style_gen.c **** void lv_obj_set_style_border_width(struct _lv_obj_t * obj, lv_coord_t value, lv_style_selector_t se
 308:Drivers/lvgl/lvgl/src/core/lv_obj_style_gen.c **** {
 1341              		.loc 1 308 0
 1342              		.cfi_startproc
 1343              		@ args = 0, pretend = 0, frame = 0
 1344              		@ frame_needed = 0, uses_anonymous_args = 0
 1345              	.LVL160:
 1346 0000 08B5     		push	{r3, lr}
 1347              	.LCFI46:
 1348              		.cfi_def_cfa_offset 8
 1349              		.cfi_offset 3, -8
 1350              		.cfi_offset 14, -4
 309:Drivers/lvgl/lvgl/src/core/lv_obj_style_gen.c ****     lv_style_value_t v = {
 310:Drivers/lvgl/lvgl/src/core/lv_obj_style_gen.c ****         .num = (int32_t)value
 311:Drivers/lvgl/lvgl/src/core/lv_obj_style_gen.c ****     };
 312:Drivers/lvgl/lvgl/src/core/lv_obj_style_gen.c ****     lv_obj_set_local_style_prop(obj, LV_STYLE_BORDER_WIDTH, v, selector);
 1351              		.loc 1 312 0
 1352 0002 1346     		mov	r3, r2
 1353 0004 0A46     		mov	r2, r1
 1354              	.LVL161:
 1355 0006 3221     		movs	r1, #50
 1356              	.LVL162:
 1357 0008 FFF7FEFF 		bl	lv_obj_set_local_style_prop
 1358              	.LVL163:
 313:Drivers/lvgl/lvgl/src/core/lv_obj_style_gen.c **** }
 1359              		.loc 1 313 0
 1360 000c 08BD     		pop	{r3, pc}
ARM GAS  /tmp/cc7G7enf.s 			page 29


 1361              		.cfi_endproc
 1362              	.LFE197:
 1364              		.section	.text.lv_obj_set_style_border_side,"ax",%progbits
 1365              		.align	1
 1366              		.global	lv_obj_set_style_border_side
 1367              		.syntax unified
 1368              		.thumb
 1369              		.thumb_func
 1370              		.fpu fpv5-d16
 1372              	lv_obj_set_style_border_side:
 1373              	.LFB198:
 314:Drivers/lvgl/lvgl/src/core/lv_obj_style_gen.c **** 
 315:Drivers/lvgl/lvgl/src/core/lv_obj_style_gen.c **** void lv_obj_set_style_border_side(struct _lv_obj_t * obj, lv_border_side_t value, lv_style_selector
 316:Drivers/lvgl/lvgl/src/core/lv_obj_style_gen.c **** {
 1374              		.loc 1 316 0
 1375              		.cfi_startproc
 1376              		@ args = 0, pretend = 0, frame = 0
 1377              		@ frame_needed = 0, uses_anonymous_args = 0
 1378              	.LVL164:
 1379 0000 08B5     		push	{r3, lr}
 1380              	.LCFI47:
 1381              		.cfi_def_cfa_offset 8
 1382              		.cfi_offset 3, -8
 1383              		.cfi_offset 14, -4
 317:Drivers/lvgl/lvgl/src/core/lv_obj_style_gen.c ****     lv_style_value_t v = {
 318:Drivers/lvgl/lvgl/src/core/lv_obj_style_gen.c ****         .num = (int32_t)value
 319:Drivers/lvgl/lvgl/src/core/lv_obj_style_gen.c ****     };
 320:Drivers/lvgl/lvgl/src/core/lv_obj_style_gen.c ****     lv_obj_set_local_style_prop(obj, LV_STYLE_BORDER_SIDE, v, selector);
 1384              		.loc 1 320 0
 1385 0002 1346     		mov	r3, r2
 1386 0004 0A46     		mov	r2, r1
 1387              	.LVL165:
 1388 0006 3321     		movs	r1, #51
 1389              	.LVL166:
 1390 0008 FFF7FEFF 		bl	lv_obj_set_local_style_prop
 1391              	.LVL167:
 321:Drivers/lvgl/lvgl/src/core/lv_obj_style_gen.c **** }
 1392              		.loc 1 321 0
 1393 000c 08BD     		pop	{r3, pc}
 1394              		.cfi_endproc
 1395              	.LFE198:
 1397              		.section	.text.lv_obj_set_style_border_post,"ax",%progbits
 1398              		.align	1
 1399              		.global	lv_obj_set_style_border_post
 1400              		.syntax unified
 1401              		.thumb
 1402              		.thumb_func
 1403              		.fpu fpv5-d16
 1405              	lv_obj_set_style_border_post:
 1406              	.LFB199:
 322:Drivers/lvgl/lvgl/src/core/lv_obj_style_gen.c **** 
 323:Drivers/lvgl/lvgl/src/core/lv_obj_style_gen.c **** void lv_obj_set_style_border_post(struct _lv_obj_t * obj, bool value, lv_style_selector_t selector)
 324:Drivers/lvgl/lvgl/src/core/lv_obj_style_gen.c **** {
 1407              		.loc 1 324 0
 1408              		.cfi_startproc
 1409              		@ args = 0, pretend = 0, frame = 0
 1410              		@ frame_needed = 0, uses_anonymous_args = 0
ARM GAS  /tmp/cc7G7enf.s 			page 30


 1411              	.LVL168:
 1412 0000 08B5     		push	{r3, lr}
 1413              	.LCFI48:
 1414              		.cfi_def_cfa_offset 8
 1415              		.cfi_offset 3, -8
 1416              		.cfi_offset 14, -4
 325:Drivers/lvgl/lvgl/src/core/lv_obj_style_gen.c ****     lv_style_value_t v = {
 326:Drivers/lvgl/lvgl/src/core/lv_obj_style_gen.c ****         .num = (int32_t)value
 327:Drivers/lvgl/lvgl/src/core/lv_obj_style_gen.c ****     };
 328:Drivers/lvgl/lvgl/src/core/lv_obj_style_gen.c ****     lv_obj_set_local_style_prop(obj, LV_STYLE_BORDER_POST, v, selector);
 1417              		.loc 1 328 0
 1418 0002 1346     		mov	r3, r2
 1419 0004 0A46     		mov	r2, r1
 1420              	.LVL169:
 1421 0006 3421     		movs	r1, #52
 1422              	.LVL170:
 1423 0008 FFF7FEFF 		bl	lv_obj_set_local_style_prop
 1424              	.LVL171:
 329:Drivers/lvgl/lvgl/src/core/lv_obj_style_gen.c **** }
 1425              		.loc 1 329 0
 1426 000c 08BD     		pop	{r3, pc}
 1427              		.cfi_endproc
 1428              	.LFE199:
 1430              		.section	.text.lv_obj_set_style_outline_width,"ax",%progbits
 1431              		.align	1
 1432              		.global	lv_obj_set_style_outline_width
 1433              		.syntax unified
 1434              		.thumb
 1435              		.thumb_func
 1436              		.fpu fpv5-d16
 1438              	lv_obj_set_style_outline_width:
 1439              	.LFB200:
 330:Drivers/lvgl/lvgl/src/core/lv_obj_style_gen.c **** 
 331:Drivers/lvgl/lvgl/src/core/lv_obj_style_gen.c **** void lv_obj_set_style_outline_width(struct _lv_obj_t * obj, lv_coord_t value, lv_style_selector_t s
 332:Drivers/lvgl/lvgl/src/core/lv_obj_style_gen.c **** {
 1440              		.loc 1 332 0
 1441              		.cfi_startproc
 1442              		@ args = 0, pretend = 0, frame = 0
 1443              		@ frame_needed = 0, uses_anonymous_args = 0
 1444              	.LVL172:
 1445 0000 08B5     		push	{r3, lr}
 1446              	.LCFI49:
 1447              		.cfi_def_cfa_offset 8
 1448              		.cfi_offset 3, -8
 1449              		.cfi_offset 14, -4
 333:Drivers/lvgl/lvgl/src/core/lv_obj_style_gen.c ****     lv_style_value_t v = {
 334:Drivers/lvgl/lvgl/src/core/lv_obj_style_gen.c ****         .num = (int32_t)value
 335:Drivers/lvgl/lvgl/src/core/lv_obj_style_gen.c ****     };
 336:Drivers/lvgl/lvgl/src/core/lv_obj_style_gen.c ****     lv_obj_set_local_style_prop(obj, LV_STYLE_OUTLINE_WIDTH, v, selector);
 1450              		.loc 1 336 0
 1451 0002 1346     		mov	r3, r2
 1452 0004 0A46     		mov	r2, r1
 1453              	.LVL173:
 1454 0006 3521     		movs	r1, #53
 1455              	.LVL174:
 1456 0008 FFF7FEFF 		bl	lv_obj_set_local_style_prop
 1457              	.LVL175:
ARM GAS  /tmp/cc7G7enf.s 			page 31


 337:Drivers/lvgl/lvgl/src/core/lv_obj_style_gen.c **** }
 1458              		.loc 1 337 0
 1459 000c 08BD     		pop	{r3, pc}
 1460              		.cfi_endproc
 1461              	.LFE200:
 1463              		.section	.text.lv_obj_set_style_outline_color,"ax",%progbits
 1464              		.align	1
 1465              		.global	lv_obj_set_style_outline_color
 1466              		.syntax unified
 1467              		.thumb
 1468              		.thumb_func
 1469              		.fpu fpv5-d16
 1471              	lv_obj_set_style_outline_color:
 1472              	.LFB201:
 338:Drivers/lvgl/lvgl/src/core/lv_obj_style_gen.c **** 
 339:Drivers/lvgl/lvgl/src/core/lv_obj_style_gen.c **** void lv_obj_set_style_outline_color(struct _lv_obj_t * obj, lv_color_t value, lv_style_selector_t s
 340:Drivers/lvgl/lvgl/src/core/lv_obj_style_gen.c **** {
 1473              		.loc 1 340 0
 1474              		.cfi_startproc
 1475              		@ args = 0, pretend = 0, frame = 8
 1476              		@ frame_needed = 0, uses_anonymous_args = 0
 1477              	.LVL176:
 1478 0000 10B5     		push	{r4, lr}
 1479              	.LCFI50:
 1480              		.cfi_def_cfa_offset 8
 1481              		.cfi_offset 4, -8
 1482              		.cfi_offset 14, -4
 1483 0002 82B0     		sub	sp, sp, #8
 1484              	.LCFI51:
 1485              		.cfi_def_cfa_offset 16
 341:Drivers/lvgl/lvgl/src/core/lv_obj_style_gen.c ****     lv_style_value_t v = {
 1486              		.loc 1 341 0
 1487 0004 0023     		movs	r3, #0
 1488 0006 ADF80030 		strh	r3, [sp]	@ movhi
 1489 000a 1C46     		mov	r4, r3
 1490              	.LVL177:
 1491 000c 63F31F44 		bfi	r4, r3, #16, #16
 1492              	.LVL178:
 1493 0010 61F30F04 		bfi	r4, r1, #0, #16
 342:Drivers/lvgl/lvgl/src/core/lv_obj_style_gen.c ****         .color = value
 343:Drivers/lvgl/lvgl/src/core/lv_obj_style_gen.c ****     };
 344:Drivers/lvgl/lvgl/src/core/lv_obj_style_gen.c ****     lv_obj_set_local_style_prop(obj, LV_STYLE_OUTLINE_COLOR, v, selector);
 1494              		.loc 1 344 0
 1495 0014 1346     		mov	r3, r2
 1496 0016 2246     		mov	r2, r4
 1497              	.LVL179:
 1498 0018 3621     		movs	r1, #54
 1499              	.LVL180:
 1500 001a FFF7FEFF 		bl	lv_obj_set_local_style_prop
 1501              	.LVL181:
 345:Drivers/lvgl/lvgl/src/core/lv_obj_style_gen.c **** }
 1502              		.loc 1 345 0
 1503 001e 02B0     		add	sp, sp, #8
 1504              	.LCFI52:
 1505              		.cfi_def_cfa_offset 8
 1506              		@ sp needed
 1507 0020 10BD     		pop	{r4, pc}
ARM GAS  /tmp/cc7G7enf.s 			page 32


 1508              		.cfi_endproc
 1509              	.LFE201:
 1511              		.section	.text.lv_obj_set_style_outline_opa,"ax",%progbits
 1512              		.align	1
 1513              		.global	lv_obj_set_style_outline_opa
 1514              		.syntax unified
 1515              		.thumb
 1516              		.thumb_func
 1517              		.fpu fpv5-d16
 1519              	lv_obj_set_style_outline_opa:
 1520              	.LFB202:
 346:Drivers/lvgl/lvgl/src/core/lv_obj_style_gen.c **** 
 347:Drivers/lvgl/lvgl/src/core/lv_obj_style_gen.c **** void lv_obj_set_style_outline_opa(struct _lv_obj_t * obj, lv_opa_t value, lv_style_selector_t selec
 348:Drivers/lvgl/lvgl/src/core/lv_obj_style_gen.c **** {
 1521              		.loc 1 348 0
 1522              		.cfi_startproc
 1523              		@ args = 0, pretend = 0, frame = 0
 1524              		@ frame_needed = 0, uses_anonymous_args = 0
 1525              	.LVL182:
 1526 0000 08B5     		push	{r3, lr}
 1527              	.LCFI53:
 1528              		.cfi_def_cfa_offset 8
 1529              		.cfi_offset 3, -8
 1530              		.cfi_offset 14, -4
 349:Drivers/lvgl/lvgl/src/core/lv_obj_style_gen.c ****     lv_style_value_t v = {
 350:Drivers/lvgl/lvgl/src/core/lv_obj_style_gen.c ****         .num = (int32_t)value
 351:Drivers/lvgl/lvgl/src/core/lv_obj_style_gen.c ****     };
 352:Drivers/lvgl/lvgl/src/core/lv_obj_style_gen.c ****     lv_obj_set_local_style_prop(obj, LV_STYLE_OUTLINE_OPA, v, selector);
 1531              		.loc 1 352 0
 1532 0002 1346     		mov	r3, r2
 1533 0004 0A46     		mov	r2, r1
 1534              	.LVL183:
 1535 0006 3721     		movs	r1, #55
 1536              	.LVL184:
 1537 0008 FFF7FEFF 		bl	lv_obj_set_local_style_prop
 1538              	.LVL185:
 353:Drivers/lvgl/lvgl/src/core/lv_obj_style_gen.c **** }
 1539              		.loc 1 353 0
 1540 000c 08BD     		pop	{r3, pc}
 1541              		.cfi_endproc
 1542              	.LFE202:
 1544              		.section	.text.lv_obj_set_style_outline_pad,"ax",%progbits
 1545              		.align	1
 1546              		.global	lv_obj_set_style_outline_pad
 1547              		.syntax unified
 1548              		.thumb
 1549              		.thumb_func
 1550              		.fpu fpv5-d16
 1552              	lv_obj_set_style_outline_pad:
 1553              	.LFB203:
 354:Drivers/lvgl/lvgl/src/core/lv_obj_style_gen.c **** 
 355:Drivers/lvgl/lvgl/src/core/lv_obj_style_gen.c **** void lv_obj_set_style_outline_pad(struct _lv_obj_t * obj, lv_coord_t value, lv_style_selector_t sel
 356:Drivers/lvgl/lvgl/src/core/lv_obj_style_gen.c **** {
 1554              		.loc 1 356 0
 1555              		.cfi_startproc
 1556              		@ args = 0, pretend = 0, frame = 0
 1557              		@ frame_needed = 0, uses_anonymous_args = 0
ARM GAS  /tmp/cc7G7enf.s 			page 33


 1558              	.LVL186:
 1559 0000 08B5     		push	{r3, lr}
 1560              	.LCFI54:
 1561              		.cfi_def_cfa_offset 8
 1562              		.cfi_offset 3, -8
 1563              		.cfi_offset 14, -4
 357:Drivers/lvgl/lvgl/src/core/lv_obj_style_gen.c ****     lv_style_value_t v = {
 358:Drivers/lvgl/lvgl/src/core/lv_obj_style_gen.c ****         .num = (int32_t)value
 359:Drivers/lvgl/lvgl/src/core/lv_obj_style_gen.c ****     };
 360:Drivers/lvgl/lvgl/src/core/lv_obj_style_gen.c ****     lv_obj_set_local_style_prop(obj, LV_STYLE_OUTLINE_PAD, v, selector);
 1564              		.loc 1 360 0
 1565 0002 1346     		mov	r3, r2
 1566 0004 0A46     		mov	r2, r1
 1567              	.LVL187:
 1568 0006 3821     		movs	r1, #56
 1569              	.LVL188:
 1570 0008 FFF7FEFF 		bl	lv_obj_set_local_style_prop
 1571              	.LVL189:
 361:Drivers/lvgl/lvgl/src/core/lv_obj_style_gen.c **** }
 1572              		.loc 1 361 0
 1573 000c 08BD     		pop	{r3, pc}
 1574              		.cfi_endproc
 1575              	.LFE203:
 1577              		.section	.text.lv_obj_set_style_shadow_width,"ax",%progbits
 1578              		.align	1
 1579              		.global	lv_obj_set_style_shadow_width
 1580              		.syntax unified
 1581              		.thumb
 1582              		.thumb_func
 1583              		.fpu fpv5-d16
 1585              	lv_obj_set_style_shadow_width:
 1586              	.LFB204:
 362:Drivers/lvgl/lvgl/src/core/lv_obj_style_gen.c **** 
 363:Drivers/lvgl/lvgl/src/core/lv_obj_style_gen.c **** void lv_obj_set_style_shadow_width(struct _lv_obj_t * obj, lv_coord_t value, lv_style_selector_t se
 364:Drivers/lvgl/lvgl/src/core/lv_obj_style_gen.c **** {
 1587              		.loc 1 364 0
 1588              		.cfi_startproc
 1589              		@ args = 0, pretend = 0, frame = 0
 1590              		@ frame_needed = 0, uses_anonymous_args = 0
 1591              	.LVL190:
 1592 0000 08B5     		push	{r3, lr}
 1593              	.LCFI55:
 1594              		.cfi_def_cfa_offset 8
 1595              		.cfi_offset 3, -8
 1596              		.cfi_offset 14, -4
 365:Drivers/lvgl/lvgl/src/core/lv_obj_style_gen.c ****     lv_style_value_t v = {
 366:Drivers/lvgl/lvgl/src/core/lv_obj_style_gen.c ****         .num = (int32_t)value
 367:Drivers/lvgl/lvgl/src/core/lv_obj_style_gen.c ****     };
 368:Drivers/lvgl/lvgl/src/core/lv_obj_style_gen.c ****     lv_obj_set_local_style_prop(obj, LV_STYLE_SHADOW_WIDTH, v, selector);
 1597              		.loc 1 368 0
 1598 0002 1346     		mov	r3, r2
 1599 0004 0A46     		mov	r2, r1
 1600              	.LVL191:
 1601 0006 4021     		movs	r1, #64
 1602              	.LVL192:
 1603 0008 FFF7FEFF 		bl	lv_obj_set_local_style_prop
 1604              	.LVL193:
ARM GAS  /tmp/cc7G7enf.s 			page 34


 369:Drivers/lvgl/lvgl/src/core/lv_obj_style_gen.c **** }
 1605              		.loc 1 369 0
 1606 000c 08BD     		pop	{r3, pc}
 1607              		.cfi_endproc
 1608              	.LFE204:
 1610              		.section	.text.lv_obj_set_style_shadow_ofs_x,"ax",%progbits
 1611              		.align	1
 1612              		.global	lv_obj_set_style_shadow_ofs_x
 1613              		.syntax unified
 1614              		.thumb
 1615              		.thumb_func
 1616              		.fpu fpv5-d16
 1618              	lv_obj_set_style_shadow_ofs_x:
 1619              	.LFB205:
 370:Drivers/lvgl/lvgl/src/core/lv_obj_style_gen.c **** 
 371:Drivers/lvgl/lvgl/src/core/lv_obj_style_gen.c **** void lv_obj_set_style_shadow_ofs_x(struct _lv_obj_t * obj, lv_coord_t value, lv_style_selector_t se
 372:Drivers/lvgl/lvgl/src/core/lv_obj_style_gen.c **** {
 1620              		.loc 1 372 0
 1621              		.cfi_startproc
 1622              		@ args = 0, pretend = 0, frame = 0
 1623              		@ frame_needed = 0, uses_anonymous_args = 0
 1624              	.LVL194:
 1625 0000 08B5     		push	{r3, lr}
 1626              	.LCFI56:
 1627              		.cfi_def_cfa_offset 8
 1628              		.cfi_offset 3, -8
 1629              		.cfi_offset 14, -4
 373:Drivers/lvgl/lvgl/src/core/lv_obj_style_gen.c ****     lv_style_value_t v = {
 374:Drivers/lvgl/lvgl/src/core/lv_obj_style_gen.c ****         .num = (int32_t)value
 375:Drivers/lvgl/lvgl/src/core/lv_obj_style_gen.c ****     };
 376:Drivers/lvgl/lvgl/src/core/lv_obj_style_gen.c ****     lv_obj_set_local_style_prop(obj, LV_STYLE_SHADOW_OFS_X, v, selector);
 1630              		.loc 1 376 0
 1631 0002 1346     		mov	r3, r2
 1632 0004 0A46     		mov	r2, r1
 1633              	.LVL195:
 1634 0006 4121     		movs	r1, #65
 1635              	.LVL196:
 1636 0008 FFF7FEFF 		bl	lv_obj_set_local_style_prop
 1637              	.LVL197:
 377:Drivers/lvgl/lvgl/src/core/lv_obj_style_gen.c **** }
 1638              		.loc 1 377 0
 1639 000c 08BD     		pop	{r3, pc}
 1640              		.cfi_endproc
 1641              	.LFE205:
 1643              		.section	.text.lv_obj_set_style_shadow_ofs_y,"ax",%progbits
 1644              		.align	1
 1645              		.global	lv_obj_set_style_shadow_ofs_y
 1646              		.syntax unified
 1647              		.thumb
 1648              		.thumb_func
 1649              		.fpu fpv5-d16
 1651              	lv_obj_set_style_shadow_ofs_y:
 1652              	.LFB206:
 378:Drivers/lvgl/lvgl/src/core/lv_obj_style_gen.c **** 
 379:Drivers/lvgl/lvgl/src/core/lv_obj_style_gen.c **** void lv_obj_set_style_shadow_ofs_y(struct _lv_obj_t * obj, lv_coord_t value, lv_style_selector_t se
 380:Drivers/lvgl/lvgl/src/core/lv_obj_style_gen.c **** {
 1653              		.loc 1 380 0
ARM GAS  /tmp/cc7G7enf.s 			page 35


 1654              		.cfi_startproc
 1655              		@ args = 0, pretend = 0, frame = 0
 1656              		@ frame_needed = 0, uses_anonymous_args = 0
 1657              	.LVL198:
 1658 0000 08B5     		push	{r3, lr}
 1659              	.LCFI57:
 1660              		.cfi_def_cfa_offset 8
 1661              		.cfi_offset 3, -8
 1662              		.cfi_offset 14, -4
 381:Drivers/lvgl/lvgl/src/core/lv_obj_style_gen.c ****     lv_style_value_t v = {
 382:Drivers/lvgl/lvgl/src/core/lv_obj_style_gen.c ****         .num = (int32_t)value
 383:Drivers/lvgl/lvgl/src/core/lv_obj_style_gen.c ****     };
 384:Drivers/lvgl/lvgl/src/core/lv_obj_style_gen.c ****     lv_obj_set_local_style_prop(obj, LV_STYLE_SHADOW_OFS_Y, v, selector);
 1663              		.loc 1 384 0
 1664 0002 1346     		mov	r3, r2
 1665 0004 0A46     		mov	r2, r1
 1666              	.LVL199:
 1667 0006 4221     		movs	r1, #66
 1668              	.LVL200:
 1669 0008 FFF7FEFF 		bl	lv_obj_set_local_style_prop
 1670              	.LVL201:
 385:Drivers/lvgl/lvgl/src/core/lv_obj_style_gen.c **** }
 1671              		.loc 1 385 0
 1672 000c 08BD     		pop	{r3, pc}
 1673              		.cfi_endproc
 1674              	.LFE206:
 1676              		.section	.text.lv_obj_set_style_shadow_spread,"ax",%progbits
 1677              		.align	1
 1678              		.global	lv_obj_set_style_shadow_spread
 1679              		.syntax unified
 1680              		.thumb
 1681              		.thumb_func
 1682              		.fpu fpv5-d16
 1684              	lv_obj_set_style_shadow_spread:
 1685              	.LFB207:
 386:Drivers/lvgl/lvgl/src/core/lv_obj_style_gen.c **** 
 387:Drivers/lvgl/lvgl/src/core/lv_obj_style_gen.c **** void lv_obj_set_style_shadow_spread(struct _lv_obj_t * obj, lv_coord_t value, lv_style_selector_t s
 388:Drivers/lvgl/lvgl/src/core/lv_obj_style_gen.c **** {
 1686              		.loc 1 388 0
 1687              		.cfi_startproc
 1688              		@ args = 0, pretend = 0, frame = 0
 1689              		@ frame_needed = 0, uses_anonymous_args = 0
 1690              	.LVL202:
 1691 0000 08B5     		push	{r3, lr}
 1692              	.LCFI58:
 1693              		.cfi_def_cfa_offset 8
 1694              		.cfi_offset 3, -8
 1695              		.cfi_offset 14, -4
 389:Drivers/lvgl/lvgl/src/core/lv_obj_style_gen.c ****     lv_style_value_t v = {
 390:Drivers/lvgl/lvgl/src/core/lv_obj_style_gen.c ****         .num = (int32_t)value
 391:Drivers/lvgl/lvgl/src/core/lv_obj_style_gen.c ****     };
 392:Drivers/lvgl/lvgl/src/core/lv_obj_style_gen.c ****     lv_obj_set_local_style_prop(obj, LV_STYLE_SHADOW_SPREAD, v, selector);
 1696              		.loc 1 392 0
 1697 0002 1346     		mov	r3, r2
 1698 0004 0A46     		mov	r2, r1
 1699              	.LVL203:
 1700 0006 4321     		movs	r1, #67
ARM GAS  /tmp/cc7G7enf.s 			page 36


 1701              	.LVL204:
 1702 0008 FFF7FEFF 		bl	lv_obj_set_local_style_prop
 1703              	.LVL205:
 393:Drivers/lvgl/lvgl/src/core/lv_obj_style_gen.c **** }
 1704              		.loc 1 393 0
 1705 000c 08BD     		pop	{r3, pc}
 1706              		.cfi_endproc
 1707              	.LFE207:
 1709              		.section	.text.lv_obj_set_style_shadow_color,"ax",%progbits
 1710              		.align	1
 1711              		.global	lv_obj_set_style_shadow_color
 1712              		.syntax unified
 1713              		.thumb
 1714              		.thumb_func
 1715              		.fpu fpv5-d16
 1717              	lv_obj_set_style_shadow_color:
 1718              	.LFB208:
 394:Drivers/lvgl/lvgl/src/core/lv_obj_style_gen.c **** 
 395:Drivers/lvgl/lvgl/src/core/lv_obj_style_gen.c **** void lv_obj_set_style_shadow_color(struct _lv_obj_t * obj, lv_color_t value, lv_style_selector_t se
 396:Drivers/lvgl/lvgl/src/core/lv_obj_style_gen.c **** {
 1719              		.loc 1 396 0
 1720              		.cfi_startproc
 1721              		@ args = 0, pretend = 0, frame = 8
 1722              		@ frame_needed = 0, uses_anonymous_args = 0
 1723              	.LVL206:
 1724 0000 10B5     		push	{r4, lr}
 1725              	.LCFI59:
 1726              		.cfi_def_cfa_offset 8
 1727              		.cfi_offset 4, -8
 1728              		.cfi_offset 14, -4
 1729 0002 82B0     		sub	sp, sp, #8
 1730              	.LCFI60:
 1731              		.cfi_def_cfa_offset 16
 397:Drivers/lvgl/lvgl/src/core/lv_obj_style_gen.c ****     lv_style_value_t v = {
 1732              		.loc 1 397 0
 1733 0004 0023     		movs	r3, #0
 1734 0006 ADF80030 		strh	r3, [sp]	@ movhi
 1735 000a 1C46     		mov	r4, r3
 1736              	.LVL207:
 1737 000c 63F31F44 		bfi	r4, r3, #16, #16
 1738              	.LVL208:
 1739 0010 61F30F04 		bfi	r4, r1, #0, #16
 398:Drivers/lvgl/lvgl/src/core/lv_obj_style_gen.c ****         .color = value
 399:Drivers/lvgl/lvgl/src/core/lv_obj_style_gen.c ****     };
 400:Drivers/lvgl/lvgl/src/core/lv_obj_style_gen.c ****     lv_obj_set_local_style_prop(obj, LV_STYLE_SHADOW_COLOR, v, selector);
 1740              		.loc 1 400 0
 1741 0014 1346     		mov	r3, r2
 1742 0016 2246     		mov	r2, r4
 1743              	.LVL209:
 1744 0018 4421     		movs	r1, #68
 1745              	.LVL210:
 1746 001a FFF7FEFF 		bl	lv_obj_set_local_style_prop
 1747              	.LVL211:
 401:Drivers/lvgl/lvgl/src/core/lv_obj_style_gen.c **** }
 1748              		.loc 1 401 0
 1749 001e 02B0     		add	sp, sp, #8
 1750              	.LCFI61:
ARM GAS  /tmp/cc7G7enf.s 			page 37


 1751              		.cfi_def_cfa_offset 8
 1752              		@ sp needed
 1753 0020 10BD     		pop	{r4, pc}
 1754              		.cfi_endproc
 1755              	.LFE208:
 1757              		.section	.text.lv_obj_set_style_shadow_opa,"ax",%progbits
 1758              		.align	1
 1759              		.global	lv_obj_set_style_shadow_opa
 1760              		.syntax unified
 1761              		.thumb
 1762              		.thumb_func
 1763              		.fpu fpv5-d16
 1765              	lv_obj_set_style_shadow_opa:
 1766              	.LFB209:
 402:Drivers/lvgl/lvgl/src/core/lv_obj_style_gen.c **** 
 403:Drivers/lvgl/lvgl/src/core/lv_obj_style_gen.c **** void lv_obj_set_style_shadow_opa(struct _lv_obj_t * obj, lv_opa_t value, lv_style_selector_t select
 404:Drivers/lvgl/lvgl/src/core/lv_obj_style_gen.c **** {
 1767              		.loc 1 404 0
 1768              		.cfi_startproc
 1769              		@ args = 0, pretend = 0, frame = 0
 1770              		@ frame_needed = 0, uses_anonymous_args = 0
 1771              	.LVL212:
 1772 0000 08B5     		push	{r3, lr}
 1773              	.LCFI62:
 1774              		.cfi_def_cfa_offset 8
 1775              		.cfi_offset 3, -8
 1776              		.cfi_offset 14, -4
 405:Drivers/lvgl/lvgl/src/core/lv_obj_style_gen.c ****     lv_style_value_t v = {
 406:Drivers/lvgl/lvgl/src/core/lv_obj_style_gen.c ****         .num = (int32_t)value
 407:Drivers/lvgl/lvgl/src/core/lv_obj_style_gen.c ****     };
 408:Drivers/lvgl/lvgl/src/core/lv_obj_style_gen.c ****     lv_obj_set_local_style_prop(obj, LV_STYLE_SHADOW_OPA, v, selector);
 1777              		.loc 1 408 0
 1778 0002 1346     		mov	r3, r2
 1779 0004 0A46     		mov	r2, r1
 1780              	.LVL213:
 1781 0006 4521     		movs	r1, #69
 1782              	.LVL214:
 1783 0008 FFF7FEFF 		bl	lv_obj_set_local_style_prop
 1784              	.LVL215:
 409:Drivers/lvgl/lvgl/src/core/lv_obj_style_gen.c **** }
 1785              		.loc 1 409 0
 1786 000c 08BD     		pop	{r3, pc}
 1787              		.cfi_endproc
 1788              	.LFE209:
 1790              		.section	.text.lv_obj_set_style_img_opa,"ax",%progbits
 1791              		.align	1
 1792              		.global	lv_obj_set_style_img_opa
 1793              		.syntax unified
 1794              		.thumb
 1795              		.thumb_func
 1796              		.fpu fpv5-d16
 1798              	lv_obj_set_style_img_opa:
 1799              	.LFB210:
 410:Drivers/lvgl/lvgl/src/core/lv_obj_style_gen.c **** 
 411:Drivers/lvgl/lvgl/src/core/lv_obj_style_gen.c **** void lv_obj_set_style_img_opa(struct _lv_obj_t * obj, lv_opa_t value, lv_style_selector_t selector)
 412:Drivers/lvgl/lvgl/src/core/lv_obj_style_gen.c **** {
 1800              		.loc 1 412 0
ARM GAS  /tmp/cc7G7enf.s 			page 38


 1801              		.cfi_startproc
 1802              		@ args = 0, pretend = 0, frame = 0
 1803              		@ frame_needed = 0, uses_anonymous_args = 0
 1804              	.LVL216:
 1805 0000 08B5     		push	{r3, lr}
 1806              	.LCFI63:
 1807              		.cfi_def_cfa_offset 8
 1808              		.cfi_offset 3, -8
 1809              		.cfi_offset 14, -4
 413:Drivers/lvgl/lvgl/src/core/lv_obj_style_gen.c ****     lv_style_value_t v = {
 414:Drivers/lvgl/lvgl/src/core/lv_obj_style_gen.c ****         .num = (int32_t)value
 415:Drivers/lvgl/lvgl/src/core/lv_obj_style_gen.c ****     };
 416:Drivers/lvgl/lvgl/src/core/lv_obj_style_gen.c ****     lv_obj_set_local_style_prop(obj, LV_STYLE_IMG_OPA, v, selector);
 1810              		.loc 1 416 0
 1811 0002 1346     		mov	r3, r2
 1812 0004 0A46     		mov	r2, r1
 1813              	.LVL217:
 1814 0006 4621     		movs	r1, #70
 1815              	.LVL218:
 1816 0008 FFF7FEFF 		bl	lv_obj_set_local_style_prop
 1817              	.LVL219:
 417:Drivers/lvgl/lvgl/src/core/lv_obj_style_gen.c **** }
 1818              		.loc 1 417 0
 1819 000c 08BD     		pop	{r3, pc}
 1820              		.cfi_endproc
 1821              	.LFE210:
 1823              		.section	.text.lv_obj_set_style_img_recolor,"ax",%progbits
 1824              		.align	1
 1825              		.global	lv_obj_set_style_img_recolor
 1826              		.syntax unified
 1827              		.thumb
 1828              		.thumb_func
 1829              		.fpu fpv5-d16
 1831              	lv_obj_set_style_img_recolor:
 1832              	.LFB211:
 418:Drivers/lvgl/lvgl/src/core/lv_obj_style_gen.c **** 
 419:Drivers/lvgl/lvgl/src/core/lv_obj_style_gen.c **** void lv_obj_set_style_img_recolor(struct _lv_obj_t * obj, lv_color_t value, lv_style_selector_t sel
 420:Drivers/lvgl/lvgl/src/core/lv_obj_style_gen.c **** {
 1833              		.loc 1 420 0
 1834              		.cfi_startproc
 1835              		@ args = 0, pretend = 0, frame = 8
 1836              		@ frame_needed = 0, uses_anonymous_args = 0
 1837              	.LVL220:
 1838 0000 10B5     		push	{r4, lr}
 1839              	.LCFI64:
 1840              		.cfi_def_cfa_offset 8
 1841              		.cfi_offset 4, -8
 1842              		.cfi_offset 14, -4
 1843 0002 82B0     		sub	sp, sp, #8
 1844              	.LCFI65:
 1845              		.cfi_def_cfa_offset 16
 421:Drivers/lvgl/lvgl/src/core/lv_obj_style_gen.c ****     lv_style_value_t v = {
 1846              		.loc 1 421 0
 1847 0004 0023     		movs	r3, #0
 1848 0006 ADF80030 		strh	r3, [sp]	@ movhi
 1849 000a 1C46     		mov	r4, r3
 1850              	.LVL221:
ARM GAS  /tmp/cc7G7enf.s 			page 39


 1851 000c 63F31F44 		bfi	r4, r3, #16, #16
 1852              	.LVL222:
 1853 0010 61F30F04 		bfi	r4, r1, #0, #16
 422:Drivers/lvgl/lvgl/src/core/lv_obj_style_gen.c ****         .color = value
 423:Drivers/lvgl/lvgl/src/core/lv_obj_style_gen.c ****     };
 424:Drivers/lvgl/lvgl/src/core/lv_obj_style_gen.c ****     lv_obj_set_local_style_prop(obj, LV_STYLE_IMG_RECOLOR, v, selector);
 1854              		.loc 1 424 0
 1855 0014 1346     		mov	r3, r2
 1856 0016 2246     		mov	r2, r4
 1857              	.LVL223:
 1858 0018 4721     		movs	r1, #71
 1859              	.LVL224:
 1860 001a FFF7FEFF 		bl	lv_obj_set_local_style_prop
 1861              	.LVL225:
 425:Drivers/lvgl/lvgl/src/core/lv_obj_style_gen.c **** }
 1862              		.loc 1 425 0
 1863 001e 02B0     		add	sp, sp, #8
 1864              	.LCFI66:
 1865              		.cfi_def_cfa_offset 8
 1866              		@ sp needed
 1867 0020 10BD     		pop	{r4, pc}
 1868              		.cfi_endproc
 1869              	.LFE211:
 1871              		.section	.text.lv_obj_set_style_img_recolor_opa,"ax",%progbits
 1872              		.align	1
 1873              		.global	lv_obj_set_style_img_recolor_opa
 1874              		.syntax unified
 1875              		.thumb
 1876              		.thumb_func
 1877              		.fpu fpv5-d16
 1879              	lv_obj_set_style_img_recolor_opa:
 1880              	.LFB212:
 426:Drivers/lvgl/lvgl/src/core/lv_obj_style_gen.c **** 
 427:Drivers/lvgl/lvgl/src/core/lv_obj_style_gen.c **** void lv_obj_set_style_img_recolor_opa(struct _lv_obj_t * obj, lv_opa_t value, lv_style_selector_t s
 428:Drivers/lvgl/lvgl/src/core/lv_obj_style_gen.c **** {
 1881              		.loc 1 428 0
 1882              		.cfi_startproc
 1883              		@ args = 0, pretend = 0, frame = 0
 1884              		@ frame_needed = 0, uses_anonymous_args = 0
 1885              	.LVL226:
 1886 0000 08B5     		push	{r3, lr}
 1887              	.LCFI67:
 1888              		.cfi_def_cfa_offset 8
 1889              		.cfi_offset 3, -8
 1890              		.cfi_offset 14, -4
 429:Drivers/lvgl/lvgl/src/core/lv_obj_style_gen.c ****     lv_style_value_t v = {
 430:Drivers/lvgl/lvgl/src/core/lv_obj_style_gen.c ****         .num = (int32_t)value
 431:Drivers/lvgl/lvgl/src/core/lv_obj_style_gen.c ****     };
 432:Drivers/lvgl/lvgl/src/core/lv_obj_style_gen.c ****     lv_obj_set_local_style_prop(obj, LV_STYLE_IMG_RECOLOR_OPA, v, selector);
 1891              		.loc 1 432 0
 1892 0002 1346     		mov	r3, r2
 1893 0004 0A46     		mov	r2, r1
 1894              	.LVL227:
 1895 0006 4821     		movs	r1, #72
 1896              	.LVL228:
 1897 0008 FFF7FEFF 		bl	lv_obj_set_local_style_prop
 1898              	.LVL229:
ARM GAS  /tmp/cc7G7enf.s 			page 40


 433:Drivers/lvgl/lvgl/src/core/lv_obj_style_gen.c **** }
 1899              		.loc 1 433 0
 1900 000c 08BD     		pop	{r3, pc}
 1901              		.cfi_endproc
 1902              	.LFE212:
 1904              		.section	.text.lv_obj_set_style_line_width,"ax",%progbits
 1905              		.align	1
 1906              		.global	lv_obj_set_style_line_width
 1907              		.syntax unified
 1908              		.thumb
 1909              		.thumb_func
 1910              		.fpu fpv5-d16
 1912              	lv_obj_set_style_line_width:
 1913              	.LFB213:
 434:Drivers/lvgl/lvgl/src/core/lv_obj_style_gen.c **** 
 435:Drivers/lvgl/lvgl/src/core/lv_obj_style_gen.c **** void lv_obj_set_style_line_width(struct _lv_obj_t * obj, lv_coord_t value, lv_style_selector_t sele
 436:Drivers/lvgl/lvgl/src/core/lv_obj_style_gen.c **** {
 1914              		.loc 1 436 0
 1915              		.cfi_startproc
 1916              		@ args = 0, pretend = 0, frame = 0
 1917              		@ frame_needed = 0, uses_anonymous_args = 0
 1918              	.LVL230:
 1919 0000 08B5     		push	{r3, lr}
 1920              	.LCFI68:
 1921              		.cfi_def_cfa_offset 8
 1922              		.cfi_offset 3, -8
 1923              		.cfi_offset 14, -4
 437:Drivers/lvgl/lvgl/src/core/lv_obj_style_gen.c ****     lv_style_value_t v = {
 438:Drivers/lvgl/lvgl/src/core/lv_obj_style_gen.c ****         .num = (int32_t)value
 439:Drivers/lvgl/lvgl/src/core/lv_obj_style_gen.c ****     };
 440:Drivers/lvgl/lvgl/src/core/lv_obj_style_gen.c ****     lv_obj_set_local_style_prop(obj, LV_STYLE_LINE_WIDTH, v, selector);
 1924              		.loc 1 440 0
 1925 0002 1346     		mov	r3, r2
 1926 0004 0A46     		mov	r2, r1
 1927              	.LVL231:
 1928 0006 4921     		movs	r1, #73
 1929              	.LVL232:
 1930 0008 FFF7FEFF 		bl	lv_obj_set_local_style_prop
 1931              	.LVL233:
 441:Drivers/lvgl/lvgl/src/core/lv_obj_style_gen.c **** }
 1932              		.loc 1 441 0
 1933 000c 08BD     		pop	{r3, pc}
 1934              		.cfi_endproc
 1935              	.LFE213:
 1937              		.section	.text.lv_obj_set_style_line_dash_width,"ax",%progbits
 1938              		.align	1
 1939              		.global	lv_obj_set_style_line_dash_width
 1940              		.syntax unified
 1941              		.thumb
 1942              		.thumb_func
 1943              		.fpu fpv5-d16
 1945              	lv_obj_set_style_line_dash_width:
 1946              	.LFB214:
 442:Drivers/lvgl/lvgl/src/core/lv_obj_style_gen.c **** 
 443:Drivers/lvgl/lvgl/src/core/lv_obj_style_gen.c **** void lv_obj_set_style_line_dash_width(struct _lv_obj_t * obj, lv_coord_t value, lv_style_selector_t
 444:Drivers/lvgl/lvgl/src/core/lv_obj_style_gen.c **** {
 1947              		.loc 1 444 0
ARM GAS  /tmp/cc7G7enf.s 			page 41


 1948              		.cfi_startproc
 1949              		@ args = 0, pretend = 0, frame = 0
 1950              		@ frame_needed = 0, uses_anonymous_args = 0
 1951              	.LVL234:
 1952 0000 08B5     		push	{r3, lr}
 1953              	.LCFI69:
 1954              		.cfi_def_cfa_offset 8
 1955              		.cfi_offset 3, -8
 1956              		.cfi_offset 14, -4
 445:Drivers/lvgl/lvgl/src/core/lv_obj_style_gen.c ****     lv_style_value_t v = {
 446:Drivers/lvgl/lvgl/src/core/lv_obj_style_gen.c ****         .num = (int32_t)value
 447:Drivers/lvgl/lvgl/src/core/lv_obj_style_gen.c ****     };
 448:Drivers/lvgl/lvgl/src/core/lv_obj_style_gen.c ****     lv_obj_set_local_style_prop(obj, LV_STYLE_LINE_DASH_WIDTH, v, selector);
 1957              		.loc 1 448 0
 1958 0002 1346     		mov	r3, r2
 1959 0004 0A46     		mov	r2, r1
 1960              	.LVL235:
 1961 0006 4A21     		movs	r1, #74
 1962              	.LVL236:
 1963 0008 FFF7FEFF 		bl	lv_obj_set_local_style_prop
 1964              	.LVL237:
 449:Drivers/lvgl/lvgl/src/core/lv_obj_style_gen.c **** }
 1965              		.loc 1 449 0
 1966 000c 08BD     		pop	{r3, pc}
 1967              		.cfi_endproc
 1968              	.LFE214:
 1970              		.section	.text.lv_obj_set_style_line_dash_gap,"ax",%progbits
 1971              		.align	1
 1972              		.global	lv_obj_set_style_line_dash_gap
 1973              		.syntax unified
 1974              		.thumb
 1975              		.thumb_func
 1976              		.fpu fpv5-d16
 1978              	lv_obj_set_style_line_dash_gap:
 1979              	.LFB215:
 450:Drivers/lvgl/lvgl/src/core/lv_obj_style_gen.c **** 
 451:Drivers/lvgl/lvgl/src/core/lv_obj_style_gen.c **** void lv_obj_set_style_line_dash_gap(struct _lv_obj_t * obj, lv_coord_t value, lv_style_selector_t s
 452:Drivers/lvgl/lvgl/src/core/lv_obj_style_gen.c **** {
 1980              		.loc 1 452 0
 1981              		.cfi_startproc
 1982              		@ args = 0, pretend = 0, frame = 0
 1983              		@ frame_needed = 0, uses_anonymous_args = 0
 1984              	.LVL238:
 1985 0000 08B5     		push	{r3, lr}
 1986              	.LCFI70:
 1987              		.cfi_def_cfa_offset 8
 1988              		.cfi_offset 3, -8
 1989              		.cfi_offset 14, -4
 453:Drivers/lvgl/lvgl/src/core/lv_obj_style_gen.c ****     lv_style_value_t v = {
 454:Drivers/lvgl/lvgl/src/core/lv_obj_style_gen.c ****         .num = (int32_t)value
 455:Drivers/lvgl/lvgl/src/core/lv_obj_style_gen.c ****     };
 456:Drivers/lvgl/lvgl/src/core/lv_obj_style_gen.c ****     lv_obj_set_local_style_prop(obj, LV_STYLE_LINE_DASH_GAP, v, selector);
 1990              		.loc 1 456 0
 1991 0002 1346     		mov	r3, r2
 1992 0004 0A46     		mov	r2, r1
 1993              	.LVL239:
 1994 0006 4B21     		movs	r1, #75
ARM GAS  /tmp/cc7G7enf.s 			page 42


 1995              	.LVL240:
 1996 0008 FFF7FEFF 		bl	lv_obj_set_local_style_prop
 1997              	.LVL241:
 457:Drivers/lvgl/lvgl/src/core/lv_obj_style_gen.c **** }
 1998              		.loc 1 457 0
 1999 000c 08BD     		pop	{r3, pc}
 2000              		.cfi_endproc
 2001              	.LFE215:
 2003              		.section	.text.lv_obj_set_style_line_rounded,"ax",%progbits
 2004              		.align	1
 2005              		.global	lv_obj_set_style_line_rounded
 2006              		.syntax unified
 2007              		.thumb
 2008              		.thumb_func
 2009              		.fpu fpv5-d16
 2011              	lv_obj_set_style_line_rounded:
 2012              	.LFB216:
 458:Drivers/lvgl/lvgl/src/core/lv_obj_style_gen.c **** 
 459:Drivers/lvgl/lvgl/src/core/lv_obj_style_gen.c **** void lv_obj_set_style_line_rounded(struct _lv_obj_t * obj, bool value, lv_style_selector_t selector
 460:Drivers/lvgl/lvgl/src/core/lv_obj_style_gen.c **** {
 2013              		.loc 1 460 0
 2014              		.cfi_startproc
 2015              		@ args = 0, pretend = 0, frame = 0
 2016              		@ frame_needed = 0, uses_anonymous_args = 0
 2017              	.LVL242:
 2018 0000 08B5     		push	{r3, lr}
 2019              	.LCFI71:
 2020              		.cfi_def_cfa_offset 8
 2021              		.cfi_offset 3, -8
 2022              		.cfi_offset 14, -4
 461:Drivers/lvgl/lvgl/src/core/lv_obj_style_gen.c ****     lv_style_value_t v = {
 462:Drivers/lvgl/lvgl/src/core/lv_obj_style_gen.c ****         .num = (int32_t)value
 463:Drivers/lvgl/lvgl/src/core/lv_obj_style_gen.c ****     };
 464:Drivers/lvgl/lvgl/src/core/lv_obj_style_gen.c ****     lv_obj_set_local_style_prop(obj, LV_STYLE_LINE_ROUNDED, v, selector);
 2023              		.loc 1 464 0
 2024 0002 1346     		mov	r3, r2
 2025 0004 0A46     		mov	r2, r1
 2026              	.LVL243:
 2027 0006 4C21     		movs	r1, #76
 2028              	.LVL244:
 2029 0008 FFF7FEFF 		bl	lv_obj_set_local_style_prop
 2030              	.LVL245:
 465:Drivers/lvgl/lvgl/src/core/lv_obj_style_gen.c **** }
 2031              		.loc 1 465 0
 2032 000c 08BD     		pop	{r3, pc}
 2033              		.cfi_endproc
 2034              	.LFE216:
 2036              		.section	.text.lv_obj_set_style_line_color,"ax",%progbits
 2037              		.align	1
 2038              		.global	lv_obj_set_style_line_color
 2039              		.syntax unified
 2040              		.thumb
 2041              		.thumb_func
 2042              		.fpu fpv5-d16
 2044              	lv_obj_set_style_line_color:
 2045              	.LFB217:
 466:Drivers/lvgl/lvgl/src/core/lv_obj_style_gen.c **** 
ARM GAS  /tmp/cc7G7enf.s 			page 43


 467:Drivers/lvgl/lvgl/src/core/lv_obj_style_gen.c **** void lv_obj_set_style_line_color(struct _lv_obj_t * obj, lv_color_t value, lv_style_selector_t sele
 468:Drivers/lvgl/lvgl/src/core/lv_obj_style_gen.c **** {
 2046              		.loc 1 468 0
 2047              		.cfi_startproc
 2048              		@ args = 0, pretend = 0, frame = 8
 2049              		@ frame_needed = 0, uses_anonymous_args = 0
 2050              	.LVL246:
 2051 0000 10B5     		push	{r4, lr}
 2052              	.LCFI72:
 2053              		.cfi_def_cfa_offset 8
 2054              		.cfi_offset 4, -8
 2055              		.cfi_offset 14, -4
 2056 0002 82B0     		sub	sp, sp, #8
 2057              	.LCFI73:
 2058              		.cfi_def_cfa_offset 16
 469:Drivers/lvgl/lvgl/src/core/lv_obj_style_gen.c ****     lv_style_value_t v = {
 2059              		.loc 1 469 0
 2060 0004 0023     		movs	r3, #0
 2061 0006 ADF80030 		strh	r3, [sp]	@ movhi
 2062 000a 1C46     		mov	r4, r3
 2063              	.LVL247:
 2064 000c 63F31F44 		bfi	r4, r3, #16, #16
 2065              	.LVL248:
 2066 0010 61F30F04 		bfi	r4, r1, #0, #16
 470:Drivers/lvgl/lvgl/src/core/lv_obj_style_gen.c ****         .color = value
 471:Drivers/lvgl/lvgl/src/core/lv_obj_style_gen.c ****     };
 472:Drivers/lvgl/lvgl/src/core/lv_obj_style_gen.c ****     lv_obj_set_local_style_prop(obj, LV_STYLE_LINE_COLOR, v, selector);
 2067              		.loc 1 472 0
 2068 0014 1346     		mov	r3, r2
 2069 0016 2246     		mov	r2, r4
 2070              	.LVL249:
 2071 0018 4D21     		movs	r1, #77
 2072              	.LVL250:
 2073 001a FFF7FEFF 		bl	lv_obj_set_local_style_prop
 2074              	.LVL251:
 473:Drivers/lvgl/lvgl/src/core/lv_obj_style_gen.c **** }
 2075              		.loc 1 473 0
 2076 001e 02B0     		add	sp, sp, #8
 2077              	.LCFI74:
 2078              		.cfi_def_cfa_offset 8
 2079              		@ sp needed
 2080 0020 10BD     		pop	{r4, pc}
 2081              		.cfi_endproc
 2082              	.LFE217:
 2084              		.section	.text.lv_obj_set_style_line_opa,"ax",%progbits
 2085              		.align	1
 2086              		.global	lv_obj_set_style_line_opa
 2087              		.syntax unified
 2088              		.thumb
 2089              		.thumb_func
 2090              		.fpu fpv5-d16
 2092              	lv_obj_set_style_line_opa:
 2093              	.LFB218:
 474:Drivers/lvgl/lvgl/src/core/lv_obj_style_gen.c **** 
 475:Drivers/lvgl/lvgl/src/core/lv_obj_style_gen.c **** void lv_obj_set_style_line_opa(struct _lv_obj_t * obj, lv_opa_t value, lv_style_selector_t selector
 476:Drivers/lvgl/lvgl/src/core/lv_obj_style_gen.c **** {
 2094              		.loc 1 476 0
ARM GAS  /tmp/cc7G7enf.s 			page 44


 2095              		.cfi_startproc
 2096              		@ args = 0, pretend = 0, frame = 0
 2097              		@ frame_needed = 0, uses_anonymous_args = 0
 2098              	.LVL252:
 2099 0000 08B5     		push	{r3, lr}
 2100              	.LCFI75:
 2101              		.cfi_def_cfa_offset 8
 2102              		.cfi_offset 3, -8
 2103              		.cfi_offset 14, -4
 477:Drivers/lvgl/lvgl/src/core/lv_obj_style_gen.c ****     lv_style_value_t v = {
 478:Drivers/lvgl/lvgl/src/core/lv_obj_style_gen.c ****         .num = (int32_t)value
 479:Drivers/lvgl/lvgl/src/core/lv_obj_style_gen.c ****     };
 480:Drivers/lvgl/lvgl/src/core/lv_obj_style_gen.c ****     lv_obj_set_local_style_prop(obj, LV_STYLE_LINE_OPA, v, selector);
 2104              		.loc 1 480 0
 2105 0002 1346     		mov	r3, r2
 2106 0004 0A46     		mov	r2, r1
 2107              	.LVL253:
 2108 0006 4E21     		movs	r1, #78
 2109              	.LVL254:
 2110 0008 FFF7FEFF 		bl	lv_obj_set_local_style_prop
 2111              	.LVL255:
 481:Drivers/lvgl/lvgl/src/core/lv_obj_style_gen.c **** }
 2112              		.loc 1 481 0
 2113 000c 08BD     		pop	{r3, pc}
 2114              		.cfi_endproc
 2115              	.LFE218:
 2117              		.section	.text.lv_obj_set_style_arc_width,"ax",%progbits
 2118              		.align	1
 2119              		.global	lv_obj_set_style_arc_width
 2120              		.syntax unified
 2121              		.thumb
 2122              		.thumb_func
 2123              		.fpu fpv5-d16
 2125              	lv_obj_set_style_arc_width:
 2126              	.LFB219:
 482:Drivers/lvgl/lvgl/src/core/lv_obj_style_gen.c **** 
 483:Drivers/lvgl/lvgl/src/core/lv_obj_style_gen.c **** void lv_obj_set_style_arc_width(struct _lv_obj_t * obj, lv_coord_t value, lv_style_selector_t selec
 484:Drivers/lvgl/lvgl/src/core/lv_obj_style_gen.c **** {
 2127              		.loc 1 484 0
 2128              		.cfi_startproc
 2129              		@ args = 0, pretend = 0, frame = 0
 2130              		@ frame_needed = 0, uses_anonymous_args = 0
 2131              	.LVL256:
 2132 0000 08B5     		push	{r3, lr}
 2133              	.LCFI76:
 2134              		.cfi_def_cfa_offset 8
 2135              		.cfi_offset 3, -8
 2136              		.cfi_offset 14, -4
 485:Drivers/lvgl/lvgl/src/core/lv_obj_style_gen.c ****     lv_style_value_t v = {
 486:Drivers/lvgl/lvgl/src/core/lv_obj_style_gen.c ****         .num = (int32_t)value
 487:Drivers/lvgl/lvgl/src/core/lv_obj_style_gen.c ****     };
 488:Drivers/lvgl/lvgl/src/core/lv_obj_style_gen.c ****     lv_obj_set_local_style_prop(obj, LV_STYLE_ARC_WIDTH, v, selector);
 2137              		.loc 1 488 0
 2138 0002 1346     		mov	r3, r2
 2139 0004 0A46     		mov	r2, r1
 2140              	.LVL257:
 2141 0006 5021     		movs	r1, #80
ARM GAS  /tmp/cc7G7enf.s 			page 45


 2142              	.LVL258:
 2143 0008 FFF7FEFF 		bl	lv_obj_set_local_style_prop
 2144              	.LVL259:
 489:Drivers/lvgl/lvgl/src/core/lv_obj_style_gen.c **** }
 2145              		.loc 1 489 0
 2146 000c 08BD     		pop	{r3, pc}
 2147              		.cfi_endproc
 2148              	.LFE219:
 2150              		.section	.text.lv_obj_set_style_arc_rounded,"ax",%progbits
 2151              		.align	1
 2152              		.global	lv_obj_set_style_arc_rounded
 2153              		.syntax unified
 2154              		.thumb
 2155              		.thumb_func
 2156              		.fpu fpv5-d16
 2158              	lv_obj_set_style_arc_rounded:
 2159              	.LFB220:
 490:Drivers/lvgl/lvgl/src/core/lv_obj_style_gen.c **** 
 491:Drivers/lvgl/lvgl/src/core/lv_obj_style_gen.c **** void lv_obj_set_style_arc_rounded(struct _lv_obj_t * obj, bool value, lv_style_selector_t selector)
 492:Drivers/lvgl/lvgl/src/core/lv_obj_style_gen.c **** {
 2160              		.loc 1 492 0
 2161              		.cfi_startproc
 2162              		@ args = 0, pretend = 0, frame = 0
 2163              		@ frame_needed = 0, uses_anonymous_args = 0
 2164              	.LVL260:
 2165 0000 08B5     		push	{r3, lr}
 2166              	.LCFI77:
 2167              		.cfi_def_cfa_offset 8
 2168              		.cfi_offset 3, -8
 2169              		.cfi_offset 14, -4
 493:Drivers/lvgl/lvgl/src/core/lv_obj_style_gen.c ****     lv_style_value_t v = {
 494:Drivers/lvgl/lvgl/src/core/lv_obj_style_gen.c ****         .num = (int32_t)value
 495:Drivers/lvgl/lvgl/src/core/lv_obj_style_gen.c ****     };
 496:Drivers/lvgl/lvgl/src/core/lv_obj_style_gen.c ****     lv_obj_set_local_style_prop(obj, LV_STYLE_ARC_ROUNDED, v, selector);
 2170              		.loc 1 496 0
 2171 0002 1346     		mov	r3, r2
 2172 0004 0A46     		mov	r2, r1
 2173              	.LVL261:
 2174 0006 5121     		movs	r1, #81
 2175              	.LVL262:
 2176 0008 FFF7FEFF 		bl	lv_obj_set_local_style_prop
 2177              	.LVL263:
 497:Drivers/lvgl/lvgl/src/core/lv_obj_style_gen.c **** }
 2178              		.loc 1 497 0
 2179 000c 08BD     		pop	{r3, pc}
 2180              		.cfi_endproc
 2181              	.LFE220:
 2183              		.section	.text.lv_obj_set_style_arc_color,"ax",%progbits
 2184              		.align	1
 2185              		.global	lv_obj_set_style_arc_color
 2186              		.syntax unified
 2187              		.thumb
 2188              		.thumb_func
 2189              		.fpu fpv5-d16
 2191              	lv_obj_set_style_arc_color:
 2192              	.LFB221:
 498:Drivers/lvgl/lvgl/src/core/lv_obj_style_gen.c **** 
ARM GAS  /tmp/cc7G7enf.s 			page 46


 499:Drivers/lvgl/lvgl/src/core/lv_obj_style_gen.c **** void lv_obj_set_style_arc_color(struct _lv_obj_t * obj, lv_color_t value, lv_style_selector_t selec
 500:Drivers/lvgl/lvgl/src/core/lv_obj_style_gen.c **** {
 2193              		.loc 1 500 0
 2194              		.cfi_startproc
 2195              		@ args = 0, pretend = 0, frame = 8
 2196              		@ frame_needed = 0, uses_anonymous_args = 0
 2197              	.LVL264:
 2198 0000 10B5     		push	{r4, lr}
 2199              	.LCFI78:
 2200              		.cfi_def_cfa_offset 8
 2201              		.cfi_offset 4, -8
 2202              		.cfi_offset 14, -4
 2203 0002 82B0     		sub	sp, sp, #8
 2204              	.LCFI79:
 2205              		.cfi_def_cfa_offset 16
 501:Drivers/lvgl/lvgl/src/core/lv_obj_style_gen.c ****     lv_style_value_t v = {
 2206              		.loc 1 501 0
 2207 0004 0023     		movs	r3, #0
 2208 0006 ADF80030 		strh	r3, [sp]	@ movhi
 2209 000a 1C46     		mov	r4, r3
 2210              	.LVL265:
 2211 000c 63F31F44 		bfi	r4, r3, #16, #16
 2212              	.LVL266:
 2213 0010 61F30F04 		bfi	r4, r1, #0, #16
 502:Drivers/lvgl/lvgl/src/core/lv_obj_style_gen.c ****         .color = value
 503:Drivers/lvgl/lvgl/src/core/lv_obj_style_gen.c ****     };
 504:Drivers/lvgl/lvgl/src/core/lv_obj_style_gen.c ****     lv_obj_set_local_style_prop(obj, LV_STYLE_ARC_COLOR, v, selector);
 2214              		.loc 1 504 0
 2215 0014 1346     		mov	r3, r2
 2216 0016 2246     		mov	r2, r4
 2217              	.LVL267:
 2218 0018 5221     		movs	r1, #82
 2219              	.LVL268:
 2220 001a FFF7FEFF 		bl	lv_obj_set_local_style_prop
 2221              	.LVL269:
 505:Drivers/lvgl/lvgl/src/core/lv_obj_style_gen.c **** }
 2222              		.loc 1 505 0
 2223 001e 02B0     		add	sp, sp, #8
 2224              	.LCFI80:
 2225              		.cfi_def_cfa_offset 8
 2226              		@ sp needed
 2227 0020 10BD     		pop	{r4, pc}
 2228              		.cfi_endproc
 2229              	.LFE221:
 2231              		.section	.text.lv_obj_set_style_arc_opa,"ax",%progbits
 2232              		.align	1
 2233              		.global	lv_obj_set_style_arc_opa
 2234              		.syntax unified
 2235              		.thumb
 2236              		.thumb_func
 2237              		.fpu fpv5-d16
 2239              	lv_obj_set_style_arc_opa:
 2240              	.LFB222:
 506:Drivers/lvgl/lvgl/src/core/lv_obj_style_gen.c **** 
 507:Drivers/lvgl/lvgl/src/core/lv_obj_style_gen.c **** void lv_obj_set_style_arc_opa(struct _lv_obj_t * obj, lv_opa_t value, lv_style_selector_t selector)
 508:Drivers/lvgl/lvgl/src/core/lv_obj_style_gen.c **** {
 2241              		.loc 1 508 0
ARM GAS  /tmp/cc7G7enf.s 			page 47


 2242              		.cfi_startproc
 2243              		@ args = 0, pretend = 0, frame = 0
 2244              		@ frame_needed = 0, uses_anonymous_args = 0
 2245              	.LVL270:
 2246 0000 08B5     		push	{r3, lr}
 2247              	.LCFI81:
 2248              		.cfi_def_cfa_offset 8
 2249              		.cfi_offset 3, -8
 2250              		.cfi_offset 14, -4
 509:Drivers/lvgl/lvgl/src/core/lv_obj_style_gen.c ****     lv_style_value_t v = {
 510:Drivers/lvgl/lvgl/src/core/lv_obj_style_gen.c ****         .num = (int32_t)value
 511:Drivers/lvgl/lvgl/src/core/lv_obj_style_gen.c ****     };
 512:Drivers/lvgl/lvgl/src/core/lv_obj_style_gen.c ****     lv_obj_set_local_style_prop(obj, LV_STYLE_ARC_OPA, v, selector);
 2251              		.loc 1 512 0
 2252 0002 1346     		mov	r3, r2
 2253 0004 0A46     		mov	r2, r1
 2254              	.LVL271:
 2255 0006 5321     		movs	r1, #83
 2256              	.LVL272:
 2257 0008 FFF7FEFF 		bl	lv_obj_set_local_style_prop
 2258              	.LVL273:
 513:Drivers/lvgl/lvgl/src/core/lv_obj_style_gen.c **** }
 2259              		.loc 1 513 0
 2260 000c 08BD     		pop	{r3, pc}
 2261              		.cfi_endproc
 2262              	.LFE222:
 2264              		.section	.text.lv_obj_set_style_arc_img_src,"ax",%progbits
 2265              		.align	1
 2266              		.global	lv_obj_set_style_arc_img_src
 2267              		.syntax unified
 2268              		.thumb
 2269              		.thumb_func
 2270              		.fpu fpv5-d16
 2272              	lv_obj_set_style_arc_img_src:
 2273              	.LFB223:
 514:Drivers/lvgl/lvgl/src/core/lv_obj_style_gen.c **** 
 515:Drivers/lvgl/lvgl/src/core/lv_obj_style_gen.c **** void lv_obj_set_style_arc_img_src(struct _lv_obj_t * obj, const void * value, lv_style_selector_t s
 516:Drivers/lvgl/lvgl/src/core/lv_obj_style_gen.c **** {
 2274              		.loc 1 516 0
 2275              		.cfi_startproc
 2276              		@ args = 0, pretend = 0, frame = 0
 2277              		@ frame_needed = 0, uses_anonymous_args = 0
 2278              	.LVL274:
 2279 0000 08B5     		push	{r3, lr}
 2280              	.LCFI82:
 2281              		.cfi_def_cfa_offset 8
 2282              		.cfi_offset 3, -8
 2283              		.cfi_offset 14, -4
 517:Drivers/lvgl/lvgl/src/core/lv_obj_style_gen.c ****     lv_style_value_t v = {
 518:Drivers/lvgl/lvgl/src/core/lv_obj_style_gen.c ****         .ptr = value
 519:Drivers/lvgl/lvgl/src/core/lv_obj_style_gen.c ****     };
 520:Drivers/lvgl/lvgl/src/core/lv_obj_style_gen.c ****     lv_obj_set_local_style_prop(obj, LV_STYLE_ARC_IMG_SRC, v, selector);
 2284              		.loc 1 520 0
 2285 0002 1346     		mov	r3, r2
 2286 0004 0A46     		mov	r2, r1
 2287              	.LVL275:
 2288 0006 5421     		movs	r1, #84
ARM GAS  /tmp/cc7G7enf.s 			page 48


 2289              	.LVL276:
 2290 0008 FFF7FEFF 		bl	lv_obj_set_local_style_prop
 2291              	.LVL277:
 521:Drivers/lvgl/lvgl/src/core/lv_obj_style_gen.c **** }
 2292              		.loc 1 521 0
 2293 000c 08BD     		pop	{r3, pc}
 2294              		.cfi_endproc
 2295              	.LFE223:
 2297              		.section	.text.lv_obj_set_style_text_color,"ax",%progbits
 2298              		.align	1
 2299              		.global	lv_obj_set_style_text_color
 2300              		.syntax unified
 2301              		.thumb
 2302              		.thumb_func
 2303              		.fpu fpv5-d16
 2305              	lv_obj_set_style_text_color:
 2306              	.LFB224:
 522:Drivers/lvgl/lvgl/src/core/lv_obj_style_gen.c **** 
 523:Drivers/lvgl/lvgl/src/core/lv_obj_style_gen.c **** void lv_obj_set_style_text_color(struct _lv_obj_t * obj, lv_color_t value, lv_style_selector_t sele
 524:Drivers/lvgl/lvgl/src/core/lv_obj_style_gen.c **** {
 2307              		.loc 1 524 0
 2308              		.cfi_startproc
 2309              		@ args = 0, pretend = 0, frame = 8
 2310              		@ frame_needed = 0, uses_anonymous_args = 0
 2311              	.LVL278:
 2312 0000 10B5     		push	{r4, lr}
 2313              	.LCFI83:
 2314              		.cfi_def_cfa_offset 8
 2315              		.cfi_offset 4, -8
 2316              		.cfi_offset 14, -4
 2317 0002 82B0     		sub	sp, sp, #8
 2318              	.LCFI84:
 2319              		.cfi_def_cfa_offset 16
 525:Drivers/lvgl/lvgl/src/core/lv_obj_style_gen.c ****     lv_style_value_t v = {
 2320              		.loc 1 525 0
 2321 0004 0023     		movs	r3, #0
 2322 0006 ADF80030 		strh	r3, [sp]	@ movhi
 2323 000a 1C46     		mov	r4, r3
 2324              	.LVL279:
 2325 000c 63F31F44 		bfi	r4, r3, #16, #16
 2326              	.LVL280:
 2327 0010 61F30F04 		bfi	r4, r1, #0, #16
 526:Drivers/lvgl/lvgl/src/core/lv_obj_style_gen.c ****         .color = value
 527:Drivers/lvgl/lvgl/src/core/lv_obj_style_gen.c ****     };
 528:Drivers/lvgl/lvgl/src/core/lv_obj_style_gen.c ****     lv_obj_set_local_style_prop(obj, LV_STYLE_TEXT_COLOR, v, selector);
 2328              		.loc 1 528 0
 2329 0014 1346     		mov	r3, r2
 2330 0016 2246     		mov	r2, r4
 2331              	.LVL281:
 2332 0018 5521     		movs	r1, #85
 2333              	.LVL282:
 2334 001a FFF7FEFF 		bl	lv_obj_set_local_style_prop
 2335              	.LVL283:
 529:Drivers/lvgl/lvgl/src/core/lv_obj_style_gen.c **** }
 2336              		.loc 1 529 0
 2337 001e 02B0     		add	sp, sp, #8
 2338              	.LCFI85:
ARM GAS  /tmp/cc7G7enf.s 			page 49


 2339              		.cfi_def_cfa_offset 8
 2340              		@ sp needed
 2341 0020 10BD     		pop	{r4, pc}
 2342              		.cfi_endproc
 2343              	.LFE224:
 2345              		.section	.text.lv_obj_set_style_text_opa,"ax",%progbits
 2346              		.align	1
 2347              		.global	lv_obj_set_style_text_opa
 2348              		.syntax unified
 2349              		.thumb
 2350              		.thumb_func
 2351              		.fpu fpv5-d16
 2353              	lv_obj_set_style_text_opa:
 2354              	.LFB225:
 530:Drivers/lvgl/lvgl/src/core/lv_obj_style_gen.c **** 
 531:Drivers/lvgl/lvgl/src/core/lv_obj_style_gen.c **** void lv_obj_set_style_text_opa(struct _lv_obj_t * obj, lv_opa_t value, lv_style_selector_t selector
 532:Drivers/lvgl/lvgl/src/core/lv_obj_style_gen.c **** {
 2355              		.loc 1 532 0
 2356              		.cfi_startproc
 2357              		@ args = 0, pretend = 0, frame = 0
 2358              		@ frame_needed = 0, uses_anonymous_args = 0
 2359              	.LVL284:
 2360 0000 08B5     		push	{r3, lr}
 2361              	.LCFI86:
 2362              		.cfi_def_cfa_offset 8
 2363              		.cfi_offset 3, -8
 2364              		.cfi_offset 14, -4
 533:Drivers/lvgl/lvgl/src/core/lv_obj_style_gen.c ****     lv_style_value_t v = {
 534:Drivers/lvgl/lvgl/src/core/lv_obj_style_gen.c ****         .num = (int32_t)value
 535:Drivers/lvgl/lvgl/src/core/lv_obj_style_gen.c ****     };
 536:Drivers/lvgl/lvgl/src/core/lv_obj_style_gen.c ****     lv_obj_set_local_style_prop(obj, LV_STYLE_TEXT_OPA, v, selector);
 2365              		.loc 1 536 0
 2366 0002 1346     		mov	r3, r2
 2367 0004 0A46     		mov	r2, r1
 2368              	.LVL285:
 2369 0006 5621     		movs	r1, #86
 2370              	.LVL286:
 2371 0008 FFF7FEFF 		bl	lv_obj_set_local_style_prop
 2372              	.LVL287:
 537:Drivers/lvgl/lvgl/src/core/lv_obj_style_gen.c **** }
 2373              		.loc 1 537 0
 2374 000c 08BD     		pop	{r3, pc}
 2375              		.cfi_endproc
 2376              	.LFE225:
 2378              		.section	.text.lv_obj_set_style_text_font,"ax",%progbits
 2379              		.align	1
 2380              		.global	lv_obj_set_style_text_font
 2381              		.syntax unified
 2382              		.thumb
 2383              		.thumb_func
 2384              		.fpu fpv5-d16
 2386              	lv_obj_set_style_text_font:
 2387              	.LFB226:
 538:Drivers/lvgl/lvgl/src/core/lv_obj_style_gen.c **** 
 539:Drivers/lvgl/lvgl/src/core/lv_obj_style_gen.c **** void lv_obj_set_style_text_font(struct _lv_obj_t * obj, const lv_font_t * value, lv_style_selector_
 540:Drivers/lvgl/lvgl/src/core/lv_obj_style_gen.c **** {
 2388              		.loc 1 540 0
ARM GAS  /tmp/cc7G7enf.s 			page 50


 2389              		.cfi_startproc
 2390              		@ args = 0, pretend = 0, frame = 0
 2391              		@ frame_needed = 0, uses_anonymous_args = 0
 2392              	.LVL288:
 2393 0000 08B5     		push	{r3, lr}
 2394              	.LCFI87:
 2395              		.cfi_def_cfa_offset 8
 2396              		.cfi_offset 3, -8
 2397              		.cfi_offset 14, -4
 541:Drivers/lvgl/lvgl/src/core/lv_obj_style_gen.c ****     lv_style_value_t v = {
 542:Drivers/lvgl/lvgl/src/core/lv_obj_style_gen.c ****         .ptr = value
 543:Drivers/lvgl/lvgl/src/core/lv_obj_style_gen.c ****     };
 544:Drivers/lvgl/lvgl/src/core/lv_obj_style_gen.c ****     lv_obj_set_local_style_prop(obj, LV_STYLE_TEXT_FONT, v, selector);
 2398              		.loc 1 544 0
 2399 0002 1346     		mov	r3, r2
 2400 0004 0A46     		mov	r2, r1
 2401              	.LVL289:
 2402 0006 5721     		movs	r1, #87
 2403              	.LVL290:
 2404 0008 FFF7FEFF 		bl	lv_obj_set_local_style_prop
 2405              	.LVL291:
 545:Drivers/lvgl/lvgl/src/core/lv_obj_style_gen.c **** }
 2406              		.loc 1 545 0
 2407 000c 08BD     		pop	{r3, pc}
 2408              		.cfi_endproc
 2409              	.LFE226:
 2411              		.section	.text.lv_obj_set_style_text_letter_space,"ax",%progbits
 2412              		.align	1
 2413              		.global	lv_obj_set_style_text_letter_space
 2414              		.syntax unified
 2415              		.thumb
 2416              		.thumb_func
 2417              		.fpu fpv5-d16
 2419              	lv_obj_set_style_text_letter_space:
 2420              	.LFB227:
 546:Drivers/lvgl/lvgl/src/core/lv_obj_style_gen.c **** 
 547:Drivers/lvgl/lvgl/src/core/lv_obj_style_gen.c **** void lv_obj_set_style_text_letter_space(struct _lv_obj_t * obj, lv_coord_t value, lv_style_selector
 548:Drivers/lvgl/lvgl/src/core/lv_obj_style_gen.c **** {
 2421              		.loc 1 548 0
 2422              		.cfi_startproc
 2423              		@ args = 0, pretend = 0, frame = 0
 2424              		@ frame_needed = 0, uses_anonymous_args = 0
 2425              	.LVL292:
 2426 0000 08B5     		push	{r3, lr}
 2427              	.LCFI88:
 2428              		.cfi_def_cfa_offset 8
 2429              		.cfi_offset 3, -8
 2430              		.cfi_offset 14, -4
 549:Drivers/lvgl/lvgl/src/core/lv_obj_style_gen.c ****     lv_style_value_t v = {
 550:Drivers/lvgl/lvgl/src/core/lv_obj_style_gen.c ****         .num = (int32_t)value
 551:Drivers/lvgl/lvgl/src/core/lv_obj_style_gen.c ****     };
 552:Drivers/lvgl/lvgl/src/core/lv_obj_style_gen.c ****     lv_obj_set_local_style_prop(obj, LV_STYLE_TEXT_LETTER_SPACE, v, selector);
 2431              		.loc 1 552 0
 2432 0002 1346     		mov	r3, r2
 2433 0004 0A46     		mov	r2, r1
 2434              	.LVL293:
 2435 0006 5821     		movs	r1, #88
ARM GAS  /tmp/cc7G7enf.s 			page 51


 2436              	.LVL294:
 2437 0008 FFF7FEFF 		bl	lv_obj_set_local_style_prop
 2438              	.LVL295:
 553:Drivers/lvgl/lvgl/src/core/lv_obj_style_gen.c **** }
 2439              		.loc 1 553 0
 2440 000c 08BD     		pop	{r3, pc}
 2441              		.cfi_endproc
 2442              	.LFE227:
 2444              		.section	.text.lv_obj_set_style_text_line_space,"ax",%progbits
 2445              		.align	1
 2446              		.global	lv_obj_set_style_text_line_space
 2447              		.syntax unified
 2448              		.thumb
 2449              		.thumb_func
 2450              		.fpu fpv5-d16
 2452              	lv_obj_set_style_text_line_space:
 2453              	.LFB228:
 554:Drivers/lvgl/lvgl/src/core/lv_obj_style_gen.c **** 
 555:Drivers/lvgl/lvgl/src/core/lv_obj_style_gen.c **** void lv_obj_set_style_text_line_space(struct _lv_obj_t * obj, lv_coord_t value, lv_style_selector_t
 556:Drivers/lvgl/lvgl/src/core/lv_obj_style_gen.c **** {
 2454              		.loc 1 556 0
 2455              		.cfi_startproc
 2456              		@ args = 0, pretend = 0, frame = 0
 2457              		@ frame_needed = 0, uses_anonymous_args = 0
 2458              	.LVL296:
 2459 0000 08B5     		push	{r3, lr}
 2460              	.LCFI89:
 2461              		.cfi_def_cfa_offset 8
 2462              		.cfi_offset 3, -8
 2463              		.cfi_offset 14, -4
 557:Drivers/lvgl/lvgl/src/core/lv_obj_style_gen.c ****     lv_style_value_t v = {
 558:Drivers/lvgl/lvgl/src/core/lv_obj_style_gen.c ****         .num = (int32_t)value
 559:Drivers/lvgl/lvgl/src/core/lv_obj_style_gen.c ****     };
 560:Drivers/lvgl/lvgl/src/core/lv_obj_style_gen.c ****     lv_obj_set_local_style_prop(obj, LV_STYLE_TEXT_LINE_SPACE, v, selector);
 2464              		.loc 1 560 0
 2465 0002 1346     		mov	r3, r2
 2466 0004 0A46     		mov	r2, r1
 2467              	.LVL297:
 2468 0006 5921     		movs	r1, #89
 2469              	.LVL298:
 2470 0008 FFF7FEFF 		bl	lv_obj_set_local_style_prop
 2471              	.LVL299:
 561:Drivers/lvgl/lvgl/src/core/lv_obj_style_gen.c **** }
 2472              		.loc 1 561 0
 2473 000c 08BD     		pop	{r3, pc}
 2474              		.cfi_endproc
 2475              	.LFE228:
 2477              		.section	.text.lv_obj_set_style_text_decor,"ax",%progbits
 2478              		.align	1
 2479              		.global	lv_obj_set_style_text_decor
 2480              		.syntax unified
 2481              		.thumb
 2482              		.thumb_func
 2483              		.fpu fpv5-d16
 2485              	lv_obj_set_style_text_decor:
 2486              	.LFB229:
 562:Drivers/lvgl/lvgl/src/core/lv_obj_style_gen.c **** 
ARM GAS  /tmp/cc7G7enf.s 			page 52


 563:Drivers/lvgl/lvgl/src/core/lv_obj_style_gen.c **** void lv_obj_set_style_text_decor(struct _lv_obj_t * obj, lv_text_decor_t value, lv_style_selector_t
 564:Drivers/lvgl/lvgl/src/core/lv_obj_style_gen.c **** {
 2487              		.loc 1 564 0
 2488              		.cfi_startproc
 2489              		@ args = 0, pretend = 0, frame = 0
 2490              		@ frame_needed = 0, uses_anonymous_args = 0
 2491              	.LVL300:
 2492 0000 08B5     		push	{r3, lr}
 2493              	.LCFI90:
 2494              		.cfi_def_cfa_offset 8
 2495              		.cfi_offset 3, -8
 2496              		.cfi_offset 14, -4
 565:Drivers/lvgl/lvgl/src/core/lv_obj_style_gen.c ****     lv_style_value_t v = {
 566:Drivers/lvgl/lvgl/src/core/lv_obj_style_gen.c ****         .num = (int32_t)value
 567:Drivers/lvgl/lvgl/src/core/lv_obj_style_gen.c ****     };
 568:Drivers/lvgl/lvgl/src/core/lv_obj_style_gen.c ****     lv_obj_set_local_style_prop(obj, LV_STYLE_TEXT_DECOR, v, selector);
 2497              		.loc 1 568 0
 2498 0002 1346     		mov	r3, r2
 2499 0004 0A46     		mov	r2, r1
 2500              	.LVL301:
 2501 0006 5A21     		movs	r1, #90
 2502              	.LVL302:
 2503 0008 FFF7FEFF 		bl	lv_obj_set_local_style_prop
 2504              	.LVL303:
 569:Drivers/lvgl/lvgl/src/core/lv_obj_style_gen.c **** }
 2505              		.loc 1 569 0
 2506 000c 08BD     		pop	{r3, pc}
 2507              		.cfi_endproc
 2508              	.LFE229:
 2510              		.section	.text.lv_obj_set_style_text_align,"ax",%progbits
 2511              		.align	1
 2512              		.global	lv_obj_set_style_text_align
 2513              		.syntax unified
 2514              		.thumb
 2515              		.thumb_func
 2516              		.fpu fpv5-d16
 2518              	lv_obj_set_style_text_align:
 2519              	.LFB230:
 570:Drivers/lvgl/lvgl/src/core/lv_obj_style_gen.c **** 
 571:Drivers/lvgl/lvgl/src/core/lv_obj_style_gen.c **** void lv_obj_set_style_text_align(struct _lv_obj_t * obj, lv_text_align_t value, lv_style_selector_t
 572:Drivers/lvgl/lvgl/src/core/lv_obj_style_gen.c **** {
 2520              		.loc 1 572 0
 2521              		.cfi_startproc
 2522              		@ args = 0, pretend = 0, frame = 0
 2523              		@ frame_needed = 0, uses_anonymous_args = 0
 2524              	.LVL304:
 2525 0000 08B5     		push	{r3, lr}
 2526              	.LCFI91:
 2527              		.cfi_def_cfa_offset 8
 2528              		.cfi_offset 3, -8
 2529              		.cfi_offset 14, -4
 573:Drivers/lvgl/lvgl/src/core/lv_obj_style_gen.c ****     lv_style_value_t v = {
 574:Drivers/lvgl/lvgl/src/core/lv_obj_style_gen.c ****         .num = (int32_t)value
 575:Drivers/lvgl/lvgl/src/core/lv_obj_style_gen.c ****     };
 576:Drivers/lvgl/lvgl/src/core/lv_obj_style_gen.c ****     lv_obj_set_local_style_prop(obj, LV_STYLE_TEXT_ALIGN, v, selector);
 2530              		.loc 1 576 0
 2531 0002 1346     		mov	r3, r2
ARM GAS  /tmp/cc7G7enf.s 			page 53


 2532 0004 0A46     		mov	r2, r1
 2533              	.LVL305:
 2534 0006 5B21     		movs	r1, #91
 2535              	.LVL306:
 2536 0008 FFF7FEFF 		bl	lv_obj_set_local_style_prop
 2537              	.LVL307:
 577:Drivers/lvgl/lvgl/src/core/lv_obj_style_gen.c **** }
 2538              		.loc 1 577 0
 2539 000c 08BD     		pop	{r3, pc}
 2540              		.cfi_endproc
 2541              	.LFE230:
 2543              		.section	.text.lv_obj_set_style_radius,"ax",%progbits
 2544              		.align	1
 2545              		.global	lv_obj_set_style_radius
 2546              		.syntax unified
 2547              		.thumb
 2548              		.thumb_func
 2549              		.fpu fpv5-d16
 2551              	lv_obj_set_style_radius:
 2552              	.LFB231:
 578:Drivers/lvgl/lvgl/src/core/lv_obj_style_gen.c **** 
 579:Drivers/lvgl/lvgl/src/core/lv_obj_style_gen.c **** void lv_obj_set_style_radius(struct _lv_obj_t * obj, lv_coord_t value, lv_style_selector_t selector
 580:Drivers/lvgl/lvgl/src/core/lv_obj_style_gen.c **** {
 2553              		.loc 1 580 0
 2554              		.cfi_startproc
 2555              		@ args = 0, pretend = 0, frame = 0
 2556              		@ frame_needed = 0, uses_anonymous_args = 0
 2557              	.LVL308:
 2558 0000 08B5     		push	{r3, lr}
 2559              	.LCFI92:
 2560              		.cfi_def_cfa_offset 8
 2561              		.cfi_offset 3, -8
 2562              		.cfi_offset 14, -4
 581:Drivers/lvgl/lvgl/src/core/lv_obj_style_gen.c ****     lv_style_value_t v = {
 582:Drivers/lvgl/lvgl/src/core/lv_obj_style_gen.c ****         .num = (int32_t)value
 583:Drivers/lvgl/lvgl/src/core/lv_obj_style_gen.c ****     };
 584:Drivers/lvgl/lvgl/src/core/lv_obj_style_gen.c ****     lv_obj_set_local_style_prop(obj, LV_STYLE_RADIUS, v, selector);
 2563              		.loc 1 584 0
 2564 0002 1346     		mov	r3, r2
 2565 0004 0A46     		mov	r2, r1
 2566              	.LVL309:
 2567 0006 0B21     		movs	r1, #11
 2568              	.LVL310:
 2569 0008 FFF7FEFF 		bl	lv_obj_set_local_style_prop
 2570              	.LVL311:
 585:Drivers/lvgl/lvgl/src/core/lv_obj_style_gen.c **** }
 2571              		.loc 1 585 0
 2572 000c 08BD     		pop	{r3, pc}
 2573              		.cfi_endproc
 2574              	.LFE231:
 2576              		.section	.text.lv_obj_set_style_clip_corner,"ax",%progbits
 2577              		.align	1
 2578              		.global	lv_obj_set_style_clip_corner
 2579              		.syntax unified
 2580              		.thumb
 2581              		.thumb_func
 2582              		.fpu fpv5-d16
ARM GAS  /tmp/cc7G7enf.s 			page 54


 2584              	lv_obj_set_style_clip_corner:
 2585              	.LFB232:
 586:Drivers/lvgl/lvgl/src/core/lv_obj_style_gen.c **** 
 587:Drivers/lvgl/lvgl/src/core/lv_obj_style_gen.c **** void lv_obj_set_style_clip_corner(struct _lv_obj_t * obj, bool value, lv_style_selector_t selector)
 588:Drivers/lvgl/lvgl/src/core/lv_obj_style_gen.c **** {
 2586              		.loc 1 588 0
 2587              		.cfi_startproc
 2588              		@ args = 0, pretend = 0, frame = 0
 2589              		@ frame_needed = 0, uses_anonymous_args = 0
 2590              	.LVL312:
 2591 0000 08B5     		push	{r3, lr}
 2592              	.LCFI93:
 2593              		.cfi_def_cfa_offset 8
 2594              		.cfi_offset 3, -8
 2595              		.cfi_offset 14, -4
 589:Drivers/lvgl/lvgl/src/core/lv_obj_style_gen.c ****     lv_style_value_t v = {
 590:Drivers/lvgl/lvgl/src/core/lv_obj_style_gen.c ****         .num = (int32_t)value
 591:Drivers/lvgl/lvgl/src/core/lv_obj_style_gen.c ****     };
 592:Drivers/lvgl/lvgl/src/core/lv_obj_style_gen.c ****     lv_obj_set_local_style_prop(obj, LV_STYLE_CLIP_CORNER, v, selector);
 2596              		.loc 1 592 0
 2597 0002 1346     		mov	r3, r2
 2598 0004 0A46     		mov	r2, r1
 2599              	.LVL313:
 2600 0006 1721     		movs	r1, #23
 2601              	.LVL314:
 2602 0008 FFF7FEFF 		bl	lv_obj_set_local_style_prop
 2603              	.LVL315:
 593:Drivers/lvgl/lvgl/src/core/lv_obj_style_gen.c **** }
 2604              		.loc 1 593 0
 2605 000c 08BD     		pop	{r3, pc}
 2606              		.cfi_endproc
 2607              	.LFE232:
 2609              		.section	.text.lv_obj_set_style_opa,"ax",%progbits
 2610              		.align	1
 2611              		.global	lv_obj_set_style_opa
 2612              		.syntax unified
 2613              		.thumb
 2614              		.thumb_func
 2615              		.fpu fpv5-d16
 2617              	lv_obj_set_style_opa:
 2618              	.LFB233:
 594:Drivers/lvgl/lvgl/src/core/lv_obj_style_gen.c **** 
 595:Drivers/lvgl/lvgl/src/core/lv_obj_style_gen.c **** void lv_obj_set_style_opa(struct _lv_obj_t * obj, lv_opa_t value, lv_style_selector_t selector)
 596:Drivers/lvgl/lvgl/src/core/lv_obj_style_gen.c **** {
 2619              		.loc 1 596 0
 2620              		.cfi_startproc
 2621              		@ args = 0, pretend = 0, frame = 0
 2622              		@ frame_needed = 0, uses_anonymous_args = 0
 2623              	.LVL316:
 2624 0000 08B5     		push	{r3, lr}
 2625              	.LCFI94:
 2626              		.cfi_def_cfa_offset 8
 2627              		.cfi_offset 3, -8
 2628              		.cfi_offset 14, -4
 597:Drivers/lvgl/lvgl/src/core/lv_obj_style_gen.c ****     lv_style_value_t v = {
 598:Drivers/lvgl/lvgl/src/core/lv_obj_style_gen.c ****         .num = (int32_t)value
 599:Drivers/lvgl/lvgl/src/core/lv_obj_style_gen.c ****     };
ARM GAS  /tmp/cc7G7enf.s 			page 55


 600:Drivers/lvgl/lvgl/src/core/lv_obj_style_gen.c ****     lv_obj_set_local_style_prop(obj, LV_STYLE_OPA, v, selector);
 2629              		.loc 1 600 0
 2630 0002 1346     		mov	r3, r2
 2631 0004 0A46     		mov	r2, r1
 2632              	.LVL317:
 2633 0006 6021     		movs	r1, #96
 2634              	.LVL318:
 2635 0008 FFF7FEFF 		bl	lv_obj_set_local_style_prop
 2636              	.LVL319:
 601:Drivers/lvgl/lvgl/src/core/lv_obj_style_gen.c **** }
 2637              		.loc 1 601 0
 2638 000c 08BD     		pop	{r3, pc}
 2639              		.cfi_endproc
 2640              	.LFE233:
 2642              		.section	.text.lv_obj_set_style_color_filter_dsc,"ax",%progbits
 2643              		.align	1
 2644              		.global	lv_obj_set_style_color_filter_dsc
 2645              		.syntax unified
 2646              		.thumb
 2647              		.thumb_func
 2648              		.fpu fpv5-d16
 2650              	lv_obj_set_style_color_filter_dsc:
 2651              	.LFB234:
 602:Drivers/lvgl/lvgl/src/core/lv_obj_style_gen.c **** 
 603:Drivers/lvgl/lvgl/src/core/lv_obj_style_gen.c **** void lv_obj_set_style_color_filter_dsc(struct _lv_obj_t * obj, const lv_color_filter_dsc_t * value,
 604:Drivers/lvgl/lvgl/src/core/lv_obj_style_gen.c **** {
 2652              		.loc 1 604 0
 2653              		.cfi_startproc
 2654              		@ args = 0, pretend = 0, frame = 0
 2655              		@ frame_needed = 0, uses_anonymous_args = 0
 2656              	.LVL320:
 2657 0000 08B5     		push	{r3, lr}
 2658              	.LCFI95:
 2659              		.cfi_def_cfa_offset 8
 2660              		.cfi_offset 3, -8
 2661              		.cfi_offset 14, -4
 605:Drivers/lvgl/lvgl/src/core/lv_obj_style_gen.c ****     lv_style_value_t v = {
 606:Drivers/lvgl/lvgl/src/core/lv_obj_style_gen.c ****         .ptr = value
 607:Drivers/lvgl/lvgl/src/core/lv_obj_style_gen.c ****     };
 608:Drivers/lvgl/lvgl/src/core/lv_obj_style_gen.c ****     lv_obj_set_local_style_prop(obj, LV_STYLE_COLOR_FILTER_DSC, v, selector);
 2662              		.loc 1 608 0
 2663 0002 1346     		mov	r3, r2
 2664 0004 0A46     		mov	r2, r1
 2665              	.LVL321:
 2666 0006 6121     		movs	r1, #97
 2667              	.LVL322:
 2668 0008 FFF7FEFF 		bl	lv_obj_set_local_style_prop
 2669              	.LVL323:
 609:Drivers/lvgl/lvgl/src/core/lv_obj_style_gen.c **** }
 2670              		.loc 1 609 0
 2671 000c 08BD     		pop	{r3, pc}
 2672              		.cfi_endproc
 2673              	.LFE234:
 2675              		.section	.text.lv_obj_set_style_color_filter_opa,"ax",%progbits
 2676              		.align	1
 2677              		.global	lv_obj_set_style_color_filter_opa
 2678              		.syntax unified
ARM GAS  /tmp/cc7G7enf.s 			page 56


 2679              		.thumb
 2680              		.thumb_func
 2681              		.fpu fpv5-d16
 2683              	lv_obj_set_style_color_filter_opa:
 2684              	.LFB235:
 610:Drivers/lvgl/lvgl/src/core/lv_obj_style_gen.c **** 
 611:Drivers/lvgl/lvgl/src/core/lv_obj_style_gen.c **** void lv_obj_set_style_color_filter_opa(struct _lv_obj_t * obj, lv_opa_t value, lv_style_selector_t 
 612:Drivers/lvgl/lvgl/src/core/lv_obj_style_gen.c **** {
 2685              		.loc 1 612 0
 2686              		.cfi_startproc
 2687              		@ args = 0, pretend = 0, frame = 0
 2688              		@ frame_needed = 0, uses_anonymous_args = 0
 2689              	.LVL324:
 2690 0000 08B5     		push	{r3, lr}
 2691              	.LCFI96:
 2692              		.cfi_def_cfa_offset 8
 2693              		.cfi_offset 3, -8
 2694              		.cfi_offset 14, -4
 613:Drivers/lvgl/lvgl/src/core/lv_obj_style_gen.c ****     lv_style_value_t v = {
 614:Drivers/lvgl/lvgl/src/core/lv_obj_style_gen.c ****         .num = (int32_t)value
 615:Drivers/lvgl/lvgl/src/core/lv_obj_style_gen.c ****     };
 616:Drivers/lvgl/lvgl/src/core/lv_obj_style_gen.c ****     lv_obj_set_local_style_prop(obj, LV_STYLE_COLOR_FILTER_OPA, v, selector);
 2695              		.loc 1 616 0
 2696 0002 1346     		mov	r3, r2
 2697 0004 0A46     		mov	r2, r1
 2698              	.LVL325:
 2699 0006 6221     		movs	r1, #98
 2700              	.LVL326:
 2701 0008 FFF7FEFF 		bl	lv_obj_set_local_style_prop
 2702              	.LVL327:
 617:Drivers/lvgl/lvgl/src/core/lv_obj_style_gen.c **** }
 2703              		.loc 1 617 0
 2704 000c 08BD     		pop	{r3, pc}
 2705              		.cfi_endproc
 2706              	.LFE235:
 2708              		.section	.text.lv_obj_set_style_anim,"ax",%progbits
 2709              		.align	1
 2710              		.global	lv_obj_set_style_anim
 2711              		.syntax unified
 2712              		.thumb
 2713              		.thumb_func
 2714              		.fpu fpv5-d16
 2716              	lv_obj_set_style_anim:
 2717              	.LFB236:
 618:Drivers/lvgl/lvgl/src/core/lv_obj_style_gen.c **** 
 619:Drivers/lvgl/lvgl/src/core/lv_obj_style_gen.c **** void lv_obj_set_style_anim(struct _lv_obj_t * obj, const lv_anim_t * value, lv_style_selector_t sel
 620:Drivers/lvgl/lvgl/src/core/lv_obj_style_gen.c **** {
 2718              		.loc 1 620 0
 2719              		.cfi_startproc
 2720              		@ args = 0, pretend = 0, frame = 0
 2721              		@ frame_needed = 0, uses_anonymous_args = 0
 2722              	.LVL328:
 2723 0000 08B5     		push	{r3, lr}
 2724              	.LCFI97:
 2725              		.cfi_def_cfa_offset 8
 2726              		.cfi_offset 3, -8
 2727              		.cfi_offset 14, -4
ARM GAS  /tmp/cc7G7enf.s 			page 57


 621:Drivers/lvgl/lvgl/src/core/lv_obj_style_gen.c ****     lv_style_value_t v = {
 622:Drivers/lvgl/lvgl/src/core/lv_obj_style_gen.c ****         .ptr = value
 623:Drivers/lvgl/lvgl/src/core/lv_obj_style_gen.c ****     };
 624:Drivers/lvgl/lvgl/src/core/lv_obj_style_gen.c ****     lv_obj_set_local_style_prop(obj, LV_STYLE_ANIM, v, selector);
 2728              		.loc 1 624 0
 2729 0002 1346     		mov	r3, r2
 2730 0004 0A46     		mov	r2, r1
 2731              	.LVL329:
 2732 0006 6321     		movs	r1, #99
 2733              	.LVL330:
 2734 0008 FFF7FEFF 		bl	lv_obj_set_local_style_prop
 2735              	.LVL331:
 625:Drivers/lvgl/lvgl/src/core/lv_obj_style_gen.c **** }
 2736              		.loc 1 625 0
 2737 000c 08BD     		pop	{r3, pc}
 2738              		.cfi_endproc
 2739              	.LFE236:
 2741              		.section	.text.lv_obj_set_style_anim_time,"ax",%progbits
 2742              		.align	1
 2743              		.global	lv_obj_set_style_anim_time
 2744              		.syntax unified
 2745              		.thumb
 2746              		.thumb_func
 2747              		.fpu fpv5-d16
 2749              	lv_obj_set_style_anim_time:
 2750              	.LFB237:
 626:Drivers/lvgl/lvgl/src/core/lv_obj_style_gen.c **** 
 627:Drivers/lvgl/lvgl/src/core/lv_obj_style_gen.c **** void lv_obj_set_style_anim_time(struct _lv_obj_t * obj, uint32_t value, lv_style_selector_t selecto
 628:Drivers/lvgl/lvgl/src/core/lv_obj_style_gen.c **** {
 2751              		.loc 1 628 0
 2752              		.cfi_startproc
 2753              		@ args = 0, pretend = 0, frame = 0
 2754              		@ frame_needed = 0, uses_anonymous_args = 0
 2755              	.LVL332:
 2756 0000 08B5     		push	{r3, lr}
 2757              	.LCFI98:
 2758              		.cfi_def_cfa_offset 8
 2759              		.cfi_offset 3, -8
 2760              		.cfi_offset 14, -4
 629:Drivers/lvgl/lvgl/src/core/lv_obj_style_gen.c ****     lv_style_value_t v = {
 630:Drivers/lvgl/lvgl/src/core/lv_obj_style_gen.c ****         .num = (int32_t)value
 631:Drivers/lvgl/lvgl/src/core/lv_obj_style_gen.c ****     };
 632:Drivers/lvgl/lvgl/src/core/lv_obj_style_gen.c ****     lv_obj_set_local_style_prop(obj, LV_STYLE_ANIM_TIME, v, selector);
 2761              		.loc 1 632 0
 2762 0002 1346     		mov	r3, r2
 2763 0004 0A46     		mov	r2, r1
 2764              	.LVL333:
 2765 0006 6421     		movs	r1, #100
 2766              	.LVL334:
 2767 0008 FFF7FEFF 		bl	lv_obj_set_local_style_prop
 2768              	.LVL335:
 633:Drivers/lvgl/lvgl/src/core/lv_obj_style_gen.c **** }
 2769              		.loc 1 633 0
 2770 000c 08BD     		pop	{r3, pc}
 2771              		.cfi_endproc
 2772              	.LFE237:
 2774              		.section	.text.lv_obj_set_style_anim_speed,"ax",%progbits
ARM GAS  /tmp/cc7G7enf.s 			page 58


 2775              		.align	1
 2776              		.global	lv_obj_set_style_anim_speed
 2777              		.syntax unified
 2778              		.thumb
 2779              		.thumb_func
 2780              		.fpu fpv5-d16
 2782              	lv_obj_set_style_anim_speed:
 2783              	.LFB238:
 634:Drivers/lvgl/lvgl/src/core/lv_obj_style_gen.c **** 
 635:Drivers/lvgl/lvgl/src/core/lv_obj_style_gen.c **** void lv_obj_set_style_anim_speed(struct _lv_obj_t * obj, uint32_t value, lv_style_selector_t select
 636:Drivers/lvgl/lvgl/src/core/lv_obj_style_gen.c **** {
 2784              		.loc 1 636 0
 2785              		.cfi_startproc
 2786              		@ args = 0, pretend = 0, frame = 0
 2787              		@ frame_needed = 0, uses_anonymous_args = 0
 2788              	.LVL336:
 2789 0000 08B5     		push	{r3, lr}
 2790              	.LCFI99:
 2791              		.cfi_def_cfa_offset 8
 2792              		.cfi_offset 3, -8
 2793              		.cfi_offset 14, -4
 637:Drivers/lvgl/lvgl/src/core/lv_obj_style_gen.c ****     lv_style_value_t v = {
 638:Drivers/lvgl/lvgl/src/core/lv_obj_style_gen.c ****         .num = (int32_t)value
 639:Drivers/lvgl/lvgl/src/core/lv_obj_style_gen.c ****     };
 640:Drivers/lvgl/lvgl/src/core/lv_obj_style_gen.c ****     lv_obj_set_local_style_prop(obj, LV_STYLE_ANIM_SPEED, v, selector);
 2794              		.loc 1 640 0
 2795 0002 1346     		mov	r3, r2
 2796 0004 0A46     		mov	r2, r1
 2797              	.LVL337:
 2798 0006 6521     		movs	r1, #101
 2799              	.LVL338:
 2800 0008 FFF7FEFF 		bl	lv_obj_set_local_style_prop
 2801              	.LVL339:
 641:Drivers/lvgl/lvgl/src/core/lv_obj_style_gen.c **** }
 2802              		.loc 1 641 0
 2803 000c 08BD     		pop	{r3, pc}
 2804              		.cfi_endproc
 2805              	.LFE238:
 2807              		.section	.text.lv_obj_set_style_transition,"ax",%progbits
 2808              		.align	1
 2809              		.global	lv_obj_set_style_transition
 2810              		.syntax unified
 2811              		.thumb
 2812              		.thumb_func
 2813              		.fpu fpv5-d16
 2815              	lv_obj_set_style_transition:
 2816              	.LFB239:
 642:Drivers/lvgl/lvgl/src/core/lv_obj_style_gen.c **** 
 643:Drivers/lvgl/lvgl/src/core/lv_obj_style_gen.c **** void lv_obj_set_style_transition(struct _lv_obj_t * obj, const lv_style_transition_dsc_t * value, l
 644:Drivers/lvgl/lvgl/src/core/lv_obj_style_gen.c **** {
 2817              		.loc 1 644 0
 2818              		.cfi_startproc
 2819              		@ args = 0, pretend = 0, frame = 0
 2820              		@ frame_needed = 0, uses_anonymous_args = 0
 2821              	.LVL340:
 2822 0000 08B5     		push	{r3, lr}
 2823              	.LCFI100:
ARM GAS  /tmp/cc7G7enf.s 			page 59


 2824              		.cfi_def_cfa_offset 8
 2825              		.cfi_offset 3, -8
 2826              		.cfi_offset 14, -4
 645:Drivers/lvgl/lvgl/src/core/lv_obj_style_gen.c ****     lv_style_value_t v = {
 646:Drivers/lvgl/lvgl/src/core/lv_obj_style_gen.c ****         .ptr = value
 647:Drivers/lvgl/lvgl/src/core/lv_obj_style_gen.c ****     };
 648:Drivers/lvgl/lvgl/src/core/lv_obj_style_gen.c ****     lv_obj_set_local_style_prop(obj, LV_STYLE_TRANSITION, v, selector);
 2827              		.loc 1 648 0
 2828 0002 1346     		mov	r3, r2
 2829 0004 0A46     		mov	r2, r1
 2830              	.LVL341:
 2831 0006 6621     		movs	r1, #102
 2832              	.LVL342:
 2833 0008 FFF7FEFF 		bl	lv_obj_set_local_style_prop
 2834              	.LVL343:
 649:Drivers/lvgl/lvgl/src/core/lv_obj_style_gen.c **** }
 2835              		.loc 1 649 0
 2836 000c 08BD     		pop	{r3, pc}
 2837              		.cfi_endproc
 2838              	.LFE239:
 2840              		.section	.text.lv_obj_set_style_blend_mode,"ax",%progbits
 2841              		.align	1
 2842              		.global	lv_obj_set_style_blend_mode
 2843              		.syntax unified
 2844              		.thumb
 2845              		.thumb_func
 2846              		.fpu fpv5-d16
 2848              	lv_obj_set_style_blend_mode:
 2849              	.LFB240:
 650:Drivers/lvgl/lvgl/src/core/lv_obj_style_gen.c **** 
 651:Drivers/lvgl/lvgl/src/core/lv_obj_style_gen.c **** void lv_obj_set_style_blend_mode(struct _lv_obj_t * obj, lv_blend_mode_t value, lv_style_selector_t
 652:Drivers/lvgl/lvgl/src/core/lv_obj_style_gen.c **** {
 2850              		.loc 1 652 0
 2851              		.cfi_startproc
 2852              		@ args = 0, pretend = 0, frame = 0
 2853              		@ frame_needed = 0, uses_anonymous_args = 0
 2854              	.LVL344:
 2855 0000 08B5     		push	{r3, lr}
 2856              	.LCFI101:
 2857              		.cfi_def_cfa_offset 8
 2858              		.cfi_offset 3, -8
 2859              		.cfi_offset 14, -4
 653:Drivers/lvgl/lvgl/src/core/lv_obj_style_gen.c ****     lv_style_value_t v = {
 654:Drivers/lvgl/lvgl/src/core/lv_obj_style_gen.c ****         .num = (int32_t)value
 655:Drivers/lvgl/lvgl/src/core/lv_obj_style_gen.c ****     };
 656:Drivers/lvgl/lvgl/src/core/lv_obj_style_gen.c ****     lv_obj_set_local_style_prop(obj, LV_STYLE_BLEND_MODE, v, selector);
 2860              		.loc 1 656 0
 2861 0002 1346     		mov	r3, r2
 2862 0004 0A46     		mov	r2, r1
 2863              	.LVL345:
 2864 0006 6721     		movs	r1, #103
 2865              	.LVL346:
 2866 0008 FFF7FEFF 		bl	lv_obj_set_local_style_prop
 2867              	.LVL347:
 657:Drivers/lvgl/lvgl/src/core/lv_obj_style_gen.c **** }
 2868              		.loc 1 657 0
 2869 000c 08BD     		pop	{r3, pc}
ARM GAS  /tmp/cc7G7enf.s 			page 60


 2870              		.cfi_endproc
 2871              	.LFE240:
 2873              		.section	.text.lv_obj_set_style_layout,"ax",%progbits
 2874              		.align	1
 2875              		.global	lv_obj_set_style_layout
 2876              		.syntax unified
 2877              		.thumb
 2878              		.thumb_func
 2879              		.fpu fpv5-d16
 2881              	lv_obj_set_style_layout:
 2882              	.LFB241:
 658:Drivers/lvgl/lvgl/src/core/lv_obj_style_gen.c **** 
 659:Drivers/lvgl/lvgl/src/core/lv_obj_style_gen.c **** void lv_obj_set_style_layout(struct _lv_obj_t * obj, uint16_t value, lv_style_selector_t selector)
 660:Drivers/lvgl/lvgl/src/core/lv_obj_style_gen.c **** {
 2883              		.loc 1 660 0
 2884              		.cfi_startproc
 2885              		@ args = 0, pretend = 0, frame = 0
 2886              		@ frame_needed = 0, uses_anonymous_args = 0
 2887              	.LVL348:
 2888 0000 08B5     		push	{r3, lr}
 2889              	.LCFI102:
 2890              		.cfi_def_cfa_offset 8
 2891              		.cfi_offset 3, -8
 2892              		.cfi_offset 14, -4
 661:Drivers/lvgl/lvgl/src/core/lv_obj_style_gen.c ****     lv_style_value_t v = {
 662:Drivers/lvgl/lvgl/src/core/lv_obj_style_gen.c ****         .num = (int32_t)value
 663:Drivers/lvgl/lvgl/src/core/lv_obj_style_gen.c ****     };
 664:Drivers/lvgl/lvgl/src/core/lv_obj_style_gen.c ****     lv_obj_set_local_style_prop(obj, LV_STYLE_LAYOUT, v, selector);
 2893              		.loc 1 664 0
 2894 0002 1346     		mov	r3, r2
 2895 0004 0A46     		mov	r2, r1
 2896              	.LVL349:
 2897 0006 0A21     		movs	r1, #10
 2898              	.LVL350:
 2899 0008 FFF7FEFF 		bl	lv_obj_set_local_style_prop
 2900              	.LVL351:
 665:Drivers/lvgl/lvgl/src/core/lv_obj_style_gen.c **** }
 2901              		.loc 1 665 0
 2902 000c 08BD     		pop	{r3, pc}
 2903              		.cfi_endproc
 2904              	.LFE241:
 2906              		.section	.text.lv_obj_set_style_base_dir,"ax",%progbits
 2907              		.align	1
 2908              		.global	lv_obj_set_style_base_dir
 2909              		.syntax unified
 2910              		.thumb
 2911              		.thumb_func
 2912              		.fpu fpv5-d16
 2914              	lv_obj_set_style_base_dir:
 2915              	.LFB242:
 666:Drivers/lvgl/lvgl/src/core/lv_obj_style_gen.c **** 
 667:Drivers/lvgl/lvgl/src/core/lv_obj_style_gen.c **** void lv_obj_set_style_base_dir(struct _lv_obj_t * obj, lv_base_dir_t value, lv_style_selector_t sel
 668:Drivers/lvgl/lvgl/src/core/lv_obj_style_gen.c **** {
 2916              		.loc 1 668 0
 2917              		.cfi_startproc
 2918              		@ args = 0, pretend = 0, frame = 0
 2919              		@ frame_needed = 0, uses_anonymous_args = 0
ARM GAS  /tmp/cc7G7enf.s 			page 61


 2920              	.LVL352:
 2921 0000 08B5     		push	{r3, lr}
 2922              	.LCFI103:
 2923              		.cfi_def_cfa_offset 8
 2924              		.cfi_offset 3, -8
 2925              		.cfi_offset 14, -4
 669:Drivers/lvgl/lvgl/src/core/lv_obj_style_gen.c ****     lv_style_value_t v = {
 670:Drivers/lvgl/lvgl/src/core/lv_obj_style_gen.c ****         .num = (int32_t)value
 671:Drivers/lvgl/lvgl/src/core/lv_obj_style_gen.c ****     };
 672:Drivers/lvgl/lvgl/src/core/lv_obj_style_gen.c ****     lv_obj_set_local_style_prop(obj, LV_STYLE_BASE_DIR, v, selector);
 2926              		.loc 1 672 0
 2927 0002 1346     		mov	r3, r2
 2928 0004 0A46     		mov	r2, r1
 2929              	.LVL353:
 2930 0006 1621     		movs	r1, #22
 2931              	.LVL354:
 2932 0008 FFF7FEFF 		bl	lv_obj_set_local_style_prop
 2933              	.LVL355:
 673:Drivers/lvgl/lvgl/src/core/lv_obj_style_gen.c **** }
 2934              		.loc 1 673 0
 2935 000c 08BD     		pop	{r3, pc}
 2936              		.cfi_endproc
 2937              	.LFE242:
 2939              		.text
 2940              	.Letext0:
 2941              		.file 2 "/opt/gcc-arm-none-eabi-7-2017-q4-major/arm-none-eabi/include/machine/_default_types.h"
 2942              		.file 3 "/opt/gcc-arm-none-eabi-7-2017-q4-major/arm-none-eabi/include/sys/_stdint.h"
 2943              		.file 4 "Drivers/lvgl/lvgl/src/core/../misc/../font/../misc/lv_area.h"
 2944              		.file 5 "Drivers/lvgl/lvgl/src/core/../misc/../font/lv_font.h"
 2945              		.file 6 "/opt/gcc-arm-none-eabi-7-2017-q4-major/arm-none-eabi/include/sys/lock.h"
 2946              		.file 7 "/opt/gcc-arm-none-eabi-7-2017-q4-major/arm-none-eabi/include/sys/_types.h"
 2947              		.file 8 "/opt/gcc-arm-none-eabi-7-2017-q4-major/lib/gcc/arm-none-eabi/7.2.1/include/stddef.h"
 2948              		.file 9 "/opt/gcc-arm-none-eabi-7-2017-q4-major/arm-none-eabi/include/sys/reent.h"
 2949              		.file 10 "Drivers/lvgl/lvgl/src/core/../misc/lv_color.h"
 2950              		.file 11 "Drivers/lvgl/lvgl/src/core/../misc/lv_anim.h"
 2951              		.file 12 "Drivers/lvgl/lvgl/src/core/../misc/lv_txt.h"
 2952              		.file 13 "Drivers/lvgl/lvgl/src/core/../misc/lv_bidi.h"
 2953              		.file 14 "Drivers/lvgl/lvgl/src/core/../misc/lv_style.h"
 2954              		.file 15 "Drivers/lvgl/lvgl/src/core/lv_obj.h"
 2955              		.file 16 "Drivers/lvgl/lvgl/src/core/../hal/../misc/lv_ll.h"
 2956              		.file 17 "Drivers/lvgl/lvgl/src/core/lv_group.h"
 2957              		.file 18 "Drivers/lvgl/lvgl/src/core/lv_obj_scroll.h"
 2958              		.file 19 "Drivers/lvgl/lvgl/src/core/lv_obj_style.h"
 2959              		.file 20 "Drivers/lvgl/lvgl/src/core/lv_obj_class.h"
 2960              		.file 21 "Drivers/lvgl/lvgl/src/core/lv_event.h"
ARM GAS  /tmp/cc7G7enf.s 			page 62

