ARM GAS  /tmp/cchzjiif.s 			page 1


   1              		.cpu cortex-m7
   2              		.eabi_attribute 28, 1
   3              		.eabi_attribute 20, 1
   4              		.eabi_attribute 21, 1
   5              		.eabi_attribute 23, 3
   6              		.eabi_attribute 24, 1
   7              		.eabi_attribute 25, 1
   8              		.eabi_attribute 26, 1
   9              		.eabi_attribute 30, 1
  10              		.eabi_attribute 34, 1
  11              		.eabi_attribute 18, 4
  12              		.file	"lv_roller.c"
  13              		.text
  14              	.Ltext0:
  15              		.cfi_sections	.debug_frame
  16              		.section	.text.set_y_anim,"ax",%progbits
  17              		.align	1
  18              		.syntax unified
  19              		.thumb
  20              		.thumb_func
  21              		.fpu fpv5-d16
  23              	set_y_anim:
  24              	.LFB179:
  25              		.file 1 "Drivers/lvgl/lvgl/src/widgets/lv_roller.c"
   1:Drivers/lvgl/lvgl/src/widgets/lv_roller.c **** /**
   2:Drivers/lvgl/lvgl/src/widgets/lv_roller.c ****  * @file lv_roller.c
   3:Drivers/lvgl/lvgl/src/widgets/lv_roller.c ****  *
   4:Drivers/lvgl/lvgl/src/widgets/lv_roller.c ****  */
   5:Drivers/lvgl/lvgl/src/widgets/lv_roller.c **** 
   6:Drivers/lvgl/lvgl/src/widgets/lv_roller.c **** /*********************
   7:Drivers/lvgl/lvgl/src/widgets/lv_roller.c ****  *      INCLUDES
   8:Drivers/lvgl/lvgl/src/widgets/lv_roller.c ****  *********************/
   9:Drivers/lvgl/lvgl/src/widgets/lv_roller.c **** #include "lv_roller.h"
  10:Drivers/lvgl/lvgl/src/widgets/lv_roller.c **** #if LV_USE_ROLLER != 0
  11:Drivers/lvgl/lvgl/src/widgets/lv_roller.c **** 
  12:Drivers/lvgl/lvgl/src/widgets/lv_roller.c **** #include "../misc/lv_assert.h"
  13:Drivers/lvgl/lvgl/src/widgets/lv_roller.c **** #include "../draw/lv_draw.h"
  14:Drivers/lvgl/lvgl/src/widgets/lv_roller.c **** #include "../core/lv_group.h"
  15:Drivers/lvgl/lvgl/src/widgets/lv_roller.c **** #include "../core/lv_indev.h"
  16:Drivers/lvgl/lvgl/src/widgets/lv_roller.c **** #include "../core/lv_indev_scroll.h"
  17:Drivers/lvgl/lvgl/src/widgets/lv_roller.c **** 
  18:Drivers/lvgl/lvgl/src/widgets/lv_roller.c **** /*********************
  19:Drivers/lvgl/lvgl/src/widgets/lv_roller.c ****  *      DEFINES
  20:Drivers/lvgl/lvgl/src/widgets/lv_roller.c ****  *********************/
  21:Drivers/lvgl/lvgl/src/widgets/lv_roller.c **** #define MY_CLASS &lv_roller_class
  22:Drivers/lvgl/lvgl/src/widgets/lv_roller.c **** #define MY_CLASS_LABEL &lv_roller_label_class
  23:Drivers/lvgl/lvgl/src/widgets/lv_roller.c **** 
  24:Drivers/lvgl/lvgl/src/widgets/lv_roller.c **** /**********************
  25:Drivers/lvgl/lvgl/src/widgets/lv_roller.c ****  *      TYPEDEFS
  26:Drivers/lvgl/lvgl/src/widgets/lv_roller.c ****  **********************/
  27:Drivers/lvgl/lvgl/src/widgets/lv_roller.c **** 
  28:Drivers/lvgl/lvgl/src/widgets/lv_roller.c **** /**********************
  29:Drivers/lvgl/lvgl/src/widgets/lv_roller.c ****  *  STATIC PROTOTYPES
  30:Drivers/lvgl/lvgl/src/widgets/lv_roller.c ****  **********************/
  31:Drivers/lvgl/lvgl/src/widgets/lv_roller.c **** static void lv_roller_constructor(const lv_obj_class_t * class_p, lv_obj_t * obj);
  32:Drivers/lvgl/lvgl/src/widgets/lv_roller.c **** static void lv_roller_event(const lv_obj_class_t * class_p, lv_event_t * e);
  33:Drivers/lvgl/lvgl/src/widgets/lv_roller.c **** static void lv_roller_label_event(const lv_obj_class_t * class_p, lv_event_t * e);
ARM GAS  /tmp/cchzjiif.s 			page 2


  34:Drivers/lvgl/lvgl/src/widgets/lv_roller.c **** static void draw_main(lv_event_t * e);
  35:Drivers/lvgl/lvgl/src/widgets/lv_roller.c **** static void draw_label(lv_event_t * e);
  36:Drivers/lvgl/lvgl/src/widgets/lv_roller.c **** static void get_sel_area(lv_obj_t * obj, lv_area_t * sel_area);
  37:Drivers/lvgl/lvgl/src/widgets/lv_roller.c **** static void refr_position(lv_obj_t * obj, lv_anim_enable_t animen);
  38:Drivers/lvgl/lvgl/src/widgets/lv_roller.c **** static lv_res_t release_handler(lv_obj_t * obj);
  39:Drivers/lvgl/lvgl/src/widgets/lv_roller.c **** static void inf_normalize(lv_obj_t * obj_scrl);
  40:Drivers/lvgl/lvgl/src/widgets/lv_roller.c **** static lv_obj_t * get_label(const lv_obj_t * obj);
  41:Drivers/lvgl/lvgl/src/widgets/lv_roller.c **** static lv_coord_t get_selected_label_width(const lv_obj_t * obj);
  42:Drivers/lvgl/lvgl/src/widgets/lv_roller.c **** static void scroll_anim_ready_cb(lv_anim_t * a);
  43:Drivers/lvgl/lvgl/src/widgets/lv_roller.c **** static void set_y_anim(void * obj, int32_t v);
  44:Drivers/lvgl/lvgl/src/widgets/lv_roller.c **** 
  45:Drivers/lvgl/lvgl/src/widgets/lv_roller.c **** /**********************
  46:Drivers/lvgl/lvgl/src/widgets/lv_roller.c ****  *  STATIC VARIABLES
  47:Drivers/lvgl/lvgl/src/widgets/lv_roller.c ****  **********************/
  48:Drivers/lvgl/lvgl/src/widgets/lv_roller.c **** const lv_obj_class_t lv_roller_class = {
  49:Drivers/lvgl/lvgl/src/widgets/lv_roller.c ****     .constructor_cb = lv_roller_constructor,
  50:Drivers/lvgl/lvgl/src/widgets/lv_roller.c ****     .event_cb = lv_roller_event,
  51:Drivers/lvgl/lvgl/src/widgets/lv_roller.c ****     .width_def = LV_SIZE_CONTENT,
  52:Drivers/lvgl/lvgl/src/widgets/lv_roller.c ****     .height_def = LV_DPI_DEF,
  53:Drivers/lvgl/lvgl/src/widgets/lv_roller.c ****     .instance_size = sizeof(lv_roller_t),
  54:Drivers/lvgl/lvgl/src/widgets/lv_roller.c ****     .editable = LV_OBJ_CLASS_EDITABLE_TRUE,
  55:Drivers/lvgl/lvgl/src/widgets/lv_roller.c ****     .group_def = LV_OBJ_CLASS_GROUP_DEF_TRUE,
  56:Drivers/lvgl/lvgl/src/widgets/lv_roller.c ****     .base_class = &lv_obj_class
  57:Drivers/lvgl/lvgl/src/widgets/lv_roller.c **** };
  58:Drivers/lvgl/lvgl/src/widgets/lv_roller.c **** 
  59:Drivers/lvgl/lvgl/src/widgets/lv_roller.c **** const lv_obj_class_t lv_roller_label_class  = {
  60:Drivers/lvgl/lvgl/src/widgets/lv_roller.c ****     .event_cb = lv_roller_label_event,
  61:Drivers/lvgl/lvgl/src/widgets/lv_roller.c ****     .instance_size = sizeof(lv_label_t),
  62:Drivers/lvgl/lvgl/src/widgets/lv_roller.c ****     .base_class = &lv_label_class
  63:Drivers/lvgl/lvgl/src/widgets/lv_roller.c **** };
  64:Drivers/lvgl/lvgl/src/widgets/lv_roller.c **** 
  65:Drivers/lvgl/lvgl/src/widgets/lv_roller.c **** /**********************
  66:Drivers/lvgl/lvgl/src/widgets/lv_roller.c ****  *      MACROS
  67:Drivers/lvgl/lvgl/src/widgets/lv_roller.c ****  **********************/
  68:Drivers/lvgl/lvgl/src/widgets/lv_roller.c **** 
  69:Drivers/lvgl/lvgl/src/widgets/lv_roller.c **** /**********************
  70:Drivers/lvgl/lvgl/src/widgets/lv_roller.c ****  *   GLOBAL FUNCTIONS
  71:Drivers/lvgl/lvgl/src/widgets/lv_roller.c ****  **********************/
  72:Drivers/lvgl/lvgl/src/widgets/lv_roller.c **** 
  73:Drivers/lvgl/lvgl/src/widgets/lv_roller.c **** /**
  74:Drivers/lvgl/lvgl/src/widgets/lv_roller.c ****  * Create a roller object
  75:Drivers/lvgl/lvgl/src/widgets/lv_roller.c ****  * @param parent pointer to an object, it will be the parent of the new roller
  76:Drivers/lvgl/lvgl/src/widgets/lv_roller.c ****  * @return pointer to the created roller
  77:Drivers/lvgl/lvgl/src/widgets/lv_roller.c ****  */
  78:Drivers/lvgl/lvgl/src/widgets/lv_roller.c **** lv_obj_t * lv_roller_create(lv_obj_t * parent)
  79:Drivers/lvgl/lvgl/src/widgets/lv_roller.c **** {
  80:Drivers/lvgl/lvgl/src/widgets/lv_roller.c ****     LV_LOG_INFO("begin");
  81:Drivers/lvgl/lvgl/src/widgets/lv_roller.c ****     lv_obj_t * obj = lv_obj_class_create_obj(MY_CLASS, parent);
  82:Drivers/lvgl/lvgl/src/widgets/lv_roller.c ****     lv_obj_class_init_obj(obj);
  83:Drivers/lvgl/lvgl/src/widgets/lv_roller.c ****     return obj;
  84:Drivers/lvgl/lvgl/src/widgets/lv_roller.c **** }
  85:Drivers/lvgl/lvgl/src/widgets/lv_roller.c **** 
  86:Drivers/lvgl/lvgl/src/widgets/lv_roller.c **** /*=====================
  87:Drivers/lvgl/lvgl/src/widgets/lv_roller.c ****  * Setter functions
  88:Drivers/lvgl/lvgl/src/widgets/lv_roller.c ****  *====================*/
  89:Drivers/lvgl/lvgl/src/widgets/lv_roller.c **** 
  90:Drivers/lvgl/lvgl/src/widgets/lv_roller.c **** /**
ARM GAS  /tmp/cchzjiif.s 			page 3


  91:Drivers/lvgl/lvgl/src/widgets/lv_roller.c ****  * Set the options on a roller
  92:Drivers/lvgl/lvgl/src/widgets/lv_roller.c ****  * @param roller pointer to roller object
  93:Drivers/lvgl/lvgl/src/widgets/lv_roller.c ****  * @param options a string with '\n' separated options. E.g. "One\nTwo\nThree"
  94:Drivers/lvgl/lvgl/src/widgets/lv_roller.c ****  * @param mode `LV_ROLLER_MODE_NORMAL` or `LV_ROLLER_MODE_INFINITE`
  95:Drivers/lvgl/lvgl/src/widgets/lv_roller.c ****  */
  96:Drivers/lvgl/lvgl/src/widgets/lv_roller.c **** void lv_roller_set_options(lv_obj_t * obj, const char * options, lv_roller_mode_t mode)
  97:Drivers/lvgl/lvgl/src/widgets/lv_roller.c **** {
  98:Drivers/lvgl/lvgl/src/widgets/lv_roller.c ****     LV_ASSERT_OBJ(obj, MY_CLASS);
  99:Drivers/lvgl/lvgl/src/widgets/lv_roller.c ****     LV_ASSERT_NULL(options);
 100:Drivers/lvgl/lvgl/src/widgets/lv_roller.c **** 
 101:Drivers/lvgl/lvgl/src/widgets/lv_roller.c ****     lv_roller_t * roller = (lv_roller_t *)obj;
 102:Drivers/lvgl/lvgl/src/widgets/lv_roller.c ****     lv_obj_t * label = get_label(obj);
 103:Drivers/lvgl/lvgl/src/widgets/lv_roller.c **** 
 104:Drivers/lvgl/lvgl/src/widgets/lv_roller.c ****     roller->sel_opt_id     = 0;
 105:Drivers/lvgl/lvgl/src/widgets/lv_roller.c ****     roller->sel_opt_id_ori = 0;
 106:Drivers/lvgl/lvgl/src/widgets/lv_roller.c **** 
 107:Drivers/lvgl/lvgl/src/widgets/lv_roller.c ****     /*Count the '\n'-s to determine the number of options*/
 108:Drivers/lvgl/lvgl/src/widgets/lv_roller.c ****     roller->option_cnt = 0;
 109:Drivers/lvgl/lvgl/src/widgets/lv_roller.c ****     uint32_t cnt;
 110:Drivers/lvgl/lvgl/src/widgets/lv_roller.c ****     for(cnt = 0; options[cnt] != '\0'; cnt++) {
 111:Drivers/lvgl/lvgl/src/widgets/lv_roller.c ****         if(options[cnt] == '\n') roller->option_cnt++;
 112:Drivers/lvgl/lvgl/src/widgets/lv_roller.c ****     }
 113:Drivers/lvgl/lvgl/src/widgets/lv_roller.c ****     roller->option_cnt++; /*Last option has no `\n`*/
 114:Drivers/lvgl/lvgl/src/widgets/lv_roller.c **** 
 115:Drivers/lvgl/lvgl/src/widgets/lv_roller.c ****     if(mode == LV_ROLLER_MODE_NORMAL) {
 116:Drivers/lvgl/lvgl/src/widgets/lv_roller.c ****         roller->mode = LV_ROLLER_MODE_NORMAL;
 117:Drivers/lvgl/lvgl/src/widgets/lv_roller.c ****         lv_label_set_text(label, options);
 118:Drivers/lvgl/lvgl/src/widgets/lv_roller.c ****     }
 119:Drivers/lvgl/lvgl/src/widgets/lv_roller.c ****     else {
 120:Drivers/lvgl/lvgl/src/widgets/lv_roller.c ****         roller->mode = LV_ROLLER_MODE_INFINITE;
 121:Drivers/lvgl/lvgl/src/widgets/lv_roller.c **** 
 122:Drivers/lvgl/lvgl/src/widgets/lv_roller.c ****         size_t opt_len = strlen(options) + 1; /*+1 to add '\n' after option lists*/
 123:Drivers/lvgl/lvgl/src/widgets/lv_roller.c ****         char * opt_extra = lv_mem_buf_get(opt_len * LV_ROLLER_INF_PAGES);
 124:Drivers/lvgl/lvgl/src/widgets/lv_roller.c ****         uint8_t i;
 125:Drivers/lvgl/lvgl/src/widgets/lv_roller.c ****         for(i = 0; i < LV_ROLLER_INF_PAGES; i++) {
 126:Drivers/lvgl/lvgl/src/widgets/lv_roller.c ****             strcpy(&opt_extra[opt_len * i], options);
 127:Drivers/lvgl/lvgl/src/widgets/lv_roller.c ****             opt_extra[opt_len * (i + 1) - 1] = '\n';
 128:Drivers/lvgl/lvgl/src/widgets/lv_roller.c ****         }
 129:Drivers/lvgl/lvgl/src/widgets/lv_roller.c ****         opt_extra[opt_len * LV_ROLLER_INF_PAGES - 1] = '\0';
 130:Drivers/lvgl/lvgl/src/widgets/lv_roller.c ****         lv_label_set_text(label, opt_extra);
 131:Drivers/lvgl/lvgl/src/widgets/lv_roller.c ****         lv_mem_buf_release(opt_extra);
 132:Drivers/lvgl/lvgl/src/widgets/lv_roller.c **** 
 133:Drivers/lvgl/lvgl/src/widgets/lv_roller.c ****         roller->sel_opt_id     = ((LV_ROLLER_INF_PAGES / 2) + 0) * roller->option_cnt;
 134:Drivers/lvgl/lvgl/src/widgets/lv_roller.c **** 
 135:Drivers/lvgl/lvgl/src/widgets/lv_roller.c ****         roller->option_cnt = roller->option_cnt * LV_ROLLER_INF_PAGES;
 136:Drivers/lvgl/lvgl/src/widgets/lv_roller.c ****         inf_normalize(obj);
 137:Drivers/lvgl/lvgl/src/widgets/lv_roller.c ****     }
 138:Drivers/lvgl/lvgl/src/widgets/lv_roller.c **** 
 139:Drivers/lvgl/lvgl/src/widgets/lv_roller.c ****     roller->sel_opt_id_ori = roller->sel_opt_id;
 140:Drivers/lvgl/lvgl/src/widgets/lv_roller.c **** 
 141:Drivers/lvgl/lvgl/src/widgets/lv_roller.c ****     /*If the selected text has larger font the label needs some extra draw padding to draw it.*/
 142:Drivers/lvgl/lvgl/src/widgets/lv_roller.c ****     lv_obj_refresh_ext_draw_size(label);
 143:Drivers/lvgl/lvgl/src/widgets/lv_roller.c **** 
 144:Drivers/lvgl/lvgl/src/widgets/lv_roller.c **** }
 145:Drivers/lvgl/lvgl/src/widgets/lv_roller.c **** 
 146:Drivers/lvgl/lvgl/src/widgets/lv_roller.c **** /**
 147:Drivers/lvgl/lvgl/src/widgets/lv_roller.c ****  * Set the selected option
ARM GAS  /tmp/cchzjiif.s 			page 4


 148:Drivers/lvgl/lvgl/src/widgets/lv_roller.c ****  * @param roller pointer to a roller object
 149:Drivers/lvgl/lvgl/src/widgets/lv_roller.c ****  * @param sel_opt id of the selected option (0 ... number of option - 1);
 150:Drivers/lvgl/lvgl/src/widgets/lv_roller.c ****  * @param anim_en LV_ANIM_ON: set with animation; LV_ANOM_OFF set immediately
 151:Drivers/lvgl/lvgl/src/widgets/lv_roller.c ****  */
 152:Drivers/lvgl/lvgl/src/widgets/lv_roller.c **** void lv_roller_set_selected(lv_obj_t * obj, uint16_t sel_opt, lv_anim_enable_t anim)
 153:Drivers/lvgl/lvgl/src/widgets/lv_roller.c **** {
 154:Drivers/lvgl/lvgl/src/widgets/lv_roller.c ****     LV_ASSERT_OBJ(obj, MY_CLASS);
 155:Drivers/lvgl/lvgl/src/widgets/lv_roller.c **** 
 156:Drivers/lvgl/lvgl/src/widgets/lv_roller.c ****     /*Set the value even if it's the same as the current value because
 157:Drivers/lvgl/lvgl/src/widgets/lv_roller.c ****      *if moving to the next option with an animation which was just deleted in the PRESS Call the a
 158:Drivers/lvgl/lvgl/src/widgets/lv_roller.c ****      *nothing will continue the animation.*/
 159:Drivers/lvgl/lvgl/src/widgets/lv_roller.c **** 
 160:Drivers/lvgl/lvgl/src/widgets/lv_roller.c ****     lv_roller_t * roller = (lv_roller_t *)obj;
 161:Drivers/lvgl/lvgl/src/widgets/lv_roller.c **** 
 162:Drivers/lvgl/lvgl/src/widgets/lv_roller.c ****     /*In infinite mode interpret the new ID relative to the currently visible "page"*/
 163:Drivers/lvgl/lvgl/src/widgets/lv_roller.c ****     if(roller->mode == LV_ROLLER_MODE_INFINITE) {
 164:Drivers/lvgl/lvgl/src/widgets/lv_roller.c ****         uint32_t real_option_cnt = roller->option_cnt / LV_ROLLER_INF_PAGES;
 165:Drivers/lvgl/lvgl/src/widgets/lv_roller.c ****         uint16_t current_page = roller->sel_opt_id / real_option_cnt;
 166:Drivers/lvgl/lvgl/src/widgets/lv_roller.c ****         /*Set by the user to e.g. 0, 1, 2, 3...
 167:Drivers/lvgl/lvgl/src/widgets/lv_roller.c ****          *Upscale the value to the current page*/
 168:Drivers/lvgl/lvgl/src/widgets/lv_roller.c ****         if(sel_opt < real_option_cnt) {
 169:Drivers/lvgl/lvgl/src/widgets/lv_roller.c ****             uint16_t act_opt = roller->sel_opt_id - current_page * real_option_cnt;
 170:Drivers/lvgl/lvgl/src/widgets/lv_roller.c ****             int32_t sel_opt_signed = sel_opt;
 171:Drivers/lvgl/lvgl/src/widgets/lv_roller.c ****             /*Huge jump? Probably from last to first or first to last option.*/
 172:Drivers/lvgl/lvgl/src/widgets/lv_roller.c ****             if(LV_ABS((int16_t)act_opt - sel_opt) > real_option_cnt / 2) {
 173:Drivers/lvgl/lvgl/src/widgets/lv_roller.c ****                 if(act_opt > sel_opt) sel_opt_signed += real_option_cnt;
 174:Drivers/lvgl/lvgl/src/widgets/lv_roller.c ****                 else sel_opt_signed -= real_option_cnt;
 175:Drivers/lvgl/lvgl/src/widgets/lv_roller.c ****             }
 176:Drivers/lvgl/lvgl/src/widgets/lv_roller.c ****             sel_opt = sel_opt_signed + real_option_cnt * current_page;
 177:Drivers/lvgl/lvgl/src/widgets/lv_roller.c ****         }
 178:Drivers/lvgl/lvgl/src/widgets/lv_roller.c ****     }
 179:Drivers/lvgl/lvgl/src/widgets/lv_roller.c **** 
 180:Drivers/lvgl/lvgl/src/widgets/lv_roller.c ****     roller->sel_opt_id     = sel_opt < roller->option_cnt ? sel_opt : roller->option_cnt - 1;
 181:Drivers/lvgl/lvgl/src/widgets/lv_roller.c ****     roller->sel_opt_id_ori = roller->sel_opt_id;
 182:Drivers/lvgl/lvgl/src/widgets/lv_roller.c **** 
 183:Drivers/lvgl/lvgl/src/widgets/lv_roller.c ****     refr_position(obj, anim);
 184:Drivers/lvgl/lvgl/src/widgets/lv_roller.c **** }
 185:Drivers/lvgl/lvgl/src/widgets/lv_roller.c **** 
 186:Drivers/lvgl/lvgl/src/widgets/lv_roller.c **** /**
 187:Drivers/lvgl/lvgl/src/widgets/lv_roller.c ****  * Set the height to show the given number of rows (options)
 188:Drivers/lvgl/lvgl/src/widgets/lv_roller.c ****  * @param roller pointer to a roller object
 189:Drivers/lvgl/lvgl/src/widgets/lv_roller.c ****  * @param row_cnt number of desired visible rows
 190:Drivers/lvgl/lvgl/src/widgets/lv_roller.c ****  */
 191:Drivers/lvgl/lvgl/src/widgets/lv_roller.c **** void lv_roller_set_visible_row_count(lv_obj_t * obj, uint8_t row_cnt)
 192:Drivers/lvgl/lvgl/src/widgets/lv_roller.c **** {
 193:Drivers/lvgl/lvgl/src/widgets/lv_roller.c ****     LV_ASSERT_OBJ(obj, MY_CLASS);
 194:Drivers/lvgl/lvgl/src/widgets/lv_roller.c **** 
 195:Drivers/lvgl/lvgl/src/widgets/lv_roller.c ****     const lv_font_t * font = lv_obj_get_style_text_font(obj, LV_PART_MAIN);
 196:Drivers/lvgl/lvgl/src/widgets/lv_roller.c ****     lv_coord_t line_space = lv_obj_get_style_text_line_space(obj, LV_PART_MAIN);
 197:Drivers/lvgl/lvgl/src/widgets/lv_roller.c ****     lv_coord_t border_width = lv_obj_get_style_border_width(obj, LV_PART_MAIN);
 198:Drivers/lvgl/lvgl/src/widgets/lv_roller.c ****     lv_obj_set_height(obj, (lv_font_get_line_height(font) + line_space) * row_cnt + 2 * border_widt
 199:Drivers/lvgl/lvgl/src/widgets/lv_roller.c **** }
 200:Drivers/lvgl/lvgl/src/widgets/lv_roller.c **** 
 201:Drivers/lvgl/lvgl/src/widgets/lv_roller.c **** /*=====================
 202:Drivers/lvgl/lvgl/src/widgets/lv_roller.c ****  * Getter functions
 203:Drivers/lvgl/lvgl/src/widgets/lv_roller.c ****  *====================*/
 204:Drivers/lvgl/lvgl/src/widgets/lv_roller.c **** 
ARM GAS  /tmp/cchzjiif.s 			page 5


 205:Drivers/lvgl/lvgl/src/widgets/lv_roller.c **** /**
 206:Drivers/lvgl/lvgl/src/widgets/lv_roller.c ****  * Get the id of the selected option
 207:Drivers/lvgl/lvgl/src/widgets/lv_roller.c ****  * @param roller pointer to a roller object
 208:Drivers/lvgl/lvgl/src/widgets/lv_roller.c ****  * @return id of the selected option (0 ... number of option - 1);
 209:Drivers/lvgl/lvgl/src/widgets/lv_roller.c ****  */
 210:Drivers/lvgl/lvgl/src/widgets/lv_roller.c **** uint16_t lv_roller_get_selected(const lv_obj_t * obj)
 211:Drivers/lvgl/lvgl/src/widgets/lv_roller.c **** {
 212:Drivers/lvgl/lvgl/src/widgets/lv_roller.c ****     LV_ASSERT_OBJ(obj, MY_CLASS);
 213:Drivers/lvgl/lvgl/src/widgets/lv_roller.c **** 
 214:Drivers/lvgl/lvgl/src/widgets/lv_roller.c ****     lv_roller_t * roller = (lv_roller_t *)obj;
 215:Drivers/lvgl/lvgl/src/widgets/lv_roller.c ****     if(roller->mode == LV_ROLLER_MODE_INFINITE) {
 216:Drivers/lvgl/lvgl/src/widgets/lv_roller.c ****         uint16_t real_id_cnt = roller->option_cnt / LV_ROLLER_INF_PAGES;
 217:Drivers/lvgl/lvgl/src/widgets/lv_roller.c ****         return roller->sel_opt_id % real_id_cnt;
 218:Drivers/lvgl/lvgl/src/widgets/lv_roller.c ****     }
 219:Drivers/lvgl/lvgl/src/widgets/lv_roller.c ****     else {
 220:Drivers/lvgl/lvgl/src/widgets/lv_roller.c ****         return roller->sel_opt_id;
 221:Drivers/lvgl/lvgl/src/widgets/lv_roller.c ****     }
 222:Drivers/lvgl/lvgl/src/widgets/lv_roller.c **** }
 223:Drivers/lvgl/lvgl/src/widgets/lv_roller.c **** 
 224:Drivers/lvgl/lvgl/src/widgets/lv_roller.c **** /**
 225:Drivers/lvgl/lvgl/src/widgets/lv_roller.c ****  * Get the current selected option as a string
 226:Drivers/lvgl/lvgl/src/widgets/lv_roller.c ****  * @param ddlist pointer to ddlist object
 227:Drivers/lvgl/lvgl/src/widgets/lv_roller.c ****  * @param buf pointer to an array to store the string
 228:Drivers/lvgl/lvgl/src/widgets/lv_roller.c ****  * @param buf_size size of `buf` in bytes. 0: to ignore it.
 229:Drivers/lvgl/lvgl/src/widgets/lv_roller.c ****  */
 230:Drivers/lvgl/lvgl/src/widgets/lv_roller.c **** void lv_roller_get_selected_str(const lv_obj_t * obj, char * buf, uint32_t buf_size)
 231:Drivers/lvgl/lvgl/src/widgets/lv_roller.c **** {
 232:Drivers/lvgl/lvgl/src/widgets/lv_roller.c ****     LV_ASSERT_OBJ(obj, MY_CLASS);
 233:Drivers/lvgl/lvgl/src/widgets/lv_roller.c **** 
 234:Drivers/lvgl/lvgl/src/widgets/lv_roller.c ****     lv_roller_t * roller = (lv_roller_t *)obj;
 235:Drivers/lvgl/lvgl/src/widgets/lv_roller.c ****     lv_obj_t * label = get_label(obj);
 236:Drivers/lvgl/lvgl/src/widgets/lv_roller.c ****     uint32_t i;
 237:Drivers/lvgl/lvgl/src/widgets/lv_roller.c ****     uint16_t line        = 0;
 238:Drivers/lvgl/lvgl/src/widgets/lv_roller.c ****     const char * opt_txt = lv_label_get_text(label);
 239:Drivers/lvgl/lvgl/src/widgets/lv_roller.c ****     size_t txt_len     = strlen(opt_txt);
 240:Drivers/lvgl/lvgl/src/widgets/lv_roller.c **** 
 241:Drivers/lvgl/lvgl/src/widgets/lv_roller.c ****     for(i = 0; i < txt_len && line != roller->sel_opt_id; i++) {
 242:Drivers/lvgl/lvgl/src/widgets/lv_roller.c ****         if(opt_txt[i] == '\n') line++;
 243:Drivers/lvgl/lvgl/src/widgets/lv_roller.c ****     }
 244:Drivers/lvgl/lvgl/src/widgets/lv_roller.c **** 
 245:Drivers/lvgl/lvgl/src/widgets/lv_roller.c ****     uint32_t c;
 246:Drivers/lvgl/lvgl/src/widgets/lv_roller.c ****     for(c = 0; i < txt_len && opt_txt[i] != '\n'; c++, i++) {
 247:Drivers/lvgl/lvgl/src/widgets/lv_roller.c ****         if(buf_size && c >= buf_size - 1) {
 248:Drivers/lvgl/lvgl/src/widgets/lv_roller.c ****             LV_LOG_WARN("lv_dropdown_get_selected_str: the buffer was too small");
 249:Drivers/lvgl/lvgl/src/widgets/lv_roller.c ****             break;
 250:Drivers/lvgl/lvgl/src/widgets/lv_roller.c ****         }
 251:Drivers/lvgl/lvgl/src/widgets/lv_roller.c ****         buf[c] = opt_txt[i];
 252:Drivers/lvgl/lvgl/src/widgets/lv_roller.c ****     }
 253:Drivers/lvgl/lvgl/src/widgets/lv_roller.c **** 
 254:Drivers/lvgl/lvgl/src/widgets/lv_roller.c ****     buf[c] = '\0';
 255:Drivers/lvgl/lvgl/src/widgets/lv_roller.c **** }
 256:Drivers/lvgl/lvgl/src/widgets/lv_roller.c **** 
 257:Drivers/lvgl/lvgl/src/widgets/lv_roller.c **** 
 258:Drivers/lvgl/lvgl/src/widgets/lv_roller.c **** /**
 259:Drivers/lvgl/lvgl/src/widgets/lv_roller.c ****  * Get the options of a roller
 260:Drivers/lvgl/lvgl/src/widgets/lv_roller.c ****  * @param roller pointer to roller object
 261:Drivers/lvgl/lvgl/src/widgets/lv_roller.c ****  * @return the options separated by '\n'-s (E.g. "Option1\nOption2\nOption3")
ARM GAS  /tmp/cchzjiif.s 			page 6


 262:Drivers/lvgl/lvgl/src/widgets/lv_roller.c ****  */
 263:Drivers/lvgl/lvgl/src/widgets/lv_roller.c **** const char * lv_roller_get_options(const lv_obj_t * obj)
 264:Drivers/lvgl/lvgl/src/widgets/lv_roller.c **** {
 265:Drivers/lvgl/lvgl/src/widgets/lv_roller.c ****     LV_ASSERT_OBJ(obj, MY_CLASS);
 266:Drivers/lvgl/lvgl/src/widgets/lv_roller.c **** 
 267:Drivers/lvgl/lvgl/src/widgets/lv_roller.c ****     return lv_label_get_text(get_label(obj));
 268:Drivers/lvgl/lvgl/src/widgets/lv_roller.c **** }
 269:Drivers/lvgl/lvgl/src/widgets/lv_roller.c **** 
 270:Drivers/lvgl/lvgl/src/widgets/lv_roller.c **** 
 271:Drivers/lvgl/lvgl/src/widgets/lv_roller.c **** /**
 272:Drivers/lvgl/lvgl/src/widgets/lv_roller.c ****  * Get the total number of options
 273:Drivers/lvgl/lvgl/src/widgets/lv_roller.c ****  * @param roller pointer to a roller object
 274:Drivers/lvgl/lvgl/src/widgets/lv_roller.c ****  * @return the total number of options
 275:Drivers/lvgl/lvgl/src/widgets/lv_roller.c ****  */
 276:Drivers/lvgl/lvgl/src/widgets/lv_roller.c **** uint16_t lv_roller_get_option_cnt(const lv_obj_t * obj)
 277:Drivers/lvgl/lvgl/src/widgets/lv_roller.c **** {
 278:Drivers/lvgl/lvgl/src/widgets/lv_roller.c ****     LV_ASSERT_OBJ(obj, MY_CLASS);
 279:Drivers/lvgl/lvgl/src/widgets/lv_roller.c **** 
 280:Drivers/lvgl/lvgl/src/widgets/lv_roller.c ****     lv_roller_t * roller = (lv_roller_t *)obj;
 281:Drivers/lvgl/lvgl/src/widgets/lv_roller.c ****     if(roller->mode == LV_ROLLER_MODE_INFINITE) {
 282:Drivers/lvgl/lvgl/src/widgets/lv_roller.c ****         return roller->option_cnt / LV_ROLLER_INF_PAGES;
 283:Drivers/lvgl/lvgl/src/widgets/lv_roller.c ****     }
 284:Drivers/lvgl/lvgl/src/widgets/lv_roller.c ****     else {
 285:Drivers/lvgl/lvgl/src/widgets/lv_roller.c ****         return roller->option_cnt;
 286:Drivers/lvgl/lvgl/src/widgets/lv_roller.c ****     }
 287:Drivers/lvgl/lvgl/src/widgets/lv_roller.c **** }
 288:Drivers/lvgl/lvgl/src/widgets/lv_roller.c **** 
 289:Drivers/lvgl/lvgl/src/widgets/lv_roller.c **** /**********************
 290:Drivers/lvgl/lvgl/src/widgets/lv_roller.c ****  *   STATIC FUNCTIONS
 291:Drivers/lvgl/lvgl/src/widgets/lv_roller.c ****  **********************/
 292:Drivers/lvgl/lvgl/src/widgets/lv_roller.c **** 
 293:Drivers/lvgl/lvgl/src/widgets/lv_roller.c **** 
 294:Drivers/lvgl/lvgl/src/widgets/lv_roller.c **** static void lv_roller_constructor(const lv_obj_class_t * class_p, lv_obj_t * obj)
 295:Drivers/lvgl/lvgl/src/widgets/lv_roller.c **** {
 296:Drivers/lvgl/lvgl/src/widgets/lv_roller.c ****     LV_UNUSED(class_p);
 297:Drivers/lvgl/lvgl/src/widgets/lv_roller.c ****     lv_roller_t * roller = (lv_roller_t *)obj;
 298:Drivers/lvgl/lvgl/src/widgets/lv_roller.c **** 
 299:Drivers/lvgl/lvgl/src/widgets/lv_roller.c ****     roller->mode = LV_ROLLER_MODE_NORMAL;
 300:Drivers/lvgl/lvgl/src/widgets/lv_roller.c ****     roller->option_cnt = 0;
 301:Drivers/lvgl/lvgl/src/widgets/lv_roller.c ****     roller->sel_opt_id = 0;
 302:Drivers/lvgl/lvgl/src/widgets/lv_roller.c ****     roller->sel_opt_id_ori = 0;
 303:Drivers/lvgl/lvgl/src/widgets/lv_roller.c **** 
 304:Drivers/lvgl/lvgl/src/widgets/lv_roller.c ****     lv_obj_clear_flag(obj, LV_OBJ_FLAG_SCROLLABLE);
 305:Drivers/lvgl/lvgl/src/widgets/lv_roller.c ****     lv_obj_clear_flag(obj, LV_OBJ_FLAG_SCROLL_CHAIN_VER);
 306:Drivers/lvgl/lvgl/src/widgets/lv_roller.c **** 
 307:Drivers/lvgl/lvgl/src/widgets/lv_roller.c ****     LV_LOG_INFO("begin");
 308:Drivers/lvgl/lvgl/src/widgets/lv_roller.c ****     lv_obj_t * label = lv_obj_class_create_obj(&lv_roller_label_class, obj);
 309:Drivers/lvgl/lvgl/src/widgets/lv_roller.c ****     lv_obj_class_init_obj(label);
 310:Drivers/lvgl/lvgl/src/widgets/lv_roller.c ****     lv_roller_set_options(obj, "Option 1\nOption 2\nOption 3\nOption 4\nOption 5", LV_ROLLER_MODE_N
 311:Drivers/lvgl/lvgl/src/widgets/lv_roller.c **** 
 312:Drivers/lvgl/lvgl/src/widgets/lv_roller.c ****     LV_LOG_TRACE("finshed");
 313:Drivers/lvgl/lvgl/src/widgets/lv_roller.c **** }
 314:Drivers/lvgl/lvgl/src/widgets/lv_roller.c **** 
 315:Drivers/lvgl/lvgl/src/widgets/lv_roller.c **** static void lv_roller_event(const lv_obj_class_t * class_p, lv_event_t * e)
 316:Drivers/lvgl/lvgl/src/widgets/lv_roller.c **** {
 317:Drivers/lvgl/lvgl/src/widgets/lv_roller.c ****     LV_UNUSED(class_p);
 318:Drivers/lvgl/lvgl/src/widgets/lv_roller.c **** 
ARM GAS  /tmp/cchzjiif.s 			page 7


 319:Drivers/lvgl/lvgl/src/widgets/lv_roller.c ****     lv_res_t res;
 320:Drivers/lvgl/lvgl/src/widgets/lv_roller.c **** 
 321:Drivers/lvgl/lvgl/src/widgets/lv_roller.c ****     /*Call the ancestor's event handler*/
 322:Drivers/lvgl/lvgl/src/widgets/lv_roller.c ****     res = lv_obj_event_base(MY_CLASS, e);
 323:Drivers/lvgl/lvgl/src/widgets/lv_roller.c ****     if(res != LV_RES_OK) return;
 324:Drivers/lvgl/lvgl/src/widgets/lv_roller.c **** 
 325:Drivers/lvgl/lvgl/src/widgets/lv_roller.c ****     lv_event_code_t code = lv_event_get_code(e);
 326:Drivers/lvgl/lvgl/src/widgets/lv_roller.c ****     lv_obj_t * obj = lv_event_get_target(e);
 327:Drivers/lvgl/lvgl/src/widgets/lv_roller.c ****     lv_roller_t * roller = (lv_roller_t *)obj;
 328:Drivers/lvgl/lvgl/src/widgets/lv_roller.c **** 
 329:Drivers/lvgl/lvgl/src/widgets/lv_roller.c ****     if(code == LV_EVENT_GET_SELF_SIZE) {
 330:Drivers/lvgl/lvgl/src/widgets/lv_roller.c ****         lv_point_t * p = lv_event_get_param(e);
 331:Drivers/lvgl/lvgl/src/widgets/lv_roller.c ****         p->x = get_selected_label_width(obj);
 332:Drivers/lvgl/lvgl/src/widgets/lv_roller.c ****     }
 333:Drivers/lvgl/lvgl/src/widgets/lv_roller.c ****     else if(code == LV_EVENT_STYLE_CHANGED) {
 334:Drivers/lvgl/lvgl/src/widgets/lv_roller.c ****         lv_obj_t * label = get_label(obj);
 335:Drivers/lvgl/lvgl/src/widgets/lv_roller.c ****         /*Be sure the label's style is updated before processing the roller*/
 336:Drivers/lvgl/lvgl/src/widgets/lv_roller.c ****         if(label) lv_event_send(label, LV_EVENT_STYLE_CHANGED, NULL);
 337:Drivers/lvgl/lvgl/src/widgets/lv_roller.c ****         lv_obj_refresh_self_size(obj);
 338:Drivers/lvgl/lvgl/src/widgets/lv_roller.c ****         refr_position(obj, LV_ANIM_OFF);
 339:Drivers/lvgl/lvgl/src/widgets/lv_roller.c ****     }
 340:Drivers/lvgl/lvgl/src/widgets/lv_roller.c ****     else if(code == LV_EVENT_SIZE_CHANGED) {
 341:Drivers/lvgl/lvgl/src/widgets/lv_roller.c ****         refr_position(obj, LV_ANIM_OFF);
 342:Drivers/lvgl/lvgl/src/widgets/lv_roller.c ****     }
 343:Drivers/lvgl/lvgl/src/widgets/lv_roller.c ****     else if(code == LV_EVENT_PRESSED) {
 344:Drivers/lvgl/lvgl/src/widgets/lv_roller.c ****         roller->moved = 0;
 345:Drivers/lvgl/lvgl/src/widgets/lv_roller.c ****         lv_anim_del(get_label(obj), set_y_anim);
 346:Drivers/lvgl/lvgl/src/widgets/lv_roller.c ****     }
 347:Drivers/lvgl/lvgl/src/widgets/lv_roller.c ****     else if(code == LV_EVENT_PRESSING) {
 348:Drivers/lvgl/lvgl/src/widgets/lv_roller.c ****         lv_indev_t * indev = lv_indev_get_act();
 349:Drivers/lvgl/lvgl/src/widgets/lv_roller.c ****         lv_point_t p;
 350:Drivers/lvgl/lvgl/src/widgets/lv_roller.c ****         lv_indev_get_vect(indev, &p);
 351:Drivers/lvgl/lvgl/src/widgets/lv_roller.c ****         if(p.y) {
 352:Drivers/lvgl/lvgl/src/widgets/lv_roller.c ****             lv_obj_t * label = get_label(obj);
 353:Drivers/lvgl/lvgl/src/widgets/lv_roller.c ****             lv_obj_set_y(label, lv_obj_get_y(label) + p.y);
 354:Drivers/lvgl/lvgl/src/widgets/lv_roller.c ****             roller->moved = 1;
 355:Drivers/lvgl/lvgl/src/widgets/lv_roller.c ****         }
 356:Drivers/lvgl/lvgl/src/widgets/lv_roller.c ****     }
 357:Drivers/lvgl/lvgl/src/widgets/lv_roller.c ****     else if(code == LV_EVENT_RELEASED || code == LV_EVENT_PRESS_LOST) {
 358:Drivers/lvgl/lvgl/src/widgets/lv_roller.c ****         release_handler(obj);
 359:Drivers/lvgl/lvgl/src/widgets/lv_roller.c ****     }
 360:Drivers/lvgl/lvgl/src/widgets/lv_roller.c ****     else if(code == LV_EVENT_FOCUSED) {
 361:Drivers/lvgl/lvgl/src/widgets/lv_roller.c ****         lv_group_t * g             = lv_obj_get_group(obj);
 362:Drivers/lvgl/lvgl/src/widgets/lv_roller.c ****         bool editing               = lv_group_get_editing(g);
 363:Drivers/lvgl/lvgl/src/widgets/lv_roller.c ****         lv_indev_type_t indev_type = lv_indev_get_type(lv_indev_get_act());
 364:Drivers/lvgl/lvgl/src/widgets/lv_roller.c **** 
 365:Drivers/lvgl/lvgl/src/widgets/lv_roller.c ****         /*Encoders need special handling*/
 366:Drivers/lvgl/lvgl/src/widgets/lv_roller.c ****         if(indev_type == LV_INDEV_TYPE_ENCODER) {
 367:Drivers/lvgl/lvgl/src/widgets/lv_roller.c ****             /*In navigate mode revert the original value*/
 368:Drivers/lvgl/lvgl/src/widgets/lv_roller.c ****             if(!editing) {
 369:Drivers/lvgl/lvgl/src/widgets/lv_roller.c ****                 if(roller->sel_opt_id != roller->sel_opt_id_ori) {
 370:Drivers/lvgl/lvgl/src/widgets/lv_roller.c ****                     roller->sel_opt_id = roller->sel_opt_id_ori;
 371:Drivers/lvgl/lvgl/src/widgets/lv_roller.c ****                     refr_position(obj, LV_ANIM_ON);
 372:Drivers/lvgl/lvgl/src/widgets/lv_roller.c ****                 }
 373:Drivers/lvgl/lvgl/src/widgets/lv_roller.c ****             }
 374:Drivers/lvgl/lvgl/src/widgets/lv_roller.c ****             /*Save the current state when entered to edit mode*/
 375:Drivers/lvgl/lvgl/src/widgets/lv_roller.c ****             else {
ARM GAS  /tmp/cchzjiif.s 			page 8


 376:Drivers/lvgl/lvgl/src/widgets/lv_roller.c ****                 roller->sel_opt_id_ori = roller->sel_opt_id;
 377:Drivers/lvgl/lvgl/src/widgets/lv_roller.c ****             }
 378:Drivers/lvgl/lvgl/src/widgets/lv_roller.c ****         }
 379:Drivers/lvgl/lvgl/src/widgets/lv_roller.c ****         else {
 380:Drivers/lvgl/lvgl/src/widgets/lv_roller.c ****             roller->sel_opt_id_ori = roller->sel_opt_id; /*Save the current value. Used to revert t
 381:Drivers/lvgl/lvgl/src/widgets/lv_roller.c ****                                                                     ENTER won't be pressed*/
 382:Drivers/lvgl/lvgl/src/widgets/lv_roller.c ****         }
 383:Drivers/lvgl/lvgl/src/widgets/lv_roller.c ****     }
 384:Drivers/lvgl/lvgl/src/widgets/lv_roller.c ****     else if(code == LV_EVENT_DEFOCUSED) {
 385:Drivers/lvgl/lvgl/src/widgets/lv_roller.c ****         /*Revert the original state*/
 386:Drivers/lvgl/lvgl/src/widgets/lv_roller.c ****         if(roller->sel_opt_id != roller->sel_opt_id_ori) {
 387:Drivers/lvgl/lvgl/src/widgets/lv_roller.c ****             roller->sel_opt_id = roller->sel_opt_id_ori;
 388:Drivers/lvgl/lvgl/src/widgets/lv_roller.c ****             refr_position(obj, LV_ANIM_ON);
 389:Drivers/lvgl/lvgl/src/widgets/lv_roller.c ****         }
 390:Drivers/lvgl/lvgl/src/widgets/lv_roller.c ****     }
 391:Drivers/lvgl/lvgl/src/widgets/lv_roller.c ****     else if(code == LV_EVENT_KEY) {
 392:Drivers/lvgl/lvgl/src/widgets/lv_roller.c ****         char c = *((char *)lv_event_get_param(e));
 393:Drivers/lvgl/lvgl/src/widgets/lv_roller.c ****         if(c == LV_KEY_RIGHT || c == LV_KEY_DOWN) {
 394:Drivers/lvgl/lvgl/src/widgets/lv_roller.c ****             if(roller->sel_opt_id + 1 < roller->option_cnt) {
 395:Drivers/lvgl/lvgl/src/widgets/lv_roller.c ****                 uint16_t ori_id = roller->sel_opt_id_ori; /*lv_roller_set_selected will overwrite t
 396:Drivers/lvgl/lvgl/src/widgets/lv_roller.c ****                 lv_roller_set_selected(obj, roller->sel_opt_id + 1, LV_ANIM_ON);
 397:Drivers/lvgl/lvgl/src/widgets/lv_roller.c ****                 roller->sel_opt_id_ori = ori_id;
 398:Drivers/lvgl/lvgl/src/widgets/lv_roller.c ****             }
 399:Drivers/lvgl/lvgl/src/widgets/lv_roller.c ****         }
 400:Drivers/lvgl/lvgl/src/widgets/lv_roller.c ****         else if(c == LV_KEY_LEFT || c == LV_KEY_UP) {
 401:Drivers/lvgl/lvgl/src/widgets/lv_roller.c ****             if(roller->sel_opt_id > 0) {
 402:Drivers/lvgl/lvgl/src/widgets/lv_roller.c ****                 uint16_t ori_id = roller->sel_opt_id_ori; /*lv_roller_set_selected will overwrite t
 403:Drivers/lvgl/lvgl/src/widgets/lv_roller.c **** 
 404:Drivers/lvgl/lvgl/src/widgets/lv_roller.c ****                 lv_roller_set_selected(obj, roller->sel_opt_id - 1, LV_ANIM_ON);
 405:Drivers/lvgl/lvgl/src/widgets/lv_roller.c ****                 roller->sel_opt_id_ori = ori_id;
 406:Drivers/lvgl/lvgl/src/widgets/lv_roller.c ****             }
 407:Drivers/lvgl/lvgl/src/widgets/lv_roller.c ****         }
 408:Drivers/lvgl/lvgl/src/widgets/lv_roller.c ****     }
 409:Drivers/lvgl/lvgl/src/widgets/lv_roller.c ****     else if(code == LV_EVENT_REFR_EXT_DRAW_SIZE) {
 410:Drivers/lvgl/lvgl/src/widgets/lv_roller.c ****         lv_obj_t * label = get_label(obj);
 411:Drivers/lvgl/lvgl/src/widgets/lv_roller.c ****         lv_obj_refresh_ext_draw_size(label);
 412:Drivers/lvgl/lvgl/src/widgets/lv_roller.c ****     }
 413:Drivers/lvgl/lvgl/src/widgets/lv_roller.c ****     else if(code == LV_EVENT_DRAW_MAIN || code == LV_EVENT_DRAW_POST) {
 414:Drivers/lvgl/lvgl/src/widgets/lv_roller.c ****         draw_main(e);
 415:Drivers/lvgl/lvgl/src/widgets/lv_roller.c ****     }
 416:Drivers/lvgl/lvgl/src/widgets/lv_roller.c **** }
 417:Drivers/lvgl/lvgl/src/widgets/lv_roller.c **** 
 418:Drivers/lvgl/lvgl/src/widgets/lv_roller.c **** static void lv_roller_label_event(const lv_obj_class_t * class_p, lv_event_t * e)
 419:Drivers/lvgl/lvgl/src/widgets/lv_roller.c **** {
 420:Drivers/lvgl/lvgl/src/widgets/lv_roller.c ****     LV_UNUSED(class_p);
 421:Drivers/lvgl/lvgl/src/widgets/lv_roller.c **** 
 422:Drivers/lvgl/lvgl/src/widgets/lv_roller.c ****     lv_res_t res;
 423:Drivers/lvgl/lvgl/src/widgets/lv_roller.c **** 
 424:Drivers/lvgl/lvgl/src/widgets/lv_roller.c ****     lv_event_code_t code = lv_event_get_code(e);
 425:Drivers/lvgl/lvgl/src/widgets/lv_roller.c ****     /*LV_EVENT_DRAW_MAIN will be called in the draw function*/
 426:Drivers/lvgl/lvgl/src/widgets/lv_roller.c ****     if(code != LV_EVENT_DRAW_MAIN) {
 427:Drivers/lvgl/lvgl/src/widgets/lv_roller.c ****         /* Call the ancestor's event handler */
 428:Drivers/lvgl/lvgl/src/widgets/lv_roller.c ****         res = lv_obj_event_base(MY_CLASS_LABEL, e);
 429:Drivers/lvgl/lvgl/src/widgets/lv_roller.c ****         if(res != LV_RES_OK) return;
 430:Drivers/lvgl/lvgl/src/widgets/lv_roller.c ****     }
 431:Drivers/lvgl/lvgl/src/widgets/lv_roller.c **** 
 432:Drivers/lvgl/lvgl/src/widgets/lv_roller.c ****     lv_obj_t * label = lv_event_get_target(e);
ARM GAS  /tmp/cchzjiif.s 			page 9


 433:Drivers/lvgl/lvgl/src/widgets/lv_roller.c ****     if(code == LV_EVENT_REFR_EXT_DRAW_SIZE) {
 434:Drivers/lvgl/lvgl/src/widgets/lv_roller.c ****         /*If the selected text has a larger font it needs some extra space to draw it*/
 435:Drivers/lvgl/lvgl/src/widgets/lv_roller.c ****         lv_coord_t * s = lv_event_get_param(e);
 436:Drivers/lvgl/lvgl/src/widgets/lv_roller.c ****         lv_obj_t * obj = lv_obj_get_parent(label);
 437:Drivers/lvgl/lvgl/src/widgets/lv_roller.c ****         lv_coord_t sel_w = get_selected_label_width(obj);
 438:Drivers/lvgl/lvgl/src/widgets/lv_roller.c ****         lv_coord_t label_w = lv_obj_get_width(label);
 439:Drivers/lvgl/lvgl/src/widgets/lv_roller.c ****         *s = LV_MAX(*s, sel_w - label_w);
 440:Drivers/lvgl/lvgl/src/widgets/lv_roller.c ****     }
 441:Drivers/lvgl/lvgl/src/widgets/lv_roller.c ****     else if(code == LV_EVENT_SIZE_CHANGED) {
 442:Drivers/lvgl/lvgl/src/widgets/lv_roller.c ****         refr_position(lv_obj_get_parent(label), LV_ANIM_OFF);
 443:Drivers/lvgl/lvgl/src/widgets/lv_roller.c ****     }
 444:Drivers/lvgl/lvgl/src/widgets/lv_roller.c ****     else if(code == LV_EVENT_DRAW_MAIN) {
 445:Drivers/lvgl/lvgl/src/widgets/lv_roller.c ****         draw_label(e);
 446:Drivers/lvgl/lvgl/src/widgets/lv_roller.c ****     }
 447:Drivers/lvgl/lvgl/src/widgets/lv_roller.c **** }
 448:Drivers/lvgl/lvgl/src/widgets/lv_roller.c **** 
 449:Drivers/lvgl/lvgl/src/widgets/lv_roller.c **** 
 450:Drivers/lvgl/lvgl/src/widgets/lv_roller.c **** static void draw_main(lv_event_t * e)
 451:Drivers/lvgl/lvgl/src/widgets/lv_roller.c **** {
 452:Drivers/lvgl/lvgl/src/widgets/lv_roller.c ****     lv_event_code_t code = lv_event_get_code(e);
 453:Drivers/lvgl/lvgl/src/widgets/lv_roller.c ****     lv_obj_t * obj = lv_event_get_target(e);
 454:Drivers/lvgl/lvgl/src/widgets/lv_roller.c ****     if(code == LV_EVENT_DRAW_MAIN) {
 455:Drivers/lvgl/lvgl/src/widgets/lv_roller.c ****         /*Draw the selected rectangle*/
 456:Drivers/lvgl/lvgl/src/widgets/lv_roller.c ****         lv_draw_ctx_t * draw_ctx = lv_event_get_draw_ctx(e);
 457:Drivers/lvgl/lvgl/src/widgets/lv_roller.c ****         lv_area_t sel_area;
 458:Drivers/lvgl/lvgl/src/widgets/lv_roller.c ****         get_sel_area(obj, &sel_area);
 459:Drivers/lvgl/lvgl/src/widgets/lv_roller.c ****         lv_draw_rect_dsc_t sel_dsc;
 460:Drivers/lvgl/lvgl/src/widgets/lv_roller.c ****         lv_draw_rect_dsc_init(&sel_dsc);
 461:Drivers/lvgl/lvgl/src/widgets/lv_roller.c ****         lv_obj_init_draw_rect_dsc(obj, LV_PART_SELECTED, &sel_dsc);
 462:Drivers/lvgl/lvgl/src/widgets/lv_roller.c ****         lv_draw_rect(draw_ctx, &sel_dsc, &sel_area);
 463:Drivers/lvgl/lvgl/src/widgets/lv_roller.c ****     }
 464:Drivers/lvgl/lvgl/src/widgets/lv_roller.c ****     /*Post draw when the children are drawn*/
 465:Drivers/lvgl/lvgl/src/widgets/lv_roller.c ****     else if(code == LV_EVENT_DRAW_POST) {
 466:Drivers/lvgl/lvgl/src/widgets/lv_roller.c ****         lv_draw_ctx_t * draw_ctx = lv_event_get_draw_ctx(e);
 467:Drivers/lvgl/lvgl/src/widgets/lv_roller.c **** 
 468:Drivers/lvgl/lvgl/src/widgets/lv_roller.c ****         lv_draw_label_dsc_t label_dsc;
 469:Drivers/lvgl/lvgl/src/widgets/lv_roller.c ****         lv_draw_label_dsc_init(&label_dsc);
 470:Drivers/lvgl/lvgl/src/widgets/lv_roller.c ****         lv_obj_init_draw_label_dsc(obj, LV_PART_SELECTED, &label_dsc);
 471:Drivers/lvgl/lvgl/src/widgets/lv_roller.c **** 
 472:Drivers/lvgl/lvgl/src/widgets/lv_roller.c ****         /*Redraw the text on the selected area*/
 473:Drivers/lvgl/lvgl/src/widgets/lv_roller.c ****         lv_area_t sel_area;
 474:Drivers/lvgl/lvgl/src/widgets/lv_roller.c ****         get_sel_area(obj, &sel_area);
 475:Drivers/lvgl/lvgl/src/widgets/lv_roller.c ****         lv_area_t mask_sel;
 476:Drivers/lvgl/lvgl/src/widgets/lv_roller.c ****         bool area_ok;
 477:Drivers/lvgl/lvgl/src/widgets/lv_roller.c ****         area_ok = _lv_area_intersect(&mask_sel, draw_ctx->clip_area, &sel_area);
 478:Drivers/lvgl/lvgl/src/widgets/lv_roller.c ****         if(area_ok) {
 479:Drivers/lvgl/lvgl/src/widgets/lv_roller.c ****             lv_obj_t * label = get_label(obj);
 480:Drivers/lvgl/lvgl/src/widgets/lv_roller.c ****             if(lv_label_get_recolor(label)) label_dsc.flag |= LV_TEXT_FLAG_RECOLOR;
 481:Drivers/lvgl/lvgl/src/widgets/lv_roller.c **** 
 482:Drivers/lvgl/lvgl/src/widgets/lv_roller.c ****             /*Get the size of the "selected text"*/
 483:Drivers/lvgl/lvgl/src/widgets/lv_roller.c ****             lv_point_t res_p;
 484:Drivers/lvgl/lvgl/src/widgets/lv_roller.c ****             lv_txt_get_size(&res_p, lv_label_get_text(label), label_dsc.font, label_dsc.letter_spac
 485:Drivers/lvgl/lvgl/src/widgets/lv_roller.c ****                             lv_obj_get_width(obj), LV_TEXT_FLAG_EXPAND);
 486:Drivers/lvgl/lvgl/src/widgets/lv_roller.c **** 
 487:Drivers/lvgl/lvgl/src/widgets/lv_roller.c ****             /*Move the selected label proportionally with the background label*/
 488:Drivers/lvgl/lvgl/src/widgets/lv_roller.c ****             lv_coord_t roller_h = lv_obj_get_height(obj);
 489:Drivers/lvgl/lvgl/src/widgets/lv_roller.c ****             int32_t label_y_prop = label->coords.y1 - (roller_h / 2 +
ARM GAS  /tmp/cchzjiif.s 			page 10


 490:Drivers/lvgl/lvgl/src/widgets/lv_roller.c ****                                                        obj->coords.y1); /*label offset from the mid
 491:Drivers/lvgl/lvgl/src/widgets/lv_roller.c ****             label_y_prop = (label_y_prop * 16384) / lv_obj_get_height(
 492:Drivers/lvgl/lvgl/src/widgets/lv_roller.c ****                                label); /*Proportional position from the middle line (upscaled by <<
 493:Drivers/lvgl/lvgl/src/widgets/lv_roller.c **** 
 494:Drivers/lvgl/lvgl/src/widgets/lv_roller.c ****             /*Apply a correction with different line heights*/
 495:Drivers/lvgl/lvgl/src/widgets/lv_roller.c ****             const lv_font_t * normal_label_font = lv_obj_get_style_text_font(obj, LV_PART_MAIN);
 496:Drivers/lvgl/lvgl/src/widgets/lv_roller.c ****             lv_coord_t corr = (label_dsc.font->line_height - normal_label_font->line_height) / 2;
 497:Drivers/lvgl/lvgl/src/widgets/lv_roller.c **** 
 498:Drivers/lvgl/lvgl/src/widgets/lv_roller.c ****             /*Apply the proportional position to the selected text*/
 499:Drivers/lvgl/lvgl/src/widgets/lv_roller.c ****             res_p.y -= corr;
 500:Drivers/lvgl/lvgl/src/widgets/lv_roller.c ****             int32_t label_sel_y = roller_h / 2 + obj->coords.y1;
 501:Drivers/lvgl/lvgl/src/widgets/lv_roller.c ****             label_sel_y += (label_y_prop * res_p.y) >> 14;
 502:Drivers/lvgl/lvgl/src/widgets/lv_roller.c ****             label_sel_y -= corr;
 503:Drivers/lvgl/lvgl/src/widgets/lv_roller.c **** 
 504:Drivers/lvgl/lvgl/src/widgets/lv_roller.c ****             lv_coord_t bwidth = lv_obj_get_style_border_width(obj, LV_PART_MAIN);
 505:Drivers/lvgl/lvgl/src/widgets/lv_roller.c ****             lv_coord_t pleft = lv_obj_get_style_pad_left(obj, LV_PART_MAIN);
 506:Drivers/lvgl/lvgl/src/widgets/lv_roller.c ****             lv_coord_t pright = lv_obj_get_style_pad_right(obj, LV_PART_MAIN);
 507:Drivers/lvgl/lvgl/src/widgets/lv_roller.c **** 
 508:Drivers/lvgl/lvgl/src/widgets/lv_roller.c ****             /*Draw the selected text*/
 509:Drivers/lvgl/lvgl/src/widgets/lv_roller.c ****             lv_area_t label_sel_area;
 510:Drivers/lvgl/lvgl/src/widgets/lv_roller.c ****             label_sel_area.x1 = obj->coords.x1 + pleft + bwidth;
 511:Drivers/lvgl/lvgl/src/widgets/lv_roller.c ****             label_sel_area.y1 = label_sel_y;
 512:Drivers/lvgl/lvgl/src/widgets/lv_roller.c ****             label_sel_area.x2 = obj->coords.x2 - pright - bwidth;
 513:Drivers/lvgl/lvgl/src/widgets/lv_roller.c ****             label_sel_area.y2 = label_sel_area.y1 + res_p.y;
 514:Drivers/lvgl/lvgl/src/widgets/lv_roller.c **** 
 515:Drivers/lvgl/lvgl/src/widgets/lv_roller.c ****             label_dsc.flag |= LV_TEXT_FLAG_EXPAND;
 516:Drivers/lvgl/lvgl/src/widgets/lv_roller.c ****             const lv_area_t * clip_area_ori = draw_ctx->clip_area;
 517:Drivers/lvgl/lvgl/src/widgets/lv_roller.c ****             draw_ctx->clip_area = &mask_sel;
 518:Drivers/lvgl/lvgl/src/widgets/lv_roller.c ****             lv_draw_label(draw_ctx, &label_dsc, &label_sel_area, lv_label_get_text(label), NULL);
 519:Drivers/lvgl/lvgl/src/widgets/lv_roller.c ****             draw_ctx->clip_area = clip_area_ori;
 520:Drivers/lvgl/lvgl/src/widgets/lv_roller.c ****         }
 521:Drivers/lvgl/lvgl/src/widgets/lv_roller.c ****     }
 522:Drivers/lvgl/lvgl/src/widgets/lv_roller.c **** }
 523:Drivers/lvgl/lvgl/src/widgets/lv_roller.c **** 
 524:Drivers/lvgl/lvgl/src/widgets/lv_roller.c **** static void draw_label(lv_event_t * e)
 525:Drivers/lvgl/lvgl/src/widgets/lv_roller.c **** {
 526:Drivers/lvgl/lvgl/src/widgets/lv_roller.c ****     /* Split the drawing of the label into  an upper (above the selected area)
 527:Drivers/lvgl/lvgl/src/widgets/lv_roller.c ****      * and a lower (below the selected area)*/
 528:Drivers/lvgl/lvgl/src/widgets/lv_roller.c ****     lv_obj_t * label_obj = lv_event_get_target(e);
 529:Drivers/lvgl/lvgl/src/widgets/lv_roller.c ****     lv_obj_t * roller = lv_obj_get_parent(label_obj);
 530:Drivers/lvgl/lvgl/src/widgets/lv_roller.c ****     lv_draw_label_dsc_t label_draw_dsc;
 531:Drivers/lvgl/lvgl/src/widgets/lv_roller.c ****     lv_draw_label_dsc_init(&label_draw_dsc);
 532:Drivers/lvgl/lvgl/src/widgets/lv_roller.c ****     lv_obj_init_draw_label_dsc(roller, LV_PART_MAIN, &label_draw_dsc);
 533:Drivers/lvgl/lvgl/src/widgets/lv_roller.c ****     if(lv_label_get_recolor(label_obj)) label_draw_dsc.flag |= LV_TEXT_FLAG_RECOLOR;
 534:Drivers/lvgl/lvgl/src/widgets/lv_roller.c **** 
 535:Drivers/lvgl/lvgl/src/widgets/lv_roller.c ****     lv_draw_ctx_t * draw_ctx = lv_event_get_draw_ctx(e);
 536:Drivers/lvgl/lvgl/src/widgets/lv_roller.c **** 
 537:Drivers/lvgl/lvgl/src/widgets/lv_roller.c ****     /*If the roller has shadow or outline it has some ext. draw size
 538:Drivers/lvgl/lvgl/src/widgets/lv_roller.c ****      *therefore the label can overflow the roller's boundaries.
 539:Drivers/lvgl/lvgl/src/widgets/lv_roller.c ****      *To solve this limit the clip area to the "plain" roller.*/
 540:Drivers/lvgl/lvgl/src/widgets/lv_roller.c ****     const lv_area_t * clip_area_ori = draw_ctx->clip_area;
 541:Drivers/lvgl/lvgl/src/widgets/lv_roller.c ****     lv_area_t roller_clip_area;
 542:Drivers/lvgl/lvgl/src/widgets/lv_roller.c ****     if(!_lv_area_intersect(&roller_clip_area, draw_ctx->clip_area, &roller->coords)) return;
 543:Drivers/lvgl/lvgl/src/widgets/lv_roller.c ****     draw_ctx->clip_area = &roller_clip_area;
 544:Drivers/lvgl/lvgl/src/widgets/lv_roller.c **** 
 545:Drivers/lvgl/lvgl/src/widgets/lv_roller.c ****     lv_area_t sel_area;
 546:Drivers/lvgl/lvgl/src/widgets/lv_roller.c ****     get_sel_area(roller, &sel_area);
ARM GAS  /tmp/cchzjiif.s 			page 11


 547:Drivers/lvgl/lvgl/src/widgets/lv_roller.c **** 
 548:Drivers/lvgl/lvgl/src/widgets/lv_roller.c ****     lv_area_t clip2;
 549:Drivers/lvgl/lvgl/src/widgets/lv_roller.c ****     clip2.x1 = label_obj->coords.x1;
 550:Drivers/lvgl/lvgl/src/widgets/lv_roller.c ****     clip2.y1 = label_obj->coords.y1;
 551:Drivers/lvgl/lvgl/src/widgets/lv_roller.c ****     clip2.x2 = label_obj->coords.x2;
 552:Drivers/lvgl/lvgl/src/widgets/lv_roller.c ****     clip2.y2 = sel_area.y1;
 553:Drivers/lvgl/lvgl/src/widgets/lv_roller.c ****     if(_lv_area_intersect(&clip2, draw_ctx->clip_area, &clip2)) {
 554:Drivers/lvgl/lvgl/src/widgets/lv_roller.c ****         const lv_area_t * clip_area_ori2 = draw_ctx->clip_area;
 555:Drivers/lvgl/lvgl/src/widgets/lv_roller.c ****         draw_ctx->clip_area = &clip2;
 556:Drivers/lvgl/lvgl/src/widgets/lv_roller.c ****         lv_draw_label(draw_ctx, &label_draw_dsc, &label_obj->coords, lv_label_get_text(label_obj), 
 557:Drivers/lvgl/lvgl/src/widgets/lv_roller.c ****         draw_ctx->clip_area = clip_area_ori2;
 558:Drivers/lvgl/lvgl/src/widgets/lv_roller.c ****     }
 559:Drivers/lvgl/lvgl/src/widgets/lv_roller.c **** 
 560:Drivers/lvgl/lvgl/src/widgets/lv_roller.c ****     clip2.x1 = label_obj->coords.x1;
 561:Drivers/lvgl/lvgl/src/widgets/lv_roller.c ****     clip2.y1 = sel_area.y2;
 562:Drivers/lvgl/lvgl/src/widgets/lv_roller.c ****     clip2.x2 = label_obj->coords.x2;
 563:Drivers/lvgl/lvgl/src/widgets/lv_roller.c ****     clip2.y2 = label_obj->coords.y2;
 564:Drivers/lvgl/lvgl/src/widgets/lv_roller.c ****     if(_lv_area_intersect(&clip2, draw_ctx->clip_area, &clip2)) {
 565:Drivers/lvgl/lvgl/src/widgets/lv_roller.c ****         const lv_area_t * clip_area_ori2 = draw_ctx->clip_area;
 566:Drivers/lvgl/lvgl/src/widgets/lv_roller.c ****         draw_ctx->clip_area = &clip2;
 567:Drivers/lvgl/lvgl/src/widgets/lv_roller.c ****         lv_draw_label(draw_ctx, &label_draw_dsc, &label_obj->coords, lv_label_get_text(label_obj), 
 568:Drivers/lvgl/lvgl/src/widgets/lv_roller.c ****         draw_ctx->clip_area = clip_area_ori2;
 569:Drivers/lvgl/lvgl/src/widgets/lv_roller.c ****     }
 570:Drivers/lvgl/lvgl/src/widgets/lv_roller.c **** 
 571:Drivers/lvgl/lvgl/src/widgets/lv_roller.c ****     draw_ctx->clip_area = clip_area_ori;
 572:Drivers/lvgl/lvgl/src/widgets/lv_roller.c **** }
 573:Drivers/lvgl/lvgl/src/widgets/lv_roller.c **** 
 574:Drivers/lvgl/lvgl/src/widgets/lv_roller.c **** static void get_sel_area(lv_obj_t * obj, lv_area_t * sel_area)
 575:Drivers/lvgl/lvgl/src/widgets/lv_roller.c **** {
 576:Drivers/lvgl/lvgl/src/widgets/lv_roller.c **** 
 577:Drivers/lvgl/lvgl/src/widgets/lv_roller.c ****     const lv_font_t * font_main = lv_obj_get_style_text_font(obj, LV_PART_MAIN);
 578:Drivers/lvgl/lvgl/src/widgets/lv_roller.c ****     const lv_font_t * font_sel = lv_obj_get_style_text_font(obj, LV_PART_SELECTED);
 579:Drivers/lvgl/lvgl/src/widgets/lv_roller.c ****     lv_coord_t font_main_h        = lv_font_get_line_height(font_main);
 580:Drivers/lvgl/lvgl/src/widgets/lv_roller.c ****     lv_coord_t font_sel_h        = lv_font_get_line_height(font_sel);
 581:Drivers/lvgl/lvgl/src/widgets/lv_roller.c ****     lv_coord_t line_space = lv_obj_get_style_text_line_space(obj, LV_PART_MAIN);
 582:Drivers/lvgl/lvgl/src/widgets/lv_roller.c ****     lv_coord_t d = (font_sel_h + font_main_h) / 2 + line_space;
 583:Drivers/lvgl/lvgl/src/widgets/lv_roller.c ****     sel_area->y1 = obj->coords.y1 + lv_obj_get_height(obj) / 2 - d / 2;
 584:Drivers/lvgl/lvgl/src/widgets/lv_roller.c ****     sel_area->y2 = sel_area->y1 + d;
 585:Drivers/lvgl/lvgl/src/widgets/lv_roller.c ****     lv_area_t roller_coords;
 586:Drivers/lvgl/lvgl/src/widgets/lv_roller.c ****     lv_obj_get_coords(obj, &roller_coords);
 587:Drivers/lvgl/lvgl/src/widgets/lv_roller.c **** 
 588:Drivers/lvgl/lvgl/src/widgets/lv_roller.c ****     sel_area->x1 = roller_coords.x1;
 589:Drivers/lvgl/lvgl/src/widgets/lv_roller.c ****     sel_area->x2 = roller_coords.x2;
 590:Drivers/lvgl/lvgl/src/widgets/lv_roller.c **** 
 591:Drivers/lvgl/lvgl/src/widgets/lv_roller.c **** }
 592:Drivers/lvgl/lvgl/src/widgets/lv_roller.c **** 
 593:Drivers/lvgl/lvgl/src/widgets/lv_roller.c **** /**
 594:Drivers/lvgl/lvgl/src/widgets/lv_roller.c ****  * Refresh the position of the roller. It uses the id stored in: roller->ddlist.selected_option_id
 595:Drivers/lvgl/lvgl/src/widgets/lv_roller.c ****  * @param roller pointer to a roller object
 596:Drivers/lvgl/lvgl/src/widgets/lv_roller.c ****  * @param anim_en LV_ANIM_ON: refresh with animation; LV_ANOM_OFF: without animation
 597:Drivers/lvgl/lvgl/src/widgets/lv_roller.c ****  */
 598:Drivers/lvgl/lvgl/src/widgets/lv_roller.c **** static void refr_position(lv_obj_t * obj, lv_anim_enable_t anim_en)
 599:Drivers/lvgl/lvgl/src/widgets/lv_roller.c **** {
 600:Drivers/lvgl/lvgl/src/widgets/lv_roller.c ****     lv_obj_t * label = get_label(obj);
 601:Drivers/lvgl/lvgl/src/widgets/lv_roller.c ****     if(label == NULL) return;
 602:Drivers/lvgl/lvgl/src/widgets/lv_roller.c **** 
 603:Drivers/lvgl/lvgl/src/widgets/lv_roller.c ****     lv_text_align_t align = lv_obj_calculate_style_text_align(label, LV_PART_MAIN, lv_label_get_tex
ARM GAS  /tmp/cchzjiif.s 			page 12


 604:Drivers/lvgl/lvgl/src/widgets/lv_roller.c **** 
 605:Drivers/lvgl/lvgl/src/widgets/lv_roller.c ****     switch(align) {
 606:Drivers/lvgl/lvgl/src/widgets/lv_roller.c ****         case LV_TEXT_ALIGN_CENTER:
 607:Drivers/lvgl/lvgl/src/widgets/lv_roller.c ****             lv_obj_set_x(label, (lv_obj_get_content_width(obj) - lv_obj_get_width(label)) / 2);
 608:Drivers/lvgl/lvgl/src/widgets/lv_roller.c ****             break;
 609:Drivers/lvgl/lvgl/src/widgets/lv_roller.c ****         case LV_TEXT_ALIGN_RIGHT:
 610:Drivers/lvgl/lvgl/src/widgets/lv_roller.c ****             lv_obj_set_x(label, lv_obj_get_content_width(obj) - lv_obj_get_width(label));
 611:Drivers/lvgl/lvgl/src/widgets/lv_roller.c ****             break;
 612:Drivers/lvgl/lvgl/src/widgets/lv_roller.c ****         case LV_TEXT_ALIGN_LEFT:
 613:Drivers/lvgl/lvgl/src/widgets/lv_roller.c ****             lv_obj_set_x(label, 0);
 614:Drivers/lvgl/lvgl/src/widgets/lv_roller.c ****             break;
 615:Drivers/lvgl/lvgl/src/widgets/lv_roller.c ****     }
 616:Drivers/lvgl/lvgl/src/widgets/lv_roller.c **** 
 617:Drivers/lvgl/lvgl/src/widgets/lv_roller.c ****     lv_roller_t * roller = (lv_roller_t *)obj;
 618:Drivers/lvgl/lvgl/src/widgets/lv_roller.c ****     const lv_font_t * font = lv_obj_get_style_text_font(obj, LV_PART_MAIN);
 619:Drivers/lvgl/lvgl/src/widgets/lv_roller.c ****     lv_coord_t line_space = lv_obj_get_style_text_line_space(obj, LV_PART_MAIN);
 620:Drivers/lvgl/lvgl/src/widgets/lv_roller.c ****     lv_coord_t font_h              = lv_font_get_line_height(font);
 621:Drivers/lvgl/lvgl/src/widgets/lv_roller.c ****     lv_coord_t h                   = lv_obj_get_content_height(obj);
 622:Drivers/lvgl/lvgl/src/widgets/lv_roller.c ****     uint16_t anim_time             = lv_obj_get_style_anim_time(obj, LV_PART_MAIN);
 623:Drivers/lvgl/lvgl/src/widgets/lv_roller.c **** 
 624:Drivers/lvgl/lvgl/src/widgets/lv_roller.c ****     /*Normally the animation's `end_cb` sets correct position of the roller if infinite.
 625:Drivers/lvgl/lvgl/src/widgets/lv_roller.c ****      *But without animations do it manually*/
 626:Drivers/lvgl/lvgl/src/widgets/lv_roller.c ****     if(anim_en == LV_ANIM_OFF || anim_time == 0) {
 627:Drivers/lvgl/lvgl/src/widgets/lv_roller.c ****         inf_normalize(obj);
 628:Drivers/lvgl/lvgl/src/widgets/lv_roller.c ****     }
 629:Drivers/lvgl/lvgl/src/widgets/lv_roller.c **** 
 630:Drivers/lvgl/lvgl/src/widgets/lv_roller.c ****     int32_t id = roller->sel_opt_id;
 631:Drivers/lvgl/lvgl/src/widgets/lv_roller.c ****     lv_coord_t sel_y1 = id * (font_h + line_space);
 632:Drivers/lvgl/lvgl/src/widgets/lv_roller.c ****     lv_coord_t mid_y1 = h / 2 - font_h / 2;
 633:Drivers/lvgl/lvgl/src/widgets/lv_roller.c **** 
 634:Drivers/lvgl/lvgl/src/widgets/lv_roller.c ****     lv_coord_t new_y = mid_y1 - sel_y1;
 635:Drivers/lvgl/lvgl/src/widgets/lv_roller.c **** 
 636:Drivers/lvgl/lvgl/src/widgets/lv_roller.c ****     if(anim_en == LV_ANIM_OFF || anim_time == 0) {
 637:Drivers/lvgl/lvgl/src/widgets/lv_roller.c ****         lv_anim_del(label, set_y_anim);
 638:Drivers/lvgl/lvgl/src/widgets/lv_roller.c ****         lv_obj_set_y(label, new_y);
 639:Drivers/lvgl/lvgl/src/widgets/lv_roller.c ****     }
 640:Drivers/lvgl/lvgl/src/widgets/lv_roller.c ****     else {
 641:Drivers/lvgl/lvgl/src/widgets/lv_roller.c ****         lv_anim_t a;
 642:Drivers/lvgl/lvgl/src/widgets/lv_roller.c ****         lv_anim_init(&a);
 643:Drivers/lvgl/lvgl/src/widgets/lv_roller.c ****         lv_anim_set_var(&a, label);
 644:Drivers/lvgl/lvgl/src/widgets/lv_roller.c ****         lv_anim_set_exec_cb(&a, set_y_anim);
 645:Drivers/lvgl/lvgl/src/widgets/lv_roller.c ****         lv_anim_set_values(&a, lv_obj_get_y(label), new_y);
 646:Drivers/lvgl/lvgl/src/widgets/lv_roller.c ****         lv_anim_set_time(&a, anim_time);
 647:Drivers/lvgl/lvgl/src/widgets/lv_roller.c ****         lv_anim_set_ready_cb(&a, scroll_anim_ready_cb);
 648:Drivers/lvgl/lvgl/src/widgets/lv_roller.c ****         lv_anim_set_path_cb(&a, lv_anim_path_ease_out);
 649:Drivers/lvgl/lvgl/src/widgets/lv_roller.c ****         lv_anim_start(&a);
 650:Drivers/lvgl/lvgl/src/widgets/lv_roller.c ****     }
 651:Drivers/lvgl/lvgl/src/widgets/lv_roller.c **** }
 652:Drivers/lvgl/lvgl/src/widgets/lv_roller.c **** 
 653:Drivers/lvgl/lvgl/src/widgets/lv_roller.c **** static lv_res_t release_handler(lv_obj_t * obj)
 654:Drivers/lvgl/lvgl/src/widgets/lv_roller.c **** {
 655:Drivers/lvgl/lvgl/src/widgets/lv_roller.c ****     lv_obj_t * label = get_label(obj);
 656:Drivers/lvgl/lvgl/src/widgets/lv_roller.c ****     if(label == NULL) return LV_RES_OK;
 657:Drivers/lvgl/lvgl/src/widgets/lv_roller.c **** 
 658:Drivers/lvgl/lvgl/src/widgets/lv_roller.c ****     lv_indev_t * indev = lv_indev_get_act();
 659:Drivers/lvgl/lvgl/src/widgets/lv_roller.c ****     lv_roller_t * roller = (lv_roller_t *)obj;
 660:Drivers/lvgl/lvgl/src/widgets/lv_roller.c **** 
ARM GAS  /tmp/cchzjiif.s 			page 13


 661:Drivers/lvgl/lvgl/src/widgets/lv_roller.c ****     /*Leave edit mode once a new option is selected*/
 662:Drivers/lvgl/lvgl/src/widgets/lv_roller.c ****     lv_indev_type_t indev_type = lv_indev_get_type(indev);
 663:Drivers/lvgl/lvgl/src/widgets/lv_roller.c ****     if(indev_type == LV_INDEV_TYPE_ENCODER || indev_type == LV_INDEV_TYPE_KEYPAD) {
 664:Drivers/lvgl/lvgl/src/widgets/lv_roller.c ****         roller->sel_opt_id_ori = roller->sel_opt_id;
 665:Drivers/lvgl/lvgl/src/widgets/lv_roller.c **** 
 666:Drivers/lvgl/lvgl/src/widgets/lv_roller.c ****         if(indev_type == LV_INDEV_TYPE_ENCODER) {
 667:Drivers/lvgl/lvgl/src/widgets/lv_roller.c ****             lv_group_t * g      = lv_obj_get_group(obj);
 668:Drivers/lvgl/lvgl/src/widgets/lv_roller.c ****             if(lv_group_get_editing(g)) {
 669:Drivers/lvgl/lvgl/src/widgets/lv_roller.c ****                 lv_group_set_editing(g, false);
 670:Drivers/lvgl/lvgl/src/widgets/lv_roller.c ****             }
 671:Drivers/lvgl/lvgl/src/widgets/lv_roller.c ****         }
 672:Drivers/lvgl/lvgl/src/widgets/lv_roller.c ****     }
 673:Drivers/lvgl/lvgl/src/widgets/lv_roller.c **** 
 674:Drivers/lvgl/lvgl/src/widgets/lv_roller.c ****     if(lv_indev_get_type(indev) == LV_INDEV_TYPE_POINTER || lv_indev_get_type(indev) == LV_INDEV_TY
 675:Drivers/lvgl/lvgl/src/widgets/lv_roller.c ****         /*Search the clicked option (For KEYPAD and ENCODER the new value should be already set)*/
 676:Drivers/lvgl/lvgl/src/widgets/lv_roller.c ****         int16_t new_opt  = -1;
 677:Drivers/lvgl/lvgl/src/widgets/lv_roller.c ****         if(roller->moved == 0) {
 678:Drivers/lvgl/lvgl/src/widgets/lv_roller.c ****             new_opt = 0;
 679:Drivers/lvgl/lvgl/src/widgets/lv_roller.c ****             lv_point_t p;
 680:Drivers/lvgl/lvgl/src/widgets/lv_roller.c ****             lv_indev_get_point(indev, &p);
 681:Drivers/lvgl/lvgl/src/widgets/lv_roller.c ****             p.y -= label->coords.y1;
 682:Drivers/lvgl/lvgl/src/widgets/lv_roller.c ****             p.x -= label->coords.x1;
 683:Drivers/lvgl/lvgl/src/widgets/lv_roller.c ****             uint32_t letter_i;
 684:Drivers/lvgl/lvgl/src/widgets/lv_roller.c ****             letter_i = lv_label_get_letter_on(label, &p);
 685:Drivers/lvgl/lvgl/src/widgets/lv_roller.c **** 
 686:Drivers/lvgl/lvgl/src/widgets/lv_roller.c ****             const char * txt  = lv_label_get_text(label);
 687:Drivers/lvgl/lvgl/src/widgets/lv_roller.c ****             uint32_t i        = 0;
 688:Drivers/lvgl/lvgl/src/widgets/lv_roller.c ****             uint32_t i_prev   = 0;
 689:Drivers/lvgl/lvgl/src/widgets/lv_roller.c **** 
 690:Drivers/lvgl/lvgl/src/widgets/lv_roller.c ****             uint32_t letter_cnt = 0;
 691:Drivers/lvgl/lvgl/src/widgets/lv_roller.c ****             for(letter_cnt = 0; letter_cnt < letter_i; letter_cnt++) {
 692:Drivers/lvgl/lvgl/src/widgets/lv_roller.c ****                 uint32_t letter = _lv_txt_encoded_next(txt, &i);
 693:Drivers/lvgl/lvgl/src/widgets/lv_roller.c ****                 /*Count he lines to reach the clicked letter. But ignore the last '\n' because it
 694:Drivers/lvgl/lvgl/src/widgets/lv_roller.c ****                  * still belongs to the clicked line*/
 695:Drivers/lvgl/lvgl/src/widgets/lv_roller.c ****                 if(letter == '\n' && i_prev != letter_i) new_opt++;
 696:Drivers/lvgl/lvgl/src/widgets/lv_roller.c ****                 i_prev = i;
 697:Drivers/lvgl/lvgl/src/widgets/lv_roller.c ****             }
 698:Drivers/lvgl/lvgl/src/widgets/lv_roller.c ****         }
 699:Drivers/lvgl/lvgl/src/widgets/lv_roller.c ****         else {
 700:Drivers/lvgl/lvgl/src/widgets/lv_roller.c ****             /*If dragged then align the list to have an element in the middle*/
 701:Drivers/lvgl/lvgl/src/widgets/lv_roller.c ****             const lv_font_t * font = lv_obj_get_style_text_font(obj, LV_PART_MAIN);
 702:Drivers/lvgl/lvgl/src/widgets/lv_roller.c ****             lv_coord_t line_space = lv_obj_get_style_text_line_space(obj, LV_PART_MAIN);
 703:Drivers/lvgl/lvgl/src/widgets/lv_roller.c ****             lv_coord_t font_h              = lv_font_get_line_height(font);
 704:Drivers/lvgl/lvgl/src/widgets/lv_roller.c **** 
 705:Drivers/lvgl/lvgl/src/widgets/lv_roller.c ****             lv_coord_t label_unit = font_h + line_space;
 706:Drivers/lvgl/lvgl/src/widgets/lv_roller.c ****             lv_coord_t mid        = obj->coords.y1 + (obj->coords.y2 - obj->coords.y1) / 2;
 707:Drivers/lvgl/lvgl/src/widgets/lv_roller.c ****             lv_coord_t label_y1 = label->coords.y1 + lv_indev_scroll_throw_predict(indev, LV_DIR_VE
 708:Drivers/lvgl/lvgl/src/widgets/lv_roller.c ****             int32_t id = (mid - label_y1) / label_unit;
 709:Drivers/lvgl/lvgl/src/widgets/lv_roller.c **** 
 710:Drivers/lvgl/lvgl/src/widgets/lv_roller.c ****             if(id < 0) id = 0;
 711:Drivers/lvgl/lvgl/src/widgets/lv_roller.c ****             if(id >= roller->option_cnt) id = roller->option_cnt - 1;
 712:Drivers/lvgl/lvgl/src/widgets/lv_roller.c **** 
 713:Drivers/lvgl/lvgl/src/widgets/lv_roller.c ****             new_opt = id;
 714:Drivers/lvgl/lvgl/src/widgets/lv_roller.c ****         }
 715:Drivers/lvgl/lvgl/src/widgets/lv_roller.c **** 
 716:Drivers/lvgl/lvgl/src/widgets/lv_roller.c ****         if(new_opt >= 0) {
 717:Drivers/lvgl/lvgl/src/widgets/lv_roller.c ****             lv_roller_set_selected(obj, new_opt, LV_ANIM_ON);
ARM GAS  /tmp/cchzjiif.s 			page 14


 718:Drivers/lvgl/lvgl/src/widgets/lv_roller.c ****         }
 719:Drivers/lvgl/lvgl/src/widgets/lv_roller.c ****     }
 720:Drivers/lvgl/lvgl/src/widgets/lv_roller.c **** 
 721:Drivers/lvgl/lvgl/src/widgets/lv_roller.c ****     uint32_t id  = roller->sel_opt_id; /*Just to use uint32_t in event data*/
 722:Drivers/lvgl/lvgl/src/widgets/lv_roller.c ****     lv_res_t res = lv_event_send(obj, LV_EVENT_VALUE_CHANGED, &id);
 723:Drivers/lvgl/lvgl/src/widgets/lv_roller.c ****     return res;
 724:Drivers/lvgl/lvgl/src/widgets/lv_roller.c **** }
 725:Drivers/lvgl/lvgl/src/widgets/lv_roller.c **** 
 726:Drivers/lvgl/lvgl/src/widgets/lv_roller.c **** /**
 727:Drivers/lvgl/lvgl/src/widgets/lv_roller.c ****  * Set the middle page for the roller if infinite is enabled
 728:Drivers/lvgl/lvgl/src/widgets/lv_roller.c ****  * @param roller pointer to a roller object
 729:Drivers/lvgl/lvgl/src/widgets/lv_roller.c ****  */
 730:Drivers/lvgl/lvgl/src/widgets/lv_roller.c **** static void inf_normalize(lv_obj_t * obj)
 731:Drivers/lvgl/lvgl/src/widgets/lv_roller.c **** {
 732:Drivers/lvgl/lvgl/src/widgets/lv_roller.c ****     lv_roller_t * roller = (lv_roller_t *)obj;
 733:Drivers/lvgl/lvgl/src/widgets/lv_roller.c **** 
 734:Drivers/lvgl/lvgl/src/widgets/lv_roller.c ****     if(roller->mode == LV_ROLLER_MODE_INFINITE) {
 735:Drivers/lvgl/lvgl/src/widgets/lv_roller.c ****         uint16_t real_id_cnt = roller->option_cnt / LV_ROLLER_INF_PAGES;
 736:Drivers/lvgl/lvgl/src/widgets/lv_roller.c ****         roller->sel_opt_id = roller->sel_opt_id % real_id_cnt;
 737:Drivers/lvgl/lvgl/src/widgets/lv_roller.c ****         roller->sel_opt_id += (LV_ROLLER_INF_PAGES / 2) * real_id_cnt; /*Select the middle page*/
 738:Drivers/lvgl/lvgl/src/widgets/lv_roller.c **** 
 739:Drivers/lvgl/lvgl/src/widgets/lv_roller.c ****         roller->sel_opt_id_ori = roller->sel_opt_id % real_id_cnt;
 740:Drivers/lvgl/lvgl/src/widgets/lv_roller.c ****         roller->sel_opt_id_ori += (LV_ROLLER_INF_PAGES / 2) * real_id_cnt; /*Select the middle page
 741:Drivers/lvgl/lvgl/src/widgets/lv_roller.c **** 
 742:Drivers/lvgl/lvgl/src/widgets/lv_roller.c ****         /*Move to the new id*/
 743:Drivers/lvgl/lvgl/src/widgets/lv_roller.c ****         const lv_font_t * font = lv_obj_get_style_text_font(obj, LV_PART_MAIN);
 744:Drivers/lvgl/lvgl/src/widgets/lv_roller.c ****         lv_coord_t line_space = lv_obj_get_style_text_line_space(obj, LV_PART_MAIN);
 745:Drivers/lvgl/lvgl/src/widgets/lv_roller.c ****         lv_coord_t font_h              = lv_font_get_line_height(font);
 746:Drivers/lvgl/lvgl/src/widgets/lv_roller.c ****         lv_coord_t h                   = lv_obj_get_content_height(obj);
 747:Drivers/lvgl/lvgl/src/widgets/lv_roller.c **** 
 748:Drivers/lvgl/lvgl/src/widgets/lv_roller.c ****         lv_obj_t * label = get_label(obj);
 749:Drivers/lvgl/lvgl/src/widgets/lv_roller.c **** 
 750:Drivers/lvgl/lvgl/src/widgets/lv_roller.c **** 
 751:Drivers/lvgl/lvgl/src/widgets/lv_roller.c ****         lv_coord_t sel_y1 = roller->sel_opt_id * (font_h + line_space);
 752:Drivers/lvgl/lvgl/src/widgets/lv_roller.c ****         lv_coord_t mid_y1 = h / 2 - font_h / 2;
 753:Drivers/lvgl/lvgl/src/widgets/lv_roller.c ****         lv_coord_t new_y = mid_y1 - sel_y1;
 754:Drivers/lvgl/lvgl/src/widgets/lv_roller.c ****         lv_obj_set_y(label, new_y);
 755:Drivers/lvgl/lvgl/src/widgets/lv_roller.c ****     }
 756:Drivers/lvgl/lvgl/src/widgets/lv_roller.c **** }
 757:Drivers/lvgl/lvgl/src/widgets/lv_roller.c **** 
 758:Drivers/lvgl/lvgl/src/widgets/lv_roller.c **** static lv_obj_t * get_label(const lv_obj_t * obj)
 759:Drivers/lvgl/lvgl/src/widgets/lv_roller.c **** {
 760:Drivers/lvgl/lvgl/src/widgets/lv_roller.c ****     return lv_obj_get_child(obj, 0);
 761:Drivers/lvgl/lvgl/src/widgets/lv_roller.c **** }
 762:Drivers/lvgl/lvgl/src/widgets/lv_roller.c **** 
 763:Drivers/lvgl/lvgl/src/widgets/lv_roller.c **** 
 764:Drivers/lvgl/lvgl/src/widgets/lv_roller.c **** static lv_coord_t get_selected_label_width(const lv_obj_t * obj)
 765:Drivers/lvgl/lvgl/src/widgets/lv_roller.c **** {
 766:Drivers/lvgl/lvgl/src/widgets/lv_roller.c ****     lv_obj_t * label = get_label(obj);
 767:Drivers/lvgl/lvgl/src/widgets/lv_roller.c ****     if(label == NULL) return 0;
 768:Drivers/lvgl/lvgl/src/widgets/lv_roller.c **** 
 769:Drivers/lvgl/lvgl/src/widgets/lv_roller.c ****     const lv_font_t * font = lv_obj_get_style_text_font(obj, LV_PART_SELECTED);
 770:Drivers/lvgl/lvgl/src/widgets/lv_roller.c ****     lv_coord_t letter_space = lv_obj_get_style_text_letter_space(obj, LV_PART_SELECTED);
 771:Drivers/lvgl/lvgl/src/widgets/lv_roller.c ****     const char * txt = lv_label_get_text(label);
 772:Drivers/lvgl/lvgl/src/widgets/lv_roller.c ****     lv_point_t size;
 773:Drivers/lvgl/lvgl/src/widgets/lv_roller.c ****     lv_txt_get_size(&size, txt, font, letter_space, 0, LV_COORD_MAX,  LV_TEXT_FLAG_NONE);
 774:Drivers/lvgl/lvgl/src/widgets/lv_roller.c ****     return size.x;
ARM GAS  /tmp/cchzjiif.s 			page 15


 775:Drivers/lvgl/lvgl/src/widgets/lv_roller.c **** }
 776:Drivers/lvgl/lvgl/src/widgets/lv_roller.c **** 
 777:Drivers/lvgl/lvgl/src/widgets/lv_roller.c **** static void scroll_anim_ready_cb(lv_anim_t * a)
 778:Drivers/lvgl/lvgl/src/widgets/lv_roller.c **** {
 779:Drivers/lvgl/lvgl/src/widgets/lv_roller.c ****     lv_obj_t * obj = lv_obj_get_parent(a->var); /*The label is animated*/
 780:Drivers/lvgl/lvgl/src/widgets/lv_roller.c ****     inf_normalize(obj);
 781:Drivers/lvgl/lvgl/src/widgets/lv_roller.c **** }
 782:Drivers/lvgl/lvgl/src/widgets/lv_roller.c **** 
 783:Drivers/lvgl/lvgl/src/widgets/lv_roller.c **** 
 784:Drivers/lvgl/lvgl/src/widgets/lv_roller.c **** static void set_y_anim(void * obj, int32_t v)
 785:Drivers/lvgl/lvgl/src/widgets/lv_roller.c **** {
  26              		.loc 1 785 0
  27              		.cfi_startproc
  28              		@ args = 0, pretend = 0, frame = 0
  29              		@ frame_needed = 0, uses_anonymous_args = 0
  30              	.LVL0:
  31 0000 08B5     		push	{r3, lr}
  32              	.LCFI0:
  33              		.cfi_def_cfa_offset 8
  34              		.cfi_offset 3, -8
  35              		.cfi_offset 14, -4
 786:Drivers/lvgl/lvgl/src/widgets/lv_roller.c ****     lv_obj_set_y(obj, v);
  36              		.loc 1 786 0
  37 0002 09B2     		sxth	r1, r1
  38              	.LVL1:
  39 0004 FFF7FEFF 		bl	lv_obj_set_y
  40              	.LVL2:
 787:Drivers/lvgl/lvgl/src/widgets/lv_roller.c **** }
  41              		.loc 1 787 0
  42 0008 08BD     		pop	{r3, pc}
  43              		.cfi_endproc
  44              	.LFE179:
  46              		.section	.text.get_label,"ax",%progbits
  47              		.align	1
  48              		.syntax unified
  49              		.thumb
  50              		.thumb_func
  51              		.fpu fpv5-d16
  53              	get_label:
  54              	.LFB176:
 759:Drivers/lvgl/lvgl/src/widgets/lv_roller.c ****     return lv_obj_get_child(obj, 0);
  55              		.loc 1 759 0
  56              		.cfi_startproc
  57              		@ args = 0, pretend = 0, frame = 0
  58              		@ frame_needed = 0, uses_anonymous_args = 0
  59              	.LVL3:
  60 0000 08B5     		push	{r3, lr}
  61              	.LCFI1:
  62              		.cfi_def_cfa_offset 8
  63              		.cfi_offset 3, -8
  64              		.cfi_offset 14, -4
 760:Drivers/lvgl/lvgl/src/widgets/lv_roller.c **** }
  65              		.loc 1 760 0
  66 0002 0021     		movs	r1, #0
  67 0004 FFF7FEFF 		bl	lv_obj_get_child
  68              	.LVL4:
 761:Drivers/lvgl/lvgl/src/widgets/lv_roller.c **** 
ARM GAS  /tmp/cchzjiif.s 			page 16


  69              		.loc 1 761 0
  70 0008 08BD     		pop	{r3, pc}
  71              		.cfi_endproc
  72              	.LFE176:
  74              		.section	.text.get_selected_label_width,"ax",%progbits
  75              		.align	1
  76              		.syntax unified
  77              		.thumb
  78              		.thumb_func
  79              		.fpu fpv5-d16
  81              	get_selected_label_width:
  82              	.LFB177:
 765:Drivers/lvgl/lvgl/src/widgets/lv_roller.c ****     lv_obj_t * label = get_label(obj);
  83              		.loc 1 765 0
  84              		.cfi_startproc
  85              		@ args = 0, pretend = 0, frame = 8
  86              		@ frame_needed = 0, uses_anonymous_args = 0
  87              	.LVL5:
  88 0000 70B5     		push	{r4, r5, r6, lr}
  89              	.LCFI2:
  90              		.cfi_def_cfa_offset 16
  91              		.cfi_offset 4, -16
  92              		.cfi_offset 5, -12
  93              		.cfi_offset 6, -8
  94              		.cfi_offset 14, -4
  95 0002 86B0     		sub	sp, sp, #24
  96              	.LCFI3:
  97              		.cfi_def_cfa_offset 40
  98 0004 0446     		mov	r4, r0
 766:Drivers/lvgl/lvgl/src/widgets/lv_roller.c ****     if(label == NULL) return 0;
  99              		.loc 1 766 0
 100 0006 FFF7FEFF 		bl	get_label
 101              	.LVL6:
 767:Drivers/lvgl/lvgl/src/widgets/lv_roller.c **** 
 102              		.loc 1 767 0
 103 000a 08B3     		cbz	r0, .L7
 104 000c 0546     		mov	r5, r0
 105              	.LVL7:
 106              	.LBB74:
 107              	.LBB75:
 108              		.file 2 "Drivers/lvgl/lvgl/src/widgets/../core/lv_obj_style_gen.h"
   1:Drivers/lvgl/lvgl/src/widgets/../core/lv_obj_style_gen.h **** static inline lv_coord_t lv_obj_get_style_width(const struct _lv_obj_t * obj, uint32_t part)
   2:Drivers/lvgl/lvgl/src/widgets/../core/lv_obj_style_gen.h **** {
   3:Drivers/lvgl/lvgl/src/widgets/../core/lv_obj_style_gen.h ****     lv_style_value_t v = lv_obj_get_style_prop(obj, part, LV_STYLE_WIDTH);
   4:Drivers/lvgl/lvgl/src/widgets/../core/lv_obj_style_gen.h ****     return (lv_coord_t)v.num;
   5:Drivers/lvgl/lvgl/src/widgets/../core/lv_obj_style_gen.h **** }
   6:Drivers/lvgl/lvgl/src/widgets/../core/lv_obj_style_gen.h **** 
   7:Drivers/lvgl/lvgl/src/widgets/../core/lv_obj_style_gen.h **** static inline lv_coord_t lv_obj_get_style_min_width(const struct _lv_obj_t * obj, uint32_t part)
   8:Drivers/lvgl/lvgl/src/widgets/../core/lv_obj_style_gen.h **** {
   9:Drivers/lvgl/lvgl/src/widgets/../core/lv_obj_style_gen.h ****     lv_style_value_t v = lv_obj_get_style_prop(obj, part, LV_STYLE_MIN_WIDTH);
  10:Drivers/lvgl/lvgl/src/widgets/../core/lv_obj_style_gen.h ****     return (lv_coord_t)v.num;
  11:Drivers/lvgl/lvgl/src/widgets/../core/lv_obj_style_gen.h **** }
  12:Drivers/lvgl/lvgl/src/widgets/../core/lv_obj_style_gen.h **** 
  13:Drivers/lvgl/lvgl/src/widgets/../core/lv_obj_style_gen.h **** static inline lv_coord_t lv_obj_get_style_max_width(const struct _lv_obj_t * obj, uint32_t part)
  14:Drivers/lvgl/lvgl/src/widgets/../core/lv_obj_style_gen.h **** {
  15:Drivers/lvgl/lvgl/src/widgets/../core/lv_obj_style_gen.h ****     lv_style_value_t v = lv_obj_get_style_prop(obj, part, LV_STYLE_MAX_WIDTH);
  16:Drivers/lvgl/lvgl/src/widgets/../core/lv_obj_style_gen.h ****     return (lv_coord_t)v.num;
ARM GAS  /tmp/cchzjiif.s 			page 17


  17:Drivers/lvgl/lvgl/src/widgets/../core/lv_obj_style_gen.h **** }
  18:Drivers/lvgl/lvgl/src/widgets/../core/lv_obj_style_gen.h **** 
  19:Drivers/lvgl/lvgl/src/widgets/../core/lv_obj_style_gen.h **** static inline lv_coord_t lv_obj_get_style_height(const struct _lv_obj_t * obj, uint32_t part)
  20:Drivers/lvgl/lvgl/src/widgets/../core/lv_obj_style_gen.h **** {
  21:Drivers/lvgl/lvgl/src/widgets/../core/lv_obj_style_gen.h ****     lv_style_value_t v = lv_obj_get_style_prop(obj, part, LV_STYLE_HEIGHT);
  22:Drivers/lvgl/lvgl/src/widgets/../core/lv_obj_style_gen.h ****     return (lv_coord_t)v.num;
  23:Drivers/lvgl/lvgl/src/widgets/../core/lv_obj_style_gen.h **** }
  24:Drivers/lvgl/lvgl/src/widgets/../core/lv_obj_style_gen.h **** 
  25:Drivers/lvgl/lvgl/src/widgets/../core/lv_obj_style_gen.h **** static inline lv_coord_t lv_obj_get_style_min_height(const struct _lv_obj_t * obj, uint32_t part)
  26:Drivers/lvgl/lvgl/src/widgets/../core/lv_obj_style_gen.h **** {
  27:Drivers/lvgl/lvgl/src/widgets/../core/lv_obj_style_gen.h ****     lv_style_value_t v = lv_obj_get_style_prop(obj, part, LV_STYLE_MIN_HEIGHT);
  28:Drivers/lvgl/lvgl/src/widgets/../core/lv_obj_style_gen.h ****     return (lv_coord_t)v.num;
  29:Drivers/lvgl/lvgl/src/widgets/../core/lv_obj_style_gen.h **** }
  30:Drivers/lvgl/lvgl/src/widgets/../core/lv_obj_style_gen.h **** 
  31:Drivers/lvgl/lvgl/src/widgets/../core/lv_obj_style_gen.h **** static inline lv_coord_t lv_obj_get_style_max_height(const struct _lv_obj_t * obj, uint32_t part)
  32:Drivers/lvgl/lvgl/src/widgets/../core/lv_obj_style_gen.h **** {
  33:Drivers/lvgl/lvgl/src/widgets/../core/lv_obj_style_gen.h ****     lv_style_value_t v = lv_obj_get_style_prop(obj, part, LV_STYLE_MAX_HEIGHT);
  34:Drivers/lvgl/lvgl/src/widgets/../core/lv_obj_style_gen.h ****     return (lv_coord_t)v.num;
  35:Drivers/lvgl/lvgl/src/widgets/../core/lv_obj_style_gen.h **** }
  36:Drivers/lvgl/lvgl/src/widgets/../core/lv_obj_style_gen.h **** 
  37:Drivers/lvgl/lvgl/src/widgets/../core/lv_obj_style_gen.h **** static inline lv_coord_t lv_obj_get_style_x(const struct _lv_obj_t * obj, uint32_t part)
  38:Drivers/lvgl/lvgl/src/widgets/../core/lv_obj_style_gen.h **** {
  39:Drivers/lvgl/lvgl/src/widgets/../core/lv_obj_style_gen.h ****     lv_style_value_t v = lv_obj_get_style_prop(obj, part, LV_STYLE_X);
  40:Drivers/lvgl/lvgl/src/widgets/../core/lv_obj_style_gen.h ****     return (lv_coord_t)v.num;
  41:Drivers/lvgl/lvgl/src/widgets/../core/lv_obj_style_gen.h **** }
  42:Drivers/lvgl/lvgl/src/widgets/../core/lv_obj_style_gen.h **** 
  43:Drivers/lvgl/lvgl/src/widgets/../core/lv_obj_style_gen.h **** static inline lv_coord_t lv_obj_get_style_y(const struct _lv_obj_t * obj, uint32_t part)
  44:Drivers/lvgl/lvgl/src/widgets/../core/lv_obj_style_gen.h **** {
  45:Drivers/lvgl/lvgl/src/widgets/../core/lv_obj_style_gen.h ****     lv_style_value_t v = lv_obj_get_style_prop(obj, part, LV_STYLE_Y);
  46:Drivers/lvgl/lvgl/src/widgets/../core/lv_obj_style_gen.h ****     return (lv_coord_t)v.num;
  47:Drivers/lvgl/lvgl/src/widgets/../core/lv_obj_style_gen.h **** }
  48:Drivers/lvgl/lvgl/src/widgets/../core/lv_obj_style_gen.h **** 
  49:Drivers/lvgl/lvgl/src/widgets/../core/lv_obj_style_gen.h **** static inline lv_align_t lv_obj_get_style_align(const struct _lv_obj_t * obj, uint32_t part)
  50:Drivers/lvgl/lvgl/src/widgets/../core/lv_obj_style_gen.h **** {
  51:Drivers/lvgl/lvgl/src/widgets/../core/lv_obj_style_gen.h ****     lv_style_value_t v = lv_obj_get_style_prop(obj, part, LV_STYLE_ALIGN);
  52:Drivers/lvgl/lvgl/src/widgets/../core/lv_obj_style_gen.h ****     return (lv_align_t)v.num;
  53:Drivers/lvgl/lvgl/src/widgets/../core/lv_obj_style_gen.h **** }
  54:Drivers/lvgl/lvgl/src/widgets/../core/lv_obj_style_gen.h **** 
  55:Drivers/lvgl/lvgl/src/widgets/../core/lv_obj_style_gen.h **** static inline lv_coord_t lv_obj_get_style_transform_width(const struct _lv_obj_t * obj, uint32_t pa
  56:Drivers/lvgl/lvgl/src/widgets/../core/lv_obj_style_gen.h **** {
  57:Drivers/lvgl/lvgl/src/widgets/../core/lv_obj_style_gen.h ****     lv_style_value_t v = lv_obj_get_style_prop(obj, part, LV_STYLE_TRANSFORM_WIDTH);
  58:Drivers/lvgl/lvgl/src/widgets/../core/lv_obj_style_gen.h ****     return (lv_coord_t)v.num;
  59:Drivers/lvgl/lvgl/src/widgets/../core/lv_obj_style_gen.h **** }
  60:Drivers/lvgl/lvgl/src/widgets/../core/lv_obj_style_gen.h **** 
  61:Drivers/lvgl/lvgl/src/widgets/../core/lv_obj_style_gen.h **** static inline lv_coord_t lv_obj_get_style_transform_height(const struct _lv_obj_t * obj, uint32_t p
  62:Drivers/lvgl/lvgl/src/widgets/../core/lv_obj_style_gen.h **** {
  63:Drivers/lvgl/lvgl/src/widgets/../core/lv_obj_style_gen.h ****     lv_style_value_t v = lv_obj_get_style_prop(obj, part, LV_STYLE_TRANSFORM_HEIGHT);
  64:Drivers/lvgl/lvgl/src/widgets/../core/lv_obj_style_gen.h ****     return (lv_coord_t)v.num;
  65:Drivers/lvgl/lvgl/src/widgets/../core/lv_obj_style_gen.h **** }
  66:Drivers/lvgl/lvgl/src/widgets/../core/lv_obj_style_gen.h **** 
  67:Drivers/lvgl/lvgl/src/widgets/../core/lv_obj_style_gen.h **** static inline lv_coord_t lv_obj_get_style_translate_x(const struct _lv_obj_t * obj, uint32_t part)
  68:Drivers/lvgl/lvgl/src/widgets/../core/lv_obj_style_gen.h **** {
  69:Drivers/lvgl/lvgl/src/widgets/../core/lv_obj_style_gen.h ****     lv_style_value_t v = lv_obj_get_style_prop(obj, part, LV_STYLE_TRANSLATE_X);
  70:Drivers/lvgl/lvgl/src/widgets/../core/lv_obj_style_gen.h ****     return (lv_coord_t)v.num;
  71:Drivers/lvgl/lvgl/src/widgets/../core/lv_obj_style_gen.h **** }
  72:Drivers/lvgl/lvgl/src/widgets/../core/lv_obj_style_gen.h **** 
  73:Drivers/lvgl/lvgl/src/widgets/../core/lv_obj_style_gen.h **** static inline lv_coord_t lv_obj_get_style_translate_y(const struct _lv_obj_t * obj, uint32_t part)
ARM GAS  /tmp/cchzjiif.s 			page 18


  74:Drivers/lvgl/lvgl/src/widgets/../core/lv_obj_style_gen.h **** {
  75:Drivers/lvgl/lvgl/src/widgets/../core/lv_obj_style_gen.h ****     lv_style_value_t v = lv_obj_get_style_prop(obj, part, LV_STYLE_TRANSLATE_Y);
  76:Drivers/lvgl/lvgl/src/widgets/../core/lv_obj_style_gen.h ****     return (lv_coord_t)v.num;
  77:Drivers/lvgl/lvgl/src/widgets/../core/lv_obj_style_gen.h **** }
  78:Drivers/lvgl/lvgl/src/widgets/../core/lv_obj_style_gen.h **** 
  79:Drivers/lvgl/lvgl/src/widgets/../core/lv_obj_style_gen.h **** static inline lv_coord_t lv_obj_get_style_transform_zoom(const struct _lv_obj_t * obj, uint32_t par
  80:Drivers/lvgl/lvgl/src/widgets/../core/lv_obj_style_gen.h **** {
  81:Drivers/lvgl/lvgl/src/widgets/../core/lv_obj_style_gen.h ****     lv_style_value_t v = lv_obj_get_style_prop(obj, part, LV_STYLE_TRANSFORM_ZOOM);
  82:Drivers/lvgl/lvgl/src/widgets/../core/lv_obj_style_gen.h ****     return (lv_coord_t)v.num;
  83:Drivers/lvgl/lvgl/src/widgets/../core/lv_obj_style_gen.h **** }
  84:Drivers/lvgl/lvgl/src/widgets/../core/lv_obj_style_gen.h **** 
  85:Drivers/lvgl/lvgl/src/widgets/../core/lv_obj_style_gen.h **** static inline lv_coord_t lv_obj_get_style_transform_angle(const struct _lv_obj_t * obj, uint32_t pa
  86:Drivers/lvgl/lvgl/src/widgets/../core/lv_obj_style_gen.h **** {
  87:Drivers/lvgl/lvgl/src/widgets/../core/lv_obj_style_gen.h ****     lv_style_value_t v = lv_obj_get_style_prop(obj, part, LV_STYLE_TRANSFORM_ANGLE);
  88:Drivers/lvgl/lvgl/src/widgets/../core/lv_obj_style_gen.h ****     return (lv_coord_t)v.num;
  89:Drivers/lvgl/lvgl/src/widgets/../core/lv_obj_style_gen.h **** }
  90:Drivers/lvgl/lvgl/src/widgets/../core/lv_obj_style_gen.h **** 
  91:Drivers/lvgl/lvgl/src/widgets/../core/lv_obj_style_gen.h **** static inline lv_coord_t lv_obj_get_style_transform_pivot_x(const struct _lv_obj_t * obj, uint32_t 
  92:Drivers/lvgl/lvgl/src/widgets/../core/lv_obj_style_gen.h **** {
  93:Drivers/lvgl/lvgl/src/widgets/../core/lv_obj_style_gen.h ****     lv_style_value_t v = lv_obj_get_style_prop(obj, part, LV_STYLE_TRANSFORM_PIVOT_X);
  94:Drivers/lvgl/lvgl/src/widgets/../core/lv_obj_style_gen.h ****     return (lv_coord_t)v.num;
  95:Drivers/lvgl/lvgl/src/widgets/../core/lv_obj_style_gen.h **** }
  96:Drivers/lvgl/lvgl/src/widgets/../core/lv_obj_style_gen.h **** 
  97:Drivers/lvgl/lvgl/src/widgets/../core/lv_obj_style_gen.h **** static inline lv_coord_t lv_obj_get_style_transform_pivot_y(const struct _lv_obj_t * obj, uint32_t 
  98:Drivers/lvgl/lvgl/src/widgets/../core/lv_obj_style_gen.h **** {
  99:Drivers/lvgl/lvgl/src/widgets/../core/lv_obj_style_gen.h ****     lv_style_value_t v = lv_obj_get_style_prop(obj, part, LV_STYLE_TRANSFORM_PIVOT_Y);
 100:Drivers/lvgl/lvgl/src/widgets/../core/lv_obj_style_gen.h ****     return (lv_coord_t)v.num;
 101:Drivers/lvgl/lvgl/src/widgets/../core/lv_obj_style_gen.h **** }
 102:Drivers/lvgl/lvgl/src/widgets/../core/lv_obj_style_gen.h **** 
 103:Drivers/lvgl/lvgl/src/widgets/../core/lv_obj_style_gen.h **** static inline lv_coord_t lv_obj_get_style_pad_top(const struct _lv_obj_t * obj, uint32_t part)
 104:Drivers/lvgl/lvgl/src/widgets/../core/lv_obj_style_gen.h **** {
 105:Drivers/lvgl/lvgl/src/widgets/../core/lv_obj_style_gen.h ****     lv_style_value_t v = lv_obj_get_style_prop(obj, part, LV_STYLE_PAD_TOP);
 106:Drivers/lvgl/lvgl/src/widgets/../core/lv_obj_style_gen.h ****     return (lv_coord_t)v.num;
 107:Drivers/lvgl/lvgl/src/widgets/../core/lv_obj_style_gen.h **** }
 108:Drivers/lvgl/lvgl/src/widgets/../core/lv_obj_style_gen.h **** 
 109:Drivers/lvgl/lvgl/src/widgets/../core/lv_obj_style_gen.h **** static inline lv_coord_t lv_obj_get_style_pad_bottom(const struct _lv_obj_t * obj, uint32_t part)
 110:Drivers/lvgl/lvgl/src/widgets/../core/lv_obj_style_gen.h **** {
 111:Drivers/lvgl/lvgl/src/widgets/../core/lv_obj_style_gen.h ****     lv_style_value_t v = lv_obj_get_style_prop(obj, part, LV_STYLE_PAD_BOTTOM);
 112:Drivers/lvgl/lvgl/src/widgets/../core/lv_obj_style_gen.h ****     return (lv_coord_t)v.num;
 113:Drivers/lvgl/lvgl/src/widgets/../core/lv_obj_style_gen.h **** }
 114:Drivers/lvgl/lvgl/src/widgets/../core/lv_obj_style_gen.h **** 
 115:Drivers/lvgl/lvgl/src/widgets/../core/lv_obj_style_gen.h **** static inline lv_coord_t lv_obj_get_style_pad_left(const struct _lv_obj_t * obj, uint32_t part)
 116:Drivers/lvgl/lvgl/src/widgets/../core/lv_obj_style_gen.h **** {
 117:Drivers/lvgl/lvgl/src/widgets/../core/lv_obj_style_gen.h ****     lv_style_value_t v = lv_obj_get_style_prop(obj, part, LV_STYLE_PAD_LEFT);
 118:Drivers/lvgl/lvgl/src/widgets/../core/lv_obj_style_gen.h ****     return (lv_coord_t)v.num;
 119:Drivers/lvgl/lvgl/src/widgets/../core/lv_obj_style_gen.h **** }
 120:Drivers/lvgl/lvgl/src/widgets/../core/lv_obj_style_gen.h **** 
 121:Drivers/lvgl/lvgl/src/widgets/../core/lv_obj_style_gen.h **** static inline lv_coord_t lv_obj_get_style_pad_right(const struct _lv_obj_t * obj, uint32_t part)
 122:Drivers/lvgl/lvgl/src/widgets/../core/lv_obj_style_gen.h **** {
 123:Drivers/lvgl/lvgl/src/widgets/../core/lv_obj_style_gen.h ****     lv_style_value_t v = lv_obj_get_style_prop(obj, part, LV_STYLE_PAD_RIGHT);
 124:Drivers/lvgl/lvgl/src/widgets/../core/lv_obj_style_gen.h ****     return (lv_coord_t)v.num;
 125:Drivers/lvgl/lvgl/src/widgets/../core/lv_obj_style_gen.h **** }
 126:Drivers/lvgl/lvgl/src/widgets/../core/lv_obj_style_gen.h **** 
 127:Drivers/lvgl/lvgl/src/widgets/../core/lv_obj_style_gen.h **** static inline lv_coord_t lv_obj_get_style_pad_row(const struct _lv_obj_t * obj, uint32_t part)
 128:Drivers/lvgl/lvgl/src/widgets/../core/lv_obj_style_gen.h **** {
 129:Drivers/lvgl/lvgl/src/widgets/../core/lv_obj_style_gen.h ****     lv_style_value_t v = lv_obj_get_style_prop(obj, part, LV_STYLE_PAD_ROW);
 130:Drivers/lvgl/lvgl/src/widgets/../core/lv_obj_style_gen.h ****     return (lv_coord_t)v.num;
ARM GAS  /tmp/cchzjiif.s 			page 19


 131:Drivers/lvgl/lvgl/src/widgets/../core/lv_obj_style_gen.h **** }
 132:Drivers/lvgl/lvgl/src/widgets/../core/lv_obj_style_gen.h **** 
 133:Drivers/lvgl/lvgl/src/widgets/../core/lv_obj_style_gen.h **** static inline lv_coord_t lv_obj_get_style_pad_column(const struct _lv_obj_t * obj, uint32_t part)
 134:Drivers/lvgl/lvgl/src/widgets/../core/lv_obj_style_gen.h **** {
 135:Drivers/lvgl/lvgl/src/widgets/../core/lv_obj_style_gen.h ****     lv_style_value_t v = lv_obj_get_style_prop(obj, part, LV_STYLE_PAD_COLUMN);
 136:Drivers/lvgl/lvgl/src/widgets/../core/lv_obj_style_gen.h ****     return (lv_coord_t)v.num;
 137:Drivers/lvgl/lvgl/src/widgets/../core/lv_obj_style_gen.h **** }
 138:Drivers/lvgl/lvgl/src/widgets/../core/lv_obj_style_gen.h **** 
 139:Drivers/lvgl/lvgl/src/widgets/../core/lv_obj_style_gen.h **** static inline lv_color_t lv_obj_get_style_bg_color(const struct _lv_obj_t * obj, uint32_t part)
 140:Drivers/lvgl/lvgl/src/widgets/../core/lv_obj_style_gen.h **** {
 141:Drivers/lvgl/lvgl/src/widgets/../core/lv_obj_style_gen.h ****     lv_style_value_t v = lv_obj_get_style_prop(obj, part, LV_STYLE_BG_COLOR);
 142:Drivers/lvgl/lvgl/src/widgets/../core/lv_obj_style_gen.h ****     return v.color;
 143:Drivers/lvgl/lvgl/src/widgets/../core/lv_obj_style_gen.h **** }
 144:Drivers/lvgl/lvgl/src/widgets/../core/lv_obj_style_gen.h **** 
 145:Drivers/lvgl/lvgl/src/widgets/../core/lv_obj_style_gen.h **** static inline lv_color_t lv_obj_get_style_bg_color_filtered(const struct _lv_obj_t * obj, uint32_t 
 146:Drivers/lvgl/lvgl/src/widgets/../core/lv_obj_style_gen.h **** {
 147:Drivers/lvgl/lvgl/src/widgets/../core/lv_obj_style_gen.h ****     lv_style_value_t v = _lv_obj_style_apply_color_filter(obj, part, lv_obj_get_style_prop(obj, par
 148:Drivers/lvgl/lvgl/src/widgets/../core/lv_obj_style_gen.h ****     return v.color;
 149:Drivers/lvgl/lvgl/src/widgets/../core/lv_obj_style_gen.h **** }
 150:Drivers/lvgl/lvgl/src/widgets/../core/lv_obj_style_gen.h **** 
 151:Drivers/lvgl/lvgl/src/widgets/../core/lv_obj_style_gen.h **** static inline lv_opa_t lv_obj_get_style_bg_opa(const struct _lv_obj_t * obj, uint32_t part)
 152:Drivers/lvgl/lvgl/src/widgets/../core/lv_obj_style_gen.h **** {
 153:Drivers/lvgl/lvgl/src/widgets/../core/lv_obj_style_gen.h ****     lv_style_value_t v = lv_obj_get_style_prop(obj, part, LV_STYLE_BG_OPA);
 154:Drivers/lvgl/lvgl/src/widgets/../core/lv_obj_style_gen.h ****     return (lv_opa_t)v.num;
 155:Drivers/lvgl/lvgl/src/widgets/../core/lv_obj_style_gen.h **** }
 156:Drivers/lvgl/lvgl/src/widgets/../core/lv_obj_style_gen.h **** 
 157:Drivers/lvgl/lvgl/src/widgets/../core/lv_obj_style_gen.h **** static inline lv_color_t lv_obj_get_style_bg_grad_color(const struct _lv_obj_t * obj, uint32_t part
 158:Drivers/lvgl/lvgl/src/widgets/../core/lv_obj_style_gen.h **** {
 159:Drivers/lvgl/lvgl/src/widgets/../core/lv_obj_style_gen.h ****     lv_style_value_t v = lv_obj_get_style_prop(obj, part, LV_STYLE_BG_GRAD_COLOR);
 160:Drivers/lvgl/lvgl/src/widgets/../core/lv_obj_style_gen.h ****     return v.color;
 161:Drivers/lvgl/lvgl/src/widgets/../core/lv_obj_style_gen.h **** }
 162:Drivers/lvgl/lvgl/src/widgets/../core/lv_obj_style_gen.h **** 
 163:Drivers/lvgl/lvgl/src/widgets/../core/lv_obj_style_gen.h **** static inline lv_color_t lv_obj_get_style_bg_grad_color_filtered(const struct _lv_obj_t * obj, uint
 164:Drivers/lvgl/lvgl/src/widgets/../core/lv_obj_style_gen.h **** {
 165:Drivers/lvgl/lvgl/src/widgets/../core/lv_obj_style_gen.h ****     lv_style_value_t v = _lv_obj_style_apply_color_filter(obj, part, lv_obj_get_style_prop(obj, par
 166:Drivers/lvgl/lvgl/src/widgets/../core/lv_obj_style_gen.h ****     return v.color;
 167:Drivers/lvgl/lvgl/src/widgets/../core/lv_obj_style_gen.h **** }
 168:Drivers/lvgl/lvgl/src/widgets/../core/lv_obj_style_gen.h **** 
 169:Drivers/lvgl/lvgl/src/widgets/../core/lv_obj_style_gen.h **** static inline lv_grad_dir_t lv_obj_get_style_bg_grad_dir(const struct _lv_obj_t * obj, uint32_t par
 170:Drivers/lvgl/lvgl/src/widgets/../core/lv_obj_style_gen.h **** {
 171:Drivers/lvgl/lvgl/src/widgets/../core/lv_obj_style_gen.h ****     lv_style_value_t v = lv_obj_get_style_prop(obj, part, LV_STYLE_BG_GRAD_DIR);
 172:Drivers/lvgl/lvgl/src/widgets/../core/lv_obj_style_gen.h ****     return (lv_grad_dir_t)v.num;
 173:Drivers/lvgl/lvgl/src/widgets/../core/lv_obj_style_gen.h **** }
 174:Drivers/lvgl/lvgl/src/widgets/../core/lv_obj_style_gen.h **** 
 175:Drivers/lvgl/lvgl/src/widgets/../core/lv_obj_style_gen.h **** static inline lv_coord_t lv_obj_get_style_bg_main_stop(const struct _lv_obj_t * obj, uint32_t part)
 176:Drivers/lvgl/lvgl/src/widgets/../core/lv_obj_style_gen.h **** {
 177:Drivers/lvgl/lvgl/src/widgets/../core/lv_obj_style_gen.h ****     lv_style_value_t v = lv_obj_get_style_prop(obj, part, LV_STYLE_BG_MAIN_STOP);
 178:Drivers/lvgl/lvgl/src/widgets/../core/lv_obj_style_gen.h ****     return (lv_coord_t)v.num;
 179:Drivers/lvgl/lvgl/src/widgets/../core/lv_obj_style_gen.h **** }
 180:Drivers/lvgl/lvgl/src/widgets/../core/lv_obj_style_gen.h **** 
 181:Drivers/lvgl/lvgl/src/widgets/../core/lv_obj_style_gen.h **** static inline lv_coord_t lv_obj_get_style_bg_grad_stop(const struct _lv_obj_t * obj, uint32_t part)
 182:Drivers/lvgl/lvgl/src/widgets/../core/lv_obj_style_gen.h **** {
 183:Drivers/lvgl/lvgl/src/widgets/../core/lv_obj_style_gen.h ****     lv_style_value_t v = lv_obj_get_style_prop(obj, part, LV_STYLE_BG_GRAD_STOP);
 184:Drivers/lvgl/lvgl/src/widgets/../core/lv_obj_style_gen.h ****     return (lv_coord_t)v.num;
 185:Drivers/lvgl/lvgl/src/widgets/../core/lv_obj_style_gen.h **** }
 186:Drivers/lvgl/lvgl/src/widgets/../core/lv_obj_style_gen.h **** 
 187:Drivers/lvgl/lvgl/src/widgets/../core/lv_obj_style_gen.h **** static inline const lv_grad_dsc_t * lv_obj_get_style_bg_grad(const struct _lv_obj_t * obj, uint32_t
ARM GAS  /tmp/cchzjiif.s 			page 20


 188:Drivers/lvgl/lvgl/src/widgets/../core/lv_obj_style_gen.h **** {
 189:Drivers/lvgl/lvgl/src/widgets/../core/lv_obj_style_gen.h ****     lv_style_value_t v = lv_obj_get_style_prop(obj, part, LV_STYLE_BG_GRAD);
 190:Drivers/lvgl/lvgl/src/widgets/../core/lv_obj_style_gen.h ****     return (const lv_grad_dsc_t *)v.ptr;
 191:Drivers/lvgl/lvgl/src/widgets/../core/lv_obj_style_gen.h **** }
 192:Drivers/lvgl/lvgl/src/widgets/../core/lv_obj_style_gen.h **** 
 193:Drivers/lvgl/lvgl/src/widgets/../core/lv_obj_style_gen.h **** static inline lv_dither_mode_t lv_obj_get_style_bg_dither_mode(const struct _lv_obj_t * obj, uint32
 194:Drivers/lvgl/lvgl/src/widgets/../core/lv_obj_style_gen.h **** {
 195:Drivers/lvgl/lvgl/src/widgets/../core/lv_obj_style_gen.h ****     lv_style_value_t v = lv_obj_get_style_prop(obj, part, LV_STYLE_BG_DITHER_MODE);
 196:Drivers/lvgl/lvgl/src/widgets/../core/lv_obj_style_gen.h ****     return (lv_dither_mode_t)v.num;
 197:Drivers/lvgl/lvgl/src/widgets/../core/lv_obj_style_gen.h **** }
 198:Drivers/lvgl/lvgl/src/widgets/../core/lv_obj_style_gen.h **** 
 199:Drivers/lvgl/lvgl/src/widgets/../core/lv_obj_style_gen.h **** static inline const void * lv_obj_get_style_bg_img_src(const struct _lv_obj_t * obj, uint32_t part)
 200:Drivers/lvgl/lvgl/src/widgets/../core/lv_obj_style_gen.h **** {
 201:Drivers/lvgl/lvgl/src/widgets/../core/lv_obj_style_gen.h ****     lv_style_value_t v = lv_obj_get_style_prop(obj, part, LV_STYLE_BG_IMG_SRC);
 202:Drivers/lvgl/lvgl/src/widgets/../core/lv_obj_style_gen.h ****     return (const void *)v.ptr;
 203:Drivers/lvgl/lvgl/src/widgets/../core/lv_obj_style_gen.h **** }
 204:Drivers/lvgl/lvgl/src/widgets/../core/lv_obj_style_gen.h **** 
 205:Drivers/lvgl/lvgl/src/widgets/../core/lv_obj_style_gen.h **** static inline lv_opa_t lv_obj_get_style_bg_img_opa(const struct _lv_obj_t * obj, uint32_t part)
 206:Drivers/lvgl/lvgl/src/widgets/../core/lv_obj_style_gen.h **** {
 207:Drivers/lvgl/lvgl/src/widgets/../core/lv_obj_style_gen.h ****     lv_style_value_t v = lv_obj_get_style_prop(obj, part, LV_STYLE_BG_IMG_OPA);
 208:Drivers/lvgl/lvgl/src/widgets/../core/lv_obj_style_gen.h ****     return (lv_opa_t)v.num;
 209:Drivers/lvgl/lvgl/src/widgets/../core/lv_obj_style_gen.h **** }
 210:Drivers/lvgl/lvgl/src/widgets/../core/lv_obj_style_gen.h **** 
 211:Drivers/lvgl/lvgl/src/widgets/../core/lv_obj_style_gen.h **** static inline lv_color_t lv_obj_get_style_bg_img_recolor(const struct _lv_obj_t * obj, uint32_t par
 212:Drivers/lvgl/lvgl/src/widgets/../core/lv_obj_style_gen.h **** {
 213:Drivers/lvgl/lvgl/src/widgets/../core/lv_obj_style_gen.h ****     lv_style_value_t v = lv_obj_get_style_prop(obj, part, LV_STYLE_BG_IMG_RECOLOR);
 214:Drivers/lvgl/lvgl/src/widgets/../core/lv_obj_style_gen.h ****     return v.color;
 215:Drivers/lvgl/lvgl/src/widgets/../core/lv_obj_style_gen.h **** }
 216:Drivers/lvgl/lvgl/src/widgets/../core/lv_obj_style_gen.h **** 
 217:Drivers/lvgl/lvgl/src/widgets/../core/lv_obj_style_gen.h **** static inline lv_color_t lv_obj_get_style_bg_img_recolor_filtered(const struct _lv_obj_t * obj, uin
 218:Drivers/lvgl/lvgl/src/widgets/../core/lv_obj_style_gen.h **** {
 219:Drivers/lvgl/lvgl/src/widgets/../core/lv_obj_style_gen.h ****     lv_style_value_t v = _lv_obj_style_apply_color_filter(obj, part, lv_obj_get_style_prop(obj, par
 220:Drivers/lvgl/lvgl/src/widgets/../core/lv_obj_style_gen.h ****     return v.color;
 221:Drivers/lvgl/lvgl/src/widgets/../core/lv_obj_style_gen.h **** }
 222:Drivers/lvgl/lvgl/src/widgets/../core/lv_obj_style_gen.h **** 
 223:Drivers/lvgl/lvgl/src/widgets/../core/lv_obj_style_gen.h **** static inline lv_opa_t lv_obj_get_style_bg_img_recolor_opa(const struct _lv_obj_t * obj, uint32_t p
 224:Drivers/lvgl/lvgl/src/widgets/../core/lv_obj_style_gen.h **** {
 225:Drivers/lvgl/lvgl/src/widgets/../core/lv_obj_style_gen.h ****     lv_style_value_t v = lv_obj_get_style_prop(obj, part, LV_STYLE_BG_IMG_RECOLOR_OPA);
 226:Drivers/lvgl/lvgl/src/widgets/../core/lv_obj_style_gen.h ****     return (lv_opa_t)v.num;
 227:Drivers/lvgl/lvgl/src/widgets/../core/lv_obj_style_gen.h **** }
 228:Drivers/lvgl/lvgl/src/widgets/../core/lv_obj_style_gen.h **** 
 229:Drivers/lvgl/lvgl/src/widgets/../core/lv_obj_style_gen.h **** static inline bool lv_obj_get_style_bg_img_tiled(const struct _lv_obj_t * obj, uint32_t part)
 230:Drivers/lvgl/lvgl/src/widgets/../core/lv_obj_style_gen.h **** {
 231:Drivers/lvgl/lvgl/src/widgets/../core/lv_obj_style_gen.h ****     lv_style_value_t v = lv_obj_get_style_prop(obj, part, LV_STYLE_BG_IMG_TILED);
 232:Drivers/lvgl/lvgl/src/widgets/../core/lv_obj_style_gen.h ****     return (bool)v.num;
 233:Drivers/lvgl/lvgl/src/widgets/../core/lv_obj_style_gen.h **** }
 234:Drivers/lvgl/lvgl/src/widgets/../core/lv_obj_style_gen.h **** 
 235:Drivers/lvgl/lvgl/src/widgets/../core/lv_obj_style_gen.h **** static inline lv_color_t lv_obj_get_style_border_color(const struct _lv_obj_t * obj, uint32_t part)
 236:Drivers/lvgl/lvgl/src/widgets/../core/lv_obj_style_gen.h **** {
 237:Drivers/lvgl/lvgl/src/widgets/../core/lv_obj_style_gen.h ****     lv_style_value_t v = lv_obj_get_style_prop(obj, part, LV_STYLE_BORDER_COLOR);
 238:Drivers/lvgl/lvgl/src/widgets/../core/lv_obj_style_gen.h ****     return v.color;
 239:Drivers/lvgl/lvgl/src/widgets/../core/lv_obj_style_gen.h **** }
 240:Drivers/lvgl/lvgl/src/widgets/../core/lv_obj_style_gen.h **** 
 241:Drivers/lvgl/lvgl/src/widgets/../core/lv_obj_style_gen.h **** static inline lv_color_t lv_obj_get_style_border_color_filtered(const struct _lv_obj_t * obj, uint3
 242:Drivers/lvgl/lvgl/src/widgets/../core/lv_obj_style_gen.h **** {
 243:Drivers/lvgl/lvgl/src/widgets/../core/lv_obj_style_gen.h ****     lv_style_value_t v = _lv_obj_style_apply_color_filter(obj, part, lv_obj_get_style_prop(obj, par
 244:Drivers/lvgl/lvgl/src/widgets/../core/lv_obj_style_gen.h ****     return v.color;
ARM GAS  /tmp/cchzjiif.s 			page 21


 245:Drivers/lvgl/lvgl/src/widgets/../core/lv_obj_style_gen.h **** }
 246:Drivers/lvgl/lvgl/src/widgets/../core/lv_obj_style_gen.h **** 
 247:Drivers/lvgl/lvgl/src/widgets/../core/lv_obj_style_gen.h **** static inline lv_opa_t lv_obj_get_style_border_opa(const struct _lv_obj_t * obj, uint32_t part)
 248:Drivers/lvgl/lvgl/src/widgets/../core/lv_obj_style_gen.h **** {
 249:Drivers/lvgl/lvgl/src/widgets/../core/lv_obj_style_gen.h ****     lv_style_value_t v = lv_obj_get_style_prop(obj, part, LV_STYLE_BORDER_OPA);
 250:Drivers/lvgl/lvgl/src/widgets/../core/lv_obj_style_gen.h ****     return (lv_opa_t)v.num;
 251:Drivers/lvgl/lvgl/src/widgets/../core/lv_obj_style_gen.h **** }
 252:Drivers/lvgl/lvgl/src/widgets/../core/lv_obj_style_gen.h **** 
 253:Drivers/lvgl/lvgl/src/widgets/../core/lv_obj_style_gen.h **** static inline lv_coord_t lv_obj_get_style_border_width(const struct _lv_obj_t * obj, uint32_t part)
 254:Drivers/lvgl/lvgl/src/widgets/../core/lv_obj_style_gen.h **** {
 255:Drivers/lvgl/lvgl/src/widgets/../core/lv_obj_style_gen.h ****     lv_style_value_t v = lv_obj_get_style_prop(obj, part, LV_STYLE_BORDER_WIDTH);
 256:Drivers/lvgl/lvgl/src/widgets/../core/lv_obj_style_gen.h ****     return (lv_coord_t)v.num;
 257:Drivers/lvgl/lvgl/src/widgets/../core/lv_obj_style_gen.h **** }
 258:Drivers/lvgl/lvgl/src/widgets/../core/lv_obj_style_gen.h **** 
 259:Drivers/lvgl/lvgl/src/widgets/../core/lv_obj_style_gen.h **** static inline lv_border_side_t lv_obj_get_style_border_side(const struct _lv_obj_t * obj, uint32_t 
 260:Drivers/lvgl/lvgl/src/widgets/../core/lv_obj_style_gen.h **** {
 261:Drivers/lvgl/lvgl/src/widgets/../core/lv_obj_style_gen.h ****     lv_style_value_t v = lv_obj_get_style_prop(obj, part, LV_STYLE_BORDER_SIDE);
 262:Drivers/lvgl/lvgl/src/widgets/../core/lv_obj_style_gen.h ****     return (lv_border_side_t)v.num;
 263:Drivers/lvgl/lvgl/src/widgets/../core/lv_obj_style_gen.h **** }
 264:Drivers/lvgl/lvgl/src/widgets/../core/lv_obj_style_gen.h **** 
 265:Drivers/lvgl/lvgl/src/widgets/../core/lv_obj_style_gen.h **** static inline bool lv_obj_get_style_border_post(const struct _lv_obj_t * obj, uint32_t part)
 266:Drivers/lvgl/lvgl/src/widgets/../core/lv_obj_style_gen.h **** {
 267:Drivers/lvgl/lvgl/src/widgets/../core/lv_obj_style_gen.h ****     lv_style_value_t v = lv_obj_get_style_prop(obj, part, LV_STYLE_BORDER_POST);
 268:Drivers/lvgl/lvgl/src/widgets/../core/lv_obj_style_gen.h ****     return (bool)v.num;
 269:Drivers/lvgl/lvgl/src/widgets/../core/lv_obj_style_gen.h **** }
 270:Drivers/lvgl/lvgl/src/widgets/../core/lv_obj_style_gen.h **** 
 271:Drivers/lvgl/lvgl/src/widgets/../core/lv_obj_style_gen.h **** static inline lv_coord_t lv_obj_get_style_outline_width(const struct _lv_obj_t * obj, uint32_t part
 272:Drivers/lvgl/lvgl/src/widgets/../core/lv_obj_style_gen.h **** {
 273:Drivers/lvgl/lvgl/src/widgets/../core/lv_obj_style_gen.h ****     lv_style_value_t v = lv_obj_get_style_prop(obj, part, LV_STYLE_OUTLINE_WIDTH);
 274:Drivers/lvgl/lvgl/src/widgets/../core/lv_obj_style_gen.h ****     return (lv_coord_t)v.num;
 275:Drivers/lvgl/lvgl/src/widgets/../core/lv_obj_style_gen.h **** }
 276:Drivers/lvgl/lvgl/src/widgets/../core/lv_obj_style_gen.h **** 
 277:Drivers/lvgl/lvgl/src/widgets/../core/lv_obj_style_gen.h **** static inline lv_color_t lv_obj_get_style_outline_color(const struct _lv_obj_t * obj, uint32_t part
 278:Drivers/lvgl/lvgl/src/widgets/../core/lv_obj_style_gen.h **** {
 279:Drivers/lvgl/lvgl/src/widgets/../core/lv_obj_style_gen.h ****     lv_style_value_t v = lv_obj_get_style_prop(obj, part, LV_STYLE_OUTLINE_COLOR);
 280:Drivers/lvgl/lvgl/src/widgets/../core/lv_obj_style_gen.h ****     return v.color;
 281:Drivers/lvgl/lvgl/src/widgets/../core/lv_obj_style_gen.h **** }
 282:Drivers/lvgl/lvgl/src/widgets/../core/lv_obj_style_gen.h **** 
 283:Drivers/lvgl/lvgl/src/widgets/../core/lv_obj_style_gen.h **** static inline lv_color_t lv_obj_get_style_outline_color_filtered(const struct _lv_obj_t * obj, uint
 284:Drivers/lvgl/lvgl/src/widgets/../core/lv_obj_style_gen.h **** {
 285:Drivers/lvgl/lvgl/src/widgets/../core/lv_obj_style_gen.h ****     lv_style_value_t v = _lv_obj_style_apply_color_filter(obj, part, lv_obj_get_style_prop(obj, par
 286:Drivers/lvgl/lvgl/src/widgets/../core/lv_obj_style_gen.h ****     return v.color;
 287:Drivers/lvgl/lvgl/src/widgets/../core/lv_obj_style_gen.h **** }
 288:Drivers/lvgl/lvgl/src/widgets/../core/lv_obj_style_gen.h **** 
 289:Drivers/lvgl/lvgl/src/widgets/../core/lv_obj_style_gen.h **** static inline lv_opa_t lv_obj_get_style_outline_opa(const struct _lv_obj_t * obj, uint32_t part)
 290:Drivers/lvgl/lvgl/src/widgets/../core/lv_obj_style_gen.h **** {
 291:Drivers/lvgl/lvgl/src/widgets/../core/lv_obj_style_gen.h ****     lv_style_value_t v = lv_obj_get_style_prop(obj, part, LV_STYLE_OUTLINE_OPA);
 292:Drivers/lvgl/lvgl/src/widgets/../core/lv_obj_style_gen.h ****     return (lv_opa_t)v.num;
 293:Drivers/lvgl/lvgl/src/widgets/../core/lv_obj_style_gen.h **** }
 294:Drivers/lvgl/lvgl/src/widgets/../core/lv_obj_style_gen.h **** 
 295:Drivers/lvgl/lvgl/src/widgets/../core/lv_obj_style_gen.h **** static inline lv_coord_t lv_obj_get_style_outline_pad(const struct _lv_obj_t * obj, uint32_t part)
 296:Drivers/lvgl/lvgl/src/widgets/../core/lv_obj_style_gen.h **** {
 297:Drivers/lvgl/lvgl/src/widgets/../core/lv_obj_style_gen.h ****     lv_style_value_t v = lv_obj_get_style_prop(obj, part, LV_STYLE_OUTLINE_PAD);
 298:Drivers/lvgl/lvgl/src/widgets/../core/lv_obj_style_gen.h ****     return (lv_coord_t)v.num;
 299:Drivers/lvgl/lvgl/src/widgets/../core/lv_obj_style_gen.h **** }
 300:Drivers/lvgl/lvgl/src/widgets/../core/lv_obj_style_gen.h **** 
 301:Drivers/lvgl/lvgl/src/widgets/../core/lv_obj_style_gen.h **** static inline lv_coord_t lv_obj_get_style_shadow_width(const struct _lv_obj_t * obj, uint32_t part)
ARM GAS  /tmp/cchzjiif.s 			page 22


 302:Drivers/lvgl/lvgl/src/widgets/../core/lv_obj_style_gen.h **** {
 303:Drivers/lvgl/lvgl/src/widgets/../core/lv_obj_style_gen.h ****     lv_style_value_t v = lv_obj_get_style_prop(obj, part, LV_STYLE_SHADOW_WIDTH);
 304:Drivers/lvgl/lvgl/src/widgets/../core/lv_obj_style_gen.h ****     return (lv_coord_t)v.num;
 305:Drivers/lvgl/lvgl/src/widgets/../core/lv_obj_style_gen.h **** }
 306:Drivers/lvgl/lvgl/src/widgets/../core/lv_obj_style_gen.h **** 
 307:Drivers/lvgl/lvgl/src/widgets/../core/lv_obj_style_gen.h **** static inline lv_coord_t lv_obj_get_style_shadow_ofs_x(const struct _lv_obj_t * obj, uint32_t part)
 308:Drivers/lvgl/lvgl/src/widgets/../core/lv_obj_style_gen.h **** {
 309:Drivers/lvgl/lvgl/src/widgets/../core/lv_obj_style_gen.h ****     lv_style_value_t v = lv_obj_get_style_prop(obj, part, LV_STYLE_SHADOW_OFS_X);
 310:Drivers/lvgl/lvgl/src/widgets/../core/lv_obj_style_gen.h ****     return (lv_coord_t)v.num;
 311:Drivers/lvgl/lvgl/src/widgets/../core/lv_obj_style_gen.h **** }
 312:Drivers/lvgl/lvgl/src/widgets/../core/lv_obj_style_gen.h **** 
 313:Drivers/lvgl/lvgl/src/widgets/../core/lv_obj_style_gen.h **** static inline lv_coord_t lv_obj_get_style_shadow_ofs_y(const struct _lv_obj_t * obj, uint32_t part)
 314:Drivers/lvgl/lvgl/src/widgets/../core/lv_obj_style_gen.h **** {
 315:Drivers/lvgl/lvgl/src/widgets/../core/lv_obj_style_gen.h ****     lv_style_value_t v = lv_obj_get_style_prop(obj, part, LV_STYLE_SHADOW_OFS_Y);
 316:Drivers/lvgl/lvgl/src/widgets/../core/lv_obj_style_gen.h ****     return (lv_coord_t)v.num;
 317:Drivers/lvgl/lvgl/src/widgets/../core/lv_obj_style_gen.h **** }
 318:Drivers/lvgl/lvgl/src/widgets/../core/lv_obj_style_gen.h **** 
 319:Drivers/lvgl/lvgl/src/widgets/../core/lv_obj_style_gen.h **** static inline lv_coord_t lv_obj_get_style_shadow_spread(const struct _lv_obj_t * obj, uint32_t part
 320:Drivers/lvgl/lvgl/src/widgets/../core/lv_obj_style_gen.h **** {
 321:Drivers/lvgl/lvgl/src/widgets/../core/lv_obj_style_gen.h ****     lv_style_value_t v = lv_obj_get_style_prop(obj, part, LV_STYLE_SHADOW_SPREAD);
 322:Drivers/lvgl/lvgl/src/widgets/../core/lv_obj_style_gen.h ****     return (lv_coord_t)v.num;
 323:Drivers/lvgl/lvgl/src/widgets/../core/lv_obj_style_gen.h **** }
 324:Drivers/lvgl/lvgl/src/widgets/../core/lv_obj_style_gen.h **** 
 325:Drivers/lvgl/lvgl/src/widgets/../core/lv_obj_style_gen.h **** static inline lv_color_t lv_obj_get_style_shadow_color(const struct _lv_obj_t * obj, uint32_t part)
 326:Drivers/lvgl/lvgl/src/widgets/../core/lv_obj_style_gen.h **** {
 327:Drivers/lvgl/lvgl/src/widgets/../core/lv_obj_style_gen.h ****     lv_style_value_t v = lv_obj_get_style_prop(obj, part, LV_STYLE_SHADOW_COLOR);
 328:Drivers/lvgl/lvgl/src/widgets/../core/lv_obj_style_gen.h ****     return v.color;
 329:Drivers/lvgl/lvgl/src/widgets/../core/lv_obj_style_gen.h **** }
 330:Drivers/lvgl/lvgl/src/widgets/../core/lv_obj_style_gen.h **** 
 331:Drivers/lvgl/lvgl/src/widgets/../core/lv_obj_style_gen.h **** static inline lv_color_t lv_obj_get_style_shadow_color_filtered(const struct _lv_obj_t * obj, uint3
 332:Drivers/lvgl/lvgl/src/widgets/../core/lv_obj_style_gen.h **** {
 333:Drivers/lvgl/lvgl/src/widgets/../core/lv_obj_style_gen.h ****     lv_style_value_t v = _lv_obj_style_apply_color_filter(obj, part, lv_obj_get_style_prop(obj, par
 334:Drivers/lvgl/lvgl/src/widgets/../core/lv_obj_style_gen.h ****     return v.color;
 335:Drivers/lvgl/lvgl/src/widgets/../core/lv_obj_style_gen.h **** }
 336:Drivers/lvgl/lvgl/src/widgets/../core/lv_obj_style_gen.h **** 
 337:Drivers/lvgl/lvgl/src/widgets/../core/lv_obj_style_gen.h **** static inline lv_opa_t lv_obj_get_style_shadow_opa(const struct _lv_obj_t * obj, uint32_t part)
 338:Drivers/lvgl/lvgl/src/widgets/../core/lv_obj_style_gen.h **** {
 339:Drivers/lvgl/lvgl/src/widgets/../core/lv_obj_style_gen.h ****     lv_style_value_t v = lv_obj_get_style_prop(obj, part, LV_STYLE_SHADOW_OPA);
 340:Drivers/lvgl/lvgl/src/widgets/../core/lv_obj_style_gen.h ****     return (lv_opa_t)v.num;
 341:Drivers/lvgl/lvgl/src/widgets/../core/lv_obj_style_gen.h **** }
 342:Drivers/lvgl/lvgl/src/widgets/../core/lv_obj_style_gen.h **** 
 343:Drivers/lvgl/lvgl/src/widgets/../core/lv_obj_style_gen.h **** static inline lv_opa_t lv_obj_get_style_img_opa(const struct _lv_obj_t * obj, uint32_t part)
 344:Drivers/lvgl/lvgl/src/widgets/../core/lv_obj_style_gen.h **** {
 345:Drivers/lvgl/lvgl/src/widgets/../core/lv_obj_style_gen.h ****     lv_style_value_t v = lv_obj_get_style_prop(obj, part, LV_STYLE_IMG_OPA);
 346:Drivers/lvgl/lvgl/src/widgets/../core/lv_obj_style_gen.h ****     return (lv_opa_t)v.num;
 347:Drivers/lvgl/lvgl/src/widgets/../core/lv_obj_style_gen.h **** }
 348:Drivers/lvgl/lvgl/src/widgets/../core/lv_obj_style_gen.h **** 
 349:Drivers/lvgl/lvgl/src/widgets/../core/lv_obj_style_gen.h **** static inline lv_color_t lv_obj_get_style_img_recolor(const struct _lv_obj_t * obj, uint32_t part)
 350:Drivers/lvgl/lvgl/src/widgets/../core/lv_obj_style_gen.h **** {
 351:Drivers/lvgl/lvgl/src/widgets/../core/lv_obj_style_gen.h ****     lv_style_value_t v = lv_obj_get_style_prop(obj, part, LV_STYLE_IMG_RECOLOR);
 352:Drivers/lvgl/lvgl/src/widgets/../core/lv_obj_style_gen.h ****     return v.color;
 353:Drivers/lvgl/lvgl/src/widgets/../core/lv_obj_style_gen.h **** }
 354:Drivers/lvgl/lvgl/src/widgets/../core/lv_obj_style_gen.h **** 
 355:Drivers/lvgl/lvgl/src/widgets/../core/lv_obj_style_gen.h **** static inline lv_color_t lv_obj_get_style_img_recolor_filtered(const struct _lv_obj_t * obj, uint32
 356:Drivers/lvgl/lvgl/src/widgets/../core/lv_obj_style_gen.h **** {
 357:Drivers/lvgl/lvgl/src/widgets/../core/lv_obj_style_gen.h ****     lv_style_value_t v = _lv_obj_style_apply_color_filter(obj, part, lv_obj_get_style_prop(obj, par
 358:Drivers/lvgl/lvgl/src/widgets/../core/lv_obj_style_gen.h ****     return v.color;
ARM GAS  /tmp/cchzjiif.s 			page 23


 359:Drivers/lvgl/lvgl/src/widgets/../core/lv_obj_style_gen.h **** }
 360:Drivers/lvgl/lvgl/src/widgets/../core/lv_obj_style_gen.h **** 
 361:Drivers/lvgl/lvgl/src/widgets/../core/lv_obj_style_gen.h **** static inline lv_opa_t lv_obj_get_style_img_recolor_opa(const struct _lv_obj_t * obj, uint32_t part
 362:Drivers/lvgl/lvgl/src/widgets/../core/lv_obj_style_gen.h **** {
 363:Drivers/lvgl/lvgl/src/widgets/../core/lv_obj_style_gen.h ****     lv_style_value_t v = lv_obj_get_style_prop(obj, part, LV_STYLE_IMG_RECOLOR_OPA);
 364:Drivers/lvgl/lvgl/src/widgets/../core/lv_obj_style_gen.h ****     return (lv_opa_t)v.num;
 365:Drivers/lvgl/lvgl/src/widgets/../core/lv_obj_style_gen.h **** }
 366:Drivers/lvgl/lvgl/src/widgets/../core/lv_obj_style_gen.h **** 
 367:Drivers/lvgl/lvgl/src/widgets/../core/lv_obj_style_gen.h **** static inline lv_coord_t lv_obj_get_style_line_width(const struct _lv_obj_t * obj, uint32_t part)
 368:Drivers/lvgl/lvgl/src/widgets/../core/lv_obj_style_gen.h **** {
 369:Drivers/lvgl/lvgl/src/widgets/../core/lv_obj_style_gen.h ****     lv_style_value_t v = lv_obj_get_style_prop(obj, part, LV_STYLE_LINE_WIDTH);
 370:Drivers/lvgl/lvgl/src/widgets/../core/lv_obj_style_gen.h ****     return (lv_coord_t)v.num;
 371:Drivers/lvgl/lvgl/src/widgets/../core/lv_obj_style_gen.h **** }
 372:Drivers/lvgl/lvgl/src/widgets/../core/lv_obj_style_gen.h **** 
 373:Drivers/lvgl/lvgl/src/widgets/../core/lv_obj_style_gen.h **** static inline lv_coord_t lv_obj_get_style_line_dash_width(const struct _lv_obj_t * obj, uint32_t pa
 374:Drivers/lvgl/lvgl/src/widgets/../core/lv_obj_style_gen.h **** {
 375:Drivers/lvgl/lvgl/src/widgets/../core/lv_obj_style_gen.h ****     lv_style_value_t v = lv_obj_get_style_prop(obj, part, LV_STYLE_LINE_DASH_WIDTH);
 376:Drivers/lvgl/lvgl/src/widgets/../core/lv_obj_style_gen.h ****     return (lv_coord_t)v.num;
 377:Drivers/lvgl/lvgl/src/widgets/../core/lv_obj_style_gen.h **** }
 378:Drivers/lvgl/lvgl/src/widgets/../core/lv_obj_style_gen.h **** 
 379:Drivers/lvgl/lvgl/src/widgets/../core/lv_obj_style_gen.h **** static inline lv_coord_t lv_obj_get_style_line_dash_gap(const struct _lv_obj_t * obj, uint32_t part
 380:Drivers/lvgl/lvgl/src/widgets/../core/lv_obj_style_gen.h **** {
 381:Drivers/lvgl/lvgl/src/widgets/../core/lv_obj_style_gen.h ****     lv_style_value_t v = lv_obj_get_style_prop(obj, part, LV_STYLE_LINE_DASH_GAP);
 382:Drivers/lvgl/lvgl/src/widgets/../core/lv_obj_style_gen.h ****     return (lv_coord_t)v.num;
 383:Drivers/lvgl/lvgl/src/widgets/../core/lv_obj_style_gen.h **** }
 384:Drivers/lvgl/lvgl/src/widgets/../core/lv_obj_style_gen.h **** 
 385:Drivers/lvgl/lvgl/src/widgets/../core/lv_obj_style_gen.h **** static inline bool lv_obj_get_style_line_rounded(const struct _lv_obj_t * obj, uint32_t part)
 386:Drivers/lvgl/lvgl/src/widgets/../core/lv_obj_style_gen.h **** {
 387:Drivers/lvgl/lvgl/src/widgets/../core/lv_obj_style_gen.h ****     lv_style_value_t v = lv_obj_get_style_prop(obj, part, LV_STYLE_LINE_ROUNDED);
 388:Drivers/lvgl/lvgl/src/widgets/../core/lv_obj_style_gen.h ****     return (bool)v.num;
 389:Drivers/lvgl/lvgl/src/widgets/../core/lv_obj_style_gen.h **** }
 390:Drivers/lvgl/lvgl/src/widgets/../core/lv_obj_style_gen.h **** 
 391:Drivers/lvgl/lvgl/src/widgets/../core/lv_obj_style_gen.h **** static inline lv_color_t lv_obj_get_style_line_color(const struct _lv_obj_t * obj, uint32_t part)
 392:Drivers/lvgl/lvgl/src/widgets/../core/lv_obj_style_gen.h **** {
 393:Drivers/lvgl/lvgl/src/widgets/../core/lv_obj_style_gen.h ****     lv_style_value_t v = lv_obj_get_style_prop(obj, part, LV_STYLE_LINE_COLOR);
 394:Drivers/lvgl/lvgl/src/widgets/../core/lv_obj_style_gen.h ****     return v.color;
 395:Drivers/lvgl/lvgl/src/widgets/../core/lv_obj_style_gen.h **** }
 396:Drivers/lvgl/lvgl/src/widgets/../core/lv_obj_style_gen.h **** 
 397:Drivers/lvgl/lvgl/src/widgets/../core/lv_obj_style_gen.h **** static inline lv_color_t lv_obj_get_style_line_color_filtered(const struct _lv_obj_t * obj, uint32_
 398:Drivers/lvgl/lvgl/src/widgets/../core/lv_obj_style_gen.h **** {
 399:Drivers/lvgl/lvgl/src/widgets/../core/lv_obj_style_gen.h ****     lv_style_value_t v = _lv_obj_style_apply_color_filter(obj, part, lv_obj_get_style_prop(obj, par
 400:Drivers/lvgl/lvgl/src/widgets/../core/lv_obj_style_gen.h ****     return v.color;
 401:Drivers/lvgl/lvgl/src/widgets/../core/lv_obj_style_gen.h **** }
 402:Drivers/lvgl/lvgl/src/widgets/../core/lv_obj_style_gen.h **** 
 403:Drivers/lvgl/lvgl/src/widgets/../core/lv_obj_style_gen.h **** static inline lv_opa_t lv_obj_get_style_line_opa(const struct _lv_obj_t * obj, uint32_t part)
 404:Drivers/lvgl/lvgl/src/widgets/../core/lv_obj_style_gen.h **** {
 405:Drivers/lvgl/lvgl/src/widgets/../core/lv_obj_style_gen.h ****     lv_style_value_t v = lv_obj_get_style_prop(obj, part, LV_STYLE_LINE_OPA);
 406:Drivers/lvgl/lvgl/src/widgets/../core/lv_obj_style_gen.h ****     return (lv_opa_t)v.num;
 407:Drivers/lvgl/lvgl/src/widgets/../core/lv_obj_style_gen.h **** }
 408:Drivers/lvgl/lvgl/src/widgets/../core/lv_obj_style_gen.h **** 
 409:Drivers/lvgl/lvgl/src/widgets/../core/lv_obj_style_gen.h **** static inline lv_coord_t lv_obj_get_style_arc_width(const struct _lv_obj_t * obj, uint32_t part)
 410:Drivers/lvgl/lvgl/src/widgets/../core/lv_obj_style_gen.h **** {
 411:Drivers/lvgl/lvgl/src/widgets/../core/lv_obj_style_gen.h ****     lv_style_value_t v = lv_obj_get_style_prop(obj, part, LV_STYLE_ARC_WIDTH);
 412:Drivers/lvgl/lvgl/src/widgets/../core/lv_obj_style_gen.h ****     return (lv_coord_t)v.num;
 413:Drivers/lvgl/lvgl/src/widgets/../core/lv_obj_style_gen.h **** }
 414:Drivers/lvgl/lvgl/src/widgets/../core/lv_obj_style_gen.h **** 
 415:Drivers/lvgl/lvgl/src/widgets/../core/lv_obj_style_gen.h **** static inline bool lv_obj_get_style_arc_rounded(const struct _lv_obj_t * obj, uint32_t part)
ARM GAS  /tmp/cchzjiif.s 			page 24


 416:Drivers/lvgl/lvgl/src/widgets/../core/lv_obj_style_gen.h **** {
 417:Drivers/lvgl/lvgl/src/widgets/../core/lv_obj_style_gen.h ****     lv_style_value_t v = lv_obj_get_style_prop(obj, part, LV_STYLE_ARC_ROUNDED);
 418:Drivers/lvgl/lvgl/src/widgets/../core/lv_obj_style_gen.h ****     return (bool)v.num;
 419:Drivers/lvgl/lvgl/src/widgets/../core/lv_obj_style_gen.h **** }
 420:Drivers/lvgl/lvgl/src/widgets/../core/lv_obj_style_gen.h **** 
 421:Drivers/lvgl/lvgl/src/widgets/../core/lv_obj_style_gen.h **** static inline lv_color_t lv_obj_get_style_arc_color(const struct _lv_obj_t * obj, uint32_t part)
 422:Drivers/lvgl/lvgl/src/widgets/../core/lv_obj_style_gen.h **** {
 423:Drivers/lvgl/lvgl/src/widgets/../core/lv_obj_style_gen.h ****     lv_style_value_t v = lv_obj_get_style_prop(obj, part, LV_STYLE_ARC_COLOR);
 424:Drivers/lvgl/lvgl/src/widgets/../core/lv_obj_style_gen.h ****     return v.color;
 425:Drivers/lvgl/lvgl/src/widgets/../core/lv_obj_style_gen.h **** }
 426:Drivers/lvgl/lvgl/src/widgets/../core/lv_obj_style_gen.h **** 
 427:Drivers/lvgl/lvgl/src/widgets/../core/lv_obj_style_gen.h **** static inline lv_color_t lv_obj_get_style_arc_color_filtered(const struct _lv_obj_t * obj, uint32_t
 428:Drivers/lvgl/lvgl/src/widgets/../core/lv_obj_style_gen.h **** {
 429:Drivers/lvgl/lvgl/src/widgets/../core/lv_obj_style_gen.h ****     lv_style_value_t v = _lv_obj_style_apply_color_filter(obj, part, lv_obj_get_style_prop(obj, par
 430:Drivers/lvgl/lvgl/src/widgets/../core/lv_obj_style_gen.h ****     return v.color;
 431:Drivers/lvgl/lvgl/src/widgets/../core/lv_obj_style_gen.h **** }
 432:Drivers/lvgl/lvgl/src/widgets/../core/lv_obj_style_gen.h **** 
 433:Drivers/lvgl/lvgl/src/widgets/../core/lv_obj_style_gen.h **** static inline lv_opa_t lv_obj_get_style_arc_opa(const struct _lv_obj_t * obj, uint32_t part)
 434:Drivers/lvgl/lvgl/src/widgets/../core/lv_obj_style_gen.h **** {
 435:Drivers/lvgl/lvgl/src/widgets/../core/lv_obj_style_gen.h ****     lv_style_value_t v = lv_obj_get_style_prop(obj, part, LV_STYLE_ARC_OPA);
 436:Drivers/lvgl/lvgl/src/widgets/../core/lv_obj_style_gen.h ****     return (lv_opa_t)v.num;
 437:Drivers/lvgl/lvgl/src/widgets/../core/lv_obj_style_gen.h **** }
 438:Drivers/lvgl/lvgl/src/widgets/../core/lv_obj_style_gen.h **** 
 439:Drivers/lvgl/lvgl/src/widgets/../core/lv_obj_style_gen.h **** static inline const void * lv_obj_get_style_arc_img_src(const struct _lv_obj_t * obj, uint32_t part
 440:Drivers/lvgl/lvgl/src/widgets/../core/lv_obj_style_gen.h **** {
 441:Drivers/lvgl/lvgl/src/widgets/../core/lv_obj_style_gen.h ****     lv_style_value_t v = lv_obj_get_style_prop(obj, part, LV_STYLE_ARC_IMG_SRC);
 442:Drivers/lvgl/lvgl/src/widgets/../core/lv_obj_style_gen.h ****     return (const void *)v.ptr;
 443:Drivers/lvgl/lvgl/src/widgets/../core/lv_obj_style_gen.h **** }
 444:Drivers/lvgl/lvgl/src/widgets/../core/lv_obj_style_gen.h **** 
 445:Drivers/lvgl/lvgl/src/widgets/../core/lv_obj_style_gen.h **** static inline lv_color_t lv_obj_get_style_text_color(const struct _lv_obj_t * obj, uint32_t part)
 446:Drivers/lvgl/lvgl/src/widgets/../core/lv_obj_style_gen.h **** {
 447:Drivers/lvgl/lvgl/src/widgets/../core/lv_obj_style_gen.h ****     lv_style_value_t v = lv_obj_get_style_prop(obj, part, LV_STYLE_TEXT_COLOR);
 448:Drivers/lvgl/lvgl/src/widgets/../core/lv_obj_style_gen.h ****     return v.color;
 449:Drivers/lvgl/lvgl/src/widgets/../core/lv_obj_style_gen.h **** }
 450:Drivers/lvgl/lvgl/src/widgets/../core/lv_obj_style_gen.h **** 
 451:Drivers/lvgl/lvgl/src/widgets/../core/lv_obj_style_gen.h **** static inline lv_color_t lv_obj_get_style_text_color_filtered(const struct _lv_obj_t * obj, uint32_
 452:Drivers/lvgl/lvgl/src/widgets/../core/lv_obj_style_gen.h **** {
 453:Drivers/lvgl/lvgl/src/widgets/../core/lv_obj_style_gen.h ****     lv_style_value_t v = _lv_obj_style_apply_color_filter(obj, part, lv_obj_get_style_prop(obj, par
 454:Drivers/lvgl/lvgl/src/widgets/../core/lv_obj_style_gen.h ****     return v.color;
 455:Drivers/lvgl/lvgl/src/widgets/../core/lv_obj_style_gen.h **** }
 456:Drivers/lvgl/lvgl/src/widgets/../core/lv_obj_style_gen.h **** 
 457:Drivers/lvgl/lvgl/src/widgets/../core/lv_obj_style_gen.h **** static inline lv_opa_t lv_obj_get_style_text_opa(const struct _lv_obj_t * obj, uint32_t part)
 458:Drivers/lvgl/lvgl/src/widgets/../core/lv_obj_style_gen.h **** {
 459:Drivers/lvgl/lvgl/src/widgets/../core/lv_obj_style_gen.h ****     lv_style_value_t v = lv_obj_get_style_prop(obj, part, LV_STYLE_TEXT_OPA);
 460:Drivers/lvgl/lvgl/src/widgets/../core/lv_obj_style_gen.h ****     return (lv_opa_t)v.num;
 461:Drivers/lvgl/lvgl/src/widgets/../core/lv_obj_style_gen.h **** }
 462:Drivers/lvgl/lvgl/src/widgets/../core/lv_obj_style_gen.h **** 
 463:Drivers/lvgl/lvgl/src/widgets/../core/lv_obj_style_gen.h **** static inline const lv_font_t * lv_obj_get_style_text_font(const struct _lv_obj_t * obj, uint32_t p
 464:Drivers/lvgl/lvgl/src/widgets/../core/lv_obj_style_gen.h **** {
 465:Drivers/lvgl/lvgl/src/widgets/../core/lv_obj_style_gen.h ****     lv_style_value_t v = lv_obj_get_style_prop(obj, part, LV_STYLE_TEXT_FONT);
 109              		.loc 2 465 0
 110 000e 5722     		movs	r2, #87
 111 0010 4FF48021 		mov	r1, #262144
 112 0014 2046     		mov	r0, r4
 113              	.LVL8:
 114 0016 FFF7FEFF 		bl	lv_obj_get_style_prop
 115              	.LVL9:
ARM GAS  /tmp/cchzjiif.s 			page 25


 116 001a 0646     		mov	r6, r0
 117              	.LVL10:
 118              	.LBE75:
 119              	.LBE74:
 120              	.LBB76:
 121              	.LBB77:
 466:Drivers/lvgl/lvgl/src/widgets/../core/lv_obj_style_gen.h ****     return (const lv_font_t *)v.ptr;
 467:Drivers/lvgl/lvgl/src/widgets/../core/lv_obj_style_gen.h **** }
 468:Drivers/lvgl/lvgl/src/widgets/../core/lv_obj_style_gen.h **** 
 469:Drivers/lvgl/lvgl/src/widgets/../core/lv_obj_style_gen.h **** static inline lv_coord_t lv_obj_get_style_text_letter_space(const struct _lv_obj_t * obj, uint32_t 
 470:Drivers/lvgl/lvgl/src/widgets/../core/lv_obj_style_gen.h **** {
 471:Drivers/lvgl/lvgl/src/widgets/../core/lv_obj_style_gen.h ****     lv_style_value_t v = lv_obj_get_style_prop(obj, part, LV_STYLE_TEXT_LETTER_SPACE);
 122              		.loc 2 471 0
 123 001c 5822     		movs	r2, #88
 124 001e 4FF48021 		mov	r1, #262144
 125 0022 2046     		mov	r0, r4
 126 0024 FFF7FEFF 		bl	lv_obj_get_style_prop
 127              	.LVL11:
 472:Drivers/lvgl/lvgl/src/widgets/../core/lv_obj_style_gen.h ****     return (lv_coord_t)v.num;
 128              		.loc 2 472 0
 129 0028 04B2     		sxth	r4, r0
 130              	.LVL12:
 131              	.LBE77:
 132              	.LBE76:
 771:Drivers/lvgl/lvgl/src/widgets/lv_roller.c ****     lv_point_t size;
 133              		.loc 1 771 0
 134 002a 2846     		mov	r0, r5
 135 002c FFF7FEFF 		bl	lv_label_get_text
 136              	.LVL13:
 773:Drivers/lvgl/lvgl/src/widgets/lv_roller.c ****     return size.x;
 137              		.loc 1 773 0
 138 0030 0023     		movs	r3, #0
 139 0032 0293     		str	r3, [sp, #8]
 140 0034 41F6FF72 		movw	r2, #8191
 141 0038 0192     		str	r2, [sp, #4]
 142 003a 0093     		str	r3, [sp]
 143 003c 2346     		mov	r3, r4
 144              	.LVL14:
 145 003e 3246     		mov	r2, r6
 146 0040 0146     		mov	r1, r0
 147 0042 05A8     		add	r0, sp, #20
 148              	.LVL15:
 149 0044 FFF7FEFF 		bl	lv_txt_get_size
 150              	.LVL16:
 774:Drivers/lvgl/lvgl/src/widgets/lv_roller.c **** }
 151              		.loc 1 774 0
 152 0048 BDF91400 		ldrsh	r0, [sp, #20]
 153              	.LVL17:
 154              	.L6:
 775:Drivers/lvgl/lvgl/src/widgets/lv_roller.c **** 
 155              		.loc 1 775 0
 156 004c 06B0     		add	sp, sp, #24
 157              	.LCFI4:
 158              		.cfi_remember_state
 159              		.cfi_def_cfa_offset 16
 160              		@ sp needed
 161 004e 70BD     		pop	{r4, r5, r6, pc}
ARM GAS  /tmp/cchzjiif.s 			page 26


 162              	.LVL18:
 163              	.L7:
 164              	.LCFI5:
 165              		.cfi_restore_state
 767:Drivers/lvgl/lvgl/src/widgets/lv_roller.c **** 
 166              		.loc 1 767 0
 167 0050 0020     		movs	r0, #0
 168              	.LVL19:
 169 0052 FBE7     		b	.L6
 170              		.cfi_endproc
 171              	.LFE177:
 173              		.section	.text.inf_normalize,"ax",%progbits
 174              		.align	1
 175              		.syntax unified
 176              		.thumb
 177              		.thumb_func
 178              		.fpu fpv5-d16
 180              	inf_normalize:
 181              	.LFB175:
 731:Drivers/lvgl/lvgl/src/widgets/lv_roller.c ****     lv_roller_t * roller = (lv_roller_t *)obj;
 182              		.loc 1 731 0
 183              		.cfi_startproc
 184              		@ args = 0, pretend = 0, frame = 0
 185              		@ frame_needed = 0, uses_anonymous_args = 0
 186              	.LVL20:
 187 0000 F8B5     		push	{r3, r4, r5, r6, r7, lr}
 188              	.LCFI6:
 189              		.cfi_def_cfa_offset 24
 190              		.cfi_offset 3, -24
 191              		.cfi_offset 4, -20
 192              		.cfi_offset 5, -16
 193              		.cfi_offset 6, -12
 194              		.cfi_offset 7, -8
 195              		.cfi_offset 14, -4
 196              	.LVL21:
 734:Drivers/lvgl/lvgl/src/widgets/lv_roller.c ****         uint16_t real_id_cnt = roller->option_cnt / LV_ROLLER_INF_PAGES;
 197              		.loc 1 734 0
 198 0002 90F82A30 		ldrb	r3, [r0, #42]	@ zero_extendqisi2
 199 0006 13F0010F 		tst	r3, #1
 200 000a 00D1     		bne	.L14
 201              	.LVL22:
 202              	.L9:
 756:Drivers/lvgl/lvgl/src/widgets/lv_roller.c **** 
 203              		.loc 1 756 0
 204 000c F8BD     		pop	{r3, r4, r5, r6, r7, pc}
 205              	.LVL23:
 206              	.L14:
 207 000e 0446     		mov	r4, r0
 208              	.LBB78:
 735:Drivers/lvgl/lvgl/src/widgets/lv_roller.c ****         roller->sel_opt_id = roller->sel_opt_id % real_id_cnt;
 209              		.loc 1 735 0
 210 0010 828C     		ldrh	r2, [r0, #36]
 211 0012 244B     		ldr	r3, .L17
 212 0014 A3FB0213 		umull	r1, r3, r3, r2
 213 0018 D21A     		subs	r2, r2, r3
 214 001a 03EB5203 		add	r3, r3, r2, lsr #1
 215 001e C3F38F03 		ubfx	r3, r3, #2, #16
ARM GAS  /tmp/cchzjiif.s 			page 27


 216              	.LVL24:
 736:Drivers/lvgl/lvgl/src/widgets/lv_roller.c ****         roller->sel_opt_id += (LV_ROLLER_INF_PAGES / 2) * real_id_cnt; /*Select the middle page*/
 217              		.loc 1 736 0
 218 0022 C18C     		ldrh	r1, [r0, #38]
 219 0024 B1FBF3F2 		udiv	r2, r1, r3
 220 0028 03FB1212 		mls	r2, r3, r2, r1
 737:Drivers/lvgl/lvgl/src/widgets/lv_roller.c **** 
 221              		.loc 1 737 0
 222 002c 03EB4300 		add	r0, r3, r3, lsl #1
 223              	.LVL25:
 224 0030 80B2     		uxth	r0, r0
 225 0032 10FA82F2 		uxtah	r2, r0, r2
 226 0036 92B2     		uxth	r2, r2
 227 0038 E284     		strh	r2, [r4, #38]	@ movhi
 739:Drivers/lvgl/lvgl/src/widgets/lv_roller.c ****         roller->sel_opt_id_ori += (LV_ROLLER_INF_PAGES / 2) * real_id_cnt; /*Select the middle page
 228              		.loc 1 739 0
 229 003a B2FBF3F1 		udiv	r1, r2, r3
 230 003e 03FB1123 		mls	r3, r3, r1, r2
 231              	.LVL26:
 740:Drivers/lvgl/lvgl/src/widgets/lv_roller.c **** 
 232              		.loc 1 740 0
 233 0042 10FA83F3 		uxtah	r3, r0, r3
 234 0046 2385     		strh	r3, [r4, #40]	@ movhi
 235              	.LVL27:
 236              	.LBB79:
 237              	.LBB80:
 465:Drivers/lvgl/lvgl/src/widgets/../core/lv_obj_style_gen.h ****     return (const lv_font_t *)v.ptr;
 238              		.loc 2 465 0
 239 0048 5722     		movs	r2, #87
 240 004a 0021     		movs	r1, #0
 241 004c 2046     		mov	r0, r4
 242 004e FFF7FEFF 		bl	lv_obj_get_style_prop
 243              	.LVL28:
 244 0052 0646     		mov	r6, r0
 245              	.LVL29:
 246              	.LBE80:
 247              	.LBE79:
 248              	.LBB81:
 249              	.LBB82:
 473:Drivers/lvgl/lvgl/src/widgets/../core/lv_obj_style_gen.h **** }
 474:Drivers/lvgl/lvgl/src/widgets/../core/lv_obj_style_gen.h **** 
 475:Drivers/lvgl/lvgl/src/widgets/../core/lv_obj_style_gen.h **** static inline lv_coord_t lv_obj_get_style_text_line_space(const struct _lv_obj_t * obj, uint32_t pa
 476:Drivers/lvgl/lvgl/src/widgets/../core/lv_obj_style_gen.h **** {
 477:Drivers/lvgl/lvgl/src/widgets/../core/lv_obj_style_gen.h ****     lv_style_value_t v = lv_obj_get_style_prop(obj, part, LV_STYLE_TEXT_LINE_SPACE);
 250              		.loc 2 477 0
 251 0054 5922     		movs	r2, #89
 252 0056 0021     		movs	r1, #0
 253 0058 2046     		mov	r0, r4
 254 005a FFF7FEFF 		bl	lv_obj_get_style_prop
 255              	.LVL30:
 478:Drivers/lvgl/lvgl/src/widgets/../core/lv_obj_style_gen.h ****     return (lv_coord_t)v.num;
 256              		.loc 2 478 0
 257 005e 05B2     		sxth	r5, r0
 258              	.LVL31:
 259              	.LBE82:
 260              	.LBE81:
 261              	.LBB83:
ARM GAS  /tmp/cchzjiif.s 			page 28


 262              	.LBB84:
 263              		.file 3 "Drivers/lvgl/lvgl/src/widgets/../core/../misc/../font/lv_font.h"
   1:Drivers/lvgl/lvgl/src/widgets/../core/../misc/../font/lv_font.h **** /**
   2:Drivers/lvgl/lvgl/src/widgets/../core/../misc/../font/lv_font.h ****  * @file lv_font.h
   3:Drivers/lvgl/lvgl/src/widgets/../core/../misc/../font/lv_font.h ****  *
   4:Drivers/lvgl/lvgl/src/widgets/../core/../misc/../font/lv_font.h ****  */
   5:Drivers/lvgl/lvgl/src/widgets/../core/../misc/../font/lv_font.h **** 
   6:Drivers/lvgl/lvgl/src/widgets/../core/../misc/../font/lv_font.h **** #ifndef LV_FONT_H
   7:Drivers/lvgl/lvgl/src/widgets/../core/../misc/../font/lv_font.h **** #define LV_FONT_H
   8:Drivers/lvgl/lvgl/src/widgets/../core/../misc/../font/lv_font.h **** 
   9:Drivers/lvgl/lvgl/src/widgets/../core/../misc/../font/lv_font.h **** #ifdef __cplusplus
  10:Drivers/lvgl/lvgl/src/widgets/../core/../misc/../font/lv_font.h **** extern "C" {
  11:Drivers/lvgl/lvgl/src/widgets/../core/../misc/../font/lv_font.h **** #endif
  12:Drivers/lvgl/lvgl/src/widgets/../core/../misc/../font/lv_font.h **** 
  13:Drivers/lvgl/lvgl/src/widgets/../core/../misc/../font/lv_font.h **** /*********************
  14:Drivers/lvgl/lvgl/src/widgets/../core/../misc/../font/lv_font.h ****  *      INCLUDES
  15:Drivers/lvgl/lvgl/src/widgets/../core/../misc/../font/lv_font.h ****  *********************/
  16:Drivers/lvgl/lvgl/src/widgets/../core/../misc/../font/lv_font.h **** #include "../lv_conf_internal.h"
  17:Drivers/lvgl/lvgl/src/widgets/../core/../misc/../font/lv_font.h **** #include <stdint.h>
  18:Drivers/lvgl/lvgl/src/widgets/../core/../misc/../font/lv_font.h **** #include <stddef.h>
  19:Drivers/lvgl/lvgl/src/widgets/../core/../misc/../font/lv_font.h **** #include <stdbool.h>
  20:Drivers/lvgl/lvgl/src/widgets/../core/../misc/../font/lv_font.h **** 
  21:Drivers/lvgl/lvgl/src/widgets/../core/../misc/../font/lv_font.h **** #include "lv_symbol_def.h"
  22:Drivers/lvgl/lvgl/src/widgets/../core/../misc/../font/lv_font.h **** #include "../misc/lv_area.h"
  23:Drivers/lvgl/lvgl/src/widgets/../core/../misc/../font/lv_font.h **** 
  24:Drivers/lvgl/lvgl/src/widgets/../core/../misc/../font/lv_font.h **** /*********************
  25:Drivers/lvgl/lvgl/src/widgets/../core/../misc/../font/lv_font.h ****  *      DEFINES
  26:Drivers/lvgl/lvgl/src/widgets/../core/../misc/../font/lv_font.h ****  *********************/
  27:Drivers/lvgl/lvgl/src/widgets/../core/../misc/../font/lv_font.h **** 
  28:Drivers/lvgl/lvgl/src/widgets/../core/../misc/../font/lv_font.h **** /* imgfont identifier */
  29:Drivers/lvgl/lvgl/src/widgets/../core/../misc/../font/lv_font.h **** #define LV_IMGFONT_BPP 9
  30:Drivers/lvgl/lvgl/src/widgets/../core/../misc/../font/lv_font.h **** 
  31:Drivers/lvgl/lvgl/src/widgets/../core/../misc/../font/lv_font.h **** /**********************
  32:Drivers/lvgl/lvgl/src/widgets/../core/../misc/../font/lv_font.h ****  *      TYPEDEFS
  33:Drivers/lvgl/lvgl/src/widgets/../core/../misc/../font/lv_font.h ****  **********************/
  34:Drivers/lvgl/lvgl/src/widgets/../core/../misc/../font/lv_font.h **** 
  35:Drivers/lvgl/lvgl/src/widgets/../core/../misc/../font/lv_font.h **** /*------------------
  36:Drivers/lvgl/lvgl/src/widgets/../core/../misc/../font/lv_font.h ****  * General types
  37:Drivers/lvgl/lvgl/src/widgets/../core/../misc/../font/lv_font.h ****  *-----------------*/
  38:Drivers/lvgl/lvgl/src/widgets/../core/../misc/../font/lv_font.h **** 
  39:Drivers/lvgl/lvgl/src/widgets/../core/../misc/../font/lv_font.h **** struct _lv_font_t;
  40:Drivers/lvgl/lvgl/src/widgets/../core/../misc/../font/lv_font.h **** /** Describes the properties of a glyph.*/
  41:Drivers/lvgl/lvgl/src/widgets/../core/../misc/../font/lv_font.h **** typedef struct {
  42:Drivers/lvgl/lvgl/src/widgets/../core/../misc/../font/lv_font.h ****     const struct _lv_font_t *
  43:Drivers/lvgl/lvgl/src/widgets/../core/../misc/../font/lv_font.h ****         resolved_font; /**< Pointer to a font where the glyph was actually found after handling fal
  44:Drivers/lvgl/lvgl/src/widgets/../core/../misc/../font/lv_font.h ****     uint16_t adv_w; /**< The glyph needs this space. Draw the next glyph after this width.*/
  45:Drivers/lvgl/lvgl/src/widgets/../core/../misc/../font/lv_font.h ****     uint16_t box_w; /**< Width of the glyph's bounding box*/
  46:Drivers/lvgl/lvgl/src/widgets/../core/../misc/../font/lv_font.h ****     uint16_t box_h; /**< Height of the glyph's bounding box*/
  47:Drivers/lvgl/lvgl/src/widgets/../core/../misc/../font/lv_font.h ****     int16_t ofs_x;  /**< x offset of the bounding box*/
  48:Drivers/lvgl/lvgl/src/widgets/../core/../misc/../font/lv_font.h ****     int16_t ofs_y;  /**< y offset of the bounding box*/
  49:Drivers/lvgl/lvgl/src/widgets/../core/../misc/../font/lv_font.h ****     uint8_t bpp: 4;  /**< Bit-per-pixel: 1, 2, 4, 8*/
  50:Drivers/lvgl/lvgl/src/widgets/../core/../misc/../font/lv_font.h ****     uint8_t is_placeholder: 1; /** Glyph is missing. But placeholder will still be displayed */
  51:Drivers/lvgl/lvgl/src/widgets/../core/../misc/../font/lv_font.h **** } lv_font_glyph_dsc_t;
  52:Drivers/lvgl/lvgl/src/widgets/../core/../misc/../font/lv_font.h **** 
  53:Drivers/lvgl/lvgl/src/widgets/../core/../misc/../font/lv_font.h **** /** The bitmaps might be upscaled by 3 to achieve subpixel rendering.*/
  54:Drivers/lvgl/lvgl/src/widgets/../core/../misc/../font/lv_font.h **** enum {
  55:Drivers/lvgl/lvgl/src/widgets/../core/../misc/../font/lv_font.h ****     LV_FONT_SUBPX_NONE,
ARM GAS  /tmp/cchzjiif.s 			page 29


  56:Drivers/lvgl/lvgl/src/widgets/../core/../misc/../font/lv_font.h ****     LV_FONT_SUBPX_HOR,
  57:Drivers/lvgl/lvgl/src/widgets/../core/../misc/../font/lv_font.h ****     LV_FONT_SUBPX_VER,
  58:Drivers/lvgl/lvgl/src/widgets/../core/../misc/../font/lv_font.h ****     LV_FONT_SUBPX_BOTH,
  59:Drivers/lvgl/lvgl/src/widgets/../core/../misc/../font/lv_font.h **** };
  60:Drivers/lvgl/lvgl/src/widgets/../core/../misc/../font/lv_font.h **** 
  61:Drivers/lvgl/lvgl/src/widgets/../core/../misc/../font/lv_font.h **** typedef uint8_t lv_font_subpx_t;
  62:Drivers/lvgl/lvgl/src/widgets/../core/../misc/../font/lv_font.h **** 
  63:Drivers/lvgl/lvgl/src/widgets/../core/../misc/../font/lv_font.h **** /** Describe the properties of a font*/
  64:Drivers/lvgl/lvgl/src/widgets/../core/../misc/../font/lv_font.h **** typedef struct _lv_font_t {
  65:Drivers/lvgl/lvgl/src/widgets/../core/../misc/../font/lv_font.h ****     /** Get a glyph's descriptor from a font*/
  66:Drivers/lvgl/lvgl/src/widgets/../core/../misc/../font/lv_font.h ****     bool (*get_glyph_dsc)(const struct _lv_font_t *, lv_font_glyph_dsc_t *, uint32_t letter, uint32
  67:Drivers/lvgl/lvgl/src/widgets/../core/../misc/../font/lv_font.h **** 
  68:Drivers/lvgl/lvgl/src/widgets/../core/../misc/../font/lv_font.h ****     /** Get a glyph's bitmap from a font*/
  69:Drivers/lvgl/lvgl/src/widgets/../core/../misc/../font/lv_font.h ****     const uint8_t * (*get_glyph_bitmap)(const struct _lv_font_t *, uint32_t);
  70:Drivers/lvgl/lvgl/src/widgets/../core/../misc/../font/lv_font.h **** 
  71:Drivers/lvgl/lvgl/src/widgets/../core/../misc/../font/lv_font.h ****     /*Pointer to the font in a font pack (must have the same line height)*/
  72:Drivers/lvgl/lvgl/src/widgets/../core/../misc/../font/lv_font.h ****     lv_coord_t line_height;         /**< The real line height where any text fits*/
  73:Drivers/lvgl/lvgl/src/widgets/../core/../misc/../font/lv_font.h ****     lv_coord_t base_line;           /**< Base line measured from the top of the line_height*/
  74:Drivers/lvgl/lvgl/src/widgets/../core/../misc/../font/lv_font.h ****     uint8_t subpx  : 2;             /**< An element of `lv_font_subpx_t`*/
  75:Drivers/lvgl/lvgl/src/widgets/../core/../misc/../font/lv_font.h **** 
  76:Drivers/lvgl/lvgl/src/widgets/../core/../misc/../font/lv_font.h ****     int8_t underline_position;      /**< Distance between the top of the underline and base line (<
  77:Drivers/lvgl/lvgl/src/widgets/../core/../misc/../font/lv_font.h ****     int8_t underline_thickness;     /**< Thickness of the underline*/
  78:Drivers/lvgl/lvgl/src/widgets/../core/../misc/../font/lv_font.h **** 
  79:Drivers/lvgl/lvgl/src/widgets/../core/../misc/../font/lv_font.h ****     const void * dsc;               /**< Store implementation specific or run_time data or caching 
  80:Drivers/lvgl/lvgl/src/widgets/../core/../misc/../font/lv_font.h ****     const struct _lv_font_t * fallback;   /**< Fallback font for missing glyph. Resolved recursivel
  81:Drivers/lvgl/lvgl/src/widgets/../core/../misc/../font/lv_font.h **** #if LV_USE_USER_DATA
  82:Drivers/lvgl/lvgl/src/widgets/../core/../misc/../font/lv_font.h ****     void * user_data;               /**< Custom user data for font.*/
  83:Drivers/lvgl/lvgl/src/widgets/../core/../misc/../font/lv_font.h **** #endif
  84:Drivers/lvgl/lvgl/src/widgets/../core/../misc/../font/lv_font.h **** } lv_font_t;
  85:Drivers/lvgl/lvgl/src/widgets/../core/../misc/../font/lv_font.h **** 
  86:Drivers/lvgl/lvgl/src/widgets/../core/../misc/../font/lv_font.h **** /**********************
  87:Drivers/lvgl/lvgl/src/widgets/../core/../misc/../font/lv_font.h ****  * GLOBAL PROTOTYPES
  88:Drivers/lvgl/lvgl/src/widgets/../core/../misc/../font/lv_font.h ****  **********************/
  89:Drivers/lvgl/lvgl/src/widgets/../core/../misc/../font/lv_font.h **** 
  90:Drivers/lvgl/lvgl/src/widgets/../core/../misc/../font/lv_font.h **** /**
  91:Drivers/lvgl/lvgl/src/widgets/../core/../misc/../font/lv_font.h ****  * Return with the bitmap of a font.
  92:Drivers/lvgl/lvgl/src/widgets/../core/../misc/../font/lv_font.h ****  * @param font_p pointer to a font
  93:Drivers/lvgl/lvgl/src/widgets/../core/../misc/../font/lv_font.h ****  * @param letter a UNICODE character code
  94:Drivers/lvgl/lvgl/src/widgets/../core/../misc/../font/lv_font.h ****  * @return pointer to the bitmap of the letter
  95:Drivers/lvgl/lvgl/src/widgets/../core/../misc/../font/lv_font.h ****  */
  96:Drivers/lvgl/lvgl/src/widgets/../core/../misc/../font/lv_font.h **** const uint8_t * lv_font_get_glyph_bitmap(const lv_font_t * font_p, uint32_t letter);
  97:Drivers/lvgl/lvgl/src/widgets/../core/../misc/../font/lv_font.h **** 
  98:Drivers/lvgl/lvgl/src/widgets/../core/../misc/../font/lv_font.h **** /**
  99:Drivers/lvgl/lvgl/src/widgets/../core/../misc/../font/lv_font.h ****  * Get the descriptor of a glyph
 100:Drivers/lvgl/lvgl/src/widgets/../core/../misc/../font/lv_font.h ****  * @param font_p pointer to font
 101:Drivers/lvgl/lvgl/src/widgets/../core/../misc/../font/lv_font.h ****  * @param dsc_out store the result descriptor here
 102:Drivers/lvgl/lvgl/src/widgets/../core/../misc/../font/lv_font.h ****  * @param letter a UNICODE letter code
 103:Drivers/lvgl/lvgl/src/widgets/../core/../misc/../font/lv_font.h ****  * @param letter_next the next letter after `letter`. Used for kerning
 104:Drivers/lvgl/lvgl/src/widgets/../core/../misc/../font/lv_font.h ****  * @return true: descriptor is successfully loaded into `dsc_out`.
 105:Drivers/lvgl/lvgl/src/widgets/../core/../misc/../font/lv_font.h ****  *         false: the letter was not found, no data is loaded to `dsc_out`
 106:Drivers/lvgl/lvgl/src/widgets/../core/../misc/../font/lv_font.h ****  */
 107:Drivers/lvgl/lvgl/src/widgets/../core/../misc/../font/lv_font.h **** bool lv_font_get_glyph_dsc(const lv_font_t * font_p, lv_font_glyph_dsc_t * dsc_out, uint32_t letter
 108:Drivers/lvgl/lvgl/src/widgets/../core/../misc/../font/lv_font.h ****                            uint32_t letter_next);
 109:Drivers/lvgl/lvgl/src/widgets/../core/../misc/../font/lv_font.h **** 
 110:Drivers/lvgl/lvgl/src/widgets/../core/../misc/../font/lv_font.h **** /**
 111:Drivers/lvgl/lvgl/src/widgets/../core/../misc/../font/lv_font.h ****  * Get the width of a glyph with kerning
 112:Drivers/lvgl/lvgl/src/widgets/../core/../misc/../font/lv_font.h ****  * @param font pointer to a font
ARM GAS  /tmp/cchzjiif.s 			page 30


 113:Drivers/lvgl/lvgl/src/widgets/../core/../misc/../font/lv_font.h ****  * @param letter a UNICODE letter
 114:Drivers/lvgl/lvgl/src/widgets/../core/../misc/../font/lv_font.h ****  * @param letter_next the next letter after `letter`. Used for kerning
 115:Drivers/lvgl/lvgl/src/widgets/../core/../misc/../font/lv_font.h ****  * @return the width of the glyph
 116:Drivers/lvgl/lvgl/src/widgets/../core/../misc/../font/lv_font.h ****  */
 117:Drivers/lvgl/lvgl/src/widgets/../core/../misc/../font/lv_font.h **** uint16_t lv_font_get_glyph_width(const lv_font_t * font, uint32_t letter, uint32_t letter_next);
 118:Drivers/lvgl/lvgl/src/widgets/../core/../misc/../font/lv_font.h **** 
 119:Drivers/lvgl/lvgl/src/widgets/../core/../misc/../font/lv_font.h **** /**
 120:Drivers/lvgl/lvgl/src/widgets/../core/../misc/../font/lv_font.h ****  * Get the line height of a font. All characters fit into this height
 121:Drivers/lvgl/lvgl/src/widgets/../core/../misc/../font/lv_font.h ****  * @param font_p pointer to a font
 122:Drivers/lvgl/lvgl/src/widgets/../core/../misc/../font/lv_font.h ****  * @return the height of a font
 123:Drivers/lvgl/lvgl/src/widgets/../core/../misc/../font/lv_font.h ****  */
 124:Drivers/lvgl/lvgl/src/widgets/../core/../misc/../font/lv_font.h **** static inline lv_coord_t lv_font_get_line_height(const lv_font_t * font_p)
 125:Drivers/lvgl/lvgl/src/widgets/../core/../misc/../font/lv_font.h **** {
 126:Drivers/lvgl/lvgl/src/widgets/../core/../misc/../font/lv_font.h ****     return font_p->line_height;
 264              		.loc 3 126 0
 265 0060 B6F90860 		ldrsh	r6, [r6, #8]
 266              	.LVL32:
 267              	.LBE84:
 268              	.LBE83:
 746:Drivers/lvgl/lvgl/src/widgets/lv_roller.c **** 
 269              		.loc 1 746 0
 270 0064 2046     		mov	r0, r4
 271 0066 FFF7FEFF 		bl	lv_obj_get_content_height
 272              	.LVL33:
 273 006a 0746     		mov	r7, r0
 274              	.LVL34:
 748:Drivers/lvgl/lvgl/src/widgets/lv_roller.c **** 
 275              		.loc 1 748 0
 276 006c 2046     		mov	r0, r4
 277 006e FFF7FEFF 		bl	get_label
 278              	.LVL35:
 751:Drivers/lvgl/lvgl/src/widgets/lv_roller.c ****         lv_coord_t mid_y1 = h / 2 - font_h / 2;
 279              		.loc 1 751 0
 280 0072 E18C     		ldrh	r1, [r4, #38]
 281 0074 3544     		add	r5, r5, r6
 282 0076 15FB01F1 		smulbb	r1, r5, r1
 283 007a 8DB2     		uxth	r5, r1
 284              	.LVL36:
 752:Drivers/lvgl/lvgl/src/widgets/lv_roller.c ****         lv_coord_t new_y = mid_y1 - sel_y1;
 285              		.loc 1 752 0
 286 007c 3B46     		mov	r3, r7
 287 007e 002F     		cmp	r7, #0
 288 0080 0BDB     		blt	.L15
 289              	.L11:
 290 0082 5910     		asrs	r1, r3, #1
 291 0084 3346     		mov	r3, r6
 292 0086 002E     		cmp	r6, #0
 293 0088 09DB     		blt	.L16
 294              	.L12:
 295 008a A1EB6301 		sub	r1, r1, r3, asr #1
 296 008e 89B2     		uxth	r1, r1
 297              	.LVL37:
 753:Drivers/lvgl/lvgl/src/widgets/lv_roller.c ****         lv_obj_set_y(label, new_y);
 298              		.loc 1 753 0
 299 0090 491B     		subs	r1, r1, r5
 300              	.LVL38:
 754:Drivers/lvgl/lvgl/src/widgets/lv_roller.c ****     }
ARM GAS  /tmp/cchzjiif.s 			page 31


 301              		.loc 1 754 0
 302 0092 09B2     		sxth	r1, r1
 303 0094 FFF7FEFF 		bl	lv_obj_set_y
 304              	.LVL39:
 305              	.LBE78:
 756:Drivers/lvgl/lvgl/src/widgets/lv_roller.c **** 
 306              		.loc 1 756 0
 307 0098 B8E7     		b	.L9
 308              	.LVL40:
 309              	.L15:
 310              	.LBB85:
 752:Drivers/lvgl/lvgl/src/widgets/lv_roller.c ****         lv_coord_t new_y = mid_y1 - sel_y1;
 311              		.loc 1 752 0
 312 009a 7B1C     		adds	r3, r7, #1
 313 009c F1E7     		b	.L11
 314              	.L16:
 315 009e 731C     		adds	r3, r6, #1
 316 00a0 F3E7     		b	.L12
 317              	.L18:
 318 00a2 00BF     		.align	2
 319              	.L17:
 320 00a4 25499224 		.word	613566757
 321              	.LBE85:
 322              		.cfi_endproc
 323              	.LFE175:
 325              		.section	.text.scroll_anim_ready_cb,"ax",%progbits
 326              		.align	1
 327              		.syntax unified
 328              		.thumb
 329              		.thumb_func
 330              		.fpu fpv5-d16
 332              	scroll_anim_ready_cb:
 333              	.LFB178:
 778:Drivers/lvgl/lvgl/src/widgets/lv_roller.c ****     lv_obj_t * obj = lv_obj_get_parent(a->var); /*The label is animated*/
 334              		.loc 1 778 0
 335              		.cfi_startproc
 336              		@ args = 0, pretend = 0, frame = 0
 337              		@ frame_needed = 0, uses_anonymous_args = 0
 338              	.LVL41:
 339 0000 08B5     		push	{r3, lr}
 340              	.LCFI7:
 341              		.cfi_def_cfa_offset 8
 342              		.cfi_offset 3, -8
 343              		.cfi_offset 14, -4
 779:Drivers/lvgl/lvgl/src/widgets/lv_roller.c ****     inf_normalize(obj);
 344              		.loc 1 779 0
 345 0002 0068     		ldr	r0, [r0]
 346              	.LVL42:
 347 0004 FFF7FEFF 		bl	lv_obj_get_parent
 348              	.LVL43:
 780:Drivers/lvgl/lvgl/src/widgets/lv_roller.c **** }
 349              		.loc 1 780 0
 350 0008 FFF7FEFF 		bl	inf_normalize
 351              	.LVL44:
 781:Drivers/lvgl/lvgl/src/widgets/lv_roller.c **** 
 352              		.loc 1 781 0
 353 000c 08BD     		pop	{r3, pc}
ARM GAS  /tmp/cchzjiif.s 			page 32


 354              		.cfi_endproc
 355              	.LFE178:
 357              		.section	.text.refr_position,"ax",%progbits
 358              		.align	1
 359              		.syntax unified
 360              		.thumb
 361              		.thumb_func
 362              		.fpu fpv5-d16
 364              	refr_position:
 365              	.LFB173:
 599:Drivers/lvgl/lvgl/src/widgets/lv_roller.c ****     lv_obj_t * label = get_label(obj);
 366              		.loc 1 599 0
 367              		.cfi_startproc
 368              		@ args = 0, pretend = 0, frame = 72
 369              		@ frame_needed = 0, uses_anonymous_args = 0
 370              	.LVL45:
 371 0000 2DE9F04F 		push	{r4, r5, r6, r7, r8, r9, r10, fp, lr}
 372              	.LCFI8:
 373              		.cfi_def_cfa_offset 36
 374              		.cfi_offset 4, -36
 375              		.cfi_offset 5, -32
 376              		.cfi_offset 6, -28
 377              		.cfi_offset 7, -24
 378              		.cfi_offset 8, -20
 379              		.cfi_offset 9, -16
 380              		.cfi_offset 10, -12
 381              		.cfi_offset 11, -8
 382              		.cfi_offset 14, -4
 383 0004 93B0     		sub	sp, sp, #76
 384              	.LCFI9:
 385              		.cfi_def_cfa_offset 112
 386 0006 0446     		mov	r4, r0
 387 0008 8B46     		mov	fp, r1
 600:Drivers/lvgl/lvgl/src/widgets/lv_roller.c ****     if(label == NULL) return;
 388              		.loc 1 600 0
 389 000a FFF7FEFF 		bl	get_label
 390              	.LVL46:
 601:Drivers/lvgl/lvgl/src/widgets/lv_roller.c **** 
 391              		.loc 1 601 0
 392 000e 0028     		cmp	r0, #0
 393 0010 5CD0     		beq	.L21
 394 0012 0646     		mov	r6, r0
 603:Drivers/lvgl/lvgl/src/widgets/lv_roller.c **** 
 395              		.loc 1 603 0
 396 0014 FFF7FEFF 		bl	lv_label_get_text
 397              	.LVL47:
 398 0018 0246     		mov	r2, r0
 399 001a 0021     		movs	r1, #0
 400 001c 3046     		mov	r0, r6
 401 001e FFF7FEFF 		bl	lv_obj_calculate_style_text_align
 402              	.LVL48:
 605:Drivers/lvgl/lvgl/src/widgets/lv_roller.c ****         case LV_TEXT_ALIGN_CENTER:
 403              		.loc 1 605 0
 404 0022 0228     		cmp	r0, #2
 405 0024 55D0     		beq	.L24
 406 0026 0328     		cmp	r0, #3
 407 0028 64D0     		beq	.L25
ARM GAS  /tmp/cchzjiif.s 			page 33


 408 002a 0128     		cmp	r0, #1
 409 002c 70D0     		beq	.L33
 410              	.LVL49:
 411              	.L23:
 412              	.LBB86:
 413              	.LBB87:
 465:Drivers/lvgl/lvgl/src/widgets/../core/lv_obj_style_gen.h ****     return (const lv_font_t *)v.ptr;
 414              		.loc 2 465 0
 415 002e 5722     		movs	r2, #87
 416 0030 0021     		movs	r1, #0
 417 0032 2046     		mov	r0, r4
 418 0034 FFF7FEFF 		bl	lv_obj_get_style_prop
 419              	.LVL50:
 420 0038 0546     		mov	r5, r0
 421              	.LVL51:
 422              	.LBE87:
 423              	.LBE86:
 424              	.LBB88:
 425              	.LBB89:
 477:Drivers/lvgl/lvgl/src/widgets/../core/lv_obj_style_gen.h ****     return (lv_coord_t)v.num;
 426              		.loc 2 477 0
 427 003a 5922     		movs	r2, #89
 428 003c 0021     		movs	r1, #0
 429 003e 2046     		mov	r0, r4
 430 0040 FFF7FEFF 		bl	lv_obj_get_style_prop
 431              	.LVL52:
 432              		.loc 2 478 0
 433 0044 0FFA80F8 		sxth	r8, r0
 434              	.LVL53:
 435              	.LBE89:
 436              	.LBE88:
 437              	.LBB90:
 438              	.LBB91:
 439              		.loc 3 126 0
 440 0048 B5F90890 		ldrsh	r9, [r5, #8]
 441              	.LBE91:
 442              	.LBE90:
 621:Drivers/lvgl/lvgl/src/widgets/lv_roller.c ****     uint16_t anim_time             = lv_obj_get_style_anim_time(obj, LV_PART_MAIN);
 443              		.loc 1 621 0
 444 004c 2046     		mov	r0, r4
 445 004e FFF7FEFF 		bl	lv_obj_get_content_height
 446              	.LVL54:
 447 0052 8246     		mov	r10, r0
 448              	.LVL55:
 449              	.LBB92:
 450              	.LBB93:
 479:Drivers/lvgl/lvgl/src/widgets/../core/lv_obj_style_gen.h **** }
 480:Drivers/lvgl/lvgl/src/widgets/../core/lv_obj_style_gen.h **** 
 481:Drivers/lvgl/lvgl/src/widgets/../core/lv_obj_style_gen.h **** static inline lv_text_decor_t lv_obj_get_style_text_decor(const struct _lv_obj_t * obj, uint32_t pa
 482:Drivers/lvgl/lvgl/src/widgets/../core/lv_obj_style_gen.h **** {
 483:Drivers/lvgl/lvgl/src/widgets/../core/lv_obj_style_gen.h ****     lv_style_value_t v = lv_obj_get_style_prop(obj, part, LV_STYLE_TEXT_DECOR);
 484:Drivers/lvgl/lvgl/src/widgets/../core/lv_obj_style_gen.h ****     return (lv_text_decor_t)v.num;
 485:Drivers/lvgl/lvgl/src/widgets/../core/lv_obj_style_gen.h **** }
 486:Drivers/lvgl/lvgl/src/widgets/../core/lv_obj_style_gen.h **** 
 487:Drivers/lvgl/lvgl/src/widgets/../core/lv_obj_style_gen.h **** static inline lv_text_align_t lv_obj_get_style_text_align(const struct _lv_obj_t * obj, uint32_t pa
 488:Drivers/lvgl/lvgl/src/widgets/../core/lv_obj_style_gen.h **** {
 489:Drivers/lvgl/lvgl/src/widgets/../core/lv_obj_style_gen.h ****     lv_style_value_t v = lv_obj_get_style_prop(obj, part, LV_STYLE_TEXT_ALIGN);
ARM GAS  /tmp/cchzjiif.s 			page 34


 490:Drivers/lvgl/lvgl/src/widgets/../core/lv_obj_style_gen.h ****     return (lv_text_align_t)v.num;
 491:Drivers/lvgl/lvgl/src/widgets/../core/lv_obj_style_gen.h **** }
 492:Drivers/lvgl/lvgl/src/widgets/../core/lv_obj_style_gen.h **** 
 493:Drivers/lvgl/lvgl/src/widgets/../core/lv_obj_style_gen.h **** static inline lv_coord_t lv_obj_get_style_radius(const struct _lv_obj_t * obj, uint32_t part)
 494:Drivers/lvgl/lvgl/src/widgets/../core/lv_obj_style_gen.h **** {
 495:Drivers/lvgl/lvgl/src/widgets/../core/lv_obj_style_gen.h ****     lv_style_value_t v = lv_obj_get_style_prop(obj, part, LV_STYLE_RADIUS);
 496:Drivers/lvgl/lvgl/src/widgets/../core/lv_obj_style_gen.h ****     return (lv_coord_t)v.num;
 497:Drivers/lvgl/lvgl/src/widgets/../core/lv_obj_style_gen.h **** }
 498:Drivers/lvgl/lvgl/src/widgets/../core/lv_obj_style_gen.h **** 
 499:Drivers/lvgl/lvgl/src/widgets/../core/lv_obj_style_gen.h **** static inline bool lv_obj_get_style_clip_corner(const struct _lv_obj_t * obj, uint32_t part)
 500:Drivers/lvgl/lvgl/src/widgets/../core/lv_obj_style_gen.h **** {
 501:Drivers/lvgl/lvgl/src/widgets/../core/lv_obj_style_gen.h ****     lv_style_value_t v = lv_obj_get_style_prop(obj, part, LV_STYLE_CLIP_CORNER);
 502:Drivers/lvgl/lvgl/src/widgets/../core/lv_obj_style_gen.h ****     return (bool)v.num;
 503:Drivers/lvgl/lvgl/src/widgets/../core/lv_obj_style_gen.h **** }
 504:Drivers/lvgl/lvgl/src/widgets/../core/lv_obj_style_gen.h **** 
 505:Drivers/lvgl/lvgl/src/widgets/../core/lv_obj_style_gen.h **** static inline lv_opa_t lv_obj_get_style_opa(const struct _lv_obj_t * obj, uint32_t part)
 506:Drivers/lvgl/lvgl/src/widgets/../core/lv_obj_style_gen.h **** {
 507:Drivers/lvgl/lvgl/src/widgets/../core/lv_obj_style_gen.h ****     lv_style_value_t v = lv_obj_get_style_prop(obj, part, LV_STYLE_OPA);
 508:Drivers/lvgl/lvgl/src/widgets/../core/lv_obj_style_gen.h ****     return (lv_opa_t)v.num;
 509:Drivers/lvgl/lvgl/src/widgets/../core/lv_obj_style_gen.h **** }
 510:Drivers/lvgl/lvgl/src/widgets/../core/lv_obj_style_gen.h **** 
 511:Drivers/lvgl/lvgl/src/widgets/../core/lv_obj_style_gen.h **** static inline const lv_color_filter_dsc_t * lv_obj_get_style_color_filter_dsc(const struct _lv_obj_
 512:Drivers/lvgl/lvgl/src/widgets/../core/lv_obj_style_gen.h **** {
 513:Drivers/lvgl/lvgl/src/widgets/../core/lv_obj_style_gen.h ****     lv_style_value_t v = lv_obj_get_style_prop(obj, part, LV_STYLE_COLOR_FILTER_DSC);
 514:Drivers/lvgl/lvgl/src/widgets/../core/lv_obj_style_gen.h ****     return (const lv_color_filter_dsc_t *)v.ptr;
 515:Drivers/lvgl/lvgl/src/widgets/../core/lv_obj_style_gen.h **** }
 516:Drivers/lvgl/lvgl/src/widgets/../core/lv_obj_style_gen.h **** 
 517:Drivers/lvgl/lvgl/src/widgets/../core/lv_obj_style_gen.h **** static inline lv_opa_t lv_obj_get_style_color_filter_opa(const struct _lv_obj_t * obj, uint32_t par
 518:Drivers/lvgl/lvgl/src/widgets/../core/lv_obj_style_gen.h **** {
 519:Drivers/lvgl/lvgl/src/widgets/../core/lv_obj_style_gen.h ****     lv_style_value_t v = lv_obj_get_style_prop(obj, part, LV_STYLE_COLOR_FILTER_OPA);
 520:Drivers/lvgl/lvgl/src/widgets/../core/lv_obj_style_gen.h ****     return (lv_opa_t)v.num;
 521:Drivers/lvgl/lvgl/src/widgets/../core/lv_obj_style_gen.h **** }
 522:Drivers/lvgl/lvgl/src/widgets/../core/lv_obj_style_gen.h **** 
 523:Drivers/lvgl/lvgl/src/widgets/../core/lv_obj_style_gen.h **** static inline const lv_anim_t * lv_obj_get_style_anim(const struct _lv_obj_t * obj, uint32_t part)
 524:Drivers/lvgl/lvgl/src/widgets/../core/lv_obj_style_gen.h **** {
 525:Drivers/lvgl/lvgl/src/widgets/../core/lv_obj_style_gen.h ****     lv_style_value_t v = lv_obj_get_style_prop(obj, part, LV_STYLE_ANIM);
 526:Drivers/lvgl/lvgl/src/widgets/../core/lv_obj_style_gen.h ****     return (const lv_anim_t *)v.ptr;
 527:Drivers/lvgl/lvgl/src/widgets/../core/lv_obj_style_gen.h **** }
 528:Drivers/lvgl/lvgl/src/widgets/../core/lv_obj_style_gen.h **** 
 529:Drivers/lvgl/lvgl/src/widgets/../core/lv_obj_style_gen.h **** static inline uint32_t lv_obj_get_style_anim_time(const struct _lv_obj_t * obj, uint32_t part)
 530:Drivers/lvgl/lvgl/src/widgets/../core/lv_obj_style_gen.h **** {
 531:Drivers/lvgl/lvgl/src/widgets/../core/lv_obj_style_gen.h ****     lv_style_value_t v = lv_obj_get_style_prop(obj, part, LV_STYLE_ANIM_TIME);
 451              		.loc 2 531 0
 452 0054 6422     		movs	r2, #100
 453 0056 0021     		movs	r1, #0
 454 0058 2046     		mov	r0, r4
 455 005a FFF7FEFF 		bl	lv_obj_get_style_prop
 456              	.LVL56:
 457 005e 0746     		mov	r7, r0
 458              	.LVL57:
 459              	.LBE93:
 460              	.LBE92:
 622:Drivers/lvgl/lvgl/src/widgets/lv_roller.c **** 
 461              		.loc 1 622 0
 462 0060 85B2     		uxth	r5, r0
 463              	.LVL58:
 626:Drivers/lvgl/lvgl/src/widgets/lv_roller.c ****         inf_normalize(obj);
ARM GAS  /tmp/cchzjiif.s 			page 35


 464              		.loc 1 626 0
 465 0062 B5FA85F5 		clz	r5, r5
 466              	.LVL59:
 467 0066 6D09     		lsrs	r5, r5, #5
 468 0068 BBF1000F 		cmp	fp, #0
 469 006c 08BF     		it	eq
 470 006e 0125     		moveq	r5, #1
 471 0070 002D     		cmp	r5, #0
 472 0072 52D1     		bne	.L34
 473              	.LVL60:
 474              	.L28:
 630:Drivers/lvgl/lvgl/src/widgets/lv_roller.c ****     lv_coord_t sel_y1 = id * (font_h + line_space);
 475              		.loc 1 630 0
 476 0074 E48C     		ldrh	r4, [r4, #38]
 477              	.LVL61:
 631:Drivers/lvgl/lvgl/src/widgets/lv_roller.c ****     lv_coord_t mid_y1 = h / 2 - font_h / 2;
 478              		.loc 1 631 0
 479 0076 C844     		add	r8, r8, r9
 480 0078 18FB04F4 		smulbb	r4, r8, r4
 481              	.LVL62:
 482 007c 1FFA84F8 		uxth	r8, r4
 483              	.LVL63:
 632:Drivers/lvgl/lvgl/src/widgets/lv_roller.c **** 
 484              		.loc 1 632 0
 485 0080 5346     		mov	r3, r10
 486 0082 BAF1000F 		cmp	r10, #0
 487 0086 4CDB     		blt	.L35
 488              	.L29:
 489 0088 5C10     		asrs	r4, r3, #1
 490 008a 4B46     		mov	r3, r9
 491 008c B9F1000F 		cmp	r9, #0
 492 0090 4ADB     		blt	.L36
 493              	.L30:
 494 0092 A4EB6304 		sub	r4, r4, r3, asr #1
 495 0096 A4B2     		uxth	r4, r4
 496              	.LVL64:
 634:Drivers/lvgl/lvgl/src/widgets/lv_roller.c **** 
 497              		.loc 1 634 0
 498 0098 A4EB0804 		sub	r4, r4, r8
 499              	.LVL65:
 500 009c 24B2     		sxth	r4, r4
 501              	.LVL66:
 636:Drivers/lvgl/lvgl/src/widgets/lv_roller.c ****         lv_anim_del(label, set_y_anim);
 502              		.loc 1 636 0
 503 009e 002D     		cmp	r5, #0
 504 00a0 45D1     		bne	.L37
 505              	.LBB94:
 642:Drivers/lvgl/lvgl/src/widgets/lv_roller.c ****         lv_anim_set_var(&a, label);
 506              		.loc 1 642 0 discriminator 2
 507 00a2 01A8     		add	r0, sp, #4
 508 00a4 FFF7FEFF 		bl	lv_anim_init
 509              	.LVL67:
 510              	.LBB95:
 511              	.LBB96:
 512              		.file 4 "Drivers/lvgl/lvgl/src/widgets/../core/../misc/lv_anim.h"
   1:Drivers/lvgl/lvgl/src/widgets/../core/../misc/lv_anim.h **** /**
   2:Drivers/lvgl/lvgl/src/widgets/../core/../misc/lv_anim.h ****  * @file lv_anim.h
ARM GAS  /tmp/cchzjiif.s 			page 36


   3:Drivers/lvgl/lvgl/src/widgets/../core/../misc/lv_anim.h ****  *
   4:Drivers/lvgl/lvgl/src/widgets/../core/../misc/lv_anim.h ****  */
   5:Drivers/lvgl/lvgl/src/widgets/../core/../misc/lv_anim.h **** 
   6:Drivers/lvgl/lvgl/src/widgets/../core/../misc/lv_anim.h **** #ifndef LV_ANIM_H
   7:Drivers/lvgl/lvgl/src/widgets/../core/../misc/lv_anim.h **** #define LV_ANIM_H
   8:Drivers/lvgl/lvgl/src/widgets/../core/../misc/lv_anim.h **** 
   9:Drivers/lvgl/lvgl/src/widgets/../core/../misc/lv_anim.h **** #ifdef __cplusplus
  10:Drivers/lvgl/lvgl/src/widgets/../core/../misc/lv_anim.h **** extern "C" {
  11:Drivers/lvgl/lvgl/src/widgets/../core/../misc/lv_anim.h **** #endif
  12:Drivers/lvgl/lvgl/src/widgets/../core/../misc/lv_anim.h **** 
  13:Drivers/lvgl/lvgl/src/widgets/../core/../misc/lv_anim.h **** /*********************
  14:Drivers/lvgl/lvgl/src/widgets/../core/../misc/lv_anim.h ****  *      INCLUDES
  15:Drivers/lvgl/lvgl/src/widgets/../core/../misc/lv_anim.h ****  *********************/
  16:Drivers/lvgl/lvgl/src/widgets/../core/../misc/lv_anim.h **** #include "../lv_conf_internal.h"
  17:Drivers/lvgl/lvgl/src/widgets/../core/../misc/lv_anim.h **** 
  18:Drivers/lvgl/lvgl/src/widgets/../core/../misc/lv_anim.h **** #include <stdint.h>
  19:Drivers/lvgl/lvgl/src/widgets/../core/../misc/lv_anim.h **** #include <stdbool.h>
  20:Drivers/lvgl/lvgl/src/widgets/../core/../misc/lv_anim.h **** #include <stddef.h>
  21:Drivers/lvgl/lvgl/src/widgets/../core/../misc/lv_anim.h **** 
  22:Drivers/lvgl/lvgl/src/widgets/../core/../misc/lv_anim.h **** /*********************
  23:Drivers/lvgl/lvgl/src/widgets/../core/../misc/lv_anim.h ****  *      DEFINES
  24:Drivers/lvgl/lvgl/src/widgets/../core/../misc/lv_anim.h ****  *********************/
  25:Drivers/lvgl/lvgl/src/widgets/../core/../misc/lv_anim.h **** 
  26:Drivers/lvgl/lvgl/src/widgets/../core/../misc/lv_anim.h **** #define LV_ANIM_REPEAT_INFINITE      0xFFFF
  27:Drivers/lvgl/lvgl/src/widgets/../core/../misc/lv_anim.h **** #define LV_ANIM_PLAYTIME_INFINITE    0xFFFFFFFF
  28:Drivers/lvgl/lvgl/src/widgets/../core/../misc/lv_anim.h **** 
  29:Drivers/lvgl/lvgl/src/widgets/../core/../misc/lv_anim.h **** LV_EXPORT_CONST_INT(LV_ANIM_REPEAT_INFINITE);
  30:Drivers/lvgl/lvgl/src/widgets/../core/../misc/lv_anim.h **** LV_EXPORT_CONST_INT(LV_ANIM_PLAYTIME_INFINITE);
  31:Drivers/lvgl/lvgl/src/widgets/../core/../misc/lv_anim.h **** 
  32:Drivers/lvgl/lvgl/src/widgets/../core/../misc/lv_anim.h **** /**********************
  33:Drivers/lvgl/lvgl/src/widgets/../core/../misc/lv_anim.h ****  *      TYPEDEFS
  34:Drivers/lvgl/lvgl/src/widgets/../core/../misc/lv_anim.h ****  **********************/
  35:Drivers/lvgl/lvgl/src/widgets/../core/../misc/lv_anim.h **** 
  36:Drivers/lvgl/lvgl/src/widgets/../core/../misc/lv_anim.h **** /** Can be used to indicate if animations are enabled or disabled in a case*/
  37:Drivers/lvgl/lvgl/src/widgets/../core/../misc/lv_anim.h **** typedef enum {
  38:Drivers/lvgl/lvgl/src/widgets/../core/../misc/lv_anim.h ****     LV_ANIM_OFF,
  39:Drivers/lvgl/lvgl/src/widgets/../core/../misc/lv_anim.h ****     LV_ANIM_ON,
  40:Drivers/lvgl/lvgl/src/widgets/../core/../misc/lv_anim.h **** } lv_anim_enable_t;
  41:Drivers/lvgl/lvgl/src/widgets/../core/../misc/lv_anim.h **** 
  42:Drivers/lvgl/lvgl/src/widgets/../core/../misc/lv_anim.h **** struct _lv_anim_t;
  43:Drivers/lvgl/lvgl/src/widgets/../core/../misc/lv_anim.h **** struct _lv_timer_t;
  44:Drivers/lvgl/lvgl/src/widgets/../core/../misc/lv_anim.h **** 
  45:Drivers/lvgl/lvgl/src/widgets/../core/../misc/lv_anim.h **** /** Get the current value during an animation*/
  46:Drivers/lvgl/lvgl/src/widgets/../core/../misc/lv_anim.h **** typedef int32_t (*lv_anim_path_cb_t)(const struct _lv_anim_t *);
  47:Drivers/lvgl/lvgl/src/widgets/../core/../misc/lv_anim.h **** 
  48:Drivers/lvgl/lvgl/src/widgets/../core/../misc/lv_anim.h **** /** Generic prototype of "animator" functions.
  49:Drivers/lvgl/lvgl/src/widgets/../core/../misc/lv_anim.h ****  * First parameter is the variable to animate.
  50:Drivers/lvgl/lvgl/src/widgets/../core/../misc/lv_anim.h ****  * Second parameter is the value to set.
  51:Drivers/lvgl/lvgl/src/widgets/../core/../misc/lv_anim.h ****  * Compatible with `lv_xxx_set_yyy(obj, value)` functions
  52:Drivers/lvgl/lvgl/src/widgets/../core/../misc/lv_anim.h ****  * The `x` in `_xcb_t` means it's not a fully generic prototype because
  53:Drivers/lvgl/lvgl/src/widgets/../core/../misc/lv_anim.h ****  * it doesn't receive `lv_anim_t *` as its first argument*/
  54:Drivers/lvgl/lvgl/src/widgets/../core/../misc/lv_anim.h **** typedef void (*lv_anim_exec_xcb_t)(void *, int32_t);
  55:Drivers/lvgl/lvgl/src/widgets/../core/../misc/lv_anim.h **** 
  56:Drivers/lvgl/lvgl/src/widgets/../core/../misc/lv_anim.h **** /** Same as `lv_anim_exec_xcb_t` but receives `lv_anim_t *` as the first parameter.
  57:Drivers/lvgl/lvgl/src/widgets/../core/../misc/lv_anim.h ****  * It's more consistent but less convenient. Might be used by binding generator functions.*/
  58:Drivers/lvgl/lvgl/src/widgets/../core/../misc/lv_anim.h **** typedef void (*lv_anim_custom_exec_cb_t)(struct _lv_anim_t *, int32_t);
  59:Drivers/lvgl/lvgl/src/widgets/../core/../misc/lv_anim.h **** 
ARM GAS  /tmp/cchzjiif.s 			page 37


  60:Drivers/lvgl/lvgl/src/widgets/../core/../misc/lv_anim.h **** /** Callback to call when the animation is ready*/
  61:Drivers/lvgl/lvgl/src/widgets/../core/../misc/lv_anim.h **** typedef void (*lv_anim_ready_cb_t)(struct _lv_anim_t *);
  62:Drivers/lvgl/lvgl/src/widgets/../core/../misc/lv_anim.h **** 
  63:Drivers/lvgl/lvgl/src/widgets/../core/../misc/lv_anim.h **** /** Callback to call when the animation really stars (considering `delay`)*/
  64:Drivers/lvgl/lvgl/src/widgets/../core/../misc/lv_anim.h **** typedef void (*lv_anim_start_cb_t)(struct _lv_anim_t *);
  65:Drivers/lvgl/lvgl/src/widgets/../core/../misc/lv_anim.h **** 
  66:Drivers/lvgl/lvgl/src/widgets/../core/../misc/lv_anim.h **** /** Callback used when the animation values are relative to get the current value*/
  67:Drivers/lvgl/lvgl/src/widgets/../core/../misc/lv_anim.h **** typedef int32_t (*lv_anim_get_value_cb_t)(struct _lv_anim_t *);
  68:Drivers/lvgl/lvgl/src/widgets/../core/../misc/lv_anim.h **** 
  69:Drivers/lvgl/lvgl/src/widgets/../core/../misc/lv_anim.h **** /** Callback used when the animation is deleted*/
  70:Drivers/lvgl/lvgl/src/widgets/../core/../misc/lv_anim.h **** typedef void (*lv_anim_deleted_cb_t)(struct _lv_anim_t *);
  71:Drivers/lvgl/lvgl/src/widgets/../core/../misc/lv_anim.h **** 
  72:Drivers/lvgl/lvgl/src/widgets/../core/../misc/lv_anim.h **** /** Describes an animation*/
  73:Drivers/lvgl/lvgl/src/widgets/../core/../misc/lv_anim.h **** typedef struct _lv_anim_t {
  74:Drivers/lvgl/lvgl/src/widgets/../core/../misc/lv_anim.h ****     void * var;                          /**<Variable to animate*/
  75:Drivers/lvgl/lvgl/src/widgets/../core/../misc/lv_anim.h ****     lv_anim_exec_xcb_t exec_cb;          /**< Function to execute to animate*/
  76:Drivers/lvgl/lvgl/src/widgets/../core/../misc/lv_anim.h ****     lv_anim_start_cb_t start_cb;         /**< Call it when the animation is starts (considering `de
  77:Drivers/lvgl/lvgl/src/widgets/../core/../misc/lv_anim.h ****     lv_anim_ready_cb_t ready_cb;         /**< Call it when the animation is ready*/
  78:Drivers/lvgl/lvgl/src/widgets/../core/../misc/lv_anim.h ****     lv_anim_deleted_cb_t deleted_cb;     /**< Call it when the animation is deleted*/
  79:Drivers/lvgl/lvgl/src/widgets/../core/../misc/lv_anim.h ****     lv_anim_get_value_cb_t get_value_cb; /**< Get the current value in relative mode*/
  80:Drivers/lvgl/lvgl/src/widgets/../core/../misc/lv_anim.h **** #if LV_USE_USER_DATA
  81:Drivers/lvgl/lvgl/src/widgets/../core/../misc/lv_anim.h ****     void * user_data; /**< Custom user data*/
  82:Drivers/lvgl/lvgl/src/widgets/../core/../misc/lv_anim.h **** #endif
  83:Drivers/lvgl/lvgl/src/widgets/../core/../misc/lv_anim.h ****     lv_anim_path_cb_t path_cb;         /**< Describe the path (curve) of animations*/
  84:Drivers/lvgl/lvgl/src/widgets/../core/../misc/lv_anim.h ****     int32_t start_value;               /**< Start value*/
  85:Drivers/lvgl/lvgl/src/widgets/../core/../misc/lv_anim.h ****     int32_t current_value;             /**< Current value*/
  86:Drivers/lvgl/lvgl/src/widgets/../core/../misc/lv_anim.h ****     int32_t end_value;                 /**< End value*/
  87:Drivers/lvgl/lvgl/src/widgets/../core/../misc/lv_anim.h ****     int32_t time;                /**< Animation time in ms*/
  88:Drivers/lvgl/lvgl/src/widgets/../core/../misc/lv_anim.h ****     int32_t act_time;            /**< Current time in animation. Set to negative to make delay.*/
  89:Drivers/lvgl/lvgl/src/widgets/../core/../misc/lv_anim.h ****     uint32_t playback_delay;     /**< Wait before play back*/
  90:Drivers/lvgl/lvgl/src/widgets/../core/../misc/lv_anim.h ****     uint32_t playback_time;      /**< Duration of playback animation*/
  91:Drivers/lvgl/lvgl/src/widgets/../core/../misc/lv_anim.h ****     uint32_t repeat_delay;       /**< Wait before repeat*/
  92:Drivers/lvgl/lvgl/src/widgets/../core/../misc/lv_anim.h ****     uint16_t repeat_cnt;         /**< Repeat count for the animation*/
  93:Drivers/lvgl/lvgl/src/widgets/../core/../misc/lv_anim.h ****     uint8_t early_apply  : 1;    /**< 1: Apply start value immediately even is there is `delay`*/
  94:Drivers/lvgl/lvgl/src/widgets/../core/../misc/lv_anim.h **** 
  95:Drivers/lvgl/lvgl/src/widgets/../core/../misc/lv_anim.h ****     /*Animation system use these - user shouldn't set*/
  96:Drivers/lvgl/lvgl/src/widgets/../core/../misc/lv_anim.h ****     uint8_t playback_now : 1; /**< Play back is in progress*/
  97:Drivers/lvgl/lvgl/src/widgets/../core/../misc/lv_anim.h ****     uint8_t run_round : 1;    /**< Indicates the animation has run in this round*/
  98:Drivers/lvgl/lvgl/src/widgets/../core/../misc/lv_anim.h ****     uint8_t start_cb_called : 1;    /**< Indicates that the `start_cb` was already called*/
  99:Drivers/lvgl/lvgl/src/widgets/../core/../misc/lv_anim.h **** } lv_anim_t;
 100:Drivers/lvgl/lvgl/src/widgets/../core/../misc/lv_anim.h **** 
 101:Drivers/lvgl/lvgl/src/widgets/../core/../misc/lv_anim.h **** /**********************
 102:Drivers/lvgl/lvgl/src/widgets/../core/../misc/lv_anim.h ****  * GLOBAL PROTOTYPES
 103:Drivers/lvgl/lvgl/src/widgets/../core/../misc/lv_anim.h ****  **********************/
 104:Drivers/lvgl/lvgl/src/widgets/../core/../misc/lv_anim.h **** 
 105:Drivers/lvgl/lvgl/src/widgets/../core/../misc/lv_anim.h **** /**
 106:Drivers/lvgl/lvgl/src/widgets/../core/../misc/lv_anim.h ****  * Init. the animation module
 107:Drivers/lvgl/lvgl/src/widgets/../core/../misc/lv_anim.h ****  */
 108:Drivers/lvgl/lvgl/src/widgets/../core/../misc/lv_anim.h **** void _lv_anim_core_init(void);
 109:Drivers/lvgl/lvgl/src/widgets/../core/../misc/lv_anim.h **** 
 110:Drivers/lvgl/lvgl/src/widgets/../core/../misc/lv_anim.h **** /**
 111:Drivers/lvgl/lvgl/src/widgets/../core/../misc/lv_anim.h ****  * Initialize an animation variable.
 112:Drivers/lvgl/lvgl/src/widgets/../core/../misc/lv_anim.h ****  * E.g.:
 113:Drivers/lvgl/lvgl/src/widgets/../core/../misc/lv_anim.h ****  * lv_anim_t a;
 114:Drivers/lvgl/lvgl/src/widgets/../core/../misc/lv_anim.h ****  * lv_anim_init(&a);
 115:Drivers/lvgl/lvgl/src/widgets/../core/../misc/lv_anim.h ****  * lv_anim_set_...(&a);
 116:Drivers/lvgl/lvgl/src/widgets/../core/../misc/lv_anim.h ****  * lv_anim_start(&a);
ARM GAS  /tmp/cchzjiif.s 			page 38


 117:Drivers/lvgl/lvgl/src/widgets/../core/../misc/lv_anim.h ****  * @param a     pointer to an `lv_anim_t` variable to initialize
 118:Drivers/lvgl/lvgl/src/widgets/../core/../misc/lv_anim.h ****  */
 119:Drivers/lvgl/lvgl/src/widgets/../core/../misc/lv_anim.h **** void lv_anim_init(lv_anim_t * a);
 120:Drivers/lvgl/lvgl/src/widgets/../core/../misc/lv_anim.h **** 
 121:Drivers/lvgl/lvgl/src/widgets/../core/../misc/lv_anim.h **** /**
 122:Drivers/lvgl/lvgl/src/widgets/../core/../misc/lv_anim.h ****  * Set a variable to animate
 123:Drivers/lvgl/lvgl/src/widgets/../core/../misc/lv_anim.h ****  * @param a     pointer to an initialized `lv_anim_t` variable
 124:Drivers/lvgl/lvgl/src/widgets/../core/../misc/lv_anim.h ****  * @param var   pointer to a variable to animate
 125:Drivers/lvgl/lvgl/src/widgets/../core/../misc/lv_anim.h ****  */
 126:Drivers/lvgl/lvgl/src/widgets/../core/../misc/lv_anim.h **** static inline void lv_anim_set_var(lv_anim_t * a, void * var)
 127:Drivers/lvgl/lvgl/src/widgets/../core/../misc/lv_anim.h **** {
 128:Drivers/lvgl/lvgl/src/widgets/../core/../misc/lv_anim.h ****     a->var = var;
 513              		.loc 4 128 0 discriminator 2
 514 00a8 0196     		str	r6, [sp, #4]
 515              	.LVL68:
 516              	.LBE96:
 517              	.LBE95:
 518              	.LBB97:
 519              	.LBB98:
 129:Drivers/lvgl/lvgl/src/widgets/../core/../misc/lv_anim.h **** }
 130:Drivers/lvgl/lvgl/src/widgets/../core/../misc/lv_anim.h **** 
 131:Drivers/lvgl/lvgl/src/widgets/../core/../misc/lv_anim.h **** /**
 132:Drivers/lvgl/lvgl/src/widgets/../core/../misc/lv_anim.h ****  * Set a function to animate `var`
 133:Drivers/lvgl/lvgl/src/widgets/../core/../misc/lv_anim.h ****  * @param a         pointer to an initialized `lv_anim_t` variable
 134:Drivers/lvgl/lvgl/src/widgets/../core/../misc/lv_anim.h ****  * @param exec_cb   a function to execute during animation
 135:Drivers/lvgl/lvgl/src/widgets/../core/../misc/lv_anim.h ****  *                  LVGL's built-in functions can be used.
 136:Drivers/lvgl/lvgl/src/widgets/../core/../misc/lv_anim.h ****  *                  E.g. lv_obj_set_x
 137:Drivers/lvgl/lvgl/src/widgets/../core/../misc/lv_anim.h ****  */
 138:Drivers/lvgl/lvgl/src/widgets/../core/../misc/lv_anim.h **** static inline void lv_anim_set_exec_cb(lv_anim_t * a, lv_anim_exec_xcb_t exec_cb)
 139:Drivers/lvgl/lvgl/src/widgets/../core/../misc/lv_anim.h **** {
 140:Drivers/lvgl/lvgl/src/widgets/../core/../misc/lv_anim.h ****     a->exec_cb = exec_cb;
 520              		.loc 4 140 0 discriminator 2
 521 00aa 254B     		ldr	r3, .L39
 522 00ac 0293     		str	r3, [sp, #8]
 523              	.LVL69:
 524              	.LBE98:
 525              	.LBE97:
 645:Drivers/lvgl/lvgl/src/widgets/lv_roller.c ****         lv_anim_set_time(&a, anim_time);
 526              		.loc 1 645 0 discriminator 2
 527 00ae 3046     		mov	r0, r6
 528 00b0 FFF7FEFF 		bl	lv_obj_get_y
 529              	.LVL70:
 530              	.LBB99:
 531              	.LBB100:
 141:Drivers/lvgl/lvgl/src/widgets/../core/../misc/lv_anim.h **** }
 142:Drivers/lvgl/lvgl/src/widgets/../core/../misc/lv_anim.h **** 
 143:Drivers/lvgl/lvgl/src/widgets/../core/../misc/lv_anim.h **** /**
 144:Drivers/lvgl/lvgl/src/widgets/../core/../misc/lv_anim.h ****  * Set the duration of an animation
 145:Drivers/lvgl/lvgl/src/widgets/../core/../misc/lv_anim.h ****  * @param a         pointer to an initialized `lv_anim_t` variable
 146:Drivers/lvgl/lvgl/src/widgets/../core/../misc/lv_anim.h ****  * @param duration  duration of the animation in milliseconds
 147:Drivers/lvgl/lvgl/src/widgets/../core/../misc/lv_anim.h ****  */
 148:Drivers/lvgl/lvgl/src/widgets/../core/../misc/lv_anim.h **** static inline void lv_anim_set_time(lv_anim_t * a, uint32_t duration)
 149:Drivers/lvgl/lvgl/src/widgets/../core/../misc/lv_anim.h **** {
 150:Drivers/lvgl/lvgl/src/widgets/../core/../misc/lv_anim.h ****     a->time = duration;
 151:Drivers/lvgl/lvgl/src/widgets/../core/../misc/lv_anim.h **** }
 152:Drivers/lvgl/lvgl/src/widgets/../core/../misc/lv_anim.h **** 
 153:Drivers/lvgl/lvgl/src/widgets/../core/../misc/lv_anim.h **** /**
ARM GAS  /tmp/cchzjiif.s 			page 39


 154:Drivers/lvgl/lvgl/src/widgets/../core/../misc/lv_anim.h ****  * Set a delay before starting the animation
 155:Drivers/lvgl/lvgl/src/widgets/../core/../misc/lv_anim.h ****  * @param a         pointer to an initialized `lv_anim_t` variable
 156:Drivers/lvgl/lvgl/src/widgets/../core/../misc/lv_anim.h ****  * @param delay     delay before the animation in milliseconds
 157:Drivers/lvgl/lvgl/src/widgets/../core/../misc/lv_anim.h ****  */
 158:Drivers/lvgl/lvgl/src/widgets/../core/../misc/lv_anim.h **** static inline void lv_anim_set_delay(lv_anim_t * a, uint32_t delay)
 159:Drivers/lvgl/lvgl/src/widgets/../core/../misc/lv_anim.h **** {
 160:Drivers/lvgl/lvgl/src/widgets/../core/../misc/lv_anim.h ****     a->act_time = -(int32_t)(delay);
 161:Drivers/lvgl/lvgl/src/widgets/../core/../misc/lv_anim.h **** }
 162:Drivers/lvgl/lvgl/src/widgets/../core/../misc/lv_anim.h **** 
 163:Drivers/lvgl/lvgl/src/widgets/../core/../misc/lv_anim.h **** /**
 164:Drivers/lvgl/lvgl/src/widgets/../core/../misc/lv_anim.h ****  * Set the start and end values of an animation
 165:Drivers/lvgl/lvgl/src/widgets/../core/../misc/lv_anim.h ****  * @param a         pointer to an initialized `lv_anim_t` variable
 166:Drivers/lvgl/lvgl/src/widgets/../core/../misc/lv_anim.h ****  * @param start     the start value
 167:Drivers/lvgl/lvgl/src/widgets/../core/../misc/lv_anim.h ****  * @param end       the end value
 168:Drivers/lvgl/lvgl/src/widgets/../core/../misc/lv_anim.h ****  */
 169:Drivers/lvgl/lvgl/src/widgets/../core/../misc/lv_anim.h **** static inline void lv_anim_set_values(lv_anim_t * a, int32_t start, int32_t end)
 170:Drivers/lvgl/lvgl/src/widgets/../core/../misc/lv_anim.h **** {
 171:Drivers/lvgl/lvgl/src/widgets/../core/../misc/lv_anim.h ****     a->start_value = start;
 532              		.loc 4 171 0 discriminator 2
 533 00b4 0990     		str	r0, [sp, #36]
 172:Drivers/lvgl/lvgl/src/widgets/../core/../misc/lv_anim.h ****     a->current_value = start;
 534              		.loc 4 172 0 discriminator 2
 535 00b6 0A90     		str	r0, [sp, #40]
 173:Drivers/lvgl/lvgl/src/widgets/../core/../misc/lv_anim.h ****     a->end_value = end;
 536              		.loc 4 173 0 discriminator 2
 537 00b8 0B94     		str	r4, [sp, #44]
 538              	.LVL71:
 539              	.LBE100:
 540              	.LBE99:
 541              	.LBB101:
 542              	.LBB102:
 150:Drivers/lvgl/lvgl/src/widgets/../core/../misc/lv_anim.h **** }
 543              		.loc 4 150 0 discriminator 2
 544 00ba BFB2     		uxth	r7, r7
 545              	.LVL72:
 546 00bc 0C97     		str	r7, [sp, #48]
 547              	.LVL73:
 548              	.LBE102:
 549              	.LBE101:
 550              	.LBB103:
 551              	.LBB104:
 174:Drivers/lvgl/lvgl/src/widgets/../core/../misc/lv_anim.h **** }
 175:Drivers/lvgl/lvgl/src/widgets/../core/../misc/lv_anim.h **** 
 176:Drivers/lvgl/lvgl/src/widgets/../core/../misc/lv_anim.h **** /**
 177:Drivers/lvgl/lvgl/src/widgets/../core/../misc/lv_anim.h ****  * Similar to `lv_anim_set_exec_cb` but `lv_anim_custom_exec_cb_t` receives
 178:Drivers/lvgl/lvgl/src/widgets/../core/../misc/lv_anim.h ****  * `lv_anim_t * ` as its first parameter instead of `void *`.
 179:Drivers/lvgl/lvgl/src/widgets/../core/../misc/lv_anim.h ****  * This function might be used when LVGL is bound to other languages because
 180:Drivers/lvgl/lvgl/src/widgets/../core/../misc/lv_anim.h ****  * it's more consistent to have `lv_anim_t *` as first parameter.
 181:Drivers/lvgl/lvgl/src/widgets/../core/../misc/lv_anim.h ****  * The variable to animate can be stored in the animation's `user_data`
 182:Drivers/lvgl/lvgl/src/widgets/../core/../misc/lv_anim.h ****  * @param a         pointer to an initialized `lv_anim_t` variable
 183:Drivers/lvgl/lvgl/src/widgets/../core/../misc/lv_anim.h ****  * @param exec_cb   a function to execute.
 184:Drivers/lvgl/lvgl/src/widgets/../core/../misc/lv_anim.h ****  */
 185:Drivers/lvgl/lvgl/src/widgets/../core/../misc/lv_anim.h **** static inline void lv_anim_set_custom_exec_cb(lv_anim_t * a, lv_anim_custom_exec_cb_t exec_cb)
 186:Drivers/lvgl/lvgl/src/widgets/../core/../misc/lv_anim.h **** {
 187:Drivers/lvgl/lvgl/src/widgets/../core/../misc/lv_anim.h ****     a->var     = a;
 188:Drivers/lvgl/lvgl/src/widgets/../core/../misc/lv_anim.h ****     a->exec_cb = (lv_anim_exec_xcb_t)exec_cb;
 189:Drivers/lvgl/lvgl/src/widgets/../core/../misc/lv_anim.h **** }
ARM GAS  /tmp/cchzjiif.s 			page 40


 190:Drivers/lvgl/lvgl/src/widgets/../core/../misc/lv_anim.h **** 
 191:Drivers/lvgl/lvgl/src/widgets/../core/../misc/lv_anim.h **** /**
 192:Drivers/lvgl/lvgl/src/widgets/../core/../misc/lv_anim.h ****  * Set the path (curve) of the animation.
 193:Drivers/lvgl/lvgl/src/widgets/../core/../misc/lv_anim.h ****  * @param a         pointer to an initialized `lv_anim_t` variable
 194:Drivers/lvgl/lvgl/src/widgets/../core/../misc/lv_anim.h ****  * @param path_cb a function to set the current value of the animation.
 195:Drivers/lvgl/lvgl/src/widgets/../core/../misc/lv_anim.h ****  */
 196:Drivers/lvgl/lvgl/src/widgets/../core/../misc/lv_anim.h **** static inline void lv_anim_set_path_cb(lv_anim_t * a, lv_anim_path_cb_t path_cb)
 197:Drivers/lvgl/lvgl/src/widgets/../core/../misc/lv_anim.h **** {
 198:Drivers/lvgl/lvgl/src/widgets/../core/../misc/lv_anim.h ****     a->path_cb = path_cb;
 199:Drivers/lvgl/lvgl/src/widgets/../core/../misc/lv_anim.h **** }
 200:Drivers/lvgl/lvgl/src/widgets/../core/../misc/lv_anim.h **** 
 201:Drivers/lvgl/lvgl/src/widgets/../core/../misc/lv_anim.h **** /**
 202:Drivers/lvgl/lvgl/src/widgets/../core/../misc/lv_anim.h ****  * Set a function call when the animation really starts (considering `delay`)
 203:Drivers/lvgl/lvgl/src/widgets/../core/../misc/lv_anim.h ****  * @param a         pointer to an initialized `lv_anim_t` variable
 204:Drivers/lvgl/lvgl/src/widgets/../core/../misc/lv_anim.h ****  * @param start_cb  a function call when the animation starts
 205:Drivers/lvgl/lvgl/src/widgets/../core/../misc/lv_anim.h ****  */
 206:Drivers/lvgl/lvgl/src/widgets/../core/../misc/lv_anim.h **** static inline void lv_anim_set_start_cb(lv_anim_t * a, lv_anim_start_cb_t start_cb)
 207:Drivers/lvgl/lvgl/src/widgets/../core/../misc/lv_anim.h **** {
 208:Drivers/lvgl/lvgl/src/widgets/../core/../misc/lv_anim.h ****     a->start_cb = start_cb;
 209:Drivers/lvgl/lvgl/src/widgets/../core/../misc/lv_anim.h **** }
 210:Drivers/lvgl/lvgl/src/widgets/../core/../misc/lv_anim.h **** 
 211:Drivers/lvgl/lvgl/src/widgets/../core/../misc/lv_anim.h **** /**
 212:Drivers/lvgl/lvgl/src/widgets/../core/../misc/lv_anim.h ****  * Set a function to use the current value of the variable and make start and end value
 213:Drivers/lvgl/lvgl/src/widgets/../core/../misc/lv_anim.h ****  * relative to the returned current value.
 214:Drivers/lvgl/lvgl/src/widgets/../core/../misc/lv_anim.h ****  * @param a             pointer to an initialized `lv_anim_t` variable
 215:Drivers/lvgl/lvgl/src/widgets/../core/../misc/lv_anim.h ****  * @param get_value_cb  a function call when the animation starts
 216:Drivers/lvgl/lvgl/src/widgets/../core/../misc/lv_anim.h ****  */
 217:Drivers/lvgl/lvgl/src/widgets/../core/../misc/lv_anim.h **** static inline void lv_anim_set_get_value_cb(lv_anim_t * a, lv_anim_get_value_cb_t get_value_cb)
 218:Drivers/lvgl/lvgl/src/widgets/../core/../misc/lv_anim.h **** {
 219:Drivers/lvgl/lvgl/src/widgets/../core/../misc/lv_anim.h ****     a->get_value_cb = get_value_cb;
 220:Drivers/lvgl/lvgl/src/widgets/../core/../misc/lv_anim.h **** }
 221:Drivers/lvgl/lvgl/src/widgets/../core/../misc/lv_anim.h **** 
 222:Drivers/lvgl/lvgl/src/widgets/../core/../misc/lv_anim.h **** /**
 223:Drivers/lvgl/lvgl/src/widgets/../core/../misc/lv_anim.h ****  * Set a function call when the animation is ready
 224:Drivers/lvgl/lvgl/src/widgets/../core/../misc/lv_anim.h ****  * @param a         pointer to an initialized `lv_anim_t` variable
 225:Drivers/lvgl/lvgl/src/widgets/../core/../misc/lv_anim.h ****  * @param ready_cb  a function call when the animation is ready
 226:Drivers/lvgl/lvgl/src/widgets/../core/../misc/lv_anim.h ****  */
 227:Drivers/lvgl/lvgl/src/widgets/../core/../misc/lv_anim.h **** static inline void lv_anim_set_ready_cb(lv_anim_t * a, lv_anim_ready_cb_t ready_cb)
 228:Drivers/lvgl/lvgl/src/widgets/../core/../misc/lv_anim.h **** {
 229:Drivers/lvgl/lvgl/src/widgets/../core/../misc/lv_anim.h ****     a->ready_cb = ready_cb;
 552              		.loc 4 229 0 discriminator 2
 553 00be 214B     		ldr	r3, .L39+4
 554 00c0 0493     		str	r3, [sp, #16]
 555              	.LVL74:
 556              	.LBE104:
 557              	.LBE103:
 558              	.LBB105:
 559              	.LBB106:
 198:Drivers/lvgl/lvgl/src/widgets/../core/../misc/lv_anim.h **** }
 560              		.loc 4 198 0 discriminator 2
 561 00c2 214B     		ldr	r3, .L39+8
 562 00c4 0893     		str	r3, [sp, #32]
 563              	.LVL75:
 564              	.LBE106:
 565              	.LBE105:
 649:Drivers/lvgl/lvgl/src/widgets/lv_roller.c ****     }
 566              		.loc 1 649 0 discriminator 2
ARM GAS  /tmp/cchzjiif.s 			page 41


 567 00c6 01A8     		add	r0, sp, #4
 568 00c8 FFF7FEFF 		bl	lv_anim_start
 569              	.LVL76:
 570              	.L21:
 571              	.LBE94:
 651:Drivers/lvgl/lvgl/src/widgets/lv_roller.c **** 
 572              		.loc 1 651 0
 573 00cc 13B0     		add	sp, sp, #76
 574              	.LCFI10:
 575              		.cfi_remember_state
 576              		.cfi_def_cfa_offset 36
 577              		@ sp needed
 578 00ce BDE8F08F 		pop	{r4, r5, r6, r7, r8, r9, r10, fp, pc}
 579              	.LVL77:
 580              	.L24:
 581              	.LCFI11:
 582              		.cfi_restore_state
 607:Drivers/lvgl/lvgl/src/widgets/lv_roller.c ****             break;
 583              		.loc 1 607 0
 584 00d2 2046     		mov	r0, r4
 585              	.LVL78:
 586 00d4 FFF7FEFF 		bl	lv_obj_get_content_width
 587              	.LVL79:
 588 00d8 0546     		mov	r5, r0
 589 00da 3046     		mov	r0, r6
 590 00dc FFF7FEFF 		bl	lv_obj_get_width
 591              	.LVL80:
 592 00e0 291A     		subs	r1, r5, r0
 593 00e2 05D4     		bmi	.L38
 594              	.L27:
 595 00e4 41F34F01 		sbfx	r1, r1, #1, #16
 596 00e8 3046     		mov	r0, r6
 597 00ea FFF7FEFF 		bl	lv_obj_set_x
 598              	.LVL81:
 608:Drivers/lvgl/lvgl/src/widgets/lv_roller.c ****         case LV_TEXT_ALIGN_RIGHT:
 599              		.loc 1 608 0
 600 00ee 9EE7     		b	.L23
 601              	.L38:
 607:Drivers/lvgl/lvgl/src/widgets/lv_roller.c ****             break;
 602              		.loc 1 607 0
 603 00f0 0131     		adds	r1, r1, #1
 604 00f2 F7E7     		b	.L27
 605              	.LVL82:
 606              	.L25:
 610:Drivers/lvgl/lvgl/src/widgets/lv_roller.c ****             break;
 607              		.loc 1 610 0
 608 00f4 2046     		mov	r0, r4
 609              	.LVL83:
 610 00f6 FFF7FEFF 		bl	lv_obj_get_content_width
 611              	.LVL84:
 612 00fa 85B2     		uxth	r5, r0
 613 00fc 3046     		mov	r0, r6
 614 00fe FFF7FEFF 		bl	lv_obj_get_width
 615              	.LVL85:
 616 0102 81B2     		uxth	r1, r0
 617 0104 691A     		subs	r1, r5, r1
 618 0106 09B2     		sxth	r1, r1
ARM GAS  /tmp/cchzjiif.s 			page 42


 619 0108 3046     		mov	r0, r6
 620 010a FFF7FEFF 		bl	lv_obj_set_x
 621              	.LVL86:
 611:Drivers/lvgl/lvgl/src/widgets/lv_roller.c ****         case LV_TEXT_ALIGN_LEFT:
 622              		.loc 1 611 0
 623 010e 8EE7     		b	.L23
 624              	.LVL87:
 625              	.L33:
 613:Drivers/lvgl/lvgl/src/widgets/lv_roller.c ****             break;
 626              		.loc 1 613 0
 627 0110 0021     		movs	r1, #0
 628 0112 3046     		mov	r0, r6
 629              	.LVL88:
 630 0114 FFF7FEFF 		bl	lv_obj_set_x
 631              	.LVL89:
 614:Drivers/lvgl/lvgl/src/widgets/lv_roller.c ****     }
 632              		.loc 1 614 0
 633 0118 89E7     		b	.L23
 634              	.LVL90:
 635              	.L34:
 627:Drivers/lvgl/lvgl/src/widgets/lv_roller.c ****     }
 636              		.loc 1 627 0
 637 011a 2046     		mov	r0, r4
 638              	.LVL91:
 639 011c FFF7FEFF 		bl	inf_normalize
 640              	.LVL92:
 641 0120 A8E7     		b	.L28
 642              	.LVL93:
 643              	.L35:
 632:Drivers/lvgl/lvgl/src/widgets/lv_roller.c **** 
 644              		.loc 1 632 0
 645 0122 0AF10103 		add	r3, r10, #1
 646 0126 AFE7     		b	.L29
 647              	.L36:
 648 0128 09F10103 		add	r3, r9, #1
 649 012c B1E7     		b	.L30
 650              	.LVL94:
 651              	.L37:
 637:Drivers/lvgl/lvgl/src/widgets/lv_roller.c ****         lv_obj_set_y(label, new_y);
 652              		.loc 1 637 0
 653 012e 0449     		ldr	r1, .L39
 654 0130 3046     		mov	r0, r6
 655 0132 FFF7FEFF 		bl	lv_anim_del
 656              	.LVL95:
 638:Drivers/lvgl/lvgl/src/widgets/lv_roller.c ****     }
 657              		.loc 1 638 0
 658 0136 2146     		mov	r1, r4
 659 0138 3046     		mov	r0, r6
 660 013a FFF7FEFF 		bl	lv_obj_set_y
 661              	.LVL96:
 662 013e C5E7     		b	.L21
 663              	.L40:
 664              		.align	2
 665              	.L39:
 666 0140 00000000 		.word	set_y_anim
 667 0144 00000000 		.word	scroll_anim_ready_cb
 668 0148 00000000 		.word	lv_anim_path_ease_out
ARM GAS  /tmp/cchzjiif.s 			page 43


 669              		.cfi_endproc
 670              	.LFE173:
 672              		.section	.text.get_sel_area,"ax",%progbits
 673              		.align	1
 674              		.syntax unified
 675              		.thumb
 676              		.thumb_func
 677              		.fpu fpv5-d16
 679              	get_sel_area:
 680              	.LFB172:
 575:Drivers/lvgl/lvgl/src/widgets/lv_roller.c **** 
 681              		.loc 1 575 0
 682              		.cfi_startproc
 683              		@ args = 0, pretend = 0, frame = 8
 684              		@ frame_needed = 0, uses_anonymous_args = 0
 685              	.LVL97:
 686 0000 2DE9F041 		push	{r4, r5, r6, r7, r8, lr}
 687              	.LCFI12:
 688              		.cfi_def_cfa_offset 24
 689              		.cfi_offset 4, -24
 690              		.cfi_offset 5, -20
 691              		.cfi_offset 6, -16
 692              		.cfi_offset 7, -12
 693              		.cfi_offset 8, -8
 694              		.cfi_offset 14, -4
 695 0004 82B0     		sub	sp, sp, #8
 696              	.LCFI13:
 697              		.cfi_def_cfa_offset 32
 698 0006 0646     		mov	r6, r0
 699 0008 0F46     		mov	r7, r1
 700              	.LVL98:
 701              	.LBB107:
 702              	.LBB108:
 465:Drivers/lvgl/lvgl/src/widgets/../core/lv_obj_style_gen.h ****     return (const lv_font_t *)v.ptr;
 703              		.loc 2 465 0
 704 000a 5722     		movs	r2, #87
 705 000c 0021     		movs	r1, #0
 706              	.LVL99:
 707 000e FFF7FEFF 		bl	lv_obj_get_style_prop
 708              	.LVL100:
 709 0012 0446     		mov	r4, r0
 710              	.LVL101:
 711              	.LBE108:
 712              	.LBE107:
 713              	.LBB109:
 714              	.LBB110:
 715 0014 5722     		movs	r2, #87
 716 0016 4FF48021 		mov	r1, #262144
 717 001a 3046     		mov	r0, r6
 718 001c FFF7FEFF 		bl	lv_obj_get_style_prop
 719              	.LVL102:
 720              	.LBE110:
 721              	.LBE109:
 722              	.LBB111:
 723              	.LBB112:
 724              		.loc 3 126 0
 725 0020 B4F90850 		ldrsh	r5, [r4, #8]
ARM GAS  /tmp/cchzjiif.s 			page 44


 726              	.LBE112:
 727              	.LBE111:
 728              	.LBB113:
 729              	.LBB114:
 730 0024 B0F90840 		ldrsh	r4, [r0, #8]
 731              	.LVL103:
 732              	.LBE114:
 733              	.LBE113:
 734              	.LBB115:
 735              	.LBB116:
 477:Drivers/lvgl/lvgl/src/widgets/../core/lv_obj_style_gen.h ****     return (lv_coord_t)v.num;
 736              		.loc 2 477 0
 737 0028 5922     		movs	r2, #89
 738 002a 0021     		movs	r1, #0
 739 002c 3046     		mov	r0, r6
 740 002e FFF7FEFF 		bl	lv_obj_get_style_prop
 741              	.LVL104:
 742              	.LBE116:
 743              	.LBE115:
 582:Drivers/lvgl/lvgl/src/widgets/lv_roller.c ****     sel_area->y1 = obj->coords.y1 + lv_obj_get_height(obj) / 2 - d / 2;
 744              		.loc 1 582 0
 745 0032 6419     		adds	r4, r4, r5
 746 0034 25D4     		bmi	.L46
 747              	.L42:
 748 0036 00EB6404 		add	r4, r0, r4, asr #1
 749 003a A5B2     		uxth	r5, r4
 750 003c 0FFA85F8 		sxth	r8, r5
 751              	.LVL105:
 583:Drivers/lvgl/lvgl/src/widgets/lv_roller.c ****     sel_area->y2 = sel_area->y1 + d;
 752              		.loc 1 583 0
 753 0040 F48A     		ldrh	r4, [r6, #22]
 754 0042 3046     		mov	r0, r6
 755 0044 FFF7FEFF 		bl	lv_obj_get_height
 756              	.LVL106:
 757 0048 0346     		mov	r3, r0
 758 004a 0028     		cmp	r0, #0
 759 004c 1BDB     		blt	.L47
 760              	.L43:
 761 004e 04EB6303 		add	r3, r4, r3, asr #1
 762 0052 9BB2     		uxth	r3, r3
 763 0054 4446     		mov	r4, r8
 764 0056 B8F1000F 		cmp	r8, #0
 765 005a 16DB     		blt	.L48
 766              	.L44:
 767 005c A3EB6403 		sub	r3, r3, r4, asr #1
 768 0060 9BB2     		uxth	r3, r3
 769 0062 7B80     		strh	r3, [r7, #2]	@ movhi
 584:Drivers/lvgl/lvgl/src/widgets/lv_roller.c ****     lv_area_t roller_coords;
 770              		.loc 1 584 0
 771 0064 2B44     		add	r3, r3, r5
 772 0066 FB80     		strh	r3, [r7, #6]	@ movhi
 586:Drivers/lvgl/lvgl/src/widgets/lv_roller.c **** 
 773              		.loc 1 586 0
 774 0068 6946     		mov	r1, sp
 775 006a 3046     		mov	r0, r6
 776 006c FFF7FEFF 		bl	lv_obj_get_coords
 777              	.LVL107:
ARM GAS  /tmp/cchzjiif.s 			page 45


 588:Drivers/lvgl/lvgl/src/widgets/lv_roller.c ****     sel_area->x2 = roller_coords.x2;
 778              		.loc 1 588 0
 779 0070 BDF90030 		ldrsh	r3, [sp]
 780 0074 3B80     		strh	r3, [r7]	@ movhi
 589:Drivers/lvgl/lvgl/src/widgets/lv_roller.c **** 
 781              		.loc 1 589 0
 782 0076 BDF90430 		ldrsh	r3, [sp, #4]
 783 007a BB80     		strh	r3, [r7, #4]	@ movhi
 591:Drivers/lvgl/lvgl/src/widgets/lv_roller.c **** 
 784              		.loc 1 591 0
 785 007c 02B0     		add	sp, sp, #8
 786              	.LCFI14:
 787              		.cfi_remember_state
 788              		.cfi_def_cfa_offset 24
 789              		@ sp needed
 790 007e BDE8F081 		pop	{r4, r5, r6, r7, r8, pc}
 791              	.LVL108:
 792              	.L46:
 793              	.LCFI15:
 794              		.cfi_restore_state
 582:Drivers/lvgl/lvgl/src/widgets/lv_roller.c ****     sel_area->y1 = obj->coords.y1 + lv_obj_get_height(obj) / 2 - d / 2;
 795              		.loc 1 582 0
 796 0082 0134     		adds	r4, r4, #1
 797 0084 D7E7     		b	.L42
 798              	.LVL109:
 799              	.L47:
 583:Drivers/lvgl/lvgl/src/widgets/lv_roller.c ****     sel_area->y2 = sel_area->y1 + d;
 800              		.loc 1 583 0
 801 0086 431C     		adds	r3, r0, #1
 802 0088 E1E7     		b	.L43
 803              	.L48:
 804 008a 08F10104 		add	r4, r8, #1
 805 008e E5E7     		b	.L44
 806              		.cfi_endproc
 807              	.LFE172:
 809              		.section	.text.draw_main,"ax",%progbits
 810              		.align	1
 811              		.syntax unified
 812              		.thumb
 813              		.thumb_func
 814              		.fpu fpv5-d16
 816              	draw_main:
 817              	.LFB170:
 451:Drivers/lvgl/lvgl/src/widgets/lv_roller.c ****     lv_event_code_t code = lv_event_get_code(e);
 818              		.loc 1 451 0
 819              		.cfi_startproc
 820              		@ args = 0, pretend = 0, frame = 88
 821              		@ frame_needed = 0, uses_anonymous_args = 0
 822              	.LVL110:
 823 0000 2DE9F047 		push	{r4, r5, r6, r7, r8, r9, r10, lr}
 824              	.LCFI16:
 825              		.cfi_def_cfa_offset 32
 826              		.cfi_offset 4, -32
 827              		.cfi_offset 5, -28
 828              		.cfi_offset 6, -24
 829              		.cfi_offset 7, -20
 830              		.cfi_offset 8, -16
ARM GAS  /tmp/cchzjiif.s 			page 46


 831              		.cfi_offset 9, -12
 832              		.cfi_offset 10, -8
 833              		.cfi_offset 14, -4
 834 0004 9AB0     		sub	sp, sp, #104
 835              	.LCFI17:
 836              		.cfi_def_cfa_offset 136
 837 0006 0646     		mov	r6, r0
 452:Drivers/lvgl/lvgl/src/widgets/lv_roller.c ****     lv_obj_t * obj = lv_event_get_target(e);
 838              		.loc 1 452 0
 839 0008 FFF7FEFF 		bl	lv_event_get_code
 840              	.LVL111:
 841 000c 0446     		mov	r4, r0
 842              	.LVL112:
 453:Drivers/lvgl/lvgl/src/widgets/lv_roller.c ****     if(code == LV_EVENT_DRAW_MAIN) {
 843              		.loc 1 453 0
 844 000e 3046     		mov	r0, r6
 845 0010 FFF7FEFF 		bl	lv_event_get_target
 846              	.LVL113:
 847 0014 0546     		mov	r5, r0
 848              	.LVL114:
 454:Drivers/lvgl/lvgl/src/widgets/lv_roller.c ****         /*Draw the selected rectangle*/
 849              		.loc 1 454 0
 850 0016 152C     		cmp	r4, #21
 851 0018 04D0     		beq	.L57
 465:Drivers/lvgl/lvgl/src/widgets/lv_roller.c ****         lv_draw_ctx_t * draw_ctx = lv_event_get_draw_ctx(e);
 852              		.loc 1 465 0
 853 001a 182C     		cmp	r4, #24
 854 001c 19D0     		beq	.L58
 855              	.LVL115:
 856              	.L49:
 522:Drivers/lvgl/lvgl/src/widgets/lv_roller.c **** 
 857              		.loc 1 522 0
 858 001e 1AB0     		add	sp, sp, #104
 859              	.LCFI18:
 860              		.cfi_remember_state
 861              		.cfi_def_cfa_offset 32
 862              		@ sp needed
 863 0020 BDE8F087 		pop	{r4, r5, r6, r7, r8, r9, r10, pc}
 864              	.LVL116:
 865              	.L57:
 866              	.LCFI19:
 867              		.cfi_restore_state
 868              	.LBB117:
 456:Drivers/lvgl/lvgl/src/widgets/lv_roller.c ****         lv_area_t sel_area;
 869              		.loc 1 456 0
 870 0024 3046     		mov	r0, r6
 871              	.LVL117:
 872 0026 FFF7FEFF 		bl	lv_event_get_draw_ctx
 873              	.LVL118:
 874 002a 0446     		mov	r4, r0
 875              	.LVL119:
 458:Drivers/lvgl/lvgl/src/widgets/lv_roller.c ****         lv_draw_rect_dsc_t sel_dsc;
 876              		.loc 1 458 0
 877 002c 0AA9     		add	r1, sp, #40
 878 002e 2846     		mov	r0, r5
 879              	.LVL120:
 880 0030 FFF7FEFF 		bl	get_sel_area
ARM GAS  /tmp/cchzjiif.s 			page 47


 881              	.LVL121:
 460:Drivers/lvgl/lvgl/src/widgets/lv_roller.c ****         lv_obj_init_draw_rect_dsc(obj, LV_PART_SELECTED, &sel_dsc);
 882              		.loc 1 460 0
 883 0034 0CA8     		add	r0, sp, #48
 884 0036 FFF7FEFF 		bl	lv_draw_rect_dsc_init
 885              	.LVL122:
 461:Drivers/lvgl/lvgl/src/widgets/lv_roller.c ****         lv_draw_rect(draw_ctx, &sel_dsc, &sel_area);
 886              		.loc 1 461 0
 887 003a 0CAA     		add	r2, sp, #48
 888 003c 4FF48021 		mov	r1, #262144
 889 0040 2846     		mov	r0, r5
 890 0042 FFF7FEFF 		bl	lv_obj_init_draw_rect_dsc
 891              	.LVL123:
 462:Drivers/lvgl/lvgl/src/widgets/lv_roller.c ****     }
 892              		.loc 1 462 0
 893 0046 0AAA     		add	r2, sp, #40
 894 0048 0CA9     		add	r1, sp, #48
 895 004a 2046     		mov	r0, r4
 896 004c FFF7FEFF 		bl	lv_draw_rect
 897              	.LVL124:
 898              	.LBE117:
 899 0050 E5E7     		b	.L49
 900              	.LVL125:
 901              	.L58:
 902              	.LBB118:
 466:Drivers/lvgl/lvgl/src/widgets/lv_roller.c **** 
 903              		.loc 1 466 0
 904 0052 3046     		mov	r0, r6
 905              	.LVL126:
 906 0054 FFF7FEFF 		bl	lv_event_get_draw_ctx
 907              	.LVL127:
 908 0058 0646     		mov	r6, r0
 909              	.LVL128:
 469:Drivers/lvgl/lvgl/src/widgets/lv_roller.c ****         lv_obj_init_draw_label_dsc(obj, LV_PART_SELECTED, &label_dsc);
 910              		.loc 1 469 0
 911 005a 0CA8     		add	r0, sp, #48
 912              	.LVL129:
 913 005c FFF7FEFF 		bl	lv_draw_label_dsc_init
 914              	.LVL130:
 470:Drivers/lvgl/lvgl/src/widgets/lv_roller.c **** 
 915              		.loc 1 470 0
 916 0060 0CAA     		add	r2, sp, #48
 917 0062 4FF48021 		mov	r1, #262144
 918 0066 2846     		mov	r0, r5
 919 0068 FFF7FEFF 		bl	lv_obj_init_draw_label_dsc
 920              	.LVL131:
 474:Drivers/lvgl/lvgl/src/widgets/lv_roller.c ****         lv_area_t mask_sel;
 921              		.loc 1 474 0
 922 006c 06A9     		add	r1, sp, #24
 923 006e 2846     		mov	r0, r5
 924 0070 FFF7FEFF 		bl	get_sel_area
 925              	.LVL132:
 477:Drivers/lvgl/lvgl/src/widgets/lv_roller.c ****         if(area_ok) {
 926              		.loc 1 477 0
 927 0074 06AA     		add	r2, sp, #24
 928 0076 B168     		ldr	r1, [r6, #8]
 929 0078 08A8     		add	r0, sp, #32
ARM GAS  /tmp/cchzjiif.s 			page 48


 930 007a FFF7FEFF 		bl	_lv_area_intersect
 931              	.LVL133:
 478:Drivers/lvgl/lvgl/src/widgets/lv_roller.c ****             lv_obj_t * label = get_label(obj);
 932              		.loc 1 478 0
 933 007e 0028     		cmp	r0, #0
 934 0080 CDD0     		beq	.L49
 935              	.LBB119:
 479:Drivers/lvgl/lvgl/src/widgets/lv_roller.c ****             if(lv_label_get_recolor(label)) label_dsc.flag |= LV_TEXT_FLAG_RECOLOR;
 936              		.loc 1 479 0
 937 0082 2846     		mov	r0, r5
 938              	.LVL134:
 939 0084 FFF7FEFF 		bl	get_label
 940              	.LVL135:
 941 0088 0746     		mov	r7, r0
 942              	.LVL136:
 480:Drivers/lvgl/lvgl/src/widgets/lv_roller.c **** 
 943              		.loc 1 480 0
 944 008a FFF7FEFF 		bl	lv_label_get_recolor
 945              	.LVL137:
 946 008e 28B1     		cbz	r0, .L53
 480:Drivers/lvgl/lvgl/src/widgets/lv_roller.c **** 
 947              		.loc 1 480 0 is_stmt 0 discriminator 1
 948 0090 9DF84D30 		ldrb	r3, [sp, #77]	@ zero_extendqisi2
 949 0094 43F00103 		orr	r3, r3, #1
 950 0098 8DF84D30 		strb	r3, [sp, #77]
 951              	.L53:
 484:Drivers/lvgl/lvgl/src/widgets/lv_roller.c ****                             lv_obj_get_width(obj), LV_TEXT_FLAG_EXPAND);
 952              		.loc 1 484 0 is_stmt 1
 953 009c 3846     		mov	r0, r7
 954 009e FFF7FEFF 		bl	lv_label_get_text
 955              	.LVL138:
 956 00a2 0446     		mov	r4, r0
 957              	.LVL139:
 958 00a4 DDF83080 		ldr	r8, [sp, #48]
 959 00a8 BDF94490 		ldrsh	r9, [sp, #68]
 960 00ac BDF942A0 		ldrsh	r10, [sp, #66]
 961 00b0 2846     		mov	r0, r5
 962 00b2 FFF7FEFF 		bl	lv_obj_get_width
 963              	.LVL140:
 964 00b6 0223     		movs	r3, #2
 965 00b8 0293     		str	r3, [sp, #8]
 966 00ba 0190     		str	r0, [sp, #4]
 967 00bc CDF800A0 		str	r10, [sp]
 968 00c0 4B46     		mov	r3, r9
 969 00c2 4246     		mov	r2, r8
 970 00c4 2146     		mov	r1, r4
 971 00c6 05A8     		add	r0, sp, #20
 972 00c8 FFF7FEFF 		bl	lv_txt_get_size
 973              	.LVL141:
 488:Drivers/lvgl/lvgl/src/widgets/lv_roller.c ****             int32_t label_y_prop = label->coords.y1 - (roller_h / 2 +
 974              		.loc 1 488 0
 975 00cc 2846     		mov	r0, r5
 976 00ce FFF7FEFF 		bl	lv_obj_get_height
 977              	.LVL142:
 489:Drivers/lvgl/lvgl/src/widgets/lv_roller.c ****                                                        obj->coords.y1); /*label offset from the mid
 978              		.loc 1 489 0
 979 00d2 B7F91680 		ldrsh	r8, [r7, #22]
ARM GAS  /tmp/cchzjiif.s 			page 49


 980 00d6 0446     		mov	r4, r0
 981 00d8 0028     		cmp	r0, #0
 982 00da 67DB     		blt	.L59
 983              	.L54:
 984 00dc 44F34F04 		sbfx	r4, r4, #1, #16
 490:Drivers/lvgl/lvgl/src/widgets/lv_roller.c ****             label_y_prop = (label_y_prop * 16384) / lv_obj_get_height(
 985              		.loc 1 490 0
 986 00e0 B5F91630 		ldrsh	r3, [r5, #22]
 489:Drivers/lvgl/lvgl/src/widgets/lv_roller.c ****                                                        obj->coords.y1); /*label offset from the mid
 987              		.loc 1 489 0
 988 00e4 2344     		add	r3, r3, r4
 989 00e6 A8EB0308 		sub	r8, r8, r3
 990              	.LVL143:
 491:Drivers/lvgl/lvgl/src/widgets/lv_roller.c ****                                label); /*Proportional position from the middle line (upscaled by <<
 991              		.loc 1 491 0
 992 00ea 4FEA8838 		lsl	r8, r8, #14
 993              	.LVL144:
 994 00ee 3846     		mov	r0, r7
 995              	.LVL145:
 996 00f0 FFF7FEFF 		bl	lv_obj_get_height
 997              	.LVL146:
 998 00f4 98FBF0F8 		sdiv	r8, r8, r0
 999              	.LVL147:
 1000              	.LBB120:
 1001              	.LBB121:
 465:Drivers/lvgl/lvgl/src/widgets/../core/lv_obj_style_gen.h ****     return (const lv_font_t *)v.ptr;
 1002              		.loc 2 465 0
 1003 00f8 5722     		movs	r2, #87
 1004 00fa 0021     		movs	r1, #0
 1005 00fc 2846     		mov	r0, r5
 1006 00fe FFF7FEFF 		bl	lv_obj_get_style_prop
 1007              	.LVL148:
 1008              	.LBE121:
 1009              	.LBE120:
 496:Drivers/lvgl/lvgl/src/widgets/lv_roller.c **** 
 1010              		.loc 1 496 0
 1011 0102 0C9B     		ldr	r3, [sp, #48]
 1012 0104 B3F90830 		ldrsh	r3, [r3, #8]
 1013 0108 B0F90820 		ldrsh	r2, [r0, #8]
 1014 010c 9B1A     		subs	r3, r3, r2
 1015 010e 4FD4     		bmi	.L60
 1016              	.L55:
 1017 0110 5B10     		asrs	r3, r3, #1
 1018 0112 18B2     		sxth	r0, r3
 1019              	.LVL149:
 499:Drivers/lvgl/lvgl/src/widgets/lv_roller.c ****             int32_t label_sel_y = roller_h / 2 + obj->coords.y1;
 1020              		.loc 1 499 0
 1021 0114 BDF81610 		ldrh	r1, [sp, #22]
 1022 0118 CB1A     		subs	r3, r1, r3
 1023 011a 1BB2     		sxth	r3, r3
 1024 011c ADF81630 		strh	r3, [sp, #22]	@ movhi
 500:Drivers/lvgl/lvgl/src/widgets/lv_roller.c ****             label_sel_y += (label_y_prop * res_p.y) >> 14;
 1025              		.loc 1 500 0
 1026 0120 B5F91620 		ldrsh	r2, [r5, #22]
 1027 0124 1444     		add	r4, r4, r2
 1028              	.LVL150:
 501:Drivers/lvgl/lvgl/src/widgets/lv_roller.c ****             label_sel_y -= corr;
ARM GAS  /tmp/cchzjiif.s 			page 50


 1029              		.loc 1 501 0
 1030 0126 08FB03F2 		mul	r2, r8, r3
 1031 012a 04EBA232 		add	r2, r4, r2, asr #14
 1032              	.LVL151:
 502:Drivers/lvgl/lvgl/src/widgets/lv_roller.c **** 
 1033              		.loc 1 502 0
 1034 012e 141A     		subs	r4, r2, r0
 1035              	.LVL152:
 1036              	.LBB122:
 1037              	.LBB123:
 255:Drivers/lvgl/lvgl/src/widgets/../core/lv_obj_style_gen.h ****     return (lv_coord_t)v.num;
 1038              		.loc 2 255 0
 1039 0130 3222     		movs	r2, #50
 1040 0132 0021     		movs	r1, #0
 1041 0134 2846     		mov	r0, r5
 1042              	.LVL153:
 1043 0136 FFF7FEFF 		bl	lv_obj_get_style_prop
 1044              	.LVL154:
 1045 013a 8046     		mov	r8, r0
 1046              	.LVL155:
 1047              	.LBE123:
 1048              	.LBE122:
 1049              	.LBB124:
 1050              	.LBB125:
 117:Drivers/lvgl/lvgl/src/widgets/../core/lv_obj_style_gen.h ****     return (lv_coord_t)v.num;
 1051              		.loc 2 117 0
 1052 013c 1222     		movs	r2, #18
 1053 013e 0021     		movs	r1, #0
 1054 0140 2846     		mov	r0, r5
 1055 0142 FFF7FEFF 		bl	lv_obj_get_style_prop
 1056              	.LVL156:
 1057 0146 8146     		mov	r9, r0
 1058              	.LVL157:
 1059              	.LBE125:
 1060              	.LBE124:
 1061              	.LBB126:
 1062              	.LBB127:
 123:Drivers/lvgl/lvgl/src/widgets/../core/lv_obj_style_gen.h ****     return (lv_coord_t)v.num;
 1063              		.loc 2 123 0
 1064 0148 1322     		movs	r2, #19
 1065 014a 0021     		movs	r1, #0
 1066 014c 2846     		mov	r0, r5
 1067 014e FFF7FEFF 		bl	lv_obj_get_style_prop
 1068              	.LVL158:
 1069              	.LBE127:
 1070              	.LBE126:
 510:Drivers/lvgl/lvgl/src/widgets/lv_roller.c ****             label_sel_area.y1 = label_sel_y;
 1071              		.loc 1 510 0
 1072 0152 AA8A     		ldrh	r2, [r5, #20]
 1073              	.LVL159:
 1074 0154 4A44     		add	r2, r2, r9
 1075 0156 1FFA88F1 		uxth	r1, r8
 1076 015a 11FA82F2 		uxtah	r2, r1, r2
 1077 015e ADF82820 		strh	r2, [sp, #40]	@ movhi
 511:Drivers/lvgl/lvgl/src/widgets/lv_roller.c ****             label_sel_area.x2 = obj->coords.x2 - pright - bwidth;
 1078              		.loc 1 511 0
 1079 0162 22B2     		sxth	r2, r4
ARM GAS  /tmp/cchzjiif.s 			page 51


 1080 0164 ADF82A20 		strh	r2, [sp, #42]	@ movhi
 512:Drivers/lvgl/lvgl/src/widgets/lv_roller.c ****             label_sel_area.y2 = label_sel_area.y1 + res_p.y;
 1081              		.loc 1 512 0
 1082 0168 2B8B     		ldrh	r3, [r5, #24]
 1083 016a 1B1A     		subs	r3, r3, r0
 1084 016c 9BB2     		uxth	r3, r3
 1085 016e 5B1A     		subs	r3, r3, r1
 1086 0170 ADF82C30 		strh	r3, [sp, #44]	@ movhi
 513:Drivers/lvgl/lvgl/src/widgets/lv_roller.c **** 
 1087              		.loc 1 513 0
 1088 0174 BDF81630 		ldrh	r3, [sp, #22]
 1089 0178 13FA82F2 		uxtah	r2, r3, r2
 1090 017c ADF82E20 		strh	r2, [sp, #46]	@ movhi
 515:Drivers/lvgl/lvgl/src/widgets/lv_roller.c ****             const lv_area_t * clip_area_ori = draw_ctx->clip_area;
 1091              		.loc 1 515 0
 1092 0180 9DF84D30 		ldrb	r3, [sp, #77]	@ zero_extendqisi2
 1093 0184 43F00203 		orr	r3, r3, #2
 1094 0188 8DF84D30 		strb	r3, [sp, #77]
 516:Drivers/lvgl/lvgl/src/widgets/lv_roller.c ****             draw_ctx->clip_area = &mask_sel;
 1095              		.loc 1 516 0
 1096 018c B468     		ldr	r4, [r6, #8]
 1097              	.LVL160:
 517:Drivers/lvgl/lvgl/src/widgets/lv_roller.c ****             lv_draw_label(draw_ctx, &label_dsc, &label_sel_area, lv_label_get_text(label), NULL);
 1098              		.loc 1 517 0
 1099 018e 08AB     		add	r3, sp, #32
 1100 0190 B360     		str	r3, [r6, #8]
 518:Drivers/lvgl/lvgl/src/widgets/lv_roller.c ****             draw_ctx->clip_area = clip_area_ori;
 1101              		.loc 1 518 0
 1102 0192 3846     		mov	r0, r7
 1103 0194 FFF7FEFF 		bl	lv_label_get_text
 1104              	.LVL161:
 1105 0198 0023     		movs	r3, #0
 1106 019a 0093     		str	r3, [sp]
 1107 019c 0346     		mov	r3, r0
 1108 019e 0AAA     		add	r2, sp, #40
 1109 01a0 0CA9     		add	r1, sp, #48
 1110 01a2 3046     		mov	r0, r6
 1111 01a4 FFF7FEFF 		bl	lv_draw_label
 1112              	.LVL162:
 519:Drivers/lvgl/lvgl/src/widgets/lv_roller.c ****         }
 1113              		.loc 1 519 0
 1114 01a8 B460     		str	r4, [r6, #8]
 1115              	.LBE119:
 1116              	.LBE118:
 522:Drivers/lvgl/lvgl/src/widgets/lv_roller.c **** 
 1117              		.loc 1 522 0
 1118 01aa 38E7     		b	.L49
 1119              	.LVL163:
 1120              	.L59:
 1121              	.LBB129:
 1122              	.LBB128:
 489:Drivers/lvgl/lvgl/src/widgets/lv_roller.c ****                                                        obj->coords.y1); /*label offset from the mid
 1123              		.loc 1 489 0
 1124 01ac 441C     		adds	r4, r0, #1
 1125 01ae 95E7     		b	.L54
 1126              	.LVL164:
 1127              	.L60:
ARM GAS  /tmp/cchzjiif.s 			page 52


 496:Drivers/lvgl/lvgl/src/widgets/lv_roller.c **** 
 1128              		.loc 1 496 0
 1129 01b0 0133     		adds	r3, r3, #1
 1130 01b2 ADE7     		b	.L55
 1131              	.LBE128:
 1132              	.LBE129:
 1133              		.cfi_endproc
 1134              	.LFE170:
 1136              		.section	.text.draw_label,"ax",%progbits
 1137              		.align	1
 1138              		.syntax unified
 1139              		.thumb
 1140              		.thumb_func
 1141              		.fpu fpv5-d16
 1143              	draw_label:
 1144              	.LFB171:
 525:Drivers/lvgl/lvgl/src/widgets/lv_roller.c ****     /* Split the drawing of the label into  an upper (above the selected area)
 1145              		.loc 1 525 0
 1146              		.cfi_startproc
 1147              		@ args = 0, pretend = 0, frame = 56
 1148              		@ frame_needed = 0, uses_anonymous_args = 0
 1149              	.LVL165:
 1150 0000 2DE9F041 		push	{r4, r5, r6, r7, r8, lr}
 1151              	.LCFI20:
 1152              		.cfi_def_cfa_offset 24
 1153              		.cfi_offset 4, -24
 1154              		.cfi_offset 5, -20
 1155              		.cfi_offset 6, -16
 1156              		.cfi_offset 7, -12
 1157              		.cfi_offset 8, -8
 1158              		.cfi_offset 14, -4
 1159 0004 90B0     		sub	sp, sp, #64
 1160              	.LCFI21:
 1161              		.cfi_def_cfa_offset 88
 1162 0006 0546     		mov	r5, r0
 528:Drivers/lvgl/lvgl/src/widgets/lv_roller.c ****     lv_obj_t * roller = lv_obj_get_parent(label_obj);
 1163              		.loc 1 528 0
 1164 0008 FFF7FEFF 		bl	lv_event_get_target
 1165              	.LVL166:
 1166 000c 0446     		mov	r4, r0
 1167              	.LVL167:
 529:Drivers/lvgl/lvgl/src/widgets/lv_roller.c ****     lv_draw_label_dsc_t label_draw_dsc;
 1168              		.loc 1 529 0
 1169 000e FFF7FEFF 		bl	lv_obj_get_parent
 1170              	.LVL168:
 1171 0012 0646     		mov	r6, r0
 1172              	.LVL169:
 531:Drivers/lvgl/lvgl/src/widgets/lv_roller.c ****     lv_obj_init_draw_label_dsc(roller, LV_PART_MAIN, &label_draw_dsc);
 1173              		.loc 1 531 0
 1174 0014 08A8     		add	r0, sp, #32
 1175              	.LVL170:
 1176 0016 FFF7FEFF 		bl	lv_draw_label_dsc_init
 1177              	.LVL171:
 532:Drivers/lvgl/lvgl/src/widgets/lv_roller.c ****     if(lv_label_get_recolor(label_obj)) label_draw_dsc.flag |= LV_TEXT_FLAG_RECOLOR;
 1178              		.loc 1 532 0
 1179 001a 08AA     		add	r2, sp, #32
 1180 001c 0021     		movs	r1, #0
ARM GAS  /tmp/cchzjiif.s 			page 53


 1181 001e 3046     		mov	r0, r6
 1182 0020 FFF7FEFF 		bl	lv_obj_init_draw_label_dsc
 1183              	.LVL172:
 533:Drivers/lvgl/lvgl/src/widgets/lv_roller.c **** 
 1184              		.loc 1 533 0
 1185 0024 2046     		mov	r0, r4
 1186 0026 FFF7FEFF 		bl	lv_label_get_recolor
 1187              	.LVL173:
 1188 002a 28B1     		cbz	r0, .L62
 533:Drivers/lvgl/lvgl/src/widgets/lv_roller.c **** 
 1189              		.loc 1 533 0 is_stmt 0 discriminator 1
 1190 002c 9DF83D30 		ldrb	r3, [sp, #61]	@ zero_extendqisi2
 1191 0030 43F00103 		orr	r3, r3, #1
 1192 0034 8DF83D30 		strb	r3, [sp, #61]
 1193              	.L62:
 535:Drivers/lvgl/lvgl/src/widgets/lv_roller.c **** 
 1194              		.loc 1 535 0 is_stmt 1
 1195 0038 2846     		mov	r0, r5
 1196 003a FFF7FEFF 		bl	lv_event_get_draw_ctx
 1197              	.LVL174:
 1198 003e 0546     		mov	r5, r0
 1199              	.LVL175:
 540:Drivers/lvgl/lvgl/src/widgets/lv_roller.c ****     lv_area_t roller_clip_area;
 1200              		.loc 1 540 0
 1201 0040 8768     		ldr	r7, [r0, #8]
 1202              	.LVL176:
 542:Drivers/lvgl/lvgl/src/widgets/lv_roller.c ****     draw_ctx->clip_area = &roller_clip_area;
 1203              		.loc 1 542 0
 1204 0042 06F11402 		add	r2, r6, #20
 1205 0046 3946     		mov	r1, r7
 1206 0048 06A8     		add	r0, sp, #24
 1207              	.LVL177:
 1208 004a FFF7FEFF 		bl	_lv_area_intersect
 1209              	.LVL178:
 1210 004e 10B9     		cbnz	r0, .L68
 1211              	.LVL179:
 1212              	.L61:
 572:Drivers/lvgl/lvgl/src/widgets/lv_roller.c **** 
 1213              		.loc 1 572 0
 1214 0050 10B0     		add	sp, sp, #64
 1215              	.LCFI22:
 1216              		.cfi_remember_state
 1217              		.cfi_def_cfa_offset 24
 1218              		@ sp needed
 1219 0052 BDE8F081 		pop	{r4, r5, r6, r7, r8, pc}
 1220              	.LVL180:
 1221              	.L68:
 1222              	.LCFI23:
 1223              		.cfi_restore_state
 543:Drivers/lvgl/lvgl/src/widgets/lv_roller.c **** 
 1224              		.loc 1 543 0
 1225 0056 06AB     		add	r3, sp, #24
 1226 0058 AB60     		str	r3, [r5, #8]
 546:Drivers/lvgl/lvgl/src/widgets/lv_roller.c **** 
 1227              		.loc 1 546 0
 1228 005a 04A9     		add	r1, sp, #16
 1229 005c 3046     		mov	r0, r6
ARM GAS  /tmp/cchzjiif.s 			page 54


 1230 005e FFF7FEFF 		bl	get_sel_area
 1231              	.LVL181:
 549:Drivers/lvgl/lvgl/src/widgets/lv_roller.c ****     clip2.y1 = label_obj->coords.y1;
 1232              		.loc 1 549 0
 1233 0062 B4F91430 		ldrsh	r3, [r4, #20]
 1234 0066 ADF80830 		strh	r3, [sp, #8]	@ movhi
 550:Drivers/lvgl/lvgl/src/widgets/lv_roller.c ****     clip2.x2 = label_obj->coords.x2;
 1235              		.loc 1 550 0
 1236 006a B4F91630 		ldrsh	r3, [r4, #22]
 1237 006e ADF80A30 		strh	r3, [sp, #10]	@ movhi
 551:Drivers/lvgl/lvgl/src/widgets/lv_roller.c ****     clip2.y2 = sel_area.y1;
 1238              		.loc 1 551 0
 1239 0072 B4F91830 		ldrsh	r3, [r4, #24]
 1240 0076 ADF80C30 		strh	r3, [sp, #12]	@ movhi
 552:Drivers/lvgl/lvgl/src/widgets/lv_roller.c ****     if(_lv_area_intersect(&clip2, draw_ctx->clip_area, &clip2)) {
 1241              		.loc 1 552 0
 1242 007a BDF91230 		ldrsh	r3, [sp, #18]
 1243 007e ADF80E30 		strh	r3, [sp, #14]	@ movhi
 553:Drivers/lvgl/lvgl/src/widgets/lv_roller.c ****         const lv_area_t * clip_area_ori2 = draw_ctx->clip_area;
 1244              		.loc 1 553 0
 1245 0082 02AA     		add	r2, sp, #8
 1246 0084 A968     		ldr	r1, [r5, #8]
 1247 0086 1046     		mov	r0, r2
 1248 0088 FFF7FEFF 		bl	_lv_area_intersect
 1249              	.LVL182:
 1250 008c B8B9     		cbnz	r0, .L69
 1251              	.LVL183:
 1252              	.L64:
 560:Drivers/lvgl/lvgl/src/widgets/lv_roller.c ****     clip2.y1 = sel_area.y2;
 1253              		.loc 1 560 0
 1254 008e B4F91430 		ldrsh	r3, [r4, #20]
 1255 0092 ADF80830 		strh	r3, [sp, #8]	@ movhi
 561:Drivers/lvgl/lvgl/src/widgets/lv_roller.c ****     clip2.x2 = label_obj->coords.x2;
 1256              		.loc 1 561 0
 1257 0096 BDF91630 		ldrsh	r3, [sp, #22]
 1258 009a ADF80A30 		strh	r3, [sp, #10]	@ movhi
 562:Drivers/lvgl/lvgl/src/widgets/lv_roller.c ****     clip2.y2 = label_obj->coords.y2;
 1259              		.loc 1 562 0
 1260 009e B4F91830 		ldrsh	r3, [r4, #24]
 1261 00a2 ADF80C30 		strh	r3, [sp, #12]	@ movhi
 563:Drivers/lvgl/lvgl/src/widgets/lv_roller.c ****     if(_lv_area_intersect(&clip2, draw_ctx->clip_area, &clip2)) {
 1262              		.loc 1 563 0
 1263 00a6 B4F91A30 		ldrsh	r3, [r4, #26]
 1264 00aa ADF80E30 		strh	r3, [sp, #14]	@ movhi
 564:Drivers/lvgl/lvgl/src/widgets/lv_roller.c ****         const lv_area_t * clip_area_ori2 = draw_ctx->clip_area;
 1265              		.loc 1 564 0
 1266 00ae 02AA     		add	r2, sp, #8
 1267 00b0 A968     		ldr	r1, [r5, #8]
 1268 00b2 1046     		mov	r0, r2
 1269 00b4 FFF7FEFF 		bl	_lv_area_intersect
 1270              	.LVL184:
 1271 00b8 A8B9     		cbnz	r0, .L70
 1272              	.L65:
 571:Drivers/lvgl/lvgl/src/widgets/lv_roller.c **** }
 1273              		.loc 1 571 0
 1274 00ba AF60     		str	r7, [r5, #8]
 1275 00bc C8E7     		b	.L61
ARM GAS  /tmp/cchzjiif.s 			page 55


 1276              	.LVL185:
 1277              	.L69:
 1278              	.LBB130:
 554:Drivers/lvgl/lvgl/src/widgets/lv_roller.c ****         draw_ctx->clip_area = &clip2;
 1279              		.loc 1 554 0
 1280 00be D5F80880 		ldr	r8, [r5, #8]
 1281              	.LVL186:
 555:Drivers/lvgl/lvgl/src/widgets/lv_roller.c ****         lv_draw_label(draw_ctx, &label_draw_dsc, &label_obj->coords, lv_label_get_text(label_obj), 
 1282              		.loc 1 555 0
 1283 00c2 02AB     		add	r3, sp, #8
 1284 00c4 AB60     		str	r3, [r5, #8]
 556:Drivers/lvgl/lvgl/src/widgets/lv_roller.c ****         draw_ctx->clip_area = clip_area_ori2;
 1285              		.loc 1 556 0
 1286 00c6 04F11406 		add	r6, r4, #20
 1287              	.LVL187:
 1288 00ca 2046     		mov	r0, r4
 1289 00cc FFF7FEFF 		bl	lv_label_get_text
 1290              	.LVL188:
 1291 00d0 0023     		movs	r3, #0
 1292 00d2 0093     		str	r3, [sp]
 1293 00d4 0346     		mov	r3, r0
 1294 00d6 3246     		mov	r2, r6
 1295 00d8 08A9     		add	r1, sp, #32
 1296 00da 2846     		mov	r0, r5
 1297 00dc FFF7FEFF 		bl	lv_draw_label
 1298              	.LVL189:
 557:Drivers/lvgl/lvgl/src/widgets/lv_roller.c ****     }
 1299              		.loc 1 557 0
 1300 00e0 C5F80880 		str	r8, [r5, #8]
 1301 00e4 D3E7     		b	.L64
 1302              	.LVL190:
 1303              	.L70:
 1304              	.LBE130:
 1305              	.LBB131:
 566:Drivers/lvgl/lvgl/src/widgets/lv_roller.c ****         lv_draw_label(draw_ctx, &label_draw_dsc, &label_obj->coords, lv_label_get_text(label_obj), 
 1306              		.loc 1 566 0
 1307 00e6 02AB     		add	r3, sp, #8
 1308 00e8 AB60     		str	r3, [r5, #8]
 1309              	.LVL191:
 567:Drivers/lvgl/lvgl/src/widgets/lv_roller.c ****         draw_ctx->clip_area = clip_area_ori2;
 1310              		.loc 1 567 0
 1311 00ea 04F11406 		add	r6, r4, #20
 1312 00ee 2046     		mov	r0, r4
 1313 00f0 FFF7FEFF 		bl	lv_label_get_text
 1314              	.LVL192:
 1315 00f4 0023     		movs	r3, #0
 1316 00f6 0093     		str	r3, [sp]
 1317 00f8 0346     		mov	r3, r0
 1318 00fa 3246     		mov	r2, r6
 1319 00fc 08A9     		add	r1, sp, #32
 1320 00fe 2846     		mov	r0, r5
 1321 0100 FFF7FEFF 		bl	lv_draw_label
 1322              	.LVL193:
 1323 0104 D9E7     		b	.L65
 1324              	.LBE131:
 1325              		.cfi_endproc
 1326              	.LFE171:
ARM GAS  /tmp/cchzjiif.s 			page 56


 1328              		.section	.text.lv_roller_label_event,"ax",%progbits
 1329              		.align	1
 1330              		.syntax unified
 1331              		.thumb
 1332              		.thumb_func
 1333              		.fpu fpv5-d16
 1335              	lv_roller_label_event:
 1336              	.LFB169:
 419:Drivers/lvgl/lvgl/src/widgets/lv_roller.c ****     LV_UNUSED(class_p);
 1337              		.loc 1 419 0
 1338              		.cfi_startproc
 1339              		@ args = 0, pretend = 0, frame = 0
 1340              		@ frame_needed = 0, uses_anonymous_args = 0
 1341              	.LVL194:
 1342 0000 70B5     		push	{r4, r5, r6, lr}
 1343              	.LCFI24:
 1344              		.cfi_def_cfa_offset 16
 1345              		.cfi_offset 4, -16
 1346              		.cfi_offset 5, -12
 1347              		.cfi_offset 6, -8
 1348              		.cfi_offset 14, -4
 1349 0002 0D46     		mov	r5, r1
 424:Drivers/lvgl/lvgl/src/widgets/lv_roller.c ****     /*LV_EVENT_DRAW_MAIN will be called in the draw function*/
 1350              		.loc 1 424 0
 1351 0004 0846     		mov	r0, r1
 1352              	.LVL195:
 1353 0006 FFF7FEFF 		bl	lv_event_get_code
 1354              	.LVL196:
 1355 000a 0446     		mov	r4, r0
 1356              	.LVL197:
 426:Drivers/lvgl/lvgl/src/widgets/lv_roller.c ****         /* Call the ancestor's event handler */
 1357              		.loc 1 426 0
 1358 000c 1528     		cmp	r0, #21
 1359 000e 06D0     		beq	.L72
 428:Drivers/lvgl/lvgl/src/widgets/lv_roller.c ****         if(res != LV_RES_OK) return;
 1360              		.loc 1 428 0
 1361 0010 2946     		mov	r1, r5
 1362 0012 1748     		ldr	r0, .L79
 1363              	.LVL198:
 1364 0014 FFF7FEFF 		bl	lv_obj_event_base
 1365              	.LVL199:
 429:Drivers/lvgl/lvgl/src/widgets/lv_roller.c ****     }
 1366              		.loc 1 429 0
 1367 0018 0128     		cmp	r0, #1
 1368 001a 00D0     		beq	.L72
 1369              	.LVL200:
 1370              	.L71:
 447:Drivers/lvgl/lvgl/src/widgets/lv_roller.c **** 
 1371              		.loc 1 447 0
 1372 001c 70BD     		pop	{r4, r5, r6, pc}
 1373              	.LVL201:
 1374              	.L72:
 432:Drivers/lvgl/lvgl/src/widgets/lv_roller.c ****     if(code == LV_EVENT_REFR_EXT_DRAW_SIZE) {
 1375              		.loc 1 432 0
 1376 001e 2846     		mov	r0, r5
 1377 0020 FFF7FEFF 		bl	lv_event_get_target
 1378              	.LVL202:
ARM GAS  /tmp/cchzjiif.s 			page 57


 1379 0024 0646     		mov	r6, r0
 1380              	.LVL203:
 433:Drivers/lvgl/lvgl/src/widgets/lv_roller.c ****         /*If the selected text has a larger font it needs some extra space to draw it*/
 1381              		.loc 1 433 0
 1382 0026 132C     		cmp	r4, #19
 1383 0028 07D0     		beq	.L77
 441:Drivers/lvgl/lvgl/src/widgets/lv_roller.c ****         refr_position(lv_obj_get_parent(label), LV_ANIM_OFF);
 1384              		.loc 1 441 0
 1385 002a 292C     		cmp	r4, #41
 1386 002c 1AD0     		beq	.L78
 444:Drivers/lvgl/lvgl/src/widgets/lv_roller.c ****         draw_label(e);
 1387              		.loc 1 444 0
 1388 002e 152C     		cmp	r4, #21
 1389 0030 F4D1     		bne	.L71
 445:Drivers/lvgl/lvgl/src/widgets/lv_roller.c ****     }
 1390              		.loc 1 445 0
 1391 0032 2846     		mov	r0, r5
 1392              	.LVL204:
 1393 0034 FFF7FEFF 		bl	draw_label
 1394              	.LVL205:
 1395 0038 F0E7     		b	.L71
 1396              	.LVL206:
 1397              	.L77:
 1398              	.LBB132:
 435:Drivers/lvgl/lvgl/src/widgets/lv_roller.c ****         lv_obj_t * obj = lv_obj_get_parent(label);
 1399              		.loc 1 435 0
 1400 003a 2846     		mov	r0, r5
 1401              	.LVL207:
 1402 003c FFF7FEFF 		bl	lv_event_get_param
 1403              	.LVL208:
 1404 0040 0546     		mov	r5, r0
 1405              	.LVL209:
 436:Drivers/lvgl/lvgl/src/widgets/lv_roller.c ****         lv_coord_t sel_w = get_selected_label_width(obj);
 1406              		.loc 1 436 0
 1407 0042 3046     		mov	r0, r6
 1408              	.LVL210:
 1409 0044 FFF7FEFF 		bl	lv_obj_get_parent
 1410              	.LVL211:
 437:Drivers/lvgl/lvgl/src/widgets/lv_roller.c ****         lv_coord_t label_w = lv_obj_get_width(label);
 1411              		.loc 1 437 0
 1412 0048 FFF7FEFF 		bl	get_selected_label_width
 1413              	.LVL212:
 1414 004c 0446     		mov	r4, r0
 1415              	.LVL213:
 438:Drivers/lvgl/lvgl/src/widgets/lv_roller.c ****         *s = LV_MAX(*s, sel_w - label_w);
 1416              		.loc 1 438 0
 1417 004e 3046     		mov	r0, r6
 1418 0050 FFF7FEFF 		bl	lv_obj_get_width
 1419              	.LVL214:
 439:Drivers/lvgl/lvgl/src/widgets/lv_roller.c ****     }
 1420              		.loc 1 439 0
 1421 0054 201A     		subs	r0, r4, r0
 1422              	.LVL215:
 1423 0056 B5F90040 		ldrsh	r4, [r5]
 1424              	.LVL216:
 1425 005a A042     		cmp	r0, r4
 1426 005c B8BF     		it	lt
ARM GAS  /tmp/cchzjiif.s 			page 58


 1427 005e 2046     		movlt	r0, r4
 1428 0060 2880     		strh	r0, [r5]	@ movhi
 1429              	.LBE132:
 1430 0062 DBE7     		b	.L71
 1431              	.LVL217:
 1432              	.L78:
 442:Drivers/lvgl/lvgl/src/widgets/lv_roller.c ****     }
 1433              		.loc 1 442 0
 1434 0064 FFF7FEFF 		bl	lv_obj_get_parent
 1435              	.LVL218:
 1436 0068 0021     		movs	r1, #0
 1437 006a FFF7FEFF 		bl	refr_position
 1438              	.LVL219:
 1439 006e D5E7     		b	.L71
 1440              	.L80:
 1441              		.align	2
 1442              	.L79:
 1443 0070 00000000 		.word	.LANCHOR0
 1444              		.cfi_endproc
 1445              	.LFE169:
 1447              		.section	.text.lv_roller_create,"ax",%progbits
 1448              		.align	1
 1449              		.global	lv_roller_create
 1450              		.syntax unified
 1451              		.thumb
 1452              		.thumb_func
 1453              		.fpu fpv5-d16
 1455              	lv_roller_create:
 1456              	.LFB159:
  79:Drivers/lvgl/lvgl/src/widgets/lv_roller.c ****     LV_LOG_INFO("begin");
 1457              		.loc 1 79 0
 1458              		.cfi_startproc
 1459              		@ args = 0, pretend = 0, frame = 0
 1460              		@ frame_needed = 0, uses_anonymous_args = 0
 1461              	.LVL220:
 1462 0000 10B5     		push	{r4, lr}
 1463              	.LCFI25:
 1464              		.cfi_def_cfa_offset 8
 1465              		.cfi_offset 4, -8
 1466              		.cfi_offset 14, -4
  81:Drivers/lvgl/lvgl/src/widgets/lv_roller.c ****     lv_obj_class_init_obj(obj);
 1467              		.loc 1 81 0
 1468 0002 0146     		mov	r1, r0
 1469 0004 0348     		ldr	r0, .L83
 1470              	.LVL221:
 1471 0006 FFF7FEFF 		bl	lv_obj_class_create_obj
 1472              	.LVL222:
 1473 000a 0446     		mov	r4, r0
 1474              	.LVL223:
  82:Drivers/lvgl/lvgl/src/widgets/lv_roller.c ****     return obj;
 1475              		.loc 1 82 0
 1476 000c FFF7FEFF 		bl	lv_obj_class_init_obj
 1477              	.LVL224:
  84:Drivers/lvgl/lvgl/src/widgets/lv_roller.c **** 
 1478              		.loc 1 84 0
 1479 0010 2046     		mov	r0, r4
 1480 0012 10BD     		pop	{r4, pc}
ARM GAS  /tmp/cchzjiif.s 			page 59


 1481              	.LVL225:
 1482              	.L84:
 1483              		.align	2
 1484              	.L83:
 1485 0014 00000000 		.word	.LANCHOR1
 1486              		.cfi_endproc
 1487              	.LFE159:
 1489              		.section	.text.lv_roller_set_options,"ax",%progbits
 1490              		.align	1
 1491              		.global	lv_roller_set_options
 1492              		.syntax unified
 1493              		.thumb
 1494              		.thumb_func
 1495              		.fpu fpv5-d16
 1497              	lv_roller_set_options:
 1498              	.LFB160:
  97:Drivers/lvgl/lvgl/src/widgets/lv_roller.c ****     LV_ASSERT_OBJ(obj, MY_CLASS);
 1499              		.loc 1 97 0
 1500              		.cfi_startproc
 1501              		@ args = 0, pretend = 0, frame = 0
 1502              		@ frame_needed = 0, uses_anonymous_args = 0
 1503              	.LVL226:
  99:Drivers/lvgl/lvgl/src/widgets/lv_roller.c **** 
 1504              		.loc 1 99 0
 1505 0000 01B9     		cbnz	r1, .L86
 1506              	.L87:
 1507 0002 FEE7     		b	.L87
 1508              	.L86:
  97:Drivers/lvgl/lvgl/src/widgets/lv_roller.c ****     LV_ASSERT_OBJ(obj, MY_CLASS);
 1509              		.loc 1 97 0
 1510 0004 2DE9F047 		push	{r4, r5, r6, r7, r8, r9, r10, lr}
 1511              	.LCFI26:
 1512              		.cfi_def_cfa_offset 32
 1513              		.cfi_offset 4, -32
 1514              		.cfi_offset 5, -28
 1515              		.cfi_offset 6, -24
 1516              		.cfi_offset 7, -20
 1517              		.cfi_offset 8, -16
 1518              		.cfi_offset 9, -12
 1519              		.cfi_offset 10, -8
 1520              		.cfi_offset 14, -4
 1521 0008 0F46     		mov	r7, r1
 1522 000a 1546     		mov	r5, r2
 1523 000c 0446     		mov	r4, r0
 1524              	.LVL227:
 102:Drivers/lvgl/lvgl/src/widgets/lv_roller.c **** 
 1525              		.loc 1 102 0
 1526 000e FFF7FEFF 		bl	get_label
 1527              	.LVL228:
 1528 0012 0646     		mov	r6, r0
 1529              	.LVL229:
 104:Drivers/lvgl/lvgl/src/widgets/lv_roller.c ****     roller->sel_opt_id_ori = 0;
 1530              		.loc 1 104 0
 1531 0014 0023     		movs	r3, #0
 1532 0016 E384     		strh	r3, [r4, #38]	@ movhi
 105:Drivers/lvgl/lvgl/src/widgets/lv_roller.c **** 
 1533              		.loc 1 105 0
ARM GAS  /tmp/cchzjiif.s 			page 60


 1534 0018 2385     		strh	r3, [r4, #40]	@ movhi
 108:Drivers/lvgl/lvgl/src/widgets/lv_roller.c ****     uint32_t cnt;
 1535              		.loc 1 108 0
 1536 001a A384     		strh	r3, [r4, #36]	@ movhi
 1537              	.LVL230:
 110:Drivers/lvgl/lvgl/src/widgets/lv_roller.c ****         if(options[cnt] == '\n') roller->option_cnt++;
 1538              		.loc 1 110 0
 1539 001c 00E0     		b	.L88
 1540              	.LVL231:
 1541              	.L89:
 110:Drivers/lvgl/lvgl/src/widgets/lv_roller.c ****         if(options[cnt] == '\n') roller->option_cnt++;
 1542              		.loc 1 110 0 is_stmt 0 discriminator 2
 1543 001e 0133     		adds	r3, r3, #1
 1544              	.LVL232:
 1545              	.L88:
 110:Drivers/lvgl/lvgl/src/widgets/lv_roller.c ****         if(options[cnt] == '\n') roller->option_cnt++;
 1546              		.loc 1 110 0 discriminator 1
 1547 0020 FA5C     		ldrb	r2, [r7, r3]	@ zero_extendqisi2
 1548 0022 2AB1     		cbz	r2, .L97
 111:Drivers/lvgl/lvgl/src/widgets/lv_roller.c ****     }
 1549              		.loc 1 111 0 is_stmt 1
 1550 0024 0A2A     		cmp	r2, #10
 1551 0026 FAD1     		bne	.L89
 111:Drivers/lvgl/lvgl/src/widgets/lv_roller.c ****     }
 1552              		.loc 1 111 0 is_stmt 0 discriminator 1
 1553 0028 A28C     		ldrh	r2, [r4, #36]
 1554 002a 0132     		adds	r2, r2, #1
 1555 002c A284     		strh	r2, [r4, #36]	@ movhi
 1556 002e F6E7     		b	.L89
 1557              	.L97:
 113:Drivers/lvgl/lvgl/src/widgets/lv_roller.c **** 
 1558              		.loc 1 113 0 is_stmt 1
 1559 0030 A38C     		ldrh	r3, [r4, #36]
 1560              	.LVL233:
 1561 0032 0133     		adds	r3, r3, #1
 1562 0034 A384     		strh	r3, [r4, #36]	@ movhi
 115:Drivers/lvgl/lvgl/src/widgets/lv_roller.c ****         roller->mode = LV_ROLLER_MODE_NORMAL;
 1563              		.loc 1 115 0
 1564 0036 95B1     		cbz	r5, .L98
 1565              	.LBB133:
 120:Drivers/lvgl/lvgl/src/widgets/lv_roller.c **** 
 1566              		.loc 1 120 0
 1567 0038 94F82A30 		ldrb	r3, [r4, #42]	@ zero_extendqisi2
 1568 003c 43F00103 		orr	r3, r3, #1
 1569 0040 84F82A30 		strb	r3, [r4, #42]
 122:Drivers/lvgl/lvgl/src/widgets/lv_roller.c ****         char * opt_extra = lv_mem_buf_get(opt_len * LV_ROLLER_INF_PAGES);
 1570              		.loc 1 122 0
 1571 0044 3846     		mov	r0, r7
 1572              	.LVL234:
 1573 0046 FFF7FEFF 		bl	strlen
 1574              	.LVL235:
 1575 004a 00F1010A 		add	r10, r0, #1
 1576              	.LVL236:
 123:Drivers/lvgl/lvgl/src/widgets/lv_roller.c ****         uint8_t i;
 1577              		.loc 1 123 0
 1578 004e CAEBCA09 		rsb	r9, r10, r10, lsl #3
 1579 0052 4846     		mov	r0, r9
ARM GAS  /tmp/cchzjiif.s 			page 61


 1580 0054 FFF7FEFF 		bl	lv_mem_buf_get
 1581              	.LVL237:
 1582 0058 8046     		mov	r8, r0
 1583              	.LVL238:
 125:Drivers/lvgl/lvgl/src/widgets/lv_roller.c ****             strcpy(&opt_extra[opt_len * i], options);
 1584              		.loc 1 125 0
 1585 005a 0025     		movs	r5, #0
 1586 005c 1DE0     		b	.L93
 1587              	.LVL239:
 1588              	.L98:
 1589              	.LBE133:
 116:Drivers/lvgl/lvgl/src/widgets/lv_roller.c ****         lv_label_set_text(label, options);
 1590              		.loc 1 116 0
 1591 005e 94F82A30 		ldrb	r3, [r4, #42]	@ zero_extendqisi2
 1592 0062 6FF30003 		bfc	r3, #0, #1
 1593 0066 84F82A30 		strb	r3, [r4, #42]
 117:Drivers/lvgl/lvgl/src/widgets/lv_roller.c ****     }
 1594              		.loc 1 117 0
 1595 006a 3946     		mov	r1, r7
 1596 006c 3046     		mov	r0, r6
 1597              	.LVL240:
 1598 006e FFF7FEFF 		bl	lv_label_set_text
 1599              	.LVL241:
 1600              	.L92:
 139:Drivers/lvgl/lvgl/src/widgets/lv_roller.c **** 
 1601              		.loc 1 139 0
 1602 0072 E38C     		ldrh	r3, [r4, #38]
 1603 0074 2385     		strh	r3, [r4, #40]	@ movhi
 142:Drivers/lvgl/lvgl/src/widgets/lv_roller.c **** 
 1604              		.loc 1 142 0
 1605 0076 3046     		mov	r0, r6
 1606 0078 FFF7FEFF 		bl	lv_obj_refresh_ext_draw_size
 1607              	.LVL242:
 144:Drivers/lvgl/lvgl/src/widgets/lv_roller.c **** 
 1608              		.loc 1 144 0
 1609 007c BDE8F087 		pop	{r4, r5, r6, r7, r8, r9, r10, pc}
 1610              	.LVL243:
 1611              	.L94:
 1612              	.LBB134:
 126:Drivers/lvgl/lvgl/src/widgets/lv_roller.c ****             opt_extra[opt_len * (i + 1) - 1] = '\n';
 1613              		.loc 1 126 0 discriminator 3
 1614 0080 3946     		mov	r1, r7
 1615 0082 0AFB0580 		mla	r0, r10, r5, r8
 1616 0086 FFF7FEFF 		bl	strcpy
 1617              	.LVL244:
 127:Drivers/lvgl/lvgl/src/widgets/lv_roller.c ****         }
 1618              		.loc 1 127 0 discriminator 3
 1619 008a 0135     		adds	r5, r5, #1
 1620              	.LVL245:
 1621 008c 0AFB05F3 		mul	r3, r10, r5
 1622 0090 013B     		subs	r3, r3, #1
 1623 0092 0A22     		movs	r2, #10
 1624 0094 08F80320 		strb	r2, [r8, r3]
 125:Drivers/lvgl/lvgl/src/widgets/lv_roller.c ****             strcpy(&opt_extra[opt_len * i], options);
 1625              		.loc 1 125 0 discriminator 3
 1626 0098 EDB2     		uxtb	r5, r5
 1627              	.LVL246:
ARM GAS  /tmp/cchzjiif.s 			page 62


 1628              	.L93:
 125:Drivers/lvgl/lvgl/src/widgets/lv_roller.c ****             strcpy(&opt_extra[opt_len * i], options);
 1629              		.loc 1 125 0 is_stmt 0 discriminator 1
 1630 009a 062D     		cmp	r5, #6
 1631 009c F0D9     		bls	.L94
 129:Drivers/lvgl/lvgl/src/widgets/lv_roller.c ****         lv_label_set_text(label, opt_extra);
 1632              		.loc 1 129 0 is_stmt 1
 1633 009e 09F1FF39 		add	r9, r9, #-1
 1634 00a2 0023     		movs	r3, #0
 1635 00a4 08F80930 		strb	r3, [r8, r9]
 130:Drivers/lvgl/lvgl/src/widgets/lv_roller.c ****         lv_mem_buf_release(opt_extra);
 1636              		.loc 1 130 0
 1637 00a8 4146     		mov	r1, r8
 1638 00aa 3046     		mov	r0, r6
 1639 00ac FFF7FEFF 		bl	lv_label_set_text
 1640              	.LVL247:
 131:Drivers/lvgl/lvgl/src/widgets/lv_roller.c **** 
 1641              		.loc 1 131 0
 1642 00b0 4046     		mov	r0, r8
 1643 00b2 FFF7FEFF 		bl	lv_mem_buf_release
 1644              	.LVL248:
 133:Drivers/lvgl/lvgl/src/widgets/lv_roller.c **** 
 1645              		.loc 1 133 0
 1646 00b6 A38C     		ldrh	r3, [r4, #36]
 1647 00b8 03EB4302 		add	r2, r3, r3, lsl #1
 1648 00bc E284     		strh	r2, [r4, #38]	@ movhi
 135:Drivers/lvgl/lvgl/src/widgets/lv_roller.c ****         inf_normalize(obj);
 1649              		.loc 1 135 0
 1650 00be C3EBC303 		rsb	r3, r3, r3, lsl #3
 1651 00c2 A384     		strh	r3, [r4, #36]	@ movhi
 136:Drivers/lvgl/lvgl/src/widgets/lv_roller.c ****     }
 1652              		.loc 1 136 0
 1653 00c4 2046     		mov	r0, r4
 1654 00c6 FFF7FEFF 		bl	inf_normalize
 1655              	.LVL249:
 1656 00ca D2E7     		b	.L92
 1657              	.LBE134:
 1658              		.cfi_endproc
 1659              	.LFE160:
 1661              		.section	.text.lv_roller_constructor,"ax",%progbits
 1662              		.align	1
 1663              		.syntax unified
 1664              		.thumb
 1665              		.thumb_func
 1666              		.fpu fpv5-d16
 1668              	lv_roller_constructor:
 1669              	.LFB167:
 295:Drivers/lvgl/lvgl/src/widgets/lv_roller.c ****     LV_UNUSED(class_p);
 1670              		.loc 1 295 0
 1671              		.cfi_startproc
 1672              		@ args = 0, pretend = 0, frame = 0
 1673              		@ frame_needed = 0, uses_anonymous_args = 0
 1674              	.LVL250:
 1675 0000 38B5     		push	{r3, r4, r5, lr}
 1676              	.LCFI27:
 1677              		.cfi_def_cfa_offset 16
 1678              		.cfi_offset 3, -16
ARM GAS  /tmp/cchzjiif.s 			page 63


 1679              		.cfi_offset 4, -12
 1680              		.cfi_offset 5, -8
 1681              		.cfi_offset 14, -4
 1682 0002 0C46     		mov	r4, r1
 1683              	.LVL251:
 299:Drivers/lvgl/lvgl/src/widgets/lv_roller.c ****     roller->option_cnt = 0;
 1684              		.loc 1 299 0
 1685 0004 91F82A30 		ldrb	r3, [r1, #42]	@ zero_extendqisi2
 1686 0008 6FF30003 		bfc	r3, #0, #1
 1687 000c 81F82A30 		strb	r3, [r1, #42]
 300:Drivers/lvgl/lvgl/src/widgets/lv_roller.c ****     roller->sel_opt_id = 0;
 1688              		.loc 1 300 0
 1689 0010 0025     		movs	r5, #0
 1690 0012 8D84     		strh	r5, [r1, #36]	@ movhi
 301:Drivers/lvgl/lvgl/src/widgets/lv_roller.c ****     roller->sel_opt_id_ori = 0;
 1691              		.loc 1 301 0
 1692 0014 CD84     		strh	r5, [r1, #38]	@ movhi
 302:Drivers/lvgl/lvgl/src/widgets/lv_roller.c **** 
 1693              		.loc 1 302 0
 1694 0016 0D85     		strh	r5, [r1, #40]	@ movhi
 304:Drivers/lvgl/lvgl/src/widgets/lv_roller.c ****     lv_obj_clear_flag(obj, LV_OBJ_FLAG_SCROLL_CHAIN_VER);
 1695              		.loc 1 304 0
 1696 0018 1021     		movs	r1, #16
 1697              	.LVL252:
 1698 001a 2046     		mov	r0, r4
 1699              	.LVL253:
 1700 001c FFF7FEFF 		bl	lv_obj_clear_flag
 1701              	.LVL254:
 305:Drivers/lvgl/lvgl/src/widgets/lv_roller.c **** 
 1702              		.loc 1 305 0
 1703 0020 4FF40071 		mov	r1, #512
 1704 0024 2046     		mov	r0, r4
 1705 0026 FFF7FEFF 		bl	lv_obj_clear_flag
 1706              	.LVL255:
 308:Drivers/lvgl/lvgl/src/widgets/lv_roller.c ****     lv_obj_class_init_obj(label);
 1707              		.loc 1 308 0
 1708 002a 2146     		mov	r1, r4
 1709 002c 0548     		ldr	r0, .L101
 1710 002e FFF7FEFF 		bl	lv_obj_class_create_obj
 1711              	.LVL256:
 309:Drivers/lvgl/lvgl/src/widgets/lv_roller.c ****     lv_roller_set_options(obj, "Option 1\nOption 2\nOption 3\nOption 4\nOption 5", LV_ROLLER_MODE_N
 1712              		.loc 1 309 0
 1713 0032 FFF7FEFF 		bl	lv_obj_class_init_obj
 1714              	.LVL257:
 310:Drivers/lvgl/lvgl/src/widgets/lv_roller.c **** 
 1715              		.loc 1 310 0
 1716 0036 2A46     		mov	r2, r5
 1717 0038 0349     		ldr	r1, .L101+4
 1718 003a 2046     		mov	r0, r4
 1719 003c FFF7FEFF 		bl	lv_roller_set_options
 1720              	.LVL258:
 313:Drivers/lvgl/lvgl/src/widgets/lv_roller.c **** 
 1721              		.loc 1 313 0
 1722 0040 38BD     		pop	{r3, r4, r5, pc}
 1723              	.LVL259:
 1724              	.L102:
 1725 0042 00BF     		.align	2
ARM GAS  /tmp/cchzjiif.s 			page 64


 1726              	.L101:
 1727 0044 00000000 		.word	.LANCHOR0
 1728 0048 00000000 		.word	.LC0
 1729              		.cfi_endproc
 1730              	.LFE167:
 1732              		.section	.text.lv_roller_set_selected,"ax",%progbits
 1733              		.align	1
 1734              		.global	lv_roller_set_selected
 1735              		.syntax unified
 1736              		.thumb
 1737              		.thumb_func
 1738              		.fpu fpv5-d16
 1740              	lv_roller_set_selected:
 1741              	.LFB161:
 153:Drivers/lvgl/lvgl/src/widgets/lv_roller.c ****     LV_ASSERT_OBJ(obj, MY_CLASS);
 1742              		.loc 1 153 0
 1743              		.cfi_startproc
 1744              		@ args = 0, pretend = 0, frame = 0
 1745              		@ frame_needed = 0, uses_anonymous_args = 0
 1746              	.LVL260:
 1747 0000 F8B5     		push	{r3, r4, r5, r6, r7, lr}
 1748              	.LCFI28:
 1749              		.cfi_def_cfa_offset 24
 1750              		.cfi_offset 3, -24
 1751              		.cfi_offset 4, -20
 1752              		.cfi_offset 5, -16
 1753              		.cfi_offset 6, -12
 1754              		.cfi_offset 7, -8
 1755              		.cfi_offset 14, -4
 1756 0002 0B46     		mov	r3, r1
 1757              	.LVL261:
 163:Drivers/lvgl/lvgl/src/widgets/lv_roller.c ****         uint32_t real_option_cnt = roller->option_cnt / LV_ROLLER_INF_PAGES;
 1758              		.loc 1 163 0
 1759 0004 90F82A10 		ldrb	r1, [r0, #42]	@ zero_extendqisi2
 1760              	.LVL262:
 1761 0008 11F0010F 		tst	r1, #1
 1762 000c 22D0     		beq	.L104
 1763              	.LBB135:
 164:Drivers/lvgl/lvgl/src/widgets/lv_roller.c ****         uint16_t current_page = roller->sel_opt_id / real_option_cnt;
 1764              		.loc 1 164 0
 1765 000e 858C     		ldrh	r5, [r0, #36]
 1766 0010 174C     		ldr	r4, .L109
 1767 0012 A4FB0514 		umull	r1, r4, r4, r5
 1768 0016 2D1B     		subs	r5, r5, r4
 1769 0018 04EB5504 		add	r4, r4, r5, lsr #1
 1770 001c C4F38F04 		ubfx	r4, r4, #2, #16
 1771              	.LVL263:
 165:Drivers/lvgl/lvgl/src/widgets/lv_roller.c ****         /*Set by the user to e.g. 0, 1, 2, 3...
 1772              		.loc 1 165 0
 1773 0020 C58C     		ldrh	r5, [r0, #38]
 1774 0022 B5FBF4F1 		udiv	r1, r5, r4
 1775              	.LVL264:
 168:Drivers/lvgl/lvgl/src/widgets/lv_roller.c ****             uint16_t act_opt = roller->sel_opt_id - current_page * real_option_cnt;
 1776              		.loc 1 168 0
 1777 0026 9C42     		cmp	r4, r3
 1778 0028 14D9     		bls	.L104
 1779              	.LBB136:
ARM GAS  /tmp/cchzjiif.s 			page 65


 169:Drivers/lvgl/lvgl/src/widgets/lv_roller.c ****             int32_t sel_opt_signed = sel_opt;
 1780              		.loc 1 169 0
 1781 002a 14FB01F1 		smulbb	r1, r4, r1
 1782              	.LVL265:
 1783 002e 89B2     		uxth	r1, r1
 1784 0030 6D1A     		subs	r5, r5, r1
 1785              	.LVL266:
 1786 0032 ADB2     		uxth	r5, r5
 1787              	.LVL267:
 170:Drivers/lvgl/lvgl/src/widgets/lv_roller.c ****             /*Huge jump? Probably from last to first or first to last option.*/
 1788              		.loc 1 170 0
 1789 0034 9C46     		mov	ip, r3
 1790              	.LVL268:
 172:Drivers/lvgl/lvgl/src/widgets/lv_roller.c ****                 if(act_opt > sel_opt) sel_opt_signed += real_option_cnt;
 1791              		.loc 1 172 0
 1792 0036 2EB2     		sxth	r6, r5
 1793 0038 F61A     		subs	r6, r6, r3
 1794 003a 002E     		cmp	r6, #0
 1795 003c B8BF     		it	lt
 1796 003e 7642     		rsblt	r6, r6, #0
 1797 0040 B6EB540F 		cmp	r6, r4, lsr #1
 1798 0044 03D9     		bls	.L105
 173:Drivers/lvgl/lvgl/src/widgets/lv_roller.c ****                 else sel_opt_signed -= real_option_cnt;
 1799              		.loc 1 173 0
 1800 0046 AB42     		cmp	r3, r5
 1801 0048 0FD2     		bcs	.L106
 173:Drivers/lvgl/lvgl/src/widgets/lv_roller.c ****                 else sel_opt_signed -= real_option_cnt;
 1802              		.loc 1 173 0 is_stmt 0 discriminator 1
 1803 004a 03EB040C 		add	ip, r3, r4
 1804              	.LVL269:
 1805              	.L105:
 176:Drivers/lvgl/lvgl/src/widgets/lv_roller.c ****         }
 1806              		.loc 1 176 0 is_stmt 1
 1807 004e 11FA8CF1 		uxtah	r1, r1, ip
 1808 0052 8BB2     		uxth	r3, r1
 1809              	.LVL270:
 1810              	.L104:
 1811              	.LBE136:
 1812              	.LBE135:
 180:Drivers/lvgl/lvgl/src/widgets/lv_roller.c ****     roller->sel_opt_id_ori = roller->sel_opt_id;
 1813              		.loc 1 180 0
 1814 0054 848C     		ldrh	r4, [r0, #36]
 1815 0056 9C42     		cmp	r4, r3
 1816 0058 01D8     		bhi	.L107
 180:Drivers/lvgl/lvgl/src/widgets/lv_roller.c ****     roller->sel_opt_id_ori = roller->sel_opt_id;
 1817              		.loc 1 180 0 is_stmt 0 discriminator 1
 1818 005a 631E     		subs	r3, r4, #1
 1819              	.LVL271:
 1820 005c 9BB2     		uxth	r3, r3
 1821              	.L107:
 180:Drivers/lvgl/lvgl/src/widgets/lv_roller.c ****     roller->sel_opt_id_ori = roller->sel_opt_id;
 1822              		.loc 1 180 0 discriminator 4
 1823 005e C384     		strh	r3, [r0, #38]	@ movhi
 181:Drivers/lvgl/lvgl/src/widgets/lv_roller.c **** 
 1824              		.loc 1 181 0 is_stmt 1 discriminator 4
 1825 0060 0385     		strh	r3, [r0, #40]	@ movhi
 183:Drivers/lvgl/lvgl/src/widgets/lv_roller.c **** }
ARM GAS  /tmp/cchzjiif.s 			page 66


 1826              		.loc 1 183 0 discriminator 4
 1827 0062 1146     		mov	r1, r2
 1828 0064 FFF7FEFF 		bl	refr_position
 1829              	.LVL272:
 184:Drivers/lvgl/lvgl/src/widgets/lv_roller.c **** 
 1830              		.loc 1 184 0 discriminator 4
 1831 0068 F8BD     		pop	{r3, r4, r5, r6, r7, pc}
 1832              	.LVL273:
 1833              	.L106:
 1834              	.LBB138:
 1835              	.LBB137:
 174:Drivers/lvgl/lvgl/src/widgets/lv_roller.c ****             }
 1836              		.loc 1 174 0
 1837 006a A3EB040C 		sub	ip, r3, r4
 1838              	.LVL274:
 1839 006e EEE7     		b	.L105
 1840              	.L110:
 1841              		.align	2
 1842              	.L109:
 1843 0070 25499224 		.word	613566757
 1844              	.LBE137:
 1845              	.LBE138:
 1846              		.cfi_endproc
 1847              	.LFE161:
 1849              		.section	.text.release_handler,"ax",%progbits
 1850              		.align	1
 1851              		.syntax unified
 1852              		.thumb
 1853              		.thumb_func
 1854              		.fpu fpv5-d16
 1856              	release_handler:
 1857              	.LFB174:
 654:Drivers/lvgl/lvgl/src/widgets/lv_roller.c ****     lv_obj_t * label = get_label(obj);
 1858              		.loc 1 654 0
 1859              		.cfi_startproc
 1860              		@ args = 0, pretend = 0, frame = 16
 1861              		@ frame_needed = 0, uses_anonymous_args = 0
 1862              	.LVL275:
 1863 0000 2DE9F043 		push	{r4, r5, r6, r7, r8, r9, lr}
 1864              	.LCFI29:
 1865              		.cfi_def_cfa_offset 28
 1866              		.cfi_offset 4, -28
 1867              		.cfi_offset 5, -24
 1868              		.cfi_offset 6, -20
 1869              		.cfi_offset 7, -16
 1870              		.cfi_offset 8, -12
 1871              		.cfi_offset 9, -8
 1872              		.cfi_offset 14, -4
 1873 0004 85B0     		sub	sp, sp, #20
 1874              	.LCFI30:
 1875              		.cfi_def_cfa_offset 48
 1876 0006 0646     		mov	r6, r0
 655:Drivers/lvgl/lvgl/src/widgets/lv_roller.c ****     if(label == NULL) return LV_RES_OK;
 1877              		.loc 1 655 0
 1878 0008 FFF7FEFF 		bl	get_label
 1879              	.LVL276:
 656:Drivers/lvgl/lvgl/src/widgets/lv_roller.c **** 
ARM GAS  /tmp/cchzjiif.s 			page 67


 1880              		.loc 1 656 0
 1881 000c 0028     		cmp	r0, #0
 1882 000e 00F0A580 		beq	.L124
 1883 0012 8046     		mov	r8, r0
 658:Drivers/lvgl/lvgl/src/widgets/lv_roller.c ****     lv_roller_t * roller = (lv_roller_t *)obj;
 1884              		.loc 1 658 0
 1885 0014 FFF7FEFF 		bl	lv_indev_get_act
 1886              	.LVL277:
 1887 0018 0746     		mov	r7, r0
 1888              	.LVL278:
 662:Drivers/lvgl/lvgl/src/widgets/lv_roller.c ****     if(indev_type == LV_INDEV_TYPE_ENCODER || indev_type == LV_INDEV_TYPE_KEYPAD) {
 1889              		.loc 1 662 0
 1890 001a FFF7FEFF 		bl	lv_indev_get_type
 1891              	.LVL279:
 663:Drivers/lvgl/lvgl/src/widgets/lv_roller.c ****         roller->sel_opt_id_ori = roller->sel_opt_id;
 1892              		.loc 1 663 0
 1893 001e 0228     		cmp	r0, #2
 1894 0020 18BF     		it	ne
 1895 0022 0428     		cmpne	r0, #4
 1896 0024 03D1     		bne	.L113
 664:Drivers/lvgl/lvgl/src/widgets/lv_roller.c **** 
 1897              		.loc 1 664 0
 1898 0026 F38C     		ldrh	r3, [r6, #38]
 1899 0028 3385     		strh	r3, [r6, #40]	@ movhi
 666:Drivers/lvgl/lvgl/src/widgets/lv_roller.c ****             lv_group_t * g      = lv_obj_get_group(obj);
 1900              		.loc 1 666 0
 1901 002a 0428     		cmp	r0, #4
 1902 002c 29D0     		beq	.L127
 1903              	.LVL280:
 1904              	.L113:
 674:Drivers/lvgl/lvgl/src/widgets/lv_roller.c ****         /*Search the clicked option (For KEYPAD and ENCODER the new value should be already set)*/
 1905              		.loc 1 674 0
 1906 002e 3846     		mov	r0, r7
 1907 0030 FFF7FEFF 		bl	lv_indev_get_type
 1908              	.LVL281:
 1909 0034 0128     		cmp	r0, #1
 1910 0036 31D1     		bne	.L128
 1911              	.L114:
 1912              	.LVL282:
 1913              	.LBB139:
 677:Drivers/lvgl/lvgl/src/widgets/lv_roller.c ****             new_opt = 0;
 1914              		.loc 1 677 0
 1915 0038 96F82A30 		ldrb	r3, [r6, #42]	@ zero_extendqisi2
 1916 003c 13F0020F 		tst	r3, #2
 1917 0040 48D1     		bne	.L116
 1918              	.LVL283:
 1919              	.LBB140:
 680:Drivers/lvgl/lvgl/src/widgets/lv_roller.c ****             p.y -= label->coords.y1;
 1920              		.loc 1 680 0
 1921 0042 01A9     		add	r1, sp, #4
 1922 0044 3846     		mov	r0, r7
 1923 0046 FFF7FEFF 		bl	lv_indev_get_point
 1924              	.LVL284:
 681:Drivers/lvgl/lvgl/src/widgets/lv_roller.c ****             p.x -= label->coords.x1;
 1925              		.loc 1 681 0
 1926 004a B8F81620 		ldrh	r2, [r8, #22]
 1927 004e BDF80630 		ldrh	r3, [sp, #6]
ARM GAS  /tmp/cchzjiif.s 			page 68


 1928 0052 9B1A     		subs	r3, r3, r2
