ARM GAS  /tmp/ccuuAFti.s 			page 1


   1              		.cpu cortex-m7
   2              		.eabi_attribute 28, 1
   3              		.eabi_attribute 20, 1
   4              		.eabi_attribute 21, 1
   5              		.eabi_attribute 23, 3
   6              		.eabi_attribute 24, 1
   7              		.eabi_attribute 25, 1
   8              		.eabi_attribute 26, 1
   9              		.eabi_attribute 30, 1
  10              		.eabi_attribute 34, 1
  11              		.eabi_attribute 18, 4
  12              		.file	"lv_span.c"
  13              		.text
  14              	.Ltext0:
  15              		.cfi_sections	.debug_frame
  16              		.section	.text.lv_get_snippet_cnt,"ax",%progbits
  17              		.align	1
  18              		.syntax unified
  19              		.thumb
  20              		.thumb_func
  21              		.fpu fpv5-d16
  23              	lv_get_snippet_cnt:
  24              	.LFB229:
  25              		.file 1 "Drivers/lvgl/lvgl/src/extra/widgets/span/lv_span.c"
   1:Drivers/lvgl/lvgl/src/extra/widgets/span/lv_span.c **** /**
   2:Drivers/lvgl/lvgl/src/extra/widgets/span/lv_span.c ****  * @file lv_span.c
   3:Drivers/lvgl/lvgl/src/extra/widgets/span/lv_span.c ****  *
   4:Drivers/lvgl/lvgl/src/extra/widgets/span/lv_span.c ****  */
   5:Drivers/lvgl/lvgl/src/extra/widgets/span/lv_span.c **** 
   6:Drivers/lvgl/lvgl/src/extra/widgets/span/lv_span.c **** /*********************
   7:Drivers/lvgl/lvgl/src/extra/widgets/span/lv_span.c ****  *      INCLUDES
   8:Drivers/lvgl/lvgl/src/extra/widgets/span/lv_span.c ****  *********************/
   9:Drivers/lvgl/lvgl/src/extra/widgets/span/lv_span.c **** #include "lv_span.h"
  10:Drivers/lvgl/lvgl/src/extra/widgets/span/lv_span.c **** 
  11:Drivers/lvgl/lvgl/src/extra/widgets/span/lv_span.c **** #if LV_USE_SPAN != 0
  12:Drivers/lvgl/lvgl/src/extra/widgets/span/lv_span.c **** 
  13:Drivers/lvgl/lvgl/src/extra/widgets/span/lv_span.c **** #include "../../../misc/lv_assert.h"
  14:Drivers/lvgl/lvgl/src/extra/widgets/span/lv_span.c **** 
  15:Drivers/lvgl/lvgl/src/extra/widgets/span/lv_span.c **** /*********************
  16:Drivers/lvgl/lvgl/src/extra/widgets/span/lv_span.c ****  *      DEFINES
  17:Drivers/lvgl/lvgl/src/extra/widgets/span/lv_span.c ****  *********************/
  18:Drivers/lvgl/lvgl/src/extra/widgets/span/lv_span.c **** #define MY_CLASS &lv_spangroup_class
  19:Drivers/lvgl/lvgl/src/extra/widgets/span/lv_span.c **** 
  20:Drivers/lvgl/lvgl/src/extra/widgets/span/lv_span.c **** /**********************
  21:Drivers/lvgl/lvgl/src/extra/widgets/span/lv_span.c ****  *      TYPEDEFS
  22:Drivers/lvgl/lvgl/src/extra/widgets/span/lv_span.c ****  **********************/
  23:Drivers/lvgl/lvgl/src/extra/widgets/span/lv_span.c **** typedef struct {
  24:Drivers/lvgl/lvgl/src/extra/widgets/span/lv_span.c ****     lv_span_t * span;
  25:Drivers/lvgl/lvgl/src/extra/widgets/span/lv_span.c ****     const char * txt;
  26:Drivers/lvgl/lvgl/src/extra/widgets/span/lv_span.c ****     const lv_font_t * font;
  27:Drivers/lvgl/lvgl/src/extra/widgets/span/lv_span.c ****     uint16_t   bytes;
  28:Drivers/lvgl/lvgl/src/extra/widgets/span/lv_span.c ****     lv_coord_t txt_w;
  29:Drivers/lvgl/lvgl/src/extra/widgets/span/lv_span.c ****     lv_coord_t line_h;
  30:Drivers/lvgl/lvgl/src/extra/widgets/span/lv_span.c ****     lv_coord_t letter_space;
  31:Drivers/lvgl/lvgl/src/extra/widgets/span/lv_span.c **** } lv_snippet_t;
  32:Drivers/lvgl/lvgl/src/extra/widgets/span/lv_span.c **** 
  33:Drivers/lvgl/lvgl/src/extra/widgets/span/lv_span.c **** struct _snippet_stack {
ARM GAS  /tmp/ccuuAFti.s 			page 2


  34:Drivers/lvgl/lvgl/src/extra/widgets/span/lv_span.c ****     lv_snippet_t    stack[LV_SPAN_SNIPPET_STACK_SIZE];
  35:Drivers/lvgl/lvgl/src/extra/widgets/span/lv_span.c ****     uint16_t        index;
  36:Drivers/lvgl/lvgl/src/extra/widgets/span/lv_span.c **** };
  37:Drivers/lvgl/lvgl/src/extra/widgets/span/lv_span.c **** 
  38:Drivers/lvgl/lvgl/src/extra/widgets/span/lv_span.c **** /**********************
  39:Drivers/lvgl/lvgl/src/extra/widgets/span/lv_span.c ****  *  STATIC PROTOTYPES
  40:Drivers/lvgl/lvgl/src/extra/widgets/span/lv_span.c ****  **********************/
  41:Drivers/lvgl/lvgl/src/extra/widgets/span/lv_span.c **** static void lv_spangroup_destructor(const lv_obj_class_t * class_p, lv_obj_t * obj);
  42:Drivers/lvgl/lvgl/src/extra/widgets/span/lv_span.c **** static void lv_spangroup_constructor(const lv_obj_class_t * class_p, lv_obj_t * obj);
  43:Drivers/lvgl/lvgl/src/extra/widgets/span/lv_span.c **** static void lv_spangroup_event(const lv_obj_class_t * class_p, lv_event_t * e);
  44:Drivers/lvgl/lvgl/src/extra/widgets/span/lv_span.c **** static void draw_main(lv_event_t * e);
  45:Drivers/lvgl/lvgl/src/extra/widgets/span/lv_span.c **** static void refresh_self_size(lv_obj_t * obj);
  46:Drivers/lvgl/lvgl/src/extra/widgets/span/lv_span.c **** 
  47:Drivers/lvgl/lvgl/src/extra/widgets/span/lv_span.c **** static const lv_font_t * lv_span_get_style_text_font(lv_obj_t * par, lv_span_t * span);
  48:Drivers/lvgl/lvgl/src/extra/widgets/span/lv_span.c **** static lv_coord_t lv_span_get_style_text_letter_space(lv_obj_t * par, lv_span_t * span);
  49:Drivers/lvgl/lvgl/src/extra/widgets/span/lv_span.c **** static lv_color_t lv_span_get_style_text_color(lv_obj_t * par, lv_span_t * span);
  50:Drivers/lvgl/lvgl/src/extra/widgets/span/lv_span.c **** static lv_opa_t lv_span_get_style_text_opa(lv_obj_t * par, lv_span_t * span);
  51:Drivers/lvgl/lvgl/src/extra/widgets/span/lv_span.c **** static lv_opa_t lv_span_get_style_text_blend_mode(lv_obj_t * par, lv_span_t * span);
  52:Drivers/lvgl/lvgl/src/extra/widgets/span/lv_span.c **** static int32_t lv_span_get_style_text_decor(lv_obj_t * par, lv_span_t * span);
  53:Drivers/lvgl/lvgl/src/extra/widgets/span/lv_span.c **** 
  54:Drivers/lvgl/lvgl/src/extra/widgets/span/lv_span.c **** static inline void span_text_check(const char ** text);
  55:Drivers/lvgl/lvgl/src/extra/widgets/span/lv_span.c **** static void lv_draw_span(lv_obj_t * obj, lv_draw_ctx_t * draw_ctx);
  56:Drivers/lvgl/lvgl/src/extra/widgets/span/lv_span.c **** static bool lv_txt_get_snippet(const char * txt, const lv_font_t * font, lv_coord_t letter_space,
  57:Drivers/lvgl/lvgl/src/extra/widgets/span/lv_span.c ****                                lv_coord_t max_width, lv_text_flag_t flag, lv_coord_t * use_width,
  58:Drivers/lvgl/lvgl/src/extra/widgets/span/lv_span.c ****                                uint32_t * end_ofs);
  59:Drivers/lvgl/lvgl/src/extra/widgets/span/lv_span.c **** 
  60:Drivers/lvgl/lvgl/src/extra/widgets/span/lv_span.c **** static void lv_snippet_clear(void);
  61:Drivers/lvgl/lvgl/src/extra/widgets/span/lv_span.c **** static uint16_t lv_get_snippet_cnt(void);
  62:Drivers/lvgl/lvgl/src/extra/widgets/span/lv_span.c **** static void lv_snippet_push(lv_snippet_t * item);
  63:Drivers/lvgl/lvgl/src/extra/widgets/span/lv_span.c **** static lv_snippet_t * lv_get_snippet(uint16_t index);
  64:Drivers/lvgl/lvgl/src/extra/widgets/span/lv_span.c **** static lv_coord_t convert_indent_pct(lv_obj_t * spans, lv_coord_t width);
  65:Drivers/lvgl/lvgl/src/extra/widgets/span/lv_span.c **** 
  66:Drivers/lvgl/lvgl/src/extra/widgets/span/lv_span.c **** /**********************
  67:Drivers/lvgl/lvgl/src/extra/widgets/span/lv_span.c ****  *  STATIC VARIABLES
  68:Drivers/lvgl/lvgl/src/extra/widgets/span/lv_span.c ****  **********************/
  69:Drivers/lvgl/lvgl/src/extra/widgets/span/lv_span.c **** static struct _snippet_stack snippet_stack;
  70:Drivers/lvgl/lvgl/src/extra/widgets/span/lv_span.c **** 
  71:Drivers/lvgl/lvgl/src/extra/widgets/span/lv_span.c **** const lv_obj_class_t lv_spangroup_class  = {
  72:Drivers/lvgl/lvgl/src/extra/widgets/span/lv_span.c ****     .base_class = &lv_obj_class,
  73:Drivers/lvgl/lvgl/src/extra/widgets/span/lv_span.c ****     .constructor_cb = lv_spangroup_constructor,
  74:Drivers/lvgl/lvgl/src/extra/widgets/span/lv_span.c ****     .destructor_cb = lv_spangroup_destructor,
  75:Drivers/lvgl/lvgl/src/extra/widgets/span/lv_span.c ****     .event_cb = lv_spangroup_event,
  76:Drivers/lvgl/lvgl/src/extra/widgets/span/lv_span.c ****     .instance_size = sizeof(lv_spangroup_t),
  77:Drivers/lvgl/lvgl/src/extra/widgets/span/lv_span.c ****     .width_def = LV_SIZE_CONTENT,
  78:Drivers/lvgl/lvgl/src/extra/widgets/span/lv_span.c ****     .height_def = LV_SIZE_CONTENT,
  79:Drivers/lvgl/lvgl/src/extra/widgets/span/lv_span.c **** };
  80:Drivers/lvgl/lvgl/src/extra/widgets/span/lv_span.c **** 
  81:Drivers/lvgl/lvgl/src/extra/widgets/span/lv_span.c **** /**********************
  82:Drivers/lvgl/lvgl/src/extra/widgets/span/lv_span.c ****  *      MACROS
  83:Drivers/lvgl/lvgl/src/extra/widgets/span/lv_span.c ****  **********************/
  84:Drivers/lvgl/lvgl/src/extra/widgets/span/lv_span.c **** 
  85:Drivers/lvgl/lvgl/src/extra/widgets/span/lv_span.c **** /**********************
  86:Drivers/lvgl/lvgl/src/extra/widgets/span/lv_span.c ****  *   GLOBAL FUNCTIONS
  87:Drivers/lvgl/lvgl/src/extra/widgets/span/lv_span.c ****  **********************/
  88:Drivers/lvgl/lvgl/src/extra/widgets/span/lv_span.c **** 
  89:Drivers/lvgl/lvgl/src/extra/widgets/span/lv_span.c **** lv_obj_t * lv_spangroup_create(lv_obj_t * par)
  90:Drivers/lvgl/lvgl/src/extra/widgets/span/lv_span.c **** {
ARM GAS  /tmp/ccuuAFti.s 			page 3


  91:Drivers/lvgl/lvgl/src/extra/widgets/span/lv_span.c ****     lv_obj_t * obj = lv_obj_class_create_obj(&lv_spangroup_class, par);
  92:Drivers/lvgl/lvgl/src/extra/widgets/span/lv_span.c ****     lv_obj_class_init_obj(obj);
  93:Drivers/lvgl/lvgl/src/extra/widgets/span/lv_span.c ****     return obj;
  94:Drivers/lvgl/lvgl/src/extra/widgets/span/lv_span.c **** }
  95:Drivers/lvgl/lvgl/src/extra/widgets/span/lv_span.c **** 
  96:Drivers/lvgl/lvgl/src/extra/widgets/span/lv_span.c **** lv_span_t * lv_spangroup_new_span(lv_obj_t * obj)
  97:Drivers/lvgl/lvgl/src/extra/widgets/span/lv_span.c **** {
  98:Drivers/lvgl/lvgl/src/extra/widgets/span/lv_span.c ****     if(obj == NULL) {
  99:Drivers/lvgl/lvgl/src/extra/widgets/span/lv_span.c ****         return NULL;
 100:Drivers/lvgl/lvgl/src/extra/widgets/span/lv_span.c ****     }
 101:Drivers/lvgl/lvgl/src/extra/widgets/span/lv_span.c **** 
 102:Drivers/lvgl/lvgl/src/extra/widgets/span/lv_span.c ****     LV_ASSERT_OBJ(obj, MY_CLASS);
 103:Drivers/lvgl/lvgl/src/extra/widgets/span/lv_span.c ****     lv_spangroup_t * spans = (lv_spangroup_t *)obj;
 104:Drivers/lvgl/lvgl/src/extra/widgets/span/lv_span.c ****     lv_span_t * span = _lv_ll_ins_tail(&spans->child_ll);
 105:Drivers/lvgl/lvgl/src/extra/widgets/span/lv_span.c ****     LV_ASSERT_MALLOC(span);
 106:Drivers/lvgl/lvgl/src/extra/widgets/span/lv_span.c **** 
 107:Drivers/lvgl/lvgl/src/extra/widgets/span/lv_span.c ****     lv_style_init(&span->style);
 108:Drivers/lvgl/lvgl/src/extra/widgets/span/lv_span.c ****     span->txt = (char *)"";
 109:Drivers/lvgl/lvgl/src/extra/widgets/span/lv_span.c ****     span->static_flag = 1;
 110:Drivers/lvgl/lvgl/src/extra/widgets/span/lv_span.c ****     span->spangroup = obj;
 111:Drivers/lvgl/lvgl/src/extra/widgets/span/lv_span.c **** 
 112:Drivers/lvgl/lvgl/src/extra/widgets/span/lv_span.c ****     refresh_self_size(obj);
 113:Drivers/lvgl/lvgl/src/extra/widgets/span/lv_span.c **** 
 114:Drivers/lvgl/lvgl/src/extra/widgets/span/lv_span.c ****     return span;
 115:Drivers/lvgl/lvgl/src/extra/widgets/span/lv_span.c **** }
 116:Drivers/lvgl/lvgl/src/extra/widgets/span/lv_span.c **** 
 117:Drivers/lvgl/lvgl/src/extra/widgets/span/lv_span.c **** void lv_spangroup_del_span(lv_obj_t * obj, lv_span_t * span)
 118:Drivers/lvgl/lvgl/src/extra/widgets/span/lv_span.c **** {
 119:Drivers/lvgl/lvgl/src/extra/widgets/span/lv_span.c ****     if(obj == NULL || span == NULL) {
 120:Drivers/lvgl/lvgl/src/extra/widgets/span/lv_span.c ****         return;
 121:Drivers/lvgl/lvgl/src/extra/widgets/span/lv_span.c ****     }
 122:Drivers/lvgl/lvgl/src/extra/widgets/span/lv_span.c **** 
 123:Drivers/lvgl/lvgl/src/extra/widgets/span/lv_span.c ****     LV_ASSERT_OBJ(obj, MY_CLASS);
 124:Drivers/lvgl/lvgl/src/extra/widgets/span/lv_span.c ****     lv_spangroup_t * spans = (lv_spangroup_t *)obj;
 125:Drivers/lvgl/lvgl/src/extra/widgets/span/lv_span.c ****     lv_span_t * cur_span;
 126:Drivers/lvgl/lvgl/src/extra/widgets/span/lv_span.c ****     _LV_LL_READ(&spans->child_ll, cur_span) {
 127:Drivers/lvgl/lvgl/src/extra/widgets/span/lv_span.c ****         if(cur_span == span) {
 128:Drivers/lvgl/lvgl/src/extra/widgets/span/lv_span.c ****             _lv_ll_remove(&spans->child_ll, cur_span);
 129:Drivers/lvgl/lvgl/src/extra/widgets/span/lv_span.c ****             if(cur_span->txt && cur_span->static_flag == 0) {
 130:Drivers/lvgl/lvgl/src/extra/widgets/span/lv_span.c ****                 lv_mem_free(cur_span->txt);
 131:Drivers/lvgl/lvgl/src/extra/widgets/span/lv_span.c ****             }
 132:Drivers/lvgl/lvgl/src/extra/widgets/span/lv_span.c ****             lv_style_reset(&cur_span->style);
 133:Drivers/lvgl/lvgl/src/extra/widgets/span/lv_span.c ****             lv_mem_free(cur_span);
 134:Drivers/lvgl/lvgl/src/extra/widgets/span/lv_span.c ****             break;
 135:Drivers/lvgl/lvgl/src/extra/widgets/span/lv_span.c ****         }
 136:Drivers/lvgl/lvgl/src/extra/widgets/span/lv_span.c ****     }
 137:Drivers/lvgl/lvgl/src/extra/widgets/span/lv_span.c **** 
 138:Drivers/lvgl/lvgl/src/extra/widgets/span/lv_span.c ****     refresh_self_size(obj);
 139:Drivers/lvgl/lvgl/src/extra/widgets/span/lv_span.c **** }
 140:Drivers/lvgl/lvgl/src/extra/widgets/span/lv_span.c **** 
 141:Drivers/lvgl/lvgl/src/extra/widgets/span/lv_span.c **** /*=====================
 142:Drivers/lvgl/lvgl/src/extra/widgets/span/lv_span.c ****  * Setter functions
 143:Drivers/lvgl/lvgl/src/extra/widgets/span/lv_span.c ****  *====================*/
 144:Drivers/lvgl/lvgl/src/extra/widgets/span/lv_span.c **** 
 145:Drivers/lvgl/lvgl/src/extra/widgets/span/lv_span.c **** void lv_span_set_text(lv_span_t * span, const char * text)
 146:Drivers/lvgl/lvgl/src/extra/widgets/span/lv_span.c **** {
 147:Drivers/lvgl/lvgl/src/extra/widgets/span/lv_span.c ****     if(span == NULL || text == NULL) {
ARM GAS  /tmp/ccuuAFti.s 			page 4


 148:Drivers/lvgl/lvgl/src/extra/widgets/span/lv_span.c ****         return;
 149:Drivers/lvgl/lvgl/src/extra/widgets/span/lv_span.c ****     }
 150:Drivers/lvgl/lvgl/src/extra/widgets/span/lv_span.c **** 
 151:Drivers/lvgl/lvgl/src/extra/widgets/span/lv_span.c ****     if(span->txt == NULL || span->static_flag == 1) {
 152:Drivers/lvgl/lvgl/src/extra/widgets/span/lv_span.c ****         span->txt = lv_mem_alloc(strlen(text) + 1);
 153:Drivers/lvgl/lvgl/src/extra/widgets/span/lv_span.c ****     }
 154:Drivers/lvgl/lvgl/src/extra/widgets/span/lv_span.c ****     else {
 155:Drivers/lvgl/lvgl/src/extra/widgets/span/lv_span.c ****         span->txt = lv_mem_realloc(span->txt, strlen(text) + 1);
 156:Drivers/lvgl/lvgl/src/extra/widgets/span/lv_span.c ****     }
 157:Drivers/lvgl/lvgl/src/extra/widgets/span/lv_span.c ****     span->static_flag = 0;
 158:Drivers/lvgl/lvgl/src/extra/widgets/span/lv_span.c ****     strcpy(span->txt, text);
 159:Drivers/lvgl/lvgl/src/extra/widgets/span/lv_span.c **** 
 160:Drivers/lvgl/lvgl/src/extra/widgets/span/lv_span.c ****     refresh_self_size(span->spangroup);
 161:Drivers/lvgl/lvgl/src/extra/widgets/span/lv_span.c **** }
 162:Drivers/lvgl/lvgl/src/extra/widgets/span/lv_span.c **** 
 163:Drivers/lvgl/lvgl/src/extra/widgets/span/lv_span.c **** void lv_span_set_text_static(lv_span_t * span, const char * text)
 164:Drivers/lvgl/lvgl/src/extra/widgets/span/lv_span.c **** {
 165:Drivers/lvgl/lvgl/src/extra/widgets/span/lv_span.c ****     if(span == NULL || text == NULL) {
 166:Drivers/lvgl/lvgl/src/extra/widgets/span/lv_span.c ****         return;
 167:Drivers/lvgl/lvgl/src/extra/widgets/span/lv_span.c ****     }
 168:Drivers/lvgl/lvgl/src/extra/widgets/span/lv_span.c **** 
 169:Drivers/lvgl/lvgl/src/extra/widgets/span/lv_span.c ****     if(span->txt && span->static_flag == 0) {
 170:Drivers/lvgl/lvgl/src/extra/widgets/span/lv_span.c ****         lv_mem_free(span->txt);
 171:Drivers/lvgl/lvgl/src/extra/widgets/span/lv_span.c ****     }
 172:Drivers/lvgl/lvgl/src/extra/widgets/span/lv_span.c ****     span->static_flag = 1;
 173:Drivers/lvgl/lvgl/src/extra/widgets/span/lv_span.c ****     span->txt = (char *)text;
 174:Drivers/lvgl/lvgl/src/extra/widgets/span/lv_span.c **** 
 175:Drivers/lvgl/lvgl/src/extra/widgets/span/lv_span.c ****     refresh_self_size(span->spangroup);
 176:Drivers/lvgl/lvgl/src/extra/widgets/span/lv_span.c **** }
 177:Drivers/lvgl/lvgl/src/extra/widgets/span/lv_span.c **** 
 178:Drivers/lvgl/lvgl/src/extra/widgets/span/lv_span.c **** void lv_spangroup_set_align(lv_obj_t * obj, lv_text_align_t align)
 179:Drivers/lvgl/lvgl/src/extra/widgets/span/lv_span.c **** {
 180:Drivers/lvgl/lvgl/src/extra/widgets/span/lv_span.c ****     lv_obj_set_style_text_align(obj, align, LV_PART_MAIN);
 181:Drivers/lvgl/lvgl/src/extra/widgets/span/lv_span.c **** }
 182:Drivers/lvgl/lvgl/src/extra/widgets/span/lv_span.c **** 
 183:Drivers/lvgl/lvgl/src/extra/widgets/span/lv_span.c **** void lv_spangroup_set_overflow(lv_obj_t * obj, lv_span_overflow_t overflow)
 184:Drivers/lvgl/lvgl/src/extra/widgets/span/lv_span.c **** {
 185:Drivers/lvgl/lvgl/src/extra/widgets/span/lv_span.c ****     LV_ASSERT_OBJ(obj, MY_CLASS);
 186:Drivers/lvgl/lvgl/src/extra/widgets/span/lv_span.c ****     lv_spangroup_t * spans = (lv_spangroup_t *)obj;
 187:Drivers/lvgl/lvgl/src/extra/widgets/span/lv_span.c ****     if(spans->overflow == overflow) return;
 188:Drivers/lvgl/lvgl/src/extra/widgets/span/lv_span.c **** 
 189:Drivers/lvgl/lvgl/src/extra/widgets/span/lv_span.c ****     spans->overflow = overflow;
 190:Drivers/lvgl/lvgl/src/extra/widgets/span/lv_span.c ****     lv_obj_invalidate(obj);
 191:Drivers/lvgl/lvgl/src/extra/widgets/span/lv_span.c **** }
 192:Drivers/lvgl/lvgl/src/extra/widgets/span/lv_span.c **** 
 193:Drivers/lvgl/lvgl/src/extra/widgets/span/lv_span.c **** void lv_spangroup_set_indent(lv_obj_t * obj, lv_coord_t indent)
 194:Drivers/lvgl/lvgl/src/extra/widgets/span/lv_span.c **** {
 195:Drivers/lvgl/lvgl/src/extra/widgets/span/lv_span.c ****     LV_ASSERT_OBJ(obj, MY_CLASS);
 196:Drivers/lvgl/lvgl/src/extra/widgets/span/lv_span.c ****     lv_spangroup_t * spans = (lv_spangroup_t *)obj;
 197:Drivers/lvgl/lvgl/src/extra/widgets/span/lv_span.c ****     if(spans->indent == indent) return;
 198:Drivers/lvgl/lvgl/src/extra/widgets/span/lv_span.c **** 
 199:Drivers/lvgl/lvgl/src/extra/widgets/span/lv_span.c ****     spans->indent = indent;
 200:Drivers/lvgl/lvgl/src/extra/widgets/span/lv_span.c **** 
 201:Drivers/lvgl/lvgl/src/extra/widgets/span/lv_span.c ****     refresh_self_size(obj);
 202:Drivers/lvgl/lvgl/src/extra/widgets/span/lv_span.c **** }
 203:Drivers/lvgl/lvgl/src/extra/widgets/span/lv_span.c **** 
 204:Drivers/lvgl/lvgl/src/extra/widgets/span/lv_span.c **** void lv_spangroup_set_mode(lv_obj_t * obj, lv_span_mode_t mode)
ARM GAS  /tmp/ccuuAFti.s 			page 5


 205:Drivers/lvgl/lvgl/src/extra/widgets/span/lv_span.c **** {
 206:Drivers/lvgl/lvgl/src/extra/widgets/span/lv_span.c ****     LV_ASSERT_OBJ(obj, MY_CLASS);
 207:Drivers/lvgl/lvgl/src/extra/widgets/span/lv_span.c ****     lv_spangroup_t * spans = (lv_spangroup_t *)obj;
 208:Drivers/lvgl/lvgl/src/extra/widgets/span/lv_span.c ****     spans->mode = mode;
 209:Drivers/lvgl/lvgl/src/extra/widgets/span/lv_span.c ****     lv_spangroup_refr_mode(obj);
 210:Drivers/lvgl/lvgl/src/extra/widgets/span/lv_span.c **** }
 211:Drivers/lvgl/lvgl/src/extra/widgets/span/lv_span.c **** 
 212:Drivers/lvgl/lvgl/src/extra/widgets/span/lv_span.c **** void lv_spangroup_set_lines(lv_obj_t * obj, int32_t lines)
 213:Drivers/lvgl/lvgl/src/extra/widgets/span/lv_span.c **** {
 214:Drivers/lvgl/lvgl/src/extra/widgets/span/lv_span.c ****     LV_ASSERT_OBJ(obj, MY_CLASS);
 215:Drivers/lvgl/lvgl/src/extra/widgets/span/lv_span.c ****     lv_spangroup_t * spans = (lv_spangroup_t *)obj;
 216:Drivers/lvgl/lvgl/src/extra/widgets/span/lv_span.c ****     spans->lines = lines;
 217:Drivers/lvgl/lvgl/src/extra/widgets/span/lv_span.c ****     lv_spangroup_refr_mode(obj);
 218:Drivers/lvgl/lvgl/src/extra/widgets/span/lv_span.c **** }
 219:Drivers/lvgl/lvgl/src/extra/widgets/span/lv_span.c **** 
 220:Drivers/lvgl/lvgl/src/extra/widgets/span/lv_span.c **** /*=====================
 221:Drivers/lvgl/lvgl/src/extra/widgets/span/lv_span.c ****  * Getter functions
 222:Drivers/lvgl/lvgl/src/extra/widgets/span/lv_span.c ****  *====================*/
 223:Drivers/lvgl/lvgl/src/extra/widgets/span/lv_span.c **** 
 224:Drivers/lvgl/lvgl/src/extra/widgets/span/lv_span.c **** lv_span_t * lv_spangroup_get_child(const lv_obj_t * obj, int32_t id)
 225:Drivers/lvgl/lvgl/src/extra/widgets/span/lv_span.c **** {
 226:Drivers/lvgl/lvgl/src/extra/widgets/span/lv_span.c ****     if(obj == NULL) {
 227:Drivers/lvgl/lvgl/src/extra/widgets/span/lv_span.c ****         return NULL;
 228:Drivers/lvgl/lvgl/src/extra/widgets/span/lv_span.c ****     }
 229:Drivers/lvgl/lvgl/src/extra/widgets/span/lv_span.c **** 
 230:Drivers/lvgl/lvgl/src/extra/widgets/span/lv_span.c ****     LV_ASSERT_OBJ(obj, MY_CLASS);
 231:Drivers/lvgl/lvgl/src/extra/widgets/span/lv_span.c ****     lv_spangroup_t * spans = (lv_spangroup_t *)obj;
 232:Drivers/lvgl/lvgl/src/extra/widgets/span/lv_span.c ****     lv_ll_t * linked_list = &spans->child_ll;
 233:Drivers/lvgl/lvgl/src/extra/widgets/span/lv_span.c **** 
 234:Drivers/lvgl/lvgl/src/extra/widgets/span/lv_span.c ****     bool traverse_forwards = (id >= 0);
 235:Drivers/lvgl/lvgl/src/extra/widgets/span/lv_span.c ****     int32_t cur_idx = 0;
 236:Drivers/lvgl/lvgl/src/extra/widgets/span/lv_span.c ****     lv_ll_node_t * cur_node = linked_list->head;
 237:Drivers/lvgl/lvgl/src/extra/widgets/span/lv_span.c **** 
 238:Drivers/lvgl/lvgl/src/extra/widgets/span/lv_span.c ****     /*If using a negative index, start from the tail and use cur -1 to indicate the end*/
 239:Drivers/lvgl/lvgl/src/extra/widgets/span/lv_span.c ****     if(!traverse_forwards) {
 240:Drivers/lvgl/lvgl/src/extra/widgets/span/lv_span.c ****         cur_idx = -1;
 241:Drivers/lvgl/lvgl/src/extra/widgets/span/lv_span.c ****         cur_node = linked_list->tail;
 242:Drivers/lvgl/lvgl/src/extra/widgets/span/lv_span.c ****     }
 243:Drivers/lvgl/lvgl/src/extra/widgets/span/lv_span.c **** 
 244:Drivers/lvgl/lvgl/src/extra/widgets/span/lv_span.c ****     while(cur_node != NULL) {
 245:Drivers/lvgl/lvgl/src/extra/widgets/span/lv_span.c ****         if(cur_idx == id) {
 246:Drivers/lvgl/lvgl/src/extra/widgets/span/lv_span.c ****             return (lv_span_t *) cur_node;
 247:Drivers/lvgl/lvgl/src/extra/widgets/span/lv_span.c ****         }
 248:Drivers/lvgl/lvgl/src/extra/widgets/span/lv_span.c ****         if(traverse_forwards) {
 249:Drivers/lvgl/lvgl/src/extra/widgets/span/lv_span.c ****             cur_node = (lv_ll_node_t *) _lv_ll_get_next(linked_list, cur_node);
 250:Drivers/lvgl/lvgl/src/extra/widgets/span/lv_span.c ****             cur_idx++;
 251:Drivers/lvgl/lvgl/src/extra/widgets/span/lv_span.c ****         }
 252:Drivers/lvgl/lvgl/src/extra/widgets/span/lv_span.c ****         else {
 253:Drivers/lvgl/lvgl/src/extra/widgets/span/lv_span.c ****             cur_node = (lv_ll_node_t *) _lv_ll_get_prev(linked_list, cur_node);
 254:Drivers/lvgl/lvgl/src/extra/widgets/span/lv_span.c ****             cur_idx--;
 255:Drivers/lvgl/lvgl/src/extra/widgets/span/lv_span.c ****         }
 256:Drivers/lvgl/lvgl/src/extra/widgets/span/lv_span.c ****     }
 257:Drivers/lvgl/lvgl/src/extra/widgets/span/lv_span.c **** 
 258:Drivers/lvgl/lvgl/src/extra/widgets/span/lv_span.c ****     return NULL;
 259:Drivers/lvgl/lvgl/src/extra/widgets/span/lv_span.c **** }
 260:Drivers/lvgl/lvgl/src/extra/widgets/span/lv_span.c **** 
 261:Drivers/lvgl/lvgl/src/extra/widgets/span/lv_span.c **** uint32_t lv_spangroup_get_child_cnt(const lv_obj_t * obj)
ARM GAS  /tmp/ccuuAFti.s 			page 6


 262:Drivers/lvgl/lvgl/src/extra/widgets/span/lv_span.c **** {
 263:Drivers/lvgl/lvgl/src/extra/widgets/span/lv_span.c ****     LV_ASSERT_OBJ(obj, MY_CLASS);
 264:Drivers/lvgl/lvgl/src/extra/widgets/span/lv_span.c **** 
 265:Drivers/lvgl/lvgl/src/extra/widgets/span/lv_span.c ****     if(obj == NULL) {
 266:Drivers/lvgl/lvgl/src/extra/widgets/span/lv_span.c ****         return 0;
 267:Drivers/lvgl/lvgl/src/extra/widgets/span/lv_span.c ****     }
 268:Drivers/lvgl/lvgl/src/extra/widgets/span/lv_span.c **** 
 269:Drivers/lvgl/lvgl/src/extra/widgets/span/lv_span.c ****     LV_ASSERT_OBJ(obj, MY_CLASS);
 270:Drivers/lvgl/lvgl/src/extra/widgets/span/lv_span.c ****     lv_spangroup_t * spans = (lv_spangroup_t *)obj;
 271:Drivers/lvgl/lvgl/src/extra/widgets/span/lv_span.c ****     return _lv_ll_get_len(&(spans->child_ll));
 272:Drivers/lvgl/lvgl/src/extra/widgets/span/lv_span.c **** }
 273:Drivers/lvgl/lvgl/src/extra/widgets/span/lv_span.c **** 
 274:Drivers/lvgl/lvgl/src/extra/widgets/span/lv_span.c **** lv_text_align_t lv_spangroup_get_align(lv_obj_t * obj)
 275:Drivers/lvgl/lvgl/src/extra/widgets/span/lv_span.c **** {
 276:Drivers/lvgl/lvgl/src/extra/widgets/span/lv_span.c ****     return lv_obj_get_style_text_align(obj, LV_PART_MAIN);
 277:Drivers/lvgl/lvgl/src/extra/widgets/span/lv_span.c **** }
 278:Drivers/lvgl/lvgl/src/extra/widgets/span/lv_span.c **** 
 279:Drivers/lvgl/lvgl/src/extra/widgets/span/lv_span.c **** lv_span_overflow_t lv_spangroup_get_overflow(lv_obj_t * obj)
 280:Drivers/lvgl/lvgl/src/extra/widgets/span/lv_span.c **** {
 281:Drivers/lvgl/lvgl/src/extra/widgets/span/lv_span.c ****     LV_ASSERT_OBJ(obj, MY_CLASS);
 282:Drivers/lvgl/lvgl/src/extra/widgets/span/lv_span.c ****     lv_spangroup_t * spans = (lv_spangroup_t *)obj;
 283:Drivers/lvgl/lvgl/src/extra/widgets/span/lv_span.c ****     return spans->overflow;
 284:Drivers/lvgl/lvgl/src/extra/widgets/span/lv_span.c **** }
 285:Drivers/lvgl/lvgl/src/extra/widgets/span/lv_span.c **** 
 286:Drivers/lvgl/lvgl/src/extra/widgets/span/lv_span.c **** lv_coord_t lv_spangroup_get_indent(lv_obj_t * obj)
 287:Drivers/lvgl/lvgl/src/extra/widgets/span/lv_span.c **** {
 288:Drivers/lvgl/lvgl/src/extra/widgets/span/lv_span.c ****     LV_ASSERT_OBJ(obj, MY_CLASS);
 289:Drivers/lvgl/lvgl/src/extra/widgets/span/lv_span.c ****     lv_spangroup_t * spans = (lv_spangroup_t *)obj;
 290:Drivers/lvgl/lvgl/src/extra/widgets/span/lv_span.c ****     return spans->indent;
 291:Drivers/lvgl/lvgl/src/extra/widgets/span/lv_span.c **** }
 292:Drivers/lvgl/lvgl/src/extra/widgets/span/lv_span.c **** 
 293:Drivers/lvgl/lvgl/src/extra/widgets/span/lv_span.c **** lv_span_mode_t lv_spangroup_get_mode(lv_obj_t * obj)
 294:Drivers/lvgl/lvgl/src/extra/widgets/span/lv_span.c **** {
 295:Drivers/lvgl/lvgl/src/extra/widgets/span/lv_span.c ****     LV_ASSERT_OBJ(obj, MY_CLASS);
 296:Drivers/lvgl/lvgl/src/extra/widgets/span/lv_span.c ****     lv_spangroup_t * spans = (lv_spangroup_t *)obj;
 297:Drivers/lvgl/lvgl/src/extra/widgets/span/lv_span.c ****     return spans->mode;
 298:Drivers/lvgl/lvgl/src/extra/widgets/span/lv_span.c **** }
 299:Drivers/lvgl/lvgl/src/extra/widgets/span/lv_span.c **** 
 300:Drivers/lvgl/lvgl/src/extra/widgets/span/lv_span.c **** int32_t lv_spangroup_get_lines(lv_obj_t * obj)
 301:Drivers/lvgl/lvgl/src/extra/widgets/span/lv_span.c **** {
 302:Drivers/lvgl/lvgl/src/extra/widgets/span/lv_span.c ****     LV_ASSERT_OBJ(obj, MY_CLASS);
 303:Drivers/lvgl/lvgl/src/extra/widgets/span/lv_span.c ****     lv_spangroup_t * spans = (lv_spangroup_t *)obj;
 304:Drivers/lvgl/lvgl/src/extra/widgets/span/lv_span.c ****     return spans->lines;
 305:Drivers/lvgl/lvgl/src/extra/widgets/span/lv_span.c **** }
 306:Drivers/lvgl/lvgl/src/extra/widgets/span/lv_span.c **** 
 307:Drivers/lvgl/lvgl/src/extra/widgets/span/lv_span.c **** void lv_spangroup_refr_mode(lv_obj_t * obj)
 308:Drivers/lvgl/lvgl/src/extra/widgets/span/lv_span.c **** {
 309:Drivers/lvgl/lvgl/src/extra/widgets/span/lv_span.c ****     LV_ASSERT_OBJ(obj, MY_CLASS);
 310:Drivers/lvgl/lvgl/src/extra/widgets/span/lv_span.c ****     lv_spangroup_t * spans = (lv_spangroup_t *)obj;
 311:Drivers/lvgl/lvgl/src/extra/widgets/span/lv_span.c **** 
 312:Drivers/lvgl/lvgl/src/extra/widgets/span/lv_span.c ****     if(spans->mode == LV_SPAN_MODE_EXPAND) {
 313:Drivers/lvgl/lvgl/src/extra/widgets/span/lv_span.c ****         lv_obj_set_width(obj, LV_SIZE_CONTENT);
 314:Drivers/lvgl/lvgl/src/extra/widgets/span/lv_span.c ****         lv_obj_set_height(obj, LV_SIZE_CONTENT);
 315:Drivers/lvgl/lvgl/src/extra/widgets/span/lv_span.c ****     }
 316:Drivers/lvgl/lvgl/src/extra/widgets/span/lv_span.c ****     else if(spans->mode == LV_SPAN_MODE_BREAK) {
 317:Drivers/lvgl/lvgl/src/extra/widgets/span/lv_span.c ****         if(lv_obj_get_style_width(obj, LV_PART_MAIN) == LV_SIZE_CONTENT) {
 318:Drivers/lvgl/lvgl/src/extra/widgets/span/lv_span.c ****             lv_obj_set_width(obj, 100);
ARM GAS  /tmp/ccuuAFti.s 			page 7


 319:Drivers/lvgl/lvgl/src/extra/widgets/span/lv_span.c ****         }
 320:Drivers/lvgl/lvgl/src/extra/widgets/span/lv_span.c ****         lv_obj_set_height(obj, LV_SIZE_CONTENT);
 321:Drivers/lvgl/lvgl/src/extra/widgets/span/lv_span.c ****     }
 322:Drivers/lvgl/lvgl/src/extra/widgets/span/lv_span.c ****     else if(spans->mode == LV_SPAN_MODE_FIXED) {
 323:Drivers/lvgl/lvgl/src/extra/widgets/span/lv_span.c ****         /* use this mode, The user needs to set the size. */
 324:Drivers/lvgl/lvgl/src/extra/widgets/span/lv_span.c ****         /* This is just to prevent an infinite loop. */
 325:Drivers/lvgl/lvgl/src/extra/widgets/span/lv_span.c ****         if(lv_obj_get_style_width(obj, LV_PART_MAIN) == LV_SIZE_CONTENT) {
 326:Drivers/lvgl/lvgl/src/extra/widgets/span/lv_span.c ****             lv_obj_set_width(obj, 100);
 327:Drivers/lvgl/lvgl/src/extra/widgets/span/lv_span.c ****         }
 328:Drivers/lvgl/lvgl/src/extra/widgets/span/lv_span.c ****         if(lv_obj_get_style_height(obj, LV_PART_MAIN) == LV_SIZE_CONTENT) {
 329:Drivers/lvgl/lvgl/src/extra/widgets/span/lv_span.c ****             lv_coord_t width = lv_obj_get_style_width(obj, LV_PART_MAIN);
 330:Drivers/lvgl/lvgl/src/extra/widgets/span/lv_span.c ****             if(LV_COORD_IS_PCT(width)) {
 331:Drivers/lvgl/lvgl/src/extra/widgets/span/lv_span.c ****                 width = 100;
 332:Drivers/lvgl/lvgl/src/extra/widgets/span/lv_span.c ****             }
 333:Drivers/lvgl/lvgl/src/extra/widgets/span/lv_span.c ****             lv_coord_t height = lv_spangroup_get_expand_height(obj, width);
 334:Drivers/lvgl/lvgl/src/extra/widgets/span/lv_span.c ****             lv_obj_set_content_height(obj, height);
 335:Drivers/lvgl/lvgl/src/extra/widgets/span/lv_span.c ****         }
 336:Drivers/lvgl/lvgl/src/extra/widgets/span/lv_span.c ****     }
 337:Drivers/lvgl/lvgl/src/extra/widgets/span/lv_span.c **** 
 338:Drivers/lvgl/lvgl/src/extra/widgets/span/lv_span.c ****     refresh_self_size(obj);
 339:Drivers/lvgl/lvgl/src/extra/widgets/span/lv_span.c **** }
 340:Drivers/lvgl/lvgl/src/extra/widgets/span/lv_span.c **** 
 341:Drivers/lvgl/lvgl/src/extra/widgets/span/lv_span.c **** lv_coord_t lv_spangroup_get_max_line_h(lv_obj_t * obj)
 342:Drivers/lvgl/lvgl/src/extra/widgets/span/lv_span.c **** {
 343:Drivers/lvgl/lvgl/src/extra/widgets/span/lv_span.c ****     LV_ASSERT_OBJ(obj, MY_CLASS);
 344:Drivers/lvgl/lvgl/src/extra/widgets/span/lv_span.c ****     lv_spangroup_t * spans = (lv_spangroup_t *)obj;
 345:Drivers/lvgl/lvgl/src/extra/widgets/span/lv_span.c **** 
 346:Drivers/lvgl/lvgl/src/extra/widgets/span/lv_span.c ****     lv_coord_t max_line_h = 0;
 347:Drivers/lvgl/lvgl/src/extra/widgets/span/lv_span.c ****     lv_span_t * cur_span;
 348:Drivers/lvgl/lvgl/src/extra/widgets/span/lv_span.c ****     _LV_LL_READ(&spans->child_ll, cur_span) {
 349:Drivers/lvgl/lvgl/src/extra/widgets/span/lv_span.c ****         const lv_font_t * font = lv_span_get_style_text_font(obj, cur_span);
 350:Drivers/lvgl/lvgl/src/extra/widgets/span/lv_span.c ****         lv_coord_t line_h = lv_font_get_line_height(font);
 351:Drivers/lvgl/lvgl/src/extra/widgets/span/lv_span.c ****         if(line_h > max_line_h) {
 352:Drivers/lvgl/lvgl/src/extra/widgets/span/lv_span.c ****             max_line_h = line_h;
 353:Drivers/lvgl/lvgl/src/extra/widgets/span/lv_span.c ****         }
 354:Drivers/lvgl/lvgl/src/extra/widgets/span/lv_span.c ****     }
 355:Drivers/lvgl/lvgl/src/extra/widgets/span/lv_span.c **** 
 356:Drivers/lvgl/lvgl/src/extra/widgets/span/lv_span.c ****     return max_line_h;
 357:Drivers/lvgl/lvgl/src/extra/widgets/span/lv_span.c **** }
 358:Drivers/lvgl/lvgl/src/extra/widgets/span/lv_span.c **** 
 359:Drivers/lvgl/lvgl/src/extra/widgets/span/lv_span.c **** uint32_t lv_spangroup_get_expand_width(lv_obj_t * obj, uint32_t max_width)
 360:Drivers/lvgl/lvgl/src/extra/widgets/span/lv_span.c **** {
 361:Drivers/lvgl/lvgl/src/extra/widgets/span/lv_span.c ****     LV_ASSERT_OBJ(obj, MY_CLASS);
 362:Drivers/lvgl/lvgl/src/extra/widgets/span/lv_span.c ****     lv_spangroup_t * spans = (lv_spangroup_t *)obj;
 363:Drivers/lvgl/lvgl/src/extra/widgets/span/lv_span.c **** 
 364:Drivers/lvgl/lvgl/src/extra/widgets/span/lv_span.c ****     if(_lv_ll_get_head(&spans->child_ll) == NULL) {
 365:Drivers/lvgl/lvgl/src/extra/widgets/span/lv_span.c ****         return 0;
 366:Drivers/lvgl/lvgl/src/extra/widgets/span/lv_span.c ****     }
 367:Drivers/lvgl/lvgl/src/extra/widgets/span/lv_span.c **** 
 368:Drivers/lvgl/lvgl/src/extra/widgets/span/lv_span.c ****     uint32_t width = LV_COORD_IS_PCT(spans->indent) ? 0 : spans->indent;
 369:Drivers/lvgl/lvgl/src/extra/widgets/span/lv_span.c ****     lv_span_t * cur_span;
 370:Drivers/lvgl/lvgl/src/extra/widgets/span/lv_span.c ****     lv_coord_t letter_space = 0;
 371:Drivers/lvgl/lvgl/src/extra/widgets/span/lv_span.c ****     _LV_LL_READ(&spans->child_ll, cur_span) {
 372:Drivers/lvgl/lvgl/src/extra/widgets/span/lv_span.c ****         const lv_font_t * font = lv_span_get_style_text_font(obj, cur_span);
 373:Drivers/lvgl/lvgl/src/extra/widgets/span/lv_span.c ****         letter_space = lv_span_get_style_text_letter_space(obj, cur_span);
 374:Drivers/lvgl/lvgl/src/extra/widgets/span/lv_span.c ****         uint32_t j = 0;
 375:Drivers/lvgl/lvgl/src/extra/widgets/span/lv_span.c ****         const char * cur_txt = cur_span->txt;
ARM GAS  /tmp/ccuuAFti.s 			page 8


 376:Drivers/lvgl/lvgl/src/extra/widgets/span/lv_span.c ****         span_text_check(&cur_txt);
 377:Drivers/lvgl/lvgl/src/extra/widgets/span/lv_span.c ****         while(cur_txt[j] != '\0') {
 378:Drivers/lvgl/lvgl/src/extra/widgets/span/lv_span.c ****             if(max_width > 0 && width >= max_width) {
 379:Drivers/lvgl/lvgl/src/extra/widgets/span/lv_span.c ****                 return max_width;
 380:Drivers/lvgl/lvgl/src/extra/widgets/span/lv_span.c ****             }
 381:Drivers/lvgl/lvgl/src/extra/widgets/span/lv_span.c ****             uint32_t letter      = _lv_txt_encoded_next(cur_txt, &j);
 382:Drivers/lvgl/lvgl/src/extra/widgets/span/lv_span.c ****             uint32_t letter_next = _lv_txt_encoded_next(&cur_txt[j], NULL);
 383:Drivers/lvgl/lvgl/src/extra/widgets/span/lv_span.c ****             uint16_t letter_w = lv_font_get_glyph_width(font, letter, letter_next);
 384:Drivers/lvgl/lvgl/src/extra/widgets/span/lv_span.c ****             width = width + letter_w + letter_space;
 385:Drivers/lvgl/lvgl/src/extra/widgets/span/lv_span.c ****         }
 386:Drivers/lvgl/lvgl/src/extra/widgets/span/lv_span.c ****     }
 387:Drivers/lvgl/lvgl/src/extra/widgets/span/lv_span.c **** 
 388:Drivers/lvgl/lvgl/src/extra/widgets/span/lv_span.c ****     return width - letter_space;
 389:Drivers/lvgl/lvgl/src/extra/widgets/span/lv_span.c **** }
 390:Drivers/lvgl/lvgl/src/extra/widgets/span/lv_span.c **** 
 391:Drivers/lvgl/lvgl/src/extra/widgets/span/lv_span.c **** lv_coord_t lv_spangroup_get_expand_height(lv_obj_t * obj, lv_coord_t width)
 392:Drivers/lvgl/lvgl/src/extra/widgets/span/lv_span.c **** {
 393:Drivers/lvgl/lvgl/src/extra/widgets/span/lv_span.c ****     LV_ASSERT_OBJ(obj, MY_CLASS);
 394:Drivers/lvgl/lvgl/src/extra/widgets/span/lv_span.c ****     lv_spangroup_t * spans = (lv_spangroup_t *)obj;
 395:Drivers/lvgl/lvgl/src/extra/widgets/span/lv_span.c ****     if(_lv_ll_get_head(&spans->child_ll) == NULL || width <= 0) {
 396:Drivers/lvgl/lvgl/src/extra/widgets/span/lv_span.c ****         return 0;
 397:Drivers/lvgl/lvgl/src/extra/widgets/span/lv_span.c ****     }
 398:Drivers/lvgl/lvgl/src/extra/widgets/span/lv_span.c **** 
 399:Drivers/lvgl/lvgl/src/extra/widgets/span/lv_span.c ****     /* init draw variable */
 400:Drivers/lvgl/lvgl/src/extra/widgets/span/lv_span.c ****     lv_text_flag_t txt_flag = LV_TEXT_FLAG_NONE;
 401:Drivers/lvgl/lvgl/src/extra/widgets/span/lv_span.c ****     lv_coord_t line_space = lv_obj_get_style_text_line_space(obj, LV_PART_MAIN);
 402:Drivers/lvgl/lvgl/src/extra/widgets/span/lv_span.c ****     lv_coord_t max_width = width;
 403:Drivers/lvgl/lvgl/src/extra/widgets/span/lv_span.c ****     lv_coord_t indent = convert_indent_pct(obj, max_width);
 404:Drivers/lvgl/lvgl/src/extra/widgets/span/lv_span.c ****     lv_coord_t max_w  = max_width - indent; /* first line need minus indent */
 405:Drivers/lvgl/lvgl/src/extra/widgets/span/lv_span.c **** 
 406:Drivers/lvgl/lvgl/src/extra/widgets/span/lv_span.c ****     /* coords of draw span-txt */
 407:Drivers/lvgl/lvgl/src/extra/widgets/span/lv_span.c ****     lv_point_t txt_pos;
 408:Drivers/lvgl/lvgl/src/extra/widgets/span/lv_span.c ****     txt_pos.y = 0;
 409:Drivers/lvgl/lvgl/src/extra/widgets/span/lv_span.c ****     txt_pos.x = 0 + indent; /* first line need add indent */
 410:Drivers/lvgl/lvgl/src/extra/widgets/span/lv_span.c **** 
 411:Drivers/lvgl/lvgl/src/extra/widgets/span/lv_span.c ****     lv_span_t * cur_span = _lv_ll_get_head(&spans->child_ll);
 412:Drivers/lvgl/lvgl/src/extra/widgets/span/lv_span.c ****     const char * cur_txt = cur_span->txt;
 413:Drivers/lvgl/lvgl/src/extra/widgets/span/lv_span.c ****     span_text_check(&cur_txt);
 414:Drivers/lvgl/lvgl/src/extra/widgets/span/lv_span.c ****     uint32_t cur_txt_ofs = 0;
 415:Drivers/lvgl/lvgl/src/extra/widgets/span/lv_span.c ****     lv_snippet_t snippet;   /* use to save cur_span info and push it to stack */
 416:Drivers/lvgl/lvgl/src/extra/widgets/span/lv_span.c ****     memset(&snippet, 0, sizeof(snippet));
 417:Drivers/lvgl/lvgl/src/extra/widgets/span/lv_span.c **** 
 418:Drivers/lvgl/lvgl/src/extra/widgets/span/lv_span.c ****     int32_t line_cnt = 0;
 419:Drivers/lvgl/lvgl/src/extra/widgets/span/lv_span.c ****     int32_t lines = spans->lines < 0 ? INT32_MAX : spans->lines;
 420:Drivers/lvgl/lvgl/src/extra/widgets/span/lv_span.c ****     /* the loop control how many lines need to draw */
 421:Drivers/lvgl/lvgl/src/extra/widgets/span/lv_span.c ****     while(cur_span) {
 422:Drivers/lvgl/lvgl/src/extra/widgets/span/lv_span.c ****         int snippet_cnt = 0;
 423:Drivers/lvgl/lvgl/src/extra/widgets/span/lv_span.c ****         lv_coord_t max_line_h = 0;  /* the max height of span-font when a line have a lot of span *
 424:Drivers/lvgl/lvgl/src/extra/widgets/span/lv_span.c **** 
 425:Drivers/lvgl/lvgl/src/extra/widgets/span/lv_span.c ****         /* the loop control to find a line and push the relevant span info into stack  */
 426:Drivers/lvgl/lvgl/src/extra/widgets/span/lv_span.c ****         while(1) {
 427:Drivers/lvgl/lvgl/src/extra/widgets/span/lv_span.c ****             /* switch to the next span when current is end */
 428:Drivers/lvgl/lvgl/src/extra/widgets/span/lv_span.c ****             if(cur_txt[cur_txt_ofs] == '\0') {
 429:Drivers/lvgl/lvgl/src/extra/widgets/span/lv_span.c ****                 cur_span = _lv_ll_get_next(&spans->child_ll, cur_span);
 430:Drivers/lvgl/lvgl/src/extra/widgets/span/lv_span.c ****                 if(cur_span == NULL) break;
 431:Drivers/lvgl/lvgl/src/extra/widgets/span/lv_span.c ****                 cur_txt = cur_span->txt;
 432:Drivers/lvgl/lvgl/src/extra/widgets/span/lv_span.c ****                 span_text_check(&cur_txt);
ARM GAS  /tmp/ccuuAFti.s 			page 9


 433:Drivers/lvgl/lvgl/src/extra/widgets/span/lv_span.c ****                 cur_txt_ofs = 0;
 434:Drivers/lvgl/lvgl/src/extra/widgets/span/lv_span.c ****                 /* maybe also cur_txt[cur_txt_ofs] == '\0' */
 435:Drivers/lvgl/lvgl/src/extra/widgets/span/lv_span.c ****                 continue;
 436:Drivers/lvgl/lvgl/src/extra/widgets/span/lv_span.c ****             }
 437:Drivers/lvgl/lvgl/src/extra/widgets/span/lv_span.c **** 
 438:Drivers/lvgl/lvgl/src/extra/widgets/span/lv_span.c ****             /* init span info to snippet. */
 439:Drivers/lvgl/lvgl/src/extra/widgets/span/lv_span.c ****             if(cur_txt_ofs == 0) {
 440:Drivers/lvgl/lvgl/src/extra/widgets/span/lv_span.c ****                 snippet.span = cur_span;
 441:Drivers/lvgl/lvgl/src/extra/widgets/span/lv_span.c ****                 snippet.font = lv_span_get_style_text_font(obj, cur_span);
 442:Drivers/lvgl/lvgl/src/extra/widgets/span/lv_span.c ****                 snippet.letter_space = lv_span_get_style_text_letter_space(obj, cur_span);
 443:Drivers/lvgl/lvgl/src/extra/widgets/span/lv_span.c ****                 snippet.line_h = lv_font_get_line_height(snippet.font) + line_space;
 444:Drivers/lvgl/lvgl/src/extra/widgets/span/lv_span.c ****             }
 445:Drivers/lvgl/lvgl/src/extra/widgets/span/lv_span.c **** 
 446:Drivers/lvgl/lvgl/src/extra/widgets/span/lv_span.c ****             /* get current span text line info */
 447:Drivers/lvgl/lvgl/src/extra/widgets/span/lv_span.c ****             uint32_t next_ofs = 0;
 448:Drivers/lvgl/lvgl/src/extra/widgets/span/lv_span.c ****             lv_coord_t use_width = 0;
 449:Drivers/lvgl/lvgl/src/extra/widgets/span/lv_span.c ****             bool isfill = lv_txt_get_snippet(&cur_txt[cur_txt_ofs], snippet.font, snippet.letter_sp
 450:Drivers/lvgl/lvgl/src/extra/widgets/span/lv_span.c ****                                              max_w, txt_flag, &use_width, &next_ofs);
 451:Drivers/lvgl/lvgl/src/extra/widgets/span/lv_span.c **** 
 452:Drivers/lvgl/lvgl/src/extra/widgets/span/lv_span.c ****             /* break word deal width */
 453:Drivers/lvgl/lvgl/src/extra/widgets/span/lv_span.c ****             if(isfill && next_ofs > 0 && snippet_cnt > 0) {
 454:Drivers/lvgl/lvgl/src/extra/widgets/span/lv_span.c ****                 if(max_w < use_width) {
 455:Drivers/lvgl/lvgl/src/extra/widgets/span/lv_span.c ****                     break;
 456:Drivers/lvgl/lvgl/src/extra/widgets/span/lv_span.c ****                 }
 457:Drivers/lvgl/lvgl/src/extra/widgets/span/lv_span.c **** 
 458:Drivers/lvgl/lvgl/src/extra/widgets/span/lv_span.c ****                 uint32_t tmp_ofs = next_ofs;
 459:Drivers/lvgl/lvgl/src/extra/widgets/span/lv_span.c ****                 uint32_t letter = _lv_txt_encoded_prev(&cur_txt[cur_txt_ofs], &tmp_ofs);
 460:Drivers/lvgl/lvgl/src/extra/widgets/span/lv_span.c ****                 if(!(letter == '\0' || letter == '\n' || letter == '\r' || _lv_txt_is_break_char(le
 461:Drivers/lvgl/lvgl/src/extra/widgets/span/lv_span.c ****                     tmp_ofs = 0;
 462:Drivers/lvgl/lvgl/src/extra/widgets/span/lv_span.c ****                     letter = _lv_txt_encoded_next(&cur_txt[cur_txt_ofs + next_ofs], &tmp_ofs);
 463:Drivers/lvgl/lvgl/src/extra/widgets/span/lv_span.c ****                     if(!(letter == '\0' || letter == '\n'  || letter == '\r' || _lv_txt_is_break_ch
 464:Drivers/lvgl/lvgl/src/extra/widgets/span/lv_span.c ****                         break;
 465:Drivers/lvgl/lvgl/src/extra/widgets/span/lv_span.c ****                     }
 466:Drivers/lvgl/lvgl/src/extra/widgets/span/lv_span.c ****                 }
 467:Drivers/lvgl/lvgl/src/extra/widgets/span/lv_span.c ****             }
 468:Drivers/lvgl/lvgl/src/extra/widgets/span/lv_span.c **** 
 469:Drivers/lvgl/lvgl/src/extra/widgets/span/lv_span.c ****             snippet.txt = &cur_txt[cur_txt_ofs];
 470:Drivers/lvgl/lvgl/src/extra/widgets/span/lv_span.c ****             snippet.bytes = next_ofs;
 471:Drivers/lvgl/lvgl/src/extra/widgets/span/lv_span.c ****             snippet.txt_w = use_width;
 472:Drivers/lvgl/lvgl/src/extra/widgets/span/lv_span.c ****             cur_txt_ofs += next_ofs;
 473:Drivers/lvgl/lvgl/src/extra/widgets/span/lv_span.c ****             if(max_line_h < snippet.line_h) {
 474:Drivers/lvgl/lvgl/src/extra/widgets/span/lv_span.c ****                 max_line_h = snippet.line_h;
 475:Drivers/lvgl/lvgl/src/extra/widgets/span/lv_span.c ****             }
 476:Drivers/lvgl/lvgl/src/extra/widgets/span/lv_span.c ****             snippet_cnt ++;
 477:Drivers/lvgl/lvgl/src/extra/widgets/span/lv_span.c ****             max_w = max_w - use_width - snippet.letter_space;
 478:Drivers/lvgl/lvgl/src/extra/widgets/span/lv_span.c ****             if(isfill  || max_w <= 0) {
 479:Drivers/lvgl/lvgl/src/extra/widgets/span/lv_span.c ****                 break;
 480:Drivers/lvgl/lvgl/src/extra/widgets/span/lv_span.c ****             }
 481:Drivers/lvgl/lvgl/src/extra/widgets/span/lv_span.c ****         }
 482:Drivers/lvgl/lvgl/src/extra/widgets/span/lv_span.c **** 
 483:Drivers/lvgl/lvgl/src/extra/widgets/span/lv_span.c ****         /* next line init */
 484:Drivers/lvgl/lvgl/src/extra/widgets/span/lv_span.c ****         txt_pos.x = 0;
 485:Drivers/lvgl/lvgl/src/extra/widgets/span/lv_span.c ****         txt_pos.y += max_line_h;
 486:Drivers/lvgl/lvgl/src/extra/widgets/span/lv_span.c ****         max_w = max_width;
 487:Drivers/lvgl/lvgl/src/extra/widgets/span/lv_span.c ****         line_cnt += 1;
 488:Drivers/lvgl/lvgl/src/extra/widgets/span/lv_span.c ****         if(line_cnt >= lines) {
 489:Drivers/lvgl/lvgl/src/extra/widgets/span/lv_span.c ****             break;
ARM GAS  /tmp/ccuuAFti.s 			page 10


 490:Drivers/lvgl/lvgl/src/extra/widgets/span/lv_span.c ****         }
 491:Drivers/lvgl/lvgl/src/extra/widgets/span/lv_span.c ****     }
 492:Drivers/lvgl/lvgl/src/extra/widgets/span/lv_span.c ****     txt_pos.y -= line_space;
 493:Drivers/lvgl/lvgl/src/extra/widgets/span/lv_span.c **** 
 494:Drivers/lvgl/lvgl/src/extra/widgets/span/lv_span.c ****     return txt_pos.y;
 495:Drivers/lvgl/lvgl/src/extra/widgets/span/lv_span.c **** }
 496:Drivers/lvgl/lvgl/src/extra/widgets/span/lv_span.c **** 
 497:Drivers/lvgl/lvgl/src/extra/widgets/span/lv_span.c **** /**********************
 498:Drivers/lvgl/lvgl/src/extra/widgets/span/lv_span.c ****  *   STATIC FUNCTIONS
 499:Drivers/lvgl/lvgl/src/extra/widgets/span/lv_span.c ****  **********************/
 500:Drivers/lvgl/lvgl/src/extra/widgets/span/lv_span.c **** 
 501:Drivers/lvgl/lvgl/src/extra/widgets/span/lv_span.c **** static void lv_spangroup_constructor(const lv_obj_class_t * class_p, lv_obj_t * obj)
 502:Drivers/lvgl/lvgl/src/extra/widgets/span/lv_span.c **** {
 503:Drivers/lvgl/lvgl/src/extra/widgets/span/lv_span.c ****     LV_UNUSED(class_p);
 504:Drivers/lvgl/lvgl/src/extra/widgets/span/lv_span.c ****     lv_spangroup_t * spans = (lv_spangroup_t *)obj;
 505:Drivers/lvgl/lvgl/src/extra/widgets/span/lv_span.c ****     _lv_ll_init(&spans->child_ll, sizeof(lv_span_t));
 506:Drivers/lvgl/lvgl/src/extra/widgets/span/lv_span.c ****     spans->indent = 0;
 507:Drivers/lvgl/lvgl/src/extra/widgets/span/lv_span.c ****     spans->lines = -1;
 508:Drivers/lvgl/lvgl/src/extra/widgets/span/lv_span.c ****     spans->mode = LV_SPAN_MODE_EXPAND;
 509:Drivers/lvgl/lvgl/src/extra/widgets/span/lv_span.c ****     spans->overflow = LV_SPAN_OVERFLOW_CLIP;
 510:Drivers/lvgl/lvgl/src/extra/widgets/span/lv_span.c ****     spans->cache_w = 0;
 511:Drivers/lvgl/lvgl/src/extra/widgets/span/lv_span.c ****     spans->cache_h = 0;
 512:Drivers/lvgl/lvgl/src/extra/widgets/span/lv_span.c ****     spans->refresh = 1;
 513:Drivers/lvgl/lvgl/src/extra/widgets/span/lv_span.c **** }
 514:Drivers/lvgl/lvgl/src/extra/widgets/span/lv_span.c **** 
 515:Drivers/lvgl/lvgl/src/extra/widgets/span/lv_span.c **** static void lv_spangroup_destructor(const lv_obj_class_t * class_p, lv_obj_t * obj)
 516:Drivers/lvgl/lvgl/src/extra/widgets/span/lv_span.c **** {
 517:Drivers/lvgl/lvgl/src/extra/widgets/span/lv_span.c ****     LV_UNUSED(class_p);
 518:Drivers/lvgl/lvgl/src/extra/widgets/span/lv_span.c ****     lv_spangroup_t * spans = (lv_spangroup_t *)obj;
 519:Drivers/lvgl/lvgl/src/extra/widgets/span/lv_span.c ****     lv_span_t * cur_span = _lv_ll_get_head(&spans->child_ll);
 520:Drivers/lvgl/lvgl/src/extra/widgets/span/lv_span.c ****     while(cur_span) {
 521:Drivers/lvgl/lvgl/src/extra/widgets/span/lv_span.c ****         _lv_ll_remove(&spans->child_ll, cur_span);
 522:Drivers/lvgl/lvgl/src/extra/widgets/span/lv_span.c ****         if(cur_span->txt && cur_span->static_flag == 0) {
 523:Drivers/lvgl/lvgl/src/extra/widgets/span/lv_span.c ****             lv_mem_free(cur_span->txt);
 524:Drivers/lvgl/lvgl/src/extra/widgets/span/lv_span.c ****         }
 525:Drivers/lvgl/lvgl/src/extra/widgets/span/lv_span.c ****         lv_style_reset(&cur_span->style);
 526:Drivers/lvgl/lvgl/src/extra/widgets/span/lv_span.c ****         lv_mem_free(cur_span);
 527:Drivers/lvgl/lvgl/src/extra/widgets/span/lv_span.c ****         cur_span = _lv_ll_get_head(&spans->child_ll);
 528:Drivers/lvgl/lvgl/src/extra/widgets/span/lv_span.c ****     }
 529:Drivers/lvgl/lvgl/src/extra/widgets/span/lv_span.c **** }
 530:Drivers/lvgl/lvgl/src/extra/widgets/span/lv_span.c **** 
 531:Drivers/lvgl/lvgl/src/extra/widgets/span/lv_span.c **** static void lv_spangroup_event(const lv_obj_class_t * class_p, lv_event_t * e)
 532:Drivers/lvgl/lvgl/src/extra/widgets/span/lv_span.c **** {
 533:Drivers/lvgl/lvgl/src/extra/widgets/span/lv_span.c ****     LV_UNUSED(class_p);
 534:Drivers/lvgl/lvgl/src/extra/widgets/span/lv_span.c **** 
 535:Drivers/lvgl/lvgl/src/extra/widgets/span/lv_span.c ****     /* Call the ancestor's event handler */
 536:Drivers/lvgl/lvgl/src/extra/widgets/span/lv_span.c ****     if(lv_obj_event_base(MY_CLASS, e) != LV_RES_OK) return;
 537:Drivers/lvgl/lvgl/src/extra/widgets/span/lv_span.c **** 
 538:Drivers/lvgl/lvgl/src/extra/widgets/span/lv_span.c ****     lv_event_code_t code = lv_event_get_code(e);
 539:Drivers/lvgl/lvgl/src/extra/widgets/span/lv_span.c ****     lv_obj_t * obj = lv_event_get_target(e);
 540:Drivers/lvgl/lvgl/src/extra/widgets/span/lv_span.c ****     lv_spangroup_t * spans = (lv_spangroup_t *)obj;
 541:Drivers/lvgl/lvgl/src/extra/widgets/span/lv_span.c **** 
 542:Drivers/lvgl/lvgl/src/extra/widgets/span/lv_span.c ****     if(code == LV_EVENT_DRAW_MAIN) {
 543:Drivers/lvgl/lvgl/src/extra/widgets/span/lv_span.c ****         draw_main(e);
 544:Drivers/lvgl/lvgl/src/extra/widgets/span/lv_span.c ****     }
 545:Drivers/lvgl/lvgl/src/extra/widgets/span/lv_span.c ****     else if(code == LV_EVENT_STYLE_CHANGED) {
 546:Drivers/lvgl/lvgl/src/extra/widgets/span/lv_span.c ****         refresh_self_size(obj);
ARM GAS  /tmp/ccuuAFti.s 			page 11


 547:Drivers/lvgl/lvgl/src/extra/widgets/span/lv_span.c ****     }
 548:Drivers/lvgl/lvgl/src/extra/widgets/span/lv_span.c ****     else if(code == LV_EVENT_SIZE_CHANGED) {
 549:Drivers/lvgl/lvgl/src/extra/widgets/span/lv_span.c ****         refresh_self_size(obj);
 550:Drivers/lvgl/lvgl/src/extra/widgets/span/lv_span.c ****     }
 551:Drivers/lvgl/lvgl/src/extra/widgets/span/lv_span.c ****     else if(code == LV_EVENT_GET_SELF_SIZE) {
 552:Drivers/lvgl/lvgl/src/extra/widgets/span/lv_span.c ****         lv_coord_t width = 0;
 553:Drivers/lvgl/lvgl/src/extra/widgets/span/lv_span.c ****         lv_coord_t height = 0;
 554:Drivers/lvgl/lvgl/src/extra/widgets/span/lv_span.c ****         lv_point_t * self_size = lv_event_get_param(e);
 555:Drivers/lvgl/lvgl/src/extra/widgets/span/lv_span.c **** 
 556:Drivers/lvgl/lvgl/src/extra/widgets/span/lv_span.c ****         if(spans->mode == LV_SPAN_MODE_EXPAND) {
 557:Drivers/lvgl/lvgl/src/extra/widgets/span/lv_span.c ****             if(spans->refresh) {
 558:Drivers/lvgl/lvgl/src/extra/widgets/span/lv_span.c ****                 spans->cache_w = (lv_coord_t)lv_spangroup_get_expand_width(obj, 0);
 559:Drivers/lvgl/lvgl/src/extra/widgets/span/lv_span.c ****                 spans->cache_h = lv_spangroup_get_max_line_h(obj);
 560:Drivers/lvgl/lvgl/src/extra/widgets/span/lv_span.c ****                 spans->refresh = 0;
 561:Drivers/lvgl/lvgl/src/extra/widgets/span/lv_span.c ****             }
 562:Drivers/lvgl/lvgl/src/extra/widgets/span/lv_span.c ****             width = spans->cache_w;
 563:Drivers/lvgl/lvgl/src/extra/widgets/span/lv_span.c ****             height = spans->cache_h;
 564:Drivers/lvgl/lvgl/src/extra/widgets/span/lv_span.c ****         }
 565:Drivers/lvgl/lvgl/src/extra/widgets/span/lv_span.c ****         else if(spans->mode == LV_SPAN_MODE_BREAK) {
 566:Drivers/lvgl/lvgl/src/extra/widgets/span/lv_span.c ****             width = lv_obj_get_content_width(obj);
 567:Drivers/lvgl/lvgl/src/extra/widgets/span/lv_span.c ****             if(self_size->y >= 0) {
 568:Drivers/lvgl/lvgl/src/extra/widgets/span/lv_span.c ****                 if(width != spans->cache_w || spans->refresh) {
 569:Drivers/lvgl/lvgl/src/extra/widgets/span/lv_span.c ****                     height = lv_spangroup_get_expand_height(obj, width);
 570:Drivers/lvgl/lvgl/src/extra/widgets/span/lv_span.c ****                     spans->cache_w = width;
 571:Drivers/lvgl/lvgl/src/extra/widgets/span/lv_span.c ****                     spans->cache_h = height;
 572:Drivers/lvgl/lvgl/src/extra/widgets/span/lv_span.c ****                     spans->refresh = 0;
 573:Drivers/lvgl/lvgl/src/extra/widgets/span/lv_span.c ****                 }
 574:Drivers/lvgl/lvgl/src/extra/widgets/span/lv_span.c ****                 else {
 575:Drivers/lvgl/lvgl/src/extra/widgets/span/lv_span.c ****                     height = spans->cache_h;
 576:Drivers/lvgl/lvgl/src/extra/widgets/span/lv_span.c ****                 }
 577:Drivers/lvgl/lvgl/src/extra/widgets/span/lv_span.c ****             }
 578:Drivers/lvgl/lvgl/src/extra/widgets/span/lv_span.c ****         }
 579:Drivers/lvgl/lvgl/src/extra/widgets/span/lv_span.c ****         else if(spans->mode == LV_SPAN_MODE_FIXED) {
 580:Drivers/lvgl/lvgl/src/extra/widgets/span/lv_span.c ****             width =  self_size->x >= 0 ? lv_obj_get_content_width(obj) : 0;
 581:Drivers/lvgl/lvgl/src/extra/widgets/span/lv_span.c ****             height = self_size->y >= 0 ? lv_obj_get_content_height(obj) : 0;
 582:Drivers/lvgl/lvgl/src/extra/widgets/span/lv_span.c ****         }
 583:Drivers/lvgl/lvgl/src/extra/widgets/span/lv_span.c ****         self_size->x = LV_MAX(self_size->x, width);
 584:Drivers/lvgl/lvgl/src/extra/widgets/span/lv_span.c ****         self_size->y = LV_MAX(self_size->y, height);
 585:Drivers/lvgl/lvgl/src/extra/widgets/span/lv_span.c ****     }
 586:Drivers/lvgl/lvgl/src/extra/widgets/span/lv_span.c **** }
 587:Drivers/lvgl/lvgl/src/extra/widgets/span/lv_span.c **** 
 588:Drivers/lvgl/lvgl/src/extra/widgets/span/lv_span.c **** static void draw_main(lv_event_t * e)
 589:Drivers/lvgl/lvgl/src/extra/widgets/span/lv_span.c **** {
 590:Drivers/lvgl/lvgl/src/extra/widgets/span/lv_span.c ****     lv_obj_t * obj = lv_event_get_target(e);
 591:Drivers/lvgl/lvgl/src/extra/widgets/span/lv_span.c ****     lv_draw_ctx_t * draw_ctx = lv_event_get_draw_ctx(e);
 592:Drivers/lvgl/lvgl/src/extra/widgets/span/lv_span.c **** 
 593:Drivers/lvgl/lvgl/src/extra/widgets/span/lv_span.c ****     lv_draw_span(obj, draw_ctx);
 594:Drivers/lvgl/lvgl/src/extra/widgets/span/lv_span.c **** }
 595:Drivers/lvgl/lvgl/src/extra/widgets/span/lv_span.c **** 
 596:Drivers/lvgl/lvgl/src/extra/widgets/span/lv_span.c **** /**
 597:Drivers/lvgl/lvgl/src/extra/widgets/span/lv_span.c ****  * @return true for txt fill the max_width.
 598:Drivers/lvgl/lvgl/src/extra/widgets/span/lv_span.c ****  */
 599:Drivers/lvgl/lvgl/src/extra/widgets/span/lv_span.c **** static bool lv_txt_get_snippet(const char * txt, const lv_font_t * font,
 600:Drivers/lvgl/lvgl/src/extra/widgets/span/lv_span.c ****                                lv_coord_t letter_space, lv_coord_t max_width, lv_text_flag_t flag,
 601:Drivers/lvgl/lvgl/src/extra/widgets/span/lv_span.c ****                                lv_coord_t * use_width, uint32_t * end_ofs)
 602:Drivers/lvgl/lvgl/src/extra/widgets/span/lv_span.c **** {
 603:Drivers/lvgl/lvgl/src/extra/widgets/span/lv_span.c ****     if(txt == NULL || txt[0] == '\0') {
ARM GAS  /tmp/ccuuAFti.s 			page 12


 604:Drivers/lvgl/lvgl/src/extra/widgets/span/lv_span.c ****         *end_ofs = 0;
 605:Drivers/lvgl/lvgl/src/extra/widgets/span/lv_span.c ****         *use_width = 0;
 606:Drivers/lvgl/lvgl/src/extra/widgets/span/lv_span.c ****         return false;
 607:Drivers/lvgl/lvgl/src/extra/widgets/span/lv_span.c ****     }
 608:Drivers/lvgl/lvgl/src/extra/widgets/span/lv_span.c **** 
 609:Drivers/lvgl/lvgl/src/extra/widgets/span/lv_span.c ****     uint32_t ofs = _lv_txt_get_next_line(txt, font, letter_space, max_width, use_width, flag);
 610:Drivers/lvgl/lvgl/src/extra/widgets/span/lv_span.c ****     *end_ofs = ofs;
 611:Drivers/lvgl/lvgl/src/extra/widgets/span/lv_span.c **** 
 612:Drivers/lvgl/lvgl/src/extra/widgets/span/lv_span.c ****     if(txt[ofs] == '\0' && *use_width < max_width) {
 613:Drivers/lvgl/lvgl/src/extra/widgets/span/lv_span.c ****         return false;
 614:Drivers/lvgl/lvgl/src/extra/widgets/span/lv_span.c ****     }
 615:Drivers/lvgl/lvgl/src/extra/widgets/span/lv_span.c ****     else {
 616:Drivers/lvgl/lvgl/src/extra/widgets/span/lv_span.c ****         return true;
 617:Drivers/lvgl/lvgl/src/extra/widgets/span/lv_span.c ****     }
 618:Drivers/lvgl/lvgl/src/extra/widgets/span/lv_span.c **** }
 619:Drivers/lvgl/lvgl/src/extra/widgets/span/lv_span.c **** 
 620:Drivers/lvgl/lvgl/src/extra/widgets/span/lv_span.c **** static void lv_snippet_push(lv_snippet_t * item)
 621:Drivers/lvgl/lvgl/src/extra/widgets/span/lv_span.c **** {
 622:Drivers/lvgl/lvgl/src/extra/widgets/span/lv_span.c ****     if(snippet_stack.index < LV_SPAN_SNIPPET_STACK_SIZE) {
 623:Drivers/lvgl/lvgl/src/extra/widgets/span/lv_span.c ****         memcpy(&snippet_stack.stack[snippet_stack.index], item, sizeof(lv_snippet_t));
 624:Drivers/lvgl/lvgl/src/extra/widgets/span/lv_span.c ****         snippet_stack.index++;
 625:Drivers/lvgl/lvgl/src/extra/widgets/span/lv_span.c ****     }
 626:Drivers/lvgl/lvgl/src/extra/widgets/span/lv_span.c ****     else {
 627:Drivers/lvgl/lvgl/src/extra/widgets/span/lv_span.c ****         LV_LOG_ERROR("span draw stack overflow, please set LV_SPAN_SNIPPET_STACK_SIZE too larger");
 628:Drivers/lvgl/lvgl/src/extra/widgets/span/lv_span.c ****     }
 629:Drivers/lvgl/lvgl/src/extra/widgets/span/lv_span.c **** }
 630:Drivers/lvgl/lvgl/src/extra/widgets/span/lv_span.c **** 
 631:Drivers/lvgl/lvgl/src/extra/widgets/span/lv_span.c **** static uint16_t lv_get_snippet_cnt(void)
 632:Drivers/lvgl/lvgl/src/extra/widgets/span/lv_span.c **** {
  26              		.loc 1 632 0
  27              		.cfi_startproc
  28              		@ args = 0, pretend = 0, frame = 0
  29              		@ frame_needed = 0, uses_anonymous_args = 0
  30              		@ link register save eliminated.
 633:Drivers/lvgl/lvgl/src/extra/widgets/span/lv_span.c ****     return snippet_stack.index;
 634:Drivers/lvgl/lvgl/src/extra/widgets/span/lv_span.c **** }
  31              		.loc 1 634 0
  32 0000 014B     		ldr	r3, .L2
  33 0002 B3F80005 		ldrh	r0, [r3, #1280]
  34 0006 7047     		bx	lr
  35              	.L3:
  36              		.align	2
  37              	.L2:
  38 0008 00000000 		.word	.LANCHOR0
  39              		.cfi_endproc
  40              	.LFE229:
  42              		.section	.text.lv_get_snippet,"ax",%progbits
  43              		.align	1
  44              		.syntax unified
  45              		.thumb
  46              		.thumb_func
  47              		.fpu fpv5-d16
  49              	lv_get_snippet:
  50              	.LFB230:
 635:Drivers/lvgl/lvgl/src/extra/widgets/span/lv_span.c **** 
 636:Drivers/lvgl/lvgl/src/extra/widgets/span/lv_span.c **** static lv_snippet_t * lv_get_snippet(uint16_t index)
 637:Drivers/lvgl/lvgl/src/extra/widgets/span/lv_span.c **** {
ARM GAS  /tmp/ccuuAFti.s 			page 13


  51              		.loc 1 637 0
  52              		.cfi_startproc
  53              		@ args = 0, pretend = 0, frame = 0
  54              		@ frame_needed = 0, uses_anonymous_args = 0
  55              		@ link register save eliminated.
  56              	.LVL0:
 638:Drivers/lvgl/lvgl/src/extra/widgets/span/lv_span.c ****     return &snippet_stack.stack[index];
  57              		.loc 1 638 0
  58 0000 00EB8000 		add	r0, r0, r0, lsl #2
  59              	.LVL1:
  60 0004 8300     		lsls	r3, r0, #2
 639:Drivers/lvgl/lvgl/src/extra/widgets/span/lv_span.c **** }
  61              		.loc 1 639 0
  62 0006 0148     		ldr	r0, .L5
  63 0008 1844     		add	r0, r0, r3
  64 000a 7047     		bx	lr
  65              	.L6:
  66              		.align	2
  67              	.L5:
  68 000c 00000000 		.word	.LANCHOR0
  69              		.cfi_endproc
  70              	.LFE230:
  72              		.section	.text.lv_snippet_clear,"ax",%progbits
  73              		.align	1
  74              		.syntax unified
  75              		.thumb
  76              		.thumb_func
  77              		.fpu fpv5-d16
  79              	lv_snippet_clear:
  80              	.LFB231:
 640:Drivers/lvgl/lvgl/src/extra/widgets/span/lv_span.c **** 
 641:Drivers/lvgl/lvgl/src/extra/widgets/span/lv_span.c **** static void lv_snippet_clear(void)
 642:Drivers/lvgl/lvgl/src/extra/widgets/span/lv_span.c **** {
  81              		.loc 1 642 0
  82              		.cfi_startproc
  83              		@ args = 0, pretend = 0, frame = 0
  84              		@ frame_needed = 0, uses_anonymous_args = 0
  85              		@ link register save eliminated.
 643:Drivers/lvgl/lvgl/src/extra/widgets/span/lv_span.c ****     snippet_stack.index = 0;
  86              		.loc 1 643 0
  87 0000 024B     		ldr	r3, .L8
  88 0002 0022     		movs	r2, #0
  89 0004 A3F80025 		strh	r2, [r3, #1280]	@ movhi
 644:Drivers/lvgl/lvgl/src/extra/widgets/span/lv_span.c **** }
  90              		.loc 1 644 0
  91 0008 7047     		bx	lr
  92              	.L9:
  93 000a 00BF     		.align	2
  94              	.L8:
  95 000c 00000000 		.word	.LANCHOR0
  96              		.cfi_endproc
  97              	.LFE231:
  99              		.section	.text.convert_indent_pct,"ax",%progbits
 100              		.align	1
 101              		.syntax unified
 102              		.thumb
 103              		.thumb_func
ARM GAS  /tmp/ccuuAFti.s 			page 14


 104              		.fpu fpv5-d16
 106              	convert_indent_pct:
 107              	.LFB239:
 645:Drivers/lvgl/lvgl/src/extra/widgets/span/lv_span.c **** 
 646:Drivers/lvgl/lvgl/src/extra/widgets/span/lv_span.c **** static const lv_font_t * lv_span_get_style_text_font(lv_obj_t * par, lv_span_t * span)
 647:Drivers/lvgl/lvgl/src/extra/widgets/span/lv_span.c **** {
 648:Drivers/lvgl/lvgl/src/extra/widgets/span/lv_span.c ****     const lv_font_t * font;
 649:Drivers/lvgl/lvgl/src/extra/widgets/span/lv_span.c ****     lv_style_value_t value;
 650:Drivers/lvgl/lvgl/src/extra/widgets/span/lv_span.c ****     lv_res_t res = lv_style_get_prop(&span->style, LV_STYLE_TEXT_FONT, &value);
 651:Drivers/lvgl/lvgl/src/extra/widgets/span/lv_span.c ****     if(res != LV_RES_OK) {
 652:Drivers/lvgl/lvgl/src/extra/widgets/span/lv_span.c ****         font = lv_obj_get_style_text_font(par, LV_PART_MAIN);
 653:Drivers/lvgl/lvgl/src/extra/widgets/span/lv_span.c ****     }
 654:Drivers/lvgl/lvgl/src/extra/widgets/span/lv_span.c ****     else {
 655:Drivers/lvgl/lvgl/src/extra/widgets/span/lv_span.c ****         font = (const lv_font_t *)value.ptr;
 656:Drivers/lvgl/lvgl/src/extra/widgets/span/lv_span.c ****     }
 657:Drivers/lvgl/lvgl/src/extra/widgets/span/lv_span.c ****     return font;
 658:Drivers/lvgl/lvgl/src/extra/widgets/span/lv_span.c **** }
 659:Drivers/lvgl/lvgl/src/extra/widgets/span/lv_span.c **** 
 660:Drivers/lvgl/lvgl/src/extra/widgets/span/lv_span.c **** static lv_coord_t lv_span_get_style_text_letter_space(lv_obj_t * par, lv_span_t * span)
 661:Drivers/lvgl/lvgl/src/extra/widgets/span/lv_span.c **** {
 662:Drivers/lvgl/lvgl/src/extra/widgets/span/lv_span.c ****     lv_coord_t letter_space;
 663:Drivers/lvgl/lvgl/src/extra/widgets/span/lv_span.c ****     lv_style_value_t value;
 664:Drivers/lvgl/lvgl/src/extra/widgets/span/lv_span.c ****     lv_res_t res = lv_style_get_prop(&span->style, LV_STYLE_TEXT_LETTER_SPACE, &value);
 665:Drivers/lvgl/lvgl/src/extra/widgets/span/lv_span.c ****     if(res != LV_RES_OK) {
 666:Drivers/lvgl/lvgl/src/extra/widgets/span/lv_span.c ****         letter_space = lv_obj_get_style_text_letter_space(par, LV_PART_MAIN);
 667:Drivers/lvgl/lvgl/src/extra/widgets/span/lv_span.c ****     }
 668:Drivers/lvgl/lvgl/src/extra/widgets/span/lv_span.c ****     else {
 669:Drivers/lvgl/lvgl/src/extra/widgets/span/lv_span.c ****         letter_space = (lv_coord_t)value.num;
 670:Drivers/lvgl/lvgl/src/extra/widgets/span/lv_span.c ****     }
 671:Drivers/lvgl/lvgl/src/extra/widgets/span/lv_span.c ****     return letter_space;
 672:Drivers/lvgl/lvgl/src/extra/widgets/span/lv_span.c **** }
 673:Drivers/lvgl/lvgl/src/extra/widgets/span/lv_span.c **** 
 674:Drivers/lvgl/lvgl/src/extra/widgets/span/lv_span.c **** static lv_color_t lv_span_get_style_text_color(lv_obj_t * par, lv_span_t * span)
 675:Drivers/lvgl/lvgl/src/extra/widgets/span/lv_span.c **** {
 676:Drivers/lvgl/lvgl/src/extra/widgets/span/lv_span.c ****     lv_style_value_t value;
 677:Drivers/lvgl/lvgl/src/extra/widgets/span/lv_span.c ****     lv_res_t res = lv_style_get_prop(&span->style, LV_STYLE_TEXT_COLOR, &value);
 678:Drivers/lvgl/lvgl/src/extra/widgets/span/lv_span.c ****     if(res != LV_RES_OK) {
 679:Drivers/lvgl/lvgl/src/extra/widgets/span/lv_span.c ****         value.color = lv_obj_get_style_text_color(par, LV_PART_MAIN);
 680:Drivers/lvgl/lvgl/src/extra/widgets/span/lv_span.c ****     }
 681:Drivers/lvgl/lvgl/src/extra/widgets/span/lv_span.c ****     return value.color;
 682:Drivers/lvgl/lvgl/src/extra/widgets/span/lv_span.c **** }
 683:Drivers/lvgl/lvgl/src/extra/widgets/span/lv_span.c **** 
 684:Drivers/lvgl/lvgl/src/extra/widgets/span/lv_span.c **** static lv_opa_t lv_span_get_style_text_opa(lv_obj_t * par, lv_span_t * span)
 685:Drivers/lvgl/lvgl/src/extra/widgets/span/lv_span.c **** {
 686:Drivers/lvgl/lvgl/src/extra/widgets/span/lv_span.c ****     lv_opa_t opa;
 687:Drivers/lvgl/lvgl/src/extra/widgets/span/lv_span.c ****     lv_style_value_t value;
 688:Drivers/lvgl/lvgl/src/extra/widgets/span/lv_span.c ****     lv_res_t res = lv_style_get_prop(&span->style, LV_STYLE_TEXT_OPA, &value);
 689:Drivers/lvgl/lvgl/src/extra/widgets/span/lv_span.c ****     if(res != LV_RES_OK) {
 690:Drivers/lvgl/lvgl/src/extra/widgets/span/lv_span.c ****         opa = (lv_opa_t)lv_obj_get_style_text_opa(par, LV_PART_MAIN);
 691:Drivers/lvgl/lvgl/src/extra/widgets/span/lv_span.c ****     }
 692:Drivers/lvgl/lvgl/src/extra/widgets/span/lv_span.c ****     else {
 693:Drivers/lvgl/lvgl/src/extra/widgets/span/lv_span.c ****         opa = (lv_opa_t)value.num;
 694:Drivers/lvgl/lvgl/src/extra/widgets/span/lv_span.c ****     }
 695:Drivers/lvgl/lvgl/src/extra/widgets/span/lv_span.c ****     return opa;
 696:Drivers/lvgl/lvgl/src/extra/widgets/span/lv_span.c **** }
 697:Drivers/lvgl/lvgl/src/extra/widgets/span/lv_span.c **** 
 698:Drivers/lvgl/lvgl/src/extra/widgets/span/lv_span.c **** static lv_blend_mode_t lv_span_get_style_text_blend_mode(lv_obj_t * par, lv_span_t * span)
ARM GAS  /tmp/ccuuAFti.s 			page 15


 699:Drivers/lvgl/lvgl/src/extra/widgets/span/lv_span.c **** {
 700:Drivers/lvgl/lvgl/src/extra/widgets/span/lv_span.c ****     lv_blend_mode_t mode;
 701:Drivers/lvgl/lvgl/src/extra/widgets/span/lv_span.c ****     lv_style_value_t value;
 702:Drivers/lvgl/lvgl/src/extra/widgets/span/lv_span.c ****     lv_res_t res = lv_style_get_prop(&span->style, LV_STYLE_BLEND_MODE, &value);
 703:Drivers/lvgl/lvgl/src/extra/widgets/span/lv_span.c ****     if(res != LV_RES_OK) {
 704:Drivers/lvgl/lvgl/src/extra/widgets/span/lv_span.c ****         mode = (lv_blend_mode_t)lv_obj_get_style_blend_mode(par, LV_PART_MAIN);
 705:Drivers/lvgl/lvgl/src/extra/widgets/span/lv_span.c ****     }
 706:Drivers/lvgl/lvgl/src/extra/widgets/span/lv_span.c ****     else {
 707:Drivers/lvgl/lvgl/src/extra/widgets/span/lv_span.c ****         mode = (lv_blend_mode_t)value.num;
 708:Drivers/lvgl/lvgl/src/extra/widgets/span/lv_span.c ****     }
 709:Drivers/lvgl/lvgl/src/extra/widgets/span/lv_span.c ****     return mode;
 710:Drivers/lvgl/lvgl/src/extra/widgets/span/lv_span.c **** }
 711:Drivers/lvgl/lvgl/src/extra/widgets/span/lv_span.c **** 
 712:Drivers/lvgl/lvgl/src/extra/widgets/span/lv_span.c **** static int32_t lv_span_get_style_text_decor(lv_obj_t * par, lv_span_t * span)
 713:Drivers/lvgl/lvgl/src/extra/widgets/span/lv_span.c **** {
 714:Drivers/lvgl/lvgl/src/extra/widgets/span/lv_span.c ****     int32_t decor;
 715:Drivers/lvgl/lvgl/src/extra/widgets/span/lv_span.c ****     lv_style_value_t value;
 716:Drivers/lvgl/lvgl/src/extra/widgets/span/lv_span.c ****     lv_res_t res = lv_style_get_prop(&span->style, LV_STYLE_TEXT_DECOR, &value);
 717:Drivers/lvgl/lvgl/src/extra/widgets/span/lv_span.c ****     if(res != LV_RES_OK) {
 718:Drivers/lvgl/lvgl/src/extra/widgets/span/lv_span.c ****         decor = (lv_text_decor_t)lv_obj_get_style_text_decor(par, LV_PART_MAIN);;
 719:Drivers/lvgl/lvgl/src/extra/widgets/span/lv_span.c ****     }
 720:Drivers/lvgl/lvgl/src/extra/widgets/span/lv_span.c ****     else {
 721:Drivers/lvgl/lvgl/src/extra/widgets/span/lv_span.c ****         decor = (int32_t)value.num;
 722:Drivers/lvgl/lvgl/src/extra/widgets/span/lv_span.c ****     }
 723:Drivers/lvgl/lvgl/src/extra/widgets/span/lv_span.c ****     return decor;
 724:Drivers/lvgl/lvgl/src/extra/widgets/span/lv_span.c **** }
 725:Drivers/lvgl/lvgl/src/extra/widgets/span/lv_span.c **** 
 726:Drivers/lvgl/lvgl/src/extra/widgets/span/lv_span.c **** static inline void span_text_check(const char ** text)
 727:Drivers/lvgl/lvgl/src/extra/widgets/span/lv_span.c **** {
 728:Drivers/lvgl/lvgl/src/extra/widgets/span/lv_span.c ****     if(*text == NULL) {
 729:Drivers/lvgl/lvgl/src/extra/widgets/span/lv_span.c ****         *text = "";
 730:Drivers/lvgl/lvgl/src/extra/widgets/span/lv_span.c ****         LV_LOG_ERROR("occur an error that span text == NULL");
 731:Drivers/lvgl/lvgl/src/extra/widgets/span/lv_span.c ****     }
 732:Drivers/lvgl/lvgl/src/extra/widgets/span/lv_span.c **** }
 733:Drivers/lvgl/lvgl/src/extra/widgets/span/lv_span.c **** 
 734:Drivers/lvgl/lvgl/src/extra/widgets/span/lv_span.c **** static lv_coord_t convert_indent_pct(lv_obj_t * obj, lv_coord_t width)
 735:Drivers/lvgl/lvgl/src/extra/widgets/span/lv_span.c **** {
 108              		.loc 1 735 0
 109              		.cfi_startproc
 110              		@ args = 0, pretend = 0, frame = 0
 111              		@ frame_needed = 0, uses_anonymous_args = 0
 112              		@ link register save eliminated.
 113              	.LVL2:
 114 0000 10B4     		push	{r4}
 115              	.LCFI0:
 116              		.cfi_def_cfa_offset 4
 117              		.cfi_offset 4, -4
 118              	.LVL3:
 736:Drivers/lvgl/lvgl/src/extra/widgets/span/lv_span.c ****     lv_spangroup_t * spans = (lv_spangroup_t *)obj;
 737:Drivers/lvgl/lvgl/src/extra/widgets/span/lv_span.c **** 
 738:Drivers/lvgl/lvgl/src/extra/widgets/span/lv_span.c ****     lv_coord_t indent = spans->indent;
 119              		.loc 1 738 0
 120 0002 B0F92830 		ldrsh	r3, [r0, #40]
 121              	.LVL4:
 739:Drivers/lvgl/lvgl/src/extra/widgets/span/lv_span.c ****     if(LV_COORD_IS_PCT(spans->indent)) {
 122              		.loc 1 739 0
 123 0006 03F4C044 		and	r4, r3, #24576
ARM GAS  /tmp/ccuuAFti.s 			page 16


 124 000a B4F5005F 		cmp	r4, #8192
 125 000e 03D0     		beq	.L16
 126              	.LVL5:
 127              	.L11:
 740:Drivers/lvgl/lvgl/src/extra/widgets/span/lv_span.c ****         if(spans->mode == LV_SPAN_MODE_EXPAND) {
 741:Drivers/lvgl/lvgl/src/extra/widgets/span/lv_span.c ****             indent = 0;
 742:Drivers/lvgl/lvgl/src/extra/widgets/span/lv_span.c ****         }
 743:Drivers/lvgl/lvgl/src/extra/widgets/span/lv_span.c ****         else {
 744:Drivers/lvgl/lvgl/src/extra/widgets/span/lv_span.c ****             indent = (width * LV_COORD_GET_PCT(spans->indent)) / 100;
 745:Drivers/lvgl/lvgl/src/extra/widgets/span/lv_span.c ****         }
 746:Drivers/lvgl/lvgl/src/extra/widgets/span/lv_span.c ****     }
 747:Drivers/lvgl/lvgl/src/extra/widgets/span/lv_span.c **** 
 748:Drivers/lvgl/lvgl/src/extra/widgets/span/lv_span.c ****     return indent;
 749:Drivers/lvgl/lvgl/src/extra/widgets/span/lv_span.c **** }
 128              		.loc 1 749 0
 129 0010 1846     		mov	r0, r3
 130 0012 5DF8044B 		ldr	r4, [sp], #4
 131              	.LCFI1:
 132              		.cfi_remember_state
 133              		.cfi_restore 4
 134              		.cfi_def_cfa_offset 0
 135 0016 7047     		bx	lr
 136              	.LVL6:
 137              	.L16:
 138              	.LCFI2:
 139              		.cfi_restore_state
 739:Drivers/lvgl/lvgl/src/extra/widgets/span/lv_span.c ****     if(LV_COORD_IS_PCT(spans->indent)) {
 140              		.loc 1 739 0 discriminator 1
 141 0018 23F4C042 		bic	r2, r3, #24576
 142 001c B2F5FA6F 		cmp	r2, #2000
 143 0020 F6DC     		bgt	.L11
 740:Drivers/lvgl/lvgl/src/extra/widgets/span/lv_span.c ****         if(spans->mode == LV_SPAN_MODE_EXPAND) {
 144              		.loc 1 740 0
 145 0022 90F83C30 		ldrb	r3, [r0, #60]	@ zero_extendqisi2
 146              	.LVL7:
 147 0026 03F00303 		and	r3, r3, #3
 148 002a 012B     		cmp	r3, #1
 149 002c 0ED0     		beq	.L14
 744:Drivers/lvgl/lvgl/src/extra/widgets/span/lv_span.c ****         }
 150              		.loc 1 744 0
 151 002e B2F57A7F 		cmp	r2, #1000
 152 0032 01DD     		ble	.L13
 744:Drivers/lvgl/lvgl/src/extra/widgets/span/lv_span.c ****         }
 153              		.loc 1 744 0 is_stmt 0 discriminator 1
 154 0034 C2F57A72 		rsb	r2, r2, #1000
 155              	.L13:
 744:Drivers/lvgl/lvgl/src/extra/widgets/span/lv_span.c ****         }
 156              		.loc 1 744 0 discriminator 4
 157 0038 02FB01F1 		mul	r1, r2, r1
 158              	.LVL8:
 159 003c 0448     		ldr	r0, .L17
 160              	.LVL9:
 161 003e 80FB0130 		smull	r3, r0, r0, r1
 162 0042 CB17     		asrs	r3, r1, #31
 163 0044 C3EB6013 		rsb	r3, r3, r0, asr #5
 164 0048 1BB2     		sxth	r3, r3
 165              	.LVL10:
ARM GAS  /tmp/ccuuAFti.s 			page 17


 166 004a E1E7     		b	.L11
 167              	.LVL11:
 168              	.L14:
 741:Drivers/lvgl/lvgl/src/extra/widgets/span/lv_span.c ****         }
 169              		.loc 1 741 0 is_stmt 1
 170 004c 0023     		movs	r3, #0
 171 004e DFE7     		b	.L11
 172              	.L18:
 173              		.align	2
 174              	.L17:
 175 0050 1F85EB51 		.word	1374389535
 176              		.cfi_endproc
 177              	.LFE239:
 179              		.section	.text.lv_span_get_style_text_letter_space,"ax",%progbits
 180              		.align	1
 181              		.syntax unified
 182              		.thumb
 183              		.thumb_func
 184              		.fpu fpv5-d16
 186              	lv_span_get_style_text_letter_space:
 187              	.LFB233:
 661:Drivers/lvgl/lvgl/src/extra/widgets/span/lv_span.c ****     lv_coord_t letter_space;
 188              		.loc 1 661 0
 189              		.cfi_startproc
 190              		@ args = 0, pretend = 0, frame = 8
 191              		@ frame_needed = 0, uses_anonymous_args = 0
 192              	.LVL12:
 193 0000 10B5     		push	{r4, lr}
 194              	.LCFI3:
 195              		.cfi_def_cfa_offset 8
 196              		.cfi_offset 4, -8
 197              		.cfi_offset 14, -4
 198 0002 82B0     		sub	sp, sp, #8
 199              	.LCFI4:
 200              		.cfi_def_cfa_offset 16
 201 0004 0446     		mov	r4, r0
 664:Drivers/lvgl/lvgl/src/extra/widgets/span/lv_span.c ****     if(res != LV_RES_OK) {
 202              		.loc 1 664 0
 203 0006 01F10800 		add	r0, r1, #8
 204              	.LVL13:
 205 000a 01AA     		add	r2, sp, #4
 206 000c 5821     		movs	r1, #88
 207              	.LVL14:
 208 000e FFF7FEFF 		bl	lv_style_get_prop
 209              	.LVL15:
 665:Drivers/lvgl/lvgl/src/extra/widgets/span/lv_span.c ****         letter_space = lv_obj_get_style_text_letter_space(par, LV_PART_MAIN);
 210              		.loc 1 665 0
 211 0012 0128     		cmp	r0, #1
 212 0014 03D1     		bne	.L23
 669:Drivers/lvgl/lvgl/src/extra/widgets/span/lv_span.c ****     }
 213              		.loc 1 669 0
 214 0016 BDF90400 		ldrsh	r0, [sp, #4]
 215              	.LVL16:
 216              	.L21:
 672:Drivers/lvgl/lvgl/src/extra/widgets/span/lv_span.c **** 
 217              		.loc 1 672 0
 218 001a 02B0     		add	sp, sp, #8
ARM GAS  /tmp/ccuuAFti.s 			page 18


 219              	.LCFI5:
 220              		.cfi_remember_state
 221              		.cfi_def_cfa_offset 8
 222              		@ sp needed
 223 001c 10BD     		pop	{r4, pc}
 224              	.LVL17:
 225              	.L23:
 226              	.LCFI6:
 227              		.cfi_restore_state
 228              	.LBB81:
 229              	.LBB82:
 230              		.file 2 "Drivers/lvgl/lvgl/src/extra/widgets/span/../../../../src/core/lv_obj_style_gen.h"
   1:Drivers/lvgl/lvgl/src/extra/widgets/span/../../../../src/core/lv_obj_style_gen.h **** static inline lv_coord_t lv_obj_get_style_width(const struct _lv_obj_t * obj, uint32_t part)
   2:Drivers/lvgl/lvgl/src/extra/widgets/span/../../../../src/core/lv_obj_style_gen.h **** {
   3:Drivers/lvgl/lvgl/src/extra/widgets/span/../../../../src/core/lv_obj_style_gen.h ****     lv_style_value_t v = lv_obj_get_style_prop(obj, part, LV_STYLE_WIDTH);
   4:Drivers/lvgl/lvgl/src/extra/widgets/span/../../../../src/core/lv_obj_style_gen.h ****     return (lv_coord_t)v.num;
   5:Drivers/lvgl/lvgl/src/extra/widgets/span/../../../../src/core/lv_obj_style_gen.h **** }
   6:Drivers/lvgl/lvgl/src/extra/widgets/span/../../../../src/core/lv_obj_style_gen.h **** 
   7:Drivers/lvgl/lvgl/src/extra/widgets/span/../../../../src/core/lv_obj_style_gen.h **** static inline lv_coord_t lv_obj_get_style_min_width(const struct _lv_obj_t * obj, uint32_t part)
   8:Drivers/lvgl/lvgl/src/extra/widgets/span/../../../../src/core/lv_obj_style_gen.h **** {
   9:Drivers/lvgl/lvgl/src/extra/widgets/span/../../../../src/core/lv_obj_style_gen.h ****     lv_style_value_t v = lv_obj_get_style_prop(obj, part, LV_STYLE_MIN_WIDTH);
  10:Drivers/lvgl/lvgl/src/extra/widgets/span/../../../../src/core/lv_obj_style_gen.h ****     return (lv_coord_t)v.num;
  11:Drivers/lvgl/lvgl/src/extra/widgets/span/../../../../src/core/lv_obj_style_gen.h **** }
  12:Drivers/lvgl/lvgl/src/extra/widgets/span/../../../../src/core/lv_obj_style_gen.h **** 
  13:Drivers/lvgl/lvgl/src/extra/widgets/span/../../../../src/core/lv_obj_style_gen.h **** static inline lv_coord_t lv_obj_get_style_max_width(const struct _lv_obj_t * obj, uint32_t part)
  14:Drivers/lvgl/lvgl/src/extra/widgets/span/../../../../src/core/lv_obj_style_gen.h **** {
  15:Drivers/lvgl/lvgl/src/extra/widgets/span/../../../../src/core/lv_obj_style_gen.h ****     lv_style_value_t v = lv_obj_get_style_prop(obj, part, LV_STYLE_MAX_WIDTH);
  16:Drivers/lvgl/lvgl/src/extra/widgets/span/../../../../src/core/lv_obj_style_gen.h ****     return (lv_coord_t)v.num;
  17:Drivers/lvgl/lvgl/src/extra/widgets/span/../../../../src/core/lv_obj_style_gen.h **** }
  18:Drivers/lvgl/lvgl/src/extra/widgets/span/../../../../src/core/lv_obj_style_gen.h **** 
  19:Drivers/lvgl/lvgl/src/extra/widgets/span/../../../../src/core/lv_obj_style_gen.h **** static inline lv_coord_t lv_obj_get_style_height(const struct _lv_obj_t * obj, uint32_t part)
  20:Drivers/lvgl/lvgl/src/extra/widgets/span/../../../../src/core/lv_obj_style_gen.h **** {
  21:Drivers/lvgl/lvgl/src/extra/widgets/span/../../../../src/core/lv_obj_style_gen.h ****     lv_style_value_t v = lv_obj_get_style_prop(obj, part, LV_STYLE_HEIGHT);
  22:Drivers/lvgl/lvgl/src/extra/widgets/span/../../../../src/core/lv_obj_style_gen.h ****     return (lv_coord_t)v.num;
  23:Drivers/lvgl/lvgl/src/extra/widgets/span/../../../../src/core/lv_obj_style_gen.h **** }
  24:Drivers/lvgl/lvgl/src/extra/widgets/span/../../../../src/core/lv_obj_style_gen.h **** 
  25:Drivers/lvgl/lvgl/src/extra/widgets/span/../../../../src/core/lv_obj_style_gen.h **** static inline lv_coord_t lv_obj_get_style_min_height(const struct _lv_obj_t * obj, uint32_t part)
  26:Drivers/lvgl/lvgl/src/extra/widgets/span/../../../../src/core/lv_obj_style_gen.h **** {
  27:Drivers/lvgl/lvgl/src/extra/widgets/span/../../../../src/core/lv_obj_style_gen.h ****     lv_style_value_t v = lv_obj_get_style_prop(obj, part, LV_STYLE_MIN_HEIGHT);
  28:Drivers/lvgl/lvgl/src/extra/widgets/span/../../../../src/core/lv_obj_style_gen.h ****     return (lv_coord_t)v.num;
  29:Drivers/lvgl/lvgl/src/extra/widgets/span/../../../../src/core/lv_obj_style_gen.h **** }
  30:Drivers/lvgl/lvgl/src/extra/widgets/span/../../../../src/core/lv_obj_style_gen.h **** 
  31:Drivers/lvgl/lvgl/src/extra/widgets/span/../../../../src/core/lv_obj_style_gen.h **** static inline lv_coord_t lv_obj_get_style_max_height(const struct _lv_obj_t * obj, uint32_t part)
  32:Drivers/lvgl/lvgl/src/extra/widgets/span/../../../../src/core/lv_obj_style_gen.h **** {
  33:Drivers/lvgl/lvgl/src/extra/widgets/span/../../../../src/core/lv_obj_style_gen.h ****     lv_style_value_t v = lv_obj_get_style_prop(obj, part, LV_STYLE_MAX_HEIGHT);
  34:Drivers/lvgl/lvgl/src/extra/widgets/span/../../../../src/core/lv_obj_style_gen.h ****     return (lv_coord_t)v.num;
  35:Drivers/lvgl/lvgl/src/extra/widgets/span/../../../../src/core/lv_obj_style_gen.h **** }
  36:Drivers/lvgl/lvgl/src/extra/widgets/span/../../../../src/core/lv_obj_style_gen.h **** 
  37:Drivers/lvgl/lvgl/src/extra/widgets/span/../../../../src/core/lv_obj_style_gen.h **** static inline lv_coord_t lv_obj_get_style_x(const struct _lv_obj_t * obj, uint32_t part)
  38:Drivers/lvgl/lvgl/src/extra/widgets/span/../../../../src/core/lv_obj_style_gen.h **** {
  39:Drivers/lvgl/lvgl/src/extra/widgets/span/../../../../src/core/lv_obj_style_gen.h ****     lv_style_value_t v = lv_obj_get_style_prop(obj, part, LV_STYLE_X);
  40:Drivers/lvgl/lvgl/src/extra/widgets/span/../../../../src/core/lv_obj_style_gen.h ****     return (lv_coord_t)v.num;
  41:Drivers/lvgl/lvgl/src/extra/widgets/span/../../../../src/core/lv_obj_style_gen.h **** }
  42:Drivers/lvgl/lvgl/src/extra/widgets/span/../../../../src/core/lv_obj_style_gen.h **** 
  43:Drivers/lvgl/lvgl/src/extra/widgets/span/../../../../src/core/lv_obj_style_gen.h **** static inline lv_coord_t lv_obj_get_style_y(const struct _lv_obj_t * obj, uint32_t part)
  44:Drivers/lvgl/lvgl/src/extra/widgets/span/../../../../src/core/lv_obj_style_gen.h **** {
  45:Drivers/lvgl/lvgl/src/extra/widgets/span/../../../../src/core/lv_obj_style_gen.h ****     lv_style_value_t v = lv_obj_get_style_prop(obj, part, LV_STYLE_Y);
ARM GAS  /tmp/ccuuAFti.s 			page 19


  46:Drivers/lvgl/lvgl/src/extra/widgets/span/../../../../src/core/lv_obj_style_gen.h ****     return (lv_coord_t)v.num;
  47:Drivers/lvgl/lvgl/src/extra/widgets/span/../../../../src/core/lv_obj_style_gen.h **** }
  48:Drivers/lvgl/lvgl/src/extra/widgets/span/../../../../src/core/lv_obj_style_gen.h **** 
  49:Drivers/lvgl/lvgl/src/extra/widgets/span/../../../../src/core/lv_obj_style_gen.h **** static inline lv_align_t lv_obj_get_style_align(const struct _lv_obj_t * obj, uint32_t part)
  50:Drivers/lvgl/lvgl/src/extra/widgets/span/../../../../src/core/lv_obj_style_gen.h **** {
  51:Drivers/lvgl/lvgl/src/extra/widgets/span/../../../../src/core/lv_obj_style_gen.h ****     lv_style_value_t v = lv_obj_get_style_prop(obj, part, LV_STYLE_ALIGN);
  52:Drivers/lvgl/lvgl/src/extra/widgets/span/../../../../src/core/lv_obj_style_gen.h ****     return (lv_align_t)v.num;
  53:Drivers/lvgl/lvgl/src/extra/widgets/span/../../../../src/core/lv_obj_style_gen.h **** }
  54:Drivers/lvgl/lvgl/src/extra/widgets/span/../../../../src/core/lv_obj_style_gen.h **** 
  55:Drivers/lvgl/lvgl/src/extra/widgets/span/../../../../src/core/lv_obj_style_gen.h **** static inline lv_coord_t lv_obj_get_style_transform_width(const struct _lv_obj_t * obj, uint32_t pa
  56:Drivers/lvgl/lvgl/src/extra/widgets/span/../../../../src/core/lv_obj_style_gen.h **** {
  57:Drivers/lvgl/lvgl/src/extra/widgets/span/../../../../src/core/lv_obj_style_gen.h ****     lv_style_value_t v = lv_obj_get_style_prop(obj, part, LV_STYLE_TRANSFORM_WIDTH);
  58:Drivers/lvgl/lvgl/src/extra/widgets/span/../../../../src/core/lv_obj_style_gen.h ****     return (lv_coord_t)v.num;
  59:Drivers/lvgl/lvgl/src/extra/widgets/span/../../../../src/core/lv_obj_style_gen.h **** }
  60:Drivers/lvgl/lvgl/src/extra/widgets/span/../../../../src/core/lv_obj_style_gen.h **** 
  61:Drivers/lvgl/lvgl/src/extra/widgets/span/../../../../src/core/lv_obj_style_gen.h **** static inline lv_coord_t lv_obj_get_style_transform_height(const struct _lv_obj_t * obj, uint32_t p
  62:Drivers/lvgl/lvgl/src/extra/widgets/span/../../../../src/core/lv_obj_style_gen.h **** {
  63:Drivers/lvgl/lvgl/src/extra/widgets/span/../../../../src/core/lv_obj_style_gen.h ****     lv_style_value_t v = lv_obj_get_style_prop(obj, part, LV_STYLE_TRANSFORM_HEIGHT);
  64:Drivers/lvgl/lvgl/src/extra/widgets/span/../../../../src/core/lv_obj_style_gen.h ****     return (lv_coord_t)v.num;
  65:Drivers/lvgl/lvgl/src/extra/widgets/span/../../../../src/core/lv_obj_style_gen.h **** }
  66:Drivers/lvgl/lvgl/src/extra/widgets/span/../../../../src/core/lv_obj_style_gen.h **** 
  67:Drivers/lvgl/lvgl/src/extra/widgets/span/../../../../src/core/lv_obj_style_gen.h **** static inline lv_coord_t lv_obj_get_style_translate_x(const struct _lv_obj_t * obj, uint32_t part)
  68:Drivers/lvgl/lvgl/src/extra/widgets/span/../../../../src/core/lv_obj_style_gen.h **** {
  69:Drivers/lvgl/lvgl/src/extra/widgets/span/../../../../src/core/lv_obj_style_gen.h ****     lv_style_value_t v = lv_obj_get_style_prop(obj, part, LV_STYLE_TRANSLATE_X);
  70:Drivers/lvgl/lvgl/src/extra/widgets/span/../../../../src/core/lv_obj_style_gen.h ****     return (lv_coord_t)v.num;
  71:Drivers/lvgl/lvgl/src/extra/widgets/span/../../../../src/core/lv_obj_style_gen.h **** }
  72:Drivers/lvgl/lvgl/src/extra/widgets/span/../../../../src/core/lv_obj_style_gen.h **** 
  73:Drivers/lvgl/lvgl/src/extra/widgets/span/../../../../src/core/lv_obj_style_gen.h **** static inline lv_coord_t lv_obj_get_style_translate_y(const struct _lv_obj_t * obj, uint32_t part)
  74:Drivers/lvgl/lvgl/src/extra/widgets/span/../../../../src/core/lv_obj_style_gen.h **** {
  75:Drivers/lvgl/lvgl/src/extra/widgets/span/../../../../src/core/lv_obj_style_gen.h ****     lv_style_value_t v = lv_obj_get_style_prop(obj, part, LV_STYLE_TRANSLATE_Y);
  76:Drivers/lvgl/lvgl/src/extra/widgets/span/../../../../src/core/lv_obj_style_gen.h ****     return (lv_coord_t)v.num;
  77:Drivers/lvgl/lvgl/src/extra/widgets/span/../../../../src/core/lv_obj_style_gen.h **** }
  78:Drivers/lvgl/lvgl/src/extra/widgets/span/../../../../src/core/lv_obj_style_gen.h **** 
  79:Drivers/lvgl/lvgl/src/extra/widgets/span/../../../../src/core/lv_obj_style_gen.h **** static inline lv_coord_t lv_obj_get_style_transform_zoom(const struct _lv_obj_t * obj, uint32_t par
  80:Drivers/lvgl/lvgl/src/extra/widgets/span/../../../../src/core/lv_obj_style_gen.h **** {
  81:Drivers/lvgl/lvgl/src/extra/widgets/span/../../../../src/core/lv_obj_style_gen.h ****     lv_style_value_t v = lv_obj_get_style_prop(obj, part, LV_STYLE_TRANSFORM_ZOOM);
  82:Drivers/lvgl/lvgl/src/extra/widgets/span/../../../../src/core/lv_obj_style_gen.h ****     return (lv_coord_t)v.num;
  83:Drivers/lvgl/lvgl/src/extra/widgets/span/../../../../src/core/lv_obj_style_gen.h **** }
  84:Drivers/lvgl/lvgl/src/extra/widgets/span/../../../../src/core/lv_obj_style_gen.h **** 
  85:Drivers/lvgl/lvgl/src/extra/widgets/span/../../../../src/core/lv_obj_style_gen.h **** static inline lv_coord_t lv_obj_get_style_transform_angle(const struct _lv_obj_t * obj, uint32_t pa
  86:Drivers/lvgl/lvgl/src/extra/widgets/span/../../../../src/core/lv_obj_style_gen.h **** {
  87:Drivers/lvgl/lvgl/src/extra/widgets/span/../../../../src/core/lv_obj_style_gen.h ****     lv_style_value_t v = lv_obj_get_style_prop(obj, part, LV_STYLE_TRANSFORM_ANGLE);
  88:Drivers/lvgl/lvgl/src/extra/widgets/span/../../../../src/core/lv_obj_style_gen.h ****     return (lv_coord_t)v.num;
  89:Drivers/lvgl/lvgl/src/extra/widgets/span/../../../../src/core/lv_obj_style_gen.h **** }
  90:Drivers/lvgl/lvgl/src/extra/widgets/span/../../../../src/core/lv_obj_style_gen.h **** 
  91:Drivers/lvgl/lvgl/src/extra/widgets/span/../../../../src/core/lv_obj_style_gen.h **** static inline lv_coord_t lv_obj_get_style_transform_pivot_x(const struct _lv_obj_t * obj, uint32_t 
  92:Drivers/lvgl/lvgl/src/extra/widgets/span/../../../../src/core/lv_obj_style_gen.h **** {
  93:Drivers/lvgl/lvgl/src/extra/widgets/span/../../../../src/core/lv_obj_style_gen.h ****     lv_style_value_t v = lv_obj_get_style_prop(obj, part, LV_STYLE_TRANSFORM_PIVOT_X);
  94:Drivers/lvgl/lvgl/src/extra/widgets/span/../../../../src/core/lv_obj_style_gen.h ****     return (lv_coord_t)v.num;
  95:Drivers/lvgl/lvgl/src/extra/widgets/span/../../../../src/core/lv_obj_style_gen.h **** }
  96:Drivers/lvgl/lvgl/src/extra/widgets/span/../../../../src/core/lv_obj_style_gen.h **** 
  97:Drivers/lvgl/lvgl/src/extra/widgets/span/../../../../src/core/lv_obj_style_gen.h **** static inline lv_coord_t lv_obj_get_style_transform_pivot_y(const struct _lv_obj_t * obj, uint32_t 
  98:Drivers/lvgl/lvgl/src/extra/widgets/span/../../../../src/core/lv_obj_style_gen.h **** {
  99:Drivers/lvgl/lvgl/src/extra/widgets/span/../../../../src/core/lv_obj_style_gen.h ****     lv_style_value_t v = lv_obj_get_style_prop(obj, part, LV_STYLE_TRANSFORM_PIVOT_Y);
 100:Drivers/lvgl/lvgl/src/extra/widgets/span/../../../../src/core/lv_obj_style_gen.h ****     return (lv_coord_t)v.num;
 101:Drivers/lvgl/lvgl/src/extra/widgets/span/../../../../src/core/lv_obj_style_gen.h **** }
 102:Drivers/lvgl/lvgl/src/extra/widgets/span/../../../../src/core/lv_obj_style_gen.h **** 
ARM GAS  /tmp/ccuuAFti.s 			page 20


 103:Drivers/lvgl/lvgl/src/extra/widgets/span/../../../../src/core/lv_obj_style_gen.h **** static inline lv_coord_t lv_obj_get_style_pad_top(const struct _lv_obj_t * obj, uint32_t part)
 104:Drivers/lvgl/lvgl/src/extra/widgets/span/../../../../src/core/lv_obj_style_gen.h **** {
 105:Drivers/lvgl/lvgl/src/extra/widgets/span/../../../../src/core/lv_obj_style_gen.h ****     lv_style_value_t v = lv_obj_get_style_prop(obj, part, LV_STYLE_PAD_TOP);
 106:Drivers/lvgl/lvgl/src/extra/widgets/span/../../../../src/core/lv_obj_style_gen.h ****     return (lv_coord_t)v.num;
 107:Drivers/lvgl/lvgl/src/extra/widgets/span/../../../../src/core/lv_obj_style_gen.h **** }
 108:Drivers/lvgl/lvgl/src/extra/widgets/span/../../../../src/core/lv_obj_style_gen.h **** 
 109:Drivers/lvgl/lvgl/src/extra/widgets/span/../../../../src/core/lv_obj_style_gen.h **** static inline lv_coord_t lv_obj_get_style_pad_bottom(const struct _lv_obj_t * obj, uint32_t part)
 110:Drivers/lvgl/lvgl/src/extra/widgets/span/../../../../src/core/lv_obj_style_gen.h **** {
 111:Drivers/lvgl/lvgl/src/extra/widgets/span/../../../../src/core/lv_obj_style_gen.h ****     lv_style_value_t v = lv_obj_get_style_prop(obj, part, LV_STYLE_PAD_BOTTOM);
 112:Drivers/lvgl/lvgl/src/extra/widgets/span/../../../../src/core/lv_obj_style_gen.h ****     return (lv_coord_t)v.num;
 113:Drivers/lvgl/lvgl/src/extra/widgets/span/../../../../src/core/lv_obj_style_gen.h **** }
 114:Drivers/lvgl/lvgl/src/extra/widgets/span/../../../../src/core/lv_obj_style_gen.h **** 
 115:Drivers/lvgl/lvgl/src/extra/widgets/span/../../../../src/core/lv_obj_style_gen.h **** static inline lv_coord_t lv_obj_get_style_pad_left(const struct _lv_obj_t * obj, uint32_t part)
 116:Drivers/lvgl/lvgl/src/extra/widgets/span/../../../../src/core/lv_obj_style_gen.h **** {
 117:Drivers/lvgl/lvgl/src/extra/widgets/span/../../../../src/core/lv_obj_style_gen.h ****     lv_style_value_t v = lv_obj_get_style_prop(obj, part, LV_STYLE_PAD_LEFT);
 118:Drivers/lvgl/lvgl/src/extra/widgets/span/../../../../src/core/lv_obj_style_gen.h ****     return (lv_coord_t)v.num;
 119:Drivers/lvgl/lvgl/src/extra/widgets/span/../../../../src/core/lv_obj_style_gen.h **** }
 120:Drivers/lvgl/lvgl/src/extra/widgets/span/../../../../src/core/lv_obj_style_gen.h **** 
 121:Drivers/lvgl/lvgl/src/extra/widgets/span/../../../../src/core/lv_obj_style_gen.h **** static inline lv_coord_t lv_obj_get_style_pad_right(const struct _lv_obj_t * obj, uint32_t part)
 122:Drivers/lvgl/lvgl/src/extra/widgets/span/../../../../src/core/lv_obj_style_gen.h **** {
 123:Drivers/lvgl/lvgl/src/extra/widgets/span/../../../../src/core/lv_obj_style_gen.h ****     lv_style_value_t v = lv_obj_get_style_prop(obj, part, LV_STYLE_PAD_RIGHT);
 124:Drivers/lvgl/lvgl/src/extra/widgets/span/../../../../src/core/lv_obj_style_gen.h ****     return (lv_coord_t)v.num;
 125:Drivers/lvgl/lvgl/src/extra/widgets/span/../../../../src/core/lv_obj_style_gen.h **** }
 126:Drivers/lvgl/lvgl/src/extra/widgets/span/../../../../src/core/lv_obj_style_gen.h **** 
 127:Drivers/lvgl/lvgl/src/extra/widgets/span/../../../../src/core/lv_obj_style_gen.h **** static inline lv_coord_t lv_obj_get_style_pad_row(const struct _lv_obj_t * obj, uint32_t part)
 128:Drivers/lvgl/lvgl/src/extra/widgets/span/../../../../src/core/lv_obj_style_gen.h **** {
 129:Drivers/lvgl/lvgl/src/extra/widgets/span/../../../../src/core/lv_obj_style_gen.h ****     lv_style_value_t v = lv_obj_get_style_prop(obj, part, LV_STYLE_PAD_ROW);
 130:Drivers/lvgl/lvgl/src/extra/widgets/span/../../../../src/core/lv_obj_style_gen.h ****     return (lv_coord_t)v.num;
 131:Drivers/lvgl/lvgl/src/extra/widgets/span/../../../../src/core/lv_obj_style_gen.h **** }
 132:Drivers/lvgl/lvgl/src/extra/widgets/span/../../../../src/core/lv_obj_style_gen.h **** 
 133:Drivers/lvgl/lvgl/src/extra/widgets/span/../../../../src/core/lv_obj_style_gen.h **** static inline lv_coord_t lv_obj_get_style_pad_column(const struct _lv_obj_t * obj, uint32_t part)
 134:Drivers/lvgl/lvgl/src/extra/widgets/span/../../../../src/core/lv_obj_style_gen.h **** {
 135:Drivers/lvgl/lvgl/src/extra/widgets/span/../../../../src/core/lv_obj_style_gen.h ****     lv_style_value_t v = lv_obj_get_style_prop(obj, part, LV_STYLE_PAD_COLUMN);
 136:Drivers/lvgl/lvgl/src/extra/widgets/span/../../../../src/core/lv_obj_style_gen.h ****     return (lv_coord_t)v.num;
 137:Drivers/lvgl/lvgl/src/extra/widgets/span/../../../../src/core/lv_obj_style_gen.h **** }
 138:Drivers/lvgl/lvgl/src/extra/widgets/span/../../../../src/core/lv_obj_style_gen.h **** 
 139:Drivers/lvgl/lvgl/src/extra/widgets/span/../../../../src/core/lv_obj_style_gen.h **** static inline lv_color_t lv_obj_get_style_bg_color(const struct _lv_obj_t * obj, uint32_t part)
 140:Drivers/lvgl/lvgl/src/extra/widgets/span/../../../../src/core/lv_obj_style_gen.h **** {
 141:Drivers/lvgl/lvgl/src/extra/widgets/span/../../../../src/core/lv_obj_style_gen.h ****     lv_style_value_t v = lv_obj_get_style_prop(obj, part, LV_STYLE_BG_COLOR);
 142:Drivers/lvgl/lvgl/src/extra/widgets/span/../../../../src/core/lv_obj_style_gen.h ****     return v.color;
 143:Drivers/lvgl/lvgl/src/extra/widgets/span/../../../../src/core/lv_obj_style_gen.h **** }
 144:Drivers/lvgl/lvgl/src/extra/widgets/span/../../../../src/core/lv_obj_style_gen.h **** 
 145:Drivers/lvgl/lvgl/src/extra/widgets/span/../../../../src/core/lv_obj_style_gen.h **** static inline lv_color_t lv_obj_get_style_bg_color_filtered(const struct _lv_obj_t * obj, uint32_t 
 146:Drivers/lvgl/lvgl/src/extra/widgets/span/../../../../src/core/lv_obj_style_gen.h **** {
 147:Drivers/lvgl/lvgl/src/extra/widgets/span/../../../../src/core/lv_obj_style_gen.h ****     lv_style_value_t v = _lv_obj_style_apply_color_filter(obj, part, lv_obj_get_style_prop(obj, par
 148:Drivers/lvgl/lvgl/src/extra/widgets/span/../../../../src/core/lv_obj_style_gen.h ****     return v.color;
 149:Drivers/lvgl/lvgl/src/extra/widgets/span/../../../../src/core/lv_obj_style_gen.h **** }
 150:Drivers/lvgl/lvgl/src/extra/widgets/span/../../../../src/core/lv_obj_style_gen.h **** 
 151:Drivers/lvgl/lvgl/src/extra/widgets/span/../../../../src/core/lv_obj_style_gen.h **** static inline lv_opa_t lv_obj_get_style_bg_opa(const struct _lv_obj_t * obj, uint32_t part)
 152:Drivers/lvgl/lvgl/src/extra/widgets/span/../../../../src/core/lv_obj_style_gen.h **** {
 153:Drivers/lvgl/lvgl/src/extra/widgets/span/../../../../src/core/lv_obj_style_gen.h ****     lv_style_value_t v = lv_obj_get_style_prop(obj, part, LV_STYLE_BG_OPA);
 154:Drivers/lvgl/lvgl/src/extra/widgets/span/../../../../src/core/lv_obj_style_gen.h ****     return (lv_opa_t)v.num;
 155:Drivers/lvgl/lvgl/src/extra/widgets/span/../../../../src/core/lv_obj_style_gen.h **** }
 156:Drivers/lvgl/lvgl/src/extra/widgets/span/../../../../src/core/lv_obj_style_gen.h **** 
 157:Drivers/lvgl/lvgl/src/extra/widgets/span/../../../../src/core/lv_obj_style_gen.h **** static inline lv_color_t lv_obj_get_style_bg_grad_color(const struct _lv_obj_t * obj, uint32_t part
 158:Drivers/lvgl/lvgl/src/extra/widgets/span/../../../../src/core/lv_obj_style_gen.h **** {
 159:Drivers/lvgl/lvgl/src/extra/widgets/span/../../../../src/core/lv_obj_style_gen.h ****     lv_style_value_t v = lv_obj_get_style_prop(obj, part, LV_STYLE_BG_GRAD_COLOR);
ARM GAS  /tmp/ccuuAFti.s 			page 21


 160:Drivers/lvgl/lvgl/src/extra/widgets/span/../../../../src/core/lv_obj_style_gen.h ****     return v.color;
 161:Drivers/lvgl/lvgl/src/extra/widgets/span/../../../../src/core/lv_obj_style_gen.h **** }
 162:Drivers/lvgl/lvgl/src/extra/widgets/span/../../../../src/core/lv_obj_style_gen.h **** 
 163:Drivers/lvgl/lvgl/src/extra/widgets/span/../../../../src/core/lv_obj_style_gen.h **** static inline lv_color_t lv_obj_get_style_bg_grad_color_filtered(const struct _lv_obj_t * obj, uint
 164:Drivers/lvgl/lvgl/src/extra/widgets/span/../../../../src/core/lv_obj_style_gen.h **** {
 165:Drivers/lvgl/lvgl/src/extra/widgets/span/../../../../src/core/lv_obj_style_gen.h ****     lv_style_value_t v = _lv_obj_style_apply_color_filter(obj, part, lv_obj_get_style_prop(obj, par
 166:Drivers/lvgl/lvgl/src/extra/widgets/span/../../../../src/core/lv_obj_style_gen.h ****     return v.color;
 167:Drivers/lvgl/lvgl/src/extra/widgets/span/../../../../src/core/lv_obj_style_gen.h **** }
 168:Drivers/lvgl/lvgl/src/extra/widgets/span/../../../../src/core/lv_obj_style_gen.h **** 
 169:Drivers/lvgl/lvgl/src/extra/widgets/span/../../../../src/core/lv_obj_style_gen.h **** static inline lv_grad_dir_t lv_obj_get_style_bg_grad_dir(const struct _lv_obj_t * obj, uint32_t par
 170:Drivers/lvgl/lvgl/src/extra/widgets/span/../../../../src/core/lv_obj_style_gen.h **** {
 171:Drivers/lvgl/lvgl/src/extra/widgets/span/../../../../src/core/lv_obj_style_gen.h ****     lv_style_value_t v = lv_obj_get_style_prop(obj, part, LV_STYLE_BG_GRAD_DIR);
 172:Drivers/lvgl/lvgl/src/extra/widgets/span/../../../../src/core/lv_obj_style_gen.h ****     return (lv_grad_dir_t)v.num;
 173:Drivers/lvgl/lvgl/src/extra/widgets/span/../../../../src/core/lv_obj_style_gen.h **** }
 174:Drivers/lvgl/lvgl/src/extra/widgets/span/../../../../src/core/lv_obj_style_gen.h **** 
 175:Drivers/lvgl/lvgl/src/extra/widgets/span/../../../../src/core/lv_obj_style_gen.h **** static inline lv_coord_t lv_obj_get_style_bg_main_stop(const struct _lv_obj_t * obj, uint32_t part)
 176:Drivers/lvgl/lvgl/src/extra/widgets/span/../../../../src/core/lv_obj_style_gen.h **** {
 177:Drivers/lvgl/lvgl/src/extra/widgets/span/../../../../src/core/lv_obj_style_gen.h ****     lv_style_value_t v = lv_obj_get_style_prop(obj, part, LV_STYLE_BG_MAIN_STOP);
 178:Drivers/lvgl/lvgl/src/extra/widgets/span/../../../../src/core/lv_obj_style_gen.h ****     return (lv_coord_t)v.num;
 179:Drivers/lvgl/lvgl/src/extra/widgets/span/../../../../src/core/lv_obj_style_gen.h **** }
 180:Drivers/lvgl/lvgl/src/extra/widgets/span/../../../../src/core/lv_obj_style_gen.h **** 
 181:Drivers/lvgl/lvgl/src/extra/widgets/span/../../../../src/core/lv_obj_style_gen.h **** static inline lv_coord_t lv_obj_get_style_bg_grad_stop(const struct _lv_obj_t * obj, uint32_t part)
 182:Drivers/lvgl/lvgl/src/extra/widgets/span/../../../../src/core/lv_obj_style_gen.h **** {
 183:Drivers/lvgl/lvgl/src/extra/widgets/span/../../../../src/core/lv_obj_style_gen.h ****     lv_style_value_t v = lv_obj_get_style_prop(obj, part, LV_STYLE_BG_GRAD_STOP);
 184:Drivers/lvgl/lvgl/src/extra/widgets/span/../../../../src/core/lv_obj_style_gen.h ****     return (lv_coord_t)v.num;
 185:Drivers/lvgl/lvgl/src/extra/widgets/span/../../../../src/core/lv_obj_style_gen.h **** }
 186:Drivers/lvgl/lvgl/src/extra/widgets/span/../../../../src/core/lv_obj_style_gen.h **** 
 187:Drivers/lvgl/lvgl/src/extra/widgets/span/../../../../src/core/lv_obj_style_gen.h **** static inline const lv_grad_dsc_t * lv_obj_get_style_bg_grad(const struct _lv_obj_t * obj, uint32_t
 188:Drivers/lvgl/lvgl/src/extra/widgets/span/../../../../src/core/lv_obj_style_gen.h **** {
 189:Drivers/lvgl/lvgl/src/extra/widgets/span/../../../../src/core/lv_obj_style_gen.h ****     lv_style_value_t v = lv_obj_get_style_prop(obj, part, LV_STYLE_BG_GRAD);
 190:Drivers/lvgl/lvgl/src/extra/widgets/span/../../../../src/core/lv_obj_style_gen.h ****     return (const lv_grad_dsc_t *)v.ptr;
 191:Drivers/lvgl/lvgl/src/extra/widgets/span/../../../../src/core/lv_obj_style_gen.h **** }
 192:Drivers/lvgl/lvgl/src/extra/widgets/span/../../../../src/core/lv_obj_style_gen.h **** 
 193:Drivers/lvgl/lvgl/src/extra/widgets/span/../../../../src/core/lv_obj_style_gen.h **** static inline lv_dither_mode_t lv_obj_get_style_bg_dither_mode(const struct _lv_obj_t * obj, uint32
 194:Drivers/lvgl/lvgl/src/extra/widgets/span/../../../../src/core/lv_obj_style_gen.h **** {
 195:Drivers/lvgl/lvgl/src/extra/widgets/span/../../../../src/core/lv_obj_style_gen.h ****     lv_style_value_t v = lv_obj_get_style_prop(obj, part, LV_STYLE_BG_DITHER_MODE);
 196:Drivers/lvgl/lvgl/src/extra/widgets/span/../../../../src/core/lv_obj_style_gen.h ****     return (lv_dither_mode_t)v.num;
 197:Drivers/lvgl/lvgl/src/extra/widgets/span/../../../../src/core/lv_obj_style_gen.h **** }
 198:Drivers/lvgl/lvgl/src/extra/widgets/span/../../../../src/core/lv_obj_style_gen.h **** 
 199:Drivers/lvgl/lvgl/src/extra/widgets/span/../../../../src/core/lv_obj_style_gen.h **** static inline const void * lv_obj_get_style_bg_img_src(const struct _lv_obj_t * obj, uint32_t part)
 200:Drivers/lvgl/lvgl/src/extra/widgets/span/../../../../src/core/lv_obj_style_gen.h **** {
 201:Drivers/lvgl/lvgl/src/extra/widgets/span/../../../../src/core/lv_obj_style_gen.h ****     lv_style_value_t v = lv_obj_get_style_prop(obj, part, LV_STYLE_BG_IMG_SRC);
 202:Drivers/lvgl/lvgl/src/extra/widgets/span/../../../../src/core/lv_obj_style_gen.h ****     return (const void *)v.ptr;
 203:Drivers/lvgl/lvgl/src/extra/widgets/span/../../../../src/core/lv_obj_style_gen.h **** }
 204:Drivers/lvgl/lvgl/src/extra/widgets/span/../../../../src/core/lv_obj_style_gen.h **** 
 205:Drivers/lvgl/lvgl/src/extra/widgets/span/../../../../src/core/lv_obj_style_gen.h **** static inline lv_opa_t lv_obj_get_style_bg_img_opa(const struct _lv_obj_t * obj, uint32_t part)
 206:Drivers/lvgl/lvgl/src/extra/widgets/span/../../../../src/core/lv_obj_style_gen.h **** {
 207:Drivers/lvgl/lvgl/src/extra/widgets/span/../../../../src/core/lv_obj_style_gen.h ****     lv_style_value_t v = lv_obj_get_style_prop(obj, part, LV_STYLE_BG_IMG_OPA);
 208:Drivers/lvgl/lvgl/src/extra/widgets/span/../../../../src/core/lv_obj_style_gen.h ****     return (lv_opa_t)v.num;
 209:Drivers/lvgl/lvgl/src/extra/widgets/span/../../../../src/core/lv_obj_style_gen.h **** }
 210:Drivers/lvgl/lvgl/src/extra/widgets/span/../../../../src/core/lv_obj_style_gen.h **** 
 211:Drivers/lvgl/lvgl/src/extra/widgets/span/../../../../src/core/lv_obj_style_gen.h **** static inline lv_color_t lv_obj_get_style_bg_img_recolor(const struct _lv_obj_t * obj, uint32_t par
 212:Drivers/lvgl/lvgl/src/extra/widgets/span/../../../../src/core/lv_obj_style_gen.h **** {
 213:Drivers/lvgl/lvgl/src/extra/widgets/span/../../../../src/core/lv_obj_style_gen.h ****     lv_style_value_t v = lv_obj_get_style_prop(obj, part, LV_STYLE_BG_IMG_RECOLOR);
 214:Drivers/lvgl/lvgl/src/extra/widgets/span/../../../../src/core/lv_obj_style_gen.h ****     return v.color;
 215:Drivers/lvgl/lvgl/src/extra/widgets/span/../../../../src/core/lv_obj_style_gen.h **** }
 216:Drivers/lvgl/lvgl/src/extra/widgets/span/../../../../src/core/lv_obj_style_gen.h **** 
ARM GAS  /tmp/ccuuAFti.s 			page 22


 217:Drivers/lvgl/lvgl/src/extra/widgets/span/../../../../src/core/lv_obj_style_gen.h **** static inline lv_color_t lv_obj_get_style_bg_img_recolor_filtered(const struct _lv_obj_t * obj, uin
 218:Drivers/lvgl/lvgl/src/extra/widgets/span/../../../../src/core/lv_obj_style_gen.h **** {
 219:Drivers/lvgl/lvgl/src/extra/widgets/span/../../../../src/core/lv_obj_style_gen.h ****     lv_style_value_t v = _lv_obj_style_apply_color_filter(obj, part, lv_obj_get_style_prop(obj, par
 220:Drivers/lvgl/lvgl/src/extra/widgets/span/../../../../src/core/lv_obj_style_gen.h ****     return v.color;
 221:Drivers/lvgl/lvgl/src/extra/widgets/span/../../../../src/core/lv_obj_style_gen.h **** }
 222:Drivers/lvgl/lvgl/src/extra/widgets/span/../../../../src/core/lv_obj_style_gen.h **** 
 223:Drivers/lvgl/lvgl/src/extra/widgets/span/../../../../src/core/lv_obj_style_gen.h **** static inline lv_opa_t lv_obj_get_style_bg_img_recolor_opa(const struct _lv_obj_t * obj, uint32_t p
 224:Drivers/lvgl/lvgl/src/extra/widgets/span/../../../../src/core/lv_obj_style_gen.h **** {
 225:Drivers/lvgl/lvgl/src/extra/widgets/span/../../../../src/core/lv_obj_style_gen.h ****     lv_style_value_t v = lv_obj_get_style_prop(obj, part, LV_STYLE_BG_IMG_RECOLOR_OPA);
 226:Drivers/lvgl/lvgl/src/extra/widgets/span/../../../../src/core/lv_obj_style_gen.h ****     return (lv_opa_t)v.num;
 227:Drivers/lvgl/lvgl/src/extra/widgets/span/../../../../src/core/lv_obj_style_gen.h **** }
 228:Drivers/lvgl/lvgl/src/extra/widgets/span/../../../../src/core/lv_obj_style_gen.h **** 
 229:Drivers/lvgl/lvgl/src/extra/widgets/span/../../../../src/core/lv_obj_style_gen.h **** static inline bool lv_obj_get_style_bg_img_tiled(const struct _lv_obj_t * obj, uint32_t part)
 230:Drivers/lvgl/lvgl/src/extra/widgets/span/../../../../src/core/lv_obj_style_gen.h **** {
 231:Drivers/lvgl/lvgl/src/extra/widgets/span/../../../../src/core/lv_obj_style_gen.h ****     lv_style_value_t v = lv_obj_get_style_prop(obj, part, LV_STYLE_BG_IMG_TILED);
 232:Drivers/lvgl/lvgl/src/extra/widgets/span/../../../../src/core/lv_obj_style_gen.h ****     return (bool)v.num;
 233:Drivers/lvgl/lvgl/src/extra/widgets/span/../../../../src/core/lv_obj_style_gen.h **** }
 234:Drivers/lvgl/lvgl/src/extra/widgets/span/../../../../src/core/lv_obj_style_gen.h **** 
 235:Drivers/lvgl/lvgl/src/extra/widgets/span/../../../../src/core/lv_obj_style_gen.h **** static inline lv_color_t lv_obj_get_style_border_color(const struct _lv_obj_t * obj, uint32_t part)
 236:Drivers/lvgl/lvgl/src/extra/widgets/span/../../../../src/core/lv_obj_style_gen.h **** {
 237:Drivers/lvgl/lvgl/src/extra/widgets/span/../../../../src/core/lv_obj_style_gen.h ****     lv_style_value_t v = lv_obj_get_style_prop(obj, part, LV_STYLE_BORDER_COLOR);
 238:Drivers/lvgl/lvgl/src/extra/widgets/span/../../../../src/core/lv_obj_style_gen.h ****     return v.color;
 239:Drivers/lvgl/lvgl/src/extra/widgets/span/../../../../src/core/lv_obj_style_gen.h **** }
 240:Drivers/lvgl/lvgl/src/extra/widgets/span/../../../../src/core/lv_obj_style_gen.h **** 
 241:Drivers/lvgl/lvgl/src/extra/widgets/span/../../../../src/core/lv_obj_style_gen.h **** static inline lv_color_t lv_obj_get_style_border_color_filtered(const struct _lv_obj_t * obj, uint3
 242:Drivers/lvgl/lvgl/src/extra/widgets/span/../../../../src/core/lv_obj_style_gen.h **** {
 243:Drivers/lvgl/lvgl/src/extra/widgets/span/../../../../src/core/lv_obj_style_gen.h ****     lv_style_value_t v = _lv_obj_style_apply_color_filter(obj, part, lv_obj_get_style_prop(obj, par
 244:Drivers/lvgl/lvgl/src/extra/widgets/span/../../../../src/core/lv_obj_style_gen.h ****     return v.color;
 245:Drivers/lvgl/lvgl/src/extra/widgets/span/../../../../src/core/lv_obj_style_gen.h **** }
 246:Drivers/lvgl/lvgl/src/extra/widgets/span/../../../../src/core/lv_obj_style_gen.h **** 
 247:Drivers/lvgl/lvgl/src/extra/widgets/span/../../../../src/core/lv_obj_style_gen.h **** static inline lv_opa_t lv_obj_get_style_border_opa(const struct _lv_obj_t * obj, uint32_t part)
 248:Drivers/lvgl/lvgl/src/extra/widgets/span/../../../../src/core/lv_obj_style_gen.h **** {
 249:Drivers/lvgl/lvgl/src/extra/widgets/span/../../../../src/core/lv_obj_style_gen.h ****     lv_style_value_t v = lv_obj_get_style_prop(obj, part, LV_STYLE_BORDER_OPA);
 250:Drivers/lvgl/lvgl/src/extra/widgets/span/../../../../src/core/lv_obj_style_gen.h ****     return (lv_opa_t)v.num;
 251:Drivers/lvgl/lvgl/src/extra/widgets/span/../../../../src/core/lv_obj_style_gen.h **** }
 252:Drivers/lvgl/lvgl/src/extra/widgets/span/../../../../src/core/lv_obj_style_gen.h **** 
 253:Drivers/lvgl/lvgl/src/extra/widgets/span/../../../../src/core/lv_obj_style_gen.h **** static inline lv_coord_t lv_obj_get_style_border_width(const struct _lv_obj_t * obj, uint32_t part)
 254:Drivers/lvgl/lvgl/src/extra/widgets/span/../../../../src/core/lv_obj_style_gen.h **** {
 255:Drivers/lvgl/lvgl/src/extra/widgets/span/../../../../src/core/lv_obj_style_gen.h ****     lv_style_value_t v = lv_obj_get_style_prop(obj, part, LV_STYLE_BORDER_WIDTH);
 256:Drivers/lvgl/lvgl/src/extra/widgets/span/../../../../src/core/lv_obj_style_gen.h ****     return (lv_coord_t)v.num;
 257:Drivers/lvgl/lvgl/src/extra/widgets/span/../../../../src/core/lv_obj_style_gen.h **** }
 258:Drivers/lvgl/lvgl/src/extra/widgets/span/../../../../src/core/lv_obj_style_gen.h **** 
 259:Drivers/lvgl/lvgl/src/extra/widgets/span/../../../../src/core/lv_obj_style_gen.h **** static inline lv_border_side_t lv_obj_get_style_border_side(const struct _lv_obj_t * obj, uint32_t 
 260:Drivers/lvgl/lvgl/src/extra/widgets/span/../../../../src/core/lv_obj_style_gen.h **** {
 261:Drivers/lvgl/lvgl/src/extra/widgets/span/../../../../src/core/lv_obj_style_gen.h ****     lv_style_value_t v = lv_obj_get_style_prop(obj, part, LV_STYLE_BORDER_SIDE);
 262:Drivers/lvgl/lvgl/src/extra/widgets/span/../../../../src/core/lv_obj_style_gen.h ****     return (lv_border_side_t)v.num;
 263:Drivers/lvgl/lvgl/src/extra/widgets/span/../../../../src/core/lv_obj_style_gen.h **** }
 264:Drivers/lvgl/lvgl/src/extra/widgets/span/../../../../src/core/lv_obj_style_gen.h **** 
 265:Drivers/lvgl/lvgl/src/extra/widgets/span/../../../../src/core/lv_obj_style_gen.h **** static inline bool lv_obj_get_style_border_post(const struct _lv_obj_t * obj, uint32_t part)
 266:Drivers/lvgl/lvgl/src/extra/widgets/span/../../../../src/core/lv_obj_style_gen.h **** {
 267:Drivers/lvgl/lvgl/src/extra/widgets/span/../../../../src/core/lv_obj_style_gen.h ****     lv_style_value_t v = lv_obj_get_style_prop(obj, part, LV_STYLE_BORDER_POST);
 268:Drivers/lvgl/lvgl/src/extra/widgets/span/../../../../src/core/lv_obj_style_gen.h ****     return (bool)v.num;
 269:Drivers/lvgl/lvgl/src/extra/widgets/span/../../../../src/core/lv_obj_style_gen.h **** }
 270:Drivers/lvgl/lvgl/src/extra/widgets/span/../../../../src/core/lv_obj_style_gen.h **** 
 271:Drivers/lvgl/lvgl/src/extra/widgets/span/../../../../src/core/lv_obj_style_gen.h **** static inline lv_coord_t lv_obj_get_style_outline_width(const struct _lv_obj_t * obj, uint32_t part
 272:Drivers/lvgl/lvgl/src/extra/widgets/span/../../../../src/core/lv_obj_style_gen.h **** {
 273:Drivers/lvgl/lvgl/src/extra/widgets/span/../../../../src/core/lv_obj_style_gen.h ****     lv_style_value_t v = lv_obj_get_style_prop(obj, part, LV_STYLE_OUTLINE_WIDTH);
ARM GAS  /tmp/ccuuAFti.s 			page 23


 274:Drivers/lvgl/lvgl/src/extra/widgets/span/../../../../src/core/lv_obj_style_gen.h ****     return (lv_coord_t)v.num;
 275:Drivers/lvgl/lvgl/src/extra/widgets/span/../../../../src/core/lv_obj_style_gen.h **** }
 276:Drivers/lvgl/lvgl/src/extra/widgets/span/../../../../src/core/lv_obj_style_gen.h **** 
 277:Drivers/lvgl/lvgl/src/extra/widgets/span/../../../../src/core/lv_obj_style_gen.h **** static inline lv_color_t lv_obj_get_style_outline_color(const struct _lv_obj_t * obj, uint32_t part
 278:Drivers/lvgl/lvgl/src/extra/widgets/span/../../../../src/core/lv_obj_style_gen.h **** {
 279:Drivers/lvgl/lvgl/src/extra/widgets/span/../../../../src/core/lv_obj_style_gen.h ****     lv_style_value_t v = lv_obj_get_style_prop(obj, part, LV_STYLE_OUTLINE_COLOR);
 280:Drivers/lvgl/lvgl/src/extra/widgets/span/../../../../src/core/lv_obj_style_gen.h ****     return v.color;
 281:Drivers/lvgl/lvgl/src/extra/widgets/span/../../../../src/core/lv_obj_style_gen.h **** }
 282:Drivers/lvgl/lvgl/src/extra/widgets/span/../../../../src/core/lv_obj_style_gen.h **** 
 283:Drivers/lvgl/lvgl/src/extra/widgets/span/../../../../src/core/lv_obj_style_gen.h **** static inline lv_color_t lv_obj_get_style_outline_color_filtered(const struct _lv_obj_t * obj, uint
 284:Drivers/lvgl/lvgl/src/extra/widgets/span/../../../../src/core/lv_obj_style_gen.h **** {
 285:Drivers/lvgl/lvgl/src/extra/widgets/span/../../../../src/core/lv_obj_style_gen.h ****     lv_style_value_t v = _lv_obj_style_apply_color_filter(obj, part, lv_obj_get_style_prop(obj, par
 286:Drivers/lvgl/lvgl/src/extra/widgets/span/../../../../src/core/lv_obj_style_gen.h ****     return v.color;
 287:Drivers/lvgl/lvgl/src/extra/widgets/span/../../../../src/core/lv_obj_style_gen.h **** }
 288:Drivers/lvgl/lvgl/src/extra/widgets/span/../../../../src/core/lv_obj_style_gen.h **** 
 289:Drivers/lvgl/lvgl/src/extra/widgets/span/../../../../src/core/lv_obj_style_gen.h **** static inline lv_opa_t lv_obj_get_style_outline_opa(const struct _lv_obj_t * obj, uint32_t part)
 290:Drivers/lvgl/lvgl/src/extra/widgets/span/../../../../src/core/lv_obj_style_gen.h **** {
 291:Drivers/lvgl/lvgl/src/extra/widgets/span/../../../../src/core/lv_obj_style_gen.h ****     lv_style_value_t v = lv_obj_get_style_prop(obj, part, LV_STYLE_OUTLINE_OPA);
 292:Drivers/lvgl/lvgl/src/extra/widgets/span/../../../../src/core/lv_obj_style_gen.h ****     return (lv_opa_t)v.num;
 293:Drivers/lvgl/lvgl/src/extra/widgets/span/../../../../src/core/lv_obj_style_gen.h **** }
 294:Drivers/lvgl/lvgl/src/extra/widgets/span/../../../../src/core/lv_obj_style_gen.h **** 
 295:Drivers/lvgl/lvgl/src/extra/widgets/span/../../../../src/core/lv_obj_style_gen.h **** static inline lv_coord_t lv_obj_get_style_outline_pad(const struct _lv_obj_t * obj, uint32_t part)
 296:Drivers/lvgl/lvgl/src/extra/widgets/span/../../../../src/core/lv_obj_style_gen.h **** {
 297:Drivers/lvgl/lvgl/src/extra/widgets/span/../../../../src/core/lv_obj_style_gen.h ****     lv_style_value_t v = lv_obj_get_style_prop(obj, part, LV_STYLE_OUTLINE_PAD);
 298:Drivers/lvgl/lvgl/src/extra/widgets/span/../../../../src/core/lv_obj_style_gen.h ****     return (lv_coord_t)v.num;
 299:Drivers/lvgl/lvgl/src/extra/widgets/span/../../../../src/core/lv_obj_style_gen.h **** }
 300:Drivers/lvgl/lvgl/src/extra/widgets/span/../../../../src/core/lv_obj_style_gen.h **** 
 301:Drivers/lvgl/lvgl/src/extra/widgets/span/../../../../src/core/lv_obj_style_gen.h **** static inline lv_coord_t lv_obj_get_style_shadow_width(const struct _lv_obj_t * obj, uint32_t part)
 302:Drivers/lvgl/lvgl/src/extra/widgets/span/../../../../src/core/lv_obj_style_gen.h **** {
 303:Drivers/lvgl/lvgl/src/extra/widgets/span/../../../../src/core/lv_obj_style_gen.h ****     lv_style_value_t v = lv_obj_get_style_prop(obj, part, LV_STYLE_SHADOW_WIDTH);
 304:Drivers/lvgl/lvgl/src/extra/widgets/span/../../../../src/core/lv_obj_style_gen.h ****     return (lv_coord_t)v.num;
 305:Drivers/lvgl/lvgl/src/extra/widgets/span/../../../../src/core/lv_obj_style_gen.h **** }
 306:Drivers/lvgl/lvgl/src/extra/widgets/span/../../../../src/core/lv_obj_style_gen.h **** 
 307:Drivers/lvgl/lvgl/src/extra/widgets/span/../../../../src/core/lv_obj_style_gen.h **** static inline lv_coord_t lv_obj_get_style_shadow_ofs_x(const struct _lv_obj_t * obj, uint32_t part)
 308:Drivers/lvgl/lvgl/src/extra/widgets/span/../../../../src/core/lv_obj_style_gen.h **** {
 309:Drivers/lvgl/lvgl/src/extra/widgets/span/../../../../src/core/lv_obj_style_gen.h ****     lv_style_value_t v = lv_obj_get_style_prop(obj, part, LV_STYLE_SHADOW_OFS_X);
 310:Drivers/lvgl/lvgl/src/extra/widgets/span/../../../../src/core/lv_obj_style_gen.h ****     return (lv_coord_t)v.num;
 311:Drivers/lvgl/lvgl/src/extra/widgets/span/../../../../src/core/lv_obj_style_gen.h **** }
 312:Drivers/lvgl/lvgl/src/extra/widgets/span/../../../../src/core/lv_obj_style_gen.h **** 
 313:Drivers/lvgl/lvgl/src/extra/widgets/span/../../../../src/core/lv_obj_style_gen.h **** static inline lv_coord_t lv_obj_get_style_shadow_ofs_y(const struct _lv_obj_t * obj, uint32_t part)
 314:Drivers/lvgl/lvgl/src/extra/widgets/span/../../../../src/core/lv_obj_style_gen.h **** {
 315:Drivers/lvgl/lvgl/src/extra/widgets/span/../../../../src/core/lv_obj_style_gen.h ****     lv_style_value_t v = lv_obj_get_style_prop(obj, part, LV_STYLE_SHADOW_OFS_Y);
 316:Drivers/lvgl/lvgl/src/extra/widgets/span/../../../../src/core/lv_obj_style_gen.h ****     return (lv_coord_t)v.num;
 317:Drivers/lvgl/lvgl/src/extra/widgets/span/../../../../src/core/lv_obj_style_gen.h **** }
 318:Drivers/lvgl/lvgl/src/extra/widgets/span/../../../../src/core/lv_obj_style_gen.h **** 
 319:Drivers/lvgl/lvgl/src/extra/widgets/span/../../../../src/core/lv_obj_style_gen.h **** static inline lv_coord_t lv_obj_get_style_shadow_spread(const struct _lv_obj_t * obj, uint32_t part
 320:Drivers/lvgl/lvgl/src/extra/widgets/span/../../../../src/core/lv_obj_style_gen.h **** {
 321:Drivers/lvgl/lvgl/src/extra/widgets/span/../../../../src/core/lv_obj_style_gen.h ****     lv_style_value_t v = lv_obj_get_style_prop(obj, part, LV_STYLE_SHADOW_SPREAD);
 322:Drivers/lvgl/lvgl/src/extra/widgets/span/../../../../src/core/lv_obj_style_gen.h ****     return (lv_coord_t)v.num;
 323:Drivers/lvgl/lvgl/src/extra/widgets/span/../../../../src/core/lv_obj_style_gen.h **** }
 324:Drivers/lvgl/lvgl/src/extra/widgets/span/../../../../src/core/lv_obj_style_gen.h **** 
 325:Drivers/lvgl/lvgl/src/extra/widgets/span/../../../../src/core/lv_obj_style_gen.h **** static inline lv_color_t lv_obj_get_style_shadow_color(const struct _lv_obj_t * obj, uint32_t part)
 326:Drivers/lvgl/lvgl/src/extra/widgets/span/../../../../src/core/lv_obj_style_gen.h **** {
 327:Drivers/lvgl/lvgl/src/extra/widgets/span/../../../../src/core/lv_obj_style_gen.h ****     lv_style_value_t v = lv_obj_get_style_prop(obj, part, LV_STYLE_SHADOW_COLOR);
 328:Drivers/lvgl/lvgl/src/extra/widgets/span/../../../../src/core/lv_obj_style_gen.h ****     return v.color;
 329:Drivers/lvgl/lvgl/src/extra/widgets/span/../../../../src/core/lv_obj_style_gen.h **** }
 330:Drivers/lvgl/lvgl/src/extra/widgets/span/../../../../src/core/lv_obj_style_gen.h **** 
ARM GAS  /tmp/ccuuAFti.s 			page 24


 331:Drivers/lvgl/lvgl/src/extra/widgets/span/../../../../src/core/lv_obj_style_gen.h **** static inline lv_color_t lv_obj_get_style_shadow_color_filtered(const struct _lv_obj_t * obj, uint3
 332:Drivers/lvgl/lvgl/src/extra/widgets/span/../../../../src/core/lv_obj_style_gen.h **** {
 333:Drivers/lvgl/lvgl/src/extra/widgets/span/../../../../src/core/lv_obj_style_gen.h ****     lv_style_value_t v = _lv_obj_style_apply_color_filter(obj, part, lv_obj_get_style_prop(obj, par
 334:Drivers/lvgl/lvgl/src/extra/widgets/span/../../../../src/core/lv_obj_style_gen.h ****     return v.color;
 335:Drivers/lvgl/lvgl/src/extra/widgets/span/../../../../src/core/lv_obj_style_gen.h **** }
 336:Drivers/lvgl/lvgl/src/extra/widgets/span/../../../../src/core/lv_obj_style_gen.h **** 
 337:Drivers/lvgl/lvgl/src/extra/widgets/span/../../../../src/core/lv_obj_style_gen.h **** static inline lv_opa_t lv_obj_get_style_shadow_opa(const struct _lv_obj_t * obj, uint32_t part)
 338:Drivers/lvgl/lvgl/src/extra/widgets/span/../../../../src/core/lv_obj_style_gen.h **** {
 339:Drivers/lvgl/lvgl/src/extra/widgets/span/../../../../src/core/lv_obj_style_gen.h ****     lv_style_value_t v = lv_obj_get_style_prop(obj, part, LV_STYLE_SHADOW_OPA);
 340:Drivers/lvgl/lvgl/src/extra/widgets/span/../../../../src/core/lv_obj_style_gen.h ****     return (lv_opa_t)v.num;
 341:Drivers/lvgl/lvgl/src/extra/widgets/span/../../../../src/core/lv_obj_style_gen.h **** }
 342:Drivers/lvgl/lvgl/src/extra/widgets/span/../../../../src/core/lv_obj_style_gen.h **** 
 343:Drivers/lvgl/lvgl/src/extra/widgets/span/../../../../src/core/lv_obj_style_gen.h **** static inline lv_opa_t lv_obj_get_style_img_opa(const struct _lv_obj_t * obj, uint32_t part)
 344:Drivers/lvgl/lvgl/src/extra/widgets/span/../../../../src/core/lv_obj_style_gen.h **** {
 345:Drivers/lvgl/lvgl/src/extra/widgets/span/../../../../src/core/lv_obj_style_gen.h ****     lv_style_value_t v = lv_obj_get_style_prop(obj, part, LV_STYLE_IMG_OPA);
 346:Drivers/lvgl/lvgl/src/extra/widgets/span/../../../../src/core/lv_obj_style_gen.h ****     return (lv_opa_t)v.num;
 347:Drivers/lvgl/lvgl/src/extra/widgets/span/../../../../src/core/lv_obj_style_gen.h **** }
 348:Drivers/lvgl/lvgl/src/extra/widgets/span/../../../../src/core/lv_obj_style_gen.h **** 
 349:Drivers/lvgl/lvgl/src/extra/widgets/span/../../../../src/core/lv_obj_style_gen.h **** static inline lv_color_t lv_obj_get_style_img_recolor(const struct _lv_obj_t * obj, uint32_t part)
 350:Drivers/lvgl/lvgl/src/extra/widgets/span/../../../../src/core/lv_obj_style_gen.h **** {
 351:Drivers/lvgl/lvgl/src/extra/widgets/span/../../../../src/core/lv_obj_style_gen.h ****     lv_style_value_t v = lv_obj_get_style_prop(obj, part, LV_STYLE_IMG_RECOLOR);
 352:Drivers/lvgl/lvgl/src/extra/widgets/span/../../../../src/core/lv_obj_style_gen.h ****     return v.color;
 353:Drivers/lvgl/lvgl/src/extra/widgets/span/../../../../src/core/lv_obj_style_gen.h **** }
 354:Drivers/lvgl/lvgl/src/extra/widgets/span/../../../../src/core/lv_obj_style_gen.h **** 
 355:Drivers/lvgl/lvgl/src/extra/widgets/span/../../../../src/core/lv_obj_style_gen.h **** static inline lv_color_t lv_obj_get_style_img_recolor_filtered(const struct _lv_obj_t * obj, uint32
 356:Drivers/lvgl/lvgl/src/extra/widgets/span/../../../../src/core/lv_obj_style_gen.h **** {
 357:Drivers/lvgl/lvgl/src/extra/widgets/span/../../../../src/core/lv_obj_style_gen.h ****     lv_style_value_t v = _lv_obj_style_apply_color_filter(obj, part, lv_obj_get_style_prop(obj, par
 358:Drivers/lvgl/lvgl/src/extra/widgets/span/../../../../src/core/lv_obj_style_gen.h ****     return v.color;
 359:Drivers/lvgl/lvgl/src/extra/widgets/span/../../../../src/core/lv_obj_style_gen.h **** }
 360:Drivers/lvgl/lvgl/src/extra/widgets/span/../../../../src/core/lv_obj_style_gen.h **** 
 361:Drivers/lvgl/lvgl/src/extra/widgets/span/../../../../src/core/lv_obj_style_gen.h **** static inline lv_opa_t lv_obj_get_style_img_recolor_opa(const struct _lv_obj_t * obj, uint32_t part
 362:Drivers/lvgl/lvgl/src/extra/widgets/span/../../../../src/core/lv_obj_style_gen.h **** {
 363:Drivers/lvgl/lvgl/src/extra/widgets/span/../../../../src/core/lv_obj_style_gen.h ****     lv_style_value_t v = lv_obj_get_style_prop(obj, part, LV_STYLE_IMG_RECOLOR_OPA);
 364:Drivers/lvgl/lvgl/src/extra/widgets/span/../../../../src/core/lv_obj_style_gen.h ****     return (lv_opa_t)v.num;
 365:Drivers/lvgl/lvgl/src/extra/widgets/span/../../../../src/core/lv_obj_style_gen.h **** }
 366:Drivers/lvgl/lvgl/src/extra/widgets/span/../../../../src/core/lv_obj_style_gen.h **** 
 367:Drivers/lvgl/lvgl/src/extra/widgets/span/../../../../src/core/lv_obj_style_gen.h **** static inline lv_coord_t lv_obj_get_style_line_width(const struct _lv_obj_t * obj, uint32_t part)
 368:Drivers/lvgl/lvgl/src/extra/widgets/span/../../../../src/core/lv_obj_style_gen.h **** {
 369:Drivers/lvgl/lvgl/src/extra/widgets/span/../../../../src/core/lv_obj_style_gen.h ****     lv_style_value_t v = lv_obj_get_style_prop(obj, part, LV_STYLE_LINE_WIDTH);
 370:Drivers/lvgl/lvgl/src/extra/widgets/span/../../../../src/core/lv_obj_style_gen.h ****     return (lv_coord_t)v.num;
 371:Drivers/lvgl/lvgl/src/extra/widgets/span/../../../../src/core/lv_obj_style_gen.h **** }
 372:Drivers/lvgl/lvgl/src/extra/widgets/span/../../../../src/core/lv_obj_style_gen.h **** 
 373:Drivers/lvgl/lvgl/src/extra/widgets/span/../../../../src/core/lv_obj_style_gen.h **** static inline lv_coord_t lv_obj_get_style_line_dash_width(const struct _lv_obj_t * obj, uint32_t pa
 374:Drivers/lvgl/lvgl/src/extra/widgets/span/../../../../src/core/lv_obj_style_gen.h **** {
 375:Drivers/lvgl/lvgl/src/extra/widgets/span/../../../../src/core/lv_obj_style_gen.h ****     lv_style_value_t v = lv_obj_get_style_prop(obj, part, LV_STYLE_LINE_DASH_WIDTH);
 376:Drivers/lvgl/lvgl/src/extra/widgets/span/../../../../src/core/lv_obj_style_gen.h ****     return (lv_coord_t)v.num;
 377:Drivers/lvgl/lvgl/src/extra/widgets/span/../../../../src/core/lv_obj_style_gen.h **** }
 378:Drivers/lvgl/lvgl/src/extra/widgets/span/../../../../src/core/lv_obj_style_gen.h **** 
 379:Drivers/lvgl/lvgl/src/extra/widgets/span/../../../../src/core/lv_obj_style_gen.h **** static inline lv_coord_t lv_obj_get_style_line_dash_gap(const struct _lv_obj_t * obj, uint32_t part
 380:Drivers/lvgl/lvgl/src/extra/widgets/span/../../../../src/core/lv_obj_style_gen.h **** {
 381:Drivers/lvgl/lvgl/src/extra/widgets/span/../../../../src/core/lv_obj_style_gen.h ****     lv_style_value_t v = lv_obj_get_style_prop(obj, part, LV_STYLE_LINE_DASH_GAP);
 382:Drivers/lvgl/lvgl/src/extra/widgets/span/../../../../src/core/lv_obj_style_gen.h ****     return (lv_coord_t)v.num;
 383:Drivers/lvgl/lvgl/src/extra/widgets/span/../../../../src/core/lv_obj_style_gen.h **** }
 384:Drivers/lvgl/lvgl/src/extra/widgets/span/../../../../src/core/lv_obj_style_gen.h **** 
 385:Drivers/lvgl/lvgl/src/extra/widgets/span/../../../../src/core/lv_obj_style_gen.h **** static inline bool lv_obj_get_style_line_rounded(const struct _lv_obj_t * obj, uint32_t part)
 386:Drivers/lvgl/lvgl/src/extra/widgets/span/../../../../src/core/lv_obj_style_gen.h **** {
 387:Drivers/lvgl/lvgl/src/extra/widgets/span/../../../../src/core/lv_obj_style_gen.h ****     lv_style_value_t v = lv_obj_get_style_prop(obj, part, LV_STYLE_LINE_ROUNDED);
ARM GAS  /tmp/ccuuAFti.s 			page 25


 388:Drivers/lvgl/lvgl/src/extra/widgets/span/../../../../src/core/lv_obj_style_gen.h ****     return (bool)v.num;
 389:Drivers/lvgl/lvgl/src/extra/widgets/span/../../../../src/core/lv_obj_style_gen.h **** }
 390:Drivers/lvgl/lvgl/src/extra/widgets/span/../../../../src/core/lv_obj_style_gen.h **** 
 391:Drivers/lvgl/lvgl/src/extra/widgets/span/../../../../src/core/lv_obj_style_gen.h **** static inline lv_color_t lv_obj_get_style_line_color(const struct _lv_obj_t * obj, uint32_t part)
 392:Drivers/lvgl/lvgl/src/extra/widgets/span/../../../../src/core/lv_obj_style_gen.h **** {
 393:Drivers/lvgl/lvgl/src/extra/widgets/span/../../../../src/core/lv_obj_style_gen.h ****     lv_style_value_t v = lv_obj_get_style_prop(obj, part, LV_STYLE_LINE_COLOR);
 394:Drivers/lvgl/lvgl/src/extra/widgets/span/../../../../src/core/lv_obj_style_gen.h ****     return v.color;
 395:Drivers/lvgl/lvgl/src/extra/widgets/span/../../../../src/core/lv_obj_style_gen.h **** }
 396:Drivers/lvgl/lvgl/src/extra/widgets/span/../../../../src/core/lv_obj_style_gen.h **** 
 397:Drivers/lvgl/lvgl/src/extra/widgets/span/../../../../src/core/lv_obj_style_gen.h **** static inline lv_color_t lv_obj_get_style_line_color_filtered(const struct _lv_obj_t * obj, uint32_
 398:Drivers/lvgl/lvgl/src/extra/widgets/span/../../../../src/core/lv_obj_style_gen.h **** {
 399:Drivers/lvgl/lvgl/src/extra/widgets/span/../../../../src/core/lv_obj_style_gen.h ****     lv_style_value_t v = _lv_obj_style_apply_color_filter(obj, part, lv_obj_get_style_prop(obj, par
 400:Drivers/lvgl/lvgl/src/extra/widgets/span/../../../../src/core/lv_obj_style_gen.h ****     return v.color;
 401:Drivers/lvgl/lvgl/src/extra/widgets/span/../../../../src/core/lv_obj_style_gen.h **** }
 402:Drivers/lvgl/lvgl/src/extra/widgets/span/../../../../src/core/lv_obj_style_gen.h **** 
 403:Drivers/lvgl/lvgl/src/extra/widgets/span/../../../../src/core/lv_obj_style_gen.h **** static inline lv_opa_t lv_obj_get_style_line_opa(const struct _lv_obj_t * obj, uint32_t part)
 404:Drivers/lvgl/lvgl/src/extra/widgets/span/../../../../src/core/lv_obj_style_gen.h **** {
 405:Drivers/lvgl/lvgl/src/extra/widgets/span/../../../../src/core/lv_obj_style_gen.h ****     lv_style_value_t v = lv_obj_get_style_prop(obj, part, LV_STYLE_LINE_OPA);
 406:Drivers/lvgl/lvgl/src/extra/widgets/span/../../../../src/core/lv_obj_style_gen.h ****     return (lv_opa_t)v.num;
 407:Drivers/lvgl/lvgl/src/extra/widgets/span/../../../../src/core/lv_obj_style_gen.h **** }
 408:Drivers/lvgl/lvgl/src/extra/widgets/span/../../../../src/core/lv_obj_style_gen.h **** 
 409:Drivers/lvgl/lvgl/src/extra/widgets/span/../../../../src/core/lv_obj_style_gen.h **** static inline lv_coord_t lv_obj_get_style_arc_width(const struct _lv_obj_t * obj, uint32_t part)
 410:Drivers/lvgl/lvgl/src/extra/widgets/span/../../../../src/core/lv_obj_style_gen.h **** {
 411:Drivers/lvgl/lvgl/src/extra/widgets/span/../../../../src/core/lv_obj_style_gen.h ****     lv_style_value_t v = lv_obj_get_style_prop(obj, part, LV_STYLE_ARC_WIDTH);
 412:Drivers/lvgl/lvgl/src/extra/widgets/span/../../../../src/core/lv_obj_style_gen.h ****     return (lv_coord_t)v.num;
 413:Drivers/lvgl/lvgl/src/extra/widgets/span/../../../../src/core/lv_obj_style_gen.h **** }
 414:Drivers/lvgl/lvgl/src/extra/widgets/span/../../../../src/core/lv_obj_style_gen.h **** 
 415:Drivers/lvgl/lvgl/src/extra/widgets/span/../../../../src/core/lv_obj_style_gen.h **** static inline bool lv_obj_get_style_arc_rounded(const struct _lv_obj_t * obj, uint32_t part)
 416:Drivers/lvgl/lvgl/src/extra/widgets/span/../../../../src/core/lv_obj_style_gen.h **** {
 417:Drivers/lvgl/lvgl/src/extra/widgets/span/../../../../src/core/lv_obj_style_gen.h ****     lv_style_value_t v = lv_obj_get_style_prop(obj, part, LV_STYLE_ARC_ROUNDED);
 418:Drivers/lvgl/lvgl/src/extra/widgets/span/../../../../src/core/lv_obj_style_gen.h ****     return (bool)v.num;
 419:Drivers/lvgl/lvgl/src/extra/widgets/span/../../../../src/core/lv_obj_style_gen.h **** }
 420:Drivers/lvgl/lvgl/src/extra/widgets/span/../../../../src/core/lv_obj_style_gen.h **** 
 421:Drivers/lvgl/lvgl/src/extra/widgets/span/../../../../src/core/lv_obj_style_gen.h **** static inline lv_color_t lv_obj_get_style_arc_color(const struct _lv_obj_t * obj, uint32_t part)
 422:Drivers/lvgl/lvgl/src/extra/widgets/span/../../../../src/core/lv_obj_style_gen.h **** {
 423:Drivers/lvgl/lvgl/src/extra/widgets/span/../../../../src/core/lv_obj_style_gen.h ****     lv_style_value_t v = lv_obj_get_style_prop(obj, part, LV_STYLE_ARC_COLOR);
 424:Drivers/lvgl/lvgl/src/extra/widgets/span/../../../../src/core/lv_obj_style_gen.h ****     return v.color;
 425:Drivers/lvgl/lvgl/src/extra/widgets/span/../../../../src/core/lv_obj_style_gen.h **** }
 426:Drivers/lvgl/lvgl/src/extra/widgets/span/../../../../src/core/lv_obj_style_gen.h **** 
 427:Drivers/lvgl/lvgl/src/extra/widgets/span/../../../../src/core/lv_obj_style_gen.h **** static inline lv_color_t lv_obj_get_style_arc_color_filtered(const struct _lv_obj_t * obj, uint32_t
 428:Drivers/lvgl/lvgl/src/extra/widgets/span/../../../../src/core/lv_obj_style_gen.h **** {
 429:Drivers/lvgl/lvgl/src/extra/widgets/span/../../../../src/core/lv_obj_style_gen.h ****     lv_style_value_t v = _lv_obj_style_apply_color_filter(obj, part, lv_obj_get_style_prop(obj, par
 430:Drivers/lvgl/lvgl/src/extra/widgets/span/../../../../src/core/lv_obj_style_gen.h ****     return v.color;
 431:Drivers/lvgl/lvgl/src/extra/widgets/span/../../../../src/core/lv_obj_style_gen.h **** }
 432:Drivers/lvgl/lvgl/src/extra/widgets/span/../../../../src/core/lv_obj_style_gen.h **** 
 433:Drivers/lvgl/lvgl/src/extra/widgets/span/../../../../src/core/lv_obj_style_gen.h **** static inline lv_opa_t lv_obj_get_style_arc_opa(const struct _lv_obj_t * obj, uint32_t part)
 434:Drivers/lvgl/lvgl/src/extra/widgets/span/../../../../src/core/lv_obj_style_gen.h **** {
 435:Drivers/lvgl/lvgl/src/extra/widgets/span/../../../../src/core/lv_obj_style_gen.h ****     lv_style_value_t v = lv_obj_get_style_prop(obj, part, LV_STYLE_ARC_OPA);
 436:Drivers/lvgl/lvgl/src/extra/widgets/span/../../../../src/core/lv_obj_style_gen.h ****     return (lv_opa_t)v.num;
 437:Drivers/lvgl/lvgl/src/extra/widgets/span/../../../../src/core/lv_obj_style_gen.h **** }
 438:Drivers/lvgl/lvgl/src/extra/widgets/span/../../../../src/core/lv_obj_style_gen.h **** 
 439:Drivers/lvgl/lvgl/src/extra/widgets/span/../../../../src/core/lv_obj_style_gen.h **** static inline const void * lv_obj_get_style_arc_img_src(const struct _lv_obj_t * obj, uint32_t part
 440:Drivers/lvgl/lvgl/src/extra/widgets/span/../../../../src/core/lv_obj_style_gen.h **** {
 441:Drivers/lvgl/lvgl/src/extra/widgets/span/../../../../src/core/lv_obj_style_gen.h ****     lv_style_value_t v = lv_obj_get_style_prop(obj, part, LV_STYLE_ARC_IMG_SRC);
 442:Drivers/lvgl/lvgl/src/extra/widgets/span/../../../../src/core/lv_obj_style_gen.h ****     return (const void *)v.ptr;
 443:Drivers/lvgl/lvgl/src/extra/widgets/span/../../../../src/core/lv_obj_style_gen.h **** }
 444:Drivers/lvgl/lvgl/src/extra/widgets/span/../../../../src/core/lv_obj_style_gen.h **** 
ARM GAS  /tmp/ccuuAFti.s 			page 26


 445:Drivers/lvgl/lvgl/src/extra/widgets/span/../../../../src/core/lv_obj_style_gen.h **** static inline lv_color_t lv_obj_get_style_text_color(const struct _lv_obj_t * obj, uint32_t part)
 446:Drivers/lvgl/lvgl/src/extra/widgets/span/../../../../src/core/lv_obj_style_gen.h **** {
 447:Drivers/lvgl/lvgl/src/extra/widgets/span/../../../../src/core/lv_obj_style_gen.h ****     lv_style_value_t v = lv_obj_get_style_prop(obj, part, LV_STYLE_TEXT_COLOR);
 448:Drivers/lvgl/lvgl/src/extra/widgets/span/../../../../src/core/lv_obj_style_gen.h ****     return v.color;
 449:Drivers/lvgl/lvgl/src/extra/widgets/span/../../../../src/core/lv_obj_style_gen.h **** }
 450:Drivers/lvgl/lvgl/src/extra/widgets/span/../../../../src/core/lv_obj_style_gen.h **** 
 451:Drivers/lvgl/lvgl/src/extra/widgets/span/../../../../src/core/lv_obj_style_gen.h **** static inline lv_color_t lv_obj_get_style_text_color_filtered(const struct _lv_obj_t * obj, uint32_
 452:Drivers/lvgl/lvgl/src/extra/widgets/span/../../../../src/core/lv_obj_style_gen.h **** {
 453:Drivers/lvgl/lvgl/src/extra/widgets/span/../../../../src/core/lv_obj_style_gen.h ****     lv_style_value_t v = _lv_obj_style_apply_color_filter(obj, part, lv_obj_get_style_prop(obj, par
 454:Drivers/lvgl/lvgl/src/extra/widgets/span/../../../../src/core/lv_obj_style_gen.h ****     return v.color;
 455:Drivers/lvgl/lvgl/src/extra/widgets/span/../../../../src/core/lv_obj_style_gen.h **** }
 456:Drivers/lvgl/lvgl/src/extra/widgets/span/../../../../src/core/lv_obj_style_gen.h **** 
 457:Drivers/lvgl/lvgl/src/extra/widgets/span/../../../../src/core/lv_obj_style_gen.h **** static inline lv_opa_t lv_obj_get_style_text_opa(const struct _lv_obj_t * obj, uint32_t part)
 458:Drivers/lvgl/lvgl/src/extra/widgets/span/../../../../src/core/lv_obj_style_gen.h **** {
 459:Drivers/lvgl/lvgl/src/extra/widgets/span/../../../../src/core/lv_obj_style_gen.h ****     lv_style_value_t v = lv_obj_get_style_prop(obj, part, LV_STYLE_TEXT_OPA);
 460:Drivers/lvgl/lvgl/src/extra/widgets/span/../../../../src/core/lv_obj_style_gen.h ****     return (lv_opa_t)v.num;
 461:Drivers/lvgl/lvgl/src/extra/widgets/span/../../../../src/core/lv_obj_style_gen.h **** }
 462:Drivers/lvgl/lvgl/src/extra/widgets/span/../../../../src/core/lv_obj_style_gen.h **** 
 463:Drivers/lvgl/lvgl/src/extra/widgets/span/../../../../src/core/lv_obj_style_gen.h **** static inline const lv_font_t * lv_obj_get_style_text_font(const struct _lv_obj_t * obj, uint32_t p
 464:Drivers/lvgl/lvgl/src/extra/widgets/span/../../../../src/core/lv_obj_style_gen.h **** {
 465:Drivers/lvgl/lvgl/src/extra/widgets/span/../../../../src/core/lv_obj_style_gen.h ****     lv_style_value_t v = lv_obj_get_style_prop(obj, part, LV_STYLE_TEXT_FONT);
 466:Drivers/lvgl/lvgl/src/extra/widgets/span/../../../../src/core/lv_obj_style_gen.h ****     return (const lv_font_t *)v.ptr;
 467:Drivers/lvgl/lvgl/src/extra/widgets/span/../../../../src/core/lv_obj_style_gen.h **** }
 468:Drivers/lvgl/lvgl/src/extra/widgets/span/../../../../src/core/lv_obj_style_gen.h **** 
 469:Drivers/lvgl/lvgl/src/extra/widgets/span/../../../../src/core/lv_obj_style_gen.h **** static inline lv_coord_t lv_obj_get_style_text_letter_space(const struct _lv_obj_t * obj, uint32_t 
 470:Drivers/lvgl/lvgl/src/extra/widgets/span/../../../../src/core/lv_obj_style_gen.h **** {
 471:Drivers/lvgl/lvgl/src/extra/widgets/span/../../../../src/core/lv_obj_style_gen.h ****     lv_style_value_t v = lv_obj_get_style_prop(obj, part, LV_STYLE_TEXT_LETTER_SPACE);
 231              		.loc 2 471 0
 232 001e 5822     		movs	r2, #88
 233 0020 0021     		movs	r1, #0
 234 0022 2046     		mov	r0, r4
 235              	.LVL18:
 236 0024 FFF7FEFF 		bl	lv_obj_get_style_prop
 237              	.LVL19:
 472:Drivers/lvgl/lvgl/src/extra/widgets/span/../../../../src/core/lv_obj_style_gen.h ****     return (lv_coord_t)v.num;
 238              		.loc 2 472 0
 239 0028 00B2     		sxth	r0, r0
 240              	.LVL20:
 241              	.LBE82:
 242              	.LBE81:
 243 002a F6E7     		b	.L21
 244              		.cfi_endproc
 245              	.LFE233:
 247              		.section	.text.lv_span_get_style_text_color,"ax",%progbits
 248              		.align	1
 249              		.syntax unified
 250              		.thumb
 251              		.thumb_func
 252              		.fpu fpv5-d16
 254              	lv_span_get_style_text_color:
 255              	.LFB234:
 675:Drivers/lvgl/lvgl/src/extra/widgets/span/lv_span.c ****     lv_style_value_t value;
 256              		.loc 1 675 0
 257              		.cfi_startproc
 258              		@ args = 0, pretend = 0, frame = 8
 259              		@ frame_needed = 0, uses_anonymous_args = 0
 260              	.LVL21:
ARM GAS  /tmp/ccuuAFti.s 			page 27


 261 0000 10B5     		push	{r4, lr}
 262              	.LCFI7:
 263              		.cfi_def_cfa_offset 8
 264              		.cfi_offset 4, -8
 265              		.cfi_offset 14, -4
 266 0002 82B0     		sub	sp, sp, #8
 267              	.LCFI8:
 268              		.cfi_def_cfa_offset 16
 269 0004 0446     		mov	r4, r0
 677:Drivers/lvgl/lvgl/src/extra/widgets/span/lv_span.c ****     if(res != LV_RES_OK) {
 270              		.loc 1 677 0
 271 0006 01F10800 		add	r0, r1, #8
 272              	.LVL22:
 273 000a 01AA     		add	r2, sp, #4
 274 000c 5521     		movs	r1, #85
 275              	.LVL23:
 276 000e FFF7FEFF 		bl	lv_style_get_prop
 277              	.LVL24:
 678:Drivers/lvgl/lvgl/src/extra/widgets/span/lv_span.c ****         value.color = lv_obj_get_style_text_color(par, LV_PART_MAIN);
 278              		.loc 1 678 0
 279 0012 0128     		cmp	r0, #1
 280 0014 06D0     		beq	.L25
 281              	.LVL25:
 282              	.LBB83:
 283              	.LBB84:
 447:Drivers/lvgl/lvgl/src/extra/widgets/span/../../../../src/core/lv_obj_style_gen.h ****     return v.color;
 284              		.loc 2 447 0
 285 0016 5522     		movs	r2, #85
 286 0018 0021     		movs	r1, #0
 287 001a 2046     		mov	r0, r4
 288              	.LVL26:
 289 001c FFF7FEFF 		bl	lv_obj_get_style_prop
 290              	.LVL27:
 291              	.LBE84:
 292              	.LBE83:
 679:Drivers/lvgl/lvgl/src/extra/widgets/span/lv_span.c ****     }
 293              		.loc 1 679 0
 294 0020 ADF80400 		strh	r0, [sp, #4]	@ movhi
 295              	.L25:
 682:Drivers/lvgl/lvgl/src/extra/widgets/span/lv_span.c **** 
 296              		.loc 1 682 0
 297 0024 BDF80400 		ldrh	r0, [sp, #4]
 298 0028 02B0     		add	sp, sp, #8
 299              	.LCFI9:
 300              		.cfi_def_cfa_offset 8
 301              		@ sp needed
 302 002a 10BD     		pop	{r4, pc}
 303              		.cfi_endproc
 304              	.LFE234:
 306              		.section	.text.lv_span_get_style_text_opa,"ax",%progbits
 307              		.align	1
 308              		.syntax unified
 309              		.thumb
 310              		.thumb_func
 311              		.fpu fpv5-d16
 313              	lv_span_get_style_text_opa:
 314              	.LFB235:
ARM GAS  /tmp/ccuuAFti.s 			page 28


 685:Drivers/lvgl/lvgl/src/extra/widgets/span/lv_span.c ****     lv_opa_t opa;
 315              		.loc 1 685 0
 316              		.cfi_startproc
 317              		@ args = 0, pretend = 0, frame = 8
 318              		@ frame_needed = 0, uses_anonymous_args = 0
 319              	.LVL28:
 320 0000 10B5     		push	{r4, lr}
 321              	.LCFI10:
 322              		.cfi_def_cfa_offset 8
 323              		.cfi_offset 4, -8
 324              		.cfi_offset 14, -4
 325 0002 82B0     		sub	sp, sp, #8
 326              	.LCFI11:
 327              		.cfi_def_cfa_offset 16
 328 0004 0446     		mov	r4, r0
 688:Drivers/lvgl/lvgl/src/extra/widgets/span/lv_span.c ****     if(res != LV_RES_OK) {
 329              		.loc 1 688 0
 330 0006 01F10800 		add	r0, r1, #8
 331              	.LVL29:
 332 000a 01AA     		add	r2, sp, #4
 333 000c 5621     		movs	r1, #86
 334              	.LVL30:
 335 000e FFF7FEFF 		bl	lv_style_get_prop
 336              	.LVL31:
 689:Drivers/lvgl/lvgl/src/extra/widgets/span/lv_span.c ****         opa = (lv_opa_t)lv_obj_get_style_text_opa(par, LV_PART_MAIN);
 337              		.loc 1 689 0
 338 0012 0128     		cmp	r0, #1
 339 0014 03D1     		bne	.L31
 693:Drivers/lvgl/lvgl/src/extra/widgets/span/lv_span.c ****     }
 340              		.loc 1 693 0
 341 0016 9DF80400 		ldrb	r0, [sp, #4]	@ zero_extendqisi2
 342              	.LVL32:
 343              	.L29:
 696:Drivers/lvgl/lvgl/src/extra/widgets/span/lv_span.c **** 
 344              		.loc 1 696 0
 345 001a 02B0     		add	sp, sp, #8
 346              	.LCFI12:
 347              		.cfi_remember_state
 348              		.cfi_def_cfa_offset 8
 349              		@ sp needed
 350 001c 10BD     		pop	{r4, pc}
 351              	.LVL33:
 352              	.L31:
 353              	.LCFI13:
 354              		.cfi_restore_state
 355              	.LBB85:
 356              	.LBB86:
 459:Drivers/lvgl/lvgl/src/extra/widgets/span/../../../../src/core/lv_obj_style_gen.h ****     return (lv_opa_t)v.num;
 357              		.loc 2 459 0
 358 001e 5622     		movs	r2, #86
 359 0020 0021     		movs	r1, #0
 360 0022 2046     		mov	r0, r4
 361              	.LVL34:
 362 0024 FFF7FEFF 		bl	lv_obj_get_style_prop
 363              	.LVL35:
 460:Drivers/lvgl/lvgl/src/extra/widgets/span/../../../../src/core/lv_obj_style_gen.h **** }
 364              		.loc 2 460 0
ARM GAS  /tmp/ccuuAFti.s 			page 29


 365 0028 C0B2     		uxtb	r0, r0
 366              	.LVL36:
 367              	.LBE86:
 368              	.LBE85:
 369 002a F6E7     		b	.L29
 370              		.cfi_endproc
 371              	.LFE235:
 373              		.section	.text.lv_span_get_style_text_font,"ax",%progbits
 374              		.align	1
 375              		.syntax unified
 376              		.thumb
 377              		.thumb_func
 378              		.fpu fpv5-d16
 380              	lv_span_get_style_text_font:
 381              	.LFB232:
 647:Drivers/lvgl/lvgl/src/extra/widgets/span/lv_span.c ****     const lv_font_t * font;
 382              		.loc 1 647 0
 383              		.cfi_startproc
 384              		@ args = 0, pretend = 0, frame = 8
 385              		@ frame_needed = 0, uses_anonymous_args = 0
 386              	.LVL37:
 387 0000 10B5     		push	{r4, lr}
 388              	.LCFI14:
 389              		.cfi_def_cfa_offset 8
 390              		.cfi_offset 4, -8
 391              		.cfi_offset 14, -4
 392 0002 82B0     		sub	sp, sp, #8
 393              	.LCFI15:
 394              		.cfi_def_cfa_offset 16
 395 0004 0446     		mov	r4, r0
 650:Drivers/lvgl/lvgl/src/extra/widgets/span/lv_span.c ****     if(res != LV_RES_OK) {
 396              		.loc 1 650 0
 397 0006 01F10800 		add	r0, r1, #8
 398              	.LVL38:
 399 000a 01AA     		add	r2, sp, #4
 400 000c 5721     		movs	r1, #87
 401              	.LVL39:
 402 000e FFF7FEFF 		bl	lv_style_get_prop
 403              	.LVL40:
 651:Drivers/lvgl/lvgl/src/extra/widgets/span/lv_span.c ****         font = lv_obj_get_style_text_font(par, LV_PART_MAIN);
 404              		.loc 1 651 0
 405 0012 0128     		cmp	r0, #1
 406 0014 02D1     		bne	.L36
 655:Drivers/lvgl/lvgl/src/extra/widgets/span/lv_span.c ****     }
 407              		.loc 1 655 0
 408 0016 0198     		ldr	r0, [sp, #4]
 409              	.LVL41:
 410              	.L32:
 658:Drivers/lvgl/lvgl/src/extra/widgets/span/lv_span.c **** 
 411              		.loc 1 658 0
 412 0018 02B0     		add	sp, sp, #8
 413              	.LCFI16:
 414              		.cfi_remember_state
 415              		.cfi_def_cfa_offset 8
 416              		@ sp needed
 417 001a 10BD     		pop	{r4, pc}
 418              	.LVL42:
ARM GAS  /tmp/ccuuAFti.s 			page 30


 419              	.L36:
 420              	.LCFI17:
 421              		.cfi_restore_state
 422              	.LBB87:
 423              	.LBB88:
 465:Drivers/lvgl/lvgl/src/extra/widgets/span/../../../../src/core/lv_obj_style_gen.h ****     return (const lv_font_t *)v.ptr;
 424              		.loc 2 465 0
 425 001c 5722     		movs	r2, #87
 426 001e 0021     		movs	r1, #0
 427 0020 2046     		mov	r0, r4
 428              	.LVL43:
 429 0022 FFF7FEFF 		bl	lv_obj_get_style_prop
 430              	.LVL44:
 431              	.LBE88:
 432              	.LBE87:
 433 0026 F7E7     		b	.L32
 434              		.cfi_endproc
 435              	.LFE232:
 437              		.section	.text.lv_span_get_style_text_blend_mode,"ax",%progbits
 438              		.align	1
 439              		.syntax unified
 440              		.thumb
 441              		.thumb_func
 442              		.fpu fpv5-d16
 444              	lv_span_get_style_text_blend_mode:
 445              	.LFB236:
 699:Drivers/lvgl/lvgl/src/extra/widgets/span/lv_span.c ****     lv_blend_mode_t mode;
 446              		.loc 1 699 0
 447              		.cfi_startproc
 448              		@ args = 0, pretend = 0, frame = 8
 449              		@ frame_needed = 0, uses_anonymous_args = 0
 450              	.LVL45:
 451 0000 10B5     		push	{r4, lr}
 452              	.LCFI18:
 453              		.cfi_def_cfa_offset 8
 454              		.cfi_offset 4, -8
 455              		.cfi_offset 14, -4
 456 0002 82B0     		sub	sp, sp, #8
 457              	.LCFI19:
 458              		.cfi_def_cfa_offset 16
 459 0004 0446     		mov	r4, r0
 702:Drivers/lvgl/lvgl/src/extra/widgets/span/lv_span.c ****     if(res != LV_RES_OK) {
 460              		.loc 1 702 0
 461 0006 01F10800 		add	r0, r1, #8
 462              	.LVL46:
 463 000a 01AA     		add	r2, sp, #4
 464 000c 6721     		movs	r1, #103
 465              	.LVL47:
 466 000e FFF7FEFF 		bl	lv_style_get_prop
 467              	.LVL48:
 703:Drivers/lvgl/lvgl/src/extra/widgets/span/lv_span.c ****         mode = (lv_blend_mode_t)lv_obj_get_style_blend_mode(par, LV_PART_MAIN);
 468              		.loc 1 703 0
 469 0012 0128     		cmp	r0, #1
 470 0014 03D1     		bne	.L41
 707:Drivers/lvgl/lvgl/src/extra/widgets/span/lv_span.c ****     }
 471              		.loc 1 707 0
 472 0016 9DF80400 		ldrb	r0, [sp, #4]	@ zero_extendqisi2
ARM GAS  /tmp/ccuuAFti.s 			page 31


 473              	.LVL49:
 474              	.L39:
 710:Drivers/lvgl/lvgl/src/extra/widgets/span/lv_span.c **** 
 475              		.loc 1 710 0
 476 001a 02B0     		add	sp, sp, #8
 477              	.LCFI20:
 478              		.cfi_remember_state
 479              		.cfi_def_cfa_offset 8
 480              		@ sp needed
 481 001c 10BD     		pop	{r4, pc}
 482              	.LVL50:
 483              	.L41:
 484              	.LCFI21:
 485              		.cfi_restore_state
 486              	.LBB89:
 487              	.LBB90:
 473:Drivers/lvgl/lvgl/src/extra/widgets/span/../../../../src/core/lv_obj_style_gen.h **** }
 474:Drivers/lvgl/lvgl/src/extra/widgets/span/../../../../src/core/lv_obj_style_gen.h **** 
 475:Drivers/lvgl/lvgl/src/extra/widgets/span/../../../../src/core/lv_obj_style_gen.h **** static inline lv_coord_t lv_obj_get_style_text_line_space(const struct _lv_obj_t * obj, uint32_t pa
 476:Drivers/lvgl/lvgl/src/extra/widgets/span/../../../../src/core/lv_obj_style_gen.h **** {
 477:Drivers/lvgl/lvgl/src/extra/widgets/span/../../../../src/core/lv_obj_style_gen.h ****     lv_style_value_t v = lv_obj_get_style_prop(obj, part, LV_STYLE_TEXT_LINE_SPACE);
 478:Drivers/lvgl/lvgl/src/extra/widgets/span/../../../../src/core/lv_obj_style_gen.h ****     return (lv_coord_t)v.num;
 479:Drivers/lvgl/lvgl/src/extra/widgets/span/../../../../src/core/lv_obj_style_gen.h **** }
 480:Drivers/lvgl/lvgl/src/extra/widgets/span/../../../../src/core/lv_obj_style_gen.h **** 
 481:Drivers/lvgl/lvgl/src/extra/widgets/span/../../../../src/core/lv_obj_style_gen.h **** static inline lv_text_decor_t lv_obj_get_style_text_decor(const struct _lv_obj_t * obj, uint32_t pa
 482:Drivers/lvgl/lvgl/src/extra/widgets/span/../../../../src/core/lv_obj_style_gen.h **** {
 483:Drivers/lvgl/lvgl/src/extra/widgets/span/../../../../src/core/lv_obj_style_gen.h ****     lv_style_value_t v = lv_obj_get_style_prop(obj, part, LV_STYLE_TEXT_DECOR);
 484:Drivers/lvgl/lvgl/src/extra/widgets/span/../../../../src/core/lv_obj_style_gen.h ****     return (lv_text_decor_t)v.num;
 485:Drivers/lvgl/lvgl/src/extra/widgets/span/../../../../src/core/lv_obj_style_gen.h **** }
 486:Drivers/lvgl/lvgl/src/extra/widgets/span/../../../../src/core/lv_obj_style_gen.h **** 
 487:Drivers/lvgl/lvgl/src/extra/widgets/span/../../../../src/core/lv_obj_style_gen.h **** static inline lv_text_align_t lv_obj_get_style_text_align(const struct _lv_obj_t * obj, uint32_t pa
 488:Drivers/lvgl/lvgl/src/extra/widgets/span/../../../../src/core/lv_obj_style_gen.h **** {
 489:Drivers/lvgl/lvgl/src/extra/widgets/span/../../../../src/core/lv_obj_style_gen.h ****     lv_style_value_t v = lv_obj_get_style_prop(obj, part, LV_STYLE_TEXT_ALIGN);
 490:Drivers/lvgl/lvgl/src/extra/widgets/span/../../../../src/core/lv_obj_style_gen.h ****     return (lv_text_align_t)v.num;
 491:Drivers/lvgl/lvgl/src/extra/widgets/span/../../../../src/core/lv_obj_style_gen.h **** }
 492:Drivers/lvgl/lvgl/src/extra/widgets/span/../../../../src/core/lv_obj_style_gen.h **** 
 493:Drivers/lvgl/lvgl/src/extra/widgets/span/../../../../src/core/lv_obj_style_gen.h **** static inline lv_coord_t lv_obj_get_style_radius(const struct _lv_obj_t * obj, uint32_t part)
 494:Drivers/lvgl/lvgl/src/extra/widgets/span/../../../../src/core/lv_obj_style_gen.h **** {
 495:Drivers/lvgl/lvgl/src/extra/widgets/span/../../../../src/core/lv_obj_style_gen.h ****     lv_style_value_t v = lv_obj_get_style_prop(obj, part, LV_STYLE_RADIUS);
 496:Drivers/lvgl/lvgl/src/extra/widgets/span/../../../../src/core/lv_obj_style_gen.h ****     return (lv_coord_t)v.num;
 497:Drivers/lvgl/lvgl/src/extra/widgets/span/../../../../src/core/lv_obj_style_gen.h **** }
 498:Drivers/lvgl/lvgl/src/extra/widgets/span/../../../../src/core/lv_obj_style_gen.h **** 
 499:Drivers/lvgl/lvgl/src/extra/widgets/span/../../../../src/core/lv_obj_style_gen.h **** static inline bool lv_obj_get_style_clip_corner(const struct _lv_obj_t * obj, uint32_t part)
 500:Drivers/lvgl/lvgl/src/extra/widgets/span/../../../../src/core/lv_obj_style_gen.h **** {
 501:Drivers/lvgl/lvgl/src/extra/widgets/span/../../../../src/core/lv_obj_style_gen.h ****     lv_style_value_t v = lv_obj_get_style_prop(obj, part, LV_STYLE_CLIP_CORNER);
 502:Drivers/lvgl/lvgl/src/extra/widgets/span/../../../../src/core/lv_obj_style_gen.h ****     return (bool)v.num;
 503:Drivers/lvgl/lvgl/src/extra/widgets/span/../../../../src/core/lv_obj_style_gen.h **** }
 504:Drivers/lvgl/lvgl/src/extra/widgets/span/../../../../src/core/lv_obj_style_gen.h **** 
 505:Drivers/lvgl/lvgl/src/extra/widgets/span/../../../../src/core/lv_obj_style_gen.h **** static inline lv_opa_t lv_obj_get_style_opa(const struct _lv_obj_t * obj, uint32_t part)
 506:Drivers/lvgl/lvgl/src/extra/widgets/span/../../../../src/core/lv_obj_style_gen.h **** {
 507:Drivers/lvgl/lvgl/src/extra/widgets/span/../../../../src/core/lv_obj_style_gen.h ****     lv_style_value_t v = lv_obj_get_style_prop(obj, part, LV_STYLE_OPA);
 508:Drivers/lvgl/lvgl/src/extra/widgets/span/../../../../src/core/lv_obj_style_gen.h ****     return (lv_opa_t)v.num;
 509:Drivers/lvgl/lvgl/src/extra/widgets/span/../../../../src/core/lv_obj_style_gen.h **** }
 510:Drivers/lvgl/lvgl/src/extra/widgets/span/../../../../src/core/lv_obj_style_gen.h **** 
 511:Drivers/lvgl/lvgl/src/extra/widgets/span/../../../../src/core/lv_obj_style_gen.h **** static inline const lv_color_filter_dsc_t * lv_obj_get_style_color_filter_dsc(const struct _lv_obj_
 512:Drivers/lvgl/lvgl/src/extra/widgets/span/../../../../src/core/lv_obj_style_gen.h **** {
 513:Drivers/lvgl/lvgl/src/extra/widgets/span/../../../../src/core/lv_obj_style_gen.h ****     lv_style_value_t v = lv_obj_get_style_prop(obj, part, LV_STYLE_COLOR_FILTER_DSC);
ARM GAS  /tmp/ccuuAFti.s 			page 32


 514:Drivers/lvgl/lvgl/src/extra/widgets/span/../../../../src/core/lv_obj_style_gen.h ****     return (const lv_color_filter_dsc_t *)v.ptr;
 515:Drivers/lvgl/lvgl/src/extra/widgets/span/../../../../src/core/lv_obj_style_gen.h **** }
 516:Drivers/lvgl/lvgl/src/extra/widgets/span/../../../../src/core/lv_obj_style_gen.h **** 
 517:Drivers/lvgl/lvgl/src/extra/widgets/span/../../../../src/core/lv_obj_style_gen.h **** static inline lv_opa_t lv_obj_get_style_color_filter_opa(const struct _lv_obj_t * obj, uint32_t par
 518:Drivers/lvgl/lvgl/src/extra/widgets/span/../../../../src/core/lv_obj_style_gen.h **** {
 519:Drivers/lvgl/lvgl/src/extra/widgets/span/../../../../src/core/lv_obj_style_gen.h ****     lv_style_value_t v = lv_obj_get_style_prop(obj, part, LV_STYLE_COLOR_FILTER_OPA);
 520:Drivers/lvgl/lvgl/src/extra/widgets/span/../../../../src/core/lv_obj_style_gen.h ****     return (lv_opa_t)v.num;
 521:Drivers/lvgl/lvgl/src/extra/widgets/span/../../../../src/core/lv_obj_style_gen.h **** }
 522:Drivers/lvgl/lvgl/src/extra/widgets/span/../../../../src/core/lv_obj_style_gen.h **** 
 523:Drivers/lvgl/lvgl/src/extra/widgets/span/../../../../src/core/lv_obj_style_gen.h **** static inline const lv_anim_t * lv_obj_get_style_anim(const struct _lv_obj_t * obj, uint32_t part)
 524:Drivers/lvgl/lvgl/src/extra/widgets/span/../../../../src/core/lv_obj_style_gen.h **** {
 525:Drivers/lvgl/lvgl/src/extra/widgets/span/../../../../src/core/lv_obj_style_gen.h ****     lv_style_value_t v = lv_obj_get_style_prop(obj, part, LV_STYLE_ANIM);
 526:Drivers/lvgl/lvgl/src/extra/widgets/span/../../../../src/core/lv_obj_style_gen.h ****     return (const lv_anim_t *)v.ptr;
 527:Drivers/lvgl/lvgl/src/extra/widgets/span/../../../../src/core/lv_obj_style_gen.h **** }
 528:Drivers/lvgl/lvgl/src/extra/widgets/span/../../../../src/core/lv_obj_style_gen.h **** 
 529:Drivers/lvgl/lvgl/src/extra/widgets/span/../../../../src/core/lv_obj_style_gen.h **** static inline uint32_t lv_obj_get_style_anim_time(const struct _lv_obj_t * obj, uint32_t part)
 530:Drivers/lvgl/lvgl/src/extra/widgets/span/../../../../src/core/lv_obj_style_gen.h **** {
 531:Drivers/lvgl/lvgl/src/extra/widgets/span/../../../../src/core/lv_obj_style_gen.h ****     lv_style_value_t v = lv_obj_get_style_prop(obj, part, LV_STYLE_ANIM_TIME);
 532:Drivers/lvgl/lvgl/src/extra/widgets/span/../../../../src/core/lv_obj_style_gen.h ****     return (uint32_t)v.num;
 533:Drivers/lvgl/lvgl/src/extra/widgets/span/../../../../src/core/lv_obj_style_gen.h **** }
 534:Drivers/lvgl/lvgl/src/extra/widgets/span/../../../../src/core/lv_obj_style_gen.h **** 
 535:Drivers/lvgl/lvgl/src/extra/widgets/span/../../../../src/core/lv_obj_style_gen.h **** static inline uint32_t lv_obj_get_style_anim_speed(const struct _lv_obj_t * obj, uint32_t part)
 536:Drivers/lvgl/lvgl/src/extra/widgets/span/../../../../src/core/lv_obj_style_gen.h **** {
 537:Drivers/lvgl/lvgl/src/extra/widgets/span/../../../../src/core/lv_obj_style_gen.h ****     lv_style_value_t v = lv_obj_get_style_prop(obj, part, LV_STYLE_ANIM_SPEED);
 538:Drivers/lvgl/lvgl/src/extra/widgets/span/../../../../src/core/lv_obj_style_gen.h ****     return (uint32_t)v.num;
 539:Drivers/lvgl/lvgl/src/extra/widgets/span/../../../../src/core/lv_obj_style_gen.h **** }
 540:Drivers/lvgl/lvgl/src/extra/widgets/span/../../../../src/core/lv_obj_style_gen.h **** 
 541:Drivers/lvgl/lvgl/src/extra/widgets/span/../../../../src/core/lv_obj_style_gen.h **** static inline const lv_style_transition_dsc_t * lv_obj_get_style_transition(const struct _lv_obj_t 
 542:Drivers/lvgl/lvgl/src/extra/widgets/span/../../../../src/core/lv_obj_style_gen.h **** {
 543:Drivers/lvgl/lvgl/src/extra/widgets/span/../../../../src/core/lv_obj_style_gen.h ****     lv_style_value_t v = lv_obj_get_style_prop(obj, part, LV_STYLE_TRANSITION);
 544:Drivers/lvgl/lvgl/src/extra/widgets/span/../../../../src/core/lv_obj_style_gen.h ****     return (const lv_style_transition_dsc_t *)v.ptr;
 545:Drivers/lvgl/lvgl/src/extra/widgets/span/../../../../src/core/lv_obj_style_gen.h **** }
 546:Drivers/lvgl/lvgl/src/extra/widgets/span/../../../../src/core/lv_obj_style_gen.h **** 
 547:Drivers/lvgl/lvgl/src/extra/widgets/span/../../../../src/core/lv_obj_style_gen.h **** static inline lv_blend_mode_t lv_obj_get_style_blend_mode(const struct _lv_obj_t * obj, uint32_t pa
 548:Drivers/lvgl/lvgl/src/extra/widgets/span/../../../../src/core/lv_obj_style_gen.h **** {
 549:Drivers/lvgl/lvgl/src/extra/widgets/span/../../../../src/core/lv_obj_style_gen.h ****     lv_style_value_t v = lv_obj_get_style_prop(obj, part, LV_STYLE_BLEND_MODE);
 488              		.loc 2 549 0
 489 001e 6722     		movs	r2, #103
 490 0020 0021     		movs	r1, #0
 491 0022 2046     		mov	r0, r4
 492              	.LVL51:
 493 0024 FFF7FEFF 		bl	lv_obj_get_style_prop
 494              	.LVL52:
 550:Drivers/lvgl/lvgl/src/extra/widgets/span/../../../../src/core/lv_obj_style_gen.h ****     return (lv_blend_mode_t)v.num;
 495              		.loc 2 550 0
 496 0028 C0B2     		uxtb	r0, r0
 497              	.LVL53:
 498              	.LBE90:
 499              	.LBE89:
 500 002a F6E7     		b	.L39
 501              		.cfi_endproc
 502              	.LFE236:
 504              		.section	.text.lv_span_get_style_text_decor,"ax",%progbits
 505              		.align	1
 506              		.syntax unified
 507              		.thumb
 508              		.thumb_func
ARM GAS  /tmp/ccuuAFti.s 			page 33


 509              		.fpu fpv5-d16
 511              	lv_span_get_style_text_decor:
 512              	.LFB237:
 713:Drivers/lvgl/lvgl/src/extra/widgets/span/lv_span.c ****     int32_t decor;
 513              		.loc 1 713 0
 514              		.cfi_startproc
 515              		@ args = 0, pretend = 0, frame = 8
 516              		@ frame_needed = 0, uses_anonymous_args = 0
 517              	.LVL54:
 518 0000 10B5     		push	{r4, lr}
 519              	.LCFI22:
 520              		.cfi_def_cfa_offset 8
 521              		.cfi_offset 4, -8
 522              		.cfi_offset 14, -4
 523 0002 82B0     		sub	sp, sp, #8
 524              	.LCFI23:
 525              		.cfi_def_cfa_offset 16
 526 0004 0446     		mov	r4, r0
 716:Drivers/lvgl/lvgl/src/extra/widgets/span/lv_span.c ****     if(res != LV_RES_OK) {
 527              		.loc 1 716 0
 528 0006 01F10800 		add	r0, r1, #8
 529              	.LVL55:
 530 000a 01AA     		add	r2, sp, #4
 531 000c 5A21     		movs	r1, #90
 532              	.LVL56:
 533 000e FFF7FEFF 		bl	lv_style_get_prop
 534              	.LVL57:
 717:Drivers/lvgl/lvgl/src/extra/widgets/span/lv_span.c ****         decor = (lv_text_decor_t)lv_obj_get_style_text_decor(par, LV_PART_MAIN);;
 535              		.loc 1 717 0
 536 0012 0128     		cmp	r0, #1
 537 0014 02D1     		bne	.L46
 721:Drivers/lvgl/lvgl/src/extra/widgets/span/lv_span.c ****     }
 538              		.loc 1 721 0
 539 0016 0198     		ldr	r0, [sp, #4]
 540              	.LVL58:
 541              	.L42:
 724:Drivers/lvgl/lvgl/src/extra/widgets/span/lv_span.c **** 
 542              		.loc 1 724 0
 543 0018 02B0     		add	sp, sp, #8
 544              	.LCFI24:
 545              		.cfi_remember_state
 546              		.cfi_def_cfa_offset 8
 547              		@ sp needed
 548 001a 10BD     		pop	{r4, pc}
 549              	.LVL59:
 550              	.L46:
 551              	.LCFI25:
 552              		.cfi_restore_state
 553              	.LBB91:
 554              	.LBB92:
 483:Drivers/lvgl/lvgl/src/extra/widgets/span/../../../../src/core/lv_obj_style_gen.h ****     return (lv_text_decor_t)v.num;
 555              		.loc 2 483 0
 556 001c 5A22     		movs	r2, #90
 557 001e 0021     		movs	r1, #0
 558 0020 2046     		mov	r0, r4
 559              	.LVL60:
 560 0022 FFF7FEFF 		bl	lv_obj_get_style_prop
ARM GAS  /tmp/ccuuAFti.s 			page 34


 561              	.LVL61:
 562 0026 C0B2     		uxtb	r0, r0
 563              	.LVL62:
 564              	.LBE92:
 565              	.LBE91:
 566 0028 F6E7     		b	.L42
 567              		.cfi_endproc
 568              	.LFE237:
 570              		.section	.text.lv_txt_get_snippet,"ax",%progbits
 571              		.align	1
 572              		.syntax unified
 573              		.thumb
 574              		.thumb_func
 575              		.fpu fpv5-d16
 577              	lv_txt_get_snippet:
 578              	.LFB227:
 602:Drivers/lvgl/lvgl/src/extra/widgets/span/lv_span.c ****     if(txt == NULL || txt[0] == '\0') {
 579              		.loc 1 602 0
 580              		.cfi_startproc
 581              		@ args = 12, pretend = 0, frame = 0
 582              		@ frame_needed = 0, uses_anonymous_args = 0
 583              	.LVL63:
 584 0000 70B5     		push	{r4, r5, r6, lr}
 585              	.LCFI26:
 586              		.cfi_def_cfa_offset 16
 587              		.cfi_offset 4, -16
 588              		.cfi_offset 5, -12
 589              		.cfi_offset 6, -8
 590              		.cfi_offset 14, -4
 591 0002 82B0     		sub	sp, sp, #8
 592              	.LCFI27:
 593              		.cfi_def_cfa_offset 24
 594 0004 079D     		ldr	r5, [sp, #28]
 603:Drivers/lvgl/lvgl/src/extra/widgets/span/lv_span.c ****         *end_ofs = 0;
 595              		.loc 1 603 0
 596 0006 10B1     		cbz	r0, .L48
 597 0008 0446     		mov	r4, r0
 603:Drivers/lvgl/lvgl/src/extra/widgets/span/lv_span.c ****         *end_ofs = 0;
 598              		.loc 1 603 0 is_stmt 0 discriminator 1
 599 000a 0078     		ldrb	r0, [r0]	@ zero_extendqisi2
 600              	.LVL64:
 601 000c 28B9     		cbnz	r0, .L49
 602              	.LVL65:
 603              	.L48:
 604:Drivers/lvgl/lvgl/src/extra/widgets/span/lv_span.c ****         *use_width = 0;
 604              		.loc 1 604 0 is_stmt 1
 605 000e 0020     		movs	r0, #0
 606 0010 089B     		ldr	r3, [sp, #32]
 607              	.LVL66:
 608 0012 1860     		str	r0, [r3]
 605:Drivers/lvgl/lvgl/src/extra/widgets/span/lv_span.c ****         return false;
 609              		.loc 1 605 0
 610 0014 2880     		strh	r0, [r5]	@ movhi
 611              	.LVL67:
 612              	.L50:
 618:Drivers/lvgl/lvgl/src/extra/widgets/span/lv_span.c **** 
 613              		.loc 1 618 0
ARM GAS  /tmp/ccuuAFti.s 			page 35


 614 0016 02B0     		add	sp, sp, #8
 615              	.LCFI28:
 616              		.cfi_remember_state
 617              		.cfi_def_cfa_offset 16
 618              		@ sp needed
 619 0018 70BD     		pop	{r4, r5, r6, pc}
 620              	.LVL68:
 621              	.L49:
 622              	.LCFI29:
 623              		.cfi_restore_state
 624 001a 1E46     		mov	r6, r3
 609:Drivers/lvgl/lvgl/src/extra/widgets/span/lv_span.c ****     *end_ofs = ofs;
 625              		.loc 1 609 0
 626 001c 9DF81830 		ldrb	r3, [sp, #24]	@ zero_extendqisi2
 627              	.LVL69:
 628 0020 0193     		str	r3, [sp, #4]
 629 0022 0095     		str	r5, [sp]
 630 0024 3346     		mov	r3, r6
 631 0026 2046     		mov	r0, r4
 632 0028 FFF7FEFF 		bl	_lv_txt_get_next_line
 633              	.LVL70:
 610:Drivers/lvgl/lvgl/src/extra/widgets/span/lv_span.c **** 
 634              		.loc 1 610 0
 635 002c 089B     		ldr	r3, [sp, #32]
 636 002e 1860     		str	r0, [r3]
 612:Drivers/lvgl/lvgl/src/extra/widgets/span/lv_span.c ****         return false;
 637              		.loc 1 612 0
 638 0030 235C     		ldrb	r3, [r4, r0]	@ zero_extendqisi2
 639 0032 2BB9     		cbnz	r3, .L51
 612:Drivers/lvgl/lvgl/src/extra/widgets/span/lv_span.c ****         return false;
 640              		.loc 1 612 0 is_stmt 0 discriminator 1
 641 0034 B5F90030 		ldrsh	r3, [r5]
 642 0038 B342     		cmp	r3, r6
 643 003a 03DB     		blt	.L52
 616:Drivers/lvgl/lvgl/src/extra/widgets/span/lv_span.c ****     }
 644              		.loc 1 616 0 is_stmt 1
 645 003c 0120     		movs	r0, #1
 646              	.LVL71:
 647 003e EAE7     		b	.L50
 648              	.LVL72:
 649              	.L51:
 650 0040 0120     		movs	r0, #1
 651              	.LVL73:
 652 0042 E8E7     		b	.L50
 653              	.LVL74:
 654              	.L52:
 613:Drivers/lvgl/lvgl/src/extra/widgets/span/lv_span.c ****     }
 655              		.loc 1 613 0
 656 0044 0020     		movs	r0, #0
 657              	.LVL75:
 658 0046 E6E7     		b	.L50
 659              		.cfi_endproc
 660              	.LFE227:
 662              		.section	.text.lv_snippet_push,"ax",%progbits
 663              		.align	1
 664              		.syntax unified
 665              		.thumb
ARM GAS  /tmp/ccuuAFti.s 			page 36


 666              		.thumb_func
 667              		.fpu fpv5-d16
 669              	lv_snippet_push:
 670              	.LFB228:
 621:Drivers/lvgl/lvgl/src/extra/widgets/span/lv_span.c ****     if(snippet_stack.index < LV_SPAN_SNIPPET_STACK_SIZE) {
 671              		.loc 1 621 0
 672              		.cfi_startproc
 673              		@ args = 0, pretend = 0, frame = 0
 674              		@ frame_needed = 0, uses_anonymous_args = 0
 675              		@ link register save eliminated.
 676              	.LVL76:
 622:Drivers/lvgl/lvgl/src/extra/widgets/span/lv_span.c ****         memcpy(&snippet_stack.stack[snippet_stack.index], item, sizeof(lv_snippet_t));
 677              		.loc 1 622 0
 678 0000 0E4B     		ldr	r3, .L61
 679 0002 B3F80035 		ldrh	r3, [r3, #1280]
 680 0006 3F2B     		cmp	r3, #63
 681 0008 00D9     		bls	.L60
 682 000a 7047     		bx	lr
 683              	.L60:
 621:Drivers/lvgl/lvgl/src/extra/widgets/span/lv_span.c ****     if(snippet_stack.index < LV_SPAN_SNIPPET_STACK_SIZE) {
 684              		.loc 1 621 0
 685 000c F0B4     		push	{r4, r5, r6, r7}
 686              	.LCFI30:
 687              		.cfi_def_cfa_offset 16
 688              		.cfi_offset 4, -16
 689              		.cfi_offset 5, -12
 690              		.cfi_offset 6, -8
 691              		.cfi_offset 7, -4
 623:Drivers/lvgl/lvgl/src/extra/widgets/span/lv_span.c ****         snippet_stack.index++;
 692              		.loc 1 623 0
 693 000e 0B4A     		ldr	r2, .L61
 694 0010 03EB8303 		add	r3, r3, r3, lsl #2
 695 0014 9C00     		lsls	r4, r3, #2
 696 0016 1319     		adds	r3, r2, r4
 697 0018 0168     		ldr	r1, [r0]	@ unaligned
 698 001a 4768     		ldr	r7, [r0, #4]	@ unaligned
 699 001c 8668     		ldr	r6, [r0, #8]	@ unaligned
 700 001e C568     		ldr	r5, [r0, #12]	@ unaligned
 701 0020 1151     		str	r1, [r2, r4]	@ unaligned
 702 0022 5F60     		str	r7, [r3, #4]	@ unaligned
 703 0024 9E60     		str	r6, [r3, #8]	@ unaligned
 704 0026 DD60     		str	r5, [r3, #12]	@ unaligned
 705 0028 0169     		ldr	r1, [r0, #16]	@ unaligned
 706 002a 1961     		str	r1, [r3, #16]	@ unaligned
 624:Drivers/lvgl/lvgl/src/extra/widgets/span/lv_span.c ****     }
 707              		.loc 1 624 0
 708 002c B2F80035 		ldrh	r3, [r2, #1280]
 709 0030 0133     		adds	r3, r3, #1
 710 0032 A2F80035 		strh	r3, [r2, #1280]	@ movhi
 629:Drivers/lvgl/lvgl/src/extra/widgets/span/lv_span.c **** 
 711              		.loc 1 629 0
 712 0036 F0BC     		pop	{r4, r5, r6, r7}
 713              	.LCFI31:
 714              		.cfi_restore 7
 715              		.cfi_restore 6
 716              		.cfi_restore 5
 717              		.cfi_restore 4
ARM GAS  /tmp/ccuuAFti.s 			page 37


 718              		.cfi_def_cfa_offset 0
 719 0038 7047     		bx	lr
 720              	.L62:
 721 003a 00BF     		.align	2
 722              	.L61:
 723 003c 00000000 		.word	.LANCHOR0
 724              		.cfi_endproc
 725              	.LFE228:
 727              		.section	.text.lv_draw_span,"ax",%progbits
 728              		.align	1
 729              		.syntax unified
 730              		.thumb
 731              		.thumb_func
 732              		.fpu fpv5-d16
 734              	lv_draw_span:
 735              	.LFB240:
 750:Drivers/lvgl/lvgl/src/extra/widgets/span/lv_span.c **** 
 751:Drivers/lvgl/lvgl/src/extra/widgets/span/lv_span.c **** /**
 752:Drivers/lvgl/lvgl/src/extra/widgets/span/lv_span.c ****  * draw span group
 753:Drivers/lvgl/lvgl/src/extra/widgets/span/lv_span.c ****  * @param spans obj handle
 754:Drivers/lvgl/lvgl/src/extra/widgets/span/lv_span.c ****  * @param coords coordinates of the label
 755:Drivers/lvgl/lvgl/src/extra/widgets/span/lv_span.c ****  * @param mask the label will be drawn only in this area
 756:Drivers/lvgl/lvgl/src/extra/widgets/span/lv_span.c ****  */
 757:Drivers/lvgl/lvgl/src/extra/widgets/span/lv_span.c **** static void lv_draw_span(lv_obj_t * obj, lv_draw_ctx_t * draw_ctx)
 758:Drivers/lvgl/lvgl/src/extra/widgets/span/lv_span.c **** {
 736              		.loc 1 758 0
 737              		.cfi_startproc
 738              		@ args = 0, pretend = 0, frame = 200
 739              		@ frame_needed = 0, uses_anonymous_args = 0
 740              	.LVL77:
 741 0000 2DE9F04F 		push	{r4, r5, r6, r7, r8, r9, r10, fp, lr}
 742              	.LCFI32:
 743              		.cfi_def_cfa_offset 36
 744              		.cfi_offset 4, -36
 745              		.cfi_offset 5, -32
 746              		.cfi_offset 6, -28
 747              		.cfi_offset 7, -24
 748              		.cfi_offset 8, -20
 749              		.cfi_offset 9, -16
 750              		.cfi_offset 10, -12
 751              		.cfi_offset 11, -8
 752              		.cfi_offset 14, -4
 753 0004 B7B0     		sub	sp, sp, #220
 754              	.LCFI33:
 755              		.cfi_def_cfa_offset 256
 756 0006 0446     		mov	r4, r0
 757 0008 0890     		str	r0, [sp, #32]
 758 000a 0D46     		mov	r5, r1
 759 000c 0691     		str	r1, [sp, #24]
 759:Drivers/lvgl/lvgl/src/extra/widgets/span/lv_span.c **** 
 760:Drivers/lvgl/lvgl/src/extra/widgets/span/lv_span.c ****     lv_area_t coords;
 761:Drivers/lvgl/lvgl/src/extra/widgets/span/lv_span.c ****     lv_obj_get_content_coords(obj, &coords);
 760              		.loc 1 761 0
 761 000e 34A9     		add	r1, sp, #208
 762              	.LVL78:
 763 0010 FFF7FEFF 		bl	lv_obj_get_content_coords
 764              	.LVL79:
ARM GAS  /tmp/ccuuAFti.s 			page 38


 762:Drivers/lvgl/lvgl/src/extra/widgets/span/lv_span.c **** 
 763:Drivers/lvgl/lvgl/src/extra/widgets/span/lv_span.c ****     lv_spangroup_t * spans = (lv_spangroup_t *)obj;
 764:Drivers/lvgl/lvgl/src/extra/widgets/span/lv_span.c **** 
 765:Drivers/lvgl/lvgl/src/extra/widgets/span/lv_span.c ****     /* return if not span */
 766:Drivers/lvgl/lvgl/src/extra/widgets/span/lv_span.c ****     if(_lv_ll_get_head(&spans->child_ll) == NULL) {
 765              		.loc 1 766 0
 766 0014 2346     		mov	r3, r4
 767 0016 3033     		adds	r3, r3, #48
 768 0018 0A93     		str	r3, [sp, #40]
 769 001a 1846     		mov	r0, r3
 770 001c FFF7FEFF 		bl	_lv_ll_get_head
 771              	.LVL80:
 772 0020 30B1     		cbz	r0, .L63
 767:Drivers/lvgl/lvgl/src/extra/widgets/span/lv_span.c ****         return;
 768:Drivers/lvgl/lvgl/src/extra/widgets/span/lv_span.c ****     }
 769:Drivers/lvgl/lvgl/src/extra/widgets/span/lv_span.c **** 
 770:Drivers/lvgl/lvgl/src/extra/widgets/span/lv_span.c ****     /* return if no draw area */
 771:Drivers/lvgl/lvgl/src/extra/widgets/span/lv_span.c ****     lv_area_t clip_area;
 772:Drivers/lvgl/lvgl/src/extra/widgets/span/lv_span.c ****     if(!_lv_area_intersect(&clip_area, &coords, draw_ctx->clip_area))  return;
 773              		.loc 1 772 0
 774 0022 AA68     		ldr	r2, [r5, #8]
 775 0024 34A9     		add	r1, sp, #208
 776 0026 32A8     		add	r0, sp, #200
 777 0028 FFF7FEFF 		bl	_lv_area_intersect
 778              	.LVL81:
 779 002c 1790     		str	r0, [sp, #92]
 780 002e 10B9     		cbnz	r0, .L127
 781              	.LVL82:
 782              	.L63:
 773:Drivers/lvgl/lvgl/src/extra/widgets/span/lv_span.c ****     const lv_area_t * clip_area_ori = draw_ctx->clip_area;
 774:Drivers/lvgl/lvgl/src/extra/widgets/span/lv_span.c ****     draw_ctx->clip_area = &clip_area;
 775:Drivers/lvgl/lvgl/src/extra/widgets/span/lv_span.c **** 
 776:Drivers/lvgl/lvgl/src/extra/widgets/span/lv_span.c ****     /* init draw variable */
 777:Drivers/lvgl/lvgl/src/extra/widgets/span/lv_span.c ****     lv_text_flag_t txt_flag = LV_TEXT_FLAG_NONE;
 778:Drivers/lvgl/lvgl/src/extra/widgets/span/lv_span.c ****     lv_coord_t line_space = lv_obj_get_style_text_line_space(obj, LV_PART_MAIN);;
 779:Drivers/lvgl/lvgl/src/extra/widgets/span/lv_span.c ****     lv_coord_t max_width = lv_area_get_width(&coords);
 780:Drivers/lvgl/lvgl/src/extra/widgets/span/lv_span.c ****     lv_coord_t indent = convert_indent_pct(obj, max_width);
 781:Drivers/lvgl/lvgl/src/extra/widgets/span/lv_span.c ****     lv_coord_t max_w  = max_width - indent; /* first line need minus indent */
 782:Drivers/lvgl/lvgl/src/extra/widgets/span/lv_span.c ****     lv_opa_t obj_opa = lv_obj_get_style_opa(obj, LV_PART_MAIN);
 783:Drivers/lvgl/lvgl/src/extra/widgets/span/lv_span.c **** 
 784:Drivers/lvgl/lvgl/src/extra/widgets/span/lv_span.c ****     /* coords of draw span-txt */
 785:Drivers/lvgl/lvgl/src/extra/widgets/span/lv_span.c ****     lv_point_t txt_pos;
 786:Drivers/lvgl/lvgl/src/extra/widgets/span/lv_span.c ****     txt_pos.y = coords.y1;
 787:Drivers/lvgl/lvgl/src/extra/widgets/span/lv_span.c ****     txt_pos.x = coords.x1 + indent; /* first line need add indent */
 788:Drivers/lvgl/lvgl/src/extra/widgets/span/lv_span.c **** 
 789:Drivers/lvgl/lvgl/src/extra/widgets/span/lv_span.c ****     lv_span_t * cur_span = _lv_ll_get_head(&spans->child_ll);
 790:Drivers/lvgl/lvgl/src/extra/widgets/span/lv_span.c ****     const char * cur_txt = cur_span->txt;
 791:Drivers/lvgl/lvgl/src/extra/widgets/span/lv_span.c ****     span_text_check(&cur_txt);
 792:Drivers/lvgl/lvgl/src/extra/widgets/span/lv_span.c ****     uint32_t cur_txt_ofs = 0;
 793:Drivers/lvgl/lvgl/src/extra/widgets/span/lv_span.c ****     lv_snippet_t snippet;   /* use to save cur_span info and push it to stack */
 794:Drivers/lvgl/lvgl/src/extra/widgets/span/lv_span.c ****     lv_memset_00(&snippet, sizeof(snippet));
 795:Drivers/lvgl/lvgl/src/extra/widgets/span/lv_span.c **** 
 796:Drivers/lvgl/lvgl/src/extra/widgets/span/lv_span.c ****     lv_draw_label_dsc_t label_draw_dsc;
 797:Drivers/lvgl/lvgl/src/extra/widgets/span/lv_span.c ****     lv_draw_label_dsc_init(&label_draw_dsc);
 798:Drivers/lvgl/lvgl/src/extra/widgets/span/lv_span.c **** 
 799:Drivers/lvgl/lvgl/src/extra/widgets/span/lv_span.c ****     bool is_first_line = true;
 800:Drivers/lvgl/lvgl/src/extra/widgets/span/lv_span.c ****     /* the loop control how many lines need to draw */
ARM GAS  /tmp/ccuuAFti.s 			page 39


 801:Drivers/lvgl/lvgl/src/extra/widgets/span/lv_span.c ****     while(cur_span) {
 802:Drivers/lvgl/lvgl/src/extra/widgets/span/lv_span.c ****         bool is_end_line = false;
 803:Drivers/lvgl/lvgl/src/extra/widgets/span/lv_span.c ****         bool ellipsis_valid = false;
 804:Drivers/lvgl/lvgl/src/extra/widgets/span/lv_span.c ****         lv_coord_t max_line_h = 0;  /* the max height of span-font when a line have a lot of span *
 805:Drivers/lvgl/lvgl/src/extra/widgets/span/lv_span.c ****         lv_coord_t max_baseline = 0; /*baseline of the highest span*/
 806:Drivers/lvgl/lvgl/src/extra/widgets/span/lv_span.c ****         lv_snippet_clear();
 807:Drivers/lvgl/lvgl/src/extra/widgets/span/lv_span.c **** 
 808:Drivers/lvgl/lvgl/src/extra/widgets/span/lv_span.c ****         /* the loop control to find a line and push the relevant span info into stack  */
 809:Drivers/lvgl/lvgl/src/extra/widgets/span/lv_span.c ****         while(1) {
 810:Drivers/lvgl/lvgl/src/extra/widgets/span/lv_span.c ****             /* switch to the next span when current is end */
 811:Drivers/lvgl/lvgl/src/extra/widgets/span/lv_span.c ****             if(cur_txt[cur_txt_ofs] == '\0') {
 812:Drivers/lvgl/lvgl/src/extra/widgets/span/lv_span.c ****                 cur_span = _lv_ll_get_next(&spans->child_ll, cur_span);
 813:Drivers/lvgl/lvgl/src/extra/widgets/span/lv_span.c ****                 if(cur_span == NULL) break;
 814:Drivers/lvgl/lvgl/src/extra/widgets/span/lv_span.c ****                 cur_txt = cur_span->txt;
 815:Drivers/lvgl/lvgl/src/extra/widgets/span/lv_span.c ****                 span_text_check(&cur_txt);
 816:Drivers/lvgl/lvgl/src/extra/widgets/span/lv_span.c ****                 cur_txt_ofs = 0;
 817:Drivers/lvgl/lvgl/src/extra/widgets/span/lv_span.c ****                 /* maybe also cur_txt[cur_txt_ofs] == '\0' */
 818:Drivers/lvgl/lvgl/src/extra/widgets/span/lv_span.c ****                 continue;
 819:Drivers/lvgl/lvgl/src/extra/widgets/span/lv_span.c ****             }
 820:Drivers/lvgl/lvgl/src/extra/widgets/span/lv_span.c **** 
 821:Drivers/lvgl/lvgl/src/extra/widgets/span/lv_span.c ****             /* init span info to snippet. */
 822:Drivers/lvgl/lvgl/src/extra/widgets/span/lv_span.c ****             if(cur_txt_ofs == 0) {
 823:Drivers/lvgl/lvgl/src/extra/widgets/span/lv_span.c ****                 snippet.span = cur_span;
 824:Drivers/lvgl/lvgl/src/extra/widgets/span/lv_span.c ****                 snippet.font = lv_span_get_style_text_font(obj, cur_span);
 825:Drivers/lvgl/lvgl/src/extra/widgets/span/lv_span.c ****                 snippet.letter_space = lv_span_get_style_text_letter_space(obj, cur_span);
 826:Drivers/lvgl/lvgl/src/extra/widgets/span/lv_span.c ****                 snippet.line_h = lv_font_get_line_height(snippet.font) + line_space;
 827:Drivers/lvgl/lvgl/src/extra/widgets/span/lv_span.c ****             }
 828:Drivers/lvgl/lvgl/src/extra/widgets/span/lv_span.c **** 
 829:Drivers/lvgl/lvgl/src/extra/widgets/span/lv_span.c ****             /* get current span text line info */
 830:Drivers/lvgl/lvgl/src/extra/widgets/span/lv_span.c ****             uint32_t next_ofs = 0;
 831:Drivers/lvgl/lvgl/src/extra/widgets/span/lv_span.c ****             lv_coord_t use_width = 0;
 832:Drivers/lvgl/lvgl/src/extra/widgets/span/lv_span.c ****             bool isfill = lv_txt_get_snippet(&cur_txt[cur_txt_ofs], snippet.font, snippet.letter_sp
 833:Drivers/lvgl/lvgl/src/extra/widgets/span/lv_span.c ****                                              max_w, txt_flag, &use_width, &next_ofs);
 834:Drivers/lvgl/lvgl/src/extra/widgets/span/lv_span.c **** 
 835:Drivers/lvgl/lvgl/src/extra/widgets/span/lv_span.c ****             if(isfill) {
 836:Drivers/lvgl/lvgl/src/extra/widgets/span/lv_span.c ****                 if(next_ofs > 0 && lv_get_snippet_cnt() > 0) {
 837:Drivers/lvgl/lvgl/src/extra/widgets/span/lv_span.c ****                     /* To prevent infinite loops, the _lv_txt_get_next_line() may return incomplete
 838:Drivers/lvgl/lvgl/src/extra/widgets/span/lv_span.c ****                     /* This phenomenon should be avoided when lv_get_snippet_cnt() > 0 */
 839:Drivers/lvgl/lvgl/src/extra/widgets/span/lv_span.c ****                     if(max_w < use_width) {
 840:Drivers/lvgl/lvgl/src/extra/widgets/span/lv_span.c ****                         break;
 841:Drivers/lvgl/lvgl/src/extra/widgets/span/lv_span.c ****                     }
 842:Drivers/lvgl/lvgl/src/extra/widgets/span/lv_span.c ****                     uint32_t tmp_ofs = next_ofs;
 843:Drivers/lvgl/lvgl/src/extra/widgets/span/lv_span.c ****                     uint32_t letter = _lv_txt_encoded_prev(&cur_txt[cur_txt_ofs], &tmp_ofs);
 844:Drivers/lvgl/lvgl/src/extra/widgets/span/lv_span.c ****                     if(!(letter == '\0' || letter == '\n' || letter == '\r' || _lv_txt_is_break_cha
 845:Drivers/lvgl/lvgl/src/extra/widgets/span/lv_span.c ****                         tmp_ofs = 0;
 846:Drivers/lvgl/lvgl/src/extra/widgets/span/lv_span.c ****                         letter = _lv_txt_encoded_next(&cur_txt[cur_txt_ofs + next_ofs], &tmp_ofs);
 847:Drivers/lvgl/lvgl/src/extra/widgets/span/lv_span.c ****                         if(!(letter == '\0' || letter == '\n'  || letter == '\r' || _lv_txt_is_brea
 848:Drivers/lvgl/lvgl/src/extra/widgets/span/lv_span.c ****                             break;
 849:Drivers/lvgl/lvgl/src/extra/widgets/span/lv_span.c ****                         }
 850:Drivers/lvgl/lvgl/src/extra/widgets/span/lv_span.c ****                     }
 851:Drivers/lvgl/lvgl/src/extra/widgets/span/lv_span.c ****                 }
 852:Drivers/lvgl/lvgl/src/extra/widgets/span/lv_span.c ****             }
 853:Drivers/lvgl/lvgl/src/extra/widgets/span/lv_span.c **** 
 854:Drivers/lvgl/lvgl/src/extra/widgets/span/lv_span.c ****             snippet.txt = &cur_txt[cur_txt_ofs];
 855:Drivers/lvgl/lvgl/src/extra/widgets/span/lv_span.c ****             snippet.bytes = next_ofs;
 856:Drivers/lvgl/lvgl/src/extra/widgets/span/lv_span.c ****             snippet.txt_w = use_width;
 857:Drivers/lvgl/lvgl/src/extra/widgets/span/lv_span.c ****             cur_txt_ofs += next_ofs;
ARM GAS  /tmp/ccuuAFti.s 			page 40


 858:Drivers/lvgl/lvgl/src/extra/widgets/span/lv_span.c ****             if(max_line_h < snippet.line_h) {
 859:Drivers/lvgl/lvgl/src/extra/widgets/span/lv_span.c ****                 max_line_h = snippet.line_h;
 860:Drivers/lvgl/lvgl/src/extra/widgets/span/lv_span.c ****                 max_baseline = snippet.font->base_line;
 861:Drivers/lvgl/lvgl/src/extra/widgets/span/lv_span.c ****             }
 862:Drivers/lvgl/lvgl/src/extra/widgets/span/lv_span.c **** 
 863:Drivers/lvgl/lvgl/src/extra/widgets/span/lv_span.c ****             lv_snippet_push(&snippet);
 864:Drivers/lvgl/lvgl/src/extra/widgets/span/lv_span.c ****             max_w = max_w - use_width - snippet.letter_space;
 865:Drivers/lvgl/lvgl/src/extra/widgets/span/lv_span.c ****             if(isfill || max_w <= 0) {
 866:Drivers/lvgl/lvgl/src/extra/widgets/span/lv_span.c ****                 break;
 867:Drivers/lvgl/lvgl/src/extra/widgets/span/lv_span.c ****             }
 868:Drivers/lvgl/lvgl/src/extra/widgets/span/lv_span.c ****         }
 869:Drivers/lvgl/lvgl/src/extra/widgets/span/lv_span.c **** 
 870:Drivers/lvgl/lvgl/src/extra/widgets/span/lv_span.c ****         /* start current line deal with */
 871:Drivers/lvgl/lvgl/src/extra/widgets/span/lv_span.c **** 
 872:Drivers/lvgl/lvgl/src/extra/widgets/span/lv_span.c ****         uint16_t item_cnt = lv_get_snippet_cnt();
 873:Drivers/lvgl/lvgl/src/extra/widgets/span/lv_span.c ****         if(item_cnt == 0) {     /* break if stack is empty */
 874:Drivers/lvgl/lvgl/src/extra/widgets/span/lv_span.c ****             break;
 875:Drivers/lvgl/lvgl/src/extra/widgets/span/lv_span.c ****         }
 876:Drivers/lvgl/lvgl/src/extra/widgets/span/lv_span.c **** 
 877:Drivers/lvgl/lvgl/src/extra/widgets/span/lv_span.c ****         /* Whether the current line is the end line and does overflow processing */
 878:Drivers/lvgl/lvgl/src/extra/widgets/span/lv_span.c ****         {
 879:Drivers/lvgl/lvgl/src/extra/widgets/span/lv_span.c ****             lv_snippet_t * last_snippet = lv_get_snippet(item_cnt - 1);
 880:Drivers/lvgl/lvgl/src/extra/widgets/span/lv_span.c ****             lv_coord_t next_line_h = last_snippet->line_h;
 881:Drivers/lvgl/lvgl/src/extra/widgets/span/lv_span.c ****             if(last_snippet->txt[last_snippet->bytes] == '\0') {
 882:Drivers/lvgl/lvgl/src/extra/widgets/span/lv_span.c ****                 next_line_h = 0;
 883:Drivers/lvgl/lvgl/src/extra/widgets/span/lv_span.c ****                 lv_span_t * next_span = _lv_ll_get_next(&spans->child_ll, last_snippet->span);
 884:Drivers/lvgl/lvgl/src/extra/widgets/span/lv_span.c ****                 if(next_span) { /* have the next line */
 885:Drivers/lvgl/lvgl/src/extra/widgets/span/lv_span.c ****                     next_line_h = lv_font_get_line_height(lv_span_get_style_text_font(obj, next_spa
 886:Drivers/lvgl/lvgl/src/extra/widgets/span/lv_span.c ****                 }
 887:Drivers/lvgl/lvgl/src/extra/widgets/span/lv_span.c ****             }
 888:Drivers/lvgl/lvgl/src/extra/widgets/span/lv_span.c ****             if(txt_pos.y + max_line_h + next_line_h - line_space > coords.y2 + 1) { /* for overflow
 889:Drivers/lvgl/lvgl/src/extra/widgets/span/lv_span.c ****                 if(last_snippet->txt[last_snippet->bytes] != '\0') {
 890:Drivers/lvgl/lvgl/src/extra/widgets/span/lv_span.c ****                     last_snippet->bytes = strlen(last_snippet->txt);
 891:Drivers/lvgl/lvgl/src/extra/widgets/span/lv_span.c ****                     last_snippet->txt_w = lv_txt_get_width(last_snippet->txt, last_snippet->bytes, 
 892:Drivers/lvgl/lvgl/src/extra/widgets/span/lv_span.c ****                                                            last_snippet->letter_space, txt_flag);
 893:Drivers/lvgl/lvgl/src/extra/widgets/span/lv_span.c ****                 }
 894:Drivers/lvgl/lvgl/src/extra/widgets/span/lv_span.c ****                 ellipsis_valid = spans->overflow == LV_SPAN_OVERFLOW_ELLIPSIS ? true : false;
 895:Drivers/lvgl/lvgl/src/extra/widgets/span/lv_span.c ****                 is_end_line = true;
 896:Drivers/lvgl/lvgl/src/extra/widgets/span/lv_span.c ****             }
 897:Drivers/lvgl/lvgl/src/extra/widgets/span/lv_span.c ****         }
 898:Drivers/lvgl/lvgl/src/extra/widgets/span/lv_span.c **** 
 899:Drivers/lvgl/lvgl/src/extra/widgets/span/lv_span.c ****         /*Go the first visible line*/
 900:Drivers/lvgl/lvgl/src/extra/widgets/span/lv_span.c ****         if(txt_pos.y + max_line_h < clip_area.y1) {
 901:Drivers/lvgl/lvgl/src/extra/widgets/span/lv_span.c ****             goto Next_line_init;
 902:Drivers/lvgl/lvgl/src/extra/widgets/span/lv_span.c ****         }
 903:Drivers/lvgl/lvgl/src/extra/widgets/span/lv_span.c **** 
 904:Drivers/lvgl/lvgl/src/extra/widgets/span/lv_span.c ****         /* align deal with */
 905:Drivers/lvgl/lvgl/src/extra/widgets/span/lv_span.c ****         lv_text_align_t align = lv_obj_get_style_text_align(obj, LV_PART_MAIN);
 906:Drivers/lvgl/lvgl/src/extra/widgets/span/lv_span.c ****         if(align == LV_TEXT_ALIGN_CENTER || align == LV_TEXT_ALIGN_RIGHT) {
 907:Drivers/lvgl/lvgl/src/extra/widgets/span/lv_span.c ****             lv_coord_t align_ofs = 0;
 908:Drivers/lvgl/lvgl/src/extra/widgets/span/lv_span.c ****             lv_coord_t txts_w = is_first_line ? indent : 0;
 909:Drivers/lvgl/lvgl/src/extra/widgets/span/lv_span.c ****             for(int i = 0; i < item_cnt; i++) {
 910:Drivers/lvgl/lvgl/src/extra/widgets/span/lv_span.c ****                 lv_snippet_t * pinfo = lv_get_snippet(i);
 911:Drivers/lvgl/lvgl/src/extra/widgets/span/lv_span.c ****                 txts_w = txts_w + pinfo->txt_w + pinfo->letter_space;
 912:Drivers/lvgl/lvgl/src/extra/widgets/span/lv_span.c ****             }
 913:Drivers/lvgl/lvgl/src/extra/widgets/span/lv_span.c ****             txts_w -= lv_get_snippet(item_cnt - 1)->letter_space;
 914:Drivers/lvgl/lvgl/src/extra/widgets/span/lv_span.c ****             align_ofs = max_width > txts_w ? max_width - txts_w : 0;
ARM GAS  /tmp/ccuuAFti.s 			page 41


 915:Drivers/lvgl/lvgl/src/extra/widgets/span/lv_span.c ****             if(align == LV_TEXT_ALIGN_CENTER) {
 916:Drivers/lvgl/lvgl/src/extra/widgets/span/lv_span.c ****                 align_ofs = align_ofs >> 1;
 917:Drivers/lvgl/lvgl/src/extra/widgets/span/lv_span.c ****             }
 918:Drivers/lvgl/lvgl/src/extra/widgets/span/lv_span.c ****             txt_pos.x += align_ofs;
 919:Drivers/lvgl/lvgl/src/extra/widgets/span/lv_span.c ****         }
 920:Drivers/lvgl/lvgl/src/extra/widgets/span/lv_span.c **** 
 921:Drivers/lvgl/lvgl/src/extra/widgets/span/lv_span.c ****         /* draw line letters */
 922:Drivers/lvgl/lvgl/src/extra/widgets/span/lv_span.c ****         int i;
 923:Drivers/lvgl/lvgl/src/extra/widgets/span/lv_span.c ****         for(i = 0; i < item_cnt; i++) {
 924:Drivers/lvgl/lvgl/src/extra/widgets/span/lv_span.c ****             lv_snippet_t * pinfo = lv_get_snippet(i);
 925:Drivers/lvgl/lvgl/src/extra/widgets/span/lv_span.c **** 
 926:Drivers/lvgl/lvgl/src/extra/widgets/span/lv_span.c ****             /* bidi deal with:todo */
 927:Drivers/lvgl/lvgl/src/extra/widgets/span/lv_span.c ****             const char * bidi_txt = pinfo->txt;
 928:Drivers/lvgl/lvgl/src/extra/widgets/span/lv_span.c **** 
 929:Drivers/lvgl/lvgl/src/extra/widgets/span/lv_span.c ****             lv_point_t pos;
 930:Drivers/lvgl/lvgl/src/extra/widgets/span/lv_span.c ****             pos.x = txt_pos.x;
 931:Drivers/lvgl/lvgl/src/extra/widgets/span/lv_span.c ****             pos.y = txt_pos.y + max_line_h - pinfo->line_h - (max_baseline - pinfo->font->base_line
 932:Drivers/lvgl/lvgl/src/extra/widgets/span/lv_span.c ****             label_draw_dsc.color = lv_span_get_style_text_color(obj, pinfo->span);
 933:Drivers/lvgl/lvgl/src/extra/widgets/span/lv_span.c ****             label_draw_dsc.opa = lv_span_get_style_text_opa(obj, pinfo->span);
 934:Drivers/lvgl/lvgl/src/extra/widgets/span/lv_span.c ****             label_draw_dsc.font = lv_span_get_style_text_font(obj, pinfo->span);
 935:Drivers/lvgl/lvgl/src/extra/widgets/span/lv_span.c ****             label_draw_dsc.blend_mode = lv_span_get_style_text_blend_mode(obj, pinfo->span);
 936:Drivers/lvgl/lvgl/src/extra/widgets/span/lv_span.c ****             if(obj_opa < LV_OPA_MAX) {
 937:Drivers/lvgl/lvgl/src/extra/widgets/span/lv_span.c ****                 label_draw_dsc.opa = (uint16_t)((uint16_t)label_draw_dsc.opa * obj_opa) >> 8;
 938:Drivers/lvgl/lvgl/src/extra/widgets/span/lv_span.c ****             }
 939:Drivers/lvgl/lvgl/src/extra/widgets/span/lv_span.c ****             uint32_t txt_bytes = pinfo->bytes;
 940:Drivers/lvgl/lvgl/src/extra/widgets/span/lv_span.c **** 
 941:Drivers/lvgl/lvgl/src/extra/widgets/span/lv_span.c ****             /* overflow */
 942:Drivers/lvgl/lvgl/src/extra/widgets/span/lv_span.c ****             uint16_t dot_letter_w = 0;
 943:Drivers/lvgl/lvgl/src/extra/widgets/span/lv_span.c ****             uint16_t dot_width = 0;
 944:Drivers/lvgl/lvgl/src/extra/widgets/span/lv_span.c ****             if(ellipsis_valid) {
 945:Drivers/lvgl/lvgl/src/extra/widgets/span/lv_span.c ****                 dot_letter_w = lv_font_get_glyph_width(pinfo->font, '.', '.');
 946:Drivers/lvgl/lvgl/src/extra/widgets/span/lv_span.c ****                 dot_width = dot_letter_w * 3;
 947:Drivers/lvgl/lvgl/src/extra/widgets/span/lv_span.c ****             }
 948:Drivers/lvgl/lvgl/src/extra/widgets/span/lv_span.c ****             lv_coord_t ellipsis_width = coords.x1 + max_width - dot_width;
 949:Drivers/lvgl/lvgl/src/extra/widgets/span/lv_span.c **** 
 950:Drivers/lvgl/lvgl/src/extra/widgets/span/lv_span.c ****             uint32_t j = 0;
 951:Drivers/lvgl/lvgl/src/extra/widgets/span/lv_span.c ****             while(j < txt_bytes) {
 952:Drivers/lvgl/lvgl/src/extra/widgets/span/lv_span.c ****                 /* skip invalid fields */
 953:Drivers/lvgl/lvgl/src/extra/widgets/span/lv_span.c ****                 if(pos.x > clip_area.x2) {
 954:Drivers/lvgl/lvgl/src/extra/widgets/span/lv_span.c ****                     break;
 955:Drivers/lvgl/lvgl/src/extra/widgets/span/lv_span.c ****                 }
 956:Drivers/lvgl/lvgl/src/extra/widgets/span/lv_span.c ****                 uint32_t letter      = _lv_txt_encoded_next(bidi_txt, &j);
 957:Drivers/lvgl/lvgl/src/extra/widgets/span/lv_span.c ****                 uint32_t letter_next = _lv_txt_encoded_next(&bidi_txt[j], NULL);
 958:Drivers/lvgl/lvgl/src/extra/widgets/span/lv_span.c ****                 int32_t letter_w = lv_font_get_glyph_width(pinfo->font, letter, letter_next);
 959:Drivers/lvgl/lvgl/src/extra/widgets/span/lv_span.c **** 
 960:Drivers/lvgl/lvgl/src/extra/widgets/span/lv_span.c ****                 /* skip invalid fields */
 961:Drivers/lvgl/lvgl/src/extra/widgets/span/lv_span.c ****                 if(pos.x + letter_w + pinfo->letter_space < clip_area.x1) {
 962:Drivers/lvgl/lvgl/src/extra/widgets/span/lv_span.c ****                     if(letter_w > 0) {
 963:Drivers/lvgl/lvgl/src/extra/widgets/span/lv_span.c ****                         pos.x = pos.x + letter_w + pinfo->letter_space;
 964:Drivers/lvgl/lvgl/src/extra/widgets/span/lv_span.c ****                     }
 965:Drivers/lvgl/lvgl/src/extra/widgets/span/lv_span.c ****                     continue;
 966:Drivers/lvgl/lvgl/src/extra/widgets/span/lv_span.c ****                 }
 967:Drivers/lvgl/lvgl/src/extra/widgets/span/lv_span.c **** 
 968:Drivers/lvgl/lvgl/src/extra/widgets/span/lv_span.c ****                 if(ellipsis_valid && pos.x + letter_w + pinfo->letter_space > ellipsis_width) {
 969:Drivers/lvgl/lvgl/src/extra/widgets/span/lv_span.c ****                     for(int ell = 0; ell < 3; ell++) {
 970:Drivers/lvgl/lvgl/src/extra/widgets/span/lv_span.c ****                         lv_draw_letter(draw_ctx, &label_draw_dsc, &pos, '.');
 971:Drivers/lvgl/lvgl/src/extra/widgets/span/lv_span.c ****                         pos.x = pos.x + dot_letter_w + pinfo->letter_space;
ARM GAS  /tmp/ccuuAFti.s 			page 42


 972:Drivers/lvgl/lvgl/src/extra/widgets/span/lv_span.c ****                     }
 973:Drivers/lvgl/lvgl/src/extra/widgets/span/lv_span.c ****                     if(pos.x <= ellipsis_width) {
 974:Drivers/lvgl/lvgl/src/extra/widgets/span/lv_span.c ****                         pos.x = ellipsis_width + 1;
 975:Drivers/lvgl/lvgl/src/extra/widgets/span/lv_span.c ****                     }
 976:Drivers/lvgl/lvgl/src/extra/widgets/span/lv_span.c ****                     break;
 977:Drivers/lvgl/lvgl/src/extra/widgets/span/lv_span.c ****                 }
 978:Drivers/lvgl/lvgl/src/extra/widgets/span/lv_span.c ****                 else {
 979:Drivers/lvgl/lvgl/src/extra/widgets/span/lv_span.c ****                     lv_draw_letter(draw_ctx, &label_draw_dsc, &pos, letter);
 980:Drivers/lvgl/lvgl/src/extra/widgets/span/lv_span.c ****                     if(letter_w > 0) {
 981:Drivers/lvgl/lvgl/src/extra/widgets/span/lv_span.c ****                         pos.x = pos.x + letter_w + pinfo->letter_space;
 982:Drivers/lvgl/lvgl/src/extra/widgets/span/lv_span.c ****                     }
 983:Drivers/lvgl/lvgl/src/extra/widgets/span/lv_span.c ****                 }
 984:Drivers/lvgl/lvgl/src/extra/widgets/span/lv_span.c ****             }
 985:Drivers/lvgl/lvgl/src/extra/widgets/span/lv_span.c **** 
 986:Drivers/lvgl/lvgl/src/extra/widgets/span/lv_span.c ****             /* draw decor */
 987:Drivers/lvgl/lvgl/src/extra/widgets/span/lv_span.c ****             lv_text_decor_t decor = lv_span_get_style_text_decor(obj, pinfo->span);
 988:Drivers/lvgl/lvgl/src/extra/widgets/span/lv_span.c ****             if(decor != LV_TEXT_DECOR_NONE) {
 989:Drivers/lvgl/lvgl/src/extra/widgets/span/lv_span.c ****                 lv_draw_line_dsc_t line_dsc;
 990:Drivers/lvgl/lvgl/src/extra/widgets/span/lv_span.c ****                 lv_draw_line_dsc_init(&line_dsc);
 991:Drivers/lvgl/lvgl/src/extra/widgets/span/lv_span.c ****                 line_dsc.color = label_draw_dsc.color;
 992:Drivers/lvgl/lvgl/src/extra/widgets/span/lv_span.c ****                 line_dsc.width = label_draw_dsc.font->underline_thickness ? pinfo->font->underline_
 993:Drivers/lvgl/lvgl/src/extra/widgets/span/lv_span.c ****                 line_dsc.opa = label_draw_dsc.opa;
 994:Drivers/lvgl/lvgl/src/extra/widgets/span/lv_span.c ****                 line_dsc.blend_mode = label_draw_dsc.blend_mode;
 995:Drivers/lvgl/lvgl/src/extra/widgets/span/lv_span.c **** 
 996:Drivers/lvgl/lvgl/src/extra/widgets/span/lv_span.c ****                 if(decor & LV_TEXT_DECOR_STRIKETHROUGH) {
 997:Drivers/lvgl/lvgl/src/extra/widgets/span/lv_span.c ****                     lv_point_t p1;
 998:Drivers/lvgl/lvgl/src/extra/widgets/span/lv_span.c ****                     lv_point_t p2;
 999:Drivers/lvgl/lvgl/src/extra/widgets/span/lv_span.c ****                     p1.x = txt_pos.x;
1000:Drivers/lvgl/lvgl/src/extra/widgets/span/lv_span.c ****                     p1.y = pos.y + ((pinfo->line_h - line_space) >> 1)  + (line_dsc.width >> 1);
1001:Drivers/lvgl/lvgl/src/extra/widgets/span/lv_span.c ****                     p2.x = pos.x;
1002:Drivers/lvgl/lvgl/src/extra/widgets/span/lv_span.c ****                     p2.y = p1.y;
1003:Drivers/lvgl/lvgl/src/extra/widgets/span/lv_span.c ****                     lv_draw_line(draw_ctx, &line_dsc, &p1, &p2);
1004:Drivers/lvgl/lvgl/src/extra/widgets/span/lv_span.c ****                 }
1005:Drivers/lvgl/lvgl/src/extra/widgets/span/lv_span.c **** 
1006:Drivers/lvgl/lvgl/src/extra/widgets/span/lv_span.c ****                 if(decor & LV_TEXT_DECOR_UNDERLINE) {
1007:Drivers/lvgl/lvgl/src/extra/widgets/span/lv_span.c ****                     lv_point_t p1;
1008:Drivers/lvgl/lvgl/src/extra/widgets/span/lv_span.c ****                     lv_point_t p2;
1009:Drivers/lvgl/lvgl/src/extra/widgets/span/lv_span.c ****                     p1.x = txt_pos.x;
1010:Drivers/lvgl/lvgl/src/extra/widgets/span/lv_span.c ****                     p1.y = pos.y + pinfo->line_h - line_space - pinfo->font->base_line - pinfo->fon
1011:Drivers/lvgl/lvgl/src/extra/widgets/span/lv_span.c ****                     p2.x = pos.x;
1012:Drivers/lvgl/lvgl/src/extra/widgets/span/lv_span.c ****                     p2.y = p1.y;
1013:Drivers/lvgl/lvgl/src/extra/widgets/span/lv_span.c ****                     lv_draw_line(draw_ctx, &line_dsc, &p1, &p2);
1014:Drivers/lvgl/lvgl/src/extra/widgets/span/lv_span.c ****                 }
1015:Drivers/lvgl/lvgl/src/extra/widgets/span/lv_span.c ****             }
1016:Drivers/lvgl/lvgl/src/extra/widgets/span/lv_span.c ****             txt_pos.x = pos.x;
1017:Drivers/lvgl/lvgl/src/extra/widgets/span/lv_span.c ****         }
1018:Drivers/lvgl/lvgl/src/extra/widgets/span/lv_span.c **** 
1019:Drivers/lvgl/lvgl/src/extra/widgets/span/lv_span.c **** Next_line_init:
1020:Drivers/lvgl/lvgl/src/extra/widgets/span/lv_span.c ****         /* next line init */
1021:Drivers/lvgl/lvgl/src/extra/widgets/span/lv_span.c ****         is_first_line = false;
1022:Drivers/lvgl/lvgl/src/extra/widgets/span/lv_span.c ****         txt_pos.x = coords.x1;
1023:Drivers/lvgl/lvgl/src/extra/widgets/span/lv_span.c ****         txt_pos.y += max_line_h;
1024:Drivers/lvgl/lvgl/src/extra/widgets/span/lv_span.c ****         if(is_end_line || txt_pos.y > clip_area.y2 + 1) {
1025:Drivers/lvgl/lvgl/src/extra/widgets/span/lv_span.c ****             draw_ctx->clip_area = clip_area_ori;
1026:Drivers/lvgl/lvgl/src/extra/widgets/span/lv_span.c ****             return;
1027:Drivers/lvgl/lvgl/src/extra/widgets/span/lv_span.c ****         }
1028:Drivers/lvgl/lvgl/src/extra/widgets/span/lv_span.c ****         max_w = max_width;
ARM GAS  /tmp/ccuuAFti.s 			page 43


1029:Drivers/lvgl/lvgl/src/extra/widgets/span/lv_span.c ****     }
1030:Drivers/lvgl/lvgl/src/extra/widgets/span/lv_span.c ****     draw_ctx->clip_area = clip_area_ori;
1031:Drivers/lvgl/lvgl/src/extra/widgets/span/lv_span.c **** }
 783              		.loc 1 1031 0
 784 0030 37B0     		add	sp, sp, #220
 785              	.LCFI34:
 786              		.cfi_remember_state
 787              		.cfi_def_cfa_offset 36
 788              		@ sp needed
 789 0032 BDE8F08F 		pop	{r4, r5, r6, r7, r8, r9, r10, fp, pc}
 790              	.LVL83:
 791              	.L127:
 792              	.LCFI35:
 793              		.cfi_restore_state
 773:Drivers/lvgl/lvgl/src/extra/widgets/span/lv_span.c ****     const lv_area_t * clip_area_ori = draw_ctx->clip_area;
 794              		.loc 1 773 0
 795 0036 069A     		ldr	r2, [sp, #24]
 796 0038 9368     		ldr	r3, [r2, #8]
 797 003a 1A93     		str	r3, [sp, #104]
 798              	.LVL84:
 774:Drivers/lvgl/lvgl/src/extra/widgets/span/lv_span.c **** 
 799              		.loc 1 774 0
 800 003c 32AB     		add	r3, sp, #200
 801              	.LVL85:
 802 003e 9360     		str	r3, [r2, #8]
 803              	.LVL86:
 804              	.LBB93:
 805              	.LBB94:
 477:Drivers/lvgl/lvgl/src/extra/widgets/span/../../../../src/core/lv_obj_style_gen.h ****     return (lv_coord_t)v.num;
 806              		.loc 2 477 0
 807 0040 5922     		movs	r2, #89
 808 0042 0021     		movs	r1, #0
 809 0044 089E     		ldr	r6, [sp, #32]
 810 0046 3046     		mov	r0, r6
 811 0048 FFF7FEFF 		bl	lv_obj_get_style_prop
 812              	.LVL87:
 813 004c 0E90     		str	r0, [sp, #56]
 478:Drivers/lvgl/lvgl/src/extra/widgets/span/../../../../src/core/lv_obj_style_gen.h **** }
 814              		.loc 2 478 0
 815 004e 03B2     		sxth	r3, r0
 816 0050 1493     		str	r3, [sp, #80]
 817              	.LVL88:
 818              	.LBE94:
 819              	.LBE93:
 820              	.LBB95:
 821              	.LBB96:
 822              		.file 3 "Drivers/lvgl/lvgl/src/extra/widgets/span/../../../../src/hal/../draw/../misc/../font/../m
   1:Drivers/lvgl/lvgl/src/extra/widgets/span/../../../../src/hal/../draw/../misc/../font/../misc/lv_area.h **** /**
   2:Drivers/lvgl/lvgl/src/extra/widgets/span/../../../../src/hal/../draw/../misc/../font/../misc/lv_area.h ****  * @file lv_area.h
   3:Drivers/lvgl/lvgl/src/extra/widgets/span/../../../../src/hal/../draw/../misc/../font/../misc/lv_area.h ****  *
   4:Drivers/lvgl/lvgl/src/extra/widgets/span/../../../../src/hal/../draw/../misc/../font/../misc/lv_area.h ****  */
   5:Drivers/lvgl/lvgl/src/extra/widgets/span/../../../../src/hal/../draw/../misc/../font/../misc/lv_area.h **** 
   6:Drivers/lvgl/lvgl/src/extra/widgets/span/../../../../src/hal/../draw/../misc/../font/../misc/lv_area.h **** #ifndef LV_AREA_H
   7:Drivers/lvgl/lvgl/src/extra/widgets/span/../../../../src/hal/../draw/../misc/../font/../misc/lv_area.h **** #define LV_AREA_H
   8:Drivers/lvgl/lvgl/src/extra/widgets/span/../../../../src/hal/../draw/../misc/../font/../misc/lv_area.h **** 
   9:Drivers/lvgl/lvgl/src/extra/widgets/span/../../../../src/hal/../draw/../misc/../font/../misc/lv_area.h **** #ifdef __cplusplus
  10:Drivers/lvgl/lvgl/src/extra/widgets/span/../../../../src/hal/../draw/../misc/../font/../misc/lv_area.h **** extern "C" {
ARM GAS  /tmp/ccuuAFti.s 			page 44


  11:Drivers/lvgl/lvgl/src/extra/widgets/span/../../../../src/hal/../draw/../misc/../font/../misc/lv_area.h **** #endif
  12:Drivers/lvgl/lvgl/src/extra/widgets/span/../../../../src/hal/../draw/../misc/../font/../misc/lv_area.h **** 
  13:Drivers/lvgl/lvgl/src/extra/widgets/span/../../../../src/hal/../draw/../misc/../font/../misc/lv_area.h **** /*********************
  14:Drivers/lvgl/lvgl/src/extra/widgets/span/../../../../src/hal/../draw/../misc/../font/../misc/lv_area.h ****  *      INCLUDES
  15:Drivers/lvgl/lvgl/src/extra/widgets/span/../../../../src/hal/../draw/../misc/../font/../misc/lv_area.h ****  *********************/
  16:Drivers/lvgl/lvgl/src/extra/widgets/span/../../../../src/hal/../draw/../misc/../font/../misc/lv_area.h **** #include "../lv_conf_internal.h"
  17:Drivers/lvgl/lvgl/src/extra/widgets/span/../../../../src/hal/../draw/../misc/../font/../misc/lv_area.h **** #include <stdbool.h>
  18:Drivers/lvgl/lvgl/src/extra/widgets/span/../../../../src/hal/../draw/../misc/../font/../misc/lv_area.h **** #include <stdint.h>
  19:Drivers/lvgl/lvgl/src/extra/widgets/span/../../../../src/hal/../draw/../misc/../font/../misc/lv_area.h **** 
  20:Drivers/lvgl/lvgl/src/extra/widgets/span/../../../../src/hal/../draw/../misc/../font/../misc/lv_area.h **** /*********************
  21:Drivers/lvgl/lvgl/src/extra/widgets/span/../../../../src/hal/../draw/../misc/../font/../misc/lv_area.h ****  *      DEFINES
  22:Drivers/lvgl/lvgl/src/extra/widgets/span/../../../../src/hal/../draw/../misc/../font/../misc/lv_area.h ****  *********************/
  23:Drivers/lvgl/lvgl/src/extra/widgets/span/../../../../src/hal/../draw/../misc/../font/../misc/lv_area.h **** 
  24:Drivers/lvgl/lvgl/src/extra/widgets/span/../../../../src/hal/../draw/../misc/../font/../misc/lv_area.h **** #if LV_USE_LARGE_COORD
  25:Drivers/lvgl/lvgl/src/extra/widgets/span/../../../../src/hal/../draw/../misc/../font/../misc/lv_area.h **** typedef int32_t lv_coord_t;
  26:Drivers/lvgl/lvgl/src/extra/widgets/span/../../../../src/hal/../draw/../misc/../font/../misc/lv_area.h **** #else
  27:Drivers/lvgl/lvgl/src/extra/widgets/span/../../../../src/hal/../draw/../misc/../font/../misc/lv_area.h **** typedef int16_t lv_coord_t;
  28:Drivers/lvgl/lvgl/src/extra/widgets/span/../../../../src/hal/../draw/../misc/../font/../misc/lv_area.h **** #endif
  29:Drivers/lvgl/lvgl/src/extra/widgets/span/../../../../src/hal/../draw/../misc/../font/../misc/lv_area.h **** 
  30:Drivers/lvgl/lvgl/src/extra/widgets/span/../../../../src/hal/../draw/../misc/../font/../misc/lv_area.h **** /**********************
  31:Drivers/lvgl/lvgl/src/extra/widgets/span/../../../../src/hal/../draw/../misc/../font/../misc/lv_area.h ****  *      TYPEDEFS
  32:Drivers/lvgl/lvgl/src/extra/widgets/span/../../../../src/hal/../draw/../misc/../font/../misc/lv_area.h ****  **********************/
  33:Drivers/lvgl/lvgl/src/extra/widgets/span/../../../../src/hal/../draw/../misc/../font/../misc/lv_area.h **** 
  34:Drivers/lvgl/lvgl/src/extra/widgets/span/../../../../src/hal/../draw/../misc/../font/../misc/lv_area.h **** /**
  35:Drivers/lvgl/lvgl/src/extra/widgets/span/../../../../src/hal/../draw/../misc/../font/../misc/lv_area.h ****  * Represents a point on the screen.
  36:Drivers/lvgl/lvgl/src/extra/widgets/span/../../../../src/hal/../draw/../misc/../font/../misc/lv_area.h ****  */
  37:Drivers/lvgl/lvgl/src/extra/widgets/span/../../../../src/hal/../draw/../misc/../font/../misc/lv_area.h **** typedef struct {
  38:Drivers/lvgl/lvgl/src/extra/widgets/span/../../../../src/hal/../draw/../misc/../font/../misc/lv_area.h ****     lv_coord_t x;
  39:Drivers/lvgl/lvgl/src/extra/widgets/span/../../../../src/hal/../draw/../misc/../font/../misc/lv_area.h ****     lv_coord_t y;
  40:Drivers/lvgl/lvgl/src/extra/widgets/span/../../../../src/hal/../draw/../misc/../font/../misc/lv_area.h **** } lv_point_t;
  41:Drivers/lvgl/lvgl/src/extra/widgets/span/../../../../src/hal/../draw/../misc/../font/../misc/lv_area.h **** 
  42:Drivers/lvgl/lvgl/src/extra/widgets/span/../../../../src/hal/../draw/../misc/../font/../misc/lv_area.h **** /** Represents an area of the screen.*/
  43:Drivers/lvgl/lvgl/src/extra/widgets/span/../../../../src/hal/../draw/../misc/../font/../misc/lv_area.h **** typedef struct {
  44:Drivers/lvgl/lvgl/src/extra/widgets/span/../../../../src/hal/../draw/../misc/../font/../misc/lv_area.h ****     lv_coord_t x1;
  45:Drivers/lvgl/lvgl/src/extra/widgets/span/../../../../src/hal/../draw/../misc/../font/../misc/lv_area.h ****     lv_coord_t y1;
  46:Drivers/lvgl/lvgl/src/extra/widgets/span/../../../../src/hal/../draw/../misc/../font/../misc/lv_area.h ****     lv_coord_t x2;
  47:Drivers/lvgl/lvgl/src/extra/widgets/span/../../../../src/hal/../draw/../misc/../font/../misc/lv_area.h ****     lv_coord_t y2;
  48:Drivers/lvgl/lvgl/src/extra/widgets/span/../../../../src/hal/../draw/../misc/../font/../misc/lv_area.h **** } lv_area_t;
  49:Drivers/lvgl/lvgl/src/extra/widgets/span/../../../../src/hal/../draw/../misc/../font/../misc/lv_area.h **** 
  50:Drivers/lvgl/lvgl/src/extra/widgets/span/../../../../src/hal/../draw/../misc/../font/../misc/lv_area.h **** /** Alignments*/
  51:Drivers/lvgl/lvgl/src/extra/widgets/span/../../../../src/hal/../draw/../misc/../font/../misc/lv_area.h **** enum {
  52:Drivers/lvgl/lvgl/src/extra/widgets/span/../../../../src/hal/../draw/../misc/../font/../misc/lv_area.h ****     LV_ALIGN_DEFAULT = 0,
  53:Drivers/lvgl/lvgl/src/extra/widgets/span/../../../../src/hal/../draw/../misc/../font/../misc/lv_area.h ****     LV_ALIGN_TOP_LEFT,
  54:Drivers/lvgl/lvgl/src/extra/widgets/span/../../../../src/hal/../draw/../misc/../font/../misc/lv_area.h ****     LV_ALIGN_TOP_MID,
  55:Drivers/lvgl/lvgl/src/extra/widgets/span/../../../../src/hal/../draw/../misc/../font/../misc/lv_area.h ****     LV_ALIGN_TOP_RIGHT,
  56:Drivers/lvgl/lvgl/src/extra/widgets/span/../../../../src/hal/../draw/../misc/../font/../misc/lv_area.h ****     LV_ALIGN_BOTTOM_LEFT,
  57:Drivers/lvgl/lvgl/src/extra/widgets/span/../../../../src/hal/../draw/../misc/../font/../misc/lv_area.h ****     LV_ALIGN_BOTTOM_MID,
  58:Drivers/lvgl/lvgl/src/extra/widgets/span/../../../../src/hal/../draw/../misc/../font/../misc/lv_area.h ****     LV_ALIGN_BOTTOM_RIGHT,
  59:Drivers/lvgl/lvgl/src/extra/widgets/span/../../../../src/hal/../draw/../misc/../font/../misc/lv_area.h ****     LV_ALIGN_LEFT_MID,
  60:Drivers/lvgl/lvgl/src/extra/widgets/span/../../../../src/hal/../draw/../misc/../font/../misc/lv_area.h ****     LV_ALIGN_RIGHT_MID,
  61:Drivers/lvgl/lvgl/src/extra/widgets/span/../../../../src/hal/../draw/../misc/../font/../misc/lv_area.h ****     LV_ALIGN_CENTER,
  62:Drivers/lvgl/lvgl/src/extra/widgets/span/../../../../src/hal/../draw/../misc/../font/../misc/lv_area.h **** 
  63:Drivers/lvgl/lvgl/src/extra/widgets/span/../../../../src/hal/../draw/../misc/../font/../misc/lv_area.h ****     LV_ALIGN_OUT_TOP_LEFT,
  64:Drivers/lvgl/lvgl/src/extra/widgets/span/../../../../src/hal/../draw/../misc/../font/../misc/lv_area.h ****     LV_ALIGN_OUT_TOP_MID,
  65:Drivers/lvgl/lvgl/src/extra/widgets/span/../../../../src/hal/../draw/../misc/../font/../misc/lv_area.h ****     LV_ALIGN_OUT_TOP_RIGHT,
  66:Drivers/lvgl/lvgl/src/extra/widgets/span/../../../../src/hal/../draw/../misc/../font/../misc/lv_area.h ****     LV_ALIGN_OUT_BOTTOM_LEFT,
  67:Drivers/lvgl/lvgl/src/extra/widgets/span/../../../../src/hal/../draw/../misc/../font/../misc/lv_area.h ****     LV_ALIGN_OUT_BOTTOM_MID,
ARM GAS  /tmp/ccuuAFti.s 			page 45


  68:Drivers/lvgl/lvgl/src/extra/widgets/span/../../../../src/hal/../draw/../misc/../font/../misc/lv_area.h ****     LV_ALIGN_OUT_BOTTOM_RIGHT,
  69:Drivers/lvgl/lvgl/src/extra/widgets/span/../../../../src/hal/../draw/../misc/../font/../misc/lv_area.h ****     LV_ALIGN_OUT_LEFT_TOP,
  70:Drivers/lvgl/lvgl/src/extra/widgets/span/../../../../src/hal/../draw/../misc/../font/../misc/lv_area.h ****     LV_ALIGN_OUT_LEFT_MID,
  71:Drivers/lvgl/lvgl/src/extra/widgets/span/../../../../src/hal/../draw/../misc/../font/../misc/lv_area.h ****     LV_ALIGN_OUT_LEFT_BOTTOM,
  72:Drivers/lvgl/lvgl/src/extra/widgets/span/../../../../src/hal/../draw/../misc/../font/../misc/lv_area.h ****     LV_ALIGN_OUT_RIGHT_TOP,
  73:Drivers/lvgl/lvgl/src/extra/widgets/span/../../../../src/hal/../draw/../misc/../font/../misc/lv_area.h ****     LV_ALIGN_OUT_RIGHT_MID,
  74:Drivers/lvgl/lvgl/src/extra/widgets/span/../../../../src/hal/../draw/../misc/../font/../misc/lv_area.h ****     LV_ALIGN_OUT_RIGHT_BOTTOM,
  75:Drivers/lvgl/lvgl/src/extra/widgets/span/../../../../src/hal/../draw/../misc/../font/../misc/lv_area.h **** };
  76:Drivers/lvgl/lvgl/src/extra/widgets/span/../../../../src/hal/../draw/../misc/../font/../misc/lv_area.h **** typedef uint8_t lv_align_t;
  77:Drivers/lvgl/lvgl/src/extra/widgets/span/../../../../src/hal/../draw/../misc/../font/../misc/lv_area.h **** 
  78:Drivers/lvgl/lvgl/src/extra/widgets/span/../../../../src/hal/../draw/../misc/../font/../misc/lv_area.h **** enum {
  79:Drivers/lvgl/lvgl/src/extra/widgets/span/../../../../src/hal/../draw/../misc/../font/../misc/lv_area.h ****     LV_DIR_NONE     = 0x00,
  80:Drivers/lvgl/lvgl/src/extra/widgets/span/../../../../src/hal/../draw/../misc/../font/../misc/lv_area.h ****     LV_DIR_LEFT     = (1 << 0),
  81:Drivers/lvgl/lvgl/src/extra/widgets/span/../../../../src/hal/../draw/../misc/../font/../misc/lv_area.h ****     LV_DIR_RIGHT    = (1 << 1),
  82:Drivers/lvgl/lvgl/src/extra/widgets/span/../../../../src/hal/../draw/../misc/../font/../misc/lv_area.h ****     LV_DIR_TOP      = (1 << 2),
  83:Drivers/lvgl/lvgl/src/extra/widgets/span/../../../../src/hal/../draw/../misc/../font/../misc/lv_area.h ****     LV_DIR_BOTTOM   = (1 << 3),
  84:Drivers/lvgl/lvgl/src/extra/widgets/span/../../../../src/hal/../draw/../misc/../font/../misc/lv_area.h ****     LV_DIR_HOR      = LV_DIR_LEFT | LV_DIR_RIGHT,
  85:Drivers/lvgl/lvgl/src/extra/widgets/span/../../../../src/hal/../draw/../misc/../font/../misc/lv_area.h ****     LV_DIR_VER      = LV_DIR_TOP | LV_DIR_BOTTOM,
  86:Drivers/lvgl/lvgl/src/extra/widgets/span/../../../../src/hal/../draw/../misc/../font/../misc/lv_area.h ****     LV_DIR_ALL      = LV_DIR_HOR | LV_DIR_VER,
  87:Drivers/lvgl/lvgl/src/extra/widgets/span/../../../../src/hal/../draw/../misc/../font/../misc/lv_area.h **** };
  88:Drivers/lvgl/lvgl/src/extra/widgets/span/../../../../src/hal/../draw/../misc/../font/../misc/lv_area.h **** 
  89:Drivers/lvgl/lvgl/src/extra/widgets/span/../../../../src/hal/../draw/../misc/../font/../misc/lv_area.h **** typedef uint8_t lv_dir_t;
  90:Drivers/lvgl/lvgl/src/extra/widgets/span/../../../../src/hal/../draw/../misc/../font/../misc/lv_area.h **** 
  91:Drivers/lvgl/lvgl/src/extra/widgets/span/../../../../src/hal/../draw/../misc/../font/../misc/lv_area.h **** /**********************
  92:Drivers/lvgl/lvgl/src/extra/widgets/span/../../../../src/hal/../draw/../misc/../font/../misc/lv_area.h ****  * GLOBAL PROTOTYPES
  93:Drivers/lvgl/lvgl/src/extra/widgets/span/../../../../src/hal/../draw/../misc/../font/../misc/lv_area.h ****  **********************/
  94:Drivers/lvgl/lvgl/src/extra/widgets/span/../../../../src/hal/../draw/../misc/../font/../misc/lv_area.h **** 
  95:Drivers/lvgl/lvgl/src/extra/widgets/span/../../../../src/hal/../draw/../misc/../font/../misc/lv_area.h **** /**
  96:Drivers/lvgl/lvgl/src/extra/widgets/span/../../../../src/hal/../draw/../misc/../font/../misc/lv_area.h ****  * Initialize an area
  97:Drivers/lvgl/lvgl/src/extra/widgets/span/../../../../src/hal/../draw/../misc/../font/../misc/lv_area.h ****  * @param area_p pointer to an area
  98:Drivers/lvgl/lvgl/src/extra/widgets/span/../../../../src/hal/../draw/../misc/../font/../misc/lv_area.h ****  * @param x1 left coordinate of the area
  99:Drivers/lvgl/lvgl/src/extra/widgets/span/../../../../src/hal/../draw/../misc/../font/../misc/lv_area.h ****  * @param y1 top coordinate of the area
 100:Drivers/lvgl/lvgl/src/extra/widgets/span/../../../../src/hal/../draw/../misc/../font/../misc/lv_area.h ****  * @param x2 right coordinate of the area
 101:Drivers/lvgl/lvgl/src/extra/widgets/span/../../../../src/hal/../draw/../misc/../font/../misc/lv_area.h ****  * @param y2 bottom coordinate of the area
 102:Drivers/lvgl/lvgl/src/extra/widgets/span/../../../../src/hal/../draw/../misc/../font/../misc/lv_area.h ****  */
 103:Drivers/lvgl/lvgl/src/extra/widgets/span/../../../../src/hal/../draw/../misc/../font/../misc/lv_area.h **** void lv_area_set(lv_area_t * area_p, lv_coord_t x1, lv_coord_t y1, lv_coord_t x2, lv_coord_t y2);
 104:Drivers/lvgl/lvgl/src/extra/widgets/span/../../../../src/hal/../draw/../misc/../font/../misc/lv_area.h **** 
 105:Drivers/lvgl/lvgl/src/extra/widgets/span/../../../../src/hal/../draw/../misc/../font/../misc/lv_area.h **** /**
 106:Drivers/lvgl/lvgl/src/extra/widgets/span/../../../../src/hal/../draw/../misc/../font/../misc/lv_area.h ****  * Copy an area
 107:Drivers/lvgl/lvgl/src/extra/widgets/span/../../../../src/hal/../draw/../misc/../font/../misc/lv_area.h ****  * @param dest pointer to the destination area
 108:Drivers/lvgl/lvgl/src/extra/widgets/span/../../../../src/hal/../draw/../misc/../font/../misc/lv_area.h ****  * @param src pointer to the source area
 109:Drivers/lvgl/lvgl/src/extra/widgets/span/../../../../src/hal/../draw/../misc/../font/../misc/lv_area.h ****  */
 110:Drivers/lvgl/lvgl/src/extra/widgets/span/../../../../src/hal/../draw/../misc/../font/../misc/lv_area.h **** inline static void lv_area_copy(lv_area_t * dest, const lv_area_t * src)
 111:Drivers/lvgl/lvgl/src/extra/widgets/span/../../../../src/hal/../draw/../misc/../font/../misc/lv_area.h **** {
 112:Drivers/lvgl/lvgl/src/extra/widgets/span/../../../../src/hal/../draw/../misc/../font/../misc/lv_area.h ****     dest->x1 = src->x1;
 113:Drivers/lvgl/lvgl/src/extra/widgets/span/../../../../src/hal/../draw/../misc/../font/../misc/lv_area.h ****     dest->y1 = src->y1;
 114:Drivers/lvgl/lvgl/src/extra/widgets/span/../../../../src/hal/../draw/../misc/../font/../misc/lv_area.h ****     dest->x2 = src->x2;
 115:Drivers/lvgl/lvgl/src/extra/widgets/span/../../../../src/hal/../draw/../misc/../font/../misc/lv_area.h ****     dest->y2 = src->y2;
 116:Drivers/lvgl/lvgl/src/extra/widgets/span/../../../../src/hal/../draw/../misc/../font/../misc/lv_area.h **** }
 117:Drivers/lvgl/lvgl/src/extra/widgets/span/../../../../src/hal/../draw/../misc/../font/../misc/lv_area.h **** 
 118:Drivers/lvgl/lvgl/src/extra/widgets/span/../../../../src/hal/../draw/../misc/../font/../misc/lv_area.h **** /**
 119:Drivers/lvgl/lvgl/src/extra/widgets/span/../../../../src/hal/../draw/../misc/../font/../misc/lv_area.h ****  * Get the width of an area
 120:Drivers/lvgl/lvgl/src/extra/widgets/span/../../../../src/hal/../draw/../misc/../font/../misc/lv_area.h ****  * @param area_p pointer to an area
 121:Drivers/lvgl/lvgl/src/extra/widgets/span/../../../../src/hal/../draw/../misc/../font/../misc/lv_area.h ****  * @return the width of the area (if x1 == x2 -> width = 1)
 122:Drivers/lvgl/lvgl/src/extra/widgets/span/../../../../src/hal/../draw/../misc/../font/../misc/lv_area.h ****  */
 123:Drivers/lvgl/lvgl/src/extra/widgets/span/../../../../src/hal/../draw/../misc/../font/../misc/lv_area.h **** static inline lv_coord_t lv_area_get_width(const lv_area_t * area_p)
 124:Drivers/lvgl/lvgl/src/extra/widgets/span/../../../../src/hal/../draw/../misc/../font/../misc/lv_area.h **** {
ARM GAS  /tmp/ccuuAFti.s 			page 46


 125:Drivers/lvgl/lvgl/src/extra/widgets/span/../../../../src/hal/../draw/../misc/../font/../misc/lv_area.h ****     return (lv_coord_t)(area_p->x2 - area_p->x1 + 1);
 823              		.loc 3 125 0
 824 0052 BDF8D430 		ldrh	r3, [sp, #212]
 825 0056 BDF8D020 		ldrh	r2, [sp, #208]
 826 005a 9B1A     		subs	r3, r3, r2
 827 005c 9BB2     		uxth	r3, r3
 828 005e 0133     		adds	r3, r3, #1
 829 0060 9BB2     		uxth	r3, r3
 830 0062 1F46     		mov	r7, r3
 831 0064 1193     		str	r3, [sp, #68]
 832 0066 1AB2     		sxth	r2, r3
 833 0068 1592     		str	r2, [sp, #84]
 834              	.LVL89:
 835              	.LBE96:
 836              	.LBE95:
 780:Drivers/lvgl/lvgl/src/extra/widgets/span/lv_span.c ****     lv_coord_t max_w  = max_width - indent; /* first line need minus indent */
 837              		.loc 1 780 0
 838 006a 1146     		mov	r1, r2
 839 006c 3046     		mov	r0, r6
 840 006e FFF7FEFF 		bl	convert_indent_pct
 841              	.LVL90:
 842 0072 1B90     		str	r0, [sp, #108]
 843              	.LVL91:
 781:Drivers/lvgl/lvgl/src/extra/widgets/span/lv_span.c ****     lv_opa_t obj_opa = lv_obj_get_style_opa(obj, LV_PART_MAIN);
 844              		.loc 1 781 0
 845 0074 85B2     		uxth	r5, r0
 846              	.LVL92:
 847 0076 7C1B     		subs	r4, r7, r5
 848              	.LVL93:
 849 0078 24B2     		sxth	r4, r4
 850              	.LVL94:
 851              	.LBB97:
 852              	.LBB98:
 507:Drivers/lvgl/lvgl/src/extra/widgets/span/../../../../src/core/lv_obj_style_gen.h ****     return (lv_opa_t)v.num;
 853              		.loc 2 507 0
 854 007a 6022     		movs	r2, #96
 855 007c 0021     		movs	r1, #0
 856 007e 3046     		mov	r0, r6
 857              	.LVL95:
 858 0080 FFF7FEFF 		bl	lv_obj_get_style_prop
 859              	.LVL96:
 508:Drivers/lvgl/lvgl/src/extra/widgets/span/../../../../src/core/lv_obj_style_gen.h **** }
 860              		.loc 2 508 0
 861 0084 C3B2     		uxtb	r3, r0
 862 0086 1293     		str	r3, [sp, #72]
 863              	.LVL97:
 864              	.LBE98:
 865              	.LBE97:
 786:Drivers/lvgl/lvgl/src/extra/widgets/span/lv_span.c ****     txt_pos.x = coords.x1 + indent; /* first line need add indent */
 866              		.loc 1 786 0
 867 0088 BDF9D230 		ldrsh	r3, [sp, #210]
 868 008c ADF8C630 		strh	r3, [sp, #198]	@ movhi
 787:Drivers/lvgl/lvgl/src/extra/widgets/span/lv_span.c **** 
 869              		.loc 1 787 0
 870 0090 BDF8D030 		ldrh	r3, [sp, #208]
 871 0094 1D44     		add	r5, r5, r3
 872              	.LVL98:
ARM GAS  /tmp/ccuuAFti.s 			page 47


 873 0096 ADF8C450 		strh	r5, [sp, #196]	@ movhi
 789:Drivers/lvgl/lvgl/src/extra/widgets/span/lv_span.c ****     const char * cur_txt = cur_span->txt;
 874              		.loc 1 789 0
 875 009a 0A98     		ldr	r0, [sp, #40]
 876 009c FFF7FEFF 		bl	_lv_ll_get_head
 877              	.LVL99:
 878 00a0 0790     		str	r0, [sp, #28]
 879              	.LVL100:
 790:Drivers/lvgl/lvgl/src/extra/widgets/span/lv_span.c ****     span_text_check(&cur_txt);
 880              		.loc 1 790 0
 881 00a2 D0F800A0 		ldr	r10, [r0]
 882              	.LVL101:
 883              	.LBB99:
 884              	.LBB100:
 728:Drivers/lvgl/lvgl/src/extra/widgets/span/lv_span.c ****         *text = "";
 885              		.loc 1 728 0
 886 00a6 BAF1000F 		cmp	r10, #0
 887 00aa 0FD0     		beq	.L128
 888              	.LVL102:
 889              	.L65:
 890              	.LBE100:
 891              	.LBE99:
 794:Drivers/lvgl/lvgl/src/extra/widgets/span/lv_span.c **** 
 892              		.loc 1 794 0
 893 00ac 1421     		movs	r1, #20
 894 00ae 2CA8     		add	r0, sp, #176
 895              	.LVL103:
 896 00b0 FFF7FEFF 		bl	lv_memset_00
 897              	.LVL104:
 797:Drivers/lvgl/lvgl/src/extra/widgets/span/lv_span.c **** 
 898              		.loc 1 797 0
 899 00b4 24A8     		add	r0, sp, #144
 900 00b6 FFF7FEFF 		bl	lv_draw_label_dsc_init
 901              	.LVL105:
 799:Drivers/lvgl/lvgl/src/extra/widgets/span/lv_span.c ****     /* the loop control how many lines need to draw */
 902              		.loc 1 799 0
 903 00ba DDF85C90 		ldr	r9, [sp, #92]
 792:Drivers/lvgl/lvgl/src/extra/widgets/span/lv_span.c ****     lv_snippet_t snippet;   /* use to save cur_span info and push it to stack */
 904              		.loc 1 792 0
 905 00be 4FF0000B 		mov	fp, #0
 906 00c2 5B46     		mov	r3, fp
 907 00c4 D346     		mov	fp, r10
 908 00c6 C846     		mov	r8, r9
 909 00c8 9A46     		mov	r10, r3
 910              	.LVL106:
 801:Drivers/lvgl/lvgl/src/extra/widgets/span/lv_span.c ****         bool is_end_line = false;
 911              		.loc 1 801 0
 912 00ca 2DE1     		b	.L66
 913              	.LVL107:
 914              	.L128:
 915              	.LBB102:
 916              	.LBB101:
 729:Drivers/lvgl/lvgl/src/extra/widgets/span/lv_span.c ****         LV_LOG_ERROR("occur an error that span text == NULL");
 917              		.loc 1 729 0
 918 00cc DFF814A3 		ldr	r10, .L145+12
 919              	.LVL108:
 920 00d0 ECE7     		b	.L65
ARM GAS  /tmp/ccuuAFti.s 			page 48


 921              	.LVL109:
 922              	.L131:
 923              	.LBE101:
 924              	.LBE102:
 925              	.LBB103:
 926              	.LBB104:
 812:Drivers/lvgl/lvgl/src/extra/widgets/span/lv_span.c ****                 if(cur_span == NULL) break;
 927              		.loc 1 812 0
 928 00d2 0799     		ldr	r1, [sp, #28]
 929 00d4 0A98     		ldr	r0, [sp, #40]
 930 00d6 FFF7FEFF 		bl	_lv_ll_get_next
 931              	.LVL110:
 813:Drivers/lvgl/lvgl/src/extra/widgets/span/lv_span.c ****                 cur_txt = cur_span->txt;
 932              		.loc 1 813 0
 933 00da 0790     		str	r0, [sp, #28]
 934 00dc 0028     		cmp	r0, #0
 935 00de 00F0BC80 		beq	.L69
 814:Drivers/lvgl/lvgl/src/extra/widgets/span/lv_span.c ****                 span_text_check(&cur_txt);
 936              		.loc 1 814 0
 937 00e2 D0F800B0 		ldr	fp, [r0]
 938              	.LVL111:
 939              	.LBB105:
 940              	.LBB106:
 728:Drivers/lvgl/lvgl/src/extra/widgets/span/lv_span.c ****         *text = "";
 941              		.loc 1 728 0
 942 00e6 BBF1000F 		cmp	fp, #0
 943 00ea 02D0     		beq	.L129
 944              	.LVL112:
 945              	.L70:
 946              	.LBE106:
 947              	.LBE105:
 816:Drivers/lvgl/lvgl/src/extra/widgets/span/lv_span.c ****                 /* maybe also cur_txt[cur_txt_ofs] == '\0' */
 948              		.loc 1 816 0
 949 00ec 4FF0000A 		mov	r10, #0
 950 00f0 5BE0     		b	.L67
 951              	.LVL113:
 952              	.L129:
 953              	.LBB108:
 954              	.LBB107:
 729:Drivers/lvgl/lvgl/src/extra/widgets/span/lv_span.c ****         LV_LOG_ERROR("occur an error that span text == NULL");
 955              		.loc 1 729 0
 956 00f2 DFF8F0B2 		ldr	fp, .L145+12
 957              	.LVL114:
 958 00f6 F9E7     		b	.L70
 959              	.LVL115:
 960              	.L132:
 961              	.LBE107:
 962              	.LBE108:
 823:Drivers/lvgl/lvgl/src/extra/widgets/span/lv_span.c ****                 snippet.font = lv_span_get_style_text_font(obj, cur_span);
 963              		.loc 1 823 0
 964 00f8 079F     		ldr	r7, [sp, #28]
 965 00fa 2C97     		str	r7, [sp, #176]
 824:Drivers/lvgl/lvgl/src/extra/widgets/span/lv_span.c ****                 snippet.letter_space = lv_span_get_style_text_letter_space(obj, cur_span);
 966              		.loc 1 824 0
 967 00fc 3946     		mov	r1, r7
 968 00fe 089D     		ldr	r5, [sp, #32]
 969 0100 2846     		mov	r0, r5
ARM GAS  /tmp/ccuuAFti.s 			page 49


 970 0102 FFF7FEFF 		bl	lv_span_get_style_text_font
 971              	.LVL116:
 972 0106 2E90     		str	r0, [sp, #184]
 825:Drivers/lvgl/lvgl/src/extra/widgets/span/lv_span.c ****                 snippet.line_h = lv_font_get_line_height(snippet.font) + line_space;
 973              		.loc 1 825 0
 974 0108 3946     		mov	r1, r7
 975 010a 2846     		mov	r0, r5
 976 010c FFF7FEFF 		bl	lv_span_get_style_text_letter_space
 977              	.LVL117:
 978 0110 ADF8C200 		strh	r0, [sp, #194]	@ movhi
 826:Drivers/lvgl/lvgl/src/extra/widgets/span/lv_span.c ****             }
 979              		.loc 1 826 0
 980 0114 2E9B     		ldr	r3, [sp, #184]
 981              	.LVL118:
 982              	.LBB109:
 983              	.LBB110:
 984              		.file 4 "Drivers/lvgl/lvgl/src/extra/widgets/span/../../../../src/hal/../draw/../misc/../font/lv_f
   1:Drivers/lvgl/lvgl/src/extra/widgets/span/../../../../src/hal/../draw/../misc/../font/lv_font.h **** /**
   2:Drivers/lvgl/lvgl/src/extra/widgets/span/../../../../src/hal/../draw/../misc/../font/lv_font.h ****  * @file lv_font.h
   3:Drivers/lvgl/lvgl/src/extra/widgets/span/../../../../src/hal/../draw/../misc/../font/lv_font.h ****  *
   4:Drivers/lvgl/lvgl/src/extra/widgets/span/../../../../src/hal/../draw/../misc/../font/lv_font.h ****  */
   5:Drivers/lvgl/lvgl/src/extra/widgets/span/../../../../src/hal/../draw/../misc/../font/lv_font.h **** 
   6:Drivers/lvgl/lvgl/src/extra/widgets/span/../../../../src/hal/../draw/../misc/../font/lv_font.h **** #ifndef LV_FONT_H
   7:Drivers/lvgl/lvgl/src/extra/widgets/span/../../../../src/hal/../draw/../misc/../font/lv_font.h **** #define LV_FONT_H
   8:Drivers/lvgl/lvgl/src/extra/widgets/span/../../../../src/hal/../draw/../misc/../font/lv_font.h **** 
   9:Drivers/lvgl/lvgl/src/extra/widgets/span/../../../../src/hal/../draw/../misc/../font/lv_font.h **** #ifdef __cplusplus
  10:Drivers/lvgl/lvgl/src/extra/widgets/span/../../../../src/hal/../draw/../misc/../font/lv_font.h **** extern "C" {
  11:Drivers/lvgl/lvgl/src/extra/widgets/span/../../../../src/hal/../draw/../misc/../font/lv_font.h **** #endif
  12:Drivers/lvgl/lvgl/src/extra/widgets/span/../../../../src/hal/../draw/../misc/../font/lv_font.h **** 
  13:Drivers/lvgl/lvgl/src/extra/widgets/span/../../../../src/hal/../draw/../misc/../font/lv_font.h **** /*********************
  14:Drivers/lvgl/lvgl/src/extra/widgets/span/../../../../src/hal/../draw/../misc/../font/lv_font.h ****  *      INCLUDES
  15:Drivers/lvgl/lvgl/src/extra/widgets/span/../../../../src/hal/../draw/../misc/../font/lv_font.h ****  *********************/
  16:Drivers/lvgl/lvgl/src/extra/widgets/span/../../../../src/hal/../draw/../misc/../font/lv_font.h **** #include "../lv_conf_internal.h"
  17:Drivers/lvgl/lvgl/src/extra/widgets/span/../../../../src/hal/../draw/../misc/../font/lv_font.h **** #include <stdint.h>
  18:Drivers/lvgl/lvgl/src/extra/widgets/span/../../../../src/hal/../draw/../misc/../font/lv_font.h **** #include <stddef.h>
  19:Drivers/lvgl/lvgl/src/extra/widgets/span/../../../../src/hal/../draw/../misc/../font/lv_font.h **** #include <stdbool.h>
  20:Drivers/lvgl/lvgl/src/extra/widgets/span/../../../../src/hal/../draw/../misc/../font/lv_font.h **** 
  21:Drivers/lvgl/lvgl/src/extra/widgets/span/../../../../src/hal/../draw/../misc/../font/lv_font.h **** #include "lv_symbol_def.h"
  22:Drivers/lvgl/lvgl/src/extra/widgets/span/../../../../src/hal/../draw/../misc/../font/lv_font.h **** #include "../misc/lv_area.h"
  23:Drivers/lvgl/lvgl/src/extra/widgets/span/../../../../src/hal/../draw/../misc/../font/lv_font.h **** 
  24:Drivers/lvgl/lvgl/src/extra/widgets/span/../../../../src/hal/../draw/../misc/../font/lv_font.h **** /*********************
  25:Drivers/lvgl/lvgl/src/extra/widgets/span/../../../../src/hal/../draw/../misc/../font/lv_font.h ****  *      DEFINES
  26:Drivers/lvgl/lvgl/src/extra/widgets/span/../../../../src/hal/../draw/../misc/../font/lv_font.h ****  *********************/
  27:Drivers/lvgl/lvgl/src/extra/widgets/span/../../../../src/hal/../draw/../misc/../font/lv_font.h **** 
  28:Drivers/lvgl/lvgl/src/extra/widgets/span/../../../../src/hal/../draw/../misc/../font/lv_font.h **** /* imgfont identifier */
  29:Drivers/lvgl/lvgl/src/extra/widgets/span/../../../../src/hal/../draw/../misc/../font/lv_font.h **** #define LV_IMGFONT_BPP 9
  30:Drivers/lvgl/lvgl/src/extra/widgets/span/../../../../src/hal/../draw/../misc/../font/lv_font.h **** 
  31:Drivers/lvgl/lvgl/src/extra/widgets/span/../../../../src/hal/../draw/../misc/../font/lv_font.h **** /**********************
  32:Drivers/lvgl/lvgl/src/extra/widgets/span/../../../../src/hal/../draw/../misc/../font/lv_font.h ****  *      TYPEDEFS
  33:Drivers/lvgl/lvgl/src/extra/widgets/span/../../../../src/hal/../draw/../misc/../font/lv_font.h ****  **********************/
  34:Drivers/lvgl/lvgl/src/extra/widgets/span/../../../../src/hal/../draw/../misc/../font/lv_font.h **** 
  35:Drivers/lvgl/lvgl/src/extra/widgets/span/../../../../src/hal/../draw/../misc/../font/lv_font.h **** /*------------------
  36:Drivers/lvgl/lvgl/src/extra/widgets/span/../../../../src/hal/../draw/../misc/../font/lv_font.h ****  * General types
  37:Drivers/lvgl/lvgl/src/extra/widgets/span/../../../../src/hal/../draw/../misc/../font/lv_font.h ****  *-----------------*/
  38:Drivers/lvgl/lvgl/src/extra/widgets/span/../../../../src/hal/../draw/../misc/../font/lv_font.h **** 
  39:Drivers/lvgl/lvgl/src/extra/widgets/span/../../../../src/hal/../draw/../misc/../font/lv_font.h **** struct _lv_font_t;
  40:Drivers/lvgl/lvgl/src/extra/widgets/span/../../../../src/hal/../draw/../misc/../font/lv_font.h **** /** Describes the properties of a glyph.*/
ARM GAS  /tmp/ccuuAFti.s 			page 50


  41:Drivers/lvgl/lvgl/src/extra/widgets/span/../../../../src/hal/../draw/../misc/../font/lv_font.h **** typedef struct {
  42:Drivers/lvgl/lvgl/src/extra/widgets/span/../../../../src/hal/../draw/../misc/../font/lv_font.h ****     const struct _lv_font_t *
  43:Drivers/lvgl/lvgl/src/extra/widgets/span/../../../../src/hal/../draw/../misc/../font/lv_font.h ****         resolved_font; /**< Pointer to a font where the glyph was actually found after handling fal
  44:Drivers/lvgl/lvgl/src/extra/widgets/span/../../../../src/hal/../draw/../misc/../font/lv_font.h ****     uint16_t adv_w; /**< The glyph needs this space. Draw the next glyph after this width.*/
  45:Drivers/lvgl/lvgl/src/extra/widgets/span/../../../../src/hal/../draw/../misc/../font/lv_font.h ****     uint16_t box_w; /**< Width of the glyph's bounding box*/
  46:Drivers/lvgl/lvgl/src/extra/widgets/span/../../../../src/hal/../draw/../misc/../font/lv_font.h ****     uint16_t box_h; /**< Height of the glyph's bounding box*/
  47:Drivers/lvgl/lvgl/src/extra/widgets/span/../../../../src/hal/../draw/../misc/../font/lv_font.h ****     int16_t ofs_x;  /**< x offset of the bounding box*/
  48:Drivers/lvgl/lvgl/src/extra/widgets/span/../../../../src/hal/../draw/../misc/../font/lv_font.h ****     int16_t ofs_y;  /**< y offset of the bounding box*/
  49:Drivers/lvgl/lvgl/src/extra/widgets/span/../../../../src/hal/../draw/../misc/../font/lv_font.h ****     uint8_t bpp: 4;  /**< Bit-per-pixel: 1, 2, 4, 8*/
  50:Drivers/lvgl/lvgl/src/extra/widgets/span/../../../../src/hal/../draw/../misc/../font/lv_font.h ****     uint8_t is_placeholder: 1; /** Glyph is missing. But placeholder will still be displayed */
  51:Drivers/lvgl/lvgl/src/extra/widgets/span/../../../../src/hal/../draw/../misc/../font/lv_font.h **** } lv_font_glyph_dsc_t;
  52:Drivers/lvgl/lvgl/src/extra/widgets/span/../../../../src/hal/../draw/../misc/../font/lv_font.h **** 
  53:Drivers/lvgl/lvgl/src/extra/widgets/span/../../../../src/hal/../draw/../misc/../font/lv_font.h **** /** The bitmaps might be upscaled by 3 to achieve subpixel rendering.*/
  54:Drivers/lvgl/lvgl/src/extra/widgets/span/../../../../src/hal/../draw/../misc/../font/lv_font.h **** enum {
  55:Drivers/lvgl/lvgl/src/extra/widgets/span/../../../../src/hal/../draw/../misc/../font/lv_font.h ****     LV_FONT_SUBPX_NONE,
  56:Drivers/lvgl/lvgl/src/extra/widgets/span/../../../../src/hal/../draw/../misc/../font/lv_font.h ****     LV_FONT_SUBPX_HOR,
  57:Drivers/lvgl/lvgl/src/extra/widgets/span/../../../../src/hal/../draw/../misc/../font/lv_font.h ****     LV_FONT_SUBPX_VER,
  58:Drivers/lvgl/lvgl/src/extra/widgets/span/../../../../src/hal/../draw/../misc/../font/lv_font.h ****     LV_FONT_SUBPX_BOTH,
  59:Drivers/lvgl/lvgl/src/extra/widgets/span/../../../../src/hal/../draw/../misc/../font/lv_font.h **** };
  60:Drivers/lvgl/lvgl/src/extra/widgets/span/../../../../src/hal/../draw/../misc/../font/lv_font.h **** 
  61:Drivers/lvgl/lvgl/src/extra/widgets/span/../../../../src/hal/../draw/../misc/../font/lv_font.h **** typedef uint8_t lv_font_subpx_t;
  62:Drivers/lvgl/lvgl/src/extra/widgets/span/../../../../src/hal/../draw/../misc/../font/lv_font.h **** 
  63:Drivers/lvgl/lvgl/src/extra/widgets/span/../../../../src/hal/../draw/../misc/../font/lv_font.h **** /** Describe the properties of a font*/
  64:Drivers/lvgl/lvgl/src/extra/widgets/span/../../../../src/hal/../draw/../misc/../font/lv_font.h **** typedef struct _lv_font_t {
  65:Drivers/lvgl/lvgl/src/extra/widgets/span/../../../../src/hal/../draw/../misc/../font/lv_font.h ****     /** Get a glyph's descriptor from a font*/
  66:Drivers/lvgl/lvgl/src/extra/widgets/span/../../../../src/hal/../draw/../misc/../font/lv_font.h ****     bool (*get_glyph_dsc)(const struct _lv_font_t *, lv_font_glyph_dsc_t *, uint32_t letter, uint32
  67:Drivers/lvgl/lvgl/src/extra/widgets/span/../../../../src/hal/../draw/../misc/../font/lv_font.h **** 
  68:Drivers/lvgl/lvgl/src/extra/widgets/span/../../../../src/hal/../draw/../misc/../font/lv_font.h ****     /** Get a glyph's bitmap from a font*/
  69:Drivers/lvgl/lvgl/src/extra/widgets/span/../../../../src/hal/../draw/../misc/../font/lv_font.h ****     const uint8_t * (*get_glyph_bitmap)(const struct _lv_font_t *, uint32_t);
  70:Drivers/lvgl/lvgl/src/extra/widgets/span/../../../../src/hal/../draw/../misc/../font/lv_font.h **** 
  71:Drivers/lvgl/lvgl/src/extra/widgets/span/../../../../src/hal/../draw/../misc/../font/lv_font.h ****     /*Pointer to the font in a font pack (must have the same line height)*/
  72:Drivers/lvgl/lvgl/src/extra/widgets/span/../../../../src/hal/../draw/../misc/../font/lv_font.h ****     lv_coord_t line_height;         /**< The real line height where any text fits*/
  73:Drivers/lvgl/lvgl/src/extra/widgets/span/../../../../src/hal/../draw/../misc/../font/lv_font.h ****     lv_coord_t base_line;           /**< Base line measured from the top of the line_height*/
  74:Drivers/lvgl/lvgl/src/extra/widgets/span/../../../../src/hal/../draw/../misc/../font/lv_font.h ****     uint8_t subpx  : 2;             /**< An element of `lv_font_subpx_t`*/
  75:Drivers/lvgl/lvgl/src/extra/widgets/span/../../../../src/hal/../draw/../misc/../font/lv_font.h **** 
  76:Drivers/lvgl/lvgl/src/extra/widgets/span/../../../../src/hal/../draw/../misc/../font/lv_font.h ****     int8_t underline_position;      /**< Distance between the top of the underline and base line (<
  77:Drivers/lvgl/lvgl/src/extra/widgets/span/../../../../src/hal/../draw/../misc/../font/lv_font.h ****     int8_t underline_thickness;     /**< Thickness of the underline*/
  78:Drivers/lvgl/lvgl/src/extra/widgets/span/../../../../src/hal/../draw/../misc/../font/lv_font.h **** 
  79:Drivers/lvgl/lvgl/src/extra/widgets/span/../../../../src/hal/../draw/../misc/../font/lv_font.h ****     const void * dsc;               /**< Store implementation specific or run_time data or caching 
  80:Drivers/lvgl/lvgl/src/extra/widgets/span/../../../../src/hal/../draw/../misc/../font/lv_font.h ****     const struct _lv_font_t * fallback;   /**< Fallback font for missing glyph. Resolved recursivel
  81:Drivers/lvgl/lvgl/src/extra/widgets/span/../../../../src/hal/../draw/../misc/../font/lv_font.h **** #if LV_USE_USER_DATA
  82:Drivers/lvgl/lvgl/src/extra/widgets/span/../../../../src/hal/../draw/../misc/../font/lv_font.h ****     void * user_data;               /**< Custom user data for font.*/
  83:Drivers/lvgl/lvgl/src/extra/widgets/span/../../../../src/hal/../draw/../misc/../font/lv_font.h **** #endif
  84:Drivers/lvgl/lvgl/src/extra/widgets/span/../../../../src/hal/../draw/../misc/../font/lv_font.h **** } lv_font_t;
  85:Drivers/lvgl/lvgl/src/extra/widgets/span/../../../../src/hal/../draw/../misc/../font/lv_font.h **** 
  86:Drivers/lvgl/lvgl/src/extra/widgets/span/../../../../src/hal/../draw/../misc/../font/lv_font.h **** /**********************
  87:Drivers/lvgl/lvgl/src/extra/widgets/span/../../../../src/hal/../draw/../misc/../font/lv_font.h ****  * GLOBAL PROTOTYPES
  88:Drivers/lvgl/lvgl/src/extra/widgets/span/../../../../src/hal/../draw/../misc/../font/lv_font.h ****  **********************/
  89:Drivers/lvgl/lvgl/src/extra/widgets/span/../../../../src/hal/../draw/../misc/../font/lv_font.h **** 
  90:Drivers/lvgl/lvgl/src/extra/widgets/span/../../../../src/hal/../draw/../misc/../font/lv_font.h **** /**
  91:Drivers/lvgl/lvgl/src/extra/widgets/span/../../../../src/hal/../draw/../misc/../font/lv_font.h ****  * Return with the bitmap of a font.
  92:Drivers/lvgl/lvgl/src/extra/widgets/span/../../../../src/hal/../draw/../misc/../font/lv_font.h ****  * @param font_p pointer to a font
  93:Drivers/lvgl/lvgl/src/extra/widgets/span/../../../../src/hal/../draw/../misc/../font/lv_font.h ****  * @param letter a UNICODE character code
  94:Drivers/lvgl/lvgl/src/extra/widgets/span/../../../../src/hal/../draw/../misc/../font/lv_font.h ****  * @return pointer to the bitmap of the letter
  95:Drivers/lvgl/lvgl/src/extra/widgets/span/../../../../src/hal/../draw/../misc/../font/lv_font.h ****  */
  96:Drivers/lvgl/lvgl/src/extra/widgets/span/../../../../src/hal/../draw/../misc/../font/lv_font.h **** const uint8_t * lv_font_get_glyph_bitmap(const lv_font_t * font_p, uint32_t letter);
  97:Drivers/lvgl/lvgl/src/extra/widgets/span/../../../../src/hal/../draw/../misc/../font/lv_font.h **** 
ARM GAS  /tmp/ccuuAFti.s 			page 51


  98:Drivers/lvgl/lvgl/src/extra/widgets/span/../../../../src/hal/../draw/../misc/../font/lv_font.h **** /**
  99:Drivers/lvgl/lvgl/src/extra/widgets/span/../../../../src/hal/../draw/../misc/../font/lv_font.h ****  * Get the descriptor of a glyph
 100:Drivers/lvgl/lvgl/src/extra/widgets/span/../../../../src/hal/../draw/../misc/../font/lv_font.h ****  * @param font_p pointer to font
 101:Drivers/lvgl/lvgl/src/extra/widgets/span/../../../../src/hal/../draw/../misc/../font/lv_font.h ****  * @param dsc_out store the result descriptor here
 102:Drivers/lvgl/lvgl/src/extra/widgets/span/../../../../src/hal/../draw/../misc/../font/lv_font.h ****  * @param letter a UNICODE letter code
 103:Drivers/lvgl/lvgl/src/extra/widgets/span/../../../../src/hal/../draw/../misc/../font/lv_font.h ****  * @param letter_next the next letter after `letter`. Used for kerning
 104:Drivers/lvgl/lvgl/src/extra/widgets/span/../../../../src/hal/../draw/../misc/../font/lv_font.h ****  * @return true: descriptor is successfully loaded into `dsc_out`.
 105:Drivers/lvgl/lvgl/src/extra/widgets/span/../../../../src/hal/../draw/../misc/../font/lv_font.h ****  *         false: the letter was not found, no data is loaded to `dsc_out`
 106:Drivers/lvgl/lvgl/src/extra/widgets/span/../../../../src/hal/../draw/../misc/../font/lv_font.h ****  */
 107:Drivers/lvgl/lvgl/src/extra/widgets/span/../../../../src/hal/../draw/../misc/../font/lv_font.h **** bool lv_font_get_glyph_dsc(const lv_font_t * font_p, lv_font_glyph_dsc_t * dsc_out, uint32_t letter
 108:Drivers/lvgl/lvgl/src/extra/widgets/span/../../../../src/hal/../draw/../misc/../font/lv_font.h ****                            uint32_t letter_next);
 109:Drivers/lvgl/lvgl/src/extra/widgets/span/../../../../src/hal/../draw/../misc/../font/lv_font.h **** 
 110:Drivers/lvgl/lvgl/src/extra/widgets/span/../../../../src/hal/../draw/../misc/../font/lv_font.h **** /**
 111:Drivers/lvgl/lvgl/src/extra/widgets/span/../../../../src/hal/../draw/../misc/../font/lv_font.h ****  * Get the width of a glyph with kerning
 112:Drivers/lvgl/lvgl/src/extra/widgets/span/../../../../src/hal/../draw/../misc/../font/lv_font.h ****  * @param font pointer to a font
 113:Drivers/lvgl/lvgl/src/extra/widgets/span/../../../../src/hal/../draw/../misc/../font/lv_font.h ****  * @param letter a UNICODE letter
 114:Drivers/lvgl/lvgl/src/extra/widgets/span/../../../../src/hal/../draw/../misc/../font/lv_font.h ****  * @param letter_next the next letter after `letter`. Used for kerning
 115:Drivers/lvgl/lvgl/src/extra/widgets/span/../../../../src/hal/../draw/../misc/../font/lv_font.h ****  * @return the width of the glyph
 116:Drivers/lvgl/lvgl/src/extra/widgets/span/../../../../src/hal/../draw/../misc/../font/lv_font.h ****  */
 117:Drivers/lvgl/lvgl/src/extra/widgets/span/../../../../src/hal/../draw/../misc/../font/lv_font.h **** uint16_t lv_font_get_glyph_width(const lv_font_t * font, uint32_t letter, uint32_t letter_next);
 118:Drivers/lvgl/lvgl/src/extra/widgets/span/../../../../src/hal/../draw/../misc/../font/lv_font.h **** 
 119:Drivers/lvgl/lvgl/src/extra/widgets/span/../../../../src/hal/../draw/../misc/../font/lv_font.h **** /**
 120:Drivers/lvgl/lvgl/src/extra/widgets/span/../../../../src/hal/../draw/../misc/../font/lv_font.h ****  * Get the line height of a font. All characters fit into this height
 121:Drivers/lvgl/lvgl/src/extra/widgets/span/../../../../src/hal/../draw/../misc/../font/lv_font.h ****  * @param font_p pointer to a font
 122:Drivers/lvgl/lvgl/src/extra/widgets/span/../../../../src/hal/../draw/../misc/../font/lv_font.h ****  * @return the height of a font
 123:Drivers/lvgl/lvgl/src/extra/widgets/span/../../../../src/hal/../draw/../misc/../font/lv_font.h ****  */
 124:Drivers/lvgl/lvgl/src/extra/widgets/span/../../../../src/hal/../draw/../misc/../font/lv_font.h **** static inline lv_coord_t lv_font_get_line_height(const lv_font_t * font_p)
 125:Drivers/lvgl/lvgl/src/extra/widgets/span/../../../../src/hal/../draw/../misc/../font/lv_font.h **** {
 126:Drivers/lvgl/lvgl/src/extra/widgets/span/../../../../src/hal/../draw/../misc/../font/lv_font.h ****     return font_p->line_height;
 985              		.loc 4 126 0
 986 0116 B3F90830 		ldrsh	r3, [r3, #8]
 987              	.LVL119:
 988              	.LBE110:
 989              	.LBE109:
 826:Drivers/lvgl/lvgl/src/extra/widgets/span/lv_span.c ****             }
 990              		.loc 1 826 0
 991 011a 0E9A     		ldr	r2, [sp, #56]
 992 011c 12FA83F3 		uxtah	r3, r2, r3
 993 0120 ADF8C030 		strh	r3, [sp, #192]	@ movhi
 994 0124 4AE0     		b	.L72
 995              	.LVL120:
 996              	.L133:
 997              	.LBB111:
 998              	.LBB112:
 999              	.LBB113:
 1000              		.file 5 "Drivers/lvgl/lvgl/src/extra/widgets/span/../../../../src/hal/../draw/../misc/lv_txt.h"
   1:Drivers/lvgl/lvgl/src/extra/widgets/span/../../../../src/hal/../draw/../misc/lv_txt.h **** /**
   2:Drivers/lvgl/lvgl/src/extra/widgets/span/../../../../src/hal/../draw/../misc/lv_txt.h ****  * @file lv_txt.h
   3:Drivers/lvgl/lvgl/src/extra/widgets/span/../../../../src/hal/../draw/../misc/lv_txt.h ****  *
   4:Drivers/lvgl/lvgl/src/extra/widgets/span/../../../../src/hal/../draw/../misc/lv_txt.h ****  */
   5:Drivers/lvgl/lvgl/src/extra/widgets/span/../../../../src/hal/../draw/../misc/lv_txt.h **** 
   6:Drivers/lvgl/lvgl/src/extra/widgets/span/../../../../src/hal/../draw/../misc/lv_txt.h **** #ifndef LV_TXT_H
   7:Drivers/lvgl/lvgl/src/extra/widgets/span/../../../../src/hal/../draw/../misc/lv_txt.h **** #define LV_TXT_H
   8:Drivers/lvgl/lvgl/src/extra/widgets/span/../../../../src/hal/../draw/../misc/lv_txt.h **** 
   9:Drivers/lvgl/lvgl/src/extra/widgets/span/../../../../src/hal/../draw/../misc/lv_txt.h **** #ifdef __cplusplus
  10:Drivers/lvgl/lvgl/src/extra/widgets/span/../../../../src/hal/../draw/../misc/lv_txt.h **** extern "C" {
  11:Drivers/lvgl/lvgl/src/extra/widgets/span/../../../../src/hal/../draw/../misc/lv_txt.h **** #endif
ARM GAS  /tmp/ccuuAFti.s 			page 52


  12:Drivers/lvgl/lvgl/src/extra/widgets/span/../../../../src/hal/../draw/../misc/lv_txt.h **** 
  13:Drivers/lvgl/lvgl/src/extra/widgets/span/../../../../src/hal/../draw/../misc/lv_txt.h **** /*********************
  14:Drivers/lvgl/lvgl/src/extra/widgets/span/../../../../src/hal/../draw/../misc/lv_txt.h ****  *      INCLUDES
  15:Drivers/lvgl/lvgl/src/extra/widgets/span/../../../../src/hal/../draw/../misc/lv_txt.h ****  *********************/
  16:Drivers/lvgl/lvgl/src/extra/widgets/span/../../../../src/hal/../draw/../misc/lv_txt.h **** #include "../lv_conf_internal.h"
  17:Drivers/lvgl/lvgl/src/extra/widgets/span/../../../../src/hal/../draw/../misc/lv_txt.h **** 
  18:Drivers/lvgl/lvgl/src/extra/widgets/span/../../../../src/hal/../draw/../misc/lv_txt.h **** #include <stdbool.h>
  19:Drivers/lvgl/lvgl/src/extra/widgets/span/../../../../src/hal/../draw/../misc/lv_txt.h **** #include <stdarg.h>
  20:Drivers/lvgl/lvgl/src/extra/widgets/span/../../../../src/hal/../draw/../misc/lv_txt.h **** #include "lv_area.h"
  21:Drivers/lvgl/lvgl/src/extra/widgets/span/../../../../src/hal/../draw/../misc/lv_txt.h **** #include "../font/lv_font.h"
  22:Drivers/lvgl/lvgl/src/extra/widgets/span/../../../../src/hal/../draw/../misc/lv_txt.h **** #include "lv_printf.h"
  23:Drivers/lvgl/lvgl/src/extra/widgets/span/../../../../src/hal/../draw/../misc/lv_txt.h **** #include "lv_types.h"
  24:Drivers/lvgl/lvgl/src/extra/widgets/span/../../../../src/hal/../draw/../misc/lv_txt.h **** 
  25:Drivers/lvgl/lvgl/src/extra/widgets/span/../../../../src/hal/../draw/../misc/lv_txt.h **** /*********************
  26:Drivers/lvgl/lvgl/src/extra/widgets/span/../../../../src/hal/../draw/../misc/lv_txt.h ****  *      DEFINES
  27:Drivers/lvgl/lvgl/src/extra/widgets/span/../../../../src/hal/../draw/../misc/lv_txt.h ****  *********************/
  28:Drivers/lvgl/lvgl/src/extra/widgets/span/../../../../src/hal/../draw/../misc/lv_txt.h **** #ifndef LV_TXT_COLOR_CMD
  29:Drivers/lvgl/lvgl/src/extra/widgets/span/../../../../src/hal/../draw/../misc/lv_txt.h **** #define LV_TXT_COLOR_CMD "#"
  30:Drivers/lvgl/lvgl/src/extra/widgets/span/../../../../src/hal/../draw/../misc/lv_txt.h **** #endif
  31:Drivers/lvgl/lvgl/src/extra/widgets/span/../../../../src/hal/../draw/../misc/lv_txt.h **** 
  32:Drivers/lvgl/lvgl/src/extra/widgets/span/../../../../src/hal/../draw/../misc/lv_txt.h **** #define LV_TXT_ENC_UTF8 1
  33:Drivers/lvgl/lvgl/src/extra/widgets/span/../../../../src/hal/../draw/../misc/lv_txt.h **** #define LV_TXT_ENC_ASCII 2
  34:Drivers/lvgl/lvgl/src/extra/widgets/span/../../../../src/hal/../draw/../misc/lv_txt.h **** 
  35:Drivers/lvgl/lvgl/src/extra/widgets/span/../../../../src/hal/../draw/../misc/lv_txt.h **** /**********************
  36:Drivers/lvgl/lvgl/src/extra/widgets/span/../../../../src/hal/../draw/../misc/lv_txt.h ****  *      TYPEDEFS
  37:Drivers/lvgl/lvgl/src/extra/widgets/span/../../../../src/hal/../draw/../misc/lv_txt.h ****  **********************/
  38:Drivers/lvgl/lvgl/src/extra/widgets/span/../../../../src/hal/../draw/../misc/lv_txt.h **** 
  39:Drivers/lvgl/lvgl/src/extra/widgets/span/../../../../src/hal/../draw/../misc/lv_txt.h **** /**
  40:Drivers/lvgl/lvgl/src/extra/widgets/span/../../../../src/hal/../draw/../misc/lv_txt.h ****  * Options for text rendering.
  41:Drivers/lvgl/lvgl/src/extra/widgets/span/../../../../src/hal/../draw/../misc/lv_txt.h ****  */
  42:Drivers/lvgl/lvgl/src/extra/widgets/span/../../../../src/hal/../draw/../misc/lv_txt.h **** enum {
