ARM GAS  /tmp/cc1tZdnZ.s 			page 1


   1              		.cpu cortex-m7
   2              		.eabi_attribute 28, 1
   3              		.eabi_attribute 20, 1
   4              		.eabi_attribute 21, 1
   5              		.eabi_attribute 23, 3
   6              		.eabi_attribute 24, 1
   7              		.eabi_attribute 25, 1
   8              		.eabi_attribute 26, 1
   9              		.eabi_attribute 30, 1
  10              		.eabi_attribute 34, 1
  11              		.eabi_attribute 18, 4
  12              		.file	"lv_spinner.c"
  13              		.text
  14              	.Ltext0:
  15              		.cfi_sections	.debug_frame
  16              		.section	.text.lv_spinner_constructor,"ax",%progbits
  17              		.align	1
  18              		.syntax unified
  19              		.thumb
  20              		.thumb_func
  21              		.fpu fpv5-d16
  23              	lv_spinner_constructor:
  24              	.LFB203:
  25              		.file 1 "Drivers/lvgl/lvgl/src/extra/widgets/spinner/lv_spinner.c"
   1:Drivers/lvgl/lvgl/src/extra/widgets/spinner/lv_spinner.c **** /**
   2:Drivers/lvgl/lvgl/src/extra/widgets/spinner/lv_spinner.c ****  * @file lv_spinner.c
   3:Drivers/lvgl/lvgl/src/extra/widgets/spinner/lv_spinner.c ****  *
   4:Drivers/lvgl/lvgl/src/extra/widgets/spinner/lv_spinner.c ****  */
   5:Drivers/lvgl/lvgl/src/extra/widgets/spinner/lv_spinner.c **** 
   6:Drivers/lvgl/lvgl/src/extra/widgets/spinner/lv_spinner.c **** /*********************
   7:Drivers/lvgl/lvgl/src/extra/widgets/spinner/lv_spinner.c ****  *      INCLUDES
   8:Drivers/lvgl/lvgl/src/extra/widgets/spinner/lv_spinner.c ****  *********************/
   9:Drivers/lvgl/lvgl/src/extra/widgets/spinner/lv_spinner.c **** #include "lv_spinner.h"
  10:Drivers/lvgl/lvgl/src/extra/widgets/spinner/lv_spinner.c **** #if LV_USE_SPINNER
  11:Drivers/lvgl/lvgl/src/extra/widgets/spinner/lv_spinner.c **** 
  12:Drivers/lvgl/lvgl/src/extra/widgets/spinner/lv_spinner.c **** /*********************
  13:Drivers/lvgl/lvgl/src/extra/widgets/spinner/lv_spinner.c ****  *      DEFINES
  14:Drivers/lvgl/lvgl/src/extra/widgets/spinner/lv_spinner.c ****  *********************/
  15:Drivers/lvgl/lvgl/src/extra/widgets/spinner/lv_spinner.c **** 
  16:Drivers/lvgl/lvgl/src/extra/widgets/spinner/lv_spinner.c **** /**********************
  17:Drivers/lvgl/lvgl/src/extra/widgets/spinner/lv_spinner.c ****  *      TYPEDEFS
  18:Drivers/lvgl/lvgl/src/extra/widgets/spinner/lv_spinner.c ****  **********************/
  19:Drivers/lvgl/lvgl/src/extra/widgets/spinner/lv_spinner.c **** 
  20:Drivers/lvgl/lvgl/src/extra/widgets/spinner/lv_spinner.c **** /**********************
  21:Drivers/lvgl/lvgl/src/extra/widgets/spinner/lv_spinner.c ****  *  STATIC PROTOTYPES
  22:Drivers/lvgl/lvgl/src/extra/widgets/spinner/lv_spinner.c ****  **********************/
  23:Drivers/lvgl/lvgl/src/extra/widgets/spinner/lv_spinner.c **** static void lv_spinner_constructor(const lv_obj_class_t * class_p, lv_obj_t * obj);
  24:Drivers/lvgl/lvgl/src/extra/widgets/spinner/lv_spinner.c **** static void arc_anim_start_angle(void * obj, int32_t v);
  25:Drivers/lvgl/lvgl/src/extra/widgets/spinner/lv_spinner.c **** static void arc_anim_end_angle(void * obj, int32_t v);
  26:Drivers/lvgl/lvgl/src/extra/widgets/spinner/lv_spinner.c **** 
  27:Drivers/lvgl/lvgl/src/extra/widgets/spinner/lv_spinner.c **** /**********************
  28:Drivers/lvgl/lvgl/src/extra/widgets/spinner/lv_spinner.c ****  *  STATIC VARIABLES
  29:Drivers/lvgl/lvgl/src/extra/widgets/spinner/lv_spinner.c ****  **********************/
  30:Drivers/lvgl/lvgl/src/extra/widgets/spinner/lv_spinner.c **** const lv_obj_class_t lv_spinner_class = {
  31:Drivers/lvgl/lvgl/src/extra/widgets/spinner/lv_spinner.c ****     .base_class = &lv_arc_class,
  32:Drivers/lvgl/lvgl/src/extra/widgets/spinner/lv_spinner.c ****     .constructor_cb = lv_spinner_constructor
  33:Drivers/lvgl/lvgl/src/extra/widgets/spinner/lv_spinner.c **** };
ARM GAS  /tmp/cc1tZdnZ.s 			page 2


  34:Drivers/lvgl/lvgl/src/extra/widgets/spinner/lv_spinner.c **** 
  35:Drivers/lvgl/lvgl/src/extra/widgets/spinner/lv_spinner.c **** static uint32_t time_param;
  36:Drivers/lvgl/lvgl/src/extra/widgets/spinner/lv_spinner.c **** static uint32_t arc_length_param;
  37:Drivers/lvgl/lvgl/src/extra/widgets/spinner/lv_spinner.c **** 
  38:Drivers/lvgl/lvgl/src/extra/widgets/spinner/lv_spinner.c **** /**********************
  39:Drivers/lvgl/lvgl/src/extra/widgets/spinner/lv_spinner.c ****  *      MACROS
  40:Drivers/lvgl/lvgl/src/extra/widgets/spinner/lv_spinner.c ****  **********************/
  41:Drivers/lvgl/lvgl/src/extra/widgets/spinner/lv_spinner.c **** 
  42:Drivers/lvgl/lvgl/src/extra/widgets/spinner/lv_spinner.c **** /**********************
  43:Drivers/lvgl/lvgl/src/extra/widgets/spinner/lv_spinner.c ****  *   GLOBAL FUNCTIONS
  44:Drivers/lvgl/lvgl/src/extra/widgets/spinner/lv_spinner.c ****  **********************/
  45:Drivers/lvgl/lvgl/src/extra/widgets/spinner/lv_spinner.c **** 
  46:Drivers/lvgl/lvgl/src/extra/widgets/spinner/lv_spinner.c **** /**
  47:Drivers/lvgl/lvgl/src/extra/widgets/spinner/lv_spinner.c ****  * Create a spinner object
  48:Drivers/lvgl/lvgl/src/extra/widgets/spinner/lv_spinner.c ****  * @param parent pointer to an object, it will be the parent of the new spinner
  49:Drivers/lvgl/lvgl/src/extra/widgets/spinner/lv_spinner.c ****  * @return pointer to the created spinner
  50:Drivers/lvgl/lvgl/src/extra/widgets/spinner/lv_spinner.c ****  */
  51:Drivers/lvgl/lvgl/src/extra/widgets/spinner/lv_spinner.c **** lv_obj_t * lv_spinner_create(lv_obj_t * parent, uint32_t time, uint32_t arc_length)
  52:Drivers/lvgl/lvgl/src/extra/widgets/spinner/lv_spinner.c **** {
  53:Drivers/lvgl/lvgl/src/extra/widgets/spinner/lv_spinner.c ****     time_param = time;
  54:Drivers/lvgl/lvgl/src/extra/widgets/spinner/lv_spinner.c ****     arc_length_param = arc_length;
  55:Drivers/lvgl/lvgl/src/extra/widgets/spinner/lv_spinner.c **** 
  56:Drivers/lvgl/lvgl/src/extra/widgets/spinner/lv_spinner.c ****     lv_obj_t * obj = lv_obj_class_create_obj(&lv_spinner_class, parent);
  57:Drivers/lvgl/lvgl/src/extra/widgets/spinner/lv_spinner.c ****     lv_obj_class_init_obj(obj);
  58:Drivers/lvgl/lvgl/src/extra/widgets/spinner/lv_spinner.c ****     return obj;
  59:Drivers/lvgl/lvgl/src/extra/widgets/spinner/lv_spinner.c **** }
  60:Drivers/lvgl/lvgl/src/extra/widgets/spinner/lv_spinner.c **** 
  61:Drivers/lvgl/lvgl/src/extra/widgets/spinner/lv_spinner.c **** 
  62:Drivers/lvgl/lvgl/src/extra/widgets/spinner/lv_spinner.c **** /**********************
  63:Drivers/lvgl/lvgl/src/extra/widgets/spinner/lv_spinner.c ****  *   STATIC FUNCTIONS
  64:Drivers/lvgl/lvgl/src/extra/widgets/spinner/lv_spinner.c ****  **********************/
  65:Drivers/lvgl/lvgl/src/extra/widgets/spinner/lv_spinner.c **** 
  66:Drivers/lvgl/lvgl/src/extra/widgets/spinner/lv_spinner.c **** static void lv_spinner_constructor(const lv_obj_class_t * class_p, lv_obj_t * obj)
  67:Drivers/lvgl/lvgl/src/extra/widgets/spinner/lv_spinner.c **** {
  26              		.loc 1 67 0
  27              		.cfi_startproc
  28              		@ args = 0, pretend = 0, frame = 72
  29              		@ frame_needed = 0, uses_anonymous_args = 0
  30              	.LVL0:
  31 0000 70B5     		push	{r4, r5, r6, lr}
  32              	.LCFI0:
  33              		.cfi_def_cfa_offset 16
  34              		.cfi_offset 4, -16
  35              		.cfi_offset 5, -12
  36              		.cfi_offset 6, -8
  37              		.cfi_offset 14, -4
  38 0002 92B0     		sub	sp, sp, #72
  39              	.LCFI1:
  40              		.cfi_def_cfa_offset 88
  41 0004 0C46     		mov	r4, r1
  68:Drivers/lvgl/lvgl/src/extra/widgets/spinner/lv_spinner.c ****     LV_TRACE_OBJ_CREATE("begin");
  69:Drivers/lvgl/lvgl/src/extra/widgets/spinner/lv_spinner.c **** 
  70:Drivers/lvgl/lvgl/src/extra/widgets/spinner/lv_spinner.c ****     LV_UNUSED(class_p);
  71:Drivers/lvgl/lvgl/src/extra/widgets/spinner/lv_spinner.c **** 
  72:Drivers/lvgl/lvgl/src/extra/widgets/spinner/lv_spinner.c ****     lv_obj_clear_flag(obj, LV_OBJ_FLAG_CLICKABLE);
  42              		.loc 1 72 0
  43 0006 0221     		movs	r1, #2
ARM GAS  /tmp/cc1tZdnZ.s 			page 3


  44              	.LVL1:
  45 0008 2046     		mov	r0, r4
  46              	.LVL2:
  47 000a FFF7FEFF 		bl	lv_obj_clear_flag
  48              	.LVL3:
  73:Drivers/lvgl/lvgl/src/extra/widgets/spinner/lv_spinner.c **** 
  74:Drivers/lvgl/lvgl/src/extra/widgets/spinner/lv_spinner.c ****     lv_anim_t a;
  75:Drivers/lvgl/lvgl/src/extra/widgets/spinner/lv_spinner.c ****     lv_anim_init(&a);
  49              		.loc 1 75 0
  50 000e 01A8     		add	r0, sp, #4
  51 0010 FFF7FEFF 		bl	lv_anim_init
  52              	.LVL4:
  53              	.LBB18:
  54              	.LBB19:
  55              		.file 2 "Drivers/lvgl/lvgl/src/extra/widgets/spinner/../../../../src/misc/lv_anim.h"
   1:Drivers/lvgl/lvgl/src/extra/widgets/spinner/../../../../src/misc/lv_anim.h **** /**
   2:Drivers/lvgl/lvgl/src/extra/widgets/spinner/../../../../src/misc/lv_anim.h ****  * @file lv_anim.h
   3:Drivers/lvgl/lvgl/src/extra/widgets/spinner/../../../../src/misc/lv_anim.h ****  *
   4:Drivers/lvgl/lvgl/src/extra/widgets/spinner/../../../../src/misc/lv_anim.h ****  */
   5:Drivers/lvgl/lvgl/src/extra/widgets/spinner/../../../../src/misc/lv_anim.h **** 
   6:Drivers/lvgl/lvgl/src/extra/widgets/spinner/../../../../src/misc/lv_anim.h **** #ifndef LV_ANIM_H
   7:Drivers/lvgl/lvgl/src/extra/widgets/spinner/../../../../src/misc/lv_anim.h **** #define LV_ANIM_H
   8:Drivers/lvgl/lvgl/src/extra/widgets/spinner/../../../../src/misc/lv_anim.h **** 
   9:Drivers/lvgl/lvgl/src/extra/widgets/spinner/../../../../src/misc/lv_anim.h **** #ifdef __cplusplus
  10:Drivers/lvgl/lvgl/src/extra/widgets/spinner/../../../../src/misc/lv_anim.h **** extern "C" {
  11:Drivers/lvgl/lvgl/src/extra/widgets/spinner/../../../../src/misc/lv_anim.h **** #endif
  12:Drivers/lvgl/lvgl/src/extra/widgets/spinner/../../../../src/misc/lv_anim.h **** 
  13:Drivers/lvgl/lvgl/src/extra/widgets/spinner/../../../../src/misc/lv_anim.h **** /*********************
  14:Drivers/lvgl/lvgl/src/extra/widgets/spinner/../../../../src/misc/lv_anim.h ****  *      INCLUDES
  15:Drivers/lvgl/lvgl/src/extra/widgets/spinner/../../../../src/misc/lv_anim.h ****  *********************/
  16:Drivers/lvgl/lvgl/src/extra/widgets/spinner/../../../../src/misc/lv_anim.h **** #include "../lv_conf_internal.h"
  17:Drivers/lvgl/lvgl/src/extra/widgets/spinner/../../../../src/misc/lv_anim.h **** 
  18:Drivers/lvgl/lvgl/src/extra/widgets/spinner/../../../../src/misc/lv_anim.h **** #include <stdint.h>
  19:Drivers/lvgl/lvgl/src/extra/widgets/spinner/../../../../src/misc/lv_anim.h **** #include <stdbool.h>
  20:Drivers/lvgl/lvgl/src/extra/widgets/spinner/../../../../src/misc/lv_anim.h **** #include <stddef.h>
  21:Drivers/lvgl/lvgl/src/extra/widgets/spinner/../../../../src/misc/lv_anim.h **** 
  22:Drivers/lvgl/lvgl/src/extra/widgets/spinner/../../../../src/misc/lv_anim.h **** /*********************
  23:Drivers/lvgl/lvgl/src/extra/widgets/spinner/../../../../src/misc/lv_anim.h ****  *      DEFINES
  24:Drivers/lvgl/lvgl/src/extra/widgets/spinner/../../../../src/misc/lv_anim.h ****  *********************/
  25:Drivers/lvgl/lvgl/src/extra/widgets/spinner/../../../../src/misc/lv_anim.h **** 
  26:Drivers/lvgl/lvgl/src/extra/widgets/spinner/../../../../src/misc/lv_anim.h **** #define LV_ANIM_REPEAT_INFINITE      0xFFFF
  27:Drivers/lvgl/lvgl/src/extra/widgets/spinner/../../../../src/misc/lv_anim.h **** #define LV_ANIM_PLAYTIME_INFINITE    0xFFFFFFFF
  28:Drivers/lvgl/lvgl/src/extra/widgets/spinner/../../../../src/misc/lv_anim.h **** 
  29:Drivers/lvgl/lvgl/src/extra/widgets/spinner/../../../../src/misc/lv_anim.h **** LV_EXPORT_CONST_INT(LV_ANIM_REPEAT_INFINITE);
  30:Drivers/lvgl/lvgl/src/extra/widgets/spinner/../../../../src/misc/lv_anim.h **** LV_EXPORT_CONST_INT(LV_ANIM_PLAYTIME_INFINITE);
  31:Drivers/lvgl/lvgl/src/extra/widgets/spinner/../../../../src/misc/lv_anim.h **** 
  32:Drivers/lvgl/lvgl/src/extra/widgets/spinner/../../../../src/misc/lv_anim.h **** /**********************
  33:Drivers/lvgl/lvgl/src/extra/widgets/spinner/../../../../src/misc/lv_anim.h ****  *      TYPEDEFS
  34:Drivers/lvgl/lvgl/src/extra/widgets/spinner/../../../../src/misc/lv_anim.h ****  **********************/
  35:Drivers/lvgl/lvgl/src/extra/widgets/spinner/../../../../src/misc/lv_anim.h **** 
  36:Drivers/lvgl/lvgl/src/extra/widgets/spinner/../../../../src/misc/lv_anim.h **** /** Can be used to indicate if animations are enabled or disabled in a case*/
  37:Drivers/lvgl/lvgl/src/extra/widgets/spinner/../../../../src/misc/lv_anim.h **** typedef enum {
  38:Drivers/lvgl/lvgl/src/extra/widgets/spinner/../../../../src/misc/lv_anim.h ****     LV_ANIM_OFF,
  39:Drivers/lvgl/lvgl/src/extra/widgets/spinner/../../../../src/misc/lv_anim.h ****     LV_ANIM_ON,
  40:Drivers/lvgl/lvgl/src/extra/widgets/spinner/../../../../src/misc/lv_anim.h **** } lv_anim_enable_t;
  41:Drivers/lvgl/lvgl/src/extra/widgets/spinner/../../../../src/misc/lv_anim.h **** 
  42:Drivers/lvgl/lvgl/src/extra/widgets/spinner/../../../../src/misc/lv_anim.h **** struct _lv_anim_t;
ARM GAS  /tmp/cc1tZdnZ.s 			page 4


  43:Drivers/lvgl/lvgl/src/extra/widgets/spinner/../../../../src/misc/lv_anim.h **** struct _lv_timer_t;
  44:Drivers/lvgl/lvgl/src/extra/widgets/spinner/../../../../src/misc/lv_anim.h **** 
  45:Drivers/lvgl/lvgl/src/extra/widgets/spinner/../../../../src/misc/lv_anim.h **** /** Get the current value during an animation*/
  46:Drivers/lvgl/lvgl/src/extra/widgets/spinner/../../../../src/misc/lv_anim.h **** typedef int32_t (*lv_anim_path_cb_t)(const struct _lv_anim_t *);
  47:Drivers/lvgl/lvgl/src/extra/widgets/spinner/../../../../src/misc/lv_anim.h **** 
  48:Drivers/lvgl/lvgl/src/extra/widgets/spinner/../../../../src/misc/lv_anim.h **** /** Generic prototype of "animator" functions.
  49:Drivers/lvgl/lvgl/src/extra/widgets/spinner/../../../../src/misc/lv_anim.h ****  * First parameter is the variable to animate.
  50:Drivers/lvgl/lvgl/src/extra/widgets/spinner/../../../../src/misc/lv_anim.h ****  * Second parameter is the value to set.
  51:Drivers/lvgl/lvgl/src/extra/widgets/spinner/../../../../src/misc/lv_anim.h ****  * Compatible with `lv_xxx_set_yyy(obj, value)` functions
  52:Drivers/lvgl/lvgl/src/extra/widgets/spinner/../../../../src/misc/lv_anim.h ****  * The `x` in `_xcb_t` means it's not a fully generic prototype because
  53:Drivers/lvgl/lvgl/src/extra/widgets/spinner/../../../../src/misc/lv_anim.h ****  * it doesn't receive `lv_anim_t *` as its first argument*/
  54:Drivers/lvgl/lvgl/src/extra/widgets/spinner/../../../../src/misc/lv_anim.h **** typedef void (*lv_anim_exec_xcb_t)(void *, int32_t);
  55:Drivers/lvgl/lvgl/src/extra/widgets/spinner/../../../../src/misc/lv_anim.h **** 
  56:Drivers/lvgl/lvgl/src/extra/widgets/spinner/../../../../src/misc/lv_anim.h **** /** Same as `lv_anim_exec_xcb_t` but receives `lv_anim_t *` as the first parameter.
  57:Drivers/lvgl/lvgl/src/extra/widgets/spinner/../../../../src/misc/lv_anim.h ****  * It's more consistent but less convenient. Might be used by binding generator functions.*/
  58:Drivers/lvgl/lvgl/src/extra/widgets/spinner/../../../../src/misc/lv_anim.h **** typedef void (*lv_anim_custom_exec_cb_t)(struct _lv_anim_t *, int32_t);
  59:Drivers/lvgl/lvgl/src/extra/widgets/spinner/../../../../src/misc/lv_anim.h **** 
  60:Drivers/lvgl/lvgl/src/extra/widgets/spinner/../../../../src/misc/lv_anim.h **** /** Callback to call when the animation is ready*/
  61:Drivers/lvgl/lvgl/src/extra/widgets/spinner/../../../../src/misc/lv_anim.h **** typedef void (*lv_anim_ready_cb_t)(struct _lv_anim_t *);
  62:Drivers/lvgl/lvgl/src/extra/widgets/spinner/../../../../src/misc/lv_anim.h **** 
  63:Drivers/lvgl/lvgl/src/extra/widgets/spinner/../../../../src/misc/lv_anim.h **** /** Callback to call when the animation really stars (considering `delay`)*/
  64:Drivers/lvgl/lvgl/src/extra/widgets/spinner/../../../../src/misc/lv_anim.h **** typedef void (*lv_anim_start_cb_t)(struct _lv_anim_t *);
  65:Drivers/lvgl/lvgl/src/extra/widgets/spinner/../../../../src/misc/lv_anim.h **** 
  66:Drivers/lvgl/lvgl/src/extra/widgets/spinner/../../../../src/misc/lv_anim.h **** /** Callback used when the animation values are relative to get the current value*/
  67:Drivers/lvgl/lvgl/src/extra/widgets/spinner/../../../../src/misc/lv_anim.h **** typedef int32_t (*lv_anim_get_value_cb_t)(struct _lv_anim_t *);
  68:Drivers/lvgl/lvgl/src/extra/widgets/spinner/../../../../src/misc/lv_anim.h **** 
  69:Drivers/lvgl/lvgl/src/extra/widgets/spinner/../../../../src/misc/lv_anim.h **** /** Callback used when the animation is deleted*/
  70:Drivers/lvgl/lvgl/src/extra/widgets/spinner/../../../../src/misc/lv_anim.h **** typedef void (*lv_anim_deleted_cb_t)(struct _lv_anim_t *);
  71:Drivers/lvgl/lvgl/src/extra/widgets/spinner/../../../../src/misc/lv_anim.h **** 
  72:Drivers/lvgl/lvgl/src/extra/widgets/spinner/../../../../src/misc/lv_anim.h **** /** Describes an animation*/
  73:Drivers/lvgl/lvgl/src/extra/widgets/spinner/../../../../src/misc/lv_anim.h **** typedef struct _lv_anim_t {
  74:Drivers/lvgl/lvgl/src/extra/widgets/spinner/../../../../src/misc/lv_anim.h ****     void * var;                          /**<Variable to animate*/
  75:Drivers/lvgl/lvgl/src/extra/widgets/spinner/../../../../src/misc/lv_anim.h ****     lv_anim_exec_xcb_t exec_cb;          /**< Function to execute to animate*/
  76:Drivers/lvgl/lvgl/src/extra/widgets/spinner/../../../../src/misc/lv_anim.h ****     lv_anim_start_cb_t start_cb;         /**< Call it when the animation is starts (considering `de
  77:Drivers/lvgl/lvgl/src/extra/widgets/spinner/../../../../src/misc/lv_anim.h ****     lv_anim_ready_cb_t ready_cb;         /**< Call it when the animation is ready*/
  78:Drivers/lvgl/lvgl/src/extra/widgets/spinner/../../../../src/misc/lv_anim.h ****     lv_anim_deleted_cb_t deleted_cb;     /**< Call it when the animation is deleted*/
  79:Drivers/lvgl/lvgl/src/extra/widgets/spinner/../../../../src/misc/lv_anim.h ****     lv_anim_get_value_cb_t get_value_cb; /**< Get the current value in relative mode*/
  80:Drivers/lvgl/lvgl/src/extra/widgets/spinner/../../../../src/misc/lv_anim.h **** #if LV_USE_USER_DATA
  81:Drivers/lvgl/lvgl/src/extra/widgets/spinner/../../../../src/misc/lv_anim.h ****     void * user_data; /**< Custom user data*/
  82:Drivers/lvgl/lvgl/src/extra/widgets/spinner/../../../../src/misc/lv_anim.h **** #endif
  83:Drivers/lvgl/lvgl/src/extra/widgets/spinner/../../../../src/misc/lv_anim.h ****     lv_anim_path_cb_t path_cb;         /**< Describe the path (curve) of animations*/
  84:Drivers/lvgl/lvgl/src/extra/widgets/spinner/../../../../src/misc/lv_anim.h ****     int32_t start_value;               /**< Start value*/
  85:Drivers/lvgl/lvgl/src/extra/widgets/spinner/../../../../src/misc/lv_anim.h ****     int32_t current_value;             /**< Current value*/
  86:Drivers/lvgl/lvgl/src/extra/widgets/spinner/../../../../src/misc/lv_anim.h ****     int32_t end_value;                 /**< End value*/
  87:Drivers/lvgl/lvgl/src/extra/widgets/spinner/../../../../src/misc/lv_anim.h ****     int32_t time;                /**< Animation time in ms*/
  88:Drivers/lvgl/lvgl/src/extra/widgets/spinner/../../../../src/misc/lv_anim.h ****     int32_t act_time;            /**< Current time in animation. Set to negative to make delay.*/
  89:Drivers/lvgl/lvgl/src/extra/widgets/spinner/../../../../src/misc/lv_anim.h ****     uint32_t playback_delay;     /**< Wait before play back*/
  90:Drivers/lvgl/lvgl/src/extra/widgets/spinner/../../../../src/misc/lv_anim.h ****     uint32_t playback_time;      /**< Duration of playback animation*/
  91:Drivers/lvgl/lvgl/src/extra/widgets/spinner/../../../../src/misc/lv_anim.h ****     uint32_t repeat_delay;       /**< Wait before repeat*/
  92:Drivers/lvgl/lvgl/src/extra/widgets/spinner/../../../../src/misc/lv_anim.h ****     uint16_t repeat_cnt;         /**< Repeat count for the animation*/
  93:Drivers/lvgl/lvgl/src/extra/widgets/spinner/../../../../src/misc/lv_anim.h ****     uint8_t early_apply  : 1;    /**< 1: Apply start value immediately even is there is `delay`*/
  94:Drivers/lvgl/lvgl/src/extra/widgets/spinner/../../../../src/misc/lv_anim.h **** 
  95:Drivers/lvgl/lvgl/src/extra/widgets/spinner/../../../../src/misc/lv_anim.h ****     /*Animation system use these - user shouldn't set*/
  96:Drivers/lvgl/lvgl/src/extra/widgets/spinner/../../../../src/misc/lv_anim.h ****     uint8_t playback_now : 1; /**< Play back is in progress*/
  97:Drivers/lvgl/lvgl/src/extra/widgets/spinner/../../../../src/misc/lv_anim.h ****     uint8_t run_round : 1;    /**< Indicates the animation has run in this round*/
  98:Drivers/lvgl/lvgl/src/extra/widgets/spinner/../../../../src/misc/lv_anim.h ****     uint8_t start_cb_called : 1;    /**< Indicates that the `start_cb` was already called*/
  99:Drivers/lvgl/lvgl/src/extra/widgets/spinner/../../../../src/misc/lv_anim.h **** } lv_anim_t;
ARM GAS  /tmp/cc1tZdnZ.s 			page 5


 100:Drivers/lvgl/lvgl/src/extra/widgets/spinner/../../../../src/misc/lv_anim.h **** 
 101:Drivers/lvgl/lvgl/src/extra/widgets/spinner/../../../../src/misc/lv_anim.h **** /**********************
 102:Drivers/lvgl/lvgl/src/extra/widgets/spinner/../../../../src/misc/lv_anim.h ****  * GLOBAL PROTOTYPES
 103:Drivers/lvgl/lvgl/src/extra/widgets/spinner/../../../../src/misc/lv_anim.h ****  **********************/
 104:Drivers/lvgl/lvgl/src/extra/widgets/spinner/../../../../src/misc/lv_anim.h **** 
 105:Drivers/lvgl/lvgl/src/extra/widgets/spinner/../../../../src/misc/lv_anim.h **** /**
 106:Drivers/lvgl/lvgl/src/extra/widgets/spinner/../../../../src/misc/lv_anim.h ****  * Init. the animation module
 107:Drivers/lvgl/lvgl/src/extra/widgets/spinner/../../../../src/misc/lv_anim.h ****  */
 108:Drivers/lvgl/lvgl/src/extra/widgets/spinner/../../../../src/misc/lv_anim.h **** void _lv_anim_core_init(void);
 109:Drivers/lvgl/lvgl/src/extra/widgets/spinner/../../../../src/misc/lv_anim.h **** 
 110:Drivers/lvgl/lvgl/src/extra/widgets/spinner/../../../../src/misc/lv_anim.h **** /**
 111:Drivers/lvgl/lvgl/src/extra/widgets/spinner/../../../../src/misc/lv_anim.h ****  * Initialize an animation variable.
 112:Drivers/lvgl/lvgl/src/extra/widgets/spinner/../../../../src/misc/lv_anim.h ****  * E.g.:
 113:Drivers/lvgl/lvgl/src/extra/widgets/spinner/../../../../src/misc/lv_anim.h ****  * lv_anim_t a;
 114:Drivers/lvgl/lvgl/src/extra/widgets/spinner/../../../../src/misc/lv_anim.h ****  * lv_anim_init(&a);
 115:Drivers/lvgl/lvgl/src/extra/widgets/spinner/../../../../src/misc/lv_anim.h ****  * lv_anim_set_...(&a);
 116:Drivers/lvgl/lvgl/src/extra/widgets/spinner/../../../../src/misc/lv_anim.h ****  * lv_anim_start(&a);
 117:Drivers/lvgl/lvgl/src/extra/widgets/spinner/../../../../src/misc/lv_anim.h ****  * @param a     pointer to an `lv_anim_t` variable to initialize
 118:Drivers/lvgl/lvgl/src/extra/widgets/spinner/../../../../src/misc/lv_anim.h ****  */
 119:Drivers/lvgl/lvgl/src/extra/widgets/spinner/../../../../src/misc/lv_anim.h **** void lv_anim_init(lv_anim_t * a);
 120:Drivers/lvgl/lvgl/src/extra/widgets/spinner/../../../../src/misc/lv_anim.h **** 
 121:Drivers/lvgl/lvgl/src/extra/widgets/spinner/../../../../src/misc/lv_anim.h **** /**
 122:Drivers/lvgl/lvgl/src/extra/widgets/spinner/../../../../src/misc/lv_anim.h ****  * Set a variable to animate
 123:Drivers/lvgl/lvgl/src/extra/widgets/spinner/../../../../src/misc/lv_anim.h ****  * @param a     pointer to an initialized `lv_anim_t` variable
 124:Drivers/lvgl/lvgl/src/extra/widgets/spinner/../../../../src/misc/lv_anim.h ****  * @param var   pointer to a variable to animate
 125:Drivers/lvgl/lvgl/src/extra/widgets/spinner/../../../../src/misc/lv_anim.h ****  */
 126:Drivers/lvgl/lvgl/src/extra/widgets/spinner/../../../../src/misc/lv_anim.h **** static inline void lv_anim_set_var(lv_anim_t * a, void * var)
 127:Drivers/lvgl/lvgl/src/extra/widgets/spinner/../../../../src/misc/lv_anim.h **** {
 128:Drivers/lvgl/lvgl/src/extra/widgets/spinner/../../../../src/misc/lv_anim.h ****     a->var = var;
  56              		.loc 2 128 0
  57 0014 0194     		str	r4, [sp, #4]
  58              	.LVL5:
  59              	.LBE19:
  60              	.LBE18:
  61              	.LBB20:
  62              	.LBB21:
 129:Drivers/lvgl/lvgl/src/extra/widgets/spinner/../../../../src/misc/lv_anim.h **** }
 130:Drivers/lvgl/lvgl/src/extra/widgets/spinner/../../../../src/misc/lv_anim.h **** 
 131:Drivers/lvgl/lvgl/src/extra/widgets/spinner/../../../../src/misc/lv_anim.h **** /**
 132:Drivers/lvgl/lvgl/src/extra/widgets/spinner/../../../../src/misc/lv_anim.h ****  * Set a function to animate `var`
 133:Drivers/lvgl/lvgl/src/extra/widgets/spinner/../../../../src/misc/lv_anim.h ****  * @param a         pointer to an initialized `lv_anim_t` variable
 134:Drivers/lvgl/lvgl/src/extra/widgets/spinner/../../../../src/misc/lv_anim.h ****  * @param exec_cb   a function to execute during animation
 135:Drivers/lvgl/lvgl/src/extra/widgets/spinner/../../../../src/misc/lv_anim.h ****  *                  LVGL's built-in functions can be used.
 136:Drivers/lvgl/lvgl/src/extra/widgets/spinner/../../../../src/misc/lv_anim.h ****  *                  E.g. lv_obj_set_x
 137:Drivers/lvgl/lvgl/src/extra/widgets/spinner/../../../../src/misc/lv_anim.h ****  */
 138:Drivers/lvgl/lvgl/src/extra/widgets/spinner/../../../../src/misc/lv_anim.h **** static inline void lv_anim_set_exec_cb(lv_anim_t * a, lv_anim_exec_xcb_t exec_cb)
 139:Drivers/lvgl/lvgl/src/extra/widgets/spinner/../../../../src/misc/lv_anim.h **** {
 140:Drivers/lvgl/lvgl/src/extra/widgets/spinner/../../../../src/misc/lv_anim.h ****     a->exec_cb = exec_cb;
  63              		.loc 2 140 0
  64 0016 164B     		ldr	r3, .L3
  65 0018 0293     		str	r3, [sp, #8]
  66              	.LVL6:
  67              	.LBE21:
  68              	.LBE20:
  69              	.LBB22:
  70              	.LBB23:
 141:Drivers/lvgl/lvgl/src/extra/widgets/spinner/../../../../src/misc/lv_anim.h **** }
ARM GAS  /tmp/cc1tZdnZ.s 			page 6


 142:Drivers/lvgl/lvgl/src/extra/widgets/spinner/../../../../src/misc/lv_anim.h **** 
 143:Drivers/lvgl/lvgl/src/extra/widgets/spinner/../../../../src/misc/lv_anim.h **** /**
 144:Drivers/lvgl/lvgl/src/extra/widgets/spinner/../../../../src/misc/lv_anim.h ****  * Set the duration of an animation
 145:Drivers/lvgl/lvgl/src/extra/widgets/spinner/../../../../src/misc/lv_anim.h ****  * @param a         pointer to an initialized `lv_anim_t` variable
 146:Drivers/lvgl/lvgl/src/extra/widgets/spinner/../../../../src/misc/lv_anim.h ****  * @param duration  duration of the animation in milliseconds
 147:Drivers/lvgl/lvgl/src/extra/widgets/spinner/../../../../src/misc/lv_anim.h ****  */
 148:Drivers/lvgl/lvgl/src/extra/widgets/spinner/../../../../src/misc/lv_anim.h **** static inline void lv_anim_set_time(lv_anim_t * a, uint32_t duration)
 149:Drivers/lvgl/lvgl/src/extra/widgets/spinner/../../../../src/misc/lv_anim.h **** {
 150:Drivers/lvgl/lvgl/src/extra/widgets/spinner/../../../../src/misc/lv_anim.h ****     a->time = duration;
 151:Drivers/lvgl/lvgl/src/extra/widgets/spinner/../../../../src/misc/lv_anim.h **** }
 152:Drivers/lvgl/lvgl/src/extra/widgets/spinner/../../../../src/misc/lv_anim.h **** 
 153:Drivers/lvgl/lvgl/src/extra/widgets/spinner/../../../../src/misc/lv_anim.h **** /**
 154:Drivers/lvgl/lvgl/src/extra/widgets/spinner/../../../../src/misc/lv_anim.h ****  * Set a delay before starting the animation
 155:Drivers/lvgl/lvgl/src/extra/widgets/spinner/../../../../src/misc/lv_anim.h ****  * @param a         pointer to an initialized `lv_anim_t` variable
 156:Drivers/lvgl/lvgl/src/extra/widgets/spinner/../../../../src/misc/lv_anim.h ****  * @param delay     delay before the animation in milliseconds
 157:Drivers/lvgl/lvgl/src/extra/widgets/spinner/../../../../src/misc/lv_anim.h ****  */
 158:Drivers/lvgl/lvgl/src/extra/widgets/spinner/../../../../src/misc/lv_anim.h **** static inline void lv_anim_set_delay(lv_anim_t * a, uint32_t delay)
 159:Drivers/lvgl/lvgl/src/extra/widgets/spinner/../../../../src/misc/lv_anim.h **** {
 160:Drivers/lvgl/lvgl/src/extra/widgets/spinner/../../../../src/misc/lv_anim.h ****     a->act_time = -(int32_t)(delay);
 161:Drivers/lvgl/lvgl/src/extra/widgets/spinner/../../../../src/misc/lv_anim.h **** }
 162:Drivers/lvgl/lvgl/src/extra/widgets/spinner/../../../../src/misc/lv_anim.h **** 
 163:Drivers/lvgl/lvgl/src/extra/widgets/spinner/../../../../src/misc/lv_anim.h **** /**
 164:Drivers/lvgl/lvgl/src/extra/widgets/spinner/../../../../src/misc/lv_anim.h ****  * Set the start and end values of an animation
 165:Drivers/lvgl/lvgl/src/extra/widgets/spinner/../../../../src/misc/lv_anim.h ****  * @param a         pointer to an initialized `lv_anim_t` variable
 166:Drivers/lvgl/lvgl/src/extra/widgets/spinner/../../../../src/misc/lv_anim.h ****  * @param start     the start value
 167:Drivers/lvgl/lvgl/src/extra/widgets/spinner/../../../../src/misc/lv_anim.h ****  * @param end       the end value
 168:Drivers/lvgl/lvgl/src/extra/widgets/spinner/../../../../src/misc/lv_anim.h ****  */
 169:Drivers/lvgl/lvgl/src/extra/widgets/spinner/../../../../src/misc/lv_anim.h **** static inline void lv_anim_set_values(lv_anim_t * a, int32_t start, int32_t end)
 170:Drivers/lvgl/lvgl/src/extra/widgets/spinner/../../../../src/misc/lv_anim.h **** {
 171:Drivers/lvgl/lvgl/src/extra/widgets/spinner/../../../../src/misc/lv_anim.h ****     a->start_value = start;
 172:Drivers/lvgl/lvgl/src/extra/widgets/spinner/../../../../src/misc/lv_anim.h ****     a->current_value = start;
 173:Drivers/lvgl/lvgl/src/extra/widgets/spinner/../../../../src/misc/lv_anim.h ****     a->end_value = end;
 174:Drivers/lvgl/lvgl/src/extra/widgets/spinner/../../../../src/misc/lv_anim.h **** }
 175:Drivers/lvgl/lvgl/src/extra/widgets/spinner/../../../../src/misc/lv_anim.h **** 
 176:Drivers/lvgl/lvgl/src/extra/widgets/spinner/../../../../src/misc/lv_anim.h **** /**
 177:Drivers/lvgl/lvgl/src/extra/widgets/spinner/../../../../src/misc/lv_anim.h ****  * Similar to `lv_anim_set_exec_cb` but `lv_anim_custom_exec_cb_t` receives
 178:Drivers/lvgl/lvgl/src/extra/widgets/spinner/../../../../src/misc/lv_anim.h ****  * `lv_anim_t * ` as its first parameter instead of `void *`.
 179:Drivers/lvgl/lvgl/src/extra/widgets/spinner/../../../../src/misc/lv_anim.h ****  * This function might be used when LVGL is bound to other languages because
 180:Drivers/lvgl/lvgl/src/extra/widgets/spinner/../../../../src/misc/lv_anim.h ****  * it's more consistent to have `lv_anim_t *` as first parameter.
 181:Drivers/lvgl/lvgl/src/extra/widgets/spinner/../../../../src/misc/lv_anim.h ****  * The variable to animate can be stored in the animation's `user_data`
 182:Drivers/lvgl/lvgl/src/extra/widgets/spinner/../../../../src/misc/lv_anim.h ****  * @param a         pointer to an initialized `lv_anim_t` variable
 183:Drivers/lvgl/lvgl/src/extra/widgets/spinner/../../../../src/misc/lv_anim.h ****  * @param exec_cb   a function to execute.
 184:Drivers/lvgl/lvgl/src/extra/widgets/spinner/../../../../src/misc/lv_anim.h ****  */
 185:Drivers/lvgl/lvgl/src/extra/widgets/spinner/../../../../src/misc/lv_anim.h **** static inline void lv_anim_set_custom_exec_cb(lv_anim_t * a, lv_anim_custom_exec_cb_t exec_cb)
 186:Drivers/lvgl/lvgl/src/extra/widgets/spinner/../../../../src/misc/lv_anim.h **** {
 187:Drivers/lvgl/lvgl/src/extra/widgets/spinner/../../../../src/misc/lv_anim.h ****     a->var     = a;
 188:Drivers/lvgl/lvgl/src/extra/widgets/spinner/../../../../src/misc/lv_anim.h ****     a->exec_cb = (lv_anim_exec_xcb_t)exec_cb;
 189:Drivers/lvgl/lvgl/src/extra/widgets/spinner/../../../../src/misc/lv_anim.h **** }
 190:Drivers/lvgl/lvgl/src/extra/widgets/spinner/../../../../src/misc/lv_anim.h **** 
 191:Drivers/lvgl/lvgl/src/extra/widgets/spinner/../../../../src/misc/lv_anim.h **** /**
 192:Drivers/lvgl/lvgl/src/extra/widgets/spinner/../../../../src/misc/lv_anim.h ****  * Set the path (curve) of the animation.
 193:Drivers/lvgl/lvgl/src/extra/widgets/spinner/../../../../src/misc/lv_anim.h ****  * @param a         pointer to an initialized `lv_anim_t` variable
 194:Drivers/lvgl/lvgl/src/extra/widgets/spinner/../../../../src/misc/lv_anim.h ****  * @param path_cb a function to set the current value of the animation.
 195:Drivers/lvgl/lvgl/src/extra/widgets/spinner/../../../../src/misc/lv_anim.h ****  */
 196:Drivers/lvgl/lvgl/src/extra/widgets/spinner/../../../../src/misc/lv_anim.h **** static inline void lv_anim_set_path_cb(lv_anim_t * a, lv_anim_path_cb_t path_cb)
 197:Drivers/lvgl/lvgl/src/extra/widgets/spinner/../../../../src/misc/lv_anim.h **** {
 198:Drivers/lvgl/lvgl/src/extra/widgets/spinner/../../../../src/misc/lv_anim.h ****     a->path_cb = path_cb;
ARM GAS  /tmp/cc1tZdnZ.s 			page 7


 199:Drivers/lvgl/lvgl/src/extra/widgets/spinner/../../../../src/misc/lv_anim.h **** }
 200:Drivers/lvgl/lvgl/src/extra/widgets/spinner/../../../../src/misc/lv_anim.h **** 
 201:Drivers/lvgl/lvgl/src/extra/widgets/spinner/../../../../src/misc/lv_anim.h **** /**
 202:Drivers/lvgl/lvgl/src/extra/widgets/spinner/../../../../src/misc/lv_anim.h ****  * Set a function call when the animation really starts (considering `delay`)
 203:Drivers/lvgl/lvgl/src/extra/widgets/spinner/../../../../src/misc/lv_anim.h ****  * @param a         pointer to an initialized `lv_anim_t` variable
 204:Drivers/lvgl/lvgl/src/extra/widgets/spinner/../../../../src/misc/lv_anim.h ****  * @param start_cb  a function call when the animation starts
 205:Drivers/lvgl/lvgl/src/extra/widgets/spinner/../../../../src/misc/lv_anim.h ****  */
 206:Drivers/lvgl/lvgl/src/extra/widgets/spinner/../../../../src/misc/lv_anim.h **** static inline void lv_anim_set_start_cb(lv_anim_t * a, lv_anim_start_cb_t start_cb)
 207:Drivers/lvgl/lvgl/src/extra/widgets/spinner/../../../../src/misc/lv_anim.h **** {
 208:Drivers/lvgl/lvgl/src/extra/widgets/spinner/../../../../src/misc/lv_anim.h ****     a->start_cb = start_cb;
 209:Drivers/lvgl/lvgl/src/extra/widgets/spinner/../../../../src/misc/lv_anim.h **** }
 210:Drivers/lvgl/lvgl/src/extra/widgets/spinner/../../../../src/misc/lv_anim.h **** 
 211:Drivers/lvgl/lvgl/src/extra/widgets/spinner/../../../../src/misc/lv_anim.h **** /**
 212:Drivers/lvgl/lvgl/src/extra/widgets/spinner/../../../../src/misc/lv_anim.h ****  * Set a function to use the current value of the variable and make start and end value
 213:Drivers/lvgl/lvgl/src/extra/widgets/spinner/../../../../src/misc/lv_anim.h ****  * relative to the returned current value.
 214:Drivers/lvgl/lvgl/src/extra/widgets/spinner/../../../../src/misc/lv_anim.h ****  * @param a             pointer to an initialized `lv_anim_t` variable
 215:Drivers/lvgl/lvgl/src/extra/widgets/spinner/../../../../src/misc/lv_anim.h ****  * @param get_value_cb  a function call when the animation starts
 216:Drivers/lvgl/lvgl/src/extra/widgets/spinner/../../../../src/misc/lv_anim.h ****  */
 217:Drivers/lvgl/lvgl/src/extra/widgets/spinner/../../../../src/misc/lv_anim.h **** static inline void lv_anim_set_get_value_cb(lv_anim_t * a, lv_anim_get_value_cb_t get_value_cb)
 218:Drivers/lvgl/lvgl/src/extra/widgets/spinner/../../../../src/misc/lv_anim.h **** {
 219:Drivers/lvgl/lvgl/src/extra/widgets/spinner/../../../../src/misc/lv_anim.h ****     a->get_value_cb = get_value_cb;
 220:Drivers/lvgl/lvgl/src/extra/widgets/spinner/../../../../src/misc/lv_anim.h **** }
 221:Drivers/lvgl/lvgl/src/extra/widgets/spinner/../../../../src/misc/lv_anim.h **** 
 222:Drivers/lvgl/lvgl/src/extra/widgets/spinner/../../../../src/misc/lv_anim.h **** /**
 223:Drivers/lvgl/lvgl/src/extra/widgets/spinner/../../../../src/misc/lv_anim.h ****  * Set a function call when the animation is ready
 224:Drivers/lvgl/lvgl/src/extra/widgets/spinner/../../../../src/misc/lv_anim.h ****  * @param a         pointer to an initialized `lv_anim_t` variable
 225:Drivers/lvgl/lvgl/src/extra/widgets/spinner/../../../../src/misc/lv_anim.h ****  * @param ready_cb  a function call when the animation is ready
 226:Drivers/lvgl/lvgl/src/extra/widgets/spinner/../../../../src/misc/lv_anim.h ****  */
 227:Drivers/lvgl/lvgl/src/extra/widgets/spinner/../../../../src/misc/lv_anim.h **** static inline void lv_anim_set_ready_cb(lv_anim_t * a, lv_anim_ready_cb_t ready_cb)
 228:Drivers/lvgl/lvgl/src/extra/widgets/spinner/../../../../src/misc/lv_anim.h **** {
 229:Drivers/lvgl/lvgl/src/extra/widgets/spinner/../../../../src/misc/lv_anim.h ****     a->ready_cb = ready_cb;
 230:Drivers/lvgl/lvgl/src/extra/widgets/spinner/../../../../src/misc/lv_anim.h **** }
 231:Drivers/lvgl/lvgl/src/extra/widgets/spinner/../../../../src/misc/lv_anim.h **** 
 232:Drivers/lvgl/lvgl/src/extra/widgets/spinner/../../../../src/misc/lv_anim.h **** /**
 233:Drivers/lvgl/lvgl/src/extra/widgets/spinner/../../../../src/misc/lv_anim.h ****  * Set a function call when the animation is deleted.
 234:Drivers/lvgl/lvgl/src/extra/widgets/spinner/../../../../src/misc/lv_anim.h ****  * @param a         pointer to an initialized `lv_anim_t` variable
 235:Drivers/lvgl/lvgl/src/extra/widgets/spinner/../../../../src/misc/lv_anim.h ****  * @param deleted_cb  a function call when the animation is deleted
 236:Drivers/lvgl/lvgl/src/extra/widgets/spinner/../../../../src/misc/lv_anim.h ****  */
 237:Drivers/lvgl/lvgl/src/extra/widgets/spinner/../../../../src/misc/lv_anim.h **** static inline void lv_anim_set_deleted_cb(lv_anim_t * a, lv_anim_deleted_cb_t deleted_cb)
 238:Drivers/lvgl/lvgl/src/extra/widgets/spinner/../../../../src/misc/lv_anim.h **** {
 239:Drivers/lvgl/lvgl/src/extra/widgets/spinner/../../../../src/misc/lv_anim.h ****     a->deleted_cb = deleted_cb;
 240:Drivers/lvgl/lvgl/src/extra/widgets/spinner/../../../../src/misc/lv_anim.h **** }
 241:Drivers/lvgl/lvgl/src/extra/widgets/spinner/../../../../src/misc/lv_anim.h **** 
 242:Drivers/lvgl/lvgl/src/extra/widgets/spinner/../../../../src/misc/lv_anim.h **** /**
 243:Drivers/lvgl/lvgl/src/extra/widgets/spinner/../../../../src/misc/lv_anim.h ****  * Make the animation to play back to when the forward direction is ready
 244:Drivers/lvgl/lvgl/src/extra/widgets/spinner/../../../../src/misc/lv_anim.h ****  * @param a         pointer to an initialized `lv_anim_t` variable
 245:Drivers/lvgl/lvgl/src/extra/widgets/spinner/../../../../src/misc/lv_anim.h ****  * @param time      the duration of the playback animation in milliseconds. 0: disable playback
 246:Drivers/lvgl/lvgl/src/extra/widgets/spinner/../../../../src/misc/lv_anim.h ****  */
 247:Drivers/lvgl/lvgl/src/extra/widgets/spinner/../../../../src/misc/lv_anim.h **** static inline void lv_anim_set_playback_time(lv_anim_t * a, uint32_t time)
 248:Drivers/lvgl/lvgl/src/extra/widgets/spinner/../../../../src/misc/lv_anim.h **** {
 249:Drivers/lvgl/lvgl/src/extra/widgets/spinner/../../../../src/misc/lv_anim.h ****     a->playback_time = time;
 250:Drivers/lvgl/lvgl/src/extra/widgets/spinner/../../../../src/misc/lv_anim.h **** }
 251:Drivers/lvgl/lvgl/src/extra/widgets/spinner/../../../../src/misc/lv_anim.h **** 
 252:Drivers/lvgl/lvgl/src/extra/widgets/spinner/../../../../src/misc/lv_anim.h **** /**
 253:Drivers/lvgl/lvgl/src/extra/widgets/spinner/../../../../src/misc/lv_anim.h ****  * Make the animation to play back to when the forward direction is ready
 254:Drivers/lvgl/lvgl/src/extra/widgets/spinner/../../../../src/misc/lv_anim.h ****  * @param a         pointer to an initialized `lv_anim_t` variable
 255:Drivers/lvgl/lvgl/src/extra/widgets/spinner/../../../../src/misc/lv_anim.h ****  * @param delay     delay in milliseconds before starting the playback animation.
ARM GAS  /tmp/cc1tZdnZ.s 			page 8


 256:Drivers/lvgl/lvgl/src/extra/widgets/spinner/../../../../src/misc/lv_anim.h ****  */
 257:Drivers/lvgl/lvgl/src/extra/widgets/spinner/../../../../src/misc/lv_anim.h **** static inline void lv_anim_set_playback_delay(lv_anim_t * a, uint32_t delay)
 258:Drivers/lvgl/lvgl/src/extra/widgets/spinner/../../../../src/misc/lv_anim.h **** {
 259:Drivers/lvgl/lvgl/src/extra/widgets/spinner/../../../../src/misc/lv_anim.h ****     a->playback_delay = delay;
 260:Drivers/lvgl/lvgl/src/extra/widgets/spinner/../../../../src/misc/lv_anim.h **** }
 261:Drivers/lvgl/lvgl/src/extra/widgets/spinner/../../../../src/misc/lv_anim.h **** 
 262:Drivers/lvgl/lvgl/src/extra/widgets/spinner/../../../../src/misc/lv_anim.h **** /**
 263:Drivers/lvgl/lvgl/src/extra/widgets/spinner/../../../../src/misc/lv_anim.h ****  * Make the animation repeat itself.
 264:Drivers/lvgl/lvgl/src/extra/widgets/spinner/../../../../src/misc/lv_anim.h ****  * @param a         pointer to an initialized `lv_anim_t` variable
 265:Drivers/lvgl/lvgl/src/extra/widgets/spinner/../../../../src/misc/lv_anim.h ****  * @param cnt       repeat count or `LV_ANIM_REPEAT_INFINITE` for infinite repetition. 0: to disabl
 266:Drivers/lvgl/lvgl/src/extra/widgets/spinner/../../../../src/misc/lv_anim.h ****  */
 267:Drivers/lvgl/lvgl/src/extra/widgets/spinner/../../../../src/misc/lv_anim.h **** static inline void lv_anim_set_repeat_count(lv_anim_t * a, uint16_t cnt)
 268:Drivers/lvgl/lvgl/src/extra/widgets/spinner/../../../../src/misc/lv_anim.h **** {
 269:Drivers/lvgl/lvgl/src/extra/widgets/spinner/../../../../src/misc/lv_anim.h ****     a->repeat_cnt = cnt;
  71              		.loc 2 269 0
  72 001a 4FF6FF73 		movw	r3, #65535
  73 001e ADF84430 		strh	r3, [sp, #68]	@ movhi
  74              	.LVL7:
  75              	.LBE23:
  76              	.LBE22:
  76:Drivers/lvgl/lvgl/src/extra/widgets/spinner/lv_spinner.c ****     lv_anim_set_var(&a, obj);
  77:Drivers/lvgl/lvgl/src/extra/widgets/spinner/lv_spinner.c ****     lv_anim_set_exec_cb(&a, arc_anim_end_angle);
  78:Drivers/lvgl/lvgl/src/extra/widgets/spinner/lv_spinner.c ****     lv_anim_set_repeat_count(&a, LV_ANIM_REPEAT_INFINITE);
  79:Drivers/lvgl/lvgl/src/extra/widgets/spinner/lv_spinner.c ****     lv_anim_set_time(&a, time_param);
  77              		.loc 1 79 0
  78 0022 144B     		ldr	r3, .L3+4
  79 0024 1B68     		ldr	r3, [r3]
  80              	.LVL8:
  81              	.LBB24:
  82              	.LBB25:
 150:Drivers/lvgl/lvgl/src/extra/widgets/spinner/../../../../src/misc/lv_anim.h **** }
  83              		.loc 2 150 0
  84 0026 0C93     		str	r3, [sp, #48]
  85              	.LVL9:
  86              	.LBE25:
  87              	.LBE24:
  80:Drivers/lvgl/lvgl/src/extra/widgets/spinner/lv_spinner.c ****     lv_anim_set_values(&a, arc_length_param, 360 + arc_length_param);
  88              		.loc 1 80 0
  89 0028 134B     		ldr	r3, .L3+8
  90 002a 1B68     		ldr	r3, [r3]
  91 002c 03F5B472 		add	r2, r3, #360
  92              	.LVL10:
  93              	.LBB26:
  94              	.LBB27:
 171:Drivers/lvgl/lvgl/src/extra/widgets/spinner/../../../../src/misc/lv_anim.h ****     a->current_value = start;
  95              		.loc 2 171 0
  96 0030 0993     		str	r3, [sp, #36]
 172:Drivers/lvgl/lvgl/src/extra/widgets/spinner/../../../../src/misc/lv_anim.h ****     a->end_value = end;
  97              		.loc 2 172 0
  98 0032 0A93     		str	r3, [sp, #40]
 173:Drivers/lvgl/lvgl/src/extra/widgets/spinner/../../../../src/misc/lv_anim.h **** }
  99              		.loc 2 173 0
 100 0034 0B92     		str	r2, [sp, #44]
 101              	.LVL11:
 102              	.LBE27:
 103              	.LBE26:
  81:Drivers/lvgl/lvgl/src/extra/widgets/spinner/lv_spinner.c ****     lv_anim_start(&a);
ARM GAS  /tmp/cc1tZdnZ.s 			page 9


 104              		.loc 1 81 0
 105 0036 01A8     		add	r0, sp, #4
 106 0038 FFF7FEFF 		bl	lv_anim_start
 107              	.LVL12:
 108              	.LBB28:
 109              	.LBB29:
 198:Drivers/lvgl/lvgl/src/extra/widgets/spinner/../../../../src/misc/lv_anim.h **** }
 110              		.loc 2 198 0
 111 003c 0F4B     		ldr	r3, .L3+12
 112 003e 0893     		str	r3, [sp, #32]
 113              	.LVL13:
 114              	.LBE29:
 115              	.LBE28:
 116              	.LBB30:
 117              	.LBB31:
 171:Drivers/lvgl/lvgl/src/extra/widgets/spinner/../../../../src/misc/lv_anim.h ****     a->current_value = start;
 118              		.loc 2 171 0
 119 0040 0025     		movs	r5, #0
 120 0042 0995     		str	r5, [sp, #36]
 172:Drivers/lvgl/lvgl/src/extra/widgets/spinner/../../../../src/misc/lv_anim.h ****     a->end_value = end;
 121              		.loc 2 172 0
 122 0044 0A95     		str	r5, [sp, #40]
 173:Drivers/lvgl/lvgl/src/extra/widgets/spinner/../../../../src/misc/lv_anim.h **** }
 123              		.loc 2 173 0
 124 0046 4FF4B476 		mov	r6, #360
 125 004a 0B96     		str	r6, [sp, #44]
 126              	.LVL14:
 127              	.LBE31:
 128              	.LBE30:
 129              	.LBB32:
 130              	.LBB33:
 140:Drivers/lvgl/lvgl/src/extra/widgets/spinner/../../../../src/misc/lv_anim.h **** }
 131              		.loc 2 140 0
 132 004c 0C4B     		ldr	r3, .L3+16
 133 004e 0293     		str	r3, [sp, #8]
 134              	.LVL15:
 135              	.LBE33:
 136              	.LBE32:
  82:Drivers/lvgl/lvgl/src/extra/widgets/spinner/lv_spinner.c **** 
  83:Drivers/lvgl/lvgl/src/extra/widgets/spinner/lv_spinner.c ****     lv_anim_set_path_cb(&a, lv_anim_path_ease_in_out);
  84:Drivers/lvgl/lvgl/src/extra/widgets/spinner/lv_spinner.c ****     lv_anim_set_values(&a, 0, 360);
  85:Drivers/lvgl/lvgl/src/extra/widgets/spinner/lv_spinner.c ****     lv_anim_set_exec_cb(&a, arc_anim_start_angle);
  86:Drivers/lvgl/lvgl/src/extra/widgets/spinner/lv_spinner.c ****     lv_anim_start(&a);
 137              		.loc 1 86 0
 138 0050 01A8     		add	r0, sp, #4
 139 0052 FFF7FEFF 		bl	lv_anim_start
 140              	.LVL16:
  87:Drivers/lvgl/lvgl/src/extra/widgets/spinner/lv_spinner.c **** 
  88:Drivers/lvgl/lvgl/src/extra/widgets/spinner/lv_spinner.c ****     lv_arc_set_bg_angles(obj, 0, 360);
 141              		.loc 1 88 0
 142 0056 3246     		mov	r2, r6
 143 0058 2946     		mov	r1, r5
 144 005a 2046     		mov	r0, r4
 145 005c FFF7FEFF 		bl	lv_arc_set_bg_angles
 146              	.LVL17:
  89:Drivers/lvgl/lvgl/src/extra/widgets/spinner/lv_spinner.c ****     lv_arc_set_rotation(obj, 270);
 147              		.loc 1 89 0
ARM GAS  /tmp/cc1tZdnZ.s 			page 10


 148 0060 4FF48771 		mov	r1, #270
 149 0064 2046     		mov	r0, r4
 150 0066 FFF7FEFF 		bl	lv_arc_set_rotation
 151              	.LVL18:
  90:Drivers/lvgl/lvgl/src/extra/widgets/spinner/lv_spinner.c **** }
 152              		.loc 1 90 0
 153 006a 12B0     		add	sp, sp, #72
 154              	.LCFI2:
 155              		.cfi_def_cfa_offset 16
 156              		@ sp needed
 157 006c 70BD     		pop	{r4, r5, r6, pc}
 158              	.LVL19:
 159              	.L4:
 160 006e 00BF     		.align	2
 161              	.L3:
 162 0070 00000000 		.word	arc_anim_end_angle
 163 0074 00000000 		.word	.LANCHOR0
 164 0078 00000000 		.word	.LANCHOR1
 165 007c 00000000 		.word	lv_anim_path_ease_in_out
 166 0080 00000000 		.word	arc_anim_start_angle
 167              		.cfi_endproc
 168              	.LFE203:
 170              		.section	.text.arc_anim_start_angle,"ax",%progbits
 171              		.align	1
 172              		.syntax unified
 173              		.thumb
 174              		.thumb_func
 175              		.fpu fpv5-d16
 177              	arc_anim_start_angle:
 178              	.LFB204:
  91:Drivers/lvgl/lvgl/src/extra/widgets/spinner/lv_spinner.c **** 
  92:Drivers/lvgl/lvgl/src/extra/widgets/spinner/lv_spinner.c **** 
  93:Drivers/lvgl/lvgl/src/extra/widgets/spinner/lv_spinner.c **** static void arc_anim_start_angle(void * obj, int32_t v)
  94:Drivers/lvgl/lvgl/src/extra/widgets/spinner/lv_spinner.c **** {
 179              		.loc 1 94 0
 180              		.cfi_startproc
 181              		@ args = 0, pretend = 0, frame = 0
 182              		@ frame_needed = 0, uses_anonymous_args = 0
 183              	.LVL20:
 184 0000 08B5     		push	{r3, lr}
 185              	.LCFI3:
 186              		.cfi_def_cfa_offset 8
 187              		.cfi_offset 3, -8
 188              		.cfi_offset 14, -4
  95:Drivers/lvgl/lvgl/src/extra/widgets/spinner/lv_spinner.c ****     lv_arc_set_start_angle(obj, (uint16_t) v);
 189              		.loc 1 95 0
 190 0002 89B2     		uxth	r1, r1
 191              	.LVL21:
 192 0004 FFF7FEFF 		bl	lv_arc_set_start_angle
 193              	.LVL22:
  96:Drivers/lvgl/lvgl/src/extra/widgets/spinner/lv_spinner.c **** }
 194              		.loc 1 96 0
 195 0008 08BD     		pop	{r3, pc}
 196              		.cfi_endproc
 197              	.LFE204:
 199              		.section	.text.arc_anim_end_angle,"ax",%progbits
 200              		.align	1
ARM GAS  /tmp/cc1tZdnZ.s 			page 11


 201              		.syntax unified
 202              		.thumb
 203              		.thumb_func
 204              		.fpu fpv5-d16
 206              	arc_anim_end_angle:
 207              	.LFB205:
  97:Drivers/lvgl/lvgl/src/extra/widgets/spinner/lv_spinner.c **** 
  98:Drivers/lvgl/lvgl/src/extra/widgets/spinner/lv_spinner.c **** 
  99:Drivers/lvgl/lvgl/src/extra/widgets/spinner/lv_spinner.c **** static void arc_anim_end_angle(void * obj, int32_t v)
 100:Drivers/lvgl/lvgl/src/extra/widgets/spinner/lv_spinner.c **** {
 208              		.loc 1 100 0
 209              		.cfi_startproc
 210              		@ args = 0, pretend = 0, frame = 0
 211              		@ frame_needed = 0, uses_anonymous_args = 0
 212              	.LVL23:
 213 0000 08B5     		push	{r3, lr}
 214              	.LCFI4:
 215              		.cfi_def_cfa_offset 8
 216              		.cfi_offset 3, -8
 217              		.cfi_offset 14, -4
 101:Drivers/lvgl/lvgl/src/extra/widgets/spinner/lv_spinner.c ****     lv_arc_set_end_angle(obj, (uint16_t) v);
 218              		.loc 1 101 0
 219 0002 89B2     		uxth	r1, r1
 220              	.LVL24:
 221 0004 FFF7FEFF 		bl	lv_arc_set_end_angle
 222              	.LVL25:
 102:Drivers/lvgl/lvgl/src/extra/widgets/spinner/lv_spinner.c **** }
 223              		.loc 1 102 0
 224 0008 08BD     		pop	{r3, pc}
 225              		.cfi_endproc
 226              	.LFE205:
 228              		.section	.text.lv_spinner_create,"ax",%progbits
 229              		.align	1
 230              		.global	lv_spinner_create
 231              		.syntax unified
 232              		.thumb
 233              		.thumb_func
 234              		.fpu fpv5-d16
 236              	lv_spinner_create:
 237              	.LFB202:
  52:Drivers/lvgl/lvgl/src/extra/widgets/spinner/lv_spinner.c ****     time_param = time;
 238              		.loc 1 52 0
 239              		.cfi_startproc
 240              		@ args = 0, pretend = 0, frame = 0
 241              		@ frame_needed = 0, uses_anonymous_args = 0
 242              	.LVL26:
 243 0000 10B5     		push	{r4, lr}
 244              	.LCFI5:
 245              		.cfi_def_cfa_offset 8
 246              		.cfi_offset 4, -8
 247              		.cfi_offset 14, -4
  53:Drivers/lvgl/lvgl/src/extra/widgets/spinner/lv_spinner.c ****     arc_length_param = arc_length;
 248              		.loc 1 53 0
 249 0002 064B     		ldr	r3, .L11
 250 0004 1960     		str	r1, [r3]
  54:Drivers/lvgl/lvgl/src/extra/widgets/spinner/lv_spinner.c **** 
 251              		.loc 1 54 0
ARM GAS  /tmp/cc1tZdnZ.s 			page 12


 252 0006 064B     		ldr	r3, .L11+4
 253 0008 1A60     		str	r2, [r3]
  56:Drivers/lvgl/lvgl/src/extra/widgets/spinner/lv_spinner.c ****     lv_obj_class_init_obj(obj);
 254              		.loc 1 56 0
 255 000a 0146     		mov	r1, r0
 256              	.LVL27:
 257 000c 0548     		ldr	r0, .L11+8
 258              	.LVL28:
 259 000e FFF7FEFF 		bl	lv_obj_class_create_obj
 260              	.LVL29:
 261 0012 0446     		mov	r4, r0
 262              	.LVL30:
  57:Drivers/lvgl/lvgl/src/extra/widgets/spinner/lv_spinner.c ****     return obj;
 263              		.loc 1 57 0
 264 0014 FFF7FEFF 		bl	lv_obj_class_init_obj
 265              	.LVL31:
  59:Drivers/lvgl/lvgl/src/extra/widgets/spinner/lv_spinner.c **** 
 266              		.loc 1 59 0
 267 0018 2046     		mov	r0, r4
 268 001a 10BD     		pop	{r4, pc}
 269              	.LVL32:
 270              	.L12:
 271              		.align	2
 272              	.L11:
 273 001c 00000000 		.word	.LANCHOR0
 274 0020 00000000 		.word	.LANCHOR1
 275 0024 00000000 		.word	.LANCHOR2
 276              		.cfi_endproc
 277              	.LFE202:
 279              		.global	lv_spinner_class
 280              		.section	.bss.arc_length_param,"aw",%nobits
 281              		.align	2
 282              		.set	.LANCHOR1,. + 0
 285              	arc_length_param:
 286 0000 00000000 		.space	4
 287              		.section	.bss.time_param,"aw",%nobits
 288              		.align	2
 289              		.set	.LANCHOR0,. + 0
 292              	time_param:
 293 0000 00000000 		.space	4
 294              		.section	.rodata.lv_spinner_class,"a",%progbits
 295              		.align	2
 296              		.set	.LANCHOR2,. + 0
 299              	lv_spinner_class:
 300 0000 00000000 		.word	lv_arc_class
 301 0004 00000000 		.word	lv_spinner_constructor
 302 0008 00000000 		.space	20
 302      00000000 
 302      00000000 
 302      00000000 
 302      00000000 
 303              		.text
 304              	.Letext0:
 305              		.file 3 "/opt/gcc-arm-none-eabi-7-2017-q4-major/arm-none-eabi/include/machine/_default_types.h"
 306              		.file 4 "/opt/gcc-arm-none-eabi-7-2017-q4-major/arm-none-eabi/include/sys/_stdint.h"
 307              		.file 5 "/opt/gcc-arm-none-eabi-7-2017-q4-major/arm-none-eabi/include/sys/lock.h"
 308              		.file 6 "/opt/gcc-arm-none-eabi-7-2017-q4-major/arm-none-eabi/include/sys/_types.h"
ARM GAS  /tmp/cc1tZdnZ.s 			page 13


 309              		.file 7 "/opt/gcc-arm-none-eabi-7-2017-q4-major/lib/gcc/arm-none-eabi/7.2.1/include/stddef.h"
 310              		.file 8 "/opt/gcc-arm-none-eabi-7-2017-q4-major/arm-none-eabi/include/sys/reent.h"
 311              		.file 9 "Drivers/lvgl/lvgl/src/extra/widgets/spinner/../../../../src/hal/../draw/../misc/../font/.
 312              		.file 10 "Drivers/lvgl/lvgl/src/extra/widgets/spinner/../../../../src/hal/../draw/../misc/../font/
 313              		.file 11 "Drivers/lvgl/lvgl/src/extra/widgets/spinner/../../../../src/hal/../draw/../misc/lv_color
 314              		.file 12 "Drivers/lvgl/lvgl/src/extra/widgets/spinner/../../../../src/hal/../draw/../misc/lv_txt.h
 315              		.file 13 "Drivers/lvgl/lvgl/src/extra/widgets/spinner/../../../../src/hal/../draw/../misc/lv_style
 316              		.file 14 "Drivers/lvgl/lvgl/src/extra/widgets/spinner/../../../../src/core/lv_obj.h"
 317              		.file 15 "Drivers/lvgl/lvgl/src/extra/widgets/spinner/../../../../src/hal/../misc/lv_ll.h"
 318              		.file 16 "Drivers/lvgl/lvgl/src/extra/widgets/spinner/../../../../src/core/lv_group.h"
 319              		.file 17 "Drivers/lvgl/lvgl/src/extra/widgets/spinner/../../../../src/core/lv_obj_scroll.h"
 320              		.file 18 "Drivers/lvgl/lvgl/src/extra/widgets/spinner/../../../../src/core/lv_obj_style.h"
 321              		.file 19 "Drivers/lvgl/lvgl/src/extra/widgets/spinner/../../../../src/core/lv_obj_class.h"
 322              		.file 20 "Drivers/lvgl/lvgl/src/extra/widgets/spinner/../../../../src/core/lv_event.h"
 323              		.file 21 "Drivers/lvgl/lvgl/src/extra/widgets/spinner/../../../../src/widgets/lv_arc.h"
 324              		.file 22 "Drivers/lvgl/lvgl/src/extra/widgets/spinner/../../../../src/widgets/lv_btn.h"
 325              		.file 23 "Drivers/lvgl/lvgl/src/extra/widgets/spinner/../../../../src/widgets/lv_img.h"
 326              		.file 24 "Drivers/lvgl/lvgl/src/extra/widgets/spinner/../../../../src/widgets/lv_label.h"
 327              		.file 25 "Drivers/lvgl/lvgl/src/extra/widgets/spinner/../../../../src/widgets/lv_line.h"
 328              		.file 26 "Drivers/lvgl/lvgl/src/extra/widgets/spinner/../../../../src/widgets/lv_table.h"
 329              		.file 27 "Drivers/lvgl/lvgl/src/extra/widgets/spinner/../../../../src/widgets/lv_checkbox.h"
 330              		.file 28 "Drivers/lvgl/lvgl/src/extra/widgets/spinner/../../../../src/widgets/lv_bar.h"
 331              		.file 29 "Drivers/lvgl/lvgl/src/extra/widgets/spinner/../../../../src/widgets/lv_slider.h"
 332              		.file 30 "Drivers/lvgl/lvgl/src/extra/widgets/spinner/../../../../src/widgets/lv_btnmatrix.h"
 333              		.file 31 "Drivers/lvgl/lvgl/src/extra/widgets/spinner/../../../../src/widgets/lv_dropdown.h"
 334              		.file 32 "Drivers/lvgl/lvgl/src/extra/widgets/spinner/../../../../src/widgets/lv_roller.h"
 335              		.file 33 "Drivers/lvgl/lvgl/src/extra/widgets/spinner/../../../../src/widgets/lv_textarea.h"
 336              		.file 34 "Drivers/lvgl/lvgl/src/extra/widgets/spinner/../../../../src/widgets/lv_canvas.h"
 337              		.file 35 "Drivers/lvgl/lvgl/src/extra/widgets/spinner/../../../../src/widgets/lv_switch.h"
 338              		.file 36 "Drivers/lvgl/lvgl/src/extra/widgets/spinner/../../../../src/extra/layouts/flex/lv_flex.h
 339              		.file 37 "Drivers/lvgl/lvgl/src/extra/widgets/spinner/../../../../src/extra/layouts/grid/lv_grid.h
 340              		.file 38 "Drivers/lvgl/lvgl/src/extra/widgets/spinner/../../../../src/extra/widgets/animimg/lv_ani
 341              		.file 39 "Drivers/lvgl/lvgl/src/extra/widgets/spinner/../../../../src/extra/widgets/calendar/lv_ca
 342              		.file 40 "Drivers/lvgl/lvgl/src/extra/widgets/spinner/../../../../src/extra/widgets/calendar/lv_ca
 343              		.file 41 "Drivers/lvgl/lvgl/src/extra/widgets/spinner/../../../../src/extra/widgets/calendar/lv_ca
 344              		.file 42 "Drivers/lvgl/lvgl/src/extra/widgets/spinner/../../../../src/extra/widgets/chart/lv_chart
 345              		.file 43 "Drivers/lvgl/lvgl/src/extra/widgets/spinner/../../../../src/extra/widgets/keyboard/lv_ke
 346              		.file 44 "Drivers/lvgl/lvgl/src/extra/widgets/spinner/../../../../src/extra/widgets/list/lv_list.h
 347              		.file 45 "Drivers/lvgl/lvgl/src/extra/widgets/spinner/../../../../src/extra/widgets/menu/lv_menu.h
 348              		.file 46 "Drivers/lvgl/lvgl/src/extra/widgets/spinner/../../../../src/extra/widgets/msgbox/lv_msgb
 349              		.file 47 "Drivers/lvgl/lvgl/src/extra/widgets/spinner/../../../../src/extra/widgets/meter/lv_meter
 350              		.file 48 "Drivers/lvgl/lvgl/src/extra/widgets/spinner/../../../../src/extra/widgets/spinbox/lv_spi
 351              		.file 49 "Drivers/lvgl/lvgl/src/extra/widgets/spinner/../../../../src/extra/widgets/tabview/lv_tab
 352              		.file 50 "Drivers/lvgl/lvgl/src/extra/widgets/spinner/../../../../src/extra/widgets/tileview/lv_ti
 353              		.file 51 "Drivers/lvgl/lvgl/src/extra/widgets/spinner/../../../../src/extra/widgets/win/lv_win.h"
 354              		.file 52 "Drivers/lvgl/lvgl/src/extra/widgets/spinner/../../../../src/extra/widgets/colorwheel/lv_
 355              		.file 53 "Drivers/lvgl/lvgl/src/extra/widgets/spinner/../../../../src/extra/widgets/led/lv_led.h"
 356              		.file 54 "Drivers/lvgl/lvgl/src/extra/widgets/spinner/../../../../src/extra/widgets/imgbtn/lv_imgb
 357              		.file 55 "Drivers/lvgl/lvgl/src/extra/widgets/spinner/../../../../src/extra/widgets/span/lv_span.h
 358              		.file 56 "Drivers/lvgl/lvgl/src/extra/widgets/spinner/lv_spinner.h"
ARM GAS  /tmp/cc1tZdnZ.s 			page 14

