ARM GAS  /tmp/ccZ7tG7k.s 			page 1


   1              		.cpu cortex-m7
   2              		.eabi_attribute 28, 1
   3              		.eabi_attribute 20, 1
   4              		.eabi_attribute 21, 1
   5              		.eabi_attribute 23, 3
   6              		.eabi_attribute 24, 1
   7              		.eabi_attribute 25, 1
   8              		.eabi_attribute 26, 1
   9              		.eabi_attribute 30, 1
  10              		.eabi_attribute 34, 1
  11              		.eabi_attribute 18, 4
  12              		.file	"lv_txt.c"
  13              		.text
  14              	.Ltext0:
  15              		.cfi_sections	.debug_frame
  16              		.section	.text.lv_txt_utf8_size,"ax",%progbits
  17              		.align	1
  18              		.syntax unified
  19              		.thumb
  20              		.thumb_func
  21              		.fpu fpv5-d16
  23              	lv_txt_utf8_size:
  24              	.LFB64:
  25              		.file 1 "Drivers/lvgl/lvgl/src/misc/lv_txt.c"
   1:Drivers/lvgl/lvgl/src/misc/lv_txt.c **** /**
   2:Drivers/lvgl/lvgl/src/misc/lv_txt.c ****  * @file lv_txt.c
   3:Drivers/lvgl/lvgl/src/misc/lv_txt.c ****  *
   4:Drivers/lvgl/lvgl/src/misc/lv_txt.c ****  */
   5:Drivers/lvgl/lvgl/src/misc/lv_txt.c **** 
   6:Drivers/lvgl/lvgl/src/misc/lv_txt.c **** /*********************
   7:Drivers/lvgl/lvgl/src/misc/lv_txt.c ****  *      INCLUDES
   8:Drivers/lvgl/lvgl/src/misc/lv_txt.c ****  *********************/
   9:Drivers/lvgl/lvgl/src/misc/lv_txt.c **** #include <stdarg.h>
  10:Drivers/lvgl/lvgl/src/misc/lv_txt.c **** #include "lv_txt.h"
  11:Drivers/lvgl/lvgl/src/misc/lv_txt.c **** #include "lv_txt_ap.h"
  12:Drivers/lvgl/lvgl/src/misc/lv_txt.c **** #include "lv_math.h"
  13:Drivers/lvgl/lvgl/src/misc/lv_txt.c **** #include "lv_log.h"
  14:Drivers/lvgl/lvgl/src/misc/lv_txt.c **** #include "lv_mem.h"
  15:Drivers/lvgl/lvgl/src/misc/lv_txt.c **** #include "lv_assert.h"
  16:Drivers/lvgl/lvgl/src/misc/lv_txt.c **** 
  17:Drivers/lvgl/lvgl/src/misc/lv_txt.c **** /*********************
  18:Drivers/lvgl/lvgl/src/misc/lv_txt.c ****  *      DEFINES
  19:Drivers/lvgl/lvgl/src/misc/lv_txt.c ****  *********************/
  20:Drivers/lvgl/lvgl/src/misc/lv_txt.c **** #define NO_BREAK_FOUND UINT32_MAX
  21:Drivers/lvgl/lvgl/src/misc/lv_txt.c **** 
  22:Drivers/lvgl/lvgl/src/misc/lv_txt.c **** /**********************
  23:Drivers/lvgl/lvgl/src/misc/lv_txt.c ****  *      TYPEDEFS
  24:Drivers/lvgl/lvgl/src/misc/lv_txt.c ****  **********************/
  25:Drivers/lvgl/lvgl/src/misc/lv_txt.c **** 
  26:Drivers/lvgl/lvgl/src/misc/lv_txt.c **** /**********************
  27:Drivers/lvgl/lvgl/src/misc/lv_txt.c ****  *  STATIC PROTOTYPES
  28:Drivers/lvgl/lvgl/src/misc/lv_txt.c ****  **********************/
  29:Drivers/lvgl/lvgl/src/misc/lv_txt.c **** 
  30:Drivers/lvgl/lvgl/src/misc/lv_txt.c **** #if LV_TXT_ENC == LV_TXT_ENC_UTF8
  31:Drivers/lvgl/lvgl/src/misc/lv_txt.c ****     static uint8_t lv_txt_utf8_size(const char * str);
  32:Drivers/lvgl/lvgl/src/misc/lv_txt.c ****     static uint32_t lv_txt_unicode_to_utf8(uint32_t letter_uni);
  33:Drivers/lvgl/lvgl/src/misc/lv_txt.c ****     static uint32_t lv_txt_utf8_conv_wc(uint32_t c);
ARM GAS  /tmp/ccZ7tG7k.s 			page 2


  34:Drivers/lvgl/lvgl/src/misc/lv_txt.c ****     static uint32_t lv_txt_utf8_next(const char * txt, uint32_t * i);
  35:Drivers/lvgl/lvgl/src/misc/lv_txt.c ****     static uint32_t lv_txt_utf8_prev(const char * txt, uint32_t * i_start);
  36:Drivers/lvgl/lvgl/src/misc/lv_txt.c ****     static uint32_t lv_txt_utf8_get_byte_id(const char * txt, uint32_t utf8_id);
  37:Drivers/lvgl/lvgl/src/misc/lv_txt.c ****     static uint32_t lv_txt_utf8_get_char_id(const char * txt, uint32_t byte_id);
  38:Drivers/lvgl/lvgl/src/misc/lv_txt.c ****     static uint32_t lv_txt_utf8_get_length(const char * txt);
  39:Drivers/lvgl/lvgl/src/misc/lv_txt.c **** #elif LV_TXT_ENC == LV_TXT_ENC_ASCII
  40:Drivers/lvgl/lvgl/src/misc/lv_txt.c ****     static uint8_t lv_txt_iso8859_1_size(const char * str);
  41:Drivers/lvgl/lvgl/src/misc/lv_txt.c ****     static uint32_t lv_txt_unicode_to_iso8859_1(uint32_t letter_uni);
  42:Drivers/lvgl/lvgl/src/misc/lv_txt.c ****     static uint32_t lv_txt_iso8859_1_conv_wc(uint32_t c);
  43:Drivers/lvgl/lvgl/src/misc/lv_txt.c ****     static uint32_t lv_txt_iso8859_1_next(const char * txt, uint32_t * i);
  44:Drivers/lvgl/lvgl/src/misc/lv_txt.c ****     static uint32_t lv_txt_iso8859_1_prev(const char * txt, uint32_t * i_start);
  45:Drivers/lvgl/lvgl/src/misc/lv_txt.c ****     static uint32_t lv_txt_iso8859_1_get_byte_id(const char * txt, uint32_t utf8_id);
  46:Drivers/lvgl/lvgl/src/misc/lv_txt.c ****     static uint32_t lv_txt_iso8859_1_get_char_id(const char * txt, uint32_t byte_id);
  47:Drivers/lvgl/lvgl/src/misc/lv_txt.c ****     static uint32_t lv_txt_iso8859_1_get_length(const char * txt);
  48:Drivers/lvgl/lvgl/src/misc/lv_txt.c **** #endif
  49:Drivers/lvgl/lvgl/src/misc/lv_txt.c **** /**********************
  50:Drivers/lvgl/lvgl/src/misc/lv_txt.c ****  *  STATIC VARIABLES
  51:Drivers/lvgl/lvgl/src/misc/lv_txt.c ****  **********************/
  52:Drivers/lvgl/lvgl/src/misc/lv_txt.c **** 
  53:Drivers/lvgl/lvgl/src/misc/lv_txt.c **** /**********************
  54:Drivers/lvgl/lvgl/src/misc/lv_txt.c ****  *  GLOBAL VARIABLES
  55:Drivers/lvgl/lvgl/src/misc/lv_txt.c ****  **********************/
  56:Drivers/lvgl/lvgl/src/misc/lv_txt.c **** #if LV_TXT_ENC == LV_TXT_ENC_UTF8
  57:Drivers/lvgl/lvgl/src/misc/lv_txt.c ****     uint8_t (*_lv_txt_encoded_size)(const char *)                   = lv_txt_utf8_size;
  58:Drivers/lvgl/lvgl/src/misc/lv_txt.c ****     uint32_t (*_lv_txt_unicode_to_encoded)(uint32_t)                = lv_txt_unicode_to_utf8;
  59:Drivers/lvgl/lvgl/src/misc/lv_txt.c ****     uint32_t (*_lv_txt_encoded_conv_wc)(uint32_t)                   = lv_txt_utf8_conv_wc;
  60:Drivers/lvgl/lvgl/src/misc/lv_txt.c ****     uint32_t (*_lv_txt_encoded_next)(const char *, uint32_t *)      = lv_txt_utf8_next;
  61:Drivers/lvgl/lvgl/src/misc/lv_txt.c ****     uint32_t (*_lv_txt_encoded_prev)(const char *, uint32_t *)      = lv_txt_utf8_prev;
  62:Drivers/lvgl/lvgl/src/misc/lv_txt.c ****     uint32_t (*_lv_txt_encoded_get_byte_id)(const char *, uint32_t) = lv_txt_utf8_get_byte_id;
  63:Drivers/lvgl/lvgl/src/misc/lv_txt.c ****     uint32_t (*_lv_txt_encoded_get_char_id)(const char *, uint32_t) = lv_txt_utf8_get_char_id;
  64:Drivers/lvgl/lvgl/src/misc/lv_txt.c ****     uint32_t (*_lv_txt_get_encoded_length)(const char *)            = lv_txt_utf8_get_length;
  65:Drivers/lvgl/lvgl/src/misc/lv_txt.c **** #elif LV_TXT_ENC == LV_TXT_ENC_ASCII
  66:Drivers/lvgl/lvgl/src/misc/lv_txt.c ****     uint8_t (*_lv_txt_encoded_size)(const char *)                   = lv_txt_iso8859_1_size;
  67:Drivers/lvgl/lvgl/src/misc/lv_txt.c ****     uint32_t (*_lv_txt_unicode_to_encoded)(uint32_t)                = lv_txt_unicode_to_iso8859_1;
  68:Drivers/lvgl/lvgl/src/misc/lv_txt.c ****     uint32_t (*_lv_txt_encoded_conv_wc)(uint32_t)                   = lv_txt_iso8859_1_conv_wc;
  69:Drivers/lvgl/lvgl/src/misc/lv_txt.c ****     uint32_t (*_lv_txt_encoded_next)(const char *, uint32_t *)      = lv_txt_iso8859_1_next;
  70:Drivers/lvgl/lvgl/src/misc/lv_txt.c ****     uint32_t (*_lv_txt_encoded_prev)(const char *, uint32_t *)      = lv_txt_iso8859_1_prev;
  71:Drivers/lvgl/lvgl/src/misc/lv_txt.c ****     uint32_t (*_lv_txt_encoded_get_byte_id)(const char *, uint32_t) = lv_txt_iso8859_1_get_byte_id;
  72:Drivers/lvgl/lvgl/src/misc/lv_txt.c ****     uint32_t (*_lv_txt_encoded_get_char_id)(const char *, uint32_t)     = lv_txt_iso8859_1_get_char
  73:Drivers/lvgl/lvgl/src/misc/lv_txt.c ****     uint32_t (*_lv_txt_get_encoded_length)(const char *)            = lv_txt_iso8859_1_get_length;
  74:Drivers/lvgl/lvgl/src/misc/lv_txt.c **** 
  75:Drivers/lvgl/lvgl/src/misc/lv_txt.c **** #endif
  76:Drivers/lvgl/lvgl/src/misc/lv_txt.c **** 
  77:Drivers/lvgl/lvgl/src/misc/lv_txt.c **** /**********************
  78:Drivers/lvgl/lvgl/src/misc/lv_txt.c ****  *      MACROS
  79:Drivers/lvgl/lvgl/src/misc/lv_txt.c ****  **********************/
  80:Drivers/lvgl/lvgl/src/misc/lv_txt.c **** 
  81:Drivers/lvgl/lvgl/src/misc/lv_txt.c **** #define LV_IS_ASCII(value)              ((value & 0x80U) == 0x00U)
  82:Drivers/lvgl/lvgl/src/misc/lv_txt.c **** #define LV_IS_2BYTES_UTF8_CODE(value)   ((value & 0xE0U) == 0xC0U)
  83:Drivers/lvgl/lvgl/src/misc/lv_txt.c **** #define LV_IS_3BYTES_UTF8_CODE(value)   ((value & 0xF0U) == 0xE0U)
  84:Drivers/lvgl/lvgl/src/misc/lv_txt.c **** #define LV_IS_4BYTES_UTF8_CODE(value)   ((value & 0xF8U) == 0xF0U)
  85:Drivers/lvgl/lvgl/src/misc/lv_txt.c **** #define LV_IS_INVALID_UTF8_CODE(value)  ((value & 0xC0U) != 0x80U)
  86:Drivers/lvgl/lvgl/src/misc/lv_txt.c **** 
  87:Drivers/lvgl/lvgl/src/misc/lv_txt.c **** /**********************
  88:Drivers/lvgl/lvgl/src/misc/lv_txt.c ****  *   GLOBAL FUNCTIONS
  89:Drivers/lvgl/lvgl/src/misc/lv_txt.c ****  **********************/
  90:Drivers/lvgl/lvgl/src/misc/lv_txt.c **** 
ARM GAS  /tmp/ccZ7tG7k.s 			page 3


  91:Drivers/lvgl/lvgl/src/misc/lv_txt.c **** void lv_txt_get_size(lv_point_t * size_res, const char * text, const lv_font_t * font, lv_coord_t l
  92:Drivers/lvgl/lvgl/src/misc/lv_txt.c ****                      lv_coord_t line_space, lv_coord_t max_width, lv_text_flag_t flag)
  93:Drivers/lvgl/lvgl/src/misc/lv_txt.c **** {
  94:Drivers/lvgl/lvgl/src/misc/lv_txt.c ****     size_res->x = 0;
  95:Drivers/lvgl/lvgl/src/misc/lv_txt.c ****     size_res->y = 0;
  96:Drivers/lvgl/lvgl/src/misc/lv_txt.c **** 
  97:Drivers/lvgl/lvgl/src/misc/lv_txt.c ****     if(text == NULL) return;
  98:Drivers/lvgl/lvgl/src/misc/lv_txt.c ****     if(font == NULL) return;
  99:Drivers/lvgl/lvgl/src/misc/lv_txt.c **** 
 100:Drivers/lvgl/lvgl/src/misc/lv_txt.c ****     if(flag & LV_TEXT_FLAG_EXPAND) max_width = LV_COORD_MAX;
 101:Drivers/lvgl/lvgl/src/misc/lv_txt.c **** 
 102:Drivers/lvgl/lvgl/src/misc/lv_txt.c ****     uint32_t line_start     = 0;
 103:Drivers/lvgl/lvgl/src/misc/lv_txt.c ****     uint32_t new_line_start = 0;
 104:Drivers/lvgl/lvgl/src/misc/lv_txt.c ****     uint16_t letter_height = lv_font_get_line_height(font);
 105:Drivers/lvgl/lvgl/src/misc/lv_txt.c **** 
 106:Drivers/lvgl/lvgl/src/misc/lv_txt.c ****     /*Calc. the height and longest line*/
 107:Drivers/lvgl/lvgl/src/misc/lv_txt.c ****     while(text[line_start] != '\0') {
 108:Drivers/lvgl/lvgl/src/misc/lv_txt.c ****         new_line_start += _lv_txt_get_next_line(&text[line_start], font, letter_space, max_width, N
 109:Drivers/lvgl/lvgl/src/misc/lv_txt.c **** 
 110:Drivers/lvgl/lvgl/src/misc/lv_txt.c ****         if((unsigned long)size_res->y + (unsigned long)letter_height + (unsigned long)line_space > 
 111:Drivers/lvgl/lvgl/src/misc/lv_txt.c ****             LV_LOG_WARN("lv_txt_get_size: integer overflow while calculating text height");
 112:Drivers/lvgl/lvgl/src/misc/lv_txt.c ****             return;
 113:Drivers/lvgl/lvgl/src/misc/lv_txt.c ****         }
 114:Drivers/lvgl/lvgl/src/misc/lv_txt.c ****         else {
 115:Drivers/lvgl/lvgl/src/misc/lv_txt.c ****             size_res->y += letter_height;
 116:Drivers/lvgl/lvgl/src/misc/lv_txt.c ****             size_res->y += line_space;
 117:Drivers/lvgl/lvgl/src/misc/lv_txt.c ****         }
 118:Drivers/lvgl/lvgl/src/misc/lv_txt.c **** 
 119:Drivers/lvgl/lvgl/src/misc/lv_txt.c ****         /*Calculate the longest line*/
 120:Drivers/lvgl/lvgl/src/misc/lv_txt.c ****         lv_coord_t act_line_length = lv_txt_get_width(&text[line_start], new_line_start - line_star
 121:Drivers/lvgl/lvgl/src/misc/lv_txt.c ****                                                       flag);
 122:Drivers/lvgl/lvgl/src/misc/lv_txt.c **** 
 123:Drivers/lvgl/lvgl/src/misc/lv_txt.c ****         size_res->x = LV_MAX(act_line_length, size_res->x);
 124:Drivers/lvgl/lvgl/src/misc/lv_txt.c ****         line_start  = new_line_start;
 125:Drivers/lvgl/lvgl/src/misc/lv_txt.c ****     }
 126:Drivers/lvgl/lvgl/src/misc/lv_txt.c **** 
 127:Drivers/lvgl/lvgl/src/misc/lv_txt.c ****     /*Make the text one line taller if the last character is '\n' or '\r'*/
 128:Drivers/lvgl/lvgl/src/misc/lv_txt.c ****     if((line_start != 0) && (text[line_start - 1] == '\n' || text[line_start - 1] == '\r')) {
 129:Drivers/lvgl/lvgl/src/misc/lv_txt.c ****         size_res->y += letter_height + line_space;
 130:Drivers/lvgl/lvgl/src/misc/lv_txt.c ****     }
 131:Drivers/lvgl/lvgl/src/misc/lv_txt.c **** 
 132:Drivers/lvgl/lvgl/src/misc/lv_txt.c ****     /*Correction with the last line space or set the height manually if the text is empty*/
 133:Drivers/lvgl/lvgl/src/misc/lv_txt.c ****     if(size_res->y == 0)
 134:Drivers/lvgl/lvgl/src/misc/lv_txt.c ****         size_res->y = letter_height;
 135:Drivers/lvgl/lvgl/src/misc/lv_txt.c ****     else
 136:Drivers/lvgl/lvgl/src/misc/lv_txt.c ****         size_res->y -= line_space;
 137:Drivers/lvgl/lvgl/src/misc/lv_txt.c **** }
 138:Drivers/lvgl/lvgl/src/misc/lv_txt.c **** 
 139:Drivers/lvgl/lvgl/src/misc/lv_txt.c **** /**
 140:Drivers/lvgl/lvgl/src/misc/lv_txt.c ****  * Get the next word of text. A word is delimited by break characters.
 141:Drivers/lvgl/lvgl/src/misc/lv_txt.c ****  *
 142:Drivers/lvgl/lvgl/src/misc/lv_txt.c ****  * If the word cannot fit in the max_width space, obey LV_TXT_LINE_BREAK_LONG_* rules.
 143:Drivers/lvgl/lvgl/src/misc/lv_txt.c ****  *
 144:Drivers/lvgl/lvgl/src/misc/lv_txt.c ****  * If the next word cannot fit anything, return 0.
 145:Drivers/lvgl/lvgl/src/misc/lv_txt.c ****  *
 146:Drivers/lvgl/lvgl/src/misc/lv_txt.c ****  * If the first character is a break character, returns the next index.
 147:Drivers/lvgl/lvgl/src/misc/lv_txt.c ****  *
ARM GAS  /tmp/ccZ7tG7k.s 			page 4


 148:Drivers/lvgl/lvgl/src/misc/lv_txt.c ****  * Example calls from lv_txt_get_next_line() assuming sufficient max_width and
 149:Drivers/lvgl/lvgl/src/misc/lv_txt.c ****  * txt = "Test text\n"
 150:Drivers/lvgl/lvgl/src/misc/lv_txt.c ****  *        0123456789
 151:Drivers/lvgl/lvgl/src/misc/lv_txt.c ****  *
 152:Drivers/lvgl/lvgl/src/misc/lv_txt.c ****  * Calls would be as follows:
 153:Drivers/lvgl/lvgl/src/misc/lv_txt.c ****  *     1. Return i=4, pointing at breakchar ' ', for the string "Test"
 154:Drivers/lvgl/lvgl/src/misc/lv_txt.c ****  *     2. Return i=5, since i=4 was a breakchar.
 155:Drivers/lvgl/lvgl/src/misc/lv_txt.c ****  *     3. Return i=9, pointing at breakchar '\n'
 156:Drivers/lvgl/lvgl/src/misc/lv_txt.c ****  *     4. Parenting lv_txt_get_next_line() would detect subsequent '\0'
 157:Drivers/lvgl/lvgl/src/misc/lv_txt.c ****  *
 158:Drivers/lvgl/lvgl/src/misc/lv_txt.c ****  * TODO: Returned word_w_ptr may overestimate the returned word's width when
 159:Drivers/lvgl/lvgl/src/misc/lv_txt.c ****  * max_width is reached. In current usage, this has no impact.
 160:Drivers/lvgl/lvgl/src/misc/lv_txt.c ****  *
 161:Drivers/lvgl/lvgl/src/misc/lv_txt.c ****  * @param txt a '\0' terminated string
 162:Drivers/lvgl/lvgl/src/misc/lv_txt.c ****  * @param font pointer to a font
 163:Drivers/lvgl/lvgl/src/misc/lv_txt.c ****  * @param letter_space letter space
 164:Drivers/lvgl/lvgl/src/misc/lv_txt.c ****  * @param max_width max width of the text (break the lines to fit this size). Set COORD_MAX to avoi
 165:Drivers/lvgl/lvgl/src/misc/lv_txt.c ****  * @param flags settings for the text from 'txt_flag_type' enum
 166:Drivers/lvgl/lvgl/src/misc/lv_txt.c ****  * @param[out] word_w_ptr width (in pixels) of the parsed word. May be NULL.
 167:Drivers/lvgl/lvgl/src/misc/lv_txt.c ****  * @param cmd_state pointer to a txt_cmd_state_t variable which stores the current state of command
 168:Drivers/lvgl/lvgl/src/misc/lv_txt.c ****  * @param force Force return the fraction of the word that can fit in the provided space.
 169:Drivers/lvgl/lvgl/src/misc/lv_txt.c ****  * @return the index of the first char of the next word (in byte index not letter index. With UTF-8
 170:Drivers/lvgl/lvgl/src/misc/lv_txt.c ****  */
 171:Drivers/lvgl/lvgl/src/misc/lv_txt.c **** static uint32_t lv_txt_get_next_word(const char * txt, const lv_font_t * font,
 172:Drivers/lvgl/lvgl/src/misc/lv_txt.c ****                                      lv_coord_t letter_space, lv_coord_t max_width,
 173:Drivers/lvgl/lvgl/src/misc/lv_txt.c ****                                      lv_text_flag_t flag, uint32_t * word_w_ptr, lv_text_cmd_state_
 174:Drivers/lvgl/lvgl/src/misc/lv_txt.c **** {
 175:Drivers/lvgl/lvgl/src/misc/lv_txt.c ****     if(txt == NULL || txt[0] == '\0') return 0;
 176:Drivers/lvgl/lvgl/src/misc/lv_txt.c ****     if(font == NULL) return 0;
 177:Drivers/lvgl/lvgl/src/misc/lv_txt.c **** 
 178:Drivers/lvgl/lvgl/src/misc/lv_txt.c ****     if(flag & LV_TEXT_FLAG_EXPAND) max_width = LV_COORD_MAX;
 179:Drivers/lvgl/lvgl/src/misc/lv_txt.c **** 
 180:Drivers/lvgl/lvgl/src/misc/lv_txt.c ****     uint32_t i = 0, i_next = 0, i_next_next = 0;  /*Iterating index into txt*/
 181:Drivers/lvgl/lvgl/src/misc/lv_txt.c ****     uint32_t letter = 0;      /*Letter at i*/
 182:Drivers/lvgl/lvgl/src/misc/lv_txt.c ****     uint32_t letter_next = 0; /*Letter at i_next*/
 183:Drivers/lvgl/lvgl/src/misc/lv_txt.c ****     lv_coord_t letter_w;
 184:Drivers/lvgl/lvgl/src/misc/lv_txt.c ****     lv_coord_t cur_w = 0;  /*Pixel Width of transversed string*/
 185:Drivers/lvgl/lvgl/src/misc/lv_txt.c ****     uint32_t word_len = 0;   /*Number of characters in the transversed word*/
 186:Drivers/lvgl/lvgl/src/misc/lv_txt.c ****     uint32_t break_index = NO_BREAK_FOUND; /*only used for "long" words*/
 187:Drivers/lvgl/lvgl/src/misc/lv_txt.c ****     uint32_t break_letter_count = 0; /*Number of characters up to the long word break point*/
 188:Drivers/lvgl/lvgl/src/misc/lv_txt.c **** 
 189:Drivers/lvgl/lvgl/src/misc/lv_txt.c ****     letter = _lv_txt_encoded_next(txt, &i_next);
 190:Drivers/lvgl/lvgl/src/misc/lv_txt.c ****     i_next_next = i_next;
 191:Drivers/lvgl/lvgl/src/misc/lv_txt.c **** 
 192:Drivers/lvgl/lvgl/src/misc/lv_txt.c ****     /*Obtain the full word, regardless if it fits or not in max_width*/
 193:Drivers/lvgl/lvgl/src/misc/lv_txt.c ****     while(txt[i] != '\0') {
 194:Drivers/lvgl/lvgl/src/misc/lv_txt.c ****         letter_next = _lv_txt_encoded_next(txt, &i_next_next);
 195:Drivers/lvgl/lvgl/src/misc/lv_txt.c ****         word_len++;
 196:Drivers/lvgl/lvgl/src/misc/lv_txt.c **** 
 197:Drivers/lvgl/lvgl/src/misc/lv_txt.c ****         /*Handle the recolor command*/
 198:Drivers/lvgl/lvgl/src/misc/lv_txt.c ****         if((flag & LV_TEXT_FLAG_RECOLOR) != 0) {
 199:Drivers/lvgl/lvgl/src/misc/lv_txt.c ****             if(_lv_txt_is_cmd(cmd_state, letter) != false) {
 200:Drivers/lvgl/lvgl/src/misc/lv_txt.c ****                 i = i_next;
 201:Drivers/lvgl/lvgl/src/misc/lv_txt.c ****                 i_next = i_next_next;
 202:Drivers/lvgl/lvgl/src/misc/lv_txt.c ****                 letter = letter_next;
 203:Drivers/lvgl/lvgl/src/misc/lv_txt.c ****                 continue;   /*Skip the letter if it is part of a command*/
 204:Drivers/lvgl/lvgl/src/misc/lv_txt.c ****             }
ARM GAS  /tmp/ccZ7tG7k.s 			page 5


 205:Drivers/lvgl/lvgl/src/misc/lv_txt.c ****         }
 206:Drivers/lvgl/lvgl/src/misc/lv_txt.c **** 
 207:Drivers/lvgl/lvgl/src/misc/lv_txt.c ****         letter_w = lv_font_get_glyph_width(font, letter, letter_next);
 208:Drivers/lvgl/lvgl/src/misc/lv_txt.c ****         cur_w += letter_w;
 209:Drivers/lvgl/lvgl/src/misc/lv_txt.c **** 
 210:Drivers/lvgl/lvgl/src/misc/lv_txt.c ****         if(letter_w > 0) {
 211:Drivers/lvgl/lvgl/src/misc/lv_txt.c ****             cur_w += letter_space;
 212:Drivers/lvgl/lvgl/src/misc/lv_txt.c ****         }
 213:Drivers/lvgl/lvgl/src/misc/lv_txt.c **** 
 214:Drivers/lvgl/lvgl/src/misc/lv_txt.c ****         /*Test if this character fits within max_width*/
 215:Drivers/lvgl/lvgl/src/misc/lv_txt.c ****         if(break_index == NO_BREAK_FOUND && (cur_w - letter_space) > max_width) {
 216:Drivers/lvgl/lvgl/src/misc/lv_txt.c ****             break_index = i;
 217:Drivers/lvgl/lvgl/src/misc/lv_txt.c ****             break_letter_count = word_len - 1;
 218:Drivers/lvgl/lvgl/src/misc/lv_txt.c ****             /*break_index is now pointing at the character that doesn't fit*/
 219:Drivers/lvgl/lvgl/src/misc/lv_txt.c ****         }
 220:Drivers/lvgl/lvgl/src/misc/lv_txt.c **** 
 221:Drivers/lvgl/lvgl/src/misc/lv_txt.c ****         /*Check for new line chars and breakchars*/
 222:Drivers/lvgl/lvgl/src/misc/lv_txt.c ****         if(letter == '\n' || letter == '\r' || _lv_txt_is_break_char(letter)) {
 223:Drivers/lvgl/lvgl/src/misc/lv_txt.c ****             /*Update the output width on the first character if it fits.
 224:Drivers/lvgl/lvgl/src/misc/lv_txt.c ****              *Must do this here in case first letter is a break character.*/
 225:Drivers/lvgl/lvgl/src/misc/lv_txt.c ****             if(i == 0 && break_index == NO_BREAK_FOUND && word_w_ptr != NULL) *word_w_ptr = cur_w;
 226:Drivers/lvgl/lvgl/src/misc/lv_txt.c ****             word_len--;
 227:Drivers/lvgl/lvgl/src/misc/lv_txt.c ****             break;
 228:Drivers/lvgl/lvgl/src/misc/lv_txt.c ****         }
 229:Drivers/lvgl/lvgl/src/misc/lv_txt.c **** 
 230:Drivers/lvgl/lvgl/src/misc/lv_txt.c ****         /*Update the output width*/
 231:Drivers/lvgl/lvgl/src/misc/lv_txt.c ****         if(word_w_ptr != NULL && break_index == NO_BREAK_FOUND) *word_w_ptr = cur_w;
 232:Drivers/lvgl/lvgl/src/misc/lv_txt.c **** 
 233:Drivers/lvgl/lvgl/src/misc/lv_txt.c ****         i = i_next;
 234:Drivers/lvgl/lvgl/src/misc/lv_txt.c ****         i_next = i_next_next;
 235:Drivers/lvgl/lvgl/src/misc/lv_txt.c ****         letter = letter_next;
 236:Drivers/lvgl/lvgl/src/misc/lv_txt.c ****     }
 237:Drivers/lvgl/lvgl/src/misc/lv_txt.c **** 
 238:Drivers/lvgl/lvgl/src/misc/lv_txt.c ****     /*Entire Word fits in the provided space*/
 239:Drivers/lvgl/lvgl/src/misc/lv_txt.c ****     if(break_index == NO_BREAK_FOUND) {
 240:Drivers/lvgl/lvgl/src/misc/lv_txt.c ****         if(word_len == 0 || (letter == '\r' && letter_next == '\n')) i = i_next;
 241:Drivers/lvgl/lvgl/src/misc/lv_txt.c ****         return i;
 242:Drivers/lvgl/lvgl/src/misc/lv_txt.c ****     }
 243:Drivers/lvgl/lvgl/src/misc/lv_txt.c **** 
 244:Drivers/lvgl/lvgl/src/misc/lv_txt.c **** #if LV_TXT_LINE_BREAK_LONG_LEN > 0
 245:Drivers/lvgl/lvgl/src/misc/lv_txt.c ****     /*Word doesn't fit in provided space, but isn't "long"*/
 246:Drivers/lvgl/lvgl/src/misc/lv_txt.c ****     if(word_len < LV_TXT_LINE_BREAK_LONG_LEN) {
 247:Drivers/lvgl/lvgl/src/misc/lv_txt.c ****         if(force) return break_index;
 248:Drivers/lvgl/lvgl/src/misc/lv_txt.c ****         if(word_w_ptr != NULL) *word_w_ptr = 0; /*Return no word*/
 249:Drivers/lvgl/lvgl/src/misc/lv_txt.c ****         return 0;
 250:Drivers/lvgl/lvgl/src/misc/lv_txt.c ****     }
 251:Drivers/lvgl/lvgl/src/misc/lv_txt.c **** 
 252:Drivers/lvgl/lvgl/src/misc/lv_txt.c ****     /*Word is "long," but insufficient amounts can fit in provided space*/
 253:Drivers/lvgl/lvgl/src/misc/lv_txt.c ****     if(break_letter_count < LV_TXT_LINE_BREAK_LONG_PRE_MIN_LEN) {
 254:Drivers/lvgl/lvgl/src/misc/lv_txt.c ****         if(force) return break_index;
 255:Drivers/lvgl/lvgl/src/misc/lv_txt.c ****         if(word_w_ptr != NULL) *word_w_ptr = 0;
 256:Drivers/lvgl/lvgl/src/misc/lv_txt.c ****         return 0;
 257:Drivers/lvgl/lvgl/src/misc/lv_txt.c ****     }
 258:Drivers/lvgl/lvgl/src/misc/lv_txt.c **** 
 259:Drivers/lvgl/lvgl/src/misc/lv_txt.c ****     /*Word is a "long", but letters may need to be better distributed*/
 260:Drivers/lvgl/lvgl/src/misc/lv_txt.c ****     {
 261:Drivers/lvgl/lvgl/src/misc/lv_txt.c ****         i = break_index;
ARM GAS  /tmp/ccZ7tG7k.s 			page 6


 262:Drivers/lvgl/lvgl/src/misc/lv_txt.c ****         int32_t n_move = LV_TXT_LINE_BREAK_LONG_POST_MIN_LEN - (word_len - break_letter_count);
 263:Drivers/lvgl/lvgl/src/misc/lv_txt.c ****         /*Move pointer "i" backwards*/
 264:Drivers/lvgl/lvgl/src/misc/lv_txt.c ****         for(; n_move > 0; n_move--) {
 265:Drivers/lvgl/lvgl/src/misc/lv_txt.c ****             _lv_txt_encoded_prev(txt, &i);
 266:Drivers/lvgl/lvgl/src/misc/lv_txt.c ****             // TODO: it would be appropriate to update the returned word width here
 267:Drivers/lvgl/lvgl/src/misc/lv_txt.c ****             // However, in current usage, this doesn't impact anything.
 268:Drivers/lvgl/lvgl/src/misc/lv_txt.c ****         }
 269:Drivers/lvgl/lvgl/src/misc/lv_txt.c ****     }
 270:Drivers/lvgl/lvgl/src/misc/lv_txt.c ****     return i;
 271:Drivers/lvgl/lvgl/src/misc/lv_txt.c **** #else
 272:Drivers/lvgl/lvgl/src/misc/lv_txt.c ****     if(force) return break_index;
 273:Drivers/lvgl/lvgl/src/misc/lv_txt.c ****     if(word_w_ptr != NULL) *word_w_ptr = 0; /*Return no word*/
 274:Drivers/lvgl/lvgl/src/misc/lv_txt.c ****     (void) break_letter_count;
 275:Drivers/lvgl/lvgl/src/misc/lv_txt.c ****     return 0;
 276:Drivers/lvgl/lvgl/src/misc/lv_txt.c **** #endif
 277:Drivers/lvgl/lvgl/src/misc/lv_txt.c **** }
 278:Drivers/lvgl/lvgl/src/misc/lv_txt.c **** 
 279:Drivers/lvgl/lvgl/src/misc/lv_txt.c **** uint32_t _lv_txt_get_next_line(const char * txt, const lv_font_t * font,
 280:Drivers/lvgl/lvgl/src/misc/lv_txt.c ****                                lv_coord_t letter_space, lv_coord_t max_width,
 281:Drivers/lvgl/lvgl/src/misc/lv_txt.c ****                                lv_coord_t * used_width, lv_text_flag_t flag)
 282:Drivers/lvgl/lvgl/src/misc/lv_txt.c **** {
 283:Drivers/lvgl/lvgl/src/misc/lv_txt.c ****     if(used_width) *used_width = 0;
 284:Drivers/lvgl/lvgl/src/misc/lv_txt.c **** 
 285:Drivers/lvgl/lvgl/src/misc/lv_txt.c ****     if(txt == NULL) return 0;
 286:Drivers/lvgl/lvgl/src/misc/lv_txt.c ****     if(txt[0] == '\0') return 0;
 287:Drivers/lvgl/lvgl/src/misc/lv_txt.c ****     if(font == NULL) return 0;
 288:Drivers/lvgl/lvgl/src/misc/lv_txt.c **** 
 289:Drivers/lvgl/lvgl/src/misc/lv_txt.c ****     lv_coord_t line_w = 0;
 290:Drivers/lvgl/lvgl/src/misc/lv_txt.c **** 
 291:Drivers/lvgl/lvgl/src/misc/lv_txt.c ****     /*If max_width doesn't mater simply find the new line character
 292:Drivers/lvgl/lvgl/src/misc/lv_txt.c ****      *without thinking about word wrapping*/
 293:Drivers/lvgl/lvgl/src/misc/lv_txt.c ****     if((flag & LV_TEXT_FLAG_EXPAND) || (flag & LV_TEXT_FLAG_FIT)) {
 294:Drivers/lvgl/lvgl/src/misc/lv_txt.c ****         uint32_t i;
 295:Drivers/lvgl/lvgl/src/misc/lv_txt.c ****         for(i = 0; txt[i] != '\n' && txt[i] != '\r' && txt[i] != '\0'; i++) {
 296:Drivers/lvgl/lvgl/src/misc/lv_txt.c ****             /*Just find the new line chars or string ends by incrementing `i`*/
 297:Drivers/lvgl/lvgl/src/misc/lv_txt.c ****         }
 298:Drivers/lvgl/lvgl/src/misc/lv_txt.c ****         if(txt[i] != '\0') i++;    /*To go beyond `\n`*/
 299:Drivers/lvgl/lvgl/src/misc/lv_txt.c ****         if(used_width) *used_width = -1;
 300:Drivers/lvgl/lvgl/src/misc/lv_txt.c ****         return i;
 301:Drivers/lvgl/lvgl/src/misc/lv_txt.c ****     }
 302:Drivers/lvgl/lvgl/src/misc/lv_txt.c **** 
 303:Drivers/lvgl/lvgl/src/misc/lv_txt.c ****     if(flag & LV_TEXT_FLAG_EXPAND) max_width = LV_COORD_MAX;
 304:Drivers/lvgl/lvgl/src/misc/lv_txt.c ****     lv_text_cmd_state_t cmd_state = LV_TEXT_CMD_STATE_WAIT;
 305:Drivers/lvgl/lvgl/src/misc/lv_txt.c ****     uint32_t i = 0;                                        /*Iterating index into txt*/
 306:Drivers/lvgl/lvgl/src/misc/lv_txt.c **** 
 307:Drivers/lvgl/lvgl/src/misc/lv_txt.c ****     while(txt[i] != '\0' && max_width > 0) {
 308:Drivers/lvgl/lvgl/src/misc/lv_txt.c ****         uint32_t word_w = 0;
 309:Drivers/lvgl/lvgl/src/misc/lv_txt.c ****         uint32_t advance = lv_txt_get_next_word(&txt[i], font, letter_space, max_width, flag, &word
 310:Drivers/lvgl/lvgl/src/misc/lv_txt.c ****         max_width -= word_w;
 311:Drivers/lvgl/lvgl/src/misc/lv_txt.c ****         line_w += word_w;
 312:Drivers/lvgl/lvgl/src/misc/lv_txt.c **** 
 313:Drivers/lvgl/lvgl/src/misc/lv_txt.c ****         if(advance == 0) {
 314:Drivers/lvgl/lvgl/src/misc/lv_txt.c ****             break;
 315:Drivers/lvgl/lvgl/src/misc/lv_txt.c ****         }
 316:Drivers/lvgl/lvgl/src/misc/lv_txt.c **** 
 317:Drivers/lvgl/lvgl/src/misc/lv_txt.c ****         i += advance;
 318:Drivers/lvgl/lvgl/src/misc/lv_txt.c **** 
ARM GAS  /tmp/ccZ7tG7k.s 			page 7


 319:Drivers/lvgl/lvgl/src/misc/lv_txt.c ****         if(txt[0] == '\n' || txt[0] == '\r') break;
 320:Drivers/lvgl/lvgl/src/misc/lv_txt.c **** 
 321:Drivers/lvgl/lvgl/src/misc/lv_txt.c ****         if(txt[i] == '\n' || txt[i] == '\r') {
 322:Drivers/lvgl/lvgl/src/misc/lv_txt.c ****             i++;  /*Include the following newline in the current line*/
 323:Drivers/lvgl/lvgl/src/misc/lv_txt.c ****             break;
 324:Drivers/lvgl/lvgl/src/misc/lv_txt.c ****         }
 325:Drivers/lvgl/lvgl/src/misc/lv_txt.c **** 
 326:Drivers/lvgl/lvgl/src/misc/lv_txt.c ****     }
 327:Drivers/lvgl/lvgl/src/misc/lv_txt.c **** 
 328:Drivers/lvgl/lvgl/src/misc/lv_txt.c ****     /*Always step at least one to avoid infinite loops*/
 329:Drivers/lvgl/lvgl/src/misc/lv_txt.c ****     if(i == 0) {
 330:Drivers/lvgl/lvgl/src/misc/lv_txt.c ****         uint32_t letter = _lv_txt_encoded_next(txt, &i);
 331:Drivers/lvgl/lvgl/src/misc/lv_txt.c ****         if(used_width != NULL) {
 332:Drivers/lvgl/lvgl/src/misc/lv_txt.c ****             line_w = lv_font_get_glyph_width(font, letter, '\0');
 333:Drivers/lvgl/lvgl/src/misc/lv_txt.c ****         }
 334:Drivers/lvgl/lvgl/src/misc/lv_txt.c ****     }
 335:Drivers/lvgl/lvgl/src/misc/lv_txt.c **** 
 336:Drivers/lvgl/lvgl/src/misc/lv_txt.c ****     if(used_width != NULL) {
 337:Drivers/lvgl/lvgl/src/misc/lv_txt.c ****         *used_width = line_w;
 338:Drivers/lvgl/lvgl/src/misc/lv_txt.c ****     }
 339:Drivers/lvgl/lvgl/src/misc/lv_txt.c **** 
 340:Drivers/lvgl/lvgl/src/misc/lv_txt.c ****     return i;
 341:Drivers/lvgl/lvgl/src/misc/lv_txt.c **** }
 342:Drivers/lvgl/lvgl/src/misc/lv_txt.c **** 
 343:Drivers/lvgl/lvgl/src/misc/lv_txt.c **** lv_coord_t lv_txt_get_width(const char * txt, uint32_t length, const lv_font_t * font, lv_coord_t l
 344:Drivers/lvgl/lvgl/src/misc/lv_txt.c ****                             lv_text_flag_t flag)
 345:Drivers/lvgl/lvgl/src/misc/lv_txt.c **** {
 346:Drivers/lvgl/lvgl/src/misc/lv_txt.c ****     if(txt == NULL) return 0;
 347:Drivers/lvgl/lvgl/src/misc/lv_txt.c ****     if(font == NULL) return 0;
 348:Drivers/lvgl/lvgl/src/misc/lv_txt.c ****     if(txt[0] == '\0') return 0;
 349:Drivers/lvgl/lvgl/src/misc/lv_txt.c **** 
 350:Drivers/lvgl/lvgl/src/misc/lv_txt.c ****     uint32_t i                   = 0;
 351:Drivers/lvgl/lvgl/src/misc/lv_txt.c ****     lv_coord_t width             = 0;
 352:Drivers/lvgl/lvgl/src/misc/lv_txt.c ****     lv_text_cmd_state_t cmd_state = LV_TEXT_CMD_STATE_WAIT;
 353:Drivers/lvgl/lvgl/src/misc/lv_txt.c **** 
 354:Drivers/lvgl/lvgl/src/misc/lv_txt.c ****     if(length != 0) {
 355:Drivers/lvgl/lvgl/src/misc/lv_txt.c ****         while(i < length) {
 356:Drivers/lvgl/lvgl/src/misc/lv_txt.c ****             uint32_t letter;
 357:Drivers/lvgl/lvgl/src/misc/lv_txt.c ****             uint32_t letter_next;
 358:Drivers/lvgl/lvgl/src/misc/lv_txt.c ****             _lv_txt_encoded_letter_next_2(txt, &letter, &letter_next, &i);
 359:Drivers/lvgl/lvgl/src/misc/lv_txt.c **** 
 360:Drivers/lvgl/lvgl/src/misc/lv_txt.c ****             if((flag & LV_TEXT_FLAG_RECOLOR) != 0) {
 361:Drivers/lvgl/lvgl/src/misc/lv_txt.c ****                 if(_lv_txt_is_cmd(&cmd_state, letter) != false) {
 362:Drivers/lvgl/lvgl/src/misc/lv_txt.c ****                     continue;
 363:Drivers/lvgl/lvgl/src/misc/lv_txt.c ****                 }
 364:Drivers/lvgl/lvgl/src/misc/lv_txt.c ****             }
 365:Drivers/lvgl/lvgl/src/misc/lv_txt.c **** 
 366:Drivers/lvgl/lvgl/src/misc/lv_txt.c ****             lv_coord_t char_width = lv_font_get_glyph_width(font, letter, letter_next);
 367:Drivers/lvgl/lvgl/src/misc/lv_txt.c ****             if(char_width > 0) {
 368:Drivers/lvgl/lvgl/src/misc/lv_txt.c ****                 width += char_width;
 369:Drivers/lvgl/lvgl/src/misc/lv_txt.c ****                 width += letter_space;
 370:Drivers/lvgl/lvgl/src/misc/lv_txt.c ****             }
 371:Drivers/lvgl/lvgl/src/misc/lv_txt.c ****         }
 372:Drivers/lvgl/lvgl/src/misc/lv_txt.c **** 
 373:Drivers/lvgl/lvgl/src/misc/lv_txt.c ****         if(width > 0) {
 374:Drivers/lvgl/lvgl/src/misc/lv_txt.c ****             width -= letter_space; /*Trim the last letter space. Important if the text is center
 375:Drivers/lvgl/lvgl/src/misc/lv_txt.c ****                                       aligned*/
ARM GAS  /tmp/ccZ7tG7k.s 			page 8


 376:Drivers/lvgl/lvgl/src/misc/lv_txt.c ****         }
 377:Drivers/lvgl/lvgl/src/misc/lv_txt.c ****     }
 378:Drivers/lvgl/lvgl/src/misc/lv_txt.c **** 
 379:Drivers/lvgl/lvgl/src/misc/lv_txt.c ****     return width;
 380:Drivers/lvgl/lvgl/src/misc/lv_txt.c **** }
 381:Drivers/lvgl/lvgl/src/misc/lv_txt.c **** 
 382:Drivers/lvgl/lvgl/src/misc/lv_txt.c **** bool _lv_txt_is_cmd(lv_text_cmd_state_t * state, uint32_t c)
 383:Drivers/lvgl/lvgl/src/misc/lv_txt.c **** {
 384:Drivers/lvgl/lvgl/src/misc/lv_txt.c ****     bool ret = false;
 385:Drivers/lvgl/lvgl/src/misc/lv_txt.c **** 
 386:Drivers/lvgl/lvgl/src/misc/lv_txt.c ****     if(c == (uint32_t)LV_TXT_COLOR_CMD[0]) {
 387:Drivers/lvgl/lvgl/src/misc/lv_txt.c ****         if(*state == LV_TEXT_CMD_STATE_WAIT) { /*Start char*/
 388:Drivers/lvgl/lvgl/src/misc/lv_txt.c ****             *state = LV_TEXT_CMD_STATE_PAR;
 389:Drivers/lvgl/lvgl/src/misc/lv_txt.c ****             ret    = true;
 390:Drivers/lvgl/lvgl/src/misc/lv_txt.c ****         }
 391:Drivers/lvgl/lvgl/src/misc/lv_txt.c ****         /*Other start char in parameter is escaped cmd. char*/
 392:Drivers/lvgl/lvgl/src/misc/lv_txt.c ****         else if(*state == LV_TEXT_CMD_STATE_PAR) {
 393:Drivers/lvgl/lvgl/src/misc/lv_txt.c ****             *state = LV_TEXT_CMD_STATE_WAIT;
 394:Drivers/lvgl/lvgl/src/misc/lv_txt.c ****         }
 395:Drivers/lvgl/lvgl/src/misc/lv_txt.c ****         /*Command end*/
 396:Drivers/lvgl/lvgl/src/misc/lv_txt.c ****         else if(*state == LV_TEXT_CMD_STATE_IN) {
 397:Drivers/lvgl/lvgl/src/misc/lv_txt.c ****             *state = LV_TEXT_CMD_STATE_WAIT;
 398:Drivers/lvgl/lvgl/src/misc/lv_txt.c ****             ret    = true;
 399:Drivers/lvgl/lvgl/src/misc/lv_txt.c ****         }
 400:Drivers/lvgl/lvgl/src/misc/lv_txt.c ****     }
 401:Drivers/lvgl/lvgl/src/misc/lv_txt.c **** 
 402:Drivers/lvgl/lvgl/src/misc/lv_txt.c ****     /*Skip the color parameter and wait the space after it*/
 403:Drivers/lvgl/lvgl/src/misc/lv_txt.c ****     if(*state == LV_TEXT_CMD_STATE_PAR) {
 404:Drivers/lvgl/lvgl/src/misc/lv_txt.c ****         if(c == ' ') {
 405:Drivers/lvgl/lvgl/src/misc/lv_txt.c ****             *state = LV_TEXT_CMD_STATE_IN; /*After the parameter the text is in the command*/
 406:Drivers/lvgl/lvgl/src/misc/lv_txt.c ****         }
 407:Drivers/lvgl/lvgl/src/misc/lv_txt.c ****         ret = true;
 408:Drivers/lvgl/lvgl/src/misc/lv_txt.c ****     }
 409:Drivers/lvgl/lvgl/src/misc/lv_txt.c **** 
 410:Drivers/lvgl/lvgl/src/misc/lv_txt.c ****     return ret;
 411:Drivers/lvgl/lvgl/src/misc/lv_txt.c **** }
 412:Drivers/lvgl/lvgl/src/misc/lv_txt.c **** 
 413:Drivers/lvgl/lvgl/src/misc/lv_txt.c **** void _lv_txt_ins(char * txt_buf, uint32_t pos, const char * ins_txt)
 414:Drivers/lvgl/lvgl/src/misc/lv_txt.c **** {
 415:Drivers/lvgl/lvgl/src/misc/lv_txt.c ****     if(txt_buf == NULL || ins_txt == NULL) return;
 416:Drivers/lvgl/lvgl/src/misc/lv_txt.c **** 
 417:Drivers/lvgl/lvgl/src/misc/lv_txt.c ****     size_t old_len = strlen(txt_buf);
 418:Drivers/lvgl/lvgl/src/misc/lv_txt.c ****     size_t ins_len = strlen(ins_txt);
 419:Drivers/lvgl/lvgl/src/misc/lv_txt.c ****     if(ins_len == 0) return;
 420:Drivers/lvgl/lvgl/src/misc/lv_txt.c **** 
 421:Drivers/lvgl/lvgl/src/misc/lv_txt.c ****     size_t new_len = ins_len + old_len;
 422:Drivers/lvgl/lvgl/src/misc/lv_txt.c ****     pos              = _lv_txt_encoded_get_byte_id(txt_buf, pos); /*Convert to byte index instead o
 423:Drivers/lvgl/lvgl/src/misc/lv_txt.c **** 
 424:Drivers/lvgl/lvgl/src/misc/lv_txt.c ****     /*Copy the second part into the end to make place to text to insert*/
 425:Drivers/lvgl/lvgl/src/misc/lv_txt.c ****     size_t i;
 426:Drivers/lvgl/lvgl/src/misc/lv_txt.c ****     for(i = new_len; i >= pos + ins_len; i--) {
 427:Drivers/lvgl/lvgl/src/misc/lv_txt.c ****         txt_buf[i] = txt_buf[i - ins_len];
 428:Drivers/lvgl/lvgl/src/misc/lv_txt.c ****     }
 429:Drivers/lvgl/lvgl/src/misc/lv_txt.c **** 
 430:Drivers/lvgl/lvgl/src/misc/lv_txt.c ****     /*Copy the text into the new space*/
 431:Drivers/lvgl/lvgl/src/misc/lv_txt.c ****     lv_memcpy_small(txt_buf + pos, ins_txt, ins_len);
 432:Drivers/lvgl/lvgl/src/misc/lv_txt.c **** }
ARM GAS  /tmp/ccZ7tG7k.s 			page 9


 433:Drivers/lvgl/lvgl/src/misc/lv_txt.c **** 
 434:Drivers/lvgl/lvgl/src/misc/lv_txt.c **** void _lv_txt_cut(char * txt, uint32_t pos, uint32_t len)
 435:Drivers/lvgl/lvgl/src/misc/lv_txt.c **** {
 436:Drivers/lvgl/lvgl/src/misc/lv_txt.c ****     if(txt == NULL) return;
 437:Drivers/lvgl/lvgl/src/misc/lv_txt.c **** 
 438:Drivers/lvgl/lvgl/src/misc/lv_txt.c ****     size_t old_len = strlen(txt);
 439:Drivers/lvgl/lvgl/src/misc/lv_txt.c **** 
 440:Drivers/lvgl/lvgl/src/misc/lv_txt.c ****     pos = _lv_txt_encoded_get_byte_id(txt, pos); /*Convert to byte index instead of letter index*/
 441:Drivers/lvgl/lvgl/src/misc/lv_txt.c ****     len = _lv_txt_encoded_get_byte_id(&txt[pos], len);
 442:Drivers/lvgl/lvgl/src/misc/lv_txt.c **** 
 443:Drivers/lvgl/lvgl/src/misc/lv_txt.c ****     /*Copy the second part into the end to make place to text to insert*/
 444:Drivers/lvgl/lvgl/src/misc/lv_txt.c ****     uint32_t i;
 445:Drivers/lvgl/lvgl/src/misc/lv_txt.c ****     for(i = pos; i <= old_len - len; i++) {
 446:Drivers/lvgl/lvgl/src/misc/lv_txt.c ****         txt[i] = txt[i + len];
 447:Drivers/lvgl/lvgl/src/misc/lv_txt.c ****     }
 448:Drivers/lvgl/lvgl/src/misc/lv_txt.c **** }
 449:Drivers/lvgl/lvgl/src/misc/lv_txt.c **** 
 450:Drivers/lvgl/lvgl/src/misc/lv_txt.c **** char * _lv_txt_set_text_vfmt(const char * fmt, va_list ap)
 451:Drivers/lvgl/lvgl/src/misc/lv_txt.c **** {
 452:Drivers/lvgl/lvgl/src/misc/lv_txt.c ****     /*Allocate space for the new text by using trick from C99 standard section 7.19.6.12*/
 453:Drivers/lvgl/lvgl/src/misc/lv_txt.c ****     va_list ap_copy;
 454:Drivers/lvgl/lvgl/src/misc/lv_txt.c ****     va_copy(ap_copy, ap);
 455:Drivers/lvgl/lvgl/src/misc/lv_txt.c ****     uint32_t len = lv_vsnprintf(NULL, 0, fmt, ap_copy);
 456:Drivers/lvgl/lvgl/src/misc/lv_txt.c ****     va_end(ap_copy);
 457:Drivers/lvgl/lvgl/src/misc/lv_txt.c **** 
 458:Drivers/lvgl/lvgl/src/misc/lv_txt.c ****     char * text = 0;
 459:Drivers/lvgl/lvgl/src/misc/lv_txt.c **** #if LV_USE_ARABIC_PERSIAN_CHARS
 460:Drivers/lvgl/lvgl/src/misc/lv_txt.c ****     /*Put together the text according to the format string*/
 461:Drivers/lvgl/lvgl/src/misc/lv_txt.c ****     char * raw_txt = lv_mem_buf_get(len + 1);
 462:Drivers/lvgl/lvgl/src/misc/lv_txt.c ****     LV_ASSERT_MALLOC(raw_txt);
 463:Drivers/lvgl/lvgl/src/misc/lv_txt.c ****     if(raw_txt == NULL) {
 464:Drivers/lvgl/lvgl/src/misc/lv_txt.c ****         return NULL;
 465:Drivers/lvgl/lvgl/src/misc/lv_txt.c ****     }
 466:Drivers/lvgl/lvgl/src/misc/lv_txt.c **** 
 467:Drivers/lvgl/lvgl/src/misc/lv_txt.c ****     lv_vsnprintf(raw_txt, len + 1, fmt, ap);
 468:Drivers/lvgl/lvgl/src/misc/lv_txt.c **** 
 469:Drivers/lvgl/lvgl/src/misc/lv_txt.c ****     /*Get the size of the Arabic text and process it*/
 470:Drivers/lvgl/lvgl/src/misc/lv_txt.c ****     size_t len_ap = _lv_txt_ap_calc_bytes_cnt(raw_txt);
 471:Drivers/lvgl/lvgl/src/misc/lv_txt.c ****     text = lv_mem_alloc(len_ap + 1);
 472:Drivers/lvgl/lvgl/src/misc/lv_txt.c ****     LV_ASSERT_MALLOC(text);
 473:Drivers/lvgl/lvgl/src/misc/lv_txt.c ****     if(text == NULL) {
 474:Drivers/lvgl/lvgl/src/misc/lv_txt.c ****         return NULL;
 475:Drivers/lvgl/lvgl/src/misc/lv_txt.c ****     }
 476:Drivers/lvgl/lvgl/src/misc/lv_txt.c ****     _lv_txt_ap_proc(raw_txt, text);
 477:Drivers/lvgl/lvgl/src/misc/lv_txt.c **** 
 478:Drivers/lvgl/lvgl/src/misc/lv_txt.c ****     lv_mem_buf_release(raw_txt);
 479:Drivers/lvgl/lvgl/src/misc/lv_txt.c **** #else
 480:Drivers/lvgl/lvgl/src/misc/lv_txt.c ****     text = lv_mem_alloc(len + 1);
 481:Drivers/lvgl/lvgl/src/misc/lv_txt.c ****     LV_ASSERT_MALLOC(text);
 482:Drivers/lvgl/lvgl/src/misc/lv_txt.c ****     if(text == NULL) {
 483:Drivers/lvgl/lvgl/src/misc/lv_txt.c ****         return NULL;
 484:Drivers/lvgl/lvgl/src/misc/lv_txt.c ****     }
 485:Drivers/lvgl/lvgl/src/misc/lv_txt.c ****     text[len] = 0; /*Ensure NULL termination*/
 486:Drivers/lvgl/lvgl/src/misc/lv_txt.c **** 
 487:Drivers/lvgl/lvgl/src/misc/lv_txt.c ****     lv_vsnprintf(text, len + 1, fmt, ap);
 488:Drivers/lvgl/lvgl/src/misc/lv_txt.c **** #endif
 489:Drivers/lvgl/lvgl/src/misc/lv_txt.c **** 
ARM GAS  /tmp/ccZ7tG7k.s 			page 10


 490:Drivers/lvgl/lvgl/src/misc/lv_txt.c ****     return text;
 491:Drivers/lvgl/lvgl/src/misc/lv_txt.c **** }
 492:Drivers/lvgl/lvgl/src/misc/lv_txt.c **** 
 493:Drivers/lvgl/lvgl/src/misc/lv_txt.c **** void _lv_txt_encoded_letter_next_2(const char * txt, uint32_t * letter, uint32_t * letter_next, uin
 494:Drivers/lvgl/lvgl/src/misc/lv_txt.c **** {
 495:Drivers/lvgl/lvgl/src/misc/lv_txt.c ****     *letter = _lv_txt_encoded_next(txt, ofs);
 496:Drivers/lvgl/lvgl/src/misc/lv_txt.c ****     *letter_next = *letter != '\0' ? _lv_txt_encoded_next(&txt[*ofs], NULL) : 0;
 497:Drivers/lvgl/lvgl/src/misc/lv_txt.c **** }
 498:Drivers/lvgl/lvgl/src/misc/lv_txt.c **** 
 499:Drivers/lvgl/lvgl/src/misc/lv_txt.c **** #if LV_TXT_ENC == LV_TXT_ENC_UTF8
 500:Drivers/lvgl/lvgl/src/misc/lv_txt.c **** /*******************************
 501:Drivers/lvgl/lvgl/src/misc/lv_txt.c ****  *   UTF-8 ENCODER/DECODER
 502:Drivers/lvgl/lvgl/src/misc/lv_txt.c ****  ******************************/
 503:Drivers/lvgl/lvgl/src/misc/lv_txt.c **** 
 504:Drivers/lvgl/lvgl/src/misc/lv_txt.c **** /**
 505:Drivers/lvgl/lvgl/src/misc/lv_txt.c ****  * Give the size of an UTF-8 coded character
 506:Drivers/lvgl/lvgl/src/misc/lv_txt.c ****  * @param str pointer to a character in a string
 507:Drivers/lvgl/lvgl/src/misc/lv_txt.c ****  * @return length of the UTF-8 character (1,2,3 or 4), 0 on invalid code.
 508:Drivers/lvgl/lvgl/src/misc/lv_txt.c ****  */
 509:Drivers/lvgl/lvgl/src/misc/lv_txt.c **** static uint8_t lv_txt_utf8_size(const char * str)
 510:Drivers/lvgl/lvgl/src/misc/lv_txt.c **** {
  26              		.loc 1 510 0
  27              		.cfi_startproc
  28              		@ args = 0, pretend = 0, frame = 0
  29              		@ frame_needed = 0, uses_anonymous_args = 0
  30              		@ link register save eliminated.
  31              	.LVL0:
 511:Drivers/lvgl/lvgl/src/misc/lv_txt.c ****     if(LV_IS_ASCII(str[0]))
  32              		.loc 1 511 0
  33 0000 0378     		ldrb	r3, [r0]	@ zero_extendqisi2
  34 0002 13F0800F 		tst	r3, #128
  35 0006 01D1     		bne	.L7
 512:Drivers/lvgl/lvgl/src/misc/lv_txt.c ****         return 1;
  36              		.loc 1 512 0
  37 0008 0120     		movs	r0, #1
  38              	.LVL1:
  39 000a 7047     		bx	lr
  40              	.LVL2:
  41              	.L7:
 513:Drivers/lvgl/lvgl/src/misc/lv_txt.c ****     else if(LV_IS_2BYTES_UTF8_CODE(str[0]))
  42              		.loc 1 513 0
  43 000c 03F0E002 		and	r2, r3, #224
  44 0010 C02A     		cmp	r2, #192
  45 0012 0BD0     		beq	.L4
 514:Drivers/lvgl/lvgl/src/misc/lv_txt.c ****         return 2;
 515:Drivers/lvgl/lvgl/src/misc/lv_txt.c ****     else if(LV_IS_3BYTES_UTF8_CODE(str[0]))
  46              		.loc 1 515 0
  47 0014 03F0F002 		and	r2, r3, #240
  48 0018 E02A     		cmp	r2, #224
  49 001a 09D0     		beq	.L5
 516:Drivers/lvgl/lvgl/src/misc/lv_txt.c ****         return 3;
 517:Drivers/lvgl/lvgl/src/misc/lv_txt.c ****     else if(LV_IS_4BYTES_UTF8_CODE(str[0]))
  50              		.loc 1 517 0
  51 001c 03F0F803 		and	r3, r3, #248
  52 0020 F02B     		cmp	r3, #240
  53 0022 01D0     		beq	.L8
 518:Drivers/lvgl/lvgl/src/misc/lv_txt.c ****         return 4;
ARM GAS  /tmp/ccZ7tG7k.s 			page 11


 519:Drivers/lvgl/lvgl/src/misc/lv_txt.c ****     return 0;
  54              		.loc 1 519 0
  55 0024 0020     		movs	r0, #0
  56              	.LVL3:
 520:Drivers/lvgl/lvgl/src/misc/lv_txt.c **** }
  57              		.loc 1 520 0
  58 0026 7047     		bx	lr
  59              	.LVL4:
  60              	.L8:
 518:Drivers/lvgl/lvgl/src/misc/lv_txt.c ****         return 4;
  61              		.loc 1 518 0
  62 0028 0420     		movs	r0, #4
  63              	.LVL5:
  64 002a 7047     		bx	lr
  65              	.LVL6:
  66              	.L4:
 514:Drivers/lvgl/lvgl/src/misc/lv_txt.c ****     else if(LV_IS_3BYTES_UTF8_CODE(str[0]))
  67              		.loc 1 514 0
  68 002c 0220     		movs	r0, #2
  69              	.LVL7:
  70 002e 7047     		bx	lr
  71              	.LVL8:
  72              	.L5:
 516:Drivers/lvgl/lvgl/src/misc/lv_txt.c ****     else if(LV_IS_4BYTES_UTF8_CODE(str[0]))
  73              		.loc 1 516 0
  74 0030 0320     		movs	r0, #3
  75              	.LVL9:
  76 0032 7047     		bx	lr
  77              		.cfi_endproc
  78              	.LFE64:
  80              		.section	.text.lv_txt_unicode_to_utf8,"ax",%progbits
  81              		.align	1
  82              		.syntax unified
  83              		.thumb
  84              		.thumb_func
  85              		.fpu fpv5-d16
  87              	lv_txt_unicode_to_utf8:
  88              	.LFB65:
 521:Drivers/lvgl/lvgl/src/misc/lv_txt.c **** 
 522:Drivers/lvgl/lvgl/src/misc/lv_txt.c **** /**
 523:Drivers/lvgl/lvgl/src/misc/lv_txt.c ****  * Convert a Unicode letter to UTF-8.
 524:Drivers/lvgl/lvgl/src/misc/lv_txt.c ****  * @param letter_uni a Unicode letter
 525:Drivers/lvgl/lvgl/src/misc/lv_txt.c ****  * @return UTF-8 coded character in Little Endian to be compatible with C chars (e.g. 'Á', 'Ű')
 526:Drivers/lvgl/lvgl/src/misc/lv_txt.c ****  */
 527:Drivers/lvgl/lvgl/src/misc/lv_txt.c **** static uint32_t lv_txt_unicode_to_utf8(uint32_t letter_uni)
 528:Drivers/lvgl/lvgl/src/misc/lv_txt.c **** {
  89              		.loc 1 528 0
  90              		.cfi_startproc
  91              		@ args = 0, pretend = 0, frame = 8
  92              		@ frame_needed = 0, uses_anonymous_args = 0
  93              		@ link register save eliminated.
  94              	.LVL10:
 529:Drivers/lvgl/lvgl/src/misc/lv_txt.c ****     if(letter_uni < 128) return letter_uni;
  95              		.loc 1 529 0
  96 0000 7F28     		cmp	r0, #127
  97 0002 4ED9     		bls	.L17
 528:Drivers/lvgl/lvgl/src/misc/lv_txt.c ****     if(letter_uni < 128) return letter_uni;
ARM GAS  /tmp/ccZ7tG7k.s 			page 12


  98              		.loc 1 528 0
  99 0004 82B0     		sub	sp, sp, #8
 100              	.LCFI0:
 101              		.cfi_def_cfa_offset 8
 530:Drivers/lvgl/lvgl/src/misc/lv_txt.c ****     uint8_t bytes[4];
 531:Drivers/lvgl/lvgl/src/misc/lv_txt.c **** 
 532:Drivers/lvgl/lvgl/src/misc/lv_txt.c ****     if(letter_uni < 0x0800) {
 102              		.loc 1 532 0
 103 0006 B0F5006F 		cmp	r0, #2048
 104 000a 13D2     		bcs	.L11
 533:Drivers/lvgl/lvgl/src/misc/lv_txt.c ****         bytes[0] = ((letter_uni >> 6) & 0x1F) | 0xC0;
 105              		.loc 1 533 0
 106 000c C0F38413 		ubfx	r3, r0, #6, #5
 107 0010 43F0C003 		orr	r3, r3, #192
 108 0014 8DF80430 		strb	r3, [sp, #4]
 534:Drivers/lvgl/lvgl/src/misc/lv_txt.c ****         bytes[1] = ((letter_uni >> 0) & 0x3F) | 0x80;
 109              		.loc 1 534 0
 110 0018 00F03F00 		and	r0, r0, #63
 111              	.LVL11:
 112 001c 40F08000 		orr	r0, r0, #128
 113 0020 8DF80500 		strb	r0, [sp, #5]
 535:Drivers/lvgl/lvgl/src/misc/lv_txt.c ****         bytes[2] = 0;
 114              		.loc 1 535 0
 115 0024 0023     		movs	r3, #0
 116 0026 8DF80630 		strb	r3, [sp, #6]
 536:Drivers/lvgl/lvgl/src/misc/lv_txt.c ****         bytes[3] = 0;
 117              		.loc 1 536 0
 118 002a 8DF80730 		strb	r3, [sp, #7]
 119              	.L12:
 120              	.LVL12:
 537:Drivers/lvgl/lvgl/src/misc/lv_txt.c ****     }
 538:Drivers/lvgl/lvgl/src/misc/lv_txt.c ****     else if(letter_uni < 0x010000) {
 539:Drivers/lvgl/lvgl/src/misc/lv_txt.c ****         bytes[0] = ((letter_uni >> 12) & 0x0F) | 0xE0;
 540:Drivers/lvgl/lvgl/src/misc/lv_txt.c ****         bytes[1] = ((letter_uni >> 6) & 0x3F) | 0x80;
 541:Drivers/lvgl/lvgl/src/misc/lv_txt.c ****         bytes[2] = ((letter_uni >> 0) & 0x3F) | 0x80;
 542:Drivers/lvgl/lvgl/src/misc/lv_txt.c ****         bytes[3] = 0;
 543:Drivers/lvgl/lvgl/src/misc/lv_txt.c ****     }
 544:Drivers/lvgl/lvgl/src/misc/lv_txt.c ****     else if(letter_uni < 0x110000) {
 545:Drivers/lvgl/lvgl/src/misc/lv_txt.c ****         bytes[0] = ((letter_uni >> 18) & 0x07) | 0xF0;
 546:Drivers/lvgl/lvgl/src/misc/lv_txt.c ****         bytes[1] = ((letter_uni >> 12) & 0x3F) | 0x80;
 547:Drivers/lvgl/lvgl/src/misc/lv_txt.c ****         bytes[2] = ((letter_uni >> 6) & 0x3F) | 0x80;
 548:Drivers/lvgl/lvgl/src/misc/lv_txt.c ****         bytes[3] = ((letter_uni >> 0) & 0x3F) | 0x80;
 549:Drivers/lvgl/lvgl/src/misc/lv_txt.c ****     }
 550:Drivers/lvgl/lvgl/src/misc/lv_txt.c ****     else {
 551:Drivers/lvgl/lvgl/src/misc/lv_txt.c ****         return 0;
 552:Drivers/lvgl/lvgl/src/misc/lv_txt.c ****     }
 553:Drivers/lvgl/lvgl/src/misc/lv_txt.c **** 
 554:Drivers/lvgl/lvgl/src/misc/lv_txt.c ****     uint32_t * res_p = (uint32_t *)bytes;
 555:Drivers/lvgl/lvgl/src/misc/lv_txt.c ****     return *res_p;
 121              		.loc 1 555 0
 122 002e 0198     		ldr	r0, [sp, #4]
 123              	.LVL13:
 124              	.L9:
 556:Drivers/lvgl/lvgl/src/misc/lv_txt.c **** }
 125              		.loc 1 556 0
 126 0030 02B0     		add	sp, sp, #8
 127              	.LCFI1:
ARM GAS  /tmp/ccZ7tG7k.s 			page 13


 128              		.cfi_remember_state
 129              		.cfi_def_cfa_offset 0
 130              		@ sp needed
 131 0032 7047     		bx	lr
 132              	.LVL14:
 133              	.L11:
 134              	.LCFI2:
 135              		.cfi_restore_state
 538:Drivers/lvgl/lvgl/src/misc/lv_txt.c ****         bytes[0] = ((letter_uni >> 12) & 0x0F) | 0xE0;
 136              		.loc 1 538 0
 137 0034 B0F5803F 		cmp	r0, #65536
 138 0038 15D2     		bcs	.L13
 539:Drivers/lvgl/lvgl/src/misc/lv_txt.c ****         bytes[1] = ((letter_uni >> 6) & 0x3F) | 0x80;
 139              		.loc 1 539 0
 140 003a C0F30333 		ubfx	r3, r0, #12, #4
 141 003e 43F0E003 		orr	r3, r3, #224
 142 0042 8DF80430 		strb	r3, [sp, #4]
 540:Drivers/lvgl/lvgl/src/misc/lv_txt.c ****         bytes[2] = ((letter_uni >> 0) & 0x3F) | 0x80;
 143              		.loc 1 540 0
 144 0046 C0F38513 		ubfx	r3, r0, #6, #6
 145 004a 43F08003 		orr	r3, r3, #128
 146 004e 8DF80530 		strb	r3, [sp, #5]
 541:Drivers/lvgl/lvgl/src/misc/lv_txt.c ****         bytes[3] = 0;
 147              		.loc 1 541 0
 148 0052 00F03F00 		and	r0, r0, #63
 149              	.LVL15:
 150 0056 40F08000 		orr	r0, r0, #128
 151 005a 8DF80600 		strb	r0, [sp, #6]
 542:Drivers/lvgl/lvgl/src/misc/lv_txt.c ****     }
 152              		.loc 1 542 0
 153 005e 0023     		movs	r3, #0
 154 0060 8DF80730 		strb	r3, [sp, #7]
 155 0064 E3E7     		b	.L12
 156              	.LVL16:
 157              	.L13:
 544:Drivers/lvgl/lvgl/src/misc/lv_txt.c ****         bytes[0] = ((letter_uni >> 18) & 0x07) | 0xF0;
 158              		.loc 1 544 0
 159 0066 B0F5881F 		cmp	r0, #1114112
 160 006a 18D2     		bcs	.L15
 545:Drivers/lvgl/lvgl/src/misc/lv_txt.c ****         bytes[1] = ((letter_uni >> 12) & 0x3F) | 0x80;
 161              		.loc 1 545 0
 162 006c C0F38243 		ubfx	r3, r0, #18, #3
 163 0070 43F0F003 		orr	r3, r3, #240
 164 0074 8DF80430 		strb	r3, [sp, #4]
 546:Drivers/lvgl/lvgl/src/misc/lv_txt.c ****         bytes[2] = ((letter_uni >> 6) & 0x3F) | 0x80;
 165              		.loc 1 546 0
 166 0078 C0F30533 		ubfx	r3, r0, #12, #6
 167 007c 43F08003 		orr	r3, r3, #128
 168 0080 8DF80530 		strb	r3, [sp, #5]
 547:Drivers/lvgl/lvgl/src/misc/lv_txt.c ****         bytes[3] = ((letter_uni >> 0) & 0x3F) | 0x80;
 169              		.loc 1 547 0
 170 0084 C0F38513 		ubfx	r3, r0, #6, #6
 171 0088 43F08003 		orr	r3, r3, #128
 172 008c 8DF80630 		strb	r3, [sp, #6]
 548:Drivers/lvgl/lvgl/src/misc/lv_txt.c ****     }
 173              		.loc 1 548 0
 174 0090 00F03F00 		and	r0, r0, #63
ARM GAS  /tmp/ccZ7tG7k.s 			page 14


 175              	.LVL17:
 176 0094 40F08000 		orr	r0, r0, #128
 177 0098 8DF80700 		strb	r0, [sp, #7]
 178 009c C7E7     		b	.L12
 179              	.LVL18:
 180              	.L15:
 551:Drivers/lvgl/lvgl/src/misc/lv_txt.c ****     }
 181              		.loc 1 551 0
 182 009e 0020     		movs	r0, #0
 183              	.LVL19:
 184 00a0 C6E7     		b	.L9
 185              	.LVL20:
 186              	.L17:
 187              	.LCFI3:
 188              		.cfi_def_cfa_offset 0
 189              		.loc 1 556 0
 190 00a2 7047     		bx	lr
 191              		.cfi_endproc
 192              	.LFE65:
 194              		.section	.text.lv_txt_utf8_conv_wc,"ax",%progbits
 195              		.align	1
 196              		.syntax unified
 197              		.thumb
 198              		.thumb_func
 199              		.fpu fpv5-d16
 201              	lv_txt_utf8_conv_wc:
 202              	.LFB66:
 557:Drivers/lvgl/lvgl/src/misc/lv_txt.c **** 
 558:Drivers/lvgl/lvgl/src/misc/lv_txt.c **** /**
 559:Drivers/lvgl/lvgl/src/misc/lv_txt.c ****  * Convert a wide character, e.g. 'Á' little endian to be UTF-8 compatible
 560:Drivers/lvgl/lvgl/src/misc/lv_txt.c ****  * @param c a wide character or a  Little endian number
 561:Drivers/lvgl/lvgl/src/misc/lv_txt.c ****  * @return `c` in big endian
 562:Drivers/lvgl/lvgl/src/misc/lv_txt.c ****  */
 563:Drivers/lvgl/lvgl/src/misc/lv_txt.c **** static uint32_t lv_txt_utf8_conv_wc(uint32_t c)
 564:Drivers/lvgl/lvgl/src/misc/lv_txt.c **** {
 203              		.loc 1 564 0
 204              		.cfi_startproc
 205              		@ args = 0, pretend = 0, frame = 16
 206              		@ frame_needed = 0, uses_anonymous_args = 0
 207              		@ link register save eliminated.
 208              	.LVL21:
 209 0000 84B0     		sub	sp, sp, #16
 210              	.LCFI4:
 211              		.cfi_def_cfa_offset 16
 212 0002 0190     		str	r0, [sp, #4]
 565:Drivers/lvgl/lvgl/src/misc/lv_txt.c **** #if LV_BIG_ENDIAN_SYSTEM == 0
 566:Drivers/lvgl/lvgl/src/misc/lv_txt.c ****     /*Swap the bytes (UTF-8 is big endian, but the MCUs are little endian)*/
 567:Drivers/lvgl/lvgl/src/misc/lv_txt.c ****     if((c & 0x80) != 0) {
 213              		.loc 1 567 0
 214 0004 10F0800F 		tst	r0, #128
 215 0008 24D0     		beq	.L22
 216              	.LBB12:
 217              	.LBB13:
 218              	.LBB14:
 219              		.file 2 "Drivers/lvgl/lvgl/src/misc/../draw/../misc/lv_mem.h"
   1:Drivers/lvgl/lvgl/src/misc/../draw/../misc/lv_mem.h **** /**
   2:Drivers/lvgl/lvgl/src/misc/../draw/../misc/lv_mem.h ****  * @file lv_mem.h
ARM GAS  /tmp/ccZ7tG7k.s 			page 15


   3:Drivers/lvgl/lvgl/src/misc/../draw/../misc/lv_mem.h ****  *
   4:Drivers/lvgl/lvgl/src/misc/../draw/../misc/lv_mem.h ****  */
   5:Drivers/lvgl/lvgl/src/misc/../draw/../misc/lv_mem.h **** 
   6:Drivers/lvgl/lvgl/src/misc/../draw/../misc/lv_mem.h **** #ifndef LV_MEM_H
   7:Drivers/lvgl/lvgl/src/misc/../draw/../misc/lv_mem.h **** #define LV_MEM_H
   8:Drivers/lvgl/lvgl/src/misc/../draw/../misc/lv_mem.h **** 
   9:Drivers/lvgl/lvgl/src/misc/../draw/../misc/lv_mem.h **** #ifdef __cplusplus
  10:Drivers/lvgl/lvgl/src/misc/../draw/../misc/lv_mem.h **** extern "C" {
  11:Drivers/lvgl/lvgl/src/misc/../draw/../misc/lv_mem.h **** #endif
  12:Drivers/lvgl/lvgl/src/misc/../draw/../misc/lv_mem.h **** 
  13:Drivers/lvgl/lvgl/src/misc/../draw/../misc/lv_mem.h **** /*********************
  14:Drivers/lvgl/lvgl/src/misc/../draw/../misc/lv_mem.h ****  *      INCLUDES
  15:Drivers/lvgl/lvgl/src/misc/../draw/../misc/lv_mem.h ****  *********************/
  16:Drivers/lvgl/lvgl/src/misc/../draw/../misc/lv_mem.h **** #include "../lv_conf_internal.h"
  17:Drivers/lvgl/lvgl/src/misc/../draw/../misc/lv_mem.h **** 
  18:Drivers/lvgl/lvgl/src/misc/../draw/../misc/lv_mem.h **** #include <stdint.h>
  19:Drivers/lvgl/lvgl/src/misc/../draw/../misc/lv_mem.h **** #include <stddef.h>
  20:Drivers/lvgl/lvgl/src/misc/../draw/../misc/lv_mem.h **** #include <string.h>
  21:Drivers/lvgl/lvgl/src/misc/../draw/../misc/lv_mem.h **** 
  22:Drivers/lvgl/lvgl/src/misc/../draw/../misc/lv_mem.h **** #include "lv_types.h"
  23:Drivers/lvgl/lvgl/src/misc/../draw/../misc/lv_mem.h **** 
  24:Drivers/lvgl/lvgl/src/misc/../draw/../misc/lv_mem.h **** /*********************
  25:Drivers/lvgl/lvgl/src/misc/../draw/../misc/lv_mem.h ****  *      DEFINES
  26:Drivers/lvgl/lvgl/src/misc/../draw/../misc/lv_mem.h ****  *********************/
  27:Drivers/lvgl/lvgl/src/misc/../draw/../misc/lv_mem.h **** 
  28:Drivers/lvgl/lvgl/src/misc/../draw/../misc/lv_mem.h **** /**********************
  29:Drivers/lvgl/lvgl/src/misc/../draw/../misc/lv_mem.h ****  *      TYPEDEFS
  30:Drivers/lvgl/lvgl/src/misc/../draw/../misc/lv_mem.h ****  **********************/
  31:Drivers/lvgl/lvgl/src/misc/../draw/../misc/lv_mem.h **** 
  32:Drivers/lvgl/lvgl/src/misc/../draw/../misc/lv_mem.h **** /**
  33:Drivers/lvgl/lvgl/src/misc/../draw/../misc/lv_mem.h ****  * Heap information structure.
  34:Drivers/lvgl/lvgl/src/misc/../draw/../misc/lv_mem.h ****  */
  35:Drivers/lvgl/lvgl/src/misc/../draw/../misc/lv_mem.h **** typedef struct {
  36:Drivers/lvgl/lvgl/src/misc/../draw/../misc/lv_mem.h ****     uint32_t total_size; /**< Total heap size*/
  37:Drivers/lvgl/lvgl/src/misc/../draw/../misc/lv_mem.h ****     uint32_t free_cnt;
  38:Drivers/lvgl/lvgl/src/misc/../draw/../misc/lv_mem.h ****     uint32_t free_size; /**< Size of available memory*/
  39:Drivers/lvgl/lvgl/src/misc/../draw/../misc/lv_mem.h ****     uint32_t free_biggest_size;
  40:Drivers/lvgl/lvgl/src/misc/../draw/../misc/lv_mem.h ****     uint32_t used_cnt;
  41:Drivers/lvgl/lvgl/src/misc/../draw/../misc/lv_mem.h ****     uint32_t max_used; /**< Max size of Heap memory used*/
  42:Drivers/lvgl/lvgl/src/misc/../draw/../misc/lv_mem.h ****     uint8_t used_pct; /**< Percentage used*/
  43:Drivers/lvgl/lvgl/src/misc/../draw/../misc/lv_mem.h ****     uint8_t frag_pct; /**< Amount of fragmentation*/
  44:Drivers/lvgl/lvgl/src/misc/../draw/../misc/lv_mem.h **** } lv_mem_monitor_t;
  45:Drivers/lvgl/lvgl/src/misc/../draw/../misc/lv_mem.h **** 
  46:Drivers/lvgl/lvgl/src/misc/../draw/../misc/lv_mem.h **** typedef struct {
  47:Drivers/lvgl/lvgl/src/misc/../draw/../misc/lv_mem.h ****     void * p;
  48:Drivers/lvgl/lvgl/src/misc/../draw/../misc/lv_mem.h ****     uint16_t size;
  49:Drivers/lvgl/lvgl/src/misc/../draw/../misc/lv_mem.h ****     uint8_t used : 1;
  50:Drivers/lvgl/lvgl/src/misc/../draw/../misc/lv_mem.h **** } lv_mem_buf_t;
  51:Drivers/lvgl/lvgl/src/misc/../draw/../misc/lv_mem.h **** 
  52:Drivers/lvgl/lvgl/src/misc/../draw/../misc/lv_mem.h **** typedef lv_mem_buf_t lv_mem_buf_arr_t[LV_MEM_BUF_MAX_NUM];
  53:Drivers/lvgl/lvgl/src/misc/../draw/../misc/lv_mem.h **** 
  54:Drivers/lvgl/lvgl/src/misc/../draw/../misc/lv_mem.h **** /**********************
  55:Drivers/lvgl/lvgl/src/misc/../draw/../misc/lv_mem.h ****  * GLOBAL PROTOTYPES
  56:Drivers/lvgl/lvgl/src/misc/../draw/../misc/lv_mem.h ****  **********************/
  57:Drivers/lvgl/lvgl/src/misc/../draw/../misc/lv_mem.h **** 
  58:Drivers/lvgl/lvgl/src/misc/../draw/../misc/lv_mem.h **** /**
  59:Drivers/lvgl/lvgl/src/misc/../draw/../misc/lv_mem.h ****  * Initialize the dyn_mem module (work memory and other variables)
ARM GAS  /tmp/ccZ7tG7k.s 			page 16


  60:Drivers/lvgl/lvgl/src/misc/../draw/../misc/lv_mem.h ****  */
  61:Drivers/lvgl/lvgl/src/misc/../draw/../misc/lv_mem.h **** void lv_mem_init(void);
  62:Drivers/lvgl/lvgl/src/misc/../draw/../misc/lv_mem.h **** 
  63:Drivers/lvgl/lvgl/src/misc/../draw/../misc/lv_mem.h **** /**
  64:Drivers/lvgl/lvgl/src/misc/../draw/../misc/lv_mem.h ****  * Clean up the memory buffer which frees all the allocated memories.
  65:Drivers/lvgl/lvgl/src/misc/../draw/../misc/lv_mem.h ****  * @note It work only if `LV_MEM_CUSTOM == 0`
  66:Drivers/lvgl/lvgl/src/misc/../draw/../misc/lv_mem.h ****  */
  67:Drivers/lvgl/lvgl/src/misc/../draw/../misc/lv_mem.h **** void lv_mem_deinit(void);
  68:Drivers/lvgl/lvgl/src/misc/../draw/../misc/lv_mem.h **** 
  69:Drivers/lvgl/lvgl/src/misc/../draw/../misc/lv_mem.h **** /**
  70:Drivers/lvgl/lvgl/src/misc/../draw/../misc/lv_mem.h ****  * Allocate a memory dynamically
  71:Drivers/lvgl/lvgl/src/misc/../draw/../misc/lv_mem.h ****  * @param size size of the memory to allocate in bytes
  72:Drivers/lvgl/lvgl/src/misc/../draw/../misc/lv_mem.h ****  * @return pointer to the allocated memory
  73:Drivers/lvgl/lvgl/src/misc/../draw/../misc/lv_mem.h ****  */
  74:Drivers/lvgl/lvgl/src/misc/../draw/../misc/lv_mem.h **** void * lv_mem_alloc(size_t size);
  75:Drivers/lvgl/lvgl/src/misc/../draw/../misc/lv_mem.h **** 
  76:Drivers/lvgl/lvgl/src/misc/../draw/../misc/lv_mem.h **** /**
  77:Drivers/lvgl/lvgl/src/misc/../draw/../misc/lv_mem.h ****  * Free an allocated data
  78:Drivers/lvgl/lvgl/src/misc/../draw/../misc/lv_mem.h ****  * @param data pointer to an allocated memory
  79:Drivers/lvgl/lvgl/src/misc/../draw/../misc/lv_mem.h ****  */
  80:Drivers/lvgl/lvgl/src/misc/../draw/../misc/lv_mem.h **** void lv_mem_free(void * data);
  81:Drivers/lvgl/lvgl/src/misc/../draw/../misc/lv_mem.h **** 
  82:Drivers/lvgl/lvgl/src/misc/../draw/../misc/lv_mem.h **** /**
  83:Drivers/lvgl/lvgl/src/misc/../draw/../misc/lv_mem.h ****  * Reallocate a memory with a new size. The old content will be kept.
  84:Drivers/lvgl/lvgl/src/misc/../draw/../misc/lv_mem.h ****  * @param data pointer to an allocated memory.
  85:Drivers/lvgl/lvgl/src/misc/../draw/../misc/lv_mem.h ****  * Its content will be copied to the new memory block and freed
  86:Drivers/lvgl/lvgl/src/misc/../draw/../misc/lv_mem.h ****  * @param new_size the desired new size in byte
  87:Drivers/lvgl/lvgl/src/misc/../draw/../misc/lv_mem.h ****  * @return pointer to the new memory, NULL on failure
  88:Drivers/lvgl/lvgl/src/misc/../draw/../misc/lv_mem.h ****  */
  89:Drivers/lvgl/lvgl/src/misc/../draw/../misc/lv_mem.h **** void * lv_mem_realloc(void * data_p, size_t new_size);
  90:Drivers/lvgl/lvgl/src/misc/../draw/../misc/lv_mem.h **** 
  91:Drivers/lvgl/lvgl/src/misc/../draw/../misc/lv_mem.h **** /**
  92:Drivers/lvgl/lvgl/src/misc/../draw/../misc/lv_mem.h ****  *
  93:Drivers/lvgl/lvgl/src/misc/../draw/../misc/lv_mem.h ****  * @return
  94:Drivers/lvgl/lvgl/src/misc/../draw/../misc/lv_mem.h ****  */
  95:Drivers/lvgl/lvgl/src/misc/../draw/../misc/lv_mem.h **** lv_res_t lv_mem_test(void);
  96:Drivers/lvgl/lvgl/src/misc/../draw/../misc/lv_mem.h **** 
  97:Drivers/lvgl/lvgl/src/misc/../draw/../misc/lv_mem.h **** /**
  98:Drivers/lvgl/lvgl/src/misc/../draw/../misc/lv_mem.h ****  * Give information about the work memory of dynamic allocation
  99:Drivers/lvgl/lvgl/src/misc/../draw/../misc/lv_mem.h ****  * @param mon_p pointer to a lv_mem_monitor_t variable,
 100:Drivers/lvgl/lvgl/src/misc/../draw/../misc/lv_mem.h ****  *              the result of the analysis will be stored here
 101:Drivers/lvgl/lvgl/src/misc/../draw/../misc/lv_mem.h ****  */
 102:Drivers/lvgl/lvgl/src/misc/../draw/../misc/lv_mem.h **** void lv_mem_monitor(lv_mem_monitor_t * mon_p);
 103:Drivers/lvgl/lvgl/src/misc/../draw/../misc/lv_mem.h **** 
 104:Drivers/lvgl/lvgl/src/misc/../draw/../misc/lv_mem.h **** 
 105:Drivers/lvgl/lvgl/src/misc/../draw/../misc/lv_mem.h **** /**
 106:Drivers/lvgl/lvgl/src/misc/../draw/../misc/lv_mem.h ****  * Get a temporal buffer with the given size.
 107:Drivers/lvgl/lvgl/src/misc/../draw/../misc/lv_mem.h ****  * @param size the required size
 108:Drivers/lvgl/lvgl/src/misc/../draw/../misc/lv_mem.h ****  */
 109:Drivers/lvgl/lvgl/src/misc/../draw/../misc/lv_mem.h **** void * lv_mem_buf_get(uint32_t size);
 110:Drivers/lvgl/lvgl/src/misc/../draw/../misc/lv_mem.h **** 
 111:Drivers/lvgl/lvgl/src/misc/../draw/../misc/lv_mem.h **** /**
 112:Drivers/lvgl/lvgl/src/misc/../draw/../misc/lv_mem.h ****  * Release a memory buffer
 113:Drivers/lvgl/lvgl/src/misc/../draw/../misc/lv_mem.h ****  * @param p buffer to release
 114:Drivers/lvgl/lvgl/src/misc/../draw/../misc/lv_mem.h ****  */
 115:Drivers/lvgl/lvgl/src/misc/../draw/../misc/lv_mem.h **** void lv_mem_buf_release(void * p);
 116:Drivers/lvgl/lvgl/src/misc/../draw/../misc/lv_mem.h **** 
ARM GAS  /tmp/ccZ7tG7k.s 			page 17


 117:Drivers/lvgl/lvgl/src/misc/../draw/../misc/lv_mem.h **** /**
 118:Drivers/lvgl/lvgl/src/misc/../draw/../misc/lv_mem.h ****  * Free all memory buffers
 119:Drivers/lvgl/lvgl/src/misc/../draw/../misc/lv_mem.h ****  */
 120:Drivers/lvgl/lvgl/src/misc/../draw/../misc/lv_mem.h **** void lv_mem_buf_free_all(void);
 121:Drivers/lvgl/lvgl/src/misc/../draw/../misc/lv_mem.h **** 
 122:Drivers/lvgl/lvgl/src/misc/../draw/../misc/lv_mem.h **** //! @cond Doxygen_Suppress
 123:Drivers/lvgl/lvgl/src/misc/../draw/../misc/lv_mem.h **** 
 124:Drivers/lvgl/lvgl/src/misc/../draw/../misc/lv_mem.h **** #if LV_MEMCPY_MEMSET_STD
 125:Drivers/lvgl/lvgl/src/misc/../draw/../misc/lv_mem.h **** 
 126:Drivers/lvgl/lvgl/src/misc/../draw/../misc/lv_mem.h **** /**
 127:Drivers/lvgl/lvgl/src/misc/../draw/../misc/lv_mem.h ****  * Wrapper for the standard memcpy
 128:Drivers/lvgl/lvgl/src/misc/../draw/../misc/lv_mem.h ****  * @param dst pointer to the destination buffer
 129:Drivers/lvgl/lvgl/src/misc/../draw/../misc/lv_mem.h ****  * @param src pointer to the source buffer
 130:Drivers/lvgl/lvgl/src/misc/../draw/../misc/lv_mem.h ****  * @param len number of byte to copy
 131:Drivers/lvgl/lvgl/src/misc/../draw/../misc/lv_mem.h ****  */
 132:Drivers/lvgl/lvgl/src/misc/../draw/../misc/lv_mem.h **** static inline void * lv_memcpy(void * dst, const void * src, size_t len)
 133:Drivers/lvgl/lvgl/src/misc/../draw/../misc/lv_mem.h **** {
 134:Drivers/lvgl/lvgl/src/misc/../draw/../misc/lv_mem.h ****     return memcpy(dst, src, len);
 135:Drivers/lvgl/lvgl/src/misc/../draw/../misc/lv_mem.h **** }
 136:Drivers/lvgl/lvgl/src/misc/../draw/../misc/lv_mem.h **** 
 137:Drivers/lvgl/lvgl/src/misc/../draw/../misc/lv_mem.h **** /**
 138:Drivers/lvgl/lvgl/src/misc/../draw/../misc/lv_mem.h ****  * Wrapper for the standard memcpy
 139:Drivers/lvgl/lvgl/src/misc/../draw/../misc/lv_mem.h ****  * @param dst pointer to the destination buffer
 140:Drivers/lvgl/lvgl/src/misc/../draw/../misc/lv_mem.h ****  * @param src pointer to the source buffer
 141:Drivers/lvgl/lvgl/src/misc/../draw/../misc/lv_mem.h ****  * @param len number of byte to copy
 142:Drivers/lvgl/lvgl/src/misc/../draw/../misc/lv_mem.h ****  */
 143:Drivers/lvgl/lvgl/src/misc/../draw/../misc/lv_mem.h **** static inline void * lv_memcpy_small(void * dst, const void * src, size_t len)
 144:Drivers/lvgl/lvgl/src/misc/../draw/../misc/lv_mem.h **** {
 145:Drivers/lvgl/lvgl/src/misc/../draw/../misc/lv_mem.h ****     return memcpy(dst, src, len);
 146:Drivers/lvgl/lvgl/src/misc/../draw/../misc/lv_mem.h **** }
 147:Drivers/lvgl/lvgl/src/misc/../draw/../misc/lv_mem.h **** 
 148:Drivers/lvgl/lvgl/src/misc/../draw/../misc/lv_mem.h **** /**
 149:Drivers/lvgl/lvgl/src/misc/../draw/../misc/lv_mem.h ****  * Wrapper for the standard memset
 150:Drivers/lvgl/lvgl/src/misc/../draw/../misc/lv_mem.h ****  * @param dst pointer to the destination buffer
 151:Drivers/lvgl/lvgl/src/misc/../draw/../misc/lv_mem.h ****  * @param v value to set [0..255]
 152:Drivers/lvgl/lvgl/src/misc/../draw/../misc/lv_mem.h ****  * @param len number of byte to set
 153:Drivers/lvgl/lvgl/src/misc/../draw/../misc/lv_mem.h ****  */
 154:Drivers/lvgl/lvgl/src/misc/../draw/../misc/lv_mem.h **** static inline void lv_memset(void * dst, uint8_t v, size_t len)
 155:Drivers/lvgl/lvgl/src/misc/../draw/../misc/lv_mem.h **** {
 156:Drivers/lvgl/lvgl/src/misc/../draw/../misc/lv_mem.h ****     memset(dst, v, len);
 157:Drivers/lvgl/lvgl/src/misc/../draw/../misc/lv_mem.h **** }
 158:Drivers/lvgl/lvgl/src/misc/../draw/../misc/lv_mem.h **** 
 159:Drivers/lvgl/lvgl/src/misc/../draw/../misc/lv_mem.h **** /**
 160:Drivers/lvgl/lvgl/src/misc/../draw/../misc/lv_mem.h ****  * Wrapper for the standard memset with fixed 0x00 value
 161:Drivers/lvgl/lvgl/src/misc/../draw/../misc/lv_mem.h ****  * @param dst pointer to the destination buffer
 162:Drivers/lvgl/lvgl/src/misc/../draw/../misc/lv_mem.h ****  * @param len number of byte to set
 163:Drivers/lvgl/lvgl/src/misc/../draw/../misc/lv_mem.h ****  */
 164:Drivers/lvgl/lvgl/src/misc/../draw/../misc/lv_mem.h **** static inline void lv_memset_00(void * dst, size_t len)
 165:Drivers/lvgl/lvgl/src/misc/../draw/../misc/lv_mem.h **** {
 166:Drivers/lvgl/lvgl/src/misc/../draw/../misc/lv_mem.h ****     memset(dst, 0x00, len);
 167:Drivers/lvgl/lvgl/src/misc/../draw/../misc/lv_mem.h **** }
 168:Drivers/lvgl/lvgl/src/misc/../draw/../misc/lv_mem.h **** 
 169:Drivers/lvgl/lvgl/src/misc/../draw/../misc/lv_mem.h **** /**
 170:Drivers/lvgl/lvgl/src/misc/../draw/../misc/lv_mem.h ****  * Wrapper for the standard memset with fixed 0xFF value
 171:Drivers/lvgl/lvgl/src/misc/../draw/../misc/lv_mem.h ****  * @param dst pointer to the destination buffer
 172:Drivers/lvgl/lvgl/src/misc/../draw/../misc/lv_mem.h ****  * @param len number of byte to set
 173:Drivers/lvgl/lvgl/src/misc/../draw/../misc/lv_mem.h ****  */
ARM GAS  /tmp/ccZ7tG7k.s 			page 18


 174:Drivers/lvgl/lvgl/src/misc/../draw/../misc/lv_mem.h **** static inline void lv_memset_ff(void * dst, size_t len)
 175:Drivers/lvgl/lvgl/src/misc/../draw/../misc/lv_mem.h **** {
 176:Drivers/lvgl/lvgl/src/misc/../draw/../misc/lv_mem.h ****     memset(dst, 0xFF, len);
 177:Drivers/lvgl/lvgl/src/misc/../draw/../misc/lv_mem.h **** }
 178:Drivers/lvgl/lvgl/src/misc/../draw/../misc/lv_mem.h **** 
 179:Drivers/lvgl/lvgl/src/misc/../draw/../misc/lv_mem.h **** #else
 180:Drivers/lvgl/lvgl/src/misc/../draw/../misc/lv_mem.h **** /**
 181:Drivers/lvgl/lvgl/src/misc/../draw/../misc/lv_mem.h ****  * Same as `memcpy` but optimized for 4 byte operation.
 182:Drivers/lvgl/lvgl/src/misc/../draw/../misc/lv_mem.h ****  * @param dst pointer to the destination buffer
 183:Drivers/lvgl/lvgl/src/misc/../draw/../misc/lv_mem.h ****  * @param src pointer to the source buffer
 184:Drivers/lvgl/lvgl/src/misc/../draw/../misc/lv_mem.h ****  * @param len number of byte to copy
 185:Drivers/lvgl/lvgl/src/misc/../draw/../misc/lv_mem.h ****  */
 186:Drivers/lvgl/lvgl/src/misc/../draw/../misc/lv_mem.h **** LV_ATTRIBUTE_FAST_MEM void * lv_memcpy(void * dst, const void * src, size_t len);
 187:Drivers/lvgl/lvgl/src/misc/../draw/../misc/lv_mem.h **** 
 188:Drivers/lvgl/lvgl/src/misc/../draw/../misc/lv_mem.h **** /**
 189:Drivers/lvgl/lvgl/src/misc/../draw/../misc/lv_mem.h ****  * Same as `memcpy` but optimized to copy only a few bytes.
 190:Drivers/lvgl/lvgl/src/misc/../draw/../misc/lv_mem.h ****  * @param dst pointer to the destination buffer
 191:Drivers/lvgl/lvgl/src/misc/../draw/../misc/lv_mem.h ****  * @param src pointer to the source buffer
 192:Drivers/lvgl/lvgl/src/misc/../draw/../misc/lv_mem.h ****  * @param len number of byte to copy
 193:Drivers/lvgl/lvgl/src/misc/../draw/../misc/lv_mem.h ****  */
 194:Drivers/lvgl/lvgl/src/misc/../draw/../misc/lv_mem.h **** LV_ATTRIBUTE_FAST_MEM static inline void * lv_memcpy_small(void * dst, const void * src, size_t len
 195:Drivers/lvgl/lvgl/src/misc/../draw/../misc/lv_mem.h **** {
 196:Drivers/lvgl/lvgl/src/misc/../draw/../misc/lv_mem.h ****     uint8_t * d8 = (uint8_t *)dst;
 197:Drivers/lvgl/lvgl/src/misc/../draw/../misc/lv_mem.h ****     const uint8_t * s8 = (const uint8_t *)src;
 220              		.loc 2 197 0
 221 000a 01A9     		add	r1, sp, #4
 196:Drivers/lvgl/lvgl/src/misc/../draw/../misc/lv_mem.h ****     const uint8_t * s8 = (const uint8_t *)src;
 222              		.loc 2 196 0
 223 000c 03AA     		add	r2, sp, #12
 224              	.LBE14:
 225              	.LBE13:
 226              	.LBE12:
 227 000e 0423     		movs	r3, #4
 228 0010 04E0     		b	.L21
 229              	.LVL22:
 230              	.L23:
 231              	.LBB17:
 232              	.LBB16:
 233              	.LBB15:
 198:Drivers/lvgl/lvgl/src/misc/../draw/../misc/lv_mem.h **** 
 199:Drivers/lvgl/lvgl/src/misc/../draw/../misc/lv_mem.h ****     while(len) {
 200:Drivers/lvgl/lvgl/src/misc/../draw/../misc/lv_mem.h ****         *d8 = *s8;
 234              		.loc 2 200 0
 235 0012 11F8010B 		ldrb	r0, [r1], #1	@ zero_extendqisi2
 236              	.LVL23:
 237 0016 02F8010B 		strb	r0, [r2], #1
 238              	.LVL24:
 201:Drivers/lvgl/lvgl/src/misc/../draw/../misc/lv_mem.h ****         d8++;
 202:Drivers/lvgl/lvgl/src/misc/../draw/../misc/lv_mem.h ****         s8++;
 203:Drivers/lvgl/lvgl/src/misc/../draw/../misc/lv_mem.h ****         len--;
 239              		.loc 2 203 0
 240 001a 013B     		subs	r3, r3, #1
 241              	.LVL25:
 242              	.L21:
 199:Drivers/lvgl/lvgl/src/misc/../draw/../misc/lv_mem.h ****         *d8 = *s8;
 243              		.loc 2 199 0
 244 001c 002B     		cmp	r3, #0
ARM GAS  /tmp/ccZ7tG7k.s 			page 19


 245 001e F8D1     		bne	.L23
 246              	.LVL26:
 247              	.LBE15:
 248              	.LBE16:
 568:Drivers/lvgl/lvgl/src/misc/lv_txt.c ****         uint32_t swapped;
 569:Drivers/lvgl/lvgl/src/misc/lv_txt.c ****         uint8_t c8[4];
 570:Drivers/lvgl/lvgl/src/misc/lv_txt.c ****         lv_memcpy_small(c8, &c, 4);
 571:Drivers/lvgl/lvgl/src/misc/lv_txt.c ****         swapped = (c8[0] << 24) + (c8[1] << 16) + (c8[2] << 8) + (c8[3]);
 249              		.loc 1 571 0
 250 0020 9DF80C30 		ldrb	r3, [sp, #12]	@ zero_extendqisi2
 251 0024 9DF80D20 		ldrb	r2, [sp, #13]	@ zero_extendqisi2
 252 0028 1204     		lsls	r2, r2, #16
 253 002a 02EB0362 		add	r2, r2, r3, lsl #24
 254 002e 9DF80E30 		ldrb	r3, [sp, #14]	@ zero_extendqisi2
 255 0032 02EB0322 		add	r2, r2, r3, lsl #8
 256 0036 9DF80F30 		ldrb	r3, [sp, #15]	@ zero_extendqisi2
 257 003a 1A44     		add	r2, r2, r3
 258              	.LVL27:
 572:Drivers/lvgl/lvgl/src/misc/lv_txt.c ****         uint8_t i;
 573:Drivers/lvgl/lvgl/src/misc/lv_txt.c ****         for(i = 0; i < 4; i++) {
 259              		.loc 1 573 0
 260 003c 0023     		movs	r3, #0
 261 003e 01E0     		b	.L24
 262              	.LVL28:
 263              	.L25:
 264              		.loc 1 573 0 is_stmt 0 discriminator 2
 265 0040 0133     		adds	r3, r3, #1
 266              	.LVL29:
 267 0042 DBB2     		uxtb	r3, r3
 268              	.LVL30:
 269              	.L24:
 270              		.loc 1 573 0 discriminator 1
 271 0044 032B     		cmp	r3, #3
 272 0046 04D8     		bhi	.L29
 574:Drivers/lvgl/lvgl/src/misc/lv_txt.c ****             if((swapped & 0xFF) == 0)
 273              		.loc 1 574 0 is_stmt 1
 274 0048 12F0FF0F 		tst	r2, #255
 275 004c F8D1     		bne	.L25
 575:Drivers/lvgl/lvgl/src/misc/lv_txt.c ****                 swapped = (swapped >> 8); /*Ignore leading zeros (they were in the end originally)*
 276              		.loc 1 575 0
 277 004e 120A     		lsrs	r2, r2, #8
 278              	.LVL31:
 279 0050 F6E7     		b	.L25
 280              	.L29:
 576:Drivers/lvgl/lvgl/src/misc/lv_txt.c ****         }
 577:Drivers/lvgl/lvgl/src/misc/lv_txt.c ****         c = swapped;
 281              		.loc 1 577 0
 282 0052 0192     		str	r2, [sp, #4]
 283              	.LVL32:
 284              	.L22:
 285              	.LBE17:
 578:Drivers/lvgl/lvgl/src/misc/lv_txt.c ****     }
 579:Drivers/lvgl/lvgl/src/misc/lv_txt.c **** #endif
 580:Drivers/lvgl/lvgl/src/misc/lv_txt.c ****     return c;
 581:Drivers/lvgl/lvgl/src/misc/lv_txt.c **** }
 286              		.loc 1 581 0
 287 0054 0198     		ldr	r0, [sp, #4]
ARM GAS  /tmp/ccZ7tG7k.s 			page 20


 288 0056 04B0     		add	sp, sp, #16
 289              	.LCFI5:
 290              		.cfi_def_cfa_offset 0
 291              		@ sp needed
 292 0058 7047     		bx	lr
 293              		.cfi_endproc
 294              	.LFE66:
 296              		.section	.text.lv_txt_utf8_next,"ax",%progbits
 297              		.align	1
 298              		.syntax unified
 299              		.thumb
 300              		.thumb_func
 301              		.fpu fpv5-d16
 303              	lv_txt_utf8_next:
 304              	.LFB67:
 582:Drivers/lvgl/lvgl/src/misc/lv_txt.c **** 
 583:Drivers/lvgl/lvgl/src/misc/lv_txt.c **** /**
 584:Drivers/lvgl/lvgl/src/misc/lv_txt.c ****  * Decode an UTF-8 character from a string.
 585:Drivers/lvgl/lvgl/src/misc/lv_txt.c ****  * @param txt pointer to '\0' terminated string
 586:Drivers/lvgl/lvgl/src/misc/lv_txt.c ****  * @param i start byte index in 'txt' where to start.
 587:Drivers/lvgl/lvgl/src/misc/lv_txt.c ****  *          After call it will point to the next UTF-8 char in 'txt'.
 588:Drivers/lvgl/lvgl/src/misc/lv_txt.c ****  *          NULL to use txt[0] as index
 589:Drivers/lvgl/lvgl/src/misc/lv_txt.c ****  * @return the decoded Unicode character or 0 on invalid UTF-8 code
 590:Drivers/lvgl/lvgl/src/misc/lv_txt.c ****  */
 591:Drivers/lvgl/lvgl/src/misc/lv_txt.c **** static uint32_t lv_txt_utf8_next(const char * txt, uint32_t * i)
 592:Drivers/lvgl/lvgl/src/misc/lv_txt.c **** {
 305              		.loc 1 592 0
 306              		.cfi_startproc
 307              		@ args = 0, pretend = 0, frame = 8
 308              		@ frame_needed = 0, uses_anonymous_args = 0
 309              		@ link register save eliminated.
 310              	.LVL33:
 311 0000 30B4     		push	{r4, r5}
 312              	.LCFI6:
 313              		.cfi_def_cfa_offset 8
 314              		.cfi_offset 4, -8
 315              		.cfi_offset 5, -4
 316 0002 82B0     		sub	sp, sp, #8
 317              	.LCFI7:
 318              		.cfi_def_cfa_offset 16
 319              	.LVL34:
 593:Drivers/lvgl/lvgl/src/misc/lv_txt.c ****     /**
 594:Drivers/lvgl/lvgl/src/misc/lv_txt.c ****      * Unicode to UTF-8
 595:Drivers/lvgl/lvgl/src/misc/lv_txt.c ****      * 00000000 00000000 00000000 0xxxxxxx -> 0xxxxxxx
 596:Drivers/lvgl/lvgl/src/misc/lv_txt.c ****      * 00000000 00000000 00000yyy yyxxxxxx -> 110yyyyy 10xxxxxx
 597:Drivers/lvgl/lvgl/src/misc/lv_txt.c ****      * 00000000 00000000 zzzzyyyy yyxxxxxx -> 1110zzzz 10yyyyyy 10xxxxxx
 598:Drivers/lvgl/lvgl/src/misc/lv_txt.c ****      * 00000000 000wwwzz zzzzyyyy yyxxxxxx -> 11110www 10zzzzzz 10yyyyyy 10xxxxxx
 599:Drivers/lvgl/lvgl/src/misc/lv_txt.c ****      */
 600:Drivers/lvgl/lvgl/src/misc/lv_txt.c **** 
 601:Drivers/lvgl/lvgl/src/misc/lv_txt.c ****     uint32_t result = 0;
 602:Drivers/lvgl/lvgl/src/misc/lv_txt.c **** 
 603:Drivers/lvgl/lvgl/src/misc/lv_txt.c ****     /*Dummy 'i' pointer is required*/
 604:Drivers/lvgl/lvgl/src/misc/lv_txt.c ****     uint32_t i_tmp = 0;
 320              		.loc 1 604 0
 321 0004 0023     		movs	r3, #0
 322 0006 0193     		str	r3, [sp, #4]
 605:Drivers/lvgl/lvgl/src/misc/lv_txt.c ****     if(i == NULL) i = &i_tmp;
ARM GAS  /tmp/ccZ7tG7k.s 			page 21


 323              		.loc 1 605 0
 324 0008 0C46     		mov	r4, r1
 325 000a 51B1     		cbz	r1, .L45
 326              	.L31:
 327              	.LVL35:
 606:Drivers/lvgl/lvgl/src/misc/lv_txt.c **** 
 607:Drivers/lvgl/lvgl/src/misc/lv_txt.c ****     /*Normal ASCII*/
 608:Drivers/lvgl/lvgl/src/misc/lv_txt.c ****     if(LV_IS_ASCII(txt[*i])) {
 328              		.loc 1 608 0
 329 000c 2268     		ldr	r2, [r4]
 330 000e 835C     		ldrb	r3, [r0, r2]	@ zero_extendqisi2
 331 0010 13F0800F 		tst	r3, #128
 332 0014 07D1     		bne	.L32
 609:Drivers/lvgl/lvgl/src/misc/lv_txt.c ****         result = txt[*i];
 333              		.loc 1 609 0
 334 0016 1846     		mov	r0, r3
 335              	.LVL36:
 610:Drivers/lvgl/lvgl/src/misc/lv_txt.c ****         (*i)++;
 336              		.loc 1 610 0
 337 0018 0132     		adds	r2, r2, #1
 338 001a 2260     		str	r2, [r4]
 339              	.LVL37:
 340              	.L30:
 611:Drivers/lvgl/lvgl/src/misc/lv_txt.c ****     }
 612:Drivers/lvgl/lvgl/src/misc/lv_txt.c ****     /*Real UTF-8 decode*/
 613:Drivers/lvgl/lvgl/src/misc/lv_txt.c ****     else {
 614:Drivers/lvgl/lvgl/src/misc/lv_txt.c ****         /*2 bytes UTF-8 code*/
 615:Drivers/lvgl/lvgl/src/misc/lv_txt.c ****         if(LV_IS_2BYTES_UTF8_CODE(txt[*i])) {
 616:Drivers/lvgl/lvgl/src/misc/lv_txt.c ****             result = (uint32_t)(txt[*i] & 0x1F) << 6;
 617:Drivers/lvgl/lvgl/src/misc/lv_txt.c ****             (*i)++;
 618:Drivers/lvgl/lvgl/src/misc/lv_txt.c ****             if(LV_IS_INVALID_UTF8_CODE(txt[*i])) return 0;
 619:Drivers/lvgl/lvgl/src/misc/lv_txt.c ****             result += (txt[*i] & 0x3F);
 620:Drivers/lvgl/lvgl/src/misc/lv_txt.c ****             (*i)++;
 621:Drivers/lvgl/lvgl/src/misc/lv_txt.c ****         }
 622:Drivers/lvgl/lvgl/src/misc/lv_txt.c ****         /*3 bytes UTF-8 code*/
 623:Drivers/lvgl/lvgl/src/misc/lv_txt.c ****         else if(LV_IS_3BYTES_UTF8_CODE(txt[*i])) {
 624:Drivers/lvgl/lvgl/src/misc/lv_txt.c ****             result = (uint32_t)(txt[*i] & 0x0F) << 12;
 625:Drivers/lvgl/lvgl/src/misc/lv_txt.c ****             (*i)++;
 626:Drivers/lvgl/lvgl/src/misc/lv_txt.c **** 
 627:Drivers/lvgl/lvgl/src/misc/lv_txt.c ****             if(LV_IS_INVALID_UTF8_CODE(txt[*i])) return 0;
 628:Drivers/lvgl/lvgl/src/misc/lv_txt.c ****             result += (uint32_t)(txt[*i] & 0x3F) << 6;
 629:Drivers/lvgl/lvgl/src/misc/lv_txt.c ****             (*i)++;
 630:Drivers/lvgl/lvgl/src/misc/lv_txt.c **** 
 631:Drivers/lvgl/lvgl/src/misc/lv_txt.c ****             if(LV_IS_INVALID_UTF8_CODE(txt[*i])) return 0;
 632:Drivers/lvgl/lvgl/src/misc/lv_txt.c ****             result += (txt[*i] & 0x3F);
 633:Drivers/lvgl/lvgl/src/misc/lv_txt.c ****             (*i)++;
 634:Drivers/lvgl/lvgl/src/misc/lv_txt.c ****         }
 635:Drivers/lvgl/lvgl/src/misc/lv_txt.c ****         /*4 bytes UTF-8 code*/
 636:Drivers/lvgl/lvgl/src/misc/lv_txt.c ****         else if(LV_IS_4BYTES_UTF8_CODE(txt[*i])) {
 637:Drivers/lvgl/lvgl/src/misc/lv_txt.c ****             result = (uint32_t)(txt[*i] & 0x07) << 18;
 638:Drivers/lvgl/lvgl/src/misc/lv_txt.c ****             (*i)++;
 639:Drivers/lvgl/lvgl/src/misc/lv_txt.c **** 
 640:Drivers/lvgl/lvgl/src/misc/lv_txt.c ****             if(LV_IS_INVALID_UTF8_CODE(txt[*i])) return 0;
 641:Drivers/lvgl/lvgl/src/misc/lv_txt.c ****             result += (uint32_t)(txt[*i] & 0x3F) << 12;
 642:Drivers/lvgl/lvgl/src/misc/lv_txt.c ****             (*i)++;
 643:Drivers/lvgl/lvgl/src/misc/lv_txt.c **** 
 644:Drivers/lvgl/lvgl/src/misc/lv_txt.c ****             if(LV_IS_INVALID_UTF8_CODE(txt[*i])) return 0;
ARM GAS  /tmp/ccZ7tG7k.s 			page 22


 645:Drivers/lvgl/lvgl/src/misc/lv_txt.c ****             result += (uint32_t)(txt[*i] & 0x3F) << 6;
 646:Drivers/lvgl/lvgl/src/misc/lv_txt.c ****             (*i)++;
 647:Drivers/lvgl/lvgl/src/misc/lv_txt.c **** 
 648:Drivers/lvgl/lvgl/src/misc/lv_txt.c ****             if(LV_IS_INVALID_UTF8_CODE(txt[*i])) return 0;
 649:Drivers/lvgl/lvgl/src/misc/lv_txt.c ****             result += txt[*i] & 0x3F;
 650:Drivers/lvgl/lvgl/src/misc/lv_txt.c ****             (*i)++;
 651:Drivers/lvgl/lvgl/src/misc/lv_txt.c ****         }
 652:Drivers/lvgl/lvgl/src/misc/lv_txt.c ****         else {
 653:Drivers/lvgl/lvgl/src/misc/lv_txt.c ****             (*i)++; /*Not UTF-8 char. Go the next.*/
 654:Drivers/lvgl/lvgl/src/misc/lv_txt.c ****         }
 655:Drivers/lvgl/lvgl/src/misc/lv_txt.c ****     }
 656:Drivers/lvgl/lvgl/src/misc/lv_txt.c ****     return result;
 657:Drivers/lvgl/lvgl/src/misc/lv_txt.c **** }
 341              		.loc 1 657 0
 342 001c 02B0     		add	sp, sp, #8
 343              	.LCFI8:
 344              		.cfi_remember_state
 345              		.cfi_def_cfa_offset 8
 346              		@ sp needed
 347 001e 30BC     		pop	{r4, r5}
 348              	.LCFI9:
 349              		.cfi_restore 5
 350              		.cfi_restore 4
 351              		.cfi_def_cfa_offset 0
 352              	.LVL38:
 353 0020 7047     		bx	lr
 354              	.LVL39:
 355              	.L45:
 356              	.LCFI10:
 357              		.cfi_restore_state
 605:Drivers/lvgl/lvgl/src/misc/lv_txt.c **** 
 358              		.loc 1 605 0
 359 0022 01AC     		add	r4, sp, #4
 360 0024 F2E7     		b	.L31
 361              	.LVL40:
 362              	.L32:
 615:Drivers/lvgl/lvgl/src/misc/lv_txt.c ****             result = (uint32_t)(txt[*i] & 0x1F) << 6;
 363              		.loc 1 615 0
 364 0026 03F0E001 		and	r1, r3, #224
 365 002a C029     		cmp	r1, #192
 366 002c 0BD0     		beq	.L46
 623:Drivers/lvgl/lvgl/src/misc/lv_txt.c ****             result = (uint32_t)(txt[*i] & 0x0F) << 12;
 367              		.loc 1 623 0
 368 002e 03F0F001 		and	r1, r3, #240
 369 0032 E029     		cmp	r1, #224
 370 0034 19D0     		beq	.L47
 636:Drivers/lvgl/lvgl/src/misc/lv_txt.c ****             result = (uint32_t)(txt[*i] & 0x07) << 18;
 371              		.loc 1 636 0
 372 0036 03F0F801 		and	r1, r3, #248
 373 003a F029     		cmp	r1, #240
 374 003c 33D0     		beq	.L48
 653:Drivers/lvgl/lvgl/src/misc/lv_txt.c ****         }
 375              		.loc 1 653 0
 376 003e 0132     		adds	r2, r2, #1
 377 0040 2260     		str	r2, [r4]
 601:Drivers/lvgl/lvgl/src/misc/lv_txt.c **** 
 378              		.loc 1 601 0
ARM GAS  /tmp/ccZ7tG7k.s 			page 23


 379 0042 0020     		movs	r0, #0
 380              	.LVL41:
 381 0044 EAE7     		b	.L30
 382              	.LVL42:
 383              	.L46:
 616:Drivers/lvgl/lvgl/src/misc/lv_txt.c ****             (*i)++;
 384              		.loc 1 616 0
 385 0046 9B01     		lsls	r3, r3, #6
 386 0048 03F4F863 		and	r3, r3, #1984
 387              	.LVL43:
 617:Drivers/lvgl/lvgl/src/misc/lv_txt.c ****             if(LV_IS_INVALID_UTF8_CODE(txt[*i])) return 0;
 388              		.loc 1 617 0
 389 004c 0132     		adds	r2, r2, #1
 390 004e 2260     		str	r2, [r4]
 618:Drivers/lvgl/lvgl/src/misc/lv_txt.c ****             result += (txt[*i] & 0x3F);
 391              		.loc 1 618 0
 392 0050 805C     		ldrb	r0, [r0, r2]	@ zero_extendqisi2
 393              	.LVL44:
 394 0052 00F0C001 		and	r1, r0, #192
 395 0056 8029     		cmp	r1, #128
 396 0058 01D0     		beq	.L49
 397 005a 0020     		movs	r0, #0
 398 005c DEE7     		b	.L30
 399              	.L49:
 619:Drivers/lvgl/lvgl/src/misc/lv_txt.c ****             (*i)++;
 400              		.loc 1 619 0
 401 005e 00F03F00 		and	r0, r0, #63
 402 0062 1844     		add	r0, r0, r3
 403              	.LVL45:
 620:Drivers/lvgl/lvgl/src/misc/lv_txt.c ****         }
 404              		.loc 1 620 0
 405 0064 0132     		adds	r2, r2, #1
 406 0066 2260     		str	r2, [r4]
 407 0068 D8E7     		b	.L30
 408              	.LVL46:
 409              	.L47:
 624:Drivers/lvgl/lvgl/src/misc/lv_txt.c ****             (*i)++;
 410              		.loc 1 624 0
 411 006a 1B03     		lsls	r3, r3, #12
 412 006c 9BB2     		uxth	r3, r3
 413              	.LVL47:
 625:Drivers/lvgl/lvgl/src/misc/lv_txt.c **** 
 414              		.loc 1 625 0
 415 006e 0132     		adds	r2, r2, #1
 416 0070 2260     		str	r2, [r4]
 627:Drivers/lvgl/lvgl/src/misc/lv_txt.c ****             result += (uint32_t)(txt[*i] & 0x3F) << 6;
 417              		.loc 1 627 0
 418 0072 815C     		ldrb	r1, [r0, r2]	@ zero_extendqisi2
 419 0074 01F0C005 		and	r5, r1, #192
 420 0078 802D     		cmp	r5, #128
 421 007a 01D0     		beq	.L50
 422 007c 0020     		movs	r0, #0
 423              	.LVL48:
 424 007e CDE7     		b	.L30
 425              	.LVL49:
 426              	.L50:
 628:Drivers/lvgl/lvgl/src/misc/lv_txt.c ****             (*i)++;
ARM GAS  /tmp/ccZ7tG7k.s 			page 24


 427              		.loc 1 628 0
 428 0080 8901     		lsls	r1, r1, #6
 429 0082 01F47C61 		and	r1, r1, #4032
 430 0086 0B44     		add	r3, r3, r1
 431              	.LVL50:
 629:Drivers/lvgl/lvgl/src/misc/lv_txt.c **** 
 432              		.loc 1 629 0
 433 0088 511C     		adds	r1, r2, #1
 434 008a 2160     		str	r1, [r4]
 631:Drivers/lvgl/lvgl/src/misc/lv_txt.c ****             result += (txt[*i] & 0x3F);
 435              		.loc 1 631 0
 436 008c 425C     		ldrb	r2, [r0, r1]	@ zero_extendqisi2
 437 008e 02F0C000 		and	r0, r2, #192
 438              	.LVL51:
 439 0092 8028     		cmp	r0, #128
 440 0094 01D0     		beq	.L51
 441 0096 0020     		movs	r0, #0
 442 0098 C0E7     		b	.L30
 443              	.L51:
 632:Drivers/lvgl/lvgl/src/misc/lv_txt.c ****             (*i)++;
 444              		.loc 1 632 0
 445 009a 02F03F02 		and	r2, r2, #63
 446 009e D018     		adds	r0, r2, r3
 447              	.LVL52:
 633:Drivers/lvgl/lvgl/src/misc/lv_txt.c ****         }
 448              		.loc 1 633 0
 449 00a0 0131     		adds	r1, r1, #1
 450 00a2 2160     		str	r1, [r4]
 451 00a4 BAE7     		b	.L30
 452              	.LVL53:
 453              	.L48:
 637:Drivers/lvgl/lvgl/src/misc/lv_txt.c ****             (*i)++;
 454              		.loc 1 637 0
 455 00a6 9B04     		lsls	r3, r3, #18
 456 00a8 03F4E013 		and	r3, r3, #1835008
 457              	.LVL54:
 638:Drivers/lvgl/lvgl/src/misc/lv_txt.c **** 
 458              		.loc 1 638 0
 459 00ac 0132     		adds	r2, r2, #1
 460 00ae 2260     		str	r2, [r4]
 640:Drivers/lvgl/lvgl/src/misc/lv_txt.c ****             result += (uint32_t)(txt[*i] & 0x3F) << 12;
 461              		.loc 1 640 0
 462 00b0 815C     		ldrb	r1, [r0, r2]	@ zero_extendqisi2
 463 00b2 01F0C005 		and	r5, r1, #192
 464 00b6 802D     		cmp	r5, #128
 465 00b8 01D0     		beq	.L52
 466 00ba 0020     		movs	r0, #0
 467              	.LVL55:
 468 00bc AEE7     		b	.L30
 469              	.LVL56:
 470              	.L52:
 641:Drivers/lvgl/lvgl/src/misc/lv_txt.c ****             (*i)++;
 471              		.loc 1 641 0
 472 00be 0903     		lsls	r1, r1, #12
 473 00c0 01F47C31 		and	r1, r1, #258048
 474 00c4 0B43     		orrs	r3, r3, r1
 475              	.LVL57:
ARM GAS  /tmp/ccZ7tG7k.s 			page 25


 642:Drivers/lvgl/lvgl/src/misc/lv_txt.c **** 
 476              		.loc 1 642 0
 477 00c6 0132     		adds	r2, r2, #1
 478 00c8 2260     		str	r2, [r4]
 644:Drivers/lvgl/lvgl/src/misc/lv_txt.c ****             result += (uint32_t)(txt[*i] & 0x3F) << 6;
 479              		.loc 1 644 0
 480 00ca 815C     		ldrb	r1, [r0, r2]	@ zero_extendqisi2
 481 00cc 01F0C005 		and	r5, r1, #192
 482 00d0 802D     		cmp	r5, #128
 483 00d2 01D0     		beq	.L53
 484 00d4 0020     		movs	r0, #0
 485              	.LVL58:
 486 00d6 A1E7     		b	.L30
 487              	.LVL59:
 488              	.L53:
 645:Drivers/lvgl/lvgl/src/misc/lv_txt.c ****             (*i)++;
 489              		.loc 1 645 0
 490 00d8 8901     		lsls	r1, r1, #6
 491 00da 01F47C61 		and	r1, r1, #4032
 492 00de 1944     		add	r1, r1, r3
 493              	.LVL60:
 646:Drivers/lvgl/lvgl/src/misc/lv_txt.c **** 
 494              		.loc 1 646 0
 495 00e0 0132     		adds	r2, r2, #1
 496 00e2 2260     		str	r2, [r4]
 648:Drivers/lvgl/lvgl/src/misc/lv_txt.c ****             result += txt[*i] & 0x3F;
 497              		.loc 1 648 0
 498 00e4 835C     		ldrb	r3, [r0, r2]	@ zero_extendqisi2
 499 00e6 03F0C000 		and	r0, r3, #192
 500              	.LVL61:
 501 00ea 8028     		cmp	r0, #128
 502 00ec 01D0     		beq	.L54
 503 00ee 0020     		movs	r0, #0
 504 00f0 94E7     		b	.L30
 505              	.L54:
 649:Drivers/lvgl/lvgl/src/misc/lv_txt.c ****             (*i)++;
 506              		.loc 1 649 0
 507 00f2 03F03F03 		and	r3, r3, #63
 508 00f6 5818     		adds	r0, r3, r1
 509              	.LVL62:
 650:Drivers/lvgl/lvgl/src/misc/lv_txt.c ****         }
 510              		.loc 1 650 0
 511 00f8 0132     		adds	r2, r2, #1
 512 00fa 2260     		str	r2, [r4]
 513 00fc 8EE7     		b	.L30
 514              		.cfi_endproc
 515              	.LFE67:
 517              		.section	.text.lv_txt_utf8_prev,"ax",%progbits
 518              		.align	1
 519              		.syntax unified
 520              		.thumb
 521              		.thumb_func
 522              		.fpu fpv5-d16
 524              	lv_txt_utf8_prev:
 525              	.LFB68:
 658:Drivers/lvgl/lvgl/src/misc/lv_txt.c **** 
 659:Drivers/lvgl/lvgl/src/misc/lv_txt.c **** /**
ARM GAS  /tmp/ccZ7tG7k.s 			page 26


 660:Drivers/lvgl/lvgl/src/misc/lv_txt.c ****  * Get previous UTF-8 character form a string.
 661:Drivers/lvgl/lvgl/src/misc/lv_txt.c ****  * @param txt pointer to '\0' terminated string
 662:Drivers/lvgl/lvgl/src/misc/lv_txt.c ****  * @param i start byte index in 'txt' where to start. After the call it will point to the previous
 663:Drivers/lvgl/lvgl/src/misc/lv_txt.c ****  * UTF-8 char in 'txt'.
 664:Drivers/lvgl/lvgl/src/misc/lv_txt.c ****  * @return the decoded Unicode character or 0 on invalid UTF-8 code
 665:Drivers/lvgl/lvgl/src/misc/lv_txt.c ****  */
 666:Drivers/lvgl/lvgl/src/misc/lv_txt.c **** static uint32_t lv_txt_utf8_prev(const char * txt, uint32_t * i)
 667:Drivers/lvgl/lvgl/src/misc/lv_txt.c **** {
 526              		.loc 1 667 0
 527              		.cfi_startproc
 528              		@ args = 0, pretend = 0, frame = 8
 529              		@ frame_needed = 0, uses_anonymous_args = 0
 530              	.LVL63:
 531 0000 70B5     		push	{r4, r5, r6, lr}
 532              	.LCFI11:
 533              		.cfi_def_cfa_offset 16
 534              		.cfi_offset 4, -16
 535              		.cfi_offset 5, -12
 536              		.cfi_offset 6, -8
 537              		.cfi_offset 14, -4
 538 0002 82B0     		sub	sp, sp, #8
 539              	.LCFI12:
 540              		.cfi_def_cfa_offset 24
 541 0004 0646     		mov	r6, r0
 542 0006 0D46     		mov	r5, r1
 543              	.LVL64:
 668:Drivers/lvgl/lvgl/src/misc/lv_txt.c ****     uint8_t c_size;
 669:Drivers/lvgl/lvgl/src/misc/lv_txt.c ****     uint8_t cnt = 0;
 670:Drivers/lvgl/lvgl/src/misc/lv_txt.c **** 
 671:Drivers/lvgl/lvgl/src/misc/lv_txt.c ****     /*Try to find a !0 long UTF-8 char by stepping one character back*/
 672:Drivers/lvgl/lvgl/src/misc/lv_txt.c ****     (*i)--;
 544              		.loc 1 672 0
 545 0008 0B68     		ldr	r3, [r1]
 546 000a 013B     		subs	r3, r3, #1
 547 000c 0B60     		str	r3, [r1]
 669:Drivers/lvgl/lvgl/src/misc/lv_txt.c **** 
 548              		.loc 1 669 0
 549 000e 0024     		movs	r4, #0
 550 0010 02E0     		b	.L58
 551              	.LVL65:
 552              	.L57:
 673:Drivers/lvgl/lvgl/src/misc/lv_txt.c ****     do {
 674:Drivers/lvgl/lvgl/src/misc/lv_txt.c ****         if(cnt >= 4) return 0; /*No UTF-8 char found before the initial*/
 675:Drivers/lvgl/lvgl/src/misc/lv_txt.c **** 
 676:Drivers/lvgl/lvgl/src/misc/lv_txt.c ****         c_size = _lv_txt_encoded_size(&txt[*i]);
 677:Drivers/lvgl/lvgl/src/misc/lv_txt.c ****         if(c_size == 0) {
 678:Drivers/lvgl/lvgl/src/misc/lv_txt.c ****             if(*i != 0)
 679:Drivers/lvgl/lvgl/src/misc/lv_txt.c ****                 (*i)--;
 680:Drivers/lvgl/lvgl/src/misc/lv_txt.c ****             else
 681:Drivers/lvgl/lvgl/src/misc/lv_txt.c ****                 return 0;
 682:Drivers/lvgl/lvgl/src/misc/lv_txt.c ****         }
 683:Drivers/lvgl/lvgl/src/misc/lv_txt.c ****         cnt++;
 553              		.loc 1 683 0
 554 0012 0134     		adds	r4, r4, #1
 555              	.LVL66:
 556 0014 E4B2     		uxtb	r4, r4
 557              	.LVL67:
ARM GAS  /tmp/ccZ7tG7k.s 			page 27


 684:Drivers/lvgl/lvgl/src/misc/lv_txt.c ****     } while(c_size == 0);
 558              		.loc 1 684 0
 559 0016 73B9     		cbnz	r3, .L61
 560              	.LVL68:
 561              	.L58:
 674:Drivers/lvgl/lvgl/src/misc/lv_txt.c **** 
 562              		.loc 1 674 0
 563 0018 032C     		cmp	r4, #3
 564 001a 15D8     		bhi	.L59
 676:Drivers/lvgl/lvgl/src/misc/lv_txt.c ****         if(c_size == 0) {
 565              		.loc 1 676 0
 566 001c 0C4B     		ldr	r3, .L62
 567 001e 1B68     		ldr	r3, [r3]
 568 0020 2868     		ldr	r0, [r5]
 569 0022 3044     		add	r0, r0, r6
 570 0024 9847     		blx	r3
 571              	.LVL69:
 677:Drivers/lvgl/lvgl/src/misc/lv_txt.c ****             if(*i != 0)
 572              		.loc 1 677 0
 573 0026 0346     		mov	r3, r0
 574 0028 0028     		cmp	r0, #0
 575 002a F2D1     		bne	.L57
 678:Drivers/lvgl/lvgl/src/misc/lv_txt.c ****                 (*i)--;
 576              		.loc 1 678 0
 577 002c 2868     		ldr	r0, [r5]
 578              	.LVL70:
 579 002e 60B1     		cbz	r0, .L55
 679:Drivers/lvgl/lvgl/src/misc/lv_txt.c ****             else
 580              		.loc 1 679 0
 581 0030 0138     		subs	r0, r0, #1
 582 0032 2860     		str	r0, [r5]
 583 0034 EDE7     		b	.L57
 584              	.L61:
 685:Drivers/lvgl/lvgl/src/misc/lv_txt.c **** 
 686:Drivers/lvgl/lvgl/src/misc/lv_txt.c ****     uint32_t i_tmp  = *i;
 585              		.loc 1 686 0
 586 0036 2B68     		ldr	r3, [r5]
 587 0038 02A9     		add	r1, sp, #8
 588 003a 41F8043D 		str	r3, [r1, #-4]!
 687:Drivers/lvgl/lvgl/src/misc/lv_txt.c ****     uint32_t letter = _lv_txt_encoded_next(txt, &i_tmp); /*Character found, get it*/
 589              		.loc 1 687 0
 590 003e 054B     		ldr	r3, .L62+4
 591 0040 1B68     		ldr	r3, [r3]
 592 0042 3046     		mov	r0, r6
 593 0044 9847     		blx	r3
 594              	.LVL71:
 688:Drivers/lvgl/lvgl/src/misc/lv_txt.c **** 
 689:Drivers/lvgl/lvgl/src/misc/lv_txt.c ****     return letter;
 595              		.loc 1 689 0
 596 0046 00E0     		b	.L55
 597              	.LVL72:
 598              	.L59:
 674:Drivers/lvgl/lvgl/src/misc/lv_txt.c **** 
 599              		.loc 1 674 0
 600 0048 0020     		movs	r0, #0
 601              	.L55:
 690:Drivers/lvgl/lvgl/src/misc/lv_txt.c **** }
ARM GAS  /tmp/ccZ7tG7k.s 			page 28


 602              		.loc 1 690 0
 603 004a 02B0     		add	sp, sp, #8
 604              	.LCFI13:
 605              		.cfi_def_cfa_offset 16
 606              		@ sp needed
 607 004c 70BD     		pop	{r4, r5, r6, pc}
 608              	.LVL73:
 609              	.L63:
 610 004e 00BF     		.align	2
 611              	.L62:
 612 0050 00000000 		.word	.LANCHOR0
 613 0054 00000000 		.word	.LANCHOR1
 614              		.cfi_endproc
 615              	.LFE68:
 617              		.section	.text.lv_txt_utf8_get_byte_id,"ax",%progbits
 618              		.align	1
 619              		.syntax unified
 620              		.thumb
 621              		.thumb_func
 622              		.fpu fpv5-d16
 624              	lv_txt_utf8_get_byte_id:
 625              	.LFB69:
 691:Drivers/lvgl/lvgl/src/misc/lv_txt.c **** 
 692:Drivers/lvgl/lvgl/src/misc/lv_txt.c **** /**
 693:Drivers/lvgl/lvgl/src/misc/lv_txt.c ****  * Convert a character index (in an UTF-8 text) to byte index.
 694:Drivers/lvgl/lvgl/src/misc/lv_txt.c ****  * E.g. in "AÁRT" index of 'R' is 2th char but start at byte 3 because 'Á' is 2 bytes long
 695:Drivers/lvgl/lvgl/src/misc/lv_txt.c ****  * @param txt a '\0' terminated UTF-8 string
 696:Drivers/lvgl/lvgl/src/misc/lv_txt.c ****  * @param utf8_id character index
 697:Drivers/lvgl/lvgl/src/misc/lv_txt.c ****  * @return byte index of the 'utf8_id'th letter
 698:Drivers/lvgl/lvgl/src/misc/lv_txt.c ****  */
 699:Drivers/lvgl/lvgl/src/misc/lv_txt.c **** static uint32_t lv_txt_utf8_get_byte_id(const char * txt, uint32_t utf8_id)
 700:Drivers/lvgl/lvgl/src/misc/lv_txt.c **** {
 626              		.loc 1 700 0
 627              		.cfi_startproc
 628              		@ args = 0, pretend = 0, frame = 0
 629              		@ frame_needed = 0, uses_anonymous_args = 0
 630              	.LVL74:
 631 0000 F8B5     		push	{r3, r4, r5, r6, r7, lr}
 632              	.LCFI14:
 633              		.cfi_def_cfa_offset 24
 634              		.cfi_offset 3, -24
 635              		.cfi_offset 4, -20
 636              		.cfi_offset 5, -16
 637              		.cfi_offset 6, -12
 638              		.cfi_offset 7, -8
 639              		.cfi_offset 14, -4
 640 0002 0646     		mov	r6, r0
 641 0004 0F46     		mov	r7, r1
 642              	.LVL75:
 701:Drivers/lvgl/lvgl/src/misc/lv_txt.c ****     uint32_t i;
 702:Drivers/lvgl/lvgl/src/misc/lv_txt.c ****     uint32_t byte_cnt = 0;
 643              		.loc 1 702 0
 644 0006 0024     		movs	r4, #0
 703:Drivers/lvgl/lvgl/src/misc/lv_txt.c ****     for(i = 0; i < utf8_id && txt[byte_cnt] != '\0'; i++) {
 645              		.loc 1 703 0
 646 0008 2546     		mov	r5, r4
 647 000a 01E0     		b	.L65
ARM GAS  /tmp/ccZ7tG7k.s 			page 29


 648              	.LVL76:
 649              	.L66:
 650              	.LBB18:
 704:Drivers/lvgl/lvgl/src/misc/lv_txt.c ****         uint8_t c_size = _lv_txt_encoded_size(&txt[byte_cnt]);
 705:Drivers/lvgl/lvgl/src/misc/lv_txt.c ****         /* If the char was invalid tell it's 1 byte long*/
 706:Drivers/lvgl/lvgl/src/misc/lv_txt.c ****         byte_cnt += c_size ? c_size : 1;
 651              		.loc 1 706 0 discriminator 4
 652 000c 0444     		add	r4, r4, r0
 653              	.LVL77:
 654              	.LBE18:
 703:Drivers/lvgl/lvgl/src/misc/lv_txt.c ****     for(i = 0; i < utf8_id && txt[byte_cnt] != '\0'; i++) {
 655              		.loc 1 703 0 discriminator 4
 656 000e 0135     		adds	r5, r5, #1
 657              	.LVL78:
 658              	.L65:
 703:Drivers/lvgl/lvgl/src/misc/lv_txt.c ****     for(i = 0; i < utf8_id && txt[byte_cnt] != '\0'; i++) {
 659              		.loc 1 703 0 is_stmt 0 discriminator 2
 660 0010 BD42     		cmp	r5, r7
 661 0012 09D2     		bcs	.L64
 703:Drivers/lvgl/lvgl/src/misc/lv_txt.c ****     for(i = 0; i < utf8_id && txt[byte_cnt] != '\0'; i++) {
 662              		.loc 1 703 0 discriminator 3
 663 0014 3019     		adds	r0, r6, r4
 664 0016 335D     		ldrb	r3, [r6, r4]	@ zero_extendqisi2
 665 0018 33B1     		cbz	r3, .L64
 666              	.LBB19:
 704:Drivers/lvgl/lvgl/src/misc/lv_txt.c ****         uint8_t c_size = _lv_txt_encoded_size(&txt[byte_cnt]);
 667              		.loc 1 704 0 is_stmt 1
 668 001a 044B     		ldr	r3, .L71
 669 001c 1B68     		ldr	r3, [r3]
 670 001e 9847     		blx	r3
 671              	.LVL79:
 672              		.loc 1 706 0
 673 0020 0028     		cmp	r0, #0
 674 0022 F3D1     		bne	.L66
 675 0024 0120     		movs	r0, #1
 676              	.LVL80:
 677 0026 F1E7     		b	.L66
 678              	.L64:
 679              	.LBE19:
 707:Drivers/lvgl/lvgl/src/misc/lv_txt.c ****     }
 708:Drivers/lvgl/lvgl/src/misc/lv_txt.c **** 
 709:Drivers/lvgl/lvgl/src/misc/lv_txt.c ****     return byte_cnt;
 710:Drivers/lvgl/lvgl/src/misc/lv_txt.c **** }
 680              		.loc 1 710 0
 681 0028 2046     		mov	r0, r4
 682 002a F8BD     		pop	{r3, r4, r5, r6, r7, pc}
 683              	.LVL81:
 684              	.L72:
 685              		.align	2
 686              	.L71:
 687 002c 00000000 		.word	.LANCHOR0
 688              		.cfi_endproc
 689              	.LFE69:
 691              		.section	.text.lv_txt_utf8_get_char_id,"ax",%progbits
 692              		.align	1
 693              		.syntax unified
 694              		.thumb
ARM GAS  /tmp/ccZ7tG7k.s 			page 30


 695              		.thumb_func
 696              		.fpu fpv5-d16
 698              	lv_txt_utf8_get_char_id:
 699              	.LFB70:
 711:Drivers/lvgl/lvgl/src/misc/lv_txt.c **** 
 712:Drivers/lvgl/lvgl/src/misc/lv_txt.c **** /**
 713:Drivers/lvgl/lvgl/src/misc/lv_txt.c ****  * Convert a byte index (in an UTF-8 text) to character index.
 714:Drivers/lvgl/lvgl/src/misc/lv_txt.c ****  * E.g. in "AÁRT" index of 'R' is 2th char but start at byte 3 because 'Á' is 2 bytes long
 715:Drivers/lvgl/lvgl/src/misc/lv_txt.c ****  * @param txt a '\0' terminated UTF-8 string
 716:Drivers/lvgl/lvgl/src/misc/lv_txt.c ****  * @param byte_id byte index
 717:Drivers/lvgl/lvgl/src/misc/lv_txt.c ****  * @return character index of the letter at 'byte_id'th position
 718:Drivers/lvgl/lvgl/src/misc/lv_txt.c ****  */
 719:Drivers/lvgl/lvgl/src/misc/lv_txt.c **** static uint32_t lv_txt_utf8_get_char_id(const char * txt, uint32_t byte_id)
 720:Drivers/lvgl/lvgl/src/misc/lv_txt.c **** {
 700              		.loc 1 720 0
 701              		.cfi_startproc
 702              		@ args = 0, pretend = 0, frame = 8
 703              		@ frame_needed = 0, uses_anonymous_args = 0
 704              	.LVL82:
 705 0000 70B5     		push	{r4, r5, r6, lr}
 706              	.LCFI15:
 707              		.cfi_def_cfa_offset 16
 708              		.cfi_offset 4, -16
 709              		.cfi_offset 5, -12
 710              		.cfi_offset 6, -8
 711              		.cfi_offset 14, -4
 712 0002 82B0     		sub	sp, sp, #8
 713              	.LCFI16:
 714              		.cfi_def_cfa_offset 24
 715 0004 0646     		mov	r6, r0
 716 0006 0D46     		mov	r5, r1
 721:Drivers/lvgl/lvgl/src/misc/lv_txt.c ****     uint32_t i        = 0;
 717              		.loc 1 721 0
 718 0008 0024     		movs	r4, #0
 719 000a 0194     		str	r4, [sp, #4]
 720              	.LVL83:
 722:Drivers/lvgl/lvgl/src/misc/lv_txt.c ****     uint32_t char_cnt = 0;
 723:Drivers/lvgl/lvgl/src/misc/lv_txt.c **** 
 724:Drivers/lvgl/lvgl/src/misc/lv_txt.c ****     while(i < byte_id) {
 721              		.loc 1 724 0
 722 000c 05E0     		b	.L74
 723              	.LVL84:
 724              	.L75:
 725:Drivers/lvgl/lvgl/src/misc/lv_txt.c ****         _lv_txt_encoded_next(txt, &i); /*'i' points to the next letter so use the prev. value*/
 725              		.loc 1 725 0
 726 000e 064B     		ldr	r3, .L77
 727 0010 1B68     		ldr	r3, [r3]
 728 0012 01A9     		add	r1, sp, #4
 729 0014 3046     		mov	r0, r6
 730 0016 9847     		blx	r3
 731              	.LVL85:
 726:Drivers/lvgl/lvgl/src/misc/lv_txt.c ****         char_cnt++;
 732              		.loc 1 726 0
 733 0018 0134     		adds	r4, r4, #1
 734              	.LVL86:
 735              	.L74:
 724:Drivers/lvgl/lvgl/src/misc/lv_txt.c ****         _lv_txt_encoded_next(txt, &i); /*'i' points to the next letter so use the prev. value*/
ARM GAS  /tmp/ccZ7tG7k.s 			page 31


 736              		.loc 1 724 0
 737 001a 019B     		ldr	r3, [sp, #4]
 738 001c AB42     		cmp	r3, r5
 739 001e F6D3     		bcc	.L75
 727:Drivers/lvgl/lvgl/src/misc/lv_txt.c ****     }
 728:Drivers/lvgl/lvgl/src/misc/lv_txt.c **** 
 729:Drivers/lvgl/lvgl/src/misc/lv_txt.c ****     return char_cnt;
 730:Drivers/lvgl/lvgl/src/misc/lv_txt.c **** }
 740              		.loc 1 730 0
 741 0020 2046     		mov	r0, r4
 742 0022 02B0     		add	sp, sp, #8
 743              	.LCFI17:
 744              		.cfi_def_cfa_offset 16
 745              		@ sp needed
 746 0024 70BD     		pop	{r4, r5, r6, pc}
 747              	.LVL87:
 748              	.L78:
 749 0026 00BF     		.align	2
 750              	.L77:
 751 0028 00000000 		.word	.LANCHOR1
 752              		.cfi_endproc
 753              	.LFE70:
 755              		.section	.text.lv_txt_utf8_get_length,"ax",%progbits
 756              		.align	1
 757              		.syntax unified
 758              		.thumb
 759              		.thumb_func
 760              		.fpu fpv5-d16
 762              	lv_txt_utf8_get_length:
 763              	.LFB71:
 731:Drivers/lvgl/lvgl/src/misc/lv_txt.c **** 
 732:Drivers/lvgl/lvgl/src/misc/lv_txt.c **** /**
 733:Drivers/lvgl/lvgl/src/misc/lv_txt.c ****  * Get the number of characters (and NOT bytes) in a string. Decode it with UTF-8 if enabled.
 734:Drivers/lvgl/lvgl/src/misc/lv_txt.c ****  * E.g.: "ÁBC" is 3 characters (but 4 bytes)
 735:Drivers/lvgl/lvgl/src/misc/lv_txt.c ****  * @param txt a '\0' terminated char string
 736:Drivers/lvgl/lvgl/src/misc/lv_txt.c ****  * @return number of characters
 737:Drivers/lvgl/lvgl/src/misc/lv_txt.c ****  */
 738:Drivers/lvgl/lvgl/src/misc/lv_txt.c **** static uint32_t lv_txt_utf8_get_length(const char * txt)
 739:Drivers/lvgl/lvgl/src/misc/lv_txt.c **** {
 764              		.loc 1 739 0
 765              		.cfi_startproc
 766              		@ args = 0, pretend = 0, frame = 8
 767              		@ frame_needed = 0, uses_anonymous_args = 0
 768              	.LVL88:
 769 0000 30B5     		push	{r4, r5, lr}
 770              	.LCFI18:
 771              		.cfi_def_cfa_offset 12
 772              		.cfi_offset 4, -12
 773              		.cfi_offset 5, -8
 774              		.cfi_offset 14, -4
 775 0002 83B0     		sub	sp, sp, #12
 776              	.LCFI19:
 777              		.cfi_def_cfa_offset 24
 778 0004 0546     		mov	r5, r0
 779              	.LVL89:
 740:Drivers/lvgl/lvgl/src/misc/lv_txt.c ****     uint32_t len = 0;
 741:Drivers/lvgl/lvgl/src/misc/lv_txt.c ****     uint32_t i   = 0;
ARM GAS  /tmp/ccZ7tG7k.s 			page 32


 780              		.loc 1 741 0
 781 0006 0024     		movs	r4, #0
 782 0008 0194     		str	r4, [sp, #4]
 742:Drivers/lvgl/lvgl/src/misc/lv_txt.c **** 
 743:Drivers/lvgl/lvgl/src/misc/lv_txt.c ****     while(txt[i] != '\0') {
 783              		.loc 1 743 0
 784 000a 05E0     		b	.L80
 785              	.LVL90:
 786              	.L81:
 744:Drivers/lvgl/lvgl/src/misc/lv_txt.c ****         _lv_txt_encoded_next(txt, &i);
 787              		.loc 1 744 0
 788 000c 064B     		ldr	r3, .L83
 789 000e 1B68     		ldr	r3, [r3]
 790 0010 01A9     		add	r1, sp, #4
 791 0012 2846     		mov	r0, r5
 792 0014 9847     		blx	r3
 793              	.LVL91:
 745:Drivers/lvgl/lvgl/src/misc/lv_txt.c ****         len++;
 794              		.loc 1 745 0
 795 0016 0134     		adds	r4, r4, #1
 796              	.LVL92:
 797              	.L80:
 743:Drivers/lvgl/lvgl/src/misc/lv_txt.c ****         _lv_txt_encoded_next(txt, &i);
 798              		.loc 1 743 0
 799 0018 019B     		ldr	r3, [sp, #4]
 800 001a EB5C     		ldrb	r3, [r5, r3]	@ zero_extendqisi2
 801 001c 002B     		cmp	r3, #0
 802 001e F5D1     		bne	.L81
 746:Drivers/lvgl/lvgl/src/misc/lv_txt.c ****     }
 747:Drivers/lvgl/lvgl/src/misc/lv_txt.c **** 
 748:Drivers/lvgl/lvgl/src/misc/lv_txt.c ****     return len;
 749:Drivers/lvgl/lvgl/src/misc/lv_txt.c **** }
 803              		.loc 1 749 0
 804 0020 2046     		mov	r0, r4
 805 0022 03B0     		add	sp, sp, #12
 806              	.LCFI20:
 807              		.cfi_def_cfa_offset 12
 808              		@ sp needed
 809 0024 30BD     		pop	{r4, r5, pc}
 810              	.LVL93:
 811              	.L84:
 812 0026 00BF     		.align	2
 813              	.L83:
 814 0028 00000000 		.word	.LANCHOR1
 815              		.cfi_endproc
 816              	.LFE71:
 818              		.section	.text._lv_txt_is_cmd,"ax",%progbits
 819              		.align	1
 820              		.global	_lv_txt_is_cmd
 821              		.syntax unified
 822              		.thumb
 823              		.thumb_func
 824              		.fpu fpv5-d16
 826              	_lv_txt_is_cmd:
 827              	.LFB59:
 383:Drivers/lvgl/lvgl/src/misc/lv_txt.c ****     bool ret = false;
 828              		.loc 1 383 0
ARM GAS  /tmp/ccZ7tG7k.s 			page 33


 829              		.cfi_startproc
 830              		@ args = 0, pretend = 0, frame = 0
 831              		@ frame_needed = 0, uses_anonymous_args = 0
 832              		@ link register save eliminated.
 833              	.LVL94:
 834 0000 0246     		mov	r2, r0
 835              	.LVL95:
 386:Drivers/lvgl/lvgl/src/misc/lv_txt.c ****         if(*state == LV_TEXT_CMD_STATE_WAIT) { /*Start char*/
 836              		.loc 1 386 0
 837 0002 2329     		cmp	r1, #35
 838 0004 04D0     		beq	.L93
 384:Drivers/lvgl/lvgl/src/misc/lv_txt.c **** 
 839              		.loc 1 384 0
 840 0006 0020     		movs	r0, #0
 841              	.LVL96:
 842              	.L86:
 403:Drivers/lvgl/lvgl/src/misc/lv_txt.c ****         if(c == ' ') {
 843              		.loc 1 403 0
 844 0008 1378     		ldrb	r3, [r2]	@ zero_extendqisi2
 845 000a 012B     		cmp	r3, #1
 846 000c 14D0     		beq	.L94
 847              	.LVL97:
 848              	.L89:
 411:Drivers/lvgl/lvgl/src/misc/lv_txt.c **** 
 849              		.loc 1 411 0
 850 000e 7047     		bx	lr
 851              	.LVL98:
 852              	.L93:
 387:Drivers/lvgl/lvgl/src/misc/lv_txt.c ****             *state = LV_TEXT_CMD_STATE_PAR;
 853              		.loc 1 387 0
 854 0010 0378     		ldrb	r3, [r0]	@ zero_extendqisi2
 855 0012 1BB9     		cbnz	r3, .L87
 388:Drivers/lvgl/lvgl/src/misc/lv_txt.c ****             ret    = true;
 856              		.loc 1 388 0
 857 0014 0123     		movs	r3, #1
 858 0016 0370     		strb	r3, [r0]
 859              	.LVL99:
 389:Drivers/lvgl/lvgl/src/misc/lv_txt.c ****         }
 860              		.loc 1 389 0
 861 0018 1846     		mov	r0, r3
 862              	.LVL100:
 863 001a F5E7     		b	.L86
 864              	.LVL101:
 865              	.L87:
 392:Drivers/lvgl/lvgl/src/misc/lv_txt.c ****             *state = LV_TEXT_CMD_STATE_WAIT;
 866              		.loc 1 392 0
 867 001c 012B     		cmp	r3, #1
 868 001e 03D0     		beq	.L95
 396:Drivers/lvgl/lvgl/src/misc/lv_txt.c ****             *state = LV_TEXT_CMD_STATE_WAIT;
 869              		.loc 1 396 0
 870 0020 022B     		cmp	r3, #2
 871 0022 05D0     		beq	.L96
 384:Drivers/lvgl/lvgl/src/misc/lv_txt.c **** 
 872              		.loc 1 384 0
 873 0024 0020     		movs	r0, #0
 874              	.LVL102:
 875 0026 EFE7     		b	.L86
ARM GAS  /tmp/ccZ7tG7k.s 			page 34


 876              	.LVL103:
 877              	.L95:
 393:Drivers/lvgl/lvgl/src/misc/lv_txt.c ****         }
 878              		.loc 1 393 0
 879 0028 0023     		movs	r3, #0
 880 002a 0370     		strb	r3, [r0]
 384:Drivers/lvgl/lvgl/src/misc/lv_txt.c **** 
 881              		.loc 1 384 0
 882 002c 1846     		mov	r0, r3
 883              	.LVL104:
 884 002e EBE7     		b	.L86
 885              	.LVL105:
 886              	.L96:
 397:Drivers/lvgl/lvgl/src/misc/lv_txt.c ****             ret    = true;
 887              		.loc 1 397 0
 888 0030 0023     		movs	r3, #0
 889 0032 0370     		strb	r3, [r0]
 890              	.LVL106:
 398:Drivers/lvgl/lvgl/src/misc/lv_txt.c ****         }
 891              		.loc 1 398 0
 892 0034 0120     		movs	r0, #1
 893              	.LVL107:
 894 0036 E7E7     		b	.L86
 895              	.LVL108:
 896              	.L94:
 404:Drivers/lvgl/lvgl/src/misc/lv_txt.c ****             *state = LV_TEXT_CMD_STATE_IN; /*After the parameter the text is in the command*/
 897              		.loc 1 404 0
 898 0038 2029     		cmp	r1, #32
 899 003a 01D0     		beq	.L97
 407:Drivers/lvgl/lvgl/src/misc/lv_txt.c ****     }
 900              		.loc 1 407 0
 901 003c 0120     		movs	r0, #1
 902              	.LVL109:
 903 003e E6E7     		b	.L89
 904              	.LVL110:
 905              	.L97:
 405:Drivers/lvgl/lvgl/src/misc/lv_txt.c ****         }
 906              		.loc 1 405 0
 907 0040 0223     		movs	r3, #2
 908 0042 1370     		strb	r3, [r2]
 407:Drivers/lvgl/lvgl/src/misc/lv_txt.c ****     }
 909              		.loc 1 407 0
 910 0044 0120     		movs	r0, #1
 911              	.LVL111:
 912 0046 7047     		bx	lr
 913              		.cfi_endproc
 914              	.LFE59:
 916              		.section	.text.lv_txt_get_next_word,"ax",%progbits
 917              		.align	1
 918              		.syntax unified
 919              		.thumb
 920              		.thumb_func
 921              		.fpu fpv5-d16
 923              	lv_txt_get_next_word:
 924              	.LFB56:
 174:Drivers/lvgl/lvgl/src/misc/lv_txt.c ****     if(txt == NULL || txt[0] == '\0') return 0;
 925              		.loc 1 174 0
ARM GAS  /tmp/ccZ7tG7k.s 			page 35


 926              		.cfi_startproc
 927              		@ args = 16, pretend = 0, frame = 32
 928              		@ frame_needed = 0, uses_anonymous_args = 0
 929              	.LVL112:
 930 0000 2DE9F04F 		push	{r4, r5, r6, r7, r8, r9, r10, fp, lr}
 931              	.LCFI21:
 932              		.cfi_def_cfa_offset 36
 933              		.cfi_offset 4, -36
 934              		.cfi_offset 5, -32
 935              		.cfi_offset 6, -28
 936              		.cfi_offset 7, -24
 937              		.cfi_offset 8, -20
 938              		.cfi_offset 9, -16
 939              		.cfi_offset 10, -12
 940              		.cfi_offset 11, -8
 941              		.cfi_offset 14, -4
 942 0004 89B0     		sub	sp, sp, #36
 943              	.LCFI22:
 944              		.cfi_def_cfa_offset 72
 945 0006 0291     		str	r1, [sp, #8]
 946 0008 0392     		str	r2, [sp, #12]
 947 000a 0493     		str	r3, [sp, #16]
 948 000c 9DF848B0 		ldrb	fp, [sp, #72]	@ zero_extendqisi2
 949 0010 9DF85430 		ldrb	r3, [sp, #84]	@ zero_extendqisi2
 950              	.LVL113:
 951 0014 0593     		str	r3, [sp, #20]
 175:Drivers/lvgl/lvgl/src/misc/lv_txt.c ****     if(font == NULL) return 0;
 952              		.loc 1 175 0
 953 0016 0028     		cmp	r0, #0
 954 0018 00F09C80 		beq	.L116
 955 001c 0746     		mov	r7, r0
 175:Drivers/lvgl/lvgl/src/misc/lv_txt.c ****     if(font == NULL) return 0;
 956              		.loc 1 175 0 is_stmt 0 discriminator 2
 957 001e 0378     		ldrb	r3, [r0]	@ zero_extendqisi2
 958 0020 002B     		cmp	r3, #0
 959 0022 00F09A80 		beq	.L117
 176:Drivers/lvgl/lvgl/src/misc/lv_txt.c **** 
 960              		.loc 1 176 0 is_stmt 1
 961 0026 0029     		cmp	r1, #0
 962 0028 00F09D80 		beq	.L118
 178:Drivers/lvgl/lvgl/src/misc/lv_txt.c **** 
 963              		.loc 1 178 0
 964 002c 1BF0020F 		tst	fp, #2
 965 0030 02D0     		beq	.L100
 966 0032 41F6FF73 		movw	r3, #8191
 967 0036 0493     		str	r3, [sp, #16]
 968              	.L100:
 969              	.LVL114:
 180:Drivers/lvgl/lvgl/src/misc/lv_txt.c ****     uint32_t letter = 0;      /*Letter at i*/
 970              		.loc 1 180 0
 971 0038 0026     		movs	r6, #0
 972 003a 0796     		str	r6, [sp, #28]
 973 003c 0696     		str	r6, [sp, #24]
 974              	.LVL115:
 189:Drivers/lvgl/lvgl/src/misc/lv_txt.c ****     i_next_next = i_next;
 975              		.loc 1 189 0
 976 003e 4E4B     		ldr	r3, .L128
ARM GAS  /tmp/ccZ7tG7k.s 			page 36


 977 0040 1B68     		ldr	r3, [r3]
 978 0042 07A9     		add	r1, sp, #28
 979              	.LVL116:
 980 0044 3846     		mov	r0, r7
 981              	.LVL117:
 982 0046 9847     		blx	r3
 983              	.LVL118:
 984 0048 0446     		mov	r4, r0
 985              	.LVL119:
 190:Drivers/lvgl/lvgl/src/misc/lv_txt.c **** 
 986              		.loc 1 190 0
 987 004a 079B     		ldr	r3, [sp, #28]
 988 004c 0693     		str	r3, [sp, #24]
 186:Drivers/lvgl/lvgl/src/misc/lv_txt.c ****     uint32_t break_letter_count = 0; /*Number of characters up to the long word break point*/
 989              		.loc 1 186 0
 990 004e 4FF0FF38 		mov	r8, #-1
 185:Drivers/lvgl/lvgl/src/misc/lv_txt.c ****     uint32_t break_index = NO_BREAK_FOUND; /*only used for "long" words*/
 991              		.loc 1 185 0
 992 0052 B146     		mov	r9, r6
 184:Drivers/lvgl/lvgl/src/misc/lv_txt.c ****     uint32_t word_len = 0;   /*Number of characters in the transversed word*/
 993              		.loc 1 184 0
 994 0054 3546     		mov	r5, r6
 182:Drivers/lvgl/lvgl/src/misc/lv_txt.c ****     lv_coord_t letter_w;
 995              		.loc 1 182 0
 996 0056 0196     		str	r6, [sp, #4]
 193:Drivers/lvgl/lvgl/src/misc/lv_txt.c ****         letter_next = _lv_txt_encoded_next(txt, &i_next_next);
 997              		.loc 1 193 0
 998 0058 1DE0     		b	.L101
 999              	.LVL120:
 1000              	.L125:
 200:Drivers/lvgl/lvgl/src/misc/lv_txt.c ****                 i_next = i_next_next;
 1001              		.loc 1 200 0
 1002 005a 079E     		ldr	r6, [sp, #28]
 1003              	.LVL121:
 201:Drivers/lvgl/lvgl/src/misc/lv_txt.c ****                 letter = letter_next;
 1004              		.loc 1 201 0
 1005 005c 069B     		ldr	r3, [sp, #24]
 1006 005e 0793     		str	r3, [sp, #28]
 1007              	.LVL122:
 203:Drivers/lvgl/lvgl/src/misc/lv_txt.c ****             }
 1008              		.loc 1 203 0
 1009 0060 17E0     		b	.L103
 1010              	.LVL123:
 1011              	.L126:
 215:Drivers/lvgl/lvgl/src/misc/lv_txt.c ****             break_index = i;
 1012              		.loc 1 215 0 discriminator 1
 1013 0062 039B     		ldr	r3, [sp, #12]
 1014 0064 EB1A     		subs	r3, r5, r3
 1015 0066 049A     		ldr	r2, [sp, #16]
 1016 0068 9342     		cmp	r3, r2
 1017 006a 39DD     		ble	.L105
 216:Drivers/lvgl/lvgl/src/misc/lv_txt.c ****             break_letter_count = word_len - 1;
 1018              		.loc 1 216 0
 1019 006c B046     		mov	r8, r6
 1020              	.LVL124:
 1021 006e 37E0     		b	.L105
 1022              	.LVL125:
ARM GAS  /tmp/ccZ7tG7k.s 			page 37


 1023              	.L121:
 1024              	.LBB20:
 1025              	.LBB21:
 1026              		.file 3 "Drivers/lvgl/lvgl/src/misc/lv_txt.h"
   1:Drivers/lvgl/lvgl/src/misc/lv_txt.h **** /**
   2:Drivers/lvgl/lvgl/src/misc/lv_txt.h ****  * @file lv_txt.h
   3:Drivers/lvgl/lvgl/src/misc/lv_txt.h ****  *
   4:Drivers/lvgl/lvgl/src/misc/lv_txt.h ****  */
   5:Drivers/lvgl/lvgl/src/misc/lv_txt.h **** 
   6:Drivers/lvgl/lvgl/src/misc/lv_txt.h **** #ifndef LV_TXT_H
   7:Drivers/lvgl/lvgl/src/misc/lv_txt.h **** #define LV_TXT_H
   8:Drivers/lvgl/lvgl/src/misc/lv_txt.h **** 
   9:Drivers/lvgl/lvgl/src/misc/lv_txt.h **** #ifdef __cplusplus
  10:Drivers/lvgl/lvgl/src/misc/lv_txt.h **** extern "C" {
  11:Drivers/lvgl/lvgl/src/misc/lv_txt.h **** #endif
  12:Drivers/lvgl/lvgl/src/misc/lv_txt.h **** 
  13:Drivers/lvgl/lvgl/src/misc/lv_txt.h **** /*********************
  14:Drivers/lvgl/lvgl/src/misc/lv_txt.h ****  *      INCLUDES
  15:Drivers/lvgl/lvgl/src/misc/lv_txt.h ****  *********************/
  16:Drivers/lvgl/lvgl/src/misc/lv_txt.h **** #include "../lv_conf_internal.h"
  17:Drivers/lvgl/lvgl/src/misc/lv_txt.h **** 
  18:Drivers/lvgl/lvgl/src/misc/lv_txt.h **** #include <stdbool.h>
  19:Drivers/lvgl/lvgl/src/misc/lv_txt.h **** #include <stdarg.h>
  20:Drivers/lvgl/lvgl/src/misc/lv_txt.h **** #include "lv_area.h"
  21:Drivers/lvgl/lvgl/src/misc/lv_txt.h **** #include "../font/lv_font.h"
  22:Drivers/lvgl/lvgl/src/misc/lv_txt.h **** #include "lv_printf.h"
  23:Drivers/lvgl/lvgl/src/misc/lv_txt.h **** #include "lv_types.h"
  24:Drivers/lvgl/lvgl/src/misc/lv_txt.h **** 
  25:Drivers/lvgl/lvgl/src/misc/lv_txt.h **** /*********************
  26:Drivers/lvgl/lvgl/src/misc/lv_txt.h ****  *      DEFINES
  27:Drivers/lvgl/lvgl/src/misc/lv_txt.h ****  *********************/
  28:Drivers/lvgl/lvgl/src/misc/lv_txt.h **** #ifndef LV_TXT_COLOR_CMD
  29:Drivers/lvgl/lvgl/src/misc/lv_txt.h **** #define LV_TXT_COLOR_CMD "#"
  30:Drivers/lvgl/lvgl/src/misc/lv_txt.h **** #endif
  31:Drivers/lvgl/lvgl/src/misc/lv_txt.h **** 
  32:Drivers/lvgl/lvgl/src/misc/lv_txt.h **** #define LV_TXT_ENC_UTF8 1
  33:Drivers/lvgl/lvgl/src/misc/lv_txt.h **** #define LV_TXT_ENC_ASCII 2
  34:Drivers/lvgl/lvgl/src/misc/lv_txt.h **** 
  35:Drivers/lvgl/lvgl/src/misc/lv_txt.h **** /**********************
  36:Drivers/lvgl/lvgl/src/misc/lv_txt.h ****  *      TYPEDEFS
  37:Drivers/lvgl/lvgl/src/misc/lv_txt.h ****  **********************/
  38:Drivers/lvgl/lvgl/src/misc/lv_txt.h **** 
  39:Drivers/lvgl/lvgl/src/misc/lv_txt.h **** /**
  40:Drivers/lvgl/lvgl/src/misc/lv_txt.h ****  * Options for text rendering.
  41:Drivers/lvgl/lvgl/src/misc/lv_txt.h ****  */
  42:Drivers/lvgl/lvgl/src/misc/lv_txt.h **** enum {
  43:Drivers/lvgl/lvgl/src/misc/lv_txt.h ****     LV_TEXT_FLAG_NONE    = 0x00,
  44:Drivers/lvgl/lvgl/src/misc/lv_txt.h ****     LV_TEXT_FLAG_RECOLOR = 0x01, /**< Enable parsing of recolor command*/
  45:Drivers/lvgl/lvgl/src/misc/lv_txt.h ****     LV_TEXT_FLAG_EXPAND  = 0x02, /**< Ignore max-width to avoid automatic word wrapping*/
  46:Drivers/lvgl/lvgl/src/misc/lv_txt.h ****     LV_TEXT_FLAG_FIT     = 0x04, /**< Max-width is already equal to the longest line. (Used to skip
  47:Drivers/lvgl/lvgl/src/misc/lv_txt.h **** };
  48:Drivers/lvgl/lvgl/src/misc/lv_txt.h **** typedef uint8_t lv_text_flag_t;
  49:Drivers/lvgl/lvgl/src/misc/lv_txt.h **** 
  50:Drivers/lvgl/lvgl/src/misc/lv_txt.h **** /**
  51:Drivers/lvgl/lvgl/src/misc/lv_txt.h ****  * State machine for text renderer.*/
  52:Drivers/lvgl/lvgl/src/misc/lv_txt.h **** enum {
  53:Drivers/lvgl/lvgl/src/misc/lv_txt.h ****     LV_TEXT_CMD_STATE_WAIT, /**< Waiting for command*/
ARM GAS  /tmp/ccZ7tG7k.s 			page 38


  54:Drivers/lvgl/lvgl/src/misc/lv_txt.h ****     LV_TEXT_CMD_STATE_PAR,  /**< Processing the parameter*/
  55:Drivers/lvgl/lvgl/src/misc/lv_txt.h ****     LV_TEXT_CMD_STATE_IN,   /**< Processing the command*/
  56:Drivers/lvgl/lvgl/src/misc/lv_txt.h **** };
  57:Drivers/lvgl/lvgl/src/misc/lv_txt.h **** typedef uint8_t lv_text_cmd_state_t;
  58:Drivers/lvgl/lvgl/src/misc/lv_txt.h **** 
  59:Drivers/lvgl/lvgl/src/misc/lv_txt.h **** /** Label align policy*/
  60:Drivers/lvgl/lvgl/src/misc/lv_txt.h **** enum {
  61:Drivers/lvgl/lvgl/src/misc/lv_txt.h ****     LV_TEXT_ALIGN_AUTO, /**< Align text auto*/
  62:Drivers/lvgl/lvgl/src/misc/lv_txt.h ****     LV_TEXT_ALIGN_LEFT, /**< Align text to left*/
  63:Drivers/lvgl/lvgl/src/misc/lv_txt.h ****     LV_TEXT_ALIGN_CENTER, /**< Align text to center*/
  64:Drivers/lvgl/lvgl/src/misc/lv_txt.h ****     LV_TEXT_ALIGN_RIGHT, /**< Align text to right*/
  65:Drivers/lvgl/lvgl/src/misc/lv_txt.h **** };
  66:Drivers/lvgl/lvgl/src/misc/lv_txt.h **** typedef uint8_t lv_text_align_t;
  67:Drivers/lvgl/lvgl/src/misc/lv_txt.h **** 
  68:Drivers/lvgl/lvgl/src/misc/lv_txt.h **** /**********************
  69:Drivers/lvgl/lvgl/src/misc/lv_txt.h ****  * GLOBAL PROTOTYPES
  70:Drivers/lvgl/lvgl/src/misc/lv_txt.h ****  **********************/
  71:Drivers/lvgl/lvgl/src/misc/lv_txt.h **** 
  72:Drivers/lvgl/lvgl/src/misc/lv_txt.h **** /**
  73:Drivers/lvgl/lvgl/src/misc/lv_txt.h ****  * Get size of a text
  74:Drivers/lvgl/lvgl/src/misc/lv_txt.h ****  * @param size_res pointer to a 'point_t' variable to store the result
  75:Drivers/lvgl/lvgl/src/misc/lv_txt.h ****  * @param text pointer to a text
  76:Drivers/lvgl/lvgl/src/misc/lv_txt.h ****  * @param font pointer to font of the text
  77:Drivers/lvgl/lvgl/src/misc/lv_txt.h ****  * @param letter_space letter space of the text
  78:Drivers/lvgl/lvgl/src/misc/lv_txt.h ****  * @param line_space line space of the text
  79:Drivers/lvgl/lvgl/src/misc/lv_txt.h ****  * @param flags settings for the text from ::lv_text_flag_t
  80:Drivers/lvgl/lvgl/src/misc/lv_txt.h ****  * @param max_width max width of the text (break the lines to fit this size). Set COORD_MAX to avoi
  81:Drivers/lvgl/lvgl/src/misc/lv_txt.h ****  * line breaks
  82:Drivers/lvgl/lvgl/src/misc/lv_txt.h ****  */
  83:Drivers/lvgl/lvgl/src/misc/lv_txt.h **** void lv_txt_get_size(lv_point_t * size_res, const char * text, const lv_font_t * font, lv_coord_t l
  84:Drivers/lvgl/lvgl/src/misc/lv_txt.h ****                      lv_coord_t line_space, lv_coord_t max_width, lv_text_flag_t flag);
  85:Drivers/lvgl/lvgl/src/misc/lv_txt.h **** 
  86:Drivers/lvgl/lvgl/src/misc/lv_txt.h **** /**
  87:Drivers/lvgl/lvgl/src/misc/lv_txt.h ****  * Get the next line of text. Check line length and break chars too.
  88:Drivers/lvgl/lvgl/src/misc/lv_txt.h ****  * @param txt a '\0' terminated string
  89:Drivers/lvgl/lvgl/src/misc/lv_txt.h ****  * @param font pointer to a font
  90:Drivers/lvgl/lvgl/src/misc/lv_txt.h ****  * @param letter_space letter space
  91:Drivers/lvgl/lvgl/src/misc/lv_txt.h ****  * @param max_width max width of the text (break the lines to fit this size). Set COORD_MAX to avoi
  92:Drivers/lvgl/lvgl/src/misc/lv_txt.h ****  * line breaks
  93:Drivers/lvgl/lvgl/src/misc/lv_txt.h ****  * @param used_width When used_width != NULL, save the width of this line if
  94:Drivers/lvgl/lvgl/src/misc/lv_txt.h ****  * flag == LV_TEXT_FLAG_NONE, otherwise save -1.
  95:Drivers/lvgl/lvgl/src/misc/lv_txt.h ****  * @param flags settings for the text from 'txt_flag_type' enum
  96:Drivers/lvgl/lvgl/src/misc/lv_txt.h ****  * @return the index of the first char of the new line (in byte index not letter index. With UTF-8
  97:Drivers/lvgl/lvgl/src/misc/lv_txt.h ****  * they are different)
  98:Drivers/lvgl/lvgl/src/misc/lv_txt.h ****  */
  99:Drivers/lvgl/lvgl/src/misc/lv_txt.h **** uint32_t _lv_txt_get_next_line(const char * txt, const lv_font_t * font, lv_coord_t letter_space,
 100:Drivers/lvgl/lvgl/src/misc/lv_txt.h ****                                lv_coord_t max_width, lv_coord_t * used_width, lv_text_flag_t flag);
 101:Drivers/lvgl/lvgl/src/misc/lv_txt.h **** 
 102:Drivers/lvgl/lvgl/src/misc/lv_txt.h **** /**
 103:Drivers/lvgl/lvgl/src/misc/lv_txt.h ****  * Give the length of a text with a given font
 104:Drivers/lvgl/lvgl/src/misc/lv_txt.h ****  * @param txt a '\0' terminate string
 105:Drivers/lvgl/lvgl/src/misc/lv_txt.h ****  * @param length length of 'txt' in byte count and not characters (Á is 1 character but 2 bytes in
 106:Drivers/lvgl/lvgl/src/misc/lv_txt.h ****  * UTF-8)
 107:Drivers/lvgl/lvgl/src/misc/lv_txt.h ****  * @param font pointer to a font
 108:Drivers/lvgl/lvgl/src/misc/lv_txt.h ****  * @param letter_space letter space
 109:Drivers/lvgl/lvgl/src/misc/lv_txt.h ****  * @param flags settings for the text from 'txt_flag_t' enum
 110:Drivers/lvgl/lvgl/src/misc/lv_txt.h ****  * @return length of a char_num long text
ARM GAS  /tmp/ccZ7tG7k.s 			page 39


 111:Drivers/lvgl/lvgl/src/misc/lv_txt.h ****  */
 112:Drivers/lvgl/lvgl/src/misc/lv_txt.h **** lv_coord_t lv_txt_get_width(const char * txt, uint32_t length, const lv_font_t * font, lv_coord_t l
 113:Drivers/lvgl/lvgl/src/misc/lv_txt.h ****                             lv_text_flag_t flag);
 114:Drivers/lvgl/lvgl/src/misc/lv_txt.h **** 
 115:Drivers/lvgl/lvgl/src/misc/lv_txt.h **** /**
 116:Drivers/lvgl/lvgl/src/misc/lv_txt.h ****  * Check next character in a string and decide if the character is part of the command or not
 117:Drivers/lvgl/lvgl/src/misc/lv_txt.h ****  * @param state pointer to a txt_cmd_state_t variable which stores the current state of command
 118:Drivers/lvgl/lvgl/src/misc/lv_txt.h ****  * processing
 119:Drivers/lvgl/lvgl/src/misc/lv_txt.h ****  * @param c the current character
 120:Drivers/lvgl/lvgl/src/misc/lv_txt.h ****  * @return true: the character is part of a command and should not be written,
 121:Drivers/lvgl/lvgl/src/misc/lv_txt.h ****  *         false: the character should be written
 122:Drivers/lvgl/lvgl/src/misc/lv_txt.h ****  */
 123:Drivers/lvgl/lvgl/src/misc/lv_txt.h **** bool _lv_txt_is_cmd(lv_text_cmd_state_t * state, uint32_t c);
 124:Drivers/lvgl/lvgl/src/misc/lv_txt.h **** 
 125:Drivers/lvgl/lvgl/src/misc/lv_txt.h **** /**
 126:Drivers/lvgl/lvgl/src/misc/lv_txt.h ****  * Insert a string into an other
 127:Drivers/lvgl/lvgl/src/misc/lv_txt.h ****  * @param txt_buf the original text (must be big enough for the result text and NULL terminated)
 128:Drivers/lvgl/lvgl/src/misc/lv_txt.h ****  * @param pos position to insert (0: before the original text, 1: after the first char etc.)
 129:Drivers/lvgl/lvgl/src/misc/lv_txt.h ****  * @param ins_txt text to insert, must be '\0' terminated
 130:Drivers/lvgl/lvgl/src/misc/lv_txt.h ****  */
 131:Drivers/lvgl/lvgl/src/misc/lv_txt.h **** void _lv_txt_ins(char * txt_buf, uint32_t pos, const char * ins_txt);
 132:Drivers/lvgl/lvgl/src/misc/lv_txt.h **** 
 133:Drivers/lvgl/lvgl/src/misc/lv_txt.h **** /**
 134:Drivers/lvgl/lvgl/src/misc/lv_txt.h ****  * Delete a part of a string
 135:Drivers/lvgl/lvgl/src/misc/lv_txt.h ****  * @param txt string to modify, must be '\0' terminated and should point to a heap or stack frame, 
 136:Drivers/lvgl/lvgl/src/misc/lv_txt.h ****  * @param pos position where to start the deleting (0: before the first char, 1: after the first
 137:Drivers/lvgl/lvgl/src/misc/lv_txt.h ****  * char etc.)
 138:Drivers/lvgl/lvgl/src/misc/lv_txt.h ****  * @param len number of characters to delete
 139:Drivers/lvgl/lvgl/src/misc/lv_txt.h ****  */
 140:Drivers/lvgl/lvgl/src/misc/lv_txt.h **** void _lv_txt_cut(char * txt, uint32_t pos, uint32_t len);
 141:Drivers/lvgl/lvgl/src/misc/lv_txt.h **** 
 142:Drivers/lvgl/lvgl/src/misc/lv_txt.h **** /**
 143:Drivers/lvgl/lvgl/src/misc/lv_txt.h ****  * return a new formatted text. Memory will be allocated to store the text.
 144:Drivers/lvgl/lvgl/src/misc/lv_txt.h ****  * @param fmt `printf`-like format
 145:Drivers/lvgl/lvgl/src/misc/lv_txt.h ****  * @return pointer to the allocated text string.
 146:Drivers/lvgl/lvgl/src/misc/lv_txt.h ****  */
 147:Drivers/lvgl/lvgl/src/misc/lv_txt.h **** char * _lv_txt_set_text_vfmt(const char * fmt, va_list ap) LV_FORMAT_ATTRIBUTE(1, 0);
 148:Drivers/lvgl/lvgl/src/misc/lv_txt.h **** 
 149:Drivers/lvgl/lvgl/src/misc/lv_txt.h **** /**
 150:Drivers/lvgl/lvgl/src/misc/lv_txt.h ****  * Decode two encoded character from a string.
 151:Drivers/lvgl/lvgl/src/misc/lv_txt.h ****  * @param txt pointer to '\0' terminated string
 152:Drivers/lvgl/lvgl/src/misc/lv_txt.h ****  * @param letter the first decoded Unicode character or 0 on invalid data code
 153:Drivers/lvgl/lvgl/src/misc/lv_txt.h ****  * @param letter_next the second decoded Unicode character or 0 on invalid data code
 154:Drivers/lvgl/lvgl/src/misc/lv_txt.h ****  * @param ofs start index in 'txt' where to start.
 155:Drivers/lvgl/lvgl/src/misc/lv_txt.h ****  *                After the call it will point to the next encoded char in 'txt'.
 156:Drivers/lvgl/lvgl/src/misc/lv_txt.h ****  *                NULL to use txt[0] as index
 157:Drivers/lvgl/lvgl/src/misc/lv_txt.h ****  */
 158:Drivers/lvgl/lvgl/src/misc/lv_txt.h **** void _lv_txt_encoded_letter_next_2(const char * txt, uint32_t * letter, uint32_t * letter_next, uin
 159:Drivers/lvgl/lvgl/src/misc/lv_txt.h **** 
 160:Drivers/lvgl/lvgl/src/misc/lv_txt.h **** /**
 161:Drivers/lvgl/lvgl/src/misc/lv_txt.h ****  * Test if char is break char or not (a text can broken here or not)
 162:Drivers/lvgl/lvgl/src/misc/lv_txt.h ****  * @param letter a letter
 163:Drivers/lvgl/lvgl/src/misc/lv_txt.h ****  * @return false: 'letter' is not break char
 164:Drivers/lvgl/lvgl/src/misc/lv_txt.h ****  */
 165:Drivers/lvgl/lvgl/src/misc/lv_txt.h **** static inline bool _lv_txt_is_break_char(uint32_t letter)
 166:Drivers/lvgl/lvgl/src/misc/lv_txt.h **** {
 167:Drivers/lvgl/lvgl/src/misc/lv_txt.h ****     uint8_t i;
ARM GAS  /tmp/ccZ7tG7k.s 			page 40


 168:Drivers/lvgl/lvgl/src/misc/lv_txt.h ****     bool ret = false;
 169:Drivers/lvgl/lvgl/src/misc/lv_txt.h **** 
 170:Drivers/lvgl/lvgl/src/misc/lv_txt.h ****     /* each chinese character can be break */
 171:Drivers/lvgl/lvgl/src/misc/lv_txt.h ****     if(letter >= 0x4E00 && letter <= 0x9FA5) {
 172:Drivers/lvgl/lvgl/src/misc/lv_txt.h ****         return true;
 173:Drivers/lvgl/lvgl/src/misc/lv_txt.h ****     }
 174:Drivers/lvgl/lvgl/src/misc/lv_txt.h **** 
 175:Drivers/lvgl/lvgl/src/misc/lv_txt.h ****     /*Compare the letter to TXT_BREAK_CHARS*/
 176:Drivers/lvgl/lvgl/src/misc/lv_txt.h ****     for(i = 0; LV_TXT_BREAK_CHARS[i] != '\0'; i++) {
 177:Drivers/lvgl/lvgl/src/misc/lv_txt.h ****         if(letter == (uint32_t)LV_TXT_BREAK_CHARS[i]) {
 178:Drivers/lvgl/lvgl/src/misc/lv_txt.h ****             ret = true; /*If match then it is break char*/
 1027              		.loc 3 178 0
 1028 0070 0121     		movs	r1, #1
 1029              	.L108:
 1030              	.LVL126:
 1031              	.LBE21:
 1032              	.LBE20:
 222:Drivers/lvgl/lvgl/src/misc/lv_txt.c ****             /*Update the output width on the first character if it fits.
 1033              		.loc 1 222 0
 1034 0072 0029     		cmp	r1, #0
 1035 0074 4BD1     		bne	.L106
 231:Drivers/lvgl/lvgl/src/misc/lv_txt.c **** 
 1036              		.loc 1 231 0
 1037 0076 B8F1FF3F 		cmp	r8, #-1
 1038 007a 14BF     		ite	ne
 1039 007c 0023     		movne	r3, #0
 1040 007e 0123     		moveq	r3, #1
 1041 0080 139A     		ldr	r2, [sp, #76]
 1042 0082 002A     		cmp	r2, #0
 1043 0084 08BF     		it	eq
 1044 0086 0023     		moveq	r3, #0
 1045 0088 03B1     		cbz	r3, .L112
 231:Drivers/lvgl/lvgl/src/misc/lv_txt.c **** 
 1046              		.loc 1 231 0 is_stmt 0 discriminator 1
 1047 008a 1560     		str	r5, [r2]
 1048              	.L112:
 233:Drivers/lvgl/lvgl/src/misc/lv_txt.c ****         i_next = i_next_next;
 1049              		.loc 1 233 0 is_stmt 1
 1050 008c 079E     		ldr	r6, [sp, #28]
 1051              	.LVL127:
 234:Drivers/lvgl/lvgl/src/misc/lv_txt.c ****         letter = letter_next;
 1052              		.loc 1 234 0
 1053 008e 069B     		ldr	r3, [sp, #24]
 1054 0090 0793     		str	r3, [sp, #28]
 1055              	.LVL128:
 1056              	.L103:
 1057              	.LBB24:
 1058              	.LBB22:
 1059              		.loc 3 178 0
 1060 0092 D146     		mov	r9, r10
 1061 0094 019C     		ldr	r4, [sp, #4]
 1062              	.LVL129:
 1063              	.L101:
 1064              	.LBE22:
 1065              	.LBE24:
 193:Drivers/lvgl/lvgl/src/misc/lv_txt.c ****         letter_next = _lv_txt_encoded_next(txt, &i_next_next);
 1066              		.loc 1 193 0
ARM GAS  /tmp/ccZ7tG7k.s 			page 41


 1067 0096 BB5D     		ldrb	r3, [r7, r6]	@ zero_extendqisi2
 1068 0098 002B     		cmp	r3, #0
 1069 009a 44D0     		beq	.L111
 194:Drivers/lvgl/lvgl/src/misc/lv_txt.c ****         word_len++;
 1070              		.loc 1 194 0
 1071 009c 364B     		ldr	r3, .L128
 1072 009e 1B68     		ldr	r3, [r3]
 1073 00a0 06A9     		add	r1, sp, #24
 1074 00a2 3846     		mov	r0, r7
 1075 00a4 9847     		blx	r3
 1076              	.LVL130:
 1077 00a6 0190     		str	r0, [sp, #4]
 1078              	.LVL131:
 195:Drivers/lvgl/lvgl/src/misc/lv_txt.c **** 
 1079              		.loc 1 195 0
 1080 00a8 09F1010A 		add	r10, r9, #1
 1081              	.LVL132:
 198:Drivers/lvgl/lvgl/src/misc/lv_txt.c ****             if(_lv_txt_is_cmd(cmd_state, letter) != false) {
 1082              		.loc 1 198 0
 1083 00ac 1BF0010F 		tst	fp, #1
 1084 00b0 05D0     		beq	.L102
 199:Drivers/lvgl/lvgl/src/misc/lv_txt.c ****                 i = i_next;
 1085              		.loc 1 199 0
 1086 00b2 2146     		mov	r1, r4
 1087 00b4 1498     		ldr	r0, [sp, #80]
 1088              	.LVL133:
 1089 00b6 FFF7FEFF 		bl	_lv_txt_is_cmd
 1090              	.LVL134:
 1091 00ba 0028     		cmp	r0, #0
 1092 00bc CDD1     		bne	.L125
 1093              	.L102:
 207:Drivers/lvgl/lvgl/src/misc/lv_txt.c ****         cur_w += letter_w;
 1094              		.loc 1 207 0
 1095 00be 019A     		ldr	r2, [sp, #4]
 1096 00c0 2146     		mov	r1, r4
 1097 00c2 0298     		ldr	r0, [sp, #8]
 1098 00c4 FFF7FEFF 		bl	lv_font_get_glyph_width
 1099              	.LVL135:
 1100 00c8 03B2     		sxth	r3, r0
 1101              	.LVL136:
 208:Drivers/lvgl/lvgl/src/misc/lv_txt.c **** 
 1102              		.loc 1 208 0
 1103 00ca 2844     		add	r0, r0, r5
 1104 00cc 80B2     		uxth	r0, r0
 1105 00ce 05B2     		sxth	r5, r0
 1106              	.LVL137:
 210:Drivers/lvgl/lvgl/src/misc/lv_txt.c ****             cur_w += letter_space;
 1107              		.loc 1 210 0
 1108 00d0 002B     		cmp	r3, #0
 1109 00d2 02DD     		ble	.L104
 211:Drivers/lvgl/lvgl/src/misc/lv_txt.c ****         }
 1110              		.loc 1 211 0
 1111 00d4 039B     		ldr	r3, [sp, #12]
 1112              	.LVL138:
 1113 00d6 C518     		adds	r5, r0, r3
 1114              	.LVL139:
 1115 00d8 2DB2     		sxth	r5, r5
ARM GAS  /tmp/ccZ7tG7k.s 			page 42


 1116              	.LVL140:
 1117              	.L104:
 215:Drivers/lvgl/lvgl/src/misc/lv_txt.c ****             break_index = i;
 1118              		.loc 1 215 0
 1119 00da B8F1FF3F 		cmp	r8, #-1
 1120 00de C0D0     		beq	.L126
 1121              	.LVL141:
 1122              	.L105:
 222:Drivers/lvgl/lvgl/src/misc/lv_txt.c ****             /*Update the output width on the first character if it fits.
 1123              		.loc 1 222 0
 1124 00e0 0D2C     		cmp	r4, #13
 1125 00e2 18BF     		it	ne
 1126 00e4 0A2C     		cmpne	r4, #10
 1127 00e6 0CBF     		ite	eq
 1128 00e8 0121     		moveq	r1, #1
 1129 00ea 0021     		movne	r1, #0
 1130 00ec 0FD0     		beq	.L106
 1131              	.LVL142:
 1132              	.LBB25:
 1133              	.LBB23:
 171:Drivers/lvgl/lvgl/src/misc/lv_txt.h ****         return true;
 1134              		.loc 3 171 0
 1135 00ee A4F59C42 		sub	r2, r4, #19968
 1136 00f2 45F2A513 		movw	r3, #20901
 1137 00f6 9A42     		cmp	r2, r3
 1138 00f8 09D9     		bls	.L106
 176:Drivers/lvgl/lvgl/src/misc/lv_txt.h ****         if(letter == (uint32_t)LV_TXT_BREAK_CHARS[i]) {
 1139              		.loc 3 176 0
 1140 00fa 0023     		movs	r3, #0
 1141              	.L107:
 1142              	.LVL143:
 1143 00fc 1F4A     		ldr	r2, .L128+4
 1144 00fe D25C     		ldrb	r2, [r2, r3]	@ zero_extendqisi2
 1145 0100 002A     		cmp	r2, #0
 1146 0102 B6D0     		beq	.L108
 177:Drivers/lvgl/lvgl/src/misc/lv_txt.h ****             ret = true; /*If match then it is break char*/
 1147              		.loc 3 177 0
 1148 0104 9442     		cmp	r4, r2
 1149 0106 B3D0     		beq	.L121
 176:Drivers/lvgl/lvgl/src/misc/lv_txt.h ****         if(letter == (uint32_t)LV_TXT_BREAK_CHARS[i]) {
 1150              		.loc 3 176 0
 1151 0108 0133     		adds	r3, r3, #1
 1152              	.LVL144:
 1153 010a DBB2     		uxtb	r3, r3
 1154              	.LVL145:
 1155 010c F6E7     		b	.L107
 1156              	.LVL146:
 1157              	.L106:
 1158              	.LBE23:
 1159              	.LBE25:
 225:Drivers/lvgl/lvgl/src/misc/lv_txt.c ****             word_len--;
 1160              		.loc 1 225 0
 1161 010e B8F1FF3F 		cmp	r8, #-1
 1162 0112 14BF     		ite	ne
 1163 0114 0023     		movne	r3, #0
 1164 0116 0123     		moveq	r3, #1
 1165 0118 002E     		cmp	r6, #0
ARM GAS  /tmp/ccZ7tG7k.s 			page 43


 1166 011a 18BF     		it	ne
 1167 011c 0023     		movne	r3, #0
 1168 011e 13B1     		cbz	r3, .L111
 225:Drivers/lvgl/lvgl/src/misc/lv_txt.c ****             word_len--;
 1169              		.loc 1 225 0 is_stmt 0 discriminator 1
 1170 0120 139B     		ldr	r3, [sp, #76]
 1171 0122 03B1     		cbz	r3, .L111
 225:Drivers/lvgl/lvgl/src/misc/lv_txt.c ****             word_len--;
 1172              		.loc 1 225 0 discriminator 2
 1173 0124 1D60     		str	r5, [r3]
 1174              	.LVL147:
 1175              	.L111:
 239:Drivers/lvgl/lvgl/src/misc/lv_txt.c ****         if(word_len == 0 || (letter == '\r' && letter_next == '\n')) i = i_next;
 1176              		.loc 1 239 0 is_stmt 1
 1177 0126 B8F1FF3F 		cmp	r8, #-1
 1178 012a 08D0     		beq	.L127
 272:Drivers/lvgl/lvgl/src/misc/lv_txt.c ****     if(word_w_ptr != NULL) *word_w_ptr = 0; /*Return no word*/
 1179              		.loc 1 272 0
 1180 012c 059B     		ldr	r3, [sp, #20]
 1181 012e B3B9     		cbnz	r3, .L98
 273:Drivers/lvgl/lvgl/src/misc/lv_txt.c ****     (void) break_letter_count;
 1182              		.loc 1 273 0
 1183 0130 139B     		ldr	r3, [sp, #76]
 1184 0132 EBB1     		cbz	r3, .L123
 273:Drivers/lvgl/lvgl/src/misc/lv_txt.c ****     (void) break_letter_count;
 1185              		.loc 1 273 0 is_stmt 0 discriminator 1
 1186 0134 0023     		movs	r3, #0
 1187 0136 139A     		ldr	r2, [sp, #76]
 1188 0138 1360     		str	r3, [r2]
 275:Drivers/lvgl/lvgl/src/misc/lv_txt.c **** #endif
 1189              		.loc 1 275 0 is_stmt 1 discriminator 1
 1190 013a 9846     		mov	r8, r3
 1191              	.LVL148:
 1192 013c 0FE0     		b	.L98
 1193              	.LVL149:
 1194              	.L127:
 240:Drivers/lvgl/lvgl/src/misc/lv_txt.c ****         return i;
 1195              		.loc 1 240 0
 1196 013e B9F1000F 		cmp	r9, #0
 1197 0142 04D0     		beq	.L115
 240:Drivers/lvgl/lvgl/src/misc/lv_txt.c ****         return i;
 1198              		.loc 1 240 0 is_stmt 0 discriminator 2
 1199 0144 019B     		ldr	r3, [sp, #4]
 1200 0146 0D2C     		cmp	r4, #13
 1201 0148 08BF     		it	eq
 1202 014a 0A2B     		cmpeq	r3, #10
 1203 014c 0ED1     		bne	.L122
 1204              	.L115:
 240:Drivers/lvgl/lvgl/src/misc/lv_txt.c ****         return i;
 1205              		.loc 1 240 0 discriminator 3
 1206 014e DDF81C80 		ldr	r8, [sp, #28]
 1207              	.LVL150:
 1208 0152 04E0     		b	.L98
 1209              	.LVL151:
 1210              	.L116:
 175:Drivers/lvgl/lvgl/src/misc/lv_txt.c ****     if(font == NULL) return 0;
 1211              		.loc 1 175 0 is_stmt 1
ARM GAS  /tmp/ccZ7tG7k.s 			page 44


 1212 0154 4FF00008 		mov	r8, #0
 1213 0158 01E0     		b	.L98
 1214              	.L117:
 1215 015a 4FF00008 		mov	r8, #0
 1216              	.LVL152:
 1217              	.L98:
 277:Drivers/lvgl/lvgl/src/misc/lv_txt.c **** 
 1218              		.loc 1 277 0
 1219 015e 4046     		mov	r0, r8
 1220 0160 09B0     		add	sp, sp, #36
 1221              	.LCFI23:
 1222              		.cfi_remember_state
 1223              		.cfi_def_cfa_offset 36
 1224              		@ sp needed
 1225 0162 BDE8F08F 		pop	{r4, r5, r6, r7, r8, r9, r10, fp, pc}
 1226              	.LVL153:
 1227              	.L118:
 1228              	.LCFI24:
 1229              		.cfi_restore_state
 176:Drivers/lvgl/lvgl/src/misc/lv_txt.c **** 
 1230              		.loc 1 176 0
 1231 0166 4FF00008 		mov	r8, #0
 1232 016a F8E7     		b	.L98
 1233              	.LVL154:
 1234              	.L122:
 1235 016c B046     		mov	r8, r6
 1236              	.LVL155:
 1237 016e F6E7     		b	.L98
 1238              	.LVL156:
 1239              	.L123:
 275:Drivers/lvgl/lvgl/src/misc/lv_txt.c **** #endif
 1240              		.loc 1 275 0
 1241 0170 4FF00008 		mov	r8, #0
 1242              	.LVL157:
 1243 0174 F3E7     		b	.L98
 1244              	.L129:
 1245 0176 00BF     		.align	2
 1246              	.L128:
 1247 0178 00000000 		.word	.LANCHOR1
 1248 017c 00000000 		.word	.LC0
 1249              		.cfi_endproc
 1250              	.LFE56:
 1252              		.section	.text._lv_txt_get_next_line,"ax",%progbits
 1253              		.align	1
 1254              		.global	_lv_txt_get_next_line
 1255              		.syntax unified
 1256              		.thumb
 1257              		.thumb_func
 1258              		.fpu fpv5-d16
 1260              	_lv_txt_get_next_line:
 1261              	.LFB57:
 282:Drivers/lvgl/lvgl/src/misc/lv_txt.c ****     if(used_width) *used_width = 0;
 1262              		.loc 1 282 0
 1263              		.cfi_startproc
 1264              		@ args = 8, pretend = 0, frame = 16
 1265              		@ frame_needed = 0, uses_anonymous_args = 0
 1266              	.LVL158:
ARM GAS  /tmp/ccZ7tG7k.s 			page 45


 1267 0000 2DE9F047 		push	{r4, r5, r6, r7, r8, r9, r10, lr}
 1268              	.LCFI25:
 1269              		.cfi_def_cfa_offset 32
 1270              		.cfi_offset 4, -32
 1271              		.cfi_offset 5, -28
 1272              		.cfi_offset 6, -24
 1273              		.cfi_offset 7, -20
 1274              		.cfi_offset 8, -16
 1275              		.cfi_offset 9, -12
 1276              		.cfi_offset 10, -8
 1277              		.cfi_offset 14, -4
 1278 0004 88B0     		sub	sp, sp, #32
 1279              	.LCFI26:
 1280              		.cfi_def_cfa_offset 64
 1281 0006 0446     		mov	r4, r0
 1282 0008 8846     		mov	r8, r1
 1283 000a 9246     		mov	r10, r2
 1284 000c 1D46     		mov	r5, r3
 1285 000e 109E     		ldr	r6, [sp, #64]
 1286 0010 9DF84490 		ldrb	r9, [sp, #68]	@ zero_extendqisi2
 283:Drivers/lvgl/lvgl/src/misc/lv_txt.c **** 
 1287              		.loc 1 283 0
 1288 0014 0EB1     		cbz	r6, .L131
 283:Drivers/lvgl/lvgl/src/misc/lv_txt.c **** 
 1289              		.loc 1 283 0 is_stmt 0 discriminator 1
 1290 0016 0023     		movs	r3, #0
 1291              	.LVL159:
 1292 0018 3380     		strh	r3, [r6]	@ movhi
 1293              	.L131:
 285:Drivers/lvgl/lvgl/src/misc/lv_txt.c ****     if(txt[0] == '\0') return 0;
 1294              		.loc 1 285 0 is_stmt 1
 1295 001a 002C     		cmp	r4, #0
 1296 001c 63D0     		beq	.L146
 286:Drivers/lvgl/lvgl/src/misc/lv_txt.c ****     if(font == NULL) return 0;
 1297              		.loc 1 286 0
 1298 001e 2378     		ldrb	r3, [r4]	@ zero_extendqisi2
 1299 0020 002B     		cmp	r3, #0
 1300 0022 62D0     		beq	.L147
 287:Drivers/lvgl/lvgl/src/misc/lv_txt.c **** 
 1301              		.loc 1 287 0
 1302 0024 B8F1000F 		cmp	r8, #0
 1303 0028 63D0     		beq	.L148
 1304              	.LVL160:
 293:Drivers/lvgl/lvgl/src/misc/lv_txt.c ****         uint32_t i;
 1305              		.loc 1 293 0
 1306 002a 19F0060F 		tst	r9, #6
 1307 002e 58D1     		bne	.L149
 303:Drivers/lvgl/lvgl/src/misc/lv_txt.c ****     lv_text_cmd_state_t cmd_state = LV_TEXT_CMD_STATE_WAIT;
 1308              		.loc 1 303 0
 1309 0030 19F0020F 		tst	r9, #2
 1310 0034 01D0     		beq	.L138
 1311 0036 41F6FF75 		movw	r5, #8191
 1312              	.L138:
 1313              	.LVL161:
 304:Drivers/lvgl/lvgl/src/misc/lv_txt.c ****     uint32_t i = 0;                                        /*Iterating index into txt*/
 1314              		.loc 1 304 0
 1315 003a 0027     		movs	r7, #0
ARM GAS  /tmp/ccZ7tG7k.s 			page 46


 1316 003c 8DF81F70 		strb	r7, [sp, #31]
 305:Drivers/lvgl/lvgl/src/misc/lv_txt.c **** 
 1317              		.loc 1 305 0
 1318 0040 0697     		str	r7, [sp, #24]
 1319              	.LVL162:
 1320              	.L139:
 307:Drivers/lvgl/lvgl/src/misc/lv_txt.c ****         uint32_t word_w = 0;
 1321              		.loc 1 307 0
 1322 0042 069B     		ldr	r3, [sp, #24]
 1323 0044 E018     		adds	r0, r4, r3
 1324 0046 E25C     		ldrb	r2, [r4, r3]	@ zero_extendqisi2
 1325 0048 52B3     		cbz	r2, .L142
 307:Drivers/lvgl/lvgl/src/misc/lv_txt.c ****         uint32_t word_w = 0;
 1326              		.loc 1 307 0 is_stmt 0 discriminator 1
 1327 004a 002D     		cmp	r5, #0
 1328 004c 28DD     		ble	.L142
 1329              	.LBB26:
 308:Drivers/lvgl/lvgl/src/misc/lv_txt.c ****         uint32_t advance = lv_txt_get_next_word(&txt[i], font, letter_space, max_width, flag, &word
 1330              		.loc 1 308 0 is_stmt 1
 1331 004e 0022     		movs	r2, #0
 1332 0050 0592     		str	r2, [sp, #20]
 309:Drivers/lvgl/lvgl/src/misc/lv_txt.c ****         max_width -= word_w;
 1333              		.loc 1 309 0
 1334 0052 B3FA83F3 		clz	r3, r3
 1335 0056 5B09     		lsrs	r3, r3, #5
 1336 0058 0393     		str	r3, [sp, #12]
 1337 005a 0DF11F03 		add	r3, sp, #31
 1338 005e 0293     		str	r3, [sp, #8]
 1339 0060 05AB     		add	r3, sp, #20
 1340 0062 0193     		str	r3, [sp, #4]
 1341 0064 CDF80090 		str	r9, [sp]
 1342 0068 2B46     		mov	r3, r5
 1343 006a 5246     		mov	r2, r10
 1344 006c 4146     		mov	r1, r8
 1345 006e FFF7FEFF 		bl	lv_txt_get_next_word
 1346              	.LVL163:
 310:Drivers/lvgl/lvgl/src/misc/lv_txt.c ****         line_w += word_w;
 1347              		.loc 1 310 0
 1348 0072 BDF81430 		ldrh	r3, [sp, #20]
 1349 0076 ED1A     		subs	r5, r5, r3
 1350              	.LVL164:
 1351 0078 2DB2     		sxth	r5, r5
 1352              	.LVL165:
 311:Drivers/lvgl/lvgl/src/misc/lv_txt.c **** 
 1353              		.loc 1 311 0
 1354 007a 1F44     		add	r7, r7, r3
 1355              	.LVL166:
 1356 007c 3FB2     		sxth	r7, r7
 1357              	.LVL167:
 313:Drivers/lvgl/lvgl/src/misc/lv_txt.c ****             break;
 1358              		.loc 1 313 0
 1359 007e 0346     		mov	r3, r0
 1360 0080 70B1     		cbz	r0, .L142
 317:Drivers/lvgl/lvgl/src/misc/lv_txt.c **** 
 1361              		.loc 1 317 0
 1362 0082 0698     		ldr	r0, [sp, #24]
 1363              	.LVL168:
ARM GAS  /tmp/ccZ7tG7k.s 			page 47


 1364 0084 1844     		add	r0, r0, r3
 1365 0086 0690     		str	r0, [sp, #24]
 319:Drivers/lvgl/lvgl/src/misc/lv_txt.c **** 
 1366              		.loc 1 319 0
 1367 0088 2378     		ldrb	r3, [r4]	@ zero_extendqisi2
 1368              	.LVL169:
 1369 008a 0D2B     		cmp	r3, #13
 1370 008c 18BF     		it	ne
 1371 008e 0A2B     		cmpne	r3, #10
 1372 0090 06D0     		beq	.L142
 321:Drivers/lvgl/lvgl/src/misc/lv_txt.c ****             i++;  /*Include the following newline in the current line*/
 1373              		.loc 1 321 0
 1374 0092 235C     		ldrb	r3, [r4, r0]	@ zero_extendqisi2
 1375 0094 0D2B     		cmp	r3, #13
 1376 0096 18BF     		it	ne
 1377 0098 0A2B     		cmpne	r3, #10
 1378 009a D2D1     		bne	.L139
 322:Drivers/lvgl/lvgl/src/misc/lv_txt.c ****             break;
 1379              		.loc 1 322 0
 1380 009c 0130     		adds	r0, r0, #1
 1381 009e 0690     		str	r0, [sp, #24]
 1382              	.L142:
 1383              	.LBE26:
 329:Drivers/lvgl/lvgl/src/misc/lv_txt.c ****         uint32_t letter = _lv_txt_encoded_next(txt, &i);
 1384              		.loc 1 329 0
 1385 00a0 069B     		ldr	r3, [sp, #24]
 1386 00a2 5BB9     		cbnz	r3, .L144
 1387              	.LBB27:
 330:Drivers/lvgl/lvgl/src/misc/lv_txt.c ****         if(used_width != NULL) {
 1388              		.loc 1 330 0
 1389 00a4 144B     		ldr	r3, .L153
 1390 00a6 1B68     		ldr	r3, [r3]
 1391 00a8 06A9     		add	r1, sp, #24
 1392 00aa 2046     		mov	r0, r4
 1393 00ac 9847     		blx	r3
 1394              	.LVL170:
 331:Drivers/lvgl/lvgl/src/misc/lv_txt.c ****             line_w = lv_font_get_glyph_width(font, letter, '\0');
 1395              		.loc 1 331 0
 1396 00ae 2EB1     		cbz	r6, .L144
 332:Drivers/lvgl/lvgl/src/misc/lv_txt.c ****         }
 1397              		.loc 1 332 0
 1398 00b0 0022     		movs	r2, #0
 1399 00b2 0146     		mov	r1, r0
 1400 00b4 4046     		mov	r0, r8
 1401              	.LVL171:
 1402 00b6 FFF7FEFF 		bl	lv_font_get_glyph_width
 1403              	.LVL172:
 1404 00ba 07B2     		sxth	r7, r0
 1405              	.LVL173:
 1406              	.L144:
 1407              	.LBE27:
 336:Drivers/lvgl/lvgl/src/misc/lv_txt.c ****         *used_width = line_w;
 1408              		.loc 1 336 0
 1409 00bc 06B1     		cbz	r6, .L145
 337:Drivers/lvgl/lvgl/src/misc/lv_txt.c ****     }
 1410              		.loc 1 337 0
 1411 00be 3780     		strh	r7, [r6]	@ movhi
ARM GAS  /tmp/ccZ7tG7k.s 			page 48


 1412              	.L145:
 340:Drivers/lvgl/lvgl/src/misc/lv_txt.c **** }
 1413              		.loc 1 340 0
 1414 00c0 0698     		ldr	r0, [sp, #24]
 1415 00c2 13E0     		b	.L130
 1416              	.LVL174:
 1417              	.L136:
 1418              	.LBB28:
 295:Drivers/lvgl/lvgl/src/misc/lv_txt.c ****             /*Just find the new line chars or string ends by incrementing `i`*/
 1419              		.loc 1 295 0 discriminator 4
 1420 00c4 0130     		adds	r0, r0, #1
 1421              	.LVL175:
 1422              	.L133:
 295:Drivers/lvgl/lvgl/src/misc/lv_txt.c ****             /*Just find the new line chars or string ends by incrementing `i`*/
 1423              		.loc 1 295 0 is_stmt 0 discriminator 1
 1424 00c6 235C     		ldrb	r3, [r4, r0]	@ zero_extendqisi2
 1425 00c8 0A2B     		cmp	r3, #10
 1426 00ca 18BF     		it	ne
 1427 00cc 0D2B     		cmpne	r3, #13
 1428 00ce 01D0     		beq	.L135
 295:Drivers/lvgl/lvgl/src/misc/lv_txt.c ****             /*Just find the new line chars or string ends by incrementing `i`*/
 1429              		.loc 1 295 0 discriminator 3
 1430 00d0 002B     		cmp	r3, #0
 1431 00d2 F7D1     		bne	.L136
 1432              	.L135:
 298:Drivers/lvgl/lvgl/src/misc/lv_txt.c ****         if(used_width) *used_width = -1;
 1433              		.loc 1 298 0 is_stmt 1
 1434 00d4 03B1     		cbz	r3, .L137
 298:Drivers/lvgl/lvgl/src/misc/lv_txt.c ****         if(used_width) *used_width = -1;
 1435              		.loc 1 298 0 is_stmt 0 discriminator 1
 1436 00d6 0130     		adds	r0, r0, #1
 1437              	.LVL176:
 1438              	.L137:
 299:Drivers/lvgl/lvgl/src/misc/lv_txt.c ****         return i;
 1439              		.loc 1 299 0 is_stmt 1
 1440 00d8 46B1     		cbz	r6, .L130
 299:Drivers/lvgl/lvgl/src/misc/lv_txt.c ****         return i;
 1441              		.loc 1 299 0 is_stmt 0 discriminator 1
 1442 00da 4FF6FF73 		movw	r3, #65535
 1443 00de 3380     		strh	r3, [r6]	@ movhi
 1444 00e0 04E0     		b	.L130
 1445              	.LVL177:
 1446              	.L149:
 295:Drivers/lvgl/lvgl/src/misc/lv_txt.c ****             /*Just find the new line chars or string ends by incrementing `i`*/
 1447              		.loc 1 295 0 is_stmt 1
 1448 00e2 0020     		movs	r0, #0
 1449              	.LVL178:
 1450 00e4 EFE7     		b	.L133
 1451              	.LVL179:
 1452              	.L146:
 1453              	.LBE28:
 285:Drivers/lvgl/lvgl/src/misc/lv_txt.c ****     if(txt[0] == '\0') return 0;
 1454              		.loc 1 285 0
 1455 00e6 0020     		movs	r0, #0
 1456              	.LVL180:
 1457 00e8 00E0     		b	.L130
 1458              	.LVL181:
ARM GAS  /tmp/ccZ7tG7k.s 			page 49


 1459              	.L147:
 286:Drivers/lvgl/lvgl/src/misc/lv_txt.c ****     if(font == NULL) return 0;
 1460              		.loc 1 286 0
 1461 00ea 0020     		movs	r0, #0
 1462              	.LVL182:
 1463              	.L130:
 341:Drivers/lvgl/lvgl/src/misc/lv_txt.c **** 
 1464              		.loc 1 341 0
 1465 00ec 08B0     		add	sp, sp, #32
 1466              	.LCFI27:
 1467              		.cfi_remember_state
 1468              		.cfi_def_cfa_offset 32
 1469              		@ sp needed
 1470 00ee BDE8F087 		pop	{r4, r5, r6, r7, r8, r9, r10, pc}
 1471              	.LVL183:
 1472              	.L148:
 1473              	.LCFI28:
 1474              		.cfi_restore_state
 287:Drivers/lvgl/lvgl/src/misc/lv_txt.c **** 
 1475              		.loc 1 287 0
 1476 00f2 0020     		movs	r0, #0
 1477              	.LVL184:
 1478 00f4 FAE7     		b	.L130
 1479              	.L154:
 1480 00f6 00BF     		.align	2
 1481              	.L153:
 1482 00f8 00000000 		.word	.LANCHOR1
 1483              		.cfi_endproc
 1484              	.LFE57:
 1486              		.section	.text._lv_txt_ins,"ax",%progbits
 1487              		.align	1
 1488              		.global	_lv_txt_ins
 1489              		.syntax unified
 1490              		.thumb
 1491              		.thumb_func
 1492              		.fpu fpv5-d16
 1494              	_lv_txt_ins:
 1495              	.LFB60:
 414:Drivers/lvgl/lvgl/src/misc/lv_txt.c ****     if(txt_buf == NULL || ins_txt == NULL) return;
 1496              		.loc 1 414 0
 1497              		.cfi_startproc
 1498              		@ args = 0, pretend = 0, frame = 0
 1499              		@ frame_needed = 0, uses_anonymous_args = 0
 1500              	.LVL185:
 1501 0000 2DE9F041 		push	{r4, r5, r6, r7, r8, lr}
 1502              	.LCFI29:
 1503              		.cfi_def_cfa_offset 24
 1504              		.cfi_offset 4, -24
 1505              		.cfi_offset 5, -20
 1506              		.cfi_offset 6, -16
 1507              		.cfi_offset 7, -12
 1508              		.cfi_offset 8, -8
 1509              		.cfi_offset 14, -4
 415:Drivers/lvgl/lvgl/src/misc/lv_txt.c **** 
 1510              		.loc 1 415 0
 1511 0004 1746     		mov	r7, r2
 1512 0006 B2FA82F2 		clz	r2, r2
ARM GAS  /tmp/ccZ7tG7k.s 			page 50


 1513              	.LVL186:
 1514 000a 5209     		lsrs	r2, r2, #5
 1515 000c 0028     		cmp	r0, #0
 1516 000e 08BF     		it	eq
 1517 0010 0122     		moveq	r2, #1
 1518 0012 02BB     		cbnz	r2, .L155
 1519 0014 8846     		mov	r8, r1
 1520 0016 0646     		mov	r6, r0
 417:Drivers/lvgl/lvgl/src/misc/lv_txt.c ****     size_t ins_len = strlen(ins_txt);
 1521              		.loc 1 417 0
 1522 0018 FFF7FEFF 		bl	strlen
 1523              	.LVL187:
 1524 001c 0546     		mov	r5, r0
 1525              	.LVL188:
 418:Drivers/lvgl/lvgl/src/misc/lv_txt.c ****     if(ins_len == 0) return;
 1526              		.loc 1 418 0
 1527 001e 3846     		mov	r0, r7
 1528              	.LVL189:
 1529 0020 FFF7FEFF 		bl	strlen
 1530              	.LVL190:
 419:Drivers/lvgl/lvgl/src/misc/lv_txt.c **** 
 1531              		.loc 1 419 0
 1532 0024 0446     		mov	r4, r0
 1533 0026 B0B1     		cbz	r0, .L155
 421:Drivers/lvgl/lvgl/src/misc/lv_txt.c ****     pos              = _lv_txt_encoded_get_byte_id(txt_buf, pos); /*Convert to byte index instead o
 1534              		.loc 1 421 0
 1535 0028 0544     		add	r5, r5, r0
 1536              	.LVL191:
 422:Drivers/lvgl/lvgl/src/misc/lv_txt.c **** 
 1537              		.loc 1 422 0
 1538 002a 0C4B     		ldr	r3, .L162
 1539 002c 1B68     		ldr	r3, [r3]
 1540 002e 4146     		mov	r1, r8
 1541 0030 3046     		mov	r0, r6
 1542              	.LVL192:
 1543 0032 9847     		blx	r3
 1544              	.LVL193:
 426:Drivers/lvgl/lvgl/src/misc/lv_txt.c ****         txt_buf[i] = txt_buf[i - ins_len];
 1545              		.loc 1 426 0
 1546 0034 03E0     		b	.L157
 1547              	.LVL194:
 1548              	.L158:
 427:Drivers/lvgl/lvgl/src/misc/lv_txt.c ****     }
 1549              		.loc 1 427 0 discriminator 3
 1550 0036 2B1B     		subs	r3, r5, r4
 1551 0038 F35C     		ldrb	r3, [r6, r3]	@ zero_extendqisi2
 1552 003a 7355     		strb	r3, [r6, r5]
 426:Drivers/lvgl/lvgl/src/misc/lv_txt.c ****         txt_buf[i] = txt_buf[i - ins_len];
 1553              		.loc 1 426 0 discriminator 3
 1554 003c 013D     		subs	r5, r5, #1
 1555              	.LVL195:
 1556              	.L157:
 426:Drivers/lvgl/lvgl/src/misc/lv_txt.c ****         txt_buf[i] = txt_buf[i - ins_len];
 1557              		.loc 1 426 0 is_stmt 0 discriminator 1
 1558 003e 2318     		adds	r3, r4, r0
 1559 0040 AB42     		cmp	r3, r5
 1560 0042 F8D9     		bls	.L158
ARM GAS  /tmp/ccZ7tG7k.s 			page 51


 431:Drivers/lvgl/lvgl/src/misc/lv_txt.c **** }
 1561              		.loc 1 431 0 is_stmt 1
 1562 0044 0644     		add	r6, r6, r0
 1563              	.LVL196:
 1564 0046 04E0     		b	.L159
 1565              	.LVL197:
 1566              	.L160:
 1567              	.LBB29:
 1568              	.LBB30:
 200:Drivers/lvgl/lvgl/src/misc/../draw/../misc/lv_mem.h ****         d8++;
 1569              		.loc 2 200 0
 1570 0048 17F8013B 		ldrb	r3, [r7], #1	@ zero_extendqisi2
 1571              	.LVL198:
 1572 004c 06F8013B 		strb	r3, [r6], #1
 1573              	.LVL199:
 1574              		.loc 2 203 0
 1575 0050 013C     		subs	r4, r4, #1
 1576              	.LVL200:
 1577              	.L159:
 199:Drivers/lvgl/lvgl/src/misc/../draw/../misc/lv_mem.h ****         *d8 = *s8;
 1578              		.loc 2 199 0
 1579 0052 002C     		cmp	r4, #0
 1580 0054 F8D1     		bne	.L160
 1581              	.LVL201:
 1582              	.L155:
 1583              	.LBE30:
 1584              	.LBE29:
 432:Drivers/lvgl/lvgl/src/misc/lv_txt.c **** 
 1585              		.loc 1 432 0
 1586 0056 BDE8F081 		pop	{r4, r5, r6, r7, r8, pc}
 1587              	.L163:
 1588 005a 00BF     		.align	2
 1589              	.L162:
 1590 005c 00000000 		.word	.LANCHOR2
 1591              		.cfi_endproc
 1592              	.LFE60:
 1594              		.section	.text._lv_txt_cut,"ax",%progbits
 1595              		.align	1
 1596              		.global	_lv_txt_cut
 1597              		.syntax unified
 1598              		.thumb
 1599              		.thumb_func
 1600              		.fpu fpv5-d16
 1602              	_lv_txt_cut:
 1603              	.LFB61:
 435:Drivers/lvgl/lvgl/src/misc/lv_txt.c ****     if(txt == NULL) return;
 1604              		.loc 1 435 0
 1605              		.cfi_startproc
 1606              		@ args = 0, pretend = 0, frame = 0
 1607              		@ frame_needed = 0, uses_anonymous_args = 0
 1608              	.LVL202:
 436:Drivers/lvgl/lvgl/src/misc/lv_txt.c **** 
 1609              		.loc 1 436 0
 1610 0000 D8B1     		cbz	r0, .L169
 435:Drivers/lvgl/lvgl/src/misc/lv_txt.c ****     if(txt == NULL) return;
 1611              		.loc 1 435 0
 1612 0002 2DE9F041 		push	{r4, r5, r6, r7, r8, lr}
ARM GAS  /tmp/ccZ7tG7k.s 			page 52


 1613              	.LCFI30:
 1614              		.cfi_def_cfa_offset 24
 1615              		.cfi_offset 4, -24
 1616              		.cfi_offset 5, -20
 1617              		.cfi_offset 6, -16
 1618              		.cfi_offset 7, -12
 1619              		.cfi_offset 8, -8
 1620              		.cfi_offset 14, -4
 1621 0006 0546     		mov	r5, r0
 1622 0008 9046     		mov	r8, r2
 1623 000a 0C46     		mov	r4, r1
 438:Drivers/lvgl/lvgl/src/misc/lv_txt.c **** 
 1624              		.loc 1 438 0
 1625 000c FFF7FEFF 		bl	strlen
 1626              	.LVL203:
 1627 0010 0646     		mov	r6, r0
 1628              	.LVL204:
 440:Drivers/lvgl/lvgl/src/misc/lv_txt.c ****     len = _lv_txt_encoded_get_byte_id(&txt[pos], len);
 1629              		.loc 1 440 0
 1630 0012 0A4F     		ldr	r7, .L172
 1631 0014 3B68     		ldr	r3, [r7]
 1632 0016 2146     		mov	r1, r4
 1633 0018 2846     		mov	r0, r5
 1634              	.LVL205:
 1635 001a 9847     		blx	r3
 1636              	.LVL206:
 1637 001c 0446     		mov	r4, r0
 1638              	.LVL207:
 441:Drivers/lvgl/lvgl/src/misc/lv_txt.c **** 
 1639              		.loc 1 441 0
 1640 001e 3B68     		ldr	r3, [r7]
 1641 0020 4146     		mov	r1, r8
 1642 0022 2818     		adds	r0, r5, r0
 1643              	.LVL208:
 1644 0024 9847     		blx	r3
 1645              	.LVL209:
 445:Drivers/lvgl/lvgl/src/misc/lv_txt.c ****         txt[i] = txt[i + len];
 1646              		.loc 1 445 0
 1647 0026 03E0     		b	.L166
 1648              	.LVL210:
 1649              	.L167:
 446:Drivers/lvgl/lvgl/src/misc/lv_txt.c ****     }
 1650              		.loc 1 446 0 discriminator 3
 1651 0028 2318     		adds	r3, r4, r0
 1652 002a EB5C     		ldrb	r3, [r5, r3]	@ zero_extendqisi2
 1653 002c 2B55     		strb	r3, [r5, r4]
 445:Drivers/lvgl/lvgl/src/misc/lv_txt.c ****         txt[i] = txt[i + len];
 1654              		.loc 1 445 0 discriminator 3
 1655 002e 0134     		adds	r4, r4, #1
 1656              	.LVL211:
 1657              	.L166:
 445:Drivers/lvgl/lvgl/src/misc/lv_txt.c ****         txt[i] = txt[i + len];
 1658              		.loc 1 445 0 is_stmt 0 discriminator 1
 1659 0030 331A     		subs	r3, r6, r0
 1660 0032 A342     		cmp	r3, r4
 1661 0034 F8D2     		bcs	.L167
 448:Drivers/lvgl/lvgl/src/misc/lv_txt.c **** 
ARM GAS  /tmp/ccZ7tG7k.s 			page 53


 1662              		.loc 1 448 0 is_stmt 1
 1663 0036 BDE8F081 		pop	{r4, r5, r6, r7, r8, pc}
 1664              	.LVL212:
 1665              	.L169:
 1666              	.LCFI31:
 1667              		.cfi_def_cfa_offset 0
 1668              		.cfi_restore 4
 1669              		.cfi_restore 5
 1670              		.cfi_restore 6
 1671              		.cfi_restore 7
 1672              		.cfi_restore 8
 1673              		.cfi_restore 14
 1674 003a 7047     		bx	lr
 1675              	.L173:
 1676              		.align	2
 1677              	.L172:
 1678 003c 00000000 		.word	.LANCHOR2
 1679              		.cfi_endproc
 1680              	.LFE61:
 1682              		.section	.text._lv_txt_set_text_vfmt,"ax",%progbits
 1683              		.align	1
 1684              		.global	_lv_txt_set_text_vfmt
 1685              		.syntax unified
 1686              		.thumb
 1687              		.thumb_func
 1688              		.fpu fpv5-d16
 1690              	_lv_txt_set_text_vfmt:
 1691              	.LFB62:
 451:Drivers/lvgl/lvgl/src/misc/lv_txt.c ****     /*Allocate space for the new text by using trick from C99 standard section 7.19.6.12*/
 1692              		.loc 1 451 0
 1693              		.cfi_startproc
 1694              		@ args = 0, pretend = 0, frame = 8
 1695              		@ frame_needed = 0, uses_anonymous_args = 0
 1696              	.LVL213:
 1697 0000 2DE9F041 		push	{r4, r5, r6, r7, r8, lr}
 1698              	.LCFI32:
 1699              		.cfi_def_cfa_offset 24
 1700              		.cfi_offset 4, -24
 1701              		.cfi_offset 5, -20
 1702              		.cfi_offset 6, -16
 1703              		.cfi_offset 7, -12
 1704              		.cfi_offset 8, -8
 1705              		.cfi_offset 14, -4
 1706 0004 82B0     		sub	sp, sp, #8
 1707              	.LCFI33:
 1708              		.cfi_def_cfa_offset 32
 1709 0006 0746     		mov	r7, r0
 1710 0008 0D46     		mov	r5, r1
 454:Drivers/lvgl/lvgl/src/misc/lv_txt.c ****     uint32_t len = lv_vsnprintf(NULL, 0, fmt, ap_copy);
 1711              		.loc 1 454 0
 1712 000a 0191     		str	r1, [sp, #4]
 455:Drivers/lvgl/lvgl/src/misc/lv_txt.c ****     va_end(ap_copy);
 1713              		.loc 1 455 0
 1714 000c 0B46     		mov	r3, r1
 1715 000e 0246     		mov	r2, r0
 1716 0010 0021     		movs	r1, #0
 1717              	.LVL214:
ARM GAS  /tmp/ccZ7tG7k.s 			page 54


 1718 0012 0846     		mov	r0, r1
 1719              	.LVL215:
 1720 0014 FFF7FEFF 		bl	lv_vsnprintf
 1721              	.LVL216:
 1722 0018 8046     		mov	r8, r0
 1723              	.LVL217:
 480:Drivers/lvgl/lvgl/src/misc/lv_txt.c ****     LV_ASSERT_MALLOC(text);
 1724              		.loc 1 480 0
 1725 001a 461C     		adds	r6, r0, #1
 1726 001c 3046     		mov	r0, r6
 1727              	.LVL218:
 1728 001e FFF7FEFF 		bl	lv_mem_alloc
 1729              	.LVL219:
 481:Drivers/lvgl/lvgl/src/misc/lv_txt.c ****     if(text == NULL) {
 1730              		.loc 1 481 0
 1731 0022 00B9     		cbnz	r0, .L175
 1732              	.L176:
 1733 0024 FEE7     		b	.L176
 1734              	.L175:
 1735 0026 0446     		mov	r4, r0
 485:Drivers/lvgl/lvgl/src/misc/lv_txt.c **** 
 1736              		.loc 1 485 0
 1737 0028 0023     		movs	r3, #0
 1738 002a 00F80830 		strb	r3, [r0, r8]
 1739              	.LVL220:
 487:Drivers/lvgl/lvgl/src/misc/lv_txt.c **** #endif
 1740              		.loc 1 487 0
 1741 002e 2B46     		mov	r3, r5
 1742 0030 3A46     		mov	r2, r7
 1743 0032 3146     		mov	r1, r6
 1744 0034 FFF7FEFF 		bl	lv_vsnprintf
 1745              	.LVL221:
 491:Drivers/lvgl/lvgl/src/misc/lv_txt.c **** 
 1746              		.loc 1 491 0
 1747 0038 2046     		mov	r0, r4
 1748 003a 02B0     		add	sp, sp, #8
 1749              	.LCFI34:
 1750              		.cfi_def_cfa_offset 24
 1751              		@ sp needed
 1752 003c BDE8F081 		pop	{r4, r5, r6, r7, r8, pc}
 1753              		.cfi_endproc
 1754              	.LFE62:
 1756              		.section	.text._lv_txt_encoded_letter_next_2,"ax",%progbits
 1757              		.align	1
 1758              		.global	_lv_txt_encoded_letter_next_2
 1759              		.syntax unified
 1760              		.thumb
 1761              		.thumb_func
 1762              		.fpu fpv5-d16
 1764              	_lv_txt_encoded_letter_next_2:
 1765              	.LFB63:
 494:Drivers/lvgl/lvgl/src/misc/lv_txt.c ****     *letter = _lv_txt_encoded_next(txt, ofs);
 1766              		.loc 1 494 0
 1767              		.cfi_startproc
 1768              		@ args = 0, pretend = 0, frame = 0
 1769              		@ frame_needed = 0, uses_anonymous_args = 0
 1770              	.LVL222:
ARM GAS  /tmp/ccZ7tG7k.s 			page 55


 1771 0000 F8B5     		push	{r3, r4, r5, r6, r7, lr}
 1772              	.LCFI35:
 1773              		.cfi_def_cfa_offset 24
 1774              		.cfi_offset 3, -24
 1775              		.cfi_offset 4, -20
 1776              		.cfi_offset 5, -16
 1777              		.cfi_offset 6, -12
 1778              		.cfi_offset 7, -8
 1779              		.cfi_offset 14, -4
 1780 0002 0746     		mov	r7, r0
 1781 0004 0E46     		mov	r6, r1
 1782 0006 1546     		mov	r5, r2
 1783 0008 1C46     		mov	r4, r3
 495:Drivers/lvgl/lvgl/src/misc/lv_txt.c ****     *letter_next = *letter != '\0' ? _lv_txt_encoded_next(&txt[*ofs], NULL) : 0;
 1784              		.loc 1 495 0
 1785 000a 084B     		ldr	r3, .L182
 1786              	.LVL223:
 1787 000c 1B68     		ldr	r3, [r3]
 1788 000e 2146     		mov	r1, r4
 1789              	.LVL224:
 1790 0010 9847     		blx	r3
 1791              	.LVL225:
 1792 0012 3060     		str	r0, [r6]
 496:Drivers/lvgl/lvgl/src/misc/lv_txt.c **** }
 1793              		.loc 1 496 0
 1794 0014 38B1     		cbz	r0, .L180
 496:Drivers/lvgl/lvgl/src/misc/lv_txt.c **** }
 1795              		.loc 1 496 0 is_stmt 0 discriminator 1
 1796 0016 054B     		ldr	r3, .L182
 1797 0018 1B68     		ldr	r3, [r3]
 1798 001a 2068     		ldr	r0, [r4]
 1799 001c 0021     		movs	r1, #0
 1800 001e 3844     		add	r0, r0, r7
 1801 0020 9847     		blx	r3
 1802              	.LVL226:
 1803              	.L179:
 496:Drivers/lvgl/lvgl/src/misc/lv_txt.c **** }
 1804              		.loc 1 496 0 discriminator 4
 1805 0022 2860     		str	r0, [r5]
 497:Drivers/lvgl/lvgl/src/misc/lv_txt.c **** 
 1806              		.loc 1 497 0 is_stmt 1 discriminator 4
 1807 0024 F8BD     		pop	{r3, r4, r5, r6, r7, pc}
 1808              	.LVL227:
 1809              	.L180:
 496:Drivers/lvgl/lvgl/src/misc/lv_txt.c **** }
 1810              		.loc 1 496 0
 1811 0026 0020     		movs	r0, #0
 1812 0028 FBE7     		b	.L179
 1813              	.L183:
 1814 002a 00BF     		.align	2
 1815              	.L182:
 1816 002c 00000000 		.word	.LANCHOR1
 1817              		.cfi_endproc
 1818              	.LFE63:
 1820              		.section	.text.lv_txt_get_width,"ax",%progbits
 1821              		.align	1
 1822              		.global	lv_txt_get_width
ARM GAS  /tmp/ccZ7tG7k.s 			page 56


 1823              		.syntax unified
 1824              		.thumb
 1825              		.thumb_func
 1826              		.fpu fpv5-d16
 1828              	lv_txt_get_width:
 1829              	.LFB58:
 345:Drivers/lvgl/lvgl/src/misc/lv_txt.c ****     if(txt == NULL) return 0;
 1830              		.loc 1 345 0
 1831              		.cfi_startproc
 1832              		@ args = 4, pretend = 0, frame = 16
 1833              		@ frame_needed = 0, uses_anonymous_args = 0
 1834              	.LVL228:
 1835 0000 2DE9F043 		push	{r4, r5, r6, r7, r8, r9, lr}
 1836              	.LCFI36:
 1837              		.cfi_def_cfa_offset 28
 1838              		.cfi_offset 4, -28
 1839              		.cfi_offset 5, -24
 1840              		.cfi_offset 6, -20
 1841              		.cfi_offset 7, -16
 1842              		.cfi_offset 8, -12
 1843              		.cfi_offset 9, -8
 1844              		.cfi_offset 14, -4
 1845 0004 85B0     		sub	sp, sp, #20
 1846              	.LCFI37:
 1847              		.cfi_def_cfa_offset 48
 1848 0006 9DF83080 		ldrb	r8, [sp, #48]	@ zero_extendqisi2
 346:Drivers/lvgl/lvgl/src/misc/lv_txt.c ****     if(font == NULL) return 0;
 1849              		.loc 1 346 0
 1850 000a 0028     		cmp	r0, #0
 1851 000c 3BD0     		beq	.L191
 1852 000e 0546     		mov	r5, r0
 347:Drivers/lvgl/lvgl/src/misc/lv_txt.c ****     if(txt[0] == '\0') return 0;
 1853              		.loc 1 347 0
 1854 0010 002A     		cmp	r2, #0
 1855 0012 3ED0     		beq	.L192
 348:Drivers/lvgl/lvgl/src/misc/lv_txt.c **** 
 1856              		.loc 1 348 0
 1857 0014 0078     		ldrb	r0, [r0]	@ zero_extendqisi2
 1858              	.LVL229:
 1859 0016 0028     		cmp	r0, #0
 1860 0018 3ED0     		beq	.L193
 350:Drivers/lvgl/lvgl/src/misc/lv_txt.c ****     lv_coord_t width             = 0;
 1861              		.loc 1 350 0
 1862 001a 0020     		movs	r0, #0
 1863 001c 0390     		str	r0, [sp, #12]
 1864              	.LVL230:
 352:Drivers/lvgl/lvgl/src/misc/lv_txt.c **** 
 1865              		.loc 1 352 0
 1866 001e 8DF80B00 		strb	r0, [sp, #11]
 354:Drivers/lvgl/lvgl/src/misc/lv_txt.c ****         while(i < length) {
 1867              		.loc 1 354 0
 1868 0022 29B1     		cbz	r1, .L196
 1869 0024 1F46     		mov	r7, r3
 1870 0026 1446     		mov	r4, r2
 1871 0028 0E46     		mov	r6, r1
 351:Drivers/lvgl/lvgl/src/misc/lv_txt.c ****     lv_text_cmd_state_t cmd_state = LV_TEXT_CMD_STATE_WAIT;
 1872              		.loc 1 351 0
ARM GAS  /tmp/ccZ7tG7k.s 			page 57


 1873 002a 4FF00009 		mov	r9, #0
 1874 002e 0EE0     		b	.L186
 1875              	.L196:
 1876 0030 8146     		mov	r9, r0
 1877 0032 2AE0     		b	.L185
 1878              	.LVL231:
 1879              	.L187:
 1880              	.LBB31:
 366:Drivers/lvgl/lvgl/src/misc/lv_txt.c ****             if(char_width > 0) {
 1881              		.loc 1 366 0
 1882 0034 019A     		ldr	r2, [sp, #4]
 1883 0036 0099     		ldr	r1, [sp]
 1884 0038 2046     		mov	r0, r4
 1885 003a FFF7FEFF 		bl	lv_font_get_glyph_width
 1886              	.LVL232:
 1887 003e 03B2     		sxth	r3, r0
 1888              	.LVL233:
 367:Drivers/lvgl/lvgl/src/misc/lv_txt.c ****                 width += char_width;
 1889              		.loc 1 367 0
 1890 0040 002B     		cmp	r3, #0
 1891 0042 04DD     		ble	.L186
 368:Drivers/lvgl/lvgl/src/misc/lv_txt.c ****                 width += letter_space;
 1892              		.loc 1 368 0
 1893 0044 4844     		add	r0, r0, r9
 1894              	.LVL234:
 369:Drivers/lvgl/lvgl/src/misc/lv_txt.c ****             }
 1895              		.loc 1 369 0
 1896 0046 17FA80F0 		uxtah	r0, r7, r0
 1897              	.LVL235:
 1898 004a 0FFA80F9 		sxth	r9, r0
 1899              	.LVL236:
 1900              	.L186:
 1901              	.LBE31:
 355:Drivers/lvgl/lvgl/src/misc/lv_txt.c ****             uint32_t letter;
 1902              		.loc 1 355 0
 1903 004e 039B     		ldr	r3, [sp, #12]
 1904 0050 B342     		cmp	r3, r6
 1905 0052 10D2     		bcs	.L197
 1906              	.LBB32:
 358:Drivers/lvgl/lvgl/src/misc/lv_txt.c **** 
 1907              		.loc 1 358 0
 1908 0054 03AB     		add	r3, sp, #12
 1909 0056 01AA     		add	r2, sp, #4
 1910 0058 6946     		mov	r1, sp
 1911 005a 2846     		mov	r0, r5
 1912 005c FFF7FEFF 		bl	_lv_txt_encoded_letter_next_2
 1913              	.LVL237:
 360:Drivers/lvgl/lvgl/src/misc/lv_txt.c ****                 if(_lv_txt_is_cmd(&cmd_state, letter) != false) {
 1914              		.loc 1 360 0
 1915 0060 18F0010F 		tst	r8, #1
 1916 0064 E6D0     		beq	.L187
 361:Drivers/lvgl/lvgl/src/misc/lv_txt.c ****                     continue;
 1917              		.loc 1 361 0
 1918 0066 0099     		ldr	r1, [sp]
 1919 0068 0DF10B00 		add	r0, sp, #11
 1920 006c FFF7FEFF 		bl	_lv_txt_is_cmd
 1921              	.LVL238:
ARM GAS  /tmp/ccZ7tG7k.s 			page 58


 1922 0070 0028     		cmp	r0, #0
 1923 0072 DFD0     		beq	.L187
 1924 0074 EBE7     		b	.L186
 1925              	.L197:
 1926              	.LBE32:
 373:Drivers/lvgl/lvgl/src/misc/lv_txt.c ****             width -= letter_space; /*Trim the last letter space. Important if the text is center
 1927              		.loc 1 373 0
 1928 0076 B9F1000F 		cmp	r9, #0
 1929 007a 06DD     		ble	.L185
 374:Drivers/lvgl/lvgl/src/misc/lv_txt.c ****                                       aligned*/
 1930              		.loc 1 374 0
 1931 007c A9EB0700 		sub	r0, r9, r7
 1932 0080 0FFA80F9 		sxth	r9, r0
 1933              	.LVL239:
 1934 0084 01E0     		b	.L185
 1935              	.LVL240:
 1936              	.L191:
 346:Drivers/lvgl/lvgl/src/misc/lv_txt.c ****     if(font == NULL) return 0;
 1937              		.loc 1 346 0
 1938 0086 4FF00009 		mov	r9, #0
 1939              	.LVL241:
 1940              	.L185:
 380:Drivers/lvgl/lvgl/src/misc/lv_txt.c **** 
 1941              		.loc 1 380 0
 1942 008a 4846     		mov	r0, r9
 1943 008c 05B0     		add	sp, sp, #20
 1944              	.LCFI38:
 1945              		.cfi_remember_state
 1946              		.cfi_def_cfa_offset 28
 1947              		@ sp needed
 1948 008e BDE8F083 		pop	{r4, r5, r6, r7, r8, r9, pc}
 1949              	.LVL242:
 1950              	.L192:
 1951              	.LCFI39:
 1952              		.cfi_restore_state
 347:Drivers/lvgl/lvgl/src/misc/lv_txt.c ****     if(txt[0] == '\0') return 0;
 1953              		.loc 1 347 0
 1954 0092 4FF00009 		mov	r9, #0
 1955 0096 F8E7     		b	.L185
 1956              	.LVL243:
 1957              	.L193:
 348:Drivers/lvgl/lvgl/src/misc/lv_txt.c **** 
 1958              		.loc 1 348 0
 1959 0098 4FF00009 		mov	r9, #0
 1960 009c F5E7     		b	.L185
 1961              		.cfi_endproc
 1962              	.LFE58:
 1964              		.section	.text.lv_txt_get_size,"ax",%progbits
 1965              		.align	1
 1966              		.global	lv_txt_get_size
 1967              		.syntax unified
 1968              		.thumb
 1969              		.thumb_func
 1970              		.fpu fpv5-d16
 1972              	lv_txt_get_size:
 1973              	.LFB55:
  93:Drivers/lvgl/lvgl/src/misc/lv_txt.c ****     size_res->x = 0;
ARM GAS  /tmp/ccZ7tG7k.s 			page 59


 1974              		.loc 1 93 0
 1975              		.cfi_startproc
 1976              		@ args = 12, pretend = 0, frame = 16
 1977              		@ frame_needed = 0, uses_anonymous_args = 0
 1978              	.LVL244:
 1979 0000 2DE9F04F 		push	{r4, r5, r6, r7, r8, r9, r10, fp, lr}
 1980              	.LCFI40:
 1981              		.cfi_def_cfa_offset 36
 1982              		.cfi_offset 4, -36
 1983              		.cfi_offset 5, -32
 1984              		.cfi_offset 6, -28
 1985              		.cfi_offset 7, -24
 1986              		.cfi_offset 8, -20
 1987              		.cfi_offset 9, -16
 1988              		.cfi_offset 10, -12
 1989              		.cfi_offset 11, -8
 1990              		.cfi_offset 14, -4
 1991 0004 87B0     		sub	sp, sp, #28
 1992              	.LCFI41:
 1993              		.cfi_def_cfa_offset 64
 1994 0006 BDF94090 		ldrsh	r9, [sp, #64]
 1995 000a BDF944B0 		ldrsh	fp, [sp, #68]
 1996 000e 9DF84880 		ldrb	r8, [sp, #72]	@ zero_extendqisi2
  94:Drivers/lvgl/lvgl/src/misc/lv_txt.c ****     size_res->y = 0;
 1997              		.loc 1 94 0
 1998 0012 0024     		movs	r4, #0
 1999 0014 0480     		strh	r4, [r0]	@ movhi
  95:Drivers/lvgl/lvgl/src/misc/lv_txt.c **** 
 2000              		.loc 1 95 0
 2001 0016 4480     		strh	r4, [r0, #2]	@ movhi
  97:Drivers/lvgl/lvgl/src/misc/lv_txt.c ****     if(font == NULL) return;
 2002              		.loc 1 97 0
 2003 0018 0029     		cmp	r1, #0
 2004 001a 4DD0     		beq	.L198
 2005 001c 0F46     		mov	r7, r1
  98:Drivers/lvgl/lvgl/src/misc/lv_txt.c **** 
 2006              		.loc 1 98 0
 2007 001e 002A     		cmp	r2, #0
 2008 0020 4AD0     		beq	.L198
 100:Drivers/lvgl/lvgl/src/misc/lv_txt.c **** 
 2009              		.loc 1 100 0
 2010 0022 18F0020F 		tst	r8, #2
 2011 0026 01D0     		beq	.L200
 2012 0028 41F6FF7B 		movw	fp, #8191
 2013              	.L200:
 2014 002c 0493     		str	r3, [sp, #16]
 2015 002e 0392     		str	r2, [sp, #12]
 2016 0030 0446     		mov	r4, r0
 2017              	.LVL245:
 2018              	.LBB33:
 2019              	.LBB34:
 2020              		.file 4 "Drivers/lvgl/lvgl/src/misc/../font/lv_font.h"
   1:Drivers/lvgl/lvgl/src/misc/../font/lv_font.h **** /**
   2:Drivers/lvgl/lvgl/src/misc/../font/lv_font.h ****  * @file lv_font.h
   3:Drivers/lvgl/lvgl/src/misc/../font/lv_font.h ****  *
   4:Drivers/lvgl/lvgl/src/misc/../font/lv_font.h ****  */
   5:Drivers/lvgl/lvgl/src/misc/../font/lv_font.h **** 
ARM GAS  /tmp/ccZ7tG7k.s 			page 60


   6:Drivers/lvgl/lvgl/src/misc/../font/lv_font.h **** #ifndef LV_FONT_H
   7:Drivers/lvgl/lvgl/src/misc/../font/lv_font.h **** #define LV_FONT_H
   8:Drivers/lvgl/lvgl/src/misc/../font/lv_font.h **** 
   9:Drivers/lvgl/lvgl/src/misc/../font/lv_font.h **** #ifdef __cplusplus
  10:Drivers/lvgl/lvgl/src/misc/../font/lv_font.h **** extern "C" {
  11:Drivers/lvgl/lvgl/src/misc/../font/lv_font.h **** #endif
  12:Drivers/lvgl/lvgl/src/misc/../font/lv_font.h **** 
  13:Drivers/lvgl/lvgl/src/misc/../font/lv_font.h **** /*********************
  14:Drivers/lvgl/lvgl/src/misc/../font/lv_font.h ****  *      INCLUDES
  15:Drivers/lvgl/lvgl/src/misc/../font/lv_font.h ****  *********************/
  16:Drivers/lvgl/lvgl/src/misc/../font/lv_font.h **** #include "../lv_conf_internal.h"
  17:Drivers/lvgl/lvgl/src/misc/../font/lv_font.h **** #include <stdint.h>
  18:Drivers/lvgl/lvgl/src/misc/../font/lv_font.h **** #include <stddef.h>
  19:Drivers/lvgl/lvgl/src/misc/../font/lv_font.h **** #include <stdbool.h>
  20:Drivers/lvgl/lvgl/src/misc/../font/lv_font.h **** 
  21:Drivers/lvgl/lvgl/src/misc/../font/lv_font.h **** #include "lv_symbol_def.h"
  22:Drivers/lvgl/lvgl/src/misc/../font/lv_font.h **** #include "../misc/lv_area.h"
  23:Drivers/lvgl/lvgl/src/misc/../font/lv_font.h **** 
  24:Drivers/lvgl/lvgl/src/misc/../font/lv_font.h **** /*********************
  25:Drivers/lvgl/lvgl/src/misc/../font/lv_font.h ****  *      DEFINES
  26:Drivers/lvgl/lvgl/src/misc/../font/lv_font.h ****  *********************/
  27:Drivers/lvgl/lvgl/src/misc/../font/lv_font.h **** 
  28:Drivers/lvgl/lvgl/src/misc/../font/lv_font.h **** /* imgfont identifier */
  29:Drivers/lvgl/lvgl/src/misc/../font/lv_font.h **** #define LV_IMGFONT_BPP 9
  30:Drivers/lvgl/lvgl/src/misc/../font/lv_font.h **** 
  31:Drivers/lvgl/lvgl/src/misc/../font/lv_font.h **** /**********************
  32:Drivers/lvgl/lvgl/src/misc/../font/lv_font.h ****  *      TYPEDEFS
  33:Drivers/lvgl/lvgl/src/misc/../font/lv_font.h ****  **********************/
  34:Drivers/lvgl/lvgl/src/misc/../font/lv_font.h **** 
  35:Drivers/lvgl/lvgl/src/misc/../font/lv_font.h **** /*------------------
  36:Drivers/lvgl/lvgl/src/misc/../font/lv_font.h ****  * General types
  37:Drivers/lvgl/lvgl/src/misc/../font/lv_font.h ****  *-----------------*/
  38:Drivers/lvgl/lvgl/src/misc/../font/lv_font.h **** 
  39:Drivers/lvgl/lvgl/src/misc/../font/lv_font.h **** struct _lv_font_t;
  40:Drivers/lvgl/lvgl/src/misc/../font/lv_font.h **** /** Describes the properties of a glyph.*/
  41:Drivers/lvgl/lvgl/src/misc/../font/lv_font.h **** typedef struct {
  42:Drivers/lvgl/lvgl/src/misc/../font/lv_font.h ****     const struct _lv_font_t *
  43:Drivers/lvgl/lvgl/src/misc/../font/lv_font.h ****         resolved_font; /**< Pointer to a font where the glyph was actually found after handling fal
  44:Drivers/lvgl/lvgl/src/misc/../font/lv_font.h ****     uint16_t adv_w; /**< The glyph needs this space. Draw the next glyph after this width.*/
  45:Drivers/lvgl/lvgl/src/misc/../font/lv_font.h ****     uint16_t box_w; /**< Width of the glyph's bounding box*/
  46:Drivers/lvgl/lvgl/src/misc/../font/lv_font.h ****     uint16_t box_h; /**< Height of the glyph's bounding box*/
  47:Drivers/lvgl/lvgl/src/misc/../font/lv_font.h ****     int16_t ofs_x;  /**< x offset of the bounding box*/
  48:Drivers/lvgl/lvgl/src/misc/../font/lv_font.h ****     int16_t ofs_y;  /**< y offset of the bounding box*/
  49:Drivers/lvgl/lvgl/src/misc/../font/lv_font.h ****     uint8_t bpp: 4;  /**< Bit-per-pixel: 1, 2, 4, 8*/
  50:Drivers/lvgl/lvgl/src/misc/../font/lv_font.h ****     uint8_t is_placeholder: 1; /** Glyph is missing. But placeholder will still be displayed */
  51:Drivers/lvgl/lvgl/src/misc/../font/lv_font.h **** } lv_font_glyph_dsc_t;
  52:Drivers/lvgl/lvgl/src/misc/../font/lv_font.h **** 
  53:Drivers/lvgl/lvgl/src/misc/../font/lv_font.h **** /** The bitmaps might be upscaled by 3 to achieve subpixel rendering.*/
  54:Drivers/lvgl/lvgl/src/misc/../font/lv_font.h **** enum {
  55:Drivers/lvgl/lvgl/src/misc/../font/lv_font.h ****     LV_FONT_SUBPX_NONE,
  56:Drivers/lvgl/lvgl/src/misc/../font/lv_font.h ****     LV_FONT_SUBPX_HOR,
  57:Drivers/lvgl/lvgl/src/misc/../font/lv_font.h ****     LV_FONT_SUBPX_VER,
  58:Drivers/lvgl/lvgl/src/misc/../font/lv_font.h ****     LV_FONT_SUBPX_BOTH,
  59:Drivers/lvgl/lvgl/src/misc/../font/lv_font.h **** };
  60:Drivers/lvgl/lvgl/src/misc/../font/lv_font.h **** 
  61:Drivers/lvgl/lvgl/src/misc/../font/lv_font.h **** typedef uint8_t lv_font_subpx_t;
  62:Drivers/lvgl/lvgl/src/misc/../font/lv_font.h **** 
ARM GAS  /tmp/ccZ7tG7k.s 			page 61


  63:Drivers/lvgl/lvgl/src/misc/../font/lv_font.h **** /** Describe the properties of a font*/
  64:Drivers/lvgl/lvgl/src/misc/../font/lv_font.h **** typedef struct _lv_font_t {
  65:Drivers/lvgl/lvgl/src/misc/../font/lv_font.h ****     /** Get a glyph's descriptor from a font*/
  66:Drivers/lvgl/lvgl/src/misc/../font/lv_font.h ****     bool (*get_glyph_dsc)(const struct _lv_font_t *, lv_font_glyph_dsc_t *, uint32_t letter, uint32
  67:Drivers/lvgl/lvgl/src/misc/../font/lv_font.h **** 
  68:Drivers/lvgl/lvgl/src/misc/../font/lv_font.h ****     /** Get a glyph's bitmap from a font*/
  69:Drivers/lvgl/lvgl/src/misc/../font/lv_font.h ****     const uint8_t * (*get_glyph_bitmap)(const struct _lv_font_t *, uint32_t);
  70:Drivers/lvgl/lvgl/src/misc/../font/lv_font.h **** 
  71:Drivers/lvgl/lvgl/src/misc/../font/lv_font.h ****     /*Pointer to the font in a font pack (must have the same line height)*/
  72:Drivers/lvgl/lvgl/src/misc/../font/lv_font.h ****     lv_coord_t line_height;         /**< The real line height where any text fits*/
  73:Drivers/lvgl/lvgl/src/misc/../font/lv_font.h ****     lv_coord_t base_line;           /**< Base line measured from the top of the line_height*/
  74:Drivers/lvgl/lvgl/src/misc/../font/lv_font.h ****     uint8_t subpx  : 2;             /**< An element of `lv_font_subpx_t`*/
  75:Drivers/lvgl/lvgl/src/misc/../font/lv_font.h **** 
  76:Drivers/lvgl/lvgl/src/misc/../font/lv_font.h ****     int8_t underline_position;      /**< Distance between the top of the underline and base line (<
  77:Drivers/lvgl/lvgl/src/misc/../font/lv_font.h ****     int8_t underline_thickness;     /**< Thickness of the underline*/
  78:Drivers/lvgl/lvgl/src/misc/../font/lv_font.h **** 
  79:Drivers/lvgl/lvgl/src/misc/../font/lv_font.h ****     const void * dsc;               /**< Store implementation specific or run_time data or caching 
  80:Drivers/lvgl/lvgl/src/misc/../font/lv_font.h ****     const struct _lv_font_t * fallback;   /**< Fallback font for missing glyph. Resolved recursivel
  81:Drivers/lvgl/lvgl/src/misc/../font/lv_font.h **** #if LV_USE_USER_DATA
  82:Drivers/lvgl/lvgl/src/misc/../font/lv_font.h ****     void * user_data;               /**< Custom user data for font.*/
  83:Drivers/lvgl/lvgl/src/misc/../font/lv_font.h **** #endif
  84:Drivers/lvgl/lvgl/src/misc/../font/lv_font.h **** } lv_font_t;
  85:Drivers/lvgl/lvgl/src/misc/../font/lv_font.h **** 
  86:Drivers/lvgl/lvgl/src/misc/../font/lv_font.h **** /**********************
  87:Drivers/lvgl/lvgl/src/misc/../font/lv_font.h ****  * GLOBAL PROTOTYPES
  88:Drivers/lvgl/lvgl/src/misc/../font/lv_font.h ****  **********************/
  89:Drivers/lvgl/lvgl/src/misc/../font/lv_font.h **** 
  90:Drivers/lvgl/lvgl/src/misc/../font/lv_font.h **** /**
  91:Drivers/lvgl/lvgl/src/misc/../font/lv_font.h ****  * Return with the bitmap of a font.
  92:Drivers/lvgl/lvgl/src/misc/../font/lv_font.h ****  * @param font_p pointer to a font
  93:Drivers/lvgl/lvgl/src/misc/../font/lv_font.h ****  * @param letter a UNICODE character code
  94:Drivers/lvgl/lvgl/src/misc/../font/lv_font.h ****  * @return pointer to the bitmap of the letter
  95:Drivers/lvgl/lvgl/src/misc/../font/lv_font.h ****  */
  96:Drivers/lvgl/lvgl/src/misc/../font/lv_font.h **** const uint8_t * lv_font_get_glyph_bitmap(const lv_font_t * font_p, uint32_t letter);
  97:Drivers/lvgl/lvgl/src/misc/../font/lv_font.h **** 
  98:Drivers/lvgl/lvgl/src/misc/../font/lv_font.h **** /**
  99:Drivers/lvgl/lvgl/src/misc/../font/lv_font.h ****  * Get the descriptor of a glyph
 100:Drivers/lvgl/lvgl/src/misc/../font/lv_font.h ****  * @param font_p pointer to font
 101:Drivers/lvgl/lvgl/src/misc/../font/lv_font.h ****  * @param dsc_out store the result descriptor here
 102:Drivers/lvgl/lvgl/src/misc/../font/lv_font.h ****  * @param letter a UNICODE letter code
 103:Drivers/lvgl/lvgl/src/misc/../font/lv_font.h ****  * @param letter_next the next letter after `letter`. Used for kerning
 104:Drivers/lvgl/lvgl/src/misc/../font/lv_font.h ****  * @return true: descriptor is successfully loaded into `dsc_out`.
 105:Drivers/lvgl/lvgl/src/misc/../font/lv_font.h ****  *         false: the letter was not found, no data is loaded to `dsc_out`
 106:Drivers/lvgl/lvgl/src/misc/../font/lv_font.h ****  */
 107:Drivers/lvgl/lvgl/src/misc/../font/lv_font.h **** bool lv_font_get_glyph_dsc(const lv_font_t * font_p, lv_font_glyph_dsc_t * dsc_out, uint32_t letter
 108:Drivers/lvgl/lvgl/src/misc/../font/lv_font.h ****                            uint32_t letter_next);
 109:Drivers/lvgl/lvgl/src/misc/../font/lv_font.h **** 
 110:Drivers/lvgl/lvgl/src/misc/../font/lv_font.h **** /**
 111:Drivers/lvgl/lvgl/src/misc/../font/lv_font.h ****  * Get the width of a glyph with kerning
 112:Drivers/lvgl/lvgl/src/misc/../font/lv_font.h ****  * @param font pointer to a font
 113:Drivers/lvgl/lvgl/src/misc/../font/lv_font.h ****  * @param letter a UNICODE letter
 114:Drivers/lvgl/lvgl/src/misc/../font/lv_font.h ****  * @param letter_next the next letter after `letter`. Used for kerning
 115:Drivers/lvgl/lvgl/src/misc/../font/lv_font.h ****  * @return the width of the glyph
 116:Drivers/lvgl/lvgl/src/misc/../font/lv_font.h ****  */
 117:Drivers/lvgl/lvgl/src/misc/../font/lv_font.h **** uint16_t lv_font_get_glyph_width(const lv_font_t * font, uint32_t letter, uint32_t letter_next);
 118:Drivers/lvgl/lvgl/src/misc/../font/lv_font.h **** 
 119:Drivers/lvgl/lvgl/src/misc/../font/lv_font.h **** /**
ARM GAS  /tmp/ccZ7tG7k.s 			page 62


 120:Drivers/lvgl/lvgl/src/misc/../font/lv_font.h ****  * Get the line height of a font. All characters fit into this height
 121:Drivers/lvgl/lvgl/src/misc/../font/lv_font.h ****  * @param font_p pointer to a font
 122:Drivers/lvgl/lvgl/src/misc/../font/lv_font.h ****  * @return the height of a font
 123:Drivers/lvgl/lvgl/src/misc/../font/lv_font.h ****  */
 124:Drivers/lvgl/lvgl/src/misc/../font/lv_font.h **** static inline lv_coord_t lv_font_get_line_height(const lv_font_t * font_p)
 125:Drivers/lvgl/lvgl/src/misc/../font/lv_font.h **** {
 126:Drivers/lvgl/lvgl/src/misc/../font/lv_font.h ****     return font_p->line_height;
 2021              		.loc 4 126 0
 2022 0032 B2F90830 		ldrsh	r3, [r2, #8]
 2023              	.LVL246:
 2024 0036 0593     		str	r3, [sp, #20]
 2025              	.LVL247:
 2026              	.LBE34:
 2027              	.LBE33:
 104:Drivers/lvgl/lvgl/src/misc/lv_txt.c **** 
 2028              		.loc 1 104 0
 2029 0038 1FFA83FA 		uxth	r10, r3
 2030              	.LVL248:
 102:Drivers/lvgl/lvgl/src/misc/lv_txt.c ****     uint32_t new_line_start = 0;
 2031              		.loc 1 102 0
 2032 003c 0025     		movs	r5, #0
 2033              	.LVL249:
 2034              	.L201:
 107:Drivers/lvgl/lvgl/src/misc/lv_txt.c ****         new_line_start += _lv_txt_get_next_line(&text[line_start], font, letter_space, max_width, N
 2035              		.loc 1 107 0
 2036 003e 7E19     		adds	r6, r7, r5
 2037 0040 7B5D     		ldrb	r3, [r7, r5]	@ zero_extendqisi2
 2038 0042 2BB3     		cbz	r3, .L207
 2039              	.LBB35:
 108:Drivers/lvgl/lvgl/src/misc/lv_txt.c **** 
 2040              		.loc 1 108 0
 2041 0044 CDF80480 		str	r8, [sp, #4]
 2042 0048 0023     		movs	r3, #0
 2043 004a 0093     		str	r3, [sp]
 2044 004c 5B46     		mov	r3, fp
 2045 004e 049A     		ldr	r2, [sp, #16]
 2046 0050 0399     		ldr	r1, [sp, #12]
 2047 0052 3046     		mov	r0, r6
 2048 0054 FFF7FEFF 		bl	_lv_txt_get_next_line
 2049              	.LVL250:
 2050 0058 0544     		add	r5, r5, r0
 2051              	.LVL251:
 110:Drivers/lvgl/lvgl/src/misc/lv_txt.c ****             LV_LOG_WARN("lv_txt_get_size: integer overflow while calculating text height");
 2052              		.loc 1 110 0
 2053 005a B4F90230 		ldrsh	r3, [r4, #2]
 2054 005e 03EB0A02 		add	r2, r3, r10
 2055 0062 4A44     		add	r2, r2, r9
 2056 0064 B2F5004F 		cmp	r2, #32768
 2057 0068 26D2     		bcs	.L198
 115:Drivers/lvgl/lvgl/src/misc/lv_txt.c ****             size_res->y += line_space;
 2058              		.loc 1 115 0
 2059 006a 5344     		add	r3, r3, r10
 116:Drivers/lvgl/lvgl/src/misc/lv_txt.c ****         }
 2060              		.loc 1 116 0
 2061 006c 19FA83F3 		uxtah	r3, r9, r3
 2062 0070 6380     		strh	r3, [r4, #2]	@ movhi
 120:Drivers/lvgl/lvgl/src/misc/lv_txt.c ****                                                       flag);
ARM GAS  /tmp/ccZ7tG7k.s 			page 63


 2063              		.loc 1 120 0
 2064 0072 CDF80080 		str	r8, [sp]
 2065 0076 049B     		ldr	r3, [sp, #16]
 2066 0078 039A     		ldr	r2, [sp, #12]
 2067 007a 0146     		mov	r1, r0
 2068 007c 3046     		mov	r0, r6
 2069 007e FFF7FEFF 		bl	lv_txt_get_width
 2070              	.LVL252:
 123:Drivers/lvgl/lvgl/src/misc/lv_txt.c ****         line_start  = new_line_start;
 2071              		.loc 1 123 0
 2072 0082 B4F90030 		ldrsh	r3, [r4]
 2073 0086 9842     		cmp	r0, r3
 2074 0088 B8BF     		it	lt
 2075 008a 1846     		movlt	r0, r3
 2076              	.LVL253:
 2077 008c 2080     		strh	r0, [r4]	@ movhi
 2078              	.LVL254:
 2079 008e D6E7     		b	.L201
 2080              	.L207:
 2081              	.LBE35:
 128:Drivers/lvgl/lvgl/src/misc/lv_txt.c ****         size_res->y += letter_height + line_space;
 2082              		.loc 1 128 0
 2083 0090 5DB1     		cbz	r5, .L203
 128:Drivers/lvgl/lvgl/src/misc/lv_txt.c ****         size_res->y += letter_height + line_space;
 2084              		.loc 1 128 0 is_stmt 0 discriminator 1
 2085 0092 16F8013C 		ldrb	r3, [r6, #-1]	@ zero_extendqisi2
 2086 0096 0D2B     		cmp	r3, #13
 2087 0098 18BF     		it	ne
 2088 009a 0A2B     		cmpne	r3, #10
 2089 009c 05D1     		bne	.L203
 129:Drivers/lvgl/lvgl/src/misc/lv_txt.c ****     }
 2090              		.loc 1 129 0 is_stmt 1
 2091 009e CA44     		add	r10, r10, r9
 2092              	.LVL255:
 2093 00a0 6388     		ldrh	r3, [r4, #2]
 2094 00a2 13FA8AFA 		uxtah	r10, r3, r10
 2095 00a6 A4F802A0 		strh	r10, [r4, #2]	@ movhi
 2096              	.L203:
 133:Drivers/lvgl/lvgl/src/misc/lv_txt.c ****         size_res->y = letter_height;
 2097              		.loc 1 133 0
 2098 00aa B4F90230 		ldrsh	r3, [r4, #2]
 2099 00ae 33B1     		cbz	r3, .L208
 136:Drivers/lvgl/lvgl/src/misc/lv_txt.c **** }
 2100              		.loc 1 136 0
 2101 00b0 A3EB0909 		sub	r9, r3, r9
 2102 00b4 A4F80290 		strh	r9, [r4, #2]	@ movhi
 2103              	.LVL256:
 2104              	.L198:
 137:Drivers/lvgl/lvgl/src/misc/lv_txt.c **** 
 2105              		.loc 1 137 0
 2106 00b8 07B0     		add	sp, sp, #28
 2107              	.LCFI42:
 2108              		.cfi_remember_state
 2109              		.cfi_def_cfa_offset 36
 2110              		@ sp needed
 2111 00ba BDE8F08F 		pop	{r4, r5, r6, r7, r8, r9, r10, fp, pc}
 2112              	.LVL257:
ARM GAS  /tmp/ccZ7tG7k.s 			page 64


 2113              	.L208:
 2114              	.LCFI43:
 2115              		.cfi_restore_state
 134:Drivers/lvgl/lvgl/src/misc/lv_txt.c ****     else
 2116              		.loc 1 134 0
 2117 00be BDF81430 		ldrh	r3, [sp, #20]
 2118 00c2 6380     		strh	r3, [r4, #2]	@ movhi
 2119 00c4 F8E7     		b	.L198
 2120              		.cfi_endproc
 2121              	.LFE55:
 2123              		.global	_lv_txt_get_encoded_length
 2124              		.global	_lv_txt_encoded_get_char_id
 2125              		.global	_lv_txt_encoded_get_byte_id
 2126              		.global	_lv_txt_encoded_prev
 2127              		.global	_lv_txt_encoded_next
 2128              		.global	_lv_txt_encoded_conv_wc
 2129              		.global	_lv_txt_unicode_to_encoded
 2130              		.global	_lv_txt_encoded_size
 2131              		.section	.data._lv_txt_encoded_conv_wc,"aw",%progbits
 2132              		.align	2
 2135              	_lv_txt_encoded_conv_wc:
 2136 0000 00000000 		.word	lv_txt_utf8_conv_wc
 2137              		.section	.data._lv_txt_encoded_get_byte_id,"aw",%progbits
 2138              		.align	2
 2139              		.set	.LANCHOR2,. + 0
 2142              	_lv_txt_encoded_get_byte_id:
 2143 0000 00000000 		.word	lv_txt_utf8_get_byte_id
 2144              		.section	.data._lv_txt_encoded_get_char_id,"aw",%progbits
 2145              		.align	2
 2148              	_lv_txt_encoded_get_char_id:
 2149 0000 00000000 		.word	lv_txt_utf8_get_char_id
 2150              		.section	.data._lv_txt_encoded_next,"aw",%progbits
 2151              		.align	2
 2152              		.set	.LANCHOR1,. + 0
 2155              	_lv_txt_encoded_next:
 2156 0000 00000000 		.word	lv_txt_utf8_next
 2157              		.section	.data._lv_txt_encoded_prev,"aw",%progbits
 2158              		.align	2
 2161              	_lv_txt_encoded_prev:
 2162 0000 00000000 		.word	lv_txt_utf8_prev
 2163              		.section	.data._lv_txt_encoded_size,"aw",%progbits
 2164              		.align	2
 2165              		.set	.LANCHOR0,. + 0
 2168              	_lv_txt_encoded_size:
 2169 0000 00000000 		.word	lv_txt_utf8_size
 2170              		.section	.data._lv_txt_get_encoded_length,"aw",%progbits
 2171              		.align	2
 2174              	_lv_txt_get_encoded_length:
 2175 0000 00000000 		.word	lv_txt_utf8_get_length
 2176              		.section	.data._lv_txt_unicode_to_encoded,"aw",%progbits
 2177              		.align	2
 2180              	_lv_txt_unicode_to_encoded:
 2181 0000 00000000 		.word	lv_txt_unicode_to_utf8
 2182              		.section	.rodata.lv_txt_get_next_word.str1.4,"aMS",%progbits,1
 2183              		.align	2
 2184              	.LC0:
 2185 0000 202C2E3B 		.ascii	" ,.;:-_\000"
ARM GAS  /tmp/ccZ7tG7k.s 			page 65


 2185      3A2D5F00 
 2186              		.text
 2187              	.Letext0:
 2188              		.file 5 "/opt/gcc-arm-none-eabi-7-2017-q4-major/lib/gcc/arm-none-eabi/7.2.1/include/stdarg.h"
 2189              		.file 6 "/opt/gcc-arm-none-eabi-7-2017-q4-major/arm-none-eabi/include/machine/_default_types.h"
 2190              		.file 7 "/opt/gcc-arm-none-eabi-7-2017-q4-major/arm-none-eabi/include/sys/_stdint.h"
 2191              		.file 8 "Drivers/lvgl/lvgl/src/misc/lv_area.h"
 2192              		.file 9 "/opt/gcc-arm-none-eabi-7-2017-q4-major/lib/gcc/arm-none-eabi/7.2.1/include/stddef.h"
 2193              		.file 10 "<built-in>"
 2194              		.file 11 "/opt/gcc-arm-none-eabi-7-2017-q4-major/arm-none-eabi/include/sys/lock.h"
 2195              		.file 12 "/opt/gcc-arm-none-eabi-7-2017-q4-major/arm-none-eabi/include/sys/_types.h"
 2196              		.file 13 "/opt/gcc-arm-none-eabi-7-2017-q4-major/arm-none-eabi/include/sys/reent.h"
 2197              		.file 14 "Drivers/lvgl/lvgl/src/misc/lv_printf.h"
 2198              		.file 15 "/opt/gcc-arm-none-eabi-7-2017-q4-major/arm-none-eabi/include/string.h"
ARM GAS  /tmp/ccZ7tG7k.s 			page 66

