ARM GAS  /tmp/cchLtzqB.s 			page 1


   1              		.cpu cortex-m7
   2              		.eabi_attribute 28, 1
   3              		.eabi_attribute 20, 1
   4              		.eabi_attribute 21, 1
   5              		.eabi_attribute 23, 3
   6              		.eabi_attribute 24, 1
   7              		.eabi_attribute 25, 1
   8              		.eabi_attribute 26, 1
   9              		.eabi_attribute 30, 1
  10              		.eabi_attribute 34, 1
  11              		.eabi_attribute 18, 4
  12              		.file	"lv_textarea.c"
  13              		.text
  14              	.Ltext0:
  15              		.cfi_sections	.debug_frame
  16              		.section	.text.pwd_char_hider_anim,"ax",%progbits
  17              		.align	1
  18              		.syntax unified
  19              		.thumb
  20              		.thumb_func
  21              		.fpu fpv5-d16
  23              	pwd_char_hider_anim:
  24              	.LFB200:
  25              		.file 1 "Drivers/lvgl/lvgl/src/widgets/lv_textarea.c"
   1:Drivers/lvgl/lvgl/src/widgets/lv_textarea.c **** /**
   2:Drivers/lvgl/lvgl/src/widgets/lv_textarea.c ****  * @file lv_ta.c
   3:Drivers/lvgl/lvgl/src/widgets/lv_textarea.c ****  *
   4:Drivers/lvgl/lvgl/src/widgets/lv_textarea.c ****  */
   5:Drivers/lvgl/lvgl/src/widgets/lv_textarea.c **** 
   6:Drivers/lvgl/lvgl/src/widgets/lv_textarea.c **** /*********************
   7:Drivers/lvgl/lvgl/src/widgets/lv_textarea.c ****  *      INCLUDES
   8:Drivers/lvgl/lvgl/src/widgets/lv_textarea.c ****  *********************/
   9:Drivers/lvgl/lvgl/src/widgets/lv_textarea.c **** #include "lv_textarea.h"
  10:Drivers/lvgl/lvgl/src/widgets/lv_textarea.c **** #if LV_USE_TEXTAREA != 0
  11:Drivers/lvgl/lvgl/src/widgets/lv_textarea.c **** 
  12:Drivers/lvgl/lvgl/src/widgets/lv_textarea.c **** #include <string.h>
  13:Drivers/lvgl/lvgl/src/widgets/lv_textarea.c **** #include "../misc/lv_assert.h"
  14:Drivers/lvgl/lvgl/src/widgets/lv_textarea.c **** #include "../core/lv_group.h"
  15:Drivers/lvgl/lvgl/src/widgets/lv_textarea.c **** #include "../core/lv_refr.h"
  16:Drivers/lvgl/lvgl/src/widgets/lv_textarea.c **** #include "../core/lv_indev.h"
  17:Drivers/lvgl/lvgl/src/widgets/lv_textarea.c **** #include "../draw/lv_draw.h"
  18:Drivers/lvgl/lvgl/src/widgets/lv_textarea.c **** #include "../misc/lv_anim.h"
  19:Drivers/lvgl/lvgl/src/widgets/lv_textarea.c **** #include "../misc/lv_txt.h"
  20:Drivers/lvgl/lvgl/src/widgets/lv_textarea.c **** #include "../misc/lv_math.h"
  21:Drivers/lvgl/lvgl/src/widgets/lv_textarea.c **** 
  22:Drivers/lvgl/lvgl/src/widgets/lv_textarea.c **** /*********************
  23:Drivers/lvgl/lvgl/src/widgets/lv_textarea.c ****  *      DEFINES
  24:Drivers/lvgl/lvgl/src/widgets/lv_textarea.c ****  *********************/
  25:Drivers/lvgl/lvgl/src/widgets/lv_textarea.c **** #define MY_CLASS &lv_textarea_class
  26:Drivers/lvgl/lvgl/src/widgets/lv_textarea.c **** 
  27:Drivers/lvgl/lvgl/src/widgets/lv_textarea.c **** /*Test configuration*/
  28:Drivers/lvgl/lvgl/src/widgets/lv_textarea.c **** #ifndef LV_TEXTAREA_DEF_CURSOR_BLINK_TIME
  29:Drivers/lvgl/lvgl/src/widgets/lv_textarea.c ****     #define LV_TEXTAREA_DEF_CURSOR_BLINK_TIME 400 /*ms*/
  30:Drivers/lvgl/lvgl/src/widgets/lv_textarea.c **** #endif
  31:Drivers/lvgl/lvgl/src/widgets/lv_textarea.c **** 
  32:Drivers/lvgl/lvgl/src/widgets/lv_textarea.c **** #ifndef LV_TEXTAREA_DEF_PWD_SHOW_TIME
  33:Drivers/lvgl/lvgl/src/widgets/lv_textarea.c ****     #define LV_TEXTAREA_DEF_PWD_SHOW_TIME 1500 /*ms*/
ARM GAS  /tmp/cchLtzqB.s 			page 2


  34:Drivers/lvgl/lvgl/src/widgets/lv_textarea.c **** #endif
  35:Drivers/lvgl/lvgl/src/widgets/lv_textarea.c **** 
  36:Drivers/lvgl/lvgl/src/widgets/lv_textarea.c **** #define LV_TEXTAREA_PWD_BULLET_UNICODE      0x2022
  37:Drivers/lvgl/lvgl/src/widgets/lv_textarea.c **** #define IGNORE_KERNING                      '\0'
  38:Drivers/lvgl/lvgl/src/widgets/lv_textarea.c **** 
  39:Drivers/lvgl/lvgl/src/widgets/lv_textarea.c **** /**********************
  40:Drivers/lvgl/lvgl/src/widgets/lv_textarea.c ****  *      TYPEDEFS
  41:Drivers/lvgl/lvgl/src/widgets/lv_textarea.c ****  **********************/
  42:Drivers/lvgl/lvgl/src/widgets/lv_textarea.c **** 
  43:Drivers/lvgl/lvgl/src/widgets/lv_textarea.c **** /**********************
  44:Drivers/lvgl/lvgl/src/widgets/lv_textarea.c ****  *  STATIC PROTOTYPES
  45:Drivers/lvgl/lvgl/src/widgets/lv_textarea.c ****  **********************/
  46:Drivers/lvgl/lvgl/src/widgets/lv_textarea.c **** static void lv_textarea_constructor(const lv_obj_class_t * class_p, lv_obj_t * obj);
  47:Drivers/lvgl/lvgl/src/widgets/lv_textarea.c **** static void lv_textarea_destructor(const lv_obj_class_t * class_p, lv_obj_t * obj);
  48:Drivers/lvgl/lvgl/src/widgets/lv_textarea.c **** static void lv_textarea_event(const lv_obj_class_t * class_p, lv_event_t * e);
  49:Drivers/lvgl/lvgl/src/widgets/lv_textarea.c **** static void label_event_cb(lv_event_t * e);
  50:Drivers/lvgl/lvgl/src/widgets/lv_textarea.c **** static void cursor_blink_anim_cb(void * obj, int32_t show);
  51:Drivers/lvgl/lvgl/src/widgets/lv_textarea.c **** static void pwd_char_hider_anim(void * obj, int32_t x);
  52:Drivers/lvgl/lvgl/src/widgets/lv_textarea.c **** static void pwd_char_hider_anim_ready(lv_anim_t * a);
  53:Drivers/lvgl/lvgl/src/widgets/lv_textarea.c **** static void pwd_char_hider(lv_obj_t * obj);
  54:Drivers/lvgl/lvgl/src/widgets/lv_textarea.c **** static bool char_is_accepted(lv_obj_t * obj, uint32_t c);
  55:Drivers/lvgl/lvgl/src/widgets/lv_textarea.c **** static void start_cursor_blink(lv_obj_t * obj);
  56:Drivers/lvgl/lvgl/src/widgets/lv_textarea.c **** static void refr_cursor_area(lv_obj_t * obj);
  57:Drivers/lvgl/lvgl/src/widgets/lv_textarea.c **** static void update_cursor_position_on_click(lv_event_t * e);
  58:Drivers/lvgl/lvgl/src/widgets/lv_textarea.c **** static lv_res_t insert_handler(lv_obj_t * obj, const char * txt);
  59:Drivers/lvgl/lvgl/src/widgets/lv_textarea.c **** static void draw_placeholder(lv_event_t * e);
  60:Drivers/lvgl/lvgl/src/widgets/lv_textarea.c **** static void draw_cursor(lv_event_t * e);
  61:Drivers/lvgl/lvgl/src/widgets/lv_textarea.c **** static void auto_hide_characters(lv_obj_t * obj);
  62:Drivers/lvgl/lvgl/src/widgets/lv_textarea.c **** static inline bool is_valid_but_non_printable_char(const uint32_t letter);
  63:Drivers/lvgl/lvgl/src/widgets/lv_textarea.c **** 
  64:Drivers/lvgl/lvgl/src/widgets/lv_textarea.c **** /**********************
  65:Drivers/lvgl/lvgl/src/widgets/lv_textarea.c ****  *  STATIC VARIABLES
  66:Drivers/lvgl/lvgl/src/widgets/lv_textarea.c ****  **********************/
  67:Drivers/lvgl/lvgl/src/widgets/lv_textarea.c **** const lv_obj_class_t lv_textarea_class = {
  68:Drivers/lvgl/lvgl/src/widgets/lv_textarea.c ****     .constructor_cb = lv_textarea_constructor,
  69:Drivers/lvgl/lvgl/src/widgets/lv_textarea.c ****     .destructor_cb = lv_textarea_destructor,
  70:Drivers/lvgl/lvgl/src/widgets/lv_textarea.c ****     .event_cb = lv_textarea_event,
  71:Drivers/lvgl/lvgl/src/widgets/lv_textarea.c ****     .group_def = LV_OBJ_CLASS_GROUP_DEF_TRUE,
  72:Drivers/lvgl/lvgl/src/widgets/lv_textarea.c ****     .width_def = LV_DPI_DEF * 2,
  73:Drivers/lvgl/lvgl/src/widgets/lv_textarea.c ****     .height_def = LV_DPI_DEF,
  74:Drivers/lvgl/lvgl/src/widgets/lv_textarea.c ****     .instance_size = sizeof(lv_textarea_t),
  75:Drivers/lvgl/lvgl/src/widgets/lv_textarea.c ****     .base_class = &lv_obj_class
  76:Drivers/lvgl/lvgl/src/widgets/lv_textarea.c **** };
  77:Drivers/lvgl/lvgl/src/widgets/lv_textarea.c **** 
  78:Drivers/lvgl/lvgl/src/widgets/lv_textarea.c **** static const char * ta_insert_replace;
  79:Drivers/lvgl/lvgl/src/widgets/lv_textarea.c **** 
  80:Drivers/lvgl/lvgl/src/widgets/lv_textarea.c **** /**********************
  81:Drivers/lvgl/lvgl/src/widgets/lv_textarea.c ****  *      MACROS
  82:Drivers/lvgl/lvgl/src/widgets/lv_textarea.c ****  **********************/
  83:Drivers/lvgl/lvgl/src/widgets/lv_textarea.c **** 
  84:Drivers/lvgl/lvgl/src/widgets/lv_textarea.c **** /**********************
  85:Drivers/lvgl/lvgl/src/widgets/lv_textarea.c ****  *   GLOBAL FUNCTIONS
  86:Drivers/lvgl/lvgl/src/widgets/lv_textarea.c ****  **********************/
  87:Drivers/lvgl/lvgl/src/widgets/lv_textarea.c **** 
  88:Drivers/lvgl/lvgl/src/widgets/lv_textarea.c **** lv_obj_t * lv_textarea_create(lv_obj_t * parent)
  89:Drivers/lvgl/lvgl/src/widgets/lv_textarea.c **** {
  90:Drivers/lvgl/lvgl/src/widgets/lv_textarea.c ****     LV_LOG_INFO("begin");
ARM GAS  /tmp/cchLtzqB.s 			page 3


  91:Drivers/lvgl/lvgl/src/widgets/lv_textarea.c ****     lv_obj_t * obj = lv_obj_class_create_obj(MY_CLASS, parent);
  92:Drivers/lvgl/lvgl/src/widgets/lv_textarea.c ****     lv_obj_class_init_obj(obj);
  93:Drivers/lvgl/lvgl/src/widgets/lv_textarea.c ****     return obj;
  94:Drivers/lvgl/lvgl/src/widgets/lv_textarea.c **** }
  95:Drivers/lvgl/lvgl/src/widgets/lv_textarea.c **** 
  96:Drivers/lvgl/lvgl/src/widgets/lv_textarea.c **** /*======================
  97:Drivers/lvgl/lvgl/src/widgets/lv_textarea.c ****  * Add/remove functions
  98:Drivers/lvgl/lvgl/src/widgets/lv_textarea.c ****  *=====================*/
  99:Drivers/lvgl/lvgl/src/widgets/lv_textarea.c **** 
 100:Drivers/lvgl/lvgl/src/widgets/lv_textarea.c **** void lv_textarea_add_char(lv_obj_t * obj, uint32_t c)
 101:Drivers/lvgl/lvgl/src/widgets/lv_textarea.c **** {
 102:Drivers/lvgl/lvgl/src/widgets/lv_textarea.c ****     LV_ASSERT_OBJ(obj, MY_CLASS);
 103:Drivers/lvgl/lvgl/src/widgets/lv_textarea.c **** 
 104:Drivers/lvgl/lvgl/src/widgets/lv_textarea.c ****     lv_textarea_t * ta = (lv_textarea_t *)obj;
 105:Drivers/lvgl/lvgl/src/widgets/lv_textarea.c **** 
 106:Drivers/lvgl/lvgl/src/widgets/lv_textarea.c ****     if(ta->one_line && (c == '\n' || c == '\r')) {
 107:Drivers/lvgl/lvgl/src/widgets/lv_textarea.c ****         LV_LOG_INFO("Text area: line break ignored in one-line mode");
 108:Drivers/lvgl/lvgl/src/widgets/lv_textarea.c ****         return;
 109:Drivers/lvgl/lvgl/src/widgets/lv_textarea.c ****     }
 110:Drivers/lvgl/lvgl/src/widgets/lv_textarea.c **** 
 111:Drivers/lvgl/lvgl/src/widgets/lv_textarea.c ****     uint32_t u32_buf[2];
 112:Drivers/lvgl/lvgl/src/widgets/lv_textarea.c ****     u32_buf[0] = c;
 113:Drivers/lvgl/lvgl/src/widgets/lv_textarea.c ****     u32_buf[1] = 0;
 114:Drivers/lvgl/lvgl/src/widgets/lv_textarea.c **** 
 115:Drivers/lvgl/lvgl/src/widgets/lv_textarea.c ****     const char * letter_buf = (char *)&u32_buf;
 116:Drivers/lvgl/lvgl/src/widgets/lv_textarea.c **** 
 117:Drivers/lvgl/lvgl/src/widgets/lv_textarea.c **** #if LV_BIG_ENDIAN_SYSTEM
 118:Drivers/lvgl/lvgl/src/widgets/lv_textarea.c ****     if(c != 0) while(*letter_buf == 0) ++letter_buf;
 119:Drivers/lvgl/lvgl/src/widgets/lv_textarea.c **** #endif
 120:Drivers/lvgl/lvgl/src/widgets/lv_textarea.c **** 
 121:Drivers/lvgl/lvgl/src/widgets/lv_textarea.c ****     lv_res_t res = insert_handler(obj, letter_buf);
 122:Drivers/lvgl/lvgl/src/widgets/lv_textarea.c ****     if(res != LV_RES_OK) return;
 123:Drivers/lvgl/lvgl/src/widgets/lv_textarea.c **** 
 124:Drivers/lvgl/lvgl/src/widgets/lv_textarea.c ****     uint32_t c_uni = _lv_txt_encoded_next((const char *)&c, NULL);
 125:Drivers/lvgl/lvgl/src/widgets/lv_textarea.c **** 
 126:Drivers/lvgl/lvgl/src/widgets/lv_textarea.c ****     if(char_is_accepted(obj, c_uni) == false) {
 127:Drivers/lvgl/lvgl/src/widgets/lv_textarea.c ****         LV_LOG_INFO("Character is not accepted by the text area (too long text or not in the accept
 128:Drivers/lvgl/lvgl/src/widgets/lv_textarea.c ****         return;
 129:Drivers/lvgl/lvgl/src/widgets/lv_textarea.c ****     }
 130:Drivers/lvgl/lvgl/src/widgets/lv_textarea.c **** 
 131:Drivers/lvgl/lvgl/src/widgets/lv_textarea.c ****     if(ta->pwd_mode) pwd_char_hider(obj); /*Make sure all the current text contains only '*'*/
 132:Drivers/lvgl/lvgl/src/widgets/lv_textarea.c **** 
 133:Drivers/lvgl/lvgl/src/widgets/lv_textarea.c ****     /*If the textarea is empty, invalidate it to hide the placeholder*/
 134:Drivers/lvgl/lvgl/src/widgets/lv_textarea.c ****     if(ta->placeholder_txt) {
 135:Drivers/lvgl/lvgl/src/widgets/lv_textarea.c ****         const char * txt = lv_label_get_text(ta->label);
 136:Drivers/lvgl/lvgl/src/widgets/lv_textarea.c ****         if(txt[0] == '\0') lv_obj_invalidate(obj);
 137:Drivers/lvgl/lvgl/src/widgets/lv_textarea.c ****     }
 138:Drivers/lvgl/lvgl/src/widgets/lv_textarea.c **** 
 139:Drivers/lvgl/lvgl/src/widgets/lv_textarea.c ****     lv_label_ins_text(ta->label, ta->cursor.pos, letter_buf); /*Insert the character*/
 140:Drivers/lvgl/lvgl/src/widgets/lv_textarea.c ****     lv_textarea_clear_selection(obj); /*Clear selection*/
 141:Drivers/lvgl/lvgl/src/widgets/lv_textarea.c **** 
 142:Drivers/lvgl/lvgl/src/widgets/lv_textarea.c ****     if(ta->pwd_mode) {
 143:Drivers/lvgl/lvgl/src/widgets/lv_textarea.c ****         /*+2: the new char + \0*/
 144:Drivers/lvgl/lvgl/src/widgets/lv_textarea.c ****         size_t realloc_size = strlen(ta->pwd_tmp) + strlen(letter_buf) + 1;
 145:Drivers/lvgl/lvgl/src/widgets/lv_textarea.c ****         ta->pwd_tmp = lv_mem_realloc(ta->pwd_tmp, realloc_size);
 146:Drivers/lvgl/lvgl/src/widgets/lv_textarea.c ****         LV_ASSERT_MALLOC(ta->pwd_tmp);
 147:Drivers/lvgl/lvgl/src/widgets/lv_textarea.c ****         if(ta->pwd_tmp == NULL) return;
ARM GAS  /tmp/cchLtzqB.s 			page 4


 148:Drivers/lvgl/lvgl/src/widgets/lv_textarea.c **** 
 149:Drivers/lvgl/lvgl/src/widgets/lv_textarea.c ****         _lv_txt_ins(ta->pwd_tmp, ta->cursor.pos, (const char *)letter_buf);
 150:Drivers/lvgl/lvgl/src/widgets/lv_textarea.c **** 
 151:Drivers/lvgl/lvgl/src/widgets/lv_textarea.c ****         /*Auto hide characters*/
 152:Drivers/lvgl/lvgl/src/widgets/lv_textarea.c ****         auto_hide_characters(obj);
 153:Drivers/lvgl/lvgl/src/widgets/lv_textarea.c ****     }
 154:Drivers/lvgl/lvgl/src/widgets/lv_textarea.c **** 
 155:Drivers/lvgl/lvgl/src/widgets/lv_textarea.c ****     /*Move the cursor after the new character*/
 156:Drivers/lvgl/lvgl/src/widgets/lv_textarea.c ****     lv_textarea_set_cursor_pos(obj, lv_textarea_get_cursor_pos(obj) + 1);
 157:Drivers/lvgl/lvgl/src/widgets/lv_textarea.c **** 
 158:Drivers/lvgl/lvgl/src/widgets/lv_textarea.c ****     lv_event_send(obj, LV_EVENT_VALUE_CHANGED, NULL);
 159:Drivers/lvgl/lvgl/src/widgets/lv_textarea.c **** }
 160:Drivers/lvgl/lvgl/src/widgets/lv_textarea.c **** 
 161:Drivers/lvgl/lvgl/src/widgets/lv_textarea.c **** void lv_textarea_add_text(lv_obj_t * obj, const char * txt)
 162:Drivers/lvgl/lvgl/src/widgets/lv_textarea.c **** {
 163:Drivers/lvgl/lvgl/src/widgets/lv_textarea.c ****     LV_ASSERT_OBJ(obj, MY_CLASS);
 164:Drivers/lvgl/lvgl/src/widgets/lv_textarea.c ****     LV_ASSERT_NULL(txt);
 165:Drivers/lvgl/lvgl/src/widgets/lv_textarea.c **** 
 166:Drivers/lvgl/lvgl/src/widgets/lv_textarea.c ****     lv_textarea_t * ta = (lv_textarea_t *)obj;
 167:Drivers/lvgl/lvgl/src/widgets/lv_textarea.c **** 
 168:Drivers/lvgl/lvgl/src/widgets/lv_textarea.c ****     if(ta->pwd_mode) pwd_char_hider(obj); /*Make sure all the current text contains only '*'*/
 169:Drivers/lvgl/lvgl/src/widgets/lv_textarea.c **** 
 170:Drivers/lvgl/lvgl/src/widgets/lv_textarea.c ****     /*Add the character one-by-one if not all characters are accepted or there is character limit.*
 171:Drivers/lvgl/lvgl/src/widgets/lv_textarea.c ****     if(lv_textarea_get_accepted_chars(obj) || lv_textarea_get_max_length(obj)) {
 172:Drivers/lvgl/lvgl/src/widgets/lv_textarea.c ****         uint32_t i = 0;
 173:Drivers/lvgl/lvgl/src/widgets/lv_textarea.c ****         while(txt[i] != '\0') {
 174:Drivers/lvgl/lvgl/src/widgets/lv_textarea.c ****             uint32_t c = _lv_txt_encoded_next(txt, &i);
 175:Drivers/lvgl/lvgl/src/widgets/lv_textarea.c ****             lv_textarea_add_char(obj, _lv_txt_unicode_to_encoded(c));
 176:Drivers/lvgl/lvgl/src/widgets/lv_textarea.c ****         }
 177:Drivers/lvgl/lvgl/src/widgets/lv_textarea.c ****         return;
 178:Drivers/lvgl/lvgl/src/widgets/lv_textarea.c ****     }
 179:Drivers/lvgl/lvgl/src/widgets/lv_textarea.c **** 
 180:Drivers/lvgl/lvgl/src/widgets/lv_textarea.c ****     lv_res_t res = insert_handler(obj, txt);
 181:Drivers/lvgl/lvgl/src/widgets/lv_textarea.c ****     if(res != LV_RES_OK) return;
 182:Drivers/lvgl/lvgl/src/widgets/lv_textarea.c **** 
 183:Drivers/lvgl/lvgl/src/widgets/lv_textarea.c ****     /*If the textarea is empty, invalidate it to hide the placeholder*/
 184:Drivers/lvgl/lvgl/src/widgets/lv_textarea.c ****     if(ta->placeholder_txt) {
 185:Drivers/lvgl/lvgl/src/widgets/lv_textarea.c ****         const char * txt_act = lv_label_get_text(ta->label);
 186:Drivers/lvgl/lvgl/src/widgets/lv_textarea.c ****         if(txt_act[0] == '\0') lv_obj_invalidate(obj);
 187:Drivers/lvgl/lvgl/src/widgets/lv_textarea.c ****     }
 188:Drivers/lvgl/lvgl/src/widgets/lv_textarea.c **** 
 189:Drivers/lvgl/lvgl/src/widgets/lv_textarea.c ****     /*Insert the text*/
 190:Drivers/lvgl/lvgl/src/widgets/lv_textarea.c ****     lv_label_ins_text(ta->label, ta->cursor.pos, txt);
 191:Drivers/lvgl/lvgl/src/widgets/lv_textarea.c ****     lv_textarea_clear_selection(obj);
 192:Drivers/lvgl/lvgl/src/widgets/lv_textarea.c **** 
 193:Drivers/lvgl/lvgl/src/widgets/lv_textarea.c ****     if(ta->pwd_mode) {
 194:Drivers/lvgl/lvgl/src/widgets/lv_textarea.c ****         size_t realloc_size = strlen(ta->pwd_tmp) + strlen(txt) + 1;
 195:Drivers/lvgl/lvgl/src/widgets/lv_textarea.c ****         ta->pwd_tmp = lv_mem_realloc(ta->pwd_tmp, realloc_size);
 196:Drivers/lvgl/lvgl/src/widgets/lv_textarea.c ****         LV_ASSERT_MALLOC(ta->pwd_tmp);
 197:Drivers/lvgl/lvgl/src/widgets/lv_textarea.c ****         if(ta->pwd_tmp == NULL) return;
 198:Drivers/lvgl/lvgl/src/widgets/lv_textarea.c **** 
 199:Drivers/lvgl/lvgl/src/widgets/lv_textarea.c ****         _lv_txt_ins(ta->pwd_tmp, ta->cursor.pos, txt);
 200:Drivers/lvgl/lvgl/src/widgets/lv_textarea.c **** 
 201:Drivers/lvgl/lvgl/src/widgets/lv_textarea.c ****         /*Auto hide characters*/
 202:Drivers/lvgl/lvgl/src/widgets/lv_textarea.c ****         auto_hide_characters(obj);
 203:Drivers/lvgl/lvgl/src/widgets/lv_textarea.c ****     }
 204:Drivers/lvgl/lvgl/src/widgets/lv_textarea.c **** 
ARM GAS  /tmp/cchLtzqB.s 			page 5


 205:Drivers/lvgl/lvgl/src/widgets/lv_textarea.c ****     /*Move the cursor after the new text*/
 206:Drivers/lvgl/lvgl/src/widgets/lv_textarea.c ****     lv_textarea_set_cursor_pos(obj, lv_textarea_get_cursor_pos(obj) + _lv_txt_get_encoded_length(tx
 207:Drivers/lvgl/lvgl/src/widgets/lv_textarea.c **** 
 208:Drivers/lvgl/lvgl/src/widgets/lv_textarea.c ****     lv_event_send(obj, LV_EVENT_VALUE_CHANGED, NULL);
 209:Drivers/lvgl/lvgl/src/widgets/lv_textarea.c **** }
 210:Drivers/lvgl/lvgl/src/widgets/lv_textarea.c **** 
 211:Drivers/lvgl/lvgl/src/widgets/lv_textarea.c **** void lv_textarea_del_char(lv_obj_t * obj)
 212:Drivers/lvgl/lvgl/src/widgets/lv_textarea.c **** {
 213:Drivers/lvgl/lvgl/src/widgets/lv_textarea.c ****     LV_ASSERT_OBJ(obj, MY_CLASS);
 214:Drivers/lvgl/lvgl/src/widgets/lv_textarea.c **** 
 215:Drivers/lvgl/lvgl/src/widgets/lv_textarea.c ****     lv_textarea_t * ta = (lv_textarea_t *)obj;
 216:Drivers/lvgl/lvgl/src/widgets/lv_textarea.c ****     uint32_t cur_pos  = ta->cursor.pos;
 217:Drivers/lvgl/lvgl/src/widgets/lv_textarea.c **** 
 218:Drivers/lvgl/lvgl/src/widgets/lv_textarea.c ****     if(cur_pos == 0) return;
 219:Drivers/lvgl/lvgl/src/widgets/lv_textarea.c **** 
 220:Drivers/lvgl/lvgl/src/widgets/lv_textarea.c ****     char del_buf[2]   = {LV_KEY_DEL, '\0'};
 221:Drivers/lvgl/lvgl/src/widgets/lv_textarea.c **** 
 222:Drivers/lvgl/lvgl/src/widgets/lv_textarea.c ****     lv_res_t res = insert_handler(obj, del_buf);
 223:Drivers/lvgl/lvgl/src/widgets/lv_textarea.c ****     if(res != LV_RES_OK) return;
 224:Drivers/lvgl/lvgl/src/widgets/lv_textarea.c **** 
 225:Drivers/lvgl/lvgl/src/widgets/lv_textarea.c ****     char * label_txt = lv_label_get_text(ta->label);
 226:Drivers/lvgl/lvgl/src/widgets/lv_textarea.c **** 
 227:Drivers/lvgl/lvgl/src/widgets/lv_textarea.c ****     /*Delete a character*/
 228:Drivers/lvgl/lvgl/src/widgets/lv_textarea.c ****     _lv_txt_cut(label_txt, ta->cursor.pos - 1, 1);
 229:Drivers/lvgl/lvgl/src/widgets/lv_textarea.c **** 
 230:Drivers/lvgl/lvgl/src/widgets/lv_textarea.c ****     /*Refresh the label*/
 231:Drivers/lvgl/lvgl/src/widgets/lv_textarea.c ****     lv_label_set_text(ta->label, label_txt);
 232:Drivers/lvgl/lvgl/src/widgets/lv_textarea.c ****     lv_textarea_clear_selection(obj);
 233:Drivers/lvgl/lvgl/src/widgets/lv_textarea.c **** 
 234:Drivers/lvgl/lvgl/src/widgets/lv_textarea.c ****     /*If the textarea became empty, invalidate it to hide the placeholder*/
 235:Drivers/lvgl/lvgl/src/widgets/lv_textarea.c ****     if(ta->placeholder_txt) {
 236:Drivers/lvgl/lvgl/src/widgets/lv_textarea.c ****         const char * txt = lv_label_get_text(ta->label);
 237:Drivers/lvgl/lvgl/src/widgets/lv_textarea.c ****         if(txt[0] == '\0') lv_obj_invalidate(obj);
 238:Drivers/lvgl/lvgl/src/widgets/lv_textarea.c ****     }
 239:Drivers/lvgl/lvgl/src/widgets/lv_textarea.c **** 
 240:Drivers/lvgl/lvgl/src/widgets/lv_textarea.c ****     if(ta->pwd_mode) {
 241:Drivers/lvgl/lvgl/src/widgets/lv_textarea.c ****         _lv_txt_cut(ta->pwd_tmp, ta->cursor.pos - 1, 1);
 242:Drivers/lvgl/lvgl/src/widgets/lv_textarea.c **** 
 243:Drivers/lvgl/lvgl/src/widgets/lv_textarea.c ****         ta->pwd_tmp = lv_mem_realloc(ta->pwd_tmp, strlen(ta->pwd_tmp) + 1);
 244:Drivers/lvgl/lvgl/src/widgets/lv_textarea.c ****         LV_ASSERT_MALLOC(ta->pwd_tmp);
 245:Drivers/lvgl/lvgl/src/widgets/lv_textarea.c ****         if(ta->pwd_tmp == NULL) return;
 246:Drivers/lvgl/lvgl/src/widgets/lv_textarea.c ****     }
 247:Drivers/lvgl/lvgl/src/widgets/lv_textarea.c **** 
 248:Drivers/lvgl/lvgl/src/widgets/lv_textarea.c ****     /*Move the cursor to the place of the deleted character*/
 249:Drivers/lvgl/lvgl/src/widgets/lv_textarea.c ****     lv_textarea_set_cursor_pos(obj, ta->cursor.pos - 1);
 250:Drivers/lvgl/lvgl/src/widgets/lv_textarea.c **** 
 251:Drivers/lvgl/lvgl/src/widgets/lv_textarea.c ****     lv_event_send(obj, LV_EVENT_VALUE_CHANGED, NULL);
 252:Drivers/lvgl/lvgl/src/widgets/lv_textarea.c **** 
 253:Drivers/lvgl/lvgl/src/widgets/lv_textarea.c **** }
 254:Drivers/lvgl/lvgl/src/widgets/lv_textarea.c **** 
 255:Drivers/lvgl/lvgl/src/widgets/lv_textarea.c **** void lv_textarea_del_char_forward(lv_obj_t * obj)
 256:Drivers/lvgl/lvgl/src/widgets/lv_textarea.c **** {
 257:Drivers/lvgl/lvgl/src/widgets/lv_textarea.c ****     LV_ASSERT_OBJ(obj, MY_CLASS);
 258:Drivers/lvgl/lvgl/src/widgets/lv_textarea.c **** 
 259:Drivers/lvgl/lvgl/src/widgets/lv_textarea.c ****     uint32_t cp = lv_textarea_get_cursor_pos(obj);
 260:Drivers/lvgl/lvgl/src/widgets/lv_textarea.c ****     lv_textarea_set_cursor_pos(obj, cp + 1);
 261:Drivers/lvgl/lvgl/src/widgets/lv_textarea.c ****     if(cp != lv_textarea_get_cursor_pos(obj)) lv_textarea_del_char(obj);
ARM GAS  /tmp/cchLtzqB.s 			page 6


 262:Drivers/lvgl/lvgl/src/widgets/lv_textarea.c **** }
 263:Drivers/lvgl/lvgl/src/widgets/lv_textarea.c **** 
 264:Drivers/lvgl/lvgl/src/widgets/lv_textarea.c **** /*=====================
 265:Drivers/lvgl/lvgl/src/widgets/lv_textarea.c ****  * Setter functions
 266:Drivers/lvgl/lvgl/src/widgets/lv_textarea.c ****  *====================*/
 267:Drivers/lvgl/lvgl/src/widgets/lv_textarea.c **** 
 268:Drivers/lvgl/lvgl/src/widgets/lv_textarea.c **** void lv_textarea_set_text(lv_obj_t * obj, const char * txt)
 269:Drivers/lvgl/lvgl/src/widgets/lv_textarea.c **** {
 270:Drivers/lvgl/lvgl/src/widgets/lv_textarea.c ****     LV_ASSERT_OBJ(obj, MY_CLASS);
 271:Drivers/lvgl/lvgl/src/widgets/lv_textarea.c ****     LV_ASSERT_NULL(txt);
 272:Drivers/lvgl/lvgl/src/widgets/lv_textarea.c **** 
 273:Drivers/lvgl/lvgl/src/widgets/lv_textarea.c ****     lv_textarea_t * ta = (lv_textarea_t *)obj;
 274:Drivers/lvgl/lvgl/src/widgets/lv_textarea.c **** 
 275:Drivers/lvgl/lvgl/src/widgets/lv_textarea.c ****     /*Clear the existing selection*/
 276:Drivers/lvgl/lvgl/src/widgets/lv_textarea.c ****     lv_textarea_clear_selection(obj);
 277:Drivers/lvgl/lvgl/src/widgets/lv_textarea.c **** 
 278:Drivers/lvgl/lvgl/src/widgets/lv_textarea.c ****     /*Add the character one-by-one if not all characters are accepted or there is character limit.*
 279:Drivers/lvgl/lvgl/src/widgets/lv_textarea.c ****     if(lv_textarea_get_accepted_chars(obj) || lv_textarea_get_max_length(obj)) {
 280:Drivers/lvgl/lvgl/src/widgets/lv_textarea.c ****         lv_label_set_text(ta->label, "");
 281:Drivers/lvgl/lvgl/src/widgets/lv_textarea.c ****         lv_textarea_set_cursor_pos(obj, LV_TEXTAREA_CURSOR_LAST);
 282:Drivers/lvgl/lvgl/src/widgets/lv_textarea.c ****         if(ta->pwd_mode) {
 283:Drivers/lvgl/lvgl/src/widgets/lv_textarea.c ****             ta->pwd_tmp[0] = '\0'; /*Clear the password too*/
 284:Drivers/lvgl/lvgl/src/widgets/lv_textarea.c ****         }
 285:Drivers/lvgl/lvgl/src/widgets/lv_textarea.c ****         uint32_t i = 0;
 286:Drivers/lvgl/lvgl/src/widgets/lv_textarea.c ****         while(txt[i] != '\0') {
 287:Drivers/lvgl/lvgl/src/widgets/lv_textarea.c ****             uint32_t c = _lv_txt_encoded_next(txt, &i);
 288:Drivers/lvgl/lvgl/src/widgets/lv_textarea.c ****             lv_textarea_add_char(obj, _lv_txt_unicode_to_encoded(c));
 289:Drivers/lvgl/lvgl/src/widgets/lv_textarea.c ****         }
 290:Drivers/lvgl/lvgl/src/widgets/lv_textarea.c ****     }
 291:Drivers/lvgl/lvgl/src/widgets/lv_textarea.c ****     else {
 292:Drivers/lvgl/lvgl/src/widgets/lv_textarea.c ****         lv_label_set_text(ta->label, txt);
 293:Drivers/lvgl/lvgl/src/widgets/lv_textarea.c ****         lv_textarea_set_cursor_pos(obj, LV_TEXTAREA_CURSOR_LAST);
 294:Drivers/lvgl/lvgl/src/widgets/lv_textarea.c ****     }
 295:Drivers/lvgl/lvgl/src/widgets/lv_textarea.c **** 
 296:Drivers/lvgl/lvgl/src/widgets/lv_textarea.c ****     /*If the textarea is empty, invalidate it to hide the placeholder*/
 297:Drivers/lvgl/lvgl/src/widgets/lv_textarea.c ****     if(ta->placeholder_txt) {
 298:Drivers/lvgl/lvgl/src/widgets/lv_textarea.c ****         const char * txt_act = lv_label_get_text(ta->label);
 299:Drivers/lvgl/lvgl/src/widgets/lv_textarea.c ****         if(txt_act[0] == '\0') lv_obj_invalidate(obj);
 300:Drivers/lvgl/lvgl/src/widgets/lv_textarea.c ****     }
 301:Drivers/lvgl/lvgl/src/widgets/lv_textarea.c **** 
 302:Drivers/lvgl/lvgl/src/widgets/lv_textarea.c ****     if(ta->pwd_mode) {
 303:Drivers/lvgl/lvgl/src/widgets/lv_textarea.c ****         ta->pwd_tmp = lv_mem_realloc(ta->pwd_tmp, strlen(txt) + 1);
 304:Drivers/lvgl/lvgl/src/widgets/lv_textarea.c ****         LV_ASSERT_MALLOC(ta->pwd_tmp);
 305:Drivers/lvgl/lvgl/src/widgets/lv_textarea.c ****         if(ta->pwd_tmp == NULL) return;
 306:Drivers/lvgl/lvgl/src/widgets/lv_textarea.c ****         strcpy(ta->pwd_tmp, txt);
 307:Drivers/lvgl/lvgl/src/widgets/lv_textarea.c **** 
 308:Drivers/lvgl/lvgl/src/widgets/lv_textarea.c ****         /*Auto hide characters*/
 309:Drivers/lvgl/lvgl/src/widgets/lv_textarea.c ****         auto_hide_characters(obj);
 310:Drivers/lvgl/lvgl/src/widgets/lv_textarea.c ****     }
 311:Drivers/lvgl/lvgl/src/widgets/lv_textarea.c **** 
 312:Drivers/lvgl/lvgl/src/widgets/lv_textarea.c ****     lv_event_send(obj, LV_EVENT_VALUE_CHANGED, NULL);
 313:Drivers/lvgl/lvgl/src/widgets/lv_textarea.c **** }
 314:Drivers/lvgl/lvgl/src/widgets/lv_textarea.c **** 
 315:Drivers/lvgl/lvgl/src/widgets/lv_textarea.c **** void lv_textarea_set_placeholder_text(lv_obj_t * obj, const char * txt)
 316:Drivers/lvgl/lvgl/src/widgets/lv_textarea.c **** {
 317:Drivers/lvgl/lvgl/src/widgets/lv_textarea.c ****     LV_ASSERT_OBJ(obj, MY_CLASS);
 318:Drivers/lvgl/lvgl/src/widgets/lv_textarea.c ****     LV_ASSERT_NULL(txt);
ARM GAS  /tmp/cchLtzqB.s 			page 7


 319:Drivers/lvgl/lvgl/src/widgets/lv_textarea.c **** 
 320:Drivers/lvgl/lvgl/src/widgets/lv_textarea.c ****     lv_textarea_t * ta = (lv_textarea_t *)obj;
 321:Drivers/lvgl/lvgl/src/widgets/lv_textarea.c **** 
 322:Drivers/lvgl/lvgl/src/widgets/lv_textarea.c ****     size_t txt_len = strlen(txt);
 323:Drivers/lvgl/lvgl/src/widgets/lv_textarea.c ****     if((txt_len == 0) && (ta->placeholder_txt)) {
 324:Drivers/lvgl/lvgl/src/widgets/lv_textarea.c ****         lv_mem_free(ta->placeholder_txt);
 325:Drivers/lvgl/lvgl/src/widgets/lv_textarea.c ****         ta->placeholder_txt = NULL;
 326:Drivers/lvgl/lvgl/src/widgets/lv_textarea.c ****     }
 327:Drivers/lvgl/lvgl/src/widgets/lv_textarea.c ****     else {
 328:Drivers/lvgl/lvgl/src/widgets/lv_textarea.c ****         /*Allocate memory for the placeholder_txt text*/
 329:Drivers/lvgl/lvgl/src/widgets/lv_textarea.c ****         /*NOTE: Using special realloc behavior, malloc-like when data_p is NULL*/
 330:Drivers/lvgl/lvgl/src/widgets/lv_textarea.c ****         ta->placeholder_txt = lv_mem_realloc(ta->placeholder_txt, txt_len + 1);
 331:Drivers/lvgl/lvgl/src/widgets/lv_textarea.c ****         LV_ASSERT_MALLOC(ta->placeholder_txt);
 332:Drivers/lvgl/lvgl/src/widgets/lv_textarea.c ****         if(ta->placeholder_txt == NULL) {
 333:Drivers/lvgl/lvgl/src/widgets/lv_textarea.c ****             LV_LOG_ERROR("lv_textarea_set_placeholder_text: couldn't allocate memory for placeholde
 334:Drivers/lvgl/lvgl/src/widgets/lv_textarea.c ****             return;
 335:Drivers/lvgl/lvgl/src/widgets/lv_textarea.c ****         }
 336:Drivers/lvgl/lvgl/src/widgets/lv_textarea.c **** 
 337:Drivers/lvgl/lvgl/src/widgets/lv_textarea.c ****         strcpy(ta->placeholder_txt, txt);
 338:Drivers/lvgl/lvgl/src/widgets/lv_textarea.c ****         ta->placeholder_txt[txt_len] = '\0';
 339:Drivers/lvgl/lvgl/src/widgets/lv_textarea.c ****     }
 340:Drivers/lvgl/lvgl/src/widgets/lv_textarea.c **** 
 341:Drivers/lvgl/lvgl/src/widgets/lv_textarea.c ****     lv_obj_invalidate(obj);
 342:Drivers/lvgl/lvgl/src/widgets/lv_textarea.c **** }
 343:Drivers/lvgl/lvgl/src/widgets/lv_textarea.c **** 
 344:Drivers/lvgl/lvgl/src/widgets/lv_textarea.c **** void lv_textarea_set_cursor_pos(lv_obj_t * obj, int32_t pos)
 345:Drivers/lvgl/lvgl/src/widgets/lv_textarea.c **** {
 346:Drivers/lvgl/lvgl/src/widgets/lv_textarea.c ****     LV_ASSERT_OBJ(obj, MY_CLASS);
 347:Drivers/lvgl/lvgl/src/widgets/lv_textarea.c **** 
 348:Drivers/lvgl/lvgl/src/widgets/lv_textarea.c ****     lv_textarea_t * ta = (lv_textarea_t *)obj;
 349:Drivers/lvgl/lvgl/src/widgets/lv_textarea.c ****     if((uint32_t)ta->cursor.pos == (uint32_t)pos) return;
 350:Drivers/lvgl/lvgl/src/widgets/lv_textarea.c **** 
 351:Drivers/lvgl/lvgl/src/widgets/lv_textarea.c ****     uint32_t len = _lv_txt_get_encoded_length(lv_label_get_text(ta->label));
 352:Drivers/lvgl/lvgl/src/widgets/lv_textarea.c **** 
 353:Drivers/lvgl/lvgl/src/widgets/lv_textarea.c ****     if(pos < 0) pos = len + pos;
 354:Drivers/lvgl/lvgl/src/widgets/lv_textarea.c **** 
 355:Drivers/lvgl/lvgl/src/widgets/lv_textarea.c ****     if(pos > (int32_t)len || pos == LV_TEXTAREA_CURSOR_LAST) pos = len;
 356:Drivers/lvgl/lvgl/src/widgets/lv_textarea.c **** 
 357:Drivers/lvgl/lvgl/src/widgets/lv_textarea.c ****     ta->cursor.pos = pos;
 358:Drivers/lvgl/lvgl/src/widgets/lv_textarea.c **** 
 359:Drivers/lvgl/lvgl/src/widgets/lv_textarea.c ****     /*Position the label to make the cursor visible*/
 360:Drivers/lvgl/lvgl/src/widgets/lv_textarea.c ****     lv_obj_update_layout(obj);
 361:Drivers/lvgl/lvgl/src/widgets/lv_textarea.c **** 
 362:Drivers/lvgl/lvgl/src/widgets/lv_textarea.c ****     lv_point_t cur_pos;
 363:Drivers/lvgl/lvgl/src/widgets/lv_textarea.c ****     const lv_font_t * font = lv_obj_get_style_text_font(obj, LV_PART_MAIN);
 364:Drivers/lvgl/lvgl/src/widgets/lv_textarea.c ****     lv_label_get_letter_pos(ta->label, pos, &cur_pos);
 365:Drivers/lvgl/lvgl/src/widgets/lv_textarea.c **** 
 366:Drivers/lvgl/lvgl/src/widgets/lv_textarea.c ****     /*The text area needs to have it's final size to see if the cursor is out of the area or not*/
 367:Drivers/lvgl/lvgl/src/widgets/lv_textarea.c **** 
 368:Drivers/lvgl/lvgl/src/widgets/lv_textarea.c ****     /*Check the top*/
 369:Drivers/lvgl/lvgl/src/widgets/lv_textarea.c ****     lv_coord_t font_h = lv_font_get_line_height(font);
 370:Drivers/lvgl/lvgl/src/widgets/lv_textarea.c ****     if(cur_pos.y < lv_obj_get_scroll_top(obj)) {
 371:Drivers/lvgl/lvgl/src/widgets/lv_textarea.c ****         lv_obj_scroll_to_y(obj, cur_pos.y, LV_ANIM_ON);
 372:Drivers/lvgl/lvgl/src/widgets/lv_textarea.c ****     }
 373:Drivers/lvgl/lvgl/src/widgets/lv_textarea.c ****     /*Check the bottom*/
 374:Drivers/lvgl/lvgl/src/widgets/lv_textarea.c ****     lv_coord_t h = lv_obj_get_content_height(obj);
 375:Drivers/lvgl/lvgl/src/widgets/lv_textarea.c ****     if(cur_pos.y + font_h - lv_obj_get_scroll_top(obj) > h) {
ARM GAS  /tmp/cchLtzqB.s 			page 8


 376:Drivers/lvgl/lvgl/src/widgets/lv_textarea.c ****         lv_obj_scroll_to_y(obj, cur_pos.y - h + font_h, LV_ANIM_ON);
 377:Drivers/lvgl/lvgl/src/widgets/lv_textarea.c ****     }
 378:Drivers/lvgl/lvgl/src/widgets/lv_textarea.c **** 
 379:Drivers/lvgl/lvgl/src/widgets/lv_textarea.c ****     /*Check the left*/
 380:Drivers/lvgl/lvgl/src/widgets/lv_textarea.c ****     if(cur_pos.x < lv_obj_get_scroll_left(obj)) {
 381:Drivers/lvgl/lvgl/src/widgets/lv_textarea.c ****         lv_obj_scroll_to_x(obj, cur_pos.x, LV_ANIM_ON);
 382:Drivers/lvgl/lvgl/src/widgets/lv_textarea.c ****     }
 383:Drivers/lvgl/lvgl/src/widgets/lv_textarea.c ****     /*Check the right*/
 384:Drivers/lvgl/lvgl/src/widgets/lv_textarea.c ****     lv_coord_t w = lv_obj_get_content_width(obj);
 385:Drivers/lvgl/lvgl/src/widgets/lv_textarea.c ****     if(cur_pos.x + font_h - lv_obj_get_scroll_left(obj) > w) {
 386:Drivers/lvgl/lvgl/src/widgets/lv_textarea.c ****         lv_obj_scroll_to_x(obj, cur_pos.x - w + font_h, LV_ANIM_ON);
 387:Drivers/lvgl/lvgl/src/widgets/lv_textarea.c ****     }
 388:Drivers/lvgl/lvgl/src/widgets/lv_textarea.c **** 
 389:Drivers/lvgl/lvgl/src/widgets/lv_textarea.c ****     ta->cursor.valid_x = cur_pos.x;
 390:Drivers/lvgl/lvgl/src/widgets/lv_textarea.c **** 
 391:Drivers/lvgl/lvgl/src/widgets/lv_textarea.c ****     start_cursor_blink(obj);
 392:Drivers/lvgl/lvgl/src/widgets/lv_textarea.c **** 
 393:Drivers/lvgl/lvgl/src/widgets/lv_textarea.c ****     refr_cursor_area(obj);
 394:Drivers/lvgl/lvgl/src/widgets/lv_textarea.c **** }
 395:Drivers/lvgl/lvgl/src/widgets/lv_textarea.c **** 
 396:Drivers/lvgl/lvgl/src/widgets/lv_textarea.c **** void lv_textarea_set_cursor_click_pos(lv_obj_t * obj, bool en)
 397:Drivers/lvgl/lvgl/src/widgets/lv_textarea.c **** {
 398:Drivers/lvgl/lvgl/src/widgets/lv_textarea.c ****     LV_ASSERT_OBJ(obj, MY_CLASS);
 399:Drivers/lvgl/lvgl/src/widgets/lv_textarea.c **** 
 400:Drivers/lvgl/lvgl/src/widgets/lv_textarea.c ****     lv_textarea_t * ta = (lv_textarea_t *)obj;
 401:Drivers/lvgl/lvgl/src/widgets/lv_textarea.c ****     ta->cursor.click_pos = en ? 1U : 0U;
 402:Drivers/lvgl/lvgl/src/widgets/lv_textarea.c **** }
 403:Drivers/lvgl/lvgl/src/widgets/lv_textarea.c **** 
 404:Drivers/lvgl/lvgl/src/widgets/lv_textarea.c **** void lv_textarea_set_password_mode(lv_obj_t * obj, bool en)
 405:Drivers/lvgl/lvgl/src/widgets/lv_textarea.c **** {
 406:Drivers/lvgl/lvgl/src/widgets/lv_textarea.c ****     LV_ASSERT_OBJ(obj, MY_CLASS);
 407:Drivers/lvgl/lvgl/src/widgets/lv_textarea.c **** 
 408:Drivers/lvgl/lvgl/src/widgets/lv_textarea.c ****     lv_textarea_t * ta = (lv_textarea_t *)obj;
 409:Drivers/lvgl/lvgl/src/widgets/lv_textarea.c ****     if(ta->pwd_mode == en) return;
 410:Drivers/lvgl/lvgl/src/widgets/lv_textarea.c **** 
 411:Drivers/lvgl/lvgl/src/widgets/lv_textarea.c ****     ta->pwd_mode = en ? 1U : 0U;
 412:Drivers/lvgl/lvgl/src/widgets/lv_textarea.c ****     /*Pwd mode is now enabled*/
 413:Drivers/lvgl/lvgl/src/widgets/lv_textarea.c ****     if(en) {
 414:Drivers/lvgl/lvgl/src/widgets/lv_textarea.c ****         char * txt = lv_label_get_text(ta->label);
 415:Drivers/lvgl/lvgl/src/widgets/lv_textarea.c ****         size_t len = strlen(txt);
 416:Drivers/lvgl/lvgl/src/widgets/lv_textarea.c **** 
 417:Drivers/lvgl/lvgl/src/widgets/lv_textarea.c ****         ta->pwd_tmp = lv_mem_alloc(len + 1);
 418:Drivers/lvgl/lvgl/src/widgets/lv_textarea.c ****         LV_ASSERT_MALLOC(ta->pwd_tmp);
 419:Drivers/lvgl/lvgl/src/widgets/lv_textarea.c ****         if(ta->pwd_tmp == NULL) return;
 420:Drivers/lvgl/lvgl/src/widgets/lv_textarea.c **** 
 421:Drivers/lvgl/lvgl/src/widgets/lv_textarea.c ****         strcpy(ta->pwd_tmp, txt);
 422:Drivers/lvgl/lvgl/src/widgets/lv_textarea.c **** 
 423:Drivers/lvgl/lvgl/src/widgets/lv_textarea.c ****         pwd_char_hider(obj);
 424:Drivers/lvgl/lvgl/src/widgets/lv_textarea.c **** 
 425:Drivers/lvgl/lvgl/src/widgets/lv_textarea.c ****         lv_textarea_clear_selection(obj);
 426:Drivers/lvgl/lvgl/src/widgets/lv_textarea.c ****     }
 427:Drivers/lvgl/lvgl/src/widgets/lv_textarea.c ****     /*Pwd mode is now disabled*/
 428:Drivers/lvgl/lvgl/src/widgets/lv_textarea.c ****     else {
 429:Drivers/lvgl/lvgl/src/widgets/lv_textarea.c ****         lv_textarea_clear_selection(obj);
 430:Drivers/lvgl/lvgl/src/widgets/lv_textarea.c ****         lv_label_set_text(ta->label, ta->pwd_tmp);
 431:Drivers/lvgl/lvgl/src/widgets/lv_textarea.c ****         lv_mem_free(ta->pwd_tmp);
 432:Drivers/lvgl/lvgl/src/widgets/lv_textarea.c ****         ta->pwd_tmp = NULL;
ARM GAS  /tmp/cchLtzqB.s 			page 9


 433:Drivers/lvgl/lvgl/src/widgets/lv_textarea.c ****     }
 434:Drivers/lvgl/lvgl/src/widgets/lv_textarea.c **** 
 435:Drivers/lvgl/lvgl/src/widgets/lv_textarea.c ****     refr_cursor_area(obj);
 436:Drivers/lvgl/lvgl/src/widgets/lv_textarea.c **** }
 437:Drivers/lvgl/lvgl/src/widgets/lv_textarea.c **** 
 438:Drivers/lvgl/lvgl/src/widgets/lv_textarea.c **** void lv_textarea_set_password_bullet(lv_obj_t * obj, const char * bullet)
 439:Drivers/lvgl/lvgl/src/widgets/lv_textarea.c **** {
 440:Drivers/lvgl/lvgl/src/widgets/lv_textarea.c ****     LV_ASSERT_OBJ(obj, MY_CLASS);
 441:Drivers/lvgl/lvgl/src/widgets/lv_textarea.c ****     LV_ASSERT_NULL(bullet);
 442:Drivers/lvgl/lvgl/src/widgets/lv_textarea.c **** 
 443:Drivers/lvgl/lvgl/src/widgets/lv_textarea.c ****     lv_textarea_t * ta = (lv_textarea_t *)obj;
 444:Drivers/lvgl/lvgl/src/widgets/lv_textarea.c **** 
 445:Drivers/lvgl/lvgl/src/widgets/lv_textarea.c ****     if(!bullet && (ta->pwd_bullet)) {
 446:Drivers/lvgl/lvgl/src/widgets/lv_textarea.c ****         lv_mem_free(ta->pwd_bullet);
 447:Drivers/lvgl/lvgl/src/widgets/lv_textarea.c ****         ta->pwd_bullet = NULL;
 448:Drivers/lvgl/lvgl/src/widgets/lv_textarea.c ****     }
 449:Drivers/lvgl/lvgl/src/widgets/lv_textarea.c ****     else {
 450:Drivers/lvgl/lvgl/src/widgets/lv_textarea.c ****         size_t txt_len = strlen(bullet);
 451:Drivers/lvgl/lvgl/src/widgets/lv_textarea.c **** 
 452:Drivers/lvgl/lvgl/src/widgets/lv_textarea.c ****         /*Allocate memory for the pwd_bullet text*/
 453:Drivers/lvgl/lvgl/src/widgets/lv_textarea.c ****         /*NOTE: Using special realloc behavior, malloc-like when data_p is NULL*/
 454:Drivers/lvgl/lvgl/src/widgets/lv_textarea.c ****         ta->pwd_bullet = lv_mem_realloc(ta->pwd_bullet, txt_len + 1);
 455:Drivers/lvgl/lvgl/src/widgets/lv_textarea.c ****         LV_ASSERT_MALLOC(ta->pwd_bullet);
 456:Drivers/lvgl/lvgl/src/widgets/lv_textarea.c ****         if(ta->pwd_bullet == NULL) {
 457:Drivers/lvgl/lvgl/src/widgets/lv_textarea.c ****             LV_LOG_ERROR("lv_textarea_set_password_bullet: couldn't allocate memory for bullet");
 458:Drivers/lvgl/lvgl/src/widgets/lv_textarea.c ****             return;
 459:Drivers/lvgl/lvgl/src/widgets/lv_textarea.c ****         }
 460:Drivers/lvgl/lvgl/src/widgets/lv_textarea.c **** 
 461:Drivers/lvgl/lvgl/src/widgets/lv_textarea.c ****         strcpy(ta->pwd_bullet, bullet);
 462:Drivers/lvgl/lvgl/src/widgets/lv_textarea.c ****         ta->pwd_bullet[txt_len] = '\0';
 463:Drivers/lvgl/lvgl/src/widgets/lv_textarea.c ****     }
 464:Drivers/lvgl/lvgl/src/widgets/lv_textarea.c **** 
 465:Drivers/lvgl/lvgl/src/widgets/lv_textarea.c ****     lv_obj_invalidate(obj);
 466:Drivers/lvgl/lvgl/src/widgets/lv_textarea.c **** }
 467:Drivers/lvgl/lvgl/src/widgets/lv_textarea.c **** 
 468:Drivers/lvgl/lvgl/src/widgets/lv_textarea.c **** void lv_textarea_set_one_line(lv_obj_t * obj, bool en)
 469:Drivers/lvgl/lvgl/src/widgets/lv_textarea.c **** {
 470:Drivers/lvgl/lvgl/src/widgets/lv_textarea.c ****     LV_ASSERT_OBJ(obj, MY_CLASS);
 471:Drivers/lvgl/lvgl/src/widgets/lv_textarea.c **** 
 472:Drivers/lvgl/lvgl/src/widgets/lv_textarea.c ****     lv_textarea_t * ta = (lv_textarea_t *)obj;
 473:Drivers/lvgl/lvgl/src/widgets/lv_textarea.c ****     if(ta->one_line == en) return;
 474:Drivers/lvgl/lvgl/src/widgets/lv_textarea.c **** 
 475:Drivers/lvgl/lvgl/src/widgets/lv_textarea.c ****     ta->one_line = en ? 1U : 0U;
 476:Drivers/lvgl/lvgl/src/widgets/lv_textarea.c ****     lv_coord_t width = en ? LV_SIZE_CONTENT : lv_pct(100);
 477:Drivers/lvgl/lvgl/src/widgets/lv_textarea.c ****     lv_coord_t min_width_value = en ? lv_pct(100) : 0;
 478:Drivers/lvgl/lvgl/src/widgets/lv_textarea.c **** 
 479:Drivers/lvgl/lvgl/src/widgets/lv_textarea.c ****     lv_obj_set_width(ta->label, width);
 480:Drivers/lvgl/lvgl/src/widgets/lv_textarea.c ****     lv_obj_set_style_min_width(ta->label, min_width_value, 0);
 481:Drivers/lvgl/lvgl/src/widgets/lv_textarea.c **** 
 482:Drivers/lvgl/lvgl/src/widgets/lv_textarea.c ****     if(en) {
 483:Drivers/lvgl/lvgl/src/widgets/lv_textarea.c ****         lv_obj_set_height(obj, LV_SIZE_CONTENT);
 484:Drivers/lvgl/lvgl/src/widgets/lv_textarea.c ****     }
 485:Drivers/lvgl/lvgl/src/widgets/lv_textarea.c ****     else {
 486:Drivers/lvgl/lvgl/src/widgets/lv_textarea.c ****         lv_obj_remove_local_style_prop(obj, LV_STYLE_HEIGHT, LV_PART_MAIN);
 487:Drivers/lvgl/lvgl/src/widgets/lv_textarea.c ****     }
 488:Drivers/lvgl/lvgl/src/widgets/lv_textarea.c **** 
 489:Drivers/lvgl/lvgl/src/widgets/lv_textarea.c ****     lv_obj_scroll_to(obj, 0, 0, LV_ANIM_OFF);
ARM GAS  /tmp/cchLtzqB.s 			page 10


 490:Drivers/lvgl/lvgl/src/widgets/lv_textarea.c **** }
 491:Drivers/lvgl/lvgl/src/widgets/lv_textarea.c **** 
 492:Drivers/lvgl/lvgl/src/widgets/lv_textarea.c **** void lv_textarea_set_accepted_chars(lv_obj_t * obj, const char * list)
 493:Drivers/lvgl/lvgl/src/widgets/lv_textarea.c **** {
 494:Drivers/lvgl/lvgl/src/widgets/lv_textarea.c ****     LV_ASSERT_OBJ(obj, MY_CLASS);
 495:Drivers/lvgl/lvgl/src/widgets/lv_textarea.c **** 
 496:Drivers/lvgl/lvgl/src/widgets/lv_textarea.c ****     lv_textarea_t * ta = (lv_textarea_t *)obj;
 497:Drivers/lvgl/lvgl/src/widgets/lv_textarea.c **** 
 498:Drivers/lvgl/lvgl/src/widgets/lv_textarea.c ****     ta->accepted_chars = list;
 499:Drivers/lvgl/lvgl/src/widgets/lv_textarea.c **** }
 500:Drivers/lvgl/lvgl/src/widgets/lv_textarea.c **** 
 501:Drivers/lvgl/lvgl/src/widgets/lv_textarea.c **** void lv_textarea_set_max_length(lv_obj_t * obj, uint32_t num)
 502:Drivers/lvgl/lvgl/src/widgets/lv_textarea.c **** {
 503:Drivers/lvgl/lvgl/src/widgets/lv_textarea.c ****     LV_ASSERT_OBJ(obj, MY_CLASS);
 504:Drivers/lvgl/lvgl/src/widgets/lv_textarea.c **** 
 505:Drivers/lvgl/lvgl/src/widgets/lv_textarea.c ****     lv_textarea_t * ta = (lv_textarea_t *)obj;
 506:Drivers/lvgl/lvgl/src/widgets/lv_textarea.c **** 
 507:Drivers/lvgl/lvgl/src/widgets/lv_textarea.c ****     ta->max_length = num;
 508:Drivers/lvgl/lvgl/src/widgets/lv_textarea.c **** }
 509:Drivers/lvgl/lvgl/src/widgets/lv_textarea.c **** 
 510:Drivers/lvgl/lvgl/src/widgets/lv_textarea.c **** void lv_textarea_set_insert_replace(lv_obj_t * obj, const char * txt)
 511:Drivers/lvgl/lvgl/src/widgets/lv_textarea.c **** {
 512:Drivers/lvgl/lvgl/src/widgets/lv_textarea.c ****     LV_ASSERT_OBJ(obj, MY_CLASS);
 513:Drivers/lvgl/lvgl/src/widgets/lv_textarea.c **** 
 514:Drivers/lvgl/lvgl/src/widgets/lv_textarea.c ****     LV_UNUSED(obj);
 515:Drivers/lvgl/lvgl/src/widgets/lv_textarea.c ****     ta_insert_replace = txt;
 516:Drivers/lvgl/lvgl/src/widgets/lv_textarea.c **** }
 517:Drivers/lvgl/lvgl/src/widgets/lv_textarea.c **** 
 518:Drivers/lvgl/lvgl/src/widgets/lv_textarea.c **** void lv_textarea_set_text_selection(lv_obj_t * obj, bool en)
 519:Drivers/lvgl/lvgl/src/widgets/lv_textarea.c **** {
 520:Drivers/lvgl/lvgl/src/widgets/lv_textarea.c ****     LV_ASSERT_OBJ(obj, MY_CLASS);
 521:Drivers/lvgl/lvgl/src/widgets/lv_textarea.c **** 
 522:Drivers/lvgl/lvgl/src/widgets/lv_textarea.c **** #if LV_LABEL_TEXT_SELECTION
 523:Drivers/lvgl/lvgl/src/widgets/lv_textarea.c ****     lv_textarea_t * ta = (lv_textarea_t *)obj;
 524:Drivers/lvgl/lvgl/src/widgets/lv_textarea.c **** 
 525:Drivers/lvgl/lvgl/src/widgets/lv_textarea.c ****     ta->text_sel_en = en;
 526:Drivers/lvgl/lvgl/src/widgets/lv_textarea.c **** 
 527:Drivers/lvgl/lvgl/src/widgets/lv_textarea.c ****     if(!en) lv_textarea_clear_selection(obj);
 528:Drivers/lvgl/lvgl/src/widgets/lv_textarea.c **** #else
 529:Drivers/lvgl/lvgl/src/widgets/lv_textarea.c ****     LV_UNUSED(obj); /*Unused*/
 530:Drivers/lvgl/lvgl/src/widgets/lv_textarea.c ****     LV_UNUSED(en);  /*Unused*/
 531:Drivers/lvgl/lvgl/src/widgets/lv_textarea.c **** #endif
 532:Drivers/lvgl/lvgl/src/widgets/lv_textarea.c **** }
 533:Drivers/lvgl/lvgl/src/widgets/lv_textarea.c **** 
 534:Drivers/lvgl/lvgl/src/widgets/lv_textarea.c **** void lv_textarea_set_password_show_time(lv_obj_t * obj, uint16_t time)
 535:Drivers/lvgl/lvgl/src/widgets/lv_textarea.c **** {
 536:Drivers/lvgl/lvgl/src/widgets/lv_textarea.c ****     LV_ASSERT_OBJ(obj, MY_CLASS);
 537:Drivers/lvgl/lvgl/src/widgets/lv_textarea.c **** 
 538:Drivers/lvgl/lvgl/src/widgets/lv_textarea.c ****     lv_textarea_t * ta = (lv_textarea_t *)obj;
 539:Drivers/lvgl/lvgl/src/widgets/lv_textarea.c ****     ta->pwd_show_time = time;
 540:Drivers/lvgl/lvgl/src/widgets/lv_textarea.c **** }
 541:Drivers/lvgl/lvgl/src/widgets/lv_textarea.c **** 
 542:Drivers/lvgl/lvgl/src/widgets/lv_textarea.c **** void lv_textarea_set_align(lv_obj_t * obj, lv_text_align_t align)
 543:Drivers/lvgl/lvgl/src/widgets/lv_textarea.c **** {
 544:Drivers/lvgl/lvgl/src/widgets/lv_textarea.c ****     LV_LOG_WARN("Deprecated: use the normal text_align style property instead");
 545:Drivers/lvgl/lvgl/src/widgets/lv_textarea.c ****     lv_obj_set_style_text_align(obj, align, 0);
 546:Drivers/lvgl/lvgl/src/widgets/lv_textarea.c **** 
ARM GAS  /tmp/cchLtzqB.s 			page 11


 547:Drivers/lvgl/lvgl/src/widgets/lv_textarea.c ****     switch(align) {
 548:Drivers/lvgl/lvgl/src/widgets/lv_textarea.c ****         default:
 549:Drivers/lvgl/lvgl/src/widgets/lv_textarea.c ****         case LV_TEXT_ALIGN_LEFT:
 550:Drivers/lvgl/lvgl/src/widgets/lv_textarea.c ****             lv_obj_align(lv_textarea_get_label(obj), LV_ALIGN_TOP_LEFT, 0, 0);
 551:Drivers/lvgl/lvgl/src/widgets/lv_textarea.c ****             break;
 552:Drivers/lvgl/lvgl/src/widgets/lv_textarea.c ****         case LV_TEXT_ALIGN_RIGHT:
 553:Drivers/lvgl/lvgl/src/widgets/lv_textarea.c ****             lv_obj_align(lv_textarea_get_label(obj), LV_ALIGN_TOP_RIGHT, 0, 0);
 554:Drivers/lvgl/lvgl/src/widgets/lv_textarea.c ****             break;
 555:Drivers/lvgl/lvgl/src/widgets/lv_textarea.c ****         case LV_TEXT_ALIGN_CENTER:
 556:Drivers/lvgl/lvgl/src/widgets/lv_textarea.c ****             lv_obj_align(lv_textarea_get_label(obj), LV_ALIGN_TOP_MID, 0, 0);
 557:Drivers/lvgl/lvgl/src/widgets/lv_textarea.c ****             break;
 558:Drivers/lvgl/lvgl/src/widgets/lv_textarea.c ****     }
 559:Drivers/lvgl/lvgl/src/widgets/lv_textarea.c **** }
 560:Drivers/lvgl/lvgl/src/widgets/lv_textarea.c **** 
 561:Drivers/lvgl/lvgl/src/widgets/lv_textarea.c **** /*=====================
 562:Drivers/lvgl/lvgl/src/widgets/lv_textarea.c ****  * Getter functions
 563:Drivers/lvgl/lvgl/src/widgets/lv_textarea.c ****  *====================*/
 564:Drivers/lvgl/lvgl/src/widgets/lv_textarea.c **** 
 565:Drivers/lvgl/lvgl/src/widgets/lv_textarea.c **** const char * lv_textarea_get_text(const lv_obj_t * obj)
 566:Drivers/lvgl/lvgl/src/widgets/lv_textarea.c **** {
 567:Drivers/lvgl/lvgl/src/widgets/lv_textarea.c ****     LV_ASSERT_OBJ(obj, MY_CLASS);
 568:Drivers/lvgl/lvgl/src/widgets/lv_textarea.c **** 
 569:Drivers/lvgl/lvgl/src/widgets/lv_textarea.c ****     lv_textarea_t * ta = (lv_textarea_t *)obj;
 570:Drivers/lvgl/lvgl/src/widgets/lv_textarea.c **** 
 571:Drivers/lvgl/lvgl/src/widgets/lv_textarea.c ****     const char * txt;
 572:Drivers/lvgl/lvgl/src/widgets/lv_textarea.c ****     if(ta->pwd_mode == 0) {
 573:Drivers/lvgl/lvgl/src/widgets/lv_textarea.c ****         txt = lv_label_get_text(ta->label);
 574:Drivers/lvgl/lvgl/src/widgets/lv_textarea.c ****     }
 575:Drivers/lvgl/lvgl/src/widgets/lv_textarea.c ****     else {
 576:Drivers/lvgl/lvgl/src/widgets/lv_textarea.c ****         txt = ta->pwd_tmp;
 577:Drivers/lvgl/lvgl/src/widgets/lv_textarea.c ****     }
 578:Drivers/lvgl/lvgl/src/widgets/lv_textarea.c **** 
 579:Drivers/lvgl/lvgl/src/widgets/lv_textarea.c ****     return txt;
 580:Drivers/lvgl/lvgl/src/widgets/lv_textarea.c **** }
 581:Drivers/lvgl/lvgl/src/widgets/lv_textarea.c **** 
 582:Drivers/lvgl/lvgl/src/widgets/lv_textarea.c **** const char * lv_textarea_get_placeholder_text(lv_obj_t * obj)
 583:Drivers/lvgl/lvgl/src/widgets/lv_textarea.c **** {
 584:Drivers/lvgl/lvgl/src/widgets/lv_textarea.c ****     LV_ASSERT_OBJ(obj, MY_CLASS);
 585:Drivers/lvgl/lvgl/src/widgets/lv_textarea.c **** 
 586:Drivers/lvgl/lvgl/src/widgets/lv_textarea.c ****     lv_textarea_t * ta = (lv_textarea_t *)obj;
 587:Drivers/lvgl/lvgl/src/widgets/lv_textarea.c ****     if(ta->placeholder_txt) return ta->placeholder_txt;
 588:Drivers/lvgl/lvgl/src/widgets/lv_textarea.c ****     else return "";
 589:Drivers/lvgl/lvgl/src/widgets/lv_textarea.c **** }
 590:Drivers/lvgl/lvgl/src/widgets/lv_textarea.c **** 
 591:Drivers/lvgl/lvgl/src/widgets/lv_textarea.c **** lv_obj_t * lv_textarea_get_label(const lv_obj_t * obj)
 592:Drivers/lvgl/lvgl/src/widgets/lv_textarea.c **** {
 593:Drivers/lvgl/lvgl/src/widgets/lv_textarea.c ****     LV_ASSERT_OBJ(obj, MY_CLASS);
 594:Drivers/lvgl/lvgl/src/widgets/lv_textarea.c **** 
 595:Drivers/lvgl/lvgl/src/widgets/lv_textarea.c ****     lv_textarea_t * ta = (lv_textarea_t *)obj;
 596:Drivers/lvgl/lvgl/src/widgets/lv_textarea.c ****     return ta->label;
 597:Drivers/lvgl/lvgl/src/widgets/lv_textarea.c **** }
 598:Drivers/lvgl/lvgl/src/widgets/lv_textarea.c **** 
 599:Drivers/lvgl/lvgl/src/widgets/lv_textarea.c **** uint32_t lv_textarea_get_cursor_pos(const lv_obj_t * obj)
 600:Drivers/lvgl/lvgl/src/widgets/lv_textarea.c **** {
 601:Drivers/lvgl/lvgl/src/widgets/lv_textarea.c ****     LV_ASSERT_OBJ(obj, MY_CLASS);
 602:Drivers/lvgl/lvgl/src/widgets/lv_textarea.c **** 
 603:Drivers/lvgl/lvgl/src/widgets/lv_textarea.c ****     lv_textarea_t * ta = (lv_textarea_t *)obj;
ARM GAS  /tmp/cchLtzqB.s 			page 12


 604:Drivers/lvgl/lvgl/src/widgets/lv_textarea.c ****     return ta->cursor.pos;
 605:Drivers/lvgl/lvgl/src/widgets/lv_textarea.c **** }
 606:Drivers/lvgl/lvgl/src/widgets/lv_textarea.c **** 
 607:Drivers/lvgl/lvgl/src/widgets/lv_textarea.c **** bool lv_textarea_get_cursor_click_pos(lv_obj_t * obj)
 608:Drivers/lvgl/lvgl/src/widgets/lv_textarea.c **** {
 609:Drivers/lvgl/lvgl/src/widgets/lv_textarea.c ****     LV_ASSERT_OBJ(obj, MY_CLASS);
 610:Drivers/lvgl/lvgl/src/widgets/lv_textarea.c **** 
 611:Drivers/lvgl/lvgl/src/widgets/lv_textarea.c ****     lv_textarea_t * ta = (lv_textarea_t *)obj;
 612:Drivers/lvgl/lvgl/src/widgets/lv_textarea.c ****     return ta->cursor.click_pos ? true : false;
 613:Drivers/lvgl/lvgl/src/widgets/lv_textarea.c **** }
 614:Drivers/lvgl/lvgl/src/widgets/lv_textarea.c **** 
 615:Drivers/lvgl/lvgl/src/widgets/lv_textarea.c **** bool lv_textarea_get_password_mode(const lv_obj_t * obj)
 616:Drivers/lvgl/lvgl/src/widgets/lv_textarea.c **** {
 617:Drivers/lvgl/lvgl/src/widgets/lv_textarea.c ****     LV_ASSERT_OBJ(obj, MY_CLASS);
 618:Drivers/lvgl/lvgl/src/widgets/lv_textarea.c **** 
 619:Drivers/lvgl/lvgl/src/widgets/lv_textarea.c ****     lv_textarea_t * ta = (lv_textarea_t *)obj;
 620:Drivers/lvgl/lvgl/src/widgets/lv_textarea.c ****     return ta->pwd_mode == 1U;
 621:Drivers/lvgl/lvgl/src/widgets/lv_textarea.c **** }
 622:Drivers/lvgl/lvgl/src/widgets/lv_textarea.c **** 
 623:Drivers/lvgl/lvgl/src/widgets/lv_textarea.c **** const char * lv_textarea_get_password_bullet(lv_obj_t * obj)
 624:Drivers/lvgl/lvgl/src/widgets/lv_textarea.c **** {
 625:Drivers/lvgl/lvgl/src/widgets/lv_textarea.c ****     LV_ASSERT_OBJ(obj, MY_CLASS);
 626:Drivers/lvgl/lvgl/src/widgets/lv_textarea.c **** 
 627:Drivers/lvgl/lvgl/src/widgets/lv_textarea.c ****     lv_textarea_t * ta = (lv_textarea_t *)obj;
 628:Drivers/lvgl/lvgl/src/widgets/lv_textarea.c **** 
 629:Drivers/lvgl/lvgl/src/widgets/lv_textarea.c ****     if(ta->pwd_bullet) return ta->pwd_bullet;
 630:Drivers/lvgl/lvgl/src/widgets/lv_textarea.c **** 
 631:Drivers/lvgl/lvgl/src/widgets/lv_textarea.c ****     lv_font_glyph_dsc_t g;
 632:Drivers/lvgl/lvgl/src/widgets/lv_textarea.c ****     const lv_font_t * font = lv_obj_get_style_text_font(obj, LV_PART_MAIN);
 633:Drivers/lvgl/lvgl/src/widgets/lv_textarea.c **** 
 634:Drivers/lvgl/lvgl/src/widgets/lv_textarea.c ****     /*If the textarea's font has the bullet character use it else fallback to "*"*/
 635:Drivers/lvgl/lvgl/src/widgets/lv_textarea.c ****     if(lv_font_get_glyph_dsc(font, &g, LV_TEXTAREA_PWD_BULLET_UNICODE, 0))
 636:Drivers/lvgl/lvgl/src/widgets/lv_textarea.c ****         return LV_SYMBOL_BULLET;
 637:Drivers/lvgl/lvgl/src/widgets/lv_textarea.c ****     return "*";
 638:Drivers/lvgl/lvgl/src/widgets/lv_textarea.c **** }
 639:Drivers/lvgl/lvgl/src/widgets/lv_textarea.c **** 
 640:Drivers/lvgl/lvgl/src/widgets/lv_textarea.c **** bool lv_textarea_get_one_line(const lv_obj_t * obj)
 641:Drivers/lvgl/lvgl/src/widgets/lv_textarea.c **** {
 642:Drivers/lvgl/lvgl/src/widgets/lv_textarea.c ****     LV_ASSERT_OBJ(obj, MY_CLASS);
 643:Drivers/lvgl/lvgl/src/widgets/lv_textarea.c **** 
 644:Drivers/lvgl/lvgl/src/widgets/lv_textarea.c ****     lv_textarea_t * ta = (lv_textarea_t *)obj;
 645:Drivers/lvgl/lvgl/src/widgets/lv_textarea.c ****     return ta->one_line == 1U;
 646:Drivers/lvgl/lvgl/src/widgets/lv_textarea.c **** }
 647:Drivers/lvgl/lvgl/src/widgets/lv_textarea.c **** 
 648:Drivers/lvgl/lvgl/src/widgets/lv_textarea.c **** const char * lv_textarea_get_accepted_chars(lv_obj_t * obj)
 649:Drivers/lvgl/lvgl/src/widgets/lv_textarea.c **** {
 650:Drivers/lvgl/lvgl/src/widgets/lv_textarea.c ****     LV_ASSERT_OBJ(obj, MY_CLASS);
 651:Drivers/lvgl/lvgl/src/widgets/lv_textarea.c **** 
 652:Drivers/lvgl/lvgl/src/widgets/lv_textarea.c ****     lv_textarea_t * ta = (lv_textarea_t *)obj;
 653:Drivers/lvgl/lvgl/src/widgets/lv_textarea.c **** 
 654:Drivers/lvgl/lvgl/src/widgets/lv_textarea.c ****     return ta->accepted_chars;
 655:Drivers/lvgl/lvgl/src/widgets/lv_textarea.c **** }
 656:Drivers/lvgl/lvgl/src/widgets/lv_textarea.c **** 
 657:Drivers/lvgl/lvgl/src/widgets/lv_textarea.c **** uint32_t lv_textarea_get_max_length(lv_obj_t * obj)
 658:Drivers/lvgl/lvgl/src/widgets/lv_textarea.c **** {
 659:Drivers/lvgl/lvgl/src/widgets/lv_textarea.c ****     LV_ASSERT_OBJ(obj, MY_CLASS);
 660:Drivers/lvgl/lvgl/src/widgets/lv_textarea.c **** 
ARM GAS  /tmp/cchLtzqB.s 			page 13


 661:Drivers/lvgl/lvgl/src/widgets/lv_textarea.c ****     lv_textarea_t * ta = (lv_textarea_t *)obj;
 662:Drivers/lvgl/lvgl/src/widgets/lv_textarea.c ****     return ta->max_length;
 663:Drivers/lvgl/lvgl/src/widgets/lv_textarea.c **** }
 664:Drivers/lvgl/lvgl/src/widgets/lv_textarea.c **** 
 665:Drivers/lvgl/lvgl/src/widgets/lv_textarea.c **** bool lv_textarea_text_is_selected(const lv_obj_t * obj)
 666:Drivers/lvgl/lvgl/src/widgets/lv_textarea.c **** {
 667:Drivers/lvgl/lvgl/src/widgets/lv_textarea.c ****     LV_ASSERT_OBJ(obj, MY_CLASS);
 668:Drivers/lvgl/lvgl/src/widgets/lv_textarea.c **** 
 669:Drivers/lvgl/lvgl/src/widgets/lv_textarea.c **** #if LV_LABEL_TEXT_SELECTION
 670:Drivers/lvgl/lvgl/src/widgets/lv_textarea.c ****     lv_textarea_t * ta = (lv_textarea_t *)obj;
 671:Drivers/lvgl/lvgl/src/widgets/lv_textarea.c **** 
 672:Drivers/lvgl/lvgl/src/widgets/lv_textarea.c ****     if((lv_label_get_text_selection_start(ta->label) != LV_DRAW_LABEL_NO_TXT_SEL ||
 673:Drivers/lvgl/lvgl/src/widgets/lv_textarea.c ****         lv_label_get_text_selection_end(ta->label) != LV_DRAW_LABEL_NO_TXT_SEL)) {
 674:Drivers/lvgl/lvgl/src/widgets/lv_textarea.c ****         return true;
 675:Drivers/lvgl/lvgl/src/widgets/lv_textarea.c ****     }
 676:Drivers/lvgl/lvgl/src/widgets/lv_textarea.c ****     else {
 677:Drivers/lvgl/lvgl/src/widgets/lv_textarea.c ****         return false;
 678:Drivers/lvgl/lvgl/src/widgets/lv_textarea.c ****     }
 679:Drivers/lvgl/lvgl/src/widgets/lv_textarea.c **** #else
 680:Drivers/lvgl/lvgl/src/widgets/lv_textarea.c ****     LV_UNUSED(obj); /*Unused*/
 681:Drivers/lvgl/lvgl/src/widgets/lv_textarea.c ****     return false;
 682:Drivers/lvgl/lvgl/src/widgets/lv_textarea.c **** #endif
 683:Drivers/lvgl/lvgl/src/widgets/lv_textarea.c **** }
 684:Drivers/lvgl/lvgl/src/widgets/lv_textarea.c **** 
 685:Drivers/lvgl/lvgl/src/widgets/lv_textarea.c **** bool lv_textarea_get_text_selection(lv_obj_t * obj)
 686:Drivers/lvgl/lvgl/src/widgets/lv_textarea.c **** {
 687:Drivers/lvgl/lvgl/src/widgets/lv_textarea.c ****     LV_ASSERT_OBJ(obj, MY_CLASS);
 688:Drivers/lvgl/lvgl/src/widgets/lv_textarea.c **** 
 689:Drivers/lvgl/lvgl/src/widgets/lv_textarea.c **** #if LV_LABEL_TEXT_SELECTION
 690:Drivers/lvgl/lvgl/src/widgets/lv_textarea.c ****     lv_textarea_t * ta = (lv_textarea_t *)obj;
 691:Drivers/lvgl/lvgl/src/widgets/lv_textarea.c ****     return ta->text_sel_en;
 692:Drivers/lvgl/lvgl/src/widgets/lv_textarea.c **** #else
 693:Drivers/lvgl/lvgl/src/widgets/lv_textarea.c ****     LV_UNUSED(obj); /*Unused*/
 694:Drivers/lvgl/lvgl/src/widgets/lv_textarea.c ****     return false;
 695:Drivers/lvgl/lvgl/src/widgets/lv_textarea.c **** #endif
 696:Drivers/lvgl/lvgl/src/widgets/lv_textarea.c **** }
 697:Drivers/lvgl/lvgl/src/widgets/lv_textarea.c **** 
 698:Drivers/lvgl/lvgl/src/widgets/lv_textarea.c **** uint16_t lv_textarea_get_password_show_time(lv_obj_t * obj)
 699:Drivers/lvgl/lvgl/src/widgets/lv_textarea.c **** {
 700:Drivers/lvgl/lvgl/src/widgets/lv_textarea.c ****     LV_ASSERT_OBJ(obj, MY_CLASS);
 701:Drivers/lvgl/lvgl/src/widgets/lv_textarea.c **** 
 702:Drivers/lvgl/lvgl/src/widgets/lv_textarea.c ****     lv_textarea_t * ta = (lv_textarea_t *)obj;
 703:Drivers/lvgl/lvgl/src/widgets/lv_textarea.c **** 
 704:Drivers/lvgl/lvgl/src/widgets/lv_textarea.c ****     return ta->pwd_show_time;
 705:Drivers/lvgl/lvgl/src/widgets/lv_textarea.c **** }
 706:Drivers/lvgl/lvgl/src/widgets/lv_textarea.c **** 
 707:Drivers/lvgl/lvgl/src/widgets/lv_textarea.c **** /*=====================
 708:Drivers/lvgl/lvgl/src/widgets/lv_textarea.c ****  * Other functions
 709:Drivers/lvgl/lvgl/src/widgets/lv_textarea.c ****  *====================*/
 710:Drivers/lvgl/lvgl/src/widgets/lv_textarea.c **** 
 711:Drivers/lvgl/lvgl/src/widgets/lv_textarea.c **** void lv_textarea_clear_selection(lv_obj_t * obj)
 712:Drivers/lvgl/lvgl/src/widgets/lv_textarea.c **** {
 713:Drivers/lvgl/lvgl/src/widgets/lv_textarea.c ****     LV_ASSERT_OBJ(obj, MY_CLASS);
 714:Drivers/lvgl/lvgl/src/widgets/lv_textarea.c **** 
 715:Drivers/lvgl/lvgl/src/widgets/lv_textarea.c **** #if LV_LABEL_TEXT_SELECTION
 716:Drivers/lvgl/lvgl/src/widgets/lv_textarea.c ****     lv_textarea_t * ta = (lv_textarea_t *)obj;
 717:Drivers/lvgl/lvgl/src/widgets/lv_textarea.c **** 
ARM GAS  /tmp/cchLtzqB.s 			page 14


 718:Drivers/lvgl/lvgl/src/widgets/lv_textarea.c ****     if(lv_label_get_text_selection_start(ta->label) != LV_DRAW_LABEL_NO_TXT_SEL ||
 719:Drivers/lvgl/lvgl/src/widgets/lv_textarea.c ****        lv_label_get_text_selection_end(ta->label) != LV_DRAW_LABEL_NO_TXT_SEL) {
 720:Drivers/lvgl/lvgl/src/widgets/lv_textarea.c ****         lv_label_set_text_sel_start(ta->label, LV_DRAW_LABEL_NO_TXT_SEL);
 721:Drivers/lvgl/lvgl/src/widgets/lv_textarea.c ****         lv_label_set_text_sel_end(ta->label, LV_DRAW_LABEL_NO_TXT_SEL);
 722:Drivers/lvgl/lvgl/src/widgets/lv_textarea.c ****     }
 723:Drivers/lvgl/lvgl/src/widgets/lv_textarea.c **** #else
 724:Drivers/lvgl/lvgl/src/widgets/lv_textarea.c ****     LV_UNUSED(obj); /*Unused*/
 725:Drivers/lvgl/lvgl/src/widgets/lv_textarea.c **** #endif
 726:Drivers/lvgl/lvgl/src/widgets/lv_textarea.c **** }
 727:Drivers/lvgl/lvgl/src/widgets/lv_textarea.c **** 
 728:Drivers/lvgl/lvgl/src/widgets/lv_textarea.c **** void lv_textarea_cursor_right(lv_obj_t * obj)
 729:Drivers/lvgl/lvgl/src/widgets/lv_textarea.c **** {
 730:Drivers/lvgl/lvgl/src/widgets/lv_textarea.c ****     LV_ASSERT_OBJ(obj, MY_CLASS);
 731:Drivers/lvgl/lvgl/src/widgets/lv_textarea.c **** 
 732:Drivers/lvgl/lvgl/src/widgets/lv_textarea.c ****     uint32_t cp = lv_textarea_get_cursor_pos(obj);
 733:Drivers/lvgl/lvgl/src/widgets/lv_textarea.c ****     cp++;
 734:Drivers/lvgl/lvgl/src/widgets/lv_textarea.c ****     lv_textarea_set_cursor_pos(obj, cp);
 735:Drivers/lvgl/lvgl/src/widgets/lv_textarea.c **** }
 736:Drivers/lvgl/lvgl/src/widgets/lv_textarea.c **** 
 737:Drivers/lvgl/lvgl/src/widgets/lv_textarea.c **** void lv_textarea_cursor_left(lv_obj_t * obj)
 738:Drivers/lvgl/lvgl/src/widgets/lv_textarea.c **** {
 739:Drivers/lvgl/lvgl/src/widgets/lv_textarea.c ****     LV_ASSERT_OBJ(obj, MY_CLASS);
 740:Drivers/lvgl/lvgl/src/widgets/lv_textarea.c **** 
 741:Drivers/lvgl/lvgl/src/widgets/lv_textarea.c ****     uint32_t cp = lv_textarea_get_cursor_pos(obj);
 742:Drivers/lvgl/lvgl/src/widgets/lv_textarea.c ****     if(cp > 0) {
 743:Drivers/lvgl/lvgl/src/widgets/lv_textarea.c ****         cp--;
 744:Drivers/lvgl/lvgl/src/widgets/lv_textarea.c ****         lv_textarea_set_cursor_pos(obj, cp);
 745:Drivers/lvgl/lvgl/src/widgets/lv_textarea.c ****     }
 746:Drivers/lvgl/lvgl/src/widgets/lv_textarea.c **** }
 747:Drivers/lvgl/lvgl/src/widgets/lv_textarea.c **** 
 748:Drivers/lvgl/lvgl/src/widgets/lv_textarea.c **** void lv_textarea_cursor_down(lv_obj_t * obj)
 749:Drivers/lvgl/lvgl/src/widgets/lv_textarea.c **** {
 750:Drivers/lvgl/lvgl/src/widgets/lv_textarea.c ****     LV_ASSERT_OBJ(obj, MY_CLASS);
 751:Drivers/lvgl/lvgl/src/widgets/lv_textarea.c **** 
 752:Drivers/lvgl/lvgl/src/widgets/lv_textarea.c ****     lv_textarea_t * ta = (lv_textarea_t *)obj;
 753:Drivers/lvgl/lvgl/src/widgets/lv_textarea.c ****     lv_point_t pos;
 754:Drivers/lvgl/lvgl/src/widgets/lv_textarea.c **** 
 755:Drivers/lvgl/lvgl/src/widgets/lv_textarea.c ****     /*Get the position of the current letter*/
 756:Drivers/lvgl/lvgl/src/widgets/lv_textarea.c ****     lv_label_get_letter_pos(ta->label, lv_textarea_get_cursor_pos(obj), &pos);
 757:Drivers/lvgl/lvgl/src/widgets/lv_textarea.c **** 
 758:Drivers/lvgl/lvgl/src/widgets/lv_textarea.c ****     /*Increment the y with one line and keep the valid x*/
 759:Drivers/lvgl/lvgl/src/widgets/lv_textarea.c **** 
 760:Drivers/lvgl/lvgl/src/widgets/lv_textarea.c ****     lv_coord_t line_space = lv_obj_get_style_text_line_space(obj, LV_PART_MAIN);
 761:Drivers/lvgl/lvgl/src/widgets/lv_textarea.c ****     const lv_font_t * font = lv_obj_get_style_text_font(obj, LV_PART_MAIN);
 762:Drivers/lvgl/lvgl/src/widgets/lv_textarea.c ****     lv_coord_t font_h              = lv_font_get_line_height(font);
 763:Drivers/lvgl/lvgl/src/widgets/lv_textarea.c ****     pos.y += font_h + line_space + 1;
 764:Drivers/lvgl/lvgl/src/widgets/lv_textarea.c ****     pos.x = ta->cursor.valid_x;
 765:Drivers/lvgl/lvgl/src/widgets/lv_textarea.c **** 
 766:Drivers/lvgl/lvgl/src/widgets/lv_textarea.c ****     /*Do not go below the last line*/
 767:Drivers/lvgl/lvgl/src/widgets/lv_textarea.c ****     if(pos.y < lv_obj_get_height(ta->label)) {
 768:Drivers/lvgl/lvgl/src/widgets/lv_textarea.c ****         /*Get the letter index on the new cursor position and set it*/
 769:Drivers/lvgl/lvgl/src/widgets/lv_textarea.c ****         uint32_t new_cur_pos = lv_label_get_letter_on(ta->label, &pos);
 770:Drivers/lvgl/lvgl/src/widgets/lv_textarea.c **** 
 771:Drivers/lvgl/lvgl/src/widgets/lv_textarea.c ****         lv_coord_t cur_valid_x_tmp = ta->cursor.valid_x; /*Cursor position set overwrites the valid
 772:Drivers/lvgl/lvgl/src/widgets/lv_textarea.c ****         lv_textarea_set_cursor_pos(obj, new_cur_pos);
 773:Drivers/lvgl/lvgl/src/widgets/lv_textarea.c ****         ta->cursor.valid_x = cur_valid_x_tmp;
 774:Drivers/lvgl/lvgl/src/widgets/lv_textarea.c ****     }
ARM GAS  /tmp/cchLtzqB.s 			page 15


 775:Drivers/lvgl/lvgl/src/widgets/lv_textarea.c **** }
 776:Drivers/lvgl/lvgl/src/widgets/lv_textarea.c **** 
 777:Drivers/lvgl/lvgl/src/widgets/lv_textarea.c **** void lv_textarea_cursor_up(lv_obj_t * obj)
 778:Drivers/lvgl/lvgl/src/widgets/lv_textarea.c **** {
 779:Drivers/lvgl/lvgl/src/widgets/lv_textarea.c ****     LV_ASSERT_OBJ(obj, MY_CLASS);
 780:Drivers/lvgl/lvgl/src/widgets/lv_textarea.c **** 
 781:Drivers/lvgl/lvgl/src/widgets/lv_textarea.c ****     lv_textarea_t * ta = (lv_textarea_t *)obj;
 782:Drivers/lvgl/lvgl/src/widgets/lv_textarea.c ****     lv_point_t pos;
 783:Drivers/lvgl/lvgl/src/widgets/lv_textarea.c **** 
 784:Drivers/lvgl/lvgl/src/widgets/lv_textarea.c ****     /*Get the position of the current letter*/
 785:Drivers/lvgl/lvgl/src/widgets/lv_textarea.c ****     lv_label_get_letter_pos(ta->label, lv_textarea_get_cursor_pos(obj), &pos);
 786:Drivers/lvgl/lvgl/src/widgets/lv_textarea.c **** 
 787:Drivers/lvgl/lvgl/src/widgets/lv_textarea.c ****     /*Decrement the y with one line and keep the valid x*/
 788:Drivers/lvgl/lvgl/src/widgets/lv_textarea.c ****     lv_coord_t line_space = lv_obj_get_style_text_line_space(obj, LV_PART_MAIN);
 789:Drivers/lvgl/lvgl/src/widgets/lv_textarea.c ****     const lv_font_t * font = lv_obj_get_style_text_font(obj, LV_PART_MAIN);
 790:Drivers/lvgl/lvgl/src/widgets/lv_textarea.c ****     lv_coord_t font_h              = lv_font_get_line_height(font);
 791:Drivers/lvgl/lvgl/src/widgets/lv_textarea.c ****     pos.y -= font_h + line_space - 1;
 792:Drivers/lvgl/lvgl/src/widgets/lv_textarea.c ****     pos.x = ta->cursor.valid_x;
 793:Drivers/lvgl/lvgl/src/widgets/lv_textarea.c **** 
 794:Drivers/lvgl/lvgl/src/widgets/lv_textarea.c ****     /*Get the letter index on the new cursor position and set it*/
 795:Drivers/lvgl/lvgl/src/widgets/lv_textarea.c ****     uint32_t new_cur_pos       = lv_label_get_letter_on(ta->label, &pos);
 796:Drivers/lvgl/lvgl/src/widgets/lv_textarea.c ****     lv_coord_t cur_valid_x_tmp = ta->cursor.valid_x; /*Cursor position set overwrites the valid pos
 797:Drivers/lvgl/lvgl/src/widgets/lv_textarea.c ****     lv_textarea_set_cursor_pos(obj, new_cur_pos);
 798:Drivers/lvgl/lvgl/src/widgets/lv_textarea.c ****     ta->cursor.valid_x = cur_valid_x_tmp;
 799:Drivers/lvgl/lvgl/src/widgets/lv_textarea.c **** }
 800:Drivers/lvgl/lvgl/src/widgets/lv_textarea.c **** 
 801:Drivers/lvgl/lvgl/src/widgets/lv_textarea.c **** /**********************
 802:Drivers/lvgl/lvgl/src/widgets/lv_textarea.c ****  *   STATIC FUNCTIONS
 803:Drivers/lvgl/lvgl/src/widgets/lv_textarea.c ****  **********************/
 804:Drivers/lvgl/lvgl/src/widgets/lv_textarea.c **** 
 805:Drivers/lvgl/lvgl/src/widgets/lv_textarea.c **** static void lv_textarea_constructor(const lv_obj_class_t * class_p, lv_obj_t * obj)
 806:Drivers/lvgl/lvgl/src/widgets/lv_textarea.c **** {
 807:Drivers/lvgl/lvgl/src/widgets/lv_textarea.c ****     LV_UNUSED(class_p);
 808:Drivers/lvgl/lvgl/src/widgets/lv_textarea.c ****     LV_TRACE_OBJ_CREATE("begin");
 809:Drivers/lvgl/lvgl/src/widgets/lv_textarea.c **** 
 810:Drivers/lvgl/lvgl/src/widgets/lv_textarea.c ****     lv_textarea_t * ta = (lv_textarea_t *)obj;
 811:Drivers/lvgl/lvgl/src/widgets/lv_textarea.c **** 
 812:Drivers/lvgl/lvgl/src/widgets/lv_textarea.c ****     ta->pwd_mode          = 0;
 813:Drivers/lvgl/lvgl/src/widgets/lv_textarea.c ****     ta->pwd_tmp           = NULL;
 814:Drivers/lvgl/lvgl/src/widgets/lv_textarea.c ****     ta->pwd_bullet        = NULL;
 815:Drivers/lvgl/lvgl/src/widgets/lv_textarea.c ****     ta->pwd_show_time     = LV_TEXTAREA_DEF_PWD_SHOW_TIME;
 816:Drivers/lvgl/lvgl/src/widgets/lv_textarea.c ****     ta->accepted_chars    = NULL;
 817:Drivers/lvgl/lvgl/src/widgets/lv_textarea.c ****     ta->max_length        = 0;
 818:Drivers/lvgl/lvgl/src/widgets/lv_textarea.c ****     ta->cursor.show      = 1;
 819:Drivers/lvgl/lvgl/src/widgets/lv_textarea.c ****     /*It will be set to zero later (with zero value lv_textarea_set_cursor_pos(obj, 0); wouldn't do
 820:Drivers/lvgl/lvgl/src/widgets/lv_textarea.c ****     ta->cursor.pos        = 1;
 821:Drivers/lvgl/lvgl/src/widgets/lv_textarea.c ****     ta->cursor.click_pos  = 1;
 822:Drivers/lvgl/lvgl/src/widgets/lv_textarea.c ****     ta->cursor.valid_x    = 0;
 823:Drivers/lvgl/lvgl/src/widgets/lv_textarea.c ****     ta->one_line          = 0;
 824:Drivers/lvgl/lvgl/src/widgets/lv_textarea.c **** #if LV_LABEL_TEXT_SELECTION
 825:Drivers/lvgl/lvgl/src/widgets/lv_textarea.c ****     ta->text_sel_en = 0;
 826:Drivers/lvgl/lvgl/src/widgets/lv_textarea.c **** #endif
 827:Drivers/lvgl/lvgl/src/widgets/lv_textarea.c ****     ta->label       = NULL;
 828:Drivers/lvgl/lvgl/src/widgets/lv_textarea.c ****     ta->placeholder_txt = NULL;
 829:Drivers/lvgl/lvgl/src/widgets/lv_textarea.c **** 
 830:Drivers/lvgl/lvgl/src/widgets/lv_textarea.c ****     ta->label = lv_label_create(obj);
 831:Drivers/lvgl/lvgl/src/widgets/lv_textarea.c ****     lv_obj_set_width(ta->label, lv_pct(100));
ARM GAS  /tmp/cchLtzqB.s 			page 16


 832:Drivers/lvgl/lvgl/src/widgets/lv_textarea.c ****     lv_label_set_text(ta->label, "");
 833:Drivers/lvgl/lvgl/src/widgets/lv_textarea.c ****     lv_obj_add_event_cb(ta->label, label_event_cb, LV_EVENT_ALL, NULL);
 834:Drivers/lvgl/lvgl/src/widgets/lv_textarea.c ****     lv_obj_add_flag(obj, LV_OBJ_FLAG_SCROLL_ON_FOCUS);
 835:Drivers/lvgl/lvgl/src/widgets/lv_textarea.c ****     lv_textarea_set_cursor_pos(obj, 0);
 836:Drivers/lvgl/lvgl/src/widgets/lv_textarea.c **** 
 837:Drivers/lvgl/lvgl/src/widgets/lv_textarea.c ****     start_cursor_blink(obj);
 838:Drivers/lvgl/lvgl/src/widgets/lv_textarea.c **** 
 839:Drivers/lvgl/lvgl/src/widgets/lv_textarea.c ****     LV_TRACE_OBJ_CREATE("finished");
 840:Drivers/lvgl/lvgl/src/widgets/lv_textarea.c **** }
 841:Drivers/lvgl/lvgl/src/widgets/lv_textarea.c **** 
 842:Drivers/lvgl/lvgl/src/widgets/lv_textarea.c **** static void lv_textarea_destructor(const lv_obj_class_t * class_p, lv_obj_t * obj)
 843:Drivers/lvgl/lvgl/src/widgets/lv_textarea.c **** {
 844:Drivers/lvgl/lvgl/src/widgets/lv_textarea.c ****     LV_UNUSED(class_p);
 845:Drivers/lvgl/lvgl/src/widgets/lv_textarea.c **** 
 846:Drivers/lvgl/lvgl/src/widgets/lv_textarea.c ****     lv_textarea_t * ta = (lv_textarea_t *)obj;
 847:Drivers/lvgl/lvgl/src/widgets/lv_textarea.c ****     if(ta->pwd_tmp != NULL) {
 848:Drivers/lvgl/lvgl/src/widgets/lv_textarea.c ****         lv_mem_free(ta->pwd_tmp);
 849:Drivers/lvgl/lvgl/src/widgets/lv_textarea.c ****         ta->pwd_tmp = NULL;
 850:Drivers/lvgl/lvgl/src/widgets/lv_textarea.c ****     }
 851:Drivers/lvgl/lvgl/src/widgets/lv_textarea.c ****     if(ta->pwd_bullet != NULL) {
 852:Drivers/lvgl/lvgl/src/widgets/lv_textarea.c ****         lv_mem_free(ta->pwd_bullet);
 853:Drivers/lvgl/lvgl/src/widgets/lv_textarea.c ****         ta->pwd_bullet = NULL;
 854:Drivers/lvgl/lvgl/src/widgets/lv_textarea.c ****     }
 855:Drivers/lvgl/lvgl/src/widgets/lv_textarea.c ****     if(ta->placeholder_txt != NULL) {
 856:Drivers/lvgl/lvgl/src/widgets/lv_textarea.c ****         lv_mem_free(ta->placeholder_txt);
 857:Drivers/lvgl/lvgl/src/widgets/lv_textarea.c ****         ta->placeholder_txt = NULL;
 858:Drivers/lvgl/lvgl/src/widgets/lv_textarea.c ****     }
 859:Drivers/lvgl/lvgl/src/widgets/lv_textarea.c **** }
 860:Drivers/lvgl/lvgl/src/widgets/lv_textarea.c **** 
 861:Drivers/lvgl/lvgl/src/widgets/lv_textarea.c **** static void lv_textarea_event(const lv_obj_class_t * class_p, lv_event_t * e)
 862:Drivers/lvgl/lvgl/src/widgets/lv_textarea.c **** {
 863:Drivers/lvgl/lvgl/src/widgets/lv_textarea.c ****     LV_UNUSED(class_p);
 864:Drivers/lvgl/lvgl/src/widgets/lv_textarea.c **** 
 865:Drivers/lvgl/lvgl/src/widgets/lv_textarea.c ****     lv_res_t res;
 866:Drivers/lvgl/lvgl/src/widgets/lv_textarea.c ****     /*Call the ancestor's event handler*/
 867:Drivers/lvgl/lvgl/src/widgets/lv_textarea.c ****     res = lv_obj_event_base(MY_CLASS, e);
 868:Drivers/lvgl/lvgl/src/widgets/lv_textarea.c ****     if(res != LV_RES_OK) return;
 869:Drivers/lvgl/lvgl/src/widgets/lv_textarea.c **** 
 870:Drivers/lvgl/lvgl/src/widgets/lv_textarea.c ****     lv_event_code_t code = lv_event_get_code(e);
 871:Drivers/lvgl/lvgl/src/widgets/lv_textarea.c ****     lv_obj_t * obj = lv_event_get_target(e);
 872:Drivers/lvgl/lvgl/src/widgets/lv_textarea.c **** 
 873:Drivers/lvgl/lvgl/src/widgets/lv_textarea.c ****     if(code == LV_EVENT_FOCUSED) {
 874:Drivers/lvgl/lvgl/src/widgets/lv_textarea.c ****         start_cursor_blink(obj);
 875:Drivers/lvgl/lvgl/src/widgets/lv_textarea.c ****     }
 876:Drivers/lvgl/lvgl/src/widgets/lv_textarea.c ****     else if(code == LV_EVENT_KEY) {
 877:Drivers/lvgl/lvgl/src/widgets/lv_textarea.c ****         uint32_t c = *((uint32_t *)lv_event_get_param(e)); /*uint32_t because can be UTF-8*/
 878:Drivers/lvgl/lvgl/src/widgets/lv_textarea.c ****         if(c == LV_KEY_RIGHT)
 879:Drivers/lvgl/lvgl/src/widgets/lv_textarea.c ****             lv_textarea_cursor_right(obj);
 880:Drivers/lvgl/lvgl/src/widgets/lv_textarea.c ****         else if(c == LV_KEY_LEFT)
 881:Drivers/lvgl/lvgl/src/widgets/lv_textarea.c ****             lv_textarea_cursor_left(obj);
 882:Drivers/lvgl/lvgl/src/widgets/lv_textarea.c ****         else if(c == LV_KEY_UP)
 883:Drivers/lvgl/lvgl/src/widgets/lv_textarea.c ****             lv_textarea_cursor_up(obj);
 884:Drivers/lvgl/lvgl/src/widgets/lv_textarea.c ****         else if(c == LV_KEY_DOWN)
 885:Drivers/lvgl/lvgl/src/widgets/lv_textarea.c ****             lv_textarea_cursor_down(obj);
 886:Drivers/lvgl/lvgl/src/widgets/lv_textarea.c ****         else if(c == LV_KEY_BACKSPACE)
 887:Drivers/lvgl/lvgl/src/widgets/lv_textarea.c ****             lv_textarea_del_char(obj);
 888:Drivers/lvgl/lvgl/src/widgets/lv_textarea.c ****         else if(c == LV_KEY_DEL)
ARM GAS  /tmp/cchLtzqB.s 			page 17


 889:Drivers/lvgl/lvgl/src/widgets/lv_textarea.c ****             lv_textarea_del_char_forward(obj);
 890:Drivers/lvgl/lvgl/src/widgets/lv_textarea.c ****         else if(c == LV_KEY_HOME)
 891:Drivers/lvgl/lvgl/src/widgets/lv_textarea.c ****             lv_textarea_set_cursor_pos(obj, 0);
 892:Drivers/lvgl/lvgl/src/widgets/lv_textarea.c ****         else if(c == LV_KEY_END)
 893:Drivers/lvgl/lvgl/src/widgets/lv_textarea.c ****             lv_textarea_set_cursor_pos(obj, LV_TEXTAREA_CURSOR_LAST);
 894:Drivers/lvgl/lvgl/src/widgets/lv_textarea.c ****         else if(c == LV_KEY_ENTER && lv_textarea_get_one_line(obj))
 895:Drivers/lvgl/lvgl/src/widgets/lv_textarea.c ****             lv_event_send(obj, LV_EVENT_READY, NULL);
 896:Drivers/lvgl/lvgl/src/widgets/lv_textarea.c ****         else {
 897:Drivers/lvgl/lvgl/src/widgets/lv_textarea.c ****             lv_textarea_add_char(obj, c);
 898:Drivers/lvgl/lvgl/src/widgets/lv_textarea.c ****         }
 899:Drivers/lvgl/lvgl/src/widgets/lv_textarea.c ****     }
 900:Drivers/lvgl/lvgl/src/widgets/lv_textarea.c ****     else if(code == LV_EVENT_PRESSED || code == LV_EVENT_PRESSING || code == LV_EVENT_PRESS_LOST ||
 901:Drivers/lvgl/lvgl/src/widgets/lv_textarea.c ****             code == LV_EVENT_RELEASED) {
 902:Drivers/lvgl/lvgl/src/widgets/lv_textarea.c ****         update_cursor_position_on_click(e);
 903:Drivers/lvgl/lvgl/src/widgets/lv_textarea.c ****     }
 904:Drivers/lvgl/lvgl/src/widgets/lv_textarea.c ****     else if(code == LV_EVENT_DRAW_MAIN) {
 905:Drivers/lvgl/lvgl/src/widgets/lv_textarea.c ****         draw_placeholder(e);
 906:Drivers/lvgl/lvgl/src/widgets/lv_textarea.c ****     }
 907:Drivers/lvgl/lvgl/src/widgets/lv_textarea.c ****     else if(code == LV_EVENT_DRAW_POST) {
 908:Drivers/lvgl/lvgl/src/widgets/lv_textarea.c ****         draw_cursor(e);
 909:Drivers/lvgl/lvgl/src/widgets/lv_textarea.c ****     }
 910:Drivers/lvgl/lvgl/src/widgets/lv_textarea.c **** }
 911:Drivers/lvgl/lvgl/src/widgets/lv_textarea.c **** 
 912:Drivers/lvgl/lvgl/src/widgets/lv_textarea.c **** static void label_event_cb(lv_event_t * e)
 913:Drivers/lvgl/lvgl/src/widgets/lv_textarea.c **** {
 914:Drivers/lvgl/lvgl/src/widgets/lv_textarea.c ****     lv_event_code_t code = lv_event_get_code(e);
 915:Drivers/lvgl/lvgl/src/widgets/lv_textarea.c ****     lv_obj_t * label = lv_event_get_target(e);
 916:Drivers/lvgl/lvgl/src/widgets/lv_textarea.c ****     lv_obj_t * ta = lv_obj_get_parent(label);
 917:Drivers/lvgl/lvgl/src/widgets/lv_textarea.c **** 
 918:Drivers/lvgl/lvgl/src/widgets/lv_textarea.c ****     if(code == LV_EVENT_STYLE_CHANGED || code == LV_EVENT_SIZE_CHANGED) {
 919:Drivers/lvgl/lvgl/src/widgets/lv_textarea.c ****         lv_label_set_text(label, NULL);
 920:Drivers/lvgl/lvgl/src/widgets/lv_textarea.c ****         refr_cursor_area(ta);
 921:Drivers/lvgl/lvgl/src/widgets/lv_textarea.c ****         start_cursor_blink(ta);
 922:Drivers/lvgl/lvgl/src/widgets/lv_textarea.c ****     }
 923:Drivers/lvgl/lvgl/src/widgets/lv_textarea.c **** }
 924:Drivers/lvgl/lvgl/src/widgets/lv_textarea.c **** 
 925:Drivers/lvgl/lvgl/src/widgets/lv_textarea.c **** 
 926:Drivers/lvgl/lvgl/src/widgets/lv_textarea.c **** 
 927:Drivers/lvgl/lvgl/src/widgets/lv_textarea.c **** /**
 928:Drivers/lvgl/lvgl/src/widgets/lv_textarea.c ****  * Called to blink the cursor
 929:Drivers/lvgl/lvgl/src/widgets/lv_textarea.c ****  * @param ta pointer to a text area
 930:Drivers/lvgl/lvgl/src/widgets/lv_textarea.c ****  * @param hide 1: hide the cursor, 0: show it
 931:Drivers/lvgl/lvgl/src/widgets/lv_textarea.c ****  */
 932:Drivers/lvgl/lvgl/src/widgets/lv_textarea.c **** static void cursor_blink_anim_cb(void * obj, int32_t show)
 933:Drivers/lvgl/lvgl/src/widgets/lv_textarea.c **** {
 934:Drivers/lvgl/lvgl/src/widgets/lv_textarea.c ****     lv_textarea_t * ta = (lv_textarea_t *)obj;
 935:Drivers/lvgl/lvgl/src/widgets/lv_textarea.c ****     if(show != ta->cursor.show) {
 936:Drivers/lvgl/lvgl/src/widgets/lv_textarea.c ****         ta->cursor.show = show ? 1U : 0U;
 937:Drivers/lvgl/lvgl/src/widgets/lv_textarea.c ****         lv_area_t area_tmp;
 938:Drivers/lvgl/lvgl/src/widgets/lv_textarea.c ****         lv_area_copy(&area_tmp, &ta->cursor.area);
 939:Drivers/lvgl/lvgl/src/widgets/lv_textarea.c ****         area_tmp.x1 += ta->label->coords.x1;
 940:Drivers/lvgl/lvgl/src/widgets/lv_textarea.c ****         area_tmp.y1 += ta->label->coords.y1;
 941:Drivers/lvgl/lvgl/src/widgets/lv_textarea.c ****         area_tmp.x2 += ta->label->coords.x1;
 942:Drivers/lvgl/lvgl/src/widgets/lv_textarea.c ****         area_tmp.y2 += ta->label->coords.y1;
 943:Drivers/lvgl/lvgl/src/widgets/lv_textarea.c ****         lv_obj_invalidate_area(obj, &area_tmp);
 944:Drivers/lvgl/lvgl/src/widgets/lv_textarea.c ****     }
 945:Drivers/lvgl/lvgl/src/widgets/lv_textarea.c **** }
ARM GAS  /tmp/cchLtzqB.s 			page 18


 946:Drivers/lvgl/lvgl/src/widgets/lv_textarea.c **** 
 947:Drivers/lvgl/lvgl/src/widgets/lv_textarea.c **** /**
 948:Drivers/lvgl/lvgl/src/widgets/lv_textarea.c ****  * Dummy function to animate char hiding in pwd mode.
 949:Drivers/lvgl/lvgl/src/widgets/lv_textarea.c ****  * Does nothing, but a function is required in car hiding anim.
 950:Drivers/lvgl/lvgl/src/widgets/lv_textarea.c ****  * (pwd_char_hider callback do the real job)
 951:Drivers/lvgl/lvgl/src/widgets/lv_textarea.c ****  * @param ta unused
 952:Drivers/lvgl/lvgl/src/widgets/lv_textarea.c ****  * @param x unused
 953:Drivers/lvgl/lvgl/src/widgets/lv_textarea.c ****  */
 954:Drivers/lvgl/lvgl/src/widgets/lv_textarea.c **** static void pwd_char_hider_anim(void * obj, int32_t x)
 955:Drivers/lvgl/lvgl/src/widgets/lv_textarea.c **** {
  26              		.loc 1 955 0
  27              		.cfi_startproc
  28              		@ args = 0, pretend = 0, frame = 0
  29              		@ frame_needed = 0, uses_anonymous_args = 0
  30              		@ link register save eliminated.
  31              	.LVL0:
 956:Drivers/lvgl/lvgl/src/widgets/lv_textarea.c ****     LV_UNUSED(obj);
 957:Drivers/lvgl/lvgl/src/widgets/lv_textarea.c ****     LV_UNUSED(x);
 958:Drivers/lvgl/lvgl/src/widgets/lv_textarea.c **** }
  32              		.loc 1 958 0
  33 0000 7047     		bx	lr
  34              		.cfi_endproc
  35              	.LFE200:
  37              		.section	.text.cursor_blink_anim_cb,"ax",%progbits
  38              		.align	1
  39              		.syntax unified
  40              		.thumb
  41              		.thumb_func
  42              		.fpu fpv5-d16
  44              	cursor_blink_anim_cb:
  45              	.LFB199:
 933:Drivers/lvgl/lvgl/src/widgets/lv_textarea.c ****     lv_textarea_t * ta = (lv_textarea_t *)obj;
  46              		.loc 1 933 0
  47              		.cfi_startproc
  48              		@ args = 0, pretend = 0, frame = 8
  49              		@ frame_needed = 0, uses_anonymous_args = 0
  50              	.LVL1:
 935:Drivers/lvgl/lvgl/src/widgets/lv_textarea.c ****         ta->cursor.show = show ? 1U : 0U;
  51              		.loc 1 935 0
  52 0000 90F85430 		ldrb	r3, [r0, #84]	@ zero_extendqisi2
  53 0004 03F00103 		and	r3, r3, #1
  54 0008 8B42     		cmp	r3, r1
  55 000a 27D0     		beq	.L7
 933:Drivers/lvgl/lvgl/src/widgets/lv_textarea.c ****     lv_textarea_t * ta = (lv_textarea_t *)obj;
  56              		.loc 1 933 0
  57 000c F0B5     		push	{r4, r5, r6, r7, lr}
  58              	.LCFI0:
  59              		.cfi_def_cfa_offset 20
  60              		.cfi_offset 4, -20
  61              		.cfi_offset 5, -16
  62              		.cfi_offset 6, -12
  63              		.cfi_offset 7, -8
  64              		.cfi_offset 14, -4
  65 000e 83B0     		sub	sp, sp, #12
  66              	.LCFI1:
  67              		.cfi_def_cfa_offset 32
  68              	.LBB106:
ARM GAS  /tmp/cchLtzqB.s 			page 19


 936:Drivers/lvgl/lvgl/src/widgets/lv_textarea.c ****         lv_area_t area_tmp;
  69              		.loc 1 936 0
  70 0010 11B3     		cbz	r1, .L5
  71 0012 0122     		movs	r2, #1
  72              	.L4:
 936:Drivers/lvgl/lvgl/src/widgets/lv_textarea.c ****         lv_area_t area_tmp;
  73              		.loc 1 936 0 is_stmt 0 discriminator 4
  74 0014 90F85430 		ldrb	r3, [r0, #84]	@ zero_extendqisi2
  75 0018 62F30003 		bfi	r3, r2, #0, #1
  76 001c 80F85430 		strb	r3, [r0, #84]
  77              	.LVL2:
  78              	.LBB107:
  79              	.LBB108:
  80              		.file 2 "Drivers/lvgl/lvgl/src/widgets/../core/../misc/../font/../misc/lv_area.h"
   1:Drivers/lvgl/lvgl/src/widgets/../core/../misc/../font/../misc/lv_area.h **** /**
   2:Drivers/lvgl/lvgl/src/widgets/../core/../misc/../font/../misc/lv_area.h ****  * @file lv_area.h
   3:Drivers/lvgl/lvgl/src/widgets/../core/../misc/../font/../misc/lv_area.h ****  *
   4:Drivers/lvgl/lvgl/src/widgets/../core/../misc/../font/../misc/lv_area.h ****  */
   5:Drivers/lvgl/lvgl/src/widgets/../core/../misc/../font/../misc/lv_area.h **** 
   6:Drivers/lvgl/lvgl/src/widgets/../core/../misc/../font/../misc/lv_area.h **** #ifndef LV_AREA_H
   7:Drivers/lvgl/lvgl/src/widgets/../core/../misc/../font/../misc/lv_area.h **** #define LV_AREA_H
   8:Drivers/lvgl/lvgl/src/widgets/../core/../misc/../font/../misc/lv_area.h **** 
   9:Drivers/lvgl/lvgl/src/widgets/../core/../misc/../font/../misc/lv_area.h **** #ifdef __cplusplus
  10:Drivers/lvgl/lvgl/src/widgets/../core/../misc/../font/../misc/lv_area.h **** extern "C" {
  11:Drivers/lvgl/lvgl/src/widgets/../core/../misc/../font/../misc/lv_area.h **** #endif
  12:Drivers/lvgl/lvgl/src/widgets/../core/../misc/../font/../misc/lv_area.h **** 
  13:Drivers/lvgl/lvgl/src/widgets/../core/../misc/../font/../misc/lv_area.h **** /*********************
  14:Drivers/lvgl/lvgl/src/widgets/../core/../misc/../font/../misc/lv_area.h ****  *      INCLUDES
  15:Drivers/lvgl/lvgl/src/widgets/../core/../misc/../font/../misc/lv_area.h ****  *********************/
  16:Drivers/lvgl/lvgl/src/widgets/../core/../misc/../font/../misc/lv_area.h **** #include "../lv_conf_internal.h"
  17:Drivers/lvgl/lvgl/src/widgets/../core/../misc/../font/../misc/lv_area.h **** #include <stdbool.h>
  18:Drivers/lvgl/lvgl/src/widgets/../core/../misc/../font/../misc/lv_area.h **** #include <stdint.h>
  19:Drivers/lvgl/lvgl/src/widgets/../core/../misc/../font/../misc/lv_area.h **** 
  20:Drivers/lvgl/lvgl/src/widgets/../core/../misc/../font/../misc/lv_area.h **** /*********************
  21:Drivers/lvgl/lvgl/src/widgets/../core/../misc/../font/../misc/lv_area.h ****  *      DEFINES
  22:Drivers/lvgl/lvgl/src/widgets/../core/../misc/../font/../misc/lv_area.h ****  *********************/
  23:Drivers/lvgl/lvgl/src/widgets/../core/../misc/../font/../misc/lv_area.h **** 
  24:Drivers/lvgl/lvgl/src/widgets/../core/../misc/../font/../misc/lv_area.h **** #if LV_USE_LARGE_COORD
  25:Drivers/lvgl/lvgl/src/widgets/../core/../misc/../font/../misc/lv_area.h **** typedef int32_t lv_coord_t;
  26:Drivers/lvgl/lvgl/src/widgets/../core/../misc/../font/../misc/lv_area.h **** #else
  27:Drivers/lvgl/lvgl/src/widgets/../core/../misc/../font/../misc/lv_area.h **** typedef int16_t lv_coord_t;
  28:Drivers/lvgl/lvgl/src/widgets/../core/../misc/../font/../misc/lv_area.h **** #endif
  29:Drivers/lvgl/lvgl/src/widgets/../core/../misc/../font/../misc/lv_area.h **** 
  30:Drivers/lvgl/lvgl/src/widgets/../core/../misc/../font/../misc/lv_area.h **** /**********************
  31:Drivers/lvgl/lvgl/src/widgets/../core/../misc/../font/../misc/lv_area.h ****  *      TYPEDEFS
  32:Drivers/lvgl/lvgl/src/widgets/../core/../misc/../font/../misc/lv_area.h ****  **********************/
  33:Drivers/lvgl/lvgl/src/widgets/../core/../misc/../font/../misc/lv_area.h **** 
  34:Drivers/lvgl/lvgl/src/widgets/../core/../misc/../font/../misc/lv_area.h **** /**
  35:Drivers/lvgl/lvgl/src/widgets/../core/../misc/../font/../misc/lv_area.h ****  * Represents a point on the screen.
  36:Drivers/lvgl/lvgl/src/widgets/../core/../misc/../font/../misc/lv_area.h ****  */
  37:Drivers/lvgl/lvgl/src/widgets/../core/../misc/../font/../misc/lv_area.h **** typedef struct {
  38:Drivers/lvgl/lvgl/src/widgets/../core/../misc/../font/../misc/lv_area.h ****     lv_coord_t x;
  39:Drivers/lvgl/lvgl/src/widgets/../core/../misc/../font/../misc/lv_area.h ****     lv_coord_t y;
  40:Drivers/lvgl/lvgl/src/widgets/../core/../misc/../font/../misc/lv_area.h **** } lv_point_t;
  41:Drivers/lvgl/lvgl/src/widgets/../core/../misc/../font/../misc/lv_area.h **** 
  42:Drivers/lvgl/lvgl/src/widgets/../core/../misc/../font/../misc/lv_area.h **** /** Represents an area of the screen.*/
  43:Drivers/lvgl/lvgl/src/widgets/../core/../misc/../font/../misc/lv_area.h **** typedef struct {
ARM GAS  /tmp/cchLtzqB.s 			page 20


  44:Drivers/lvgl/lvgl/src/widgets/../core/../misc/../font/../misc/lv_area.h ****     lv_coord_t x1;
  45:Drivers/lvgl/lvgl/src/widgets/../core/../misc/../font/../misc/lv_area.h ****     lv_coord_t y1;
  46:Drivers/lvgl/lvgl/src/widgets/../core/../misc/../font/../misc/lv_area.h ****     lv_coord_t x2;
  47:Drivers/lvgl/lvgl/src/widgets/../core/../misc/../font/../misc/lv_area.h ****     lv_coord_t y2;
  48:Drivers/lvgl/lvgl/src/widgets/../core/../misc/../font/../misc/lv_area.h **** } lv_area_t;
  49:Drivers/lvgl/lvgl/src/widgets/../core/../misc/../font/../misc/lv_area.h **** 
  50:Drivers/lvgl/lvgl/src/widgets/../core/../misc/../font/../misc/lv_area.h **** /** Alignments*/
  51:Drivers/lvgl/lvgl/src/widgets/../core/../misc/../font/../misc/lv_area.h **** enum {
  52:Drivers/lvgl/lvgl/src/widgets/../core/../misc/../font/../misc/lv_area.h ****     LV_ALIGN_DEFAULT = 0,
  53:Drivers/lvgl/lvgl/src/widgets/../core/../misc/../font/../misc/lv_area.h ****     LV_ALIGN_TOP_LEFT,
  54:Drivers/lvgl/lvgl/src/widgets/../core/../misc/../font/../misc/lv_area.h ****     LV_ALIGN_TOP_MID,
  55:Drivers/lvgl/lvgl/src/widgets/../core/../misc/../font/../misc/lv_area.h ****     LV_ALIGN_TOP_RIGHT,
  56:Drivers/lvgl/lvgl/src/widgets/../core/../misc/../font/../misc/lv_area.h ****     LV_ALIGN_BOTTOM_LEFT,
  57:Drivers/lvgl/lvgl/src/widgets/../core/../misc/../font/../misc/lv_area.h ****     LV_ALIGN_BOTTOM_MID,
  58:Drivers/lvgl/lvgl/src/widgets/../core/../misc/../font/../misc/lv_area.h ****     LV_ALIGN_BOTTOM_RIGHT,
  59:Drivers/lvgl/lvgl/src/widgets/../core/../misc/../font/../misc/lv_area.h ****     LV_ALIGN_LEFT_MID,
  60:Drivers/lvgl/lvgl/src/widgets/../core/../misc/../font/../misc/lv_area.h ****     LV_ALIGN_RIGHT_MID,
  61:Drivers/lvgl/lvgl/src/widgets/../core/../misc/../font/../misc/lv_area.h ****     LV_ALIGN_CENTER,
  62:Drivers/lvgl/lvgl/src/widgets/../core/../misc/../font/../misc/lv_area.h **** 
  63:Drivers/lvgl/lvgl/src/widgets/../core/../misc/../font/../misc/lv_area.h ****     LV_ALIGN_OUT_TOP_LEFT,
  64:Drivers/lvgl/lvgl/src/widgets/../core/../misc/../font/../misc/lv_area.h ****     LV_ALIGN_OUT_TOP_MID,
  65:Drivers/lvgl/lvgl/src/widgets/../core/../misc/../font/../misc/lv_area.h ****     LV_ALIGN_OUT_TOP_RIGHT,
  66:Drivers/lvgl/lvgl/src/widgets/../core/../misc/../font/../misc/lv_area.h ****     LV_ALIGN_OUT_BOTTOM_LEFT,
  67:Drivers/lvgl/lvgl/src/widgets/../core/../misc/../font/../misc/lv_area.h ****     LV_ALIGN_OUT_BOTTOM_MID,
  68:Drivers/lvgl/lvgl/src/widgets/../core/../misc/../font/../misc/lv_area.h ****     LV_ALIGN_OUT_BOTTOM_RIGHT,
  69:Drivers/lvgl/lvgl/src/widgets/../core/../misc/../font/../misc/lv_area.h ****     LV_ALIGN_OUT_LEFT_TOP,
  70:Drivers/lvgl/lvgl/src/widgets/../core/../misc/../font/../misc/lv_area.h ****     LV_ALIGN_OUT_LEFT_MID,
  71:Drivers/lvgl/lvgl/src/widgets/../core/../misc/../font/../misc/lv_area.h ****     LV_ALIGN_OUT_LEFT_BOTTOM,
  72:Drivers/lvgl/lvgl/src/widgets/../core/../misc/../font/../misc/lv_area.h ****     LV_ALIGN_OUT_RIGHT_TOP,
  73:Drivers/lvgl/lvgl/src/widgets/../core/../misc/../font/../misc/lv_area.h ****     LV_ALIGN_OUT_RIGHT_MID,
  74:Drivers/lvgl/lvgl/src/widgets/../core/../misc/../font/../misc/lv_area.h ****     LV_ALIGN_OUT_RIGHT_BOTTOM,
  75:Drivers/lvgl/lvgl/src/widgets/../core/../misc/../font/../misc/lv_area.h **** };
  76:Drivers/lvgl/lvgl/src/widgets/../core/../misc/../font/../misc/lv_area.h **** typedef uint8_t lv_align_t;
  77:Drivers/lvgl/lvgl/src/widgets/../core/../misc/../font/../misc/lv_area.h **** 
  78:Drivers/lvgl/lvgl/src/widgets/../core/../misc/../font/../misc/lv_area.h **** enum {
  79:Drivers/lvgl/lvgl/src/widgets/../core/../misc/../font/../misc/lv_area.h ****     LV_DIR_NONE     = 0x00,
  80:Drivers/lvgl/lvgl/src/widgets/../core/../misc/../font/../misc/lv_area.h ****     LV_DIR_LEFT     = (1 << 0),
  81:Drivers/lvgl/lvgl/src/widgets/../core/../misc/../font/../misc/lv_area.h ****     LV_DIR_RIGHT    = (1 << 1),
  82:Drivers/lvgl/lvgl/src/widgets/../core/../misc/../font/../misc/lv_area.h ****     LV_DIR_TOP      = (1 << 2),
  83:Drivers/lvgl/lvgl/src/widgets/../core/../misc/../font/../misc/lv_area.h ****     LV_DIR_BOTTOM   = (1 << 3),
  84:Drivers/lvgl/lvgl/src/widgets/../core/../misc/../font/../misc/lv_area.h ****     LV_DIR_HOR      = LV_DIR_LEFT | LV_DIR_RIGHT,
  85:Drivers/lvgl/lvgl/src/widgets/../core/../misc/../font/../misc/lv_area.h ****     LV_DIR_VER      = LV_DIR_TOP | LV_DIR_BOTTOM,
  86:Drivers/lvgl/lvgl/src/widgets/../core/../misc/../font/../misc/lv_area.h ****     LV_DIR_ALL      = LV_DIR_HOR | LV_DIR_VER,
  87:Drivers/lvgl/lvgl/src/widgets/../core/../misc/../font/../misc/lv_area.h **** };
  88:Drivers/lvgl/lvgl/src/widgets/../core/../misc/../font/../misc/lv_area.h **** 
  89:Drivers/lvgl/lvgl/src/widgets/../core/../misc/../font/../misc/lv_area.h **** typedef uint8_t lv_dir_t;
  90:Drivers/lvgl/lvgl/src/widgets/../core/../misc/../font/../misc/lv_area.h **** 
  91:Drivers/lvgl/lvgl/src/widgets/../core/../misc/../font/../misc/lv_area.h **** /**********************
  92:Drivers/lvgl/lvgl/src/widgets/../core/../misc/../font/../misc/lv_area.h ****  * GLOBAL PROTOTYPES
  93:Drivers/lvgl/lvgl/src/widgets/../core/../misc/../font/../misc/lv_area.h ****  **********************/
  94:Drivers/lvgl/lvgl/src/widgets/../core/../misc/../font/../misc/lv_area.h **** 
  95:Drivers/lvgl/lvgl/src/widgets/../core/../misc/../font/../misc/lv_area.h **** /**
  96:Drivers/lvgl/lvgl/src/widgets/../core/../misc/../font/../misc/lv_area.h ****  * Initialize an area
  97:Drivers/lvgl/lvgl/src/widgets/../core/../misc/../font/../misc/lv_area.h ****  * @param area_p pointer to an area
  98:Drivers/lvgl/lvgl/src/widgets/../core/../misc/../font/../misc/lv_area.h ****  * @param x1 left coordinate of the area
  99:Drivers/lvgl/lvgl/src/widgets/../core/../misc/../font/../misc/lv_area.h ****  * @param y1 top coordinate of the area
 100:Drivers/lvgl/lvgl/src/widgets/../core/../misc/../font/../misc/lv_area.h ****  * @param x2 right coordinate of the area
ARM GAS  /tmp/cchLtzqB.s 			page 21


 101:Drivers/lvgl/lvgl/src/widgets/../core/../misc/../font/../misc/lv_area.h ****  * @param y2 bottom coordinate of the area
 102:Drivers/lvgl/lvgl/src/widgets/../core/../misc/../font/../misc/lv_area.h ****  */
 103:Drivers/lvgl/lvgl/src/widgets/../core/../misc/../font/../misc/lv_area.h **** void lv_area_set(lv_area_t * area_p, lv_coord_t x1, lv_coord_t y1, lv_coord_t x2, lv_coord_t y2);
 104:Drivers/lvgl/lvgl/src/widgets/../core/../misc/../font/../misc/lv_area.h **** 
 105:Drivers/lvgl/lvgl/src/widgets/../core/../misc/../font/../misc/lv_area.h **** /**
 106:Drivers/lvgl/lvgl/src/widgets/../core/../misc/../font/../misc/lv_area.h ****  * Copy an area
 107:Drivers/lvgl/lvgl/src/widgets/../core/../misc/../font/../misc/lv_area.h ****  * @param dest pointer to the destination area
 108:Drivers/lvgl/lvgl/src/widgets/../core/../misc/../font/../misc/lv_area.h ****  * @param src pointer to the source area
 109:Drivers/lvgl/lvgl/src/widgets/../core/../misc/../font/../misc/lv_area.h ****  */
 110:Drivers/lvgl/lvgl/src/widgets/../core/../misc/../font/../misc/lv_area.h **** inline static void lv_area_copy(lv_area_t * dest, const lv_area_t * src)
 111:Drivers/lvgl/lvgl/src/widgets/../core/../misc/../font/../misc/lv_area.h **** {
 112:Drivers/lvgl/lvgl/src/widgets/../core/../misc/../font/../misc/lv_area.h ****     dest->x1 = src->x1;
  81              		.loc 2 112 0 is_stmt 1 discriminator 4
  82 0020 B0F94840 		ldrsh	r4, [r0, #72]
 113:Drivers/lvgl/lvgl/src/widgets/../core/../misc/../font/../misc/lv_area.h ****     dest->y1 = src->y1;
  83              		.loc 2 113 0 discriminator 4
  84 0024 B0F94A10 		ldrsh	r1, [r0, #74]
  85              	.LVL3:
 114:Drivers/lvgl/lvgl/src/widgets/../core/../misc/../font/../misc/lv_area.h ****     dest->x2 = src->x2;
  86              		.loc 2 114 0 discriminator 4
  87 0028 B0F94C70 		ldrsh	r7, [r0, #76]
 115:Drivers/lvgl/lvgl/src/widgets/../core/../misc/../font/../misc/lv_area.h ****     dest->y2 = src->y2;
  88              		.loc 2 115 0 discriminator 4
  89 002c B0F94E60 		ldrsh	r6, [r0, #78]
  90              	.LVL4:
  91              	.LBE108:
  92              	.LBE107:
 939:Drivers/lvgl/lvgl/src/widgets/lv_textarea.c ****         area_tmp.y1 += ta->label->coords.y1;
  93              		.loc 1 939 0 discriminator 4
  94 0030 456A     		ldr	r5, [r0, #36]
  95 0032 AA8A     		ldrh	r2, [r5, #20]
  96 0034 1444     		add	r4, r4, r2
  97 0036 ADF80040 		strh	r4, [sp]	@ movhi
 940:Drivers/lvgl/lvgl/src/widgets/lv_textarea.c ****         area_tmp.x2 += ta->label->coords.x1;
  98              		.loc 1 940 0 discriminator 4
  99 003a EB8A     		ldrh	r3, [r5, #22]
 100 003c 1944     		add	r1, r1, r3
 101 003e ADF80210 		strh	r1, [sp, #2]	@ movhi
 941:Drivers/lvgl/lvgl/src/widgets/lv_textarea.c ****         area_tmp.y2 += ta->label->coords.y1;
 102              		.loc 1 941 0 discriminator 4
 103 0042 3A44     		add	r2, r2, r7
 104 0044 ADF80420 		strh	r2, [sp, #4]	@ movhi
 942:Drivers/lvgl/lvgl/src/widgets/lv_textarea.c ****         lv_obj_invalidate_area(obj, &area_tmp);
 105              		.loc 1 942 0 discriminator 4
 106 0048 3344     		add	r3, r3, r6
 107 004a ADF80630 		strh	r3, [sp, #6]	@ movhi
 943:Drivers/lvgl/lvgl/src/widgets/lv_textarea.c ****     }
 108              		.loc 1 943 0 discriminator 4
 109 004e 6946     		mov	r1, sp
 110 0050 FFF7FEFF 		bl	lv_obj_invalidate_area
 111              	.LVL5:
 112              	.LBE106:
 945:Drivers/lvgl/lvgl/src/widgets/lv_textarea.c **** 
 113              		.loc 1 945 0 discriminator 4
 114 0054 03B0     		add	sp, sp, #12
 115              	.LCFI2:
 116              		.cfi_remember_state
ARM GAS  /tmp/cchLtzqB.s 			page 22


 117              		.cfi_def_cfa_offset 20
 118              		@ sp needed
 119 0056 F0BD     		pop	{r4, r5, r6, r7, pc}
 120              	.LVL6:
 121              	.L5:
 122              	.LCFI3:
 123              		.cfi_restore_state
 124              	.LBB109:
 936:Drivers/lvgl/lvgl/src/widgets/lv_textarea.c ****         lv_area_t area_tmp;
 125              		.loc 1 936 0
 126 0058 0022     		movs	r2, #0
 127 005a DBE7     		b	.L4
 128              	.L7:
 129              	.LCFI4:
 130              		.cfi_def_cfa_offset 0
 131              		.cfi_restore 4
 132              		.cfi_restore 5
 133              		.cfi_restore 6
 134              		.cfi_restore 7
 135              		.cfi_restore 14
 136 005c 7047     		bx	lr
 137              	.LBE109:
 138              		.cfi_endproc
 139              	.LFE199:
 141              		.section	.text.start_cursor_blink,"ax",%progbits
 142              		.align	1
 143              		.syntax unified
 144              		.thumb
 145              		.thumb_func
 146              		.fpu fpv5-d16
 148              	start_cursor_blink:
 149              	.LFB204:
 959:Drivers/lvgl/lvgl/src/widgets/lv_textarea.c **** 
 960:Drivers/lvgl/lvgl/src/widgets/lv_textarea.c **** /**
 961:Drivers/lvgl/lvgl/src/widgets/lv_textarea.c ****  * Call when an animation is ready to convert all characters to '*'
 962:Drivers/lvgl/lvgl/src/widgets/lv_textarea.c ****  * @param a pointer to the animation
 963:Drivers/lvgl/lvgl/src/widgets/lv_textarea.c ****  */
 964:Drivers/lvgl/lvgl/src/widgets/lv_textarea.c **** static void pwd_char_hider_anim_ready(lv_anim_t * a)
 965:Drivers/lvgl/lvgl/src/widgets/lv_textarea.c **** {
 966:Drivers/lvgl/lvgl/src/widgets/lv_textarea.c ****     lv_obj_t * obj = a->var;
 967:Drivers/lvgl/lvgl/src/widgets/lv_textarea.c ****     pwd_char_hider(obj);
 968:Drivers/lvgl/lvgl/src/widgets/lv_textarea.c **** }
 969:Drivers/lvgl/lvgl/src/widgets/lv_textarea.c **** 
 970:Drivers/lvgl/lvgl/src/widgets/lv_textarea.c **** /**
 971:Drivers/lvgl/lvgl/src/widgets/lv_textarea.c ****  * Hide all characters (convert them to '*')
 972:Drivers/lvgl/lvgl/src/widgets/lv_textarea.c ****  * @param ta pointer to text area object
 973:Drivers/lvgl/lvgl/src/widgets/lv_textarea.c ****  */
 974:Drivers/lvgl/lvgl/src/widgets/lv_textarea.c **** static void pwd_char_hider(lv_obj_t * obj)
 975:Drivers/lvgl/lvgl/src/widgets/lv_textarea.c **** {
 976:Drivers/lvgl/lvgl/src/widgets/lv_textarea.c ****     lv_textarea_t * ta = (lv_textarea_t *)obj;
 977:Drivers/lvgl/lvgl/src/widgets/lv_textarea.c ****     if(ta->pwd_mode == 0) {
 978:Drivers/lvgl/lvgl/src/widgets/lv_textarea.c ****         return;
 979:Drivers/lvgl/lvgl/src/widgets/lv_textarea.c ****     }
 980:Drivers/lvgl/lvgl/src/widgets/lv_textarea.c **** 
 981:Drivers/lvgl/lvgl/src/widgets/lv_textarea.c ****     /* When ta->label is empty we get 0 back */
 982:Drivers/lvgl/lvgl/src/widgets/lv_textarea.c ****     char * txt = lv_label_get_text(ta->label);
 983:Drivers/lvgl/lvgl/src/widgets/lv_textarea.c ****     uint32_t enc_len = _lv_txt_get_encoded_length(txt);
ARM GAS  /tmp/cchLtzqB.s 			page 23


 984:Drivers/lvgl/lvgl/src/widgets/lv_textarea.c ****     if(enc_len == 0) return;
 985:Drivers/lvgl/lvgl/src/widgets/lv_textarea.c **** 
 986:Drivers/lvgl/lvgl/src/widgets/lv_textarea.c ****     const char * bullet = lv_textarea_get_password_bullet(obj);
 987:Drivers/lvgl/lvgl/src/widgets/lv_textarea.c ****     const size_t bullet_len = strlen(bullet);
 988:Drivers/lvgl/lvgl/src/widgets/lv_textarea.c ****     char * txt_tmp = lv_mem_buf_get(enc_len * bullet_len + 1);
 989:Drivers/lvgl/lvgl/src/widgets/lv_textarea.c **** 
 990:Drivers/lvgl/lvgl/src/widgets/lv_textarea.c ****     uint32_t i;
 991:Drivers/lvgl/lvgl/src/widgets/lv_textarea.c ****     for(i = 0; i < enc_len; i++) {
 992:Drivers/lvgl/lvgl/src/widgets/lv_textarea.c ****         lv_memcpy(&txt_tmp[i * bullet_len], bullet, bullet_len);
 993:Drivers/lvgl/lvgl/src/widgets/lv_textarea.c ****     }
 994:Drivers/lvgl/lvgl/src/widgets/lv_textarea.c ****     txt_tmp[i * bullet_len] = '\0';
 995:Drivers/lvgl/lvgl/src/widgets/lv_textarea.c **** 
 996:Drivers/lvgl/lvgl/src/widgets/lv_textarea.c ****     lv_label_set_text(ta->label, txt_tmp);
 997:Drivers/lvgl/lvgl/src/widgets/lv_textarea.c ****     lv_mem_buf_release(txt_tmp);
 998:Drivers/lvgl/lvgl/src/widgets/lv_textarea.c **** 
 999:Drivers/lvgl/lvgl/src/widgets/lv_textarea.c ****     refr_cursor_area(obj);
1000:Drivers/lvgl/lvgl/src/widgets/lv_textarea.c **** }
1001:Drivers/lvgl/lvgl/src/widgets/lv_textarea.c **** 
1002:Drivers/lvgl/lvgl/src/widgets/lv_textarea.c **** /**
1003:Drivers/lvgl/lvgl/src/widgets/lv_textarea.c ****  * Test a unicode character if it is accepted or not. Checks max length and accepted char list.
1004:Drivers/lvgl/lvgl/src/widgets/lv_textarea.c ****  * @param ta pointer to a test area object
1005:Drivers/lvgl/lvgl/src/widgets/lv_textarea.c ****  * @param c a unicode character
1006:Drivers/lvgl/lvgl/src/widgets/lv_textarea.c ****  * @return true: accepted; false: rejected
1007:Drivers/lvgl/lvgl/src/widgets/lv_textarea.c ****  */
1008:Drivers/lvgl/lvgl/src/widgets/lv_textarea.c **** static bool char_is_accepted(lv_obj_t * obj, uint32_t c)
1009:Drivers/lvgl/lvgl/src/widgets/lv_textarea.c **** {
1010:Drivers/lvgl/lvgl/src/widgets/lv_textarea.c ****     lv_textarea_t * ta = (lv_textarea_t *)obj;
1011:Drivers/lvgl/lvgl/src/widgets/lv_textarea.c **** 
1012:Drivers/lvgl/lvgl/src/widgets/lv_textarea.c ****     /*Too many characters?*/
1013:Drivers/lvgl/lvgl/src/widgets/lv_textarea.c ****     if(ta->max_length > 0 && _lv_txt_get_encoded_length(lv_textarea_get_text(obj)) >= ta->max_lengt
1014:Drivers/lvgl/lvgl/src/widgets/lv_textarea.c ****         return false;
1015:Drivers/lvgl/lvgl/src/widgets/lv_textarea.c ****     }
1016:Drivers/lvgl/lvgl/src/widgets/lv_textarea.c **** 
1017:Drivers/lvgl/lvgl/src/widgets/lv_textarea.c ****     if(ta->accepted_chars == NULL || ta->accepted_chars[0] == '\0') return true;
1018:Drivers/lvgl/lvgl/src/widgets/lv_textarea.c ****     /*Accepted character?*/
1019:Drivers/lvgl/lvgl/src/widgets/lv_textarea.c ****     uint32_t i = 0;
1020:Drivers/lvgl/lvgl/src/widgets/lv_textarea.c **** 
1021:Drivers/lvgl/lvgl/src/widgets/lv_textarea.c ****     while(ta->accepted_chars[i] != '\0') {
1022:Drivers/lvgl/lvgl/src/widgets/lv_textarea.c ****         uint32_t a = _lv_txt_encoded_next(ta->accepted_chars, &i);
1023:Drivers/lvgl/lvgl/src/widgets/lv_textarea.c ****         if(a == c) return true; /*Accepted*/
1024:Drivers/lvgl/lvgl/src/widgets/lv_textarea.c ****     }
1025:Drivers/lvgl/lvgl/src/widgets/lv_textarea.c **** 
1026:Drivers/lvgl/lvgl/src/widgets/lv_textarea.c ****     return false; /*The character wasn't in the list*/
1027:Drivers/lvgl/lvgl/src/widgets/lv_textarea.c **** }
1028:Drivers/lvgl/lvgl/src/widgets/lv_textarea.c **** 
1029:Drivers/lvgl/lvgl/src/widgets/lv_textarea.c **** static void start_cursor_blink(lv_obj_t * obj)
1030:Drivers/lvgl/lvgl/src/widgets/lv_textarea.c **** {
 150              		.loc 1 1030 0
 151              		.cfi_startproc
 152              		@ args = 0, pretend = 0, frame = 72
 153              		@ frame_needed = 0, uses_anonymous_args = 0
 154              	.LVL7:
 155 0000 30B5     		push	{r4, r5, lr}
 156              	.LCFI5:
 157              		.cfi_def_cfa_offset 12
 158              		.cfi_offset 4, -12
 159              		.cfi_offset 5, -8
ARM GAS  /tmp/cchLtzqB.s 			page 24


 160              		.cfi_offset 14, -4
 161 0002 93B0     		sub	sp, sp, #76
 162              	.LCFI6:
 163              		.cfi_def_cfa_offset 88
 164 0004 0446     		mov	r4, r0
 165              	.LVL8:
 166              	.LBB110:
 167              	.LBB111:
 168              		.file 3 "Drivers/lvgl/lvgl/src/widgets/../core/lv_obj_style_gen.h"
   1:Drivers/lvgl/lvgl/src/widgets/../core/lv_obj_style_gen.h **** static inline lv_coord_t lv_obj_get_style_width(const struct _lv_obj_t * obj, uint32_t part)
   2:Drivers/lvgl/lvgl/src/widgets/../core/lv_obj_style_gen.h **** {
   3:Drivers/lvgl/lvgl/src/widgets/../core/lv_obj_style_gen.h ****     lv_style_value_t v = lv_obj_get_style_prop(obj, part, LV_STYLE_WIDTH);
   4:Drivers/lvgl/lvgl/src/widgets/../core/lv_obj_style_gen.h ****     return (lv_coord_t)v.num;
   5:Drivers/lvgl/lvgl/src/widgets/../core/lv_obj_style_gen.h **** }
   6:Drivers/lvgl/lvgl/src/widgets/../core/lv_obj_style_gen.h **** 
   7:Drivers/lvgl/lvgl/src/widgets/../core/lv_obj_style_gen.h **** static inline lv_coord_t lv_obj_get_style_min_width(const struct _lv_obj_t * obj, uint32_t part)
   8:Drivers/lvgl/lvgl/src/widgets/../core/lv_obj_style_gen.h **** {
   9:Drivers/lvgl/lvgl/src/widgets/../core/lv_obj_style_gen.h ****     lv_style_value_t v = lv_obj_get_style_prop(obj, part, LV_STYLE_MIN_WIDTH);
  10:Drivers/lvgl/lvgl/src/widgets/../core/lv_obj_style_gen.h ****     return (lv_coord_t)v.num;
  11:Drivers/lvgl/lvgl/src/widgets/../core/lv_obj_style_gen.h **** }
  12:Drivers/lvgl/lvgl/src/widgets/../core/lv_obj_style_gen.h **** 
  13:Drivers/lvgl/lvgl/src/widgets/../core/lv_obj_style_gen.h **** static inline lv_coord_t lv_obj_get_style_max_width(const struct _lv_obj_t * obj, uint32_t part)
  14:Drivers/lvgl/lvgl/src/widgets/../core/lv_obj_style_gen.h **** {
  15:Drivers/lvgl/lvgl/src/widgets/../core/lv_obj_style_gen.h ****     lv_style_value_t v = lv_obj_get_style_prop(obj, part, LV_STYLE_MAX_WIDTH);
  16:Drivers/lvgl/lvgl/src/widgets/../core/lv_obj_style_gen.h ****     return (lv_coord_t)v.num;
  17:Drivers/lvgl/lvgl/src/widgets/../core/lv_obj_style_gen.h **** }
  18:Drivers/lvgl/lvgl/src/widgets/../core/lv_obj_style_gen.h **** 
  19:Drivers/lvgl/lvgl/src/widgets/../core/lv_obj_style_gen.h **** static inline lv_coord_t lv_obj_get_style_height(const struct _lv_obj_t * obj, uint32_t part)
  20:Drivers/lvgl/lvgl/src/widgets/../core/lv_obj_style_gen.h **** {
  21:Drivers/lvgl/lvgl/src/widgets/../core/lv_obj_style_gen.h ****     lv_style_value_t v = lv_obj_get_style_prop(obj, part, LV_STYLE_HEIGHT);
  22:Drivers/lvgl/lvgl/src/widgets/../core/lv_obj_style_gen.h ****     return (lv_coord_t)v.num;
  23:Drivers/lvgl/lvgl/src/widgets/../core/lv_obj_style_gen.h **** }
  24:Drivers/lvgl/lvgl/src/widgets/../core/lv_obj_style_gen.h **** 
  25:Drivers/lvgl/lvgl/src/widgets/../core/lv_obj_style_gen.h **** static inline lv_coord_t lv_obj_get_style_min_height(const struct _lv_obj_t * obj, uint32_t part)
  26:Drivers/lvgl/lvgl/src/widgets/../core/lv_obj_style_gen.h **** {
  27:Drivers/lvgl/lvgl/src/widgets/../core/lv_obj_style_gen.h ****     lv_style_value_t v = lv_obj_get_style_prop(obj, part, LV_STYLE_MIN_HEIGHT);
  28:Drivers/lvgl/lvgl/src/widgets/../core/lv_obj_style_gen.h ****     return (lv_coord_t)v.num;
  29:Drivers/lvgl/lvgl/src/widgets/../core/lv_obj_style_gen.h **** }
  30:Drivers/lvgl/lvgl/src/widgets/../core/lv_obj_style_gen.h **** 
  31:Drivers/lvgl/lvgl/src/widgets/../core/lv_obj_style_gen.h **** static inline lv_coord_t lv_obj_get_style_max_height(const struct _lv_obj_t * obj, uint32_t part)
  32:Drivers/lvgl/lvgl/src/widgets/../core/lv_obj_style_gen.h **** {
  33:Drivers/lvgl/lvgl/src/widgets/../core/lv_obj_style_gen.h ****     lv_style_value_t v = lv_obj_get_style_prop(obj, part, LV_STYLE_MAX_HEIGHT);
  34:Drivers/lvgl/lvgl/src/widgets/../core/lv_obj_style_gen.h ****     return (lv_coord_t)v.num;
  35:Drivers/lvgl/lvgl/src/widgets/../core/lv_obj_style_gen.h **** }
  36:Drivers/lvgl/lvgl/src/widgets/../core/lv_obj_style_gen.h **** 
  37:Drivers/lvgl/lvgl/src/widgets/../core/lv_obj_style_gen.h **** static inline lv_coord_t lv_obj_get_style_x(const struct _lv_obj_t * obj, uint32_t part)
  38:Drivers/lvgl/lvgl/src/widgets/../core/lv_obj_style_gen.h **** {
  39:Drivers/lvgl/lvgl/src/widgets/../core/lv_obj_style_gen.h ****     lv_style_value_t v = lv_obj_get_style_prop(obj, part, LV_STYLE_X);
  40:Drivers/lvgl/lvgl/src/widgets/../core/lv_obj_style_gen.h ****     return (lv_coord_t)v.num;
  41:Drivers/lvgl/lvgl/src/widgets/../core/lv_obj_style_gen.h **** }
  42:Drivers/lvgl/lvgl/src/widgets/../core/lv_obj_style_gen.h **** 
  43:Drivers/lvgl/lvgl/src/widgets/../core/lv_obj_style_gen.h **** static inline lv_coord_t lv_obj_get_style_y(const struct _lv_obj_t * obj, uint32_t part)
  44:Drivers/lvgl/lvgl/src/widgets/../core/lv_obj_style_gen.h **** {
  45:Drivers/lvgl/lvgl/src/widgets/../core/lv_obj_style_gen.h ****     lv_style_value_t v = lv_obj_get_style_prop(obj, part, LV_STYLE_Y);
  46:Drivers/lvgl/lvgl/src/widgets/../core/lv_obj_style_gen.h ****     return (lv_coord_t)v.num;
  47:Drivers/lvgl/lvgl/src/widgets/../core/lv_obj_style_gen.h **** }
  48:Drivers/lvgl/lvgl/src/widgets/../core/lv_obj_style_gen.h **** 
ARM GAS  /tmp/cchLtzqB.s 			page 25


  49:Drivers/lvgl/lvgl/src/widgets/../core/lv_obj_style_gen.h **** static inline lv_align_t lv_obj_get_style_align(const struct _lv_obj_t * obj, uint32_t part)
  50:Drivers/lvgl/lvgl/src/widgets/../core/lv_obj_style_gen.h **** {
  51:Drivers/lvgl/lvgl/src/widgets/../core/lv_obj_style_gen.h ****     lv_style_value_t v = lv_obj_get_style_prop(obj, part, LV_STYLE_ALIGN);
  52:Drivers/lvgl/lvgl/src/widgets/../core/lv_obj_style_gen.h ****     return (lv_align_t)v.num;
  53:Drivers/lvgl/lvgl/src/widgets/../core/lv_obj_style_gen.h **** }
  54:Drivers/lvgl/lvgl/src/widgets/../core/lv_obj_style_gen.h **** 
  55:Drivers/lvgl/lvgl/src/widgets/../core/lv_obj_style_gen.h **** static inline lv_coord_t lv_obj_get_style_transform_width(const struct _lv_obj_t * obj, uint32_t pa
  56:Drivers/lvgl/lvgl/src/widgets/../core/lv_obj_style_gen.h **** {
  57:Drivers/lvgl/lvgl/src/widgets/../core/lv_obj_style_gen.h ****     lv_style_value_t v = lv_obj_get_style_prop(obj, part, LV_STYLE_TRANSFORM_WIDTH);
  58:Drivers/lvgl/lvgl/src/widgets/../core/lv_obj_style_gen.h ****     return (lv_coord_t)v.num;
  59:Drivers/lvgl/lvgl/src/widgets/../core/lv_obj_style_gen.h **** }
  60:Drivers/lvgl/lvgl/src/widgets/../core/lv_obj_style_gen.h **** 
  61:Drivers/lvgl/lvgl/src/widgets/../core/lv_obj_style_gen.h **** static inline lv_coord_t lv_obj_get_style_transform_height(const struct _lv_obj_t * obj, uint32_t p
  62:Drivers/lvgl/lvgl/src/widgets/../core/lv_obj_style_gen.h **** {
  63:Drivers/lvgl/lvgl/src/widgets/../core/lv_obj_style_gen.h ****     lv_style_value_t v = lv_obj_get_style_prop(obj, part, LV_STYLE_TRANSFORM_HEIGHT);
  64:Drivers/lvgl/lvgl/src/widgets/../core/lv_obj_style_gen.h ****     return (lv_coord_t)v.num;
  65:Drivers/lvgl/lvgl/src/widgets/../core/lv_obj_style_gen.h **** }
  66:Drivers/lvgl/lvgl/src/widgets/../core/lv_obj_style_gen.h **** 
  67:Drivers/lvgl/lvgl/src/widgets/../core/lv_obj_style_gen.h **** static inline lv_coord_t lv_obj_get_style_translate_x(const struct _lv_obj_t * obj, uint32_t part)
  68:Drivers/lvgl/lvgl/src/widgets/../core/lv_obj_style_gen.h **** {
  69:Drivers/lvgl/lvgl/src/widgets/../core/lv_obj_style_gen.h ****     lv_style_value_t v = lv_obj_get_style_prop(obj, part, LV_STYLE_TRANSLATE_X);
  70:Drivers/lvgl/lvgl/src/widgets/../core/lv_obj_style_gen.h ****     return (lv_coord_t)v.num;
  71:Drivers/lvgl/lvgl/src/widgets/../core/lv_obj_style_gen.h **** }
  72:Drivers/lvgl/lvgl/src/widgets/../core/lv_obj_style_gen.h **** 
  73:Drivers/lvgl/lvgl/src/widgets/../core/lv_obj_style_gen.h **** static inline lv_coord_t lv_obj_get_style_translate_y(const struct _lv_obj_t * obj, uint32_t part)
  74:Drivers/lvgl/lvgl/src/widgets/../core/lv_obj_style_gen.h **** {
  75:Drivers/lvgl/lvgl/src/widgets/../core/lv_obj_style_gen.h ****     lv_style_value_t v = lv_obj_get_style_prop(obj, part, LV_STYLE_TRANSLATE_Y);
  76:Drivers/lvgl/lvgl/src/widgets/../core/lv_obj_style_gen.h ****     return (lv_coord_t)v.num;
  77:Drivers/lvgl/lvgl/src/widgets/../core/lv_obj_style_gen.h **** }
  78:Drivers/lvgl/lvgl/src/widgets/../core/lv_obj_style_gen.h **** 
  79:Drivers/lvgl/lvgl/src/widgets/../core/lv_obj_style_gen.h **** static inline lv_coord_t lv_obj_get_style_transform_zoom(const struct _lv_obj_t * obj, uint32_t par
  80:Drivers/lvgl/lvgl/src/widgets/../core/lv_obj_style_gen.h **** {
  81:Drivers/lvgl/lvgl/src/widgets/../core/lv_obj_style_gen.h ****     lv_style_value_t v = lv_obj_get_style_prop(obj, part, LV_STYLE_TRANSFORM_ZOOM);
  82:Drivers/lvgl/lvgl/src/widgets/../core/lv_obj_style_gen.h ****     return (lv_coord_t)v.num;
  83:Drivers/lvgl/lvgl/src/widgets/../core/lv_obj_style_gen.h **** }
  84:Drivers/lvgl/lvgl/src/widgets/../core/lv_obj_style_gen.h **** 
  85:Drivers/lvgl/lvgl/src/widgets/../core/lv_obj_style_gen.h **** static inline lv_coord_t lv_obj_get_style_transform_angle(const struct _lv_obj_t * obj, uint32_t pa
  86:Drivers/lvgl/lvgl/src/widgets/../core/lv_obj_style_gen.h **** {
  87:Drivers/lvgl/lvgl/src/widgets/../core/lv_obj_style_gen.h ****     lv_style_value_t v = lv_obj_get_style_prop(obj, part, LV_STYLE_TRANSFORM_ANGLE);
  88:Drivers/lvgl/lvgl/src/widgets/../core/lv_obj_style_gen.h ****     return (lv_coord_t)v.num;
  89:Drivers/lvgl/lvgl/src/widgets/../core/lv_obj_style_gen.h **** }
  90:Drivers/lvgl/lvgl/src/widgets/../core/lv_obj_style_gen.h **** 
  91:Drivers/lvgl/lvgl/src/widgets/../core/lv_obj_style_gen.h **** static inline lv_coord_t lv_obj_get_style_transform_pivot_x(const struct _lv_obj_t * obj, uint32_t 
  92:Drivers/lvgl/lvgl/src/widgets/../core/lv_obj_style_gen.h **** {
  93:Drivers/lvgl/lvgl/src/widgets/../core/lv_obj_style_gen.h ****     lv_style_value_t v = lv_obj_get_style_prop(obj, part, LV_STYLE_TRANSFORM_PIVOT_X);
  94:Drivers/lvgl/lvgl/src/widgets/../core/lv_obj_style_gen.h ****     return (lv_coord_t)v.num;
  95:Drivers/lvgl/lvgl/src/widgets/../core/lv_obj_style_gen.h **** }
  96:Drivers/lvgl/lvgl/src/widgets/../core/lv_obj_style_gen.h **** 
  97:Drivers/lvgl/lvgl/src/widgets/../core/lv_obj_style_gen.h **** static inline lv_coord_t lv_obj_get_style_transform_pivot_y(const struct _lv_obj_t * obj, uint32_t 
  98:Drivers/lvgl/lvgl/src/widgets/../core/lv_obj_style_gen.h **** {
  99:Drivers/lvgl/lvgl/src/widgets/../core/lv_obj_style_gen.h ****     lv_style_value_t v = lv_obj_get_style_prop(obj, part, LV_STYLE_TRANSFORM_PIVOT_Y);
 100:Drivers/lvgl/lvgl/src/widgets/../core/lv_obj_style_gen.h ****     return (lv_coord_t)v.num;
 101:Drivers/lvgl/lvgl/src/widgets/../core/lv_obj_style_gen.h **** }
 102:Drivers/lvgl/lvgl/src/widgets/../core/lv_obj_style_gen.h **** 
 103:Drivers/lvgl/lvgl/src/widgets/../core/lv_obj_style_gen.h **** static inline lv_coord_t lv_obj_get_style_pad_top(const struct _lv_obj_t * obj, uint32_t part)
 104:Drivers/lvgl/lvgl/src/widgets/../core/lv_obj_style_gen.h **** {
 105:Drivers/lvgl/lvgl/src/widgets/../core/lv_obj_style_gen.h ****     lv_style_value_t v = lv_obj_get_style_prop(obj, part, LV_STYLE_PAD_TOP);
ARM GAS  /tmp/cchLtzqB.s 			page 26


 106:Drivers/lvgl/lvgl/src/widgets/../core/lv_obj_style_gen.h ****     return (lv_coord_t)v.num;
 107:Drivers/lvgl/lvgl/src/widgets/../core/lv_obj_style_gen.h **** }
 108:Drivers/lvgl/lvgl/src/widgets/../core/lv_obj_style_gen.h **** 
 109:Drivers/lvgl/lvgl/src/widgets/../core/lv_obj_style_gen.h **** static inline lv_coord_t lv_obj_get_style_pad_bottom(const struct _lv_obj_t * obj, uint32_t part)
 110:Drivers/lvgl/lvgl/src/widgets/../core/lv_obj_style_gen.h **** {
 111:Drivers/lvgl/lvgl/src/widgets/../core/lv_obj_style_gen.h ****     lv_style_value_t v = lv_obj_get_style_prop(obj, part, LV_STYLE_PAD_BOTTOM);
 112:Drivers/lvgl/lvgl/src/widgets/../core/lv_obj_style_gen.h ****     return (lv_coord_t)v.num;
 113:Drivers/lvgl/lvgl/src/widgets/../core/lv_obj_style_gen.h **** }
 114:Drivers/lvgl/lvgl/src/widgets/../core/lv_obj_style_gen.h **** 
 115:Drivers/lvgl/lvgl/src/widgets/../core/lv_obj_style_gen.h **** static inline lv_coord_t lv_obj_get_style_pad_left(const struct _lv_obj_t * obj, uint32_t part)
 116:Drivers/lvgl/lvgl/src/widgets/../core/lv_obj_style_gen.h **** {
 117:Drivers/lvgl/lvgl/src/widgets/../core/lv_obj_style_gen.h ****     lv_style_value_t v = lv_obj_get_style_prop(obj, part, LV_STYLE_PAD_LEFT);
 118:Drivers/lvgl/lvgl/src/widgets/../core/lv_obj_style_gen.h ****     return (lv_coord_t)v.num;
 119:Drivers/lvgl/lvgl/src/widgets/../core/lv_obj_style_gen.h **** }
 120:Drivers/lvgl/lvgl/src/widgets/../core/lv_obj_style_gen.h **** 
 121:Drivers/lvgl/lvgl/src/widgets/../core/lv_obj_style_gen.h **** static inline lv_coord_t lv_obj_get_style_pad_right(const struct _lv_obj_t * obj, uint32_t part)
 122:Drivers/lvgl/lvgl/src/widgets/../core/lv_obj_style_gen.h **** {
 123:Drivers/lvgl/lvgl/src/widgets/../core/lv_obj_style_gen.h ****     lv_style_value_t v = lv_obj_get_style_prop(obj, part, LV_STYLE_PAD_RIGHT);
 124:Drivers/lvgl/lvgl/src/widgets/../core/lv_obj_style_gen.h ****     return (lv_coord_t)v.num;
 125:Drivers/lvgl/lvgl/src/widgets/../core/lv_obj_style_gen.h **** }
 126:Drivers/lvgl/lvgl/src/widgets/../core/lv_obj_style_gen.h **** 
 127:Drivers/lvgl/lvgl/src/widgets/../core/lv_obj_style_gen.h **** static inline lv_coord_t lv_obj_get_style_pad_row(const struct _lv_obj_t * obj, uint32_t part)
 128:Drivers/lvgl/lvgl/src/widgets/../core/lv_obj_style_gen.h **** {
 129:Drivers/lvgl/lvgl/src/widgets/../core/lv_obj_style_gen.h ****     lv_style_value_t v = lv_obj_get_style_prop(obj, part, LV_STYLE_PAD_ROW);
 130:Drivers/lvgl/lvgl/src/widgets/../core/lv_obj_style_gen.h ****     return (lv_coord_t)v.num;
 131:Drivers/lvgl/lvgl/src/widgets/../core/lv_obj_style_gen.h **** }
 132:Drivers/lvgl/lvgl/src/widgets/../core/lv_obj_style_gen.h **** 
 133:Drivers/lvgl/lvgl/src/widgets/../core/lv_obj_style_gen.h **** static inline lv_coord_t lv_obj_get_style_pad_column(const struct _lv_obj_t * obj, uint32_t part)
 134:Drivers/lvgl/lvgl/src/widgets/../core/lv_obj_style_gen.h **** {
 135:Drivers/lvgl/lvgl/src/widgets/../core/lv_obj_style_gen.h ****     lv_style_value_t v = lv_obj_get_style_prop(obj, part, LV_STYLE_PAD_COLUMN);
 136:Drivers/lvgl/lvgl/src/widgets/../core/lv_obj_style_gen.h ****     return (lv_coord_t)v.num;
 137:Drivers/lvgl/lvgl/src/widgets/../core/lv_obj_style_gen.h **** }
 138:Drivers/lvgl/lvgl/src/widgets/../core/lv_obj_style_gen.h **** 
 139:Drivers/lvgl/lvgl/src/widgets/../core/lv_obj_style_gen.h **** static inline lv_color_t lv_obj_get_style_bg_color(const struct _lv_obj_t * obj, uint32_t part)
 140:Drivers/lvgl/lvgl/src/widgets/../core/lv_obj_style_gen.h **** {
 141:Drivers/lvgl/lvgl/src/widgets/../core/lv_obj_style_gen.h ****     lv_style_value_t v = lv_obj_get_style_prop(obj, part, LV_STYLE_BG_COLOR);
 142:Drivers/lvgl/lvgl/src/widgets/../core/lv_obj_style_gen.h ****     return v.color;
 143:Drivers/lvgl/lvgl/src/widgets/../core/lv_obj_style_gen.h **** }
 144:Drivers/lvgl/lvgl/src/widgets/../core/lv_obj_style_gen.h **** 
 145:Drivers/lvgl/lvgl/src/widgets/../core/lv_obj_style_gen.h **** static inline lv_color_t lv_obj_get_style_bg_color_filtered(const struct _lv_obj_t * obj, uint32_t 
 146:Drivers/lvgl/lvgl/src/widgets/../core/lv_obj_style_gen.h **** {
 147:Drivers/lvgl/lvgl/src/widgets/../core/lv_obj_style_gen.h ****     lv_style_value_t v = _lv_obj_style_apply_color_filter(obj, part, lv_obj_get_style_prop(obj, par
 148:Drivers/lvgl/lvgl/src/widgets/../core/lv_obj_style_gen.h ****     return v.color;
 149:Drivers/lvgl/lvgl/src/widgets/../core/lv_obj_style_gen.h **** }
 150:Drivers/lvgl/lvgl/src/widgets/../core/lv_obj_style_gen.h **** 
 151:Drivers/lvgl/lvgl/src/widgets/../core/lv_obj_style_gen.h **** static inline lv_opa_t lv_obj_get_style_bg_opa(const struct _lv_obj_t * obj, uint32_t part)
 152:Drivers/lvgl/lvgl/src/widgets/../core/lv_obj_style_gen.h **** {
 153:Drivers/lvgl/lvgl/src/widgets/../core/lv_obj_style_gen.h ****     lv_style_value_t v = lv_obj_get_style_prop(obj, part, LV_STYLE_BG_OPA);
 154:Drivers/lvgl/lvgl/src/widgets/../core/lv_obj_style_gen.h ****     return (lv_opa_t)v.num;
 155:Drivers/lvgl/lvgl/src/widgets/../core/lv_obj_style_gen.h **** }
 156:Drivers/lvgl/lvgl/src/widgets/../core/lv_obj_style_gen.h **** 
 157:Drivers/lvgl/lvgl/src/widgets/../core/lv_obj_style_gen.h **** static inline lv_color_t lv_obj_get_style_bg_grad_color(const struct _lv_obj_t * obj, uint32_t part
 158:Drivers/lvgl/lvgl/src/widgets/../core/lv_obj_style_gen.h **** {
 159:Drivers/lvgl/lvgl/src/widgets/../core/lv_obj_style_gen.h ****     lv_style_value_t v = lv_obj_get_style_prop(obj, part, LV_STYLE_BG_GRAD_COLOR);
 160:Drivers/lvgl/lvgl/src/widgets/../core/lv_obj_style_gen.h ****     return v.color;
 161:Drivers/lvgl/lvgl/src/widgets/../core/lv_obj_style_gen.h **** }
 162:Drivers/lvgl/lvgl/src/widgets/../core/lv_obj_style_gen.h **** 
ARM GAS  /tmp/cchLtzqB.s 			page 27


 163:Drivers/lvgl/lvgl/src/widgets/../core/lv_obj_style_gen.h **** static inline lv_color_t lv_obj_get_style_bg_grad_color_filtered(const struct _lv_obj_t * obj, uint
 164:Drivers/lvgl/lvgl/src/widgets/../core/lv_obj_style_gen.h **** {
 165:Drivers/lvgl/lvgl/src/widgets/../core/lv_obj_style_gen.h ****     lv_style_value_t v = _lv_obj_style_apply_color_filter(obj, part, lv_obj_get_style_prop(obj, par
 166:Drivers/lvgl/lvgl/src/widgets/../core/lv_obj_style_gen.h ****     return v.color;
 167:Drivers/lvgl/lvgl/src/widgets/../core/lv_obj_style_gen.h **** }
 168:Drivers/lvgl/lvgl/src/widgets/../core/lv_obj_style_gen.h **** 
 169:Drivers/lvgl/lvgl/src/widgets/../core/lv_obj_style_gen.h **** static inline lv_grad_dir_t lv_obj_get_style_bg_grad_dir(const struct _lv_obj_t * obj, uint32_t par
 170:Drivers/lvgl/lvgl/src/widgets/../core/lv_obj_style_gen.h **** {
 171:Drivers/lvgl/lvgl/src/widgets/../core/lv_obj_style_gen.h ****     lv_style_value_t v = lv_obj_get_style_prop(obj, part, LV_STYLE_BG_GRAD_DIR);
 172:Drivers/lvgl/lvgl/src/widgets/../core/lv_obj_style_gen.h ****     return (lv_grad_dir_t)v.num;
 173:Drivers/lvgl/lvgl/src/widgets/../core/lv_obj_style_gen.h **** }
 174:Drivers/lvgl/lvgl/src/widgets/../core/lv_obj_style_gen.h **** 
 175:Drivers/lvgl/lvgl/src/widgets/../core/lv_obj_style_gen.h **** static inline lv_coord_t lv_obj_get_style_bg_main_stop(const struct _lv_obj_t * obj, uint32_t part)
 176:Drivers/lvgl/lvgl/src/widgets/../core/lv_obj_style_gen.h **** {
 177:Drivers/lvgl/lvgl/src/widgets/../core/lv_obj_style_gen.h ****     lv_style_value_t v = lv_obj_get_style_prop(obj, part, LV_STYLE_BG_MAIN_STOP);
 178:Drivers/lvgl/lvgl/src/widgets/../core/lv_obj_style_gen.h ****     return (lv_coord_t)v.num;
 179:Drivers/lvgl/lvgl/src/widgets/../core/lv_obj_style_gen.h **** }
 180:Drivers/lvgl/lvgl/src/widgets/../core/lv_obj_style_gen.h **** 
 181:Drivers/lvgl/lvgl/src/widgets/../core/lv_obj_style_gen.h **** static inline lv_coord_t lv_obj_get_style_bg_grad_stop(const struct _lv_obj_t * obj, uint32_t part)
 182:Drivers/lvgl/lvgl/src/widgets/../core/lv_obj_style_gen.h **** {
 183:Drivers/lvgl/lvgl/src/widgets/../core/lv_obj_style_gen.h ****     lv_style_value_t v = lv_obj_get_style_prop(obj, part, LV_STYLE_BG_GRAD_STOP);
 184:Drivers/lvgl/lvgl/src/widgets/../core/lv_obj_style_gen.h ****     return (lv_coord_t)v.num;
 185:Drivers/lvgl/lvgl/src/widgets/../core/lv_obj_style_gen.h **** }
 186:Drivers/lvgl/lvgl/src/widgets/../core/lv_obj_style_gen.h **** 
 187:Drivers/lvgl/lvgl/src/widgets/../core/lv_obj_style_gen.h **** static inline const lv_grad_dsc_t * lv_obj_get_style_bg_grad(const struct _lv_obj_t * obj, uint32_t
 188:Drivers/lvgl/lvgl/src/widgets/../core/lv_obj_style_gen.h **** {
 189:Drivers/lvgl/lvgl/src/widgets/../core/lv_obj_style_gen.h ****     lv_style_value_t v = lv_obj_get_style_prop(obj, part, LV_STYLE_BG_GRAD);
 190:Drivers/lvgl/lvgl/src/widgets/../core/lv_obj_style_gen.h ****     return (const lv_grad_dsc_t *)v.ptr;
 191:Drivers/lvgl/lvgl/src/widgets/../core/lv_obj_style_gen.h **** }
 192:Drivers/lvgl/lvgl/src/widgets/../core/lv_obj_style_gen.h **** 
 193:Drivers/lvgl/lvgl/src/widgets/../core/lv_obj_style_gen.h **** static inline lv_dither_mode_t lv_obj_get_style_bg_dither_mode(const struct _lv_obj_t * obj, uint32
 194:Drivers/lvgl/lvgl/src/widgets/../core/lv_obj_style_gen.h **** {
 195:Drivers/lvgl/lvgl/src/widgets/../core/lv_obj_style_gen.h ****     lv_style_value_t v = lv_obj_get_style_prop(obj, part, LV_STYLE_BG_DITHER_MODE);
 196:Drivers/lvgl/lvgl/src/widgets/../core/lv_obj_style_gen.h ****     return (lv_dither_mode_t)v.num;
 197:Drivers/lvgl/lvgl/src/widgets/../core/lv_obj_style_gen.h **** }
 198:Drivers/lvgl/lvgl/src/widgets/../core/lv_obj_style_gen.h **** 
 199:Drivers/lvgl/lvgl/src/widgets/../core/lv_obj_style_gen.h **** static inline const void * lv_obj_get_style_bg_img_src(const struct _lv_obj_t * obj, uint32_t part)
 200:Drivers/lvgl/lvgl/src/widgets/../core/lv_obj_style_gen.h **** {
 201:Drivers/lvgl/lvgl/src/widgets/../core/lv_obj_style_gen.h ****     lv_style_value_t v = lv_obj_get_style_prop(obj, part, LV_STYLE_BG_IMG_SRC);
 202:Drivers/lvgl/lvgl/src/widgets/../core/lv_obj_style_gen.h ****     return (const void *)v.ptr;
 203:Drivers/lvgl/lvgl/src/widgets/../core/lv_obj_style_gen.h **** }
 204:Drivers/lvgl/lvgl/src/widgets/../core/lv_obj_style_gen.h **** 
 205:Drivers/lvgl/lvgl/src/widgets/../core/lv_obj_style_gen.h **** static inline lv_opa_t lv_obj_get_style_bg_img_opa(const struct _lv_obj_t * obj, uint32_t part)
 206:Drivers/lvgl/lvgl/src/widgets/../core/lv_obj_style_gen.h **** {
 207:Drivers/lvgl/lvgl/src/widgets/../core/lv_obj_style_gen.h ****     lv_style_value_t v = lv_obj_get_style_prop(obj, part, LV_STYLE_BG_IMG_OPA);
 208:Drivers/lvgl/lvgl/src/widgets/../core/lv_obj_style_gen.h ****     return (lv_opa_t)v.num;
 209:Drivers/lvgl/lvgl/src/widgets/../core/lv_obj_style_gen.h **** }
 210:Drivers/lvgl/lvgl/src/widgets/../core/lv_obj_style_gen.h **** 
 211:Drivers/lvgl/lvgl/src/widgets/../core/lv_obj_style_gen.h **** static inline lv_color_t lv_obj_get_style_bg_img_recolor(const struct _lv_obj_t * obj, uint32_t par
 212:Drivers/lvgl/lvgl/src/widgets/../core/lv_obj_style_gen.h **** {
 213:Drivers/lvgl/lvgl/src/widgets/../core/lv_obj_style_gen.h ****     lv_style_value_t v = lv_obj_get_style_prop(obj, part, LV_STYLE_BG_IMG_RECOLOR);
 214:Drivers/lvgl/lvgl/src/widgets/../core/lv_obj_style_gen.h ****     return v.color;
 215:Drivers/lvgl/lvgl/src/widgets/../core/lv_obj_style_gen.h **** }
 216:Drivers/lvgl/lvgl/src/widgets/../core/lv_obj_style_gen.h **** 
 217:Drivers/lvgl/lvgl/src/widgets/../core/lv_obj_style_gen.h **** static inline lv_color_t lv_obj_get_style_bg_img_recolor_filtered(const struct _lv_obj_t * obj, uin
 218:Drivers/lvgl/lvgl/src/widgets/../core/lv_obj_style_gen.h **** {
 219:Drivers/lvgl/lvgl/src/widgets/../core/lv_obj_style_gen.h ****     lv_style_value_t v = _lv_obj_style_apply_color_filter(obj, part, lv_obj_get_style_prop(obj, par
ARM GAS  /tmp/cchLtzqB.s 			page 28


 220:Drivers/lvgl/lvgl/src/widgets/../core/lv_obj_style_gen.h ****     return v.color;
 221:Drivers/lvgl/lvgl/src/widgets/../core/lv_obj_style_gen.h **** }
 222:Drivers/lvgl/lvgl/src/widgets/../core/lv_obj_style_gen.h **** 
 223:Drivers/lvgl/lvgl/src/widgets/../core/lv_obj_style_gen.h **** static inline lv_opa_t lv_obj_get_style_bg_img_recolor_opa(const struct _lv_obj_t * obj, uint32_t p
 224:Drivers/lvgl/lvgl/src/widgets/../core/lv_obj_style_gen.h **** {
 225:Drivers/lvgl/lvgl/src/widgets/../core/lv_obj_style_gen.h ****     lv_style_value_t v = lv_obj_get_style_prop(obj, part, LV_STYLE_BG_IMG_RECOLOR_OPA);
 226:Drivers/lvgl/lvgl/src/widgets/../core/lv_obj_style_gen.h ****     return (lv_opa_t)v.num;
 227:Drivers/lvgl/lvgl/src/widgets/../core/lv_obj_style_gen.h **** }
 228:Drivers/lvgl/lvgl/src/widgets/../core/lv_obj_style_gen.h **** 
 229:Drivers/lvgl/lvgl/src/widgets/../core/lv_obj_style_gen.h **** static inline bool lv_obj_get_style_bg_img_tiled(const struct _lv_obj_t * obj, uint32_t part)
 230:Drivers/lvgl/lvgl/src/widgets/../core/lv_obj_style_gen.h **** {
 231:Drivers/lvgl/lvgl/src/widgets/../core/lv_obj_style_gen.h ****     lv_style_value_t v = lv_obj_get_style_prop(obj, part, LV_STYLE_BG_IMG_TILED);
 232:Drivers/lvgl/lvgl/src/widgets/../core/lv_obj_style_gen.h ****     return (bool)v.num;
 233:Drivers/lvgl/lvgl/src/widgets/../core/lv_obj_style_gen.h **** }
 234:Drivers/lvgl/lvgl/src/widgets/../core/lv_obj_style_gen.h **** 
 235:Drivers/lvgl/lvgl/src/widgets/../core/lv_obj_style_gen.h **** static inline lv_color_t lv_obj_get_style_border_color(const struct _lv_obj_t * obj, uint32_t part)
 236:Drivers/lvgl/lvgl/src/widgets/../core/lv_obj_style_gen.h **** {
 237:Drivers/lvgl/lvgl/src/widgets/../core/lv_obj_style_gen.h ****     lv_style_value_t v = lv_obj_get_style_prop(obj, part, LV_STYLE_BORDER_COLOR);
 238:Drivers/lvgl/lvgl/src/widgets/../core/lv_obj_style_gen.h ****     return v.color;
 239:Drivers/lvgl/lvgl/src/widgets/../core/lv_obj_style_gen.h **** }
 240:Drivers/lvgl/lvgl/src/widgets/../core/lv_obj_style_gen.h **** 
 241:Drivers/lvgl/lvgl/src/widgets/../core/lv_obj_style_gen.h **** static inline lv_color_t lv_obj_get_style_border_color_filtered(const struct _lv_obj_t * obj, uint3
 242:Drivers/lvgl/lvgl/src/widgets/../core/lv_obj_style_gen.h **** {
 243:Drivers/lvgl/lvgl/src/widgets/../core/lv_obj_style_gen.h ****     lv_style_value_t v = _lv_obj_style_apply_color_filter(obj, part, lv_obj_get_style_prop(obj, par
 244:Drivers/lvgl/lvgl/src/widgets/../core/lv_obj_style_gen.h ****     return v.color;
 245:Drivers/lvgl/lvgl/src/widgets/../core/lv_obj_style_gen.h **** }
 246:Drivers/lvgl/lvgl/src/widgets/../core/lv_obj_style_gen.h **** 
 247:Drivers/lvgl/lvgl/src/widgets/../core/lv_obj_style_gen.h **** static inline lv_opa_t lv_obj_get_style_border_opa(const struct _lv_obj_t * obj, uint32_t part)
 248:Drivers/lvgl/lvgl/src/widgets/../core/lv_obj_style_gen.h **** {
 249:Drivers/lvgl/lvgl/src/widgets/../core/lv_obj_style_gen.h ****     lv_style_value_t v = lv_obj_get_style_prop(obj, part, LV_STYLE_BORDER_OPA);
 250:Drivers/lvgl/lvgl/src/widgets/../core/lv_obj_style_gen.h ****     return (lv_opa_t)v.num;
 251:Drivers/lvgl/lvgl/src/widgets/../core/lv_obj_style_gen.h **** }
 252:Drivers/lvgl/lvgl/src/widgets/../core/lv_obj_style_gen.h **** 
 253:Drivers/lvgl/lvgl/src/widgets/../core/lv_obj_style_gen.h **** static inline lv_coord_t lv_obj_get_style_border_width(const struct _lv_obj_t * obj, uint32_t part)
 254:Drivers/lvgl/lvgl/src/widgets/../core/lv_obj_style_gen.h **** {
 255:Drivers/lvgl/lvgl/src/widgets/../core/lv_obj_style_gen.h ****     lv_style_value_t v = lv_obj_get_style_prop(obj, part, LV_STYLE_BORDER_WIDTH);
 256:Drivers/lvgl/lvgl/src/widgets/../core/lv_obj_style_gen.h ****     return (lv_coord_t)v.num;
 257:Drivers/lvgl/lvgl/src/widgets/../core/lv_obj_style_gen.h **** }
 258:Drivers/lvgl/lvgl/src/widgets/../core/lv_obj_style_gen.h **** 
 259:Drivers/lvgl/lvgl/src/widgets/../core/lv_obj_style_gen.h **** static inline lv_border_side_t lv_obj_get_style_border_side(const struct _lv_obj_t * obj, uint32_t 
 260:Drivers/lvgl/lvgl/src/widgets/../core/lv_obj_style_gen.h **** {
 261:Drivers/lvgl/lvgl/src/widgets/../core/lv_obj_style_gen.h ****     lv_style_value_t v = lv_obj_get_style_prop(obj, part, LV_STYLE_BORDER_SIDE);
 262:Drivers/lvgl/lvgl/src/widgets/../core/lv_obj_style_gen.h ****     return (lv_border_side_t)v.num;
 263:Drivers/lvgl/lvgl/src/widgets/../core/lv_obj_style_gen.h **** }
 264:Drivers/lvgl/lvgl/src/widgets/../core/lv_obj_style_gen.h **** 
 265:Drivers/lvgl/lvgl/src/widgets/../core/lv_obj_style_gen.h **** static inline bool lv_obj_get_style_border_post(const struct _lv_obj_t * obj, uint32_t part)
 266:Drivers/lvgl/lvgl/src/widgets/../core/lv_obj_style_gen.h **** {
 267:Drivers/lvgl/lvgl/src/widgets/../core/lv_obj_style_gen.h ****     lv_style_value_t v = lv_obj_get_style_prop(obj, part, LV_STYLE_BORDER_POST);
 268:Drivers/lvgl/lvgl/src/widgets/../core/lv_obj_style_gen.h ****     return (bool)v.num;
 269:Drivers/lvgl/lvgl/src/widgets/../core/lv_obj_style_gen.h **** }
 270:Drivers/lvgl/lvgl/src/widgets/../core/lv_obj_style_gen.h **** 
 271:Drivers/lvgl/lvgl/src/widgets/../core/lv_obj_style_gen.h **** static inline lv_coord_t lv_obj_get_style_outline_width(const struct _lv_obj_t * obj, uint32_t part
 272:Drivers/lvgl/lvgl/src/widgets/../core/lv_obj_style_gen.h **** {
 273:Drivers/lvgl/lvgl/src/widgets/../core/lv_obj_style_gen.h ****     lv_style_value_t v = lv_obj_get_style_prop(obj, part, LV_STYLE_OUTLINE_WIDTH);
 274:Drivers/lvgl/lvgl/src/widgets/../core/lv_obj_style_gen.h ****     return (lv_coord_t)v.num;
 275:Drivers/lvgl/lvgl/src/widgets/../core/lv_obj_style_gen.h **** }
 276:Drivers/lvgl/lvgl/src/widgets/../core/lv_obj_style_gen.h **** 
ARM GAS  /tmp/cchLtzqB.s 			page 29


 277:Drivers/lvgl/lvgl/src/widgets/../core/lv_obj_style_gen.h **** static inline lv_color_t lv_obj_get_style_outline_color(const struct _lv_obj_t * obj, uint32_t part
 278:Drivers/lvgl/lvgl/src/widgets/../core/lv_obj_style_gen.h **** {
 279:Drivers/lvgl/lvgl/src/widgets/../core/lv_obj_style_gen.h ****     lv_style_value_t v = lv_obj_get_style_prop(obj, part, LV_STYLE_OUTLINE_COLOR);
 280:Drivers/lvgl/lvgl/src/widgets/../core/lv_obj_style_gen.h ****     return v.color;
 281:Drivers/lvgl/lvgl/src/widgets/../core/lv_obj_style_gen.h **** }
 282:Drivers/lvgl/lvgl/src/widgets/../core/lv_obj_style_gen.h **** 
 283:Drivers/lvgl/lvgl/src/widgets/../core/lv_obj_style_gen.h **** static inline lv_color_t lv_obj_get_style_outline_color_filtered(const struct _lv_obj_t * obj, uint
 284:Drivers/lvgl/lvgl/src/widgets/../core/lv_obj_style_gen.h **** {
 285:Drivers/lvgl/lvgl/src/widgets/../core/lv_obj_style_gen.h ****     lv_style_value_t v = _lv_obj_style_apply_color_filter(obj, part, lv_obj_get_style_prop(obj, par
 286:Drivers/lvgl/lvgl/src/widgets/../core/lv_obj_style_gen.h ****     return v.color;
 287:Drivers/lvgl/lvgl/src/widgets/../core/lv_obj_style_gen.h **** }
 288:Drivers/lvgl/lvgl/src/widgets/../core/lv_obj_style_gen.h **** 
 289:Drivers/lvgl/lvgl/src/widgets/../core/lv_obj_style_gen.h **** static inline lv_opa_t lv_obj_get_style_outline_opa(const struct _lv_obj_t * obj, uint32_t part)
 290:Drivers/lvgl/lvgl/src/widgets/../core/lv_obj_style_gen.h **** {
 291:Drivers/lvgl/lvgl/src/widgets/../core/lv_obj_style_gen.h ****     lv_style_value_t v = lv_obj_get_style_prop(obj, part, LV_STYLE_OUTLINE_OPA);
 292:Drivers/lvgl/lvgl/src/widgets/../core/lv_obj_style_gen.h ****     return (lv_opa_t)v.num;
 293:Drivers/lvgl/lvgl/src/widgets/../core/lv_obj_style_gen.h **** }
 294:Drivers/lvgl/lvgl/src/widgets/../core/lv_obj_style_gen.h **** 
 295:Drivers/lvgl/lvgl/src/widgets/../core/lv_obj_style_gen.h **** static inline lv_coord_t lv_obj_get_style_outline_pad(const struct _lv_obj_t * obj, uint32_t part)
 296:Drivers/lvgl/lvgl/src/widgets/../core/lv_obj_style_gen.h **** {
 297:Drivers/lvgl/lvgl/src/widgets/../core/lv_obj_style_gen.h ****     lv_style_value_t v = lv_obj_get_style_prop(obj, part, LV_STYLE_OUTLINE_PAD);
 298:Drivers/lvgl/lvgl/src/widgets/../core/lv_obj_style_gen.h ****     return (lv_coord_t)v.num;
 299:Drivers/lvgl/lvgl/src/widgets/../core/lv_obj_style_gen.h **** }
 300:Drivers/lvgl/lvgl/src/widgets/../core/lv_obj_style_gen.h **** 
 301:Drivers/lvgl/lvgl/src/widgets/../core/lv_obj_style_gen.h **** static inline lv_coord_t lv_obj_get_style_shadow_width(const struct _lv_obj_t * obj, uint32_t part)
 302:Drivers/lvgl/lvgl/src/widgets/../core/lv_obj_style_gen.h **** {
 303:Drivers/lvgl/lvgl/src/widgets/../core/lv_obj_style_gen.h ****     lv_style_value_t v = lv_obj_get_style_prop(obj, part, LV_STYLE_SHADOW_WIDTH);
 304:Drivers/lvgl/lvgl/src/widgets/../core/lv_obj_style_gen.h ****     return (lv_coord_t)v.num;
 305:Drivers/lvgl/lvgl/src/widgets/../core/lv_obj_style_gen.h **** }
 306:Drivers/lvgl/lvgl/src/widgets/../core/lv_obj_style_gen.h **** 
 307:Drivers/lvgl/lvgl/src/widgets/../core/lv_obj_style_gen.h **** static inline lv_coord_t lv_obj_get_style_shadow_ofs_x(const struct _lv_obj_t * obj, uint32_t part)
 308:Drivers/lvgl/lvgl/src/widgets/../core/lv_obj_style_gen.h **** {
 309:Drivers/lvgl/lvgl/src/widgets/../core/lv_obj_style_gen.h ****     lv_style_value_t v = lv_obj_get_style_prop(obj, part, LV_STYLE_SHADOW_OFS_X);
 310:Drivers/lvgl/lvgl/src/widgets/../core/lv_obj_style_gen.h ****     return (lv_coord_t)v.num;
 311:Drivers/lvgl/lvgl/src/widgets/../core/lv_obj_style_gen.h **** }
 312:Drivers/lvgl/lvgl/src/widgets/../core/lv_obj_style_gen.h **** 
 313:Drivers/lvgl/lvgl/src/widgets/../core/lv_obj_style_gen.h **** static inline lv_coord_t lv_obj_get_style_shadow_ofs_y(const struct _lv_obj_t * obj, uint32_t part)
 314:Drivers/lvgl/lvgl/src/widgets/../core/lv_obj_style_gen.h **** {
 315:Drivers/lvgl/lvgl/src/widgets/../core/lv_obj_style_gen.h ****     lv_style_value_t v = lv_obj_get_style_prop(obj, part, LV_STYLE_SHADOW_OFS_Y);
 316:Drivers/lvgl/lvgl/src/widgets/../core/lv_obj_style_gen.h ****     return (lv_coord_t)v.num;
 317:Drivers/lvgl/lvgl/src/widgets/../core/lv_obj_style_gen.h **** }
 318:Drivers/lvgl/lvgl/src/widgets/../core/lv_obj_style_gen.h **** 
 319:Drivers/lvgl/lvgl/src/widgets/../core/lv_obj_style_gen.h **** static inline lv_coord_t lv_obj_get_style_shadow_spread(const struct _lv_obj_t * obj, uint32_t part
 320:Drivers/lvgl/lvgl/src/widgets/../core/lv_obj_style_gen.h **** {
 321:Drivers/lvgl/lvgl/src/widgets/../core/lv_obj_style_gen.h ****     lv_style_value_t v = lv_obj_get_style_prop(obj, part, LV_STYLE_SHADOW_SPREAD);
 322:Drivers/lvgl/lvgl/src/widgets/../core/lv_obj_style_gen.h ****     return (lv_coord_t)v.num;
 323:Drivers/lvgl/lvgl/src/widgets/../core/lv_obj_style_gen.h **** }
 324:Drivers/lvgl/lvgl/src/widgets/../core/lv_obj_style_gen.h **** 
 325:Drivers/lvgl/lvgl/src/widgets/../core/lv_obj_style_gen.h **** static inline lv_color_t lv_obj_get_style_shadow_color(const struct _lv_obj_t * obj, uint32_t part)
 326:Drivers/lvgl/lvgl/src/widgets/../core/lv_obj_style_gen.h **** {
 327:Drivers/lvgl/lvgl/src/widgets/../core/lv_obj_style_gen.h ****     lv_style_value_t v = lv_obj_get_style_prop(obj, part, LV_STYLE_SHADOW_COLOR);
 328:Drivers/lvgl/lvgl/src/widgets/../core/lv_obj_style_gen.h ****     return v.color;
 329:Drivers/lvgl/lvgl/src/widgets/../core/lv_obj_style_gen.h **** }
 330:Drivers/lvgl/lvgl/src/widgets/../core/lv_obj_style_gen.h **** 
 331:Drivers/lvgl/lvgl/src/widgets/../core/lv_obj_style_gen.h **** static inline lv_color_t lv_obj_get_style_shadow_color_filtered(const struct _lv_obj_t * obj, uint3
 332:Drivers/lvgl/lvgl/src/widgets/../core/lv_obj_style_gen.h **** {
 333:Drivers/lvgl/lvgl/src/widgets/../core/lv_obj_style_gen.h ****     lv_style_value_t v = _lv_obj_style_apply_color_filter(obj, part, lv_obj_get_style_prop(obj, par
ARM GAS  /tmp/cchLtzqB.s 			page 30


 334:Drivers/lvgl/lvgl/src/widgets/../core/lv_obj_style_gen.h ****     return v.color;
 335:Drivers/lvgl/lvgl/src/widgets/../core/lv_obj_style_gen.h **** }
 336:Drivers/lvgl/lvgl/src/widgets/../core/lv_obj_style_gen.h **** 
 337:Drivers/lvgl/lvgl/src/widgets/../core/lv_obj_style_gen.h **** static inline lv_opa_t lv_obj_get_style_shadow_opa(const struct _lv_obj_t * obj, uint32_t part)
 338:Drivers/lvgl/lvgl/src/widgets/../core/lv_obj_style_gen.h **** {
 339:Drivers/lvgl/lvgl/src/widgets/../core/lv_obj_style_gen.h ****     lv_style_value_t v = lv_obj_get_style_prop(obj, part, LV_STYLE_SHADOW_OPA);
 340:Drivers/lvgl/lvgl/src/widgets/../core/lv_obj_style_gen.h ****     return (lv_opa_t)v.num;
 341:Drivers/lvgl/lvgl/src/widgets/../core/lv_obj_style_gen.h **** }
 342:Drivers/lvgl/lvgl/src/widgets/../core/lv_obj_style_gen.h **** 
 343:Drivers/lvgl/lvgl/src/widgets/../core/lv_obj_style_gen.h **** static inline lv_opa_t lv_obj_get_style_img_opa(const struct _lv_obj_t * obj, uint32_t part)
 344:Drivers/lvgl/lvgl/src/widgets/../core/lv_obj_style_gen.h **** {
 345:Drivers/lvgl/lvgl/src/widgets/../core/lv_obj_style_gen.h ****     lv_style_value_t v = lv_obj_get_style_prop(obj, part, LV_STYLE_IMG_OPA);
 346:Drivers/lvgl/lvgl/src/widgets/../core/lv_obj_style_gen.h ****     return (lv_opa_t)v.num;
 347:Drivers/lvgl/lvgl/src/widgets/../core/lv_obj_style_gen.h **** }
 348:Drivers/lvgl/lvgl/src/widgets/../core/lv_obj_style_gen.h **** 
 349:Drivers/lvgl/lvgl/src/widgets/../core/lv_obj_style_gen.h **** static inline lv_color_t lv_obj_get_style_img_recolor(const struct _lv_obj_t * obj, uint32_t part)
 350:Drivers/lvgl/lvgl/src/widgets/../core/lv_obj_style_gen.h **** {
 351:Drivers/lvgl/lvgl/src/widgets/../core/lv_obj_style_gen.h ****     lv_style_value_t v = lv_obj_get_style_prop(obj, part, LV_STYLE_IMG_RECOLOR);
 352:Drivers/lvgl/lvgl/src/widgets/../core/lv_obj_style_gen.h ****     return v.color;
 353:Drivers/lvgl/lvgl/src/widgets/../core/lv_obj_style_gen.h **** }
 354:Drivers/lvgl/lvgl/src/widgets/../core/lv_obj_style_gen.h **** 
 355:Drivers/lvgl/lvgl/src/widgets/../core/lv_obj_style_gen.h **** static inline lv_color_t lv_obj_get_style_img_recolor_filtered(const struct _lv_obj_t * obj, uint32
 356:Drivers/lvgl/lvgl/src/widgets/../core/lv_obj_style_gen.h **** {
 357:Drivers/lvgl/lvgl/src/widgets/../core/lv_obj_style_gen.h ****     lv_style_value_t v = _lv_obj_style_apply_color_filter(obj, part, lv_obj_get_style_prop(obj, par
 358:Drivers/lvgl/lvgl/src/widgets/../core/lv_obj_style_gen.h ****     return v.color;
 359:Drivers/lvgl/lvgl/src/widgets/../core/lv_obj_style_gen.h **** }
 360:Drivers/lvgl/lvgl/src/widgets/../core/lv_obj_style_gen.h **** 
 361:Drivers/lvgl/lvgl/src/widgets/../core/lv_obj_style_gen.h **** static inline lv_opa_t lv_obj_get_style_img_recolor_opa(const struct _lv_obj_t * obj, uint32_t part
 362:Drivers/lvgl/lvgl/src/widgets/../core/lv_obj_style_gen.h **** {
 363:Drivers/lvgl/lvgl/src/widgets/../core/lv_obj_style_gen.h ****     lv_style_value_t v = lv_obj_get_style_prop(obj, part, LV_STYLE_IMG_RECOLOR_OPA);
 364:Drivers/lvgl/lvgl/src/widgets/../core/lv_obj_style_gen.h ****     return (lv_opa_t)v.num;
 365:Drivers/lvgl/lvgl/src/widgets/../core/lv_obj_style_gen.h **** }
 366:Drivers/lvgl/lvgl/src/widgets/../core/lv_obj_style_gen.h **** 
 367:Drivers/lvgl/lvgl/src/widgets/../core/lv_obj_style_gen.h **** static inline lv_coord_t lv_obj_get_style_line_width(const struct _lv_obj_t * obj, uint32_t part)
 368:Drivers/lvgl/lvgl/src/widgets/../core/lv_obj_style_gen.h **** {
 369:Drivers/lvgl/lvgl/src/widgets/../core/lv_obj_style_gen.h ****     lv_style_value_t v = lv_obj_get_style_prop(obj, part, LV_STYLE_LINE_WIDTH);
 370:Drivers/lvgl/lvgl/src/widgets/../core/lv_obj_style_gen.h ****     return (lv_coord_t)v.num;
 371:Drivers/lvgl/lvgl/src/widgets/../core/lv_obj_style_gen.h **** }
 372:Drivers/lvgl/lvgl/src/widgets/../core/lv_obj_style_gen.h **** 
 373:Drivers/lvgl/lvgl/src/widgets/../core/lv_obj_style_gen.h **** static inline lv_coord_t lv_obj_get_style_line_dash_width(const struct _lv_obj_t * obj, uint32_t pa
 374:Drivers/lvgl/lvgl/src/widgets/../core/lv_obj_style_gen.h **** {
 375:Drivers/lvgl/lvgl/src/widgets/../core/lv_obj_style_gen.h ****     lv_style_value_t v = lv_obj_get_style_prop(obj, part, LV_STYLE_LINE_DASH_WIDTH);
 376:Drivers/lvgl/lvgl/src/widgets/../core/lv_obj_style_gen.h ****     return (lv_coord_t)v.num;
 377:Drivers/lvgl/lvgl/src/widgets/../core/lv_obj_style_gen.h **** }
 378:Drivers/lvgl/lvgl/src/widgets/../core/lv_obj_style_gen.h **** 
 379:Drivers/lvgl/lvgl/src/widgets/../core/lv_obj_style_gen.h **** static inline lv_coord_t lv_obj_get_style_line_dash_gap(const struct _lv_obj_t * obj, uint32_t part
 380:Drivers/lvgl/lvgl/src/widgets/../core/lv_obj_style_gen.h **** {
 381:Drivers/lvgl/lvgl/src/widgets/../core/lv_obj_style_gen.h ****     lv_style_value_t v = lv_obj_get_style_prop(obj, part, LV_STYLE_LINE_DASH_GAP);
 382:Drivers/lvgl/lvgl/src/widgets/../core/lv_obj_style_gen.h ****     return (lv_coord_t)v.num;
 383:Drivers/lvgl/lvgl/src/widgets/../core/lv_obj_style_gen.h **** }
 384:Drivers/lvgl/lvgl/src/widgets/../core/lv_obj_style_gen.h **** 
 385:Drivers/lvgl/lvgl/src/widgets/../core/lv_obj_style_gen.h **** static inline bool lv_obj_get_style_line_rounded(const struct _lv_obj_t * obj, uint32_t part)
 386:Drivers/lvgl/lvgl/src/widgets/../core/lv_obj_style_gen.h **** {
 387:Drivers/lvgl/lvgl/src/widgets/../core/lv_obj_style_gen.h ****     lv_style_value_t v = lv_obj_get_style_prop(obj, part, LV_STYLE_LINE_ROUNDED);
 388:Drivers/lvgl/lvgl/src/widgets/../core/lv_obj_style_gen.h ****     return (bool)v.num;
 389:Drivers/lvgl/lvgl/src/widgets/../core/lv_obj_style_gen.h **** }
 390:Drivers/lvgl/lvgl/src/widgets/../core/lv_obj_style_gen.h **** 
ARM GAS  /tmp/cchLtzqB.s 			page 31


 391:Drivers/lvgl/lvgl/src/widgets/../core/lv_obj_style_gen.h **** static inline lv_color_t lv_obj_get_style_line_color(const struct _lv_obj_t * obj, uint32_t part)
 392:Drivers/lvgl/lvgl/src/widgets/../core/lv_obj_style_gen.h **** {
 393:Drivers/lvgl/lvgl/src/widgets/../core/lv_obj_style_gen.h ****     lv_style_value_t v = lv_obj_get_style_prop(obj, part, LV_STYLE_LINE_COLOR);
 394:Drivers/lvgl/lvgl/src/widgets/../core/lv_obj_style_gen.h ****     return v.color;
 395:Drivers/lvgl/lvgl/src/widgets/../core/lv_obj_style_gen.h **** }
 396:Drivers/lvgl/lvgl/src/widgets/../core/lv_obj_style_gen.h **** 
 397:Drivers/lvgl/lvgl/src/widgets/../core/lv_obj_style_gen.h **** static inline lv_color_t lv_obj_get_style_line_color_filtered(const struct _lv_obj_t * obj, uint32_
 398:Drivers/lvgl/lvgl/src/widgets/../core/lv_obj_style_gen.h **** {
 399:Drivers/lvgl/lvgl/src/widgets/../core/lv_obj_style_gen.h ****     lv_style_value_t v = _lv_obj_style_apply_color_filter(obj, part, lv_obj_get_style_prop(obj, par
 400:Drivers/lvgl/lvgl/src/widgets/../core/lv_obj_style_gen.h ****     return v.color;
 401:Drivers/lvgl/lvgl/src/widgets/../core/lv_obj_style_gen.h **** }
 402:Drivers/lvgl/lvgl/src/widgets/../core/lv_obj_style_gen.h **** 
 403:Drivers/lvgl/lvgl/src/widgets/../core/lv_obj_style_gen.h **** static inline lv_opa_t lv_obj_get_style_line_opa(const struct _lv_obj_t * obj, uint32_t part)
 404:Drivers/lvgl/lvgl/src/widgets/../core/lv_obj_style_gen.h **** {
 405:Drivers/lvgl/lvgl/src/widgets/../core/lv_obj_style_gen.h ****     lv_style_value_t v = lv_obj_get_style_prop(obj, part, LV_STYLE_LINE_OPA);
 406:Drivers/lvgl/lvgl/src/widgets/../core/lv_obj_style_gen.h ****     return (lv_opa_t)v.num;
 407:Drivers/lvgl/lvgl/src/widgets/../core/lv_obj_style_gen.h **** }
 408:Drivers/lvgl/lvgl/src/widgets/../core/lv_obj_style_gen.h **** 
 409:Drivers/lvgl/lvgl/src/widgets/../core/lv_obj_style_gen.h **** static inline lv_coord_t lv_obj_get_style_arc_width(const struct _lv_obj_t * obj, uint32_t part)
 410:Drivers/lvgl/lvgl/src/widgets/../core/lv_obj_style_gen.h **** {
 411:Drivers/lvgl/lvgl/src/widgets/../core/lv_obj_style_gen.h ****     lv_style_value_t v = lv_obj_get_style_prop(obj, part, LV_STYLE_ARC_WIDTH);
 412:Drivers/lvgl/lvgl/src/widgets/../core/lv_obj_style_gen.h ****     return (lv_coord_t)v.num;
 413:Drivers/lvgl/lvgl/src/widgets/../core/lv_obj_style_gen.h **** }
 414:Drivers/lvgl/lvgl/src/widgets/../core/lv_obj_style_gen.h **** 
 415:Drivers/lvgl/lvgl/src/widgets/../core/lv_obj_style_gen.h **** static inline bool lv_obj_get_style_arc_rounded(const struct _lv_obj_t * obj, uint32_t part)
 416:Drivers/lvgl/lvgl/src/widgets/../core/lv_obj_style_gen.h **** {
 417:Drivers/lvgl/lvgl/src/widgets/../core/lv_obj_style_gen.h ****     lv_style_value_t v = lv_obj_get_style_prop(obj, part, LV_STYLE_ARC_ROUNDED);
 418:Drivers/lvgl/lvgl/src/widgets/../core/lv_obj_style_gen.h ****     return (bool)v.num;
 419:Drivers/lvgl/lvgl/src/widgets/../core/lv_obj_style_gen.h **** }
 420:Drivers/lvgl/lvgl/src/widgets/../core/lv_obj_style_gen.h **** 
 421:Drivers/lvgl/lvgl/src/widgets/../core/lv_obj_style_gen.h **** static inline lv_color_t lv_obj_get_style_arc_color(const struct _lv_obj_t * obj, uint32_t part)
 422:Drivers/lvgl/lvgl/src/widgets/../core/lv_obj_style_gen.h **** {
 423:Drivers/lvgl/lvgl/src/widgets/../core/lv_obj_style_gen.h ****     lv_style_value_t v = lv_obj_get_style_prop(obj, part, LV_STYLE_ARC_COLOR);
 424:Drivers/lvgl/lvgl/src/widgets/../core/lv_obj_style_gen.h ****     return v.color;
 425:Drivers/lvgl/lvgl/src/widgets/../core/lv_obj_style_gen.h **** }
 426:Drivers/lvgl/lvgl/src/widgets/../core/lv_obj_style_gen.h **** 
 427:Drivers/lvgl/lvgl/src/widgets/../core/lv_obj_style_gen.h **** static inline lv_color_t lv_obj_get_style_arc_color_filtered(const struct _lv_obj_t * obj, uint32_t
 428:Drivers/lvgl/lvgl/src/widgets/../core/lv_obj_style_gen.h **** {
 429:Drivers/lvgl/lvgl/src/widgets/../core/lv_obj_style_gen.h ****     lv_style_value_t v = _lv_obj_style_apply_color_filter(obj, part, lv_obj_get_style_prop(obj, par
 430:Drivers/lvgl/lvgl/src/widgets/../core/lv_obj_style_gen.h ****     return v.color;
 431:Drivers/lvgl/lvgl/src/widgets/../core/lv_obj_style_gen.h **** }
 432:Drivers/lvgl/lvgl/src/widgets/../core/lv_obj_style_gen.h **** 
 433:Drivers/lvgl/lvgl/src/widgets/../core/lv_obj_style_gen.h **** static inline lv_opa_t lv_obj_get_style_arc_opa(const struct _lv_obj_t * obj, uint32_t part)
 434:Drivers/lvgl/lvgl/src/widgets/../core/lv_obj_style_gen.h **** {
 435:Drivers/lvgl/lvgl/src/widgets/../core/lv_obj_style_gen.h ****     lv_style_value_t v = lv_obj_get_style_prop(obj, part, LV_STYLE_ARC_OPA);
 436:Drivers/lvgl/lvgl/src/widgets/../core/lv_obj_style_gen.h ****     return (lv_opa_t)v.num;
 437:Drivers/lvgl/lvgl/src/widgets/../core/lv_obj_style_gen.h **** }
 438:Drivers/lvgl/lvgl/src/widgets/../core/lv_obj_style_gen.h **** 
 439:Drivers/lvgl/lvgl/src/widgets/../core/lv_obj_style_gen.h **** static inline const void * lv_obj_get_style_arc_img_src(const struct _lv_obj_t * obj, uint32_t part
 440:Drivers/lvgl/lvgl/src/widgets/../core/lv_obj_style_gen.h **** {
 441:Drivers/lvgl/lvgl/src/widgets/../core/lv_obj_style_gen.h ****     lv_style_value_t v = lv_obj_get_style_prop(obj, part, LV_STYLE_ARC_IMG_SRC);
 442:Drivers/lvgl/lvgl/src/widgets/../core/lv_obj_style_gen.h ****     return (const void *)v.ptr;
 443:Drivers/lvgl/lvgl/src/widgets/../core/lv_obj_style_gen.h **** }
 444:Drivers/lvgl/lvgl/src/widgets/../core/lv_obj_style_gen.h **** 
 445:Drivers/lvgl/lvgl/src/widgets/../core/lv_obj_style_gen.h **** static inline lv_color_t lv_obj_get_style_text_color(const struct _lv_obj_t * obj, uint32_t part)
 446:Drivers/lvgl/lvgl/src/widgets/../core/lv_obj_style_gen.h **** {
 447:Drivers/lvgl/lvgl/src/widgets/../core/lv_obj_style_gen.h ****     lv_style_value_t v = lv_obj_get_style_prop(obj, part, LV_STYLE_TEXT_COLOR);
ARM GAS  /tmp/cchLtzqB.s 			page 32


 448:Drivers/lvgl/lvgl/src/widgets/../core/lv_obj_style_gen.h ****     return v.color;
 449:Drivers/lvgl/lvgl/src/widgets/../core/lv_obj_style_gen.h **** }
 450:Drivers/lvgl/lvgl/src/widgets/../core/lv_obj_style_gen.h **** 
 451:Drivers/lvgl/lvgl/src/widgets/../core/lv_obj_style_gen.h **** static inline lv_color_t lv_obj_get_style_text_color_filtered(const struct _lv_obj_t * obj, uint32_
 452:Drivers/lvgl/lvgl/src/widgets/../core/lv_obj_style_gen.h **** {
 453:Drivers/lvgl/lvgl/src/widgets/../core/lv_obj_style_gen.h ****     lv_style_value_t v = _lv_obj_style_apply_color_filter(obj, part, lv_obj_get_style_prop(obj, par
 454:Drivers/lvgl/lvgl/src/widgets/../core/lv_obj_style_gen.h ****     return v.color;
 455:Drivers/lvgl/lvgl/src/widgets/../core/lv_obj_style_gen.h **** }
 456:Drivers/lvgl/lvgl/src/widgets/../core/lv_obj_style_gen.h **** 
 457:Drivers/lvgl/lvgl/src/widgets/../core/lv_obj_style_gen.h **** static inline lv_opa_t lv_obj_get_style_text_opa(const struct _lv_obj_t * obj, uint32_t part)
 458:Drivers/lvgl/lvgl/src/widgets/../core/lv_obj_style_gen.h **** {
 459:Drivers/lvgl/lvgl/src/widgets/../core/lv_obj_style_gen.h ****     lv_style_value_t v = lv_obj_get_style_prop(obj, part, LV_STYLE_TEXT_OPA);
 460:Drivers/lvgl/lvgl/src/widgets/../core/lv_obj_style_gen.h ****     return (lv_opa_t)v.num;
 461:Drivers/lvgl/lvgl/src/widgets/../core/lv_obj_style_gen.h **** }
 462:Drivers/lvgl/lvgl/src/widgets/../core/lv_obj_style_gen.h **** 
 463:Drivers/lvgl/lvgl/src/widgets/../core/lv_obj_style_gen.h **** static inline const lv_font_t * lv_obj_get_style_text_font(const struct _lv_obj_t * obj, uint32_t p
 464:Drivers/lvgl/lvgl/src/widgets/../core/lv_obj_style_gen.h **** {
 465:Drivers/lvgl/lvgl/src/widgets/../core/lv_obj_style_gen.h ****     lv_style_value_t v = lv_obj_get_style_prop(obj, part, LV_STYLE_TEXT_FONT);
 466:Drivers/lvgl/lvgl/src/widgets/../core/lv_obj_style_gen.h ****     return (const lv_font_t *)v.ptr;
 467:Drivers/lvgl/lvgl/src/widgets/../core/lv_obj_style_gen.h **** }
 468:Drivers/lvgl/lvgl/src/widgets/../core/lv_obj_style_gen.h **** 
 469:Drivers/lvgl/lvgl/src/widgets/../core/lv_obj_style_gen.h **** static inline lv_coord_t lv_obj_get_style_text_letter_space(const struct _lv_obj_t * obj, uint32_t 
 470:Drivers/lvgl/lvgl/src/widgets/../core/lv_obj_style_gen.h **** {
 471:Drivers/lvgl/lvgl/src/widgets/../core/lv_obj_style_gen.h ****     lv_style_value_t v = lv_obj_get_style_prop(obj, part, LV_STYLE_TEXT_LETTER_SPACE);
 472:Drivers/lvgl/lvgl/src/widgets/../core/lv_obj_style_gen.h ****     return (lv_coord_t)v.num;
 473:Drivers/lvgl/lvgl/src/widgets/../core/lv_obj_style_gen.h **** }
 474:Drivers/lvgl/lvgl/src/widgets/../core/lv_obj_style_gen.h **** 
 475:Drivers/lvgl/lvgl/src/widgets/../core/lv_obj_style_gen.h **** static inline lv_coord_t lv_obj_get_style_text_line_space(const struct _lv_obj_t * obj, uint32_t pa
 476:Drivers/lvgl/lvgl/src/widgets/../core/lv_obj_style_gen.h **** {
 477:Drivers/lvgl/lvgl/src/widgets/../core/lv_obj_style_gen.h ****     lv_style_value_t v = lv_obj_get_style_prop(obj, part, LV_STYLE_TEXT_LINE_SPACE);
 478:Drivers/lvgl/lvgl/src/widgets/../core/lv_obj_style_gen.h ****     return (lv_coord_t)v.num;
 479:Drivers/lvgl/lvgl/src/widgets/../core/lv_obj_style_gen.h **** }
 480:Drivers/lvgl/lvgl/src/widgets/../core/lv_obj_style_gen.h **** 
 481:Drivers/lvgl/lvgl/src/widgets/../core/lv_obj_style_gen.h **** static inline lv_text_decor_t lv_obj_get_style_text_decor(const struct _lv_obj_t * obj, uint32_t pa
 482:Drivers/lvgl/lvgl/src/widgets/../core/lv_obj_style_gen.h **** {
 483:Drivers/lvgl/lvgl/src/widgets/../core/lv_obj_style_gen.h ****     lv_style_value_t v = lv_obj_get_style_prop(obj, part, LV_STYLE_TEXT_DECOR);
 484:Drivers/lvgl/lvgl/src/widgets/../core/lv_obj_style_gen.h ****     return (lv_text_decor_t)v.num;
 485:Drivers/lvgl/lvgl/src/widgets/../core/lv_obj_style_gen.h **** }
 486:Drivers/lvgl/lvgl/src/widgets/../core/lv_obj_style_gen.h **** 
 487:Drivers/lvgl/lvgl/src/widgets/../core/lv_obj_style_gen.h **** static inline lv_text_align_t lv_obj_get_style_text_align(const struct _lv_obj_t * obj, uint32_t pa
 488:Drivers/lvgl/lvgl/src/widgets/../core/lv_obj_style_gen.h **** {
 489:Drivers/lvgl/lvgl/src/widgets/../core/lv_obj_style_gen.h ****     lv_style_value_t v = lv_obj_get_style_prop(obj, part, LV_STYLE_TEXT_ALIGN);
 490:Drivers/lvgl/lvgl/src/widgets/../core/lv_obj_style_gen.h ****     return (lv_text_align_t)v.num;
 491:Drivers/lvgl/lvgl/src/widgets/../core/lv_obj_style_gen.h **** }
 492:Drivers/lvgl/lvgl/src/widgets/../core/lv_obj_style_gen.h **** 
 493:Drivers/lvgl/lvgl/src/widgets/../core/lv_obj_style_gen.h **** static inline lv_coord_t lv_obj_get_style_radius(const struct _lv_obj_t * obj, uint32_t part)
 494:Drivers/lvgl/lvgl/src/widgets/../core/lv_obj_style_gen.h **** {
 495:Drivers/lvgl/lvgl/src/widgets/../core/lv_obj_style_gen.h ****     lv_style_value_t v = lv_obj_get_style_prop(obj, part, LV_STYLE_RADIUS);
 496:Drivers/lvgl/lvgl/src/widgets/../core/lv_obj_style_gen.h ****     return (lv_coord_t)v.num;
 497:Drivers/lvgl/lvgl/src/widgets/../core/lv_obj_style_gen.h **** }
 498:Drivers/lvgl/lvgl/src/widgets/../core/lv_obj_style_gen.h **** 
 499:Drivers/lvgl/lvgl/src/widgets/../core/lv_obj_style_gen.h **** static inline bool lv_obj_get_style_clip_corner(const struct _lv_obj_t * obj, uint32_t part)
 500:Drivers/lvgl/lvgl/src/widgets/../core/lv_obj_style_gen.h **** {
 501:Drivers/lvgl/lvgl/src/widgets/../core/lv_obj_style_gen.h ****     lv_style_value_t v = lv_obj_get_style_prop(obj, part, LV_STYLE_CLIP_CORNER);
 502:Drivers/lvgl/lvgl/src/widgets/../core/lv_obj_style_gen.h ****     return (bool)v.num;
 503:Drivers/lvgl/lvgl/src/widgets/../core/lv_obj_style_gen.h **** }
 504:Drivers/lvgl/lvgl/src/widgets/../core/lv_obj_style_gen.h **** 
ARM GAS  /tmp/cchLtzqB.s 			page 33


 505:Drivers/lvgl/lvgl/src/widgets/../core/lv_obj_style_gen.h **** static inline lv_opa_t lv_obj_get_style_opa(const struct _lv_obj_t * obj, uint32_t part)
 506:Drivers/lvgl/lvgl/src/widgets/../core/lv_obj_style_gen.h **** {
 507:Drivers/lvgl/lvgl/src/widgets/../core/lv_obj_style_gen.h ****     lv_style_value_t v = lv_obj_get_style_prop(obj, part, LV_STYLE_OPA);
 508:Drivers/lvgl/lvgl/src/widgets/../core/lv_obj_style_gen.h ****     return (lv_opa_t)v.num;
 509:Drivers/lvgl/lvgl/src/widgets/../core/lv_obj_style_gen.h **** }
 510:Drivers/lvgl/lvgl/src/widgets/../core/lv_obj_style_gen.h **** 
 511:Drivers/lvgl/lvgl/src/widgets/../core/lv_obj_style_gen.h **** static inline const lv_color_filter_dsc_t * lv_obj_get_style_color_filter_dsc(const struct _lv_obj_
 512:Drivers/lvgl/lvgl/src/widgets/../core/lv_obj_style_gen.h **** {
 513:Drivers/lvgl/lvgl/src/widgets/../core/lv_obj_style_gen.h ****     lv_style_value_t v = lv_obj_get_style_prop(obj, part, LV_STYLE_COLOR_FILTER_DSC);
 514:Drivers/lvgl/lvgl/src/widgets/../core/lv_obj_style_gen.h ****     return (const lv_color_filter_dsc_t *)v.ptr;
 515:Drivers/lvgl/lvgl/src/widgets/../core/lv_obj_style_gen.h **** }
 516:Drivers/lvgl/lvgl/src/widgets/../core/lv_obj_style_gen.h **** 
 517:Drivers/lvgl/lvgl/src/widgets/../core/lv_obj_style_gen.h **** static inline lv_opa_t lv_obj_get_style_color_filter_opa(const struct _lv_obj_t * obj, uint32_t par
 518:Drivers/lvgl/lvgl/src/widgets/../core/lv_obj_style_gen.h **** {
 519:Drivers/lvgl/lvgl/src/widgets/../core/lv_obj_style_gen.h ****     lv_style_value_t v = lv_obj_get_style_prop(obj, part, LV_STYLE_COLOR_FILTER_OPA);
 520:Drivers/lvgl/lvgl/src/widgets/../core/lv_obj_style_gen.h ****     return (lv_opa_t)v.num;
 521:Drivers/lvgl/lvgl/src/widgets/../core/lv_obj_style_gen.h **** }
 522:Drivers/lvgl/lvgl/src/widgets/../core/lv_obj_style_gen.h **** 
 523:Drivers/lvgl/lvgl/src/widgets/../core/lv_obj_style_gen.h **** static inline const lv_anim_t * lv_obj_get_style_anim(const struct _lv_obj_t * obj, uint32_t part)
 524:Drivers/lvgl/lvgl/src/widgets/../core/lv_obj_style_gen.h **** {
 525:Drivers/lvgl/lvgl/src/widgets/../core/lv_obj_style_gen.h ****     lv_style_value_t v = lv_obj_get_style_prop(obj, part, LV_STYLE_ANIM);
 526:Drivers/lvgl/lvgl/src/widgets/../core/lv_obj_style_gen.h ****     return (const lv_anim_t *)v.ptr;
 527:Drivers/lvgl/lvgl/src/widgets/../core/lv_obj_style_gen.h **** }
 528:Drivers/lvgl/lvgl/src/widgets/../core/lv_obj_style_gen.h **** 
 529:Drivers/lvgl/lvgl/src/widgets/../core/lv_obj_style_gen.h **** static inline uint32_t lv_obj_get_style_anim_time(const struct _lv_obj_t * obj, uint32_t part)
 530:Drivers/lvgl/lvgl/src/widgets/../core/lv_obj_style_gen.h **** {
 531:Drivers/lvgl/lvgl/src/widgets/../core/lv_obj_style_gen.h ****     lv_style_value_t v = lv_obj_get_style_prop(obj, part, LV_STYLE_ANIM_TIME);
 169              		.loc 3 531 0
 170 0006 6422     		movs	r2, #100
 171 0008 4FF4E021 		mov	r1, #458752
 172 000c FFF7FEFF 		bl	lv_obj_get_style_prop
 173              	.LVL9:
 174              	.LBE111:
 175              	.LBE110:
1031:Drivers/lvgl/lvgl/src/widgets/lv_textarea.c ****     lv_textarea_t * ta = (lv_textarea_t *)obj;
1032:Drivers/lvgl/lvgl/src/widgets/lv_textarea.c ****     uint32_t blink_time = lv_obj_get_style_anim_time(obj, LV_PART_CURSOR);
1033:Drivers/lvgl/lvgl/src/widgets/lv_textarea.c ****     if(blink_time == 0) {
 176              		.loc 1 1033 0
 177 0010 C0B1     		cbz	r0, .L14
 178 0012 0546     		mov	r5, r0
 179              	.LBB112:
1034:Drivers/lvgl/lvgl/src/widgets/lv_textarea.c ****         lv_anim_del(obj, cursor_blink_anim_cb);
1035:Drivers/lvgl/lvgl/src/widgets/lv_textarea.c ****         ta->cursor.show = 1;
1036:Drivers/lvgl/lvgl/src/widgets/lv_textarea.c ****     }
1037:Drivers/lvgl/lvgl/src/widgets/lv_textarea.c ****     else {
1038:Drivers/lvgl/lvgl/src/widgets/lv_textarea.c ****         lv_anim_t a;
1039:Drivers/lvgl/lvgl/src/widgets/lv_textarea.c ****         lv_anim_init(&a);
 180              		.loc 1 1039 0
 181 0014 01A8     		add	r0, sp, #4
 182 0016 FFF7FEFF 		bl	lv_anim_init
 183              	.LVL10:
 184              	.LBB113:
 185              	.LBB114:
 186              		.file 4 "Drivers/lvgl/lvgl/src/widgets/../core/../misc/lv_anim.h"
   1:Drivers/lvgl/lvgl/src/widgets/../core/../misc/lv_anim.h **** /**
   2:Drivers/lvgl/lvgl/src/widgets/../core/../misc/lv_anim.h ****  * @file lv_anim.h
   3:Drivers/lvgl/lvgl/src/widgets/../core/../misc/lv_anim.h ****  *
ARM GAS  /tmp/cchLtzqB.s 			page 34


   4:Drivers/lvgl/lvgl/src/widgets/../core/../misc/lv_anim.h ****  */
   5:Drivers/lvgl/lvgl/src/widgets/../core/../misc/lv_anim.h **** 
   6:Drivers/lvgl/lvgl/src/widgets/../core/../misc/lv_anim.h **** #ifndef LV_ANIM_H
   7:Drivers/lvgl/lvgl/src/widgets/../core/../misc/lv_anim.h **** #define LV_ANIM_H
   8:Drivers/lvgl/lvgl/src/widgets/../core/../misc/lv_anim.h **** 
   9:Drivers/lvgl/lvgl/src/widgets/../core/../misc/lv_anim.h **** #ifdef __cplusplus
  10:Drivers/lvgl/lvgl/src/widgets/../core/../misc/lv_anim.h **** extern "C" {
  11:Drivers/lvgl/lvgl/src/widgets/../core/../misc/lv_anim.h **** #endif
  12:Drivers/lvgl/lvgl/src/widgets/../core/../misc/lv_anim.h **** 
  13:Drivers/lvgl/lvgl/src/widgets/../core/../misc/lv_anim.h **** /*********************
  14:Drivers/lvgl/lvgl/src/widgets/../core/../misc/lv_anim.h ****  *      INCLUDES
  15:Drivers/lvgl/lvgl/src/widgets/../core/../misc/lv_anim.h ****  *********************/
  16:Drivers/lvgl/lvgl/src/widgets/../core/../misc/lv_anim.h **** #include "../lv_conf_internal.h"
  17:Drivers/lvgl/lvgl/src/widgets/../core/../misc/lv_anim.h **** 
  18:Drivers/lvgl/lvgl/src/widgets/../core/../misc/lv_anim.h **** #include <stdint.h>
  19:Drivers/lvgl/lvgl/src/widgets/../core/../misc/lv_anim.h **** #include <stdbool.h>
  20:Drivers/lvgl/lvgl/src/widgets/../core/../misc/lv_anim.h **** #include <stddef.h>
  21:Drivers/lvgl/lvgl/src/widgets/../core/../misc/lv_anim.h **** 
  22:Drivers/lvgl/lvgl/src/widgets/../core/../misc/lv_anim.h **** /*********************
  23:Drivers/lvgl/lvgl/src/widgets/../core/../misc/lv_anim.h ****  *      DEFINES
  24:Drivers/lvgl/lvgl/src/widgets/../core/../misc/lv_anim.h ****  *********************/
  25:Drivers/lvgl/lvgl/src/widgets/../core/../misc/lv_anim.h **** 
  26:Drivers/lvgl/lvgl/src/widgets/../core/../misc/lv_anim.h **** #define LV_ANIM_REPEAT_INFINITE      0xFFFF
  27:Drivers/lvgl/lvgl/src/widgets/../core/../misc/lv_anim.h **** #define LV_ANIM_PLAYTIME_INFINITE    0xFFFFFFFF
  28:Drivers/lvgl/lvgl/src/widgets/../core/../misc/lv_anim.h **** 
  29:Drivers/lvgl/lvgl/src/widgets/../core/../misc/lv_anim.h **** LV_EXPORT_CONST_INT(LV_ANIM_REPEAT_INFINITE);
  30:Drivers/lvgl/lvgl/src/widgets/../core/../misc/lv_anim.h **** LV_EXPORT_CONST_INT(LV_ANIM_PLAYTIME_INFINITE);
  31:Drivers/lvgl/lvgl/src/widgets/../core/../misc/lv_anim.h **** 
  32:Drivers/lvgl/lvgl/src/widgets/../core/../misc/lv_anim.h **** /**********************
  33:Drivers/lvgl/lvgl/src/widgets/../core/../misc/lv_anim.h ****  *      TYPEDEFS
  34:Drivers/lvgl/lvgl/src/widgets/../core/../misc/lv_anim.h ****  **********************/
  35:Drivers/lvgl/lvgl/src/widgets/../core/../misc/lv_anim.h **** 
  36:Drivers/lvgl/lvgl/src/widgets/../core/../misc/lv_anim.h **** /** Can be used to indicate if animations are enabled or disabled in a case*/
  37:Drivers/lvgl/lvgl/src/widgets/../core/../misc/lv_anim.h **** typedef enum {
  38:Drivers/lvgl/lvgl/src/widgets/../core/../misc/lv_anim.h ****     LV_ANIM_OFF,
  39:Drivers/lvgl/lvgl/src/widgets/../core/../misc/lv_anim.h ****     LV_ANIM_ON,
  40:Drivers/lvgl/lvgl/src/widgets/../core/../misc/lv_anim.h **** } lv_anim_enable_t;
  41:Drivers/lvgl/lvgl/src/widgets/../core/../misc/lv_anim.h **** 
  42:Drivers/lvgl/lvgl/src/widgets/../core/../misc/lv_anim.h **** struct _lv_anim_t;
  43:Drivers/lvgl/lvgl/src/widgets/../core/../misc/lv_anim.h **** struct _lv_timer_t;
  44:Drivers/lvgl/lvgl/src/widgets/../core/../misc/lv_anim.h **** 
  45:Drivers/lvgl/lvgl/src/widgets/../core/../misc/lv_anim.h **** /** Get the current value during an animation*/
  46:Drivers/lvgl/lvgl/src/widgets/../core/../misc/lv_anim.h **** typedef int32_t (*lv_anim_path_cb_t)(const struct _lv_anim_t *);
  47:Drivers/lvgl/lvgl/src/widgets/../core/../misc/lv_anim.h **** 
  48:Drivers/lvgl/lvgl/src/widgets/../core/../misc/lv_anim.h **** /** Generic prototype of "animator" functions.
  49:Drivers/lvgl/lvgl/src/widgets/../core/../misc/lv_anim.h ****  * First parameter is the variable to animate.
  50:Drivers/lvgl/lvgl/src/widgets/../core/../misc/lv_anim.h ****  * Second parameter is the value to set.
  51:Drivers/lvgl/lvgl/src/widgets/../core/../misc/lv_anim.h ****  * Compatible with `lv_xxx_set_yyy(obj, value)` functions
  52:Drivers/lvgl/lvgl/src/widgets/../core/../misc/lv_anim.h ****  * The `x` in `_xcb_t` means it's not a fully generic prototype because
  53:Drivers/lvgl/lvgl/src/widgets/../core/../misc/lv_anim.h ****  * it doesn't receive `lv_anim_t *` as its first argument*/
  54:Drivers/lvgl/lvgl/src/widgets/../core/../misc/lv_anim.h **** typedef void (*lv_anim_exec_xcb_t)(void *, int32_t);
  55:Drivers/lvgl/lvgl/src/widgets/../core/../misc/lv_anim.h **** 
  56:Drivers/lvgl/lvgl/src/widgets/../core/../misc/lv_anim.h **** /** Same as `lv_anim_exec_xcb_t` but receives `lv_anim_t *` as the first parameter.
  57:Drivers/lvgl/lvgl/src/widgets/../core/../misc/lv_anim.h ****  * It's more consistent but less convenient. Might be used by binding generator functions.*/
  58:Drivers/lvgl/lvgl/src/widgets/../core/../misc/lv_anim.h **** typedef void (*lv_anim_custom_exec_cb_t)(struct _lv_anim_t *, int32_t);
  59:Drivers/lvgl/lvgl/src/widgets/../core/../misc/lv_anim.h **** 
  60:Drivers/lvgl/lvgl/src/widgets/../core/../misc/lv_anim.h **** /** Callback to call when the animation is ready*/
ARM GAS  /tmp/cchLtzqB.s 			page 35


  61:Drivers/lvgl/lvgl/src/widgets/../core/../misc/lv_anim.h **** typedef void (*lv_anim_ready_cb_t)(struct _lv_anim_t *);
  62:Drivers/lvgl/lvgl/src/widgets/../core/../misc/lv_anim.h **** 
  63:Drivers/lvgl/lvgl/src/widgets/../core/../misc/lv_anim.h **** /** Callback to call when the animation really stars (considering `delay`)*/
  64:Drivers/lvgl/lvgl/src/widgets/../core/../misc/lv_anim.h **** typedef void (*lv_anim_start_cb_t)(struct _lv_anim_t *);
  65:Drivers/lvgl/lvgl/src/widgets/../core/../misc/lv_anim.h **** 
  66:Drivers/lvgl/lvgl/src/widgets/../core/../misc/lv_anim.h **** /** Callback used when the animation values are relative to get the current value*/
  67:Drivers/lvgl/lvgl/src/widgets/../core/../misc/lv_anim.h **** typedef int32_t (*lv_anim_get_value_cb_t)(struct _lv_anim_t *);
  68:Drivers/lvgl/lvgl/src/widgets/../core/../misc/lv_anim.h **** 
  69:Drivers/lvgl/lvgl/src/widgets/../core/../misc/lv_anim.h **** /** Callback used when the animation is deleted*/
  70:Drivers/lvgl/lvgl/src/widgets/../core/../misc/lv_anim.h **** typedef void (*lv_anim_deleted_cb_t)(struct _lv_anim_t *);
  71:Drivers/lvgl/lvgl/src/widgets/../core/../misc/lv_anim.h **** 
  72:Drivers/lvgl/lvgl/src/widgets/../core/../misc/lv_anim.h **** /** Describes an animation*/
  73:Drivers/lvgl/lvgl/src/widgets/../core/../misc/lv_anim.h **** typedef struct _lv_anim_t {
  74:Drivers/lvgl/lvgl/src/widgets/../core/../misc/lv_anim.h ****     void * var;                          /**<Variable to animate*/
  75:Drivers/lvgl/lvgl/src/widgets/../core/../misc/lv_anim.h ****     lv_anim_exec_xcb_t exec_cb;          /**< Function to execute to animate*/
  76:Drivers/lvgl/lvgl/src/widgets/../core/../misc/lv_anim.h ****     lv_anim_start_cb_t start_cb;         /**< Call it when the animation is starts (considering `de
  77:Drivers/lvgl/lvgl/src/widgets/../core/../misc/lv_anim.h ****     lv_anim_ready_cb_t ready_cb;         /**< Call it when the animation is ready*/
  78:Drivers/lvgl/lvgl/src/widgets/../core/../misc/lv_anim.h ****     lv_anim_deleted_cb_t deleted_cb;     /**< Call it when the animation is deleted*/
  79:Drivers/lvgl/lvgl/src/widgets/../core/../misc/lv_anim.h ****     lv_anim_get_value_cb_t get_value_cb; /**< Get the current value in relative mode*/
  80:Drivers/lvgl/lvgl/src/widgets/../core/../misc/lv_anim.h **** #if LV_USE_USER_DATA
  81:Drivers/lvgl/lvgl/src/widgets/../core/../misc/lv_anim.h ****     void * user_data; /**< Custom user data*/
  82:Drivers/lvgl/lvgl/src/widgets/../core/../misc/lv_anim.h **** #endif
  83:Drivers/lvgl/lvgl/src/widgets/../core/../misc/lv_anim.h ****     lv_anim_path_cb_t path_cb;         /**< Describe the path (curve) of animations*/
  84:Drivers/lvgl/lvgl/src/widgets/../core/../misc/lv_anim.h ****     int32_t start_value;               /**< Start value*/
  85:Drivers/lvgl/lvgl/src/widgets/../core/../misc/lv_anim.h ****     int32_t current_value;             /**< Current value*/
  86:Drivers/lvgl/lvgl/src/widgets/../core/../misc/lv_anim.h ****     int32_t end_value;                 /**< End value*/
  87:Drivers/lvgl/lvgl/src/widgets/../core/../misc/lv_anim.h ****     int32_t time;                /**< Animation time in ms*/
  88:Drivers/lvgl/lvgl/src/widgets/../core/../misc/lv_anim.h ****     int32_t act_time;            /**< Current time in animation. Set to negative to make delay.*/
  89:Drivers/lvgl/lvgl/src/widgets/../core/../misc/lv_anim.h ****     uint32_t playback_delay;     /**< Wait before play back*/
  90:Drivers/lvgl/lvgl/src/widgets/../core/../misc/lv_anim.h ****     uint32_t playback_time;      /**< Duration of playback animation*/
  91:Drivers/lvgl/lvgl/src/widgets/../core/../misc/lv_anim.h ****     uint32_t repeat_delay;       /**< Wait before repeat*/
  92:Drivers/lvgl/lvgl/src/widgets/../core/../misc/lv_anim.h ****     uint16_t repeat_cnt;         /**< Repeat count for the animation*/
  93:Drivers/lvgl/lvgl/src/widgets/../core/../misc/lv_anim.h ****     uint8_t early_apply  : 1;    /**< 1: Apply start value immediately even is there is `delay`*/
  94:Drivers/lvgl/lvgl/src/widgets/../core/../misc/lv_anim.h **** 
  95:Drivers/lvgl/lvgl/src/widgets/../core/../misc/lv_anim.h ****     /*Animation system use these - user shouldn't set*/
  96:Drivers/lvgl/lvgl/src/widgets/../core/../misc/lv_anim.h ****     uint8_t playback_now : 1; /**< Play back is in progress*/
  97:Drivers/lvgl/lvgl/src/widgets/../core/../misc/lv_anim.h ****     uint8_t run_round : 1;    /**< Indicates the animation has run in this round*/
  98:Drivers/lvgl/lvgl/src/widgets/../core/../misc/lv_anim.h ****     uint8_t start_cb_called : 1;    /**< Indicates that the `start_cb` was already called*/
  99:Drivers/lvgl/lvgl/src/widgets/../core/../misc/lv_anim.h **** } lv_anim_t;
 100:Drivers/lvgl/lvgl/src/widgets/../core/../misc/lv_anim.h **** 
 101:Drivers/lvgl/lvgl/src/widgets/../core/../misc/lv_anim.h **** /**********************
 102:Drivers/lvgl/lvgl/src/widgets/../core/../misc/lv_anim.h ****  * GLOBAL PROTOTYPES
 103:Drivers/lvgl/lvgl/src/widgets/../core/../misc/lv_anim.h ****  **********************/
 104:Drivers/lvgl/lvgl/src/widgets/../core/../misc/lv_anim.h **** 
 105:Drivers/lvgl/lvgl/src/widgets/../core/../misc/lv_anim.h **** /**
 106:Drivers/lvgl/lvgl/src/widgets/../core/../misc/lv_anim.h ****  * Init. the animation module
 107:Drivers/lvgl/lvgl/src/widgets/../core/../misc/lv_anim.h ****  */
 108:Drivers/lvgl/lvgl/src/widgets/../core/../misc/lv_anim.h **** void _lv_anim_core_init(void);
 109:Drivers/lvgl/lvgl/src/widgets/../core/../misc/lv_anim.h **** 
 110:Drivers/lvgl/lvgl/src/widgets/../core/../misc/lv_anim.h **** /**
 111:Drivers/lvgl/lvgl/src/widgets/../core/../misc/lv_anim.h ****  * Initialize an animation variable.
 112:Drivers/lvgl/lvgl/src/widgets/../core/../misc/lv_anim.h ****  * E.g.:
 113:Drivers/lvgl/lvgl/src/widgets/../core/../misc/lv_anim.h ****  * lv_anim_t a;
 114:Drivers/lvgl/lvgl/src/widgets/../core/../misc/lv_anim.h ****  * lv_anim_init(&a);
 115:Drivers/lvgl/lvgl/src/widgets/../core/../misc/lv_anim.h ****  * lv_anim_set_...(&a);
 116:Drivers/lvgl/lvgl/src/widgets/../core/../misc/lv_anim.h ****  * lv_anim_start(&a);
 117:Drivers/lvgl/lvgl/src/widgets/../core/../misc/lv_anim.h ****  * @param a     pointer to an `lv_anim_t` variable to initialize
ARM GAS  /tmp/cchLtzqB.s 			page 36


 118:Drivers/lvgl/lvgl/src/widgets/../core/../misc/lv_anim.h ****  */
 119:Drivers/lvgl/lvgl/src/widgets/../core/../misc/lv_anim.h **** void lv_anim_init(lv_anim_t * a);
 120:Drivers/lvgl/lvgl/src/widgets/../core/../misc/lv_anim.h **** 
 121:Drivers/lvgl/lvgl/src/widgets/../core/../misc/lv_anim.h **** /**
 122:Drivers/lvgl/lvgl/src/widgets/../core/../misc/lv_anim.h ****  * Set a variable to animate
 123:Drivers/lvgl/lvgl/src/widgets/../core/../misc/lv_anim.h ****  * @param a     pointer to an initialized `lv_anim_t` variable
 124:Drivers/lvgl/lvgl/src/widgets/../core/../misc/lv_anim.h ****  * @param var   pointer to a variable to animate
 125:Drivers/lvgl/lvgl/src/widgets/../core/../misc/lv_anim.h ****  */
 126:Drivers/lvgl/lvgl/src/widgets/../core/../misc/lv_anim.h **** static inline void lv_anim_set_var(lv_anim_t * a, void * var)
 127:Drivers/lvgl/lvgl/src/widgets/../core/../misc/lv_anim.h **** {
 128:Drivers/lvgl/lvgl/src/widgets/../core/../misc/lv_anim.h ****     a->var = var;
 187              		.loc 4 128 0
 188 001a 0194     		str	r4, [sp, #4]
 189              	.LVL11:
 190              	.LBE114:
 191              	.LBE113:
 192              	.LBB115:
 193              	.LBB116:
 129:Drivers/lvgl/lvgl/src/widgets/../core/../misc/lv_anim.h **** }
 130:Drivers/lvgl/lvgl/src/widgets/../core/../misc/lv_anim.h **** 
 131:Drivers/lvgl/lvgl/src/widgets/../core/../misc/lv_anim.h **** /**
 132:Drivers/lvgl/lvgl/src/widgets/../core/../misc/lv_anim.h ****  * Set a function to animate `var`
 133:Drivers/lvgl/lvgl/src/widgets/../core/../misc/lv_anim.h ****  * @param a         pointer to an initialized `lv_anim_t` variable
 134:Drivers/lvgl/lvgl/src/widgets/../core/../misc/lv_anim.h ****  * @param exec_cb   a function to execute during animation
 135:Drivers/lvgl/lvgl/src/widgets/../core/../misc/lv_anim.h ****  *                  LVGL's built-in functions can be used.
 136:Drivers/lvgl/lvgl/src/widgets/../core/../misc/lv_anim.h ****  *                  E.g. lv_obj_set_x
 137:Drivers/lvgl/lvgl/src/widgets/../core/../misc/lv_anim.h ****  */
 138:Drivers/lvgl/lvgl/src/widgets/../core/../misc/lv_anim.h **** static inline void lv_anim_set_exec_cb(lv_anim_t * a, lv_anim_exec_xcb_t exec_cb)
 139:Drivers/lvgl/lvgl/src/widgets/../core/../misc/lv_anim.h **** {
 140:Drivers/lvgl/lvgl/src/widgets/../core/../misc/lv_anim.h ****     a->exec_cb = exec_cb;
 194              		.loc 4 140 0
 195 001c 0F4B     		ldr	r3, .L15
 196 001e 0293     		str	r3, [sp, #8]
 197              	.LVL12:
 198              	.LBE116:
 199              	.LBE115:
 200              	.LBB117:
 201              	.LBB118:
 141:Drivers/lvgl/lvgl/src/widgets/../core/../misc/lv_anim.h **** }
 142:Drivers/lvgl/lvgl/src/widgets/../core/../misc/lv_anim.h **** 
 143:Drivers/lvgl/lvgl/src/widgets/../core/../misc/lv_anim.h **** /**
 144:Drivers/lvgl/lvgl/src/widgets/../core/../misc/lv_anim.h ****  * Set the duration of an animation
 145:Drivers/lvgl/lvgl/src/widgets/../core/../misc/lv_anim.h ****  * @param a         pointer to an initialized `lv_anim_t` variable
 146:Drivers/lvgl/lvgl/src/widgets/../core/../misc/lv_anim.h ****  * @param duration  duration of the animation in milliseconds
 147:Drivers/lvgl/lvgl/src/widgets/../core/../misc/lv_anim.h ****  */
 148:Drivers/lvgl/lvgl/src/widgets/../core/../misc/lv_anim.h **** static inline void lv_anim_set_time(lv_anim_t * a, uint32_t duration)
 149:Drivers/lvgl/lvgl/src/widgets/../core/../misc/lv_anim.h **** {
 150:Drivers/lvgl/lvgl/src/widgets/../core/../misc/lv_anim.h ****     a->time = duration;
 202              		.loc 4 150 0
 203 0020 0C95     		str	r5, [sp, #48]
 204              	.LVL13:
 205              	.LBE118:
 206              	.LBE117:
 207              	.LBB119:
 208              	.LBB120:
 151:Drivers/lvgl/lvgl/src/widgets/../core/../misc/lv_anim.h **** }
 152:Drivers/lvgl/lvgl/src/widgets/../core/../misc/lv_anim.h **** 
ARM GAS  /tmp/cchLtzqB.s 			page 37


 153:Drivers/lvgl/lvgl/src/widgets/../core/../misc/lv_anim.h **** /**
 154:Drivers/lvgl/lvgl/src/widgets/../core/../misc/lv_anim.h ****  * Set a delay before starting the animation
 155:Drivers/lvgl/lvgl/src/widgets/../core/../misc/lv_anim.h ****  * @param a         pointer to an initialized `lv_anim_t` variable
 156:Drivers/lvgl/lvgl/src/widgets/../core/../misc/lv_anim.h ****  * @param delay     delay before the animation in milliseconds
 157:Drivers/lvgl/lvgl/src/widgets/../core/../misc/lv_anim.h ****  */
 158:Drivers/lvgl/lvgl/src/widgets/../core/../misc/lv_anim.h **** static inline void lv_anim_set_delay(lv_anim_t * a, uint32_t delay)
 159:Drivers/lvgl/lvgl/src/widgets/../core/../misc/lv_anim.h **** {
 160:Drivers/lvgl/lvgl/src/widgets/../core/../misc/lv_anim.h ****     a->act_time = -(int32_t)(delay);
 161:Drivers/lvgl/lvgl/src/widgets/../core/../misc/lv_anim.h **** }
 162:Drivers/lvgl/lvgl/src/widgets/../core/../misc/lv_anim.h **** 
 163:Drivers/lvgl/lvgl/src/widgets/../core/../misc/lv_anim.h **** /**
 164:Drivers/lvgl/lvgl/src/widgets/../core/../misc/lv_anim.h ****  * Set the start and end values of an animation
 165:Drivers/lvgl/lvgl/src/widgets/../core/../misc/lv_anim.h ****  * @param a         pointer to an initialized `lv_anim_t` variable
 166:Drivers/lvgl/lvgl/src/widgets/../core/../misc/lv_anim.h ****  * @param start     the start value
 167:Drivers/lvgl/lvgl/src/widgets/../core/../misc/lv_anim.h ****  * @param end       the end value
 168:Drivers/lvgl/lvgl/src/widgets/../core/../misc/lv_anim.h ****  */
 169:Drivers/lvgl/lvgl/src/widgets/../core/../misc/lv_anim.h **** static inline void lv_anim_set_values(lv_anim_t * a, int32_t start, int32_t end)
 170:Drivers/lvgl/lvgl/src/widgets/../core/../misc/lv_anim.h **** {
 171:Drivers/lvgl/lvgl/src/widgets/../core/../misc/lv_anim.h ****     a->start_value = start;
 172:Drivers/lvgl/lvgl/src/widgets/../core/../misc/lv_anim.h ****     a->current_value = start;
 173:Drivers/lvgl/lvgl/src/widgets/../core/../misc/lv_anim.h ****     a->end_value = end;
 174:Drivers/lvgl/lvgl/src/widgets/../core/../misc/lv_anim.h **** }
 175:Drivers/lvgl/lvgl/src/widgets/../core/../misc/lv_anim.h **** 
 176:Drivers/lvgl/lvgl/src/widgets/../core/../misc/lv_anim.h **** /**
 177:Drivers/lvgl/lvgl/src/widgets/../core/../misc/lv_anim.h ****  * Similar to `lv_anim_set_exec_cb` but `lv_anim_custom_exec_cb_t` receives
 178:Drivers/lvgl/lvgl/src/widgets/../core/../misc/lv_anim.h ****  * `lv_anim_t * ` as its first parameter instead of `void *`.
 179:Drivers/lvgl/lvgl/src/widgets/../core/../misc/lv_anim.h ****  * This function might be used when LVGL is bound to other languages because
 180:Drivers/lvgl/lvgl/src/widgets/../core/../misc/lv_anim.h ****  * it's more consistent to have `lv_anim_t *` as first parameter.
 181:Drivers/lvgl/lvgl/src/widgets/../core/../misc/lv_anim.h ****  * The variable to animate can be stored in the animation's `user_data`
 182:Drivers/lvgl/lvgl/src/widgets/../core/../misc/lv_anim.h ****  * @param a         pointer to an initialized `lv_anim_t` variable
 183:Drivers/lvgl/lvgl/src/widgets/../core/../misc/lv_anim.h ****  * @param exec_cb   a function to execute.
 184:Drivers/lvgl/lvgl/src/widgets/../core/../misc/lv_anim.h ****  */
 185:Drivers/lvgl/lvgl/src/widgets/../core/../misc/lv_anim.h **** static inline void lv_anim_set_custom_exec_cb(lv_anim_t * a, lv_anim_custom_exec_cb_t exec_cb)
 186:Drivers/lvgl/lvgl/src/widgets/../core/../misc/lv_anim.h **** {
 187:Drivers/lvgl/lvgl/src/widgets/../core/../misc/lv_anim.h ****     a->var     = a;
 188:Drivers/lvgl/lvgl/src/widgets/../core/../misc/lv_anim.h ****     a->exec_cb = (lv_anim_exec_xcb_t)exec_cb;
 189:Drivers/lvgl/lvgl/src/widgets/../core/../misc/lv_anim.h **** }
 190:Drivers/lvgl/lvgl/src/widgets/../core/../misc/lv_anim.h **** 
 191:Drivers/lvgl/lvgl/src/widgets/../core/../misc/lv_anim.h **** /**
 192:Drivers/lvgl/lvgl/src/widgets/../core/../misc/lv_anim.h ****  * Set the path (curve) of the animation.
 193:Drivers/lvgl/lvgl/src/widgets/../core/../misc/lv_anim.h ****  * @param a         pointer to an initialized `lv_anim_t` variable
 194:Drivers/lvgl/lvgl/src/widgets/../core/../misc/lv_anim.h ****  * @param path_cb a function to set the current value of the animation.
 195:Drivers/lvgl/lvgl/src/widgets/../core/../misc/lv_anim.h ****  */
 196:Drivers/lvgl/lvgl/src/widgets/../core/../misc/lv_anim.h **** static inline void lv_anim_set_path_cb(lv_anim_t * a, lv_anim_path_cb_t path_cb)
 197:Drivers/lvgl/lvgl/src/widgets/../core/../misc/lv_anim.h **** {
 198:Drivers/lvgl/lvgl/src/widgets/../core/../misc/lv_anim.h ****     a->path_cb = path_cb;
 199:Drivers/lvgl/lvgl/src/widgets/../core/../misc/lv_anim.h **** }
 200:Drivers/lvgl/lvgl/src/widgets/../core/../misc/lv_anim.h **** 
 201:Drivers/lvgl/lvgl/src/widgets/../core/../misc/lv_anim.h **** /**
 202:Drivers/lvgl/lvgl/src/widgets/../core/../misc/lv_anim.h ****  * Set a function call when the animation really starts (considering `delay`)
 203:Drivers/lvgl/lvgl/src/widgets/../core/../misc/lv_anim.h ****  * @param a         pointer to an initialized `lv_anim_t` variable
 204:Drivers/lvgl/lvgl/src/widgets/../core/../misc/lv_anim.h ****  * @param start_cb  a function call when the animation starts
 205:Drivers/lvgl/lvgl/src/widgets/../core/../misc/lv_anim.h ****  */
 206:Drivers/lvgl/lvgl/src/widgets/../core/../misc/lv_anim.h **** static inline void lv_anim_set_start_cb(lv_anim_t * a, lv_anim_start_cb_t start_cb)
 207:Drivers/lvgl/lvgl/src/widgets/../core/../misc/lv_anim.h **** {
 208:Drivers/lvgl/lvgl/src/widgets/../core/../misc/lv_anim.h ****     a->start_cb = start_cb;
 209:Drivers/lvgl/lvgl/src/widgets/../core/../misc/lv_anim.h **** }
ARM GAS  /tmp/cchLtzqB.s 			page 38


 210:Drivers/lvgl/lvgl/src/widgets/../core/../misc/lv_anim.h **** 
 211:Drivers/lvgl/lvgl/src/widgets/../core/../misc/lv_anim.h **** /**
 212:Drivers/lvgl/lvgl/src/widgets/../core/../misc/lv_anim.h ****  * Set a function to use the current value of the variable and make start and end value
 213:Drivers/lvgl/lvgl/src/widgets/../core/../misc/lv_anim.h ****  * relative to the returned current value.
 214:Drivers/lvgl/lvgl/src/widgets/../core/../misc/lv_anim.h ****  * @param a             pointer to an initialized `lv_anim_t` variable
 215:Drivers/lvgl/lvgl/src/widgets/../core/../misc/lv_anim.h ****  * @param get_value_cb  a function call when the animation starts
 216:Drivers/lvgl/lvgl/src/widgets/../core/../misc/lv_anim.h ****  */
 217:Drivers/lvgl/lvgl/src/widgets/../core/../misc/lv_anim.h **** static inline void lv_anim_set_get_value_cb(lv_anim_t * a, lv_anim_get_value_cb_t get_value_cb)
 218:Drivers/lvgl/lvgl/src/widgets/../core/../misc/lv_anim.h **** {
 219:Drivers/lvgl/lvgl/src/widgets/../core/../misc/lv_anim.h ****     a->get_value_cb = get_value_cb;
 220:Drivers/lvgl/lvgl/src/widgets/../core/../misc/lv_anim.h **** }
 221:Drivers/lvgl/lvgl/src/widgets/../core/../misc/lv_anim.h **** 
 222:Drivers/lvgl/lvgl/src/widgets/../core/../misc/lv_anim.h **** /**
 223:Drivers/lvgl/lvgl/src/widgets/../core/../misc/lv_anim.h ****  * Set a function call when the animation is ready
 224:Drivers/lvgl/lvgl/src/widgets/../core/../misc/lv_anim.h ****  * @param a         pointer to an initialized `lv_anim_t` variable
 225:Drivers/lvgl/lvgl/src/widgets/../core/../misc/lv_anim.h ****  * @param ready_cb  a function call when the animation is ready
 226:Drivers/lvgl/lvgl/src/widgets/../core/../misc/lv_anim.h ****  */
 227:Drivers/lvgl/lvgl/src/widgets/../core/../misc/lv_anim.h **** static inline void lv_anim_set_ready_cb(lv_anim_t * a, lv_anim_ready_cb_t ready_cb)
 228:Drivers/lvgl/lvgl/src/widgets/../core/../misc/lv_anim.h **** {
 229:Drivers/lvgl/lvgl/src/widgets/../core/../misc/lv_anim.h ****     a->ready_cb = ready_cb;
 230:Drivers/lvgl/lvgl/src/widgets/../core/../misc/lv_anim.h **** }
 231:Drivers/lvgl/lvgl/src/widgets/../core/../misc/lv_anim.h **** 
 232:Drivers/lvgl/lvgl/src/widgets/../core/../misc/lv_anim.h **** /**
 233:Drivers/lvgl/lvgl/src/widgets/../core/../misc/lv_anim.h ****  * Set a function call when the animation is deleted.
 234:Drivers/lvgl/lvgl/src/widgets/../core/../misc/lv_anim.h ****  * @param a         pointer to an initialized `lv_anim_t` variable
 235:Drivers/lvgl/lvgl/src/widgets/../core/../misc/lv_anim.h ****  * @param deleted_cb  a function call when the animation is deleted
 236:Drivers/lvgl/lvgl/src/widgets/../core/../misc/lv_anim.h ****  */
 237:Drivers/lvgl/lvgl/src/widgets/../core/../misc/lv_anim.h **** static inline void lv_anim_set_deleted_cb(lv_anim_t * a, lv_anim_deleted_cb_t deleted_cb)
 238:Drivers/lvgl/lvgl/src/widgets/../core/../misc/lv_anim.h **** {
 239:Drivers/lvgl/lvgl/src/widgets/../core/../misc/lv_anim.h ****     a->deleted_cb = deleted_cb;
 240:Drivers/lvgl/lvgl/src/widgets/../core/../misc/lv_anim.h **** }
 241:Drivers/lvgl/lvgl/src/widgets/../core/../misc/lv_anim.h **** 
 242:Drivers/lvgl/lvgl/src/widgets/../core/../misc/lv_anim.h **** /**
 243:Drivers/lvgl/lvgl/src/widgets/../core/../misc/lv_anim.h ****  * Make the animation to play back to when the forward direction is ready
 244:Drivers/lvgl/lvgl/src/widgets/../core/../misc/lv_anim.h ****  * @param a         pointer to an initialized `lv_anim_t` variable
 245:Drivers/lvgl/lvgl/src/widgets/../core/../misc/lv_anim.h ****  * @param time      the duration of the playback animation in milliseconds. 0: disable playback
 246:Drivers/lvgl/lvgl/src/widgets/../core/../misc/lv_anim.h ****  */
 247:Drivers/lvgl/lvgl/src/widgets/../core/../misc/lv_anim.h **** static inline void lv_anim_set_playback_time(lv_anim_t * a, uint32_t time)
 248:Drivers/lvgl/lvgl/src/widgets/../core/../misc/lv_anim.h **** {
 249:Drivers/lvgl/lvgl/src/widgets/../core/../misc/lv_anim.h ****     a->playback_time = time;
 209              		.loc 4 249 0
 210 0022 0F95     		str	r5, [sp, #60]
 211              	.LVL14:
 212              	.LBE120:
 213              	.LBE119:
 214              	.LBB121:
 215              	.LBB122:
 171:Drivers/lvgl/lvgl/src/widgets/../core/../misc/lv_anim.h ****     a->current_value = start;
 216              		.loc 4 171 0
 217 0024 0123     		movs	r3, #1
 218 0026 0993     		str	r3, [sp, #36]
 172:Drivers/lvgl/lvgl/src/widgets/../core/../misc/lv_anim.h ****     a->end_value = end;
 219              		.loc 4 172 0
 220 0028 0A93     		str	r3, [sp, #40]
 173:Drivers/lvgl/lvgl/src/widgets/../core/../misc/lv_anim.h **** }
 221              		.loc 4 173 0
 222 002a 0023     		movs	r3, #0
ARM GAS  /tmp/cchLtzqB.s 			page 39


 223 002c 0B93     		str	r3, [sp, #44]
 224              	.LVL15:
 225              	.LBE122:
 226              	.LBE121:
 227              	.LBB123:
 228              	.LBB124:
 198:Drivers/lvgl/lvgl/src/widgets/../core/../misc/lv_anim.h **** }
 229              		.loc 4 198 0
 230 002e 0C4B     		ldr	r3, .L15+4
 231 0030 0893     		str	r3, [sp, #32]
 232              	.LVL16:
 233              	.LBE124:
 234              	.LBE123:
 235              	.LBB125:
 236              	.LBB126:
 250:Drivers/lvgl/lvgl/src/widgets/../core/../misc/lv_anim.h **** }
 251:Drivers/lvgl/lvgl/src/widgets/../core/../misc/lv_anim.h **** 
 252:Drivers/lvgl/lvgl/src/widgets/../core/../misc/lv_anim.h **** /**
 253:Drivers/lvgl/lvgl/src/widgets/../core/../misc/lv_anim.h ****  * Make the animation to play back to when the forward direction is ready
 254:Drivers/lvgl/lvgl/src/widgets/../core/../misc/lv_anim.h ****  * @param a         pointer to an initialized `lv_anim_t` variable
 255:Drivers/lvgl/lvgl/src/widgets/../core/../misc/lv_anim.h ****  * @param delay     delay in milliseconds before starting the playback animation.
 256:Drivers/lvgl/lvgl/src/widgets/../core/../misc/lv_anim.h ****  */
 257:Drivers/lvgl/lvgl/src/widgets/../core/../misc/lv_anim.h **** static inline void lv_anim_set_playback_delay(lv_anim_t * a, uint32_t delay)
 258:Drivers/lvgl/lvgl/src/widgets/../core/../misc/lv_anim.h **** {
 259:Drivers/lvgl/lvgl/src/widgets/../core/../misc/lv_anim.h ****     a->playback_delay = delay;
 260:Drivers/lvgl/lvgl/src/widgets/../core/../misc/lv_anim.h **** }
 261:Drivers/lvgl/lvgl/src/widgets/../core/../misc/lv_anim.h **** 
 262:Drivers/lvgl/lvgl/src/widgets/../core/../misc/lv_anim.h **** /**
 263:Drivers/lvgl/lvgl/src/widgets/../core/../misc/lv_anim.h ****  * Make the animation repeat itself.
 264:Drivers/lvgl/lvgl/src/widgets/../core/../misc/lv_anim.h ****  * @param a         pointer to an initialized `lv_anim_t` variable
 265:Drivers/lvgl/lvgl/src/widgets/../core/../misc/lv_anim.h ****  * @param cnt       repeat count or `LV_ANIM_REPEAT_INFINITE` for infinite repetition. 0: to disabl
 266:Drivers/lvgl/lvgl/src/widgets/../core/../misc/lv_anim.h ****  */
 267:Drivers/lvgl/lvgl/src/widgets/../core/../misc/lv_anim.h **** static inline void lv_anim_set_repeat_count(lv_anim_t * a, uint16_t cnt)
 268:Drivers/lvgl/lvgl/src/widgets/../core/../misc/lv_anim.h **** {
 269:Drivers/lvgl/lvgl/src/widgets/../core/../misc/lv_anim.h ****     a->repeat_cnt = cnt;
 237              		.loc 4 269 0
 238 0032 4FF6FF73 		movw	r3, #65535
 239 0036 ADF84430 		strh	r3, [sp, #68]	@ movhi
 240              	.LVL17:
 241              	.LBE126:
 242              	.LBE125:
1040:Drivers/lvgl/lvgl/src/widgets/lv_textarea.c ****         lv_anim_set_var(&a, ta);
1041:Drivers/lvgl/lvgl/src/widgets/lv_textarea.c ****         lv_anim_set_exec_cb(&a, cursor_blink_anim_cb);
1042:Drivers/lvgl/lvgl/src/widgets/lv_textarea.c ****         lv_anim_set_time(&a, blink_time);
1043:Drivers/lvgl/lvgl/src/widgets/lv_textarea.c ****         lv_anim_set_playback_time(&a, blink_time);
1044:Drivers/lvgl/lvgl/src/widgets/lv_textarea.c ****         lv_anim_set_values(&a, 1, 0);
1045:Drivers/lvgl/lvgl/src/widgets/lv_textarea.c ****         lv_anim_set_path_cb(&a, lv_anim_path_step);
1046:Drivers/lvgl/lvgl/src/widgets/lv_textarea.c ****         lv_anim_set_repeat_count(&a, LV_ANIM_REPEAT_INFINITE);
1047:Drivers/lvgl/lvgl/src/widgets/lv_textarea.c ****         lv_anim_start(&a);
 243              		.loc 1 1047 0
 244 003a 01A8     		add	r0, sp, #4
 245 003c FFF7FEFF 		bl	lv_anim_start
 246              	.LVL18:
 247              	.L10:
 248              	.LBE112:
1048:Drivers/lvgl/lvgl/src/widgets/lv_textarea.c ****     }
1049:Drivers/lvgl/lvgl/src/widgets/lv_textarea.c **** }
ARM GAS  /tmp/cchLtzqB.s 			page 40


 249              		.loc 1 1049 0
 250 0040 13B0     		add	sp, sp, #76
 251              	.LCFI7:
 252              		.cfi_remember_state
 253              		.cfi_def_cfa_offset 12
 254              		@ sp needed
 255 0042 30BD     		pop	{r4, r5, pc}
 256              	.LVL19:
 257              	.L14:
 258              	.LCFI8:
 259              		.cfi_restore_state
1034:Drivers/lvgl/lvgl/src/widgets/lv_textarea.c ****         ta->cursor.show = 1;
 260              		.loc 1 1034 0
 261 0044 0549     		ldr	r1, .L15
 262 0046 2046     		mov	r0, r4
 263 0048 FFF7FEFF 		bl	lv_anim_del
 264              	.LVL20:
1035:Drivers/lvgl/lvgl/src/widgets/lv_textarea.c ****     }
 265              		.loc 1 1035 0
 266 004c 94F85430 		ldrb	r3, [r4, #84]	@ zero_extendqisi2
 267 0050 43F00103 		orr	r3, r3, #1
 268 0054 84F85430 		strb	r3, [r4, #84]
 269 0058 F2E7     		b	.L10
 270              	.L16:
 271 005a 00BF     		.align	2
 272              	.L15:
 273 005c 00000000 		.word	cursor_blink_anim_cb
 274 0060 00000000 		.word	lv_anim_path_step
 275              		.cfi_endproc
 276              	.LFE204:
 278              		.section	.text.draw_placeholder,"ax",%progbits
 279              		.align	1
 280              		.syntax unified
 281              		.thumb
 282              		.thumb_func
 283              		.fpu fpv5-d16
 285              	draw_placeholder:
 286              	.LFB208:
1050:Drivers/lvgl/lvgl/src/widgets/lv_textarea.c **** 
1051:Drivers/lvgl/lvgl/src/widgets/lv_textarea.c **** static void refr_cursor_area(lv_obj_t * obj)
1052:Drivers/lvgl/lvgl/src/widgets/lv_textarea.c **** {
1053:Drivers/lvgl/lvgl/src/widgets/lv_textarea.c ****     lv_textarea_t * ta = (lv_textarea_t *)obj;
1054:Drivers/lvgl/lvgl/src/widgets/lv_textarea.c **** 
1055:Drivers/lvgl/lvgl/src/widgets/lv_textarea.c ****     const lv_font_t * font = lv_obj_get_style_text_font(obj, LV_PART_MAIN);
1056:Drivers/lvgl/lvgl/src/widgets/lv_textarea.c ****     lv_coord_t line_space = lv_obj_get_style_text_line_space(obj, LV_PART_MAIN);
1057:Drivers/lvgl/lvgl/src/widgets/lv_textarea.c **** 
1058:Drivers/lvgl/lvgl/src/widgets/lv_textarea.c ****     uint32_t cur_pos = lv_textarea_get_cursor_pos(obj);
1059:Drivers/lvgl/lvgl/src/widgets/lv_textarea.c ****     const char * txt = lv_label_get_text(ta->label);
1060:Drivers/lvgl/lvgl/src/widgets/lv_textarea.c **** 
1061:Drivers/lvgl/lvgl/src/widgets/lv_textarea.c ****     uint32_t byte_pos = _lv_txt_encoded_get_byte_id(txt, cur_pos);
1062:Drivers/lvgl/lvgl/src/widgets/lv_textarea.c ****     uint32_t letter = _lv_txt_encoded_next(&txt[byte_pos], NULL);
1063:Drivers/lvgl/lvgl/src/widgets/lv_textarea.c **** 
1064:Drivers/lvgl/lvgl/src/widgets/lv_textarea.c ****     /* Letter height and width */
1065:Drivers/lvgl/lvgl/src/widgets/lv_textarea.c ****     const lv_coord_t letter_h = lv_font_get_line_height(font);
1066:Drivers/lvgl/lvgl/src/widgets/lv_textarea.c ****     /*Set letter_w (set not 0 on non printable but valid chars)*/
1067:Drivers/lvgl/lvgl/src/widgets/lv_textarea.c ****     uint32_t letter_space = letter;
1068:Drivers/lvgl/lvgl/src/widgets/lv_textarea.c ****     if(is_valid_but_non_printable_char(letter)) {
ARM GAS  /tmp/cchLtzqB.s 			page 41


1069:Drivers/lvgl/lvgl/src/widgets/lv_textarea.c ****         letter_space = ' ';
1070:Drivers/lvgl/lvgl/src/widgets/lv_textarea.c ****     }
1071:Drivers/lvgl/lvgl/src/widgets/lv_textarea.c ****     lv_coord_t letter_w = lv_font_get_glyph_width(font, letter_space, IGNORE_KERNING);
1072:Drivers/lvgl/lvgl/src/widgets/lv_textarea.c **** 
1073:Drivers/lvgl/lvgl/src/widgets/lv_textarea.c ****     lv_point_t letter_pos;
1074:Drivers/lvgl/lvgl/src/widgets/lv_textarea.c ****     lv_label_get_letter_pos(ta->label, cur_pos, &letter_pos);
1075:Drivers/lvgl/lvgl/src/widgets/lv_textarea.c **** 
1076:Drivers/lvgl/lvgl/src/widgets/lv_textarea.c ****     lv_text_align_t align = lv_obj_calculate_style_text_align(ta->label, LV_PART_MAIN, lv_label_get
1077:Drivers/lvgl/lvgl/src/widgets/lv_textarea.c **** 
1078:Drivers/lvgl/lvgl/src/widgets/lv_textarea.c ****     /*If the cursor is out of the text (most right) draw it to the next line*/
1079:Drivers/lvgl/lvgl/src/widgets/lv_textarea.c ****     if(((letter_pos.x + ta->label->coords.x1) + letter_w > ta->label->coords.x2) &&
1080:Drivers/lvgl/lvgl/src/widgets/lv_textarea.c ****        (ta->one_line == 0 && align != LV_TEXT_ALIGN_RIGHT)) {
1081:Drivers/lvgl/lvgl/src/widgets/lv_textarea.c **** 
1082:Drivers/lvgl/lvgl/src/widgets/lv_textarea.c ****         letter_pos.x = 0;
1083:Drivers/lvgl/lvgl/src/widgets/lv_textarea.c ****         letter_pos.y += letter_h + line_space;
1084:Drivers/lvgl/lvgl/src/widgets/lv_textarea.c **** 
1085:Drivers/lvgl/lvgl/src/widgets/lv_textarea.c ****         if(letter != '\0') {
1086:Drivers/lvgl/lvgl/src/widgets/lv_textarea.c ****             byte_pos += _lv_txt_encoded_size(&txt[byte_pos]);
1087:Drivers/lvgl/lvgl/src/widgets/lv_textarea.c ****             letter = _lv_txt_encoded_next(&txt[byte_pos], NULL);
1088:Drivers/lvgl/lvgl/src/widgets/lv_textarea.c ****         }
1089:Drivers/lvgl/lvgl/src/widgets/lv_textarea.c **** 
1090:Drivers/lvgl/lvgl/src/widgets/lv_textarea.c ****         uint32_t tmp = letter;
1091:Drivers/lvgl/lvgl/src/widgets/lv_textarea.c ****         if(is_valid_but_non_printable_char(letter)) {
1092:Drivers/lvgl/lvgl/src/widgets/lv_textarea.c ****             tmp = ' ';
1093:Drivers/lvgl/lvgl/src/widgets/lv_textarea.c ****         }
1094:Drivers/lvgl/lvgl/src/widgets/lv_textarea.c ****         letter_w = lv_font_get_glyph_width(font, tmp, IGNORE_KERNING);
1095:Drivers/lvgl/lvgl/src/widgets/lv_textarea.c ****     }
1096:Drivers/lvgl/lvgl/src/widgets/lv_textarea.c **** 
1097:Drivers/lvgl/lvgl/src/widgets/lv_textarea.c ****     /*Save the byte position. It is required to draw `LV_CURSOR_BLOCK`*/
1098:Drivers/lvgl/lvgl/src/widgets/lv_textarea.c ****     ta->cursor.txt_byte_pos = byte_pos;
1099:Drivers/lvgl/lvgl/src/widgets/lv_textarea.c **** 
1100:Drivers/lvgl/lvgl/src/widgets/lv_textarea.c ****     /*Calculate the cursor according to its type*/
1101:Drivers/lvgl/lvgl/src/widgets/lv_textarea.c ****     lv_coord_t border_width = lv_obj_get_style_border_width(obj, LV_PART_CURSOR);
1102:Drivers/lvgl/lvgl/src/widgets/lv_textarea.c ****     lv_coord_t top = lv_obj_get_style_pad_top(obj, LV_PART_CURSOR) + border_width;
1103:Drivers/lvgl/lvgl/src/widgets/lv_textarea.c ****     lv_coord_t bottom = lv_obj_get_style_pad_bottom(obj, LV_PART_CURSOR) + border_width;
1104:Drivers/lvgl/lvgl/src/widgets/lv_textarea.c ****     lv_coord_t left = lv_obj_get_style_pad_left(obj, LV_PART_CURSOR) + border_width;
1105:Drivers/lvgl/lvgl/src/widgets/lv_textarea.c ****     lv_coord_t right = lv_obj_get_style_pad_right(obj, LV_PART_CURSOR) + border_width;
1106:Drivers/lvgl/lvgl/src/widgets/lv_textarea.c **** 
1107:Drivers/lvgl/lvgl/src/widgets/lv_textarea.c ****     lv_area_t cur_area;
1108:Drivers/lvgl/lvgl/src/widgets/lv_textarea.c ****     cur_area.x1 = letter_pos.x - left;
1109:Drivers/lvgl/lvgl/src/widgets/lv_textarea.c ****     cur_area.y1 = letter_pos.y - top;
1110:Drivers/lvgl/lvgl/src/widgets/lv_textarea.c ****     cur_area.x2 = letter_pos.x + right + letter_w - 1;
1111:Drivers/lvgl/lvgl/src/widgets/lv_textarea.c ****     cur_area.y2 = letter_pos.y + bottom + letter_h - 1;
1112:Drivers/lvgl/lvgl/src/widgets/lv_textarea.c **** 
1113:Drivers/lvgl/lvgl/src/widgets/lv_textarea.c ****     /*Save the new area*/
1114:Drivers/lvgl/lvgl/src/widgets/lv_textarea.c ****     lv_area_t area_tmp;
1115:Drivers/lvgl/lvgl/src/widgets/lv_textarea.c ****     lv_area_copy(&area_tmp, &ta->cursor.area);
1116:Drivers/lvgl/lvgl/src/widgets/lv_textarea.c ****     area_tmp.x1 += ta->label->coords.x1;
1117:Drivers/lvgl/lvgl/src/widgets/lv_textarea.c ****     area_tmp.y1 += ta->label->coords.y1;
1118:Drivers/lvgl/lvgl/src/widgets/lv_textarea.c ****     area_tmp.x2 += ta->label->coords.x1;
1119:Drivers/lvgl/lvgl/src/widgets/lv_textarea.c ****     area_tmp.y2 += ta->label->coords.y1;
1120:Drivers/lvgl/lvgl/src/widgets/lv_textarea.c ****     lv_obj_invalidate_area(obj, &area_tmp);
1121:Drivers/lvgl/lvgl/src/widgets/lv_textarea.c **** 
1122:Drivers/lvgl/lvgl/src/widgets/lv_textarea.c ****     lv_area_copy(&ta->cursor.area, &cur_area);
1123:Drivers/lvgl/lvgl/src/widgets/lv_textarea.c **** 
1124:Drivers/lvgl/lvgl/src/widgets/lv_textarea.c ****     lv_area_copy(&area_tmp, &ta->cursor.area);
1125:Drivers/lvgl/lvgl/src/widgets/lv_textarea.c ****     area_tmp.x1 += ta->label->coords.x1;
ARM GAS  /tmp/cchLtzqB.s 			page 42


1126:Drivers/lvgl/lvgl/src/widgets/lv_textarea.c ****     area_tmp.y1 += ta->label->coords.y1;
1127:Drivers/lvgl/lvgl/src/widgets/lv_textarea.c ****     area_tmp.x2 += ta->label->coords.x1;
1128:Drivers/lvgl/lvgl/src/widgets/lv_textarea.c ****     area_tmp.y2 += ta->label->coords.y1;
1129:Drivers/lvgl/lvgl/src/widgets/lv_textarea.c ****     lv_obj_invalidate_area(obj, &area_tmp);
1130:Drivers/lvgl/lvgl/src/widgets/lv_textarea.c **** }
1131:Drivers/lvgl/lvgl/src/widgets/lv_textarea.c **** 
1132:Drivers/lvgl/lvgl/src/widgets/lv_textarea.c **** static void update_cursor_position_on_click(lv_event_t * e)
1133:Drivers/lvgl/lvgl/src/widgets/lv_textarea.c **** {
1134:Drivers/lvgl/lvgl/src/widgets/lv_textarea.c ****     lv_indev_t * click_source = lv_indev_get_act();
1135:Drivers/lvgl/lvgl/src/widgets/lv_textarea.c ****     if(click_source == NULL) return;
1136:Drivers/lvgl/lvgl/src/widgets/lv_textarea.c **** 
1137:Drivers/lvgl/lvgl/src/widgets/lv_textarea.c ****     lv_obj_t * obj = lv_event_get_target(e);
1138:Drivers/lvgl/lvgl/src/widgets/lv_textarea.c ****     lv_textarea_t * ta = (lv_textarea_t *)obj;
1139:Drivers/lvgl/lvgl/src/widgets/lv_textarea.c ****     if(ta->cursor.click_pos == 0) return;
1140:Drivers/lvgl/lvgl/src/widgets/lv_textarea.c **** 
1141:Drivers/lvgl/lvgl/src/widgets/lv_textarea.c ****     if(lv_indev_get_type(click_source) == LV_INDEV_TYPE_KEYPAD ||
1142:Drivers/lvgl/lvgl/src/widgets/lv_textarea.c ****        lv_indev_get_type(click_source) == LV_INDEV_TYPE_ENCODER) {
1143:Drivers/lvgl/lvgl/src/widgets/lv_textarea.c ****         return;
1144:Drivers/lvgl/lvgl/src/widgets/lv_textarea.c ****     }
1145:Drivers/lvgl/lvgl/src/widgets/lv_textarea.c **** 
1146:Drivers/lvgl/lvgl/src/widgets/lv_textarea.c ****     lv_area_t label_coords;
1147:Drivers/lvgl/lvgl/src/widgets/lv_textarea.c ****     lv_obj_get_coords(ta->label, &label_coords);
1148:Drivers/lvgl/lvgl/src/widgets/lv_textarea.c **** 
1149:Drivers/lvgl/lvgl/src/widgets/lv_textarea.c ****     lv_point_t point_act, vect_act;
1150:Drivers/lvgl/lvgl/src/widgets/lv_textarea.c ****     lv_indev_get_point(click_source, &point_act);
1151:Drivers/lvgl/lvgl/src/widgets/lv_textarea.c ****     lv_indev_get_vect(click_source, &vect_act);
1152:Drivers/lvgl/lvgl/src/widgets/lv_textarea.c **** 
1153:Drivers/lvgl/lvgl/src/widgets/lv_textarea.c ****     if(point_act.x < 0 || point_act.y < 0) return; /*Ignore event from keypad*/
1154:Drivers/lvgl/lvgl/src/widgets/lv_textarea.c ****     lv_point_t rel_pos;
1155:Drivers/lvgl/lvgl/src/widgets/lv_textarea.c ****     rel_pos.x = point_act.x - label_coords.x1;
1156:Drivers/lvgl/lvgl/src/widgets/lv_textarea.c ****     rel_pos.y = point_act.y - label_coords.y1;
1157:Drivers/lvgl/lvgl/src/widgets/lv_textarea.c **** 
1158:Drivers/lvgl/lvgl/src/widgets/lv_textarea.c ****     const lv_event_code_t code = lv_event_get_code(e);
1159:Drivers/lvgl/lvgl/src/widgets/lv_textarea.c **** 
1160:Drivers/lvgl/lvgl/src/widgets/lv_textarea.c ****     lv_coord_t label_width = lv_obj_get_width(ta->label);
1161:Drivers/lvgl/lvgl/src/widgets/lv_textarea.c ****     uint16_t char_id_at_click = 0;
1162:Drivers/lvgl/lvgl/src/widgets/lv_textarea.c **** 
1163:Drivers/lvgl/lvgl/src/widgets/lv_textarea.c **** #if LV_LABEL_TEXT_SELECTION
1164:Drivers/lvgl/lvgl/src/widgets/lv_textarea.c ****     lv_label_t * label_data = (lv_label_t *)ta->label;
1165:Drivers/lvgl/lvgl/src/widgets/lv_textarea.c ****     bool click_outside_label = false;
1166:Drivers/lvgl/lvgl/src/widgets/lv_textarea.c ****     /*Check if the click happened on the left side of the area outside the label*/
1167:Drivers/lvgl/lvgl/src/widgets/lv_textarea.c ****     if(rel_pos.x < 0) {
1168:Drivers/lvgl/lvgl/src/widgets/lv_textarea.c ****         char_id_at_click = 0;
1169:Drivers/lvgl/lvgl/src/widgets/lv_textarea.c ****         click_outside_label = true;
1170:Drivers/lvgl/lvgl/src/widgets/lv_textarea.c ****     }
1171:Drivers/lvgl/lvgl/src/widgets/lv_textarea.c ****     /*Check if the click happened on the right side of the area outside the label*/
1172:Drivers/lvgl/lvgl/src/widgets/lv_textarea.c ****     else if(rel_pos.x >= label_width) {
1173:Drivers/lvgl/lvgl/src/widgets/lv_textarea.c ****         char_id_at_click = LV_TEXTAREA_CURSOR_LAST;
1174:Drivers/lvgl/lvgl/src/widgets/lv_textarea.c ****         click_outside_label = true;
1175:Drivers/lvgl/lvgl/src/widgets/lv_textarea.c ****     }
1176:Drivers/lvgl/lvgl/src/widgets/lv_textarea.c ****     else {
1177:Drivers/lvgl/lvgl/src/widgets/lv_textarea.c ****         char_id_at_click = lv_label_get_letter_on(ta->label, &rel_pos);
1178:Drivers/lvgl/lvgl/src/widgets/lv_textarea.c ****         click_outside_label = !lv_label_is_char_under_pos(ta->label, &rel_pos);
1179:Drivers/lvgl/lvgl/src/widgets/lv_textarea.c ****     }
1180:Drivers/lvgl/lvgl/src/widgets/lv_textarea.c **** 
1181:Drivers/lvgl/lvgl/src/widgets/lv_textarea.c ****     if(ta->text_sel_en) {
1182:Drivers/lvgl/lvgl/src/widgets/lv_textarea.c ****         if(!ta->text_sel_in_prog && !click_outside_label && code == LV_EVENT_PRESSED) {
ARM GAS  /tmp/cchLtzqB.s 			page 43


1183:Drivers/lvgl/lvgl/src/widgets/lv_textarea.c ****             /*Input device just went down. Store the selection start position*/
1184:Drivers/lvgl/lvgl/src/widgets/lv_textarea.c ****             ta->sel_start    = char_id_at_click;
1185:Drivers/lvgl/lvgl/src/widgets/lv_textarea.c ****             ta->sel_end      = LV_LABEL_TEXT_SELECTION_OFF;
1186:Drivers/lvgl/lvgl/src/widgets/lv_textarea.c ****             ta->text_sel_in_prog = 1;
1187:Drivers/lvgl/lvgl/src/widgets/lv_textarea.c ****             lv_obj_clear_flag(obj, LV_OBJ_FLAG_SCROLL_CHAIN);
1188:Drivers/lvgl/lvgl/src/widgets/lv_textarea.c ****         }
1189:Drivers/lvgl/lvgl/src/widgets/lv_textarea.c ****         else if(ta->text_sel_in_prog && code == LV_EVENT_PRESSING) {
1190:Drivers/lvgl/lvgl/src/widgets/lv_textarea.c ****             /*Input device may be moving. Store the end position*/
1191:Drivers/lvgl/lvgl/src/widgets/lv_textarea.c ****             ta->sel_end = char_id_at_click;
1192:Drivers/lvgl/lvgl/src/widgets/lv_textarea.c ****         }
1193:Drivers/lvgl/lvgl/src/widgets/lv_textarea.c ****         else if(ta->text_sel_in_prog && (code == LV_EVENT_PRESS_LOST || code == LV_EVENT_RELEASED))
1194:Drivers/lvgl/lvgl/src/widgets/lv_textarea.c ****             /*Input device is released. Check if anything was selected.*/
1195:Drivers/lvgl/lvgl/src/widgets/lv_textarea.c ****             lv_obj_add_flag(obj, LV_OBJ_FLAG_SCROLL_CHAIN);
1196:Drivers/lvgl/lvgl/src/widgets/lv_textarea.c ****         }
1197:Drivers/lvgl/lvgl/src/widgets/lv_textarea.c ****     }
1198:Drivers/lvgl/lvgl/src/widgets/lv_textarea.c **** 
1199:Drivers/lvgl/lvgl/src/widgets/lv_textarea.c ****     if(ta->text_sel_in_prog || code == LV_EVENT_PRESSED) lv_textarea_set_cursor_pos(obj, char_id_at
1200:Drivers/lvgl/lvgl/src/widgets/lv_textarea.c **** 
1201:Drivers/lvgl/lvgl/src/widgets/lv_textarea.c ****     if(ta->text_sel_in_prog) {
1202:Drivers/lvgl/lvgl/src/widgets/lv_textarea.c ****         /*If the selected area has changed then update the real values and*/
1203:Drivers/lvgl/lvgl/src/widgets/lv_textarea.c **** 
1204:Drivers/lvgl/lvgl/src/widgets/lv_textarea.c ****         /*Invalidate the text area.*/
1205:Drivers/lvgl/lvgl/src/widgets/lv_textarea.c ****         if(ta->sel_start > ta->sel_end) {
1206:Drivers/lvgl/lvgl/src/widgets/lv_textarea.c ****             if(label_data->sel_start != ta->sel_end || label_data->sel_end != ta->sel_start) {
1207:Drivers/lvgl/lvgl/src/widgets/lv_textarea.c ****                 label_data->sel_start = ta->sel_end;
1208:Drivers/lvgl/lvgl/src/widgets/lv_textarea.c ****                 label_data->sel_end   = ta->sel_start;
1209:Drivers/lvgl/lvgl/src/widgets/lv_textarea.c ****                 lv_obj_invalidate(obj);
1210:Drivers/lvgl/lvgl/src/widgets/lv_textarea.c ****             }
1211:Drivers/lvgl/lvgl/src/widgets/lv_textarea.c ****         }
1212:Drivers/lvgl/lvgl/src/widgets/lv_textarea.c ****         else if(ta->sel_start < ta->sel_end) {
1213:Drivers/lvgl/lvgl/src/widgets/lv_textarea.c ****             if(label_data->sel_start != ta->sel_start || label_data->sel_end != ta->sel_end) {
1214:Drivers/lvgl/lvgl/src/widgets/lv_textarea.c ****                 label_data->sel_start = ta->sel_start;
1215:Drivers/lvgl/lvgl/src/widgets/lv_textarea.c ****                 label_data->sel_end   = ta->sel_end;
1216:Drivers/lvgl/lvgl/src/widgets/lv_textarea.c ****                 lv_obj_invalidate(obj);
1217:Drivers/lvgl/lvgl/src/widgets/lv_textarea.c ****             }
1218:Drivers/lvgl/lvgl/src/widgets/lv_textarea.c ****         }
1219:Drivers/lvgl/lvgl/src/widgets/lv_textarea.c ****         else {
1220:Drivers/lvgl/lvgl/src/widgets/lv_textarea.c ****             if(label_data->sel_start != LV_DRAW_LABEL_NO_TXT_SEL || label_data->sel_end != LV_DRAW_
1221:Drivers/lvgl/lvgl/src/widgets/lv_textarea.c ****                 label_data->sel_start = LV_DRAW_LABEL_NO_TXT_SEL;
1222:Drivers/lvgl/lvgl/src/widgets/lv_textarea.c ****                 label_data->sel_end   = LV_DRAW_LABEL_NO_TXT_SEL;
1223:Drivers/lvgl/lvgl/src/widgets/lv_textarea.c ****                 lv_obj_invalidate(obj);
1224:Drivers/lvgl/lvgl/src/widgets/lv_textarea.c ****             }
1225:Drivers/lvgl/lvgl/src/widgets/lv_textarea.c ****         }
1226:Drivers/lvgl/lvgl/src/widgets/lv_textarea.c ****         /*Finish selection if necessary*/
1227:Drivers/lvgl/lvgl/src/widgets/lv_textarea.c ****         if(code == LV_EVENT_PRESS_LOST || code == LV_EVENT_RELEASED) {
1228:Drivers/lvgl/lvgl/src/widgets/lv_textarea.c ****             ta->text_sel_in_prog = 0;
1229:Drivers/lvgl/lvgl/src/widgets/lv_textarea.c ****         }
1230:Drivers/lvgl/lvgl/src/widgets/lv_textarea.c ****     }
1231:Drivers/lvgl/lvgl/src/widgets/lv_textarea.c **** #else
1232:Drivers/lvgl/lvgl/src/widgets/lv_textarea.c ****     /*Check if the click happened on the left side of the area outside the label*/
1233:Drivers/lvgl/lvgl/src/widgets/lv_textarea.c ****     if(rel_pos.x < 0) {
1234:Drivers/lvgl/lvgl/src/widgets/lv_textarea.c ****         char_id_at_click = 0;
1235:Drivers/lvgl/lvgl/src/widgets/lv_textarea.c ****     }
1236:Drivers/lvgl/lvgl/src/widgets/lv_textarea.c ****     /*Check if the click happened on the right side of the area outside the label*/
1237:Drivers/lvgl/lvgl/src/widgets/lv_textarea.c ****     else if(rel_pos.x >= label_width) {
1238:Drivers/lvgl/lvgl/src/widgets/lv_textarea.c ****         char_id_at_click = LV_TEXTAREA_CURSOR_LAST;
1239:Drivers/lvgl/lvgl/src/widgets/lv_textarea.c ****     }
ARM GAS  /tmp/cchLtzqB.s 			page 44


1240:Drivers/lvgl/lvgl/src/widgets/lv_textarea.c ****     else {
1241:Drivers/lvgl/lvgl/src/widgets/lv_textarea.c ****         char_id_at_click = lv_label_get_letter_on(ta->label, &rel_pos);
1242:Drivers/lvgl/lvgl/src/widgets/lv_textarea.c ****     }
1243:Drivers/lvgl/lvgl/src/widgets/lv_textarea.c **** 
1244:Drivers/lvgl/lvgl/src/widgets/lv_textarea.c ****     if(code == LV_EVENT_PRESSED) lv_textarea_set_cursor_pos(obj, char_id_at_click);
1245:Drivers/lvgl/lvgl/src/widgets/lv_textarea.c **** #endif
1246:Drivers/lvgl/lvgl/src/widgets/lv_textarea.c **** }
1247:Drivers/lvgl/lvgl/src/widgets/lv_textarea.c **** 
1248:Drivers/lvgl/lvgl/src/widgets/lv_textarea.c **** /* Returns LV_RES_OK when no operation were performed
1249:Drivers/lvgl/lvgl/src/widgets/lv_textarea.c ****  * Returns LV_RES_INV when a user defined text was inserted */
1250:Drivers/lvgl/lvgl/src/widgets/lv_textarea.c **** static lv_res_t insert_handler(lv_obj_t * obj, const char * txt)
1251:Drivers/lvgl/lvgl/src/widgets/lv_textarea.c **** {
1252:Drivers/lvgl/lvgl/src/widgets/lv_textarea.c ****     ta_insert_replace = NULL;
1253:Drivers/lvgl/lvgl/src/widgets/lv_textarea.c ****     lv_event_send(obj, LV_EVENT_INSERT, (char *)txt);
1254:Drivers/lvgl/lvgl/src/widgets/lv_textarea.c **** 
1255:Drivers/lvgl/lvgl/src/widgets/lv_textarea.c ****     /* Drop txt if insert replace is set to '\0' */
1256:Drivers/lvgl/lvgl/src/widgets/lv_textarea.c ****     if(ta_insert_replace && ta_insert_replace[0] == '\0')
1257:Drivers/lvgl/lvgl/src/widgets/lv_textarea.c ****         return LV_RES_INV;
1258:Drivers/lvgl/lvgl/src/widgets/lv_textarea.c **** 
1259:Drivers/lvgl/lvgl/src/widgets/lv_textarea.c ****     if(ta_insert_replace) {
1260:Drivers/lvgl/lvgl/src/widgets/lv_textarea.c ****         /*Add the replaced text directly it's different from the original*/
1261:Drivers/lvgl/lvgl/src/widgets/lv_textarea.c ****         if(strcmp(ta_insert_replace, txt)) {
1262:Drivers/lvgl/lvgl/src/widgets/lv_textarea.c ****             lv_textarea_add_text(obj, ta_insert_replace);
1263:Drivers/lvgl/lvgl/src/widgets/lv_textarea.c ****             return LV_RES_INV;
1264:Drivers/lvgl/lvgl/src/widgets/lv_textarea.c ****         }
1265:Drivers/lvgl/lvgl/src/widgets/lv_textarea.c ****     }
1266:Drivers/lvgl/lvgl/src/widgets/lv_textarea.c **** 
1267:Drivers/lvgl/lvgl/src/widgets/lv_textarea.c ****     return LV_RES_OK;
1268:Drivers/lvgl/lvgl/src/widgets/lv_textarea.c **** }
1269:Drivers/lvgl/lvgl/src/widgets/lv_textarea.c **** 
1270:Drivers/lvgl/lvgl/src/widgets/lv_textarea.c **** static void draw_placeholder(lv_event_t * e)
1271:Drivers/lvgl/lvgl/src/widgets/lv_textarea.c **** {
 287              		.loc 1 1271 0
 288              		.cfi_startproc
 289              		@ args = 0, pretend = 0, frame = 40
 290              		@ frame_needed = 0, uses_anonymous_args = 0
 291              	.LVL21:
 292 0000 F0B5     		push	{r4, r5, r6, r7, lr}
 293              	.LCFI9:
 294              		.cfi_def_cfa_offset 20
 295              		.cfi_offset 4, -20
 296              		.cfi_offset 5, -16
 297              		.cfi_offset 6, -12
 298              		.cfi_offset 7, -8
 299              		.cfi_offset 14, -4
 300 0002 8DB0     		sub	sp, sp, #52
 301              	.LCFI10:
 302              		.cfi_def_cfa_offset 72
 303 0004 0546     		mov	r5, r0
1272:Drivers/lvgl/lvgl/src/widgets/lv_textarea.c ****     lv_obj_t * obj = lv_event_get_target(e);
 304              		.loc 1 1272 0
 305 0006 FFF7FEFF 		bl	lv_event_get_target
 306              	.LVL22:
 307 000a 0446     		mov	r4, r0
 308              	.LVL23:
1273:Drivers/lvgl/lvgl/src/widgets/lv_textarea.c ****     lv_textarea_t * ta = (lv_textarea_t *)obj;
1274:Drivers/lvgl/lvgl/src/widgets/lv_textarea.c ****     lv_draw_ctx_t * draw_ctx = lv_event_get_draw_ctx(e);
ARM GAS  /tmp/cchLtzqB.s 			page 45


 309              		.loc 1 1274 0
 310 000c 2846     		mov	r0, r5
 311              	.LVL24:
 312 000e FFF7FEFF 		bl	lv_event_get_draw_ctx
 313              	.LVL25:
 314 0012 0546     		mov	r5, r0
 315              	.LVL26:
1275:Drivers/lvgl/lvgl/src/widgets/lv_textarea.c ****     const char * txt = lv_label_get_text(ta->label);
 316              		.loc 1 1275 0
 317 0014 606A     		ldr	r0, [r4, #36]
 318              	.LVL27:
 319 0016 FFF7FEFF 		bl	lv_label_get_text
 320              	.LVL28:
1276:Drivers/lvgl/lvgl/src/widgets/lv_textarea.c **** 
1277:Drivers/lvgl/lvgl/src/widgets/lv_textarea.c ****     /*Draw the place holder*/
1278:Drivers/lvgl/lvgl/src/widgets/lv_textarea.c ****     if(txt[0] == '\0' && ta->placeholder_txt && ta->placeholder_txt[0] != 0) {
 321              		.loc 1 1278 0
 322 001a 0378     		ldrb	r3, [r0]	@ zero_extendqisi2
 323 001c 1BB9     		cbnz	r3, .L17
 324              		.loc 1 1278 0 is_stmt 0 discriminator 1
 325 001e A36A     		ldr	r3, [r4, #40]
 326 0020 0BB1     		cbz	r3, .L17
 327              		.loc 1 1278 0 discriminator 2
 328 0022 1B78     		ldrb	r3, [r3]	@ zero_extendqisi2
 329 0024 0BB9     		cbnz	r3, .L21
 330              	.LVL29:
 331              	.L17:
1279:Drivers/lvgl/lvgl/src/widgets/lv_textarea.c ****         lv_draw_label_dsc_t ph_dsc;
1280:Drivers/lvgl/lvgl/src/widgets/lv_textarea.c ****         lv_draw_label_dsc_init(&ph_dsc);
1281:Drivers/lvgl/lvgl/src/widgets/lv_textarea.c ****         lv_obj_init_draw_label_dsc(obj, LV_PART_TEXTAREA_PLACEHOLDER, &ph_dsc);
1282:Drivers/lvgl/lvgl/src/widgets/lv_textarea.c **** 
1283:Drivers/lvgl/lvgl/src/widgets/lv_textarea.c ****         if(ta->one_line) ph_dsc.flag |= LV_TEXT_FLAG_EXPAND;
1284:Drivers/lvgl/lvgl/src/widgets/lv_textarea.c **** 
1285:Drivers/lvgl/lvgl/src/widgets/lv_textarea.c ****         lv_coord_t left = lv_obj_get_style_pad_left(obj, LV_PART_MAIN);
1286:Drivers/lvgl/lvgl/src/widgets/lv_textarea.c ****         lv_coord_t top = lv_obj_get_style_pad_top(obj, LV_PART_MAIN);
1287:Drivers/lvgl/lvgl/src/widgets/lv_textarea.c ****         lv_coord_t border_width = lv_obj_get_style_border_width(obj, LV_PART_MAIN);
1288:Drivers/lvgl/lvgl/src/widgets/lv_textarea.c ****         lv_area_t ph_coords;
1289:Drivers/lvgl/lvgl/src/widgets/lv_textarea.c ****         lv_area_copy(&ph_coords, &obj->coords);
1290:Drivers/lvgl/lvgl/src/widgets/lv_textarea.c ****         lv_area_move(&ph_coords, left + border_width, top + border_width);
1291:Drivers/lvgl/lvgl/src/widgets/lv_textarea.c ****         lv_draw_label(draw_ctx, &ph_dsc, &ph_coords, ta->placeholder_txt, NULL);
1292:Drivers/lvgl/lvgl/src/widgets/lv_textarea.c ****     }
1293:Drivers/lvgl/lvgl/src/widgets/lv_textarea.c **** }
 332              		.loc 1 1293 0 is_stmt 1
 333 0026 0DB0     		add	sp, sp, #52
 334              	.LCFI11:
 335              		.cfi_remember_state
 336              		.cfi_def_cfa_offset 20
 337              		@ sp needed
 338 0028 F0BD     		pop	{r4, r5, r6, r7, pc}
 339              	.LVL30:
 340              	.L21:
 341              	.LCFI12:
 342              		.cfi_restore_state
 343              	.LBB127:
1280:Drivers/lvgl/lvgl/src/widgets/lv_textarea.c ****         lv_obj_init_draw_label_dsc(obj, LV_PART_TEXTAREA_PLACEHOLDER, &ph_dsc);
 344              		.loc 1 1280 0
 345 002a 04A8     		add	r0, sp, #16
ARM GAS  /tmp/cchLtzqB.s 			page 46


 346              	.LVL31:
 347 002c FFF7FEFF 		bl	lv_draw_label_dsc_init
 348              	.LVL32:
1281:Drivers/lvgl/lvgl/src/widgets/lv_textarea.c **** 
 349              		.loc 1 1281 0
 350 0030 04AA     		add	r2, sp, #16
 351 0032 4FF40021 		mov	r1, #524288
 352 0036 2046     		mov	r0, r4
 353 0038 FFF7FEFF 		bl	lv_obj_init_draw_label_dsc
 354              	.LVL33:
1283:Drivers/lvgl/lvgl/src/widgets/lv_textarea.c **** 
 355              		.loc 1 1283 0
 356 003c 94F86030 		ldrb	r3, [r4, #96]	@ zero_extendqisi2
 357 0040 13F0080F 		tst	r3, #8
 358 0044 05D0     		beq	.L19
1283:Drivers/lvgl/lvgl/src/widgets/lv_textarea.c **** 
 359              		.loc 1 1283 0 is_stmt 0 discriminator 1
 360 0046 9DF82D30 		ldrb	r3, [sp, #45]	@ zero_extendqisi2
 361 004a 43F00203 		orr	r3, r3, #2
 362 004e 8DF82D30 		strb	r3, [sp, #45]
 363              	.L19:
 364              	.LVL34:
 365              	.LBB128:
 366              	.LBB129:
 117:Drivers/lvgl/lvgl/src/widgets/../core/lv_obj_style_gen.h ****     return (lv_coord_t)v.num;
 367              		.loc 3 117 0 is_stmt 1
 368 0052 1222     		movs	r2, #18
 369 0054 0021     		movs	r1, #0
 370 0056 2046     		mov	r0, r4
 371 0058 FFF7FEFF 		bl	lv_obj_get_style_prop
 372              	.LVL35:
 373 005c 0646     		mov	r6, r0
 374              	.LVL36:
 375              	.LBE129:
 376              	.LBE128:
 377              	.LBB130:
 378              	.LBB131:
 105:Drivers/lvgl/lvgl/src/widgets/../core/lv_obj_style_gen.h ****     return (lv_coord_t)v.num;
 379              		.loc 3 105 0
 380 005e 1022     		movs	r2, #16
 381 0060 0021     		movs	r1, #0
 382 0062 2046     		mov	r0, r4
 383 0064 FFF7FEFF 		bl	lv_obj_get_style_prop
 384              	.LVL37:
 385 0068 0746     		mov	r7, r0
 386              	.LVL38:
 387              	.LBE131:
 388              	.LBE130:
 389              	.LBB132:
 390              	.LBB133:
 255:Drivers/lvgl/lvgl/src/widgets/../core/lv_obj_style_gen.h ****     return (lv_coord_t)v.num;
 391              		.loc 3 255 0
 392 006a 3222     		movs	r2, #50
 393 006c 0021     		movs	r1, #0
 394 006e 2046     		mov	r0, r4
 395 0070 FFF7FEFF 		bl	lv_obj_get_style_prop
 396              	.LVL39:
ARM GAS  /tmp/cchLtzqB.s 			page 47


 397              	.LBE133:
 398              	.LBE132:
 399              	.LBB134:
 400              	.LBB135:
 112:Drivers/lvgl/lvgl/src/widgets/../core/../misc/../font/../misc/lv_area.h ****     dest->y1 = src->y1;
 401              		.loc 2 112 0
 402 0074 B4F91430 		ldrsh	r3, [r4, #20]
 403 0078 ADF80830 		strh	r3, [sp, #8]	@ movhi
 113:Drivers/lvgl/lvgl/src/widgets/../core/../misc/../font/../misc/lv_area.h ****     dest->x2 = src->x2;
 404              		.loc 2 113 0
 405 007c B4F91630 		ldrsh	r3, [r4, #22]
 406 0080 ADF80A30 		strh	r3, [sp, #10]	@ movhi
 114:Drivers/lvgl/lvgl/src/widgets/../core/../misc/../font/../misc/lv_area.h ****     dest->y2 = src->y2;
 407              		.loc 2 114 0
 408 0084 B4F91830 		ldrsh	r3, [r4, #24]
 409 0088 ADF80C30 		strh	r3, [sp, #12]	@ movhi
 410              		.loc 2 115 0
 411 008c B4F91A30 		ldrsh	r3, [r4, #26]
 412 0090 ADF80E30 		strh	r3, [sp, #14]	@ movhi
 413              	.LVL40:
 414              	.LBE135:
 415              	.LBE134:
1290:Drivers/lvgl/lvgl/src/widgets/lv_textarea.c ****         lv_draw_label(draw_ctx, &ph_dsc, &ph_coords, ta->placeholder_txt, NULL);
 416              		.loc 1 1290 0
 417 0094 80B2     		uxth	r0, r0
 418              	.LVL41:
 419 0096 8119     		adds	r1, r0, r6
 420              	.LVL42:
 421 0098 C219     		adds	r2, r0, r7
 422 009a 12B2     		sxth	r2, r2
 423 009c 09B2     		sxth	r1, r1
 424 009e 02A8     		add	r0, sp, #8
 425 00a0 FFF7FEFF 		bl	lv_area_move
 426              	.LVL43:
1291:Drivers/lvgl/lvgl/src/widgets/lv_textarea.c ****     }
 427              		.loc 1 1291 0
 428 00a4 A36A     		ldr	r3, [r4, #40]
 429 00a6 0022     		movs	r2, #0
 430 00a8 0092     		str	r2, [sp]
 431 00aa 02AA     		add	r2, sp, #8
 432 00ac 04A9     		add	r1, sp, #16
 433 00ae 2846     		mov	r0, r5
 434 00b0 FFF7FEFF 		bl	lv_draw_label
 435              	.LVL44:
 436              	.LBE127:
 437              		.loc 1 1293 0
 438 00b4 B7E7     		b	.L17
 439              		.cfi_endproc
 440              	.LFE208:
 442              		.section	.text.draw_cursor,"ax",%progbits
 443              		.align	1
 444              		.syntax unified
 445              		.thumb
 446              		.thumb_func
 447              		.fpu fpv5-d16
 449              	draw_cursor:
 450              	.LFB209:
ARM GAS  /tmp/cchLtzqB.s 			page 48


1294:Drivers/lvgl/lvgl/src/widgets/lv_textarea.c **** 
1295:Drivers/lvgl/lvgl/src/widgets/lv_textarea.c **** static void draw_cursor(lv_event_t * e)
1296:Drivers/lvgl/lvgl/src/widgets/lv_textarea.c **** {
 451              		.loc 1 1296 0
 452              		.cfi_startproc
 453              		@ args = 0, pretend = 0, frame = 104
 454              		@ frame_needed = 0, uses_anonymous_args = 0
 455              	.LVL45:
 456 0000 2DE9F043 		push	{r4, r5, r6, r7, r8, r9, lr}
 457              	.LCFI13:
 458              		.cfi_def_cfa_offset 28
 459              		.cfi_offset 4, -28
 460              		.cfi_offset 5, -24
 461              		.cfi_offset 6, -20
 462              		.cfi_offset 7, -16
 463              		.cfi_offset 8, -12
 464              		.cfi_offset 9, -8
 465              		.cfi_offset 14, -4
 466 0004 9DB0     		sub	sp, sp, #116
 467              	.LCFI14:
 468              		.cfi_def_cfa_offset 144
 469 0006 0546     		mov	r5, r0
1297:Drivers/lvgl/lvgl/src/widgets/lv_textarea.c ****     lv_obj_t * obj = lv_event_get_target(e);
 470              		.loc 1 1297 0
 471 0008 FFF7FEFF 		bl	lv_event_get_target
 472              	.LVL46:
 473 000c 0446     		mov	r4, r0
 474              	.LVL47:
1298:Drivers/lvgl/lvgl/src/widgets/lv_textarea.c ****     lv_textarea_t * ta = (lv_textarea_t *)obj;
1299:Drivers/lvgl/lvgl/src/widgets/lv_textarea.c ****     lv_draw_ctx_t * draw_ctx = lv_event_get_draw_ctx(e);
 475              		.loc 1 1299 0
 476 000e 2846     		mov	r0, r5
 477              	.LVL48:
 478 0010 FFF7FEFF 		bl	lv_event_get_draw_ctx
 479              	.LVL49:
 480 0014 0746     		mov	r7, r0
 481              	.LVL50:
1300:Drivers/lvgl/lvgl/src/widgets/lv_textarea.c ****     const char * txt = lv_label_get_text(ta->label);
 482              		.loc 1 1300 0
 483 0016 606A     		ldr	r0, [r4, #36]
 484              	.LVL51:
 485 0018 FFF7FEFF 		bl	lv_label_get_text
 486              	.LVL52:
1301:Drivers/lvgl/lvgl/src/widgets/lv_textarea.c **** 
1302:Drivers/lvgl/lvgl/src/widgets/lv_textarea.c ****     if(ta->cursor.show == 0) return;
 487              		.loc 1 1302 0
 488 001c 94F85430 		ldrb	r3, [r4, #84]	@ zero_extendqisi2
 489 0020 13F0010F 		tst	r3, #1
 490 0024 02D1     		bne	.L28
 491              	.LVL53:
 492              	.L22:
1303:Drivers/lvgl/lvgl/src/widgets/lv_textarea.c **** 
1304:Drivers/lvgl/lvgl/src/widgets/lv_textarea.c ****     lv_draw_rect_dsc_t cur_dsc;
1305:Drivers/lvgl/lvgl/src/widgets/lv_textarea.c ****     lv_draw_rect_dsc_init(&cur_dsc);
1306:Drivers/lvgl/lvgl/src/widgets/lv_textarea.c ****     lv_obj_init_draw_rect_dsc(obj, LV_PART_CURSOR, &cur_dsc);
1307:Drivers/lvgl/lvgl/src/widgets/lv_textarea.c **** 
1308:Drivers/lvgl/lvgl/src/widgets/lv_textarea.c ****     /*Draw he cursor according to the type*/
ARM GAS  /tmp/cchLtzqB.s 			page 49


1309:Drivers/lvgl/lvgl/src/widgets/lv_textarea.c ****     lv_area_t cur_area;
1310:Drivers/lvgl/lvgl/src/widgets/lv_textarea.c ****     lv_area_copy(&cur_area, &ta->cursor.area);
1311:Drivers/lvgl/lvgl/src/widgets/lv_textarea.c **** 
1312:Drivers/lvgl/lvgl/src/widgets/lv_textarea.c **** 
1313:Drivers/lvgl/lvgl/src/widgets/lv_textarea.c ****     cur_area.x1 += ta->label->coords.x1;
1314:Drivers/lvgl/lvgl/src/widgets/lv_textarea.c ****     cur_area.y1 += ta->label->coords.y1;
1315:Drivers/lvgl/lvgl/src/widgets/lv_textarea.c ****     cur_area.x2 += ta->label->coords.x1;
1316:Drivers/lvgl/lvgl/src/widgets/lv_textarea.c ****     cur_area.y2 += ta->label->coords.y1;
1317:Drivers/lvgl/lvgl/src/widgets/lv_textarea.c **** 
1318:Drivers/lvgl/lvgl/src/widgets/lv_textarea.c ****     lv_draw_rect(draw_ctx, &cur_dsc, &cur_area);
1319:Drivers/lvgl/lvgl/src/widgets/lv_textarea.c **** 
1320:Drivers/lvgl/lvgl/src/widgets/lv_textarea.c ****     lv_coord_t border_width = lv_obj_get_style_border_width(obj, LV_PART_CURSOR);
1321:Drivers/lvgl/lvgl/src/widgets/lv_textarea.c ****     lv_coord_t left = lv_obj_get_style_pad_left(obj, LV_PART_CURSOR) + border_width;
1322:Drivers/lvgl/lvgl/src/widgets/lv_textarea.c ****     lv_coord_t top = lv_obj_get_style_pad_top(obj, LV_PART_CURSOR) + border_width;
1323:Drivers/lvgl/lvgl/src/widgets/lv_textarea.c ****     char letter_buf[8] = {0};
1324:Drivers/lvgl/lvgl/src/widgets/lv_textarea.c ****     lv_memcpy(letter_buf, &txt[ta->cursor.txt_byte_pos], _lv_txt_encoded_size(&txt[ta->cursor.txt_b
1325:Drivers/lvgl/lvgl/src/widgets/lv_textarea.c **** 
1326:Drivers/lvgl/lvgl/src/widgets/lv_textarea.c ****     cur_area.x1 += left;
1327:Drivers/lvgl/lvgl/src/widgets/lv_textarea.c ****     cur_area.y1 += top;
1328:Drivers/lvgl/lvgl/src/widgets/lv_textarea.c **** 
1329:Drivers/lvgl/lvgl/src/widgets/lv_textarea.c ****     /*Draw the letter over the cursor only if
1330:Drivers/lvgl/lvgl/src/widgets/lv_textarea.c ****      *the cursor has background or the letter has different color than the original.
1331:Drivers/lvgl/lvgl/src/widgets/lv_textarea.c ****      *Else the original letter is drawn twice which makes it look bolder*/
1332:Drivers/lvgl/lvgl/src/widgets/lv_textarea.c ****     lv_color_t label_color = lv_obj_get_style_text_color(ta->label, 0);
1333:Drivers/lvgl/lvgl/src/widgets/lv_textarea.c ****     lv_draw_label_dsc_t cur_label_dsc;
1334:Drivers/lvgl/lvgl/src/widgets/lv_textarea.c ****     lv_draw_label_dsc_init(&cur_label_dsc);
1335:Drivers/lvgl/lvgl/src/widgets/lv_textarea.c ****     lv_obj_init_draw_label_dsc(obj, LV_PART_CURSOR, &cur_label_dsc);
1336:Drivers/lvgl/lvgl/src/widgets/lv_textarea.c ****     if(cur_dsc.bg_opa > LV_OPA_MIN || cur_label_dsc.color.full != label_color.full) {
1337:Drivers/lvgl/lvgl/src/widgets/lv_textarea.c ****         lv_draw_label(draw_ctx, &cur_label_dsc, &cur_area, letter_buf, NULL);
1338:Drivers/lvgl/lvgl/src/widgets/lv_textarea.c ****     }
1339:Drivers/lvgl/lvgl/src/widgets/lv_textarea.c **** }
 493              		.loc 1 1339 0
 494 0026 1DB0     		add	sp, sp, #116
 495              	.LCFI15:
 496              		.cfi_remember_state
 497              		.cfi_def_cfa_offset 28
 498              		@ sp needed
 499 0028 BDE8F083 		pop	{r4, r5, r6, r7, r8, r9, pc}
 500              	.LVL54:
 501              	.L28:
 502              	.LCFI16:
 503              		.cfi_restore_state
 504 002c 0546     		mov	r5, r0
 505              	.LVL55:
1305:Drivers/lvgl/lvgl/src/widgets/lv_textarea.c ****     lv_obj_init_draw_rect_dsc(obj, LV_PART_CURSOR, &cur_dsc);
 506              		.loc 1 1305 0
 507 002e 0EA8     		add	r0, sp, #56
 508              	.LVL56:
 509 0030 FFF7FEFF 		bl	lv_draw_rect_dsc_init
 510              	.LVL57:
1306:Drivers/lvgl/lvgl/src/widgets/lv_textarea.c **** 
 511              		.loc 1 1306 0
 512 0034 0EAA     		add	r2, sp, #56
 513 0036 4FF4E021 		mov	r1, #458752
 514 003a 2046     		mov	r0, r4
 515 003c FFF7FEFF 		bl	lv_obj_init_draw_rect_dsc
 516              	.LVL58:
ARM GAS  /tmp/cchLtzqB.s 			page 50


 517              	.LBB136:
 518              	.LBB137:
 112:Drivers/lvgl/lvgl/src/widgets/../core/../misc/../font/../misc/lv_area.h ****     dest->y1 = src->y1;
 519              		.loc 2 112 0
 520 0040 B4F94800 		ldrsh	r0, [r4, #72]
 113:Drivers/lvgl/lvgl/src/widgets/../core/../misc/../font/../misc/lv_area.h ****     dest->x2 = src->x2;
 521              		.loc 2 113 0
 522 0044 B4F94A10 		ldrsh	r1, [r4, #74]
 114:Drivers/lvgl/lvgl/src/widgets/../core/../misc/../font/../misc/lv_area.h ****     dest->y2 = src->y2;
 523              		.loc 2 114 0
 524 0048 B4F94CE0 		ldrsh	lr, [r4, #76]
 525              		.loc 2 115 0
 526 004c B4F94EC0 		ldrsh	ip, [r4, #78]
 527              	.LVL59:
 528              	.LBE137:
 529              	.LBE136:
1313:Drivers/lvgl/lvgl/src/widgets/lv_textarea.c ****     cur_area.y1 += ta->label->coords.y1;
 530              		.loc 1 1313 0
 531 0050 666A     		ldr	r6, [r4, #36]
 532 0052 B28A     		ldrh	r2, [r6, #20]
 533 0054 1044     		add	r0, r0, r2
 534 0056 ADF83000 		strh	r0, [sp, #48]	@ movhi
1314:Drivers/lvgl/lvgl/src/widgets/lv_textarea.c ****     cur_area.x2 += ta->label->coords.x1;
 535              		.loc 1 1314 0
 536 005a F38A     		ldrh	r3, [r6, #22]
 537 005c 1944     		add	r1, r1, r3
 538 005e ADF83210 		strh	r1, [sp, #50]	@ movhi
1315:Drivers/lvgl/lvgl/src/widgets/lv_textarea.c ****     cur_area.y2 += ta->label->coords.y1;
 539              		.loc 1 1315 0
 540 0062 7244     		add	r2, r2, lr
 541 0064 ADF83420 		strh	r2, [sp, #52]	@ movhi
1316:Drivers/lvgl/lvgl/src/widgets/lv_textarea.c **** 
 542              		.loc 1 1316 0
 543 0068 6344     		add	r3, r3, ip
 544 006a ADF83630 		strh	r3, [sp, #54]	@ movhi
1318:Drivers/lvgl/lvgl/src/widgets/lv_textarea.c **** 
 545              		.loc 1 1318 0
 546 006e 0CAA     		add	r2, sp, #48
 547 0070 0EA9     		add	r1, sp, #56
 548 0072 3846     		mov	r0, r7
 549 0074 FFF7FEFF 		bl	lv_draw_rect
 550              	.LVL60:
 551              	.LBB138:
 552              	.LBB139:
 255:Drivers/lvgl/lvgl/src/widgets/../core/lv_obj_style_gen.h ****     return (lv_coord_t)v.num;
 553              		.loc 3 255 0
 554 0078 3222     		movs	r2, #50
 555 007a 4FF4E021 		mov	r1, #458752
 556 007e 2046     		mov	r0, r4
 557 0080 FFF7FEFF 		bl	lv_obj_get_style_prop
 558              	.LVL61:
 559 0084 0646     		mov	r6, r0
 560              	.LVL62:
 561              	.LBE139:
 562              	.LBE138:
 563              	.LBB140:
 564              	.LBB141:
ARM GAS  /tmp/cchLtzqB.s 			page 51


 117:Drivers/lvgl/lvgl/src/widgets/../core/lv_obj_style_gen.h ****     return (lv_coord_t)v.num;
 565              		.loc 3 117 0
 566 0086 1222     		movs	r2, #18
 567 0088 4FF4E021 		mov	r1, #458752
 568 008c 2046     		mov	r0, r4
 569 008e FFF7FEFF 		bl	lv_obj_get_style_prop
 570              	.LVL63:
 571              	.LBE141:
 572              	.LBE140:
1321:Drivers/lvgl/lvgl/src/widgets/lv_textarea.c ****     lv_coord_t top = lv_obj_get_style_pad_top(obj, LV_PART_CURSOR) + border_width;
 573              		.loc 1 1321 0
 574 0092 B6B2     		uxth	r6, r6
 575 0094 16FA80F0 		uxtah	r0, r6, r0
 576 0098 1FFA80F8 		uxth	r8, r0
 577              	.LVL64:
 578              	.LBB142:
 579              	.LBB143:
 105:Drivers/lvgl/lvgl/src/widgets/../core/lv_obj_style_gen.h ****     return (lv_coord_t)v.num;
 580              		.loc 3 105 0
 581 009c 1022     		movs	r2, #16
 582 009e 4FF4E021 		mov	r1, #458752
 583 00a2 2046     		mov	r0, r4
 584 00a4 FFF7FEFF 		bl	lv_obj_get_style_prop
 585              	.LVL65:
 586              	.LBE143:
 587              	.LBE142:
1322:Drivers/lvgl/lvgl/src/widgets/lv_textarea.c ****     char letter_buf[8] = {0};
 588              		.loc 1 1322 0
 589 00a8 16FA80F6 		uxtah	r6, r6, r0
 590 00ac B6B2     		uxth	r6, r6
 591              	.LVL66:
1323:Drivers/lvgl/lvgl/src/widgets/lv_textarea.c ****     lv_memcpy(letter_buf, &txt[ta->cursor.txt_byte_pos], _lv_txt_encoded_size(&txt[ta->cursor.txt_b
 592              		.loc 1 1323 0
 593 00ae 4FF00009 		mov	r9, #0
 594 00b2 CDF82890 		str	r9, [sp, #40]
 595 00b6 CDF82C90 		str	r9, [sp, #44]
1324:Drivers/lvgl/lvgl/src/widgets/lv_textarea.c **** 
 596              		.loc 1 1324 0
 597 00ba 236D     		ldr	r3, [r4, #80]
 598 00bc 1D44     		add	r5, r5, r3
 599              	.LVL67:
 600 00be 1A4B     		ldr	r3, .L29
 601 00c0 1B68     		ldr	r3, [r3]
 602 00c2 2846     		mov	r0, r5
 603 00c4 9847     		blx	r3
 604              	.LVL68:
 605 00c6 0246     		mov	r2, r0
 606 00c8 2946     		mov	r1, r5
 607 00ca 0AA8     		add	r0, sp, #40
 608 00cc FFF7FEFF 		bl	lv_memcpy
 609              	.LVL69:
1326:Drivers/lvgl/lvgl/src/widgets/lv_textarea.c ****     cur_area.y1 += top;
 610              		.loc 1 1326 0
 611 00d0 BDF83000 		ldrh	r0, [sp, #48]
 612 00d4 8044     		add	r8, r8, r0
 613              	.LVL70:
 614 00d6 ADF83080 		strh	r8, [sp, #48]	@ movhi
ARM GAS  /tmp/cchLtzqB.s 			page 52


1327:Drivers/lvgl/lvgl/src/widgets/lv_textarea.c **** 
 615              		.loc 1 1327 0
 616 00da BDF83200 		ldrh	r0, [sp, #50]
 617 00de 0644     		add	r6, r6, r0
 618              	.LVL71:
 619 00e0 ADF83260 		strh	r6, [sp, #50]	@ movhi
 620              	.LVL72:
 621              	.LBB144:
 622              	.LBB145:
 447:Drivers/lvgl/lvgl/src/widgets/../core/lv_obj_style_gen.h ****     return v.color;
 623              		.loc 3 447 0
 624 00e4 5522     		movs	r2, #85
 625 00e6 4946     		mov	r1, r9
 626 00e8 606A     		ldr	r0, [r4, #36]
 627 00ea FFF7FEFF 		bl	lv_obj_get_style_prop
 628              	.LVL73:
 629 00ee 0546     		mov	r5, r0
 630              	.LVL74:
 631              	.LBE145:
 632              	.LBE144:
1334:Drivers/lvgl/lvgl/src/widgets/lv_textarea.c ****     lv_obj_init_draw_label_dsc(obj, LV_PART_CURSOR, &cur_label_dsc);
 633              		.loc 1 1334 0
 634 00f0 02A8     		add	r0, sp, #8
 635 00f2 FFF7FEFF 		bl	lv_draw_label_dsc_init
 636              	.LVL75:
1335:Drivers/lvgl/lvgl/src/widgets/lv_textarea.c ****     if(cur_dsc.bg_opa > LV_OPA_MIN || cur_label_dsc.color.full != label_color.full) {
 637              		.loc 1 1335 0
 638 00f6 02AA     		add	r2, sp, #8
 639 00f8 4FF4E021 		mov	r1, #458752
 640 00fc 2046     		mov	r0, r4
 641 00fe FFF7FEFF 		bl	lv_obj_init_draw_label_dsc
 642              	.LVL76:
1336:Drivers/lvgl/lvgl/src/widgets/lv_textarea.c ****         lv_draw_label(draw_ctx, &cur_label_dsc, &cur_area, letter_buf, NULL);
 643              		.loc 1 1336 0
 644 0102 9DF83B30 		ldrb	r3, [sp, #59]	@ zero_extendqisi2
 645 0106 022B     		cmp	r3, #2
 646 0108 04D8     		bhi	.L24
1336:Drivers/lvgl/lvgl/src/widgets/lv_textarea.c ****         lv_draw_label(draw_ctx, &cur_label_dsc, &cur_area, letter_buf, NULL);
 647              		.loc 1 1336 0 is_stmt 0 discriminator 1
 648 010a BDF81430 		ldrh	r3, [sp, #20]
 649 010e ADB2     		uxth	r5, r5
 650 0110 AB42     		cmp	r3, r5
 651 0112 88D0     		beq	.L22
 652              	.L24:
1337:Drivers/lvgl/lvgl/src/widgets/lv_textarea.c ****     }
 653              		.loc 1 1337 0 is_stmt 1
 654 0114 0023     		movs	r3, #0
 655 0116 0093     		str	r3, [sp]
 656 0118 0AAB     		add	r3, sp, #40
 657 011a 0CAA     		add	r2, sp, #48
 658 011c 02A9     		add	r1, sp, #8
 659 011e 3846     		mov	r0, r7
 660 0120 FFF7FEFF 		bl	lv_draw_label
 661              	.LVL77:
 662 0124 7FE7     		b	.L22
 663              	.L30:
 664 0126 00BF     		.align	2
ARM GAS  /tmp/cchLtzqB.s 			page 53


 665              	.L29:
 666 0128 00000000 		.word	_lv_txt_encoded_size
 667              		.cfi_endproc
 668              	.LFE209:
 670              		.section	.text.lv_textarea_destructor,"ax",%progbits
 671              		.align	1
 672              		.syntax unified
 673              		.thumb
 674              		.thumb_func
 675              		.fpu fpv5-d16
 677              	lv_textarea_destructor:
 678              	.LFB196:
 843:Drivers/lvgl/lvgl/src/widgets/lv_textarea.c ****     LV_UNUSED(class_p);
 679              		.loc 1 843 0
 680              		.cfi_startproc
 681              		@ args = 0, pretend = 0, frame = 0
 682              		@ frame_needed = 0, uses_anonymous_args = 0
 683              	.LVL78:
 684 0000 10B5     		push	{r4, lr}
 685              	.LCFI17:
 686              		.cfi_def_cfa_offset 8
 687              		.cfi_offset 4, -8
 688              		.cfi_offset 14, -4
 689 0002 0C46     		mov	r4, r1
 690              	.LVL79:
 847:Drivers/lvgl/lvgl/src/widgets/lv_textarea.c ****         lv_mem_free(ta->pwd_tmp);
 691              		.loc 1 847 0
 692 0004 C86A     		ldr	r0, [r1, #44]
 693              	.LVL80:
 694 0006 18B1     		cbz	r0, .L32
 848:Drivers/lvgl/lvgl/src/widgets/lv_textarea.c ****         ta->pwd_tmp = NULL;
 695              		.loc 1 848 0
 696 0008 FFF7FEFF 		bl	lv_mem_free
 697              	.LVL81:
 849:Drivers/lvgl/lvgl/src/widgets/lv_textarea.c ****     }
 698              		.loc 1 849 0
 699 000c 0023     		movs	r3, #0
 700 000e E362     		str	r3, [r4, #44]
 701              	.L32:
 851:Drivers/lvgl/lvgl/src/widgets/lv_textarea.c ****         lv_mem_free(ta->pwd_bullet);
 702              		.loc 1 851 0
 703 0010 206B     		ldr	r0, [r4, #48]
 704 0012 18B1     		cbz	r0, .L33
 852:Drivers/lvgl/lvgl/src/widgets/lv_textarea.c ****         ta->pwd_bullet = NULL;
 705              		.loc 1 852 0
 706 0014 FFF7FEFF 		bl	lv_mem_free
 707              	.LVL82:
 853:Drivers/lvgl/lvgl/src/widgets/lv_textarea.c ****     }
 708              		.loc 1 853 0
 709 0018 0023     		movs	r3, #0
 710 001a 2363     		str	r3, [r4, #48]
 711              	.L33:
 855:Drivers/lvgl/lvgl/src/widgets/lv_textarea.c ****         lv_mem_free(ta->placeholder_txt);
 712              		.loc 1 855 0
 713 001c A06A     		ldr	r0, [r4, #40]
 714 001e 18B1     		cbz	r0, .L31
 856:Drivers/lvgl/lvgl/src/widgets/lv_textarea.c ****         ta->placeholder_txt = NULL;
ARM GAS  /tmp/cchLtzqB.s 			page 54


 715              		.loc 1 856 0
 716 0020 FFF7FEFF 		bl	lv_mem_free
 717              	.LVL83:
 857:Drivers/lvgl/lvgl/src/widgets/lv_textarea.c ****     }
 718              		.loc 1 857 0
 719 0024 0023     		movs	r3, #0
 720 0026 A362     		str	r3, [r4, #40]
 721              	.L31:
 859:Drivers/lvgl/lvgl/src/widgets/lv_textarea.c **** 
 722              		.loc 1 859 0
 723 0028 10BD     		pop	{r4, pc}
 724              		.cfi_endproc
 725              	.LFE196:
 727              		.section	.text.lv_textarea_create,"ax",%progbits
 728              		.align	1
 729              		.global	lv_textarea_create
 730              		.syntax unified
 731              		.thumb
 732              		.thumb_func
 733              		.fpu fpv5-d16
 735              	lv_textarea_create:
 736              	.LFB159:
  89:Drivers/lvgl/lvgl/src/widgets/lv_textarea.c ****     LV_LOG_INFO("begin");
 737              		.loc 1 89 0
 738              		.cfi_startproc
 739              		@ args = 0, pretend = 0, frame = 0
 740              		@ frame_needed = 0, uses_anonymous_args = 0
 741              	.LVL84:
 742 0000 10B5     		push	{r4, lr}
 743              	.LCFI18:
 744              		.cfi_def_cfa_offset 8
 745              		.cfi_offset 4, -8
 746              		.cfi_offset 14, -4
  91:Drivers/lvgl/lvgl/src/widgets/lv_textarea.c ****     lv_obj_class_init_obj(obj);
 747              		.loc 1 91 0
 748 0002 0146     		mov	r1, r0
 749 0004 0348     		ldr	r0, .L38
 750              	.LVL85:
 751 0006 FFF7FEFF 		bl	lv_obj_class_create_obj
 752              	.LVL86:
 753 000a 0446     		mov	r4, r0
 754              	.LVL87:
  92:Drivers/lvgl/lvgl/src/widgets/lv_textarea.c ****     return obj;
 755              		.loc 1 92 0
 756 000c FFF7FEFF 		bl	lv_obj_class_init_obj
 757              	.LVL88:
  94:Drivers/lvgl/lvgl/src/widgets/lv_textarea.c **** 
 758              		.loc 1 94 0
 759 0010 2046     		mov	r0, r4
 760 0012 10BD     		pop	{r4, pc}
 761              	.LVL89:
 762              	.L39:
 763              		.align	2
 764              	.L38:
 765 0014 00000000 		.word	.LANCHOR0
 766              		.cfi_endproc
 767              	.LFE159:
ARM GAS  /tmp/cchLtzqB.s 			page 55


 769              		.section	.text.lv_textarea_set_placeholder_text,"ax",%progbits
 770              		.align	1
 771              		.global	lv_textarea_set_placeholder_text
 772              		.syntax unified
 773              		.thumb
 774              		.thumb_func
 775              		.fpu fpv5-d16
 777              	lv_textarea_set_placeholder_text:
 778              	.LFB165:
 316:Drivers/lvgl/lvgl/src/widgets/lv_textarea.c ****     LV_ASSERT_OBJ(obj, MY_CLASS);
 779              		.loc 1 316 0
 780              		.cfi_startproc
 781              		@ args = 0, pretend = 0, frame = 0
 782              		@ frame_needed = 0, uses_anonymous_args = 0
 783              	.LVL90:
 318:Drivers/lvgl/lvgl/src/widgets/lv_textarea.c **** 
 784              		.loc 1 318 0
 785 0000 89B1     		cbz	r1, .L42
 316:Drivers/lvgl/lvgl/src/widgets/lv_textarea.c ****     LV_ASSERT_OBJ(obj, MY_CLASS);
 786              		.loc 1 316 0
 787 0002 70B5     		push	{r4, r5, r6, lr}
 788              	.LCFI19:
 789              		.cfi_def_cfa_offset 16
 790              		.cfi_offset 4, -16
 791              		.cfi_offset 5, -12
 792              		.cfi_offset 6, -8
 793              		.cfi_offset 14, -4
 794 0004 0D46     		mov	r5, r1
 795 0006 0446     		mov	r4, r0
 796              	.LVL91:
 322:Drivers/lvgl/lvgl/src/widgets/lv_textarea.c ****     if((txt_len == 0) && (ta->placeholder_txt)) {
 797              		.loc 1 322 0
 798 0008 0846     		mov	r0, r1
 799              	.LVL92:
 800 000a FFF7FEFF 		bl	strlen
 801              	.LVL93:
 323:Drivers/lvgl/lvgl/src/widgets/lv_textarea.c ****         lv_mem_free(ta->placeholder_txt);
 802              		.loc 1 323 0
 803 000e 0646     		mov	r6, r0
 804 0010 50B9     		cbnz	r0, .L43
 323:Drivers/lvgl/lvgl/src/widgets/lv_textarea.c ****         lv_mem_free(ta->placeholder_txt);
 805              		.loc 1 323 0 is_stmt 0 discriminator 1
 806 0012 A06A     		ldr	r0, [r4, #40]
 807              	.LVL94:
 808 0014 40B1     		cbz	r0, .L43
 324:Drivers/lvgl/lvgl/src/widgets/lv_textarea.c ****         ta->placeholder_txt = NULL;
 809              		.loc 1 324 0 is_stmt 1
 810 0016 FFF7FEFF 		bl	lv_mem_free
 811              	.LVL95:
 325:Drivers/lvgl/lvgl/src/widgets/lv_textarea.c ****     }
 812              		.loc 1 325 0
 813 001a 0023     		movs	r3, #0
 814 001c A362     		str	r3, [r4, #40]
 815              	.L44:
 341:Drivers/lvgl/lvgl/src/widgets/lv_textarea.c **** }
 816              		.loc 1 341 0
 817 001e 2046     		mov	r0, r4
ARM GAS  /tmp/cchLtzqB.s 			page 56


 818 0020 FFF7FEFF 		bl	lv_obj_invalidate
 819              	.LVL96:
 342:Drivers/lvgl/lvgl/src/widgets/lv_textarea.c **** 
 820              		.loc 1 342 0
 821 0024 70BD     		pop	{r4, r5, r6, pc}
 822              	.LVL97:
 823              	.L42:
 824              	.LCFI20:
 825              		.cfi_def_cfa_offset 0
 826              		.cfi_restore 4
 827              		.cfi_restore 5
 828              		.cfi_restore 6
 829              		.cfi_restore 14
 830 0026 FEE7     		b	.L42
 831              	.LVL98:
 832              	.L43:
 833              	.LCFI21:
 834              		.cfi_def_cfa_offset 16
 835              		.cfi_offset 4, -16
 836              		.cfi_offset 5, -12
 837              		.cfi_offset 6, -8
 838              		.cfi_offset 14, -4
 330:Drivers/lvgl/lvgl/src/widgets/lv_textarea.c ****         LV_ASSERT_MALLOC(ta->placeholder_txt);
 839              		.loc 1 330 0
 840 0028 711C     		adds	r1, r6, #1
 841 002a A06A     		ldr	r0, [r4, #40]
 842 002c FFF7FEFF 		bl	lv_mem_realloc
 843              	.LVL99:
 844 0030 A062     		str	r0, [r4, #40]
 331:Drivers/lvgl/lvgl/src/widgets/lv_textarea.c ****         if(ta->placeholder_txt == NULL) {
 845              		.loc 1 331 0
 846 0032 00B9     		cbnz	r0, .L45
 847              	.L46:
 848 0034 FEE7     		b	.L46
 849              	.L45:
 337:Drivers/lvgl/lvgl/src/widgets/lv_textarea.c ****         ta->placeholder_txt[txt_len] = '\0';
 850              		.loc 1 337 0
 851 0036 2946     		mov	r1, r5
 852 0038 FFF7FEFF 		bl	strcpy
 853              	.LVL100:
 338:Drivers/lvgl/lvgl/src/widgets/lv_textarea.c ****     }
 854              		.loc 1 338 0
 855 003c A36A     		ldr	r3, [r4, #40]
 856 003e 0022     		movs	r2, #0
 857 0040 9A55     		strb	r2, [r3, r6]
 858 0042 ECE7     		b	.L44
 859              		.cfi_endproc
 860              	.LFE165:
 862              		.section	.text.lv_textarea_set_cursor_click_pos,"ax",%progbits
 863              		.align	1
 864              		.global	lv_textarea_set_cursor_click_pos
 865              		.syntax unified
 866              		.thumb
 867              		.thumb_func
 868              		.fpu fpv5-d16
 870              	lv_textarea_set_cursor_click_pos:
 871              	.LFB167:
ARM GAS  /tmp/cchLtzqB.s 			page 57


 397:Drivers/lvgl/lvgl/src/widgets/lv_textarea.c ****     LV_ASSERT_OBJ(obj, MY_CLASS);
 872              		.loc 1 397 0
 873              		.cfi_startproc
 874              		@ args = 0, pretend = 0, frame = 0
 875              		@ frame_needed = 0, uses_anonymous_args = 0
 876              		@ link register save eliminated.
 877              	.LVL101:
 401:Drivers/lvgl/lvgl/src/widgets/lv_textarea.c **** }
 878              		.loc 1 401 0
 879 0000 39B9     		cbnz	r1, .L52
 880 0002 0022     		movs	r2, #0
 881              	.L50:
 401:Drivers/lvgl/lvgl/src/widgets/lv_textarea.c **** }
 882              		.loc 1 401 0 is_stmt 0 discriminator 4
 883 0004 90F85430 		ldrb	r3, [r0, #84]	@ zero_extendqisi2
 884 0008 62F34103 		bfi	r3, r2, #1, #1
 885 000c 80F85430 		strb	r3, [r0, #84]
 402:Drivers/lvgl/lvgl/src/widgets/lv_textarea.c **** 
 886              		.loc 1 402 0 is_stmt 1 discriminator 4
 887 0010 7047     		bx	lr
 888              	.L52:
 401:Drivers/lvgl/lvgl/src/widgets/lv_textarea.c **** }
 889              		.loc 1 401 0
 890 0012 0122     		movs	r2, #1
 891 0014 F6E7     		b	.L50
 892              		.cfi_endproc
 893              	.LFE167:
 895              		.section	.text.lv_textarea_set_password_bullet,"ax",%progbits
 896              		.align	1
 897              		.global	lv_textarea_set_password_bullet
 898              		.syntax unified
 899              		.thumb
 900              		.thumb_func
 901              		.fpu fpv5-d16
 903              	lv_textarea_set_password_bullet:
 904              	.LFB169:
 439:Drivers/lvgl/lvgl/src/widgets/lv_textarea.c ****     LV_ASSERT_OBJ(obj, MY_CLASS);
 905              		.loc 1 439 0
 906              		.cfi_startproc
 907              		@ args = 0, pretend = 0, frame = 0
 908              		@ frame_needed = 0, uses_anonymous_args = 0
 909              	.LVL102:
 441:Drivers/lvgl/lvgl/src/widgets/lv_textarea.c **** 
 910              		.loc 1 441 0
 911 0000 01B9     		cbnz	r1, .L54
 912              	.L55:
 913 0002 FEE7     		b	.L55
 914              	.L54:
 439:Drivers/lvgl/lvgl/src/widgets/lv_textarea.c ****     LV_ASSERT_OBJ(obj, MY_CLASS);
 915              		.loc 1 439 0
 916 0004 70B5     		push	{r4, r5, r6, lr}
 917              	.LCFI22:
 918              		.cfi_def_cfa_offset 16
 919              		.cfi_offset 4, -16
 920              		.cfi_offset 5, -12
 921              		.cfi_offset 6, -8
 922              		.cfi_offset 14, -4
ARM GAS  /tmp/cchLtzqB.s 			page 58


 923 0006 0D46     		mov	r5, r1
 924 0008 0446     		mov	r4, r0
 925              	.LVL103:
 926              	.LBB146:
 450:Drivers/lvgl/lvgl/src/widgets/lv_textarea.c **** 
 927              		.loc 1 450 0
 928 000a 0846     		mov	r0, r1
 929              	.LVL104:
 930 000c FFF7FEFF 		bl	strlen
 931              	.LVL105:
 932 0010 0646     		mov	r6, r0
 933              	.LVL106:
 454:Drivers/lvgl/lvgl/src/widgets/lv_textarea.c ****         LV_ASSERT_MALLOC(ta->pwd_bullet);
 934              		.loc 1 454 0
 935 0012 411C     		adds	r1, r0, #1
 936 0014 206B     		ldr	r0, [r4, #48]
 937              	.LVL107:
 938 0016 FFF7FEFF 		bl	lv_mem_realloc
 939              	.LVL108:
 940 001a 2063     		str	r0, [r4, #48]
 455:Drivers/lvgl/lvgl/src/widgets/lv_textarea.c ****         if(ta->pwd_bullet == NULL) {
 941              		.loc 1 455 0
 942 001c 00B9     		cbnz	r0, .L56
 943              	.L57:
 944 001e FEE7     		b	.L57
 945              	.L56:
 461:Drivers/lvgl/lvgl/src/widgets/lv_textarea.c ****         ta->pwd_bullet[txt_len] = '\0';
 946              		.loc 1 461 0
 947 0020 2946     		mov	r1, r5
 948 0022 FFF7FEFF 		bl	strcpy
 949              	.LVL109:
 462:Drivers/lvgl/lvgl/src/widgets/lv_textarea.c ****     }
 950              		.loc 1 462 0
 951 0026 236B     		ldr	r3, [r4, #48]
 952 0028 0022     		movs	r2, #0
 953 002a 9A55     		strb	r2, [r3, r6]
 954              	.LBE146:
 465:Drivers/lvgl/lvgl/src/widgets/lv_textarea.c **** }
