ARM GAS  /tmp/ccFZiBLS.s 			page 1


   1              		.cpu cortex-m7
   2              		.eabi_attribute 28, 1
   3              		.eabi_attribute 20, 1
   4              		.eabi_attribute 21, 1
   5              		.eabi_attribute 23, 3
   6              		.eabi_attribute 24, 1
   7              		.eabi_attribute 25, 1
   8              		.eabi_attribute 26, 1
   9              		.eabi_attribute 30, 1
  10              		.eabi_attribute 34, 1
  11              		.eabi_attribute 18, 4
  12              		.file	"lv_table.c"
  13              		.text
  14              	.Ltext0:
  15              		.cfi_sections	.debug_frame
  16              		.section	.text.get_row_height,"ax",%progbits
  17              		.align	1
  18              		.syntax unified
  19              		.thumb
  20              		.thumb_func
  21              		.fpu fpv5-d16
  23              	get_row_height:
  24              	.LFB180:
  25              		.file 1 "Drivers/lvgl/lvgl/src/widgets/lv_table.c"
   1:Drivers/lvgl/lvgl/src/widgets/lv_table.c **** /**
   2:Drivers/lvgl/lvgl/src/widgets/lv_table.c ****  * @file lv_table.c
   3:Drivers/lvgl/lvgl/src/widgets/lv_table.c ****  *
   4:Drivers/lvgl/lvgl/src/widgets/lv_table.c ****  */
   5:Drivers/lvgl/lvgl/src/widgets/lv_table.c **** 
   6:Drivers/lvgl/lvgl/src/widgets/lv_table.c **** /*********************
   7:Drivers/lvgl/lvgl/src/widgets/lv_table.c ****  *      INCLUDES
   8:Drivers/lvgl/lvgl/src/widgets/lv_table.c ****  *********************/
   9:Drivers/lvgl/lvgl/src/widgets/lv_table.c **** #include "lv_table.h"
  10:Drivers/lvgl/lvgl/src/widgets/lv_table.c **** #if LV_USE_TABLE != 0
  11:Drivers/lvgl/lvgl/src/widgets/lv_table.c **** 
  12:Drivers/lvgl/lvgl/src/widgets/lv_table.c **** #include "../core/lv_indev.h"
  13:Drivers/lvgl/lvgl/src/widgets/lv_table.c **** #include "../misc/lv_assert.h"
  14:Drivers/lvgl/lvgl/src/widgets/lv_table.c **** #include "../misc/lv_txt.h"
  15:Drivers/lvgl/lvgl/src/widgets/lv_table.c **** #include "../misc/lv_txt_ap.h"
  16:Drivers/lvgl/lvgl/src/widgets/lv_table.c **** #include "../misc/lv_math.h"
  17:Drivers/lvgl/lvgl/src/widgets/lv_table.c **** #include "../misc/lv_printf.h"
  18:Drivers/lvgl/lvgl/src/widgets/lv_table.c **** #include "../draw/lv_draw.h"
  19:Drivers/lvgl/lvgl/src/widgets/lv_table.c **** 
  20:Drivers/lvgl/lvgl/src/widgets/lv_table.c **** /*********************
  21:Drivers/lvgl/lvgl/src/widgets/lv_table.c ****  *      DEFINES
  22:Drivers/lvgl/lvgl/src/widgets/lv_table.c ****  *********************/
  23:Drivers/lvgl/lvgl/src/widgets/lv_table.c **** #define MY_CLASS &lv_table_class
  24:Drivers/lvgl/lvgl/src/widgets/lv_table.c **** 
  25:Drivers/lvgl/lvgl/src/widgets/lv_table.c **** /**********************
  26:Drivers/lvgl/lvgl/src/widgets/lv_table.c ****  *      TYPEDEFS
  27:Drivers/lvgl/lvgl/src/widgets/lv_table.c ****  **********************/
  28:Drivers/lvgl/lvgl/src/widgets/lv_table.c **** 
  29:Drivers/lvgl/lvgl/src/widgets/lv_table.c **** /**********************
  30:Drivers/lvgl/lvgl/src/widgets/lv_table.c ****  *  STATIC PROTOTYPES
  31:Drivers/lvgl/lvgl/src/widgets/lv_table.c ****  **********************/
  32:Drivers/lvgl/lvgl/src/widgets/lv_table.c **** static void lv_table_constructor(const lv_obj_class_t * class_p, lv_obj_t * obj);
  33:Drivers/lvgl/lvgl/src/widgets/lv_table.c **** static void lv_table_destructor(const lv_obj_class_t * class_p, lv_obj_t * obj);
ARM GAS  /tmp/ccFZiBLS.s 			page 2


  34:Drivers/lvgl/lvgl/src/widgets/lv_table.c **** static void lv_table_event(const lv_obj_class_t * class_p, lv_event_t * e);
  35:Drivers/lvgl/lvgl/src/widgets/lv_table.c **** static void draw_main(lv_event_t * e);
  36:Drivers/lvgl/lvgl/src/widgets/lv_table.c **** static lv_coord_t get_row_height(lv_obj_t * obj, uint16_t row_id, const lv_font_t * font,
  37:Drivers/lvgl/lvgl/src/widgets/lv_table.c ****                                  lv_coord_t letter_space, lv_coord_t line_space,
  38:Drivers/lvgl/lvgl/src/widgets/lv_table.c ****                                  lv_coord_t cell_left, lv_coord_t cell_right, lv_coord_t cell_top, 
  39:Drivers/lvgl/lvgl/src/widgets/lv_table.c **** static void refr_size_form_row(lv_obj_t * obj, uint32_t start_row);
  40:Drivers/lvgl/lvgl/src/widgets/lv_table.c **** static void refr_cell_size(lv_obj_t * obj, uint32_t row, uint32_t col);
  41:Drivers/lvgl/lvgl/src/widgets/lv_table.c **** static lv_res_t get_pressed_cell(lv_obj_t * obj, uint16_t * row, uint16_t * col);
  42:Drivers/lvgl/lvgl/src/widgets/lv_table.c **** static size_t get_cell_txt_len(const char * txt);
  43:Drivers/lvgl/lvgl/src/widgets/lv_table.c **** static void copy_cell_txt(char * dst, const char * txt);
  44:Drivers/lvgl/lvgl/src/widgets/lv_table.c **** static void get_cell_area(lv_obj_t * obj, uint16_t row, uint16_t col, lv_area_t * area);
  45:Drivers/lvgl/lvgl/src/widgets/lv_table.c **** static void scroll_to_selected_cell(lv_obj_t * obj);
  46:Drivers/lvgl/lvgl/src/widgets/lv_table.c **** 
  47:Drivers/lvgl/lvgl/src/widgets/lv_table.c **** static inline bool is_cell_empty(void * cell)
  48:Drivers/lvgl/lvgl/src/widgets/lv_table.c **** {
  49:Drivers/lvgl/lvgl/src/widgets/lv_table.c ****     return cell == NULL;
  50:Drivers/lvgl/lvgl/src/widgets/lv_table.c **** }
  51:Drivers/lvgl/lvgl/src/widgets/lv_table.c **** 
  52:Drivers/lvgl/lvgl/src/widgets/lv_table.c **** /**********************
  53:Drivers/lvgl/lvgl/src/widgets/lv_table.c ****  *  STATIC VARIABLES
  54:Drivers/lvgl/lvgl/src/widgets/lv_table.c ****  **********************/
  55:Drivers/lvgl/lvgl/src/widgets/lv_table.c **** const lv_obj_class_t lv_table_class  = {
  56:Drivers/lvgl/lvgl/src/widgets/lv_table.c ****     .constructor_cb = lv_table_constructor,
  57:Drivers/lvgl/lvgl/src/widgets/lv_table.c ****     .destructor_cb = lv_table_destructor,
  58:Drivers/lvgl/lvgl/src/widgets/lv_table.c ****     .event_cb = lv_table_event,
  59:Drivers/lvgl/lvgl/src/widgets/lv_table.c ****     .width_def = LV_SIZE_CONTENT,
  60:Drivers/lvgl/lvgl/src/widgets/lv_table.c ****     .height_def = LV_SIZE_CONTENT,
  61:Drivers/lvgl/lvgl/src/widgets/lv_table.c ****     .base_class = &lv_obj_class,
  62:Drivers/lvgl/lvgl/src/widgets/lv_table.c ****     .editable = LV_OBJ_CLASS_EDITABLE_TRUE,
  63:Drivers/lvgl/lvgl/src/widgets/lv_table.c ****     .group_def = LV_OBJ_CLASS_GROUP_DEF_TRUE,
  64:Drivers/lvgl/lvgl/src/widgets/lv_table.c ****     .instance_size = sizeof(lv_table_t),
  65:Drivers/lvgl/lvgl/src/widgets/lv_table.c **** };
  66:Drivers/lvgl/lvgl/src/widgets/lv_table.c **** /**********************
  67:Drivers/lvgl/lvgl/src/widgets/lv_table.c ****  *      MACROS
  68:Drivers/lvgl/lvgl/src/widgets/lv_table.c ****  **********************/
  69:Drivers/lvgl/lvgl/src/widgets/lv_table.c **** 
  70:Drivers/lvgl/lvgl/src/widgets/lv_table.c **** /**********************
  71:Drivers/lvgl/lvgl/src/widgets/lv_table.c ****  *   GLOBAL FUNCTIONS
  72:Drivers/lvgl/lvgl/src/widgets/lv_table.c ****  **********************/
  73:Drivers/lvgl/lvgl/src/widgets/lv_table.c **** 
  74:Drivers/lvgl/lvgl/src/widgets/lv_table.c **** lv_obj_t * lv_table_create(lv_obj_t * parent)
  75:Drivers/lvgl/lvgl/src/widgets/lv_table.c **** {
  76:Drivers/lvgl/lvgl/src/widgets/lv_table.c ****     LV_LOG_INFO("begin");
  77:Drivers/lvgl/lvgl/src/widgets/lv_table.c ****     lv_obj_t * obj = lv_obj_class_create_obj(MY_CLASS, parent);
  78:Drivers/lvgl/lvgl/src/widgets/lv_table.c ****     lv_obj_class_init_obj(obj);
  79:Drivers/lvgl/lvgl/src/widgets/lv_table.c ****     return obj;
  80:Drivers/lvgl/lvgl/src/widgets/lv_table.c **** }
  81:Drivers/lvgl/lvgl/src/widgets/lv_table.c **** 
  82:Drivers/lvgl/lvgl/src/widgets/lv_table.c **** /*=====================
  83:Drivers/lvgl/lvgl/src/widgets/lv_table.c ****  * Setter functions
  84:Drivers/lvgl/lvgl/src/widgets/lv_table.c ****  *====================*/
  85:Drivers/lvgl/lvgl/src/widgets/lv_table.c **** 
  86:Drivers/lvgl/lvgl/src/widgets/lv_table.c **** void lv_table_set_cell_value(lv_obj_t * obj, uint16_t row, uint16_t col, const char * txt)
  87:Drivers/lvgl/lvgl/src/widgets/lv_table.c **** {
  88:Drivers/lvgl/lvgl/src/widgets/lv_table.c ****     LV_ASSERT_OBJ(obj, MY_CLASS);
  89:Drivers/lvgl/lvgl/src/widgets/lv_table.c ****     LV_ASSERT_NULL(txt);
  90:Drivers/lvgl/lvgl/src/widgets/lv_table.c **** 
ARM GAS  /tmp/ccFZiBLS.s 			page 3


  91:Drivers/lvgl/lvgl/src/widgets/lv_table.c ****     lv_table_t * table = (lv_table_t *)obj;
  92:Drivers/lvgl/lvgl/src/widgets/lv_table.c **** 
  93:Drivers/lvgl/lvgl/src/widgets/lv_table.c ****     /*Auto expand*/
  94:Drivers/lvgl/lvgl/src/widgets/lv_table.c ****     if(col >= table->col_cnt) lv_table_set_col_cnt(obj, col + 1);
  95:Drivers/lvgl/lvgl/src/widgets/lv_table.c ****     if(row >= table->row_cnt) lv_table_set_row_cnt(obj, row + 1);
  96:Drivers/lvgl/lvgl/src/widgets/lv_table.c **** 
  97:Drivers/lvgl/lvgl/src/widgets/lv_table.c ****     uint32_t cell = row * table->col_cnt + col;
  98:Drivers/lvgl/lvgl/src/widgets/lv_table.c ****     lv_table_cell_ctrl_t ctrl = 0;
  99:Drivers/lvgl/lvgl/src/widgets/lv_table.c **** 
 100:Drivers/lvgl/lvgl/src/widgets/lv_table.c ****     /*Save the control byte*/
 101:Drivers/lvgl/lvgl/src/widgets/lv_table.c ****     if(table->cell_data[cell]) ctrl = table->cell_data[cell][0];
 102:Drivers/lvgl/lvgl/src/widgets/lv_table.c **** 
 103:Drivers/lvgl/lvgl/src/widgets/lv_table.c ****     size_t to_allocate = get_cell_txt_len(txt);
 104:Drivers/lvgl/lvgl/src/widgets/lv_table.c **** 
 105:Drivers/lvgl/lvgl/src/widgets/lv_table.c ****     table->cell_data[cell] = lv_mem_realloc(table->cell_data[cell], to_allocate);
 106:Drivers/lvgl/lvgl/src/widgets/lv_table.c ****     LV_ASSERT_MALLOC(table->cell_data[cell]);
 107:Drivers/lvgl/lvgl/src/widgets/lv_table.c ****     if(table->cell_data[cell] == NULL) return;
 108:Drivers/lvgl/lvgl/src/widgets/lv_table.c **** 
 109:Drivers/lvgl/lvgl/src/widgets/lv_table.c ****     copy_cell_txt(table->cell_data[cell], txt);
 110:Drivers/lvgl/lvgl/src/widgets/lv_table.c **** 
 111:Drivers/lvgl/lvgl/src/widgets/lv_table.c ****     table->cell_data[cell][0] = ctrl;
 112:Drivers/lvgl/lvgl/src/widgets/lv_table.c ****     refr_cell_size(obj, row, col);
 113:Drivers/lvgl/lvgl/src/widgets/lv_table.c **** }
 114:Drivers/lvgl/lvgl/src/widgets/lv_table.c **** 
 115:Drivers/lvgl/lvgl/src/widgets/lv_table.c **** void lv_table_set_cell_value_fmt(lv_obj_t * obj, uint16_t row, uint16_t col, const char * fmt, ...)
 116:Drivers/lvgl/lvgl/src/widgets/lv_table.c **** {
 117:Drivers/lvgl/lvgl/src/widgets/lv_table.c ****     LV_ASSERT_OBJ(obj, MY_CLASS);
 118:Drivers/lvgl/lvgl/src/widgets/lv_table.c ****     LV_ASSERT_NULL(fmt);
 119:Drivers/lvgl/lvgl/src/widgets/lv_table.c **** 
 120:Drivers/lvgl/lvgl/src/widgets/lv_table.c ****     lv_table_t * table = (lv_table_t *)obj;
 121:Drivers/lvgl/lvgl/src/widgets/lv_table.c ****     if(col >= table->col_cnt) {
 122:Drivers/lvgl/lvgl/src/widgets/lv_table.c ****         lv_table_set_col_cnt(obj, col + 1);
 123:Drivers/lvgl/lvgl/src/widgets/lv_table.c ****     }
 124:Drivers/lvgl/lvgl/src/widgets/lv_table.c **** 
 125:Drivers/lvgl/lvgl/src/widgets/lv_table.c ****     /*Auto expand*/
 126:Drivers/lvgl/lvgl/src/widgets/lv_table.c ****     if(row >= table->row_cnt) {
 127:Drivers/lvgl/lvgl/src/widgets/lv_table.c ****         lv_table_set_row_cnt(obj, row + 1);
 128:Drivers/lvgl/lvgl/src/widgets/lv_table.c ****     }
 129:Drivers/lvgl/lvgl/src/widgets/lv_table.c **** 
 130:Drivers/lvgl/lvgl/src/widgets/lv_table.c ****     uint32_t cell = row * table->col_cnt + col;
 131:Drivers/lvgl/lvgl/src/widgets/lv_table.c ****     lv_table_cell_ctrl_t ctrl = 0;
 132:Drivers/lvgl/lvgl/src/widgets/lv_table.c **** 
 133:Drivers/lvgl/lvgl/src/widgets/lv_table.c ****     /*Save the control byte*/
 134:Drivers/lvgl/lvgl/src/widgets/lv_table.c ****     if(table->cell_data[cell]) ctrl = table->cell_data[cell][0];
 135:Drivers/lvgl/lvgl/src/widgets/lv_table.c **** 
 136:Drivers/lvgl/lvgl/src/widgets/lv_table.c ****     va_list ap, ap2;
 137:Drivers/lvgl/lvgl/src/widgets/lv_table.c ****     va_start(ap, fmt);
 138:Drivers/lvgl/lvgl/src/widgets/lv_table.c ****     va_copy(ap2, ap);
 139:Drivers/lvgl/lvgl/src/widgets/lv_table.c **** 
 140:Drivers/lvgl/lvgl/src/widgets/lv_table.c ****     /*Allocate space for the new text by using trick from C99 standard section 7.19.6.12*/
 141:Drivers/lvgl/lvgl/src/widgets/lv_table.c ****     uint32_t len = lv_vsnprintf(NULL, 0, fmt, ap);
 142:Drivers/lvgl/lvgl/src/widgets/lv_table.c ****     va_end(ap);
 143:Drivers/lvgl/lvgl/src/widgets/lv_table.c **** 
 144:Drivers/lvgl/lvgl/src/widgets/lv_table.c **** #if LV_USE_ARABIC_PERSIAN_CHARS
 145:Drivers/lvgl/lvgl/src/widgets/lv_table.c ****     /*Put together the text according to the format string*/
 146:Drivers/lvgl/lvgl/src/widgets/lv_table.c ****     char * raw_txt = lv_mem_buf_get(len + 1);
 147:Drivers/lvgl/lvgl/src/widgets/lv_table.c ****     LV_ASSERT_MALLOC(raw_txt);
ARM GAS  /tmp/ccFZiBLS.s 			page 4


 148:Drivers/lvgl/lvgl/src/widgets/lv_table.c ****     if(raw_txt == NULL) {
 149:Drivers/lvgl/lvgl/src/widgets/lv_table.c ****         va_end(ap2);
 150:Drivers/lvgl/lvgl/src/widgets/lv_table.c ****         return;
 151:Drivers/lvgl/lvgl/src/widgets/lv_table.c ****     }
 152:Drivers/lvgl/lvgl/src/widgets/lv_table.c **** 
 153:Drivers/lvgl/lvgl/src/widgets/lv_table.c ****     lv_vsnprintf(raw_txt, len + 1, fmt, ap2);
 154:Drivers/lvgl/lvgl/src/widgets/lv_table.c **** 
 155:Drivers/lvgl/lvgl/src/widgets/lv_table.c ****     /*Get the size of the Arabic text and process it*/
 156:Drivers/lvgl/lvgl/src/widgets/lv_table.c ****     size_t len_ap = _lv_txt_ap_calc_bytes_cnt(raw_txt);
 157:Drivers/lvgl/lvgl/src/widgets/lv_table.c ****     table->cell_data[cell] = lv_mem_realloc(table->cell_data[cell], len_ap + 1);
 158:Drivers/lvgl/lvgl/src/widgets/lv_table.c ****     LV_ASSERT_MALLOC(table->cell_data[cell]);
 159:Drivers/lvgl/lvgl/src/widgets/lv_table.c ****     if(table->cell_data[cell] == NULL) {
 160:Drivers/lvgl/lvgl/src/widgets/lv_table.c ****         va_end(ap2);
 161:Drivers/lvgl/lvgl/src/widgets/lv_table.c ****         return;
 162:Drivers/lvgl/lvgl/src/widgets/lv_table.c ****     }
 163:Drivers/lvgl/lvgl/src/widgets/lv_table.c ****     _lv_txt_ap_proc(raw_txt, &table->cell_data[cell][1]);
 164:Drivers/lvgl/lvgl/src/widgets/lv_table.c **** 
 165:Drivers/lvgl/lvgl/src/widgets/lv_table.c ****     lv_mem_buf_release(raw_txt);
 166:Drivers/lvgl/lvgl/src/widgets/lv_table.c **** #else
 167:Drivers/lvgl/lvgl/src/widgets/lv_table.c ****     table->cell_data[cell] = lv_mem_realloc(table->cell_data[cell], len + 2); /*+1: trailing '\0; +
 168:Drivers/lvgl/lvgl/src/widgets/lv_table.c ****     LV_ASSERT_MALLOC(table->cell_data[cell]);
 169:Drivers/lvgl/lvgl/src/widgets/lv_table.c ****     if(table->cell_data[cell] == NULL) {
 170:Drivers/lvgl/lvgl/src/widgets/lv_table.c ****         va_end(ap2);
 171:Drivers/lvgl/lvgl/src/widgets/lv_table.c ****         return;
 172:Drivers/lvgl/lvgl/src/widgets/lv_table.c ****     }
 173:Drivers/lvgl/lvgl/src/widgets/lv_table.c **** 
 174:Drivers/lvgl/lvgl/src/widgets/lv_table.c ****     table->cell_data[cell][len + 1] = 0; /*Ensure NULL termination*/
 175:Drivers/lvgl/lvgl/src/widgets/lv_table.c **** 
 176:Drivers/lvgl/lvgl/src/widgets/lv_table.c ****     lv_vsnprintf(&table->cell_data[cell][1], len + 1, fmt, ap2);
 177:Drivers/lvgl/lvgl/src/widgets/lv_table.c **** #endif
 178:Drivers/lvgl/lvgl/src/widgets/lv_table.c **** 
 179:Drivers/lvgl/lvgl/src/widgets/lv_table.c ****     va_end(ap2);
 180:Drivers/lvgl/lvgl/src/widgets/lv_table.c **** 
 181:Drivers/lvgl/lvgl/src/widgets/lv_table.c ****     table->cell_data[cell][0] = ctrl;
 182:Drivers/lvgl/lvgl/src/widgets/lv_table.c **** 
 183:Drivers/lvgl/lvgl/src/widgets/lv_table.c ****     refr_cell_size(obj, row, col);
 184:Drivers/lvgl/lvgl/src/widgets/lv_table.c **** }
 185:Drivers/lvgl/lvgl/src/widgets/lv_table.c **** 
 186:Drivers/lvgl/lvgl/src/widgets/lv_table.c **** void lv_table_set_row_cnt(lv_obj_t * obj, uint16_t row_cnt)
 187:Drivers/lvgl/lvgl/src/widgets/lv_table.c **** {
 188:Drivers/lvgl/lvgl/src/widgets/lv_table.c ****     LV_ASSERT_OBJ(obj, MY_CLASS);
 189:Drivers/lvgl/lvgl/src/widgets/lv_table.c **** 
 190:Drivers/lvgl/lvgl/src/widgets/lv_table.c ****     lv_table_t * table = (lv_table_t *)obj;
 191:Drivers/lvgl/lvgl/src/widgets/lv_table.c **** 
 192:Drivers/lvgl/lvgl/src/widgets/lv_table.c ****     if(table->row_cnt == row_cnt) return;
 193:Drivers/lvgl/lvgl/src/widgets/lv_table.c **** 
 194:Drivers/lvgl/lvgl/src/widgets/lv_table.c ****     uint16_t old_row_cnt = table->row_cnt;
 195:Drivers/lvgl/lvgl/src/widgets/lv_table.c ****     table->row_cnt         = row_cnt;
 196:Drivers/lvgl/lvgl/src/widgets/lv_table.c **** 
 197:Drivers/lvgl/lvgl/src/widgets/lv_table.c ****     table->row_h = lv_mem_realloc(table->row_h, table->row_cnt * sizeof(table->row_h[0]));
 198:Drivers/lvgl/lvgl/src/widgets/lv_table.c ****     LV_ASSERT_MALLOC(table->row_h);
 199:Drivers/lvgl/lvgl/src/widgets/lv_table.c ****     if(table->row_h == NULL) return;
 200:Drivers/lvgl/lvgl/src/widgets/lv_table.c **** 
 201:Drivers/lvgl/lvgl/src/widgets/lv_table.c ****     /*Free the unused cells*/
 202:Drivers/lvgl/lvgl/src/widgets/lv_table.c ****     if(old_row_cnt > row_cnt) {
 203:Drivers/lvgl/lvgl/src/widgets/lv_table.c ****         uint16_t old_cell_cnt = old_row_cnt * table->col_cnt;
 204:Drivers/lvgl/lvgl/src/widgets/lv_table.c ****         uint32_t new_cell_cnt = table->col_cnt * table->row_cnt;
ARM GAS  /tmp/ccFZiBLS.s 			page 5


 205:Drivers/lvgl/lvgl/src/widgets/lv_table.c ****         uint32_t i;
 206:Drivers/lvgl/lvgl/src/widgets/lv_table.c ****         for(i = new_cell_cnt; i < old_cell_cnt; i++) {
 207:Drivers/lvgl/lvgl/src/widgets/lv_table.c ****             lv_mem_free(table->cell_data[i]);
 208:Drivers/lvgl/lvgl/src/widgets/lv_table.c ****         }
 209:Drivers/lvgl/lvgl/src/widgets/lv_table.c ****     }
 210:Drivers/lvgl/lvgl/src/widgets/lv_table.c **** 
 211:Drivers/lvgl/lvgl/src/widgets/lv_table.c ****     table->cell_data = lv_mem_realloc(table->cell_data, table->row_cnt * table->col_cnt * sizeof(ch
 212:Drivers/lvgl/lvgl/src/widgets/lv_table.c ****     LV_ASSERT_MALLOC(table->cell_data);
 213:Drivers/lvgl/lvgl/src/widgets/lv_table.c ****     if(table->cell_data == NULL) return;
 214:Drivers/lvgl/lvgl/src/widgets/lv_table.c **** 
 215:Drivers/lvgl/lvgl/src/widgets/lv_table.c ****     /*Initialize the new fields*/
 216:Drivers/lvgl/lvgl/src/widgets/lv_table.c ****     if(old_row_cnt < row_cnt) {
 217:Drivers/lvgl/lvgl/src/widgets/lv_table.c ****         uint32_t old_cell_cnt = old_row_cnt * table->col_cnt;
 218:Drivers/lvgl/lvgl/src/widgets/lv_table.c ****         uint32_t new_cell_cnt = table->col_cnt * table->row_cnt;
 219:Drivers/lvgl/lvgl/src/widgets/lv_table.c ****         lv_memset_00(&table->cell_data[old_cell_cnt], (new_cell_cnt - old_cell_cnt) * sizeof(table-
 220:Drivers/lvgl/lvgl/src/widgets/lv_table.c ****     }
 221:Drivers/lvgl/lvgl/src/widgets/lv_table.c **** 
 222:Drivers/lvgl/lvgl/src/widgets/lv_table.c ****     refr_size_form_row(obj, 0);
 223:Drivers/lvgl/lvgl/src/widgets/lv_table.c **** }
 224:Drivers/lvgl/lvgl/src/widgets/lv_table.c **** 
 225:Drivers/lvgl/lvgl/src/widgets/lv_table.c **** void lv_table_set_col_cnt(lv_obj_t * obj, uint16_t col_cnt)
 226:Drivers/lvgl/lvgl/src/widgets/lv_table.c **** {
 227:Drivers/lvgl/lvgl/src/widgets/lv_table.c ****     LV_ASSERT_OBJ(obj, MY_CLASS);
 228:Drivers/lvgl/lvgl/src/widgets/lv_table.c **** 
 229:Drivers/lvgl/lvgl/src/widgets/lv_table.c ****     lv_table_t * table = (lv_table_t *)obj;
 230:Drivers/lvgl/lvgl/src/widgets/lv_table.c **** 
 231:Drivers/lvgl/lvgl/src/widgets/lv_table.c ****     if(table->col_cnt == col_cnt) return;
 232:Drivers/lvgl/lvgl/src/widgets/lv_table.c **** 
 233:Drivers/lvgl/lvgl/src/widgets/lv_table.c ****     uint16_t old_col_cnt = table->col_cnt;
 234:Drivers/lvgl/lvgl/src/widgets/lv_table.c ****     table->col_cnt         = col_cnt;
 235:Drivers/lvgl/lvgl/src/widgets/lv_table.c **** 
 236:Drivers/lvgl/lvgl/src/widgets/lv_table.c ****     char ** new_cell_data = lv_mem_alloc(table->row_cnt * table->col_cnt * sizeof(char *));
 237:Drivers/lvgl/lvgl/src/widgets/lv_table.c ****     LV_ASSERT_MALLOC(new_cell_data);
 238:Drivers/lvgl/lvgl/src/widgets/lv_table.c ****     if(new_cell_data == NULL) return;
 239:Drivers/lvgl/lvgl/src/widgets/lv_table.c ****     uint32_t new_cell_cnt = table->col_cnt * table->row_cnt;
 240:Drivers/lvgl/lvgl/src/widgets/lv_table.c **** 
 241:Drivers/lvgl/lvgl/src/widgets/lv_table.c ****     lv_memset_00(new_cell_data, new_cell_cnt * sizeof(table->cell_data[0]));
 242:Drivers/lvgl/lvgl/src/widgets/lv_table.c **** 
 243:Drivers/lvgl/lvgl/src/widgets/lv_table.c ****     /*The new column(s) messes up the mapping of `cell_data`*/
 244:Drivers/lvgl/lvgl/src/widgets/lv_table.c ****     uint32_t old_col_start;
 245:Drivers/lvgl/lvgl/src/widgets/lv_table.c ****     uint32_t new_col_start;
 246:Drivers/lvgl/lvgl/src/widgets/lv_table.c ****     uint32_t min_col_cnt = LV_MIN(old_col_cnt, col_cnt);
 247:Drivers/lvgl/lvgl/src/widgets/lv_table.c ****     uint32_t row;
 248:Drivers/lvgl/lvgl/src/widgets/lv_table.c ****     for(row = 0; row < table->row_cnt; row++) {
 249:Drivers/lvgl/lvgl/src/widgets/lv_table.c ****         old_col_start = row * old_col_cnt;
 250:Drivers/lvgl/lvgl/src/widgets/lv_table.c ****         new_col_start = row * col_cnt;
 251:Drivers/lvgl/lvgl/src/widgets/lv_table.c **** 
 252:Drivers/lvgl/lvgl/src/widgets/lv_table.c ****         lv_memcpy_small(&new_cell_data[new_col_start], &table->cell_data[old_col_start],
 253:Drivers/lvgl/lvgl/src/widgets/lv_table.c ****                         sizeof(new_cell_data[0]) * min_col_cnt);
 254:Drivers/lvgl/lvgl/src/widgets/lv_table.c **** 
 255:Drivers/lvgl/lvgl/src/widgets/lv_table.c ****         /*Free the old cells (only if the table becomes smaller)*/
 256:Drivers/lvgl/lvgl/src/widgets/lv_table.c ****         int32_t i;
 257:Drivers/lvgl/lvgl/src/widgets/lv_table.c ****         for(i = 0; i < (int32_t)old_col_cnt - col_cnt; i++) {
 258:Drivers/lvgl/lvgl/src/widgets/lv_table.c ****             uint32_t idx = old_col_start + min_col_cnt + i;
 259:Drivers/lvgl/lvgl/src/widgets/lv_table.c ****             lv_mem_free(table->cell_data[idx]);
 260:Drivers/lvgl/lvgl/src/widgets/lv_table.c ****             table->cell_data[idx] = NULL;
 261:Drivers/lvgl/lvgl/src/widgets/lv_table.c ****         }
ARM GAS  /tmp/ccFZiBLS.s 			page 6


 262:Drivers/lvgl/lvgl/src/widgets/lv_table.c ****     }
 263:Drivers/lvgl/lvgl/src/widgets/lv_table.c **** 
 264:Drivers/lvgl/lvgl/src/widgets/lv_table.c ****     lv_mem_free(table->cell_data);
 265:Drivers/lvgl/lvgl/src/widgets/lv_table.c ****     table->cell_data = new_cell_data;
 266:Drivers/lvgl/lvgl/src/widgets/lv_table.c **** 
 267:Drivers/lvgl/lvgl/src/widgets/lv_table.c ****     /*Initialize the new column widths if any*/
 268:Drivers/lvgl/lvgl/src/widgets/lv_table.c ****     table->col_w = lv_mem_realloc(table->col_w, col_cnt * sizeof(table->col_w[0]));
 269:Drivers/lvgl/lvgl/src/widgets/lv_table.c ****     LV_ASSERT_MALLOC(table->col_w);
 270:Drivers/lvgl/lvgl/src/widgets/lv_table.c ****     if(table->col_w == NULL) return;
 271:Drivers/lvgl/lvgl/src/widgets/lv_table.c **** 
 272:Drivers/lvgl/lvgl/src/widgets/lv_table.c ****     uint32_t col;
 273:Drivers/lvgl/lvgl/src/widgets/lv_table.c ****     for(col = old_col_cnt; col < col_cnt; col++) {
 274:Drivers/lvgl/lvgl/src/widgets/lv_table.c ****         table->col_w[col] = LV_DPI_DEF;
 275:Drivers/lvgl/lvgl/src/widgets/lv_table.c ****     }
 276:Drivers/lvgl/lvgl/src/widgets/lv_table.c **** 
 277:Drivers/lvgl/lvgl/src/widgets/lv_table.c **** 
 278:Drivers/lvgl/lvgl/src/widgets/lv_table.c ****     refr_size_form_row(obj, 0) ;
 279:Drivers/lvgl/lvgl/src/widgets/lv_table.c **** }
 280:Drivers/lvgl/lvgl/src/widgets/lv_table.c **** 
 281:Drivers/lvgl/lvgl/src/widgets/lv_table.c **** void lv_table_set_col_width(lv_obj_t * obj, uint16_t col_id, lv_coord_t w)
 282:Drivers/lvgl/lvgl/src/widgets/lv_table.c **** {
 283:Drivers/lvgl/lvgl/src/widgets/lv_table.c ****     LV_ASSERT_OBJ(obj, MY_CLASS);
 284:Drivers/lvgl/lvgl/src/widgets/lv_table.c **** 
 285:Drivers/lvgl/lvgl/src/widgets/lv_table.c ****     lv_table_t * table = (lv_table_t *)obj;
 286:Drivers/lvgl/lvgl/src/widgets/lv_table.c **** 
 287:Drivers/lvgl/lvgl/src/widgets/lv_table.c ****     /*Auto expand*/
 288:Drivers/lvgl/lvgl/src/widgets/lv_table.c ****     if(col_id >= table->col_cnt) lv_table_set_col_cnt(obj, col_id + 1);
 289:Drivers/lvgl/lvgl/src/widgets/lv_table.c **** 
 290:Drivers/lvgl/lvgl/src/widgets/lv_table.c ****     table->col_w[col_id] = w;
 291:Drivers/lvgl/lvgl/src/widgets/lv_table.c ****     refr_size_form_row(obj, 0);
 292:Drivers/lvgl/lvgl/src/widgets/lv_table.c **** }
 293:Drivers/lvgl/lvgl/src/widgets/lv_table.c **** 
 294:Drivers/lvgl/lvgl/src/widgets/lv_table.c **** void lv_table_add_cell_ctrl(lv_obj_t * obj, uint16_t row, uint16_t col, lv_table_cell_ctrl_t ctrl)
 295:Drivers/lvgl/lvgl/src/widgets/lv_table.c **** {
 296:Drivers/lvgl/lvgl/src/widgets/lv_table.c ****     LV_ASSERT_OBJ(obj, MY_CLASS);
 297:Drivers/lvgl/lvgl/src/widgets/lv_table.c **** 
 298:Drivers/lvgl/lvgl/src/widgets/lv_table.c ****     lv_table_t * table = (lv_table_t *)obj;
 299:Drivers/lvgl/lvgl/src/widgets/lv_table.c **** 
 300:Drivers/lvgl/lvgl/src/widgets/lv_table.c ****     /*Auto expand*/
 301:Drivers/lvgl/lvgl/src/widgets/lv_table.c ****     if(col >= table->col_cnt) lv_table_set_col_cnt(obj, col + 1);
 302:Drivers/lvgl/lvgl/src/widgets/lv_table.c ****     if(row >= table->row_cnt) lv_table_set_row_cnt(obj, row + 1);
 303:Drivers/lvgl/lvgl/src/widgets/lv_table.c **** 
 304:Drivers/lvgl/lvgl/src/widgets/lv_table.c ****     uint32_t cell = row * table->col_cnt + col;
 305:Drivers/lvgl/lvgl/src/widgets/lv_table.c **** 
 306:Drivers/lvgl/lvgl/src/widgets/lv_table.c ****     if(is_cell_empty(table->cell_data[cell])) {
 307:Drivers/lvgl/lvgl/src/widgets/lv_table.c ****         table->cell_data[cell]    = lv_mem_alloc(2); /*+1: trailing '\0; +1: format byte*/
 308:Drivers/lvgl/lvgl/src/widgets/lv_table.c ****         LV_ASSERT_MALLOC(table->cell_data[cell]);
 309:Drivers/lvgl/lvgl/src/widgets/lv_table.c ****         if(table->cell_data[cell] == NULL) return;
 310:Drivers/lvgl/lvgl/src/widgets/lv_table.c **** 
 311:Drivers/lvgl/lvgl/src/widgets/lv_table.c ****         table->cell_data[cell][0] = 0;
 312:Drivers/lvgl/lvgl/src/widgets/lv_table.c ****         table->cell_data[cell][1] = '\0';
 313:Drivers/lvgl/lvgl/src/widgets/lv_table.c ****     }
 314:Drivers/lvgl/lvgl/src/widgets/lv_table.c **** 
 315:Drivers/lvgl/lvgl/src/widgets/lv_table.c ****     table->cell_data[cell][0] |= ctrl;
 316:Drivers/lvgl/lvgl/src/widgets/lv_table.c **** }
 317:Drivers/lvgl/lvgl/src/widgets/lv_table.c **** 
 318:Drivers/lvgl/lvgl/src/widgets/lv_table.c **** void lv_table_clear_cell_ctrl(lv_obj_t * obj, uint16_t row, uint16_t col, lv_table_cell_ctrl_t ctrl
ARM GAS  /tmp/ccFZiBLS.s 			page 7


 319:Drivers/lvgl/lvgl/src/widgets/lv_table.c **** {
 320:Drivers/lvgl/lvgl/src/widgets/lv_table.c ****     LV_ASSERT_OBJ(obj, MY_CLASS);
 321:Drivers/lvgl/lvgl/src/widgets/lv_table.c **** 
 322:Drivers/lvgl/lvgl/src/widgets/lv_table.c ****     lv_table_t * table = (lv_table_t *)obj;
 323:Drivers/lvgl/lvgl/src/widgets/lv_table.c **** 
 324:Drivers/lvgl/lvgl/src/widgets/lv_table.c ****     /*Auto expand*/
 325:Drivers/lvgl/lvgl/src/widgets/lv_table.c ****     if(col >= table->col_cnt) lv_table_set_col_cnt(obj, col + 1);
 326:Drivers/lvgl/lvgl/src/widgets/lv_table.c ****     if(row >= table->row_cnt) lv_table_set_row_cnt(obj, row + 1);
 327:Drivers/lvgl/lvgl/src/widgets/lv_table.c **** 
 328:Drivers/lvgl/lvgl/src/widgets/lv_table.c ****     uint32_t cell = row * table->col_cnt + col;
 329:Drivers/lvgl/lvgl/src/widgets/lv_table.c **** 
 330:Drivers/lvgl/lvgl/src/widgets/lv_table.c ****     if(is_cell_empty(table->cell_data[cell])) {
 331:Drivers/lvgl/lvgl/src/widgets/lv_table.c ****         table->cell_data[cell]    = lv_mem_alloc(2); /*+1: trailing '\0; +1: format byte*/
 332:Drivers/lvgl/lvgl/src/widgets/lv_table.c ****         LV_ASSERT_MALLOC(table->cell_data[cell]);
 333:Drivers/lvgl/lvgl/src/widgets/lv_table.c ****         if(table->cell_data[cell] == NULL) return;
 334:Drivers/lvgl/lvgl/src/widgets/lv_table.c **** 
 335:Drivers/lvgl/lvgl/src/widgets/lv_table.c ****         table->cell_data[cell][0] = 0;
 336:Drivers/lvgl/lvgl/src/widgets/lv_table.c ****         table->cell_data[cell][1] = '\0';
 337:Drivers/lvgl/lvgl/src/widgets/lv_table.c ****     }
 338:Drivers/lvgl/lvgl/src/widgets/lv_table.c **** 
 339:Drivers/lvgl/lvgl/src/widgets/lv_table.c ****     table->cell_data[cell][0] &= (~ctrl);
 340:Drivers/lvgl/lvgl/src/widgets/lv_table.c **** }
 341:Drivers/lvgl/lvgl/src/widgets/lv_table.c **** 
 342:Drivers/lvgl/lvgl/src/widgets/lv_table.c **** /*=====================
 343:Drivers/lvgl/lvgl/src/widgets/lv_table.c ****  * Getter functions
 344:Drivers/lvgl/lvgl/src/widgets/lv_table.c ****  *====================*/
 345:Drivers/lvgl/lvgl/src/widgets/lv_table.c **** 
 346:Drivers/lvgl/lvgl/src/widgets/lv_table.c **** const char * lv_table_get_cell_value(lv_obj_t * obj, uint16_t row, uint16_t col)
 347:Drivers/lvgl/lvgl/src/widgets/lv_table.c **** {
 348:Drivers/lvgl/lvgl/src/widgets/lv_table.c ****     LV_ASSERT_OBJ(obj, MY_CLASS);
 349:Drivers/lvgl/lvgl/src/widgets/lv_table.c **** 
 350:Drivers/lvgl/lvgl/src/widgets/lv_table.c ****     lv_table_t * table = (lv_table_t *)obj;
 351:Drivers/lvgl/lvgl/src/widgets/lv_table.c ****     if(row >= table->row_cnt || col >= table->col_cnt) {
 352:Drivers/lvgl/lvgl/src/widgets/lv_table.c ****         LV_LOG_WARN("invalid row or column");
 353:Drivers/lvgl/lvgl/src/widgets/lv_table.c ****         return "";
 354:Drivers/lvgl/lvgl/src/widgets/lv_table.c ****     }
 355:Drivers/lvgl/lvgl/src/widgets/lv_table.c ****     uint32_t cell = row * table->col_cnt + col;
 356:Drivers/lvgl/lvgl/src/widgets/lv_table.c **** 
 357:Drivers/lvgl/lvgl/src/widgets/lv_table.c ****     if(is_cell_empty(table->cell_data[cell])) return "";
 358:Drivers/lvgl/lvgl/src/widgets/lv_table.c **** 
 359:Drivers/lvgl/lvgl/src/widgets/lv_table.c ****     return &table->cell_data[cell][1]; /*Skip the format byte*/
 360:Drivers/lvgl/lvgl/src/widgets/lv_table.c **** }
 361:Drivers/lvgl/lvgl/src/widgets/lv_table.c **** 
 362:Drivers/lvgl/lvgl/src/widgets/lv_table.c **** uint16_t lv_table_get_row_cnt(lv_obj_t * obj)
 363:Drivers/lvgl/lvgl/src/widgets/lv_table.c **** {
 364:Drivers/lvgl/lvgl/src/widgets/lv_table.c ****     LV_ASSERT_OBJ(obj, MY_CLASS);
 365:Drivers/lvgl/lvgl/src/widgets/lv_table.c **** 
 366:Drivers/lvgl/lvgl/src/widgets/lv_table.c ****     lv_table_t * table = (lv_table_t *)obj;
 367:Drivers/lvgl/lvgl/src/widgets/lv_table.c ****     return table->row_cnt;
 368:Drivers/lvgl/lvgl/src/widgets/lv_table.c **** }
 369:Drivers/lvgl/lvgl/src/widgets/lv_table.c **** 
 370:Drivers/lvgl/lvgl/src/widgets/lv_table.c **** uint16_t lv_table_get_col_cnt(lv_obj_t * obj)
 371:Drivers/lvgl/lvgl/src/widgets/lv_table.c **** {
 372:Drivers/lvgl/lvgl/src/widgets/lv_table.c ****     LV_ASSERT_OBJ(obj, MY_CLASS);
 373:Drivers/lvgl/lvgl/src/widgets/lv_table.c **** 
 374:Drivers/lvgl/lvgl/src/widgets/lv_table.c ****     lv_table_t * table = (lv_table_t *)obj;
 375:Drivers/lvgl/lvgl/src/widgets/lv_table.c ****     return table->col_cnt;
ARM GAS  /tmp/ccFZiBLS.s 			page 8


 376:Drivers/lvgl/lvgl/src/widgets/lv_table.c **** }
 377:Drivers/lvgl/lvgl/src/widgets/lv_table.c **** 
 378:Drivers/lvgl/lvgl/src/widgets/lv_table.c **** lv_coord_t lv_table_get_col_width(lv_obj_t * obj, uint16_t col)
 379:Drivers/lvgl/lvgl/src/widgets/lv_table.c **** {
 380:Drivers/lvgl/lvgl/src/widgets/lv_table.c ****     LV_ASSERT_OBJ(obj, MY_CLASS);
 381:Drivers/lvgl/lvgl/src/widgets/lv_table.c **** 
 382:Drivers/lvgl/lvgl/src/widgets/lv_table.c ****     lv_table_t * table = (lv_table_t *)obj;
 383:Drivers/lvgl/lvgl/src/widgets/lv_table.c **** 
 384:Drivers/lvgl/lvgl/src/widgets/lv_table.c ****     if(col >= table->col_cnt) {
 385:Drivers/lvgl/lvgl/src/widgets/lv_table.c ****         LV_LOG_WARN("lv_table_set_col_width: too big 'col_id'. Must be < LV_TABLE_COL_MAX.");
 386:Drivers/lvgl/lvgl/src/widgets/lv_table.c ****         return 0;
 387:Drivers/lvgl/lvgl/src/widgets/lv_table.c ****     }
 388:Drivers/lvgl/lvgl/src/widgets/lv_table.c **** 
 389:Drivers/lvgl/lvgl/src/widgets/lv_table.c ****     return table->col_w[col];
 390:Drivers/lvgl/lvgl/src/widgets/lv_table.c **** }
 391:Drivers/lvgl/lvgl/src/widgets/lv_table.c **** 
 392:Drivers/lvgl/lvgl/src/widgets/lv_table.c **** bool lv_table_has_cell_ctrl(lv_obj_t * obj, uint16_t row, uint16_t col, lv_table_cell_ctrl_t ctrl)
 393:Drivers/lvgl/lvgl/src/widgets/lv_table.c **** {
 394:Drivers/lvgl/lvgl/src/widgets/lv_table.c ****     LV_ASSERT_OBJ(obj, MY_CLASS);
 395:Drivers/lvgl/lvgl/src/widgets/lv_table.c **** 
 396:Drivers/lvgl/lvgl/src/widgets/lv_table.c ****     lv_table_t * table = (lv_table_t *)obj;
 397:Drivers/lvgl/lvgl/src/widgets/lv_table.c ****     if(row >= table->row_cnt || col >= table->col_cnt) {
 398:Drivers/lvgl/lvgl/src/widgets/lv_table.c ****         LV_LOG_WARN("lv_table_get_cell_crop: invalid row or column");
 399:Drivers/lvgl/lvgl/src/widgets/lv_table.c ****         return false;
 400:Drivers/lvgl/lvgl/src/widgets/lv_table.c ****     }
 401:Drivers/lvgl/lvgl/src/widgets/lv_table.c ****     uint32_t cell = row * table->col_cnt + col;
 402:Drivers/lvgl/lvgl/src/widgets/lv_table.c **** 
 403:Drivers/lvgl/lvgl/src/widgets/lv_table.c ****     if(is_cell_empty(table->cell_data[cell])) return false;
 404:Drivers/lvgl/lvgl/src/widgets/lv_table.c ****     else return (table->cell_data[cell][0] & ctrl) == ctrl;
 405:Drivers/lvgl/lvgl/src/widgets/lv_table.c **** }
 406:Drivers/lvgl/lvgl/src/widgets/lv_table.c **** 
 407:Drivers/lvgl/lvgl/src/widgets/lv_table.c **** void lv_table_get_selected_cell(lv_obj_t * obj, uint16_t * row, uint16_t * col)
 408:Drivers/lvgl/lvgl/src/widgets/lv_table.c **** {
 409:Drivers/lvgl/lvgl/src/widgets/lv_table.c ****     lv_table_t * table = (lv_table_t *)obj;
 410:Drivers/lvgl/lvgl/src/widgets/lv_table.c ****     *row = table->row_act;
 411:Drivers/lvgl/lvgl/src/widgets/lv_table.c ****     *col = table->col_act;
 412:Drivers/lvgl/lvgl/src/widgets/lv_table.c **** }
 413:Drivers/lvgl/lvgl/src/widgets/lv_table.c **** 
 414:Drivers/lvgl/lvgl/src/widgets/lv_table.c **** /**********************
 415:Drivers/lvgl/lvgl/src/widgets/lv_table.c ****  *   STATIC FUNCTIONS
 416:Drivers/lvgl/lvgl/src/widgets/lv_table.c ****  **********************/
 417:Drivers/lvgl/lvgl/src/widgets/lv_table.c **** 
 418:Drivers/lvgl/lvgl/src/widgets/lv_table.c **** static void lv_table_constructor(const lv_obj_class_t * class_p, lv_obj_t * obj)
 419:Drivers/lvgl/lvgl/src/widgets/lv_table.c **** {
 420:Drivers/lvgl/lvgl/src/widgets/lv_table.c ****     LV_UNUSED(class_p);
 421:Drivers/lvgl/lvgl/src/widgets/lv_table.c ****     LV_TRACE_OBJ_CREATE("begin");
 422:Drivers/lvgl/lvgl/src/widgets/lv_table.c **** 
 423:Drivers/lvgl/lvgl/src/widgets/lv_table.c ****     lv_table_t * table = (lv_table_t *)obj;
 424:Drivers/lvgl/lvgl/src/widgets/lv_table.c **** 
 425:Drivers/lvgl/lvgl/src/widgets/lv_table.c ****     table->col_cnt = 1;
 426:Drivers/lvgl/lvgl/src/widgets/lv_table.c ****     table->row_cnt = 1;
 427:Drivers/lvgl/lvgl/src/widgets/lv_table.c ****     table->col_w = lv_mem_alloc(table->col_cnt * sizeof(table->col_w[0]));
 428:Drivers/lvgl/lvgl/src/widgets/lv_table.c ****     table->row_h = lv_mem_alloc(table->row_cnt * sizeof(table->row_h[0]));
 429:Drivers/lvgl/lvgl/src/widgets/lv_table.c ****     table->col_w[0] = LV_DPI_DEF;
 430:Drivers/lvgl/lvgl/src/widgets/lv_table.c ****     table->row_h[0] = LV_DPI_DEF;
 431:Drivers/lvgl/lvgl/src/widgets/lv_table.c ****     table->cell_data = lv_mem_realloc(table->cell_data, table->row_cnt * table->col_cnt * sizeof(ch
 432:Drivers/lvgl/lvgl/src/widgets/lv_table.c ****     table->cell_data[0] = NULL;
ARM GAS  /tmp/ccFZiBLS.s 			page 9


 433:Drivers/lvgl/lvgl/src/widgets/lv_table.c **** 
 434:Drivers/lvgl/lvgl/src/widgets/lv_table.c ****     LV_TRACE_OBJ_CREATE("finished");
 435:Drivers/lvgl/lvgl/src/widgets/lv_table.c **** }
 436:Drivers/lvgl/lvgl/src/widgets/lv_table.c **** 
 437:Drivers/lvgl/lvgl/src/widgets/lv_table.c **** static void lv_table_destructor(const lv_obj_class_t * class_p, lv_obj_t * obj)
 438:Drivers/lvgl/lvgl/src/widgets/lv_table.c **** {
 439:Drivers/lvgl/lvgl/src/widgets/lv_table.c ****     LV_UNUSED(class_p);
 440:Drivers/lvgl/lvgl/src/widgets/lv_table.c ****     lv_table_t * table = (lv_table_t *)obj;
 441:Drivers/lvgl/lvgl/src/widgets/lv_table.c ****     /*Free the cell texts*/
 442:Drivers/lvgl/lvgl/src/widgets/lv_table.c ****     uint16_t i;
 443:Drivers/lvgl/lvgl/src/widgets/lv_table.c ****     for(i = 0; i < table->col_cnt * table->row_cnt; i++) {
 444:Drivers/lvgl/lvgl/src/widgets/lv_table.c ****         if(table->cell_data[i]) {
 445:Drivers/lvgl/lvgl/src/widgets/lv_table.c ****             lv_mem_free(table->cell_data[i]);
 446:Drivers/lvgl/lvgl/src/widgets/lv_table.c ****             table->cell_data[i] = NULL;
 447:Drivers/lvgl/lvgl/src/widgets/lv_table.c ****         }
 448:Drivers/lvgl/lvgl/src/widgets/lv_table.c ****     }
 449:Drivers/lvgl/lvgl/src/widgets/lv_table.c **** 
 450:Drivers/lvgl/lvgl/src/widgets/lv_table.c ****     if(table->cell_data) lv_mem_free(table->cell_data);
 451:Drivers/lvgl/lvgl/src/widgets/lv_table.c ****     if(table->row_h) lv_mem_free(table->row_h);
 452:Drivers/lvgl/lvgl/src/widgets/lv_table.c ****     if(table->col_w) lv_mem_free(table->col_w);
 453:Drivers/lvgl/lvgl/src/widgets/lv_table.c **** }
 454:Drivers/lvgl/lvgl/src/widgets/lv_table.c **** 
 455:Drivers/lvgl/lvgl/src/widgets/lv_table.c **** static void lv_table_event(const lv_obj_class_t * class_p, lv_event_t * e)
 456:Drivers/lvgl/lvgl/src/widgets/lv_table.c **** {
 457:Drivers/lvgl/lvgl/src/widgets/lv_table.c ****     LV_UNUSED(class_p);
 458:Drivers/lvgl/lvgl/src/widgets/lv_table.c **** 
 459:Drivers/lvgl/lvgl/src/widgets/lv_table.c ****     lv_res_t res;
 460:Drivers/lvgl/lvgl/src/widgets/lv_table.c **** 
 461:Drivers/lvgl/lvgl/src/widgets/lv_table.c ****     /*Call the ancestor's event handler*/
 462:Drivers/lvgl/lvgl/src/widgets/lv_table.c ****     res = lv_obj_event_base(MY_CLASS, e);
 463:Drivers/lvgl/lvgl/src/widgets/lv_table.c ****     if(res != LV_RES_OK) return;
 464:Drivers/lvgl/lvgl/src/widgets/lv_table.c **** 
 465:Drivers/lvgl/lvgl/src/widgets/lv_table.c ****     lv_event_code_t code = lv_event_get_code(e);
 466:Drivers/lvgl/lvgl/src/widgets/lv_table.c ****     lv_obj_t * obj = lv_event_get_target(e);
 467:Drivers/lvgl/lvgl/src/widgets/lv_table.c ****     lv_table_t * table = (lv_table_t *)obj;
 468:Drivers/lvgl/lvgl/src/widgets/lv_table.c **** 
 469:Drivers/lvgl/lvgl/src/widgets/lv_table.c ****     if(code == LV_EVENT_STYLE_CHANGED) {
 470:Drivers/lvgl/lvgl/src/widgets/lv_table.c ****         refr_size_form_row(obj, 0);
 471:Drivers/lvgl/lvgl/src/widgets/lv_table.c ****     }
 472:Drivers/lvgl/lvgl/src/widgets/lv_table.c ****     else if(code == LV_EVENT_GET_SELF_SIZE) {
 473:Drivers/lvgl/lvgl/src/widgets/lv_table.c ****         lv_point_t * p = lv_event_get_param(e);
 474:Drivers/lvgl/lvgl/src/widgets/lv_table.c ****         uint32_t i;
 475:Drivers/lvgl/lvgl/src/widgets/lv_table.c ****         lv_coord_t w = 0;
 476:Drivers/lvgl/lvgl/src/widgets/lv_table.c ****         for(i = 0; i < table->col_cnt; i++) w += table->col_w[i];
 477:Drivers/lvgl/lvgl/src/widgets/lv_table.c **** 
 478:Drivers/lvgl/lvgl/src/widgets/lv_table.c ****         lv_coord_t h = 0;
 479:Drivers/lvgl/lvgl/src/widgets/lv_table.c ****         for(i = 0; i < table->row_cnt; i++) h += table->row_h[i];
 480:Drivers/lvgl/lvgl/src/widgets/lv_table.c **** 
 481:Drivers/lvgl/lvgl/src/widgets/lv_table.c ****         p->x = w - 1;
 482:Drivers/lvgl/lvgl/src/widgets/lv_table.c ****         p->y = h - 1;
 483:Drivers/lvgl/lvgl/src/widgets/lv_table.c ****     }
 484:Drivers/lvgl/lvgl/src/widgets/lv_table.c ****     else if(code == LV_EVENT_PRESSED || code == LV_EVENT_PRESSING) {
 485:Drivers/lvgl/lvgl/src/widgets/lv_table.c ****         uint16_t col;
 486:Drivers/lvgl/lvgl/src/widgets/lv_table.c ****         uint16_t row;
 487:Drivers/lvgl/lvgl/src/widgets/lv_table.c ****         lv_res_t pr_res = get_pressed_cell(obj, &row, &col);
 488:Drivers/lvgl/lvgl/src/widgets/lv_table.c **** 
 489:Drivers/lvgl/lvgl/src/widgets/lv_table.c ****         if(pr_res == LV_RES_OK && (table->col_act != col || table->row_act != row)) {
ARM GAS  /tmp/ccFZiBLS.s 			page 10


 490:Drivers/lvgl/lvgl/src/widgets/lv_table.c ****             table->col_act = col;
 491:Drivers/lvgl/lvgl/src/widgets/lv_table.c ****             table->row_act = row;
 492:Drivers/lvgl/lvgl/src/widgets/lv_table.c ****             lv_obj_invalidate(obj);
 493:Drivers/lvgl/lvgl/src/widgets/lv_table.c ****         }
 494:Drivers/lvgl/lvgl/src/widgets/lv_table.c ****     }
 495:Drivers/lvgl/lvgl/src/widgets/lv_table.c ****     else if(code == LV_EVENT_RELEASED) {
 496:Drivers/lvgl/lvgl/src/widgets/lv_table.c ****         lv_obj_invalidate(obj);
 497:Drivers/lvgl/lvgl/src/widgets/lv_table.c ****         lv_indev_t * indev = lv_indev_get_act();
 498:Drivers/lvgl/lvgl/src/widgets/lv_table.c ****         lv_obj_t * scroll_obj = lv_indev_get_scroll_obj(indev);
 499:Drivers/lvgl/lvgl/src/widgets/lv_table.c ****         if(table->col_act != LV_TABLE_CELL_NONE && table->row_act != LV_TABLE_CELL_NONE && scroll_o
 500:Drivers/lvgl/lvgl/src/widgets/lv_table.c ****             res = lv_event_send(obj, LV_EVENT_VALUE_CHANGED, NULL);
 501:Drivers/lvgl/lvgl/src/widgets/lv_table.c ****             if(res != LV_RES_OK) return;
 502:Drivers/lvgl/lvgl/src/widgets/lv_table.c ****         }
 503:Drivers/lvgl/lvgl/src/widgets/lv_table.c **** 
 504:Drivers/lvgl/lvgl/src/widgets/lv_table.c ****         lv_indev_type_t indev_type = lv_indev_get_type(lv_indev_get_act());
 505:Drivers/lvgl/lvgl/src/widgets/lv_table.c ****         if(indev_type == LV_INDEV_TYPE_POINTER || indev_type == LV_INDEV_TYPE_BUTTON) {
 506:Drivers/lvgl/lvgl/src/widgets/lv_table.c ****             table->col_act = LV_TABLE_CELL_NONE;
 507:Drivers/lvgl/lvgl/src/widgets/lv_table.c ****             table->row_act = LV_TABLE_CELL_NONE;
 508:Drivers/lvgl/lvgl/src/widgets/lv_table.c ****         }
 509:Drivers/lvgl/lvgl/src/widgets/lv_table.c ****     }
 510:Drivers/lvgl/lvgl/src/widgets/lv_table.c ****     else if(code == LV_EVENT_FOCUSED) {
 511:Drivers/lvgl/lvgl/src/widgets/lv_table.c ****         lv_obj_invalidate(obj);
 512:Drivers/lvgl/lvgl/src/widgets/lv_table.c ****     }
 513:Drivers/lvgl/lvgl/src/widgets/lv_table.c ****     else if(code == LV_EVENT_KEY) {
 514:Drivers/lvgl/lvgl/src/widgets/lv_table.c ****         int32_t c = *((int32_t *)lv_event_get_param(e));
 515:Drivers/lvgl/lvgl/src/widgets/lv_table.c ****         int32_t col = table->col_act;
 516:Drivers/lvgl/lvgl/src/widgets/lv_table.c ****         int32_t row = table->row_act;
 517:Drivers/lvgl/lvgl/src/widgets/lv_table.c ****         if(col == LV_TABLE_CELL_NONE || row == LV_TABLE_CELL_NONE) {
 518:Drivers/lvgl/lvgl/src/widgets/lv_table.c ****             table->col_act = 0;
 519:Drivers/lvgl/lvgl/src/widgets/lv_table.c ****             table->row_act = 0;
 520:Drivers/lvgl/lvgl/src/widgets/lv_table.c ****             scroll_to_selected_cell(obj);
 521:Drivers/lvgl/lvgl/src/widgets/lv_table.c ****             lv_obj_invalidate(obj);
 522:Drivers/lvgl/lvgl/src/widgets/lv_table.c ****             return;
 523:Drivers/lvgl/lvgl/src/widgets/lv_table.c ****         }
 524:Drivers/lvgl/lvgl/src/widgets/lv_table.c **** 
 525:Drivers/lvgl/lvgl/src/widgets/lv_table.c ****         if(col >= table->col_cnt) col = 0;
 526:Drivers/lvgl/lvgl/src/widgets/lv_table.c ****         if(row >= table->row_cnt) row = 0;
 527:Drivers/lvgl/lvgl/src/widgets/lv_table.c **** 
 528:Drivers/lvgl/lvgl/src/widgets/lv_table.c ****         if(c == LV_KEY_LEFT) col--;
 529:Drivers/lvgl/lvgl/src/widgets/lv_table.c ****         else if(c == LV_KEY_RIGHT) col++;
 530:Drivers/lvgl/lvgl/src/widgets/lv_table.c ****         else if(c == LV_KEY_UP) row--;
 531:Drivers/lvgl/lvgl/src/widgets/lv_table.c ****         else if(c == LV_KEY_DOWN) row++;
 532:Drivers/lvgl/lvgl/src/widgets/lv_table.c ****         else return;
 533:Drivers/lvgl/lvgl/src/widgets/lv_table.c **** 
 534:Drivers/lvgl/lvgl/src/widgets/lv_table.c ****         if(col >= table->col_cnt) {
 535:Drivers/lvgl/lvgl/src/widgets/lv_table.c ****             if(row < table->row_cnt - 1) {
 536:Drivers/lvgl/lvgl/src/widgets/lv_table.c ****                 col = 0;
 537:Drivers/lvgl/lvgl/src/widgets/lv_table.c ****                 row++;
 538:Drivers/lvgl/lvgl/src/widgets/lv_table.c ****             }
 539:Drivers/lvgl/lvgl/src/widgets/lv_table.c ****             else {
 540:Drivers/lvgl/lvgl/src/widgets/lv_table.c ****                 col = table->col_cnt - 1;
 541:Drivers/lvgl/lvgl/src/widgets/lv_table.c ****             }
 542:Drivers/lvgl/lvgl/src/widgets/lv_table.c ****         }
 543:Drivers/lvgl/lvgl/src/widgets/lv_table.c ****         else if(col < 0) {
 544:Drivers/lvgl/lvgl/src/widgets/lv_table.c ****             if(row != 0) {
 545:Drivers/lvgl/lvgl/src/widgets/lv_table.c ****                 col = table->col_cnt - 1;
 546:Drivers/lvgl/lvgl/src/widgets/lv_table.c ****                 row--;
ARM GAS  /tmp/ccFZiBLS.s 			page 11


 547:Drivers/lvgl/lvgl/src/widgets/lv_table.c ****             }
 548:Drivers/lvgl/lvgl/src/widgets/lv_table.c ****             else {
 549:Drivers/lvgl/lvgl/src/widgets/lv_table.c ****                 col = 0;
 550:Drivers/lvgl/lvgl/src/widgets/lv_table.c ****             }
 551:Drivers/lvgl/lvgl/src/widgets/lv_table.c ****         }
 552:Drivers/lvgl/lvgl/src/widgets/lv_table.c **** 
 553:Drivers/lvgl/lvgl/src/widgets/lv_table.c ****         if(row >= table->row_cnt) {
 554:Drivers/lvgl/lvgl/src/widgets/lv_table.c ****             row = table->row_cnt - 1;
 555:Drivers/lvgl/lvgl/src/widgets/lv_table.c ****         }
 556:Drivers/lvgl/lvgl/src/widgets/lv_table.c ****         else if(row < 0) {
 557:Drivers/lvgl/lvgl/src/widgets/lv_table.c ****             row = 0;
 558:Drivers/lvgl/lvgl/src/widgets/lv_table.c ****         }
 559:Drivers/lvgl/lvgl/src/widgets/lv_table.c **** 
 560:Drivers/lvgl/lvgl/src/widgets/lv_table.c ****         if(table->col_act != col || table->row_act != row) {
 561:Drivers/lvgl/lvgl/src/widgets/lv_table.c ****             table->col_act = col;
 562:Drivers/lvgl/lvgl/src/widgets/lv_table.c ****             table->row_act = row;
 563:Drivers/lvgl/lvgl/src/widgets/lv_table.c ****             lv_obj_invalidate(obj);
 564:Drivers/lvgl/lvgl/src/widgets/lv_table.c **** 
 565:Drivers/lvgl/lvgl/src/widgets/lv_table.c ****             scroll_to_selected_cell(obj);
 566:Drivers/lvgl/lvgl/src/widgets/lv_table.c **** 
 567:Drivers/lvgl/lvgl/src/widgets/lv_table.c ****             res = lv_event_send(obj, LV_EVENT_VALUE_CHANGED, NULL);
 568:Drivers/lvgl/lvgl/src/widgets/lv_table.c ****             if(res != LV_RES_OK) return;
 569:Drivers/lvgl/lvgl/src/widgets/lv_table.c ****         }
 570:Drivers/lvgl/lvgl/src/widgets/lv_table.c ****     }
 571:Drivers/lvgl/lvgl/src/widgets/lv_table.c ****     else if(code == LV_EVENT_DRAW_MAIN) {
 572:Drivers/lvgl/lvgl/src/widgets/lv_table.c ****         draw_main(e);
 573:Drivers/lvgl/lvgl/src/widgets/lv_table.c ****     }
 574:Drivers/lvgl/lvgl/src/widgets/lv_table.c **** }
 575:Drivers/lvgl/lvgl/src/widgets/lv_table.c **** 
 576:Drivers/lvgl/lvgl/src/widgets/lv_table.c **** 
 577:Drivers/lvgl/lvgl/src/widgets/lv_table.c **** static void draw_main(lv_event_t * e)
 578:Drivers/lvgl/lvgl/src/widgets/lv_table.c **** {
 579:Drivers/lvgl/lvgl/src/widgets/lv_table.c ****     lv_obj_t * obj = lv_event_get_target(e);
 580:Drivers/lvgl/lvgl/src/widgets/lv_table.c ****     lv_table_t * table = (lv_table_t *)obj;
 581:Drivers/lvgl/lvgl/src/widgets/lv_table.c ****     lv_draw_ctx_t * draw_ctx = lv_event_get_draw_ctx(e);
 582:Drivers/lvgl/lvgl/src/widgets/lv_table.c ****     lv_area_t clip_area;
 583:Drivers/lvgl/lvgl/src/widgets/lv_table.c ****     if(!_lv_area_intersect(&clip_area, &obj->coords, draw_ctx->clip_area)) return;
 584:Drivers/lvgl/lvgl/src/widgets/lv_table.c **** 
 585:Drivers/lvgl/lvgl/src/widgets/lv_table.c ****     const lv_area_t * clip_area_ori = draw_ctx->clip_area;
 586:Drivers/lvgl/lvgl/src/widgets/lv_table.c ****     draw_ctx->clip_area = &clip_area;
 587:Drivers/lvgl/lvgl/src/widgets/lv_table.c **** 
 588:Drivers/lvgl/lvgl/src/widgets/lv_table.c ****     lv_point_t txt_size;
 589:Drivers/lvgl/lvgl/src/widgets/lv_table.c ****     lv_area_t cell_area;
 590:Drivers/lvgl/lvgl/src/widgets/lv_table.c **** 
 591:Drivers/lvgl/lvgl/src/widgets/lv_table.c ****     lv_coord_t border_width = lv_obj_get_style_border_width(obj, LV_PART_MAIN);
 592:Drivers/lvgl/lvgl/src/widgets/lv_table.c ****     lv_coord_t bg_top = lv_obj_get_style_pad_top(obj, LV_PART_MAIN);
 593:Drivers/lvgl/lvgl/src/widgets/lv_table.c ****     lv_coord_t bg_bottom = lv_obj_get_style_pad_bottom(obj, LV_PART_MAIN);
 594:Drivers/lvgl/lvgl/src/widgets/lv_table.c ****     lv_coord_t bg_left = lv_obj_get_style_pad_left(obj, LV_PART_MAIN);
 595:Drivers/lvgl/lvgl/src/widgets/lv_table.c ****     lv_coord_t bg_right = lv_obj_get_style_pad_right(obj, LV_PART_MAIN);
 596:Drivers/lvgl/lvgl/src/widgets/lv_table.c **** 
 597:Drivers/lvgl/lvgl/src/widgets/lv_table.c ****     lv_state_t state_ori = obj->state;
 598:Drivers/lvgl/lvgl/src/widgets/lv_table.c ****     obj->state = LV_STATE_DEFAULT;
 599:Drivers/lvgl/lvgl/src/widgets/lv_table.c ****     obj->skip_trans = 1;
 600:Drivers/lvgl/lvgl/src/widgets/lv_table.c ****     lv_draw_rect_dsc_t rect_dsc_def;
 601:Drivers/lvgl/lvgl/src/widgets/lv_table.c ****     lv_draw_rect_dsc_t rect_dsc_act; /*Passed to the event to modify it*/
 602:Drivers/lvgl/lvgl/src/widgets/lv_table.c ****     lv_draw_rect_dsc_init(&rect_dsc_def);
 603:Drivers/lvgl/lvgl/src/widgets/lv_table.c ****     lv_obj_init_draw_rect_dsc(obj, LV_PART_ITEMS, &rect_dsc_def);
ARM GAS  /tmp/ccFZiBLS.s 			page 12


 604:Drivers/lvgl/lvgl/src/widgets/lv_table.c **** 
 605:Drivers/lvgl/lvgl/src/widgets/lv_table.c ****     lv_draw_label_dsc_t label_dsc_def;
 606:Drivers/lvgl/lvgl/src/widgets/lv_table.c ****     lv_draw_label_dsc_t label_dsc_act;  /*Passed to the event to modify it*/
 607:Drivers/lvgl/lvgl/src/widgets/lv_table.c ****     lv_draw_label_dsc_init(&label_dsc_def);
 608:Drivers/lvgl/lvgl/src/widgets/lv_table.c ****     lv_obj_init_draw_label_dsc(obj, LV_PART_ITEMS, &label_dsc_def);
 609:Drivers/lvgl/lvgl/src/widgets/lv_table.c ****     obj->state = state_ori;
 610:Drivers/lvgl/lvgl/src/widgets/lv_table.c ****     obj->skip_trans = 0;
 611:Drivers/lvgl/lvgl/src/widgets/lv_table.c **** 
 612:Drivers/lvgl/lvgl/src/widgets/lv_table.c ****     uint16_t col;
 613:Drivers/lvgl/lvgl/src/widgets/lv_table.c ****     uint16_t row;
 614:Drivers/lvgl/lvgl/src/widgets/lv_table.c ****     uint16_t cell = 0;
 615:Drivers/lvgl/lvgl/src/widgets/lv_table.c **** 
 616:Drivers/lvgl/lvgl/src/widgets/lv_table.c ****     cell_area.y2 = obj->coords.y1 + bg_top - 1 - lv_obj_get_scroll_y(obj) + border_width;
 617:Drivers/lvgl/lvgl/src/widgets/lv_table.c ****     lv_coord_t scroll_x = lv_obj_get_scroll_x(obj) ;
 618:Drivers/lvgl/lvgl/src/widgets/lv_table.c ****     bool rtl = lv_obj_get_style_base_dir(obj, LV_PART_MAIN) == LV_BASE_DIR_RTL;
 619:Drivers/lvgl/lvgl/src/widgets/lv_table.c **** 
 620:Drivers/lvgl/lvgl/src/widgets/lv_table.c ****     /*Handle custom drawer*/
 621:Drivers/lvgl/lvgl/src/widgets/lv_table.c ****     lv_obj_draw_part_dsc_t part_draw_dsc;
 622:Drivers/lvgl/lvgl/src/widgets/lv_table.c ****     lv_obj_draw_dsc_init(&part_draw_dsc, draw_ctx);
 623:Drivers/lvgl/lvgl/src/widgets/lv_table.c ****     part_draw_dsc.part = LV_PART_ITEMS;
 624:Drivers/lvgl/lvgl/src/widgets/lv_table.c ****     part_draw_dsc.class_p = MY_CLASS;
 625:Drivers/lvgl/lvgl/src/widgets/lv_table.c ****     part_draw_dsc.type = LV_TABLE_DRAW_PART_CELL;
 626:Drivers/lvgl/lvgl/src/widgets/lv_table.c ****     part_draw_dsc.rect_dsc = &rect_dsc_act;
 627:Drivers/lvgl/lvgl/src/widgets/lv_table.c ****     part_draw_dsc.label_dsc = &label_dsc_act;
 628:Drivers/lvgl/lvgl/src/widgets/lv_table.c **** 
 629:Drivers/lvgl/lvgl/src/widgets/lv_table.c ****     for(row = 0; row < table->row_cnt; row++) {
 630:Drivers/lvgl/lvgl/src/widgets/lv_table.c ****         lv_coord_t h_row = table->row_h[row];
 631:Drivers/lvgl/lvgl/src/widgets/lv_table.c **** 
 632:Drivers/lvgl/lvgl/src/widgets/lv_table.c ****         cell_area.y1 = cell_area.y2 + 1;
 633:Drivers/lvgl/lvgl/src/widgets/lv_table.c ****         cell_area.y2 = cell_area.y1 + h_row - 1;
 634:Drivers/lvgl/lvgl/src/widgets/lv_table.c **** 
 635:Drivers/lvgl/lvgl/src/widgets/lv_table.c ****         if(cell_area.y1 > clip_area.y2) break;
 636:Drivers/lvgl/lvgl/src/widgets/lv_table.c **** 
 637:Drivers/lvgl/lvgl/src/widgets/lv_table.c ****         if(rtl) cell_area.x1 = obj->coords.x2 - bg_right - 1 - scroll_x - border_width;
 638:Drivers/lvgl/lvgl/src/widgets/lv_table.c ****         else cell_area.x2 = obj->coords.x1 + bg_left - 1 - scroll_x + border_width;
 639:Drivers/lvgl/lvgl/src/widgets/lv_table.c **** 
 640:Drivers/lvgl/lvgl/src/widgets/lv_table.c ****         for(col = 0; col < table->col_cnt; col++) {
 641:Drivers/lvgl/lvgl/src/widgets/lv_table.c ****             lv_table_cell_ctrl_t ctrl = 0;
 642:Drivers/lvgl/lvgl/src/widgets/lv_table.c ****             if(table->cell_data[cell]) ctrl = table->cell_data[cell][0];
 643:Drivers/lvgl/lvgl/src/widgets/lv_table.c **** 
 644:Drivers/lvgl/lvgl/src/widgets/lv_table.c ****             if(rtl) {
 645:Drivers/lvgl/lvgl/src/widgets/lv_table.c ****                 cell_area.x2 = cell_area.x1 - 1;
 646:Drivers/lvgl/lvgl/src/widgets/lv_table.c ****                 cell_area.x1 = cell_area.x2 - table->col_w[col] + 1;
 647:Drivers/lvgl/lvgl/src/widgets/lv_table.c ****             }
 648:Drivers/lvgl/lvgl/src/widgets/lv_table.c ****             else {
 649:Drivers/lvgl/lvgl/src/widgets/lv_table.c ****                 cell_area.x1 = cell_area.x2 + 1;
 650:Drivers/lvgl/lvgl/src/widgets/lv_table.c ****                 cell_area.x2 = cell_area.x1 + table->col_w[col] - 1;
 651:Drivers/lvgl/lvgl/src/widgets/lv_table.c ****             }
 652:Drivers/lvgl/lvgl/src/widgets/lv_table.c **** 
 653:Drivers/lvgl/lvgl/src/widgets/lv_table.c ****             uint16_t col_merge = 0;
 654:Drivers/lvgl/lvgl/src/widgets/lv_table.c ****             for(col_merge = 0; col_merge + col < table->col_cnt - 1; col_merge++) {
 655:Drivers/lvgl/lvgl/src/widgets/lv_table.c ****                 char * next_cell_data = table->cell_data[cell + col_merge];
 656:Drivers/lvgl/lvgl/src/widgets/lv_table.c **** 
 657:Drivers/lvgl/lvgl/src/widgets/lv_table.c ****                 if(is_cell_empty(next_cell_data)) break;
 658:Drivers/lvgl/lvgl/src/widgets/lv_table.c **** 
 659:Drivers/lvgl/lvgl/src/widgets/lv_table.c ****                 lv_table_cell_ctrl_t merge_ctrl = (lv_table_cell_ctrl_t) next_cell_data[0];
 660:Drivers/lvgl/lvgl/src/widgets/lv_table.c ****                 if(merge_ctrl & LV_TABLE_CELL_CTRL_MERGE_RIGHT) {
ARM GAS  /tmp/ccFZiBLS.s 			page 13


 661:Drivers/lvgl/lvgl/src/widgets/lv_table.c ****                     lv_coord_t offset = table->col_w[col + col_merge + 1];
 662:Drivers/lvgl/lvgl/src/widgets/lv_table.c **** 
 663:Drivers/lvgl/lvgl/src/widgets/lv_table.c ****                     if(rtl) cell_area.x1 -= offset;
 664:Drivers/lvgl/lvgl/src/widgets/lv_table.c ****                     else cell_area.x2 += offset;
 665:Drivers/lvgl/lvgl/src/widgets/lv_table.c ****                 }
 666:Drivers/lvgl/lvgl/src/widgets/lv_table.c ****                 else {
 667:Drivers/lvgl/lvgl/src/widgets/lv_table.c ****                     break;
 668:Drivers/lvgl/lvgl/src/widgets/lv_table.c ****                 }
 669:Drivers/lvgl/lvgl/src/widgets/lv_table.c ****             }
 670:Drivers/lvgl/lvgl/src/widgets/lv_table.c **** 
 671:Drivers/lvgl/lvgl/src/widgets/lv_table.c ****             if(cell_area.y2 < clip_area.y1) {
 672:Drivers/lvgl/lvgl/src/widgets/lv_table.c ****                 cell += col_merge + 1;
 673:Drivers/lvgl/lvgl/src/widgets/lv_table.c ****                 col += col_merge;
 674:Drivers/lvgl/lvgl/src/widgets/lv_table.c ****                 continue;
 675:Drivers/lvgl/lvgl/src/widgets/lv_table.c ****             }
 676:Drivers/lvgl/lvgl/src/widgets/lv_table.c **** 
 677:Drivers/lvgl/lvgl/src/widgets/lv_table.c ****             /*Expand the cell area with a half border to avoid drawing 2 borders next to each other
 678:Drivers/lvgl/lvgl/src/widgets/lv_table.c ****             lv_area_t cell_area_border;
 679:Drivers/lvgl/lvgl/src/widgets/lv_table.c ****             lv_area_copy(&cell_area_border, &cell_area);
 680:Drivers/lvgl/lvgl/src/widgets/lv_table.c ****             if((rect_dsc_def.border_side & LV_BORDER_SIDE_LEFT) && cell_area_border.x1 > obj->coord
 681:Drivers/lvgl/lvgl/src/widgets/lv_table.c ****                 cell_area_border.x1 -= rect_dsc_def.border_width / 2;
 682:Drivers/lvgl/lvgl/src/widgets/lv_table.c ****             }
 683:Drivers/lvgl/lvgl/src/widgets/lv_table.c ****             if((rect_dsc_def.border_side & LV_BORDER_SIDE_TOP) && cell_area_border.y1 > obj->coords
 684:Drivers/lvgl/lvgl/src/widgets/lv_table.c ****                 cell_area_border.y1 -= rect_dsc_def.border_width / 2;
 685:Drivers/lvgl/lvgl/src/widgets/lv_table.c ****             }
 686:Drivers/lvgl/lvgl/src/widgets/lv_table.c ****             if((rect_dsc_def.border_side & LV_BORDER_SIDE_RIGHT) && cell_area_border.x2 < obj->coor
 687:Drivers/lvgl/lvgl/src/widgets/lv_table.c ****                 cell_area_border.x2 += rect_dsc_def.border_width / 2 + (rect_dsc_def.border_width &
 688:Drivers/lvgl/lvgl/src/widgets/lv_table.c ****             }
 689:Drivers/lvgl/lvgl/src/widgets/lv_table.c ****             if((rect_dsc_def.border_side & LV_BORDER_SIDE_BOTTOM) &&
 690:Drivers/lvgl/lvgl/src/widgets/lv_table.c ****                cell_area_border.y2 < obj->coords.y2 - bg_bottom - 1) {
 691:Drivers/lvgl/lvgl/src/widgets/lv_table.c ****                 cell_area_border.y2 += rect_dsc_def.border_width / 2 + (rect_dsc_def.border_width &
 692:Drivers/lvgl/lvgl/src/widgets/lv_table.c ****             }
 693:Drivers/lvgl/lvgl/src/widgets/lv_table.c **** 
 694:Drivers/lvgl/lvgl/src/widgets/lv_table.c ****             lv_state_t cell_state = LV_STATE_DEFAULT;
 695:Drivers/lvgl/lvgl/src/widgets/lv_table.c ****             if(row == table->row_act && col == table->col_act) {
 696:Drivers/lvgl/lvgl/src/widgets/lv_table.c ****                 if(!(obj->state & LV_STATE_SCROLLED) && (obj->state & LV_STATE_PRESSED)) cell_state
 697:Drivers/lvgl/lvgl/src/widgets/lv_table.c ****                 if(obj->state & LV_STATE_FOCUSED) cell_state |= LV_STATE_FOCUSED;
 698:Drivers/lvgl/lvgl/src/widgets/lv_table.c ****                 if(obj->state & LV_STATE_FOCUS_KEY) cell_state |= LV_STATE_FOCUS_KEY;
 699:Drivers/lvgl/lvgl/src/widgets/lv_table.c ****                 if(obj->state & LV_STATE_EDITED) cell_state |= LV_STATE_EDITED;
 700:Drivers/lvgl/lvgl/src/widgets/lv_table.c ****             }
 701:Drivers/lvgl/lvgl/src/widgets/lv_table.c **** 
 702:Drivers/lvgl/lvgl/src/widgets/lv_table.c ****             /*Set up the draw descriptors*/
 703:Drivers/lvgl/lvgl/src/widgets/lv_table.c ****             if(cell_state == LV_STATE_DEFAULT) {
 704:Drivers/lvgl/lvgl/src/widgets/lv_table.c ****                 lv_memcpy(&rect_dsc_act, &rect_dsc_def, sizeof(lv_draw_rect_dsc_t));
 705:Drivers/lvgl/lvgl/src/widgets/lv_table.c ****                 lv_memcpy(&label_dsc_act, &label_dsc_def, sizeof(lv_draw_label_dsc_t));
 706:Drivers/lvgl/lvgl/src/widgets/lv_table.c ****             }
 707:Drivers/lvgl/lvgl/src/widgets/lv_table.c ****             /*In other cases get the styles directly without caching them*/
 708:Drivers/lvgl/lvgl/src/widgets/lv_table.c ****             else {
 709:Drivers/lvgl/lvgl/src/widgets/lv_table.c ****                 obj->state = cell_state;
 710:Drivers/lvgl/lvgl/src/widgets/lv_table.c ****                 obj->skip_trans = 1;
 711:Drivers/lvgl/lvgl/src/widgets/lv_table.c ****                 lv_draw_rect_dsc_init(&rect_dsc_act);
 712:Drivers/lvgl/lvgl/src/widgets/lv_table.c ****                 lv_draw_label_dsc_init(&label_dsc_act);
 713:Drivers/lvgl/lvgl/src/widgets/lv_table.c ****                 lv_obj_init_draw_rect_dsc(obj, LV_PART_ITEMS, &rect_dsc_act);
 714:Drivers/lvgl/lvgl/src/widgets/lv_table.c ****                 lv_obj_init_draw_label_dsc(obj, LV_PART_ITEMS, &label_dsc_act);
 715:Drivers/lvgl/lvgl/src/widgets/lv_table.c ****                 obj->state = state_ori;
 716:Drivers/lvgl/lvgl/src/widgets/lv_table.c ****                 obj->skip_trans = 0;
 717:Drivers/lvgl/lvgl/src/widgets/lv_table.c ****             }
ARM GAS  /tmp/ccFZiBLS.s 			page 14


 718:Drivers/lvgl/lvgl/src/widgets/lv_table.c **** 
 719:Drivers/lvgl/lvgl/src/widgets/lv_table.c ****             part_draw_dsc.draw_area = &cell_area_border;
 720:Drivers/lvgl/lvgl/src/widgets/lv_table.c ****             part_draw_dsc.id = row * table->col_cnt + col;
 721:Drivers/lvgl/lvgl/src/widgets/lv_table.c ****             lv_event_send(obj, LV_EVENT_DRAW_PART_BEGIN, &part_draw_dsc);
 722:Drivers/lvgl/lvgl/src/widgets/lv_table.c **** 
 723:Drivers/lvgl/lvgl/src/widgets/lv_table.c ****             lv_draw_rect(draw_ctx, &rect_dsc_act, &cell_area_border);
 724:Drivers/lvgl/lvgl/src/widgets/lv_table.c **** 
 725:Drivers/lvgl/lvgl/src/widgets/lv_table.c ****             if(table->cell_data[cell]) {
 726:Drivers/lvgl/lvgl/src/widgets/lv_table.c ****                 const lv_coord_t cell_left = lv_obj_get_style_pad_left(obj, LV_PART_ITEMS);
 727:Drivers/lvgl/lvgl/src/widgets/lv_table.c ****                 const lv_coord_t cell_right = lv_obj_get_style_pad_right(obj, LV_PART_ITEMS);
 728:Drivers/lvgl/lvgl/src/widgets/lv_table.c ****                 const lv_coord_t cell_top = lv_obj_get_style_pad_top(obj, LV_PART_ITEMS);
 729:Drivers/lvgl/lvgl/src/widgets/lv_table.c ****                 const lv_coord_t cell_bottom = lv_obj_get_style_pad_bottom(obj, LV_PART_ITEMS);
 730:Drivers/lvgl/lvgl/src/widgets/lv_table.c ****                 lv_text_flag_t txt_flags = LV_TEXT_FLAG_NONE;
 731:Drivers/lvgl/lvgl/src/widgets/lv_table.c ****                 lv_area_t txt_area;
 732:Drivers/lvgl/lvgl/src/widgets/lv_table.c **** 
 733:Drivers/lvgl/lvgl/src/widgets/lv_table.c ****                 txt_area.x1 = cell_area.x1 + cell_left;
 734:Drivers/lvgl/lvgl/src/widgets/lv_table.c ****                 txt_area.x2 = cell_area.x2 - cell_right;
 735:Drivers/lvgl/lvgl/src/widgets/lv_table.c ****                 txt_area.y1 = cell_area.y1 + cell_top;
 736:Drivers/lvgl/lvgl/src/widgets/lv_table.c ****                 txt_area.y2 = cell_area.y2 - cell_bottom;
 737:Drivers/lvgl/lvgl/src/widgets/lv_table.c **** 
 738:Drivers/lvgl/lvgl/src/widgets/lv_table.c ****                 /*Align the content to the middle if not cropped*/
 739:Drivers/lvgl/lvgl/src/widgets/lv_table.c ****                 bool crop = ctrl & LV_TABLE_CELL_CTRL_TEXT_CROP ? true : false;
 740:Drivers/lvgl/lvgl/src/widgets/lv_table.c ****                 if(crop) txt_flags = LV_TEXT_FLAG_EXPAND;
 741:Drivers/lvgl/lvgl/src/widgets/lv_table.c **** 
 742:Drivers/lvgl/lvgl/src/widgets/lv_table.c ****                 lv_txt_get_size(&txt_size, table->cell_data[cell] + 1, label_dsc_def.font,
 743:Drivers/lvgl/lvgl/src/widgets/lv_table.c ****                                 label_dsc_act.letter_space, label_dsc_act.line_space,
 744:Drivers/lvgl/lvgl/src/widgets/lv_table.c ****                                 lv_area_get_width(&txt_area), txt_flags);
 745:Drivers/lvgl/lvgl/src/widgets/lv_table.c **** 
 746:Drivers/lvgl/lvgl/src/widgets/lv_table.c ****                 /*Align the content to the middle if not cropped*/
 747:Drivers/lvgl/lvgl/src/widgets/lv_table.c ****                 if(!crop) {
 748:Drivers/lvgl/lvgl/src/widgets/lv_table.c ****                     txt_area.y1 = cell_area.y1 + h_row / 2 - txt_size.y / 2;
 749:Drivers/lvgl/lvgl/src/widgets/lv_table.c ****                     txt_area.y2 = cell_area.y1 + h_row / 2 + txt_size.y / 2;
 750:Drivers/lvgl/lvgl/src/widgets/lv_table.c ****                 }
 751:Drivers/lvgl/lvgl/src/widgets/lv_table.c **** 
 752:Drivers/lvgl/lvgl/src/widgets/lv_table.c ****                 lv_area_t label_clip_area;
 753:Drivers/lvgl/lvgl/src/widgets/lv_table.c ****                 bool label_mask_ok;
 754:Drivers/lvgl/lvgl/src/widgets/lv_table.c ****                 label_mask_ok = _lv_area_intersect(&label_clip_area, &clip_area, &cell_area);
 755:Drivers/lvgl/lvgl/src/widgets/lv_table.c ****                 if(label_mask_ok) {
 756:Drivers/lvgl/lvgl/src/widgets/lv_table.c ****                     draw_ctx->clip_area = &label_clip_area;
 757:Drivers/lvgl/lvgl/src/widgets/lv_table.c ****                     lv_draw_label(draw_ctx, &label_dsc_act, &txt_area, table->cell_data[cell] + 1, 
 758:Drivers/lvgl/lvgl/src/widgets/lv_table.c ****                     draw_ctx->clip_area = &clip_area;
 759:Drivers/lvgl/lvgl/src/widgets/lv_table.c ****                 }
 760:Drivers/lvgl/lvgl/src/widgets/lv_table.c ****             }
 761:Drivers/lvgl/lvgl/src/widgets/lv_table.c **** 
 762:Drivers/lvgl/lvgl/src/widgets/lv_table.c ****             lv_event_send(obj, LV_EVENT_DRAW_PART_END, &part_draw_dsc);
 763:Drivers/lvgl/lvgl/src/widgets/lv_table.c **** 
 764:Drivers/lvgl/lvgl/src/widgets/lv_table.c ****             cell += col_merge + 1;
 765:Drivers/lvgl/lvgl/src/widgets/lv_table.c ****             col += col_merge;
 766:Drivers/lvgl/lvgl/src/widgets/lv_table.c ****         }
 767:Drivers/lvgl/lvgl/src/widgets/lv_table.c ****     }
 768:Drivers/lvgl/lvgl/src/widgets/lv_table.c **** 
 769:Drivers/lvgl/lvgl/src/widgets/lv_table.c ****     draw_ctx->clip_area = clip_area_ori;
 770:Drivers/lvgl/lvgl/src/widgets/lv_table.c **** }
 771:Drivers/lvgl/lvgl/src/widgets/lv_table.c **** 
 772:Drivers/lvgl/lvgl/src/widgets/lv_table.c **** /* Refreshes size of the table starting from @start_row row */
 773:Drivers/lvgl/lvgl/src/widgets/lv_table.c **** static void refr_size_form_row(lv_obj_t * obj, uint32_t start_row)
 774:Drivers/lvgl/lvgl/src/widgets/lv_table.c **** {
ARM GAS  /tmp/ccFZiBLS.s 			page 15


 775:Drivers/lvgl/lvgl/src/widgets/lv_table.c ****     const lv_coord_t cell_pad_left = lv_obj_get_style_pad_left(obj, LV_PART_ITEMS);
 776:Drivers/lvgl/lvgl/src/widgets/lv_table.c ****     const lv_coord_t cell_pad_right = lv_obj_get_style_pad_right(obj, LV_PART_ITEMS);
 777:Drivers/lvgl/lvgl/src/widgets/lv_table.c ****     const lv_coord_t cell_pad_top = lv_obj_get_style_pad_top(obj, LV_PART_ITEMS);
 778:Drivers/lvgl/lvgl/src/widgets/lv_table.c ****     const lv_coord_t cell_pad_bottom = lv_obj_get_style_pad_bottom(obj, LV_PART_ITEMS);
 779:Drivers/lvgl/lvgl/src/widgets/lv_table.c **** 
 780:Drivers/lvgl/lvgl/src/widgets/lv_table.c ****     lv_coord_t letter_space = lv_obj_get_style_text_letter_space(obj, LV_PART_ITEMS);
 781:Drivers/lvgl/lvgl/src/widgets/lv_table.c ****     lv_coord_t line_space = lv_obj_get_style_text_line_space(obj, LV_PART_ITEMS);
 782:Drivers/lvgl/lvgl/src/widgets/lv_table.c ****     const lv_font_t * font = lv_obj_get_style_text_font(obj, LV_PART_ITEMS);
 783:Drivers/lvgl/lvgl/src/widgets/lv_table.c **** 
 784:Drivers/lvgl/lvgl/src/widgets/lv_table.c ****     const lv_coord_t minh = lv_obj_get_style_min_height(obj, LV_PART_ITEMS);
 785:Drivers/lvgl/lvgl/src/widgets/lv_table.c ****     const lv_coord_t maxh = lv_obj_get_style_max_height(obj, LV_PART_ITEMS);
 786:Drivers/lvgl/lvgl/src/widgets/lv_table.c **** 
 787:Drivers/lvgl/lvgl/src/widgets/lv_table.c ****     lv_table_t * table = (lv_table_t *)obj;
 788:Drivers/lvgl/lvgl/src/widgets/lv_table.c ****     uint32_t i;
 789:Drivers/lvgl/lvgl/src/widgets/lv_table.c ****     for(i = start_row; i < table->row_cnt; i++) {
 790:Drivers/lvgl/lvgl/src/widgets/lv_table.c ****         lv_coord_t calculated_height = get_row_height(obj, i, font, letter_space, line_space,
 791:Drivers/lvgl/lvgl/src/widgets/lv_table.c ****                                                       cell_pad_left, cell_pad_right, cell_pad_top, 
 792:Drivers/lvgl/lvgl/src/widgets/lv_table.c ****         table->row_h[i] = LV_CLAMP(minh, calculated_height, maxh);
 793:Drivers/lvgl/lvgl/src/widgets/lv_table.c ****     }
 794:Drivers/lvgl/lvgl/src/widgets/lv_table.c **** 
 795:Drivers/lvgl/lvgl/src/widgets/lv_table.c ****     lv_obj_refresh_self_size(obj);
 796:Drivers/lvgl/lvgl/src/widgets/lv_table.c ****     lv_obj_invalidate(obj);
 797:Drivers/lvgl/lvgl/src/widgets/lv_table.c **** }
 798:Drivers/lvgl/lvgl/src/widgets/lv_table.c **** 
 799:Drivers/lvgl/lvgl/src/widgets/lv_table.c **** 
 800:Drivers/lvgl/lvgl/src/widgets/lv_table.c **** static void refr_cell_size(lv_obj_t * obj, uint32_t row, uint32_t col)
 801:Drivers/lvgl/lvgl/src/widgets/lv_table.c **** {
 802:Drivers/lvgl/lvgl/src/widgets/lv_table.c ****     const lv_coord_t cell_pad_left = lv_obj_get_style_pad_left(obj, LV_PART_ITEMS);
 803:Drivers/lvgl/lvgl/src/widgets/lv_table.c ****     const lv_coord_t cell_pad_right = lv_obj_get_style_pad_right(obj, LV_PART_ITEMS);
 804:Drivers/lvgl/lvgl/src/widgets/lv_table.c ****     const lv_coord_t cell_pad_top = lv_obj_get_style_pad_top(obj, LV_PART_ITEMS);
 805:Drivers/lvgl/lvgl/src/widgets/lv_table.c ****     const lv_coord_t cell_pad_bottom = lv_obj_get_style_pad_bottom(obj, LV_PART_ITEMS);
 806:Drivers/lvgl/lvgl/src/widgets/lv_table.c **** 
 807:Drivers/lvgl/lvgl/src/widgets/lv_table.c ****     lv_coord_t letter_space = lv_obj_get_style_text_letter_space(obj, LV_PART_ITEMS);
 808:Drivers/lvgl/lvgl/src/widgets/lv_table.c ****     lv_coord_t line_space = lv_obj_get_style_text_line_space(obj, LV_PART_ITEMS);
 809:Drivers/lvgl/lvgl/src/widgets/lv_table.c ****     const lv_font_t * font = lv_obj_get_style_text_font(obj, LV_PART_ITEMS);
 810:Drivers/lvgl/lvgl/src/widgets/lv_table.c **** 
 811:Drivers/lvgl/lvgl/src/widgets/lv_table.c ****     const lv_coord_t minh = lv_obj_get_style_min_height(obj, LV_PART_ITEMS);
 812:Drivers/lvgl/lvgl/src/widgets/lv_table.c ****     const lv_coord_t maxh = lv_obj_get_style_max_height(obj, LV_PART_ITEMS);
 813:Drivers/lvgl/lvgl/src/widgets/lv_table.c **** 
 814:Drivers/lvgl/lvgl/src/widgets/lv_table.c ****     lv_table_t * table = (lv_table_t *)obj;
 815:Drivers/lvgl/lvgl/src/widgets/lv_table.c ****     lv_coord_t calculated_height = get_row_height(obj, row, font, letter_space, line_space,
 816:Drivers/lvgl/lvgl/src/widgets/lv_table.c ****                                                   cell_pad_left, cell_pad_right, cell_pad_top, cell
 817:Drivers/lvgl/lvgl/src/widgets/lv_table.c **** 
 818:Drivers/lvgl/lvgl/src/widgets/lv_table.c ****     lv_coord_t prev_row_size = table->row_h[row];
 819:Drivers/lvgl/lvgl/src/widgets/lv_table.c ****     table->row_h[row] = LV_CLAMP(minh, calculated_height, maxh);
 820:Drivers/lvgl/lvgl/src/widgets/lv_table.c **** 
 821:Drivers/lvgl/lvgl/src/widgets/lv_table.c ****     /*If the row height havn't changed invalidate only this cell*/
 822:Drivers/lvgl/lvgl/src/widgets/lv_table.c ****     if(prev_row_size == table->row_h[row]) {
 823:Drivers/lvgl/lvgl/src/widgets/lv_table.c ****         lv_area_t cell_area;
 824:Drivers/lvgl/lvgl/src/widgets/lv_table.c ****         get_cell_area(obj, row, col, &cell_area);
 825:Drivers/lvgl/lvgl/src/widgets/lv_table.c ****         lv_area_move(&cell_area, obj->coords.x1, obj->coords.y1);
 826:Drivers/lvgl/lvgl/src/widgets/lv_table.c ****         lv_obj_invalidate_area(obj, &cell_area);
 827:Drivers/lvgl/lvgl/src/widgets/lv_table.c ****     }
 828:Drivers/lvgl/lvgl/src/widgets/lv_table.c ****     else {
 829:Drivers/lvgl/lvgl/src/widgets/lv_table.c ****         lv_obj_refresh_self_size(obj);
 830:Drivers/lvgl/lvgl/src/widgets/lv_table.c ****         lv_obj_invalidate(obj);
 831:Drivers/lvgl/lvgl/src/widgets/lv_table.c ****     }
ARM GAS  /tmp/ccFZiBLS.s 			page 16


 832:Drivers/lvgl/lvgl/src/widgets/lv_table.c **** }
 833:Drivers/lvgl/lvgl/src/widgets/lv_table.c **** 
 834:Drivers/lvgl/lvgl/src/widgets/lv_table.c **** static lv_coord_t get_row_height(lv_obj_t * obj, uint16_t row_id, const lv_font_t * font,
 835:Drivers/lvgl/lvgl/src/widgets/lv_table.c ****                                  lv_coord_t letter_space, lv_coord_t line_space,
 836:Drivers/lvgl/lvgl/src/widgets/lv_table.c ****                                  lv_coord_t cell_left, lv_coord_t cell_right, lv_coord_t cell_top, 
 837:Drivers/lvgl/lvgl/src/widgets/lv_table.c **** {
  26              		.loc 1 837 0
  27              		.cfi_startproc
  28              		@ args = 20, pretend = 0, frame = 48
  29              		@ frame_needed = 0, uses_anonymous_args = 0
  30              	.LVL0:
  31 0000 2DE9F04F 		push	{r4, r5, r6, r7, r8, r9, r10, fp, lr}
  32              	.LCFI0:
  33              		.cfi_def_cfa_offset 36
  34              		.cfi_offset 4, -36
  35              		.cfi_offset 5, -32
  36              		.cfi_offset 6, -28
  37              		.cfi_offset 7, -24
  38              		.cfi_offset 8, -20
  39              		.cfi_offset 9, -16
  40              		.cfi_offset 10, -12
  41              		.cfi_offset 11, -8
  42              		.cfi_offset 14, -4
  43 0004 91B0     		sub	sp, sp, #68
  44              	.LCFI1:
  45              		.cfi_def_cfa_offset 104
  46 0006 8046     		mov	r8, r0
  47 0008 0592     		str	r2, [sp, #20]
  48 000a 0A93     		str	r3, [sp, #40]
  49 000c BDF96830 		ldrsh	r3, [sp, #104]
  50              	.LVL1:
  51 0010 0B93     		str	r3, [sp, #44]
  52 0012 BDF96C30 		ldrsh	r3, [sp, #108]
  53 0016 0C93     		str	r3, [sp, #48]
  54 0018 BDF97030 		ldrsh	r3, [sp, #112]
  55 001c 0D93     		str	r3, [sp, #52]
  56 001e BDF97430 		ldrsh	r3, [sp, #116]
  57 0022 0693     		str	r3, [sp, #24]
  58 0024 BDF97800 		ldrsh	r0, [sp, #120]
  59              	.LVL2:
  60 0028 0790     		str	r0, [sp, #28]
  61              	.LVL3:
  62              	.LBB115:
  63              	.LBB116:
  64              		.file 2 "Drivers/lvgl/lvgl/src/widgets/../core/../misc/../font/lv_font.h"
   1:Drivers/lvgl/lvgl/src/widgets/../core/../misc/../font/lv_font.h **** /**
   2:Drivers/lvgl/lvgl/src/widgets/../core/../misc/../font/lv_font.h ****  * @file lv_font.h
   3:Drivers/lvgl/lvgl/src/widgets/../core/../misc/../font/lv_font.h ****  *
   4:Drivers/lvgl/lvgl/src/widgets/../core/../misc/../font/lv_font.h ****  */
   5:Drivers/lvgl/lvgl/src/widgets/../core/../misc/../font/lv_font.h **** 
   6:Drivers/lvgl/lvgl/src/widgets/../core/../misc/../font/lv_font.h **** #ifndef LV_FONT_H
   7:Drivers/lvgl/lvgl/src/widgets/../core/../misc/../font/lv_font.h **** #define LV_FONT_H
   8:Drivers/lvgl/lvgl/src/widgets/../core/../misc/../font/lv_font.h **** 
   9:Drivers/lvgl/lvgl/src/widgets/../core/../misc/../font/lv_font.h **** #ifdef __cplusplus
  10:Drivers/lvgl/lvgl/src/widgets/../core/../misc/../font/lv_font.h **** extern "C" {
  11:Drivers/lvgl/lvgl/src/widgets/../core/../misc/../font/lv_font.h **** #endif
  12:Drivers/lvgl/lvgl/src/widgets/../core/../misc/../font/lv_font.h **** 
ARM GAS  /tmp/ccFZiBLS.s 			page 17


  13:Drivers/lvgl/lvgl/src/widgets/../core/../misc/../font/lv_font.h **** /*********************
  14:Drivers/lvgl/lvgl/src/widgets/../core/../misc/../font/lv_font.h ****  *      INCLUDES
  15:Drivers/lvgl/lvgl/src/widgets/../core/../misc/../font/lv_font.h ****  *********************/
  16:Drivers/lvgl/lvgl/src/widgets/../core/../misc/../font/lv_font.h **** #include "../lv_conf_internal.h"
  17:Drivers/lvgl/lvgl/src/widgets/../core/../misc/../font/lv_font.h **** #include <stdint.h>
  18:Drivers/lvgl/lvgl/src/widgets/../core/../misc/../font/lv_font.h **** #include <stddef.h>
  19:Drivers/lvgl/lvgl/src/widgets/../core/../misc/../font/lv_font.h **** #include <stdbool.h>
  20:Drivers/lvgl/lvgl/src/widgets/../core/../misc/../font/lv_font.h **** 
  21:Drivers/lvgl/lvgl/src/widgets/../core/../misc/../font/lv_font.h **** #include "lv_symbol_def.h"
  22:Drivers/lvgl/lvgl/src/widgets/../core/../misc/../font/lv_font.h **** #include "../misc/lv_area.h"
  23:Drivers/lvgl/lvgl/src/widgets/../core/../misc/../font/lv_font.h **** 
  24:Drivers/lvgl/lvgl/src/widgets/../core/../misc/../font/lv_font.h **** /*********************
  25:Drivers/lvgl/lvgl/src/widgets/../core/../misc/../font/lv_font.h ****  *      DEFINES
  26:Drivers/lvgl/lvgl/src/widgets/../core/../misc/../font/lv_font.h ****  *********************/
  27:Drivers/lvgl/lvgl/src/widgets/../core/../misc/../font/lv_font.h **** 
  28:Drivers/lvgl/lvgl/src/widgets/../core/../misc/../font/lv_font.h **** /* imgfont identifier */
  29:Drivers/lvgl/lvgl/src/widgets/../core/../misc/../font/lv_font.h **** #define LV_IMGFONT_BPP 9
  30:Drivers/lvgl/lvgl/src/widgets/../core/../misc/../font/lv_font.h **** 
  31:Drivers/lvgl/lvgl/src/widgets/../core/../misc/../font/lv_font.h **** /**********************
  32:Drivers/lvgl/lvgl/src/widgets/../core/../misc/../font/lv_font.h ****  *      TYPEDEFS
  33:Drivers/lvgl/lvgl/src/widgets/../core/../misc/../font/lv_font.h ****  **********************/
  34:Drivers/lvgl/lvgl/src/widgets/../core/../misc/../font/lv_font.h **** 
  35:Drivers/lvgl/lvgl/src/widgets/../core/../misc/../font/lv_font.h **** /*------------------
  36:Drivers/lvgl/lvgl/src/widgets/../core/../misc/../font/lv_font.h ****  * General types
  37:Drivers/lvgl/lvgl/src/widgets/../core/../misc/../font/lv_font.h ****  *-----------------*/
  38:Drivers/lvgl/lvgl/src/widgets/../core/../misc/../font/lv_font.h **** 
  39:Drivers/lvgl/lvgl/src/widgets/../core/../misc/../font/lv_font.h **** struct _lv_font_t;
  40:Drivers/lvgl/lvgl/src/widgets/../core/../misc/../font/lv_font.h **** /** Describes the properties of a glyph.*/
  41:Drivers/lvgl/lvgl/src/widgets/../core/../misc/../font/lv_font.h **** typedef struct {
  42:Drivers/lvgl/lvgl/src/widgets/../core/../misc/../font/lv_font.h ****     const struct _lv_font_t *
  43:Drivers/lvgl/lvgl/src/widgets/../core/../misc/../font/lv_font.h ****         resolved_font; /**< Pointer to a font where the glyph was actually found after handling fal
  44:Drivers/lvgl/lvgl/src/widgets/../core/../misc/../font/lv_font.h ****     uint16_t adv_w; /**< The glyph needs this space. Draw the next glyph after this width.*/
  45:Drivers/lvgl/lvgl/src/widgets/../core/../misc/../font/lv_font.h ****     uint16_t box_w; /**< Width of the glyph's bounding box*/
  46:Drivers/lvgl/lvgl/src/widgets/../core/../misc/../font/lv_font.h ****     uint16_t box_h; /**< Height of the glyph's bounding box*/
  47:Drivers/lvgl/lvgl/src/widgets/../core/../misc/../font/lv_font.h ****     int16_t ofs_x;  /**< x offset of the bounding box*/
  48:Drivers/lvgl/lvgl/src/widgets/../core/../misc/../font/lv_font.h ****     int16_t ofs_y;  /**< y offset of the bounding box*/
  49:Drivers/lvgl/lvgl/src/widgets/../core/../misc/../font/lv_font.h ****     uint8_t bpp: 4;  /**< Bit-per-pixel: 1, 2, 4, 8*/
  50:Drivers/lvgl/lvgl/src/widgets/../core/../misc/../font/lv_font.h ****     uint8_t is_placeholder: 1; /** Glyph is missing. But placeholder will still be displayed */
  51:Drivers/lvgl/lvgl/src/widgets/../core/../misc/../font/lv_font.h **** } lv_font_glyph_dsc_t;
  52:Drivers/lvgl/lvgl/src/widgets/../core/../misc/../font/lv_font.h **** 
  53:Drivers/lvgl/lvgl/src/widgets/../core/../misc/../font/lv_font.h **** /** The bitmaps might be upscaled by 3 to achieve subpixel rendering.*/
  54:Drivers/lvgl/lvgl/src/widgets/../core/../misc/../font/lv_font.h **** enum {
  55:Drivers/lvgl/lvgl/src/widgets/../core/../misc/../font/lv_font.h ****     LV_FONT_SUBPX_NONE,
  56:Drivers/lvgl/lvgl/src/widgets/../core/../misc/../font/lv_font.h ****     LV_FONT_SUBPX_HOR,
  57:Drivers/lvgl/lvgl/src/widgets/../core/../misc/../font/lv_font.h ****     LV_FONT_SUBPX_VER,
  58:Drivers/lvgl/lvgl/src/widgets/../core/../misc/../font/lv_font.h ****     LV_FONT_SUBPX_BOTH,
  59:Drivers/lvgl/lvgl/src/widgets/../core/../misc/../font/lv_font.h **** };
  60:Drivers/lvgl/lvgl/src/widgets/../core/../misc/../font/lv_font.h **** 
  61:Drivers/lvgl/lvgl/src/widgets/../core/../misc/../font/lv_font.h **** typedef uint8_t lv_font_subpx_t;
  62:Drivers/lvgl/lvgl/src/widgets/../core/../misc/../font/lv_font.h **** 
  63:Drivers/lvgl/lvgl/src/widgets/../core/../misc/../font/lv_font.h **** /** Describe the properties of a font*/
  64:Drivers/lvgl/lvgl/src/widgets/../core/../misc/../font/lv_font.h **** typedef struct _lv_font_t {
  65:Drivers/lvgl/lvgl/src/widgets/../core/../misc/../font/lv_font.h ****     /** Get a glyph's descriptor from a font*/
  66:Drivers/lvgl/lvgl/src/widgets/../core/../misc/../font/lv_font.h ****     bool (*get_glyph_dsc)(const struct _lv_font_t *, lv_font_glyph_dsc_t *, uint32_t letter, uint32
  67:Drivers/lvgl/lvgl/src/widgets/../core/../misc/../font/lv_font.h **** 
  68:Drivers/lvgl/lvgl/src/widgets/../core/../misc/../font/lv_font.h ****     /** Get a glyph's bitmap from a font*/
  69:Drivers/lvgl/lvgl/src/widgets/../core/../misc/../font/lv_font.h ****     const uint8_t * (*get_glyph_bitmap)(const struct _lv_font_t *, uint32_t);
ARM GAS  /tmp/ccFZiBLS.s 			page 18


  70:Drivers/lvgl/lvgl/src/widgets/../core/../misc/../font/lv_font.h **** 
  71:Drivers/lvgl/lvgl/src/widgets/../core/../misc/../font/lv_font.h ****     /*Pointer to the font in a font pack (must have the same line height)*/
  72:Drivers/lvgl/lvgl/src/widgets/../core/../misc/../font/lv_font.h ****     lv_coord_t line_height;         /**< The real line height where any text fits*/
  73:Drivers/lvgl/lvgl/src/widgets/../core/../misc/../font/lv_font.h ****     lv_coord_t base_line;           /**< Base line measured from the top of the line_height*/
  74:Drivers/lvgl/lvgl/src/widgets/../core/../misc/../font/lv_font.h ****     uint8_t subpx  : 2;             /**< An element of `lv_font_subpx_t`*/
  75:Drivers/lvgl/lvgl/src/widgets/../core/../misc/../font/lv_font.h **** 
  76:Drivers/lvgl/lvgl/src/widgets/../core/../misc/../font/lv_font.h ****     int8_t underline_position;      /**< Distance between the top of the underline and base line (<
  77:Drivers/lvgl/lvgl/src/widgets/../core/../misc/../font/lv_font.h ****     int8_t underline_thickness;     /**< Thickness of the underline*/
  78:Drivers/lvgl/lvgl/src/widgets/../core/../misc/../font/lv_font.h **** 
  79:Drivers/lvgl/lvgl/src/widgets/../core/../misc/../font/lv_font.h ****     const void * dsc;               /**< Store implementation specific or run_time data or caching 
  80:Drivers/lvgl/lvgl/src/widgets/../core/../misc/../font/lv_font.h ****     const struct _lv_font_t * fallback;   /**< Fallback font for missing glyph. Resolved recursivel
  81:Drivers/lvgl/lvgl/src/widgets/../core/../misc/../font/lv_font.h **** #if LV_USE_USER_DATA
  82:Drivers/lvgl/lvgl/src/widgets/../core/../misc/../font/lv_font.h ****     void * user_data;               /**< Custom user data for font.*/
  83:Drivers/lvgl/lvgl/src/widgets/../core/../misc/../font/lv_font.h **** #endif
  84:Drivers/lvgl/lvgl/src/widgets/../core/../misc/../font/lv_font.h **** } lv_font_t;
  85:Drivers/lvgl/lvgl/src/widgets/../core/../misc/../font/lv_font.h **** 
  86:Drivers/lvgl/lvgl/src/widgets/../core/../misc/../font/lv_font.h **** /**********************
  87:Drivers/lvgl/lvgl/src/widgets/../core/../misc/../font/lv_font.h ****  * GLOBAL PROTOTYPES
  88:Drivers/lvgl/lvgl/src/widgets/../core/../misc/../font/lv_font.h ****  **********************/
  89:Drivers/lvgl/lvgl/src/widgets/../core/../misc/../font/lv_font.h **** 
  90:Drivers/lvgl/lvgl/src/widgets/../core/../misc/../font/lv_font.h **** /**
  91:Drivers/lvgl/lvgl/src/widgets/../core/../misc/../font/lv_font.h ****  * Return with the bitmap of a font.
  92:Drivers/lvgl/lvgl/src/widgets/../core/../misc/../font/lv_font.h ****  * @param font_p pointer to a font
  93:Drivers/lvgl/lvgl/src/widgets/../core/../misc/../font/lv_font.h ****  * @param letter a UNICODE character code
  94:Drivers/lvgl/lvgl/src/widgets/../core/../misc/../font/lv_font.h ****  * @return pointer to the bitmap of the letter
  95:Drivers/lvgl/lvgl/src/widgets/../core/../misc/../font/lv_font.h ****  */
  96:Drivers/lvgl/lvgl/src/widgets/../core/../misc/../font/lv_font.h **** const uint8_t * lv_font_get_glyph_bitmap(const lv_font_t * font_p, uint32_t letter);
  97:Drivers/lvgl/lvgl/src/widgets/../core/../misc/../font/lv_font.h **** 
  98:Drivers/lvgl/lvgl/src/widgets/../core/../misc/../font/lv_font.h **** /**
  99:Drivers/lvgl/lvgl/src/widgets/../core/../misc/../font/lv_font.h ****  * Get the descriptor of a glyph
 100:Drivers/lvgl/lvgl/src/widgets/../core/../misc/../font/lv_font.h ****  * @param font_p pointer to font
 101:Drivers/lvgl/lvgl/src/widgets/../core/../misc/../font/lv_font.h ****  * @param dsc_out store the result descriptor here
 102:Drivers/lvgl/lvgl/src/widgets/../core/../misc/../font/lv_font.h ****  * @param letter a UNICODE letter code
 103:Drivers/lvgl/lvgl/src/widgets/../core/../misc/../font/lv_font.h ****  * @param letter_next the next letter after `letter`. Used for kerning
 104:Drivers/lvgl/lvgl/src/widgets/../core/../misc/../font/lv_font.h ****  * @return true: descriptor is successfully loaded into `dsc_out`.
 105:Drivers/lvgl/lvgl/src/widgets/../core/../misc/../font/lv_font.h ****  *         false: the letter was not found, no data is loaded to `dsc_out`
 106:Drivers/lvgl/lvgl/src/widgets/../core/../misc/../font/lv_font.h ****  */
 107:Drivers/lvgl/lvgl/src/widgets/../core/../misc/../font/lv_font.h **** bool lv_font_get_glyph_dsc(const lv_font_t * font_p, lv_font_glyph_dsc_t * dsc_out, uint32_t letter
 108:Drivers/lvgl/lvgl/src/widgets/../core/../misc/../font/lv_font.h ****                            uint32_t letter_next);
 109:Drivers/lvgl/lvgl/src/widgets/../core/../misc/../font/lv_font.h **** 
 110:Drivers/lvgl/lvgl/src/widgets/../core/../misc/../font/lv_font.h **** /**
 111:Drivers/lvgl/lvgl/src/widgets/../core/../misc/../font/lv_font.h ****  * Get the width of a glyph with kerning
 112:Drivers/lvgl/lvgl/src/widgets/../core/../misc/../font/lv_font.h ****  * @param font pointer to a font
 113:Drivers/lvgl/lvgl/src/widgets/../core/../misc/../font/lv_font.h ****  * @param letter a UNICODE letter
 114:Drivers/lvgl/lvgl/src/widgets/../core/../misc/../font/lv_font.h ****  * @param letter_next the next letter after `letter`. Used for kerning
 115:Drivers/lvgl/lvgl/src/widgets/../core/../misc/../font/lv_font.h ****  * @return the width of the glyph
 116:Drivers/lvgl/lvgl/src/widgets/../core/../misc/../font/lv_font.h ****  */
 117:Drivers/lvgl/lvgl/src/widgets/../core/../misc/../font/lv_font.h **** uint16_t lv_font_get_glyph_width(const lv_font_t * font, uint32_t letter, uint32_t letter_next);
 118:Drivers/lvgl/lvgl/src/widgets/../core/../misc/../font/lv_font.h **** 
 119:Drivers/lvgl/lvgl/src/widgets/../core/../misc/../font/lv_font.h **** /**
 120:Drivers/lvgl/lvgl/src/widgets/../core/../misc/../font/lv_font.h ****  * Get the line height of a font. All characters fit into this height
 121:Drivers/lvgl/lvgl/src/widgets/../core/../misc/../font/lv_font.h ****  * @param font_p pointer to a font
 122:Drivers/lvgl/lvgl/src/widgets/../core/../misc/../font/lv_font.h ****  * @return the height of a font
 123:Drivers/lvgl/lvgl/src/widgets/../core/../misc/../font/lv_font.h ****  */
 124:Drivers/lvgl/lvgl/src/widgets/../core/../misc/../font/lv_font.h **** static inline lv_coord_t lv_font_get_line_height(const lv_font_t * font_p)
 125:Drivers/lvgl/lvgl/src/widgets/../core/../misc/../font/lv_font.h **** {
 126:Drivers/lvgl/lvgl/src/widgets/../core/../misc/../font/lv_font.h ****     return font_p->line_height;
ARM GAS  /tmp/ccFZiBLS.s 			page 19


  65              		.loc 2 126 0
  66 002a B2F90870 		ldrsh	r7, [r2, #8]
  67              	.LVL4:
  68              	.LBE116:
  69              	.LBE115:
 838:Drivers/lvgl/lvgl/src/widgets/lv_table.c ****     lv_table_t * table = (lv_table_t *)obj;
 839:Drivers/lvgl/lvgl/src/widgets/lv_table.c **** 
 840:Drivers/lvgl/lvgl/src/widgets/lv_table.c ****     lv_coord_t h_max = lv_font_get_line_height(font) + cell_top + cell_bottom;
  70              		.loc 1 840 0
  71 002e 9BB2     		uxth	r3, r3
  72 0030 0893     		str	r3, [sp, #32]
  73 0032 13FA87F7 		uxtah	r7, r3, r7
  74 0036 83B2     		uxth	r3, r0
  75 0038 0993     		str	r3, [sp, #36]
  76 003a 13FA87F7 		uxtah	r7, r3, r7
  77 003e 3FB2     		sxth	r7, r7
  78              	.LVL5:
 841:Drivers/lvgl/lvgl/src/widgets/lv_table.c ****     /* Calculate the cell_data index where to start */
 842:Drivers/lvgl/lvgl/src/widgets/lv_table.c ****     uint16_t row_start = row_id * table->col_cnt;
  79              		.loc 1 842 0
  80 0040 B8F82490 		ldrh	r9, [r8, #36]
  81 0044 19FB01F9 		smulbb	r9, r9, r1
  82 0048 1FFA89F9 		uxth	r9, r9
  83              	.LVL6:
 843:Drivers/lvgl/lvgl/src/widgets/lv_table.c **** 
 844:Drivers/lvgl/lvgl/src/widgets/lv_table.c ****     /* Traverse the cells in the row_id row */
 845:Drivers/lvgl/lvgl/src/widgets/lv_table.c ****     uint16_t cell;
 846:Drivers/lvgl/lvgl/src/widgets/lv_table.c ****     uint16_t col;
 847:Drivers/lvgl/lvgl/src/widgets/lv_table.c ****     for(cell = row_start, col = 0; cell < row_start + table->col_cnt; cell++, col++) {
  84              		.loc 1 847 0
  85 004c 4E46     		mov	r6, r9
  86 004e 0025     		movs	r5, #0
  87 0050 18E0     		b	.L2
  88              	.LVL7:
  89              	.L5:
  90              	.LBB117:
 848:Drivers/lvgl/lvgl/src/widgets/lv_table.c ****         char * cell_data = table->cell_data[cell];
 849:Drivers/lvgl/lvgl/src/widgets/lv_table.c **** 
 850:Drivers/lvgl/lvgl/src/widgets/lv_table.c ****         if(is_cell_empty(cell_data)) {
 851:Drivers/lvgl/lvgl/src/widgets/lv_table.c ****             continue;
 852:Drivers/lvgl/lvgl/src/widgets/lv_table.c ****         }
 853:Drivers/lvgl/lvgl/src/widgets/lv_table.c **** 
 854:Drivers/lvgl/lvgl/src/widgets/lv_table.c ****         lv_coord_t txt_w = table->col_w[col];
 855:Drivers/lvgl/lvgl/src/widgets/lv_table.c **** 
 856:Drivers/lvgl/lvgl/src/widgets/lv_table.c ****         /* Traverse the current row from the first until the penultimate column.
 857:Drivers/lvgl/lvgl/src/widgets/lv_table.c ****          * Increment the text width if the cell has the LV_TABLE_CELL_CTRL_MERGE_RIGHT control,
 858:Drivers/lvgl/lvgl/src/widgets/lv_table.c ****          * exit the traversal when the current cell control is not LV_TABLE_CELL_CTRL_MERGE_RIGHT *
 859:Drivers/lvgl/lvgl/src/widgets/lv_table.c ****         uint16_t col_merge = 0;
 860:Drivers/lvgl/lvgl/src/widgets/lv_table.c ****         for(col_merge = 0; col_merge + col < table->col_cnt - 1; col_merge++) {
 861:Drivers/lvgl/lvgl/src/widgets/lv_table.c ****             char * next_cell_data = table->cell_data[cell + col_merge];
 862:Drivers/lvgl/lvgl/src/widgets/lv_table.c **** 
 863:Drivers/lvgl/lvgl/src/widgets/lv_table.c ****             if(is_cell_empty(next_cell_data)) break;
 864:Drivers/lvgl/lvgl/src/widgets/lv_table.c **** 
 865:Drivers/lvgl/lvgl/src/widgets/lv_table.c ****             lv_table_cell_ctrl_t ctrl = (lv_table_cell_ctrl_t) next_cell_data[0];
 866:Drivers/lvgl/lvgl/src/widgets/lv_table.c ****             if(ctrl & LV_TABLE_CELL_CTRL_MERGE_RIGHT) {
 867:Drivers/lvgl/lvgl/src/widgets/lv_table.c ****                 txt_w += table->col_w[col + col_merge + 1];
 868:Drivers/lvgl/lvgl/src/widgets/lv_table.c ****             }
ARM GAS  /tmp/ccFZiBLS.s 			page 20


 869:Drivers/lvgl/lvgl/src/widgets/lv_table.c ****             else {
 870:Drivers/lvgl/lvgl/src/widgets/lv_table.c ****                 break;
 871:Drivers/lvgl/lvgl/src/widgets/lv_table.c ****             }
 872:Drivers/lvgl/lvgl/src/widgets/lv_table.c ****         }
 873:Drivers/lvgl/lvgl/src/widgets/lv_table.c **** 
 874:Drivers/lvgl/lvgl/src/widgets/lv_table.c ****         lv_table_cell_ctrl_t ctrl = (lv_table_cell_ctrl_t) cell_data[0];
  91              		.loc 1 874 0
  92 0052 9EF80020 		ldrb	r2, [lr]	@ zero_extendqisi2
  93              	.LVL8:
 875:Drivers/lvgl/lvgl/src/widgets/lv_table.c **** 
 876:Drivers/lvgl/lvgl/src/widgets/lv_table.c ****         /*When cropping the text we can assume the row height is equal to the line height*/
 877:Drivers/lvgl/lvgl/src/widgets/lv_table.c ****         if(ctrl & LV_TABLE_CELL_CTRL_TEXT_CROP) {
  94              		.loc 1 877 0
  95 0056 12F0020F 		tst	r2, #2
  96 005a 3DD0     		beq	.L7
  97              	.LVL9:
  98              	.LBB118:
  99              	.LBB119:
 100              		.loc 2 126 0
 101 005c 059B     		ldr	r3, [sp, #20]
 102              	.LVL10:
 103 005e B3F90830 		ldrsh	r3, [r3, #8]
 104              	.LVL11:
 105              	.LBE119:
 106              	.LBE118:
 878:Drivers/lvgl/lvgl/src/widgets/lv_table.c ****             h_max = LV_MAX(lv_font_get_line_height(font) + cell_top + cell_bottom,
 107              		.loc 1 878 0
 108 0062 069A     		ldr	r2, [sp, #24]
 109              	.LVL12:
 110 0064 1A44     		add	r2, r2, r3
 111 0066 0799     		ldr	r1, [sp, #28]
 112 0068 0A44     		add	r2, r2, r1
 113 006a BA42     		cmp	r2, r7
 114 006c 06DD     		ble	.L3
 115 006e 089A     		ldr	r2, [sp, #32]
 116 0070 12FA83F7 		uxtah	r7, r2, r3
 117              	.LVL13:
 118 0074 099B     		ldr	r3, [sp, #36]
 119 0076 13FA87F7 		uxtah	r7, r3, r7
 120 007a 3FB2     		sxth	r7, r7
 121              	.LVL14:
 122              	.L3:
 123              	.LBE117:
 847:Drivers/lvgl/lvgl/src/widgets/lv_table.c ****         char * cell_data = table->cell_data[cell];
 124              		.loc 1 847 0 discriminator 2
 125 007c 0136     		adds	r6, r6, #1
 126              	.LVL15:
 127 007e B6B2     		uxth	r6, r6
 128              	.LVL16:
 129 0080 0135     		adds	r5, r5, #1
 130              	.LVL17:
 131 0082 ADB2     		uxth	r5, r5
 132              	.LVL18:
 133              	.L2:
 847:Drivers/lvgl/lvgl/src/widgets/lv_table.c ****         char * cell_data = table->cell_data[cell];
 134              		.loc 1 847 0 is_stmt 0 discriminator 1
 135 0084 B246     		mov	r10, r6
ARM GAS  /tmp/ccFZiBLS.s 			page 21


 136 0086 B8F824C0 		ldrh	ip, [r8, #36]
 137 008a 09EB0C03 		add	r3, r9, ip
 138 008e 9E42     		cmp	r6, r3
 139 0090 43DA     		bge	.L10
 140              	.LBB122:
 848:Drivers/lvgl/lvgl/src/widgets/lv_table.c **** 
 141              		.loc 1 848 0 is_stmt 1
 142 0092 D8F82810 		ldr	r1, [r8, #40]
 143 0096 51F826E0 		ldr	lr, [r1, r6, lsl #2]
 144              	.LVL19:
 850:Drivers/lvgl/lvgl/src/widgets/lv_table.c ****             continue;
 145              		.loc 1 850 0
 146 009a BEF1000F 		cmp	lr, #0
 147 009e EDD0     		beq	.L3
 854:Drivers/lvgl/lvgl/src/widgets/lv_table.c **** 
 148              		.loc 1 854 0
 149 00a0 D8F830B0 		ldr	fp, [r8, #48]
 150 00a4 3BF91530 		ldrsh	r3, [fp, r5, lsl #1]
 151              	.LVL20:
 860:Drivers/lvgl/lvgl/src/widgets/lv_table.c ****             char * next_cell_data = table->cell_data[cell + col_merge];
 152              		.loc 1 860 0
 153 00a8 0024     		movs	r4, #0
 154              	.LVL21:
 155              	.L4:
 860:Drivers/lvgl/lvgl/src/widgets/lv_table.c ****             char * next_cell_data = table->cell_data[cell + col_merge];
 156              		.loc 1 860 0 is_stmt 0 discriminator 1
 157 00aa 2A19     		adds	r2, r5, r4
 158 00ac 0CF1FF30 		add	r0, ip, #-1
 159 00b0 8242     		cmp	r2, r0
 160 00b2 CEDA     		bge	.L5
 161              	.LBB120:
 861:Drivers/lvgl/lvgl/src/widgets/lv_table.c **** 
 162              		.loc 1 861 0 is_stmt 1
 163 00b4 04EB0A00 		add	r0, r4, r10
 164 00b8 51F82000 		ldr	r0, [r1, r0, lsl #2]
 165              	.LVL22:
 863:Drivers/lvgl/lvgl/src/widgets/lv_table.c **** 
 166              		.loc 1 863 0
 167 00bc 0028     		cmp	r0, #0
 168 00be C8D0     		beq	.L5
 865:Drivers/lvgl/lvgl/src/widgets/lv_table.c ****             if(ctrl & LV_TABLE_CELL_CTRL_MERGE_RIGHT) {
 169              		.loc 1 865 0
 170 00c0 0078     		ldrb	r0, [r0]	@ zero_extendqisi2
 171              	.LVL23:
 866:Drivers/lvgl/lvgl/src/widgets/lv_table.c ****                 txt_w += table->col_w[col + col_merge + 1];
 172              		.loc 1 866 0
 173 00c2 10F0010F 		tst	r0, #1
 174 00c6 C4D0     		beq	.L5
 867:Drivers/lvgl/lvgl/src/widgets/lv_table.c ****             }
 175              		.loc 1 867 0 discriminator 2
 176 00c8 0132     		adds	r2, r2, #1
 177 00ca 3BF81220 		ldrh	r2, [fp, r2, lsl #1]
 178 00ce 1344     		add	r3, r3, r2
 179              	.LVL24:
 180 00d0 1BB2     		sxth	r3, r3
 181              	.LVL25:
 182              	.LBE120:
ARM GAS  /tmp/ccFZiBLS.s 			page 22


 860:Drivers/lvgl/lvgl/src/widgets/lv_table.c ****             char * next_cell_data = table->cell_data[cell + col_merge];
 183              		.loc 1 860 0 discriminator 2
 184 00d2 0134     		adds	r4, r4, #1
 185              	.LVL26:
 186 00d4 A4B2     		uxth	r4, r4
 187              	.LVL27:
 188 00d6 E8E7     		b	.L4
 189              	.LVL28:
 190              	.L7:
 191              	.LBB121:
 879:Drivers/lvgl/lvgl/src/widgets/lv_table.c ****                            h_max);
 880:Drivers/lvgl/lvgl/src/widgets/lv_table.c ****         }
 881:Drivers/lvgl/lvgl/src/widgets/lv_table.c ****         /*Else we have to calculate the height of the cell text*/
 882:Drivers/lvgl/lvgl/src/widgets/lv_table.c ****         else {
 883:Drivers/lvgl/lvgl/src/widgets/lv_table.c ****             lv_point_t txt_size;
 884:Drivers/lvgl/lvgl/src/widgets/lv_table.c ****             txt_w -= cell_left + cell_right;
 192              		.loc 1 884 0
 193 00d8 0C9A     		ldr	r2, [sp, #48]
 194              	.LVL29:
 195 00da 0D99     		ldr	r1, [sp, #52]
 196 00dc 0A44     		add	r2, r2, r1
 197 00de 92B2     		uxth	r2, r2
 198 00e0 9B1A     		subs	r3, r3, r2
 199              	.LVL30:
 200 00e2 1BB2     		sxth	r3, r3
 201              	.LVL31:
 885:Drivers/lvgl/lvgl/src/widgets/lv_table.c **** 
 886:Drivers/lvgl/lvgl/src/widgets/lv_table.c ****             lv_txt_get_size(&txt_size, table->cell_data[cell] + 1, font,
 202              		.loc 1 886 0
 203 00e4 0022     		movs	r2, #0
 204 00e6 0292     		str	r2, [sp, #8]
 205              	.LVL32:
 206 00e8 0193     		str	r3, [sp, #4]
 207 00ea 0B9B     		ldr	r3, [sp, #44]
 208              	.LVL33:
 209 00ec 0093     		str	r3, [sp]
 210 00ee 0A9B     		ldr	r3, [sp, #40]
 211 00f0 059A     		ldr	r2, [sp, #20]
 212 00f2 0EF10101 		add	r1, lr, #1
 213 00f6 0FA8     		add	r0, sp, #60
 214 00f8 FFF7FEFF 		bl	lv_txt_get_size
 215              	.LVL34:
 887:Drivers/lvgl/lvgl/src/widgets/lv_table.c ****                             letter_space, line_space, txt_w, LV_TEXT_FLAG_NONE);
 888:Drivers/lvgl/lvgl/src/widgets/lv_table.c **** 
 889:Drivers/lvgl/lvgl/src/widgets/lv_table.c ****             h_max = LV_MAX(txt_size.y + cell_top + cell_bottom, h_max);
 216              		.loc 1 889 0
 217 00fc BDF93E30 		ldrsh	r3, [sp, #62]
 218 0100 069A     		ldr	r2, [sp, #24]
 219 0102 1344     		add	r3, r3, r2
 220 0104 079A     		ldr	r2, [sp, #28]
 221 0106 1344     		add	r3, r3, r2
 222 0108 9F42     		cmp	r7, r3
 223 010a B8BF     		it	lt
 224 010c 1F46     		movlt	r7, r3
 225              	.LVL35:
 226 010e 3FB2     		sxth	r7, r7
 227              	.LVL36:
ARM GAS  /tmp/ccFZiBLS.s 			page 23


 890:Drivers/lvgl/lvgl/src/widgets/lv_table.c ****             /*Skip until one element after the last merged column*/
 891:Drivers/lvgl/lvgl/src/widgets/lv_table.c ****             cell += col_merge;
 228              		.loc 1 891 0
 229 0110 2644     		add	r6, r6, r4
 230              	.LVL37:
 231 0112 B6B2     		uxth	r6, r6
 232              	.LVL38:
 892:Drivers/lvgl/lvgl/src/widgets/lv_table.c ****             col += col_merge;
 233              		.loc 1 892 0
 234 0114 2544     		add	r5, r5, r4
 235              	.LVL39:
 236 0116 ADB2     		uxth	r5, r5
 237              	.LVL40:
 238 0118 B0E7     		b	.L3
 239              	.LVL41:
 240              	.L10:
 241              	.LBE121:
 242              	.LBE122:
 893:Drivers/lvgl/lvgl/src/widgets/lv_table.c ****         }
 894:Drivers/lvgl/lvgl/src/widgets/lv_table.c ****     }
 895:Drivers/lvgl/lvgl/src/widgets/lv_table.c **** 
 896:Drivers/lvgl/lvgl/src/widgets/lv_table.c ****     return h_max;
 897:Drivers/lvgl/lvgl/src/widgets/lv_table.c **** }
 243              		.loc 1 897 0
 244 011a 3846     		mov	r0, r7
 245 011c 11B0     		add	sp, sp, #68
 246              	.LCFI2:
 247              		.cfi_def_cfa_offset 36
 248              		@ sp needed
 249 011e BDE8F08F 		pop	{r4, r5, r6, r7, r8, r9, r10, fp, pc}
 250              		.cfi_endproc
 251              	.LFE180:
 253              		.section	.text.refr_size_form_row,"ax",%progbits
 254              		.align	1
 255              		.syntax unified
 256              		.thumb
 257              		.thumb_func
 258              		.fpu fpv5-d16
 260              	refr_size_form_row:
 261              	.LFB178:
 774:Drivers/lvgl/lvgl/src/widgets/lv_table.c ****     const lv_coord_t cell_pad_left = lv_obj_get_style_pad_left(obj, LV_PART_ITEMS);
 262              		.loc 1 774 0
 263              		.cfi_startproc
 264              		@ args = 0, pretend = 0, frame = 16
 265              		@ frame_needed = 0, uses_anonymous_args = 0
 266              	.LVL42:
 267 0000 2DE9F04F 		push	{r4, r5, r6, r7, r8, r9, r10, fp, lr}
 268              	.LCFI3:
 269              		.cfi_def_cfa_offset 36
 270              		.cfi_offset 4, -36
 271              		.cfi_offset 5, -32
 272              		.cfi_offset 6, -28
 273              		.cfi_offset 7, -24
 274              		.cfi_offset 8, -20
 275              		.cfi_offset 9, -16
 276              		.cfi_offset 10, -12
 277              		.cfi_offset 11, -8
ARM GAS  /tmp/ccFZiBLS.s 			page 24


 278              		.cfi_offset 14, -4
 279 0004 8BB0     		sub	sp, sp, #44
 280              	.LCFI4:
 281              		.cfi_def_cfa_offset 80
 282 0006 0546     		mov	r5, r0
 283 0008 0C46     		mov	r4, r1
 284              	.LVL43:
 285              	.LBB123:
 286              	.LBB124:
 287              		.file 3 "Drivers/lvgl/lvgl/src/widgets/../core/lv_obj_style_gen.h"
   1:Drivers/lvgl/lvgl/src/widgets/../core/lv_obj_style_gen.h **** static inline lv_coord_t lv_obj_get_style_width(const struct _lv_obj_t * obj, uint32_t part)
   2:Drivers/lvgl/lvgl/src/widgets/../core/lv_obj_style_gen.h **** {
   3:Drivers/lvgl/lvgl/src/widgets/../core/lv_obj_style_gen.h ****     lv_style_value_t v = lv_obj_get_style_prop(obj, part, LV_STYLE_WIDTH);
   4:Drivers/lvgl/lvgl/src/widgets/../core/lv_obj_style_gen.h ****     return (lv_coord_t)v.num;
   5:Drivers/lvgl/lvgl/src/widgets/../core/lv_obj_style_gen.h **** }
   6:Drivers/lvgl/lvgl/src/widgets/../core/lv_obj_style_gen.h **** 
   7:Drivers/lvgl/lvgl/src/widgets/../core/lv_obj_style_gen.h **** static inline lv_coord_t lv_obj_get_style_min_width(const struct _lv_obj_t * obj, uint32_t part)
   8:Drivers/lvgl/lvgl/src/widgets/../core/lv_obj_style_gen.h **** {
   9:Drivers/lvgl/lvgl/src/widgets/../core/lv_obj_style_gen.h ****     lv_style_value_t v = lv_obj_get_style_prop(obj, part, LV_STYLE_MIN_WIDTH);
  10:Drivers/lvgl/lvgl/src/widgets/../core/lv_obj_style_gen.h ****     return (lv_coord_t)v.num;
  11:Drivers/lvgl/lvgl/src/widgets/../core/lv_obj_style_gen.h **** }
  12:Drivers/lvgl/lvgl/src/widgets/../core/lv_obj_style_gen.h **** 
  13:Drivers/lvgl/lvgl/src/widgets/../core/lv_obj_style_gen.h **** static inline lv_coord_t lv_obj_get_style_max_width(const struct _lv_obj_t * obj, uint32_t part)
  14:Drivers/lvgl/lvgl/src/widgets/../core/lv_obj_style_gen.h **** {
  15:Drivers/lvgl/lvgl/src/widgets/../core/lv_obj_style_gen.h ****     lv_style_value_t v = lv_obj_get_style_prop(obj, part, LV_STYLE_MAX_WIDTH);
  16:Drivers/lvgl/lvgl/src/widgets/../core/lv_obj_style_gen.h ****     return (lv_coord_t)v.num;
  17:Drivers/lvgl/lvgl/src/widgets/../core/lv_obj_style_gen.h **** }
  18:Drivers/lvgl/lvgl/src/widgets/../core/lv_obj_style_gen.h **** 
  19:Drivers/lvgl/lvgl/src/widgets/../core/lv_obj_style_gen.h **** static inline lv_coord_t lv_obj_get_style_height(const struct _lv_obj_t * obj, uint32_t part)
  20:Drivers/lvgl/lvgl/src/widgets/../core/lv_obj_style_gen.h **** {
  21:Drivers/lvgl/lvgl/src/widgets/../core/lv_obj_style_gen.h ****     lv_style_value_t v = lv_obj_get_style_prop(obj, part, LV_STYLE_HEIGHT);
  22:Drivers/lvgl/lvgl/src/widgets/../core/lv_obj_style_gen.h ****     return (lv_coord_t)v.num;
  23:Drivers/lvgl/lvgl/src/widgets/../core/lv_obj_style_gen.h **** }
  24:Drivers/lvgl/lvgl/src/widgets/../core/lv_obj_style_gen.h **** 
  25:Drivers/lvgl/lvgl/src/widgets/../core/lv_obj_style_gen.h **** static inline lv_coord_t lv_obj_get_style_min_height(const struct _lv_obj_t * obj, uint32_t part)
  26:Drivers/lvgl/lvgl/src/widgets/../core/lv_obj_style_gen.h **** {
  27:Drivers/lvgl/lvgl/src/widgets/../core/lv_obj_style_gen.h ****     lv_style_value_t v = lv_obj_get_style_prop(obj, part, LV_STYLE_MIN_HEIGHT);
  28:Drivers/lvgl/lvgl/src/widgets/../core/lv_obj_style_gen.h ****     return (lv_coord_t)v.num;
  29:Drivers/lvgl/lvgl/src/widgets/../core/lv_obj_style_gen.h **** }
  30:Drivers/lvgl/lvgl/src/widgets/../core/lv_obj_style_gen.h **** 
  31:Drivers/lvgl/lvgl/src/widgets/../core/lv_obj_style_gen.h **** static inline lv_coord_t lv_obj_get_style_max_height(const struct _lv_obj_t * obj, uint32_t part)
  32:Drivers/lvgl/lvgl/src/widgets/../core/lv_obj_style_gen.h **** {
  33:Drivers/lvgl/lvgl/src/widgets/../core/lv_obj_style_gen.h ****     lv_style_value_t v = lv_obj_get_style_prop(obj, part, LV_STYLE_MAX_HEIGHT);
  34:Drivers/lvgl/lvgl/src/widgets/../core/lv_obj_style_gen.h ****     return (lv_coord_t)v.num;
  35:Drivers/lvgl/lvgl/src/widgets/../core/lv_obj_style_gen.h **** }
  36:Drivers/lvgl/lvgl/src/widgets/../core/lv_obj_style_gen.h **** 
  37:Drivers/lvgl/lvgl/src/widgets/../core/lv_obj_style_gen.h **** static inline lv_coord_t lv_obj_get_style_x(const struct _lv_obj_t * obj, uint32_t part)
  38:Drivers/lvgl/lvgl/src/widgets/../core/lv_obj_style_gen.h **** {
  39:Drivers/lvgl/lvgl/src/widgets/../core/lv_obj_style_gen.h ****     lv_style_value_t v = lv_obj_get_style_prop(obj, part, LV_STYLE_X);
  40:Drivers/lvgl/lvgl/src/widgets/../core/lv_obj_style_gen.h ****     return (lv_coord_t)v.num;
  41:Drivers/lvgl/lvgl/src/widgets/../core/lv_obj_style_gen.h **** }
  42:Drivers/lvgl/lvgl/src/widgets/../core/lv_obj_style_gen.h **** 
  43:Drivers/lvgl/lvgl/src/widgets/../core/lv_obj_style_gen.h **** static inline lv_coord_t lv_obj_get_style_y(const struct _lv_obj_t * obj, uint32_t part)
  44:Drivers/lvgl/lvgl/src/widgets/../core/lv_obj_style_gen.h **** {
  45:Drivers/lvgl/lvgl/src/widgets/../core/lv_obj_style_gen.h ****     lv_style_value_t v = lv_obj_get_style_prop(obj, part, LV_STYLE_Y);
  46:Drivers/lvgl/lvgl/src/widgets/../core/lv_obj_style_gen.h ****     return (lv_coord_t)v.num;
  47:Drivers/lvgl/lvgl/src/widgets/../core/lv_obj_style_gen.h **** }
ARM GAS  /tmp/ccFZiBLS.s 			page 25


  48:Drivers/lvgl/lvgl/src/widgets/../core/lv_obj_style_gen.h **** 
  49:Drivers/lvgl/lvgl/src/widgets/../core/lv_obj_style_gen.h **** static inline lv_align_t lv_obj_get_style_align(const struct _lv_obj_t * obj, uint32_t part)
  50:Drivers/lvgl/lvgl/src/widgets/../core/lv_obj_style_gen.h **** {
  51:Drivers/lvgl/lvgl/src/widgets/../core/lv_obj_style_gen.h ****     lv_style_value_t v = lv_obj_get_style_prop(obj, part, LV_STYLE_ALIGN);
  52:Drivers/lvgl/lvgl/src/widgets/../core/lv_obj_style_gen.h ****     return (lv_align_t)v.num;
  53:Drivers/lvgl/lvgl/src/widgets/../core/lv_obj_style_gen.h **** }
  54:Drivers/lvgl/lvgl/src/widgets/../core/lv_obj_style_gen.h **** 
  55:Drivers/lvgl/lvgl/src/widgets/../core/lv_obj_style_gen.h **** static inline lv_coord_t lv_obj_get_style_transform_width(const struct _lv_obj_t * obj, uint32_t pa
  56:Drivers/lvgl/lvgl/src/widgets/../core/lv_obj_style_gen.h **** {
  57:Drivers/lvgl/lvgl/src/widgets/../core/lv_obj_style_gen.h ****     lv_style_value_t v = lv_obj_get_style_prop(obj, part, LV_STYLE_TRANSFORM_WIDTH);
  58:Drivers/lvgl/lvgl/src/widgets/../core/lv_obj_style_gen.h ****     return (lv_coord_t)v.num;
  59:Drivers/lvgl/lvgl/src/widgets/../core/lv_obj_style_gen.h **** }
  60:Drivers/lvgl/lvgl/src/widgets/../core/lv_obj_style_gen.h **** 
  61:Drivers/lvgl/lvgl/src/widgets/../core/lv_obj_style_gen.h **** static inline lv_coord_t lv_obj_get_style_transform_height(const struct _lv_obj_t * obj, uint32_t p
  62:Drivers/lvgl/lvgl/src/widgets/../core/lv_obj_style_gen.h **** {
  63:Drivers/lvgl/lvgl/src/widgets/../core/lv_obj_style_gen.h ****     lv_style_value_t v = lv_obj_get_style_prop(obj, part, LV_STYLE_TRANSFORM_HEIGHT);
  64:Drivers/lvgl/lvgl/src/widgets/../core/lv_obj_style_gen.h ****     return (lv_coord_t)v.num;
  65:Drivers/lvgl/lvgl/src/widgets/../core/lv_obj_style_gen.h **** }
  66:Drivers/lvgl/lvgl/src/widgets/../core/lv_obj_style_gen.h **** 
  67:Drivers/lvgl/lvgl/src/widgets/../core/lv_obj_style_gen.h **** static inline lv_coord_t lv_obj_get_style_translate_x(const struct _lv_obj_t * obj, uint32_t part)
  68:Drivers/lvgl/lvgl/src/widgets/../core/lv_obj_style_gen.h **** {
  69:Drivers/lvgl/lvgl/src/widgets/../core/lv_obj_style_gen.h ****     lv_style_value_t v = lv_obj_get_style_prop(obj, part, LV_STYLE_TRANSLATE_X);
  70:Drivers/lvgl/lvgl/src/widgets/../core/lv_obj_style_gen.h ****     return (lv_coord_t)v.num;
  71:Drivers/lvgl/lvgl/src/widgets/../core/lv_obj_style_gen.h **** }
  72:Drivers/lvgl/lvgl/src/widgets/../core/lv_obj_style_gen.h **** 
  73:Drivers/lvgl/lvgl/src/widgets/../core/lv_obj_style_gen.h **** static inline lv_coord_t lv_obj_get_style_translate_y(const struct _lv_obj_t * obj, uint32_t part)
  74:Drivers/lvgl/lvgl/src/widgets/../core/lv_obj_style_gen.h **** {
  75:Drivers/lvgl/lvgl/src/widgets/../core/lv_obj_style_gen.h ****     lv_style_value_t v = lv_obj_get_style_prop(obj, part, LV_STYLE_TRANSLATE_Y);
  76:Drivers/lvgl/lvgl/src/widgets/../core/lv_obj_style_gen.h ****     return (lv_coord_t)v.num;
  77:Drivers/lvgl/lvgl/src/widgets/../core/lv_obj_style_gen.h **** }
  78:Drivers/lvgl/lvgl/src/widgets/../core/lv_obj_style_gen.h **** 
  79:Drivers/lvgl/lvgl/src/widgets/../core/lv_obj_style_gen.h **** static inline lv_coord_t lv_obj_get_style_transform_zoom(const struct _lv_obj_t * obj, uint32_t par
  80:Drivers/lvgl/lvgl/src/widgets/../core/lv_obj_style_gen.h **** {
  81:Drivers/lvgl/lvgl/src/widgets/../core/lv_obj_style_gen.h ****     lv_style_value_t v = lv_obj_get_style_prop(obj, part, LV_STYLE_TRANSFORM_ZOOM);
  82:Drivers/lvgl/lvgl/src/widgets/../core/lv_obj_style_gen.h ****     return (lv_coord_t)v.num;
  83:Drivers/lvgl/lvgl/src/widgets/../core/lv_obj_style_gen.h **** }
  84:Drivers/lvgl/lvgl/src/widgets/../core/lv_obj_style_gen.h **** 
  85:Drivers/lvgl/lvgl/src/widgets/../core/lv_obj_style_gen.h **** static inline lv_coord_t lv_obj_get_style_transform_angle(const struct _lv_obj_t * obj, uint32_t pa
  86:Drivers/lvgl/lvgl/src/widgets/../core/lv_obj_style_gen.h **** {
  87:Drivers/lvgl/lvgl/src/widgets/../core/lv_obj_style_gen.h ****     lv_style_value_t v = lv_obj_get_style_prop(obj, part, LV_STYLE_TRANSFORM_ANGLE);
  88:Drivers/lvgl/lvgl/src/widgets/../core/lv_obj_style_gen.h ****     return (lv_coord_t)v.num;
  89:Drivers/lvgl/lvgl/src/widgets/../core/lv_obj_style_gen.h **** }
  90:Drivers/lvgl/lvgl/src/widgets/../core/lv_obj_style_gen.h **** 
  91:Drivers/lvgl/lvgl/src/widgets/../core/lv_obj_style_gen.h **** static inline lv_coord_t lv_obj_get_style_transform_pivot_x(const struct _lv_obj_t * obj, uint32_t 
  92:Drivers/lvgl/lvgl/src/widgets/../core/lv_obj_style_gen.h **** {
  93:Drivers/lvgl/lvgl/src/widgets/../core/lv_obj_style_gen.h ****     lv_style_value_t v = lv_obj_get_style_prop(obj, part, LV_STYLE_TRANSFORM_PIVOT_X);
  94:Drivers/lvgl/lvgl/src/widgets/../core/lv_obj_style_gen.h ****     return (lv_coord_t)v.num;
  95:Drivers/lvgl/lvgl/src/widgets/../core/lv_obj_style_gen.h **** }
  96:Drivers/lvgl/lvgl/src/widgets/../core/lv_obj_style_gen.h **** 
  97:Drivers/lvgl/lvgl/src/widgets/../core/lv_obj_style_gen.h **** static inline lv_coord_t lv_obj_get_style_transform_pivot_y(const struct _lv_obj_t * obj, uint32_t 
  98:Drivers/lvgl/lvgl/src/widgets/../core/lv_obj_style_gen.h **** {
  99:Drivers/lvgl/lvgl/src/widgets/../core/lv_obj_style_gen.h ****     lv_style_value_t v = lv_obj_get_style_prop(obj, part, LV_STYLE_TRANSFORM_PIVOT_Y);
 100:Drivers/lvgl/lvgl/src/widgets/../core/lv_obj_style_gen.h ****     return (lv_coord_t)v.num;
 101:Drivers/lvgl/lvgl/src/widgets/../core/lv_obj_style_gen.h **** }
 102:Drivers/lvgl/lvgl/src/widgets/../core/lv_obj_style_gen.h **** 
 103:Drivers/lvgl/lvgl/src/widgets/../core/lv_obj_style_gen.h **** static inline lv_coord_t lv_obj_get_style_pad_top(const struct _lv_obj_t * obj, uint32_t part)
 104:Drivers/lvgl/lvgl/src/widgets/../core/lv_obj_style_gen.h **** {
ARM GAS  /tmp/ccFZiBLS.s 			page 26


 105:Drivers/lvgl/lvgl/src/widgets/../core/lv_obj_style_gen.h ****     lv_style_value_t v = lv_obj_get_style_prop(obj, part, LV_STYLE_PAD_TOP);
 106:Drivers/lvgl/lvgl/src/widgets/../core/lv_obj_style_gen.h ****     return (lv_coord_t)v.num;
 107:Drivers/lvgl/lvgl/src/widgets/../core/lv_obj_style_gen.h **** }
 108:Drivers/lvgl/lvgl/src/widgets/../core/lv_obj_style_gen.h **** 
 109:Drivers/lvgl/lvgl/src/widgets/../core/lv_obj_style_gen.h **** static inline lv_coord_t lv_obj_get_style_pad_bottom(const struct _lv_obj_t * obj, uint32_t part)
 110:Drivers/lvgl/lvgl/src/widgets/../core/lv_obj_style_gen.h **** {
 111:Drivers/lvgl/lvgl/src/widgets/../core/lv_obj_style_gen.h ****     lv_style_value_t v = lv_obj_get_style_prop(obj, part, LV_STYLE_PAD_BOTTOM);
 112:Drivers/lvgl/lvgl/src/widgets/../core/lv_obj_style_gen.h ****     return (lv_coord_t)v.num;
 113:Drivers/lvgl/lvgl/src/widgets/../core/lv_obj_style_gen.h **** }
 114:Drivers/lvgl/lvgl/src/widgets/../core/lv_obj_style_gen.h **** 
 115:Drivers/lvgl/lvgl/src/widgets/../core/lv_obj_style_gen.h **** static inline lv_coord_t lv_obj_get_style_pad_left(const struct _lv_obj_t * obj, uint32_t part)
 116:Drivers/lvgl/lvgl/src/widgets/../core/lv_obj_style_gen.h **** {
 117:Drivers/lvgl/lvgl/src/widgets/../core/lv_obj_style_gen.h ****     lv_style_value_t v = lv_obj_get_style_prop(obj, part, LV_STYLE_PAD_LEFT);
 288              		.loc 3 117 0
 289 000a 1222     		movs	r2, #18
 290 000c 4FF4A021 		mov	r1, #327680
 291              	.LVL44:
 292 0010 FFF7FEFF 		bl	lv_obj_get_style_prop
 293              	.LVL45:
 118:Drivers/lvgl/lvgl/src/widgets/../core/lv_obj_style_gen.h ****     return (lv_coord_t)v.num;
 294              		.loc 3 118 0
 295 0014 0FFA80FB 		sxth	fp, r0
 296              	.LVL46:
 297              	.LBE124:
 298              	.LBE123:
 299              	.LBB125:
 300              	.LBB126:
 119:Drivers/lvgl/lvgl/src/widgets/../core/lv_obj_style_gen.h **** }
 120:Drivers/lvgl/lvgl/src/widgets/../core/lv_obj_style_gen.h **** 
 121:Drivers/lvgl/lvgl/src/widgets/../core/lv_obj_style_gen.h **** static inline lv_coord_t lv_obj_get_style_pad_right(const struct _lv_obj_t * obj, uint32_t part)
 122:Drivers/lvgl/lvgl/src/widgets/../core/lv_obj_style_gen.h **** {
 123:Drivers/lvgl/lvgl/src/widgets/../core/lv_obj_style_gen.h ****     lv_style_value_t v = lv_obj_get_style_prop(obj, part, LV_STYLE_PAD_RIGHT);
 301              		.loc 3 123 0
 302 0018 1322     		movs	r2, #19
 303 001a 4FF4A021 		mov	r1, #327680
 304 001e 2846     		mov	r0, r5
 305 0020 FFF7FEFF 		bl	lv_obj_get_style_prop
 306              	.LVL47:
 124:Drivers/lvgl/lvgl/src/widgets/../core/lv_obj_style_gen.h ****     return (lv_coord_t)v.num;
 307              		.loc 3 124 0
 308 0024 0FFA80FA 		sxth	r10, r0
 309              	.LVL48:
 310              	.LBE126:
 311              	.LBE125:
 312              	.LBB127:
 313              	.LBB128:
 105:Drivers/lvgl/lvgl/src/widgets/../core/lv_obj_style_gen.h ****     return (lv_coord_t)v.num;
 314              		.loc 3 105 0
 315 0028 1022     		movs	r2, #16
 316 002a 4FF4A021 		mov	r1, #327680
 317 002e 2846     		mov	r0, r5
 318 0030 FFF7FEFF 		bl	lv_obj_get_style_prop
 319              	.LVL49:
 106:Drivers/lvgl/lvgl/src/widgets/../core/lv_obj_style_gen.h **** }
 320              		.loc 3 106 0
 321 0034 0FFA80F9 		sxth	r9, r0
 322              	.LVL50:
ARM GAS  /tmp/ccFZiBLS.s 			page 27


 323              	.LBE128:
 324              	.LBE127:
 325              	.LBB129:
 326              	.LBB130:
 111:Drivers/lvgl/lvgl/src/widgets/../core/lv_obj_style_gen.h ****     return (lv_coord_t)v.num;
 327              		.loc 3 111 0
 328 0038 1122     		movs	r2, #17
 329 003a 4FF4A021 		mov	r1, #327680
 330 003e 2846     		mov	r0, r5
 331 0040 FFF7FEFF 		bl	lv_obj_get_style_prop
 332              	.LVL51:
 112:Drivers/lvgl/lvgl/src/widgets/../core/lv_obj_style_gen.h **** }
 333              		.loc 3 112 0
 334 0044 03B2     		sxth	r3, r0
 335 0046 0993     		str	r3, [sp, #36]
 336              	.LVL52:
 337              	.LBE130:
 338              	.LBE129:
 339              	.LBB131:
 340              	.LBB132:
 125:Drivers/lvgl/lvgl/src/widgets/../core/lv_obj_style_gen.h **** }
 126:Drivers/lvgl/lvgl/src/widgets/../core/lv_obj_style_gen.h **** 
 127:Drivers/lvgl/lvgl/src/widgets/../core/lv_obj_style_gen.h **** static inline lv_coord_t lv_obj_get_style_pad_row(const struct _lv_obj_t * obj, uint32_t part)
 128:Drivers/lvgl/lvgl/src/widgets/../core/lv_obj_style_gen.h **** {
 129:Drivers/lvgl/lvgl/src/widgets/../core/lv_obj_style_gen.h ****     lv_style_value_t v = lv_obj_get_style_prop(obj, part, LV_STYLE_PAD_ROW);
 130:Drivers/lvgl/lvgl/src/widgets/../core/lv_obj_style_gen.h ****     return (lv_coord_t)v.num;
 131:Drivers/lvgl/lvgl/src/widgets/../core/lv_obj_style_gen.h **** }
 132:Drivers/lvgl/lvgl/src/widgets/../core/lv_obj_style_gen.h **** 
 133:Drivers/lvgl/lvgl/src/widgets/../core/lv_obj_style_gen.h **** static inline lv_coord_t lv_obj_get_style_pad_column(const struct _lv_obj_t * obj, uint32_t part)
 134:Drivers/lvgl/lvgl/src/widgets/../core/lv_obj_style_gen.h **** {
 135:Drivers/lvgl/lvgl/src/widgets/../core/lv_obj_style_gen.h ****     lv_style_value_t v = lv_obj_get_style_prop(obj, part, LV_STYLE_PAD_COLUMN);
 136:Drivers/lvgl/lvgl/src/widgets/../core/lv_obj_style_gen.h ****     return (lv_coord_t)v.num;
 137:Drivers/lvgl/lvgl/src/widgets/../core/lv_obj_style_gen.h **** }
 138:Drivers/lvgl/lvgl/src/widgets/../core/lv_obj_style_gen.h **** 
 139:Drivers/lvgl/lvgl/src/widgets/../core/lv_obj_style_gen.h **** static inline lv_color_t lv_obj_get_style_bg_color(const struct _lv_obj_t * obj, uint32_t part)
 140:Drivers/lvgl/lvgl/src/widgets/../core/lv_obj_style_gen.h **** {
 141:Drivers/lvgl/lvgl/src/widgets/../core/lv_obj_style_gen.h ****     lv_style_value_t v = lv_obj_get_style_prop(obj, part, LV_STYLE_BG_COLOR);
 142:Drivers/lvgl/lvgl/src/widgets/../core/lv_obj_style_gen.h ****     return v.color;
 143:Drivers/lvgl/lvgl/src/widgets/../core/lv_obj_style_gen.h **** }
 144:Drivers/lvgl/lvgl/src/widgets/../core/lv_obj_style_gen.h **** 
 145:Drivers/lvgl/lvgl/src/widgets/../core/lv_obj_style_gen.h **** static inline lv_color_t lv_obj_get_style_bg_color_filtered(const struct _lv_obj_t * obj, uint32_t 
 146:Drivers/lvgl/lvgl/src/widgets/../core/lv_obj_style_gen.h **** {
 147:Drivers/lvgl/lvgl/src/widgets/../core/lv_obj_style_gen.h ****     lv_style_value_t v = _lv_obj_style_apply_color_filter(obj, part, lv_obj_get_style_prop(obj, par
 148:Drivers/lvgl/lvgl/src/widgets/../core/lv_obj_style_gen.h ****     return v.color;
 149:Drivers/lvgl/lvgl/src/widgets/../core/lv_obj_style_gen.h **** }
 150:Drivers/lvgl/lvgl/src/widgets/../core/lv_obj_style_gen.h **** 
 151:Drivers/lvgl/lvgl/src/widgets/../core/lv_obj_style_gen.h **** static inline lv_opa_t lv_obj_get_style_bg_opa(const struct _lv_obj_t * obj, uint32_t part)
 152:Drivers/lvgl/lvgl/src/widgets/../core/lv_obj_style_gen.h **** {
 153:Drivers/lvgl/lvgl/src/widgets/../core/lv_obj_style_gen.h ****     lv_style_value_t v = lv_obj_get_style_prop(obj, part, LV_STYLE_BG_OPA);
 154:Drivers/lvgl/lvgl/src/widgets/../core/lv_obj_style_gen.h ****     return (lv_opa_t)v.num;
 155:Drivers/lvgl/lvgl/src/widgets/../core/lv_obj_style_gen.h **** }
 156:Drivers/lvgl/lvgl/src/widgets/../core/lv_obj_style_gen.h **** 
 157:Drivers/lvgl/lvgl/src/widgets/../core/lv_obj_style_gen.h **** static inline lv_color_t lv_obj_get_style_bg_grad_color(const struct _lv_obj_t * obj, uint32_t part
 158:Drivers/lvgl/lvgl/src/widgets/../core/lv_obj_style_gen.h **** {
 159:Drivers/lvgl/lvgl/src/widgets/../core/lv_obj_style_gen.h ****     lv_style_value_t v = lv_obj_get_style_prop(obj, part, LV_STYLE_BG_GRAD_COLOR);
 160:Drivers/lvgl/lvgl/src/widgets/../core/lv_obj_style_gen.h ****     return v.color;
 161:Drivers/lvgl/lvgl/src/widgets/../core/lv_obj_style_gen.h **** }
ARM GAS  /tmp/ccFZiBLS.s 			page 28


 162:Drivers/lvgl/lvgl/src/widgets/../core/lv_obj_style_gen.h **** 
 163:Drivers/lvgl/lvgl/src/widgets/../core/lv_obj_style_gen.h **** static inline lv_color_t lv_obj_get_style_bg_grad_color_filtered(const struct _lv_obj_t * obj, uint
 164:Drivers/lvgl/lvgl/src/widgets/../core/lv_obj_style_gen.h **** {
 165:Drivers/lvgl/lvgl/src/widgets/../core/lv_obj_style_gen.h ****     lv_style_value_t v = _lv_obj_style_apply_color_filter(obj, part, lv_obj_get_style_prop(obj, par
 166:Drivers/lvgl/lvgl/src/widgets/../core/lv_obj_style_gen.h ****     return v.color;
 167:Drivers/lvgl/lvgl/src/widgets/../core/lv_obj_style_gen.h **** }
 168:Drivers/lvgl/lvgl/src/widgets/../core/lv_obj_style_gen.h **** 
 169:Drivers/lvgl/lvgl/src/widgets/../core/lv_obj_style_gen.h **** static inline lv_grad_dir_t lv_obj_get_style_bg_grad_dir(const struct _lv_obj_t * obj, uint32_t par
 170:Drivers/lvgl/lvgl/src/widgets/../core/lv_obj_style_gen.h **** {
 171:Drivers/lvgl/lvgl/src/widgets/../core/lv_obj_style_gen.h ****     lv_style_value_t v = lv_obj_get_style_prop(obj, part, LV_STYLE_BG_GRAD_DIR);
 172:Drivers/lvgl/lvgl/src/widgets/../core/lv_obj_style_gen.h ****     return (lv_grad_dir_t)v.num;
 173:Drivers/lvgl/lvgl/src/widgets/../core/lv_obj_style_gen.h **** }
 174:Drivers/lvgl/lvgl/src/widgets/../core/lv_obj_style_gen.h **** 
 175:Drivers/lvgl/lvgl/src/widgets/../core/lv_obj_style_gen.h **** static inline lv_coord_t lv_obj_get_style_bg_main_stop(const struct _lv_obj_t * obj, uint32_t part)
 176:Drivers/lvgl/lvgl/src/widgets/../core/lv_obj_style_gen.h **** {
 177:Drivers/lvgl/lvgl/src/widgets/../core/lv_obj_style_gen.h ****     lv_style_value_t v = lv_obj_get_style_prop(obj, part, LV_STYLE_BG_MAIN_STOP);
 178:Drivers/lvgl/lvgl/src/widgets/../core/lv_obj_style_gen.h ****     return (lv_coord_t)v.num;
 179:Drivers/lvgl/lvgl/src/widgets/../core/lv_obj_style_gen.h **** }
 180:Drivers/lvgl/lvgl/src/widgets/../core/lv_obj_style_gen.h **** 
 181:Drivers/lvgl/lvgl/src/widgets/../core/lv_obj_style_gen.h **** static inline lv_coord_t lv_obj_get_style_bg_grad_stop(const struct _lv_obj_t * obj, uint32_t part)
 182:Drivers/lvgl/lvgl/src/widgets/../core/lv_obj_style_gen.h **** {
 183:Drivers/lvgl/lvgl/src/widgets/../core/lv_obj_style_gen.h ****     lv_style_value_t v = lv_obj_get_style_prop(obj, part, LV_STYLE_BG_GRAD_STOP);
 184:Drivers/lvgl/lvgl/src/widgets/../core/lv_obj_style_gen.h ****     return (lv_coord_t)v.num;
 185:Drivers/lvgl/lvgl/src/widgets/../core/lv_obj_style_gen.h **** }
 186:Drivers/lvgl/lvgl/src/widgets/../core/lv_obj_style_gen.h **** 
 187:Drivers/lvgl/lvgl/src/widgets/../core/lv_obj_style_gen.h **** static inline const lv_grad_dsc_t * lv_obj_get_style_bg_grad(const struct _lv_obj_t * obj, uint32_t
 188:Drivers/lvgl/lvgl/src/widgets/../core/lv_obj_style_gen.h **** {
 189:Drivers/lvgl/lvgl/src/widgets/../core/lv_obj_style_gen.h ****     lv_style_value_t v = lv_obj_get_style_prop(obj, part, LV_STYLE_BG_GRAD);
 190:Drivers/lvgl/lvgl/src/widgets/../core/lv_obj_style_gen.h ****     return (const lv_grad_dsc_t *)v.ptr;
 191:Drivers/lvgl/lvgl/src/widgets/../core/lv_obj_style_gen.h **** }
 192:Drivers/lvgl/lvgl/src/widgets/../core/lv_obj_style_gen.h **** 
 193:Drivers/lvgl/lvgl/src/widgets/../core/lv_obj_style_gen.h **** static inline lv_dither_mode_t lv_obj_get_style_bg_dither_mode(const struct _lv_obj_t * obj, uint32
 194:Drivers/lvgl/lvgl/src/widgets/../core/lv_obj_style_gen.h **** {
 195:Drivers/lvgl/lvgl/src/widgets/../core/lv_obj_style_gen.h ****     lv_style_value_t v = lv_obj_get_style_prop(obj, part, LV_STYLE_BG_DITHER_MODE);
 196:Drivers/lvgl/lvgl/src/widgets/../core/lv_obj_style_gen.h ****     return (lv_dither_mode_t)v.num;
 197:Drivers/lvgl/lvgl/src/widgets/../core/lv_obj_style_gen.h **** }
 198:Drivers/lvgl/lvgl/src/widgets/../core/lv_obj_style_gen.h **** 
 199:Drivers/lvgl/lvgl/src/widgets/../core/lv_obj_style_gen.h **** static inline const void * lv_obj_get_style_bg_img_src(const struct _lv_obj_t * obj, uint32_t part)
 200:Drivers/lvgl/lvgl/src/widgets/../core/lv_obj_style_gen.h **** {
 201:Drivers/lvgl/lvgl/src/widgets/../core/lv_obj_style_gen.h ****     lv_style_value_t v = lv_obj_get_style_prop(obj, part, LV_STYLE_BG_IMG_SRC);
 202:Drivers/lvgl/lvgl/src/widgets/../core/lv_obj_style_gen.h ****     return (const void *)v.ptr;
 203:Drivers/lvgl/lvgl/src/widgets/../core/lv_obj_style_gen.h **** }
 204:Drivers/lvgl/lvgl/src/widgets/../core/lv_obj_style_gen.h **** 
 205:Drivers/lvgl/lvgl/src/widgets/../core/lv_obj_style_gen.h **** static inline lv_opa_t lv_obj_get_style_bg_img_opa(const struct _lv_obj_t * obj, uint32_t part)
 206:Drivers/lvgl/lvgl/src/widgets/../core/lv_obj_style_gen.h **** {
 207:Drivers/lvgl/lvgl/src/widgets/../core/lv_obj_style_gen.h ****     lv_style_value_t v = lv_obj_get_style_prop(obj, part, LV_STYLE_BG_IMG_OPA);
 208:Drivers/lvgl/lvgl/src/widgets/../core/lv_obj_style_gen.h ****     return (lv_opa_t)v.num;
 209:Drivers/lvgl/lvgl/src/widgets/../core/lv_obj_style_gen.h **** }
 210:Drivers/lvgl/lvgl/src/widgets/../core/lv_obj_style_gen.h **** 
 211:Drivers/lvgl/lvgl/src/widgets/../core/lv_obj_style_gen.h **** static inline lv_color_t lv_obj_get_style_bg_img_recolor(const struct _lv_obj_t * obj, uint32_t par
 212:Drivers/lvgl/lvgl/src/widgets/../core/lv_obj_style_gen.h **** {
 213:Drivers/lvgl/lvgl/src/widgets/../core/lv_obj_style_gen.h ****     lv_style_value_t v = lv_obj_get_style_prop(obj, part, LV_STYLE_BG_IMG_RECOLOR);
 214:Drivers/lvgl/lvgl/src/widgets/../core/lv_obj_style_gen.h ****     return v.color;
 215:Drivers/lvgl/lvgl/src/widgets/../core/lv_obj_style_gen.h **** }
 216:Drivers/lvgl/lvgl/src/widgets/../core/lv_obj_style_gen.h **** 
 217:Drivers/lvgl/lvgl/src/widgets/../core/lv_obj_style_gen.h **** static inline lv_color_t lv_obj_get_style_bg_img_recolor_filtered(const struct _lv_obj_t * obj, uin
 218:Drivers/lvgl/lvgl/src/widgets/../core/lv_obj_style_gen.h **** {
ARM GAS  /tmp/ccFZiBLS.s 			page 29


 219:Drivers/lvgl/lvgl/src/widgets/../core/lv_obj_style_gen.h ****     lv_style_value_t v = _lv_obj_style_apply_color_filter(obj, part, lv_obj_get_style_prop(obj, par
 220:Drivers/lvgl/lvgl/src/widgets/../core/lv_obj_style_gen.h ****     return v.color;
 221:Drivers/lvgl/lvgl/src/widgets/../core/lv_obj_style_gen.h **** }
 222:Drivers/lvgl/lvgl/src/widgets/../core/lv_obj_style_gen.h **** 
 223:Drivers/lvgl/lvgl/src/widgets/../core/lv_obj_style_gen.h **** static inline lv_opa_t lv_obj_get_style_bg_img_recolor_opa(const struct _lv_obj_t * obj, uint32_t p
 224:Drivers/lvgl/lvgl/src/widgets/../core/lv_obj_style_gen.h **** {
 225:Drivers/lvgl/lvgl/src/widgets/../core/lv_obj_style_gen.h ****     lv_style_value_t v = lv_obj_get_style_prop(obj, part, LV_STYLE_BG_IMG_RECOLOR_OPA);
 226:Drivers/lvgl/lvgl/src/widgets/../core/lv_obj_style_gen.h ****     return (lv_opa_t)v.num;
 227:Drivers/lvgl/lvgl/src/widgets/../core/lv_obj_style_gen.h **** }
 228:Drivers/lvgl/lvgl/src/widgets/../core/lv_obj_style_gen.h **** 
 229:Drivers/lvgl/lvgl/src/widgets/../core/lv_obj_style_gen.h **** static inline bool lv_obj_get_style_bg_img_tiled(const struct _lv_obj_t * obj, uint32_t part)
 230:Drivers/lvgl/lvgl/src/widgets/../core/lv_obj_style_gen.h **** {
 231:Drivers/lvgl/lvgl/src/widgets/../core/lv_obj_style_gen.h ****     lv_style_value_t v = lv_obj_get_style_prop(obj, part, LV_STYLE_BG_IMG_TILED);
 232:Drivers/lvgl/lvgl/src/widgets/../core/lv_obj_style_gen.h ****     return (bool)v.num;
 233:Drivers/lvgl/lvgl/src/widgets/../core/lv_obj_style_gen.h **** }
 234:Drivers/lvgl/lvgl/src/widgets/../core/lv_obj_style_gen.h **** 
 235:Drivers/lvgl/lvgl/src/widgets/../core/lv_obj_style_gen.h **** static inline lv_color_t lv_obj_get_style_border_color(const struct _lv_obj_t * obj, uint32_t part)
 236:Drivers/lvgl/lvgl/src/widgets/../core/lv_obj_style_gen.h **** {
 237:Drivers/lvgl/lvgl/src/widgets/../core/lv_obj_style_gen.h ****     lv_style_value_t v = lv_obj_get_style_prop(obj, part, LV_STYLE_BORDER_COLOR);
 238:Drivers/lvgl/lvgl/src/widgets/../core/lv_obj_style_gen.h ****     return v.color;
 239:Drivers/lvgl/lvgl/src/widgets/../core/lv_obj_style_gen.h **** }
 240:Drivers/lvgl/lvgl/src/widgets/../core/lv_obj_style_gen.h **** 
 241:Drivers/lvgl/lvgl/src/widgets/../core/lv_obj_style_gen.h **** static inline lv_color_t lv_obj_get_style_border_color_filtered(const struct _lv_obj_t * obj, uint3
 242:Drivers/lvgl/lvgl/src/widgets/../core/lv_obj_style_gen.h **** {
 243:Drivers/lvgl/lvgl/src/widgets/../core/lv_obj_style_gen.h ****     lv_style_value_t v = _lv_obj_style_apply_color_filter(obj, part, lv_obj_get_style_prop(obj, par
 244:Drivers/lvgl/lvgl/src/widgets/../core/lv_obj_style_gen.h ****     return v.color;
 245:Drivers/lvgl/lvgl/src/widgets/../core/lv_obj_style_gen.h **** }
 246:Drivers/lvgl/lvgl/src/widgets/../core/lv_obj_style_gen.h **** 
 247:Drivers/lvgl/lvgl/src/widgets/../core/lv_obj_style_gen.h **** static inline lv_opa_t lv_obj_get_style_border_opa(const struct _lv_obj_t * obj, uint32_t part)
 248:Drivers/lvgl/lvgl/src/widgets/../core/lv_obj_style_gen.h **** {
 249:Drivers/lvgl/lvgl/src/widgets/../core/lv_obj_style_gen.h ****     lv_style_value_t v = lv_obj_get_style_prop(obj, part, LV_STYLE_BORDER_OPA);
 250:Drivers/lvgl/lvgl/src/widgets/../core/lv_obj_style_gen.h ****     return (lv_opa_t)v.num;
 251:Drivers/lvgl/lvgl/src/widgets/../core/lv_obj_style_gen.h **** }
 252:Drivers/lvgl/lvgl/src/widgets/../core/lv_obj_style_gen.h **** 
 253:Drivers/lvgl/lvgl/src/widgets/../core/lv_obj_style_gen.h **** static inline lv_coord_t lv_obj_get_style_border_width(const struct _lv_obj_t * obj, uint32_t part)
 254:Drivers/lvgl/lvgl/src/widgets/../core/lv_obj_style_gen.h **** {
 255:Drivers/lvgl/lvgl/src/widgets/../core/lv_obj_style_gen.h ****     lv_style_value_t v = lv_obj_get_style_prop(obj, part, LV_STYLE_BORDER_WIDTH);
 256:Drivers/lvgl/lvgl/src/widgets/../core/lv_obj_style_gen.h ****     return (lv_coord_t)v.num;
 257:Drivers/lvgl/lvgl/src/widgets/../core/lv_obj_style_gen.h **** }
 258:Drivers/lvgl/lvgl/src/widgets/../core/lv_obj_style_gen.h **** 
 259:Drivers/lvgl/lvgl/src/widgets/../core/lv_obj_style_gen.h **** static inline lv_border_side_t lv_obj_get_style_border_side(const struct _lv_obj_t * obj, uint32_t 
 260:Drivers/lvgl/lvgl/src/widgets/../core/lv_obj_style_gen.h **** {
 261:Drivers/lvgl/lvgl/src/widgets/../core/lv_obj_style_gen.h ****     lv_style_value_t v = lv_obj_get_style_prop(obj, part, LV_STYLE_BORDER_SIDE);
 262:Drivers/lvgl/lvgl/src/widgets/../core/lv_obj_style_gen.h ****     return (lv_border_side_t)v.num;
 263:Drivers/lvgl/lvgl/src/widgets/../core/lv_obj_style_gen.h **** }
 264:Drivers/lvgl/lvgl/src/widgets/../core/lv_obj_style_gen.h **** 
 265:Drivers/lvgl/lvgl/src/widgets/../core/lv_obj_style_gen.h **** static inline bool lv_obj_get_style_border_post(const struct _lv_obj_t * obj, uint32_t part)
 266:Drivers/lvgl/lvgl/src/widgets/../core/lv_obj_style_gen.h **** {
 267:Drivers/lvgl/lvgl/src/widgets/../core/lv_obj_style_gen.h ****     lv_style_value_t v = lv_obj_get_style_prop(obj, part, LV_STYLE_BORDER_POST);
 268:Drivers/lvgl/lvgl/src/widgets/../core/lv_obj_style_gen.h ****     return (bool)v.num;
 269:Drivers/lvgl/lvgl/src/widgets/../core/lv_obj_style_gen.h **** }
 270:Drivers/lvgl/lvgl/src/widgets/../core/lv_obj_style_gen.h **** 
 271:Drivers/lvgl/lvgl/src/widgets/../core/lv_obj_style_gen.h **** static inline lv_coord_t lv_obj_get_style_outline_width(const struct _lv_obj_t * obj, uint32_t part
 272:Drivers/lvgl/lvgl/src/widgets/../core/lv_obj_style_gen.h **** {
 273:Drivers/lvgl/lvgl/src/widgets/../core/lv_obj_style_gen.h ****     lv_style_value_t v = lv_obj_get_style_prop(obj, part, LV_STYLE_OUTLINE_WIDTH);
 274:Drivers/lvgl/lvgl/src/widgets/../core/lv_obj_style_gen.h ****     return (lv_coord_t)v.num;
 275:Drivers/lvgl/lvgl/src/widgets/../core/lv_obj_style_gen.h **** }
ARM GAS  /tmp/ccFZiBLS.s 			page 30


 276:Drivers/lvgl/lvgl/src/widgets/../core/lv_obj_style_gen.h **** 
 277:Drivers/lvgl/lvgl/src/widgets/../core/lv_obj_style_gen.h **** static inline lv_color_t lv_obj_get_style_outline_color(const struct _lv_obj_t * obj, uint32_t part
 278:Drivers/lvgl/lvgl/src/widgets/../core/lv_obj_style_gen.h **** {
 279:Drivers/lvgl/lvgl/src/widgets/../core/lv_obj_style_gen.h ****     lv_style_value_t v = lv_obj_get_style_prop(obj, part, LV_STYLE_OUTLINE_COLOR);
 280:Drivers/lvgl/lvgl/src/widgets/../core/lv_obj_style_gen.h ****     return v.color;
 281:Drivers/lvgl/lvgl/src/widgets/../core/lv_obj_style_gen.h **** }
 282:Drivers/lvgl/lvgl/src/widgets/../core/lv_obj_style_gen.h **** 
 283:Drivers/lvgl/lvgl/src/widgets/../core/lv_obj_style_gen.h **** static inline lv_color_t lv_obj_get_style_outline_color_filtered(const struct _lv_obj_t * obj, uint
 284:Drivers/lvgl/lvgl/src/widgets/../core/lv_obj_style_gen.h **** {
 285:Drivers/lvgl/lvgl/src/widgets/../core/lv_obj_style_gen.h ****     lv_style_value_t v = _lv_obj_style_apply_color_filter(obj, part, lv_obj_get_style_prop(obj, par
 286:Drivers/lvgl/lvgl/src/widgets/../core/lv_obj_style_gen.h ****     return v.color;
 287:Drivers/lvgl/lvgl/src/widgets/../core/lv_obj_style_gen.h **** }
 288:Drivers/lvgl/lvgl/src/widgets/../core/lv_obj_style_gen.h **** 
 289:Drivers/lvgl/lvgl/src/widgets/../core/lv_obj_style_gen.h **** static inline lv_opa_t lv_obj_get_style_outline_opa(const struct _lv_obj_t * obj, uint32_t part)
 290:Drivers/lvgl/lvgl/src/widgets/../core/lv_obj_style_gen.h **** {
 291:Drivers/lvgl/lvgl/src/widgets/../core/lv_obj_style_gen.h ****     lv_style_value_t v = lv_obj_get_style_prop(obj, part, LV_STYLE_OUTLINE_OPA);
 292:Drivers/lvgl/lvgl/src/widgets/../core/lv_obj_style_gen.h ****     return (lv_opa_t)v.num;
 293:Drivers/lvgl/lvgl/src/widgets/../core/lv_obj_style_gen.h **** }
 294:Drivers/lvgl/lvgl/src/widgets/../core/lv_obj_style_gen.h **** 
 295:Drivers/lvgl/lvgl/src/widgets/../core/lv_obj_style_gen.h **** static inline lv_coord_t lv_obj_get_style_outline_pad(const struct _lv_obj_t * obj, uint32_t part)
 296:Drivers/lvgl/lvgl/src/widgets/../core/lv_obj_style_gen.h **** {
 297:Drivers/lvgl/lvgl/src/widgets/../core/lv_obj_style_gen.h ****     lv_style_value_t v = lv_obj_get_style_prop(obj, part, LV_STYLE_OUTLINE_PAD);
 298:Drivers/lvgl/lvgl/src/widgets/../core/lv_obj_style_gen.h ****     return (lv_coord_t)v.num;
 299:Drivers/lvgl/lvgl/src/widgets/../core/lv_obj_style_gen.h **** }
 300:Drivers/lvgl/lvgl/src/widgets/../core/lv_obj_style_gen.h **** 
 301:Drivers/lvgl/lvgl/src/widgets/../core/lv_obj_style_gen.h **** static inline lv_coord_t lv_obj_get_style_shadow_width(const struct _lv_obj_t * obj, uint32_t part)
 302:Drivers/lvgl/lvgl/src/widgets/../core/lv_obj_style_gen.h **** {
 303:Drivers/lvgl/lvgl/src/widgets/../core/lv_obj_style_gen.h ****     lv_style_value_t v = lv_obj_get_style_prop(obj, part, LV_STYLE_SHADOW_WIDTH);
 304:Drivers/lvgl/lvgl/src/widgets/../core/lv_obj_style_gen.h ****     return (lv_coord_t)v.num;
 305:Drivers/lvgl/lvgl/src/widgets/../core/lv_obj_style_gen.h **** }
 306:Drivers/lvgl/lvgl/src/widgets/../core/lv_obj_style_gen.h **** 
 307:Drivers/lvgl/lvgl/src/widgets/../core/lv_obj_style_gen.h **** static inline lv_coord_t lv_obj_get_style_shadow_ofs_x(const struct _lv_obj_t * obj, uint32_t part)
 308:Drivers/lvgl/lvgl/src/widgets/../core/lv_obj_style_gen.h **** {
 309:Drivers/lvgl/lvgl/src/widgets/../core/lv_obj_style_gen.h ****     lv_style_value_t v = lv_obj_get_style_prop(obj, part, LV_STYLE_SHADOW_OFS_X);
 310:Drivers/lvgl/lvgl/src/widgets/../core/lv_obj_style_gen.h ****     return (lv_coord_t)v.num;
 311:Drivers/lvgl/lvgl/src/widgets/../core/lv_obj_style_gen.h **** }
 312:Drivers/lvgl/lvgl/src/widgets/../core/lv_obj_style_gen.h **** 
 313:Drivers/lvgl/lvgl/src/widgets/../core/lv_obj_style_gen.h **** static inline lv_coord_t lv_obj_get_style_shadow_ofs_y(const struct _lv_obj_t * obj, uint32_t part)
 314:Drivers/lvgl/lvgl/src/widgets/../core/lv_obj_style_gen.h **** {
 315:Drivers/lvgl/lvgl/src/widgets/../core/lv_obj_style_gen.h ****     lv_style_value_t v = lv_obj_get_style_prop(obj, part, LV_STYLE_SHADOW_OFS_Y);
 316:Drivers/lvgl/lvgl/src/widgets/../core/lv_obj_style_gen.h ****     return (lv_coord_t)v.num;
 317:Drivers/lvgl/lvgl/src/widgets/../core/lv_obj_style_gen.h **** }
 318:Drivers/lvgl/lvgl/src/widgets/../core/lv_obj_style_gen.h **** 
 319:Drivers/lvgl/lvgl/src/widgets/../core/lv_obj_style_gen.h **** static inline lv_coord_t lv_obj_get_style_shadow_spread(const struct _lv_obj_t * obj, uint32_t part
 320:Drivers/lvgl/lvgl/src/widgets/../core/lv_obj_style_gen.h **** {
 321:Drivers/lvgl/lvgl/src/widgets/../core/lv_obj_style_gen.h ****     lv_style_value_t v = lv_obj_get_style_prop(obj, part, LV_STYLE_SHADOW_SPREAD);
 322:Drivers/lvgl/lvgl/src/widgets/../core/lv_obj_style_gen.h ****     return (lv_coord_t)v.num;
 323:Drivers/lvgl/lvgl/src/widgets/../core/lv_obj_style_gen.h **** }
 324:Drivers/lvgl/lvgl/src/widgets/../core/lv_obj_style_gen.h **** 
 325:Drivers/lvgl/lvgl/src/widgets/../core/lv_obj_style_gen.h **** static inline lv_color_t lv_obj_get_style_shadow_color(const struct _lv_obj_t * obj, uint32_t part)
 326:Drivers/lvgl/lvgl/src/widgets/../core/lv_obj_style_gen.h **** {
 327:Drivers/lvgl/lvgl/src/widgets/../core/lv_obj_style_gen.h ****     lv_style_value_t v = lv_obj_get_style_prop(obj, part, LV_STYLE_SHADOW_COLOR);
 328:Drivers/lvgl/lvgl/src/widgets/../core/lv_obj_style_gen.h ****     return v.color;
 329:Drivers/lvgl/lvgl/src/widgets/../core/lv_obj_style_gen.h **** }
 330:Drivers/lvgl/lvgl/src/widgets/../core/lv_obj_style_gen.h **** 
 331:Drivers/lvgl/lvgl/src/widgets/../core/lv_obj_style_gen.h **** static inline lv_color_t lv_obj_get_style_shadow_color_filtered(const struct _lv_obj_t * obj, uint3
 332:Drivers/lvgl/lvgl/src/widgets/../core/lv_obj_style_gen.h **** {
ARM GAS  /tmp/ccFZiBLS.s 			page 31


 333:Drivers/lvgl/lvgl/src/widgets/../core/lv_obj_style_gen.h ****     lv_style_value_t v = _lv_obj_style_apply_color_filter(obj, part, lv_obj_get_style_prop(obj, par
 334:Drivers/lvgl/lvgl/src/widgets/../core/lv_obj_style_gen.h ****     return v.color;
 335:Drivers/lvgl/lvgl/src/widgets/../core/lv_obj_style_gen.h **** }
 336:Drivers/lvgl/lvgl/src/widgets/../core/lv_obj_style_gen.h **** 
 337:Drivers/lvgl/lvgl/src/widgets/../core/lv_obj_style_gen.h **** static inline lv_opa_t lv_obj_get_style_shadow_opa(const struct _lv_obj_t * obj, uint32_t part)
 338:Drivers/lvgl/lvgl/src/widgets/../core/lv_obj_style_gen.h **** {
 339:Drivers/lvgl/lvgl/src/widgets/../core/lv_obj_style_gen.h ****     lv_style_value_t v = lv_obj_get_style_prop(obj, part, LV_STYLE_SHADOW_OPA);
 340:Drivers/lvgl/lvgl/src/widgets/../core/lv_obj_style_gen.h ****     return (lv_opa_t)v.num;
 341:Drivers/lvgl/lvgl/src/widgets/../core/lv_obj_style_gen.h **** }
 342:Drivers/lvgl/lvgl/src/widgets/../core/lv_obj_style_gen.h **** 
 343:Drivers/lvgl/lvgl/src/widgets/../core/lv_obj_style_gen.h **** static inline lv_opa_t lv_obj_get_style_img_opa(const struct _lv_obj_t * obj, uint32_t part)
 344:Drivers/lvgl/lvgl/src/widgets/../core/lv_obj_style_gen.h **** {
 345:Drivers/lvgl/lvgl/src/widgets/../core/lv_obj_style_gen.h ****     lv_style_value_t v = lv_obj_get_style_prop(obj, part, LV_STYLE_IMG_OPA);
 346:Drivers/lvgl/lvgl/src/widgets/../core/lv_obj_style_gen.h ****     return (lv_opa_t)v.num;
 347:Drivers/lvgl/lvgl/src/widgets/../core/lv_obj_style_gen.h **** }
 348:Drivers/lvgl/lvgl/src/widgets/../core/lv_obj_style_gen.h **** 
 349:Drivers/lvgl/lvgl/src/widgets/../core/lv_obj_style_gen.h **** static inline lv_color_t lv_obj_get_style_img_recolor(const struct _lv_obj_t * obj, uint32_t part)
 350:Drivers/lvgl/lvgl/src/widgets/../core/lv_obj_style_gen.h **** {
 351:Drivers/lvgl/lvgl/src/widgets/../core/lv_obj_style_gen.h ****     lv_style_value_t v = lv_obj_get_style_prop(obj, part, LV_STYLE_IMG_RECOLOR);
 352:Drivers/lvgl/lvgl/src/widgets/../core/lv_obj_style_gen.h ****     return v.color;
 353:Drivers/lvgl/lvgl/src/widgets/../core/lv_obj_style_gen.h **** }
 354:Drivers/lvgl/lvgl/src/widgets/../core/lv_obj_style_gen.h **** 
 355:Drivers/lvgl/lvgl/src/widgets/../core/lv_obj_style_gen.h **** static inline lv_color_t lv_obj_get_style_img_recolor_filtered(const struct _lv_obj_t * obj, uint32
 356:Drivers/lvgl/lvgl/src/widgets/../core/lv_obj_style_gen.h **** {
 357:Drivers/lvgl/lvgl/src/widgets/../core/lv_obj_style_gen.h ****     lv_style_value_t v = _lv_obj_style_apply_color_filter(obj, part, lv_obj_get_style_prop(obj, par
 358:Drivers/lvgl/lvgl/src/widgets/../core/lv_obj_style_gen.h ****     return v.color;
 359:Drivers/lvgl/lvgl/src/widgets/../core/lv_obj_style_gen.h **** }
 360:Drivers/lvgl/lvgl/src/widgets/../core/lv_obj_style_gen.h **** 
 361:Drivers/lvgl/lvgl/src/widgets/../core/lv_obj_style_gen.h **** static inline lv_opa_t lv_obj_get_style_img_recolor_opa(const struct _lv_obj_t * obj, uint32_t part
 362:Drivers/lvgl/lvgl/src/widgets/../core/lv_obj_style_gen.h **** {
 363:Drivers/lvgl/lvgl/src/widgets/../core/lv_obj_style_gen.h ****     lv_style_value_t v = lv_obj_get_style_prop(obj, part, LV_STYLE_IMG_RECOLOR_OPA);
 364:Drivers/lvgl/lvgl/src/widgets/../core/lv_obj_style_gen.h ****     return (lv_opa_t)v.num;
 365:Drivers/lvgl/lvgl/src/widgets/../core/lv_obj_style_gen.h **** }
 366:Drivers/lvgl/lvgl/src/widgets/../core/lv_obj_style_gen.h **** 
 367:Drivers/lvgl/lvgl/src/widgets/../core/lv_obj_style_gen.h **** static inline lv_coord_t lv_obj_get_style_line_width(const struct _lv_obj_t * obj, uint32_t part)
 368:Drivers/lvgl/lvgl/src/widgets/../core/lv_obj_style_gen.h **** {
 369:Drivers/lvgl/lvgl/src/widgets/../core/lv_obj_style_gen.h ****     lv_style_value_t v = lv_obj_get_style_prop(obj, part, LV_STYLE_LINE_WIDTH);
 370:Drivers/lvgl/lvgl/src/widgets/../core/lv_obj_style_gen.h ****     return (lv_coord_t)v.num;
 371:Drivers/lvgl/lvgl/src/widgets/../core/lv_obj_style_gen.h **** }
 372:Drivers/lvgl/lvgl/src/widgets/../core/lv_obj_style_gen.h **** 
 373:Drivers/lvgl/lvgl/src/widgets/../core/lv_obj_style_gen.h **** static inline lv_coord_t lv_obj_get_style_line_dash_width(const struct _lv_obj_t * obj, uint32_t pa
 374:Drivers/lvgl/lvgl/src/widgets/../core/lv_obj_style_gen.h **** {
 375:Drivers/lvgl/lvgl/src/widgets/../core/lv_obj_style_gen.h ****     lv_style_value_t v = lv_obj_get_style_prop(obj, part, LV_STYLE_LINE_DASH_WIDTH);
 376:Drivers/lvgl/lvgl/src/widgets/../core/lv_obj_style_gen.h ****     return (lv_coord_t)v.num;
 377:Drivers/lvgl/lvgl/src/widgets/../core/lv_obj_style_gen.h **** }
 378:Drivers/lvgl/lvgl/src/widgets/../core/lv_obj_style_gen.h **** 
 379:Drivers/lvgl/lvgl/src/widgets/../core/lv_obj_style_gen.h **** static inline lv_coord_t lv_obj_get_style_line_dash_gap(const struct _lv_obj_t * obj, uint32_t part
 380:Drivers/lvgl/lvgl/src/widgets/../core/lv_obj_style_gen.h **** {
 381:Drivers/lvgl/lvgl/src/widgets/../core/lv_obj_style_gen.h ****     lv_style_value_t v = lv_obj_get_style_prop(obj, part, LV_STYLE_LINE_DASH_GAP);
 382:Drivers/lvgl/lvgl/src/widgets/../core/lv_obj_style_gen.h ****     return (lv_coord_t)v.num;
 383:Drivers/lvgl/lvgl/src/widgets/../core/lv_obj_style_gen.h **** }
 384:Drivers/lvgl/lvgl/src/widgets/../core/lv_obj_style_gen.h **** 
 385:Drivers/lvgl/lvgl/src/widgets/../core/lv_obj_style_gen.h **** static inline bool lv_obj_get_style_line_rounded(const struct _lv_obj_t * obj, uint32_t part)
 386:Drivers/lvgl/lvgl/src/widgets/../core/lv_obj_style_gen.h **** {
 387:Drivers/lvgl/lvgl/src/widgets/../core/lv_obj_style_gen.h ****     lv_style_value_t v = lv_obj_get_style_prop(obj, part, LV_STYLE_LINE_ROUNDED);
 388:Drivers/lvgl/lvgl/src/widgets/../core/lv_obj_style_gen.h ****     return (bool)v.num;
 389:Drivers/lvgl/lvgl/src/widgets/../core/lv_obj_style_gen.h **** }
ARM GAS  /tmp/ccFZiBLS.s 			page 32


 390:Drivers/lvgl/lvgl/src/widgets/../core/lv_obj_style_gen.h **** 
 391:Drivers/lvgl/lvgl/src/widgets/../core/lv_obj_style_gen.h **** static inline lv_color_t lv_obj_get_style_line_color(const struct _lv_obj_t * obj, uint32_t part)
 392:Drivers/lvgl/lvgl/src/widgets/../core/lv_obj_style_gen.h **** {
 393:Drivers/lvgl/lvgl/src/widgets/../core/lv_obj_style_gen.h ****     lv_style_value_t v = lv_obj_get_style_prop(obj, part, LV_STYLE_LINE_COLOR);
 394:Drivers/lvgl/lvgl/src/widgets/../core/lv_obj_style_gen.h ****     return v.color;
 395:Drivers/lvgl/lvgl/src/widgets/../core/lv_obj_style_gen.h **** }
 396:Drivers/lvgl/lvgl/src/widgets/../core/lv_obj_style_gen.h **** 
 397:Drivers/lvgl/lvgl/src/widgets/../core/lv_obj_style_gen.h **** static inline lv_color_t lv_obj_get_style_line_color_filtered(const struct _lv_obj_t * obj, uint32_
 398:Drivers/lvgl/lvgl/src/widgets/../core/lv_obj_style_gen.h **** {
 399:Drivers/lvgl/lvgl/src/widgets/../core/lv_obj_style_gen.h ****     lv_style_value_t v = _lv_obj_style_apply_color_filter(obj, part, lv_obj_get_style_prop(obj, par
 400:Drivers/lvgl/lvgl/src/widgets/../core/lv_obj_style_gen.h ****     return v.color;
 401:Drivers/lvgl/lvgl/src/widgets/../core/lv_obj_style_gen.h **** }
 402:Drivers/lvgl/lvgl/src/widgets/../core/lv_obj_style_gen.h **** 
 403:Drivers/lvgl/lvgl/src/widgets/../core/lv_obj_style_gen.h **** static inline lv_opa_t lv_obj_get_style_line_opa(const struct _lv_obj_t * obj, uint32_t part)
 404:Drivers/lvgl/lvgl/src/widgets/../core/lv_obj_style_gen.h **** {
 405:Drivers/lvgl/lvgl/src/widgets/../core/lv_obj_style_gen.h ****     lv_style_value_t v = lv_obj_get_style_prop(obj, part, LV_STYLE_LINE_OPA);
 406:Drivers/lvgl/lvgl/src/widgets/../core/lv_obj_style_gen.h ****     return (lv_opa_t)v.num;
 407:Drivers/lvgl/lvgl/src/widgets/../core/lv_obj_style_gen.h **** }
 408:Drivers/lvgl/lvgl/src/widgets/../core/lv_obj_style_gen.h **** 
 409:Drivers/lvgl/lvgl/src/widgets/../core/lv_obj_style_gen.h **** static inline lv_coord_t lv_obj_get_style_arc_width(const struct _lv_obj_t * obj, uint32_t part)
 410:Drivers/lvgl/lvgl/src/widgets/../core/lv_obj_style_gen.h **** {
 411:Drivers/lvgl/lvgl/src/widgets/../core/lv_obj_style_gen.h ****     lv_style_value_t v = lv_obj_get_style_prop(obj, part, LV_STYLE_ARC_WIDTH);
 412:Drivers/lvgl/lvgl/src/widgets/../core/lv_obj_style_gen.h ****     return (lv_coord_t)v.num;
 413:Drivers/lvgl/lvgl/src/widgets/../core/lv_obj_style_gen.h **** }
 414:Drivers/lvgl/lvgl/src/widgets/../core/lv_obj_style_gen.h **** 
 415:Drivers/lvgl/lvgl/src/widgets/../core/lv_obj_style_gen.h **** static inline bool lv_obj_get_style_arc_rounded(const struct _lv_obj_t * obj, uint32_t part)
 416:Drivers/lvgl/lvgl/src/widgets/../core/lv_obj_style_gen.h **** {
 417:Drivers/lvgl/lvgl/src/widgets/../core/lv_obj_style_gen.h ****     lv_style_value_t v = lv_obj_get_style_prop(obj, part, LV_STYLE_ARC_ROUNDED);
 418:Drivers/lvgl/lvgl/src/widgets/../core/lv_obj_style_gen.h ****     return (bool)v.num;
 419:Drivers/lvgl/lvgl/src/widgets/../core/lv_obj_style_gen.h **** }
 420:Drivers/lvgl/lvgl/src/widgets/../core/lv_obj_style_gen.h **** 
 421:Drivers/lvgl/lvgl/src/widgets/../core/lv_obj_style_gen.h **** static inline lv_color_t lv_obj_get_style_arc_color(const struct _lv_obj_t * obj, uint32_t part)
 422:Drivers/lvgl/lvgl/src/widgets/../core/lv_obj_style_gen.h **** {
 423:Drivers/lvgl/lvgl/src/widgets/../core/lv_obj_style_gen.h ****     lv_style_value_t v = lv_obj_get_style_prop(obj, part, LV_STYLE_ARC_COLOR);
 424:Drivers/lvgl/lvgl/src/widgets/../core/lv_obj_style_gen.h ****     return v.color;
 425:Drivers/lvgl/lvgl/src/widgets/../core/lv_obj_style_gen.h **** }
 426:Drivers/lvgl/lvgl/src/widgets/../core/lv_obj_style_gen.h **** 
 427:Drivers/lvgl/lvgl/src/widgets/../core/lv_obj_style_gen.h **** static inline lv_color_t lv_obj_get_style_arc_color_filtered(const struct _lv_obj_t * obj, uint32_t
 428:Drivers/lvgl/lvgl/src/widgets/../core/lv_obj_style_gen.h **** {
 429:Drivers/lvgl/lvgl/src/widgets/../core/lv_obj_style_gen.h ****     lv_style_value_t v = _lv_obj_style_apply_color_filter(obj, part, lv_obj_get_style_prop(obj, par
 430:Drivers/lvgl/lvgl/src/widgets/../core/lv_obj_style_gen.h ****     return v.color;
 431:Drivers/lvgl/lvgl/src/widgets/../core/lv_obj_style_gen.h **** }
 432:Drivers/lvgl/lvgl/src/widgets/../core/lv_obj_style_gen.h **** 
 433:Drivers/lvgl/lvgl/src/widgets/../core/lv_obj_style_gen.h **** static inline lv_opa_t lv_obj_get_style_arc_opa(const struct _lv_obj_t * obj, uint32_t part)
 434:Drivers/lvgl/lvgl/src/widgets/../core/lv_obj_style_gen.h **** {
 435:Drivers/lvgl/lvgl/src/widgets/../core/lv_obj_style_gen.h ****     lv_style_value_t v = lv_obj_get_style_prop(obj, part, LV_STYLE_ARC_OPA);
 436:Drivers/lvgl/lvgl/src/widgets/../core/lv_obj_style_gen.h ****     return (lv_opa_t)v.num;
 437:Drivers/lvgl/lvgl/src/widgets/../core/lv_obj_style_gen.h **** }
 438:Drivers/lvgl/lvgl/src/widgets/../core/lv_obj_style_gen.h **** 
 439:Drivers/lvgl/lvgl/src/widgets/../core/lv_obj_style_gen.h **** static inline const void * lv_obj_get_style_arc_img_src(const struct _lv_obj_t * obj, uint32_t part
 440:Drivers/lvgl/lvgl/src/widgets/../core/lv_obj_style_gen.h **** {
 441:Drivers/lvgl/lvgl/src/widgets/../core/lv_obj_style_gen.h ****     lv_style_value_t v = lv_obj_get_style_prop(obj, part, LV_STYLE_ARC_IMG_SRC);
 442:Drivers/lvgl/lvgl/src/widgets/../core/lv_obj_style_gen.h ****     return (const void *)v.ptr;
 443:Drivers/lvgl/lvgl/src/widgets/../core/lv_obj_style_gen.h **** }
 444:Drivers/lvgl/lvgl/src/widgets/../core/lv_obj_style_gen.h **** 
 445:Drivers/lvgl/lvgl/src/widgets/../core/lv_obj_style_gen.h **** static inline lv_color_t lv_obj_get_style_text_color(const struct _lv_obj_t * obj, uint32_t part)
 446:Drivers/lvgl/lvgl/src/widgets/../core/lv_obj_style_gen.h **** {
ARM GAS  /tmp/ccFZiBLS.s 			page 33


 447:Drivers/lvgl/lvgl/src/widgets/../core/lv_obj_style_gen.h ****     lv_style_value_t v = lv_obj_get_style_prop(obj, part, LV_STYLE_TEXT_COLOR);
 448:Drivers/lvgl/lvgl/src/widgets/../core/lv_obj_style_gen.h ****     return v.color;
 449:Drivers/lvgl/lvgl/src/widgets/../core/lv_obj_style_gen.h **** }
 450:Drivers/lvgl/lvgl/src/widgets/../core/lv_obj_style_gen.h **** 
 451:Drivers/lvgl/lvgl/src/widgets/../core/lv_obj_style_gen.h **** static inline lv_color_t lv_obj_get_style_text_color_filtered(const struct _lv_obj_t * obj, uint32_
 452:Drivers/lvgl/lvgl/src/widgets/../core/lv_obj_style_gen.h **** {
 453:Drivers/lvgl/lvgl/src/widgets/../core/lv_obj_style_gen.h ****     lv_style_value_t v = _lv_obj_style_apply_color_filter(obj, part, lv_obj_get_style_prop(obj, par
 454:Drivers/lvgl/lvgl/src/widgets/../core/lv_obj_style_gen.h ****     return v.color;
 455:Drivers/lvgl/lvgl/src/widgets/../core/lv_obj_style_gen.h **** }
 456:Drivers/lvgl/lvgl/src/widgets/../core/lv_obj_style_gen.h **** 
 457:Drivers/lvgl/lvgl/src/widgets/../core/lv_obj_style_gen.h **** static inline lv_opa_t lv_obj_get_style_text_opa(const struct _lv_obj_t * obj, uint32_t part)
 458:Drivers/lvgl/lvgl/src/widgets/../core/lv_obj_style_gen.h **** {
 459:Drivers/lvgl/lvgl/src/widgets/../core/lv_obj_style_gen.h ****     lv_style_value_t v = lv_obj_get_style_prop(obj, part, LV_STYLE_TEXT_OPA);
 460:Drivers/lvgl/lvgl/src/widgets/../core/lv_obj_style_gen.h ****     return (lv_opa_t)v.num;
 461:Drivers/lvgl/lvgl/src/widgets/../core/lv_obj_style_gen.h **** }
 462:Drivers/lvgl/lvgl/src/widgets/../core/lv_obj_style_gen.h **** 
 463:Drivers/lvgl/lvgl/src/widgets/../core/lv_obj_style_gen.h **** static inline const lv_font_t * lv_obj_get_style_text_font(const struct _lv_obj_t * obj, uint32_t p
 464:Drivers/lvgl/lvgl/src/widgets/../core/lv_obj_style_gen.h **** {
 465:Drivers/lvgl/lvgl/src/widgets/../core/lv_obj_style_gen.h ****     lv_style_value_t v = lv_obj_get_style_prop(obj, part, LV_STYLE_TEXT_FONT);
 466:Drivers/lvgl/lvgl/src/widgets/../core/lv_obj_style_gen.h ****     return (const lv_font_t *)v.ptr;
 467:Drivers/lvgl/lvgl/src/widgets/../core/lv_obj_style_gen.h **** }
 468:Drivers/lvgl/lvgl/src/widgets/../core/lv_obj_style_gen.h **** 
 469:Drivers/lvgl/lvgl/src/widgets/../core/lv_obj_style_gen.h **** static inline lv_coord_t lv_obj_get_style_text_letter_space(const struct _lv_obj_t * obj, uint32_t 
 470:Drivers/lvgl/lvgl/src/widgets/../core/lv_obj_style_gen.h **** {
 471:Drivers/lvgl/lvgl/src/widgets/../core/lv_obj_style_gen.h ****     lv_style_value_t v = lv_obj_get_style_prop(obj, part, LV_STYLE_TEXT_LETTER_SPACE);
 341              		.loc 3 471 0
 342 0048 5822     		movs	r2, #88
 343 004a 4FF4A021 		mov	r1, #327680
 344 004e 2846     		mov	r0, r5
 345 0050 FFF7FEFF 		bl	lv_obj_get_style_prop
 346              	.LVL53:
 472:Drivers/lvgl/lvgl/src/widgets/../core/lv_obj_style_gen.h ****     return (lv_coord_t)v.num;
 347              		.loc 3 472 0
 348 0054 03B2     		sxth	r3, r0
 349 0056 0893     		str	r3, [sp, #32]
 350              	.LVL54:
 351              	.LBE132:
 352              	.LBE131:
 353              	.LBB133:
 354              	.LBB134:
 473:Drivers/lvgl/lvgl/src/widgets/../core/lv_obj_style_gen.h **** }
 474:Drivers/lvgl/lvgl/src/widgets/../core/lv_obj_style_gen.h **** 
 475:Drivers/lvgl/lvgl/src/widgets/../core/lv_obj_style_gen.h **** static inline lv_coord_t lv_obj_get_style_text_line_space(const struct _lv_obj_t * obj, uint32_t pa
 476:Drivers/lvgl/lvgl/src/widgets/../core/lv_obj_style_gen.h **** {
 477:Drivers/lvgl/lvgl/src/widgets/../core/lv_obj_style_gen.h ****     lv_style_value_t v = lv_obj_get_style_prop(obj, part, LV_STYLE_TEXT_LINE_SPACE);
 355              		.loc 3 477 0
 356 0058 5922     		movs	r2, #89
 357 005a 4FF4A021 		mov	r1, #327680
 358 005e 2846     		mov	r0, r5
 359 0060 FFF7FEFF 		bl	lv_obj_get_style_prop
 360              	.LVL55:
 478:Drivers/lvgl/lvgl/src/widgets/../core/lv_obj_style_gen.h ****     return (lv_coord_t)v.num;
 361              		.loc 3 478 0
 362 0064 07B2     		sxth	r7, r0
 363              	.LVL56:
 364              	.LBE134:
 365              	.LBE133:
ARM GAS  /tmp/ccFZiBLS.s 			page 34


 366              	.LBB135:
 367              	.LBB136:
 465:Drivers/lvgl/lvgl/src/widgets/../core/lv_obj_style_gen.h ****     return (const lv_font_t *)v.ptr;
 368              		.loc 3 465 0
 369 0066 5722     		movs	r2, #87
 370 0068 4FF4A021 		mov	r1, #327680
 371 006c 2846     		mov	r0, r5
 372 006e FFF7FEFF 		bl	lv_obj_get_style_prop
 373              	.LVL57:
 374 0072 0790     		str	r0, [sp, #28]
 375              	.LVL58:
 376              	.LBE136:
 377              	.LBE135:
 378              	.LBB137:
 379              	.LBB138:
  27:Drivers/lvgl/lvgl/src/widgets/../core/lv_obj_style_gen.h ****     return (lv_coord_t)v.num;
 380              		.loc 3 27 0
 381 0074 0522     		movs	r2, #5
 382 0076 4FF4A021 		mov	r1, #327680
 383 007a 2846     		mov	r0, r5
 384 007c FFF7FEFF 		bl	lv_obj_get_style_prop
 385              	.LVL59:
  28:Drivers/lvgl/lvgl/src/widgets/../core/lv_obj_style_gen.h **** }
 386              		.loc 3 28 0
 387 0080 0FFA80F8 		sxth	r8, r0
 388              	.LVL60:
 389              	.LBE138:
 390              	.LBE137:
 391              	.LBB139:
 392              	.LBB140:
  33:Drivers/lvgl/lvgl/src/widgets/../core/lv_obj_style_gen.h ****     return (lv_coord_t)v.num;
 393              		.loc 3 33 0
 394 0084 0622     		movs	r2, #6
 395 0086 4FF4A021 		mov	r1, #327680
 396 008a 2846     		mov	r0, r5
 397 008c FFF7FEFF 		bl	lv_obj_get_style_prop
 398              	.LVL61:
  34:Drivers/lvgl/lvgl/src/widgets/../core/lv_obj_style_gen.h **** }
 399              		.loc 3 34 0
 400 0090 06B2     		sxth	r6, r0
 401              	.LVL62:
 402              	.LBE140:
 403              	.LBE139:
 789:Drivers/lvgl/lvgl/src/widgets/lv_table.c ****         lv_coord_t calculated_height = get_row_height(obj, i, font, letter_space, line_space,
 404              		.loc 1 789 0
 405 0092 19E0     		b	.L12
 406              	.LVL63:
 407              	.L13:
 408              	.LBB141:
 790:Drivers/lvgl/lvgl/src/widgets/lv_table.c ****                                                       cell_pad_left, cell_pad_right, cell_pad_top, 
 409              		.loc 1 790 0 discriminator 3
 410 0094 099B     		ldr	r3, [sp, #36]
 411 0096 0493     		str	r3, [sp, #16]
 412 0098 CDF80C90 		str	r9, [sp, #12]
 413 009c CDF808A0 		str	r10, [sp, #8]
 414 00a0 CDF804B0 		str	fp, [sp, #4]
 415 00a4 0097     		str	r7, [sp]
ARM GAS  /tmp/ccFZiBLS.s 			page 35


 416 00a6 089B     		ldr	r3, [sp, #32]
 417 00a8 079A     		ldr	r2, [sp, #28]
 418 00aa A1B2     		uxth	r1, r4
 419 00ac 2846     		mov	r0, r5
 420 00ae FFF7FEFF 		bl	get_row_height
 421              	.LVL64:
 792:Drivers/lvgl/lvgl/src/widgets/lv_table.c ****     }
 422              		.loc 1 792 0 discriminator 3
 423 00b2 B042     		cmp	r0, r6
 424 00b4 A8BF     		it	ge
 425 00b6 3046     		movge	r0, r6
 426              	.LVL65:
 427 00b8 00B2     		sxth	r0, r0
 428 00ba EB6A     		ldr	r3, [r5, #44]
 429 00bc 4045     		cmp	r0, r8
 430 00be B8BF     		it	lt
 431 00c0 4046     		movlt	r0, r8
 432 00c2 23F81400 		strh	r0, [r3, r4, lsl #1]	@ movhi
 433              	.LBE141:
 789:Drivers/lvgl/lvgl/src/widgets/lv_table.c ****         lv_coord_t calculated_height = get_row_height(obj, i, font, letter_space, line_space,
 434              		.loc 1 789 0 discriminator 3
 435 00c6 0134     		adds	r4, r4, #1
 436              	.LVL66:
 437              	.L12:
 789:Drivers/lvgl/lvgl/src/widgets/lv_table.c ****         lv_coord_t calculated_height = get_row_height(obj, i, font, letter_space, line_space,
 438              		.loc 1 789 0 is_stmt 0 discriminator 1
 439 00c8 EB8C     		ldrh	r3, [r5, #38]
 440 00ca A342     		cmp	r3, r4
 441 00cc E2D8     		bhi	.L13
 795:Drivers/lvgl/lvgl/src/widgets/lv_table.c ****     lv_obj_invalidate(obj);
 442              		.loc 1 795 0 is_stmt 1
 443 00ce 2846     		mov	r0, r5
 444 00d0 FFF7FEFF 		bl	lv_obj_refresh_self_size
 445              	.LVL67:
 796:Drivers/lvgl/lvgl/src/widgets/lv_table.c **** }
 446              		.loc 1 796 0
 447 00d4 2846     		mov	r0, r5
 448 00d6 FFF7FEFF 		bl	lv_obj_invalidate
 449              	.LVL68:
 797:Drivers/lvgl/lvgl/src/widgets/lv_table.c **** 
 450              		.loc 1 797 0
 451 00da 0BB0     		add	sp, sp, #44
 452              	.LCFI5:
 453              		.cfi_def_cfa_offset 36
 454              		@ sp needed
 455 00dc BDE8F08F 		pop	{r4, r5, r6, r7, r8, r9, r10, fp, pc}
 456              		.cfi_endproc
 457              	.LFE178:
 459              		.section	.text.get_pressed_cell,"ax",%progbits
 460              		.align	1
 461              		.syntax unified
 462              		.thumb
 463              		.thumb_func
 464              		.fpu fpv5-d16
 466              	get_pressed_cell:
 467              	.LFB181:
 898:Drivers/lvgl/lvgl/src/widgets/lv_table.c **** 
ARM GAS  /tmp/ccFZiBLS.s 			page 36


 899:Drivers/lvgl/lvgl/src/widgets/lv_table.c **** static lv_res_t get_pressed_cell(lv_obj_t * obj, uint16_t * row, uint16_t * col)
 900:Drivers/lvgl/lvgl/src/widgets/lv_table.c **** {
 468              		.loc 1 900 0
 469              		.cfi_startproc
 470              		@ args = 0, pretend = 0, frame = 8
 471              		@ frame_needed = 0, uses_anonymous_args = 0
 472              	.LVL69:
 473 0000 2DE9F041 		push	{r4, r5, r6, r7, r8, lr}
 474              	.LCFI6:
 475              		.cfi_def_cfa_offset 24
 476              		.cfi_offset 4, -24
 477              		.cfi_offset 5, -20
 478              		.cfi_offset 6, -16
 479              		.cfi_offset 7, -12
 480              		.cfi_offset 8, -8
 481              		.cfi_offset 14, -4
 482 0004 82B0     		sub	sp, sp, #8
 483              	.LCFI7:
 484              		.cfi_def_cfa_offset 32
 485 0006 0446     		mov	r4, r0
 486 0008 0D46     		mov	r5, r1
 487 000a 1646     		mov	r6, r2
 488              	.LVL70:
 901:Drivers/lvgl/lvgl/src/widgets/lv_table.c ****     lv_table_t * table = (lv_table_t *)obj;
 902:Drivers/lvgl/lvgl/src/widgets/lv_table.c **** 
 903:Drivers/lvgl/lvgl/src/widgets/lv_table.c ****     lv_indev_type_t type = lv_indev_get_type(lv_indev_get_act());
 489              		.loc 1 903 0
 490 000c FFF7FEFF 		bl	lv_indev_get_act
 491              	.LVL71:
 492 0010 FFF7FEFF 		bl	lv_indev_get_type
 493              	.LVL72:
 904:Drivers/lvgl/lvgl/src/widgets/lv_table.c ****     if(type != LV_INDEV_TYPE_POINTER && type != LV_INDEV_TYPE_BUTTON) {
 494              		.loc 1 904 0
 495 0014 0128     		cmp	r0, #1
 496 0016 18BF     		it	ne
 497 0018 0328     		cmpne	r0, #3
 498 001a 0CD0     		beq	.L16
 905:Drivers/lvgl/lvgl/src/widgets/lv_table.c ****         if(col) *col = LV_TABLE_CELL_NONE;
 499              		.loc 1 905 0
 500 001c 16B1     		cbz	r6, .L17
 501              		.loc 1 905 0 is_stmt 0 discriminator 1
 502 001e 4FF6FF73 		movw	r3, #65535
 503 0022 3380     		strh	r3, [r6]	@ movhi
 504              	.L17:
 906:Drivers/lvgl/lvgl/src/widgets/lv_table.c ****         if(row) *row = LV_TABLE_CELL_NONE;
 505              		.loc 1 906 0 is_stmt 1
 506 0024 002D     		cmp	r5, #0
 507 0026 6CD0     		beq	.L26
 508              		.loc 1 906 0 is_stmt 0 discriminator 1
 509 0028 4FF6FF73 		movw	r3, #65535
 510 002c 2B80     		strh	r3, [r5]	@ movhi
 907:Drivers/lvgl/lvgl/src/widgets/lv_table.c ****         return LV_RES_INV;
 511              		.loc 1 907 0 is_stmt 1 discriminator 1
 512 002e 0020     		movs	r0, #0
 513              	.LVL73:
 514              	.L18:
 908:Drivers/lvgl/lvgl/src/widgets/lv_table.c ****     }
ARM GAS  /tmp/ccFZiBLS.s 			page 37


 909:Drivers/lvgl/lvgl/src/widgets/lv_table.c **** 
 910:Drivers/lvgl/lvgl/src/widgets/lv_table.c ****     lv_point_t p;
 911:Drivers/lvgl/lvgl/src/widgets/lv_table.c ****     lv_indev_get_point(lv_indev_get_act(), &p);
 912:Drivers/lvgl/lvgl/src/widgets/lv_table.c **** 
 913:Drivers/lvgl/lvgl/src/widgets/lv_table.c ****     lv_coord_t tmp;
 914:Drivers/lvgl/lvgl/src/widgets/lv_table.c ****     if(col) {
 915:Drivers/lvgl/lvgl/src/widgets/lv_table.c ****         lv_coord_t x = p.x + lv_obj_get_scroll_x(obj);
 916:Drivers/lvgl/lvgl/src/widgets/lv_table.c **** 
 917:Drivers/lvgl/lvgl/src/widgets/lv_table.c ****         if(lv_obj_get_style_base_dir(obj, LV_PART_MAIN) == LV_BASE_DIR_RTL) {
 918:Drivers/lvgl/lvgl/src/widgets/lv_table.c ****             x = obj->coords.x2 - lv_obj_get_style_pad_right(obj, LV_PART_MAIN) - x;
 919:Drivers/lvgl/lvgl/src/widgets/lv_table.c ****         }
 920:Drivers/lvgl/lvgl/src/widgets/lv_table.c ****         else {
 921:Drivers/lvgl/lvgl/src/widgets/lv_table.c ****             x -= obj->coords.x1;
 922:Drivers/lvgl/lvgl/src/widgets/lv_table.c ****             x -= lv_obj_get_style_pad_left(obj, LV_PART_MAIN);
 923:Drivers/lvgl/lvgl/src/widgets/lv_table.c ****         }
 924:Drivers/lvgl/lvgl/src/widgets/lv_table.c **** 
 925:Drivers/lvgl/lvgl/src/widgets/lv_table.c ****         *col = 0;
 926:Drivers/lvgl/lvgl/src/widgets/lv_table.c ****         tmp = 0;
 927:Drivers/lvgl/lvgl/src/widgets/lv_table.c ****         for(*col = 0; *col < table->col_cnt; (*col)++) {
 928:Drivers/lvgl/lvgl/src/widgets/lv_table.c ****             tmp += table->col_w[*col];
 929:Drivers/lvgl/lvgl/src/widgets/lv_table.c ****             if(x < tmp) break;
 930:Drivers/lvgl/lvgl/src/widgets/lv_table.c ****         }
 931:Drivers/lvgl/lvgl/src/widgets/lv_table.c ****     }
 932:Drivers/lvgl/lvgl/src/widgets/lv_table.c **** 
 933:Drivers/lvgl/lvgl/src/widgets/lv_table.c ****     if(row) {
 934:Drivers/lvgl/lvgl/src/widgets/lv_table.c ****         lv_coord_t y = p.y + lv_obj_get_scroll_y(obj);;
 935:Drivers/lvgl/lvgl/src/widgets/lv_table.c ****         y -= obj->coords.y1;
 936:Drivers/lvgl/lvgl/src/widgets/lv_table.c ****         y -= lv_obj_get_style_pad_top(obj, LV_PART_MAIN);
 937:Drivers/lvgl/lvgl/src/widgets/lv_table.c **** 
 938:Drivers/lvgl/lvgl/src/widgets/lv_table.c ****         *row = 0;
 939:Drivers/lvgl/lvgl/src/widgets/lv_table.c ****         tmp = 0;
 940:Drivers/lvgl/lvgl/src/widgets/lv_table.c **** 
 941:Drivers/lvgl/lvgl/src/widgets/lv_table.c ****         for(*row = 0; *row < table->row_cnt; (*row)++) {
 942:Drivers/lvgl/lvgl/src/widgets/lv_table.c ****             tmp += table->row_h[*row];
 943:Drivers/lvgl/lvgl/src/widgets/lv_table.c ****             if(y < tmp) break;
 944:Drivers/lvgl/lvgl/src/widgets/lv_table.c ****         }
 945:Drivers/lvgl/lvgl/src/widgets/lv_table.c ****     }
 946:Drivers/lvgl/lvgl/src/widgets/lv_table.c **** 
 947:Drivers/lvgl/lvgl/src/widgets/lv_table.c ****     return LV_RES_OK;
 948:Drivers/lvgl/lvgl/src/widgets/lv_table.c **** }
 515              		.loc 1 948 0
 516 0030 02B0     		add	sp, sp, #8
 517              	.LCFI8:
 518              		.cfi_remember_state
 519              		.cfi_def_cfa_offset 24
 520              		@ sp needed
 521 0032 BDE8F081 		pop	{r4, r5, r6, r7, r8, pc}
 522              	.LVL74:
 523              	.L16:
 524              	.LCFI9:
 525              		.cfi_restore_state
 911:Drivers/lvgl/lvgl/src/widgets/lv_table.c **** 
 526              		.loc 1 911 0
 527 0036 FFF7FEFF 		bl	lv_indev_get_act
 528              	.LVL75:
 529 003a 01A9     		add	r1, sp, #4
 530 003c FFF7FEFF 		bl	lv_indev_get_point
ARM GAS  /tmp/ccFZiBLS.s 			page 38


 531              	.LVL76:
 914:Drivers/lvgl/lvgl/src/widgets/lv_table.c ****         lv_coord_t x = p.x + lv_obj_get_scroll_x(obj);
 532              		.loc 1 914 0
 533 0040 002E     		cmp	r6, #0
 534 0042 38D0     		beq	.L19
 535              	.LBB142:
 915:Drivers/lvgl/lvgl/src/widgets/lv_table.c **** 
 536              		.loc 1 915 0
 537 0044 BDF80470 		ldrh	r7, [sp, #4]
 538 0048 2046     		mov	r0, r4
 539 004a FFF7FEFF 		bl	lv_obj_get_scroll_x
 540              	.LVL77:
 541 004e 17FA80F7 		uxtah	r7, r7, r0
 542 0052 BFB2     		uxth	r7, r7
 543              	.LVL78:
 544              	.LBB143:
 545              	.LBB144:
 479:Drivers/lvgl/lvgl/src/widgets/../core/lv_obj_style_gen.h **** }
 480:Drivers/lvgl/lvgl/src/widgets/../core/lv_obj_style_gen.h **** 
 481:Drivers/lvgl/lvgl/src/widgets/../core/lv_obj_style_gen.h **** static inline lv_text_decor_t lv_obj_get_style_text_decor(const struct _lv_obj_t * obj, uint32_t pa
 482:Drivers/lvgl/lvgl/src/widgets/../core/lv_obj_style_gen.h **** {
 483:Drivers/lvgl/lvgl/src/widgets/../core/lv_obj_style_gen.h ****     lv_style_value_t v = lv_obj_get_style_prop(obj, part, LV_STYLE_TEXT_DECOR);
 484:Drivers/lvgl/lvgl/src/widgets/../core/lv_obj_style_gen.h ****     return (lv_text_decor_t)v.num;
 485:Drivers/lvgl/lvgl/src/widgets/../core/lv_obj_style_gen.h **** }
 486:Drivers/lvgl/lvgl/src/widgets/../core/lv_obj_style_gen.h **** 
 487:Drivers/lvgl/lvgl/src/widgets/../core/lv_obj_style_gen.h **** static inline lv_text_align_t lv_obj_get_style_text_align(const struct _lv_obj_t * obj, uint32_t pa
 488:Drivers/lvgl/lvgl/src/widgets/../core/lv_obj_style_gen.h **** {
 489:Drivers/lvgl/lvgl/src/widgets/../core/lv_obj_style_gen.h ****     lv_style_value_t v = lv_obj_get_style_prop(obj, part, LV_STYLE_TEXT_ALIGN);
 490:Drivers/lvgl/lvgl/src/widgets/../core/lv_obj_style_gen.h ****     return (lv_text_align_t)v.num;
 491:Drivers/lvgl/lvgl/src/widgets/../core/lv_obj_style_gen.h **** }
 492:Drivers/lvgl/lvgl/src/widgets/../core/lv_obj_style_gen.h **** 
 493:Drivers/lvgl/lvgl/src/widgets/../core/lv_obj_style_gen.h **** static inline lv_coord_t lv_obj_get_style_radius(const struct _lv_obj_t * obj, uint32_t part)
 494:Drivers/lvgl/lvgl/src/widgets/../core/lv_obj_style_gen.h **** {
 495:Drivers/lvgl/lvgl/src/widgets/../core/lv_obj_style_gen.h ****     lv_style_value_t v = lv_obj_get_style_prop(obj, part, LV_STYLE_RADIUS);
 496:Drivers/lvgl/lvgl/src/widgets/../core/lv_obj_style_gen.h ****     return (lv_coord_t)v.num;
 497:Drivers/lvgl/lvgl/src/widgets/../core/lv_obj_style_gen.h **** }
 498:Drivers/lvgl/lvgl/src/widgets/../core/lv_obj_style_gen.h **** 
 499:Drivers/lvgl/lvgl/src/widgets/../core/lv_obj_style_gen.h **** static inline bool lv_obj_get_style_clip_corner(const struct _lv_obj_t * obj, uint32_t part)
 500:Drivers/lvgl/lvgl/src/widgets/../core/lv_obj_style_gen.h **** {
 501:Drivers/lvgl/lvgl/src/widgets/../core/lv_obj_style_gen.h ****     lv_style_value_t v = lv_obj_get_style_prop(obj, part, LV_STYLE_CLIP_CORNER);
 502:Drivers/lvgl/lvgl/src/widgets/../core/lv_obj_style_gen.h ****     return (bool)v.num;
 503:Drivers/lvgl/lvgl/src/widgets/../core/lv_obj_style_gen.h **** }
 504:Drivers/lvgl/lvgl/src/widgets/../core/lv_obj_style_gen.h **** 
 505:Drivers/lvgl/lvgl/src/widgets/../core/lv_obj_style_gen.h **** static inline lv_opa_t lv_obj_get_style_opa(const struct _lv_obj_t * obj, uint32_t part)
 506:Drivers/lvgl/lvgl/src/widgets/../core/lv_obj_style_gen.h **** {
 507:Drivers/lvgl/lvgl/src/widgets/../core/lv_obj_style_gen.h ****     lv_style_value_t v = lv_obj_get_style_prop(obj, part, LV_STYLE_OPA);
 508:Drivers/lvgl/lvgl/src/widgets/../core/lv_obj_style_gen.h ****     return (lv_opa_t)v.num;
 509:Drivers/lvgl/lvgl/src/widgets/../core/lv_obj_style_gen.h **** }
 510:Drivers/lvgl/lvgl/src/widgets/../core/lv_obj_style_gen.h **** 
 511:Drivers/lvgl/lvgl/src/widgets/../core/lv_obj_style_gen.h **** static inline const lv_color_filter_dsc_t * lv_obj_get_style_color_filter_dsc(const struct _lv_obj_
 512:Drivers/lvgl/lvgl/src/widgets/../core/lv_obj_style_gen.h **** {
 513:Drivers/lvgl/lvgl/src/widgets/../core/lv_obj_style_gen.h ****     lv_style_value_t v = lv_obj_get_style_prop(obj, part, LV_STYLE_COLOR_FILTER_DSC);
 514:Drivers/lvgl/lvgl/src/widgets/../core/lv_obj_style_gen.h ****     return (const lv_color_filter_dsc_t *)v.ptr;
 515:Drivers/lvgl/lvgl/src/widgets/../core/lv_obj_style_gen.h **** }
 516:Drivers/lvgl/lvgl/src/widgets/../core/lv_obj_style_gen.h **** 
 517:Drivers/lvgl/lvgl/src/widgets/../core/lv_obj_style_gen.h **** static inline lv_opa_t lv_obj_get_style_color_filter_opa(const struct _lv_obj_t * obj, uint32_t par
 518:Drivers/lvgl/lvgl/src/widgets/../core/lv_obj_style_gen.h **** {
ARM GAS  /tmp/ccFZiBLS.s 			page 39


 519:Drivers/lvgl/lvgl/src/widgets/../core/lv_obj_style_gen.h ****     lv_style_value_t v = lv_obj_get_style_prop(obj, part, LV_STYLE_COLOR_FILTER_OPA);
 520:Drivers/lvgl/lvgl/src/widgets/../core/lv_obj_style_gen.h ****     return (lv_opa_t)v.num;
 521:Drivers/lvgl/lvgl/src/widgets/../core/lv_obj_style_gen.h **** }
 522:Drivers/lvgl/lvgl/src/widgets/../core/lv_obj_style_gen.h **** 
 523:Drivers/lvgl/lvgl/src/widgets/../core/lv_obj_style_gen.h **** static inline const lv_anim_t * lv_obj_get_style_anim(const struct _lv_obj_t * obj, uint32_t part)
 524:Drivers/lvgl/lvgl/src/widgets/../core/lv_obj_style_gen.h **** {
 525:Drivers/lvgl/lvgl/src/widgets/../core/lv_obj_style_gen.h ****     lv_style_value_t v = lv_obj_get_style_prop(obj, part, LV_STYLE_ANIM);
 526:Drivers/lvgl/lvgl/src/widgets/../core/lv_obj_style_gen.h ****     return (const lv_anim_t *)v.ptr;
 527:Drivers/lvgl/lvgl/src/widgets/../core/lv_obj_style_gen.h **** }
 528:Drivers/lvgl/lvgl/src/widgets/../core/lv_obj_style_gen.h **** 
 529:Drivers/lvgl/lvgl/src/widgets/../core/lv_obj_style_gen.h **** static inline uint32_t lv_obj_get_style_anim_time(const struct _lv_obj_t * obj, uint32_t part)
 530:Drivers/lvgl/lvgl/src/widgets/../core/lv_obj_style_gen.h **** {
 531:Drivers/lvgl/lvgl/src/widgets/../core/lv_obj_style_gen.h ****     lv_style_value_t v = lv_obj_get_style_prop(obj, part, LV_STYLE_ANIM_TIME);
 532:Drivers/lvgl/lvgl/src/widgets/../core/lv_obj_style_gen.h ****     return (uint32_t)v.num;
 533:Drivers/lvgl/lvgl/src/widgets/../core/lv_obj_style_gen.h **** }
 534:Drivers/lvgl/lvgl/src/widgets/../core/lv_obj_style_gen.h **** 
 535:Drivers/lvgl/lvgl/src/widgets/../core/lv_obj_style_gen.h **** static inline uint32_t lv_obj_get_style_anim_speed(const struct _lv_obj_t * obj, uint32_t part)
 536:Drivers/lvgl/lvgl/src/widgets/../core/lv_obj_style_gen.h **** {
 537:Drivers/lvgl/lvgl/src/widgets/../core/lv_obj_style_gen.h ****     lv_style_value_t v = lv_obj_get_style_prop(obj, part, LV_STYLE_ANIM_SPEED);
 538:Drivers/lvgl/lvgl/src/widgets/../core/lv_obj_style_gen.h ****     return (uint32_t)v.num;
 539:Drivers/lvgl/lvgl/src/widgets/../core/lv_obj_style_gen.h **** }
 540:Drivers/lvgl/lvgl/src/widgets/../core/lv_obj_style_gen.h **** 
 541:Drivers/lvgl/lvgl/src/widgets/../core/lv_obj_style_gen.h **** static inline const lv_style_transition_dsc_t * lv_obj_get_style_transition(const struct _lv_obj_t 
 542:Drivers/lvgl/lvgl/src/widgets/../core/lv_obj_style_gen.h **** {
 543:Drivers/lvgl/lvgl/src/widgets/../core/lv_obj_style_gen.h ****     lv_style_value_t v = lv_obj_get_style_prop(obj, part, LV_STYLE_TRANSITION);
 544:Drivers/lvgl/lvgl/src/widgets/../core/lv_obj_style_gen.h ****     return (const lv_style_transition_dsc_t *)v.ptr;
 545:Drivers/lvgl/lvgl/src/widgets/../core/lv_obj_style_gen.h **** }
 546:Drivers/lvgl/lvgl/src/widgets/../core/lv_obj_style_gen.h **** 
 547:Drivers/lvgl/lvgl/src/widgets/../core/lv_obj_style_gen.h **** static inline lv_blend_mode_t lv_obj_get_style_blend_mode(const struct _lv_obj_t * obj, uint32_t pa
 548:Drivers/lvgl/lvgl/src/widgets/../core/lv_obj_style_gen.h **** {
 549:Drivers/lvgl/lvgl/src/widgets/../core/lv_obj_style_gen.h ****     lv_style_value_t v = lv_obj_get_style_prop(obj, part, LV_STYLE_BLEND_MODE);
 550:Drivers/lvgl/lvgl/src/widgets/../core/lv_obj_style_gen.h ****     return (lv_blend_mode_t)v.num;
 551:Drivers/lvgl/lvgl/src/widgets/../core/lv_obj_style_gen.h **** }
 552:Drivers/lvgl/lvgl/src/widgets/../core/lv_obj_style_gen.h **** 
 553:Drivers/lvgl/lvgl/src/widgets/../core/lv_obj_style_gen.h **** static inline uint16_t lv_obj_get_style_layout(const struct _lv_obj_t * obj, uint32_t part)
 554:Drivers/lvgl/lvgl/src/widgets/../core/lv_obj_style_gen.h **** {
 555:Drivers/lvgl/lvgl/src/widgets/../core/lv_obj_style_gen.h ****     lv_style_value_t v = lv_obj_get_style_prop(obj, part, LV_STYLE_LAYOUT);
 556:Drivers/lvgl/lvgl/src/widgets/../core/lv_obj_style_gen.h ****     return (uint16_t)v.num;
 557:Drivers/lvgl/lvgl/src/widgets/../core/lv_obj_style_gen.h **** }
 558:Drivers/lvgl/lvgl/src/widgets/../core/lv_obj_style_gen.h **** 
 559:Drivers/lvgl/lvgl/src/widgets/../core/lv_obj_style_gen.h **** static inline lv_base_dir_t lv_obj_get_style_base_dir(const struct _lv_obj_t * obj, uint32_t part)
 560:Drivers/lvgl/lvgl/src/widgets/../core/lv_obj_style_gen.h **** {
 561:Drivers/lvgl/lvgl/src/widgets/../core/lv_obj_style_gen.h ****     lv_style_value_t v = lv_obj_get_style_prop(obj, part, LV_STYLE_BASE_DIR);
 546              		.loc 3 561 0
 547 0054 1622     		movs	r2, #22
 548 0056 0021     		movs	r1, #0
 549 0058 2046     		mov	r0, r4
 550 005a FFF7FEFF 		bl	lv_obj_get_style_prop
 551              	.LVL79:
 562:Drivers/lvgl/lvgl/src/widgets/../core/lv_obj_style_gen.h ****     return (lv_base_dir_t)v.num;
 552              		.loc 3 562 0
 553 005e C0B2     		uxtb	r0, r0
 554              	.LVL80:
 555              	.LBE144:
 556              	.LBE143:
 917:Drivers/lvgl/lvgl/src/widgets/lv_table.c ****             x = obj->coords.x2 - lv_obj_get_style_pad_right(obj, LV_PART_MAIN) - x;
 557              		.loc 1 917 0
ARM GAS  /tmp/ccFZiBLS.s 			page 40


 558 0060 0128     		cmp	r0, #1
 559 0062 1AD0     		beq	.L30
 921:Drivers/lvgl/lvgl/src/widgets/lv_table.c ****             x -= lv_obj_get_style_pad_left(obj, LV_PART_MAIN);
 560              		.loc 1 921 0
 561 0064 A08A     		ldrh	r0, [r4, #20]
 562 0066 3F1A     		subs	r7, r7, r0
 563              	.LVL81:
 564 0068 BFB2     		uxth	r7, r7
 565              	.LVL82:
 566              	.LBB145:
 567              	.LBB146:
 117:Drivers/lvgl/lvgl/src/widgets/../core/lv_obj_style_gen.h ****     return (lv_coord_t)v.num;
 568              		.loc 3 117 0
 569 006a 1222     		movs	r2, #18
 570 006c 0021     		movs	r1, #0
 571 006e 2046     		mov	r0, r4
 572 0070 FFF7FEFF 		bl	lv_obj_get_style_prop
 573              	.LVL83:
 574              	.LBE146:
 575              	.LBE145:
 922:Drivers/lvgl/lvgl/src/widgets/lv_table.c ****         }
 576              		.loc 1 922 0
 577 0074 80B2     		uxth	r0, r0
 578 0076 381A     		subs	r0, r7, r0
 579 0078 00B2     		sxth	r0, r0
 580              	.LVL84:
 581              	.L21:
 925:Drivers/lvgl/lvgl/src/widgets/lv_table.c ****         tmp = 0;
 582              		.loc 1 925 0
 583 007a 0022     		movs	r2, #0
 584 007c 3280     		strh	r2, [r6]	@ movhi
 585              	.LVL85:
 586              	.L22:
 927:Drivers/lvgl/lvgl/src/widgets/lv_table.c ****             tmp += table->col_w[*col];
 587              		.loc 1 927 0 discriminator 1
 588 007e 3388     		ldrh	r3, [r6]
 589 0080 A18C     		ldrh	r1, [r4, #36]
 590 0082 8B42     		cmp	r3, r1
 591 0084 17D2     		bcs	.L19
 928:Drivers/lvgl/lvgl/src/widgets/lv_table.c ****             if(x < tmp) break;
 592              		.loc 1 928 0
 593 0086 216B     		ldr	r1, [r4, #48]
 594 0088 31F81310 		ldrh	r1, [r1, r3, lsl #1]
 595 008c 0A44     		add	r2, r2, r1
 596              	.LVL86:
 597 008e 12B2     		sxth	r2, r2
 598              	.LVL87:
 929:Drivers/lvgl/lvgl/src/widgets/lv_table.c ****         }
 599              		.loc 1 929 0
 600 0090 9042     		cmp	r0, r2
 601 0092 10DB     		blt	.L19
 927:Drivers/lvgl/lvgl/src/widgets/lv_table.c ****             tmp += table->col_w[*col];
 602              		.loc 1 927 0 discriminator 2
 603 0094 0133     		adds	r3, r3, #1
 604 0096 3380     		strh	r3, [r6]	@ movhi
 605 0098 F1E7     		b	.L22
 606              	.LVL88:
ARM GAS  /tmp/ccFZiBLS.s 			page 41


 607              	.L30:
 918:Drivers/lvgl/lvgl/src/widgets/lv_table.c ****         }
 608              		.loc 1 918 0
 609 009a B4F81880 		ldrh	r8, [r4, #24]
 610              	.LVL89:
 611              	.LBB147:
 612              	.LBB148:
 123:Drivers/lvgl/lvgl/src/widgets/../core/lv_obj_style_gen.h ****     return (lv_coord_t)v.num;
 613              		.loc 3 123 0
 614 009e 1322     		movs	r2, #19
 615 00a0 0021     		movs	r1, #0
 616 00a2 2046     		mov	r0, r4
 617 00a4 FFF7FEFF 		bl	lv_obj_get_style_prop
 618              	.LVL90:
 619              	.LBE148:
 620              	.LBE147:
 918:Drivers/lvgl/lvgl/src/widgets/lv_table.c ****         }
 621              		.loc 1 918 0
 622 00a8 80B2     		uxth	r0, r0
 623 00aa A8EB0000 		sub	r0, r8, r0
 624 00ae 80B2     		uxth	r0, r0
 625 00b0 C71B     		subs	r7, r0, r7
 626              	.LVL91:
 627 00b2 38B2     		sxth	r0, r7
 628              	.LVL92:
 629 00b4 E1E7     		b	.L21
 630              	.LVL93:
 631              	.L19:
 632              	.LBE142:
 933:Drivers/lvgl/lvgl/src/widgets/lv_table.c ****         lv_coord_t y = p.y + lv_obj_get_scroll_y(obj);;
 633              		.loc 1 933 0
 634 00b6 35B3     		cbz	r5, .L27
 635              	.LBB149:
 934:Drivers/lvgl/lvgl/src/widgets/lv_table.c ****         y -= obj->coords.y1;
 636              		.loc 1 934 0
 637 00b8 BDF80660 		ldrh	r6, [sp, #6]
 638              	.LVL94:
 639 00bc 2046     		mov	r0, r4
 640 00be FFF7FEFF 		bl	lv_obj_get_scroll_y
 641              	.LVL95:
 642 00c2 16FA80F6 		uxtah	r6, r6, r0
 643 00c6 B6B2     		uxth	r6, r6
 644              	.LVL96:
 935:Drivers/lvgl/lvgl/src/widgets/lv_table.c ****         y -= lv_obj_get_style_pad_top(obj, LV_PART_MAIN);
 645              		.loc 1 935 0
 646 00c8 E08A     		ldrh	r0, [r4, #22]
 647 00ca 361A     		subs	r6, r6, r0
 648              	.LVL97:
 649 00cc B6B2     		uxth	r6, r6
 650              	.LVL98:
 651              	.LBB150:
 652              	.LBB151:
 105:Drivers/lvgl/lvgl/src/widgets/../core/lv_obj_style_gen.h ****     return (lv_coord_t)v.num;
 653              		.loc 3 105 0
 654 00ce 1022     		movs	r2, #16
 655 00d0 0021     		movs	r1, #0
 656 00d2 2046     		mov	r0, r4
ARM GAS  /tmp/ccFZiBLS.s 			page 42


 657 00d4 FFF7FEFF 		bl	lv_obj_get_style_prop
 658              	.LVL99:
 659              	.LBE151:
 660              	.LBE150:
 936:Drivers/lvgl/lvgl/src/widgets/lv_table.c **** 
 661              		.loc 1 936 0
 662 00d8 80B2     		uxth	r0, r0
 663 00da 301A     		subs	r0, r6, r0
 664 00dc 00B2     		sxth	r0, r0
 665              	.LVL100:
 938:Drivers/lvgl/lvgl/src/widgets/lv_table.c ****         tmp = 0;
 666              		.loc 1 938 0
 667 00de 0022     		movs	r2, #0
 668 00e0 2A80     		strh	r2, [r5]	@ movhi
 669              	.LVL101:
 670              	.L24:
 941:Drivers/lvgl/lvgl/src/widgets/lv_table.c ****             tmp += table->row_h[*row];
 671              		.loc 1 941 0 discriminator 1
 672 00e2 2B88     		ldrh	r3, [r5]
 673 00e4 E18C     		ldrh	r1, [r4, #38]
 674 00e6 8B42     		cmp	r3, r1
 675 00e8 09D2     		bcs	.L31
 942:Drivers/lvgl/lvgl/src/widgets/lv_table.c ****             if(y < tmp) break;
 676              		.loc 1 942 0
 677 00ea E16A     		ldr	r1, [r4, #44]
 678 00ec 31F81310 		ldrh	r1, [r1, r3, lsl #1]
 679 00f0 0A44     		add	r2, r2, r1
 680              	.LVL102:
 681 00f2 12B2     		sxth	r2, r2
 682              	.LVL103:
 943:Drivers/lvgl/lvgl/src/widgets/lv_table.c ****         }
 683              		.loc 1 943 0
 684 00f4 9042     		cmp	r0, r2
 685 00f6 08DB     		blt	.L28
 941:Drivers/lvgl/lvgl/src/widgets/lv_table.c ****             tmp += table->row_h[*row];
 686              		.loc 1 941 0 discriminator 2
 687 00f8 0133     		adds	r3, r3, #1
 688 00fa 2B80     		strh	r3, [r5]	@ movhi
 689 00fc F1E7     		b	.L24
 690              	.L31:
 691              	.LBE149:
 947:Drivers/lvgl/lvgl/src/widgets/lv_table.c **** }
 692              		.loc 1 947 0
 693 00fe 0120     		movs	r0, #1
 694              	.LVL104:
 695              	.LBB152:
 696 0100 96E7     		b	.L18
 697              	.LVL105:
 698              	.L26:
 699              	.LBE152:
 907:Drivers/lvgl/lvgl/src/widgets/lv_table.c ****     }
 700              		.loc 1 907 0
 701 0102 0020     		movs	r0, #0
 702              	.LVL106:
 703 0104 94E7     		b	.L18
 704              	.L27:
 947:Drivers/lvgl/lvgl/src/widgets/lv_table.c **** }
ARM GAS  /tmp/ccFZiBLS.s 			page 43


 705              		.loc 1 947 0
 706 0106 0120     		movs	r0, #1
 707 0108 92E7     		b	.L18
 708              	.LVL107:
 709              	.L28:
 710 010a 0120     		movs	r0, #1
 711              	.LVL108:
 712 010c 90E7     		b	.L18
 713              		.cfi_endproc
 714              	.LFE181:
 716              		.section	.text.get_cell_area,"ax",%progbits
 717              		.align	1
 718              		.syntax unified
 719              		.thumb
 720              		.thumb_func
 721              		.fpu fpv5-d16
 723              	get_cell_area:
 724              	.LFB184:
 949:Drivers/lvgl/lvgl/src/widgets/lv_table.c **** 
 950:Drivers/lvgl/lvgl/src/widgets/lv_table.c **** /* Returns number of bytes to allocate based on chars configuration */
 951:Drivers/lvgl/lvgl/src/widgets/lv_table.c **** static size_t get_cell_txt_len(const char * txt)
 952:Drivers/lvgl/lvgl/src/widgets/lv_table.c **** {
 953:Drivers/lvgl/lvgl/src/widgets/lv_table.c ****     size_t retval = 0;
 954:Drivers/lvgl/lvgl/src/widgets/lv_table.c **** 
 955:Drivers/lvgl/lvgl/src/widgets/lv_table.c **** #if LV_USE_ARABIC_PERSIAN_CHARS
 956:Drivers/lvgl/lvgl/src/widgets/lv_table.c ****     retval = _lv_txt_ap_calc_bytes_cnt(txt) + 1;
 957:Drivers/lvgl/lvgl/src/widgets/lv_table.c **** #else
 958:Drivers/lvgl/lvgl/src/widgets/lv_table.c ****     /* cell_data layout: [ctrl][txt][trailing '\0' terminator]
 959:Drivers/lvgl/lvgl/src/widgets/lv_table.c ****      * +2 because of the trailing '\0' and the ctrl */
 960:Drivers/lvgl/lvgl/src/widgets/lv_table.c ****     retval = strlen(txt) + 2;
 961:Drivers/lvgl/lvgl/src/widgets/lv_table.c **** #endif
 962:Drivers/lvgl/lvgl/src/widgets/lv_table.c **** 
 963:Drivers/lvgl/lvgl/src/widgets/lv_table.c ****     return retval;
 964:Drivers/lvgl/lvgl/src/widgets/lv_table.c **** }
 965:Drivers/lvgl/lvgl/src/widgets/lv_table.c **** 
 966:Drivers/lvgl/lvgl/src/widgets/lv_table.c **** /* Copy txt into dst skipping the format byte */
 967:Drivers/lvgl/lvgl/src/widgets/lv_table.c **** static void copy_cell_txt(char * dst, const char * txt)
 968:Drivers/lvgl/lvgl/src/widgets/lv_table.c **** {
 969:Drivers/lvgl/lvgl/src/widgets/lv_table.c **** #if LV_USE_ARABIC_PERSIAN_CHARS
 970:Drivers/lvgl/lvgl/src/widgets/lv_table.c ****     _lv_txt_ap_proc(txt, &dst[1]);
 971:Drivers/lvgl/lvgl/src/widgets/lv_table.c **** #else
 972:Drivers/lvgl/lvgl/src/widgets/lv_table.c ****     strcpy(&dst[1], txt);
 973:Drivers/lvgl/lvgl/src/widgets/lv_table.c **** #endif
 974:Drivers/lvgl/lvgl/src/widgets/lv_table.c **** }
 975:Drivers/lvgl/lvgl/src/widgets/lv_table.c **** 
 976:Drivers/lvgl/lvgl/src/widgets/lv_table.c **** static void get_cell_area(lv_obj_t * obj, uint16_t row, uint16_t col, lv_area_t * area)
 977:Drivers/lvgl/lvgl/src/widgets/lv_table.c **** {
 725              		.loc 1 977 0
 726              		.cfi_startproc
 727              		@ args = 0, pretend = 0, frame = 0
 728              		@ frame_needed = 0, uses_anonymous_args = 0
 729              	.LVL109:
 730 0000 2DE9F041 		push	{r4, r5, r6, r7, r8, lr}
 731              	.LCFI10:
 732              		.cfi_def_cfa_offset 24
 733              		.cfi_offset 4, -24
 734              		.cfi_offset 5, -20
ARM GAS  /tmp/ccFZiBLS.s 			page 44


 735              		.cfi_offset 6, -16
 736              		.cfi_offset 7, -12
 737              		.cfi_offset 8, -8
 738              		.cfi_offset 14, -4
 739 0004 0546     		mov	r5, r0
 740 0006 0E46     		mov	r6, r1
 741 0008 1C46     		mov	r4, r3
 742              	.LVL110:
 978:Drivers/lvgl/lvgl/src/widgets/lv_table.c ****     lv_table_t * table = (lv_table_t *)obj;
 979:Drivers/lvgl/lvgl/src/widgets/lv_table.c **** 
 980:Drivers/lvgl/lvgl/src/widgets/lv_table.c ****     uint32_t c;
 981:Drivers/lvgl/lvgl/src/widgets/lv_table.c ****     area->x1 = 0;
 743              		.loc 1 981 0
 744 000a 0023     		movs	r3, #0
 745              	.LVL111:
 746 000c 2380     		strh	r3, [r4]	@ movhi
 747              	.LVL112:
 982:Drivers/lvgl/lvgl/src/widgets/lv_table.c ****     for(c = 0; c < col; c++) {
 748              		.loc 1 982 0
 749 000e 06E0     		b	.L33
 750              	.LVL113:
 751              	.L34:
 983:Drivers/lvgl/lvgl/src/widgets/lv_table.c ****         area->x1 += table->col_w[c];
 752              		.loc 1 983 0 discriminator 3
 753 0010 296B     		ldr	r1, [r5, #48]
 754 0012 31F81310 		ldrh	r1, [r1, r3, lsl #1]
 755 0016 2088     		ldrh	r0, [r4]
 756 0018 0144     		add	r1, r1, r0
 757 001a 2180     		strh	r1, [r4]	@ movhi
 982:Drivers/lvgl/lvgl/src/widgets/lv_table.c ****     for(c = 0; c < col; c++) {
 758              		.loc 1 982 0 discriminator 3
 759 001c 0133     		adds	r3, r3, #1
 760              	.LVL114:
 761              	.L33:
 982:Drivers/lvgl/lvgl/src/widgets/lv_table.c ****     for(c = 0; c < col; c++) {
 762              		.loc 1 982 0 is_stmt 0 discriminator 1
 763 001e 1746     		mov	r7, r2
 764 0020 9A42     		cmp	r2, r3
 765 0022 F5D8     		bhi	.L34
 766              	.LVL115:
 767              	.LBB153:
 768              	.LBB154:
 561:Drivers/lvgl/lvgl/src/widgets/../core/lv_obj_style_gen.h ****     return (lv_base_dir_t)v.num;
 769              		.loc 3 561 0 is_stmt 1
 770 0024 1622     		movs	r2, #22
 771              	.LVL116:
 772 0026 0021     		movs	r1, #0
 773 0028 2846     		mov	r0, r5
 774 002a FFF7FEFF 		bl	lv_obj_get_style_prop
 775              	.LVL117:
 776              		.loc 3 562 0
 777 002e C0B2     		uxtb	r0, r0
 778              	.LVL118:
 779              	.LBE154:
 780              	.LBE153:
 984:Drivers/lvgl/lvgl/src/widgets/lv_table.c ****     }
 985:Drivers/lvgl/lvgl/src/widgets/lv_table.c **** 
ARM GAS  /tmp/ccFZiBLS.s 			page 45


 986:Drivers/lvgl/lvgl/src/widgets/lv_table.c ****     bool rtl = lv_obj_get_style_base_dir(obj, LV_PART_MAIN) == LV_BASE_DIR_RTL;
 987:Drivers/lvgl/lvgl/src/widgets/lv_table.c ****     if(rtl) {
 781              		.loc 1 987 0
 782 0030 0128     		cmp	r0, #1
 783 0032 1AD0     		beq	.L40
 988:Drivers/lvgl/lvgl/src/widgets/lv_table.c ****         area->x1 += lv_obj_get_scroll_x(obj);
 989:Drivers/lvgl/lvgl/src/widgets/lv_table.c ****         lv_coord_t w = lv_obj_get_width(obj);
 990:Drivers/lvgl/lvgl/src/widgets/lv_table.c ****         area->x2 = w - area->x1 - lv_obj_get_style_pad_right(obj, 0);
 991:Drivers/lvgl/lvgl/src/widgets/lv_table.c ****         area->x1 = area->x2 - table->col_w[col];
 992:Drivers/lvgl/lvgl/src/widgets/lv_table.c ****     }
 993:Drivers/lvgl/lvgl/src/widgets/lv_table.c ****     else {
 994:Drivers/lvgl/lvgl/src/widgets/lv_table.c ****         area->x1 -= lv_obj_get_scroll_x(obj);
 784              		.loc 1 994 0
 785 0034 2846     		mov	r0, r5
 786              	.LVL119:
 787 0036 FFF7FEFF 		bl	lv_obj_get_scroll_x
 788              	.LVL120:
 789 003a 80B2     		uxth	r0, r0
 790 003c 2388     		ldrh	r3, [r4]
 791 003e 181A     		subs	r0, r3, r0
 792 0040 2080     		strh	r0, [r4]	@ movhi
 793              	.LVL121:
 794              	.LBB155:
 795              	.LBB156:
 117:Drivers/lvgl/lvgl/src/widgets/../core/lv_obj_style_gen.h ****     return (lv_coord_t)v.num;
 796              		.loc 3 117 0
 797 0042 1222     		movs	r2, #18
 798 0044 0021     		movs	r1, #0
 799 0046 2846     		mov	r0, r5
 800 0048 FFF7FEFF 		bl	lv_obj_get_style_prop
 801              	.LVL122:
 802              	.LBE156:
 803              	.LBE155:
 995:Drivers/lvgl/lvgl/src/widgets/lv_table.c ****         area->x1 += lv_obj_get_style_pad_left(obj, 0);
 804              		.loc 1 995 0
 805 004c 2388     		ldrh	r3, [r4]
 806 004e 13FA80F0 		uxtah	r0, r3, r0
 807 0052 80B2     		uxth	r0, r0
 808 0054 2080     		strh	r0, [r4]	@ movhi
 996:Drivers/lvgl/lvgl/src/widgets/lv_table.c ****         area->x2 = area->x1 + table->col_w[col] - 1;
 809              		.loc 1 996 0
 810 0056 2B6B     		ldr	r3, [r5, #48]
 811 0058 33F81730 		ldrh	r3, [r3, r7, lsl #1]
 812 005c 1844     		add	r0, r0, r3
 813 005e 80B2     		uxth	r0, r0
 814 0060 0138     		subs	r0, r0, #1
 815 0062 A080     		strh	r0, [r4, #4]	@ movhi
 816              	.L36:
 997:Drivers/lvgl/lvgl/src/widgets/lv_table.c ****     }
 998:Drivers/lvgl/lvgl/src/widgets/lv_table.c **** 
 999:Drivers/lvgl/lvgl/src/widgets/lv_table.c ****     uint32_t r;
1000:Drivers/lvgl/lvgl/src/widgets/lv_table.c ****     area->y1 = 0;
 817              		.loc 1 1000 0
 818 0064 0023     		movs	r3, #0
 819 0066 6380     		strh	r3, [r4, #2]	@ movhi
 820              	.LVL123:
1001:Drivers/lvgl/lvgl/src/widgets/lv_table.c ****     for(r = 0; r < row; r++) {
ARM GAS  /tmp/ccFZiBLS.s 			page 46


 821              		.loc 1 1001 0
 822 0068 26E0     		b	.L37
 823              	.LVL124:
 824              	.L40:
 825              	.LBB157:
 988:Drivers/lvgl/lvgl/src/widgets/lv_table.c ****         lv_coord_t w = lv_obj_get_width(obj);
 826              		.loc 1 988 0
 827 006a 2846     		mov	r0, r5
 828              	.LVL125:
 829 006c FFF7FEFF 		bl	lv_obj_get_scroll_x
 830              	.LVL126:
 831 0070 2388     		ldrh	r3, [r4]
 832 0072 13FA80F0 		uxtah	r0, r3, r0
 833 0076 2080     		strh	r0, [r4]	@ movhi
 989:Drivers/lvgl/lvgl/src/widgets/lv_table.c ****         area->x2 = w - area->x1 - lv_obj_get_style_pad_right(obj, 0);
 834              		.loc 1 989 0
 835 0078 2846     		mov	r0, r5
 836 007a FFF7FEFF 		bl	lv_obj_get_width
 837              	.LVL127:
 990:Drivers/lvgl/lvgl/src/widgets/lv_table.c ****         area->x1 = area->x2 - table->col_w[col];
 838              		.loc 1 990 0
 839 007e B4F80080 		ldrh	r8, [r4]
 840 0082 A0EB0808 		sub	r8, r0, r8
 841 0086 1FFA88F8 		uxth	r8, r8
 842              	.LVL128:
 843              	.LBB158:
 844              	.LBB159:
 123:Drivers/lvgl/lvgl/src/widgets/../core/lv_obj_style_gen.h ****     return (lv_coord_t)v.num;
 845              		.loc 3 123 0
 846 008a 1322     		movs	r2, #19
 847 008c 0021     		movs	r1, #0
 848 008e 2846     		mov	r0, r5
 849              	.LVL129:
 850 0090 FFF7FEFF 		bl	lv_obj_get_style_prop
 851              	.LVL130:
 852              	.LBE159:
 853              	.LBE158:
 990:Drivers/lvgl/lvgl/src/widgets/lv_table.c ****         area->x1 = area->x2 - table->col_w[col];
 854              		.loc 1 990 0
 855 0094 83B2     		uxth	r3, r0
 856 0096 A8EB0303 		sub	r3, r8, r3
 857 009a 9BB2     		uxth	r3, r3
 858 009c A380     		strh	r3, [r4, #4]	@ movhi
 991:Drivers/lvgl/lvgl/src/widgets/lv_table.c ****     }
 859              		.loc 1 991 0
 860 009e 2A6B     		ldr	r2, [r5, #48]
 861 00a0 32F81720 		ldrh	r2, [r2, r7, lsl #1]
 862 00a4 9B1A     		subs	r3, r3, r2
 863 00a6 2380     		strh	r3, [r4]	@ movhi
 864              	.LBE157:
 865 00a8 DCE7     		b	.L36
 866              	.LVL131:
 867              	.L38:
1002:Drivers/lvgl/lvgl/src/widgets/lv_table.c ****         area->y1 += table->row_h[r];
 868              		.loc 1 1002 0 discriminator 3
 869 00aa EA6A     		ldr	r2, [r5, #44]
 870 00ac 32F81320 		ldrh	r2, [r2, r3, lsl #1]
ARM GAS  /tmp/ccFZiBLS.s 			page 47


 871 00b0 6188     		ldrh	r1, [r4, #2]
 872 00b2 0A44     		add	r2, r2, r1
 873 00b4 6280     		strh	r2, [r4, #2]	@ movhi
1001:Drivers/lvgl/lvgl/src/widgets/lv_table.c ****         area->y1 += table->row_h[r];
 874              		.loc 1 1001 0 discriminator 3
 875 00b6 0133     		adds	r3, r3, #1
 876              	.LVL132:
 877              	.L37:
1001:Drivers/lvgl/lvgl/src/widgets/lv_table.c ****         area->y1 += table->row_h[r];
 878              		.loc 1 1001 0 is_stmt 0 discriminator 1
 879 00b8 9E42     		cmp	r6, r3
 880 00ba F6D8     		bhi	.L38
 881              	.LVL133:
 882              	.LBB160:
 883              	.LBB161:
 105:Drivers/lvgl/lvgl/src/widgets/../core/lv_obj_style_gen.h ****     return (lv_coord_t)v.num;
 884              		.loc 3 105 0 is_stmt 1
 885 00bc 1022     		movs	r2, #16
 886 00be 0021     		movs	r1, #0
 887 00c0 2846     		mov	r0, r5
 888 00c2 FFF7FEFF 		bl	lv_obj_get_style_prop
 889              	.LVL134:
 890              	.LBE161:
 891              	.LBE160:
1003:Drivers/lvgl/lvgl/src/widgets/lv_table.c ****     }
1004:Drivers/lvgl/lvgl/src/widgets/lv_table.c **** 
1005:Drivers/lvgl/lvgl/src/widgets/lv_table.c ****     area->y1 += lv_obj_get_style_pad_top(obj, 0);
 892              		.loc 1 1005 0
 893 00c6 6388     		ldrh	r3, [r4, #2]
 894 00c8 13FA80F0 		uxtah	r0, r3, r0
 895 00cc 6080     		strh	r0, [r4, #2]	@ movhi
1006:Drivers/lvgl/lvgl/src/widgets/lv_table.c ****     area->y1 -= lv_obj_get_scroll_y(obj);
 896              		.loc 1 1006 0
 897 00ce 2846     		mov	r0, r5
 898 00d0 FFF7FEFF 		bl	lv_obj_get_scroll_y
 899              	.LVL135:
 900 00d4 83B2     		uxth	r3, r0
 901 00d6 6088     		ldrh	r0, [r4, #2]
 902 00d8 C01A     		subs	r0, r0, r3
 903 00da 80B2     		uxth	r0, r0
 904 00dc 6080     		strh	r0, [r4, #2]	@ movhi
1007:Drivers/lvgl/lvgl/src/widgets/lv_table.c ****     area->y2 = area->y1 + table->row_h[row] - 1;
 905              		.loc 1 1007 0
 906 00de EB6A     		ldr	r3, [r5, #44]
 907 00e0 33F81630 		ldrh	r3, [r3, r6, lsl #1]
 908 00e4 1844     		add	r0, r0, r3
 909 00e6 80B2     		uxth	r0, r0
 910 00e8 0138     		subs	r0, r0, #1
 911 00ea E080     		strh	r0, [r4, #6]	@ movhi
1008:Drivers/lvgl/lvgl/src/widgets/lv_table.c **** 
1009:Drivers/lvgl/lvgl/src/widgets/lv_table.c **** }
 912              		.loc 1 1009 0
 913 00ec BDE8F081 		pop	{r4, r5, r6, r7, r8, pc}
 914              		.cfi_endproc
 915              	.LFE184:
 917              		.section	.text.scroll_to_selected_cell,"ax",%progbits
 918              		.align	1
ARM GAS  /tmp/ccFZiBLS.s 			page 48


 919              		.syntax unified
 920              		.thumb
 921              		.thumb_func
 922              		.fpu fpv5-d16
 924              	scroll_to_selected_cell:
 925              	.LFB185:
1010:Drivers/lvgl/lvgl/src/widgets/lv_table.c **** 
1011:Drivers/lvgl/lvgl/src/widgets/lv_table.c **** 
1012:Drivers/lvgl/lvgl/src/widgets/lv_table.c **** static void scroll_to_selected_cell(lv_obj_t * obj)
1013:Drivers/lvgl/lvgl/src/widgets/lv_table.c **** {
 926              		.loc 1 1013 0
 927              		.cfi_startproc
 928              		@ args = 0, pretend = 0, frame = 8
 929              		@ frame_needed = 0, uses_anonymous_args = 0
 930              	.LVL136:
 931 0000 30B5     		push	{r4, r5, lr}
 932              	.LCFI11:
 933              		.cfi_def_cfa_offset 12
 934              		.cfi_offset 4, -12
 935              		.cfi_offset 5, -8
 936              		.cfi_offset 14, -4
 937 0002 83B0     		sub	sp, sp, #12
 938              	.LCFI12:
 939              		.cfi_def_cfa_offset 24
 940 0004 0446     		mov	r4, r0
 941              	.LVL137:
1014:Drivers/lvgl/lvgl/src/widgets/lv_table.c ****     lv_table_t * table = (lv_table_t *)obj;
1015:Drivers/lvgl/lvgl/src/widgets/lv_table.c **** 
1016:Drivers/lvgl/lvgl/src/widgets/lv_table.c ****     lv_area_t a;
1017:Drivers/lvgl/lvgl/src/widgets/lv_table.c ****     get_cell_area(obj, table->row_act, table->col_act, &a);
 942              		.loc 1 1017 0
 943 0006 6B46     		mov	r3, sp
 944 0008 828E     		ldrh	r2, [r0, #52]
 945 000a C18E     		ldrh	r1, [r0, #54]
 946 000c FFF7FEFF 		bl	get_cell_area
 947              	.LVL138:
1018:Drivers/lvgl/lvgl/src/widgets/lv_table.c ****     if(a.x1 < 0) {
 948              		.loc 1 1018 0
 949 0010 BDF90010 		ldrsh	r1, [sp]
 950 0014 0029     		cmp	r1, #0
 951 0016 13DB     		blt	.L47
1019:Drivers/lvgl/lvgl/src/widgets/lv_table.c ****         lv_obj_scroll_by_bounded(obj, -a.x1, 0, LV_ANIM_ON);
1020:Drivers/lvgl/lvgl/src/widgets/lv_table.c ****     }
1021:Drivers/lvgl/lvgl/src/widgets/lv_table.c ****     else if(a.x2 > lv_obj_get_width(obj)) {
 952              		.loc 1 1021 0
 953 0018 BDF90450 		ldrsh	r5, [sp, #4]
 954 001c 2046     		mov	r0, r4
 955 001e FFF7FEFF 		bl	lv_obj_get_width
 956              	.LVL139:
 957 0022 8542     		cmp	r5, r0
 958 0024 15DC     		bgt	.L48
 959              	.L43:
1022:Drivers/lvgl/lvgl/src/widgets/lv_table.c ****         lv_obj_scroll_by_bounded(obj, lv_obj_get_width(obj) - a.x2, 0, LV_ANIM_ON);
1023:Drivers/lvgl/lvgl/src/widgets/lv_table.c ****     }
1024:Drivers/lvgl/lvgl/src/widgets/lv_table.c **** 
1025:Drivers/lvgl/lvgl/src/widgets/lv_table.c ****     if(a.y1 < 0) {
 960              		.loc 1 1025 0
ARM GAS  /tmp/ccFZiBLS.s 			page 49


 961 0026 BDF90220 		ldrsh	r2, [sp, #2]
 962 002a 002A     		cmp	r2, #0
 963 002c 1FDB     		blt	.L49
1026:Drivers/lvgl/lvgl/src/widgets/lv_table.c ****         lv_obj_scroll_by_bounded(obj, 0, -a.y1, LV_ANIM_ON);
1027:Drivers/lvgl/lvgl/src/widgets/lv_table.c ****     }
1028:Drivers/lvgl/lvgl/src/widgets/lv_table.c ****     else if(a.y2 > lv_obj_get_height(obj)) {
 964              		.loc 1 1028 0
 965 002e BDF90650 		ldrsh	r5, [sp, #6]
 966 0032 2046     		mov	r0, r4
 967 0034 FFF7FEFF 		bl	lv_obj_get_height
 968              	.LVL140:
 969 0038 8542     		cmp	r5, r0
 970 003a 21DC     		bgt	.L50
 971              	.L41:
1029:Drivers/lvgl/lvgl/src/widgets/lv_table.c ****         lv_obj_scroll_by_bounded(obj, 0, lv_obj_get_height(obj) - a.y2, LV_ANIM_ON);
1030:Drivers/lvgl/lvgl/src/widgets/lv_table.c ****     }
1031:Drivers/lvgl/lvgl/src/widgets/lv_table.c **** 
1032:Drivers/lvgl/lvgl/src/widgets/lv_table.c **** }
 972              		.loc 1 1032 0
 973 003c 03B0     		add	sp, sp, #12
 974              	.LCFI13:
 975              		.cfi_remember_state
 976              		.cfi_def_cfa_offset 12
 977              		@ sp needed
 978 003e 30BD     		pop	{r4, r5, pc}
 979              	.LVL141:
 980              	.L47:
 981              	.LCFI14:
 982              		.cfi_restore_state
1019:Drivers/lvgl/lvgl/src/widgets/lv_table.c ****     }
 983              		.loc 1 1019 0
 984 0040 89B2     		uxth	r1, r1
 985 0042 4942     		negs	r1, r1
 986 0044 0123     		movs	r3, #1
 987 0046 0022     		movs	r2, #0
 988 0048 09B2     		sxth	r1, r1
 989 004a 2046     		mov	r0, r4
 990 004c FFF7FEFF 		bl	lv_obj_scroll_by_bounded
 991              	.LVL142:
 992 0050 E9E7     		b	.L43
 993              	.L48:
1022:Drivers/lvgl/lvgl/src/widgets/lv_table.c ****     }
 994              		.loc 1 1022 0
 995 0052 2046     		mov	r0, r4
 996 0054 FFF7FEFF 		bl	lv_obj_get_width
 997              	.LVL143:
 998 0058 80B2     		uxth	r0, r0
 999 005a BDF80410 		ldrh	r1, [sp, #4]
 1000 005e 411A     		subs	r1, r0, r1
 1001 0060 0123     		movs	r3, #1
 1002 0062 0022     		movs	r2, #0
 1003 0064 09B2     		sxth	r1, r1
 1004 0066 2046     		mov	r0, r4
 1005 0068 FFF7FEFF 		bl	lv_obj_scroll_by_bounded
 1006              	.LVL144:
 1007 006c DBE7     		b	.L43
 1008              	.L49:
ARM GAS  /tmp/ccFZiBLS.s 			page 50


1026:Drivers/lvgl/lvgl/src/widgets/lv_table.c ****     }
 1009              		.loc 1 1026 0
 1010 006e 92B2     		uxth	r2, r2
 1011 0070 5242     		negs	r2, r2
 1012 0072 0123     		movs	r3, #1
 1013 0074 12B2     		sxth	r2, r2
 1014 0076 0021     		movs	r1, #0
 1015 0078 2046     		mov	r0, r4
 1016 007a FFF7FEFF 		bl	lv_obj_scroll_by_bounded
 1017              	.LVL145:
 1018 007e DDE7     		b	.L41
 1019              	.L50:
1029:Drivers/lvgl/lvgl/src/widgets/lv_table.c ****     }
 1020              		.loc 1 1029 0
 1021 0080 2046     		mov	r0, r4
 1022 0082 FFF7FEFF 		bl	lv_obj_get_height
 1023              	.LVL146:
 1024 0086 80B2     		uxth	r0, r0
 1025 0088 BDF80620 		ldrh	r2, [sp, #6]
 1026 008c 821A     		subs	r2, r0, r2
 1027 008e 0123     		movs	r3, #1
 1028 0090 12B2     		sxth	r2, r2
 1029 0092 0021     		movs	r1, #0
 1030 0094 2046     		mov	r0, r4
 1031 0096 FFF7FEFF 		bl	lv_obj_scroll_by_bounded
 1032              	.LVL147:
 1033              		.loc 1 1032 0
 1034 009a CFE7     		b	.L41
 1035              		.cfi_endproc
 1036              	.LFE185:
 1038              		.section	.text.draw_main,"ax",%progbits
 1039              		.align	1
 1040              		.syntax unified
 1041              		.thumb
 1042              		.thumb_func
 1043              		.fpu fpv5-d16
 1045              	draw_main:
 1046              	.LFB177:
 578:Drivers/lvgl/lvgl/src/widgets/lv_table.c ****     lv_obj_t * obj = lv_event_get_target(e);
 1047              		.loc 1 578 0
 1048              		.cfi_startproc
 1049              		@ args = 0, pretend = 0, frame = 360
 1050              		@ frame_needed = 0, uses_anonymous_args = 0
 1051              	.LVL148:
 1052 0000 2DE9F04F 		push	{r4, r5, r6, r7, r8, r9, r10, fp, lr}
 1053              	.LCFI15:
 1054              		.cfi_def_cfa_offset 36
 1055              		.cfi_offset 4, -36
 1056              		.cfi_offset 5, -32
 1057              		.cfi_offset 6, -28
 1058              		.cfi_offset 7, -24
 1059              		.cfi_offset 8, -20
 1060              		.cfi_offset 9, -16
 1061              		.cfi_offset 10, -12
 1062              		.cfi_offset 11, -8
 1063              		.cfi_offset 14, -4
 1064 0004 DFB0     		sub	sp, sp, #380
ARM GAS  /tmp/ccFZiBLS.s 			page 51


 1065              	.LCFI16:
 1066              		.cfi_def_cfa_offset 416
 1067 0006 0446     		mov	r4, r0
 579:Drivers/lvgl/lvgl/src/widgets/lv_table.c ****     lv_table_t * table = (lv_table_t *)obj;
 1068              		.loc 1 579 0
 1069 0008 FFF7FEFF 		bl	lv_event_get_target
 1070              	.LVL149:
 1071 000c 8346     		mov	fp, r0
 1072              	.LVL150:
 581:Drivers/lvgl/lvgl/src/widgets/lv_table.c ****     lv_area_t clip_area;
 1073              		.loc 1 581 0
 1074 000e 2046     		mov	r0, r4
 1075              	.LVL151:
 1076 0010 FFF7FEFF 		bl	lv_event_get_draw_ctx
 1077              	.LVL152:
 1078 0014 0890     		str	r0, [sp, #32]
 1079              	.LVL153:
 583:Drivers/lvgl/lvgl/src/widgets/lv_table.c **** 
 1080              		.loc 1 583 0
 1081 0016 8268     		ldr	r2, [r0, #8]
 1082 0018 0BF11401 		add	r1, fp, #20
 1083 001c 5CA8     		add	r0, sp, #368
 1084              	.LVL154:
 1085 001e FFF7FEFF 		bl	_lv_area_intersect
 1086              	.LVL155:
 1087 0022 10B9     		cbnz	r0, .L96
 1088              	.LVL156:
 1089              	.L51:
 770:Drivers/lvgl/lvgl/src/widgets/lv_table.c **** 
 1090              		.loc 1 770 0
 1091 0024 5FB0     		add	sp, sp, #380
 1092              	.LCFI17:
 1093              		.cfi_remember_state
 1094              		.cfi_def_cfa_offset 36
 1095              		@ sp needed
 1096 0026 BDE8F08F 		pop	{r4, r5, r6, r7, r8, r9, r10, fp, pc}
 1097              	.LVL157:
 1098              	.L96:
 1099              	.LCFI18:
 1100              		.cfi_restore_state
 585:Drivers/lvgl/lvgl/src/widgets/lv_table.c ****     draw_ctx->clip_area = &clip_area;
 1101              		.loc 1 585 0
 1102 002a 089F     		ldr	r7, [sp, #32]
 1103 002c BB68     		ldr	r3, [r7, #8]
 1104 002e 1393     		str	r3, [sp, #76]
 1105              	.LVL158:
 586:Drivers/lvgl/lvgl/src/widgets/lv_table.c **** 
 1106              		.loc 1 586 0
 1107 0030 5CAB     		add	r3, sp, #368
 1108              	.LVL159:
 1109 0032 BB60     		str	r3, [r7, #8]
 1110              	.LVL160:
 1111              	.LBB162:
 1112              	.LBB163:
 255:Drivers/lvgl/lvgl/src/widgets/../core/lv_obj_style_gen.h ****     return (lv_coord_t)v.num;
 1113              		.loc 3 255 0
 1114 0034 3222     		movs	r2, #50
ARM GAS  /tmp/ccFZiBLS.s 			page 52


 1115 0036 0021     		movs	r1, #0
 1116 0038 5846     		mov	r0, fp
 1117 003a FFF7FEFF 		bl	lv_obj_get_style_prop
 1118              	.LVL161:
 1119 003e 0646     		mov	r6, r0
 1120              	.LVL162:
 1121              	.LBE163:
 1122              	.LBE162:
 1123              	.LBB164:
 1124              	.LBB165:
 105:Drivers/lvgl/lvgl/src/widgets/../core/lv_obj_style_gen.h ****     return (lv_coord_t)v.num;
 1125              		.loc 3 105 0
 1126 0040 1022     		movs	r2, #16
 1127 0042 0021     		movs	r1, #0
 1128 0044 5846     		mov	r0, fp
 1129 0046 FFF7FEFF 		bl	lv_obj_get_style_prop
 1130              	.LVL163:
 1131 004a 0546     		mov	r5, r0
 1132              	.LVL164:
 106:Drivers/lvgl/lvgl/src/widgets/../core/lv_obj_style_gen.h **** }
 1133              		.loc 3 106 0
 1134 004c 03B2     		sxth	r3, r0
 1135 004e 0D93     		str	r3, [sp, #52]
 1136              	.LVL165:
 1137              	.LBE165:
 1138              	.LBE164:
 1139              	.LBB166:
 1140              	.LBB167:
 111:Drivers/lvgl/lvgl/src/widgets/../core/lv_obj_style_gen.h ****     return (lv_coord_t)v.num;
 1141              		.loc 3 111 0
 1142 0050 1122     		movs	r2, #17
 1143 0052 0021     		movs	r1, #0
 1144 0054 5846     		mov	r0, fp
 1145 0056 FFF7FEFF 		bl	lv_obj_get_style_prop
 1146              	.LVL166:
 112:Drivers/lvgl/lvgl/src/widgets/../core/lv_obj_style_gen.h **** }
 1147              		.loc 3 112 0
 1148 005a 03B2     		sxth	r3, r0
 1149 005c 0C93     		str	r3, [sp, #48]
 1150              	.LVL167:
 1151              	.LBE167:
 1152              	.LBE166:
 1153              	.LBB168:
 1154              	.LBB169:
 117:Drivers/lvgl/lvgl/src/widgets/../core/lv_obj_style_gen.h ****     return (lv_coord_t)v.num;
 1155              		.loc 3 117 0
 1156 005e 1222     		movs	r2, #18
 1157 0060 0021     		movs	r1, #0
 1158 0062 5846     		mov	r0, fp
 1159 0064 FFF7FEFF 		bl	lv_obj_get_style_prop
 1160              	.LVL168:
 1161 0068 1090     		str	r0, [sp, #64]
 118:Drivers/lvgl/lvgl/src/widgets/../core/lv_obj_style_gen.h **** }
 1162              		.loc 3 118 0
 1163 006a 03B2     		sxth	r3, r0
 1164 006c 0B93     		str	r3, [sp, #44]
 1165              	.LVL169:
ARM GAS  /tmp/ccFZiBLS.s 			page 53


 1166              	.LBE169:
 1167              	.LBE168:
 1168              	.LBB170:
 1169              	.LBB171:
 123:Drivers/lvgl/lvgl/src/widgets/../core/lv_obj_style_gen.h ****     return (lv_coord_t)v.num;
 1170              		.loc 3 123 0
 1171 006e 1322     		movs	r2, #19
 1172 0070 0021     		movs	r1, #0
 1173 0072 5846     		mov	r0, fp
 1174 0074 FFF7FEFF 		bl	lv_obj_get_style_prop
 1175              	.LVL170:
 1176 0078 1290     		str	r0, [sp, #72]
 124:Drivers/lvgl/lvgl/src/widgets/../core/lv_obj_style_gen.h **** }
 1177              		.loc 3 124 0
 1178 007a 03B2     		sxth	r3, r0
 1179 007c 0A93     		str	r3, [sp, #40]
 1180              	.LVL171:
 1181              	.LBE171:
 1182              	.LBE170:
 597:Drivers/lvgl/lvgl/src/widgets/lv_table.c ****     obj->state = LV_STATE_DEFAULT;
 1183              		.loc 1 597 0
 1184 007e BBF82030 		ldrh	r3, [fp, #32]
 1185 0082 1193     		str	r3, [sp, #68]
 1186              	.LVL172:
 598:Drivers/lvgl/lvgl/src/widgets/lv_table.c ****     obj->skip_trans = 1;
 1187              		.loc 1 598 0
 1188 0084 0024     		movs	r4, #0
 1189              	.LVL173:
 1190 0086 ABF82040 		strh	r4, [fp, #32]	@ movhi
 599:Drivers/lvgl/lvgl/src/widgets/lv_table.c ****     lv_draw_rect_dsc_t rect_dsc_def;
 1191              		.loc 1 599 0
 1192 008a 9BF82230 		ldrb	r3, [fp, #34]	@ zero_extendqisi2
 1193 008e 43F00403 		orr	r3, r3, #4
 1194 0092 8BF82230 		strb	r3, [fp, #34]
 602:Drivers/lvgl/lvgl/src/widgets/lv_table.c ****     lv_obj_init_draw_rect_dsc(obj, LV_PART_ITEMS, &rect_dsc_def);
 1195              		.loc 1 602 0
 1196 0096 4BA8     		add	r0, sp, #300
 1197 0098 FFF7FEFF 		bl	lv_draw_rect_dsc_init
 1198              	.LVL174:
 603:Drivers/lvgl/lvgl/src/widgets/lv_table.c **** 
 1199              		.loc 1 603 0
 1200 009c 4BAA     		add	r2, sp, #300
 1201 009e 4FF4A021 		mov	r1, #327680
 1202 00a2 5846     		mov	r0, fp
 1203 00a4 FFF7FEFF 		bl	lv_obj_init_draw_rect_dsc
 1204              	.LVL175:
 607:Drivers/lvgl/lvgl/src/widgets/lv_table.c ****     lv_obj_init_draw_label_dsc(obj, LV_PART_ITEMS, &label_dsc_def);
 1205              		.loc 1 607 0
 1206 00a8 35A8     		add	r0, sp, #212
 1207 00aa FFF7FEFF 		bl	lv_draw_label_dsc_init
 1208              	.LVL176:
 608:Drivers/lvgl/lvgl/src/widgets/lv_table.c ****     obj->state = state_ori;
 1209              		.loc 1 608 0
 1210 00ae 35AA     		add	r2, sp, #212
 1211 00b0 4FF4A021 		mov	r1, #327680
 1212 00b4 5846     		mov	r0, fp
 1213 00b6 FFF7FEFF 		bl	lv_obj_init_draw_label_dsc
ARM GAS  /tmp/ccFZiBLS.s 			page 54


 1214              	.LVL177:
 609:Drivers/lvgl/lvgl/src/widgets/lv_table.c ****     obj->skip_trans = 0;
 1215              		.loc 1 609 0
 1216 00ba BDF84430 		ldrh	r3, [sp, #68]
 1217 00be ABF82030 		strh	r3, [fp, #32]	@ movhi
 610:Drivers/lvgl/lvgl/src/widgets/lv_table.c **** 
 1218              		.loc 1 610 0
 1219 00c2 9BF82230 		ldrb	r3, [fp, #34]	@ zero_extendqisi2
 1220 00c6 64F38203 		bfi	r3, r4, #2, #1
 1221 00ca 8BF82230 		strb	r3, [fp, #34]
 1222              	.LVL178:
 616:Drivers/lvgl/lvgl/src/widgets/lv_table.c ****     lv_coord_t scroll_x = lv_obj_get_scroll_x(obj) ;
 1223              		.loc 1 616 0
 1224 00ce BBF81630 		ldrh	r3, [fp, #22]
 1225              	.LVL179:
 1226 00d2 1D44     		add	r5, r5, r3
 1227              	.LVL180:
 1228 00d4 ADB2     		uxth	r5, r5
 1229 00d6 5846     		mov	r0, fp
 1230 00d8 FFF7FEFF 		bl	lv_obj_get_scroll_y
 1231              	.LVL181:
 1232 00dc 2B1A     		subs	r3, r5, r0
 1233 00de B2B2     		uxth	r2, r6
 1234 00e0 0E92     		str	r2, [sp, #56]
 1235 00e2 12FA83F3 		uxtah	r3, r2, r3
 1236 00e6 013B     		subs	r3, r3, #1
 1237 00e8 ADF86A31 		strh	r3, [sp, #362]	@ movhi
 617:Drivers/lvgl/lvgl/src/widgets/lv_table.c ****     bool rtl = lv_obj_get_style_base_dir(obj, LV_PART_MAIN) == LV_BASE_DIR_RTL;
 1238              		.loc 1 617 0
 1239 00ec 5846     		mov	r0, fp
 1240 00ee FFF7FEFF 		bl	lv_obj_get_scroll_x
 1241              	.LVL182:
 1242 00f2 0F90     		str	r0, [sp, #60]
 1243              	.LVL183:
 1244              	.LBB172:
 1245              	.LBB173:
 561:Drivers/lvgl/lvgl/src/widgets/../core/lv_obj_style_gen.h ****     return (lv_base_dir_t)v.num;
 1246              		.loc 3 561 0
 1247 00f4 1622     		movs	r2, #22
 1248 00f6 2146     		mov	r1, r4
 1249 00f8 5846     		mov	r0, fp
 1250 00fa FFF7FEFF 		bl	lv_obj_get_style_prop
 1251              	.LVL184:
 1252              		.loc 3 562 0
 1253 00fe 5FFA80F8 		uxtb	r8, r0
 1254              	.LVL185:
 1255              	.LBE173:
 1256              	.LBE172:
 622:Drivers/lvgl/lvgl/src/widgets/lv_table.c ****     part_draw_dsc.part = LV_PART_ITEMS;
 1257              		.loc 1 622 0
 1258 0102 3946     		mov	r1, r7
 1259 0104 1BA8     		add	r0, sp, #108
 1260 0106 FFF7FEFF 		bl	lv_obj_draw_dsc_init
 1261              	.LVL186:
 623:Drivers/lvgl/lvgl/src/widgets/lv_table.c ****     part_draw_dsc.class_p = MY_CLASS;
 1262              		.loc 1 623 0
 1263 010a 4FF4A023 		mov	r3, #327680
ARM GAS  /tmp/ccFZiBLS.s 			page 55


 1264 010e 2893     		str	r3, [sp, #160]
 624:Drivers/lvgl/lvgl/src/widgets/lv_table.c ****     part_draw_dsc.type = LV_TABLE_DRAW_PART_CELL;
 1265              		.loc 1 624 0
 1266 0110 CE4B     		ldr	r3, .L110
 1267 0112 1C93     		str	r3, [sp, #112]
 625:Drivers/lvgl/lvgl/src/widgets/lv_table.c ****     part_draw_dsc.rect_dsc = &rect_dsc_act;
 1268              		.loc 1 625 0
 1269 0114 1D94     		str	r4, [sp, #116]
 626:Drivers/lvgl/lvgl/src/widgets/lv_table.c ****     part_draw_dsc.label_dsc = &label_dsc_act;
 1270              		.loc 1 626 0
 1271 0116 3DAB     		add	r3, sp, #244
 1272 0118 1F93     		str	r3, [sp, #124]
 627:Drivers/lvgl/lvgl/src/widgets/lv_table.c **** 
 1273              		.loc 1 627 0
 1274 011a 2DAB     		add	r3, sp, #180
 1275 011c 2093     		str	r3, [sp, #128]
 1276              	.LVL187:
 629:Drivers/lvgl/lvgl/src/widgets/lv_table.c ****         lv_coord_t h_row = table->row_h[row];
 1277              		.loc 1 629 0
 1278 011e 0594     		str	r4, [sp, #20]
 1279 0120 4346     		mov	r3, r8
 1280 0122 A046     		mov	r8, r4
 1281              	.LVL188:
 1282 0124 9946     		mov	r9, r3
 1283 0126 FAE1     		b	.L53
 1284              	.LVL189:
 1285              	.L109:
 1286              	.LBB174:
 637:Drivers/lvgl/lvgl/src/widgets/lv_table.c ****         else cell_area.x2 = obj->coords.x1 + bg_left - 1 - scroll_x + border_width;
 1287              		.loc 1 637 0 discriminator 1
 1288 0128 BBF81830 		ldrh	r3, [fp, #24]
 1289 012c 129A     		ldr	r2, [sp, #72]
 1290 012e 9B1A     		subs	r3, r3, r2
 1291 0130 9BB2     		uxth	r3, r3
 1292 0132 0F9A     		ldr	r2, [sp, #60]
 1293 0134 9B1A     		subs	r3, r3, r2
 1294 0136 9BB2     		uxth	r3, r3
 1295 0138 0E9A     		ldr	r2, [sp, #56]
 1296 013a 9B1A     		subs	r3, r3, r2
 1297 013c 013B     		subs	r3, r3, #1
 1298 013e ADF86431 		strh	r3, [sp, #356]	@ movhi
 1299 0142 18E2     		b	.L56
 1300              	.LVL190:
 1301              	.L92:
 1302              	.LBB175:
 641:Drivers/lvgl/lvgl/src/widgets/lv_table.c ****             if(table->cell_data[cell]) ctrl = table->cell_data[cell][0];
 1303              		.loc 1 641 0
 1304 0144 0023     		movs	r3, #0
 1305 0146 0793     		str	r3, [sp, #28]
 1306 0148 61E1     		b	.L57
 1307              	.LVL191:
 1308              	.L108:
 645:Drivers/lvgl/lvgl/src/widgets/lv_table.c ****                 cell_area.x1 = cell_area.x2 - table->col_w[col] + 1;
 1309              		.loc 1 645 0
 1310 014a BDF86431 		ldrh	r3, [sp, #356]
 1311 014e 013B     		subs	r3, r3, #1
 1312 0150 9BB2     		uxth	r3, r3
ARM GAS  /tmp/ccFZiBLS.s 			page 56


 1313 0152 ADF86831 		strh	r3, [sp, #360]	@ movhi
 646:Drivers/lvgl/lvgl/src/widgets/lv_table.c ****             }
 1314              		.loc 1 646 0
 1315 0156 DBF83020 		ldr	r2, [fp, #48]
 1316 015a 32F81520 		ldrh	r2, [r2, r5, lsl #1]
 1317 015e 9B1A     		subs	r3, r3, r2
 1318 0160 9BB2     		uxth	r3, r3
 1319 0162 0133     		adds	r3, r3, #1
 1320 0164 ADF86431 		strh	r3, [sp, #356]	@ movhi
 1321 0168 64E1     		b	.L59
 1322              	.LVL192:
 1323              	.L97:
 1324              	.LBB176:
 1325              	.LBB177:
 663:Drivers/lvgl/lvgl/src/widgets/lv_table.c ****                     else cell_area.x2 += offset;
 1326              		.loc 1 663 0 discriminator 1
 1327 016a BDF86421 		ldrh	r2, [sp, #356]
 1328 016e D31A     		subs	r3, r2, r3
 1329              	.LVL193:
 1330 0170 ADF86431 		strh	r3, [sp, #356]	@ movhi
 1331              	.LVL194:
 1332              	.L62:
 1333              	.LBE177:
 1334              	.LBE176:
 654:Drivers/lvgl/lvgl/src/widgets/lv_table.c ****                 char * next_cell_data = table->cell_data[cell + col_merge];
 1335              		.loc 1 654 0 discriminator 2
 1336 0174 0134     		adds	r4, r4, #1
 1337              	.LVL195:
 1338 0176 A4B2     		uxth	r4, r4
 1339              	.LVL196:
 1340              	.L63:
 654:Drivers/lvgl/lvgl/src/widgets/lv_table.c ****                 char * next_cell_data = table->cell_data[cell + col_merge];
 1341              		.loc 1 654 0 is_stmt 0 discriminator 1
 1342 0178 2E46     		mov	r6, r5
 1343 017a 6319     		adds	r3, r4, r5
 1344 017c BBF82420 		ldrh	r2, [fp, #36]
 1345 0180 013A     		subs	r2, r2, #1
 1346 0182 9342     		cmp	r3, r2
 1347 0184 18DA     		bge	.L60
 1348              	.LBB179:
 655:Drivers/lvgl/lvgl/src/widgets/lv_table.c **** 
 1349              		.loc 1 655 0 is_stmt 1
 1350 0186 DBF82820 		ldr	r2, [fp, #40]
 1351 018a 08EB0401 		add	r1, r8, r4
 1352 018e 52F82120 		ldr	r2, [r2, r1, lsl #2]
 1353              	.LVL197:
 657:Drivers/lvgl/lvgl/src/widgets/lv_table.c **** 
 1354              		.loc 1 657 0
 1355 0192 8AB1     		cbz	r2, .L60
 659:Drivers/lvgl/lvgl/src/widgets/lv_table.c ****                 if(merge_ctrl & LV_TABLE_CELL_CTRL_MERGE_RIGHT) {
 1356              		.loc 1 659 0
 1357 0194 1278     		ldrb	r2, [r2]	@ zero_extendqisi2
 1358              	.LVL198:
 660:Drivers/lvgl/lvgl/src/widgets/lv_table.c ****                     lv_coord_t offset = table->col_w[col + col_merge + 1];
 1359              		.loc 1 660 0
 1360 0196 12F0010F 		tst	r2, #1
 1361 019a 0DD0     		beq	.L60
ARM GAS  /tmp/ccFZiBLS.s 			page 57


 1362              	.LBB178:
 661:Drivers/lvgl/lvgl/src/widgets/lv_table.c **** 
 1363              		.loc 1 661 0
 1364 019c DBF83020 		ldr	r2, [fp, #48]
 1365              	.LVL199:
 1366 01a0 0133     		adds	r3, r3, #1
 1367 01a2 32F91330 		ldrsh	r3, [r2, r3, lsl #1]
 1368              	.LVL200:
 663:Drivers/lvgl/lvgl/src/widgets/lv_table.c ****                     else cell_area.x2 += offset;
 1369              		.loc 1 663 0
 1370 01a6 B9F1010F 		cmp	r9, #1
 1371 01aa DED0     		beq	.L97
 664:Drivers/lvgl/lvgl/src/widgets/lv_table.c ****                 }
 1372              		.loc 1 664 0
 1373 01ac BDF86821 		ldrh	r2, [sp, #360]
 1374 01b0 1344     		add	r3, r3, r2
 1375              	.LVL201:
 1376 01b2 ADF86831 		strh	r3, [sp, #360]	@ movhi
 1377              	.LVL202:
 1378 01b6 DDE7     		b	.L62
 1379              	.L60:
 1380 01b8 0696     		str	r6, [sp, #24]
 1381              	.LBE178:
 1382              	.LBE179:
 671:Drivers/lvgl/lvgl/src/widgets/lv_table.c ****                 cell += col_merge + 1;
 1383              		.loc 1 671 0
 1384 01ba BDF96A21 		ldrsh	r2, [sp, #362]
 1385 01be BDF97231 		ldrsh	r3, [sp, #370]
 1386 01c2 9A42     		cmp	r2, r3
 1387 01c4 C0F23881 		blt	.L98
 1388              	.LVL203:
 1389              	.LBB180:
 1390              	.LBB181:
 1391              		.file 4 "Drivers/lvgl/lvgl/src/widgets/../core/../misc/../font/../misc/lv_area.h"
   1:Drivers/lvgl/lvgl/src/widgets/../core/../misc/../font/../misc/lv_area.h **** /**
   2:Drivers/lvgl/lvgl/src/widgets/../core/../misc/../font/../misc/lv_area.h ****  * @file lv_area.h
   3:Drivers/lvgl/lvgl/src/widgets/../core/../misc/../font/../misc/lv_area.h ****  *
   4:Drivers/lvgl/lvgl/src/widgets/../core/../misc/../font/../misc/lv_area.h ****  */
   5:Drivers/lvgl/lvgl/src/widgets/../core/../misc/../font/../misc/lv_area.h **** 
   6:Drivers/lvgl/lvgl/src/widgets/../core/../misc/../font/../misc/lv_area.h **** #ifndef LV_AREA_H
   7:Drivers/lvgl/lvgl/src/widgets/../core/../misc/../font/../misc/lv_area.h **** #define LV_AREA_H
   8:Drivers/lvgl/lvgl/src/widgets/../core/../misc/../font/../misc/lv_area.h **** 
   9:Drivers/lvgl/lvgl/src/widgets/../core/../misc/../font/../misc/lv_area.h **** #ifdef __cplusplus
  10:Drivers/lvgl/lvgl/src/widgets/../core/../misc/../font/../misc/lv_area.h **** extern "C" {
  11:Drivers/lvgl/lvgl/src/widgets/../core/../misc/../font/../misc/lv_area.h **** #endif
  12:Drivers/lvgl/lvgl/src/widgets/../core/../misc/../font/../misc/lv_area.h **** 
  13:Drivers/lvgl/lvgl/src/widgets/../core/../misc/../font/../misc/lv_area.h **** /*********************
  14:Drivers/lvgl/lvgl/src/widgets/../core/../misc/../font/../misc/lv_area.h ****  *      INCLUDES
  15:Drivers/lvgl/lvgl/src/widgets/../core/../misc/../font/../misc/lv_area.h ****  *********************/
  16:Drivers/lvgl/lvgl/src/widgets/../core/../misc/../font/../misc/lv_area.h **** #include "../lv_conf_internal.h"
  17:Drivers/lvgl/lvgl/src/widgets/../core/../misc/../font/../misc/lv_area.h **** #include <stdbool.h>
  18:Drivers/lvgl/lvgl/src/widgets/../core/../misc/../font/../misc/lv_area.h **** #include <stdint.h>
  19:Drivers/lvgl/lvgl/src/widgets/../core/../misc/../font/../misc/lv_area.h **** 
  20:Drivers/lvgl/lvgl/src/widgets/../core/../misc/../font/../misc/lv_area.h **** /*********************
  21:Drivers/lvgl/lvgl/src/widgets/../core/../misc/../font/../misc/lv_area.h ****  *      DEFINES
  22:Drivers/lvgl/lvgl/src/widgets/../core/../misc/../font/../misc/lv_area.h ****  *********************/
  23:Drivers/lvgl/lvgl/src/widgets/../core/../misc/../font/../misc/lv_area.h **** 
ARM GAS  /tmp/ccFZiBLS.s 			page 58


  24:Drivers/lvgl/lvgl/src/widgets/../core/../misc/../font/../misc/lv_area.h **** #if LV_USE_LARGE_COORD
  25:Drivers/lvgl/lvgl/src/widgets/../core/../misc/../font/../misc/lv_area.h **** typedef int32_t lv_coord_t;
  26:Drivers/lvgl/lvgl/src/widgets/../core/../misc/../font/../misc/lv_area.h **** #else
  27:Drivers/lvgl/lvgl/src/widgets/../core/../misc/../font/../misc/lv_area.h **** typedef int16_t lv_coord_t;
  28:Drivers/lvgl/lvgl/src/widgets/../core/../misc/../font/../misc/lv_area.h **** #endif
  29:Drivers/lvgl/lvgl/src/widgets/../core/../misc/../font/../misc/lv_area.h **** 
  30:Drivers/lvgl/lvgl/src/widgets/../core/../misc/../font/../misc/lv_area.h **** /**********************
  31:Drivers/lvgl/lvgl/src/widgets/../core/../misc/../font/../misc/lv_area.h ****  *      TYPEDEFS
  32:Drivers/lvgl/lvgl/src/widgets/../core/../misc/../font/../misc/lv_area.h ****  **********************/
  33:Drivers/lvgl/lvgl/src/widgets/../core/../misc/../font/../misc/lv_area.h **** 
  34:Drivers/lvgl/lvgl/src/widgets/../core/../misc/../font/../misc/lv_area.h **** /**
  35:Drivers/lvgl/lvgl/src/widgets/../core/../misc/../font/../misc/lv_area.h ****  * Represents a point on the screen.
  36:Drivers/lvgl/lvgl/src/widgets/../core/../misc/../font/../misc/lv_area.h ****  */
  37:Drivers/lvgl/lvgl/src/widgets/../core/../misc/../font/../misc/lv_area.h **** typedef struct {
  38:Drivers/lvgl/lvgl/src/widgets/../core/../misc/../font/../misc/lv_area.h ****     lv_coord_t x;
  39:Drivers/lvgl/lvgl/src/widgets/../core/../misc/../font/../misc/lv_area.h ****     lv_coord_t y;
  40:Drivers/lvgl/lvgl/src/widgets/../core/../misc/../font/../misc/lv_area.h **** } lv_point_t;
  41:Drivers/lvgl/lvgl/src/widgets/../core/../misc/../font/../misc/lv_area.h **** 
  42:Drivers/lvgl/lvgl/src/widgets/../core/../misc/../font/../misc/lv_area.h **** /** Represents an area of the screen.*/
  43:Drivers/lvgl/lvgl/src/widgets/../core/../misc/../font/../misc/lv_area.h **** typedef struct {
  44:Drivers/lvgl/lvgl/src/widgets/../core/../misc/../font/../misc/lv_area.h ****     lv_coord_t x1;
  45:Drivers/lvgl/lvgl/src/widgets/../core/../misc/../font/../misc/lv_area.h ****     lv_coord_t y1;
  46:Drivers/lvgl/lvgl/src/widgets/../core/../misc/../font/../misc/lv_area.h ****     lv_coord_t x2;
  47:Drivers/lvgl/lvgl/src/widgets/../core/../misc/../font/../misc/lv_area.h ****     lv_coord_t y2;
  48:Drivers/lvgl/lvgl/src/widgets/../core/../misc/../font/../misc/lv_area.h **** } lv_area_t;
  49:Drivers/lvgl/lvgl/src/widgets/../core/../misc/../font/../misc/lv_area.h **** 
  50:Drivers/lvgl/lvgl/src/widgets/../core/../misc/../font/../misc/lv_area.h **** /** Alignments*/
  51:Drivers/lvgl/lvgl/src/widgets/../core/../misc/../font/../misc/lv_area.h **** enum {
  52:Drivers/lvgl/lvgl/src/widgets/../core/../misc/../font/../misc/lv_area.h ****     LV_ALIGN_DEFAULT = 0,
  53:Drivers/lvgl/lvgl/src/widgets/../core/../misc/../font/../misc/lv_area.h ****     LV_ALIGN_TOP_LEFT,
  54:Drivers/lvgl/lvgl/src/widgets/../core/../misc/../font/../misc/lv_area.h ****     LV_ALIGN_TOP_MID,
  55:Drivers/lvgl/lvgl/src/widgets/../core/../misc/../font/../misc/lv_area.h ****     LV_ALIGN_TOP_RIGHT,
  56:Drivers/lvgl/lvgl/src/widgets/../core/../misc/../font/../misc/lv_area.h ****     LV_ALIGN_BOTTOM_LEFT,
  57:Drivers/lvgl/lvgl/src/widgets/../core/../misc/../font/../misc/lv_area.h ****     LV_ALIGN_BOTTOM_MID,
  58:Drivers/lvgl/lvgl/src/widgets/../core/../misc/../font/../misc/lv_area.h ****     LV_ALIGN_BOTTOM_RIGHT,
  59:Drivers/lvgl/lvgl/src/widgets/../core/../misc/../font/../misc/lv_area.h ****     LV_ALIGN_LEFT_MID,
  60:Drivers/lvgl/lvgl/src/widgets/../core/../misc/../font/../misc/lv_area.h ****     LV_ALIGN_RIGHT_MID,
  61:Drivers/lvgl/lvgl/src/widgets/../core/../misc/../font/../misc/lv_area.h ****     LV_ALIGN_CENTER,
  62:Drivers/lvgl/lvgl/src/widgets/../core/../misc/../font/../misc/lv_area.h **** 
  63:Drivers/lvgl/lvgl/src/widgets/../core/../misc/../font/../misc/lv_area.h ****     LV_ALIGN_OUT_TOP_LEFT,
  64:Drivers/lvgl/lvgl/src/widgets/../core/../misc/../font/../misc/lv_area.h ****     LV_ALIGN_OUT_TOP_MID,
  65:Drivers/lvgl/lvgl/src/widgets/../core/../misc/../font/../misc/lv_area.h ****     LV_ALIGN_OUT_TOP_RIGHT,
  66:Drivers/lvgl/lvgl/src/widgets/../core/../misc/../font/../misc/lv_area.h ****     LV_ALIGN_OUT_BOTTOM_LEFT,
  67:Drivers/lvgl/lvgl/src/widgets/../core/../misc/../font/../misc/lv_area.h ****     LV_ALIGN_OUT_BOTTOM_MID,
  68:Drivers/lvgl/lvgl/src/widgets/../core/../misc/../font/../misc/lv_area.h ****     LV_ALIGN_OUT_BOTTOM_RIGHT,
  69:Drivers/lvgl/lvgl/src/widgets/../core/../misc/../font/../misc/lv_area.h ****     LV_ALIGN_OUT_LEFT_TOP,
  70:Drivers/lvgl/lvgl/src/widgets/../core/../misc/../font/../misc/lv_area.h ****     LV_ALIGN_OUT_LEFT_MID,
  71:Drivers/lvgl/lvgl/src/widgets/../core/../misc/../font/../misc/lv_area.h ****     LV_ALIGN_OUT_LEFT_BOTTOM,
  72:Drivers/lvgl/lvgl/src/widgets/../core/../misc/../font/../misc/lv_area.h ****     LV_ALIGN_OUT_RIGHT_TOP,
  73:Drivers/lvgl/lvgl/src/widgets/../core/../misc/../font/../misc/lv_area.h ****     LV_ALIGN_OUT_RIGHT_MID,
  74:Drivers/lvgl/lvgl/src/widgets/../core/../misc/../font/../misc/lv_area.h ****     LV_ALIGN_OUT_RIGHT_BOTTOM,
  75:Drivers/lvgl/lvgl/src/widgets/../core/../misc/../font/../misc/lv_area.h **** };
  76:Drivers/lvgl/lvgl/src/widgets/../core/../misc/../font/../misc/lv_area.h **** typedef uint8_t lv_align_t;
  77:Drivers/lvgl/lvgl/src/widgets/../core/../misc/../font/../misc/lv_area.h **** 
  78:Drivers/lvgl/lvgl/src/widgets/../core/../misc/../font/../misc/lv_area.h **** enum {
  79:Drivers/lvgl/lvgl/src/widgets/../core/../misc/../font/../misc/lv_area.h ****     LV_DIR_NONE     = 0x00,
  80:Drivers/lvgl/lvgl/src/widgets/../core/../misc/../font/../misc/lv_area.h ****     LV_DIR_LEFT     = (1 << 0),
ARM GAS  /tmp/ccFZiBLS.s 			page 59


  81:Drivers/lvgl/lvgl/src/widgets/../core/../misc/../font/../misc/lv_area.h ****     LV_DIR_RIGHT    = (1 << 1),
  82:Drivers/lvgl/lvgl/src/widgets/../core/../misc/../font/../misc/lv_area.h ****     LV_DIR_TOP      = (1 << 2),
  83:Drivers/lvgl/lvgl/src/widgets/../core/../misc/../font/../misc/lv_area.h ****     LV_DIR_BOTTOM   = (1 << 3),
  84:Drivers/lvgl/lvgl/src/widgets/../core/../misc/../font/../misc/lv_area.h ****     LV_DIR_HOR      = LV_DIR_LEFT | LV_DIR_RIGHT,
  85:Drivers/lvgl/lvgl/src/widgets/../core/../misc/../font/../misc/lv_area.h ****     LV_DIR_VER      = LV_DIR_TOP | LV_DIR_BOTTOM,
  86:Drivers/lvgl/lvgl/src/widgets/../core/../misc/../font/../misc/lv_area.h ****     LV_DIR_ALL      = LV_DIR_HOR | LV_DIR_VER,
  87:Drivers/lvgl/lvgl/src/widgets/../core/../misc/../font/../misc/lv_area.h **** };
  88:Drivers/lvgl/lvgl/src/widgets/../core/../misc/../font/../misc/lv_area.h **** 
  89:Drivers/lvgl/lvgl/src/widgets/../core/../misc/../font/../misc/lv_area.h **** typedef uint8_t lv_dir_t;
  90:Drivers/lvgl/lvgl/src/widgets/../core/../misc/../font/../misc/lv_area.h **** 
  91:Drivers/lvgl/lvgl/src/widgets/../core/../misc/../font/../misc/lv_area.h **** /**********************
  92:Drivers/lvgl/lvgl/src/widgets/../core/../misc/../font/../misc/lv_area.h ****  * GLOBAL PROTOTYPES
  93:Drivers/lvgl/lvgl/src/widgets/../core/../misc/../font/../misc/lv_area.h ****  **********************/
  94:Drivers/lvgl/lvgl/src/widgets/../core/../misc/../font/../misc/lv_area.h **** 
  95:Drivers/lvgl/lvgl/src/widgets/../core/../misc/../font/../misc/lv_area.h **** /**
  96:Drivers/lvgl/lvgl/src/widgets/../core/../misc/../font/../misc/lv_area.h ****  * Initialize an area
  97:Drivers/lvgl/lvgl/src/widgets/../core/../misc/../font/../misc/lv_area.h ****  * @param area_p pointer to an area
  98:Drivers/lvgl/lvgl/src/widgets/../core/../misc/../font/../misc/lv_area.h ****  * @param x1 left coordinate of the area
  99:Drivers/lvgl/lvgl/src/widgets/../core/../misc/../font/../misc/lv_area.h ****  * @param y1 top coordinate of the area
 100:Drivers/lvgl/lvgl/src/widgets/../core/../misc/../font/../misc/lv_area.h ****  * @param x2 right coordinate of the area
 101:Drivers/lvgl/lvgl/src/widgets/../core/../misc/../font/../misc/lv_area.h ****  * @param y2 bottom coordinate of the area
 102:Drivers/lvgl/lvgl/src/widgets/../core/../misc/../font/../misc/lv_area.h ****  */
 103:Drivers/lvgl/lvgl/src/widgets/../core/../misc/../font/../misc/lv_area.h **** void lv_area_set(lv_area_t * area_p, lv_coord_t x1, lv_coord_t y1, lv_coord_t x2, lv_coord_t y2);
 104:Drivers/lvgl/lvgl/src/widgets/../core/../misc/../font/../misc/lv_area.h **** 
 105:Drivers/lvgl/lvgl/src/widgets/../core/../misc/../font/../misc/lv_area.h **** /**
 106:Drivers/lvgl/lvgl/src/widgets/../core/../misc/../font/../misc/lv_area.h ****  * Copy an area
 107:Drivers/lvgl/lvgl/src/widgets/../core/../misc/../font/../misc/lv_area.h ****  * @param dest pointer to the destination area
 108:Drivers/lvgl/lvgl/src/widgets/../core/../misc/../font/../misc/lv_area.h ****  * @param src pointer to the source area
 109:Drivers/lvgl/lvgl/src/widgets/../core/../misc/../font/../misc/lv_area.h ****  */
 110:Drivers/lvgl/lvgl/src/widgets/../core/../misc/../font/../misc/lv_area.h **** inline static void lv_area_copy(lv_area_t * dest, const lv_area_t * src)
 111:Drivers/lvgl/lvgl/src/widgets/../core/../misc/../font/../misc/lv_area.h **** {
 112:Drivers/lvgl/lvgl/src/widgets/../core/../misc/../font/../misc/lv_area.h ****     dest->x1 = src->x1;
 1392              		.loc 4 112 0
 1393 01c8 BDF96401 		ldrsh	r0, [sp, #356]
 1394 01cc ADF85400 		strh	r0, [sp, #84]	@ movhi
 113:Drivers/lvgl/lvgl/src/widgets/../core/../misc/../font/../misc/lv_area.h ****     dest->y1 = src->y1;
 1395              		.loc 4 113 0
 1396 01d0 BDF96611 		ldrsh	r1, [sp, #358]
 1397 01d4 ADF85610 		strh	r1, [sp, #86]	@ movhi
 114:Drivers/lvgl/lvgl/src/widgets/../core/../misc/../font/../misc/lv_area.h ****     dest->x2 = src->x2;
 1398              		.loc 4 114 0
 1399 01d8 BDF96871 		ldrsh	r7, [sp, #360]
 1400 01dc ADF85870 		strh	r7, [sp, #88]	@ movhi
 115:Drivers/lvgl/lvgl/src/widgets/../core/../misc/../font/../misc/lv_area.h ****     dest->y2 = src->y2;
 1401              		.loc 4 115 0
 1402 01e0 ADF85A20 		strh	r2, [sp, #90]	@ movhi
 1403              	.LVL204:
 1404              	.LBE181:
 1405              	.LBE180:
 680:Drivers/lvgl/lvgl/src/widgets/lv_table.c ****                 cell_area_border.x1 -= rect_dsc_def.border_width / 2;
 1406              		.loc 1 680 0
 1407 01e4 9DF84F31 		ldrb	r3, [sp, #335]	@ zero_extendqisi2
 1408 01e8 C3F34403 		ubfx	r3, r3, #1, #5
 1409 01ec 13F0040F 		tst	r3, #4
 1410 01f0 10D0     		beq	.L67
 680:Drivers/lvgl/lvgl/src/widgets/lv_table.c ****                 cell_area_border.x1 -= rect_dsc_def.border_width / 2;
 1411              		.loc 1 680 0 is_stmt 0 discriminator 1
ARM GAS  /tmp/ccFZiBLS.s 			page 60


 1412 01f2 BBF914C0 		ldrsh	ip, [fp, #20]
 1413 01f6 0B9E     		ldr	r6, [sp, #44]
 1414 01f8 B444     		add	ip, ip, r6
 1415 01fa 6045     		cmp	r0, ip
 1416 01fc 0ADD     		ble	.L67
 681:Drivers/lvgl/lvgl/src/widgets/lv_table.c ****             }
 1417              		.loc 1 681 0 is_stmt 1
 1418 01fe BDF94CC1 		ldrsh	ip, [sp, #332]
 1419 0202 E646     		mov	lr, ip
 1420 0204 BCF1000F 		cmp	ip, #0
 1421 0208 C0F22281 		blt	.L99
 1422              	.L68:
 1423 020c A0EB6E00 		sub	r0, r0, lr, asr #1
 1424 0210 ADF85400 		strh	r0, [sp, #84]	@ movhi
 1425              	.L67:
 683:Drivers/lvgl/lvgl/src/widgets/lv_table.c ****                 cell_area_border.y1 -= rect_dsc_def.border_width / 2;
 1426              		.loc 1 683 0
 1427 0214 13F0020F 		tst	r3, #2
 1428 0218 0FD0     		beq	.L69
 683:Drivers/lvgl/lvgl/src/widgets/lv_table.c ****                 cell_area_border.y1 -= rect_dsc_def.border_width / 2;
 1429              		.loc 1 683 0 is_stmt 0 discriminator 1
 1430 021a BBF91600 		ldrsh	r0, [fp, #22]
 1431 021e 0D9E     		ldr	r6, [sp, #52]
 1432 0220 3044     		add	r0, r0, r6
 1433 0222 8142     		cmp	r1, r0
 1434 0224 09DD     		ble	.L69
 684:Drivers/lvgl/lvgl/src/widgets/lv_table.c ****             }
 1435              		.loc 1 684 0 is_stmt 1
 1436 0226 BDF94C01 		ldrsh	r0, [sp, #332]
 1437 022a 8446     		mov	ip, r0
 1438 022c 0028     		cmp	r0, #0
 1439 022e C0F21281 		blt	.L100
 1440              	.L70:
 1441 0232 A1EB6C01 		sub	r1, r1, ip, asr #1
 1442 0236 ADF85610 		strh	r1, [sp, #86]	@ movhi
 1443              	.L69:
 686:Drivers/lvgl/lvgl/src/widgets/lv_table.c ****                 cell_area_border.x2 += rect_dsc_def.border_width / 2 + (rect_dsc_def.border_width &
 1444              		.loc 1 686 0
 1445 023a 13F0080F 		tst	r3, #8
 1446 023e 14D0     		beq	.L71
 686:Drivers/lvgl/lvgl/src/widgets/lv_table.c ****                 cell_area_border.x2 += rect_dsc_def.border_width / 2 + (rect_dsc_def.border_width &
 1447              		.loc 1 686 0 is_stmt 0 discriminator 1
 1448 0240 BBF91810 		ldrsh	r1, [fp, #24]
 1449 0244 0A98     		ldr	r0, [sp, #40]
 1450 0246 091A     		subs	r1, r1, r0
 1451 0248 0139     		subs	r1, r1, #1
 1452 024a 8F42     		cmp	r7, r1
 1453 024c 0DDA     		bge	.L71
 687:Drivers/lvgl/lvgl/src/widgets/lv_table.c ****             }
 1454              		.loc 1 687 0 is_stmt 1
 1455 024e BDF94C01 		ldrsh	r0, [sp, #332]
 1456 0252 00F00101 		and	r1, r0, #1
 1457 0256 8446     		mov	ip, r0
 1458 0258 0028     		cmp	r0, #0
 1459 025a C0F2FF80 		blt	.L101
 1460              	.L72:
 1461 025e 01EB6C01 		add	r1, r1, ip, asr #1
ARM GAS  /tmp/ccFZiBLS.s 			page 61


 1462 0262 17FA81F7 		uxtah	r7, r7, r1
 1463 0266 ADF85870 		strh	r7, [sp, #88]	@ movhi
 1464              	.L71:
 689:Drivers/lvgl/lvgl/src/widgets/lv_table.c ****                cell_area_border.y2 < obj->coords.y2 - bg_bottom - 1) {
 1465              		.loc 1 689 0
 1466 026a 13F0010F 		tst	r3, #1
 1467 026e 14D0     		beq	.L73
 690:Drivers/lvgl/lvgl/src/widgets/lv_table.c ****                 cell_area_border.y2 += rect_dsc_def.border_width / 2 + (rect_dsc_def.border_width &
 1468              		.loc 1 690 0 discriminator 1
 1469 0270 BBF91A30 		ldrsh	r3, [fp, #26]
 1470 0274 0C99     		ldr	r1, [sp, #48]
 1471 0276 5B1A     		subs	r3, r3, r1
 1472 0278 013B     		subs	r3, r3, #1
 689:Drivers/lvgl/lvgl/src/widgets/lv_table.c ****                cell_area_border.y2 < obj->coords.y2 - bg_bottom - 1) {
 1473              		.loc 1 689 0 discriminator 1
 1474 027a 9A42     		cmp	r2, r3
 1475 027c 0DDA     		bge	.L73
 691:Drivers/lvgl/lvgl/src/widgets/lv_table.c ****             }
 1476              		.loc 1 691 0
 1477 027e BDF94C11 		ldrsh	r1, [sp, #332]
 1478 0282 01F00103 		and	r3, r1, #1
 1479 0286 0846     		mov	r0, r1
 1480 0288 0029     		cmp	r1, #0
 1481 028a C0F2EA80 		blt	.L102
 1482              	.L74:
 1483 028e 03EB6003 		add	r3, r3, r0, asr #1
 1484 0292 12FA83F2 		uxtah	r2, r2, r3
 1485 0296 ADF85A20 		strh	r2, [sp, #90]	@ movhi
 1486              	.L73:
 1487              	.LVL205:
 695:Drivers/lvgl/lvgl/src/widgets/lv_table.c ****                 if(!(obj->state & LV_STATE_SCROLLED) && (obj->state & LV_STATE_PRESSED)) cell_state
 1488              		.loc 1 695 0
 1489 029a BBF83630 		ldrh	r3, [fp, #54]
 1490 029e 059A     		ldr	r2, [sp, #20]
 1491 02a0 9342     		cmp	r3, r2
 1492 02a2 04D1     		bne	.L75
 695:Drivers/lvgl/lvgl/src/widgets/lv_table.c ****                 if(!(obj->state & LV_STATE_SCROLLED) && (obj->state & LV_STATE_PRESSED)) cell_state
 1493              		.loc 1 695 0 is_stmt 0 discriminator 1
 1494 02a4 BBF83430 		ldrh	r3, [fp, #52]
 1495 02a8 AB42     		cmp	r3, r5
 1496 02aa 00F0DC80 		beq	.L103
 1497              	.LVL206:
 1498              	.L75:
 704:Drivers/lvgl/lvgl/src/widgets/lv_table.c ****                 lv_memcpy(&label_dsc_act, &label_dsc_def, sizeof(lv_draw_label_dsc_t));
 1499              		.loc 1 704 0 is_stmt 1
 1500 02ae 3822     		movs	r2, #56
 1501 02b0 4BA9     		add	r1, sp, #300
 1502 02b2 3DA8     		add	r0, sp, #244
 1503 02b4 FFF7FEFF 		bl	lv_memcpy
 1504              	.LVL207:
 705:Drivers/lvgl/lvgl/src/widgets/lv_table.c ****             }
 1505              		.loc 1 705 0
 1506 02b8 2022     		movs	r2, #32
 1507 02ba 35A9     		add	r1, sp, #212
 1508 02bc 2DA8     		add	r0, sp, #180
 1509 02be FFF7FEFF 		bl	lv_memcpy
 1510              	.LVL208:
ARM GAS  /tmp/ccFZiBLS.s 			page 62


 1511              	.L81:
 719:Drivers/lvgl/lvgl/src/widgets/lv_table.c ****             part_draw_dsc.id = row * table->col_cnt + col;
 1512              		.loc 1 719 0
 1513 02c2 15AF     		add	r7, sp, #84
 1514 02c4 1E97     		str	r7, [sp, #120]
 720:Drivers/lvgl/lvgl/src/widgets/lv_table.c ****             lv_event_send(obj, LV_EVENT_DRAW_PART_BEGIN, &part_draw_dsc);
 1515              		.loc 1 720 0
 1516 02c6 BBF82430 		ldrh	r3, [fp, #36]
 1517 02ca 059A     		ldr	r2, [sp, #20]
 1518 02cc 0699     		ldr	r1, [sp, #24]
 1519 02ce 03FB0216 		mla	r6, r3, r2, r1
 1520 02d2 2996     		str	r6, [sp, #164]
 721:Drivers/lvgl/lvgl/src/widgets/lv_table.c **** 
 1521              		.loc 1 721 0
 1522 02d4 1BAA     		add	r2, sp, #108
 1523 02d6 1A21     		movs	r1, #26
 1524 02d8 5846     		mov	r0, fp
 1525 02da FFF7FEFF 		bl	lv_event_send
 1526              	.LVL209:
 723:Drivers/lvgl/lvgl/src/widgets/lv_table.c **** 
 1527              		.loc 1 723 0
 1528 02de 3A46     		mov	r2, r7
 1529 02e0 3DA9     		add	r1, sp, #244
 1530 02e2 0898     		ldr	r0, [sp, #32]
 1531 02e4 FFF7FEFF 		bl	lv_draw_rect
 1532              	.LVL210:
 725:Drivers/lvgl/lvgl/src/widgets/lv_table.c ****                 const lv_coord_t cell_left = lv_obj_get_style_pad_left(obj, LV_PART_ITEMS);
 1533              		.loc 1 725 0
 1534 02e8 DBF82830 		ldr	r3, [fp, #40]
 1535 02ec 53F80A30 		ldr	r3, [r3, r10]
 1536 02f0 002B     		cmp	r3, #0
 1537 02f2 6CD0     		beq	.L82
 1538              	.LVL211:
 1539              	.LBB182:
 1540              	.LBB183:
 1541              	.LBB184:
 117:Drivers/lvgl/lvgl/src/widgets/../core/lv_obj_style_gen.h ****     return (lv_coord_t)v.num;
 1542              		.loc 3 117 0
 1543 02f4 1222     		movs	r2, #18
 1544 02f6 4FF4A021 		mov	r1, #327680
 1545 02fa 5846     		mov	r0, fp
 1546 02fc FFF7FEFF 		bl	lv_obj_get_style_prop
 1547              	.LVL212:
 1548 0300 0690     		str	r0, [sp, #24]
 1549              	.LVL213:
 1550              	.LBE184:
 1551              	.LBE183:
 1552              	.LBB185:
 1553              	.LBB186:
 123:Drivers/lvgl/lvgl/src/widgets/../core/lv_obj_style_gen.h ****     return (lv_coord_t)v.num;
 1554              		.loc 3 123 0
 1555 0302 1322     		movs	r2, #19
 1556 0304 4FF4A021 		mov	r1, #327680
 1557 0308 5846     		mov	r0, fp
 1558 030a FFF7FEFF 		bl	lv_obj_get_style_prop
 1559              	.LVL214:
 1560 030e 0746     		mov	r7, r0
ARM GAS  /tmp/ccFZiBLS.s 			page 63


 1561              	.LVL215:
 1562              	.LBE186:
 1563              	.LBE185:
 1564              	.LBB187:
 1565              	.LBB188:
 105:Drivers/lvgl/lvgl/src/widgets/../core/lv_obj_style_gen.h ****     return (lv_coord_t)v.num;
 1566              		.loc 3 105 0
 1567 0310 1022     		movs	r2, #16
 1568 0312 4FF4A021 		mov	r1, #327680
 1569 0316 5846     		mov	r0, fp
 1570 0318 FFF7FEFF 		bl	lv_obj_get_style_prop
 1571              	.LVL216:
 1572 031c 0646     		mov	r6, r0
 1573              	.LVL217:
 1574              	.LBE188:
 1575              	.LBE187:
 1576              	.LBB189:
 1577              	.LBB190:
 111:Drivers/lvgl/lvgl/src/widgets/../core/lv_obj_style_gen.h ****     return (lv_coord_t)v.num;
 1578              		.loc 3 111 0
 1579 031e 1122     		movs	r2, #17
 1580 0320 4FF4A021 		mov	r1, #327680
 1581 0324 5846     		mov	r0, fp
 1582 0326 FFF7FEFF 		bl	lv_obj_get_style_prop
 1583              	.LVL218:
 1584              	.LBE190:
 1585              	.LBE189:
 733:Drivers/lvgl/lvgl/src/widgets/lv_table.c ****                 txt_area.x2 = cell_area.x2 - cell_right;
 1586              		.loc 1 733 0
 1587 032a BDF86421 		ldrh	r2, [sp, #356]
 1588 032e 069B     		ldr	r3, [sp, #24]
 1589              	.LVL219:
 1590 0330 1A44     		add	r2, r2, r3
 1591 0332 92B2     		uxth	r2, r2
 1592 0334 ADF85C20 		strh	r2, [sp, #92]	@ movhi
 734:Drivers/lvgl/lvgl/src/widgets/lv_table.c ****                 txt_area.y1 = cell_area.y1 + cell_top;
 1593              		.loc 1 734 0
 1594 0338 BDF86831 		ldrh	r3, [sp, #360]
 1595              	.LVL220:
 1596 033c DF1B     		subs	r7, r3, r7
 1597              	.LVL221:
 1598 033e BFB2     		uxth	r7, r7
 1599 0340 ADF86070 		strh	r7, [sp, #96]	@ movhi
 735:Drivers/lvgl/lvgl/src/widgets/lv_table.c ****                 txt_area.y2 = cell_area.y2 - cell_bottom;
 1600              		.loc 1 735 0
 1601 0344 BDF86631 		ldrh	r3, [sp, #358]
 1602              	.LVL222:
 1603 0348 1E44     		add	r6, r6, r3
 1604              	.LVL223:
 1605 034a ADF85E60 		strh	r6, [sp, #94]	@ movhi
 736:Drivers/lvgl/lvgl/src/widgets/lv_table.c **** 
 1606              		.loc 1 736 0
 1607 034e BDF86A31 		ldrh	r3, [sp, #362]
 1608 0352 181A     		subs	r0, r3, r0
 1609 0354 ADF86200 		strh	r0, [sp, #98]	@ movhi
 739:Drivers/lvgl/lvgl/src/widgets/lv_table.c ****                 if(crop) txt_flags = LV_TEXT_FLAG_EXPAND;
 1610              		.loc 1 739 0
ARM GAS  /tmp/ccFZiBLS.s 			page 64


 1611 0358 079B     		ldr	r3, [sp, #28]
 1612 035a C3F34006 		ubfx	r6, r3, #1, #1
 1613              	.LVL224:
 740:Drivers/lvgl/lvgl/src/widgets/lv_table.c **** 
 1614              		.loc 1 740 0
 1615 035e 002E     		cmp	r6, #0
 1616 0360 40F0C180 		bne	.L94
 730:Drivers/lvgl/lvgl/src/widgets/lv_table.c ****                 lv_area_t txt_area;
 1617              		.loc 1 730 0
 1618 0364 0020     		movs	r0, #0
 1619              	.L83:
 1620              	.LVL225:
 742:Drivers/lvgl/lvgl/src/widgets/lv_table.c ****                                 label_dsc_act.letter_space, label_dsc_act.line_space,
 1621              		.loc 1 742 0
 1622 0366 DBF82830 		ldr	r3, [fp, #40]
 1623 036a 53F80A10 		ldr	r1, [r3, r10]
 1624              	.LVL226:
 1625              	.LBB191:
 1626              	.LBB192:
 116:Drivers/lvgl/lvgl/src/widgets/../core/../misc/../font/../misc/lv_area.h **** }
 117:Drivers/lvgl/lvgl/src/widgets/../core/../misc/../font/../misc/lv_area.h **** 
 118:Drivers/lvgl/lvgl/src/widgets/../core/../misc/../font/../misc/lv_area.h **** /**
 119:Drivers/lvgl/lvgl/src/widgets/../core/../misc/../font/../misc/lv_area.h ****  * Get the width of an area
 120:Drivers/lvgl/lvgl/src/widgets/../core/../misc/../font/../misc/lv_area.h ****  * @param area_p pointer to an area
 121:Drivers/lvgl/lvgl/src/widgets/../core/../misc/../font/../misc/lv_area.h ****  * @return the width of the area (if x1 == x2 -> width = 1)
 122:Drivers/lvgl/lvgl/src/widgets/../core/../misc/../font/../misc/lv_area.h ****  */
 123:Drivers/lvgl/lvgl/src/widgets/../core/../misc/../font/../misc/lv_area.h **** static inline lv_coord_t lv_area_get_width(const lv_area_t * area_p)
 124:Drivers/lvgl/lvgl/src/widgets/../core/../misc/../font/../misc/lv_area.h **** {
 125:Drivers/lvgl/lvgl/src/widgets/../core/../misc/../font/../misc/lv_area.h ****     return (lv_coord_t)(area_p->x2 - area_p->x1 + 1);
 1627              		.loc 4 125 0
 1628 036e BA1A     		subs	r2, r7, r2
 1629 0370 92B2     		uxth	r2, r2
 1630 0372 0132     		adds	r2, r2, #1
 1631 0374 12B2     		sxth	r2, r2
 1632              	.LVL227:
 1633              	.LBE192:
 1634              	.LBE191:
 742:Drivers/lvgl/lvgl/src/widgets/lv_table.c ****                                 label_dsc_act.letter_space, label_dsc_act.line_space,
 1635              		.loc 1 742 0
 1636 0376 BDF9C830 		ldrsh	r3, [sp, #200]
 1637 037a 0290     		str	r0, [sp, #8]
 1638 037c 0192     		str	r2, [sp, #4]
 1639 037e BDF9C620 		ldrsh	r2, [sp, #198]
 1640 0382 0092     		str	r2, [sp]
 1641 0384 359A     		ldr	r2, [sp, #212]
 1642 0386 0131     		adds	r1, r1, #1
 1643 0388 5BA8     		add	r0, sp, #364
 1644              	.LVL228:
 1645 038a FFF7FEFF 		bl	lv_txt_get_size
 1646              	.LVL229:
 747:Drivers/lvgl/lvgl/src/widgets/lv_table.c ****                     txt_area.y1 = cell_area.y1 + h_row / 2 - txt_size.y / 2;
 1647              		.loc 1 747 0
 1648 038e B6B9     		cbnz	r6, .L84
 748:Drivers/lvgl/lvgl/src/widgets/lv_table.c ****                     txt_area.y2 = cell_area.y1 + h_row / 2 + txt_size.y / 2;
 1649              		.loc 1 748 0
 1650 0390 BDF86631 		ldrh	r3, [sp, #358]
 1651 0394 0999     		ldr	r1, [sp, #36]
ARM GAS  /tmp/ccFZiBLS.s 			page 65


 1652 0396 0A46     		mov	r2, r1
 1653 0398 0029     		cmp	r1, #0
 1654 039a C0F2A680 		blt	.L104
 1655              	.L85:
 1656 039e 03EB6203 		add	r3, r3, r2, asr #1
 1657 03a2 9BB2     		uxth	r3, r3
 1658 03a4 BDF96E21 		ldrsh	r2, [sp, #366]
 1659 03a8 002A     		cmp	r2, #0
 1660 03aa C0F2A080 		blt	.L105
 1661              	.L86:
 1662 03ae C2F34F02 		ubfx	r2, r2, #1, #16
 1663 03b2 991A     		subs	r1, r3, r2
 1664 03b4 ADF85E10 		strh	r1, [sp, #94]	@ movhi
 749:Drivers/lvgl/lvgl/src/widgets/lv_table.c ****                 }
 1665              		.loc 1 749 0
 1666 03b8 1344     		add	r3, r3, r2
 1667 03ba ADF86230 		strh	r3, [sp, #98]	@ movhi
 1668              	.L84:
 754:Drivers/lvgl/lvgl/src/widgets/lv_table.c ****                 if(label_mask_ok) {
 1669              		.loc 1 754 0
 1670 03be 59AA     		add	r2, sp, #356
 1671 03c0 5CA9     		add	r1, sp, #368
 1672 03c2 19A8     		add	r0, sp, #100
 1673 03c4 FFF7FEFF 		bl	_lv_area_intersect
 1674              	.LVL230:
 755:Drivers/lvgl/lvgl/src/widgets/lv_table.c ****                     draw_ctx->clip_area = &label_clip_area;
 1675              		.loc 1 755 0
 1676 03c8 0028     		cmp	r0, #0
 1677 03ca 40F09280 		bne	.L106
 1678              	.LVL231:
 1679              	.L82:
 1680              	.LBE182:
 762:Drivers/lvgl/lvgl/src/widgets/lv_table.c **** 
 1681              		.loc 1 762 0 discriminator 1
 1682 03ce 1BAA     		add	r2, sp, #108
 1683 03d0 1B21     		movs	r1, #27
 1684 03d2 5846     		mov	r0, fp
 1685 03d4 FFF7FEFF 		bl	lv_event_send
 1686              	.LVL232:
 764:Drivers/lvgl/lvgl/src/widgets/lv_table.c ****             col += col_merge;
 1687              		.loc 1 764 0 discriminator 1
 1688 03d8 A044     		add	r8, r8, r4
 1689              	.LVL233:
 1690 03da 1FFA88F8 		uxth	r8, r8
 1691 03de 08F10108 		add	r8, r8, #1
 1692 03e2 1FFA88F8 		uxth	r8, r8
 1693              	.LVL234:
 765:Drivers/lvgl/lvgl/src/widgets/lv_table.c ****         }
 1694              		.loc 1 765 0 discriminator 1
 1695 03e6 2544     		add	r5, r5, r4
 1696              	.LVL235:
 1697 03e8 ADB2     		uxth	r5, r5
 1698              	.LVL236:
 1699              	.L66:
 1700              	.LBE175:
 640:Drivers/lvgl/lvgl/src/widgets/lv_table.c ****             lv_table_cell_ctrl_t ctrl = 0;
 1701              		.loc 1 640 0 discriminator 2
ARM GAS  /tmp/ccFZiBLS.s 			page 66


 1702 03ea 0135     		adds	r5, r5, #1
 1703              	.LVL237:
 1704 03ec ADB2     		uxth	r5, r5
 1705              	.LVL238:
 1706              	.L88:
 640:Drivers/lvgl/lvgl/src/widgets/lv_table.c ****             lv_table_cell_ctrl_t ctrl = 0;
 1707              		.loc 1 640 0 is_stmt 0 discriminator 1
 1708 03ee BBF82430 		ldrh	r3, [fp, #36]
 1709 03f2 AB42     		cmp	r3, r5
 1710 03f4 40F28F80 		bls	.L107
 1711              	.LVL239:
 1712              	.LBB195:
 642:Drivers/lvgl/lvgl/src/widgets/lv_table.c **** 
 1713              		.loc 1 642 0 is_stmt 1
 1714 03f8 DBF82830 		ldr	r3, [fp, #40]
 1715 03fc 4FEA880A 		lsl	r10, r8, #2
 1716 0400 53F82830 		ldr	r3, [r3, r8, lsl #2]
 1717 0404 002B     		cmp	r3, #0
 1718 0406 3FF49DAE 		beq	.L92
 642:Drivers/lvgl/lvgl/src/widgets/lv_table.c **** 
 1719              		.loc 1 642 0 is_stmt 0 discriminator 1
 1720 040a 1B78     		ldrb	r3, [r3]	@ zero_extendqisi2
 1721 040c 0793     		str	r3, [sp, #28]
 1722              	.LVL240:
 1723              	.L57:
 644:Drivers/lvgl/lvgl/src/widgets/lv_table.c ****                 cell_area.x2 = cell_area.x1 - 1;
 1724              		.loc 1 644 0 is_stmt 1
 1725 040e B9F1010F 		cmp	r9, #1
 1726 0412 3FF49AAE 		beq	.L108
 649:Drivers/lvgl/lvgl/src/widgets/lv_table.c ****                 cell_area.x2 = cell_area.x1 + table->col_w[col] - 1;
 1727              		.loc 1 649 0
 1728 0416 BDF86831 		ldrh	r3, [sp, #360]
 1729 041a 0133     		adds	r3, r3, #1
 1730 041c 9BB2     		uxth	r3, r3
 1731 041e ADF86431 		strh	r3, [sp, #356]	@ movhi
 650:Drivers/lvgl/lvgl/src/widgets/lv_table.c ****             }
 1732              		.loc 1 650 0
 1733 0422 DBF83020 		ldr	r2, [fp, #48]
 1734 0426 32F81520 		ldrh	r2, [r2, r5, lsl #1]
 1735 042a 1344     		add	r3, r3, r2
 1736 042c 9BB2     		uxth	r3, r3
 1737 042e 013B     		subs	r3, r3, #1
 1738 0430 ADF86831 		strh	r3, [sp, #360]	@ movhi
 1739              	.L59:
 641:Drivers/lvgl/lvgl/src/widgets/lv_table.c ****             if(table->cell_data[cell]) ctrl = table->cell_data[cell][0];
 1740              		.loc 1 641 0 discriminator 1
 1741 0434 0024     		movs	r4, #0
 1742 0436 9FE6     		b	.L63
 1743              	.LVL241:
 1744              	.L98:
 672:Drivers/lvgl/lvgl/src/widgets/lv_table.c ****                 col += col_merge;
 1745              		.loc 1 672 0
 1746 0438 A044     		add	r8, r8, r4
 1747              	.LVL242:
 1748 043a 1FFA88F8 		uxth	r8, r8
 1749 043e 08F10108 		add	r8, r8, #1
 1750 0442 1FFA88F8 		uxth	r8, r8
ARM GAS  /tmp/ccFZiBLS.s 			page 67


 1751              	.LVL243:
 673:Drivers/lvgl/lvgl/src/widgets/lv_table.c ****                 continue;
 1752              		.loc 1 673 0
 1753 0446 2544     		add	r5, r5, r4
 1754              	.LVL244:
 1755 0448 ADB2     		uxth	r5, r5
 1756              	.LVL245:
 1757 044a CEE7     		b	.L66
 1758              	.L111:
 1759              		.align	2
 1760              	.L110:
 1761 044c 00000000 		.word	.LANCHOR0
 1762              	.L99:
 681:Drivers/lvgl/lvgl/src/widgets/lv_table.c ****             }
 1763              		.loc 1 681 0
 1764 0450 0CF1010E 		add	lr, ip, #1
 1765 0454 DAE6     		b	.L68
 1766              	.L100:
 684:Drivers/lvgl/lvgl/src/widgets/lv_table.c ****             }
 1767              		.loc 1 684 0
 1768 0456 00F1010C 		add	ip, r0, #1
 1769 045a EAE6     		b	.L70
 1770              	.L101:
 687:Drivers/lvgl/lvgl/src/widgets/lv_table.c ****             }
 1771              		.loc 1 687 0
 1772 045c 00F1010C 		add	ip, r0, #1
 1773 0460 FDE6     		b	.L72
 1774              	.L102:
 691:Drivers/lvgl/lvgl/src/widgets/lv_table.c ****             }
 1775              		.loc 1 691 0
 1776 0462 481C     		adds	r0, r1, #1
 1777 0464 13E7     		b	.L74
 1778              	.LVL246:
 1779              	.L103:
 696:Drivers/lvgl/lvgl/src/widgets/lv_table.c ****                 if(obj->state & LV_STATE_FOCUSED) cell_state |= LV_STATE_FOCUSED;
 1780              		.loc 1 696 0
 1781 0466 BBF82020 		ldrh	r2, [fp, #32]
 1782 046a 02F06003 		and	r3, r2, #96
 1783 046e 202B     		cmp	r3, #32
 1784 0470 37D0     		beq	.L93
 694:Drivers/lvgl/lvgl/src/widgets/lv_table.c ****             if(row == table->row_act && col == table->col_act) {
 1785              		.loc 1 694 0
 1786 0472 0023     		movs	r3, #0
 1787              	.L76:
 1788              	.LVL247:
 697:Drivers/lvgl/lvgl/src/widgets/lv_table.c ****                 if(obj->state & LV_STATE_FOCUS_KEY) cell_state |= LV_STATE_FOCUS_KEY;
 1789              		.loc 1 697 0
 1790 0474 12F0020F 		tst	r2, #2
 1791 0478 01D0     		beq	.L77
 697:Drivers/lvgl/lvgl/src/widgets/lv_table.c ****                 if(obj->state & LV_STATE_FOCUS_KEY) cell_state |= LV_STATE_FOCUS_KEY;
 1792              		.loc 1 697 0 is_stmt 0 discriminator 1
 1793 047a 43F00203 		orr	r3, r3, #2
 1794              	.LVL248:
 1795              	.L77:
 698:Drivers/lvgl/lvgl/src/widgets/lv_table.c ****                 if(obj->state & LV_STATE_EDITED) cell_state |= LV_STATE_EDITED;
 1796              		.loc 1 698 0 is_stmt 1
 1797 047e 12F0040F 		tst	r2, #4
ARM GAS  /tmp/ccFZiBLS.s 			page 68


 1798 0482 01D0     		beq	.L78
 698:Drivers/lvgl/lvgl/src/widgets/lv_table.c ****                 if(obj->state & LV_STATE_EDITED) cell_state |= LV_STATE_EDITED;
 1799              		.loc 1 698 0 is_stmt 0 discriminator 1
 1800 0484 43F00403 		orr	r3, r3, #4
 1801              	.LVL249:
 1802              	.L78:
 699:Drivers/lvgl/lvgl/src/widgets/lv_table.c ****             }
 1803              		.loc 1 699 0 is_stmt 1
 1804 0488 12F0080F 		tst	r2, #8
 1805 048c 01D0     		beq	.L79
 699:Drivers/lvgl/lvgl/src/widgets/lv_table.c ****             }
 1806              		.loc 1 699 0 is_stmt 0 discriminator 1
 1807 048e 43F00803 		orr	r3, r3, #8
 1808              	.LVL250:
 1809              	.L79:
 703:Drivers/lvgl/lvgl/src/widgets/lv_table.c ****                 lv_memcpy(&rect_dsc_act, &rect_dsc_def, sizeof(lv_draw_rect_dsc_t));
 1810              		.loc 1 703 0 is_stmt 1
 1811 0492 002B     		cmp	r3, #0
 1812 0494 3FF40BAF 		beq	.L75
 709:Drivers/lvgl/lvgl/src/widgets/lv_table.c ****                 obj->skip_trans = 1;
 1813              		.loc 1 709 0
 1814 0498 ABF82030 		strh	r3, [fp, #32]	@ movhi
 710:Drivers/lvgl/lvgl/src/widgets/lv_table.c ****                 lv_draw_rect_dsc_init(&rect_dsc_act);
 1815              		.loc 1 710 0
 1816 049c 9BF82230 		ldrb	r3, [fp, #34]	@ zero_extendqisi2
 1817              	.LVL251:
 1818 04a0 43F00403 		orr	r3, r3, #4
 1819 04a4 8BF82230 		strb	r3, [fp, #34]
 711:Drivers/lvgl/lvgl/src/widgets/lv_table.c ****                 lv_draw_label_dsc_init(&label_dsc_act);
 1820              		.loc 1 711 0
 1821 04a8 3DA8     		add	r0, sp, #244
 1822 04aa FFF7FEFF 		bl	lv_draw_rect_dsc_init
 1823              	.LVL252:
 712:Drivers/lvgl/lvgl/src/widgets/lv_table.c ****                 lv_obj_init_draw_rect_dsc(obj, LV_PART_ITEMS, &rect_dsc_act);
 1824              		.loc 1 712 0
 1825 04ae 2DA8     		add	r0, sp, #180
 1826 04b0 FFF7FEFF 		bl	lv_draw_label_dsc_init
 1827              	.LVL253:
 713:Drivers/lvgl/lvgl/src/widgets/lv_table.c ****                 lv_obj_init_draw_label_dsc(obj, LV_PART_ITEMS, &label_dsc_act);
 1828              		.loc 1 713 0
 1829 04b4 3DAA     		add	r2, sp, #244
 1830 04b6 4FF4A021 		mov	r1, #327680
 1831 04ba 5846     		mov	r0, fp
 1832 04bc FFF7FEFF 		bl	lv_obj_init_draw_rect_dsc
 1833              	.LVL254:
 714:Drivers/lvgl/lvgl/src/widgets/lv_table.c ****                 obj->state = state_ori;
 1834              		.loc 1 714 0
 1835 04c0 2DAA     		add	r2, sp, #180
 1836 04c2 4FF4A021 		mov	r1, #327680
 1837 04c6 5846     		mov	r0, fp
 1838 04c8 FFF7FEFF 		bl	lv_obj_init_draw_label_dsc
 1839              	.LVL255:
 715:Drivers/lvgl/lvgl/src/widgets/lv_table.c ****                 obj->skip_trans = 0;
 1840              		.loc 1 715 0
 1841 04cc BDF84430 		ldrh	r3, [sp, #68]
 1842 04d0 ABF82030 		strh	r3, [fp, #32]	@ movhi
 716:Drivers/lvgl/lvgl/src/widgets/lv_table.c ****             }
ARM GAS  /tmp/ccFZiBLS.s 			page 69


 1843              		.loc 1 716 0
 1844 04d4 9BF82230 		ldrb	r3, [fp, #34]	@ zero_extendqisi2
 1845 04d8 6FF38203 		bfc	r3, #2, #1
 1846 04dc 8BF82230 		strb	r3, [fp, #34]
 1847 04e0 EFE6     		b	.L81
 1848              	.LVL256:
 1849              	.L93:
 696:Drivers/lvgl/lvgl/src/widgets/lv_table.c ****                 if(obj->state & LV_STATE_FOCUSED) cell_state |= LV_STATE_FOCUSED;
 1850              		.loc 1 696 0
 1851 04e2 2023     		movs	r3, #32
 1852 04e4 C6E7     		b	.L76
 1853              	.LVL257:
 1854              	.L94:
 1855              	.LBB193:
 740:Drivers/lvgl/lvgl/src/widgets/lv_table.c **** 
 1856              		.loc 1 740 0
 1857 04e6 0220     		movs	r0, #2
 1858 04e8 3DE7     		b	.L83
 1859              	.LVL258:
 1860              	.L104:
 748:Drivers/lvgl/lvgl/src/widgets/lv_table.c ****                     txt_area.y2 = cell_area.y1 + h_row / 2 + txt_size.y / 2;
 1861              		.loc 1 748 0
 1862 04ea 0132     		adds	r2, r2, #1
 1863 04ec 57E7     		b	.L85
 1864              	.L105:
 1865 04ee 0132     		adds	r2, r2, #1
 1866 04f0 5DE7     		b	.L86
 1867              	.LVL259:
 1868              	.L106:
 756:Drivers/lvgl/lvgl/src/widgets/lv_table.c ****                     lv_draw_label(draw_ctx, &label_dsc_act, &txt_area, table->cell_data[cell] + 1, 
 1869              		.loc 1 756 0
 1870 04f2 19AB     		add	r3, sp, #100
 1871 04f4 089E     		ldr	r6, [sp, #32]
 1872              	.LVL260:
 1873 04f6 B360     		str	r3, [r6, #8]
 757:Drivers/lvgl/lvgl/src/widgets/lv_table.c ****                     draw_ctx->clip_area = &clip_area;
 1874              		.loc 1 757 0
 1875 04f8 DBF82830 		ldr	r3, [fp, #40]
 1876 04fc 53F80A30 		ldr	r3, [r3, r10]
 1877 0500 0022     		movs	r2, #0
 1878 0502 0092     		str	r2, [sp]
 1879 0504 0133     		adds	r3, r3, #1
 1880 0506 17AA     		add	r2, sp, #92
 1881 0508 2DA9     		add	r1, sp, #180
 1882 050a 3046     		mov	r0, r6
 1883              	.LVL261:
 1884 050c FFF7FEFF 		bl	lv_draw_label
 1885              	.LVL262:
 758:Drivers/lvgl/lvgl/src/widgets/lv_table.c ****                 }
 1886              		.loc 1 758 0
 1887 0510 5CAB     		add	r3, sp, #368
 1888 0512 B360     		str	r3, [r6, #8]
 1889 0514 5BE7     		b	.L82
 1890              	.LVL263:
 1891              	.L107:
 1892              	.LBE193:
 1893              	.LBE195:
ARM GAS  /tmp/ccFZiBLS.s 			page 70


 1894              	.LBE174:
 629:Drivers/lvgl/lvgl/src/widgets/lv_table.c ****         lv_coord_t h_row = table->row_h[row];
 1895              		.loc 1 629 0 discriminator 2
 1896 0516 059B     		ldr	r3, [sp, #20]
 1897 0518 0133     		adds	r3, r3, #1
 1898 051a 9BB2     		uxth	r3, r3
 1899 051c 0593     		str	r3, [sp, #20]
 1900              	.LVL264:
 1901              	.L53:
 629:Drivers/lvgl/lvgl/src/widgets/lv_table.c ****         lv_coord_t h_row = table->row_h[row];
 1902              		.loc 1 629 0 is_stmt 0 discriminator 1
 1903 051e BBF82630 		ldrh	r3, [fp, #38]
 1904 0522 059A     		ldr	r2, [sp, #20]
 1905 0524 9342     		cmp	r3, r2
 1906 0526 28D9     		bls	.L54
 1907              	.LBB197:
 630:Drivers/lvgl/lvgl/src/widgets/lv_table.c **** 
 1908              		.loc 1 630 0 is_stmt 1
 1909 0528 DBF82C30 		ldr	r3, [fp, #44]
 1910 052c 059A     		ldr	r2, [sp, #20]
 1911 052e 33F91210 		ldrsh	r1, [r3, r2, lsl #1]
 1912 0532 0991     		str	r1, [sp, #36]
 1913              	.LVL265:
 632:Drivers/lvgl/lvgl/src/widgets/lv_table.c ****         cell_area.y2 = cell_area.y1 + h_row - 1;
 1914              		.loc 1 632 0
 1915 0534 BDF86A31 		ldrh	r3, [sp, #362]
 1916 0538 0133     		adds	r3, r3, #1
 1917 053a 9BB2     		uxth	r3, r3
 1918 053c 1AB2     		sxth	r2, r3
 1919 053e ADF86621 		strh	r2, [sp, #358]	@ movhi
 633:Drivers/lvgl/lvgl/src/widgets/lv_table.c **** 
 1920              		.loc 1 633 0
 1921 0542 0B44     		add	r3, r3, r1
 1922 0544 9BB2     		uxth	r3, r3
 1923 0546 013B     		subs	r3, r3, #1
 1924 0548 ADF86A31 		strh	r3, [sp, #362]	@ movhi
 635:Drivers/lvgl/lvgl/src/widgets/lv_table.c **** 
 1925              		.loc 1 635 0
 1926 054c BDF97631 		ldrsh	r3, [sp, #374]
 1927 0550 9A42     		cmp	r2, r3
 1928 0552 12DC     		bgt	.L54
 637:Drivers/lvgl/lvgl/src/widgets/lv_table.c ****         else cell_area.x2 = obj->coords.x1 + bg_left - 1 - scroll_x + border_width;
 1929              		.loc 1 637 0
 1930 0554 B9F1010F 		cmp	r9, #1
 1931 0558 3FF4E6AD 		beq	.L109
 638:Drivers/lvgl/lvgl/src/widgets/lv_table.c **** 
 1932              		.loc 1 638 0
 1933 055c BBF81430 		ldrh	r3, [fp, #20]
 1934 0560 109A     		ldr	r2, [sp, #64]
 1935 0562 1344     		add	r3, r3, r2
 1936 0564 9BB2     		uxth	r3, r3
 1937 0566 0F9A     		ldr	r2, [sp, #60]
 1938 0568 9B1A     		subs	r3, r3, r2
 1939 056a 0E9A     		ldr	r2, [sp, #56]
 1940 056c 12FA83F3 		uxtah	r3, r2, r3
 1941 0570 013B     		subs	r3, r3, #1
 1942 0572 ADF86831 		strh	r3, [sp, #360]	@ movhi
ARM GAS  /tmp/ccFZiBLS.s 			page 71


 1943              	.L56:
 1944              	.LBB196:
 1945              	.LBB194:
 740:Drivers/lvgl/lvgl/src/widgets/lv_table.c **** 
 1946              		.loc 1 740 0 discriminator 1
 1947 0576 0025     		movs	r5, #0
 1948 0578 39E7     		b	.L88
 1949              	.LVL266:
 1950              	.L54:
 1951              	.LBE194:
 1952              	.LBE196:
 1953              	.LBE197:
 769:Drivers/lvgl/lvgl/src/widgets/lv_table.c **** }
 1954              		.loc 1 769 0
 1955 057a 089B     		ldr	r3, [sp, #32]
 1956 057c 1A46     		mov	r2, r3
 1957 057e 139B     		ldr	r3, [sp, #76]
 1958 0580 9360     		str	r3, [r2, #8]
 1959 0582 4FE5     		b	.L51
 1960              		.cfi_endproc
 1961              	.LFE177:
 1963              		.section	.text.lv_table_event,"ax",%progbits
 1964              		.align	1
 1965              		.syntax unified
 1966              		.thumb
 1967              		.thumb_func
 1968              		.fpu fpv5-d16
 1970              	lv_table_event:
 1971              	.LFB176:
 456:Drivers/lvgl/lvgl/src/widgets/lv_table.c ****     LV_UNUSED(class_p);
 1972              		.loc 1 456 0
 1973              		.cfi_startproc
 1974              		@ args = 0, pretend = 0, frame = 8
 1975              		@ frame_needed = 0, uses_anonymous_args = 0
 1976              	.LVL267:
 1977 0000 F0B5     		push	{r4, r5, r6, r7, lr}
 1978              	.LCFI19:
 1979              		.cfi_def_cfa_offset 20
 1980              		.cfi_offset 4, -20
 1981              		.cfi_offset 5, -16
 1982              		.cfi_offset 6, -12
 1983              		.cfi_offset 7, -8
 1984              		.cfi_offset 14, -4
 1985 0002 83B0     		sub	sp, sp, #12
 1986              	.LCFI20:
 1987              		.cfi_def_cfa_offset 32
 1988 0004 0C46     		mov	r4, r1
 462:Drivers/lvgl/lvgl/src/widgets/lv_table.c ****     if(res != LV_RES_OK) return;
 1989              		.loc 1 462 0
 1990 0006 7248     		ldr	r0, .L158
 1991              	.LVL268:
 1992 0008 FFF7FEFF 		bl	lv_obj_event_base
 1993              	.LVL269:
 463:Drivers/lvgl/lvgl/src/widgets/lv_table.c **** 
 1994              		.loc 1 463 0
 1995 000c 0128     		cmp	r0, #1
 1996 000e 01D0     		beq	.L145
ARM GAS  /tmp/ccFZiBLS.s 			page 72


 1997              	.LVL270:
 1998              	.L112:
 574:Drivers/lvgl/lvgl/src/widgets/lv_table.c **** 
 1999              		.loc 1 574 0
 2000 0010 03B0     		add	sp, sp, #12
 2001              	.LCFI21:
 2002              		.cfi_remember_state
 2003              		.cfi_def_cfa_offset 20
 2004              		@ sp needed
 2005 0012 F0BD     		pop	{r4, r5, r6, r7, pc}
 2006              	.LVL271:
 2007              	.L145:
 2008              	.LCFI22:
 2009              		.cfi_restore_state
 465:Drivers/lvgl/lvgl/src/widgets/lv_table.c ****     lv_obj_t * obj = lv_event_get_target(e);
 2010              		.loc 1 465 0
 2011 0014 2046     		mov	r0, r4
 2012              	.LVL272:
 2013 0016 FFF7FEFF 		bl	lv_event_get_code
 2014              	.LVL273:
 2015 001a 0646     		mov	r6, r0
 2016              	.LVL274:
 466:Drivers/lvgl/lvgl/src/widgets/lv_table.c ****     lv_table_t * table = (lv_table_t *)obj;
 2017              		.loc 1 466 0
 2018 001c 2046     		mov	r0, r4
 2019 001e FFF7FEFF 		bl	lv_event_get_target
 2020              	.LVL275:
 2021 0022 0546     		mov	r5, r0
 2022              	.LVL276:
 469:Drivers/lvgl/lvgl/src/widgets/lv_table.c ****         refr_size_form_row(obj, 0);
 2023              		.loc 1 469 0
 2024 0024 2A2E     		cmp	r6, #42
 2025 0026 11D0     		beq	.L146
 472:Drivers/lvgl/lvgl/src/widgets/lv_table.c ****         lv_point_t * p = lv_event_get_param(e);
 2026              		.loc 1 472 0
 2027 0028 2C2E     		cmp	r6, #44
 2028 002a 13D0     		beq	.L147
 484:Drivers/lvgl/lvgl/src/widgets/lv_table.c ****         uint16_t col;
 2029              		.loc 1 484 0
 2030 002c 731E     		subs	r3, r6, #1
 2031 002e DBB2     		uxtb	r3, r3
 2032 0030 012B     		cmp	r3, #1
 2033 0032 2FD9     		bls	.L148
 495:Drivers/lvgl/lvgl/src/widgets/lv_table.c ****         lv_obj_invalidate(obj);
 2034              		.loc 1 495 0
 2035 0034 082E     		cmp	r6, #8
 2036 0036 46D0     		beq	.L149
 510:Drivers/lvgl/lvgl/src/widgets/lv_table.c ****         lv_obj_invalidate(obj);
 2037              		.loc 1 510 0
 2038 0038 0E2E     		cmp	r6, #14
 2039 003a 68D0     		beq	.L150
 513:Drivers/lvgl/lvgl/src/widgets/lv_table.c ****         int32_t c = *((int32_t *)lv_event_get_param(e));
 2040              		.loc 1 513 0
 2041 003c 0D2E     		cmp	r6, #13
 2042 003e 69D0     		beq	.L151
 571:Drivers/lvgl/lvgl/src/widgets/lv_table.c ****         draw_main(e);
 2043              		.loc 1 571 0
ARM GAS  /tmp/ccFZiBLS.s 			page 73


 2044 0040 152E     		cmp	r6, #21
 2045 0042 E5D1     		bne	.L112
 572:Drivers/lvgl/lvgl/src/widgets/lv_table.c ****     }
 2046              		.loc 1 572 0
 2047 0044 2046     		mov	r0, r4
 2048              	.LVL277:
 2049 0046 FFF7FEFF 		bl	draw_main
 2050              	.LVL278:
 2051 004a E1E7     		b	.L112
 2052              	.LVL279:
 2053              	.L146:
 470:Drivers/lvgl/lvgl/src/widgets/lv_table.c ****     }
 2054              		.loc 1 470 0
 2055 004c 0021     		movs	r1, #0
 2056 004e FFF7FEFF 		bl	refr_size_form_row
 2057              	.LVL280:
 2058 0052 DDE7     		b	.L112
 2059              	.LVL281:
 2060              	.L147:
 2061              	.LBB198:
 473:Drivers/lvgl/lvgl/src/widgets/lv_table.c ****         uint32_t i;
 2062              		.loc 1 473 0
 2063 0054 2046     		mov	r0, r4
 2064              	.LVL282:
 2065 0056 FFF7FEFF 		bl	lv_event_get_param
 2066              	.LVL283:
 475:Drivers/lvgl/lvgl/src/widgets/lv_table.c ****         for(i = 0; i < table->col_cnt; i++) w += table->col_w[i];
 2067              		.loc 1 475 0
 2068 005a 0022     		movs	r2, #0
 476:Drivers/lvgl/lvgl/src/widgets/lv_table.c **** 
 2069              		.loc 1 476 0
 2070 005c 1346     		mov	r3, r2
 2071 005e 05E0     		b	.L116
 2072              	.LVL284:
 2073              	.L117:
 476:Drivers/lvgl/lvgl/src/widgets/lv_table.c **** 
 2074              		.loc 1 476 0 is_stmt 0 discriminator 3
 2075 0060 296B     		ldr	r1, [r5, #48]
 2076 0062 31F81310 		ldrh	r1, [r1, r3, lsl #1]
 2077 0066 0A44     		add	r2, r2, r1
 2078              	.LVL285:
 2079 0068 12B2     		sxth	r2, r2
 2080              	.LVL286:
 2081 006a 0133     		adds	r3, r3, #1
 2082              	.LVL287:
 2083              	.L116:
 476:Drivers/lvgl/lvgl/src/widgets/lv_table.c **** 
 2084              		.loc 1 476 0 discriminator 1
 2085 006c A98C     		ldrh	r1, [r5, #36]
 2086 006e 9942     		cmp	r1, r3
 2087 0070 F6D8     		bhi	.L117
 478:Drivers/lvgl/lvgl/src/widgets/lv_table.c ****         for(i = 0; i < table->row_cnt; i++) h += table->row_h[i];
 2088              		.loc 1 478 0 is_stmt 1
 2089 0072 0023     		movs	r3, #0
 2090              	.LVL288:
 479:Drivers/lvgl/lvgl/src/widgets/lv_table.c **** 
 2091              		.loc 1 479 0
ARM GAS  /tmp/ccFZiBLS.s 			page 74


 2092 0074 1946     		mov	r1, r3
 2093 0076 05E0     		b	.L118
 2094              	.LVL289:
 2095              	.L119:
 479:Drivers/lvgl/lvgl/src/widgets/lv_table.c **** 
 2096              		.loc 1 479 0 is_stmt 0 discriminator 3
 2097 0078 EC6A     		ldr	r4, [r5, #44]
 2098 007a 34F81140 		ldrh	r4, [r4, r1, lsl #1]
 2099 007e 2344     		add	r3, r3, r4
 2100              	.LVL290:
 2101 0080 1BB2     		sxth	r3, r3
 2102              	.LVL291:
 2103 0082 0131     		adds	r1, r1, #1
 2104              	.LVL292:
 2105              	.L118:
 479:Drivers/lvgl/lvgl/src/widgets/lv_table.c **** 
 2106              		.loc 1 479 0 discriminator 1
 2107 0084 EC8C     		ldrh	r4, [r5, #38]
 2108 0086 8C42     		cmp	r4, r1
 2109 0088 F6D8     		bhi	.L119
 481:Drivers/lvgl/lvgl/src/widgets/lv_table.c ****         p->y = h - 1;
 2110              		.loc 1 481 0 is_stmt 1
 2111 008a 013A     		subs	r2, r2, #1
 2112              	.LVL293:
 2113 008c 0280     		strh	r2, [r0]	@ movhi
 482:Drivers/lvgl/lvgl/src/widgets/lv_table.c ****     }
 2114              		.loc 1 482 0
 2115 008e 013B     		subs	r3, r3, #1
 2116              	.LVL294:
 2117 0090 4380     		strh	r3, [r0, #2]	@ movhi
 2118              	.LBE198:
 2119 0092 BDE7     		b	.L112
 2120              	.LVL295:
 2121              	.L148:
 2122              	.LBB199:
 487:Drivers/lvgl/lvgl/src/widgets/lv_table.c **** 
 2123              		.loc 1 487 0
 2124 0094 01AA     		add	r2, sp, #4
 2125 0096 0DF10601 		add	r1, sp, #6
 2126 009a FFF7FEFF 		bl	get_pressed_cell
 2127              	.LVL296:
 489:Drivers/lvgl/lvgl/src/widgets/lv_table.c ****             table->col_act = col;
 2128              		.loc 1 489 0
 2129 009e 0128     		cmp	r0, #1
 2130 00a0 B6D1     		bne	.L112
 489:Drivers/lvgl/lvgl/src/widgets/lv_table.c ****             table->col_act = col;
 2131              		.loc 1 489 0 is_stmt 0 discriminator 1
 2132 00a2 AA8E     		ldrh	r2, [r5, #52]
 2133 00a4 BDF80430 		ldrh	r3, [sp, #4]
 2134 00a8 9A42     		cmp	r2, r3
 2135 00aa 04D1     		bne	.L122
 489:Drivers/lvgl/lvgl/src/widgets/lv_table.c ****             table->col_act = col;
 2136              		.loc 1 489 0 discriminator 2
 2137 00ac E98E     		ldrh	r1, [r5, #54]
 2138 00ae BDF80620 		ldrh	r2, [sp, #6]
 2139 00b2 9142     		cmp	r1, r2
 2140 00b4 ACD0     		beq	.L112
ARM GAS  /tmp/ccFZiBLS.s 			page 75


 2141              	.L122:
 490:Drivers/lvgl/lvgl/src/widgets/lv_table.c ****             table->row_act = row;
 2142              		.loc 1 490 0 is_stmt 1
 2143 00b6 AB86     		strh	r3, [r5, #52]	@ movhi
 491:Drivers/lvgl/lvgl/src/widgets/lv_table.c ****             lv_obj_invalidate(obj);
 2144              		.loc 1 491 0
 2145 00b8 BDF80630 		ldrh	r3, [sp, #6]
 2146 00bc EB86     		strh	r3, [r5, #54]	@ movhi
 492:Drivers/lvgl/lvgl/src/widgets/lv_table.c ****         }
 2147              		.loc 1 492 0
 2148 00be 2846     		mov	r0, r5
 2149              	.LVL297:
 2150 00c0 FFF7FEFF 		bl	lv_obj_invalidate
 2151              	.LVL298:
 2152 00c4 A4E7     		b	.L112
 2153              	.LVL299:
 2154              	.L149:
 2155              	.LBE199:
 2156              	.LBB200:
 496:Drivers/lvgl/lvgl/src/widgets/lv_table.c ****         lv_indev_t * indev = lv_indev_get_act();
 2157              		.loc 1 496 0
 2158 00c6 FFF7FEFF 		bl	lv_obj_invalidate
 2159              	.LVL300:
 497:Drivers/lvgl/lvgl/src/widgets/lv_table.c ****         lv_obj_t * scroll_obj = lv_indev_get_scroll_obj(indev);
 2160              		.loc 1 497 0
 2161 00ca FFF7FEFF 		bl	lv_indev_get_act
 2162              	.LVL301:
 498:Drivers/lvgl/lvgl/src/widgets/lv_table.c ****         if(table->col_act != LV_TABLE_CELL_NONE && table->row_act != LV_TABLE_CELL_NONE && scroll_o
 2163              		.loc 1 498 0
 2164 00ce FFF7FEFF 		bl	lv_indev_get_scroll_obj
 2165              	.LVL302:
 499:Drivers/lvgl/lvgl/src/widgets/lv_table.c ****             res = lv_event_send(obj, LV_EVENT_VALUE_CHANGED, NULL);
 2166              		.loc 1 499 0
 2167 00d2 AA8E     		ldrh	r2, [r5, #52]
 2168 00d4 4FF6FF73 		movw	r3, #65535
 2169 00d8 9A42     		cmp	r2, r3
 2170 00da 03D0     		beq	.L124
 499:Drivers/lvgl/lvgl/src/widgets/lv_table.c ****             res = lv_event_send(obj, LV_EVENT_VALUE_CHANGED, NULL);
 2171              		.loc 1 499 0 is_stmt 0 discriminator 1
 2172 00dc EA8E     		ldrh	r2, [r5, #54]
 2173 00de 9A42     		cmp	r2, r3
 2174 00e0 00D0     		beq	.L124
 499:Drivers/lvgl/lvgl/src/widgets/lv_table.c ****             res = lv_event_send(obj, LV_EVENT_VALUE_CHANGED, NULL);
 2175              		.loc 1 499 0 discriminator 2
 2176 00e2 60B1     		cbz	r0, .L152
 2177              	.LVL303:
 2178              	.L124:
 504:Drivers/lvgl/lvgl/src/widgets/lv_table.c ****         if(indev_type == LV_INDEV_TYPE_POINTER || indev_type == LV_INDEV_TYPE_BUTTON) {
 2179              		.loc 1 504 0 is_stmt 1
 2180 00e4 FFF7FEFF 		bl	lv_indev_get_act
 2181              	.LVL304:
 2182 00e8 FFF7FEFF 		bl	lv_indev_get_type
 2183              	.LVL305:
 505:Drivers/lvgl/lvgl/src/widgets/lv_table.c ****             table->col_act = LV_TABLE_CELL_NONE;
 2184              		.loc 1 505 0
 2185 00ec 0328     		cmp	r0, #3
 2186 00ee 18BF     		it	ne
ARM GAS  /tmp/ccFZiBLS.s 			page 76


 2187 00f0 0128     		cmpne	r0, #1
 2188 00f2 8DD1     		bne	.L112
 506:Drivers/lvgl/lvgl/src/widgets/lv_table.c ****             table->row_act = LV_TABLE_CELL_NONE;
 2189              		.loc 1 506 0
 2190 00f4 4FF6FF73 		movw	r3, #65535
 2191 00f8 AB86     		strh	r3, [r5, #52]	@ movhi
 507:Drivers/lvgl/lvgl/src/widgets/lv_table.c ****         }
 2192              		.loc 1 507 0
 2193 00fa EB86     		strh	r3, [r5, #54]	@ movhi
 2194 00fc 88E7     		b	.L112
 2195              	.LVL306:
 2196              	.L152:
 500:Drivers/lvgl/lvgl/src/widgets/lv_table.c ****             if(res != LV_RES_OK) return;
 2197              		.loc 1 500 0
 2198 00fe 0022     		movs	r2, #0
 2199 0100 1C21     		movs	r1, #28
 2200 0102 2846     		mov	r0, r5
 2201              	.LVL307:
 2202 0104 FFF7FEFF 		bl	lv_event_send
 2203              	.LVL308:
 501:Drivers/lvgl/lvgl/src/widgets/lv_table.c ****         }
 2204              		.loc 1 501 0
 2205 0108 0128     		cmp	r0, #1
 2206 010a 81D1     		bne	.L112
 2207 010c EAE7     		b	.L124
 2208              	.LVL309:
 2209              	.L150:
 2210              	.LBE200:
 511:Drivers/lvgl/lvgl/src/widgets/lv_table.c ****     }
 2211              		.loc 1 511 0
 2212 010e FFF7FEFF 		bl	lv_obj_invalidate
 2213              	.LVL310:
 2214 0112 7DE7     		b	.L112
 2215              	.LVL311:
 2216              	.L151:
 2217              	.LBB201:
 514:Drivers/lvgl/lvgl/src/widgets/lv_table.c ****         int32_t col = table->col_act;
 2218              		.loc 1 514 0
 2219 0114 2046     		mov	r0, r4
 2220              	.LVL312:
 2221 0116 FFF7FEFF 		bl	lv_event_get_param
 2222              	.LVL313:
 2223 011a 0468     		ldr	r4, [r0]
 2224              	.LVL314:
 515:Drivers/lvgl/lvgl/src/widgets/lv_table.c ****         int32_t row = table->row_act;
 2225              		.loc 1 515 0
 2226 011c A98E     		ldrh	r1, [r5, #52]
 2227              	.LVL315:
 516:Drivers/lvgl/lvgl/src/widgets/lv_table.c ****         if(col == LV_TABLE_CELL_NONE || row == LV_TABLE_CELL_NONE) {
 2228              		.loc 1 516 0
 2229 011e E88E     		ldrh	r0, [r5, #54]
 2230              	.LVL316:
 517:Drivers/lvgl/lvgl/src/widgets/lv_table.c ****             table->col_act = 0;
 2231              		.loc 1 517 0
 2232 0120 4FF6FF73 		movw	r3, #65535
 2233 0124 9842     		cmp	r0, r3
 2234 0126 18BF     		it	ne
ARM GAS  /tmp/ccFZiBLS.s 			page 77


 2235 0128 9942     		cmpne	r1, r3
 2236 012a 12D0     		beq	.L153
 525:Drivers/lvgl/lvgl/src/widgets/lv_table.c ****         if(row >= table->row_cnt) row = 0;
 2237              		.loc 1 525 0
 2238 012c AF8C     		ldrh	r7, [r5, #36]
 2239 012e B942     		cmp	r1, r7
 2240 0130 19D2     		bcs	.L140
 515:Drivers/lvgl/lvgl/src/widgets/lv_table.c ****         int32_t row = table->row_act;
 2241              		.loc 1 515 0
 2242 0132 0A46     		mov	r2, r1
 2243              	.L128:
 2244              	.LVL317:
 526:Drivers/lvgl/lvgl/src/widgets/lv_table.c **** 
 2245              		.loc 1 526 0
 2246 0134 EE8C     		ldrh	r6, [r5, #38]
 2247              	.LVL318:
 2248 0136 B042     		cmp	r0, r6
 2249 0138 17D2     		bcs	.L141
 516:Drivers/lvgl/lvgl/src/widgets/lv_table.c ****         if(col == LV_TABLE_CELL_NONE || row == LV_TABLE_CELL_NONE) {
 2250              		.loc 1 516 0
 2251 013a 0346     		mov	r3, r0
 2252              	.L129:
 2253              	.LVL319:
 528:Drivers/lvgl/lvgl/src/widgets/lv_table.c ****         else if(c == LV_KEY_RIGHT) col++;
 2254              		.loc 1 528 0
 2255 013c 142C     		cmp	r4, #20
 2256 013e 16D0     		beq	.L154
 529:Drivers/lvgl/lvgl/src/widgets/lv_table.c ****         else if(c == LV_KEY_UP) row--;
 2257              		.loc 1 529 0
 2258 0140 132C     		cmp	r4, #19
 2259 0142 1DD0     		beq	.L155
 530:Drivers/lvgl/lvgl/src/widgets/lv_table.c ****         else if(c == LV_KEY_DOWN) row++;
 2260              		.loc 1 530 0
 2261 0144 112C     		cmp	r4, #17
 2262 0146 1DD0     		beq	.L156
 531:Drivers/lvgl/lvgl/src/widgets/lv_table.c ****         else return;
 2263              		.loc 1 531 0
 2264 0148 122C     		cmp	r4, #18
 2265 014a 7FF461AF 		bne	.L112
 531:Drivers/lvgl/lvgl/src/widgets/lv_table.c ****         else return;
 2266              		.loc 1 531 0 is_stmt 0 discriminator 1
 2267 014e 0133     		adds	r3, r3, #1
 2268              	.LVL320:
 2269 0150 0EE0     		b	.L131
 2270              	.LVL321:
 2271              	.L153:
 518:Drivers/lvgl/lvgl/src/widgets/lv_table.c ****             table->row_act = 0;
 2272              		.loc 1 518 0 is_stmt 1
 2273 0152 0023     		movs	r3, #0
 2274 0154 AB86     		strh	r3, [r5, #52]	@ movhi
 519:Drivers/lvgl/lvgl/src/widgets/lv_table.c ****             scroll_to_selected_cell(obj);
 2275              		.loc 1 519 0
 2276 0156 EB86     		strh	r3, [r5, #54]	@ movhi
 520:Drivers/lvgl/lvgl/src/widgets/lv_table.c ****             lv_obj_invalidate(obj);
 2277              		.loc 1 520 0
 2278 0158 2846     		mov	r0, r5
 2279              	.LVL322:
ARM GAS  /tmp/ccFZiBLS.s 			page 78


 2280 015a FFF7FEFF 		bl	scroll_to_selected_cell
 2281              	.LVL323:
 521:Drivers/lvgl/lvgl/src/widgets/lv_table.c ****             return;
 2282              		.loc 1 521 0
 2283 015e 2846     		mov	r0, r5
 2284 0160 FFF7FEFF 		bl	lv_obj_invalidate
 2285              	.LVL324:
 522:Drivers/lvgl/lvgl/src/widgets/lv_table.c ****         }
 2286              		.loc 1 522 0
 2287 0164 54E7     		b	.L112
 2288              	.LVL325:
 2289              	.L140:
 525:Drivers/lvgl/lvgl/src/widgets/lv_table.c ****         if(row >= table->row_cnt) row = 0;
 2290              		.loc 1 525 0
 2291 0166 0022     		movs	r2, #0
 2292 0168 E4E7     		b	.L128
 2293              	.LVL326:
 2294              	.L141:
 526:Drivers/lvgl/lvgl/src/widgets/lv_table.c **** 
 2295              		.loc 1 526 0
 2296 016a 0023     		movs	r3, #0
 2297 016c E6E7     		b	.L129
 2298              	.LVL327:
 2299              	.L154:
 528:Drivers/lvgl/lvgl/src/widgets/lv_table.c ****         else if(c == LV_KEY_RIGHT) col++;
 2300              		.loc 1 528 0 discriminator 1
 2301 016e 013A     		subs	r2, r2, #1
 2302              	.LVL328:
 2303              	.L131:
 534:Drivers/lvgl/lvgl/src/widgets/lv_table.c ****             if(row < table->row_cnt - 1) {
 2304              		.loc 1 534 0
 2305 0170 9742     		cmp	r7, r2
 2306 0172 0BDC     		bgt	.L134
 535:Drivers/lvgl/lvgl/src/widgets/lv_table.c ****                 col = 0;
 2307              		.loc 1 535 0
 2308 0174 721E     		subs	r2, r6, #1
 2309              	.LVL329:
 2310 0176 9A42     		cmp	r2, r3
 2311 0178 06DD     		ble	.L135
 2312              	.LVL330:
 537:Drivers/lvgl/lvgl/src/widgets/lv_table.c ****             }
 2313              		.loc 1 537 0
 2314 017a 0133     		adds	r3, r3, #1
 2315              	.LVL331:
 536:Drivers/lvgl/lvgl/src/widgets/lv_table.c ****                 row++;
 2316              		.loc 1 536 0
 2317 017c 0022     		movs	r2, #0
 2318 017e 07E0     		b	.L136
 2319              	.LVL332:
 2320              	.L155:
 529:Drivers/lvgl/lvgl/src/widgets/lv_table.c ****         else if(c == LV_KEY_UP) row--;
 2321              		.loc 1 529 0 discriminator 1
 2322 0180 0132     		adds	r2, r2, #1
 2323              	.LVL333:
 2324 0182 F5E7     		b	.L131
 2325              	.L156:
 530:Drivers/lvgl/lvgl/src/widgets/lv_table.c ****         else if(c == LV_KEY_DOWN) row++;
ARM GAS  /tmp/ccFZiBLS.s 			page 79


 2326              		.loc 1 530 0 discriminator 1
 2327 0184 013B     		subs	r3, r3, #1
 2328              	.LVL334:
 2329 0186 F3E7     		b	.L131
 2330              	.LVL335:
 2331              	.L135:
 540:Drivers/lvgl/lvgl/src/widgets/lv_table.c ****             }
 2332              		.loc 1 540 0
 2333 0188 7A1E     		subs	r2, r7, #1
 2334              	.LVL336:
 2335 018a 01E0     		b	.L136
 2336              	.L134:
 543:Drivers/lvgl/lvgl/src/widgets/lv_table.c ****             if(row != 0) {
 2337              		.loc 1 543 0
 2338 018c 002A     		cmp	r2, #0
 2339 018e 15DB     		blt	.L157
 2340              	.LVL337:
 2341              	.L136:
 553:Drivers/lvgl/lvgl/src/widgets/lv_table.c ****             row = table->row_cnt - 1;
 2342              		.loc 1 553 0
 2343 0190 9E42     		cmp	r6, r3
 2344 0192 19DC     		bgt	.L137
 554:Drivers/lvgl/lvgl/src/widgets/lv_table.c ****         }
 2345              		.loc 1 554 0
 2346 0194 731E     		subs	r3, r6, #1
 2347              	.LVL338:
 2348              	.L138:
 560:Drivers/lvgl/lvgl/src/widgets/lv_table.c ****             table->col_act = col;
 2349              		.loc 1 560 0
 2350 0196 8A42     		cmp	r2, r1
 2351 0198 02D1     		bne	.L139
 560:Drivers/lvgl/lvgl/src/widgets/lv_table.c ****             table->col_act = col;
 2352              		.loc 1 560 0 is_stmt 0 discriminator 1
 2353 019a 8342     		cmp	r3, r0
 2354 019c 3FF438AF 		beq	.L112
 2355              	.L139:
 561:Drivers/lvgl/lvgl/src/widgets/lv_table.c ****             table->row_act = row;
 2356              		.loc 1 561 0 is_stmt 1
 2357 01a0 AA86     		strh	r2, [r5, #52]	@ movhi
 562:Drivers/lvgl/lvgl/src/widgets/lv_table.c ****             lv_obj_invalidate(obj);
 2358              		.loc 1 562 0
 2359 01a2 EB86     		strh	r3, [r5, #54]	@ movhi
 563:Drivers/lvgl/lvgl/src/widgets/lv_table.c **** 
 2360              		.loc 1 563 0
 2361 01a4 2846     		mov	r0, r5
 2362 01a6 FFF7FEFF 		bl	lv_obj_invalidate
 2363              	.LVL339:
 565:Drivers/lvgl/lvgl/src/widgets/lv_table.c **** 
 2364              		.loc 1 565 0
 2365 01aa 2846     		mov	r0, r5
 2366 01ac FFF7FEFF 		bl	scroll_to_selected_cell
 2367              	.LVL340:
 567:Drivers/lvgl/lvgl/src/widgets/lv_table.c ****             if(res != LV_RES_OK) return;
 2368              		.loc 1 567 0
 2369 01b0 0022     		movs	r2, #0
 2370 01b2 1C21     		movs	r1, #28
 2371 01b4 2846     		mov	r0, r5
ARM GAS  /tmp/ccFZiBLS.s 			page 80


 2372 01b6 FFF7FEFF 		bl	lv_event_send
 2373              	.LVL341:
 2374 01ba 29E7     		b	.L112
 2375              	.LVL342:
 2376              	.L157:
 544:Drivers/lvgl/lvgl/src/widgets/lv_table.c ****                 col = table->col_cnt - 1;
 2377              		.loc 1 544 0
 2378 01bc 13B1     		cbz	r3, .L142
 545:Drivers/lvgl/lvgl/src/widgets/lv_table.c ****                 row--;
 2379              		.loc 1 545 0
 2380 01be 7A1E     		subs	r2, r7, #1
 2381              	.LVL343:
 546:Drivers/lvgl/lvgl/src/widgets/lv_table.c ****             }
 2382              		.loc 1 546 0
 2383 01c0 013B     		subs	r3, r3, #1
 2384              	.LVL344:
 2385 01c2 E5E7     		b	.L136
 2386              	.L142:
 549:Drivers/lvgl/lvgl/src/widgets/lv_table.c ****             }
 2387              		.loc 1 549 0
 2388 01c4 1A46     		mov	r2, r3
 2389              	.LVL345:
 2390 01c6 E3E7     		b	.L136
 2391              	.LVL346:
 2392              	.L137:
 556:Drivers/lvgl/lvgl/src/widgets/lv_table.c ****             row = 0;
 2393              		.loc 1 556 0
 2394 01c8 002B     		cmp	r3, #0
 2395 01ca E4DA     		bge	.L138
 557:Drivers/lvgl/lvgl/src/widgets/lv_table.c ****         }
 2396              		.loc 1 557 0
 2397 01cc 0023     		movs	r3, #0
 2398              	.LVL347:
 2399 01ce E2E7     		b	.L138
 2400              	.L159:
 2401              		.align	2
 2402              	.L158:
 2403 01d0 00000000 		.word	.LANCHOR0
 2404              	.LBE201:
 2405              		.cfi_endproc
 2406              	.LFE176:
 2408              		.section	.text.lv_table_destructor,"ax",%progbits
 2409              		.align	1
 2410              		.syntax unified
 2411              		.thumb
 2412              		.thumb_func
 2413              		.fpu fpv5-d16
 2415              	lv_table_destructor:
 2416              	.LFB175:
 438:Drivers/lvgl/lvgl/src/widgets/lv_table.c ****     LV_UNUSED(class_p);
 2417              		.loc 1 438 0
 2418              		.cfi_startproc
 2419              		@ args = 0, pretend = 0, frame = 0
 2420              		@ frame_needed = 0, uses_anonymous_args = 0
 2421              	.LVL348:
 2422 0000 38B5     		push	{r3, r4, r5, lr}
 2423              	.LCFI23:
ARM GAS  /tmp/ccFZiBLS.s 			page 81


 2424              		.cfi_def_cfa_offset 16
 2425              		.cfi_offset 3, -16
 2426              		.cfi_offset 4, -12
 2427              		.cfi_offset 5, -8
 2428              		.cfi_offset 14, -4
 2429 0002 0D46     		mov	r5, r1
 2430              	.LVL349:
 443:Drivers/lvgl/lvgl/src/widgets/lv_table.c ****         if(table->cell_data[i]) {
 2431              		.loc 1 443 0
 2432 0004 0024     		movs	r4, #0
 2433 0006 01E0     		b	.L161
 2434              	.LVL350:
 2435              	.L162:
 443:Drivers/lvgl/lvgl/src/widgets/lv_table.c ****         if(table->cell_data[i]) {
 2436              		.loc 1 443 0 is_stmt 0 discriminator 2
 2437 0008 0134     		adds	r4, r4, #1
 2438              	.LVL351:
 2439 000a A4B2     		uxth	r4, r4
 2440              	.LVL352:
 2441              	.L161:
 443:Drivers/lvgl/lvgl/src/widgets/lv_table.c ****         if(table->cell_data[i]) {
 2442              		.loc 1 443 0 discriminator 1
 2443 000c AA8C     		ldrh	r2, [r5, #36]
 2444 000e EB8C     		ldrh	r3, [r5, #38]
 2445 0010 03FB02F3 		mul	r3, r3, r2
 2446 0014 9C42     		cmp	r4, r3
 2447 0016 0BDA     		bge	.L168
 444:Drivers/lvgl/lvgl/src/widgets/lv_table.c ****             lv_mem_free(table->cell_data[i]);
 2448              		.loc 1 444 0 is_stmt 1
 2449 0018 AB6A     		ldr	r3, [r5, #40]
 2450 001a 53F82400 		ldr	r0, [r3, r4, lsl #2]
 2451 001e 0028     		cmp	r0, #0
 2452 0020 F2D0     		beq	.L162
 445:Drivers/lvgl/lvgl/src/widgets/lv_table.c ****             table->cell_data[i] = NULL;
 2453              		.loc 1 445 0
 2454 0022 FFF7FEFF 		bl	lv_mem_free
 2455              	.LVL353:
 446:Drivers/lvgl/lvgl/src/widgets/lv_table.c ****         }
 2456              		.loc 1 446 0
 2457 0026 AB6A     		ldr	r3, [r5, #40]
 2458 0028 0022     		movs	r2, #0
 2459 002a 43F82420 		str	r2, [r3, r4, lsl #2]
 2460 002e EBE7     		b	.L162
 2461              	.L168:
 450:Drivers/lvgl/lvgl/src/widgets/lv_table.c ****     if(table->row_h) lv_mem_free(table->row_h);
 2462              		.loc 1 450 0
 2463 0030 A86A     		ldr	r0, [r5, #40]
 2464 0032 08B1     		cbz	r0, .L164
 450:Drivers/lvgl/lvgl/src/widgets/lv_table.c ****     if(table->row_h) lv_mem_free(table->row_h);
 2465              		.loc 1 450 0 is_stmt 0 discriminator 1
 2466 0034 FFF7FEFF 		bl	lv_mem_free
 2467              	.LVL354:
 2468              	.L164:
 451:Drivers/lvgl/lvgl/src/widgets/lv_table.c ****     if(table->col_w) lv_mem_free(table->col_w);
 2469              		.loc 1 451 0 is_stmt 1
 2470 0038 E86A     		ldr	r0, [r5, #44]
 2471 003a 08B1     		cbz	r0, .L165
ARM GAS  /tmp/ccFZiBLS.s 			page 82


 451:Drivers/lvgl/lvgl/src/widgets/lv_table.c ****     if(table->col_w) lv_mem_free(table->col_w);
 2472              		.loc 1 451 0 is_stmt 0 discriminator 1
 2473 003c FFF7FEFF 		bl	lv_mem_free
 2474              	.LVL355:
 2475              	.L165:
 452:Drivers/lvgl/lvgl/src/widgets/lv_table.c **** }
 2476              		.loc 1 452 0 is_stmt 1
 2477 0040 286B     		ldr	r0, [r5, #48]
 2478 0042 08B1     		cbz	r0, .L160
 452:Drivers/lvgl/lvgl/src/widgets/lv_table.c **** }
 2479              		.loc 1 452 0 is_stmt 0 discriminator 1
 2480 0044 FFF7FEFF 		bl	lv_mem_free
 2481              	.LVL356:
 2482              	.L160:
 453:Drivers/lvgl/lvgl/src/widgets/lv_table.c **** 
 2483              		.loc 1 453 0 is_stmt 1
 2484 0048 38BD     		pop	{r3, r4, r5, pc}
 2485              		.cfi_endproc
 2486              	.LFE175:
 2488              		.section	.text.lv_table_constructor,"ax",%progbits
 2489              		.align	1
 2490              		.syntax unified
 2491              		.thumb
 2492              		.thumb_func
 2493              		.fpu fpv5-d16
 2495              	lv_table_constructor:
 2496              	.LFB174:
 419:Drivers/lvgl/lvgl/src/widgets/lv_table.c ****     LV_UNUSED(class_p);
 2497              		.loc 1 419 0
 2498              		.cfi_startproc
 2499              		@ args = 0, pretend = 0, frame = 0
 2500              		@ frame_needed = 0, uses_anonymous_args = 0
 2501              	.LVL357:
 2502 0000 10B5     		push	{r4, lr}
 2503              	.LCFI24:
 2504              		.cfi_def_cfa_offset 8
 2505              		.cfi_offset 4, -8
 2506              		.cfi_offset 14, -4
 2507 0002 0C46     		mov	r4, r1
 2508              	.LVL358:
 425:Drivers/lvgl/lvgl/src/widgets/lv_table.c ****     table->row_cnt = 1;
 2509              		.loc 1 425 0
 2510 0004 0123     		movs	r3, #1
 2511 0006 8B84     		strh	r3, [r1, #36]	@ movhi
 426:Drivers/lvgl/lvgl/src/widgets/lv_table.c ****     table->col_w = lv_mem_alloc(table->col_cnt * sizeof(table->col_w[0]));
 2512              		.loc 1 426 0
 2513 0008 CB84     		strh	r3, [r1, #38]	@ movhi
 427:Drivers/lvgl/lvgl/src/widgets/lv_table.c ****     table->row_h = lv_mem_alloc(table->row_cnt * sizeof(table->row_h[0]));
 2514              		.loc 1 427 0
 2515 000a 0220     		movs	r0, #2
 2516              	.LVL359:
 2517 000c FFF7FEFF 		bl	lv_mem_alloc
 2518              	.LVL360:
 2519 0010 2063     		str	r0, [r4, #48]
 428:Drivers/lvgl/lvgl/src/widgets/lv_table.c ****     table->col_w[0] = LV_DPI_DEF;
 2520              		.loc 1 428 0
 2521 0012 E08C     		ldrh	r0, [r4, #38]
ARM GAS  /tmp/ccFZiBLS.s 			page 83


 2522 0014 4000     		lsls	r0, r0, #1
 2523 0016 FFF7FEFF 		bl	lv_mem_alloc
 2524              	.LVL361:
 2525 001a E062     		str	r0, [r4, #44]
 429:Drivers/lvgl/lvgl/src/widgets/lv_table.c ****     table->row_h[0] = LV_DPI_DEF;
 2526              		.loc 1 429 0
 2527 001c 226B     		ldr	r2, [r4, #48]
 2528 001e 8223     		movs	r3, #130
 2529 0020 1380     		strh	r3, [r2]	@ movhi
 430:Drivers/lvgl/lvgl/src/widgets/lv_table.c ****     table->cell_data = lv_mem_realloc(table->cell_data, table->row_cnt * table->col_cnt * sizeof(ch
 2530              		.loc 1 430 0
 2531 0022 E26A     		ldr	r2, [r4, #44]
 2532 0024 1380     		strh	r3, [r2]	@ movhi
 431:Drivers/lvgl/lvgl/src/widgets/lv_table.c ****     table->cell_data[0] = NULL;
 2533              		.loc 1 431 0
 2534 0026 E38C     		ldrh	r3, [r4, #38]
 2535 0028 A18C     		ldrh	r1, [r4, #36]
 2536 002a 01FB03F1 		mul	r1, r1, r3
 2537 002e 8900     		lsls	r1, r1, #2
 2538 0030 A06A     		ldr	r0, [r4, #40]
 2539 0032 FFF7FEFF 		bl	lv_mem_realloc
 2540              	.LVL362:
 2541 0036 A062     		str	r0, [r4, #40]
 432:Drivers/lvgl/lvgl/src/widgets/lv_table.c **** 
 2542              		.loc 1 432 0
 2543 0038 0023     		movs	r3, #0
 2544 003a 0360     		str	r3, [r0]
 435:Drivers/lvgl/lvgl/src/widgets/lv_table.c **** 
 2545              		.loc 1 435 0
 2546 003c 10BD     		pop	{r4, pc}
 2547              		.cfi_endproc
 2548              	.LFE174:
 2550              		.section	.text.get_cell_txt_len,"ax",%progbits
 2551              		.align	1
 2552              		.syntax unified
 2553              		.thumb
 2554              		.thumb_func
 2555              		.fpu fpv5-d16
 2557              	get_cell_txt_len:
 2558              	.LFB182:
 952:Drivers/lvgl/lvgl/src/widgets/lv_table.c ****     size_t retval = 0;
 2559              		.loc 1 952 0
 2560              		.cfi_startproc
 2561              		@ args = 0, pretend = 0, frame = 0
 2562              		@ frame_needed = 0, uses_anonymous_args = 0
 2563              	.LVL363:
 2564 0000 08B5     		push	{r3, lr}
 2565              	.LCFI25:
 2566              		.cfi_def_cfa_offset 8
 2567              		.cfi_offset 3, -8
 2568              		.cfi_offset 14, -4
 2569              	.LVL364:
 960:Drivers/lvgl/lvgl/src/widgets/lv_table.c **** #endif
 2570              		.loc 1 960 0
 2571 0002 FFF7FEFF 		bl	strlen
 2572              	.LVL365:
 964:Drivers/lvgl/lvgl/src/widgets/lv_table.c **** 
ARM GAS  /tmp/ccFZiBLS.s 			page 84


 2573              		.loc 1 964 0
 2574 0006 0230     		adds	r0, r0, #2
 2575              	.LVL366:
 2576 0008 08BD     		pop	{r3, pc}
 2577              		.cfi_endproc
 2578              	.LFE182:
 2580              		.section	.text.copy_cell_txt,"ax",%progbits
 2581              		.align	1
 2582              		.syntax unified
 2583              		.thumb
 2584              		.thumb_func
 2585              		.fpu fpv5-d16
 2587              	copy_cell_txt:
 2588              	.LFB183:
 968:Drivers/lvgl/lvgl/src/widgets/lv_table.c **** #if LV_USE_ARABIC_PERSIAN_CHARS
 2589              		.loc 1 968 0
 2590              		.cfi_startproc
 2591              		@ args = 0, pretend = 0, frame = 0
 2592              		@ frame_needed = 0, uses_anonymous_args = 0
 2593              	.LVL367:
 2594 0000 08B5     		push	{r3, lr}
 2595              	.LCFI26:
 2596              		.cfi_def_cfa_offset 8
 2597              		.cfi_offset 3, -8
 2598              		.cfi_offset 14, -4
 972:Drivers/lvgl/lvgl/src/widgets/lv_table.c **** #endif
 2599              		.loc 1 972 0
 2600 0002 0130     		adds	r0, r0, #1
 2601              	.LVL368:
 2602 0004 FFF7FEFF 		bl	strcpy
 2603              	.LVL369:
 974:Drivers/lvgl/lvgl/src/widgets/lv_table.c **** 
 2604              		.loc 1 974 0
 2605 0008 08BD     		pop	{r3, pc}
 2606              		.cfi_endproc
 2607              	.LFE183:
 2609              		.section	.text.refr_cell_size,"ax",%progbits
 2610              		.align	1
 2611              		.syntax unified
 2612              		.thumb
 2613              		.thumb_func
 2614              		.fpu fpv5-d16
 2616              	refr_cell_size:
 2617              	.LFB179:
 801:Drivers/lvgl/lvgl/src/widgets/lv_table.c ****     const lv_coord_t cell_pad_left = lv_obj_get_style_pad_left(obj, LV_PART_ITEMS);
 2618              		.loc 1 801 0
 2619              		.cfi_startproc
 2620              		@ args = 0, pretend = 0, frame = 32
 2621              		@ frame_needed = 0, uses_anonymous_args = 0
 2622              	.LVL370:
 2623 0000 2DE9F04F 		push	{r4, r5, r6, r7, r8, r9, r10, fp, lr}
 2624              	.LCFI27:
 2625              		.cfi_def_cfa_offset 36
 2626              		.cfi_offset 4, -36
 2627              		.cfi_offset 5, -32
 2628              		.cfi_offset 6, -28
 2629              		.cfi_offset 7, -24
ARM GAS  /tmp/ccFZiBLS.s 			page 85


 2630              		.cfi_offset 8, -20
 2631              		.cfi_offset 9, -16
 2632              		.cfi_offset 10, -12
 2633              		.cfi_offset 11, -8
 2634              		.cfi_offset 14, -4
 2635 0004 8FB0     		sub	sp, sp, #60
 2636              	.LCFI28:
 2637              		.cfi_def_cfa_offset 96
 2638 0006 0446     		mov	r4, r0
 2639 0008 0E46     		mov	r6, r1
 2640 000a 0B92     		str	r2, [sp, #44]
 2641              	.LVL371:
 2642              	.LBB202:
 2643              	.LBB203:
 117:Drivers/lvgl/lvgl/src/widgets/../core/lv_obj_style_gen.h ****     return (lv_coord_t)v.num;
 2644              		.loc 3 117 0
 2645 000c 1222     		movs	r2, #18
 2646              	.LVL372:
 2647 000e 4FF4A021 		mov	r1, #327680
 2648              	.LVL373:
 2649 0012 FFF7FEFF 		bl	lv_obj_get_style_prop
 2650              	.LVL374:
 118:Drivers/lvgl/lvgl/src/widgets/../core/lv_obj_style_gen.h **** }
 2651              		.loc 3 118 0
 2652 0016 03B2     		sxth	r3, r0
 2653 0018 0893     		str	r3, [sp, #32]
 2654              	.LVL375:
 2655              	.LBE203:
 2656              	.LBE202:
 2657              	.LBB204:
 2658              	.LBB205:
 123:Drivers/lvgl/lvgl/src/widgets/../core/lv_obj_style_gen.h ****     return (lv_coord_t)v.num;
 2659              		.loc 3 123 0
 2660 001a 1322     		movs	r2, #19
 2661 001c 4FF4A021 		mov	r1, #327680
 2662 0020 2046     		mov	r0, r4
 2663 0022 FFF7FEFF 		bl	lv_obj_get_style_prop
 2664              	.LVL376:
 124:Drivers/lvgl/lvgl/src/widgets/../core/lv_obj_style_gen.h **** }
 2665              		.loc 3 124 0
 2666 0026 0FFA80F9 		sxth	r9, r0
 2667              	.LVL377:
 2668              	.LBE205:
 2669              	.LBE204:
 2670              	.LBB206:
 2671              	.LBB207:
 105:Drivers/lvgl/lvgl/src/widgets/../core/lv_obj_style_gen.h ****     return (lv_coord_t)v.num;
 2672              		.loc 3 105 0
 2673 002a 1022     		movs	r2, #16
 2674 002c 4FF4A021 		mov	r1, #327680
 2675 0030 2046     		mov	r0, r4
 2676 0032 FFF7FEFF 		bl	lv_obj_get_style_prop
 2677              	.LVL378:
 106:Drivers/lvgl/lvgl/src/widgets/../core/lv_obj_style_gen.h **** }
 2678              		.loc 3 106 0
 2679 0036 0FFA80FA 		sxth	r10, r0
 2680              	.LVL379:
ARM GAS  /tmp/ccFZiBLS.s 			page 86


 2681              	.LBE207:
 2682              	.LBE206:
 2683              	.LBB208:
 2684              	.LBB209:
 111:Drivers/lvgl/lvgl/src/widgets/../core/lv_obj_style_gen.h ****     return (lv_coord_t)v.num;
 2685              		.loc 3 111 0
 2686 003a 1122     		movs	r2, #17
 2687 003c 4FF4A021 		mov	r1, #327680
 2688 0040 2046     		mov	r0, r4
 2689 0042 FFF7FEFF 		bl	lv_obj_get_style_prop
 2690              	.LVL380:
 112:Drivers/lvgl/lvgl/src/widgets/../core/lv_obj_style_gen.h **** }
 2691              		.loc 3 112 0
 2692 0046 0FFA80FB 		sxth	fp, r0
 2693              	.LVL381:
 2694              	.LBE209:
 2695              	.LBE208:
 2696              	.LBB210:
 2697              	.LBB211:
 471:Drivers/lvgl/lvgl/src/widgets/../core/lv_obj_style_gen.h ****     return (lv_coord_t)v.num;
 2698              		.loc 3 471 0
 2699 004a 5822     		movs	r2, #88
 2700 004c 4FF4A021 		mov	r1, #327680
 2701 0050 2046     		mov	r0, r4
 2702 0052 FFF7FEFF 		bl	lv_obj_get_style_prop
 2703              	.LVL382:
 472:Drivers/lvgl/lvgl/src/widgets/../core/lv_obj_style_gen.h **** }
 2704              		.loc 3 472 0
 2705 0056 02B2     		sxth	r2, r0
 2706 0058 0792     		str	r2, [sp, #28]
 2707              	.LVL383:
 2708              	.LBE211:
 2709              	.LBE210:
 2710              	.LBB212:
 2711              	.LBB213:
 477:Drivers/lvgl/lvgl/src/widgets/../core/lv_obj_style_gen.h ****     return (lv_coord_t)v.num;
 2712              		.loc 3 477 0
 2713 005a 5922     		movs	r2, #89
 2714 005c 4FF4A021 		mov	r1, #327680
 2715 0060 2046     		mov	r0, r4
 2716 0062 FFF7FEFF 		bl	lv_obj_get_style_prop
 2717              	.LVL384:
 478:Drivers/lvgl/lvgl/src/widgets/../core/lv_obj_style_gen.h **** }
 2718              		.loc 3 478 0
 2719 0066 07B2     		sxth	r7, r0
 2720              	.LVL385:
 2721              	.LBE213:
 2722              	.LBE212:
 2723              	.LBB214:
 2724              	.LBB215:
 465:Drivers/lvgl/lvgl/src/widgets/../core/lv_obj_style_gen.h ****     return (const lv_font_t *)v.ptr;
 2725              		.loc 3 465 0
 2726 0068 5722     		movs	r2, #87
 2727 006a 4FF4A021 		mov	r1, #327680
 2728 006e 2046     		mov	r0, r4
 2729 0070 FFF7FEFF 		bl	lv_obj_get_style_prop
 2730              	.LVL386:
ARM GAS  /tmp/ccFZiBLS.s 			page 87


 2731 0074 0990     		str	r0, [sp, #36]
 2732              	.LVL387:
 2733              	.LBE215:
 2734              	.LBE214:
 2735              	.LBB216:
 2736              	.LBB217:
  27:Drivers/lvgl/lvgl/src/widgets/../core/lv_obj_style_gen.h ****     return (lv_coord_t)v.num;
 2737              		.loc 3 27 0
 2738 0076 0522     		movs	r2, #5
 2739 0078 4FF4A021 		mov	r1, #327680
 2740 007c 2046     		mov	r0, r4
 2741 007e FFF7FEFF 		bl	lv_obj_get_style_prop
 2742              	.LVL388:
  28:Drivers/lvgl/lvgl/src/widgets/../core/lv_obj_style_gen.h **** }
 2743              		.loc 3 28 0
 2744 0082 0FFA80F8 		sxth	r8, r0
 2745              	.LVL389:
 2746              	.LBE217:
 2747              	.LBE216:
 2748              	.LBB218:
 2749              	.LBB219:
  33:Drivers/lvgl/lvgl/src/widgets/../core/lv_obj_style_gen.h ****     return (lv_coord_t)v.num;
 2750              		.loc 3 33 0
 2751 0086 0622     		movs	r2, #6
 2752 0088 4FF4A021 		mov	r1, #327680
 2753 008c 2046     		mov	r0, r4
 2754 008e FFF7FEFF 		bl	lv_obj_get_style_prop
 2755              	.LVL390:
  34:Drivers/lvgl/lvgl/src/widgets/../core/lv_obj_style_gen.h **** }
 2756              		.loc 3 34 0
 2757 0092 05B2     		sxth	r5, r0
 2758              	.LVL391:
 2759              	.LBE219:
 2760              	.LBE218:
 815:Drivers/lvgl/lvgl/src/widgets/lv_table.c ****                                                   cell_pad_left, cell_pad_right, cell_pad_top, cell
 2761              		.loc 1 815 0
 2762 0094 B1B2     		uxth	r1, r6
 2763 0096 0A91     		str	r1, [sp, #40]
 2764 0098 CDF810B0 		str	fp, [sp, #16]
 2765 009c CDF80CA0 		str	r10, [sp, #12]
 2766 00a0 CDF80890 		str	r9, [sp, #8]
 2767 00a4 089B     		ldr	r3, [sp, #32]
 2768 00a6 0193     		str	r3, [sp, #4]
 2769 00a8 0097     		str	r7, [sp]
 2770 00aa 079B     		ldr	r3, [sp, #28]
 2771 00ac 099A     		ldr	r2, [sp, #36]
 2772 00ae 2046     		mov	r0, r4
 2773 00b0 FFF7FEFF 		bl	get_row_height
 2774              	.LVL392:
 818:Drivers/lvgl/lvgl/src/widgets/lv_table.c ****     table->row_h[row] = LV_CLAMP(minh, calculated_height, maxh);
 2775              		.loc 1 818 0
 2776 00b4 E36A     		ldr	r3, [r4, #44]
 2777 00b6 33F91620 		ldrsh	r2, [r3, r6, lsl #1]
 2778              	.LVL393:
 819:Drivers/lvgl/lvgl/src/widgets/lv_table.c **** 
 2779              		.loc 1 819 0
 2780 00ba A842     		cmp	r0, r5
ARM GAS  /tmp/ccFZiBLS.s 			page 88


 2781 00bc A8BF     		it	ge
 2782 00be 2846     		movge	r0, r5
 2783              	.LVL394:
 2784 00c0 00B2     		sxth	r0, r0
 2785 00c2 4045     		cmp	r0, r8
 2786 00c4 B8BF     		it	lt
 2787 00c6 4046     		movlt	r0, r8
 2788 00c8 23F81600 		strh	r0, [r3, r6, lsl #1]	@ movhi
 822:Drivers/lvgl/lvgl/src/widgets/lv_table.c ****         lv_area_t cell_area;
 2789              		.loc 1 822 0
 2790 00cc E36A     		ldr	r3, [r4, #44]
 2791 00ce 33F91630 		ldrsh	r3, [r3, r6, lsl #1]
 2792 00d2 9342     		cmp	r3, r2
 2793 00d4 08D0     		beq	.L179
 829:Drivers/lvgl/lvgl/src/widgets/lv_table.c ****         lv_obj_invalidate(obj);
 2794              		.loc 1 829 0
 2795 00d6 2046     		mov	r0, r4
 2796 00d8 FFF7FEFF 		bl	lv_obj_refresh_self_size
 2797              	.LVL395:
 830:Drivers/lvgl/lvgl/src/widgets/lv_table.c ****     }
 2798              		.loc 1 830 0
 2799 00dc 2046     		mov	r0, r4
 2800 00de FFF7FEFF 		bl	lv_obj_invalidate
 2801              	.LVL396:
 2802              	.L175:
 832:Drivers/lvgl/lvgl/src/widgets/lv_table.c **** 
 2803              		.loc 1 832 0
 2804 00e2 0FB0     		add	sp, sp, #60
 2805              	.LCFI29:
 2806              		.cfi_remember_state
 2807              		.cfi_def_cfa_offset 36
 2808              		@ sp needed
 2809 00e4 BDE8F08F 		pop	{r4, r5, r6, r7, r8, r9, r10, fp, pc}
 2810              	.LVL397:
 2811              	.L179:
 2812              	.LCFI30:
 2813              		.cfi_restore_state
 2814              	.LBB220:
 824:Drivers/lvgl/lvgl/src/widgets/lv_table.c ****         lv_area_move(&cell_area, obj->coords.x1, obj->coords.y1);
 2815              		.loc 1 824 0
 2816 00e8 0CAB     		add	r3, sp, #48
 2817 00ea BDF82C20 		ldrh	r2, [sp, #44]
 2818              	.LVL398:
 2819 00ee 0A99     		ldr	r1, [sp, #40]
 2820 00f0 2046     		mov	r0, r4
 2821 00f2 FFF7FEFF 		bl	get_cell_area
 2822              	.LVL399:
 825:Drivers/lvgl/lvgl/src/widgets/lv_table.c ****         lv_obj_invalidate_area(obj, &cell_area);
 2823              		.loc 1 825 0
 2824 00f6 B4F91620 		ldrsh	r2, [r4, #22]
 2825 00fa B4F91410 		ldrsh	r1, [r4, #20]
 2826 00fe 0CA8     		add	r0, sp, #48
 2827 0100 FFF7FEFF 		bl	lv_area_move
 2828              	.LVL400:
 826:Drivers/lvgl/lvgl/src/widgets/lv_table.c ****     }
 2829              		.loc 1 826 0
 2830 0104 0CA9     		add	r1, sp, #48
ARM GAS  /tmp/ccFZiBLS.s 			page 89


 2831 0106 2046     		mov	r0, r4
 2832 0108 FFF7FEFF 		bl	lv_obj_invalidate_area
 2833              	.LVL401:
 2834              	.LBE220:
 2835 010c E9E7     		b	.L175
 2836              		.cfi_endproc
 2837              	.LFE179:
 2839              		.section	.text.lv_table_create,"ax",%progbits
 2840              		.align	1
 2841              		.global	lv_table_create
 2842              		.syntax unified
 2843              		.thumb
 2844              		.thumb_func
 2845              		.fpu fpv5-d16
 2847              	lv_table_create:
 2848              	.LFB160:
  75:Drivers/lvgl/lvgl/src/widgets/lv_table.c ****     LV_LOG_INFO("begin");
 2849              		.loc 1 75 0
 2850              		.cfi_startproc
 2851              		@ args = 0, pretend = 0, frame = 0
 2852              		@ frame_needed = 0, uses_anonymous_args = 0
 2853              	.LVL402:
 2854 0000 10B5     		push	{r4, lr}
 2855              	.LCFI31:
 2856              		.cfi_def_cfa_offset 8
 2857              		.cfi_offset 4, -8
 2858              		.cfi_offset 14, -4
  77:Drivers/lvgl/lvgl/src/widgets/lv_table.c ****     lv_obj_class_init_obj(obj);
 2859              		.loc 1 77 0
 2860 0002 0146     		mov	r1, r0
 2861 0004 0348     		ldr	r0, .L182
 2862              	.LVL403:
 2863 0006 FFF7FEFF 		bl	lv_obj_class_create_obj
 2864              	.LVL404:
 2865 000a 0446     		mov	r4, r0
 2866              	.LVL405:
  78:Drivers/lvgl/lvgl/src/widgets/lv_table.c ****     return obj;
 2867              		.loc 1 78 0
 2868 000c FFF7FEFF 		bl	lv_obj_class_init_obj
 2869              	.LVL406:
  80:Drivers/lvgl/lvgl/src/widgets/lv_table.c **** 
 2870              		.loc 1 80 0
 2871 0010 2046     		mov	r0, r4
 2872 0012 10BD     		pop	{r4, pc}
 2873              	.LVL407:
 2874              	.L183:
 2875              		.align	2
 2876              	.L182:
 2877 0014 00000000 		.word	.LANCHOR0
 2878              		.cfi_endproc
 2879              	.LFE160:
 2881              		.section	.text.lv_table_set_row_cnt,"ax",%progbits
 2882              		.align	1
 2883              		.global	lv_table_set_row_cnt
 2884              		.syntax unified
 2885              		.thumb
 2886              		.thumb_func
ARM GAS  /tmp/ccFZiBLS.s 			page 90


 2887              		.fpu fpv5-d16
 2889              	lv_table_set_row_cnt:
 2890              	.LFB163:
 187:Drivers/lvgl/lvgl/src/widgets/lv_table.c ****     LV_ASSERT_OBJ(obj, MY_CLASS);
 2891              		.loc 1 187 0
 2892              		.cfi_startproc
 2893              		@ args = 0, pretend = 0, frame = 0
 2894              		@ frame_needed = 0, uses_anonymous_args = 0
 2895              	.LVL408:
 2896 0000 2DE9F041 		push	{r4, r5, r6, r7, r8, lr}
 2897              	.LCFI32:
 2898              		.cfi_def_cfa_offset 24
 2899              		.cfi_offset 4, -24
 2900              		.cfi_offset 5, -20
 2901              		.cfi_offset 6, -16
 2902              		.cfi_offset 7, -12
 2903              		.cfi_offset 8, -8
 2904              		.cfi_offset 14, -4
 2905              	.LVL409:
 192:Drivers/lvgl/lvgl/src/widgets/lv_table.c **** 
 2906              		.loc 1 192 0
 2907 0004 C58C     		ldrh	r5, [r0, #38]
 2908 0006 8D42     		cmp	r5, r1
 2909 0008 39D0     		beq	.L184
 2910 000a 0E46     		mov	r6, r1
 2911 000c 0446     		mov	r4, r0
 2912              	.LVL410:
 195:Drivers/lvgl/lvgl/src/widgets/lv_table.c **** 
 2913              		.loc 1 195 0
 2914 000e E184     		strh	r1, [r4, #38]	@ movhi
 197:Drivers/lvgl/lvgl/src/widgets/lv_table.c ****     LV_ASSERT_MALLOC(table->row_h);
 2915              		.loc 1 197 0
 2916 0010 4900     		lsls	r1, r1, #1
 2917              	.LVL411:
 2918 0012 C06A     		ldr	r0, [r0, #44]
 2919              	.LVL412:
 2920 0014 FFF7FEFF 		bl	lv_mem_realloc
 2921              	.LVL413:
 2922 0018 E062     		str	r0, [r4, #44]
 198:Drivers/lvgl/lvgl/src/widgets/lv_table.c ****     if(table->row_h == NULL) return;
 2923              		.loc 1 198 0
 2924 001a 50B1     		cbz	r0, .L187
 202:Drivers/lvgl/lvgl/src/widgets/lv_table.c ****         uint16_t old_cell_cnt = old_row_cnt * table->col_cnt;
 2925              		.loc 1 202 0
 2926 001c B542     		cmp	r5, r6
 2927 001e 11D9     		bls	.L188
 2928              	.LBB221:
 203:Drivers/lvgl/lvgl/src/widgets/lv_table.c ****         uint32_t new_cell_cnt = table->col_cnt * table->row_cnt;
 2929              		.loc 1 203 0
 2930 0020 A38C     		ldrh	r3, [r4, #36]
 2931 0022 15FB03F8 		smulbb	r8, r5, r3
 2932 0026 1FFA88F8 		uxth	r8, r8
 2933              	.LVL414:
 204:Drivers/lvgl/lvgl/src/widgets/lv_table.c ****         uint32_t i;
 2934              		.loc 1 204 0
 2935 002a E78C     		ldrh	r7, [r4, #38]
 2936 002c 07FB03F7 		mul	r7, r7, r3
ARM GAS  /tmp/ccFZiBLS.s 			page 91


 2937              	.LVL415:
 206:Drivers/lvgl/lvgl/src/widgets/lv_table.c ****             lv_mem_free(table->cell_data[i]);
 2938              		.loc 1 206 0
 2939 0030 06E0     		b	.L189
 2940              	.LVL416:
 2941              	.L187:
 2942 0032 FEE7     		b	.L187
 2943              	.LVL417:
 2944              	.L190:
 207:Drivers/lvgl/lvgl/src/widgets/lv_table.c ****         }
 2945              		.loc 1 207 0 discriminator 3
 2946 0034 A36A     		ldr	r3, [r4, #40]
 2947 0036 53F82700 		ldr	r0, [r3, r7, lsl #2]
 2948 003a FFF7FEFF 		bl	lv_mem_free
 2949              	.LVL418:
 206:Drivers/lvgl/lvgl/src/widgets/lv_table.c ****             lv_mem_free(table->cell_data[i]);
 2950              		.loc 1 206 0 discriminator 3
 2951 003e 0137     		adds	r7, r7, #1
 2952              	.LVL419:
 2953              	.L189:
 206:Drivers/lvgl/lvgl/src/widgets/lv_table.c ****             lv_mem_free(table->cell_data[i]);
 2954              		.loc 1 206 0 is_stmt 0 discriminator 1
 2955 0040 B845     		cmp	r8, r7
 2956 0042 F7D8     		bhi	.L190
 2957              	.LVL420:
 2958              	.L188:
 2959              	.LBE221:
 211:Drivers/lvgl/lvgl/src/widgets/lv_table.c ****     LV_ASSERT_MALLOC(table->cell_data);
 2960              		.loc 1 211 0 is_stmt 1
 2961 0044 E38C     		ldrh	r3, [r4, #38]
 2962 0046 A18C     		ldrh	r1, [r4, #36]
 2963 0048 01FB03F1 		mul	r1, r1, r3
 2964 004c 8900     		lsls	r1, r1, #2
 2965 004e A06A     		ldr	r0, [r4, #40]
 2966 0050 FFF7FEFF 		bl	lv_mem_realloc
 2967              	.LVL421:
 2968 0054 A062     		str	r0, [r4, #40]
 212:Drivers/lvgl/lvgl/src/widgets/lv_table.c ****     if(table->cell_data == NULL) return;
 2969              		.loc 1 212 0
 2970 0056 00B9     		cbnz	r0, .L191
 2971              	.L192:
 2972 0058 FEE7     		b	.L192
 2973              	.L191:
 216:Drivers/lvgl/lvgl/src/widgets/lv_table.c ****         uint32_t old_cell_cnt = old_row_cnt * table->col_cnt;
 2974              		.loc 1 216 0
 2975 005a B542     		cmp	r5, r6
 2976 005c 0BD2     		bcs	.L193
 2977              	.LBB222:
 217:Drivers/lvgl/lvgl/src/widgets/lv_table.c ****         uint32_t new_cell_cnt = table->col_cnt * table->row_cnt;
 2978              		.loc 1 217 0
 2979 005e A38C     		ldrh	r3, [r4, #36]
 2980 0060 03FB05F5 		mul	r5, r3, r5
 2981              	.LVL422:
 218:Drivers/lvgl/lvgl/src/widgets/lv_table.c ****         lv_memset_00(&table->cell_data[old_cell_cnt], (new_cell_cnt - old_cell_cnt) * sizeof(table-
 2982              		.loc 1 218 0
 2983 0064 E18C     		ldrh	r1, [r4, #38]
 2984 0066 01FB03F1 		mul	r1, r1, r3
ARM GAS  /tmp/ccFZiBLS.s 			page 92


 2985              	.LVL423:
 219:Drivers/lvgl/lvgl/src/widgets/lv_table.c ****     }
 2986              		.loc 1 219 0
 2987 006a 491B     		subs	r1, r1, r5
 2988              	.LVL424:
 2989 006c 8900     		lsls	r1, r1, #2
 2990 006e 00EB8500 		add	r0, r0, r5, lsl #2
 2991 0072 FFF7FEFF 		bl	lv_memset_00
 2992              	.LVL425:
 2993              	.L193:
 2994              	.LBE222:
 222:Drivers/lvgl/lvgl/src/widgets/lv_table.c **** }
 2995              		.loc 1 222 0
 2996 0076 0021     		movs	r1, #0
 2997 0078 2046     		mov	r0, r4
 2998 007a FFF7FEFF 		bl	refr_size_form_row
 2999              	.LVL426:
 3000              	.L184:
 223:Drivers/lvgl/lvgl/src/widgets/lv_table.c **** 
 3001              		.loc 1 223 0
 3002 007e BDE8F081 		pop	{r4, r5, r6, r7, r8, pc}
 3003              		.cfi_endproc
 3004              	.LFE163:
 3006              		.section	.text.lv_table_set_col_cnt,"ax",%progbits
 3007              		.align	1
 3008              		.global	lv_table_set_col_cnt
 3009              		.syntax unified
 3010              		.thumb
 3011              		.thumb_func
 3012              		.fpu fpv5-d16
 3014              	lv_table_set_col_cnt:
 3015              	.LFB164:
 226:Drivers/lvgl/lvgl/src/widgets/lv_table.c ****     LV_ASSERT_OBJ(obj, MY_CLASS);
 3016              		.loc 1 226 0
 3017              		.cfi_startproc
 3018              		@ args = 0, pretend = 0, frame = 8
 3019              		@ frame_needed = 0, uses_anonymous_args = 0
 3020              	.LVL427:
 3021 0000 2DE9F04F 		push	{r4, r5, r6, r7, r8, r9, r10, fp, lr}
 3022              	.LCFI33:
 3023              		.cfi_def_cfa_offset 36
 3024              		.cfi_offset 4, -36
 3025              		.cfi_offset 5, -32
 3026              		.cfi_offset 6, -28
 3027              		.cfi_offset 7, -24
 3028              		.cfi_offset 8, -20
 3029              		.cfi_offset 9, -16
 3030              		.cfi_offset 10, -12
 3031              		.cfi_offset 11, -8
 3032              		.cfi_offset 14, -4
 3033 0004 83B0     		sub	sp, sp, #12
 3034              	.LCFI34:
 3035              		.cfi_def_cfa_offset 48
 3036              	.LVL428:
 231:Drivers/lvgl/lvgl/src/widgets/lv_table.c **** 
 3037              		.loc 1 231 0
 3038 0006 858C     		ldrh	r5, [r0, #36]
ARM GAS  /tmp/ccFZiBLS.s 			page 93


 3039 0008 8D42     		cmp	r5, r1
 3040 000a 61D0     		beq	.L195
 3041 000c 8846     		mov	r8, r1
 3042 000e 0446     		mov	r4, r0
 3043              	.LVL429:
 234:Drivers/lvgl/lvgl/src/widgets/lv_table.c **** 
 3044              		.loc 1 234 0
 3045 0010 A184     		strh	r1, [r4, #36]	@ movhi
 236:Drivers/lvgl/lvgl/src/widgets/lv_table.c ****     LV_ASSERT_MALLOC(new_cell_data);
 3046              		.loc 1 236 0
 3047 0012 C08C     		ldrh	r0, [r0, #38]
 3048              	.LVL430:
 3049 0014 0091     		str	r1, [sp]
 3050 0016 01FB00F0 		mul	r0, r1, r0
 3051 001a 8000     		lsls	r0, r0, #2
 3052 001c FFF7FEFF 		bl	lv_mem_alloc
 3053              	.LVL431:
 237:Drivers/lvgl/lvgl/src/widgets/lv_table.c ****     if(new_cell_data == NULL) return;
 3054              		.loc 1 237 0
 3055 0020 0190     		str	r0, [sp, #4]
 3056 0022 00B9     		cbnz	r0, .L197
 3057              	.L198:
 3058 0024 FEE7     		b	.L198
 3059              	.L197:
 239:Drivers/lvgl/lvgl/src/widgets/lv_table.c **** 
 3060              		.loc 1 239 0
 3061 0026 A38C     		ldrh	r3, [r4, #36]
 3062 0028 E18C     		ldrh	r1, [r4, #38]
 3063 002a 01FB03F1 		mul	r1, r1, r3
 3064              	.LVL432:
 241:Drivers/lvgl/lvgl/src/widgets/lv_table.c **** 
 3065              		.loc 1 241 0
 3066 002e 8900     		lsls	r1, r1, #2
 3067              	.LVL433:
 3068 0030 0198     		ldr	r0, [sp, #4]
 3069              	.LVL434:
 3070 0032 FFF7FEFF 		bl	lv_memset_00
 3071              	.LVL435:
 246:Drivers/lvgl/lvgl/src/widgets/lv_table.c ****     uint32_t row;
 3072              		.loc 1 246 0
 3073 0036 4545     		cmp	r5, r8
 3074 0038 03D2     		bcs	.L199
 246:Drivers/lvgl/lvgl/src/widgets/lv_table.c ****     uint32_t row;
 3075              		.loc 1 246 0 is_stmt 0 discriminator 1
 3076 003a AA46     		mov	r10, r5
 3077              	.L200:
 3078              	.LVL436:
 248:Drivers/lvgl/lvgl/src/widgets/lv_table.c ****         old_col_start = row * old_col_cnt;
 3079              		.loc 1 248 0 is_stmt 1 discriminator 4
 3080 003c 4FF00009 		mov	r9, #0
 3081 0040 1DE0     		b	.L201
 3082              	.LVL437:
 3083              	.L199:
 246:Drivers/lvgl/lvgl/src/widgets/lv_table.c ****     uint32_t row;
 3084              		.loc 1 246 0 discriminator 2
 3085 0042 C246     		mov	r10, r8
 3086 0044 FAE7     		b	.L200
ARM GAS  /tmp/ccFZiBLS.s 			page 94


 3087              	.LVL438:
 3088              	.L203:
 3089              	.LBB223:
 3090              	.LBB224:
 3091              	.LBB225:
 3092              		.file 5 "Drivers/lvgl/lvgl/src/widgets/../core/../misc/lv_mem.h"
   1:Drivers/lvgl/lvgl/src/widgets/../core/../misc/lv_mem.h **** /**
   2:Drivers/lvgl/lvgl/src/widgets/../core/../misc/lv_mem.h ****  * @file lv_mem.h
   3:Drivers/lvgl/lvgl/src/widgets/../core/../misc/lv_mem.h ****  *
   4:Drivers/lvgl/lvgl/src/widgets/../core/../misc/lv_mem.h ****  */
   5:Drivers/lvgl/lvgl/src/widgets/../core/../misc/lv_mem.h **** 
   6:Drivers/lvgl/lvgl/src/widgets/../core/../misc/lv_mem.h **** #ifndef LV_MEM_H
   7:Drivers/lvgl/lvgl/src/widgets/../core/../misc/lv_mem.h **** #define LV_MEM_H
   8:Drivers/lvgl/lvgl/src/widgets/../core/../misc/lv_mem.h **** 
   9:Drivers/lvgl/lvgl/src/widgets/../core/../misc/lv_mem.h **** #ifdef __cplusplus
  10:Drivers/lvgl/lvgl/src/widgets/../core/../misc/lv_mem.h **** extern "C" {
  11:Drivers/lvgl/lvgl/src/widgets/../core/../misc/lv_mem.h **** #endif
  12:Drivers/lvgl/lvgl/src/widgets/../core/../misc/lv_mem.h **** 
  13:Drivers/lvgl/lvgl/src/widgets/../core/../misc/lv_mem.h **** /*********************
  14:Drivers/lvgl/lvgl/src/widgets/../core/../misc/lv_mem.h ****  *      INCLUDES
  15:Drivers/lvgl/lvgl/src/widgets/../core/../misc/lv_mem.h ****  *********************/
  16:Drivers/lvgl/lvgl/src/widgets/../core/../misc/lv_mem.h **** #include "../lv_conf_internal.h"
  17:Drivers/lvgl/lvgl/src/widgets/../core/../misc/lv_mem.h **** 
  18:Drivers/lvgl/lvgl/src/widgets/../core/../misc/lv_mem.h **** #include <stdint.h>
  19:Drivers/lvgl/lvgl/src/widgets/../core/../misc/lv_mem.h **** #include <stddef.h>
  20:Drivers/lvgl/lvgl/src/widgets/../core/../misc/lv_mem.h **** #include <string.h>
  21:Drivers/lvgl/lvgl/src/widgets/../core/../misc/lv_mem.h **** 
  22:Drivers/lvgl/lvgl/src/widgets/../core/../misc/lv_mem.h **** #include "lv_types.h"
  23:Drivers/lvgl/lvgl/src/widgets/../core/../misc/lv_mem.h **** 
  24:Drivers/lvgl/lvgl/src/widgets/../core/../misc/lv_mem.h **** /*********************
  25:Drivers/lvgl/lvgl/src/widgets/../core/../misc/lv_mem.h ****  *      DEFINES
  26:Drivers/lvgl/lvgl/src/widgets/../core/../misc/lv_mem.h ****  *********************/
  27:Drivers/lvgl/lvgl/src/widgets/../core/../misc/lv_mem.h **** 
  28:Drivers/lvgl/lvgl/src/widgets/../core/../misc/lv_mem.h **** /**********************
  29:Drivers/lvgl/lvgl/src/widgets/../core/../misc/lv_mem.h ****  *      TYPEDEFS
  30:Drivers/lvgl/lvgl/src/widgets/../core/../misc/lv_mem.h ****  **********************/
  31:Drivers/lvgl/lvgl/src/widgets/../core/../misc/lv_mem.h **** 
  32:Drivers/lvgl/lvgl/src/widgets/../core/../misc/lv_mem.h **** /**
  33:Drivers/lvgl/lvgl/src/widgets/../core/../misc/lv_mem.h ****  * Heap information structure.
  34:Drivers/lvgl/lvgl/src/widgets/../core/../misc/lv_mem.h ****  */
  35:Drivers/lvgl/lvgl/src/widgets/../core/../misc/lv_mem.h **** typedef struct {
  36:Drivers/lvgl/lvgl/src/widgets/../core/../misc/lv_mem.h ****     uint32_t total_size; /**< Total heap size*/
  37:Drivers/lvgl/lvgl/src/widgets/../core/../misc/lv_mem.h ****     uint32_t free_cnt;
  38:Drivers/lvgl/lvgl/src/widgets/../core/../misc/lv_mem.h ****     uint32_t free_size; /**< Size of available memory*/
  39:Drivers/lvgl/lvgl/src/widgets/../core/../misc/lv_mem.h ****     uint32_t free_biggest_size;
  40:Drivers/lvgl/lvgl/src/widgets/../core/../misc/lv_mem.h ****     uint32_t used_cnt;
  41:Drivers/lvgl/lvgl/src/widgets/../core/../misc/lv_mem.h ****     uint32_t max_used; /**< Max size of Heap memory used*/
  42:Drivers/lvgl/lvgl/src/widgets/../core/../misc/lv_mem.h ****     uint8_t used_pct; /**< Percentage used*/
  43:Drivers/lvgl/lvgl/src/widgets/../core/../misc/lv_mem.h ****     uint8_t frag_pct; /**< Amount of fragmentation*/
  44:Drivers/lvgl/lvgl/src/widgets/../core/../misc/lv_mem.h **** } lv_mem_monitor_t;
  45:Drivers/lvgl/lvgl/src/widgets/../core/../misc/lv_mem.h **** 
  46:Drivers/lvgl/lvgl/src/widgets/../core/../misc/lv_mem.h **** typedef struct {
  47:Drivers/lvgl/lvgl/src/widgets/../core/../misc/lv_mem.h ****     void * p;
  48:Drivers/lvgl/lvgl/src/widgets/../core/../misc/lv_mem.h ****     uint16_t size;
  49:Drivers/lvgl/lvgl/src/widgets/../core/../misc/lv_mem.h ****     uint8_t used : 1;
  50:Drivers/lvgl/lvgl/src/widgets/../core/../misc/lv_mem.h **** } lv_mem_buf_t;
  51:Drivers/lvgl/lvgl/src/widgets/../core/../misc/lv_mem.h **** 
ARM GAS  /tmp/ccFZiBLS.s 			page 95


  52:Drivers/lvgl/lvgl/src/widgets/../core/../misc/lv_mem.h **** typedef lv_mem_buf_t lv_mem_buf_arr_t[LV_MEM_BUF_MAX_NUM];
  53:Drivers/lvgl/lvgl/src/widgets/../core/../misc/lv_mem.h **** 
  54:Drivers/lvgl/lvgl/src/widgets/../core/../misc/lv_mem.h **** /**********************
  55:Drivers/lvgl/lvgl/src/widgets/../core/../misc/lv_mem.h ****  * GLOBAL PROTOTYPES
  56:Drivers/lvgl/lvgl/src/widgets/../core/../misc/lv_mem.h ****  **********************/
  57:Drivers/lvgl/lvgl/src/widgets/../core/../misc/lv_mem.h **** 
  58:Drivers/lvgl/lvgl/src/widgets/../core/../misc/lv_mem.h **** /**
  59:Drivers/lvgl/lvgl/src/widgets/../core/../misc/lv_mem.h ****  * Initialize the dyn_mem module (work memory and other variables)
  60:Drivers/lvgl/lvgl/src/widgets/../core/../misc/lv_mem.h ****  */
  61:Drivers/lvgl/lvgl/src/widgets/../core/../misc/lv_mem.h **** void lv_mem_init(void);
  62:Drivers/lvgl/lvgl/src/widgets/../core/../misc/lv_mem.h **** 
  63:Drivers/lvgl/lvgl/src/widgets/../core/../misc/lv_mem.h **** /**
  64:Drivers/lvgl/lvgl/src/widgets/../core/../misc/lv_mem.h ****  * Clean up the memory buffer which frees all the allocated memories.
  65:Drivers/lvgl/lvgl/src/widgets/../core/../misc/lv_mem.h ****  * @note It work only if `LV_MEM_CUSTOM == 0`
  66:Drivers/lvgl/lvgl/src/widgets/../core/../misc/lv_mem.h ****  */
  67:Drivers/lvgl/lvgl/src/widgets/../core/../misc/lv_mem.h **** void lv_mem_deinit(void);
  68:Drivers/lvgl/lvgl/src/widgets/../core/../misc/lv_mem.h **** 
  69:Drivers/lvgl/lvgl/src/widgets/../core/../misc/lv_mem.h **** /**
  70:Drivers/lvgl/lvgl/src/widgets/../core/../misc/lv_mem.h ****  * Allocate a memory dynamically
  71:Drivers/lvgl/lvgl/src/widgets/../core/../misc/lv_mem.h ****  * @param size size of the memory to allocate in bytes
  72:Drivers/lvgl/lvgl/src/widgets/../core/../misc/lv_mem.h ****  * @return pointer to the allocated memory
  73:Drivers/lvgl/lvgl/src/widgets/../core/../misc/lv_mem.h ****  */
  74:Drivers/lvgl/lvgl/src/widgets/../core/../misc/lv_mem.h **** void * lv_mem_alloc(size_t size);
  75:Drivers/lvgl/lvgl/src/widgets/../core/../misc/lv_mem.h **** 
  76:Drivers/lvgl/lvgl/src/widgets/../core/../misc/lv_mem.h **** /**
  77:Drivers/lvgl/lvgl/src/widgets/../core/../misc/lv_mem.h ****  * Free an allocated data
  78:Drivers/lvgl/lvgl/src/widgets/../core/../misc/lv_mem.h ****  * @param data pointer to an allocated memory
  79:Drivers/lvgl/lvgl/src/widgets/../core/../misc/lv_mem.h ****  */
  80:Drivers/lvgl/lvgl/src/widgets/../core/../misc/lv_mem.h **** void lv_mem_free(void * data);
  81:Drivers/lvgl/lvgl/src/widgets/../core/../misc/lv_mem.h **** 
  82:Drivers/lvgl/lvgl/src/widgets/../core/../misc/lv_mem.h **** /**
  83:Drivers/lvgl/lvgl/src/widgets/../core/../misc/lv_mem.h ****  * Reallocate a memory with a new size. The old content will be kept.
  84:Drivers/lvgl/lvgl/src/widgets/../core/../misc/lv_mem.h ****  * @param data pointer to an allocated memory.
  85:Drivers/lvgl/lvgl/src/widgets/../core/../misc/lv_mem.h ****  * Its content will be copied to the new memory block and freed
  86:Drivers/lvgl/lvgl/src/widgets/../core/../misc/lv_mem.h ****  * @param new_size the desired new size in byte
  87:Drivers/lvgl/lvgl/src/widgets/../core/../misc/lv_mem.h ****  * @return pointer to the new memory, NULL on failure
  88:Drivers/lvgl/lvgl/src/widgets/../core/../misc/lv_mem.h ****  */
  89:Drivers/lvgl/lvgl/src/widgets/../core/../misc/lv_mem.h **** void * lv_mem_realloc(void * data_p, size_t new_size);
  90:Drivers/lvgl/lvgl/src/widgets/../core/../misc/lv_mem.h **** 
  91:Drivers/lvgl/lvgl/src/widgets/../core/../misc/lv_mem.h **** /**
  92:Drivers/lvgl/lvgl/src/widgets/../core/../misc/lv_mem.h ****  *
  93:Drivers/lvgl/lvgl/src/widgets/../core/../misc/lv_mem.h ****  * @return
  94:Drivers/lvgl/lvgl/src/widgets/../core/../misc/lv_mem.h ****  */
  95:Drivers/lvgl/lvgl/src/widgets/../core/../misc/lv_mem.h **** lv_res_t lv_mem_test(void);
  96:Drivers/lvgl/lvgl/src/widgets/../core/../misc/lv_mem.h **** 
  97:Drivers/lvgl/lvgl/src/widgets/../core/../misc/lv_mem.h **** /**
  98:Drivers/lvgl/lvgl/src/widgets/../core/../misc/lv_mem.h ****  * Give information about the work memory of dynamic allocation
  99:Drivers/lvgl/lvgl/src/widgets/../core/../misc/lv_mem.h ****  * @param mon_p pointer to a lv_mem_monitor_t variable,
 100:Drivers/lvgl/lvgl/src/widgets/../core/../misc/lv_mem.h ****  *              the result of the analysis will be stored here
 101:Drivers/lvgl/lvgl/src/widgets/../core/../misc/lv_mem.h ****  */
 102:Drivers/lvgl/lvgl/src/widgets/../core/../misc/lv_mem.h **** void lv_mem_monitor(lv_mem_monitor_t * mon_p);
 103:Drivers/lvgl/lvgl/src/widgets/../core/../misc/lv_mem.h **** 
 104:Drivers/lvgl/lvgl/src/widgets/../core/../misc/lv_mem.h **** 
 105:Drivers/lvgl/lvgl/src/widgets/../core/../misc/lv_mem.h **** /**
 106:Drivers/lvgl/lvgl/src/widgets/../core/../misc/lv_mem.h ****  * Get a temporal buffer with the given size.
 107:Drivers/lvgl/lvgl/src/widgets/../core/../misc/lv_mem.h ****  * @param size the required size
 108:Drivers/lvgl/lvgl/src/widgets/../core/../misc/lv_mem.h ****  */
ARM GAS  /tmp/ccFZiBLS.s 			page 96


 109:Drivers/lvgl/lvgl/src/widgets/../core/../misc/lv_mem.h **** void * lv_mem_buf_get(uint32_t size);
 110:Drivers/lvgl/lvgl/src/widgets/../core/../misc/lv_mem.h **** 
 111:Drivers/lvgl/lvgl/src/widgets/../core/../misc/lv_mem.h **** /**
 112:Drivers/lvgl/lvgl/src/widgets/../core/../misc/lv_mem.h ****  * Release a memory buffer
 113:Drivers/lvgl/lvgl/src/widgets/../core/../misc/lv_mem.h ****  * @param p buffer to release
 114:Drivers/lvgl/lvgl/src/widgets/../core/../misc/lv_mem.h ****  */
 115:Drivers/lvgl/lvgl/src/widgets/../core/../misc/lv_mem.h **** void lv_mem_buf_release(void * p);
 116:Drivers/lvgl/lvgl/src/widgets/../core/../misc/lv_mem.h **** 
 117:Drivers/lvgl/lvgl/src/widgets/../core/../misc/lv_mem.h **** /**
 118:Drivers/lvgl/lvgl/src/widgets/../core/../misc/lv_mem.h ****  * Free all memory buffers
 119:Drivers/lvgl/lvgl/src/widgets/../core/../misc/lv_mem.h ****  */
 120:Drivers/lvgl/lvgl/src/widgets/../core/../misc/lv_mem.h **** void lv_mem_buf_free_all(void);
 121:Drivers/lvgl/lvgl/src/widgets/../core/../misc/lv_mem.h **** 
 122:Drivers/lvgl/lvgl/src/widgets/../core/../misc/lv_mem.h **** //! @cond Doxygen_Suppress
 123:Drivers/lvgl/lvgl/src/widgets/../core/../misc/lv_mem.h **** 
 124:Drivers/lvgl/lvgl/src/widgets/../core/../misc/lv_mem.h **** #if LV_MEMCPY_MEMSET_STD
 125:Drivers/lvgl/lvgl/src/widgets/../core/../misc/lv_mem.h **** 
 126:Drivers/lvgl/lvgl/src/widgets/../core/../misc/lv_mem.h **** /**
 127:Drivers/lvgl/lvgl/src/widgets/../core/../misc/lv_mem.h ****  * Wrapper for the standard memcpy
 128:Drivers/lvgl/lvgl/src/widgets/../core/../misc/lv_mem.h ****  * @param dst pointer to the destination buffer
 129:Drivers/lvgl/lvgl/src/widgets/../core/../misc/lv_mem.h ****  * @param src pointer to the source buffer
 130:Drivers/lvgl/lvgl/src/widgets/../core/../misc/lv_mem.h ****  * @param len number of byte to copy
 131:Drivers/lvgl/lvgl/src/widgets/../core/../misc/lv_mem.h ****  */
 132:Drivers/lvgl/lvgl/src/widgets/../core/../misc/lv_mem.h **** static inline void * lv_memcpy(void * dst, const void * src, size_t len)
 133:Drivers/lvgl/lvgl/src/widgets/../core/../misc/lv_mem.h **** {
 134:Drivers/lvgl/lvgl/src/widgets/../core/../misc/lv_mem.h ****     return memcpy(dst, src, len);
 135:Drivers/lvgl/lvgl/src/widgets/../core/../misc/lv_mem.h **** }
 136:Drivers/lvgl/lvgl/src/widgets/../core/../misc/lv_mem.h **** 
 137:Drivers/lvgl/lvgl/src/widgets/../core/../misc/lv_mem.h **** /**
 138:Drivers/lvgl/lvgl/src/widgets/../core/../misc/lv_mem.h ****  * Wrapper for the standard memcpy
 139:Drivers/lvgl/lvgl/src/widgets/../core/../misc/lv_mem.h ****  * @param dst pointer to the destination buffer
 140:Drivers/lvgl/lvgl/src/widgets/../core/../misc/lv_mem.h ****  * @param src pointer to the source buffer
 141:Drivers/lvgl/lvgl/src/widgets/../core/../misc/lv_mem.h ****  * @param len number of byte to copy
 142:Drivers/lvgl/lvgl/src/widgets/../core/../misc/lv_mem.h ****  */
 143:Drivers/lvgl/lvgl/src/widgets/../core/../misc/lv_mem.h **** static inline void * lv_memcpy_small(void * dst, const void * src, size_t len)
 144:Drivers/lvgl/lvgl/src/widgets/../core/../misc/lv_mem.h **** {
 145:Drivers/lvgl/lvgl/src/widgets/../core/../misc/lv_mem.h ****     return memcpy(dst, src, len);
 146:Drivers/lvgl/lvgl/src/widgets/../core/../misc/lv_mem.h **** }
 147:Drivers/lvgl/lvgl/src/widgets/../core/../misc/lv_mem.h **** 
 148:Drivers/lvgl/lvgl/src/widgets/../core/../misc/lv_mem.h **** /**
 149:Drivers/lvgl/lvgl/src/widgets/../core/../misc/lv_mem.h ****  * Wrapper for the standard memset
 150:Drivers/lvgl/lvgl/src/widgets/../core/../misc/lv_mem.h ****  * @param dst pointer to the destination buffer
 151:Drivers/lvgl/lvgl/src/widgets/../core/../misc/lv_mem.h ****  * @param v value to set [0..255]
 152:Drivers/lvgl/lvgl/src/widgets/../core/../misc/lv_mem.h ****  * @param len number of byte to set
 153:Drivers/lvgl/lvgl/src/widgets/../core/../misc/lv_mem.h ****  */
 154:Drivers/lvgl/lvgl/src/widgets/../core/../misc/lv_mem.h **** static inline void lv_memset(void * dst, uint8_t v, size_t len)
 155:Drivers/lvgl/lvgl/src/widgets/../core/../misc/lv_mem.h **** {
 156:Drivers/lvgl/lvgl/src/widgets/../core/../misc/lv_mem.h ****     memset(dst, v, len);
 157:Drivers/lvgl/lvgl/src/widgets/../core/../misc/lv_mem.h **** }
 158:Drivers/lvgl/lvgl/src/widgets/../core/../misc/lv_mem.h **** 
 159:Drivers/lvgl/lvgl/src/widgets/../core/../misc/lv_mem.h **** /**
 160:Drivers/lvgl/lvgl/src/widgets/../core/../misc/lv_mem.h ****  * Wrapper for the standard memset with fixed 0x00 value
 161:Drivers/lvgl/lvgl/src/widgets/../core/../misc/lv_mem.h ****  * @param dst pointer to the destination buffer
 162:Drivers/lvgl/lvgl/src/widgets/../core/../misc/lv_mem.h ****  * @param len number of byte to set
 163:Drivers/lvgl/lvgl/src/widgets/../core/../misc/lv_mem.h ****  */
 164:Drivers/lvgl/lvgl/src/widgets/../core/../misc/lv_mem.h **** static inline void lv_memset_00(void * dst, size_t len)
 165:Drivers/lvgl/lvgl/src/widgets/../core/../misc/lv_mem.h **** {
ARM GAS  /tmp/ccFZiBLS.s 			page 97


 166:Drivers/lvgl/lvgl/src/widgets/../core/../misc/lv_mem.h ****     memset(dst, 0x00, len);
 167:Drivers/lvgl/lvgl/src/widgets/../core/../misc/lv_mem.h **** }
 168:Drivers/lvgl/lvgl/src/widgets/../core/../misc/lv_mem.h **** 
 169:Drivers/lvgl/lvgl/src/widgets/../core/../misc/lv_mem.h **** /**
 170:Drivers/lvgl/lvgl/src/widgets/../core/../misc/lv_mem.h ****  * Wrapper for the standard memset with fixed 0xFF value
 171:Drivers/lvgl/lvgl/src/widgets/../core/../misc/lv_mem.h ****  * @param dst pointer to the destination buffer
 172:Drivers/lvgl/lvgl/src/widgets/../core/../misc/lv_mem.h ****  * @param len number of byte to set
 173:Drivers/lvgl/lvgl/src/widgets/../core/../misc/lv_mem.h ****  */
 174:Drivers/lvgl/lvgl/src/widgets/../core/../misc/lv_mem.h **** static inline void lv_memset_ff(void * dst, size_t len)
 175:Drivers/lvgl/lvgl/src/widgets/../core/../misc/lv_mem.h **** {
 176:Drivers/lvgl/lvgl/src/widgets/../core/../misc/lv_mem.h ****     memset(dst, 0xFF, len);
 177:Drivers/lvgl/lvgl/src/widgets/../core/../misc/lv_mem.h **** }
 178:Drivers/lvgl/lvgl/src/widgets/../core/../misc/lv_mem.h **** 
 179:Drivers/lvgl/lvgl/src/widgets/../core/../misc/lv_mem.h **** #else
 180:Drivers/lvgl/lvgl/src/widgets/../core/../misc/lv_mem.h **** /**
 181:Drivers/lvgl/lvgl/src/widgets/../core/../misc/lv_mem.h ****  * Same as `memcpy` but optimized for 4 byte operation.
 182:Drivers/lvgl/lvgl/src/widgets/../core/../misc/lv_mem.h ****  * @param dst pointer to the destination buffer
 183:Drivers/lvgl/lvgl/src/widgets/../core/../misc/lv_mem.h ****  * @param src pointer to the source buffer
 184:Drivers/lvgl/lvgl/src/widgets/../core/../misc/lv_mem.h ****  * @param len number of byte to copy
 185:Drivers/lvgl/lvgl/src/widgets/../core/../misc/lv_mem.h ****  */
 186:Drivers/lvgl/lvgl/src/widgets/../core/../misc/lv_mem.h **** LV_ATTRIBUTE_FAST_MEM void * lv_memcpy(void * dst, const void * src, size_t len);
 187:Drivers/lvgl/lvgl/src/widgets/../core/../misc/lv_mem.h **** 
 188:Drivers/lvgl/lvgl/src/widgets/../core/../misc/lv_mem.h **** /**
 189:Drivers/lvgl/lvgl/src/widgets/../core/../misc/lv_mem.h ****  * Same as `memcpy` but optimized to copy only a few bytes.
 190:Drivers/lvgl/lvgl/src/widgets/../core/../misc/lv_mem.h ****  * @param dst pointer to the destination buffer
 191:Drivers/lvgl/lvgl/src/widgets/../core/../misc/lv_mem.h ****  * @param src pointer to the source buffer
 192:Drivers/lvgl/lvgl/src/widgets/../core/../misc/lv_mem.h ****  * @param len number of byte to copy
 193:Drivers/lvgl/lvgl/src/widgets/../core/../misc/lv_mem.h ****  */
 194:Drivers/lvgl/lvgl/src/widgets/../core/../misc/lv_mem.h **** LV_ATTRIBUTE_FAST_MEM static inline void * lv_memcpy_small(void * dst, const void * src, size_t len
 195:Drivers/lvgl/lvgl/src/widgets/../core/../misc/lv_mem.h **** {
 196:Drivers/lvgl/lvgl/src/widgets/../core/../misc/lv_mem.h ****     uint8_t * d8 = (uint8_t *)dst;
 197:Drivers/lvgl/lvgl/src/widgets/../core/../misc/lv_mem.h ****     const uint8_t * s8 = (const uint8_t *)src;
 198:Drivers/lvgl/lvgl/src/widgets/../core/../misc/lv_mem.h **** 
 199:Drivers/lvgl/lvgl/src/widgets/../core/../misc/lv_mem.h ****     while(len) {
 200:Drivers/lvgl/lvgl/src/widgets/../core/../misc/lv_mem.h ****         *d8 = *s8;
 3093              		.loc 5 200 0
 3094 0046 12F8010B 		ldrb	r0, [r2], #1	@ zero_extendqisi2
 3095              	.LVL439:
 3096 004a 01F8010B 		strb	r0, [r1], #1
 3097              	.LVL440:
 201:Drivers/lvgl/lvgl/src/widgets/../core/../misc/lv_mem.h ****         d8++;
 202:Drivers/lvgl/lvgl/src/widgets/../core/../misc/lv_mem.h ****         s8++;
 203:Drivers/lvgl/lvgl/src/widgets/../core/../misc/lv_mem.h ****         len--;
 3098              		.loc 5 203 0
 3099 004e 013B     		subs	r3, r3, #1
 3100              	.LVL441:
 3101              	.L202:
 199:Drivers/lvgl/lvgl/src/widgets/../core/../misc/lv_mem.h ****         *d8 = *s8;
 3102              		.loc 5 199 0
 3103 0050 002B     		cmp	r3, #0
 3104 0052 F8D1     		bne	.L203
 3105              	.LBE225:
 3106              	.LBE224:
 257:Drivers/lvgl/lvgl/src/widgets/lv_table.c ****             uint32_t idx = old_col_start + min_col_cnt + i;
 3107              		.loc 1 257 0
 3108 0054 0027     		movs	r7, #0
 3109 0056 0CE0     		b	.L204
ARM GAS  /tmp/ccFZiBLS.s 			page 98


 3110              	.LVL442:
 3111              	.L205:
 3112              	.LBB226:
 258:Drivers/lvgl/lvgl/src/widgets/lv_table.c ****             lv_mem_free(table->cell_data[idx]);
 3113              		.loc 1 258 0 discriminator 3
 3114 0058 0AEB0B06 		add	r6, r10, fp
 3115 005c 3E44     		add	r6, r6, r7
 3116              	.LVL443:
 259:Drivers/lvgl/lvgl/src/widgets/lv_table.c ****             table->cell_data[idx] = NULL;
 3117              		.loc 1 259 0 discriminator 3
 3118 005e A36A     		ldr	r3, [r4, #40]
 3119 0060 53F82600 		ldr	r0, [r3, r6, lsl #2]
 3120 0064 FFF7FEFF 		bl	lv_mem_free
 3121              	.LVL444:
 260:Drivers/lvgl/lvgl/src/widgets/lv_table.c ****         }
 3122              		.loc 1 260 0 discriminator 3
 3123 0068 A36A     		ldr	r3, [r4, #40]
 3124 006a 0022     		movs	r2, #0
 3125 006c 43F82620 		str	r2, [r3, r6, lsl #2]
 3126              	.LBE226:
 257:Drivers/lvgl/lvgl/src/widgets/lv_table.c ****             uint32_t idx = old_col_start + min_col_cnt + i;
 3127              		.loc 1 257 0 discriminator 3
 3128 0070 0137     		adds	r7, r7, #1
 3129              	.LVL445:
 3130              	.L204:
 257:Drivers/lvgl/lvgl/src/widgets/lv_table.c ****             uint32_t idx = old_col_start + min_col_cnt + i;
 3131              		.loc 1 257 0 is_stmt 0 discriminator 1
 3132 0072 009B     		ldr	r3, [sp]
 3133 0074 EB1A     		subs	r3, r5, r3
 3134 0076 BB42     		cmp	r3, r7
 3135 0078 EEDC     		bgt	.L205
 3136              	.LBE223:
 248:Drivers/lvgl/lvgl/src/widgets/lv_table.c ****         old_col_start = row * old_col_cnt;
 3137              		.loc 1 248 0 is_stmt 1 discriminator 2
 3138 007a 09F10109 		add	r9, r9, #1
 3139              	.LVL446:
 3140              	.L201:
 248:Drivers/lvgl/lvgl/src/widgets/lv_table.c ****         old_col_start = row * old_col_cnt;
 3141              		.loc 1 248 0 is_stmt 0 discriminator 1
 3142 007e E38C     		ldrh	r3, [r4, #38]
 3143 0080 4B45     		cmp	r3, r9
 3144 0082 0CD9     		bls	.L212
 3145              	.LBB227:
 249:Drivers/lvgl/lvgl/src/widgets/lv_table.c ****         new_col_start = row * col_cnt;
 3146              		.loc 1 249 0 is_stmt 1
 3147 0084 09FB05FB 		mul	fp, r9, r5
 3148              	.LVL447:
 250:Drivers/lvgl/lvgl/src/widgets/lv_table.c **** 
 3149              		.loc 1 250 0
 3150 0088 09FB08F1 		mul	r1, r9, r8
 3151              	.LVL448:
 252:Drivers/lvgl/lvgl/src/widgets/lv_table.c ****                         sizeof(new_cell_data[0]) * min_col_cnt);
 3152              		.loc 1 252 0
 3153 008c 019B     		ldr	r3, [sp, #4]
 3154 008e 03EB8101 		add	r1, r3, r1, lsl #2
 3155              	.LVL449:
 3156 0092 A26A     		ldr	r2, [r4, #40]
ARM GAS  /tmp/ccFZiBLS.s 			page 99


 3157 0094 02EB8B02 		add	r2, r2, fp, lsl #2
 253:Drivers/lvgl/lvgl/src/widgets/lv_table.c **** 
 3158              		.loc 1 253 0
 3159 0098 4FEA8A03 		lsl	r3, r10, #2
 3160              	.LVL450:
 3161 009c D8E7     		b	.L202
 3162              	.LVL451:
 3163              	.L212:
 3164              	.LBE227:
 264:Drivers/lvgl/lvgl/src/widgets/lv_table.c ****     table->cell_data = new_cell_data;
 3165              		.loc 1 264 0
 3166 009e A06A     		ldr	r0, [r4, #40]
 3167 00a0 FFF7FEFF 		bl	lv_mem_free
 3168              	.LVL452:
 265:Drivers/lvgl/lvgl/src/widgets/lv_table.c **** 
 3169              		.loc 1 265 0
 3170 00a4 019B     		ldr	r3, [sp, #4]
 3171 00a6 A362     		str	r3, [r4, #40]
 268:Drivers/lvgl/lvgl/src/widgets/lv_table.c ****     LV_ASSERT_MALLOC(table->col_w);
 3172              		.loc 1 268 0
 3173 00a8 4646     		mov	r6, r8
 3174 00aa 4FEA4801 		lsl	r1, r8, #1
 3175 00ae 206B     		ldr	r0, [r4, #48]
 3176 00b0 FFF7FEFF 		bl	lv_mem_realloc
 3177              	.LVL453:
 3178 00b4 2063     		str	r0, [r4, #48]
 269:Drivers/lvgl/lvgl/src/widgets/lv_table.c ****     if(table->col_w == NULL) return;
 3179              		.loc 1 269 0
 3180 00b6 28B9     		cbnz	r0, .L209
 3181              	.L208:
 3182 00b8 FEE7     		b	.L208
 3183              	.LVL454:
 3184              	.L210:
 274:Drivers/lvgl/lvgl/src/widgets/lv_table.c ****     }
 3185              		.loc 1 274 0 discriminator 3
 3186 00ba 236B     		ldr	r3, [r4, #48]
 3187 00bc 8222     		movs	r2, #130
 3188 00be 23F81520 		strh	r2, [r3, r5, lsl #1]	@ movhi
 273:Drivers/lvgl/lvgl/src/widgets/lv_table.c ****         table->col_w[col] = LV_DPI_DEF;
 3189              		.loc 1 273 0 discriminator 3
 3190 00c2 0135     		adds	r5, r5, #1
 3191              	.LVL455:
 3192              	.L209:
 273:Drivers/lvgl/lvgl/src/widgets/lv_table.c ****         table->col_w[col] = LV_DPI_DEF;
 3193              		.loc 1 273 0 is_stmt 0 discriminator 1
 3194 00c4 AE42     		cmp	r6, r5
 3195 00c6 F8D8     		bhi	.L210
 278:Drivers/lvgl/lvgl/src/widgets/lv_table.c **** }
 3196              		.loc 1 278 0 is_stmt 1
 3197 00c8 0021     		movs	r1, #0
 3198 00ca 2046     		mov	r0, r4
 3199 00cc FFF7FEFF 		bl	refr_size_form_row
 3200              	.LVL456:
 3201              	.L195:
 279:Drivers/lvgl/lvgl/src/widgets/lv_table.c **** 
 3202              		.loc 1 279 0
 3203 00d0 03B0     		add	sp, sp, #12
ARM GAS  /tmp/ccFZiBLS.s 			page 100


 3204              	.LCFI35:
 3205              		.cfi_def_cfa_offset 36
 3206              		@ sp needed
 3207 00d2 BDE8F08F 		pop	{r4, r5, r6, r7, r8, r9, r10, fp, pc}
 3208              		.cfi_endproc
 3209              	.LFE164:
 3211              		.section	.text.lv_table_set_cell_value,"ax",%progbits
 3212              		.align	1
 3213              		.global	lv_table_set_cell_value
 3214              		.syntax unified
 3215              		.thumb
 3216              		.thumb_func
 3217              		.fpu fpv5-d16
 3219              	lv_table_set_cell_value:
 3220              	.LFB161:
  87:Drivers/lvgl/lvgl/src/widgets/lv_table.c ****     LV_ASSERT_OBJ(obj, MY_CLASS);
 3221              		.loc 1 87 0
 3222              		.cfi_startproc
 3223              		@ args = 0, pretend = 0, frame = 0
 3224              		@ frame_needed = 0, uses_anonymous_args = 0
 3225              	.LVL457:
  89:Drivers/lvgl/lvgl/src/widgets/lv_table.c **** 
 3226              		.loc 1 89 0
 3227 0000 73B3     		cbz	r3, .L215
  87:Drivers/lvgl/lvgl/src/widgets/lv_table.c ****     LV_ASSERT_OBJ(obj, MY_CLASS);
 3228              		.loc 1 87 0
 3229 0002 2DE9F84F 		push	{r3, r4, r5, r6, r7, r8, r9, r10, fp, lr}
 3230              	.LCFI36:
 3231              		.cfi_def_cfa_offset 40
 3232              		.cfi_offset 3, -40
 3233              		.cfi_offset 4, -36
 3234              		.cfi_offset 5, -32
 3235              		.cfi_offset 6, -28
 3236              		.cfi_offset 7, -24
 3237              		.cfi_offset 8, -20
 3238              		.cfi_offset 9, -16
 3239              		.cfi_offset 10, -12
 3240              		.cfi_offset 11, -8
 3241              		.cfi_offset 14, -4
 3242 0006 9846     		mov	r8, r3
 3243 0008 1646     		mov	r6, r2
 3244 000a 0D46     		mov	r5, r1
 3245 000c 0446     		mov	r4, r0
 3246              	.LVL458:
  94:Drivers/lvgl/lvgl/src/widgets/lv_table.c ****     if(row >= table->row_cnt) lv_table_set_row_cnt(obj, row + 1);
 3247              		.loc 1 94 0
 3248 000e 838C     		ldrh	r3, [r0, #36]
 3249              	.LVL459:
 3250 0010 9342     		cmp	r3, r2
 3251 0012 03D8     		bhi	.L216
  94:Drivers/lvgl/lvgl/src/widgets/lv_table.c ****     if(row >= table->row_cnt) lv_table_set_row_cnt(obj, row + 1);
 3252              		.loc 1 94 0 is_stmt 0 discriminator 1
 3253 0014 511C     		adds	r1, r2, #1
 3254              	.LVL460:
 3255 0016 89B2     		uxth	r1, r1
 3256 0018 FFF7FEFF 		bl	lv_table_set_col_cnt
 3257              	.LVL461:
ARM GAS  /tmp/ccFZiBLS.s 			page 101


 3258              	.L216:
  95:Drivers/lvgl/lvgl/src/widgets/lv_table.c **** 
 3259              		.loc 1 95 0 is_stmt 1
 3260 001c E38C     		ldrh	r3, [r4, #38]
 3261 001e AB42     		cmp	r3, r5
 3262 0020 04D8     		bhi	.L217
  95:Drivers/lvgl/lvgl/src/widgets/lv_table.c **** 
 3263              		.loc 1 95 0 is_stmt 0 discriminator 1
 3264 0022 691C     		adds	r1, r5, #1
 3265 0024 89B2     		uxth	r1, r1
 3266 0026 2046     		mov	r0, r4
 3267 0028 FFF7FEFF 		bl	lv_table_set_row_cnt
 3268              	.LVL462:
 3269              	.L217:
  97:Drivers/lvgl/lvgl/src/widgets/lv_table.c ****     lv_table_cell_ctrl_t ctrl = 0;
 3270              		.loc 1 97 0 is_stmt 1
 3271 002c A78C     		ldrh	r7, [r4, #36]
 3272 002e 07FB0567 		mla	r7, r7, r5, r6
 3273              	.LVL463:
 101:Drivers/lvgl/lvgl/src/widgets/lv_table.c **** 
 3274              		.loc 1 101 0
 3275 0032 D4F828B0 		ldr	fp, [r4, #40]
 3276 0036 5BF82790 		ldr	r9, [fp, r7, lsl #2]
 3277 003a B9F1000F 		cmp	r9, #0
 3278 003e 10D0     		beq	.L221
 101:Drivers/lvgl/lvgl/src/widgets/lv_table.c **** 
 3279              		.loc 1 101 0 is_stmt 0 discriminator 1
 3280 0040 99F800A0 		ldrb	r10, [r9]	@ zero_extendqisi2
 3281              	.LVL464:
 3282              	.L218:
 103:Drivers/lvgl/lvgl/src/widgets/lv_table.c **** 
 3283              		.loc 1 103 0 is_stmt 1
 3284 0044 4046     		mov	r0, r8
 3285 0046 FFF7FEFF 		bl	get_cell_txt_len
 3286              	.LVL465:
 105:Drivers/lvgl/lvgl/src/widgets/lv_table.c ****     LV_ASSERT_MALLOC(table->cell_data[cell]);
 3287              		.loc 1 105 0
 3288 004a 0146     		mov	r1, r0
 3289 004c 4846     		mov	r0, r9
 3290              	.LVL466:
 3291 004e FFF7FEFF 		bl	lv_mem_realloc
 3292              	.LVL467:
 3293 0052 4BF82700 		str	r0, [fp, r7, lsl #2]
 106:Drivers/lvgl/lvgl/src/widgets/lv_table.c ****     if(table->cell_data[cell] == NULL) return;
 3294              		.loc 1 106 0
 3295 0056 A36A     		ldr	r3, [r4, #40]
 3296 0058 53F82700 		ldr	r0, [r3, r7, lsl #2]
 3297 005c 20B9     		cbnz	r0, .L219
 3298              	.L220:
 3299 005e FEE7     		b	.L220
 3300              	.LVL468:
 3301              	.L215:
 3302              	.LCFI37:
 3303              		.cfi_def_cfa_offset 0
 3304              		.cfi_restore 3
 3305              		.cfi_restore 4
 3306              		.cfi_restore 5
ARM GAS  /tmp/ccFZiBLS.s 			page 102


 3307              		.cfi_restore 6
 3308              		.cfi_restore 7
 3309              		.cfi_restore 8
 3310              		.cfi_restore 9
 3311              		.cfi_restore 10
 3312              		.cfi_restore 11
 3313              		.cfi_restore 14
 3314 0060 FEE7     		b	.L215
 3315              	.LVL469:
 3316              	.L221:
 3317              	.LCFI38:
 3318              		.cfi_def_cfa_offset 40
 3319              		.cfi_offset 3, -40
 3320              		.cfi_offset 4, -36
 3321              		.cfi_offset 5, -32
 3322              		.cfi_offset 6, -28
 3323              		.cfi_offset 7, -24
 3324              		.cfi_offset 8, -20
 3325              		.cfi_offset 9, -16
 3326              		.cfi_offset 10, -12
 3327              		.cfi_offset 11, -8
 3328              		.cfi_offset 14, -4
  98:Drivers/lvgl/lvgl/src/widgets/lv_table.c **** 
 3329              		.loc 1 98 0
 3330 0062 4FF0000A 		mov	r10, #0
 3331 0066 EDE7     		b	.L218
 3332              	.LVL470:
 3333              	.L219:
 109:Drivers/lvgl/lvgl/src/widgets/lv_table.c **** 
 3334              		.loc 1 109 0
 3335 0068 4146     		mov	r1, r8
 3336 006a FFF7FEFF 		bl	copy_cell_txt
 3337              	.LVL471:
 111:Drivers/lvgl/lvgl/src/widgets/lv_table.c ****     refr_cell_size(obj, row, col);
 3338              		.loc 1 111 0
 3339 006e A36A     		ldr	r3, [r4, #40]
 3340 0070 53F82730 		ldr	r3, [r3, r7, lsl #2]
 3341 0074 83F800A0 		strb	r10, [r3]
 112:Drivers/lvgl/lvgl/src/widgets/lv_table.c **** }
 3342              		.loc 1 112 0
 3343 0078 3246     		mov	r2, r6
 3344 007a 2946     		mov	r1, r5
 3345 007c 2046     		mov	r0, r4
 3346 007e FFF7FEFF 		bl	refr_cell_size
 3347              	.LVL472:
 113:Drivers/lvgl/lvgl/src/widgets/lv_table.c **** 
 3348              		.loc 1 113 0
 3349 0082 BDE8F88F 		pop	{r3, r4, r5, r6, r7, r8, r9, r10, fp, pc}
 3350              		.cfi_endproc
 3351              	.LFE161:
 3353              		.section	.text.lv_table_set_cell_value_fmt,"ax",%progbits
 3354              		.align	1
 3355              		.global	lv_table_set_cell_value_fmt
 3356              		.syntax unified
 3357              		.thumb
 3358              		.thumb_func
 3359              		.fpu fpv5-d16
ARM GAS  /tmp/ccFZiBLS.s 			page 103


 3361              	lv_table_set_cell_value_fmt:
 3362              	.LFB162:
 116:Drivers/lvgl/lvgl/src/widgets/lv_table.c ****     LV_ASSERT_OBJ(obj, MY_CLASS);
 3363              		.loc 1 116 0
 3364              		.cfi_startproc
 3365              		@ args = 4, pretend = 4, frame = 8
 3366              		@ frame_needed = 0, uses_anonymous_args = 1
 3367              	.LVL473:
 3368 0000 08B4     		push	{r3}
 3369              	.LCFI39:
 3370              		.cfi_def_cfa_offset 4
 3371              		.cfi_offset 3, -4
 3372 0002 2DE9F04F 		push	{r4, r5, r6, r7, r8, r9, r10, fp, lr}
 3373              	.LCFI40:
 3374              		.cfi_def_cfa_offset 40
 3375              		.cfi_offset 4, -40
 3376              		.cfi_offset 5, -36
 3377              		.cfi_offset 6, -32
 3378              		.cfi_offset 7, -28
 3379              		.cfi_offset 8, -24
 3380              		.cfi_offset 9, -20
 3381              		.cfi_offset 10, -16
 3382              		.cfi_offset 11, -12
 3383              		.cfi_offset 14, -8
 3384 0006 82B0     		sub	sp, sp, #8
 3385              	.LCFI41:
 3386              		.cfi_def_cfa_offset 48
 3387 0008 0B9F     		ldr	r7, [sp, #44]
 118:Drivers/lvgl/lvgl/src/widgets/lv_table.c **** 
 3388              		.loc 1 118 0
 3389 000a 8FB3     		cbz	r7, .L226
 3390 000c 9046     		mov	r8, r2
 3391 000e 0E46     		mov	r6, r1
 3392 0010 0446     		mov	r4, r0
 3393              	.LVL474:
 121:Drivers/lvgl/lvgl/src/widgets/lv_table.c ****         lv_table_set_col_cnt(obj, col + 1);
 3394              		.loc 1 121 0
 3395 0012 838C     		ldrh	r3, [r0, #36]
 3396 0014 9342     		cmp	r3, r2
 3397 0016 03D8     		bhi	.L227
 122:Drivers/lvgl/lvgl/src/widgets/lv_table.c ****     }
 3398              		.loc 1 122 0
 3399 0018 511C     		adds	r1, r2, #1
 3400              	.LVL475:
 3401 001a 89B2     		uxth	r1, r1
 3402 001c FFF7FEFF 		bl	lv_table_set_col_cnt
 3403              	.LVL476:
 3404              	.L227:
 126:Drivers/lvgl/lvgl/src/widgets/lv_table.c ****         lv_table_set_row_cnt(obj, row + 1);
 3405              		.loc 1 126 0
 3406 0020 E38C     		ldrh	r3, [r4, #38]
 3407 0022 B342     		cmp	r3, r6
 3408 0024 04D8     		bhi	.L228
 127:Drivers/lvgl/lvgl/src/widgets/lv_table.c ****     }
 3409              		.loc 1 127 0
 3410 0026 711C     		adds	r1, r6, #1
 3411 0028 89B2     		uxth	r1, r1
ARM GAS  /tmp/ccFZiBLS.s 			page 104


 3412 002a 2046     		mov	r0, r4
 3413 002c FFF7FEFF 		bl	lv_table_set_row_cnt
 3414              	.LVL477:
 3415              	.L228:
 130:Drivers/lvgl/lvgl/src/widgets/lv_table.c ****     lv_table_cell_ctrl_t ctrl = 0;
 3416              		.loc 1 130 0
 3417 0030 A58C     		ldrh	r5, [r4, #36]
 3418 0032 05FB0685 		mla	r5, r5, r6, r8
 3419              	.LVL478:
 134:Drivers/lvgl/lvgl/src/widgets/lv_table.c **** 
 3420              		.loc 1 134 0
 3421 0036 A36A     		ldr	r3, [r4, #40]
 3422 0038 53F82530 		ldr	r3, [r3, r5, lsl #2]
 3423 003c CBB1     		cbz	r3, .L232
 134:Drivers/lvgl/lvgl/src/widgets/lv_table.c **** 
 3424              		.loc 1 134 0 is_stmt 0 discriminator 1
 3425 003e 93F800A0 		ldrb	r10, [r3]	@ zero_extendqisi2
 3426              	.LVL479:
 3427              	.L229:
 137:Drivers/lvgl/lvgl/src/widgets/lv_table.c ****     va_copy(ap2, ap);
 3428              		.loc 1 137 0 is_stmt 1
 3429 0042 0CAB     		add	r3, sp, #48
 3430 0044 0193     		str	r3, [sp, #4]
 138:Drivers/lvgl/lvgl/src/widgets/lv_table.c **** 
 3431              		.loc 1 138 0
 3432 0046 0093     		str	r3, [sp]
 141:Drivers/lvgl/lvgl/src/widgets/lv_table.c ****     va_end(ap);
 3433              		.loc 1 141 0
 3434 0048 3A46     		mov	r2, r7
 3435 004a 0021     		movs	r1, #0
 3436 004c 0846     		mov	r0, r1
 3437 004e FFF7FEFF 		bl	lv_vsnprintf
 3438              	.LVL480:
 3439 0052 8146     		mov	r9, r0
 3440              	.LVL481:
 167:Drivers/lvgl/lvgl/src/widgets/lv_table.c ****     LV_ASSERT_MALLOC(table->cell_data[cell]);
 3441              		.loc 1 167 0
 3442 0054 D4F828B0 		ldr	fp, [r4, #40]
 3443 0058 811C     		adds	r1, r0, #2
 3444 005a 5BF82500 		ldr	r0, [fp, r5, lsl #2]
 3445              	.LVL482:
 3446 005e FFF7FEFF 		bl	lv_mem_realloc
 3447              	.LVL483:
 3448 0062 4BF82500 		str	r0, [fp, r5, lsl #2]
 168:Drivers/lvgl/lvgl/src/widgets/lv_table.c ****     if(table->cell_data[cell] == NULL) {
 3449              		.loc 1 168 0
 3450 0066 A36A     		ldr	r3, [r4, #40]
 3451 0068 53F82530 		ldr	r3, [r3, r5, lsl #2]
 3452 006c 23B9     		cbnz	r3, .L230
 3453              	.L231:
 3454 006e FEE7     		b	.L231
 3455              	.LVL484:
 3456              	.L226:
 3457 0070 FEE7     		b	.L226
 3458              	.LVL485:
 3459              	.L232:
 131:Drivers/lvgl/lvgl/src/widgets/lv_table.c **** 
ARM GAS  /tmp/ccFZiBLS.s 			page 105


 3460              		.loc 1 131 0
 3461 0072 4FF0000A 		mov	r10, #0
 3462 0076 E4E7     		b	.L229
 3463              	.LVL486:
 3464              	.L230:
 174:Drivers/lvgl/lvgl/src/widgets/lv_table.c **** 
 3465              		.loc 1 174 0
 3466 0078 09F10101 		add	r1, r9, #1
 3467 007c 0022     		movs	r2, #0
 3468 007e 5A54     		strb	r2, [r3, r1]
 176:Drivers/lvgl/lvgl/src/widgets/lv_table.c **** #endif
 3469              		.loc 1 176 0
 3470 0080 A36A     		ldr	r3, [r4, #40]
 3471 0082 53F82500 		ldr	r0, [r3, r5, lsl #2]
 3472 0086 009B     		ldr	r3, [sp]
 3473 0088 3A46     		mov	r2, r7
 3474 008a 0130     		adds	r0, r0, #1
 3475 008c FFF7FEFF 		bl	lv_vsnprintf
 3476              	.LVL487:
 181:Drivers/lvgl/lvgl/src/widgets/lv_table.c **** 
 3477              		.loc 1 181 0
 3478 0090 A36A     		ldr	r3, [r4, #40]
 3479 0092 53F82530 		ldr	r3, [r3, r5, lsl #2]
 3480 0096 83F800A0 		strb	r10, [r3]
 183:Drivers/lvgl/lvgl/src/widgets/lv_table.c **** }
 3481              		.loc 1 183 0
 3482 009a 4246     		mov	r2, r8
 3483 009c 3146     		mov	r1, r6
 3484 009e 2046     		mov	r0, r4
 3485 00a0 FFF7FEFF 		bl	refr_cell_size
 3486              	.LVL488:
 184:Drivers/lvgl/lvgl/src/widgets/lv_table.c **** 
 3487              		.loc 1 184 0
 3488 00a4 02B0     		add	sp, sp, #8
 3489              	.LCFI42:
 3490              		.cfi_def_cfa_offset 40
 3491              		@ sp needed
 3492 00a6 BDE8F04F 		pop	{r4, r5, r6, r7, r8, r9, r10, fp, lr}
 3493              	.LCFI43:
 3494              		.cfi_restore 14
 3495              		.cfi_restore 11
 3496              		.cfi_restore 10
 3497              		.cfi_restore 9
 3498              		.cfi_restore 8
 3499              		.cfi_restore 7
 3500              		.cfi_restore 6
 3501              		.cfi_restore 5
 3502              		.cfi_restore 4
 3503              		.cfi_def_cfa_offset 4
 3504              	.LVL489:
 3505 00aa 01B0     		add	sp, sp, #4
 3506              	.LCFI44:
 3507              		.cfi_restore 3
 3508              		.cfi_def_cfa_offset 0
 3509 00ac 7047     		bx	lr
 3510              		.cfi_endproc
 3511              	.LFE162:
ARM GAS  /tmp/ccFZiBLS.s 			page 106


 3513              		.section	.text.lv_table_set_col_width,"ax",%progbits
 3514              		.align	1
 3515              		.global	lv_table_set_col_width
 3516              		.syntax unified
 3517              		.thumb
 3518              		.thumb_func
 3519              		.fpu fpv5-d16
 3521              	lv_table_set_col_width:
 3522              	.LFB165:
 282:Drivers/lvgl/lvgl/src/widgets/lv_table.c ****     LV_ASSERT_OBJ(obj, MY_CLASS);
 3523              		.loc 1 282 0
 3524              		.cfi_startproc
 3525              		@ args = 0, pretend = 0, frame = 0
 3526              		@ frame_needed = 0, uses_anonymous_args = 0
 3527              	.LVL490:
 3528 0000 70B5     		push	{r4, r5, r6, lr}
 3529              	.LCFI45:
 3530              		.cfi_def_cfa_offset 16
 3531              		.cfi_offset 4, -16
 3532              		.cfi_offset 5, -12
 3533              		.cfi_offset 6, -8
 3534              		.cfi_offset 14, -4
 3535 0002 0446     		mov	r4, r0
 3536 0004 0D46     		mov	r5, r1
 3537 0006 1646     		mov	r6, r2
 3538              	.LVL491:
 288:Drivers/lvgl/lvgl/src/widgets/lv_table.c **** 
 3539              		.loc 1 288 0
 3540 0008 838C     		ldrh	r3, [r0, #36]
 3541 000a 8B42     		cmp	r3, r1
 3542 000c 07D9     		bls	.L237
 3543              	.LVL492:
 3544              	.L235:
 290:Drivers/lvgl/lvgl/src/widgets/lv_table.c ****     refr_size_form_row(obj, 0);
 3545              		.loc 1 290 0
 3546 000e 236B     		ldr	r3, [r4, #48]
 3547 0010 23F81560 		strh	r6, [r3, r5, lsl #1]	@ movhi
 291:Drivers/lvgl/lvgl/src/widgets/lv_table.c **** }
 3548              		.loc 1 291 0
 3549 0014 0021     		movs	r1, #0
 3550 0016 2046     		mov	r0, r4
 3551 0018 FFF7FEFF 		bl	refr_size_form_row
 3552              	.LVL493:
 292:Drivers/lvgl/lvgl/src/widgets/lv_table.c **** 
 3553              		.loc 1 292 0
 3554 001c 70BD     		pop	{r4, r5, r6, pc}
 3555              	.LVL494:
 3556              	.L237:
 288:Drivers/lvgl/lvgl/src/widgets/lv_table.c **** 
 3557              		.loc 1 288 0 discriminator 1
 3558 001e 0131     		adds	r1, r1, #1
 3559              	.LVL495:
 3560 0020 89B2     		uxth	r1, r1
 3561 0022 FFF7FEFF 		bl	lv_table_set_col_cnt
 3562              	.LVL496:
 3563 0026 F2E7     		b	.L235
 3564              		.cfi_endproc
ARM GAS  /tmp/ccFZiBLS.s 			page 107


 3565              	.LFE165:
 3567              		.section	.text.lv_table_add_cell_ctrl,"ax",%progbits
 3568              		.align	1
 3569              		.global	lv_table_add_cell_ctrl
 3570              		.syntax unified
 3571              		.thumb
 3572              		.thumb_func
 3573              		.fpu fpv5-d16
 3575              	lv_table_add_cell_ctrl:
 3576              	.LFB166:
 295:Drivers/lvgl/lvgl/src/widgets/lv_table.c ****     LV_ASSERT_OBJ(obj, MY_CLASS);
 3577              		.loc 1 295 0
 3578              		.cfi_startproc
 3579              		@ args = 0, pretend = 0, frame = 0
 3580              		@ frame_needed = 0, uses_anonymous_args = 0
 3581              	.LVL497:
 3582 0000 F8B5     		push	{r3, r4, r5, r6, r7, lr}
 3583              	.LCFI46:
 3584              		.cfi_def_cfa_offset 24
 3585              		.cfi_offset 3, -24
 3586              		.cfi_offset 4, -20
 3587              		.cfi_offset 5, -16
 3588              		.cfi_offset 6, -12
 3589              		.cfi_offset 7, -8
 3590              		.cfi_offset 14, -4
 3591 0002 0646     		mov	r6, r0
 3592 0004 0D46     		mov	r5, r1
 3593 0006 1446     		mov	r4, r2
 3594 0008 1F46     		mov	r7, r3
 3595              	.LVL498:
 301:Drivers/lvgl/lvgl/src/widgets/lv_table.c ****     if(row >= table->row_cnt) lv_table_set_row_cnt(obj, row + 1);
 3596              		.loc 1 301 0
 3597 000a 838C     		ldrh	r3, [r0, #36]
 3598              	.LVL499:
 3599 000c 9342     		cmp	r3, r2
 3600 000e 10D9     		bls	.L245
 3601              	.LVL500:
 3602              	.L239:
 302:Drivers/lvgl/lvgl/src/widgets/lv_table.c **** 
 3603              		.loc 1 302 0
 3604 0010 F38C     		ldrh	r3, [r6, #38]
 3605 0012 AB42     		cmp	r3, r5
 3606 0014 12D9     		bls	.L246
 3607              	.L240:
 304:Drivers/lvgl/lvgl/src/widgets/lv_table.c **** 
 3608              		.loc 1 304 0
 3609 0016 B38C     		ldrh	r3, [r6, #36]
 3610 0018 03FB0544 		mla	r4, r3, r5, r4
 3611              	.LVL501:
 306:Drivers/lvgl/lvgl/src/widgets/lv_table.c ****         table->cell_data[cell]    = lv_mem_alloc(2); /*+1: trailing '\0; +1: format byte*/
 3612              		.loc 1 306 0
 3613 001c B56A     		ldr	r5, [r6, #40]
 3614 001e 55F82430 		ldr	r3, [r5, r4, lsl #2]
 3615 0022 8BB1     		cbz	r3, .L247
 3616              	.L241:
 315:Drivers/lvgl/lvgl/src/widgets/lv_table.c **** }
 3617              		.loc 1 315 0
ARM GAS  /tmp/ccFZiBLS.s 			page 108


 3618 0024 B36A     		ldr	r3, [r6, #40]
 3619 0026 53F82420 		ldr	r2, [r3, r4, lsl #2]
 3620 002a 1378     		ldrb	r3, [r2]	@ zero_extendqisi2
 3621 002c 3B43     		orrs	r3, r3, r7
 3622 002e 1370     		strb	r3, [r2]
 316:Drivers/lvgl/lvgl/src/widgets/lv_table.c **** 
 3623              		.loc 1 316 0
 3624 0030 F8BD     		pop	{r3, r4, r5, r6, r7, pc}
 3625              	.LVL502:
 3626              	.L245:
 301:Drivers/lvgl/lvgl/src/widgets/lv_table.c ****     if(row >= table->row_cnt) lv_table_set_row_cnt(obj, row + 1);
 3627              		.loc 1 301 0 discriminator 1
 3628 0032 511C     		adds	r1, r2, #1
 3629              	.LVL503:
 3630 0034 89B2     		uxth	r1, r1
 3631 0036 FFF7FEFF 		bl	lv_table_set_col_cnt
 3632              	.LVL504:
 3633 003a E9E7     		b	.L239
 3634              	.L246:
 302:Drivers/lvgl/lvgl/src/widgets/lv_table.c **** 
 3635              		.loc 1 302 0 discriminator 1
 3636 003c 691C     		adds	r1, r5, #1
 3637 003e 89B2     		uxth	r1, r1
 3638 0040 3046     		mov	r0, r6
 3639 0042 FFF7FEFF 		bl	lv_table_set_row_cnt
 3640              	.LVL505:
 3641 0046 E6E7     		b	.L240
 3642              	.LVL506:
 3643              	.L247:
 307:Drivers/lvgl/lvgl/src/widgets/lv_table.c ****         LV_ASSERT_MALLOC(table->cell_data[cell]);
 3644              		.loc 1 307 0
 3645 0048 0220     		movs	r0, #2
 3646 004a FFF7FEFF 		bl	lv_mem_alloc
 3647              	.LVL507:
 3648 004e 45F82400 		str	r0, [r5, r4, lsl #2]
 308:Drivers/lvgl/lvgl/src/widgets/lv_table.c ****         if(table->cell_data[cell] == NULL) return;
 3649              		.loc 1 308 0
 3650 0052 B36A     		ldr	r3, [r6, #40]
 3651 0054 53F82420 		ldr	r2, [r3, r4, lsl #2]
 3652 0058 32B1     		cbz	r2, .L243
 311:Drivers/lvgl/lvgl/src/widgets/lv_table.c ****         table->cell_data[cell][1] = '\0';
 3653              		.loc 1 311 0
 3654 005a 0023     		movs	r3, #0
 3655 005c 1370     		strb	r3, [r2]
 312:Drivers/lvgl/lvgl/src/widgets/lv_table.c ****     }
 3656              		.loc 1 312 0
 3657 005e B26A     		ldr	r2, [r6, #40]
 3658 0060 52F82420 		ldr	r2, [r2, r4, lsl #2]
 3659 0064 5370     		strb	r3, [r2, #1]
 3660 0066 DDE7     		b	.L241
 3661              	.L243:
 3662 0068 FEE7     		b	.L243
 3663              		.cfi_endproc
 3664              	.LFE166:
 3666              		.section	.text.lv_table_clear_cell_ctrl,"ax",%progbits
 3667              		.align	1
 3668              		.global	lv_table_clear_cell_ctrl
ARM GAS  /tmp/ccFZiBLS.s 			page 109


 3669              		.syntax unified
 3670              		.thumb
 3671              		.thumb_func
 3672              		.fpu fpv5-d16
 3674              	lv_table_clear_cell_ctrl:
 3675              	.LFB167:
 319:Drivers/lvgl/lvgl/src/widgets/lv_table.c ****     LV_ASSERT_OBJ(obj, MY_CLASS);
 3676              		.loc 1 319 0
 3677              		.cfi_startproc
 3678              		@ args = 0, pretend = 0, frame = 0
 3679              		@ frame_needed = 0, uses_anonymous_args = 0
 3680              	.LVL508:
 3681 0000 F8B5     		push	{r3, r4, r5, r6, r7, lr}
 3682              	.LCFI47:
 3683              		.cfi_def_cfa_offset 24
 3684              		.cfi_offset 3, -24
 3685              		.cfi_offset 4, -20
 3686              		.cfi_offset 5, -16
 3687              		.cfi_offset 6, -12
 3688              		.cfi_offset 7, -8
 3689              		.cfi_offset 14, -4
 3690 0002 0646     		mov	r6, r0
 3691 0004 0D46     		mov	r5, r1
 3692 0006 1446     		mov	r4, r2
 3693 0008 1F46     		mov	r7, r3
 3694              	.LVL509:
 325:Drivers/lvgl/lvgl/src/widgets/lv_table.c ****     if(row >= table->row_cnt) lv_table_set_row_cnt(obj, row + 1);
 3695              		.loc 1 325 0
 3696 000a 838C     		ldrh	r3, [r0, #36]
 3697              	.LVL510:
 3698 000c 9342     		cmp	r3, r2
 3699 000e 11D9     		bls	.L255
 3700              	.LVL511:
 3701              	.L249:
 326:Drivers/lvgl/lvgl/src/widgets/lv_table.c **** 
 3702              		.loc 1 326 0
 3703 0010 F38C     		ldrh	r3, [r6, #38]
 3704 0012 AB42     		cmp	r3, r5
 3705 0014 13D9     		bls	.L256
 3706              	.L250:
 328:Drivers/lvgl/lvgl/src/widgets/lv_table.c **** 
 3707              		.loc 1 328 0
 3708 0016 B38C     		ldrh	r3, [r6, #36]
 3709 0018 03FB0544 		mla	r4, r3, r5, r4
 3710              	.LVL512:
 330:Drivers/lvgl/lvgl/src/widgets/lv_table.c ****         table->cell_data[cell]    = lv_mem_alloc(2); /*+1: trailing '\0; +1: format byte*/
 3711              		.loc 1 330 0
 3712 001c B56A     		ldr	r5, [r6, #40]
 3713 001e 55F82430 		ldr	r3, [r5, r4, lsl #2]
 3714 0022 93B1     		cbz	r3, .L257
 3715              	.L251:
 339:Drivers/lvgl/lvgl/src/widgets/lv_table.c **** }
 3716              		.loc 1 339 0
 3717 0024 B36A     		ldr	r3, [r6, #40]
 3718 0026 53F82420 		ldr	r2, [r3, r4, lsl #2]
 3719 002a 1378     		ldrb	r3, [r2]	@ zero_extendqisi2
 3720 002c 23EA0703 		bic	r3, r3, r7
ARM GAS  /tmp/ccFZiBLS.s 			page 110


 3721 0030 1370     		strb	r3, [r2]
 340:Drivers/lvgl/lvgl/src/widgets/lv_table.c **** 
 3722              		.loc 1 340 0
 3723 0032 F8BD     		pop	{r3, r4, r5, r6, r7, pc}
 3724              	.LVL513:
 3725              	.L255:
 325:Drivers/lvgl/lvgl/src/widgets/lv_table.c ****     if(row >= table->row_cnt) lv_table_set_row_cnt(obj, row + 1);
 3726              		.loc 1 325 0 discriminator 1
 3727 0034 511C     		adds	r1, r2, #1
 3728              	.LVL514:
 3729 0036 89B2     		uxth	r1, r1
 3730 0038 FFF7FEFF 		bl	lv_table_set_col_cnt
 3731              	.LVL515:
 3732 003c E8E7     		b	.L249
 3733              	.L256:
 326:Drivers/lvgl/lvgl/src/widgets/lv_table.c **** 
 3734              		.loc 1 326 0 discriminator 1
 3735 003e 691C     		adds	r1, r5, #1
 3736 0040 89B2     		uxth	r1, r1
 3737 0042 3046     		mov	r0, r6
 3738 0044 FFF7FEFF 		bl	lv_table_set_row_cnt
 3739              	.LVL516:
 3740 0048 E5E7     		b	.L250
 3741              	.LVL517:
 3742              	.L257:
 331:Drivers/lvgl/lvgl/src/widgets/lv_table.c ****         LV_ASSERT_MALLOC(table->cell_data[cell]);
 3743              		.loc 1 331 0
 3744 004a 0220     		movs	r0, #2
 3745 004c FFF7FEFF 		bl	lv_mem_alloc
 3746              	.LVL518:
 3747 0050 45F82400 		str	r0, [r5, r4, lsl #2]
 332:Drivers/lvgl/lvgl/src/widgets/lv_table.c ****         if(table->cell_data[cell] == NULL) return;
 3748              		.loc 1 332 0
 3749 0054 B36A     		ldr	r3, [r6, #40]
 3750 0056 53F82420 		ldr	r2, [r3, r4, lsl #2]
 3751 005a 32B1     		cbz	r2, .L253
 335:Drivers/lvgl/lvgl/src/widgets/lv_table.c ****         table->cell_data[cell][1] = '\0';
 3752              		.loc 1 335 0
 3753 005c 0023     		movs	r3, #0
 3754 005e 1370     		strb	r3, [r2]
 336:Drivers/lvgl/lvgl/src/widgets/lv_table.c ****     }
 3755              		.loc 1 336 0
 3756 0060 B26A     		ldr	r2, [r6, #40]
 3757 0062 52F82420 		ldr	r2, [r2, r4, lsl #2]
 3758 0066 5370     		strb	r3, [r2, #1]
 3759 0068 DCE7     		b	.L251
 3760              	.L253:
 3761 006a FEE7     		b	.L253
 3762              		.cfi_endproc
 3763              	.LFE167:
 3765              		.section	.text.lv_table_get_cell_value,"ax",%progbits
 3766              		.align	1
 3767              		.global	lv_table_get_cell_value
 3768              		.syntax unified
 3769              		.thumb
 3770              		.thumb_func
 3771              		.fpu fpv5-d16
ARM GAS  /tmp/ccFZiBLS.s 			page 111


 3773              	lv_table_get_cell_value:
 3774              	.LFB168:
 347:Drivers/lvgl/lvgl/src/widgets/lv_table.c ****     LV_ASSERT_OBJ(obj, MY_CLASS);
 3775              		.loc 1 347 0
 3776              		.cfi_startproc
 3777              		@ args = 0, pretend = 0, frame = 0
 3778              		@ frame_needed = 0, uses_anonymous_args = 0
 3779              		@ link register save eliminated.
 3780              	.LVL519:
 351:Drivers/lvgl/lvgl/src/widgets/lv_table.c ****         LV_LOG_WARN("invalid row or column");
 3781              		.loc 1 351 0
 3782 0000 C38C     		ldrh	r3, [r0, #38]
 3783 0002 8B42     		cmp	r3, r1
 3784 0004 0AD9     		bls	.L260
 351:Drivers/lvgl/lvgl/src/widgets/lv_table.c ****         LV_LOG_WARN("invalid row or column");
 3785              		.loc 1 351 0 is_stmt 0 discriminator 1
 3786 0006 838C     		ldrh	r3, [r0, #36]
 3787 0008 9342     		cmp	r3, r2
 3788 000a 09D9     		bls	.L261
 355:Drivers/lvgl/lvgl/src/widgets/lv_table.c **** 
 3789              		.loc 1 355 0 is_stmt 1
 3790 000c 03FB0121 		mla	r1, r3, r1, r2
 3791              	.LVL520:
 357:Drivers/lvgl/lvgl/src/widgets/lv_table.c **** 
 3792              		.loc 1 357 0
 3793 0010 836A     		ldr	r3, [r0, #40]
 3794 0012 53F82100 		ldr	r0, [r3, r1, lsl #2]
 3795              	.LVL521:
 3796 0016 28B1     		cbz	r0, .L262
 359:Drivers/lvgl/lvgl/src/widgets/lv_table.c **** }
 3797              		.loc 1 359 0
 3798 0018 0130     		adds	r0, r0, #1
 3799 001a 7047     		bx	lr
 3800              	.LVL522:
 3801              	.L260:
 353:Drivers/lvgl/lvgl/src/widgets/lv_table.c ****     }
 3802              		.loc 1 353 0
 3803 001c 0248     		ldr	r0, .L263
 3804              	.LVL523:
 3805 001e 7047     		bx	lr
 3806              	.LVL524:
 3807              	.L261:
 3808 0020 0148     		ldr	r0, .L263
 3809              	.LVL525:
 3810 0022 7047     		bx	lr
 3811              	.LVL526:
 3812              	.L262:
 357:Drivers/lvgl/lvgl/src/widgets/lv_table.c **** 
 3813              		.loc 1 357 0
 3814 0024 0048     		ldr	r0, .L263
 360:Drivers/lvgl/lvgl/src/widgets/lv_table.c **** 
 3815              		.loc 1 360 0
 3816 0026 7047     		bx	lr
 3817              	.L264:
 3818              		.align	2
 3819              	.L263:
 3820 0028 00000000 		.word	.LC0
ARM GAS  /tmp/ccFZiBLS.s 			page 112


 3821              		.cfi_endproc
 3822              	.LFE168:
 3824              		.section	.text.lv_table_get_row_cnt,"ax",%progbits
 3825              		.align	1
 3826              		.global	lv_table_get_row_cnt
 3827              		.syntax unified
 3828              		.thumb
 3829              		.thumb_func
 3830              		.fpu fpv5-d16
 3832              	lv_table_get_row_cnt:
 3833              	.LFB169:
 363:Drivers/lvgl/lvgl/src/widgets/lv_table.c ****     LV_ASSERT_OBJ(obj, MY_CLASS);
 3834              		.loc 1 363 0
 3835              		.cfi_startproc
 3836              		@ args = 0, pretend = 0, frame = 0
 3837              		@ frame_needed = 0, uses_anonymous_args = 0
 3838              		@ link register save eliminated.
 3839              	.LVL527:
 368:Drivers/lvgl/lvgl/src/widgets/lv_table.c **** 
 3840              		.loc 1 368 0
 3841 0000 C08C     		ldrh	r0, [r0, #38]
 3842              	.LVL528:
 3843 0002 7047     		bx	lr
 3844              		.cfi_endproc
 3845              	.LFE169:
 3847              		.section	.text.lv_table_get_col_cnt,"ax",%progbits
 3848              		.align	1
 3849              		.global	lv_table_get_col_cnt
 3850              		.syntax unified
 3851              		.thumb
 3852              		.thumb_func
 3853              		.fpu fpv5-d16
 3855              	lv_table_get_col_cnt:
 3856              	.LFB170:
 371:Drivers/lvgl/lvgl/src/widgets/lv_table.c ****     LV_ASSERT_OBJ(obj, MY_CLASS);
 3857              		.loc 1 371 0
 3858              		.cfi_startproc
 3859              		@ args = 0, pretend = 0, frame = 0
 3860              		@ frame_needed = 0, uses_anonymous_args = 0
 3861              		@ link register save eliminated.
 3862              	.LVL529:
 376:Drivers/lvgl/lvgl/src/widgets/lv_table.c **** 
 3863              		.loc 1 376 0
 3864 0000 808C     		ldrh	r0, [r0, #36]
 3865              	.LVL530:
 3866 0002 7047     		bx	lr
 3867              		.cfi_endproc
 3868              	.LFE170:
 3870              		.section	.text.lv_table_get_col_width,"ax",%progbits
 3871              		.align	1
 3872              		.global	lv_table_get_col_width
 3873              		.syntax unified
 3874              		.thumb
 3875              		.thumb_func
 3876              		.fpu fpv5-d16
 3878              	lv_table_get_col_width:
 3879              	.LFB171:
ARM GAS  /tmp/ccFZiBLS.s 			page 113


 379:Drivers/lvgl/lvgl/src/widgets/lv_table.c ****     LV_ASSERT_OBJ(obj, MY_CLASS);
 3880              		.loc 1 379 0
 3881              		.cfi_startproc
 3882              		@ args = 0, pretend = 0, frame = 0
 3883              		@ frame_needed = 0, uses_anonymous_args = 0
 3884              		@ link register save eliminated.
 3885              	.LVL531:
 384:Drivers/lvgl/lvgl/src/widgets/lv_table.c ****         LV_LOG_WARN("lv_table_set_col_width: too big 'col_id'. Must be < LV_TABLE_COL_MAX.");
 3886              		.loc 1 384 0
 3887 0000 838C     		ldrh	r3, [r0, #36]
 3888 0002 8B42     		cmp	r3, r1
 3889 0004 03D9     		bls	.L269
 389:Drivers/lvgl/lvgl/src/widgets/lv_table.c **** }
 3890              		.loc 1 389 0
 3891 0006 036B     		ldr	r3, [r0, #48]
 3892 0008 33F91100 		ldrsh	r0, [r3, r1, lsl #1]
 3893              	.LVL532:
 3894 000c 7047     		bx	lr
 3895              	.LVL533:
 3896              	.L269:
 386:Drivers/lvgl/lvgl/src/widgets/lv_table.c ****     }
 3897              		.loc 1 386 0
 3898 000e 0020     		movs	r0, #0
 3899              	.LVL534:
 390:Drivers/lvgl/lvgl/src/widgets/lv_table.c **** 
 3900              		.loc 1 390 0
 3901 0010 7047     		bx	lr
 3902              		.cfi_endproc
 3903              	.LFE171:
 3905              		.section	.text.lv_table_has_cell_ctrl,"ax",%progbits
 3906              		.align	1
 3907              		.global	lv_table_has_cell_ctrl
 3908              		.syntax unified
 3909              		.thumb
 3910              		.thumb_func
 3911              		.fpu fpv5-d16
 3913              	lv_table_has_cell_ctrl:
 3914              	.LFB172:
 393:Drivers/lvgl/lvgl/src/widgets/lv_table.c ****     LV_ASSERT_OBJ(obj, MY_CLASS);
 3915              		.loc 1 393 0
 3916              		.cfi_startproc
 3917              		@ args = 0, pretend = 0, frame = 0
 3918              		@ frame_needed = 0, uses_anonymous_args = 0
 3919              		@ link register save eliminated.
 3920              	.LVL535:
 3921 0000 10B4     		push	{r4}
 3922              	.LCFI48:
 3923              		.cfi_def_cfa_offset 4
 3924              		.cfi_offset 4, -4
 3925              	.LVL536:
 397:Drivers/lvgl/lvgl/src/widgets/lv_table.c ****         LV_LOG_WARN("lv_table_get_cell_crop: invalid row or column");
 3926              		.loc 1 397 0
 3927 0002 C48C     		ldrh	r4, [r0, #38]
 3928 0004 8C42     		cmp	r4, r1
 3929 0006 0ED9     		bls	.L272
 397:Drivers/lvgl/lvgl/src/widgets/lv_table.c ****         LV_LOG_WARN("lv_table_get_cell_crop: invalid row or column");
 3930              		.loc 1 397 0 is_stmt 0 discriminator 1
ARM GAS  /tmp/ccFZiBLS.s 			page 114


 3931 0008 848C     		ldrh	r4, [r0, #36]
 3932 000a 9442     		cmp	r4, r2
 3933 000c 0FD9     		bls	.L273
 401:Drivers/lvgl/lvgl/src/widgets/lv_table.c **** 
 3934              		.loc 1 401 0 is_stmt 1
 3935 000e 04FB0121 		mla	r1, r4, r1, r2
 3936              	.LVL537:
 403:Drivers/lvgl/lvgl/src/widgets/lv_table.c ****     else return (table->cell_data[cell][0] & ctrl) == ctrl;
 3937              		.loc 1 403 0
 3938 0012 826A     		ldr	r2, [r0, #40]
 3939              	.LVL538:
 3940 0014 52F82120 		ldr	r2, [r2, r1, lsl #2]
 3941 0018 5AB1     		cbz	r2, .L274
 404:Drivers/lvgl/lvgl/src/widgets/lv_table.c **** }
 3942              		.loc 1 404 0
 3943 001a 1278     		ldrb	r2, [r2]	@ zero_extendqisi2
 3944 001c 9343     		bics	r3, r3, r2
 3945              	.LVL539:
 3946 001e 0CBF     		ite	eq
 3947 0020 0120     		moveq	r0, #1
 3948              	.LVL540:
 3949 0022 0020     		movne	r0, #0
 3950 0024 00E0     		b	.L271
 3951              	.LVL541:
 3952              	.L272:
 399:Drivers/lvgl/lvgl/src/widgets/lv_table.c ****     }
 3953              		.loc 1 399 0
 3954 0026 0020     		movs	r0, #0
 3955              	.LVL542:
 3956              	.L271:
 405:Drivers/lvgl/lvgl/src/widgets/lv_table.c **** 
 3957              		.loc 1 405 0
 3958 0028 5DF8044B 		ldr	r4, [sp], #4
 3959              	.LCFI49:
 3960              		.cfi_remember_state
 3961              		.cfi_restore 4
 3962              		.cfi_def_cfa_offset 0
 3963 002c 7047     		bx	lr
 3964              	.LVL543:
 3965              	.L273:
 3966              	.LCFI50:
 3967              		.cfi_restore_state
 399:Drivers/lvgl/lvgl/src/widgets/lv_table.c ****     }
 3968              		.loc 1 399 0
 3969 002e 0020     		movs	r0, #0
 3970              	.LVL544:
 3971 0030 FAE7     		b	.L271
 3972              	.LVL545:
 3973              	.L274:
 403:Drivers/lvgl/lvgl/src/widgets/lv_table.c ****     else return (table->cell_data[cell][0] & ctrl) == ctrl;
 3974              		.loc 1 403 0
 3975 0032 0020     		movs	r0, #0
 3976              	.LVL546:
 3977 0034 F8E7     		b	.L271
 3978              		.cfi_endproc
 3979              	.LFE172:
 3981              		.section	.text.lv_table_get_selected_cell,"ax",%progbits
ARM GAS  /tmp/ccFZiBLS.s 			page 115


 3982              		.align	1
 3983              		.global	lv_table_get_selected_cell
 3984              		.syntax unified
 3985              		.thumb
 3986              		.thumb_func
 3987              		.fpu fpv5-d16
 3989              	lv_table_get_selected_cell:
 3990              	.LFB173:
 408:Drivers/lvgl/lvgl/src/widgets/lv_table.c ****     lv_table_t * table = (lv_table_t *)obj;
 3991              		.loc 1 408 0
 3992              		.cfi_startproc
 3993              		@ args = 0, pretend = 0, frame = 0
 3994              		@ frame_needed = 0, uses_anonymous_args = 0
 3995              		@ link register save eliminated.
 3996              	.LVL547:
 410:Drivers/lvgl/lvgl/src/widgets/lv_table.c ****     *col = table->col_act;
 3997              		.loc 1 410 0
 3998 0000 C38E     		ldrh	r3, [r0, #54]
 3999 0002 0B80     		strh	r3, [r1]	@ movhi
 411:Drivers/lvgl/lvgl/src/widgets/lv_table.c **** }
 4000              		.loc 1 411 0
 4001 0004 838E     		ldrh	r3, [r0, #52]
 4002 0006 1380     		strh	r3, [r2]	@ movhi
 412:Drivers/lvgl/lvgl/src/widgets/lv_table.c **** 
 4003              		.loc 1 412 0
 4004 0008 7047     		bx	lr
 4005              		.cfi_endproc
 4006              	.LFE173:
 4008              		.global	lv_table_class
 4009              		.section	.rodata.lv_table_class,"a",%progbits
 4010              		.align	2
 4011              		.set	.LANCHOR0,. + 0
 4014              	lv_table_class:
 4015 0000 00000000 		.word	lv_obj_class
 4016 0004 00000000 		.word	lv_table_constructor
 4017 0008 00000000 		.word	lv_table_destructor
 4018 000c 00000000 		.space	4
 4019 0010 00000000 		.word	lv_table_event
 4020 0014 D127     		.short	10193
 4021 0016 D127     		.short	10193
 4022 0018 85       		.byte	133
 4023 0019 03       		.byte	3
 4024 001a 00       		.byte	0
 4025 001b 00       		.space	1
 4026              		.section	.rodata.lv_table_get_cell_value.str1.4,"aMS",%progbits,1
 4027              		.align	2
 4028              	.LC0:
 4029 0000 00       		.ascii	"\000"
 4030              		.text
 4031              	.Letext0:
 4032              		.file 6 "/opt/gcc-arm-none-eabi-7-2017-q4-major/arm-none-eabi/include/machine/_default_types.h"
 4033              		.file 7 "/opt/gcc-arm-none-eabi-7-2017-q4-major/arm-none-eabi/include/sys/_stdint.h"
 4034              		.file 8 "/opt/gcc-arm-none-eabi-7-2017-q4-major/lib/gcc/arm-none-eabi/7.2.1/include/stddef.h"
 4035              		.file 9 "Drivers/lvgl/lvgl/src/widgets/../core/../misc/lv_types.h"
 4036              		.file 10 "/opt/gcc-arm-none-eabi-7-2017-q4-major/arm-none-eabi/include/sys/lock.h"
 4037              		.file 11 "/opt/gcc-arm-none-eabi-7-2017-q4-major/arm-none-eabi/include/sys/_types.h"
 4038              		.file 12 "/opt/gcc-arm-none-eabi-7-2017-q4-major/arm-none-eabi/include/sys/reent.h"
ARM GAS  /tmp/ccFZiBLS.s 			page 116


 4039              		.file 13 "Drivers/lvgl/lvgl/src/widgets/../core/../misc/lv_color.h"
 4040              		.file 14 "Drivers/lvgl/lvgl/src/widgets/../core/../misc/lv_anim.h"
 4041              		.file 15 "/opt/gcc-arm-none-eabi-7-2017-q4-major/lib/gcc/arm-none-eabi/7.2.1/include/stdarg.h"
 4042              		.file 16 "<built-in>"
 4043              		.file 17 "Drivers/lvgl/lvgl/src/widgets/../core/../misc/lv_txt.h"
 4044              		.file 18 "Drivers/lvgl/lvgl/src/widgets/../core/../misc/lv_bidi.h"
 4045              		.file 19 "Drivers/lvgl/lvgl/src/widgets/../core/../misc/lv_style.h"
 4046              		.file 20 "Drivers/lvgl/lvgl/src/widgets/../core/../hal/../draw/lv_img_buf.h"
 4047              		.file 21 "Drivers/lvgl/lvgl/src/widgets/../core/lv_obj.h"
 4048              		.file 22 "Drivers/lvgl/lvgl/src/widgets/../core/../hal/../draw/lv_draw_rect.h"
 4049              		.file 23 "Drivers/lvgl/lvgl/src/widgets/../core/../hal/../draw/lv_draw_label.h"
 4050              		.file 24 "Drivers/lvgl/lvgl/src/widgets/../core/../hal/../draw/lv_draw_img.h"
 4051              		.file 25 "Drivers/lvgl/lvgl/src/widgets/../core/../hal/../draw/lv_draw_line.h"
 4052              		.file 26 "Drivers/lvgl/lvgl/src/widgets/../core/../hal/../draw/lv_draw_arc.h"
 4053              		.file 27 "Drivers/lvgl/lvgl/src/widgets/../core/../hal/../draw/lv_draw_layer.h"
 4054              		.file 28 "Drivers/lvgl/lvgl/src/widgets/../core/../hal/../draw/lv_draw.h"
 4055              		.file 29 "Drivers/lvgl/lvgl/src/widgets/../core/../hal/../misc/lv_ll.h"
 4056              		.file 30 "Drivers/lvgl/lvgl/src/widgets/../core/../hal/../misc/lv_timer.h"
 4057              		.file 31 "Drivers/lvgl/lvgl/src/widgets/../core/../hal/lv_hal_disp.h"
 4058              		.file 32 "Drivers/lvgl/lvgl/src/widgets/../core/../hal/lv_hal_indev.h"
 4059              		.file 33 "Drivers/lvgl/lvgl/src/widgets/../core/lv_group.h"
 4060              		.file 34 "Drivers/lvgl/lvgl/src/widgets/../core/lv_obj_scroll.h"
 4061              		.file 35 "Drivers/lvgl/lvgl/src/widgets/../core/lv_obj_style.h"
 4062              		.file 36 "Drivers/lvgl/lvgl/src/widgets/../core/lv_obj_draw.h"
 4063              		.file 37 "Drivers/lvgl/lvgl/src/widgets/../core/lv_obj_class.h"
 4064              		.file 38 "Drivers/lvgl/lvgl/src/widgets/../core/lv_event.h"
 4065              		.file 39 "Drivers/lvgl/lvgl/src/widgets/lv_label.h"
 4066              		.file 40 "Drivers/lvgl/lvgl/src/widgets/lv_table.h"
 4067              		.file 41 "Drivers/lvgl/lvgl/src/widgets/../core/../hal/../draw/sw/../../core/lv_obj_pos.h"
 4068              		.file 42 "/opt/gcc-arm-none-eabi-7-2017-q4-major/arm-none-eabi/include/string.h"
 4069              		.file 43 "Drivers/lvgl/lvgl/src/widgets/../core/lv_indev.h"
 4070              		.file 44 "Drivers/lvgl/lvgl/src/widgets/../core/../misc/lv_printf.h"
ARM GAS  /tmp/ccFZiBLS.s 			page 117


DEFINED SYMBOLS
                            *ABS*:0000000000000000 lv_table.c
     /tmp/ccFZiBLS.s:17     .text.get_row_height:0000000000000000 $t
     /tmp/ccFZiBLS.s:23     .text.get_row_height:0000000000000000 get_row_height
     /tmp/ccFZiBLS.s:254    .text.refr_size_form_row:0000000000000000 $t
     /tmp/ccFZiBLS.s:260    .text.refr_size_form_row:0000000000000000 refr_size_form_row
     /tmp/ccFZiBLS.s:460    .text.get_pressed_cell:0000000000000000 $t
     /tmp/ccFZiBLS.s:466    .text.get_pressed_cell:0000000000000000 get_pressed_cell
     /tmp/ccFZiBLS.s:717    .text.get_cell_area:0000000000000000 $t
     /tmp/ccFZiBLS.s:723    .text.get_cell_area:0000000000000000 get_cell_area
     /tmp/ccFZiBLS.s:918    .text.scroll_to_selected_cell:0000000000000000 $t
     /tmp/ccFZiBLS.s:924    .text.scroll_to_selected_cell:0000000000000000 scroll_to_selected_cell
     /tmp/ccFZiBLS.s:1039   .text.draw_main:0000000000000000 $t
     /tmp/ccFZiBLS.s:1045   .text.draw_main:0000000000000000 draw_main
     /tmp/ccFZiBLS.s:1761   .text.draw_main:000000000000044c $d
     /tmp/ccFZiBLS.s:1764   .text.draw_main:0000000000000450 $t
     /tmp/ccFZiBLS.s:1964   .text.lv_table_event:0000000000000000 $t
     /tmp/ccFZiBLS.s:1970   .text.lv_table_event:0000000000000000 lv_table_event
     /tmp/ccFZiBLS.s:2403   .text.lv_table_event:00000000000001d0 $d
     /tmp/ccFZiBLS.s:2409   .text.lv_table_destructor:0000000000000000 $t
     /tmp/ccFZiBLS.s:2415   .text.lv_table_destructor:0000000000000000 lv_table_destructor
     /tmp/ccFZiBLS.s:2489   .text.lv_table_constructor:0000000000000000 $t
     /tmp/ccFZiBLS.s:2495   .text.lv_table_constructor:0000000000000000 lv_table_constructor
     /tmp/ccFZiBLS.s:2551   .text.get_cell_txt_len:0000000000000000 $t
     /tmp/ccFZiBLS.s:2557   .text.get_cell_txt_len:0000000000000000 get_cell_txt_len
     /tmp/ccFZiBLS.s:2581   .text.copy_cell_txt:0000000000000000 $t
     /tmp/ccFZiBLS.s:2587   .text.copy_cell_txt:0000000000000000 copy_cell_txt
     /tmp/ccFZiBLS.s:2610   .text.refr_cell_size:0000000000000000 $t
     /tmp/ccFZiBLS.s:2616   .text.refr_cell_size:0000000000000000 refr_cell_size
     /tmp/ccFZiBLS.s:2840   .text.lv_table_create:0000000000000000 $t
     /tmp/ccFZiBLS.s:2847   .text.lv_table_create:0000000000000000 lv_table_create
     /tmp/ccFZiBLS.s:2877   .text.lv_table_create:0000000000000014 $d
     /tmp/ccFZiBLS.s:2882   .text.lv_table_set_row_cnt:0000000000000000 $t
     /tmp/ccFZiBLS.s:2889   .text.lv_table_set_row_cnt:0000000000000000 lv_table_set_row_cnt
     /tmp/ccFZiBLS.s:3007   .text.lv_table_set_col_cnt:0000000000000000 $t
     /tmp/ccFZiBLS.s:3014   .text.lv_table_set_col_cnt:0000000000000000 lv_table_set_col_cnt
     /tmp/ccFZiBLS.s:3212   .text.lv_table_set_cell_value:0000000000000000 $t
     /tmp/ccFZiBLS.s:3219   .text.lv_table_set_cell_value:0000000000000000 lv_table_set_cell_value
     /tmp/ccFZiBLS.s:3354   .text.lv_table_set_cell_value_fmt:0000000000000000 $t
     /tmp/ccFZiBLS.s:3361   .text.lv_table_set_cell_value_fmt:0000000000000000 lv_table_set_cell_value_fmt
     /tmp/ccFZiBLS.s:3514   .text.lv_table_set_col_width:0000000000000000 $t
     /tmp/ccFZiBLS.s:3521   .text.lv_table_set_col_width:0000000000000000 lv_table_set_col_width
     /tmp/ccFZiBLS.s:3568   .text.lv_table_add_cell_ctrl:0000000000000000 $t
     /tmp/ccFZiBLS.s:3575   .text.lv_table_add_cell_ctrl:0000000000000000 lv_table_add_cell_ctrl
     /tmp/ccFZiBLS.s:3667   .text.lv_table_clear_cell_ctrl:0000000000000000 $t
     /tmp/ccFZiBLS.s:3674   .text.lv_table_clear_cell_ctrl:0000000000000000 lv_table_clear_cell_ctrl
     /tmp/ccFZiBLS.s:3766   .text.lv_table_get_cell_value:0000000000000000 $t
     /tmp/ccFZiBLS.s:3773   .text.lv_table_get_cell_value:0000000000000000 lv_table_get_cell_value
     /tmp/ccFZiBLS.s:3820   .text.lv_table_get_cell_value:0000000000000028 $d
     /tmp/ccFZiBLS.s:3825   .text.lv_table_get_row_cnt:0000000000000000 $t
     /tmp/ccFZiBLS.s:3832   .text.lv_table_get_row_cnt:0000000000000000 lv_table_get_row_cnt
     /tmp/ccFZiBLS.s:3848   .text.lv_table_get_col_cnt:0000000000000000 $t
     /tmp/ccFZiBLS.s:3855   .text.lv_table_get_col_cnt:0000000000000000 lv_table_get_col_cnt
     /tmp/ccFZiBLS.s:3871   .text.lv_table_get_col_width:0000000000000000 $t
     /tmp/ccFZiBLS.s:3878   .text.lv_table_get_col_width:0000000000000000 lv_table_get_col_width
     /tmp/ccFZiBLS.s:3906   .text.lv_table_has_cell_ctrl:0000000000000000 $t
     /tmp/ccFZiBLS.s:3913   .text.lv_table_has_cell_ctrl:0000000000000000 lv_table_has_cell_ctrl
ARM GAS  /tmp/ccFZiBLS.s 			page 118


     /tmp/ccFZiBLS.s:3982   .text.lv_table_get_selected_cell:0000000000000000 $t
     /tmp/ccFZiBLS.s:3989   .text.lv_table_get_selected_cell:0000000000000000 lv_table_get_selected_cell
     /tmp/ccFZiBLS.s:4014   .rodata.lv_table_class:0000000000000000 lv_table_class
     /tmp/ccFZiBLS.s:4010   .rodata.lv_table_class:0000000000000000 $d
     /tmp/ccFZiBLS.s:4027   .rodata.lv_table_get_cell_value.str1.4:0000000000000000 $d

UNDEFINED SYMBOLS
lv_txt_get_size
lv_obj_get_style_prop
lv_obj_refresh_self_size
lv_obj_invalidate
lv_indev_get_act
lv_indev_get_type
lv_indev_get_point
lv_obj_get_scroll_x
lv_obj_get_scroll_y
lv_obj_get_width
lv_obj_get_height
lv_obj_scroll_by_bounded
lv_event_get_target
lv_event_get_draw_ctx
_lv_area_intersect
lv_draw_rect_dsc_init
lv_obj_init_draw_rect_dsc
lv_draw_label_dsc_init
lv_obj_init_draw_label_dsc
lv_obj_draw_dsc_init
lv_memcpy
lv_event_send
lv_draw_rect
lv_draw_label
lv_obj_event_base
lv_event_get_code
lv_event_get_param
lv_indev_get_scroll_obj
lv_mem_free
lv_mem_alloc
lv_mem_realloc
strlen
strcpy
lv_area_move
lv_obj_invalidate_area
lv_obj_class_create_obj
lv_obj_class_init_obj
lv_memset_00
lv_vsnprintf
lv_obj_class
