ARM GAS  /tmp/cc6wDDAF.s 			page 1


   1              		.cpu cortex-m7
   2              		.eabi_attribute 28, 1
   3              		.eabi_attribute 20, 1
   4              		.eabi_attribute 21, 1
   5              		.eabi_attribute 23, 3
   6              		.eabi_attribute 24, 1
   7              		.eabi_attribute 25, 1
   8              		.eabi_attribute 26, 1
   9              		.eabi_attribute 30, 1
  10              		.eabi_attribute 34, 1
  11              		.eabi_attribute 18, 4
  12              		.file	"lv_theme_default.c"
  13              		.text
  14              	.Ltext0:
  15              		.cfi_sections	.debug_frame
  16              		.section	.text.theme_apply,"ax",%progbits
  17              		.align	1
  18              		.syntax unified
  19              		.thumb
  20              		.thumb_func
  21              		.fpu fpv5-d16
  23              	theme_apply:
  24              	.LFB208:
  25              		.file 1 "Drivers/lvgl/lvgl/src/extra/themes/default/lv_theme_default.c"
   1:Drivers/lvgl/lvgl/src/extra/themes/default/lv_theme_default.c **** /**
   2:Drivers/lvgl/lvgl/src/extra/themes/default/lv_theme_default.c ****  * @file lv_theme_default.c
   3:Drivers/lvgl/lvgl/src/extra/themes/default/lv_theme_default.c ****  *
   4:Drivers/lvgl/lvgl/src/extra/themes/default/lv_theme_default.c ****  */
   5:Drivers/lvgl/lvgl/src/extra/themes/default/lv_theme_default.c **** 
   6:Drivers/lvgl/lvgl/src/extra/themes/default/lv_theme_default.c **** /*********************
   7:Drivers/lvgl/lvgl/src/extra/themes/default/lv_theme_default.c ****  *      INCLUDES
   8:Drivers/lvgl/lvgl/src/extra/themes/default/lv_theme_default.c ****  *********************/
   9:Drivers/lvgl/lvgl/src/extra/themes/default/lv_theme_default.c **** #include "../../../lvgl.h" /*To see all the widgets*/
  10:Drivers/lvgl/lvgl/src/extra/themes/default/lv_theme_default.c **** 
  11:Drivers/lvgl/lvgl/src/extra/themes/default/lv_theme_default.c **** #if LV_USE_THEME_DEFAULT
  12:Drivers/lvgl/lvgl/src/extra/themes/default/lv_theme_default.c **** 
  13:Drivers/lvgl/lvgl/src/extra/themes/default/lv_theme_default.c **** #include "lv_theme_default.h"
  14:Drivers/lvgl/lvgl/src/extra/themes/default/lv_theme_default.c **** #include "../../../misc/lv_gc.h"
  15:Drivers/lvgl/lvgl/src/extra/themes/default/lv_theme_default.c **** 
  16:Drivers/lvgl/lvgl/src/extra/themes/default/lv_theme_default.c **** /*********************
  17:Drivers/lvgl/lvgl/src/extra/themes/default/lv_theme_default.c ****  *      DEFINES
  18:Drivers/lvgl/lvgl/src/extra/themes/default/lv_theme_default.c ****  *********************/
  19:Drivers/lvgl/lvgl/src/extra/themes/default/lv_theme_default.c **** #define MODE_DARK 1
  20:Drivers/lvgl/lvgl/src/extra/themes/default/lv_theme_default.c **** #define RADIUS_DEFAULT (disp_size == DISP_LARGE ? lv_disp_dpx(theme.disp, 12) : lv_disp_dpx(theme.d
  21:Drivers/lvgl/lvgl/src/extra/themes/default/lv_theme_default.c **** 
  22:Drivers/lvgl/lvgl/src/extra/themes/default/lv_theme_default.c **** /*SCREEN*/
  23:Drivers/lvgl/lvgl/src/extra/themes/default/lv_theme_default.c **** #define LIGHT_COLOR_SCR        lv_palette_lighten(LV_PALETTE_GREY, 4)
  24:Drivers/lvgl/lvgl/src/extra/themes/default/lv_theme_default.c **** #define LIGHT_COLOR_CARD       lv_color_white()
  25:Drivers/lvgl/lvgl/src/extra/themes/default/lv_theme_default.c **** #define LIGHT_COLOR_TEXT       lv_palette_darken(LV_PALETTE_GREY, 4)
  26:Drivers/lvgl/lvgl/src/extra/themes/default/lv_theme_default.c **** #define LIGHT_COLOR_GREY       lv_palette_lighten(LV_PALETTE_GREY, 2)
  27:Drivers/lvgl/lvgl/src/extra/themes/default/lv_theme_default.c **** #define DARK_COLOR_SCR         lv_color_hex(0x15171A)
  28:Drivers/lvgl/lvgl/src/extra/themes/default/lv_theme_default.c **** #define DARK_COLOR_CARD        lv_color_hex(0x282b30)
  29:Drivers/lvgl/lvgl/src/extra/themes/default/lv_theme_default.c **** #define DARK_COLOR_TEXT        lv_palette_lighten(LV_PALETTE_GREY, 5)
  30:Drivers/lvgl/lvgl/src/extra/themes/default/lv_theme_default.c **** #define DARK_COLOR_GREY        lv_color_hex(0x2f3237)
  31:Drivers/lvgl/lvgl/src/extra/themes/default/lv_theme_default.c **** 
  32:Drivers/lvgl/lvgl/src/extra/themes/default/lv_theme_default.c **** #define TRANSITION_TIME         LV_THEME_DEFAULT_TRANSITION_TIME
  33:Drivers/lvgl/lvgl/src/extra/themes/default/lv_theme_default.c **** #define BORDER_WIDTH            lv_disp_dpx(theme.disp, 2)
ARM GAS  /tmp/cc6wDDAF.s 			page 2


  34:Drivers/lvgl/lvgl/src/extra/themes/default/lv_theme_default.c **** #define OUTLINE_WIDTH           lv_disp_dpx(theme.disp, 3)
  35:Drivers/lvgl/lvgl/src/extra/themes/default/lv_theme_default.c **** 
  36:Drivers/lvgl/lvgl/src/extra/themes/default/lv_theme_default.c **** #define PAD_DEF     (disp_size == DISP_LARGE ? lv_disp_dpx(theme.disp, 24) : disp_size == DISP_MEDI
  37:Drivers/lvgl/lvgl/src/extra/themes/default/lv_theme_default.c **** #define PAD_SMALL   (disp_size == DISP_LARGE ? lv_disp_dpx(theme.disp, 14) : disp_size == DISP_MEDI
  38:Drivers/lvgl/lvgl/src/extra/themes/default/lv_theme_default.c **** #define PAD_TINY   (disp_size == DISP_LARGE ? lv_disp_dpx(theme.disp, 8) : disp_size == DISP_MEDIUM
  39:Drivers/lvgl/lvgl/src/extra/themes/default/lv_theme_default.c **** 
  40:Drivers/lvgl/lvgl/src/extra/themes/default/lv_theme_default.c **** /**********************
  41:Drivers/lvgl/lvgl/src/extra/themes/default/lv_theme_default.c ****  *      TYPEDEFS
  42:Drivers/lvgl/lvgl/src/extra/themes/default/lv_theme_default.c ****  **********************/
  43:Drivers/lvgl/lvgl/src/extra/themes/default/lv_theme_default.c **** typedef struct {
  44:Drivers/lvgl/lvgl/src/extra/themes/default/lv_theme_default.c ****     lv_style_t scr;
  45:Drivers/lvgl/lvgl/src/extra/themes/default/lv_theme_default.c ****     lv_style_t scrollbar;
  46:Drivers/lvgl/lvgl/src/extra/themes/default/lv_theme_default.c ****     lv_style_t scrollbar_scrolled;
  47:Drivers/lvgl/lvgl/src/extra/themes/default/lv_theme_default.c ****     lv_style_t card;
  48:Drivers/lvgl/lvgl/src/extra/themes/default/lv_theme_default.c ****     lv_style_t btn;
  49:Drivers/lvgl/lvgl/src/extra/themes/default/lv_theme_default.c **** 
  50:Drivers/lvgl/lvgl/src/extra/themes/default/lv_theme_default.c ****     /*Utility*/
  51:Drivers/lvgl/lvgl/src/extra/themes/default/lv_theme_default.c ****     lv_style_t bg_color_primary;
  52:Drivers/lvgl/lvgl/src/extra/themes/default/lv_theme_default.c ****     lv_style_t bg_color_primary_muted;
  53:Drivers/lvgl/lvgl/src/extra/themes/default/lv_theme_default.c ****     lv_style_t bg_color_secondary;
  54:Drivers/lvgl/lvgl/src/extra/themes/default/lv_theme_default.c ****     lv_style_t bg_color_secondary_muted;
  55:Drivers/lvgl/lvgl/src/extra/themes/default/lv_theme_default.c ****     lv_style_t bg_color_grey;
  56:Drivers/lvgl/lvgl/src/extra/themes/default/lv_theme_default.c ****     lv_style_t bg_color_white;
  57:Drivers/lvgl/lvgl/src/extra/themes/default/lv_theme_default.c ****     lv_style_t pressed;
  58:Drivers/lvgl/lvgl/src/extra/themes/default/lv_theme_default.c ****     lv_style_t disabled;
  59:Drivers/lvgl/lvgl/src/extra/themes/default/lv_theme_default.c ****     lv_style_t pad_zero;
  60:Drivers/lvgl/lvgl/src/extra/themes/default/lv_theme_default.c ****     lv_style_t pad_tiny;
  61:Drivers/lvgl/lvgl/src/extra/themes/default/lv_theme_default.c ****     lv_style_t pad_small;
  62:Drivers/lvgl/lvgl/src/extra/themes/default/lv_theme_default.c ****     lv_style_t pad_normal;
  63:Drivers/lvgl/lvgl/src/extra/themes/default/lv_theme_default.c ****     lv_style_t pad_gap;
  64:Drivers/lvgl/lvgl/src/extra/themes/default/lv_theme_default.c ****     lv_style_t line_space_large;
  65:Drivers/lvgl/lvgl/src/extra/themes/default/lv_theme_default.c ****     lv_style_t text_align_center;
  66:Drivers/lvgl/lvgl/src/extra/themes/default/lv_theme_default.c ****     lv_style_t outline_primary;
  67:Drivers/lvgl/lvgl/src/extra/themes/default/lv_theme_default.c ****     lv_style_t outline_secondary;
  68:Drivers/lvgl/lvgl/src/extra/themes/default/lv_theme_default.c ****     lv_style_t circle;
  69:Drivers/lvgl/lvgl/src/extra/themes/default/lv_theme_default.c ****     lv_style_t no_radius;
  70:Drivers/lvgl/lvgl/src/extra/themes/default/lv_theme_default.c ****     lv_style_t clip_corner;
  71:Drivers/lvgl/lvgl/src/extra/themes/default/lv_theme_default.c **** #if LV_THEME_DEFAULT_GROW
  72:Drivers/lvgl/lvgl/src/extra/themes/default/lv_theme_default.c ****     lv_style_t grow;
  73:Drivers/lvgl/lvgl/src/extra/themes/default/lv_theme_default.c **** #endif
  74:Drivers/lvgl/lvgl/src/extra/themes/default/lv_theme_default.c ****     lv_style_t transition_delayed;
  75:Drivers/lvgl/lvgl/src/extra/themes/default/lv_theme_default.c ****     lv_style_t transition_normal;
  76:Drivers/lvgl/lvgl/src/extra/themes/default/lv_theme_default.c ****     lv_style_t anim;
  77:Drivers/lvgl/lvgl/src/extra/themes/default/lv_theme_default.c ****     lv_style_t anim_fast;
  78:Drivers/lvgl/lvgl/src/extra/themes/default/lv_theme_default.c **** 
  79:Drivers/lvgl/lvgl/src/extra/themes/default/lv_theme_default.c ****     /*Parts*/
  80:Drivers/lvgl/lvgl/src/extra/themes/default/lv_theme_default.c ****     lv_style_t knob;
  81:Drivers/lvgl/lvgl/src/extra/themes/default/lv_theme_default.c ****     lv_style_t indic;
  82:Drivers/lvgl/lvgl/src/extra/themes/default/lv_theme_default.c **** 
  83:Drivers/lvgl/lvgl/src/extra/themes/default/lv_theme_default.c **** #if LV_USE_ARC
  84:Drivers/lvgl/lvgl/src/extra/themes/default/lv_theme_default.c ****     lv_style_t arc_indic;
  85:Drivers/lvgl/lvgl/src/extra/themes/default/lv_theme_default.c ****     lv_style_t arc_indic_primary;
  86:Drivers/lvgl/lvgl/src/extra/themes/default/lv_theme_default.c **** #endif
  87:Drivers/lvgl/lvgl/src/extra/themes/default/lv_theme_default.c **** 
  88:Drivers/lvgl/lvgl/src/extra/themes/default/lv_theme_default.c **** #if LV_USE_CHART
  89:Drivers/lvgl/lvgl/src/extra/themes/default/lv_theme_default.c ****     lv_style_t chart_series, chart_indic, chart_ticks, chart_bg;
  90:Drivers/lvgl/lvgl/src/extra/themes/default/lv_theme_default.c **** #endif
ARM GAS  /tmp/cc6wDDAF.s 			page 3


  91:Drivers/lvgl/lvgl/src/extra/themes/default/lv_theme_default.c **** 
  92:Drivers/lvgl/lvgl/src/extra/themes/default/lv_theme_default.c **** #if LV_USE_DROPDOWN
  93:Drivers/lvgl/lvgl/src/extra/themes/default/lv_theme_default.c ****     lv_style_t dropdown_list;
  94:Drivers/lvgl/lvgl/src/extra/themes/default/lv_theme_default.c **** #endif
  95:Drivers/lvgl/lvgl/src/extra/themes/default/lv_theme_default.c **** 
  96:Drivers/lvgl/lvgl/src/extra/themes/default/lv_theme_default.c **** #if LV_USE_CHECKBOX
  97:Drivers/lvgl/lvgl/src/extra/themes/default/lv_theme_default.c ****     lv_style_t cb_marker, cb_marker_checked;
  98:Drivers/lvgl/lvgl/src/extra/themes/default/lv_theme_default.c **** #endif
  99:Drivers/lvgl/lvgl/src/extra/themes/default/lv_theme_default.c **** 
 100:Drivers/lvgl/lvgl/src/extra/themes/default/lv_theme_default.c **** #if LV_USE_SWITCH
 101:Drivers/lvgl/lvgl/src/extra/themes/default/lv_theme_default.c ****     lv_style_t switch_knob;
 102:Drivers/lvgl/lvgl/src/extra/themes/default/lv_theme_default.c **** #endif
 103:Drivers/lvgl/lvgl/src/extra/themes/default/lv_theme_default.c **** 
 104:Drivers/lvgl/lvgl/src/extra/themes/default/lv_theme_default.c **** #if LV_USE_LINE
 105:Drivers/lvgl/lvgl/src/extra/themes/default/lv_theme_default.c ****     lv_style_t line;
 106:Drivers/lvgl/lvgl/src/extra/themes/default/lv_theme_default.c **** #endif
 107:Drivers/lvgl/lvgl/src/extra/themes/default/lv_theme_default.c **** 
 108:Drivers/lvgl/lvgl/src/extra/themes/default/lv_theme_default.c **** #if LV_USE_TABLE
 109:Drivers/lvgl/lvgl/src/extra/themes/default/lv_theme_default.c ****     lv_style_t table_cell;
 110:Drivers/lvgl/lvgl/src/extra/themes/default/lv_theme_default.c **** #endif
 111:Drivers/lvgl/lvgl/src/extra/themes/default/lv_theme_default.c **** 
 112:Drivers/lvgl/lvgl/src/extra/themes/default/lv_theme_default.c **** #if LV_USE_METER
 113:Drivers/lvgl/lvgl/src/extra/themes/default/lv_theme_default.c ****     lv_style_t meter_marker, meter_indic;
 114:Drivers/lvgl/lvgl/src/extra/themes/default/lv_theme_default.c **** #endif
 115:Drivers/lvgl/lvgl/src/extra/themes/default/lv_theme_default.c **** 
 116:Drivers/lvgl/lvgl/src/extra/themes/default/lv_theme_default.c **** #if LV_USE_TEXTAREA
 117:Drivers/lvgl/lvgl/src/extra/themes/default/lv_theme_default.c ****     lv_style_t ta_cursor, ta_placeholder;
 118:Drivers/lvgl/lvgl/src/extra/themes/default/lv_theme_default.c **** #endif
 119:Drivers/lvgl/lvgl/src/extra/themes/default/lv_theme_default.c **** 
 120:Drivers/lvgl/lvgl/src/extra/themes/default/lv_theme_default.c **** #if LV_USE_CALENDAR
 121:Drivers/lvgl/lvgl/src/extra/themes/default/lv_theme_default.c ****     lv_style_t calendar_btnm_bg, calendar_btnm_day, calendar_header;
 122:Drivers/lvgl/lvgl/src/extra/themes/default/lv_theme_default.c **** #endif
 123:Drivers/lvgl/lvgl/src/extra/themes/default/lv_theme_default.c **** 
 124:Drivers/lvgl/lvgl/src/extra/themes/default/lv_theme_default.c **** #if LV_USE_COLORWHEEL
 125:Drivers/lvgl/lvgl/src/extra/themes/default/lv_theme_default.c ****     lv_style_t colorwheel_main;
 126:Drivers/lvgl/lvgl/src/extra/themes/default/lv_theme_default.c **** #endif
 127:Drivers/lvgl/lvgl/src/extra/themes/default/lv_theme_default.c **** 
 128:Drivers/lvgl/lvgl/src/extra/themes/default/lv_theme_default.c **** #if LV_USE_MENU
 129:Drivers/lvgl/lvgl/src/extra/themes/default/lv_theme_default.c ****     lv_style_t menu_bg, menu_cont, menu_sidebar_cont, menu_main_cont, menu_page, menu_header_cont, 
 130:Drivers/lvgl/lvgl/src/extra/themes/default/lv_theme_default.c ****                menu_section, menu_pressed, menu_separator;
 131:Drivers/lvgl/lvgl/src/extra/themes/default/lv_theme_default.c **** #endif
 132:Drivers/lvgl/lvgl/src/extra/themes/default/lv_theme_default.c **** 
 133:Drivers/lvgl/lvgl/src/extra/themes/default/lv_theme_default.c **** #if LV_USE_MSGBOX
 134:Drivers/lvgl/lvgl/src/extra/themes/default/lv_theme_default.c ****     lv_style_t msgbox_bg, msgbox_btn_bg, msgbox_backdrop_bg;
 135:Drivers/lvgl/lvgl/src/extra/themes/default/lv_theme_default.c **** #endif
 136:Drivers/lvgl/lvgl/src/extra/themes/default/lv_theme_default.c **** 
 137:Drivers/lvgl/lvgl/src/extra/themes/default/lv_theme_default.c **** #if LV_USE_KEYBOARD
 138:Drivers/lvgl/lvgl/src/extra/themes/default/lv_theme_default.c ****     lv_style_t keyboard_btn_bg;
 139:Drivers/lvgl/lvgl/src/extra/themes/default/lv_theme_default.c **** #endif
 140:Drivers/lvgl/lvgl/src/extra/themes/default/lv_theme_default.c **** 
 141:Drivers/lvgl/lvgl/src/extra/themes/default/lv_theme_default.c **** #if LV_USE_LIST
 142:Drivers/lvgl/lvgl/src/extra/themes/default/lv_theme_default.c ****     lv_style_t list_bg, list_btn, list_item_grow, list_label;
 143:Drivers/lvgl/lvgl/src/extra/themes/default/lv_theme_default.c **** #endif
 144:Drivers/lvgl/lvgl/src/extra/themes/default/lv_theme_default.c **** 
 145:Drivers/lvgl/lvgl/src/extra/themes/default/lv_theme_default.c **** #if LV_USE_TABVIEW
 146:Drivers/lvgl/lvgl/src/extra/themes/default/lv_theme_default.c ****     lv_style_t tab_bg_focus, tab_btn;
 147:Drivers/lvgl/lvgl/src/extra/themes/default/lv_theme_default.c **** #endif
ARM GAS  /tmp/cc6wDDAF.s 			page 4


 148:Drivers/lvgl/lvgl/src/extra/themes/default/lv_theme_default.c **** #if LV_USE_LED
 149:Drivers/lvgl/lvgl/src/extra/themes/default/lv_theme_default.c ****     lv_style_t led;
 150:Drivers/lvgl/lvgl/src/extra/themes/default/lv_theme_default.c **** #endif
 151:Drivers/lvgl/lvgl/src/extra/themes/default/lv_theme_default.c **** } my_theme_styles_t;
 152:Drivers/lvgl/lvgl/src/extra/themes/default/lv_theme_default.c **** 
 153:Drivers/lvgl/lvgl/src/extra/themes/default/lv_theme_default.c **** typedef struct {
 154:Drivers/lvgl/lvgl/src/extra/themes/default/lv_theme_default.c ****     lv_theme_t base;
 155:Drivers/lvgl/lvgl/src/extra/themes/default/lv_theme_default.c ****     uint8_t light : 1;
 156:Drivers/lvgl/lvgl/src/extra/themes/default/lv_theme_default.c **** } my_theme_t;
 157:Drivers/lvgl/lvgl/src/extra/themes/default/lv_theme_default.c **** 
 158:Drivers/lvgl/lvgl/src/extra/themes/default/lv_theme_default.c **** typedef enum {
 159:Drivers/lvgl/lvgl/src/extra/themes/default/lv_theme_default.c ****     DISP_SMALL = 3,
 160:Drivers/lvgl/lvgl/src/extra/themes/default/lv_theme_default.c ****     DISP_MEDIUM = 2,
 161:Drivers/lvgl/lvgl/src/extra/themes/default/lv_theme_default.c ****     DISP_LARGE = 1,
 162:Drivers/lvgl/lvgl/src/extra/themes/default/lv_theme_default.c **** } disp_size_t;
 163:Drivers/lvgl/lvgl/src/extra/themes/default/lv_theme_default.c **** 
 164:Drivers/lvgl/lvgl/src/extra/themes/default/lv_theme_default.c **** /**********************
 165:Drivers/lvgl/lvgl/src/extra/themes/default/lv_theme_default.c ****  *  STATIC PROTOTYPES
 166:Drivers/lvgl/lvgl/src/extra/themes/default/lv_theme_default.c ****  **********************/
 167:Drivers/lvgl/lvgl/src/extra/themes/default/lv_theme_default.c **** static void theme_apply(lv_theme_t * th, lv_obj_t * obj);
 168:Drivers/lvgl/lvgl/src/extra/themes/default/lv_theme_default.c **** static void style_init_reset(lv_style_t * style);
 169:Drivers/lvgl/lvgl/src/extra/themes/default/lv_theme_default.c **** 
 170:Drivers/lvgl/lvgl/src/extra/themes/default/lv_theme_default.c **** /**********************
 171:Drivers/lvgl/lvgl/src/extra/themes/default/lv_theme_default.c ****  *  STATIC VARIABLES
 172:Drivers/lvgl/lvgl/src/extra/themes/default/lv_theme_default.c ****  **********************/
 173:Drivers/lvgl/lvgl/src/extra/themes/default/lv_theme_default.c **** static my_theme_styles_t * styles;
 174:Drivers/lvgl/lvgl/src/extra/themes/default/lv_theme_default.c **** static lv_theme_t theme;
 175:Drivers/lvgl/lvgl/src/extra/themes/default/lv_theme_default.c **** static disp_size_t disp_size;
 176:Drivers/lvgl/lvgl/src/extra/themes/default/lv_theme_default.c **** static lv_color_t color_scr;
 177:Drivers/lvgl/lvgl/src/extra/themes/default/lv_theme_default.c **** static lv_color_t color_text;
 178:Drivers/lvgl/lvgl/src/extra/themes/default/lv_theme_default.c **** static lv_color_t color_card;
 179:Drivers/lvgl/lvgl/src/extra/themes/default/lv_theme_default.c **** static lv_color_t color_grey;
 180:Drivers/lvgl/lvgl/src/extra/themes/default/lv_theme_default.c **** static bool inited = false;
 181:Drivers/lvgl/lvgl/src/extra/themes/default/lv_theme_default.c **** 
 182:Drivers/lvgl/lvgl/src/extra/themes/default/lv_theme_default.c **** 
 183:Drivers/lvgl/lvgl/src/extra/themes/default/lv_theme_default.c **** /**********************
 184:Drivers/lvgl/lvgl/src/extra/themes/default/lv_theme_default.c ****  *      MACROS
 185:Drivers/lvgl/lvgl/src/extra/themes/default/lv_theme_default.c ****  **********************/
 186:Drivers/lvgl/lvgl/src/extra/themes/default/lv_theme_default.c **** 
 187:Drivers/lvgl/lvgl/src/extra/themes/default/lv_theme_default.c **** /**********************
 188:Drivers/lvgl/lvgl/src/extra/themes/default/lv_theme_default.c ****  *   STATIC FUNCTIONS
 189:Drivers/lvgl/lvgl/src/extra/themes/default/lv_theme_default.c ****  **********************/
 190:Drivers/lvgl/lvgl/src/extra/themes/default/lv_theme_default.c **** 
 191:Drivers/lvgl/lvgl/src/extra/themes/default/lv_theme_default.c **** 
 192:Drivers/lvgl/lvgl/src/extra/themes/default/lv_theme_default.c **** static lv_color_t dark_color_filter_cb(const lv_color_filter_dsc_t * f, lv_color_t c, lv_opa_t opa)
 193:Drivers/lvgl/lvgl/src/extra/themes/default/lv_theme_default.c **** {
 194:Drivers/lvgl/lvgl/src/extra/themes/default/lv_theme_default.c ****     LV_UNUSED(f);
 195:Drivers/lvgl/lvgl/src/extra/themes/default/lv_theme_default.c ****     return lv_color_darken(c, opa);
 196:Drivers/lvgl/lvgl/src/extra/themes/default/lv_theme_default.c **** }
 197:Drivers/lvgl/lvgl/src/extra/themes/default/lv_theme_default.c **** 
 198:Drivers/lvgl/lvgl/src/extra/themes/default/lv_theme_default.c **** static lv_color_t grey_filter_cb(const lv_color_filter_dsc_t * f, lv_color_t color, lv_opa_t opa)
 199:Drivers/lvgl/lvgl/src/extra/themes/default/lv_theme_default.c **** {
 200:Drivers/lvgl/lvgl/src/extra/themes/default/lv_theme_default.c ****     LV_UNUSED(f);
 201:Drivers/lvgl/lvgl/src/extra/themes/default/lv_theme_default.c ****     if(theme.flags & MODE_DARK) return lv_color_mix(lv_palette_darken(LV_PALETTE_GREY, 2), color, o
 202:Drivers/lvgl/lvgl/src/extra/themes/default/lv_theme_default.c ****     else return lv_color_mix(lv_palette_lighten(LV_PALETTE_GREY, 2), color, opa);
 203:Drivers/lvgl/lvgl/src/extra/themes/default/lv_theme_default.c **** }
 204:Drivers/lvgl/lvgl/src/extra/themes/default/lv_theme_default.c **** 
ARM GAS  /tmp/cc6wDDAF.s 			page 5


 205:Drivers/lvgl/lvgl/src/extra/themes/default/lv_theme_default.c **** static void style_init(void)
 206:Drivers/lvgl/lvgl/src/extra/themes/default/lv_theme_default.c **** {
 207:Drivers/lvgl/lvgl/src/extra/themes/default/lv_theme_default.c ****     static const lv_style_prop_t trans_props[] = {
 208:Drivers/lvgl/lvgl/src/extra/themes/default/lv_theme_default.c ****         LV_STYLE_BG_OPA, LV_STYLE_BG_COLOR,
 209:Drivers/lvgl/lvgl/src/extra/themes/default/lv_theme_default.c ****         LV_STYLE_TRANSFORM_WIDTH, LV_STYLE_TRANSFORM_HEIGHT,
 210:Drivers/lvgl/lvgl/src/extra/themes/default/lv_theme_default.c ****         LV_STYLE_TRANSLATE_Y, LV_STYLE_TRANSLATE_X,
 211:Drivers/lvgl/lvgl/src/extra/themes/default/lv_theme_default.c ****         LV_STYLE_TRANSFORM_ZOOM, LV_STYLE_TRANSFORM_ANGLE,
 212:Drivers/lvgl/lvgl/src/extra/themes/default/lv_theme_default.c ****         LV_STYLE_COLOR_FILTER_OPA, LV_STYLE_COLOR_FILTER_DSC,
 213:Drivers/lvgl/lvgl/src/extra/themes/default/lv_theme_default.c ****         0
 214:Drivers/lvgl/lvgl/src/extra/themes/default/lv_theme_default.c ****     };
 215:Drivers/lvgl/lvgl/src/extra/themes/default/lv_theme_default.c **** 
 216:Drivers/lvgl/lvgl/src/extra/themes/default/lv_theme_default.c ****     color_scr = theme.flags & MODE_DARK ? DARK_COLOR_SCR : LIGHT_COLOR_SCR;
 217:Drivers/lvgl/lvgl/src/extra/themes/default/lv_theme_default.c ****     color_text = theme.flags & MODE_DARK ? DARK_COLOR_TEXT : LIGHT_COLOR_TEXT;
 218:Drivers/lvgl/lvgl/src/extra/themes/default/lv_theme_default.c ****     color_card = theme.flags & MODE_DARK ? DARK_COLOR_CARD : LIGHT_COLOR_CARD;
 219:Drivers/lvgl/lvgl/src/extra/themes/default/lv_theme_default.c ****     color_grey = theme.flags & MODE_DARK ? DARK_COLOR_GREY : LIGHT_COLOR_GREY;
 220:Drivers/lvgl/lvgl/src/extra/themes/default/lv_theme_default.c **** 
 221:Drivers/lvgl/lvgl/src/extra/themes/default/lv_theme_default.c ****     style_init_reset(&styles->transition_delayed);
 222:Drivers/lvgl/lvgl/src/extra/themes/default/lv_theme_default.c ****     style_init_reset(&styles->transition_normal);
 223:Drivers/lvgl/lvgl/src/extra/themes/default/lv_theme_default.c **** #if TRANSITION_TIME
 224:Drivers/lvgl/lvgl/src/extra/themes/default/lv_theme_default.c ****     static lv_style_transition_dsc_t trans_delayed;
 225:Drivers/lvgl/lvgl/src/extra/themes/default/lv_theme_default.c ****     lv_style_transition_dsc_init(&trans_delayed, trans_props, lv_anim_path_linear, TRANSITION_TIME,
 226:Drivers/lvgl/lvgl/src/extra/themes/default/lv_theme_default.c **** 
 227:Drivers/lvgl/lvgl/src/extra/themes/default/lv_theme_default.c ****     static lv_style_transition_dsc_t trans_normal;
 228:Drivers/lvgl/lvgl/src/extra/themes/default/lv_theme_default.c ****     lv_style_transition_dsc_init(&trans_normal, trans_props, lv_anim_path_linear, TRANSITION_TIME, 
 229:Drivers/lvgl/lvgl/src/extra/themes/default/lv_theme_default.c **** 
 230:Drivers/lvgl/lvgl/src/extra/themes/default/lv_theme_default.c ****     lv_style_set_transition(&styles->transition_delayed, &trans_delayed); /*Go back to default stat
 231:Drivers/lvgl/lvgl/src/extra/themes/default/lv_theme_default.c **** 
 232:Drivers/lvgl/lvgl/src/extra/themes/default/lv_theme_default.c ****     lv_style_set_transition(&styles->transition_normal, &trans_normal); /*Go back to default state 
 233:Drivers/lvgl/lvgl/src/extra/themes/default/lv_theme_default.c **** #endif
 234:Drivers/lvgl/lvgl/src/extra/themes/default/lv_theme_default.c **** 
 235:Drivers/lvgl/lvgl/src/extra/themes/default/lv_theme_default.c ****     style_init_reset(&styles->scrollbar);
 236:Drivers/lvgl/lvgl/src/extra/themes/default/lv_theme_default.c ****     lv_color_t sb_color = (theme.flags & MODE_DARK) ? lv_palette_darken(LV_PALETTE_GREY,
 237:Drivers/lvgl/lvgl/src/extra/themes/default/lv_theme_default.c ****                                                                         2) : lv_palette_main(LV_PAL
 238:Drivers/lvgl/lvgl/src/extra/themes/default/lv_theme_default.c ****     lv_style_set_bg_color(&styles->scrollbar, sb_color);
 239:Drivers/lvgl/lvgl/src/extra/themes/default/lv_theme_default.c **** 
 240:Drivers/lvgl/lvgl/src/extra/themes/default/lv_theme_default.c ****     lv_style_set_radius(&styles->scrollbar, LV_RADIUS_CIRCLE);
 241:Drivers/lvgl/lvgl/src/extra/themes/default/lv_theme_default.c ****     lv_style_set_pad_all(&styles->scrollbar, lv_disp_dpx(theme.disp, 7));
 242:Drivers/lvgl/lvgl/src/extra/themes/default/lv_theme_default.c ****     lv_style_set_width(&styles->scrollbar,  lv_disp_dpx(theme.disp, 5));
 243:Drivers/lvgl/lvgl/src/extra/themes/default/lv_theme_default.c ****     lv_style_set_bg_opa(&styles->scrollbar,  LV_OPA_40);
 244:Drivers/lvgl/lvgl/src/extra/themes/default/lv_theme_default.c **** #if TRANSITION_TIME
 245:Drivers/lvgl/lvgl/src/extra/themes/default/lv_theme_default.c ****     lv_style_set_transition(&styles->scrollbar, &trans_normal);
 246:Drivers/lvgl/lvgl/src/extra/themes/default/lv_theme_default.c **** #endif
 247:Drivers/lvgl/lvgl/src/extra/themes/default/lv_theme_default.c **** 
 248:Drivers/lvgl/lvgl/src/extra/themes/default/lv_theme_default.c ****     style_init_reset(&styles->scrollbar_scrolled);
 249:Drivers/lvgl/lvgl/src/extra/themes/default/lv_theme_default.c ****     lv_style_set_bg_opa(&styles->scrollbar_scrolled,  LV_OPA_COVER);
 250:Drivers/lvgl/lvgl/src/extra/themes/default/lv_theme_default.c **** 
 251:Drivers/lvgl/lvgl/src/extra/themes/default/lv_theme_default.c ****     style_init_reset(&styles->scr);
 252:Drivers/lvgl/lvgl/src/extra/themes/default/lv_theme_default.c ****     lv_style_set_bg_opa(&styles->scr, LV_OPA_COVER);
 253:Drivers/lvgl/lvgl/src/extra/themes/default/lv_theme_default.c ****     lv_style_set_bg_color(&styles->scr, color_scr);
 254:Drivers/lvgl/lvgl/src/extra/themes/default/lv_theme_default.c ****     lv_style_set_text_color(&styles->scr, color_text);
 255:Drivers/lvgl/lvgl/src/extra/themes/default/lv_theme_default.c ****     lv_style_set_pad_row(&styles->scr, PAD_SMALL);
 256:Drivers/lvgl/lvgl/src/extra/themes/default/lv_theme_default.c ****     lv_style_set_pad_column(&styles->scr, PAD_SMALL);
 257:Drivers/lvgl/lvgl/src/extra/themes/default/lv_theme_default.c **** 
 258:Drivers/lvgl/lvgl/src/extra/themes/default/lv_theme_default.c ****     style_init_reset(&styles->card);
 259:Drivers/lvgl/lvgl/src/extra/themes/default/lv_theme_default.c ****     lv_style_set_radius(&styles->card, RADIUS_DEFAULT);
 260:Drivers/lvgl/lvgl/src/extra/themes/default/lv_theme_default.c ****     lv_style_set_bg_opa(&styles->card, LV_OPA_COVER);
 261:Drivers/lvgl/lvgl/src/extra/themes/default/lv_theme_default.c ****     lv_style_set_bg_color(&styles->card, color_card);
ARM GAS  /tmp/cc6wDDAF.s 			page 6


 262:Drivers/lvgl/lvgl/src/extra/themes/default/lv_theme_default.c ****     lv_style_set_border_color(&styles->card, color_grey);
 263:Drivers/lvgl/lvgl/src/extra/themes/default/lv_theme_default.c ****     lv_style_set_border_width(&styles->card, BORDER_WIDTH);
 264:Drivers/lvgl/lvgl/src/extra/themes/default/lv_theme_default.c ****     lv_style_set_border_post(&styles->card, true);
 265:Drivers/lvgl/lvgl/src/extra/themes/default/lv_theme_default.c ****     lv_style_set_text_color(&styles->card, color_text);
 266:Drivers/lvgl/lvgl/src/extra/themes/default/lv_theme_default.c ****     lv_style_set_pad_all(&styles->card, PAD_DEF);
 267:Drivers/lvgl/lvgl/src/extra/themes/default/lv_theme_default.c ****     lv_style_set_pad_row(&styles->card, PAD_SMALL);
 268:Drivers/lvgl/lvgl/src/extra/themes/default/lv_theme_default.c ****     lv_style_set_pad_column(&styles->card, PAD_SMALL);
 269:Drivers/lvgl/lvgl/src/extra/themes/default/lv_theme_default.c ****     lv_style_set_line_color(&styles->card, lv_palette_main(LV_PALETTE_GREY));
 270:Drivers/lvgl/lvgl/src/extra/themes/default/lv_theme_default.c ****     lv_style_set_line_width(&styles->card, lv_disp_dpx(theme.disp, 1));
 271:Drivers/lvgl/lvgl/src/extra/themes/default/lv_theme_default.c **** 
 272:Drivers/lvgl/lvgl/src/extra/themes/default/lv_theme_default.c ****     style_init_reset(&styles->outline_primary);
 273:Drivers/lvgl/lvgl/src/extra/themes/default/lv_theme_default.c ****     lv_style_set_outline_color(&styles->outline_primary, theme.color_primary);
 274:Drivers/lvgl/lvgl/src/extra/themes/default/lv_theme_default.c ****     lv_style_set_outline_width(&styles->outline_primary, OUTLINE_WIDTH);
 275:Drivers/lvgl/lvgl/src/extra/themes/default/lv_theme_default.c ****     lv_style_set_outline_pad(&styles->outline_primary, OUTLINE_WIDTH);
 276:Drivers/lvgl/lvgl/src/extra/themes/default/lv_theme_default.c ****     lv_style_set_outline_opa(&styles->outline_primary, LV_OPA_50);
 277:Drivers/lvgl/lvgl/src/extra/themes/default/lv_theme_default.c **** 
 278:Drivers/lvgl/lvgl/src/extra/themes/default/lv_theme_default.c ****     style_init_reset(&styles->outline_secondary);
 279:Drivers/lvgl/lvgl/src/extra/themes/default/lv_theme_default.c ****     lv_style_set_outline_color(&styles->outline_secondary, theme.color_secondary);
 280:Drivers/lvgl/lvgl/src/extra/themes/default/lv_theme_default.c ****     lv_style_set_outline_width(&styles->outline_secondary, OUTLINE_WIDTH);
 281:Drivers/lvgl/lvgl/src/extra/themes/default/lv_theme_default.c ****     lv_style_set_outline_opa(&styles->outline_secondary, LV_OPA_50);
 282:Drivers/lvgl/lvgl/src/extra/themes/default/lv_theme_default.c **** 
 283:Drivers/lvgl/lvgl/src/extra/themes/default/lv_theme_default.c ****     style_init_reset(&styles->btn);
 284:Drivers/lvgl/lvgl/src/extra/themes/default/lv_theme_default.c ****     lv_style_set_radius(&styles->btn, (disp_size == DISP_LARGE ? lv_disp_dpx(theme.disp,
 285:Drivers/lvgl/lvgl/src/extra/themes/default/lv_theme_default.c ****                                                                              16) : disp_size == DIS
 286:Drivers/lvgl/lvgl/src/extra/themes/default/lv_theme_default.c ****     lv_style_set_bg_opa(&styles->btn, LV_OPA_COVER);
 287:Drivers/lvgl/lvgl/src/extra/themes/default/lv_theme_default.c ****     lv_style_set_bg_color(&styles->btn, color_grey);
 288:Drivers/lvgl/lvgl/src/extra/themes/default/lv_theme_default.c ****     if(!(theme.flags & MODE_DARK)) {
 289:Drivers/lvgl/lvgl/src/extra/themes/default/lv_theme_default.c ****         lv_style_set_shadow_color(&styles->btn, lv_palette_main(LV_PALETTE_GREY));
 290:Drivers/lvgl/lvgl/src/extra/themes/default/lv_theme_default.c ****         lv_style_set_shadow_width(&styles->btn, LV_DPX(3));
 291:Drivers/lvgl/lvgl/src/extra/themes/default/lv_theme_default.c ****         lv_style_set_shadow_opa(&styles->btn, LV_OPA_50);
 292:Drivers/lvgl/lvgl/src/extra/themes/default/lv_theme_default.c ****         lv_style_set_shadow_ofs_y(&styles->btn, lv_disp_dpx(theme.disp, LV_DPX(4)));
 293:Drivers/lvgl/lvgl/src/extra/themes/default/lv_theme_default.c ****     }
 294:Drivers/lvgl/lvgl/src/extra/themes/default/lv_theme_default.c ****     lv_style_set_text_color(&styles->btn, color_text);
 295:Drivers/lvgl/lvgl/src/extra/themes/default/lv_theme_default.c ****     lv_style_set_pad_hor(&styles->btn, PAD_DEF);
 296:Drivers/lvgl/lvgl/src/extra/themes/default/lv_theme_default.c ****     lv_style_set_pad_ver(&styles->btn, PAD_SMALL);
 297:Drivers/lvgl/lvgl/src/extra/themes/default/lv_theme_default.c ****     lv_style_set_pad_column(&styles->btn, lv_disp_dpx(theme.disp, 5));
 298:Drivers/lvgl/lvgl/src/extra/themes/default/lv_theme_default.c ****     lv_style_set_pad_row(&styles->btn, lv_disp_dpx(theme.disp, 5));
 299:Drivers/lvgl/lvgl/src/extra/themes/default/lv_theme_default.c **** 
 300:Drivers/lvgl/lvgl/src/extra/themes/default/lv_theme_default.c ****     static lv_color_filter_dsc_t dark_filter;
 301:Drivers/lvgl/lvgl/src/extra/themes/default/lv_theme_default.c ****     lv_color_filter_dsc_init(&dark_filter, dark_color_filter_cb);
 302:Drivers/lvgl/lvgl/src/extra/themes/default/lv_theme_default.c **** 
 303:Drivers/lvgl/lvgl/src/extra/themes/default/lv_theme_default.c ****     static lv_color_filter_dsc_t grey_filter;
 304:Drivers/lvgl/lvgl/src/extra/themes/default/lv_theme_default.c ****     lv_color_filter_dsc_init(&grey_filter, grey_filter_cb);
 305:Drivers/lvgl/lvgl/src/extra/themes/default/lv_theme_default.c **** 
 306:Drivers/lvgl/lvgl/src/extra/themes/default/lv_theme_default.c ****     style_init_reset(&styles->pressed);
 307:Drivers/lvgl/lvgl/src/extra/themes/default/lv_theme_default.c ****     lv_style_set_color_filter_dsc(&styles->pressed, &dark_filter);
 308:Drivers/lvgl/lvgl/src/extra/themes/default/lv_theme_default.c ****     lv_style_set_color_filter_opa(&styles->pressed, 35);
 309:Drivers/lvgl/lvgl/src/extra/themes/default/lv_theme_default.c **** 
 310:Drivers/lvgl/lvgl/src/extra/themes/default/lv_theme_default.c ****     style_init_reset(&styles->disabled);
 311:Drivers/lvgl/lvgl/src/extra/themes/default/lv_theme_default.c ****     lv_style_set_color_filter_dsc(&styles->disabled, &grey_filter);
 312:Drivers/lvgl/lvgl/src/extra/themes/default/lv_theme_default.c ****     lv_style_set_color_filter_opa(&styles->disabled, LV_OPA_50);
 313:Drivers/lvgl/lvgl/src/extra/themes/default/lv_theme_default.c **** 
 314:Drivers/lvgl/lvgl/src/extra/themes/default/lv_theme_default.c ****     style_init_reset(&styles->clip_corner);
 315:Drivers/lvgl/lvgl/src/extra/themes/default/lv_theme_default.c ****     lv_style_set_clip_corner(&styles->clip_corner, true);
 316:Drivers/lvgl/lvgl/src/extra/themes/default/lv_theme_default.c ****     lv_style_set_border_post(&styles->clip_corner, true);
 317:Drivers/lvgl/lvgl/src/extra/themes/default/lv_theme_default.c **** 
 318:Drivers/lvgl/lvgl/src/extra/themes/default/lv_theme_default.c ****     style_init_reset(&styles->pad_normal);
ARM GAS  /tmp/cc6wDDAF.s 			page 7


 319:Drivers/lvgl/lvgl/src/extra/themes/default/lv_theme_default.c ****     lv_style_set_pad_all(&styles->pad_normal, PAD_DEF);
 320:Drivers/lvgl/lvgl/src/extra/themes/default/lv_theme_default.c ****     lv_style_set_pad_row(&styles->pad_normal, PAD_DEF);
 321:Drivers/lvgl/lvgl/src/extra/themes/default/lv_theme_default.c ****     lv_style_set_pad_column(&styles->pad_normal, PAD_DEF);
 322:Drivers/lvgl/lvgl/src/extra/themes/default/lv_theme_default.c **** 
 323:Drivers/lvgl/lvgl/src/extra/themes/default/lv_theme_default.c ****     style_init_reset(&styles->pad_small);
 324:Drivers/lvgl/lvgl/src/extra/themes/default/lv_theme_default.c ****     lv_style_set_pad_all(&styles->pad_small, PAD_SMALL);
 325:Drivers/lvgl/lvgl/src/extra/themes/default/lv_theme_default.c ****     lv_style_set_pad_gap(&styles->pad_small, PAD_SMALL);
 326:Drivers/lvgl/lvgl/src/extra/themes/default/lv_theme_default.c **** 
 327:Drivers/lvgl/lvgl/src/extra/themes/default/lv_theme_default.c ****     style_init_reset(&styles->pad_gap);
 328:Drivers/lvgl/lvgl/src/extra/themes/default/lv_theme_default.c ****     lv_style_set_pad_row(&styles->pad_gap, lv_disp_dpx(theme.disp, 10));
 329:Drivers/lvgl/lvgl/src/extra/themes/default/lv_theme_default.c ****     lv_style_set_pad_column(&styles->pad_gap, lv_disp_dpx(theme.disp, 10));
 330:Drivers/lvgl/lvgl/src/extra/themes/default/lv_theme_default.c **** 
 331:Drivers/lvgl/lvgl/src/extra/themes/default/lv_theme_default.c ****     style_init_reset(&styles->line_space_large);
 332:Drivers/lvgl/lvgl/src/extra/themes/default/lv_theme_default.c ****     lv_style_set_text_line_space(&styles->line_space_large, lv_disp_dpx(theme.disp, 20));
 333:Drivers/lvgl/lvgl/src/extra/themes/default/lv_theme_default.c **** 
 334:Drivers/lvgl/lvgl/src/extra/themes/default/lv_theme_default.c ****     style_init_reset(&styles->text_align_center);
 335:Drivers/lvgl/lvgl/src/extra/themes/default/lv_theme_default.c ****     lv_style_set_text_align(&styles->text_align_center, LV_TEXT_ALIGN_CENTER);
 336:Drivers/lvgl/lvgl/src/extra/themes/default/lv_theme_default.c **** 
 337:Drivers/lvgl/lvgl/src/extra/themes/default/lv_theme_default.c ****     style_init_reset(&styles->pad_zero);
 338:Drivers/lvgl/lvgl/src/extra/themes/default/lv_theme_default.c ****     lv_style_set_pad_all(&styles->pad_zero, 0);
 339:Drivers/lvgl/lvgl/src/extra/themes/default/lv_theme_default.c ****     lv_style_set_pad_row(&styles->pad_zero, 0);
 340:Drivers/lvgl/lvgl/src/extra/themes/default/lv_theme_default.c ****     lv_style_set_pad_column(&styles->pad_zero, 0);
 341:Drivers/lvgl/lvgl/src/extra/themes/default/lv_theme_default.c **** 
 342:Drivers/lvgl/lvgl/src/extra/themes/default/lv_theme_default.c ****     style_init_reset(&styles->pad_tiny);
 343:Drivers/lvgl/lvgl/src/extra/themes/default/lv_theme_default.c ****     lv_style_set_pad_all(&styles->pad_tiny, PAD_TINY);
 344:Drivers/lvgl/lvgl/src/extra/themes/default/lv_theme_default.c ****     lv_style_set_pad_row(&styles->pad_tiny, PAD_TINY);
 345:Drivers/lvgl/lvgl/src/extra/themes/default/lv_theme_default.c ****     lv_style_set_pad_column(&styles->pad_tiny, PAD_TINY);
 346:Drivers/lvgl/lvgl/src/extra/themes/default/lv_theme_default.c **** 
 347:Drivers/lvgl/lvgl/src/extra/themes/default/lv_theme_default.c ****     style_init_reset(&styles->bg_color_primary);
 348:Drivers/lvgl/lvgl/src/extra/themes/default/lv_theme_default.c ****     lv_style_set_bg_color(&styles->bg_color_primary, theme.color_primary);
 349:Drivers/lvgl/lvgl/src/extra/themes/default/lv_theme_default.c ****     lv_style_set_text_color(&styles->bg_color_primary, lv_color_white());
 350:Drivers/lvgl/lvgl/src/extra/themes/default/lv_theme_default.c ****     lv_style_set_bg_opa(&styles->bg_color_primary, LV_OPA_COVER);
 351:Drivers/lvgl/lvgl/src/extra/themes/default/lv_theme_default.c **** 
 352:Drivers/lvgl/lvgl/src/extra/themes/default/lv_theme_default.c ****     style_init_reset(&styles->bg_color_primary_muted);
 353:Drivers/lvgl/lvgl/src/extra/themes/default/lv_theme_default.c ****     lv_style_set_bg_color(&styles->bg_color_primary_muted, theme.color_primary);
 354:Drivers/lvgl/lvgl/src/extra/themes/default/lv_theme_default.c ****     lv_style_set_text_color(&styles->bg_color_primary_muted, theme.color_primary);
 355:Drivers/lvgl/lvgl/src/extra/themes/default/lv_theme_default.c ****     lv_style_set_bg_opa(&styles->bg_color_primary_muted, LV_OPA_20);
 356:Drivers/lvgl/lvgl/src/extra/themes/default/lv_theme_default.c **** 
 357:Drivers/lvgl/lvgl/src/extra/themes/default/lv_theme_default.c ****     style_init_reset(&styles->bg_color_secondary);
 358:Drivers/lvgl/lvgl/src/extra/themes/default/lv_theme_default.c ****     lv_style_set_bg_color(&styles->bg_color_secondary, theme.color_secondary);
 359:Drivers/lvgl/lvgl/src/extra/themes/default/lv_theme_default.c ****     lv_style_set_text_color(&styles->bg_color_secondary, lv_color_white());
 360:Drivers/lvgl/lvgl/src/extra/themes/default/lv_theme_default.c ****     lv_style_set_bg_opa(&styles->bg_color_secondary, LV_OPA_COVER);
 361:Drivers/lvgl/lvgl/src/extra/themes/default/lv_theme_default.c **** 
 362:Drivers/lvgl/lvgl/src/extra/themes/default/lv_theme_default.c ****     style_init_reset(&styles->bg_color_secondary_muted);
 363:Drivers/lvgl/lvgl/src/extra/themes/default/lv_theme_default.c ****     lv_style_set_bg_color(&styles->bg_color_secondary_muted, theme.color_secondary);
 364:Drivers/lvgl/lvgl/src/extra/themes/default/lv_theme_default.c ****     lv_style_set_text_color(&styles->bg_color_secondary_muted, theme.color_secondary);
 365:Drivers/lvgl/lvgl/src/extra/themes/default/lv_theme_default.c ****     lv_style_set_bg_opa(&styles->bg_color_secondary_muted, LV_OPA_20);
 366:Drivers/lvgl/lvgl/src/extra/themes/default/lv_theme_default.c **** 
 367:Drivers/lvgl/lvgl/src/extra/themes/default/lv_theme_default.c ****     style_init_reset(&styles->bg_color_grey);
 368:Drivers/lvgl/lvgl/src/extra/themes/default/lv_theme_default.c ****     lv_style_set_bg_color(&styles->bg_color_grey, color_grey);
 369:Drivers/lvgl/lvgl/src/extra/themes/default/lv_theme_default.c ****     lv_style_set_bg_opa(&styles->bg_color_grey, LV_OPA_COVER);
 370:Drivers/lvgl/lvgl/src/extra/themes/default/lv_theme_default.c ****     lv_style_set_text_color(&styles->bg_color_grey, color_text);
 371:Drivers/lvgl/lvgl/src/extra/themes/default/lv_theme_default.c **** 
 372:Drivers/lvgl/lvgl/src/extra/themes/default/lv_theme_default.c ****     style_init_reset(&styles->bg_color_white);
 373:Drivers/lvgl/lvgl/src/extra/themes/default/lv_theme_default.c ****     lv_style_set_bg_color(&styles->bg_color_white, color_card);
 374:Drivers/lvgl/lvgl/src/extra/themes/default/lv_theme_default.c ****     lv_style_set_bg_opa(&styles->bg_color_white, LV_OPA_COVER);
 375:Drivers/lvgl/lvgl/src/extra/themes/default/lv_theme_default.c ****     lv_style_set_text_color(&styles->bg_color_white, color_text);
ARM GAS  /tmp/cc6wDDAF.s 			page 8


 376:Drivers/lvgl/lvgl/src/extra/themes/default/lv_theme_default.c **** 
 377:Drivers/lvgl/lvgl/src/extra/themes/default/lv_theme_default.c ****     style_init_reset(&styles->circle);
 378:Drivers/lvgl/lvgl/src/extra/themes/default/lv_theme_default.c ****     lv_style_set_radius(&styles->circle, LV_RADIUS_CIRCLE);
 379:Drivers/lvgl/lvgl/src/extra/themes/default/lv_theme_default.c **** 
 380:Drivers/lvgl/lvgl/src/extra/themes/default/lv_theme_default.c ****     style_init_reset(&styles->no_radius);
 381:Drivers/lvgl/lvgl/src/extra/themes/default/lv_theme_default.c ****     lv_style_set_radius(&styles->no_radius, 0);
 382:Drivers/lvgl/lvgl/src/extra/themes/default/lv_theme_default.c **** 
 383:Drivers/lvgl/lvgl/src/extra/themes/default/lv_theme_default.c **** #if LV_THEME_DEFAULT_GROW
 384:Drivers/lvgl/lvgl/src/extra/themes/default/lv_theme_default.c ****     style_init_reset(&styles->grow);
 385:Drivers/lvgl/lvgl/src/extra/themes/default/lv_theme_default.c ****     lv_style_set_transform_width(&styles->grow, lv_disp_dpx(theme.disp, 3));
 386:Drivers/lvgl/lvgl/src/extra/themes/default/lv_theme_default.c ****     lv_style_set_transform_height(&styles->grow, lv_disp_dpx(theme.disp, 3));
 387:Drivers/lvgl/lvgl/src/extra/themes/default/lv_theme_default.c **** #endif
 388:Drivers/lvgl/lvgl/src/extra/themes/default/lv_theme_default.c **** 
 389:Drivers/lvgl/lvgl/src/extra/themes/default/lv_theme_default.c ****     style_init_reset(&styles->knob);
 390:Drivers/lvgl/lvgl/src/extra/themes/default/lv_theme_default.c ****     lv_style_set_bg_color(&styles->knob, theme.color_primary);
 391:Drivers/lvgl/lvgl/src/extra/themes/default/lv_theme_default.c ****     lv_style_set_bg_opa(&styles->knob, LV_OPA_COVER);
 392:Drivers/lvgl/lvgl/src/extra/themes/default/lv_theme_default.c ****     lv_style_set_pad_all(&styles->knob, lv_disp_dpx(theme.disp, 6));
 393:Drivers/lvgl/lvgl/src/extra/themes/default/lv_theme_default.c ****     lv_style_set_radius(&styles->knob, LV_RADIUS_CIRCLE);
 394:Drivers/lvgl/lvgl/src/extra/themes/default/lv_theme_default.c **** 
 395:Drivers/lvgl/lvgl/src/extra/themes/default/lv_theme_default.c ****     style_init_reset(&styles->anim);
 396:Drivers/lvgl/lvgl/src/extra/themes/default/lv_theme_default.c ****     lv_style_set_anim_time(&styles->anim, 200);
 397:Drivers/lvgl/lvgl/src/extra/themes/default/lv_theme_default.c **** 
 398:Drivers/lvgl/lvgl/src/extra/themes/default/lv_theme_default.c ****     style_init_reset(&styles->anim_fast);
 399:Drivers/lvgl/lvgl/src/extra/themes/default/lv_theme_default.c ****     lv_style_set_anim_time(&styles->anim_fast, 120);
 400:Drivers/lvgl/lvgl/src/extra/themes/default/lv_theme_default.c **** 
 401:Drivers/lvgl/lvgl/src/extra/themes/default/lv_theme_default.c **** #if LV_USE_ARC
 402:Drivers/lvgl/lvgl/src/extra/themes/default/lv_theme_default.c ****     style_init_reset(&styles->arc_indic);
 403:Drivers/lvgl/lvgl/src/extra/themes/default/lv_theme_default.c ****     lv_style_set_arc_color(&styles->arc_indic, color_grey);
 404:Drivers/lvgl/lvgl/src/extra/themes/default/lv_theme_default.c ****     lv_style_set_arc_width(&styles->arc_indic, lv_disp_dpx(theme.disp, 15));
 405:Drivers/lvgl/lvgl/src/extra/themes/default/lv_theme_default.c ****     lv_style_set_arc_rounded(&styles->arc_indic, true);
 406:Drivers/lvgl/lvgl/src/extra/themes/default/lv_theme_default.c **** 
 407:Drivers/lvgl/lvgl/src/extra/themes/default/lv_theme_default.c ****     style_init_reset(&styles->arc_indic_primary);
 408:Drivers/lvgl/lvgl/src/extra/themes/default/lv_theme_default.c ****     lv_style_set_arc_color(&styles->arc_indic_primary, theme.color_primary);
 409:Drivers/lvgl/lvgl/src/extra/themes/default/lv_theme_default.c **** #endif
 410:Drivers/lvgl/lvgl/src/extra/themes/default/lv_theme_default.c **** 
 411:Drivers/lvgl/lvgl/src/extra/themes/default/lv_theme_default.c **** #if LV_USE_DROPDOWN
 412:Drivers/lvgl/lvgl/src/extra/themes/default/lv_theme_default.c ****     style_init_reset(&styles->dropdown_list);
 413:Drivers/lvgl/lvgl/src/extra/themes/default/lv_theme_default.c ****     lv_style_set_max_height(&styles->dropdown_list, LV_DPI_DEF * 2);
 414:Drivers/lvgl/lvgl/src/extra/themes/default/lv_theme_default.c **** #endif
 415:Drivers/lvgl/lvgl/src/extra/themes/default/lv_theme_default.c **** #if LV_USE_CHECKBOX
 416:Drivers/lvgl/lvgl/src/extra/themes/default/lv_theme_default.c ****     style_init_reset(&styles->cb_marker);
 417:Drivers/lvgl/lvgl/src/extra/themes/default/lv_theme_default.c ****     lv_style_set_pad_all(&styles->cb_marker, lv_disp_dpx(theme.disp, 3));
 418:Drivers/lvgl/lvgl/src/extra/themes/default/lv_theme_default.c ****     lv_style_set_border_width(&styles->cb_marker, BORDER_WIDTH);
 419:Drivers/lvgl/lvgl/src/extra/themes/default/lv_theme_default.c ****     lv_style_set_border_color(&styles->cb_marker, theme.color_primary);
 420:Drivers/lvgl/lvgl/src/extra/themes/default/lv_theme_default.c ****     lv_style_set_bg_color(&styles->cb_marker, color_card);
 421:Drivers/lvgl/lvgl/src/extra/themes/default/lv_theme_default.c ****     lv_style_set_bg_opa(&styles->cb_marker, LV_OPA_COVER);
 422:Drivers/lvgl/lvgl/src/extra/themes/default/lv_theme_default.c ****     lv_style_set_radius(&styles->cb_marker, RADIUS_DEFAULT / 2);
 423:Drivers/lvgl/lvgl/src/extra/themes/default/lv_theme_default.c **** 
 424:Drivers/lvgl/lvgl/src/extra/themes/default/lv_theme_default.c ****     style_init_reset(&styles->cb_marker_checked);
 425:Drivers/lvgl/lvgl/src/extra/themes/default/lv_theme_default.c ****     lv_style_set_bg_img_src(&styles->cb_marker_checked, LV_SYMBOL_OK);
 426:Drivers/lvgl/lvgl/src/extra/themes/default/lv_theme_default.c ****     lv_style_set_text_color(&styles->cb_marker_checked, lv_color_white());
 427:Drivers/lvgl/lvgl/src/extra/themes/default/lv_theme_default.c ****     lv_style_set_text_font(&styles->cb_marker_checked, theme.font_small);
 428:Drivers/lvgl/lvgl/src/extra/themes/default/lv_theme_default.c **** #endif
 429:Drivers/lvgl/lvgl/src/extra/themes/default/lv_theme_default.c **** 
 430:Drivers/lvgl/lvgl/src/extra/themes/default/lv_theme_default.c **** #if LV_USE_SWITCH
 431:Drivers/lvgl/lvgl/src/extra/themes/default/lv_theme_default.c ****     style_init_reset(&styles->switch_knob);
 432:Drivers/lvgl/lvgl/src/extra/themes/default/lv_theme_default.c ****     lv_style_set_pad_all(&styles->switch_knob, - lv_disp_dpx(theme.disp, 4));
ARM GAS  /tmp/cc6wDDAF.s 			page 9


 433:Drivers/lvgl/lvgl/src/extra/themes/default/lv_theme_default.c ****     lv_style_set_bg_color(&styles->switch_knob, lv_color_white());
 434:Drivers/lvgl/lvgl/src/extra/themes/default/lv_theme_default.c **** #endif
 435:Drivers/lvgl/lvgl/src/extra/themes/default/lv_theme_default.c **** 
 436:Drivers/lvgl/lvgl/src/extra/themes/default/lv_theme_default.c **** #if LV_USE_LINE
 437:Drivers/lvgl/lvgl/src/extra/themes/default/lv_theme_default.c ****     style_init_reset(&styles->line);
 438:Drivers/lvgl/lvgl/src/extra/themes/default/lv_theme_default.c ****     lv_style_set_line_width(&styles->line, 1);
 439:Drivers/lvgl/lvgl/src/extra/themes/default/lv_theme_default.c ****     lv_style_set_line_color(&styles->line, color_text);
 440:Drivers/lvgl/lvgl/src/extra/themes/default/lv_theme_default.c **** #endif
 441:Drivers/lvgl/lvgl/src/extra/themes/default/lv_theme_default.c **** 
 442:Drivers/lvgl/lvgl/src/extra/themes/default/lv_theme_default.c **** #if LV_USE_CHART
 443:Drivers/lvgl/lvgl/src/extra/themes/default/lv_theme_default.c ****     style_init_reset(&styles->chart_bg);
 444:Drivers/lvgl/lvgl/src/extra/themes/default/lv_theme_default.c ****     lv_style_set_border_post(&styles->chart_bg, false);
 445:Drivers/lvgl/lvgl/src/extra/themes/default/lv_theme_default.c ****     lv_style_set_pad_column(&styles->chart_bg, lv_disp_dpx(theme.disp, 10));
 446:Drivers/lvgl/lvgl/src/extra/themes/default/lv_theme_default.c ****     lv_style_set_line_color(&styles->chart_bg, color_grey);
 447:Drivers/lvgl/lvgl/src/extra/themes/default/lv_theme_default.c **** 
 448:Drivers/lvgl/lvgl/src/extra/themes/default/lv_theme_default.c ****     style_init_reset(&styles->chart_series);
 449:Drivers/lvgl/lvgl/src/extra/themes/default/lv_theme_default.c ****     lv_style_set_line_width(&styles->chart_series, lv_disp_dpx(theme.disp, 3));
 450:Drivers/lvgl/lvgl/src/extra/themes/default/lv_theme_default.c ****     lv_style_set_radius(&styles->chart_series, lv_disp_dpx(theme.disp, 3));
 451:Drivers/lvgl/lvgl/src/extra/themes/default/lv_theme_default.c ****     lv_style_set_size(&styles->chart_series, lv_disp_dpx(theme.disp, 8));
 452:Drivers/lvgl/lvgl/src/extra/themes/default/lv_theme_default.c ****     lv_style_set_pad_column(&styles->chart_series, lv_disp_dpx(theme.disp, 2));
 453:Drivers/lvgl/lvgl/src/extra/themes/default/lv_theme_default.c **** 
 454:Drivers/lvgl/lvgl/src/extra/themes/default/lv_theme_default.c ****     style_init_reset(&styles->chart_indic);
 455:Drivers/lvgl/lvgl/src/extra/themes/default/lv_theme_default.c ****     lv_style_set_radius(&styles->chart_indic, LV_RADIUS_CIRCLE);
 456:Drivers/lvgl/lvgl/src/extra/themes/default/lv_theme_default.c ****     lv_style_set_size(&styles->chart_indic, lv_disp_dpx(theme.disp, 8));
 457:Drivers/lvgl/lvgl/src/extra/themes/default/lv_theme_default.c ****     lv_style_set_bg_color(&styles->chart_indic, theme.color_primary);
 458:Drivers/lvgl/lvgl/src/extra/themes/default/lv_theme_default.c ****     lv_style_set_bg_opa(&styles->chart_indic, LV_OPA_COVER);
 459:Drivers/lvgl/lvgl/src/extra/themes/default/lv_theme_default.c **** 
 460:Drivers/lvgl/lvgl/src/extra/themes/default/lv_theme_default.c ****     style_init_reset(&styles->chart_ticks);
 461:Drivers/lvgl/lvgl/src/extra/themes/default/lv_theme_default.c ****     lv_style_set_line_width(&styles->chart_ticks, lv_disp_dpx(theme.disp, 1));
 462:Drivers/lvgl/lvgl/src/extra/themes/default/lv_theme_default.c ****     lv_style_set_line_color(&styles->chart_ticks, color_text);
 463:Drivers/lvgl/lvgl/src/extra/themes/default/lv_theme_default.c ****     lv_style_set_pad_all(&styles->chart_ticks, lv_disp_dpx(theme.disp, 2));
 464:Drivers/lvgl/lvgl/src/extra/themes/default/lv_theme_default.c ****     lv_style_set_text_color(&styles->chart_ticks, lv_palette_main(LV_PALETTE_GREY));
 465:Drivers/lvgl/lvgl/src/extra/themes/default/lv_theme_default.c **** #endif
 466:Drivers/lvgl/lvgl/src/extra/themes/default/lv_theme_default.c **** 
 467:Drivers/lvgl/lvgl/src/extra/themes/default/lv_theme_default.c **** #if LV_USE_MENU
 468:Drivers/lvgl/lvgl/src/extra/themes/default/lv_theme_default.c ****     style_init_reset(&styles->menu_bg);
 469:Drivers/lvgl/lvgl/src/extra/themes/default/lv_theme_default.c ****     lv_style_set_pad_all(&styles->menu_bg, 0);
 470:Drivers/lvgl/lvgl/src/extra/themes/default/lv_theme_default.c ****     lv_style_set_pad_gap(&styles->menu_bg, 0);
 471:Drivers/lvgl/lvgl/src/extra/themes/default/lv_theme_default.c ****     lv_style_set_radius(&styles->menu_bg, 0);
 472:Drivers/lvgl/lvgl/src/extra/themes/default/lv_theme_default.c ****     lv_style_set_clip_corner(&styles->menu_bg, true);
 473:Drivers/lvgl/lvgl/src/extra/themes/default/lv_theme_default.c ****     lv_style_set_border_side(&styles->menu_bg, LV_BORDER_SIDE_NONE);
 474:Drivers/lvgl/lvgl/src/extra/themes/default/lv_theme_default.c **** 
 475:Drivers/lvgl/lvgl/src/extra/themes/default/lv_theme_default.c ****     style_init_reset(&styles->menu_section);
 476:Drivers/lvgl/lvgl/src/extra/themes/default/lv_theme_default.c ****     lv_style_set_radius(&styles->menu_section, RADIUS_DEFAULT);
 477:Drivers/lvgl/lvgl/src/extra/themes/default/lv_theme_default.c ****     lv_style_set_clip_corner(&styles->menu_section, true);
 478:Drivers/lvgl/lvgl/src/extra/themes/default/lv_theme_default.c ****     lv_style_set_bg_opa(&styles->menu_section, LV_OPA_COVER);
 479:Drivers/lvgl/lvgl/src/extra/themes/default/lv_theme_default.c ****     lv_style_set_bg_color(&styles->menu_section, color_card);
 480:Drivers/lvgl/lvgl/src/extra/themes/default/lv_theme_default.c ****     lv_style_set_text_color(&styles->menu_section, color_text);
 481:Drivers/lvgl/lvgl/src/extra/themes/default/lv_theme_default.c **** 
 482:Drivers/lvgl/lvgl/src/extra/themes/default/lv_theme_default.c ****     style_init_reset(&styles->menu_cont);
 483:Drivers/lvgl/lvgl/src/extra/themes/default/lv_theme_default.c ****     lv_style_set_pad_hor(&styles->menu_cont, PAD_SMALL);
 484:Drivers/lvgl/lvgl/src/extra/themes/default/lv_theme_default.c ****     lv_style_set_pad_ver(&styles->menu_cont, PAD_SMALL);
 485:Drivers/lvgl/lvgl/src/extra/themes/default/lv_theme_default.c ****     lv_style_set_pad_gap(&styles->menu_cont, PAD_SMALL);
 486:Drivers/lvgl/lvgl/src/extra/themes/default/lv_theme_default.c ****     lv_style_set_border_width(&styles->menu_cont, lv_disp_dpx(theme.disp, 1));
 487:Drivers/lvgl/lvgl/src/extra/themes/default/lv_theme_default.c ****     lv_style_set_border_opa(&styles->menu_cont, LV_OPA_10);
 488:Drivers/lvgl/lvgl/src/extra/themes/default/lv_theme_default.c ****     lv_style_set_border_color(&styles->menu_cont, color_text);
 489:Drivers/lvgl/lvgl/src/extra/themes/default/lv_theme_default.c ****     lv_style_set_border_side(&styles->menu_cont, LV_BORDER_SIDE_NONE);
ARM GAS  /tmp/cc6wDDAF.s 			page 10


 490:Drivers/lvgl/lvgl/src/extra/themes/default/lv_theme_default.c **** 
 491:Drivers/lvgl/lvgl/src/extra/themes/default/lv_theme_default.c ****     style_init_reset(&styles->menu_sidebar_cont);
 492:Drivers/lvgl/lvgl/src/extra/themes/default/lv_theme_default.c ****     lv_style_set_pad_all(&styles->menu_sidebar_cont, 0);
 493:Drivers/lvgl/lvgl/src/extra/themes/default/lv_theme_default.c ****     lv_style_set_pad_gap(&styles->menu_sidebar_cont, 0);
 494:Drivers/lvgl/lvgl/src/extra/themes/default/lv_theme_default.c ****     lv_style_set_border_width(&styles->menu_sidebar_cont, lv_disp_dpx(theme.disp, 1));
 495:Drivers/lvgl/lvgl/src/extra/themes/default/lv_theme_default.c ****     lv_style_set_border_opa(&styles->menu_sidebar_cont, LV_OPA_10);
 496:Drivers/lvgl/lvgl/src/extra/themes/default/lv_theme_default.c ****     lv_style_set_border_color(&styles->menu_sidebar_cont, color_text);
 497:Drivers/lvgl/lvgl/src/extra/themes/default/lv_theme_default.c ****     lv_style_set_border_side(&styles->menu_sidebar_cont, LV_BORDER_SIDE_RIGHT);
 498:Drivers/lvgl/lvgl/src/extra/themes/default/lv_theme_default.c **** 
 499:Drivers/lvgl/lvgl/src/extra/themes/default/lv_theme_default.c ****     style_init_reset(&styles->menu_main_cont);
 500:Drivers/lvgl/lvgl/src/extra/themes/default/lv_theme_default.c ****     lv_style_set_pad_all(&styles->menu_main_cont, 0);
 501:Drivers/lvgl/lvgl/src/extra/themes/default/lv_theme_default.c ****     lv_style_set_pad_gap(&styles->menu_main_cont, 0);
 502:Drivers/lvgl/lvgl/src/extra/themes/default/lv_theme_default.c **** 
 503:Drivers/lvgl/lvgl/src/extra/themes/default/lv_theme_default.c ****     style_init_reset(&styles->menu_header_cont);
 504:Drivers/lvgl/lvgl/src/extra/themes/default/lv_theme_default.c ****     lv_style_set_pad_hor(&styles->menu_header_cont, PAD_SMALL);
 505:Drivers/lvgl/lvgl/src/extra/themes/default/lv_theme_default.c ****     lv_style_set_pad_ver(&styles->menu_header_cont, PAD_TINY);
 506:Drivers/lvgl/lvgl/src/extra/themes/default/lv_theme_default.c ****     lv_style_set_pad_gap(&styles->menu_header_cont, PAD_SMALL);
 507:Drivers/lvgl/lvgl/src/extra/themes/default/lv_theme_default.c **** 
 508:Drivers/lvgl/lvgl/src/extra/themes/default/lv_theme_default.c ****     style_init_reset(&styles->menu_header_btn);
 509:Drivers/lvgl/lvgl/src/extra/themes/default/lv_theme_default.c ****     lv_style_set_pad_hor(&styles->menu_header_btn, PAD_TINY);
 510:Drivers/lvgl/lvgl/src/extra/themes/default/lv_theme_default.c ****     lv_style_set_pad_ver(&styles->menu_header_btn, PAD_TINY);
 511:Drivers/lvgl/lvgl/src/extra/themes/default/lv_theme_default.c ****     lv_style_set_shadow_opa(&styles->menu_header_btn, LV_OPA_TRANSP);
 512:Drivers/lvgl/lvgl/src/extra/themes/default/lv_theme_default.c ****     lv_style_set_bg_opa(&styles->menu_header_btn, LV_OPA_TRANSP);
 513:Drivers/lvgl/lvgl/src/extra/themes/default/lv_theme_default.c ****     lv_style_set_text_color(&styles->menu_header_btn, color_text);
 514:Drivers/lvgl/lvgl/src/extra/themes/default/lv_theme_default.c **** 
 515:Drivers/lvgl/lvgl/src/extra/themes/default/lv_theme_default.c ****     style_init_reset(&styles->menu_page);
 516:Drivers/lvgl/lvgl/src/extra/themes/default/lv_theme_default.c ****     lv_style_set_pad_hor(&styles->menu_page, 0);
 517:Drivers/lvgl/lvgl/src/extra/themes/default/lv_theme_default.c ****     lv_style_set_pad_gap(&styles->menu_page, 0);
 518:Drivers/lvgl/lvgl/src/extra/themes/default/lv_theme_default.c **** 
 519:Drivers/lvgl/lvgl/src/extra/themes/default/lv_theme_default.c ****     style_init_reset(&styles->menu_pressed);
 520:Drivers/lvgl/lvgl/src/extra/themes/default/lv_theme_default.c ****     lv_style_set_bg_opa(&styles->menu_pressed, LV_OPA_20);
 521:Drivers/lvgl/lvgl/src/extra/themes/default/lv_theme_default.c ****     lv_style_set_bg_color(&styles->menu_pressed, lv_palette_main(LV_PALETTE_GREY));
 522:Drivers/lvgl/lvgl/src/extra/themes/default/lv_theme_default.c **** 
 523:Drivers/lvgl/lvgl/src/extra/themes/default/lv_theme_default.c ****     style_init_reset(&styles->menu_separator);
 524:Drivers/lvgl/lvgl/src/extra/themes/default/lv_theme_default.c ****     lv_style_set_bg_opa(&styles->menu_separator, LV_OPA_TRANSP);
 525:Drivers/lvgl/lvgl/src/extra/themes/default/lv_theme_default.c ****     lv_style_set_pad_ver(&styles->menu_separator, PAD_TINY);
 526:Drivers/lvgl/lvgl/src/extra/themes/default/lv_theme_default.c **** #endif
 527:Drivers/lvgl/lvgl/src/extra/themes/default/lv_theme_default.c **** 
 528:Drivers/lvgl/lvgl/src/extra/themes/default/lv_theme_default.c **** #if LV_USE_METER
 529:Drivers/lvgl/lvgl/src/extra/themes/default/lv_theme_default.c ****     style_init_reset(&styles->meter_marker);
 530:Drivers/lvgl/lvgl/src/extra/themes/default/lv_theme_default.c ****     lv_style_set_line_width(&styles->meter_marker, lv_disp_dpx(theme.disp, 5));
 531:Drivers/lvgl/lvgl/src/extra/themes/default/lv_theme_default.c ****     lv_style_set_line_color(&styles->meter_marker, color_text);
 532:Drivers/lvgl/lvgl/src/extra/themes/default/lv_theme_default.c ****     lv_style_set_size(&styles->meter_marker, lv_disp_dpx(theme.disp, 20));
 533:Drivers/lvgl/lvgl/src/extra/themes/default/lv_theme_default.c ****     lv_style_set_pad_left(&styles->meter_marker, lv_disp_dpx(theme.disp, 15));
 534:Drivers/lvgl/lvgl/src/extra/themes/default/lv_theme_default.c **** 
 535:Drivers/lvgl/lvgl/src/extra/themes/default/lv_theme_default.c ****     style_init_reset(&styles->meter_indic);
 536:Drivers/lvgl/lvgl/src/extra/themes/default/lv_theme_default.c ****     lv_style_set_radius(&styles->meter_indic, LV_RADIUS_CIRCLE);
 537:Drivers/lvgl/lvgl/src/extra/themes/default/lv_theme_default.c ****     lv_style_set_bg_color(&styles->meter_indic, color_text);
 538:Drivers/lvgl/lvgl/src/extra/themes/default/lv_theme_default.c ****     lv_style_set_bg_opa(&styles->meter_indic, LV_OPA_COVER);
 539:Drivers/lvgl/lvgl/src/extra/themes/default/lv_theme_default.c ****     lv_style_set_size(&styles->meter_indic, lv_disp_dpx(theme.disp, 15));
 540:Drivers/lvgl/lvgl/src/extra/themes/default/lv_theme_default.c **** #endif
 541:Drivers/lvgl/lvgl/src/extra/themes/default/lv_theme_default.c **** 
 542:Drivers/lvgl/lvgl/src/extra/themes/default/lv_theme_default.c **** #if LV_USE_TABLE
 543:Drivers/lvgl/lvgl/src/extra/themes/default/lv_theme_default.c ****     style_init_reset(&styles->table_cell);
 544:Drivers/lvgl/lvgl/src/extra/themes/default/lv_theme_default.c ****     lv_style_set_border_width(&styles->table_cell, lv_disp_dpx(theme.disp, 1));
 545:Drivers/lvgl/lvgl/src/extra/themes/default/lv_theme_default.c ****     lv_style_set_border_color(&styles->table_cell, color_grey);
 546:Drivers/lvgl/lvgl/src/extra/themes/default/lv_theme_default.c ****     lv_style_set_border_side(&styles->table_cell, LV_BORDER_SIDE_TOP | LV_BORDER_SIDE_BOTTOM);
ARM GAS  /tmp/cc6wDDAF.s 			page 11


 547:Drivers/lvgl/lvgl/src/extra/themes/default/lv_theme_default.c **** #endif
 548:Drivers/lvgl/lvgl/src/extra/themes/default/lv_theme_default.c **** 
 549:Drivers/lvgl/lvgl/src/extra/themes/default/lv_theme_default.c **** #if LV_USE_TEXTAREA
 550:Drivers/lvgl/lvgl/src/extra/themes/default/lv_theme_default.c ****     style_init_reset(&styles->ta_cursor);
 551:Drivers/lvgl/lvgl/src/extra/themes/default/lv_theme_default.c ****     lv_style_set_border_color(&styles->ta_cursor, color_text);
 552:Drivers/lvgl/lvgl/src/extra/themes/default/lv_theme_default.c ****     lv_style_set_border_width(&styles->ta_cursor, lv_disp_dpx(theme.disp, 2));
 553:Drivers/lvgl/lvgl/src/extra/themes/default/lv_theme_default.c ****     lv_style_set_pad_left(&styles->ta_cursor, - lv_disp_dpx(theme.disp, 1));
 554:Drivers/lvgl/lvgl/src/extra/themes/default/lv_theme_default.c ****     lv_style_set_border_side(&styles->ta_cursor, LV_BORDER_SIDE_LEFT);
 555:Drivers/lvgl/lvgl/src/extra/themes/default/lv_theme_default.c ****     lv_style_set_anim_time(&styles->ta_cursor, 400);
 556:Drivers/lvgl/lvgl/src/extra/themes/default/lv_theme_default.c **** 
 557:Drivers/lvgl/lvgl/src/extra/themes/default/lv_theme_default.c ****     style_init_reset(&styles->ta_placeholder);
 558:Drivers/lvgl/lvgl/src/extra/themes/default/lv_theme_default.c ****     lv_style_set_text_color(&styles->ta_placeholder, (theme.flags & MODE_DARK) ? lv_palette_darken(
 559:Drivers/lvgl/lvgl/src/extra/themes/default/lv_theme_default.c ****                                                                                                    
 560:Drivers/lvgl/lvgl/src/extra/themes/default/lv_theme_default.c **** #endif
 561:Drivers/lvgl/lvgl/src/extra/themes/default/lv_theme_default.c **** 
 562:Drivers/lvgl/lvgl/src/extra/themes/default/lv_theme_default.c **** #if LV_USE_CALENDAR
 563:Drivers/lvgl/lvgl/src/extra/themes/default/lv_theme_default.c ****     style_init_reset(&styles->calendar_btnm_bg);
 564:Drivers/lvgl/lvgl/src/extra/themes/default/lv_theme_default.c ****     lv_style_set_pad_all(&styles->calendar_btnm_bg, PAD_SMALL);
 565:Drivers/lvgl/lvgl/src/extra/themes/default/lv_theme_default.c ****     lv_style_set_pad_gap(&styles->calendar_btnm_bg, PAD_SMALL / 2);
 566:Drivers/lvgl/lvgl/src/extra/themes/default/lv_theme_default.c **** 
 567:Drivers/lvgl/lvgl/src/extra/themes/default/lv_theme_default.c ****     style_init_reset(&styles->calendar_btnm_day);
 568:Drivers/lvgl/lvgl/src/extra/themes/default/lv_theme_default.c ****     lv_style_set_border_width(&styles->calendar_btnm_day, lv_disp_dpx(theme.disp, 1));
 569:Drivers/lvgl/lvgl/src/extra/themes/default/lv_theme_default.c ****     lv_style_set_border_color(&styles->calendar_btnm_day, color_grey);
 570:Drivers/lvgl/lvgl/src/extra/themes/default/lv_theme_default.c ****     lv_style_set_bg_color(&styles->calendar_btnm_day, color_card);
 571:Drivers/lvgl/lvgl/src/extra/themes/default/lv_theme_default.c ****     lv_style_set_bg_opa(&styles->calendar_btnm_day, LV_OPA_20);
 572:Drivers/lvgl/lvgl/src/extra/themes/default/lv_theme_default.c **** 
 573:Drivers/lvgl/lvgl/src/extra/themes/default/lv_theme_default.c ****     style_init_reset(&styles->calendar_header);
 574:Drivers/lvgl/lvgl/src/extra/themes/default/lv_theme_default.c ****     lv_style_set_pad_hor(&styles->calendar_header, PAD_SMALL);
 575:Drivers/lvgl/lvgl/src/extra/themes/default/lv_theme_default.c ****     lv_style_set_pad_top(&styles->calendar_header, PAD_SMALL);
 576:Drivers/lvgl/lvgl/src/extra/themes/default/lv_theme_default.c ****     lv_style_set_pad_bottom(&styles->calendar_header, PAD_TINY);
 577:Drivers/lvgl/lvgl/src/extra/themes/default/lv_theme_default.c ****     lv_style_set_pad_gap(&styles->calendar_header, PAD_SMALL);
 578:Drivers/lvgl/lvgl/src/extra/themes/default/lv_theme_default.c **** #endif
 579:Drivers/lvgl/lvgl/src/extra/themes/default/lv_theme_default.c **** 
 580:Drivers/lvgl/lvgl/src/extra/themes/default/lv_theme_default.c **** #if LV_USE_COLORWHEEL
 581:Drivers/lvgl/lvgl/src/extra/themes/default/lv_theme_default.c ****     style_init_reset(&styles->colorwheel_main);
 582:Drivers/lvgl/lvgl/src/extra/themes/default/lv_theme_default.c ****     lv_style_set_arc_width(&styles->colorwheel_main, lv_disp_dpx(theme.disp, 10));
 583:Drivers/lvgl/lvgl/src/extra/themes/default/lv_theme_default.c **** #endif
 584:Drivers/lvgl/lvgl/src/extra/themes/default/lv_theme_default.c **** 
 585:Drivers/lvgl/lvgl/src/extra/themes/default/lv_theme_default.c **** #if LV_USE_MSGBOX
 586:Drivers/lvgl/lvgl/src/extra/themes/default/lv_theme_default.c ****     /*To add space for for the button shadow*/
 587:Drivers/lvgl/lvgl/src/extra/themes/default/lv_theme_default.c ****     style_init_reset(&styles->msgbox_btn_bg);
 588:Drivers/lvgl/lvgl/src/extra/themes/default/lv_theme_default.c ****     lv_style_set_pad_all(&styles->msgbox_btn_bg, lv_disp_dpx(theme.disp, 4));
 589:Drivers/lvgl/lvgl/src/extra/themes/default/lv_theme_default.c **** 
 590:Drivers/lvgl/lvgl/src/extra/themes/default/lv_theme_default.c ****     style_init_reset(&styles->msgbox_bg);
 591:Drivers/lvgl/lvgl/src/extra/themes/default/lv_theme_default.c ****     lv_style_set_max_width(&styles->msgbox_bg, lv_pct(100));
 592:Drivers/lvgl/lvgl/src/extra/themes/default/lv_theme_default.c **** 
 593:Drivers/lvgl/lvgl/src/extra/themes/default/lv_theme_default.c ****     style_init_reset(&styles->msgbox_backdrop_bg);
 594:Drivers/lvgl/lvgl/src/extra/themes/default/lv_theme_default.c ****     lv_style_set_bg_color(&styles->msgbox_backdrop_bg, lv_palette_main(LV_PALETTE_GREY));
 595:Drivers/lvgl/lvgl/src/extra/themes/default/lv_theme_default.c ****     lv_style_set_bg_opa(&styles->msgbox_backdrop_bg, LV_OPA_50);
 596:Drivers/lvgl/lvgl/src/extra/themes/default/lv_theme_default.c **** #endif
 597:Drivers/lvgl/lvgl/src/extra/themes/default/lv_theme_default.c **** #if LV_USE_KEYBOARD
 598:Drivers/lvgl/lvgl/src/extra/themes/default/lv_theme_default.c ****     style_init_reset(&styles->keyboard_btn_bg);
 599:Drivers/lvgl/lvgl/src/extra/themes/default/lv_theme_default.c ****     lv_style_set_shadow_width(&styles->keyboard_btn_bg, 0);
 600:Drivers/lvgl/lvgl/src/extra/themes/default/lv_theme_default.c ****     lv_style_set_radius(&styles->keyboard_btn_bg, disp_size == DISP_SMALL ? RADIUS_DEFAULT / 2 : RA
 601:Drivers/lvgl/lvgl/src/extra/themes/default/lv_theme_default.c **** #endif
 602:Drivers/lvgl/lvgl/src/extra/themes/default/lv_theme_default.c **** 
 603:Drivers/lvgl/lvgl/src/extra/themes/default/lv_theme_default.c **** #if LV_USE_TABVIEW
ARM GAS  /tmp/cc6wDDAF.s 			page 12


 604:Drivers/lvgl/lvgl/src/extra/themes/default/lv_theme_default.c ****     style_init_reset(&styles->tab_btn);
 605:Drivers/lvgl/lvgl/src/extra/themes/default/lv_theme_default.c ****     lv_style_set_border_color(&styles->tab_btn, theme.color_primary);
 606:Drivers/lvgl/lvgl/src/extra/themes/default/lv_theme_default.c ****     lv_style_set_border_width(&styles->tab_btn, BORDER_WIDTH * 2);
 607:Drivers/lvgl/lvgl/src/extra/themes/default/lv_theme_default.c ****     lv_style_set_border_side(&styles->tab_btn, LV_BORDER_SIDE_BOTTOM);
 608:Drivers/lvgl/lvgl/src/extra/themes/default/lv_theme_default.c **** 
 609:Drivers/lvgl/lvgl/src/extra/themes/default/lv_theme_default.c ****     style_init_reset(&styles->tab_bg_focus);
 610:Drivers/lvgl/lvgl/src/extra/themes/default/lv_theme_default.c ****     lv_style_set_outline_pad(&styles->tab_bg_focus, -BORDER_WIDTH);
 611:Drivers/lvgl/lvgl/src/extra/themes/default/lv_theme_default.c **** #endif
 612:Drivers/lvgl/lvgl/src/extra/themes/default/lv_theme_default.c **** 
 613:Drivers/lvgl/lvgl/src/extra/themes/default/lv_theme_default.c **** #if LV_USE_LIST
 614:Drivers/lvgl/lvgl/src/extra/themes/default/lv_theme_default.c ****     style_init_reset(&styles->list_bg);
 615:Drivers/lvgl/lvgl/src/extra/themes/default/lv_theme_default.c ****     lv_style_set_pad_hor(&styles->list_bg, PAD_DEF);
 616:Drivers/lvgl/lvgl/src/extra/themes/default/lv_theme_default.c ****     lv_style_set_pad_ver(&styles->list_bg, 0);
 617:Drivers/lvgl/lvgl/src/extra/themes/default/lv_theme_default.c ****     lv_style_set_pad_gap(&styles->list_bg, 0);
 618:Drivers/lvgl/lvgl/src/extra/themes/default/lv_theme_default.c ****     lv_style_set_clip_corner(&styles->list_bg, true);
 619:Drivers/lvgl/lvgl/src/extra/themes/default/lv_theme_default.c **** 
 620:Drivers/lvgl/lvgl/src/extra/themes/default/lv_theme_default.c ****     style_init_reset(&styles->list_btn);
 621:Drivers/lvgl/lvgl/src/extra/themes/default/lv_theme_default.c ****     lv_style_set_border_width(&styles->list_btn, lv_disp_dpx(theme.disp, 1));
 622:Drivers/lvgl/lvgl/src/extra/themes/default/lv_theme_default.c ****     lv_style_set_border_color(&styles->list_btn, color_grey);
 623:Drivers/lvgl/lvgl/src/extra/themes/default/lv_theme_default.c ****     lv_style_set_border_side(&styles->list_btn, LV_BORDER_SIDE_BOTTOM);
 624:Drivers/lvgl/lvgl/src/extra/themes/default/lv_theme_default.c ****     lv_style_set_pad_all(&styles->list_btn, PAD_SMALL);
 625:Drivers/lvgl/lvgl/src/extra/themes/default/lv_theme_default.c ****     lv_style_set_pad_column(&styles->list_btn, PAD_SMALL);
 626:Drivers/lvgl/lvgl/src/extra/themes/default/lv_theme_default.c **** 
 627:Drivers/lvgl/lvgl/src/extra/themes/default/lv_theme_default.c ****     style_init_reset(&styles->list_item_grow);
 628:Drivers/lvgl/lvgl/src/extra/themes/default/lv_theme_default.c ****     lv_style_set_transform_width(&styles->list_item_grow, PAD_DEF);
 629:Drivers/lvgl/lvgl/src/extra/themes/default/lv_theme_default.c **** #endif
 630:Drivers/lvgl/lvgl/src/extra/themes/default/lv_theme_default.c **** 
 631:Drivers/lvgl/lvgl/src/extra/themes/default/lv_theme_default.c **** 
 632:Drivers/lvgl/lvgl/src/extra/themes/default/lv_theme_default.c **** #if LV_USE_LED
 633:Drivers/lvgl/lvgl/src/extra/themes/default/lv_theme_default.c ****     style_init_reset(&styles->led);
 634:Drivers/lvgl/lvgl/src/extra/themes/default/lv_theme_default.c ****     lv_style_set_bg_opa(&styles->led, LV_OPA_COVER);
 635:Drivers/lvgl/lvgl/src/extra/themes/default/lv_theme_default.c ****     lv_style_set_bg_color(&styles->led, lv_color_white());
 636:Drivers/lvgl/lvgl/src/extra/themes/default/lv_theme_default.c ****     lv_style_set_bg_grad_color(&styles->led, lv_palette_main(LV_PALETTE_GREY));
 637:Drivers/lvgl/lvgl/src/extra/themes/default/lv_theme_default.c ****     lv_style_set_radius(&styles->led, LV_RADIUS_CIRCLE);
 638:Drivers/lvgl/lvgl/src/extra/themes/default/lv_theme_default.c ****     lv_style_set_shadow_width(&styles->led, lv_disp_dpx(theme.disp, 15));
 639:Drivers/lvgl/lvgl/src/extra/themes/default/lv_theme_default.c ****     lv_style_set_shadow_color(&styles->led, lv_color_white());
 640:Drivers/lvgl/lvgl/src/extra/themes/default/lv_theme_default.c ****     lv_style_set_shadow_spread(&styles->led, lv_disp_dpx(theme.disp, 5));
 641:Drivers/lvgl/lvgl/src/extra/themes/default/lv_theme_default.c **** #endif
 642:Drivers/lvgl/lvgl/src/extra/themes/default/lv_theme_default.c **** }
 643:Drivers/lvgl/lvgl/src/extra/themes/default/lv_theme_default.c **** 
 644:Drivers/lvgl/lvgl/src/extra/themes/default/lv_theme_default.c **** /**********************
 645:Drivers/lvgl/lvgl/src/extra/themes/default/lv_theme_default.c ****  *   GLOBAL FUNCTIONS
 646:Drivers/lvgl/lvgl/src/extra/themes/default/lv_theme_default.c ****  **********************/
 647:Drivers/lvgl/lvgl/src/extra/themes/default/lv_theme_default.c **** 
 648:Drivers/lvgl/lvgl/src/extra/themes/default/lv_theme_default.c **** lv_theme_t * lv_theme_default_init(lv_disp_t * disp, lv_color_t color_primary, lv_color_t color_sec
 649:Drivers/lvgl/lvgl/src/extra/themes/default/lv_theme_default.c ****                                    const lv_font_t * font)
 650:Drivers/lvgl/lvgl/src/extra/themes/default/lv_theme_default.c **** {
 651:Drivers/lvgl/lvgl/src/extra/themes/default/lv_theme_default.c **** 
 652:Drivers/lvgl/lvgl/src/extra/themes/default/lv_theme_default.c ****     /*This trick is required only to avoid the garbage collection of
 653:Drivers/lvgl/lvgl/src/extra/themes/default/lv_theme_default.c ****      *styles' data if LVGL is used in a binding (e.g. Micropython)
 654:Drivers/lvgl/lvgl/src/extra/themes/default/lv_theme_default.c ****      *In a general case styles could be in simple `static lv_style_t my_style...` variables*/
 655:Drivers/lvgl/lvgl/src/extra/themes/default/lv_theme_default.c ****     if(!lv_theme_default_is_inited()) {
 656:Drivers/lvgl/lvgl/src/extra/themes/default/lv_theme_default.c ****         inited = false;
 657:Drivers/lvgl/lvgl/src/extra/themes/default/lv_theme_default.c ****         LV_GC_ROOT(_lv_theme_default_styles) = lv_mem_alloc(sizeof(my_theme_styles_t));
 658:Drivers/lvgl/lvgl/src/extra/themes/default/lv_theme_default.c ****         styles = (my_theme_styles_t *)LV_GC_ROOT(_lv_theme_default_styles);
 659:Drivers/lvgl/lvgl/src/extra/themes/default/lv_theme_default.c ****     }
 660:Drivers/lvgl/lvgl/src/extra/themes/default/lv_theme_default.c **** 
ARM GAS  /tmp/cc6wDDAF.s 			page 13


 661:Drivers/lvgl/lvgl/src/extra/themes/default/lv_theme_default.c ****     if(LV_HOR_RES <= 320) disp_size = DISP_SMALL;
 662:Drivers/lvgl/lvgl/src/extra/themes/default/lv_theme_default.c ****     else if(LV_HOR_RES < 720) disp_size = DISP_MEDIUM;
 663:Drivers/lvgl/lvgl/src/extra/themes/default/lv_theme_default.c ****     else disp_size = DISP_LARGE;
 664:Drivers/lvgl/lvgl/src/extra/themes/default/lv_theme_default.c **** 
 665:Drivers/lvgl/lvgl/src/extra/themes/default/lv_theme_default.c ****     theme.disp = disp;
 666:Drivers/lvgl/lvgl/src/extra/themes/default/lv_theme_default.c ****     theme.color_primary = color_primary;
 667:Drivers/lvgl/lvgl/src/extra/themes/default/lv_theme_default.c ****     theme.color_secondary = color_secondary;
 668:Drivers/lvgl/lvgl/src/extra/themes/default/lv_theme_default.c ****     theme.font_small = font;
 669:Drivers/lvgl/lvgl/src/extra/themes/default/lv_theme_default.c ****     theme.font_normal = font;
 670:Drivers/lvgl/lvgl/src/extra/themes/default/lv_theme_default.c ****     theme.font_large = font;
 671:Drivers/lvgl/lvgl/src/extra/themes/default/lv_theme_default.c ****     theme.apply_cb = theme_apply;
 672:Drivers/lvgl/lvgl/src/extra/themes/default/lv_theme_default.c ****     theme.flags = dark ? MODE_DARK : 0;
 673:Drivers/lvgl/lvgl/src/extra/themes/default/lv_theme_default.c **** 
 674:Drivers/lvgl/lvgl/src/extra/themes/default/lv_theme_default.c ****     style_init();
 675:Drivers/lvgl/lvgl/src/extra/themes/default/lv_theme_default.c **** 
 676:Drivers/lvgl/lvgl/src/extra/themes/default/lv_theme_default.c ****     if(disp == NULL || lv_disp_get_theme(disp) == &theme) lv_obj_report_style_change(NULL);
 677:Drivers/lvgl/lvgl/src/extra/themes/default/lv_theme_default.c **** 
 678:Drivers/lvgl/lvgl/src/extra/themes/default/lv_theme_default.c ****     inited = true;
 679:Drivers/lvgl/lvgl/src/extra/themes/default/lv_theme_default.c **** 
 680:Drivers/lvgl/lvgl/src/extra/themes/default/lv_theme_default.c ****     return (lv_theme_t *)&theme;
 681:Drivers/lvgl/lvgl/src/extra/themes/default/lv_theme_default.c **** }
 682:Drivers/lvgl/lvgl/src/extra/themes/default/lv_theme_default.c **** 
 683:Drivers/lvgl/lvgl/src/extra/themes/default/lv_theme_default.c **** lv_theme_t * lv_theme_default_get(void)
 684:Drivers/lvgl/lvgl/src/extra/themes/default/lv_theme_default.c **** {
 685:Drivers/lvgl/lvgl/src/extra/themes/default/lv_theme_default.c ****     if(!lv_theme_default_is_inited()) {
 686:Drivers/lvgl/lvgl/src/extra/themes/default/lv_theme_default.c ****         return NULL;
 687:Drivers/lvgl/lvgl/src/extra/themes/default/lv_theme_default.c ****     }
 688:Drivers/lvgl/lvgl/src/extra/themes/default/lv_theme_default.c **** 
 689:Drivers/lvgl/lvgl/src/extra/themes/default/lv_theme_default.c ****     return (lv_theme_t *)&theme;
 690:Drivers/lvgl/lvgl/src/extra/themes/default/lv_theme_default.c **** }
 691:Drivers/lvgl/lvgl/src/extra/themes/default/lv_theme_default.c **** 
 692:Drivers/lvgl/lvgl/src/extra/themes/default/lv_theme_default.c **** bool lv_theme_default_is_inited(void)
 693:Drivers/lvgl/lvgl/src/extra/themes/default/lv_theme_default.c **** {
 694:Drivers/lvgl/lvgl/src/extra/themes/default/lv_theme_default.c ****     return  LV_GC_ROOT(_lv_theme_default_styles) == NULL ? false : true;
 695:Drivers/lvgl/lvgl/src/extra/themes/default/lv_theme_default.c **** }
 696:Drivers/lvgl/lvgl/src/extra/themes/default/lv_theme_default.c **** 
 697:Drivers/lvgl/lvgl/src/extra/themes/default/lv_theme_default.c **** 
 698:Drivers/lvgl/lvgl/src/extra/themes/default/lv_theme_default.c **** static void theme_apply(lv_theme_t * th, lv_obj_t * obj)
 699:Drivers/lvgl/lvgl/src/extra/themes/default/lv_theme_default.c **** {
  26              		.loc 1 699 0
  27              		.cfi_startproc
  28              		@ args = 0, pretend = 0, frame = 0
  29              		@ frame_needed = 0, uses_anonymous_args = 0
  30              	.LVL0:
  31 0000 70B5     		push	{r4, r5, r6, lr}
  32              	.LCFI0:
  33              		.cfi_def_cfa_offset 16
  34              		.cfi_offset 4, -16
  35              		.cfi_offset 5, -12
  36              		.cfi_offset 6, -8
  37              		.cfi_offset 14, -4
  38 0002 0C46     		mov	r4, r1
 700:Drivers/lvgl/lvgl/src/extra/themes/default/lv_theme_default.c ****     LV_UNUSED(th);
 701:Drivers/lvgl/lvgl/src/extra/themes/default/lv_theme_default.c **** 
 702:Drivers/lvgl/lvgl/src/extra/themes/default/lv_theme_default.c ****     if(lv_obj_get_parent(obj) == NULL) {
  39              		.loc 1 702 0
  40 0004 0846     		mov	r0, r1
ARM GAS  /tmp/cc6wDDAF.s 			page 14


  41              	.LVL1:
  42 0006 FFF7FEFF 		bl	lv_obj_get_parent
  43              	.LVL2:
  44 000a 0028     		cmp	r0, #0
  45 000c 44D0     		beq	.L55
 703:Drivers/lvgl/lvgl/src/extra/themes/default/lv_theme_default.c ****         lv_obj_add_style(obj, &styles->scr, 0);
 704:Drivers/lvgl/lvgl/src/extra/themes/default/lv_theme_default.c ****         lv_obj_add_style(obj, &styles->scrollbar, LV_PART_SCROLLBAR);
 705:Drivers/lvgl/lvgl/src/extra/themes/default/lv_theme_default.c ****         lv_obj_add_style(obj, &styles->scrollbar_scrolled, LV_PART_SCROLLBAR | LV_STATE_SCROLLED);
 706:Drivers/lvgl/lvgl/src/extra/themes/default/lv_theme_default.c ****         return;
 707:Drivers/lvgl/lvgl/src/extra/themes/default/lv_theme_default.c ****     }
 708:Drivers/lvgl/lvgl/src/extra/themes/default/lv_theme_default.c **** 
 709:Drivers/lvgl/lvgl/src/extra/themes/default/lv_theme_default.c ****     if(lv_obj_check_type(obj, &lv_obj_class)) {
  46              		.loc 1 709 0
  47 000e B049     		ldr	r1, .L71
  48 0010 2046     		mov	r0, r4
  49 0012 FFF7FEFF 		bl	lv_obj_check_type
  50              	.LVL3:
  51 0016 0028     		cmp	r0, #0
  52 0018 00F09780 		beq	.L4
  53              	.LBB102:
 710:Drivers/lvgl/lvgl/src/extra/themes/default/lv_theme_default.c **** #if LV_USE_TABVIEW
 711:Drivers/lvgl/lvgl/src/extra/themes/default/lv_theme_default.c ****         lv_obj_t * parent = lv_obj_get_parent(obj);
  54              		.loc 1 711 0
  55 001c 2046     		mov	r0, r4
  56 001e FFF7FEFF 		bl	lv_obj_get_parent
  57              	.LVL4:
  58 0022 0546     		mov	r5, r0
  59              	.LVL5:
 712:Drivers/lvgl/lvgl/src/extra/themes/default/lv_theme_default.c ****         /*Tabview content area*/
 713:Drivers/lvgl/lvgl/src/extra/themes/default/lv_theme_default.c ****         if(lv_obj_check_type(parent, &lv_tabview_class)) {
  60              		.loc 1 713 0
  61 0024 AB49     		ldr	r1, .L71+4
  62 0026 FFF7FEFF 		bl	lv_obj_check_type
  63              	.LVL6:
  64 002a 0028     		cmp	r0, #0
  65 002c 47D1     		bne	.L1
 714:Drivers/lvgl/lvgl/src/extra/themes/default/lv_theme_default.c ****             return;
 715:Drivers/lvgl/lvgl/src/extra/themes/default/lv_theme_default.c ****         }
 716:Drivers/lvgl/lvgl/src/extra/themes/default/lv_theme_default.c ****         /*Tabview pages*/
 717:Drivers/lvgl/lvgl/src/extra/themes/default/lv_theme_default.c ****         else if(lv_obj_check_type(lv_obj_get_parent(parent), &lv_tabview_class)) {
  66              		.loc 1 717 0
  67 002e 2846     		mov	r0, r5
  68 0030 FFF7FEFF 		bl	lv_obj_get_parent
  69              	.LVL7:
  70 0034 A749     		ldr	r1, .L71+4
  71 0036 FFF7FEFF 		bl	lv_obj_check_type
  72              	.LVL8:
  73 003a 0028     		cmp	r0, #0
  74 003c 40D1     		bne	.L56
 718:Drivers/lvgl/lvgl/src/extra/themes/default/lv_theme_default.c ****             lv_obj_add_style(obj, &styles->pad_normal, 0);
 719:Drivers/lvgl/lvgl/src/extra/themes/default/lv_theme_default.c ****             lv_obj_add_style(obj, &styles->scrollbar, LV_PART_SCROLLBAR);
 720:Drivers/lvgl/lvgl/src/extra/themes/default/lv_theme_default.c ****             lv_obj_add_style(obj, &styles->scrollbar_scrolled, LV_PART_SCROLLBAR | LV_STATE_SCROLLE
 721:Drivers/lvgl/lvgl/src/extra/themes/default/lv_theme_default.c ****             return;
 722:Drivers/lvgl/lvgl/src/extra/themes/default/lv_theme_default.c ****         }
 723:Drivers/lvgl/lvgl/src/extra/themes/default/lv_theme_default.c **** #endif
 724:Drivers/lvgl/lvgl/src/extra/themes/default/lv_theme_default.c **** 
 725:Drivers/lvgl/lvgl/src/extra/themes/default/lv_theme_default.c **** #if LV_USE_WIN
ARM GAS  /tmp/cc6wDDAF.s 			page 15


 726:Drivers/lvgl/lvgl/src/extra/themes/default/lv_theme_default.c ****         /*Header*/
 727:Drivers/lvgl/lvgl/src/extra/themes/default/lv_theme_default.c ****         if(lv_obj_get_index(obj) == 0 && lv_obj_check_type(lv_obj_get_parent(obj), &lv_win_class)) 
  75              		.loc 1 727 0
  76 003e 2046     		mov	r0, r4
  77 0040 FFF7FEFF 		bl	lv_obj_get_index
  78              	.LVL9:
  79 0044 38B9     		cbnz	r0, .L6
  80              		.loc 1 727 0 is_stmt 0 discriminator 1
  81 0046 2046     		mov	r0, r4
  82 0048 FFF7FEFF 		bl	lv_obj_get_parent
  83              	.LVL10:
  84 004c A249     		ldr	r1, .L71+8
  85 004e FFF7FEFF 		bl	lv_obj_check_type
  86              	.LVL11:
  87 0052 0028     		cmp	r0, #0
  88 0054 49D1     		bne	.L57
  89              	.L6:
 728:Drivers/lvgl/lvgl/src/extra/themes/default/lv_theme_default.c ****             lv_obj_add_style(obj, &styles->bg_color_grey, 0);
 729:Drivers/lvgl/lvgl/src/extra/themes/default/lv_theme_default.c ****             lv_obj_add_style(obj, &styles->pad_tiny, 0);
 730:Drivers/lvgl/lvgl/src/extra/themes/default/lv_theme_default.c ****             return;
 731:Drivers/lvgl/lvgl/src/extra/themes/default/lv_theme_default.c ****         }
 732:Drivers/lvgl/lvgl/src/extra/themes/default/lv_theme_default.c ****         /*Content*/
 733:Drivers/lvgl/lvgl/src/extra/themes/default/lv_theme_default.c ****         else if(lv_obj_get_index(obj) == 1 && lv_obj_check_type(lv_obj_get_parent(obj), &lv_win_cla
  90              		.loc 1 733 0 is_stmt 1
  91 0056 2046     		mov	r0, r4
  92 0058 FFF7FEFF 		bl	lv_obj_get_index
  93              	.LVL12:
  94 005c 0128     		cmp	r0, #1
  95 005e 52D0     		beq	.L58
  96              	.L7:
 734:Drivers/lvgl/lvgl/src/extra/themes/default/lv_theme_default.c ****             lv_obj_add_style(obj, &styles->scr, 0);
 735:Drivers/lvgl/lvgl/src/extra/themes/default/lv_theme_default.c ****             lv_obj_add_style(obj, &styles->pad_normal, 0);
 736:Drivers/lvgl/lvgl/src/extra/themes/default/lv_theme_default.c ****             lv_obj_add_style(obj, &styles->scrollbar, LV_PART_SCROLLBAR);
 737:Drivers/lvgl/lvgl/src/extra/themes/default/lv_theme_default.c ****             lv_obj_add_style(obj, &styles->scrollbar_scrolled, LV_PART_SCROLLBAR | LV_STATE_SCROLLE
 738:Drivers/lvgl/lvgl/src/extra/themes/default/lv_theme_default.c ****             return;
 739:Drivers/lvgl/lvgl/src/extra/themes/default/lv_theme_default.c ****         }
 740:Drivers/lvgl/lvgl/src/extra/themes/default/lv_theme_default.c **** #endif
 741:Drivers/lvgl/lvgl/src/extra/themes/default/lv_theme_default.c **** 
 742:Drivers/lvgl/lvgl/src/extra/themes/default/lv_theme_default.c **** 
 743:Drivers/lvgl/lvgl/src/extra/themes/default/lv_theme_default.c **** #if LV_USE_CALENDAR
 744:Drivers/lvgl/lvgl/src/extra/themes/default/lv_theme_default.c ****         if(lv_obj_check_type(lv_obj_get_parent(obj), &lv_calendar_class)) {
  97              		.loc 1 744 0
  98 0060 2046     		mov	r0, r4
  99 0062 FFF7FEFF 		bl	lv_obj_get_parent
 100              	.LVL13:
 101 0066 9D49     		ldr	r1, .L71+12
 102 0068 FFF7FEFF 		bl	lv_obj_check_type
 103              	.LVL14:
 104 006c 38BB     		cbnz	r0, .L1
 745:Drivers/lvgl/lvgl/src/extra/themes/default/lv_theme_default.c ****             /*No style*/
 746:Drivers/lvgl/lvgl/src/extra/themes/default/lv_theme_default.c ****             return;
 747:Drivers/lvgl/lvgl/src/extra/themes/default/lv_theme_default.c ****         }
 748:Drivers/lvgl/lvgl/src/extra/themes/default/lv_theme_default.c **** #endif
 749:Drivers/lvgl/lvgl/src/extra/themes/default/lv_theme_default.c **** 
 750:Drivers/lvgl/lvgl/src/extra/themes/default/lv_theme_default.c ****         lv_obj_add_style(obj, &styles->card, 0);
 105              		.loc 1 750 0
 106 006e 9C4D     		ldr	r5, .L71+16
ARM GAS  /tmp/cc6wDDAF.s 			page 16


 107              	.LVL15:
 108 0070 2968     		ldr	r1, [r5]
 109 0072 0022     		movs	r2, #0
 110 0074 1831     		adds	r1, r1, #24
 111 0076 2046     		mov	r0, r4
 112 0078 FFF7FEFF 		bl	lv_obj_add_style
 113              	.LVL16:
 751:Drivers/lvgl/lvgl/src/extra/themes/default/lv_theme_default.c ****         lv_obj_add_style(obj, &styles->scrollbar, LV_PART_SCROLLBAR);
 114              		.loc 1 751 0
 115 007c 2968     		ldr	r1, [r5]
 116 007e 4FF48032 		mov	r2, #65536
 117 0082 0831     		adds	r1, r1, #8
 118 0084 2046     		mov	r0, r4
 119 0086 FFF7FEFF 		bl	lv_obj_add_style
 120              	.LVL17:
 752:Drivers/lvgl/lvgl/src/extra/themes/default/lv_theme_default.c ****         lv_obj_add_style(obj, &styles->scrollbar_scrolled, LV_PART_SCROLLBAR | LV_STATE_SCROLLED);
 121              		.loc 1 752 0
 122 008a 2968     		ldr	r1, [r5]
 123 008c 954A     		ldr	r2, .L71+20
 124 008e 1031     		adds	r1, r1, #16
 125 0090 2046     		mov	r0, r4
 126 0092 FFF7FEFF 		bl	lv_obj_add_style
 127              	.LVL18:
 128              	.LBE102:
 129 0096 12E0     		b	.L1
 130              	.L55:
 703:Drivers/lvgl/lvgl/src/extra/themes/default/lv_theme_default.c ****         lv_obj_add_style(obj, &styles->scrollbar, LV_PART_SCROLLBAR);
 131              		.loc 1 703 0
 132 0098 914D     		ldr	r5, .L71+16
 133 009a 0022     		movs	r2, #0
 134 009c 2968     		ldr	r1, [r5]
 135 009e 2046     		mov	r0, r4
 136 00a0 FFF7FEFF 		bl	lv_obj_add_style
 137              	.LVL19:
 704:Drivers/lvgl/lvgl/src/extra/themes/default/lv_theme_default.c ****         lv_obj_add_style(obj, &styles->scrollbar_scrolled, LV_PART_SCROLLBAR | LV_STATE_SCROLLED);
 138              		.loc 1 704 0
 139 00a4 2968     		ldr	r1, [r5]
 140 00a6 4FF48032 		mov	r2, #65536
 141 00aa 0831     		adds	r1, r1, #8
 142 00ac 2046     		mov	r0, r4
 143 00ae FFF7FEFF 		bl	lv_obj_add_style
 144              	.LVL20:
 705:Drivers/lvgl/lvgl/src/extra/themes/default/lv_theme_default.c ****         return;
 145              		.loc 1 705 0
 146 00b2 2968     		ldr	r1, [r5]
 147 00b4 8B4A     		ldr	r2, .L71+20
 148 00b6 1031     		adds	r1, r1, #16
 149 00b8 2046     		mov	r0, r4
 150 00ba FFF7FEFF 		bl	lv_obj_add_style
 151              	.LVL21:
 152              	.L1:
 753:Drivers/lvgl/lvgl/src/extra/themes/default/lv_theme_default.c ****     }
 754:Drivers/lvgl/lvgl/src/extra/themes/default/lv_theme_default.c **** #if LV_USE_BTN
 755:Drivers/lvgl/lvgl/src/extra/themes/default/lv_theme_default.c ****     else if(lv_obj_check_type(obj, &lv_btn_class)) {
 756:Drivers/lvgl/lvgl/src/extra/themes/default/lv_theme_default.c ****         lv_obj_add_style(obj, &styles->btn, 0);
 757:Drivers/lvgl/lvgl/src/extra/themes/default/lv_theme_default.c ****         lv_obj_add_style(obj, &styles->bg_color_primary, 0);
 758:Drivers/lvgl/lvgl/src/extra/themes/default/lv_theme_default.c ****         lv_obj_add_style(obj, &styles->transition_delayed, 0);
ARM GAS  /tmp/cc6wDDAF.s 			page 17


 759:Drivers/lvgl/lvgl/src/extra/themes/default/lv_theme_default.c ****         lv_obj_add_style(obj, &styles->pressed, LV_STATE_PRESSED);
 760:Drivers/lvgl/lvgl/src/extra/themes/default/lv_theme_default.c ****         lv_obj_add_style(obj, &styles->transition_normal, LV_STATE_PRESSED);
 761:Drivers/lvgl/lvgl/src/extra/themes/default/lv_theme_default.c ****         lv_obj_add_style(obj, &styles->outline_primary, LV_STATE_FOCUS_KEY);
 762:Drivers/lvgl/lvgl/src/extra/themes/default/lv_theme_default.c **** #if LV_THEME_DEFAULT_GROW
 763:Drivers/lvgl/lvgl/src/extra/themes/default/lv_theme_default.c ****         lv_obj_add_style(obj, &styles->grow, LV_STATE_PRESSED);
 764:Drivers/lvgl/lvgl/src/extra/themes/default/lv_theme_default.c **** #endif
 765:Drivers/lvgl/lvgl/src/extra/themes/default/lv_theme_default.c ****         lv_obj_add_style(obj, &styles->bg_color_secondary, LV_STATE_CHECKED);
 766:Drivers/lvgl/lvgl/src/extra/themes/default/lv_theme_default.c ****         lv_obj_add_style(obj, &styles->disabled, LV_STATE_DISABLED);
 767:Drivers/lvgl/lvgl/src/extra/themes/default/lv_theme_default.c **** 
 768:Drivers/lvgl/lvgl/src/extra/themes/default/lv_theme_default.c **** #if LV_USE_MENU
 769:Drivers/lvgl/lvgl/src/extra/themes/default/lv_theme_default.c ****         if(lv_obj_check_type(lv_obj_get_parent(obj), &lv_menu_sidebar_header_cont_class) ||
 770:Drivers/lvgl/lvgl/src/extra/themes/default/lv_theme_default.c ****            lv_obj_check_type(lv_obj_get_parent(obj), &lv_menu_main_header_cont_class)) {
 771:Drivers/lvgl/lvgl/src/extra/themes/default/lv_theme_default.c ****             lv_obj_add_style(obj, &styles->menu_header_btn, 0);
 772:Drivers/lvgl/lvgl/src/extra/themes/default/lv_theme_default.c ****             lv_obj_add_style(obj, &styles->menu_pressed, LV_STATE_PRESSED);
 773:Drivers/lvgl/lvgl/src/extra/themes/default/lv_theme_default.c ****         }
 774:Drivers/lvgl/lvgl/src/extra/themes/default/lv_theme_default.c **** #endif
 775:Drivers/lvgl/lvgl/src/extra/themes/default/lv_theme_default.c ****     }
 776:Drivers/lvgl/lvgl/src/extra/themes/default/lv_theme_default.c **** #endif
 777:Drivers/lvgl/lvgl/src/extra/themes/default/lv_theme_default.c **** 
 778:Drivers/lvgl/lvgl/src/extra/themes/default/lv_theme_default.c **** #if LV_USE_LINE
 779:Drivers/lvgl/lvgl/src/extra/themes/default/lv_theme_default.c ****     else if(lv_obj_check_type(obj, &lv_line_class)) {
 780:Drivers/lvgl/lvgl/src/extra/themes/default/lv_theme_default.c ****         lv_obj_add_style(obj, &styles->line, 0);
 781:Drivers/lvgl/lvgl/src/extra/themes/default/lv_theme_default.c ****     }
 782:Drivers/lvgl/lvgl/src/extra/themes/default/lv_theme_default.c **** #endif
 783:Drivers/lvgl/lvgl/src/extra/themes/default/lv_theme_default.c **** 
 784:Drivers/lvgl/lvgl/src/extra/themes/default/lv_theme_default.c **** #if LV_USE_BTNMATRIX
 785:Drivers/lvgl/lvgl/src/extra/themes/default/lv_theme_default.c ****     else if(lv_obj_check_type(obj, &lv_btnmatrix_class)) {
 786:Drivers/lvgl/lvgl/src/extra/themes/default/lv_theme_default.c **** #if LV_USE_MSGBOX
 787:Drivers/lvgl/lvgl/src/extra/themes/default/lv_theme_default.c ****         if(lv_obj_check_type(lv_obj_get_parent(obj), &lv_msgbox_class)) {
 788:Drivers/lvgl/lvgl/src/extra/themes/default/lv_theme_default.c ****             lv_obj_add_style(obj, &styles->msgbox_btn_bg, 0);
 789:Drivers/lvgl/lvgl/src/extra/themes/default/lv_theme_default.c ****             lv_obj_add_style(obj, &styles->pad_gap, 0);
 790:Drivers/lvgl/lvgl/src/extra/themes/default/lv_theme_default.c ****             lv_obj_add_style(obj, &styles->btn, LV_PART_ITEMS);
 791:Drivers/lvgl/lvgl/src/extra/themes/default/lv_theme_default.c ****             lv_obj_add_style(obj, &styles->pressed, LV_PART_ITEMS | LV_STATE_PRESSED);
 792:Drivers/lvgl/lvgl/src/extra/themes/default/lv_theme_default.c ****             lv_obj_add_style(obj, &styles->disabled, LV_PART_ITEMS | LV_STATE_DISABLED);
 793:Drivers/lvgl/lvgl/src/extra/themes/default/lv_theme_default.c ****             lv_obj_add_style(obj, &styles->bg_color_primary, LV_PART_ITEMS | LV_STATE_CHECKED);
 794:Drivers/lvgl/lvgl/src/extra/themes/default/lv_theme_default.c ****             lv_obj_add_style(obj, &styles->bg_color_primary_muted, LV_PART_ITEMS | LV_STATE_FOCUS_K
 795:Drivers/lvgl/lvgl/src/extra/themes/default/lv_theme_default.c ****             lv_obj_add_style(obj, &styles->bg_color_secondary_muted, LV_PART_ITEMS | LV_STATE_EDITE
 796:Drivers/lvgl/lvgl/src/extra/themes/default/lv_theme_default.c ****             return;
 797:Drivers/lvgl/lvgl/src/extra/themes/default/lv_theme_default.c ****         }
 798:Drivers/lvgl/lvgl/src/extra/themes/default/lv_theme_default.c **** #endif
 799:Drivers/lvgl/lvgl/src/extra/themes/default/lv_theme_default.c **** #if LV_USE_TABVIEW
 800:Drivers/lvgl/lvgl/src/extra/themes/default/lv_theme_default.c ****         if(lv_obj_check_type(lv_obj_get_parent(obj), &lv_tabview_class)) {
 801:Drivers/lvgl/lvgl/src/extra/themes/default/lv_theme_default.c ****             lv_obj_add_style(obj, &styles->bg_color_white, 0);
 802:Drivers/lvgl/lvgl/src/extra/themes/default/lv_theme_default.c ****             lv_obj_add_style(obj, &styles->outline_primary, LV_STATE_FOCUS_KEY);
 803:Drivers/lvgl/lvgl/src/extra/themes/default/lv_theme_default.c ****             lv_obj_add_style(obj, &styles->tab_bg_focus, LV_STATE_FOCUS_KEY);
 804:Drivers/lvgl/lvgl/src/extra/themes/default/lv_theme_default.c ****             lv_obj_add_style(obj, &styles->pressed, LV_PART_ITEMS | LV_STATE_PRESSED);
 805:Drivers/lvgl/lvgl/src/extra/themes/default/lv_theme_default.c ****             lv_obj_add_style(obj, &styles->bg_color_primary_muted, LV_PART_ITEMS | LV_STATE_CHECKED
 806:Drivers/lvgl/lvgl/src/extra/themes/default/lv_theme_default.c ****             lv_obj_add_style(obj, &styles->tab_btn, LV_PART_ITEMS | LV_STATE_CHECKED);
 807:Drivers/lvgl/lvgl/src/extra/themes/default/lv_theme_default.c ****             lv_obj_add_style(obj, &styles->outline_primary, LV_PART_ITEMS | LV_STATE_FOCUS_KEY);
 808:Drivers/lvgl/lvgl/src/extra/themes/default/lv_theme_default.c ****             lv_obj_add_style(obj, &styles->outline_secondary, LV_PART_ITEMS | LV_STATE_EDITED);
 809:Drivers/lvgl/lvgl/src/extra/themes/default/lv_theme_default.c ****             lv_obj_add_style(obj, &styles->tab_bg_focus, LV_PART_ITEMS | LV_STATE_FOCUS_KEY);
 810:Drivers/lvgl/lvgl/src/extra/themes/default/lv_theme_default.c ****             return;
 811:Drivers/lvgl/lvgl/src/extra/themes/default/lv_theme_default.c ****         }
 812:Drivers/lvgl/lvgl/src/extra/themes/default/lv_theme_default.c **** #endif
 813:Drivers/lvgl/lvgl/src/extra/themes/default/lv_theme_default.c **** 
 814:Drivers/lvgl/lvgl/src/extra/themes/default/lv_theme_default.c **** #if LV_USE_CALENDAR
 815:Drivers/lvgl/lvgl/src/extra/themes/default/lv_theme_default.c ****         if(lv_obj_check_type(lv_obj_get_parent(obj), &lv_calendar_class)) {
ARM GAS  /tmp/cc6wDDAF.s 			page 18


 816:Drivers/lvgl/lvgl/src/extra/themes/default/lv_theme_default.c ****             lv_obj_add_style(obj, &styles->calendar_btnm_bg, 0);
 817:Drivers/lvgl/lvgl/src/extra/themes/default/lv_theme_default.c ****             lv_obj_add_style(obj, &styles->outline_primary, LV_STATE_FOCUS_KEY);
 818:Drivers/lvgl/lvgl/src/extra/themes/default/lv_theme_default.c ****             lv_obj_add_style(obj, &styles->outline_secondary, LV_STATE_EDITED);
 819:Drivers/lvgl/lvgl/src/extra/themes/default/lv_theme_default.c ****             lv_obj_add_style(obj, &styles->calendar_btnm_day, LV_PART_ITEMS);
 820:Drivers/lvgl/lvgl/src/extra/themes/default/lv_theme_default.c ****             lv_obj_add_style(obj, &styles->pressed, LV_PART_ITEMS | LV_STATE_PRESSED);
 821:Drivers/lvgl/lvgl/src/extra/themes/default/lv_theme_default.c ****             lv_obj_add_style(obj, &styles->disabled, LV_PART_ITEMS | LV_STATE_DISABLED);
 822:Drivers/lvgl/lvgl/src/extra/themes/default/lv_theme_default.c ****             lv_obj_add_style(obj, &styles->outline_primary, LV_PART_ITEMS | LV_STATE_FOCUS_KEY);
 823:Drivers/lvgl/lvgl/src/extra/themes/default/lv_theme_default.c ****             lv_obj_add_style(obj, &styles->outline_secondary, LV_PART_ITEMS | LV_STATE_EDITED);
 824:Drivers/lvgl/lvgl/src/extra/themes/default/lv_theme_default.c ****             return;
 825:Drivers/lvgl/lvgl/src/extra/themes/default/lv_theme_default.c ****         }
 826:Drivers/lvgl/lvgl/src/extra/themes/default/lv_theme_default.c **** #endif
 827:Drivers/lvgl/lvgl/src/extra/themes/default/lv_theme_default.c ****         lv_obj_add_style(obj, &styles->card, 0);
 828:Drivers/lvgl/lvgl/src/extra/themes/default/lv_theme_default.c ****         lv_obj_add_style(obj, &styles->outline_primary, LV_STATE_FOCUS_KEY);
 829:Drivers/lvgl/lvgl/src/extra/themes/default/lv_theme_default.c ****         lv_obj_add_style(obj, &styles->outline_secondary, LV_STATE_EDITED);
 830:Drivers/lvgl/lvgl/src/extra/themes/default/lv_theme_default.c ****         lv_obj_add_style(obj, &styles->btn, LV_PART_ITEMS);
 831:Drivers/lvgl/lvgl/src/extra/themes/default/lv_theme_default.c ****         lv_obj_add_style(obj, &styles->disabled, LV_PART_ITEMS | LV_STATE_DISABLED);
 832:Drivers/lvgl/lvgl/src/extra/themes/default/lv_theme_default.c ****         lv_obj_add_style(obj, &styles->pressed, LV_PART_ITEMS | LV_STATE_PRESSED);
 833:Drivers/lvgl/lvgl/src/extra/themes/default/lv_theme_default.c ****         lv_obj_add_style(obj, &styles->bg_color_primary, LV_PART_ITEMS | LV_STATE_CHECKED);
 834:Drivers/lvgl/lvgl/src/extra/themes/default/lv_theme_default.c ****         lv_obj_add_style(obj, &styles->outline_primary, LV_PART_ITEMS | LV_STATE_FOCUS_KEY);
 835:Drivers/lvgl/lvgl/src/extra/themes/default/lv_theme_default.c ****         lv_obj_add_style(obj, &styles->outline_secondary, LV_PART_ITEMS | LV_STATE_EDITED);
 836:Drivers/lvgl/lvgl/src/extra/themes/default/lv_theme_default.c ****     }
 837:Drivers/lvgl/lvgl/src/extra/themes/default/lv_theme_default.c **** #endif
 838:Drivers/lvgl/lvgl/src/extra/themes/default/lv_theme_default.c **** 
 839:Drivers/lvgl/lvgl/src/extra/themes/default/lv_theme_default.c **** #if LV_USE_BAR
 840:Drivers/lvgl/lvgl/src/extra/themes/default/lv_theme_default.c ****     else if(lv_obj_check_type(obj, &lv_bar_class)) {
 841:Drivers/lvgl/lvgl/src/extra/themes/default/lv_theme_default.c ****         lv_obj_add_style(obj, &styles->bg_color_primary_muted, 0);
 842:Drivers/lvgl/lvgl/src/extra/themes/default/lv_theme_default.c ****         lv_obj_add_style(obj, &styles->circle, 0);
 843:Drivers/lvgl/lvgl/src/extra/themes/default/lv_theme_default.c ****         lv_obj_add_style(obj, &styles->outline_primary, LV_STATE_FOCUS_KEY);
 844:Drivers/lvgl/lvgl/src/extra/themes/default/lv_theme_default.c ****         lv_obj_add_style(obj, &styles->outline_secondary, LV_STATE_EDITED);
 845:Drivers/lvgl/lvgl/src/extra/themes/default/lv_theme_default.c ****         lv_obj_add_style(obj, &styles->bg_color_primary, LV_PART_INDICATOR);
 846:Drivers/lvgl/lvgl/src/extra/themes/default/lv_theme_default.c ****         lv_obj_add_style(obj, &styles->circle, LV_PART_INDICATOR);
 847:Drivers/lvgl/lvgl/src/extra/themes/default/lv_theme_default.c ****     }
 848:Drivers/lvgl/lvgl/src/extra/themes/default/lv_theme_default.c **** #endif
 849:Drivers/lvgl/lvgl/src/extra/themes/default/lv_theme_default.c **** 
 850:Drivers/lvgl/lvgl/src/extra/themes/default/lv_theme_default.c **** #if LV_USE_SLIDER
 851:Drivers/lvgl/lvgl/src/extra/themes/default/lv_theme_default.c ****     else if(lv_obj_check_type(obj, &lv_slider_class)) {
 852:Drivers/lvgl/lvgl/src/extra/themes/default/lv_theme_default.c ****         lv_obj_add_style(obj, &styles->bg_color_primary_muted, 0);
 853:Drivers/lvgl/lvgl/src/extra/themes/default/lv_theme_default.c ****         lv_obj_add_style(obj, &styles->circle, 0);
 854:Drivers/lvgl/lvgl/src/extra/themes/default/lv_theme_default.c ****         lv_obj_add_style(obj, &styles->outline_primary, LV_STATE_FOCUS_KEY);
 855:Drivers/lvgl/lvgl/src/extra/themes/default/lv_theme_default.c ****         lv_obj_add_style(obj, &styles->outline_secondary, LV_STATE_EDITED);
 856:Drivers/lvgl/lvgl/src/extra/themes/default/lv_theme_default.c ****         lv_obj_add_style(obj, &styles->bg_color_primary, LV_PART_INDICATOR);
 857:Drivers/lvgl/lvgl/src/extra/themes/default/lv_theme_default.c ****         lv_obj_add_style(obj, &styles->circle, LV_PART_INDICATOR);
 858:Drivers/lvgl/lvgl/src/extra/themes/default/lv_theme_default.c ****         lv_obj_add_style(obj, &styles->knob, LV_PART_KNOB);
 859:Drivers/lvgl/lvgl/src/extra/themes/default/lv_theme_default.c **** #if LV_THEME_DEFAULT_GROW
 860:Drivers/lvgl/lvgl/src/extra/themes/default/lv_theme_default.c ****         lv_obj_add_style(obj, &styles->grow, LV_PART_KNOB | LV_STATE_PRESSED);
 861:Drivers/lvgl/lvgl/src/extra/themes/default/lv_theme_default.c **** #endif
 862:Drivers/lvgl/lvgl/src/extra/themes/default/lv_theme_default.c ****         lv_obj_add_style(obj, &styles->transition_delayed, LV_PART_KNOB);
 863:Drivers/lvgl/lvgl/src/extra/themes/default/lv_theme_default.c ****         lv_obj_add_style(obj, &styles->transition_normal, LV_PART_KNOB | LV_STATE_PRESSED);
 864:Drivers/lvgl/lvgl/src/extra/themes/default/lv_theme_default.c ****     }
 865:Drivers/lvgl/lvgl/src/extra/themes/default/lv_theme_default.c **** #endif
 866:Drivers/lvgl/lvgl/src/extra/themes/default/lv_theme_default.c **** 
 867:Drivers/lvgl/lvgl/src/extra/themes/default/lv_theme_default.c **** #if LV_USE_TABLE
 868:Drivers/lvgl/lvgl/src/extra/themes/default/lv_theme_default.c ****     else if(lv_obj_check_type(obj, &lv_table_class)) {
 869:Drivers/lvgl/lvgl/src/extra/themes/default/lv_theme_default.c ****         lv_obj_add_style(obj, &styles->card, 0);
 870:Drivers/lvgl/lvgl/src/extra/themes/default/lv_theme_default.c ****         lv_obj_add_style(obj, &styles->pad_zero, 0);
 871:Drivers/lvgl/lvgl/src/extra/themes/default/lv_theme_default.c ****         lv_obj_add_style(obj, &styles->no_radius, 0);
 872:Drivers/lvgl/lvgl/src/extra/themes/default/lv_theme_default.c ****         lv_obj_add_style(obj, &styles->outline_primary, LV_STATE_FOCUS_KEY);
ARM GAS  /tmp/cc6wDDAF.s 			page 19


 873:Drivers/lvgl/lvgl/src/extra/themes/default/lv_theme_default.c ****         lv_obj_add_style(obj, &styles->outline_secondary, LV_STATE_EDITED);
 874:Drivers/lvgl/lvgl/src/extra/themes/default/lv_theme_default.c ****         lv_obj_add_style(obj, &styles->scrollbar, LV_PART_SCROLLBAR);
 875:Drivers/lvgl/lvgl/src/extra/themes/default/lv_theme_default.c ****         lv_obj_add_style(obj, &styles->scrollbar_scrolled, LV_PART_SCROLLBAR | LV_STATE_SCROLLED);
 876:Drivers/lvgl/lvgl/src/extra/themes/default/lv_theme_default.c ****         lv_obj_add_style(obj, &styles->bg_color_white, LV_PART_ITEMS);
 877:Drivers/lvgl/lvgl/src/extra/themes/default/lv_theme_default.c ****         lv_obj_add_style(obj, &styles->table_cell, LV_PART_ITEMS);
 878:Drivers/lvgl/lvgl/src/extra/themes/default/lv_theme_default.c ****         lv_obj_add_style(obj, &styles->pad_normal, LV_PART_ITEMS);
 879:Drivers/lvgl/lvgl/src/extra/themes/default/lv_theme_default.c ****         lv_obj_add_style(obj, &styles->pressed, LV_PART_ITEMS | LV_STATE_PRESSED);
 880:Drivers/lvgl/lvgl/src/extra/themes/default/lv_theme_default.c ****         lv_obj_add_style(obj, &styles->bg_color_primary, LV_PART_ITEMS | LV_STATE_FOCUS_KEY);
 881:Drivers/lvgl/lvgl/src/extra/themes/default/lv_theme_default.c ****         lv_obj_add_style(obj, &styles->bg_color_secondary, LV_PART_ITEMS | LV_STATE_EDITED);
 882:Drivers/lvgl/lvgl/src/extra/themes/default/lv_theme_default.c ****     }
 883:Drivers/lvgl/lvgl/src/extra/themes/default/lv_theme_default.c **** #endif
 884:Drivers/lvgl/lvgl/src/extra/themes/default/lv_theme_default.c **** 
 885:Drivers/lvgl/lvgl/src/extra/themes/default/lv_theme_default.c **** #if LV_USE_CHECKBOX
 886:Drivers/lvgl/lvgl/src/extra/themes/default/lv_theme_default.c ****     else if(lv_obj_check_type(obj, &lv_checkbox_class)) {
 887:Drivers/lvgl/lvgl/src/extra/themes/default/lv_theme_default.c ****         lv_obj_add_style(obj, &styles->pad_gap, 0);
 888:Drivers/lvgl/lvgl/src/extra/themes/default/lv_theme_default.c ****         lv_obj_add_style(obj, &styles->outline_primary, LV_STATE_FOCUS_KEY);
 889:Drivers/lvgl/lvgl/src/extra/themes/default/lv_theme_default.c ****         lv_obj_add_style(obj, &styles->disabled, LV_PART_INDICATOR | LV_STATE_DISABLED);
 890:Drivers/lvgl/lvgl/src/extra/themes/default/lv_theme_default.c ****         lv_obj_add_style(obj, &styles->cb_marker, LV_PART_INDICATOR);
 891:Drivers/lvgl/lvgl/src/extra/themes/default/lv_theme_default.c ****         lv_obj_add_style(obj, &styles->bg_color_primary, LV_PART_INDICATOR | LV_STATE_CHECKED);
 892:Drivers/lvgl/lvgl/src/extra/themes/default/lv_theme_default.c ****         lv_obj_add_style(obj, &styles->cb_marker_checked, LV_PART_INDICATOR | LV_STATE_CHECKED);
 893:Drivers/lvgl/lvgl/src/extra/themes/default/lv_theme_default.c ****         lv_obj_add_style(obj, &styles->pressed, LV_PART_INDICATOR | LV_STATE_PRESSED);
 894:Drivers/lvgl/lvgl/src/extra/themes/default/lv_theme_default.c **** #if LV_THEME_DEFAULT_GROW
 895:Drivers/lvgl/lvgl/src/extra/themes/default/lv_theme_default.c ****         lv_obj_add_style(obj, &styles->grow, LV_PART_INDICATOR | LV_STATE_PRESSED);
 896:Drivers/lvgl/lvgl/src/extra/themes/default/lv_theme_default.c **** #endif
 897:Drivers/lvgl/lvgl/src/extra/themes/default/lv_theme_default.c ****         lv_obj_add_style(obj, &styles->transition_normal, LV_PART_INDICATOR | LV_STATE_PRESSED);
 898:Drivers/lvgl/lvgl/src/extra/themes/default/lv_theme_default.c ****         lv_obj_add_style(obj, &styles->transition_delayed, LV_PART_INDICATOR);
 899:Drivers/lvgl/lvgl/src/extra/themes/default/lv_theme_default.c ****     }
 900:Drivers/lvgl/lvgl/src/extra/themes/default/lv_theme_default.c **** #endif
 901:Drivers/lvgl/lvgl/src/extra/themes/default/lv_theme_default.c **** 
 902:Drivers/lvgl/lvgl/src/extra/themes/default/lv_theme_default.c **** #if LV_USE_SWITCH
 903:Drivers/lvgl/lvgl/src/extra/themes/default/lv_theme_default.c ****     else if(lv_obj_check_type(obj, &lv_switch_class)) {
 904:Drivers/lvgl/lvgl/src/extra/themes/default/lv_theme_default.c ****         lv_obj_add_style(obj, &styles->bg_color_grey, 0);
 905:Drivers/lvgl/lvgl/src/extra/themes/default/lv_theme_default.c ****         lv_obj_add_style(obj, &styles->circle, 0);
 906:Drivers/lvgl/lvgl/src/extra/themes/default/lv_theme_default.c ****         lv_obj_add_style(obj, &styles->anim_fast, 0);
 907:Drivers/lvgl/lvgl/src/extra/themes/default/lv_theme_default.c ****         lv_obj_add_style(obj, &styles->disabled, LV_STATE_DISABLED);
 908:Drivers/lvgl/lvgl/src/extra/themes/default/lv_theme_default.c ****         lv_obj_add_style(obj, &styles->outline_primary, LV_STATE_FOCUS_KEY);
 909:Drivers/lvgl/lvgl/src/extra/themes/default/lv_theme_default.c ****         lv_obj_add_style(obj, &styles->bg_color_primary, LV_PART_INDICATOR | LV_STATE_CHECKED);
 910:Drivers/lvgl/lvgl/src/extra/themes/default/lv_theme_default.c ****         lv_obj_add_style(obj, &styles->circle, LV_PART_INDICATOR);
 911:Drivers/lvgl/lvgl/src/extra/themes/default/lv_theme_default.c ****         lv_obj_add_style(obj, &styles->disabled, LV_PART_INDICATOR | LV_STATE_DISABLED);
 912:Drivers/lvgl/lvgl/src/extra/themes/default/lv_theme_default.c ****         lv_obj_add_style(obj, &styles->knob, LV_PART_KNOB);
 913:Drivers/lvgl/lvgl/src/extra/themes/default/lv_theme_default.c ****         lv_obj_add_style(obj, &styles->bg_color_white, LV_PART_KNOB);
 914:Drivers/lvgl/lvgl/src/extra/themes/default/lv_theme_default.c ****         lv_obj_add_style(obj, &styles->switch_knob, LV_PART_KNOB);
 915:Drivers/lvgl/lvgl/src/extra/themes/default/lv_theme_default.c ****         lv_obj_add_style(obj, &styles->disabled, LV_PART_KNOB | LV_STATE_DISABLED);
 916:Drivers/lvgl/lvgl/src/extra/themes/default/lv_theme_default.c **** 
 917:Drivers/lvgl/lvgl/src/extra/themes/default/lv_theme_default.c ****         lv_obj_add_style(obj, &styles->transition_normal, LV_PART_INDICATOR | LV_STATE_CHECKED);
 918:Drivers/lvgl/lvgl/src/extra/themes/default/lv_theme_default.c ****         lv_obj_add_style(obj, &styles->transition_normal, LV_PART_INDICATOR);
 919:Drivers/lvgl/lvgl/src/extra/themes/default/lv_theme_default.c ****     }
 920:Drivers/lvgl/lvgl/src/extra/themes/default/lv_theme_default.c **** #endif
 921:Drivers/lvgl/lvgl/src/extra/themes/default/lv_theme_default.c **** 
 922:Drivers/lvgl/lvgl/src/extra/themes/default/lv_theme_default.c **** #if LV_USE_CHART
 923:Drivers/lvgl/lvgl/src/extra/themes/default/lv_theme_default.c ****     else if(lv_obj_check_type(obj, &lv_chart_class)) {
 924:Drivers/lvgl/lvgl/src/extra/themes/default/lv_theme_default.c ****         lv_obj_add_style(obj, &styles->card, 0);
 925:Drivers/lvgl/lvgl/src/extra/themes/default/lv_theme_default.c ****         lv_obj_add_style(obj, &styles->pad_small, 0);
 926:Drivers/lvgl/lvgl/src/extra/themes/default/lv_theme_default.c ****         lv_obj_add_style(obj, &styles->chart_bg, 0);
 927:Drivers/lvgl/lvgl/src/extra/themes/default/lv_theme_default.c ****         lv_obj_add_style(obj, &styles->scrollbar, LV_PART_SCROLLBAR);
 928:Drivers/lvgl/lvgl/src/extra/themes/default/lv_theme_default.c ****         lv_obj_add_style(obj, &styles->scrollbar_scrolled, LV_PART_SCROLLBAR | LV_STATE_SCROLLED);
 929:Drivers/lvgl/lvgl/src/extra/themes/default/lv_theme_default.c ****         lv_obj_add_style(obj, &styles->chart_series, LV_PART_ITEMS);
ARM GAS  /tmp/cc6wDDAF.s 			page 20


 930:Drivers/lvgl/lvgl/src/extra/themes/default/lv_theme_default.c ****         lv_obj_add_style(obj, &styles->chart_indic, LV_PART_INDICATOR);
 931:Drivers/lvgl/lvgl/src/extra/themes/default/lv_theme_default.c ****         lv_obj_add_style(obj, &styles->chart_ticks, LV_PART_TICKS);
 932:Drivers/lvgl/lvgl/src/extra/themes/default/lv_theme_default.c ****         lv_obj_add_style(obj, &styles->chart_series, LV_PART_CURSOR);
 933:Drivers/lvgl/lvgl/src/extra/themes/default/lv_theme_default.c ****     }
 934:Drivers/lvgl/lvgl/src/extra/themes/default/lv_theme_default.c **** #endif
 935:Drivers/lvgl/lvgl/src/extra/themes/default/lv_theme_default.c **** 
 936:Drivers/lvgl/lvgl/src/extra/themes/default/lv_theme_default.c **** #if LV_USE_ROLLER
 937:Drivers/lvgl/lvgl/src/extra/themes/default/lv_theme_default.c ****     else if(lv_obj_check_type(obj, &lv_roller_class)) {
 938:Drivers/lvgl/lvgl/src/extra/themes/default/lv_theme_default.c ****         lv_obj_add_style(obj, &styles->card, 0);
 939:Drivers/lvgl/lvgl/src/extra/themes/default/lv_theme_default.c ****         lv_obj_add_style(obj, &styles->anim, 0);
 940:Drivers/lvgl/lvgl/src/extra/themes/default/lv_theme_default.c ****         lv_obj_add_style(obj, &styles->line_space_large, 0);
 941:Drivers/lvgl/lvgl/src/extra/themes/default/lv_theme_default.c ****         lv_obj_add_style(obj, &styles->text_align_center, 0);
 942:Drivers/lvgl/lvgl/src/extra/themes/default/lv_theme_default.c ****         lv_obj_add_style(obj, &styles->outline_primary, LV_STATE_FOCUS_KEY);
 943:Drivers/lvgl/lvgl/src/extra/themes/default/lv_theme_default.c ****         lv_obj_add_style(obj, &styles->outline_secondary, LV_STATE_EDITED);
 944:Drivers/lvgl/lvgl/src/extra/themes/default/lv_theme_default.c ****         lv_obj_add_style(obj, &styles->bg_color_primary, LV_PART_SELECTED);
 945:Drivers/lvgl/lvgl/src/extra/themes/default/lv_theme_default.c ****     }
 946:Drivers/lvgl/lvgl/src/extra/themes/default/lv_theme_default.c **** #endif
 947:Drivers/lvgl/lvgl/src/extra/themes/default/lv_theme_default.c **** 
 948:Drivers/lvgl/lvgl/src/extra/themes/default/lv_theme_default.c **** #if LV_USE_DROPDOWN
 949:Drivers/lvgl/lvgl/src/extra/themes/default/lv_theme_default.c ****     else if(lv_obj_check_type(obj, &lv_dropdown_class)) {
 950:Drivers/lvgl/lvgl/src/extra/themes/default/lv_theme_default.c ****         lv_obj_add_style(obj, &styles->card, 0);
 951:Drivers/lvgl/lvgl/src/extra/themes/default/lv_theme_default.c ****         lv_obj_add_style(obj, &styles->pad_small, 0);
 952:Drivers/lvgl/lvgl/src/extra/themes/default/lv_theme_default.c ****         lv_obj_add_style(obj, &styles->transition_delayed, 0);
 953:Drivers/lvgl/lvgl/src/extra/themes/default/lv_theme_default.c ****         lv_obj_add_style(obj, &styles->transition_normal, LV_STATE_PRESSED);
 954:Drivers/lvgl/lvgl/src/extra/themes/default/lv_theme_default.c ****         lv_obj_add_style(obj, &styles->pressed, LV_STATE_PRESSED);
 955:Drivers/lvgl/lvgl/src/extra/themes/default/lv_theme_default.c ****         lv_obj_add_style(obj, &styles->outline_primary, LV_STATE_FOCUS_KEY);
 956:Drivers/lvgl/lvgl/src/extra/themes/default/lv_theme_default.c ****         lv_obj_add_style(obj, &styles->outline_secondary, LV_STATE_EDITED);
 957:Drivers/lvgl/lvgl/src/extra/themes/default/lv_theme_default.c ****         lv_obj_add_style(obj, &styles->transition_normal, LV_PART_INDICATOR);
 958:Drivers/lvgl/lvgl/src/extra/themes/default/lv_theme_default.c ****     }
 959:Drivers/lvgl/lvgl/src/extra/themes/default/lv_theme_default.c ****     else if(lv_obj_check_type(obj, &lv_dropdownlist_class)) {
 960:Drivers/lvgl/lvgl/src/extra/themes/default/lv_theme_default.c ****         lv_obj_add_style(obj, &styles->card, 0);
 961:Drivers/lvgl/lvgl/src/extra/themes/default/lv_theme_default.c ****         lv_obj_add_style(obj, &styles->clip_corner, 0);
 962:Drivers/lvgl/lvgl/src/extra/themes/default/lv_theme_default.c ****         lv_obj_add_style(obj, &styles->line_space_large, 0);
 963:Drivers/lvgl/lvgl/src/extra/themes/default/lv_theme_default.c ****         lv_obj_add_style(obj, &styles->dropdown_list, 0);
 964:Drivers/lvgl/lvgl/src/extra/themes/default/lv_theme_default.c ****         lv_obj_add_style(obj, &styles->scrollbar, LV_PART_SCROLLBAR);
 965:Drivers/lvgl/lvgl/src/extra/themes/default/lv_theme_default.c ****         lv_obj_add_style(obj, &styles->scrollbar_scrolled, LV_PART_SCROLLBAR | LV_STATE_SCROLLED);
 966:Drivers/lvgl/lvgl/src/extra/themes/default/lv_theme_default.c ****         lv_obj_add_style(obj, &styles->bg_color_white, LV_PART_SELECTED);
 967:Drivers/lvgl/lvgl/src/extra/themes/default/lv_theme_default.c ****         lv_obj_add_style(obj, &styles->bg_color_primary, LV_PART_SELECTED | LV_STATE_CHECKED);
 968:Drivers/lvgl/lvgl/src/extra/themes/default/lv_theme_default.c ****         lv_obj_add_style(obj, &styles->pressed, LV_PART_SELECTED | LV_STATE_PRESSED);
 969:Drivers/lvgl/lvgl/src/extra/themes/default/lv_theme_default.c ****     }
 970:Drivers/lvgl/lvgl/src/extra/themes/default/lv_theme_default.c **** #endif
 971:Drivers/lvgl/lvgl/src/extra/themes/default/lv_theme_default.c **** 
 972:Drivers/lvgl/lvgl/src/extra/themes/default/lv_theme_default.c **** #if LV_USE_ARC
 973:Drivers/lvgl/lvgl/src/extra/themes/default/lv_theme_default.c ****     else if(lv_obj_check_type(obj, &lv_arc_class)) {
 974:Drivers/lvgl/lvgl/src/extra/themes/default/lv_theme_default.c ****         lv_obj_add_style(obj, &styles->arc_indic, 0);
 975:Drivers/lvgl/lvgl/src/extra/themes/default/lv_theme_default.c ****         lv_obj_add_style(obj, &styles->arc_indic, LV_PART_INDICATOR);
 976:Drivers/lvgl/lvgl/src/extra/themes/default/lv_theme_default.c ****         lv_obj_add_style(obj, &styles->arc_indic_primary, LV_PART_INDICATOR);
 977:Drivers/lvgl/lvgl/src/extra/themes/default/lv_theme_default.c ****         lv_obj_add_style(obj, &styles->knob, LV_PART_KNOB);
 978:Drivers/lvgl/lvgl/src/extra/themes/default/lv_theme_default.c ****     }
 979:Drivers/lvgl/lvgl/src/extra/themes/default/lv_theme_default.c **** #endif
 980:Drivers/lvgl/lvgl/src/extra/themes/default/lv_theme_default.c **** 
 981:Drivers/lvgl/lvgl/src/extra/themes/default/lv_theme_default.c **** 
 982:Drivers/lvgl/lvgl/src/extra/themes/default/lv_theme_default.c **** #if LV_USE_SPINNER
 983:Drivers/lvgl/lvgl/src/extra/themes/default/lv_theme_default.c ****     else if(lv_obj_check_type(obj, &lv_spinner_class)) {
 984:Drivers/lvgl/lvgl/src/extra/themes/default/lv_theme_default.c ****         lv_obj_add_style(obj, &styles->arc_indic, 0);
 985:Drivers/lvgl/lvgl/src/extra/themes/default/lv_theme_default.c ****         lv_obj_add_style(obj, &styles->arc_indic, LV_PART_INDICATOR);
 986:Drivers/lvgl/lvgl/src/extra/themes/default/lv_theme_default.c ****         lv_obj_add_style(obj, &styles->arc_indic_primary, LV_PART_INDICATOR);
ARM GAS  /tmp/cc6wDDAF.s 			page 21


 987:Drivers/lvgl/lvgl/src/extra/themes/default/lv_theme_default.c ****     }
 988:Drivers/lvgl/lvgl/src/extra/themes/default/lv_theme_default.c **** #endif
 989:Drivers/lvgl/lvgl/src/extra/themes/default/lv_theme_default.c **** 
 990:Drivers/lvgl/lvgl/src/extra/themes/default/lv_theme_default.c **** #if LV_USE_METER
 991:Drivers/lvgl/lvgl/src/extra/themes/default/lv_theme_default.c ****     else if(lv_obj_check_type(obj, &lv_meter_class)) {
 992:Drivers/lvgl/lvgl/src/extra/themes/default/lv_theme_default.c ****         lv_obj_add_style(obj, &styles->card, 0);
 993:Drivers/lvgl/lvgl/src/extra/themes/default/lv_theme_default.c ****         lv_obj_add_style(obj, &styles->circle, 0);
 994:Drivers/lvgl/lvgl/src/extra/themes/default/lv_theme_default.c ****         lv_obj_add_style(obj, &styles->meter_indic, LV_PART_INDICATOR);
 995:Drivers/lvgl/lvgl/src/extra/themes/default/lv_theme_default.c ****     }
 996:Drivers/lvgl/lvgl/src/extra/themes/default/lv_theme_default.c **** #endif
 997:Drivers/lvgl/lvgl/src/extra/themes/default/lv_theme_default.c **** 
 998:Drivers/lvgl/lvgl/src/extra/themes/default/lv_theme_default.c **** #if LV_USE_TEXTAREA
 999:Drivers/lvgl/lvgl/src/extra/themes/default/lv_theme_default.c ****     else if(lv_obj_check_type(obj, &lv_textarea_class)) {
1000:Drivers/lvgl/lvgl/src/extra/themes/default/lv_theme_default.c ****         lv_obj_add_style(obj, &styles->card, 0);
1001:Drivers/lvgl/lvgl/src/extra/themes/default/lv_theme_default.c ****         lv_obj_add_style(obj, &styles->pad_small, 0);
1002:Drivers/lvgl/lvgl/src/extra/themes/default/lv_theme_default.c ****         lv_obj_add_style(obj, &styles->disabled, LV_STATE_DISABLED);
1003:Drivers/lvgl/lvgl/src/extra/themes/default/lv_theme_default.c ****         lv_obj_add_style(obj, &styles->outline_primary, LV_STATE_FOCUS_KEY);
1004:Drivers/lvgl/lvgl/src/extra/themes/default/lv_theme_default.c ****         lv_obj_add_style(obj, &styles->outline_secondary, LV_STATE_EDITED);
1005:Drivers/lvgl/lvgl/src/extra/themes/default/lv_theme_default.c ****         lv_obj_add_style(obj, &styles->scrollbar, LV_PART_SCROLLBAR);
1006:Drivers/lvgl/lvgl/src/extra/themes/default/lv_theme_default.c ****         lv_obj_add_style(obj, &styles->scrollbar_scrolled, LV_PART_SCROLLBAR | LV_STATE_SCROLLED);
1007:Drivers/lvgl/lvgl/src/extra/themes/default/lv_theme_default.c ****         lv_obj_add_style(obj, &styles->ta_cursor, LV_PART_CURSOR | LV_STATE_FOCUSED);
1008:Drivers/lvgl/lvgl/src/extra/themes/default/lv_theme_default.c ****         lv_obj_add_style(obj, &styles->ta_placeholder, LV_PART_TEXTAREA_PLACEHOLDER);
1009:Drivers/lvgl/lvgl/src/extra/themes/default/lv_theme_default.c ****     }
1010:Drivers/lvgl/lvgl/src/extra/themes/default/lv_theme_default.c **** #endif
1011:Drivers/lvgl/lvgl/src/extra/themes/default/lv_theme_default.c **** 
1012:Drivers/lvgl/lvgl/src/extra/themes/default/lv_theme_default.c **** #if LV_USE_CALENDAR
1013:Drivers/lvgl/lvgl/src/extra/themes/default/lv_theme_default.c ****     else if(lv_obj_check_type(obj, &lv_calendar_class)) {
1014:Drivers/lvgl/lvgl/src/extra/themes/default/lv_theme_default.c ****         lv_obj_add_style(obj, &styles->card, 0);
1015:Drivers/lvgl/lvgl/src/extra/themes/default/lv_theme_default.c ****         lv_obj_add_style(obj, &styles->pad_zero, 0);
1016:Drivers/lvgl/lvgl/src/extra/themes/default/lv_theme_default.c ****     }
1017:Drivers/lvgl/lvgl/src/extra/themes/default/lv_theme_default.c **** #endif
1018:Drivers/lvgl/lvgl/src/extra/themes/default/lv_theme_default.c **** 
1019:Drivers/lvgl/lvgl/src/extra/themes/default/lv_theme_default.c **** #if LV_USE_CALENDAR_HEADER_ARROW
1020:Drivers/lvgl/lvgl/src/extra/themes/default/lv_theme_default.c ****     else if(lv_obj_check_type(obj, &lv_calendar_header_arrow_class)) {
1021:Drivers/lvgl/lvgl/src/extra/themes/default/lv_theme_default.c ****         lv_obj_add_style(obj, &styles->calendar_header, 0);
1022:Drivers/lvgl/lvgl/src/extra/themes/default/lv_theme_default.c ****     }
1023:Drivers/lvgl/lvgl/src/extra/themes/default/lv_theme_default.c **** #endif
1024:Drivers/lvgl/lvgl/src/extra/themes/default/lv_theme_default.c **** 
1025:Drivers/lvgl/lvgl/src/extra/themes/default/lv_theme_default.c **** #if LV_USE_CALENDAR_HEADER_DROPDOWN
1026:Drivers/lvgl/lvgl/src/extra/themes/default/lv_theme_default.c ****     else if(lv_obj_check_type(obj, &lv_calendar_header_dropdown_class)) {
1027:Drivers/lvgl/lvgl/src/extra/themes/default/lv_theme_default.c ****         lv_obj_add_style(obj, &styles->calendar_header, 0);
1028:Drivers/lvgl/lvgl/src/extra/themes/default/lv_theme_default.c ****     }
1029:Drivers/lvgl/lvgl/src/extra/themes/default/lv_theme_default.c **** #endif
1030:Drivers/lvgl/lvgl/src/extra/themes/default/lv_theme_default.c **** 
1031:Drivers/lvgl/lvgl/src/extra/themes/default/lv_theme_default.c **** #if LV_USE_KEYBOARD
1032:Drivers/lvgl/lvgl/src/extra/themes/default/lv_theme_default.c ****     else if(lv_obj_check_type(obj, &lv_keyboard_class)) {
1033:Drivers/lvgl/lvgl/src/extra/themes/default/lv_theme_default.c ****         lv_obj_add_style(obj, &styles->scr, 0);
1034:Drivers/lvgl/lvgl/src/extra/themes/default/lv_theme_default.c ****         lv_obj_add_style(obj, disp_size == DISP_LARGE ? &styles->pad_small : &styles->pad_tiny, 0);
1035:Drivers/lvgl/lvgl/src/extra/themes/default/lv_theme_default.c ****         lv_obj_add_style(obj, &styles->outline_primary, LV_STATE_FOCUS_KEY);
1036:Drivers/lvgl/lvgl/src/extra/themes/default/lv_theme_default.c ****         lv_obj_add_style(obj, &styles->outline_secondary, LV_STATE_EDITED);
1037:Drivers/lvgl/lvgl/src/extra/themes/default/lv_theme_default.c ****         lv_obj_add_style(obj, &styles->btn, LV_PART_ITEMS);
1038:Drivers/lvgl/lvgl/src/extra/themes/default/lv_theme_default.c ****         lv_obj_add_style(obj, &styles->disabled, LV_PART_ITEMS | LV_STATE_DISABLED);
1039:Drivers/lvgl/lvgl/src/extra/themes/default/lv_theme_default.c ****         lv_obj_add_style(obj, &styles->bg_color_white, LV_PART_ITEMS);
1040:Drivers/lvgl/lvgl/src/extra/themes/default/lv_theme_default.c ****         lv_obj_add_style(obj, &styles->keyboard_btn_bg, LV_PART_ITEMS);
1041:Drivers/lvgl/lvgl/src/extra/themes/default/lv_theme_default.c ****         lv_obj_add_style(obj, &styles->pressed, LV_PART_ITEMS | LV_STATE_PRESSED);
1042:Drivers/lvgl/lvgl/src/extra/themes/default/lv_theme_default.c ****         lv_obj_add_style(obj, &styles->bg_color_grey, LV_PART_ITEMS | LV_STATE_CHECKED);
1043:Drivers/lvgl/lvgl/src/extra/themes/default/lv_theme_default.c ****         lv_obj_add_style(obj, &styles->bg_color_primary_muted, LV_PART_ITEMS | LV_STATE_FOCUS_KEY);
ARM GAS  /tmp/cc6wDDAF.s 			page 22


1044:Drivers/lvgl/lvgl/src/extra/themes/default/lv_theme_default.c ****         lv_obj_add_style(obj, &styles->bg_color_secondary_muted, LV_PART_ITEMS | LV_STATE_EDITED);
1045:Drivers/lvgl/lvgl/src/extra/themes/default/lv_theme_default.c ****     }
1046:Drivers/lvgl/lvgl/src/extra/themes/default/lv_theme_default.c **** #endif
1047:Drivers/lvgl/lvgl/src/extra/themes/default/lv_theme_default.c **** #if LV_USE_LIST
1048:Drivers/lvgl/lvgl/src/extra/themes/default/lv_theme_default.c ****     else if(lv_obj_check_type(obj, &lv_list_class)) {
1049:Drivers/lvgl/lvgl/src/extra/themes/default/lv_theme_default.c ****         lv_obj_add_style(obj, &styles->card, 0);
1050:Drivers/lvgl/lvgl/src/extra/themes/default/lv_theme_default.c ****         lv_obj_add_style(obj, &styles->list_bg, 0);
1051:Drivers/lvgl/lvgl/src/extra/themes/default/lv_theme_default.c ****         lv_obj_add_style(obj, &styles->scrollbar, LV_PART_SCROLLBAR);
1052:Drivers/lvgl/lvgl/src/extra/themes/default/lv_theme_default.c ****         lv_obj_add_style(obj, &styles->scrollbar_scrolled, LV_PART_SCROLLBAR | LV_STATE_SCROLLED);
1053:Drivers/lvgl/lvgl/src/extra/themes/default/lv_theme_default.c ****         return;
1054:Drivers/lvgl/lvgl/src/extra/themes/default/lv_theme_default.c ****     }
1055:Drivers/lvgl/lvgl/src/extra/themes/default/lv_theme_default.c ****     else if(lv_obj_check_type(obj, &lv_list_text_class)) {
1056:Drivers/lvgl/lvgl/src/extra/themes/default/lv_theme_default.c ****         lv_obj_add_style(obj, &styles->bg_color_grey, 0);
1057:Drivers/lvgl/lvgl/src/extra/themes/default/lv_theme_default.c ****         lv_obj_add_style(obj, &styles->list_item_grow, 0);
1058:Drivers/lvgl/lvgl/src/extra/themes/default/lv_theme_default.c ****     }
1059:Drivers/lvgl/lvgl/src/extra/themes/default/lv_theme_default.c ****     else if(lv_obj_check_type(obj, &lv_list_btn_class)) {
1060:Drivers/lvgl/lvgl/src/extra/themes/default/lv_theme_default.c ****         lv_obj_add_style(obj, &styles->bg_color_white, 0);
1061:Drivers/lvgl/lvgl/src/extra/themes/default/lv_theme_default.c ****         lv_obj_add_style(obj, &styles->list_btn, 0);
1062:Drivers/lvgl/lvgl/src/extra/themes/default/lv_theme_default.c ****         lv_obj_add_style(obj, &styles->bg_color_primary, LV_STATE_FOCUS_KEY);
1063:Drivers/lvgl/lvgl/src/extra/themes/default/lv_theme_default.c ****         lv_obj_add_style(obj, &styles->list_item_grow, LV_STATE_FOCUS_KEY);
1064:Drivers/lvgl/lvgl/src/extra/themes/default/lv_theme_default.c ****         lv_obj_add_style(obj, &styles->list_item_grow, LV_STATE_PRESSED);
1065:Drivers/lvgl/lvgl/src/extra/themes/default/lv_theme_default.c ****         lv_obj_add_style(obj, &styles->pressed, LV_STATE_PRESSED);
1066:Drivers/lvgl/lvgl/src/extra/themes/default/lv_theme_default.c **** 
1067:Drivers/lvgl/lvgl/src/extra/themes/default/lv_theme_default.c ****     }
1068:Drivers/lvgl/lvgl/src/extra/themes/default/lv_theme_default.c **** #endif
1069:Drivers/lvgl/lvgl/src/extra/themes/default/lv_theme_default.c **** #if LV_USE_MENU
1070:Drivers/lvgl/lvgl/src/extra/themes/default/lv_theme_default.c ****     else if(lv_obj_check_type(obj, &lv_menu_class)) {
1071:Drivers/lvgl/lvgl/src/extra/themes/default/lv_theme_default.c ****         lv_obj_add_style(obj, &styles->card, 0);
1072:Drivers/lvgl/lvgl/src/extra/themes/default/lv_theme_default.c ****         lv_obj_add_style(obj, &styles->menu_bg, 0);
1073:Drivers/lvgl/lvgl/src/extra/themes/default/lv_theme_default.c ****     }
1074:Drivers/lvgl/lvgl/src/extra/themes/default/lv_theme_default.c ****     else if(lv_obj_check_type(obj, &lv_menu_sidebar_cont_class)) {
1075:Drivers/lvgl/lvgl/src/extra/themes/default/lv_theme_default.c ****         lv_obj_add_style(obj, &styles->menu_sidebar_cont, 0);
1076:Drivers/lvgl/lvgl/src/extra/themes/default/lv_theme_default.c ****         lv_obj_add_style(obj, &styles->scrollbar, LV_PART_SCROLLBAR);
1077:Drivers/lvgl/lvgl/src/extra/themes/default/lv_theme_default.c ****         lv_obj_add_style(obj, &styles->scrollbar_scrolled, LV_PART_SCROLLBAR | LV_STATE_SCROLLED);
1078:Drivers/lvgl/lvgl/src/extra/themes/default/lv_theme_default.c ****     }
1079:Drivers/lvgl/lvgl/src/extra/themes/default/lv_theme_default.c ****     else if(lv_obj_check_type(obj, &lv_menu_main_cont_class)) {
1080:Drivers/lvgl/lvgl/src/extra/themes/default/lv_theme_default.c ****         lv_obj_add_style(obj, &styles->menu_main_cont, 0);
1081:Drivers/lvgl/lvgl/src/extra/themes/default/lv_theme_default.c ****         lv_obj_add_style(obj, &styles->scrollbar, LV_PART_SCROLLBAR);
1082:Drivers/lvgl/lvgl/src/extra/themes/default/lv_theme_default.c ****         lv_obj_add_style(obj, &styles->scrollbar_scrolled, LV_PART_SCROLLBAR | LV_STATE_SCROLLED);
1083:Drivers/lvgl/lvgl/src/extra/themes/default/lv_theme_default.c ****     }
1084:Drivers/lvgl/lvgl/src/extra/themes/default/lv_theme_default.c ****     else if(lv_obj_check_type(obj, &lv_menu_cont_class)) {
1085:Drivers/lvgl/lvgl/src/extra/themes/default/lv_theme_default.c ****         lv_obj_add_style(obj, &styles->menu_cont, 0);
1086:Drivers/lvgl/lvgl/src/extra/themes/default/lv_theme_default.c ****         lv_obj_add_style(obj, &styles->menu_pressed, LV_STATE_PRESSED);
1087:Drivers/lvgl/lvgl/src/extra/themes/default/lv_theme_default.c ****         lv_obj_add_style(obj, &styles->bg_color_primary_muted, LV_STATE_PRESSED | LV_STATE_CHECKED)
1088:Drivers/lvgl/lvgl/src/extra/themes/default/lv_theme_default.c ****         lv_obj_add_style(obj, &styles->bg_color_primary_muted, LV_STATE_CHECKED);
1089:Drivers/lvgl/lvgl/src/extra/themes/default/lv_theme_default.c ****         lv_obj_add_style(obj, &styles->bg_color_primary, LV_STATE_FOCUS_KEY);
1090:Drivers/lvgl/lvgl/src/extra/themes/default/lv_theme_default.c ****     }
1091:Drivers/lvgl/lvgl/src/extra/themes/default/lv_theme_default.c ****     else if(lv_obj_check_type(obj, &lv_menu_sidebar_header_cont_class) ||
1092:Drivers/lvgl/lvgl/src/extra/themes/default/lv_theme_default.c ****             lv_obj_check_type(obj, &lv_menu_main_header_cont_class)) {
1093:Drivers/lvgl/lvgl/src/extra/themes/default/lv_theme_default.c ****         lv_obj_add_style(obj, &styles->menu_header_cont, 0);
1094:Drivers/lvgl/lvgl/src/extra/themes/default/lv_theme_default.c ****     }
1095:Drivers/lvgl/lvgl/src/extra/themes/default/lv_theme_default.c ****     else if(lv_obj_check_type(obj, &lv_menu_page_class)) {
1096:Drivers/lvgl/lvgl/src/extra/themes/default/lv_theme_default.c ****         lv_obj_add_style(obj, &styles->menu_page, 0);
1097:Drivers/lvgl/lvgl/src/extra/themes/default/lv_theme_default.c ****         lv_obj_add_style(obj, &styles->scrollbar, LV_PART_SCROLLBAR);
1098:Drivers/lvgl/lvgl/src/extra/themes/default/lv_theme_default.c ****         lv_obj_add_style(obj, &styles->scrollbar_scrolled, LV_PART_SCROLLBAR | LV_STATE_SCROLLED);
1099:Drivers/lvgl/lvgl/src/extra/themes/default/lv_theme_default.c ****     }
1100:Drivers/lvgl/lvgl/src/extra/themes/default/lv_theme_default.c ****     else if(lv_obj_check_type(obj, &lv_menu_section_class)) {
ARM GAS  /tmp/cc6wDDAF.s 			page 23


1101:Drivers/lvgl/lvgl/src/extra/themes/default/lv_theme_default.c ****         lv_obj_add_style(obj, &styles->menu_section, 0);
1102:Drivers/lvgl/lvgl/src/extra/themes/default/lv_theme_default.c ****     }
1103:Drivers/lvgl/lvgl/src/extra/themes/default/lv_theme_default.c ****     else if(lv_obj_check_type(obj, &lv_menu_separator_class)) {
1104:Drivers/lvgl/lvgl/src/extra/themes/default/lv_theme_default.c ****         lv_obj_add_style(obj, &styles->menu_separator, 0);
1105:Drivers/lvgl/lvgl/src/extra/themes/default/lv_theme_default.c ****     }
1106:Drivers/lvgl/lvgl/src/extra/themes/default/lv_theme_default.c **** #endif
1107:Drivers/lvgl/lvgl/src/extra/themes/default/lv_theme_default.c **** #if LV_USE_MSGBOX
1108:Drivers/lvgl/lvgl/src/extra/themes/default/lv_theme_default.c ****     else if(lv_obj_check_type(obj, &lv_msgbox_class)) {
1109:Drivers/lvgl/lvgl/src/extra/themes/default/lv_theme_default.c ****         lv_obj_add_style(obj, &styles->card, 0);
1110:Drivers/lvgl/lvgl/src/extra/themes/default/lv_theme_default.c ****         lv_obj_add_style(obj, &styles->msgbox_bg, 0);
1111:Drivers/lvgl/lvgl/src/extra/themes/default/lv_theme_default.c ****         return;
1112:Drivers/lvgl/lvgl/src/extra/themes/default/lv_theme_default.c ****     }
1113:Drivers/lvgl/lvgl/src/extra/themes/default/lv_theme_default.c ****     else if(lv_obj_check_type(obj, &lv_msgbox_backdrop_class)) {
1114:Drivers/lvgl/lvgl/src/extra/themes/default/lv_theme_default.c ****         lv_obj_add_style(obj, &styles->msgbox_backdrop_bg, 0);
1115:Drivers/lvgl/lvgl/src/extra/themes/default/lv_theme_default.c ****     }
1116:Drivers/lvgl/lvgl/src/extra/themes/default/lv_theme_default.c **** #endif
1117:Drivers/lvgl/lvgl/src/extra/themes/default/lv_theme_default.c **** #if LV_USE_SPINBOX
1118:Drivers/lvgl/lvgl/src/extra/themes/default/lv_theme_default.c ****     else if(lv_obj_check_type(obj, &lv_spinbox_class)) {
1119:Drivers/lvgl/lvgl/src/extra/themes/default/lv_theme_default.c ****         lv_obj_add_style(obj, &styles->card, 0);
1120:Drivers/lvgl/lvgl/src/extra/themes/default/lv_theme_default.c ****         lv_obj_add_style(obj, &styles->pad_small, 0);
1121:Drivers/lvgl/lvgl/src/extra/themes/default/lv_theme_default.c ****         lv_obj_add_style(obj, &styles->outline_primary, LV_STATE_FOCUS_KEY);
1122:Drivers/lvgl/lvgl/src/extra/themes/default/lv_theme_default.c ****         lv_obj_add_style(obj, &styles->outline_secondary, LV_STATE_EDITED);
1123:Drivers/lvgl/lvgl/src/extra/themes/default/lv_theme_default.c ****         lv_obj_add_style(obj, &styles->bg_color_primary, LV_PART_CURSOR);
1124:Drivers/lvgl/lvgl/src/extra/themes/default/lv_theme_default.c ****     }
1125:Drivers/lvgl/lvgl/src/extra/themes/default/lv_theme_default.c **** #endif
1126:Drivers/lvgl/lvgl/src/extra/themes/default/lv_theme_default.c **** #if LV_USE_TILEVIEW
1127:Drivers/lvgl/lvgl/src/extra/themes/default/lv_theme_default.c ****     else if(lv_obj_check_type(obj, &lv_tileview_class)) {
1128:Drivers/lvgl/lvgl/src/extra/themes/default/lv_theme_default.c ****         lv_obj_add_style(obj, &styles->scr, 0);
1129:Drivers/lvgl/lvgl/src/extra/themes/default/lv_theme_default.c ****         lv_obj_add_style(obj, &styles->scrollbar, LV_PART_SCROLLBAR);
1130:Drivers/lvgl/lvgl/src/extra/themes/default/lv_theme_default.c ****         lv_obj_add_style(obj, &styles->scrollbar_scrolled, LV_PART_SCROLLBAR | LV_STATE_SCROLLED);
1131:Drivers/lvgl/lvgl/src/extra/themes/default/lv_theme_default.c ****     }
1132:Drivers/lvgl/lvgl/src/extra/themes/default/lv_theme_default.c ****     else if(lv_obj_check_type(obj, &lv_tileview_tile_class)) {
1133:Drivers/lvgl/lvgl/src/extra/themes/default/lv_theme_default.c ****         lv_obj_add_style(obj, &styles->scrollbar, LV_PART_SCROLLBAR);
1134:Drivers/lvgl/lvgl/src/extra/themes/default/lv_theme_default.c ****         lv_obj_add_style(obj, &styles->scrollbar_scrolled, LV_PART_SCROLLBAR | LV_STATE_SCROLLED);
1135:Drivers/lvgl/lvgl/src/extra/themes/default/lv_theme_default.c ****     }
1136:Drivers/lvgl/lvgl/src/extra/themes/default/lv_theme_default.c **** #endif
1137:Drivers/lvgl/lvgl/src/extra/themes/default/lv_theme_default.c **** 
1138:Drivers/lvgl/lvgl/src/extra/themes/default/lv_theme_default.c **** #if LV_USE_TABVIEW
1139:Drivers/lvgl/lvgl/src/extra/themes/default/lv_theme_default.c ****     else if(lv_obj_check_type(obj, &lv_tabview_class)) {
1140:Drivers/lvgl/lvgl/src/extra/themes/default/lv_theme_default.c ****         lv_obj_add_style(obj, &styles->scr, 0);
1141:Drivers/lvgl/lvgl/src/extra/themes/default/lv_theme_default.c ****         lv_obj_add_style(obj, &styles->pad_zero, 0);
1142:Drivers/lvgl/lvgl/src/extra/themes/default/lv_theme_default.c ****     }
1143:Drivers/lvgl/lvgl/src/extra/themes/default/lv_theme_default.c **** #endif
1144:Drivers/lvgl/lvgl/src/extra/themes/default/lv_theme_default.c **** 
1145:Drivers/lvgl/lvgl/src/extra/themes/default/lv_theme_default.c **** #if LV_USE_WIN
1146:Drivers/lvgl/lvgl/src/extra/themes/default/lv_theme_default.c ****     else if(lv_obj_check_type(obj, &lv_win_class)) {
1147:Drivers/lvgl/lvgl/src/extra/themes/default/lv_theme_default.c ****         lv_obj_add_style(obj, &styles->clip_corner, 0);
1148:Drivers/lvgl/lvgl/src/extra/themes/default/lv_theme_default.c ****     }
1149:Drivers/lvgl/lvgl/src/extra/themes/default/lv_theme_default.c **** #endif
1150:Drivers/lvgl/lvgl/src/extra/themes/default/lv_theme_default.c **** 
1151:Drivers/lvgl/lvgl/src/extra/themes/default/lv_theme_default.c **** #if LV_USE_COLORWHEEL
1152:Drivers/lvgl/lvgl/src/extra/themes/default/lv_theme_default.c ****     else if(lv_obj_check_type(obj, &lv_colorwheel_class)) {
1153:Drivers/lvgl/lvgl/src/extra/themes/default/lv_theme_default.c ****         lv_obj_add_style(obj, &styles->colorwheel_main, 0);
1154:Drivers/lvgl/lvgl/src/extra/themes/default/lv_theme_default.c ****         lv_obj_add_style(obj, &styles->pad_normal, 0);
1155:Drivers/lvgl/lvgl/src/extra/themes/default/lv_theme_default.c ****         lv_obj_add_style(obj, &styles->bg_color_white, LV_PART_KNOB);
1156:Drivers/lvgl/lvgl/src/extra/themes/default/lv_theme_default.c ****         lv_obj_add_style(obj, &styles->pad_normal, LV_PART_KNOB);
1157:Drivers/lvgl/lvgl/src/extra/themes/default/lv_theme_default.c ****     }
ARM GAS  /tmp/cc6wDDAF.s 			page 24


1158:Drivers/lvgl/lvgl/src/extra/themes/default/lv_theme_default.c **** #endif
1159:Drivers/lvgl/lvgl/src/extra/themes/default/lv_theme_default.c **** 
1160:Drivers/lvgl/lvgl/src/extra/themes/default/lv_theme_default.c **** #if LV_USE_LED
1161:Drivers/lvgl/lvgl/src/extra/themes/default/lv_theme_default.c ****     else if(lv_obj_check_type(obj, &lv_led_class)) {
1162:Drivers/lvgl/lvgl/src/extra/themes/default/lv_theme_default.c ****         lv_obj_add_style(obj, &styles->led, 0);
1163:Drivers/lvgl/lvgl/src/extra/themes/default/lv_theme_default.c ****     }
1164:Drivers/lvgl/lvgl/src/extra/themes/default/lv_theme_default.c **** #endif
1165:Drivers/lvgl/lvgl/src/extra/themes/default/lv_theme_default.c **** }
 153              		.loc 1 1165 0
 154 00be 70BD     		pop	{r4, r5, r6, pc}
 155              	.LVL22:
 156              	.L56:
 157              	.LBB103:
 718:Drivers/lvgl/lvgl/src/extra/themes/default/lv_theme_default.c ****             lv_obj_add_style(obj, &styles->scrollbar, LV_PART_SCROLLBAR);
 158              		.loc 1 718 0
 159 00c0 874D     		ldr	r5, .L71+16
 160              	.LVL23:
 161 00c2 2968     		ldr	r1, [r5]
 162 00c4 0022     		movs	r2, #0
 163 00c6 8031     		adds	r1, r1, #128
 164 00c8 2046     		mov	r0, r4
 165 00ca FFF7FEFF 		bl	lv_obj_add_style
 166              	.LVL24:
 719:Drivers/lvgl/lvgl/src/extra/themes/default/lv_theme_default.c ****             lv_obj_add_style(obj, &styles->scrollbar_scrolled, LV_PART_SCROLLBAR | LV_STATE_SCROLLE
 167              		.loc 1 719 0
 168 00ce 2968     		ldr	r1, [r5]
 169 00d0 4FF48032 		mov	r2, #65536
 170 00d4 0831     		adds	r1, r1, #8
 171 00d6 2046     		mov	r0, r4
 172 00d8 FFF7FEFF 		bl	lv_obj_add_style
 173              	.LVL25:
 720:Drivers/lvgl/lvgl/src/extra/themes/default/lv_theme_default.c ****             return;
 174              		.loc 1 720 0
 175 00dc 2968     		ldr	r1, [r5]
 176 00de 814A     		ldr	r2, .L71+20
 177 00e0 1031     		adds	r1, r1, #16
 178 00e2 2046     		mov	r0, r4
 179 00e4 FFF7FEFF 		bl	lv_obj_add_style
 180              	.LVL26:
 721:Drivers/lvgl/lvgl/src/extra/themes/default/lv_theme_default.c ****         }
 181              		.loc 1 721 0
 182 00e8 E9E7     		b	.L1
 183              	.LVL27:
 184              	.L57:
 728:Drivers/lvgl/lvgl/src/extra/themes/default/lv_theme_default.c ****             lv_obj_add_style(obj, &styles->pad_tiny, 0);
 185              		.loc 1 728 0
 186 00ea 7D4D     		ldr	r5, .L71+16
 187              	.LVL28:
 188 00ec 2968     		ldr	r1, [r5]
 189 00ee 0022     		movs	r2, #0
 190 00f0 4831     		adds	r1, r1, #72
 191 00f2 2046     		mov	r0, r4
 192 00f4 FFF7FEFF 		bl	lv_obj_add_style
 193              	.LVL29:
 729:Drivers/lvgl/lvgl/src/extra/themes/default/lv_theme_default.c ****             return;
 194              		.loc 1 729 0
 195 00f8 2968     		ldr	r1, [r5]
ARM GAS  /tmp/cc6wDDAF.s 			page 25


 196 00fa 0022     		movs	r2, #0
 197 00fc 7031     		adds	r1, r1, #112
 198 00fe 2046     		mov	r0, r4
 199 0100 FFF7FEFF 		bl	lv_obj_add_style
 200              	.LVL30:
 730:Drivers/lvgl/lvgl/src/extra/themes/default/lv_theme_default.c ****         }
 201              		.loc 1 730 0
 202 0104 DBE7     		b	.L1
 203              	.LVL31:
 204              	.L58:
 733:Drivers/lvgl/lvgl/src/extra/themes/default/lv_theme_default.c ****             lv_obj_add_style(obj, &styles->scr, 0);
 205              		.loc 1 733 0 discriminator 1
 206 0106 2046     		mov	r0, r4
 207 0108 FFF7FEFF 		bl	lv_obj_get_parent
 208              	.LVL32:
 209 010c 7249     		ldr	r1, .L71+8
 210 010e FFF7FEFF 		bl	lv_obj_check_type
 211              	.LVL33:
 212 0112 0028     		cmp	r0, #0
 213 0114 A4D0     		beq	.L7
 734:Drivers/lvgl/lvgl/src/extra/themes/default/lv_theme_default.c ****             lv_obj_add_style(obj, &styles->pad_normal, 0);
 214              		.loc 1 734 0
 215 0116 724D     		ldr	r5, .L71+16
 216              	.LVL34:
 217 0118 0022     		movs	r2, #0
 218 011a 2968     		ldr	r1, [r5]
 219 011c 2046     		mov	r0, r4
 220 011e FFF7FEFF 		bl	lv_obj_add_style
 221              	.LVL35:
 735:Drivers/lvgl/lvgl/src/extra/themes/default/lv_theme_default.c ****             lv_obj_add_style(obj, &styles->scrollbar, LV_PART_SCROLLBAR);
 222              		.loc 1 735 0
 223 0122 2968     		ldr	r1, [r5]
 224 0124 0022     		movs	r2, #0
 225 0126 8031     		adds	r1, r1, #128
 226 0128 2046     		mov	r0, r4
 227 012a FFF7FEFF 		bl	lv_obj_add_style
 228              	.LVL36:
 736:Drivers/lvgl/lvgl/src/extra/themes/default/lv_theme_default.c ****             lv_obj_add_style(obj, &styles->scrollbar_scrolled, LV_PART_SCROLLBAR | LV_STATE_SCROLLE
 229              		.loc 1 736 0
 230 012e 2968     		ldr	r1, [r5]
 231 0130 4FF48032 		mov	r2, #65536
 232 0134 0831     		adds	r1, r1, #8
 233 0136 2046     		mov	r0, r4
 234 0138 FFF7FEFF 		bl	lv_obj_add_style
 235              	.LVL37:
 737:Drivers/lvgl/lvgl/src/extra/themes/default/lv_theme_default.c ****             return;
 236              		.loc 1 737 0
 237 013c 2968     		ldr	r1, [r5]
 238 013e 694A     		ldr	r2, .L71+20
 239 0140 1031     		adds	r1, r1, #16
 240 0142 2046     		mov	r0, r4
 241 0144 FFF7FEFF 		bl	lv_obj_add_style
 242              	.LVL38:
 738:Drivers/lvgl/lvgl/src/extra/themes/default/lv_theme_default.c ****         }
 243              		.loc 1 738 0
 244 0148 B9E7     		b	.L1
 245              	.L4:
ARM GAS  /tmp/cc6wDDAF.s 			page 26


 246              	.LBE103:
 755:Drivers/lvgl/lvgl/src/extra/themes/default/lv_theme_default.c ****         lv_obj_add_style(obj, &styles->btn, 0);
 247              		.loc 1 755 0
 248 014a 6749     		ldr	r1, .L71+24
 249 014c 2046     		mov	r0, r4
 250 014e FFF7FEFF 		bl	lv_obj_check_type
 251              	.LVL39:
 252 0152 0028     		cmp	r0, #0
 253 0154 56D0     		beq	.L8
 756:Drivers/lvgl/lvgl/src/extra/themes/default/lv_theme_default.c ****         lv_obj_add_style(obj, &styles->bg_color_primary, 0);
 254              		.loc 1 756 0
 255 0156 624D     		ldr	r5, .L71+16
 256 0158 2968     		ldr	r1, [r5]
 257 015a 0022     		movs	r2, #0
 258 015c 2031     		adds	r1, r1, #32
 259 015e 2046     		mov	r0, r4
 260 0160 FFF7FEFF 		bl	lv_obj_add_style
 261              	.LVL40:
 757:Drivers/lvgl/lvgl/src/extra/themes/default/lv_theme_default.c ****         lv_obj_add_style(obj, &styles->transition_delayed, 0);
 262              		.loc 1 757 0
 263 0164 2968     		ldr	r1, [r5]
 264 0166 0022     		movs	r2, #0
 265 0168 2831     		adds	r1, r1, #40
 266 016a 2046     		mov	r0, r4
 267 016c FFF7FEFF 		bl	lv_obj_add_style
 268              	.LVL41:
 758:Drivers/lvgl/lvgl/src/extra/themes/default/lv_theme_default.c ****         lv_obj_add_style(obj, &styles->pressed, LV_STATE_PRESSED);
 269              		.loc 1 758 0
 270 0170 2968     		ldr	r1, [r5]
 271 0172 0022     		movs	r2, #0
 272 0174 D031     		adds	r1, r1, #208
 273 0176 2046     		mov	r0, r4
 274 0178 FFF7FEFF 		bl	lv_obj_add_style
 275              	.LVL42:
 759:Drivers/lvgl/lvgl/src/extra/themes/default/lv_theme_default.c ****         lv_obj_add_style(obj, &styles->transition_normal, LV_STATE_PRESSED);
 276              		.loc 1 759 0
 277 017c 2968     		ldr	r1, [r5]
 278 017e 2022     		movs	r2, #32
 279 0180 5831     		adds	r1, r1, #88
 280 0182 2046     		mov	r0, r4
 281 0184 FFF7FEFF 		bl	lv_obj_add_style
 282              	.LVL43:
 760:Drivers/lvgl/lvgl/src/extra/themes/default/lv_theme_default.c ****         lv_obj_add_style(obj, &styles->outline_primary, LV_STATE_FOCUS_KEY);
 283              		.loc 1 760 0
 284 0188 2968     		ldr	r1, [r5]
 285 018a 2022     		movs	r2, #32
 286 018c D831     		adds	r1, r1, #216
 287 018e 2046     		mov	r0, r4
 288 0190 FFF7FEFF 		bl	lv_obj_add_style
 289              	.LVL44:
 761:Drivers/lvgl/lvgl/src/extra/themes/default/lv_theme_default.c **** #if LV_THEME_DEFAULT_GROW
 290              		.loc 1 761 0
 291 0194 2968     		ldr	r1, [r5]
 292 0196 0422     		movs	r2, #4
 293 0198 A031     		adds	r1, r1, #160
 294 019a 2046     		mov	r0, r4
 295 019c FFF7FEFF 		bl	lv_obj_add_style
ARM GAS  /tmp/cc6wDDAF.s 			page 27


 296              	.LVL45:
 763:Drivers/lvgl/lvgl/src/extra/themes/default/lv_theme_default.c **** #endif
 297              		.loc 1 763 0
 298 01a0 2968     		ldr	r1, [r5]
 299 01a2 2022     		movs	r2, #32
 300 01a4 C831     		adds	r1, r1, #200
 301 01a6 2046     		mov	r0, r4
 302 01a8 FFF7FEFF 		bl	lv_obj_add_style
 303              	.LVL46:
 765:Drivers/lvgl/lvgl/src/extra/themes/default/lv_theme_default.c ****         lv_obj_add_style(obj, &styles->disabled, LV_STATE_DISABLED);
 304              		.loc 1 765 0
 305 01ac 2968     		ldr	r1, [r5]
 306 01ae 0122     		movs	r2, #1
 307 01b0 3831     		adds	r1, r1, #56
 308 01b2 2046     		mov	r0, r4
 309 01b4 FFF7FEFF 		bl	lv_obj_add_style
 310              	.LVL47:
 766:Drivers/lvgl/lvgl/src/extra/themes/default/lv_theme_default.c **** 
 311              		.loc 1 766 0
 312 01b8 2968     		ldr	r1, [r5]
 313 01ba 8022     		movs	r2, #128
 314 01bc 6031     		adds	r1, r1, #96
 315 01be 2046     		mov	r0, r4
 316 01c0 FFF7FEFF 		bl	lv_obj_add_style
 317              	.LVL48:
 769:Drivers/lvgl/lvgl/src/extra/themes/default/lv_theme_default.c ****            lv_obj_check_type(lv_obj_get_parent(obj), &lv_menu_main_header_cont_class)) {
 318              		.loc 1 769 0
 319 01c4 2046     		mov	r0, r4
 320 01c6 FFF7FEFF 		bl	lv_obj_get_parent
 321              	.LVL49:
 322 01ca 4849     		ldr	r1, .L71+28
 323 01cc FFF7FEFF 		bl	lv_obj_check_type
 324              	.LVL50:
 325 01d0 40B9     		cbnz	r0, .L9
 770:Drivers/lvgl/lvgl/src/extra/themes/default/lv_theme_default.c ****             lv_obj_add_style(obj, &styles->menu_header_btn, 0);
 326              		.loc 1 770 0 discriminator 1
 327 01d2 2046     		mov	r0, r4
 328 01d4 FFF7FEFF 		bl	lv_obj_get_parent
 329              	.LVL51:
 330 01d8 4549     		ldr	r1, .L71+32
 331 01da FFF7FEFF 		bl	lv_obj_check_type
 332              	.LVL52:
 769:Drivers/lvgl/lvgl/src/extra/themes/default/lv_theme_default.c ****            lv_obj_check_type(lv_obj_get_parent(obj), &lv_menu_main_header_cont_class)) {
 333              		.loc 1 769 0 discriminator 1
 334 01de 0028     		cmp	r0, #0
 335 01e0 3FF46DAF 		beq	.L1
 336              	.L9:
 771:Drivers/lvgl/lvgl/src/extra/themes/default/lv_theme_default.c ****             lv_obj_add_style(obj, &styles->menu_pressed, LV_STATE_PRESSED);
 337              		.loc 1 771 0
 338 01e4 3E4D     		ldr	r5, .L71+16
 339 01e6 2968     		ldr	r1, [r5]
 340 01e8 0022     		movs	r2, #0
 341 01ea 01F5E871 		add	r1, r1, #464
 342 01ee 2046     		mov	r0, r4
 343 01f0 FFF7FEFF 		bl	lv_obj_add_style
 344              	.LVL53:
 772:Drivers/lvgl/lvgl/src/extra/themes/default/lv_theme_default.c ****         }
ARM GAS  /tmp/cc6wDDAF.s 			page 28


 345              		.loc 1 772 0
 346 01f4 2968     		ldr	r1, [r5]
 347 01f6 2022     		movs	r2, #32
 348 01f8 01F5F071 		add	r1, r1, #480
 349 01fc 2046     		mov	r0, r4
 350 01fe FFF7FEFF 		bl	lv_obj_add_style
 351              	.LVL54:
 352 0202 5CE7     		b	.L1
 353              	.L8:
 779:Drivers/lvgl/lvgl/src/extra/themes/default/lv_theme_default.c ****         lv_obj_add_style(obj, &styles->line, 0);
 354              		.loc 1 779 0
 355 0204 3B49     		ldr	r1, .L71+36
 356 0206 2046     		mov	r0, r4
 357 0208 FFF7FEFF 		bl	lv_obj_check_type
 358              	.LVL55:
 359 020c 0028     		cmp	r0, #0
 360 020e 55D1     		bne	.L59
 785:Drivers/lvgl/lvgl/src/extra/themes/default/lv_theme_default.c **** #if LV_USE_MSGBOX
 361              		.loc 1 785 0
 362 0210 3949     		ldr	r1, .L71+40
 363 0212 2046     		mov	r0, r4
 364 0214 FFF7FEFF 		bl	lv_obj_check_type
 365              	.LVL56:
 366 0218 0028     		cmp	r0, #0
 367 021a 00F02381 		beq	.L11
 787:Drivers/lvgl/lvgl/src/extra/themes/default/lv_theme_default.c ****             lv_obj_add_style(obj, &styles->msgbox_btn_bg, 0);
 368              		.loc 1 787 0
 369 021e 2046     		mov	r0, r4
 370 0220 FFF7FEFF 		bl	lv_obj_get_parent
 371              	.LVL57:
 372 0224 3549     		ldr	r1, .L71+44
 373 0226 FFF7FEFF 		bl	lv_obj_check_type
 374              	.LVL58:
 375 022a 0028     		cmp	r0, #0
 376 022c 70D1     		bne	.L60
 800:Drivers/lvgl/lvgl/src/extra/themes/default/lv_theme_default.c ****             lv_obj_add_style(obj, &styles->bg_color_white, 0);
 377              		.loc 1 800 0
 378 022e 2046     		mov	r0, r4
 379 0230 FFF7FEFF 		bl	lv_obj_get_parent
 380              	.LVL59:
 381 0234 2749     		ldr	r1, .L71+4
 382 0236 FFF7FEFF 		bl	lv_obj_check_type
 383              	.LVL60:
 384 023a 0028     		cmp	r0, #0
 385 023c 40F09C80 		bne	.L61
 815:Drivers/lvgl/lvgl/src/extra/themes/default/lv_theme_default.c ****             lv_obj_add_style(obj, &styles->calendar_btnm_bg, 0);
 386              		.loc 1 815 0
 387 0240 2046     		mov	r0, r4
 388 0242 FFF7FEFF 		bl	lv_obj_get_parent
 389              	.LVL61:
 390 0246 2549     		ldr	r1, .L71+12
 391 0248 FFF7FEFF 		bl	lv_obj_check_type
 392              	.LVL62:
 393 024c 0028     		cmp	r0, #0
 394 024e 00F0D080 		beq	.L14
 816:Drivers/lvgl/lvgl/src/extra/themes/default/lv_theme_default.c ****             lv_obj_add_style(obj, &styles->outline_primary, LV_STATE_FOCUS_KEY);
 395              		.loc 1 816 0
ARM GAS  /tmp/cc6wDDAF.s 			page 29


 396 0252 234D     		ldr	r5, .L71+16
 397 0254 2968     		ldr	r1, [r5]
 398 0256 0022     		movs	r2, #0
 399 0258 01F5C071 		add	r1, r1, #384
 400 025c 2046     		mov	r0, r4
 401 025e FFF7FEFF 		bl	lv_obj_add_style
 402              	.LVL63:
 817:Drivers/lvgl/lvgl/src/extra/themes/default/lv_theme_default.c ****             lv_obj_add_style(obj, &styles->outline_secondary, LV_STATE_EDITED);
 403              		.loc 1 817 0
 404 0262 2968     		ldr	r1, [r5]
 405 0264 0422     		movs	r2, #4
 406 0266 A031     		adds	r1, r1, #160
 407 0268 2046     		mov	r0, r4
 408 026a FFF7FEFF 		bl	lv_obj_add_style
 409              	.LVL64:
 818:Drivers/lvgl/lvgl/src/extra/themes/default/lv_theme_default.c ****             lv_obj_add_style(obj, &styles->calendar_btnm_day, LV_PART_ITEMS);
 410              		.loc 1 818 0
 411 026e 2968     		ldr	r1, [r5]
 412 0270 0822     		movs	r2, #8
 413 0272 A831     		adds	r1, r1, #168
 414 0274 2046     		mov	r0, r4
 415 0276 FFF7FEFF 		bl	lv_obj_add_style
 416              	.LVL65:
 819:Drivers/lvgl/lvgl/src/extra/themes/default/lv_theme_default.c ****             lv_obj_add_style(obj, &styles->pressed, LV_PART_ITEMS | LV_STATE_PRESSED);
 417              		.loc 1 819 0
 418 027a 2968     		ldr	r1, [r5]
 419 027c 4FF4A022 		mov	r2, #327680
 420 0280 01F5C471 		add	r1, r1, #392
 421 0284 2046     		mov	r0, r4
 422 0286 FFF7FEFF 		bl	lv_obj_add_style
 423              	.LVL66:
 820:Drivers/lvgl/lvgl/src/extra/themes/default/lv_theme_default.c ****             lv_obj_add_style(obj, &styles->disabled, LV_PART_ITEMS | LV_STATE_DISABLED);
 424              		.loc 1 820 0
 425 028a 2968     		ldr	r1, [r5]
 426 028c 1C4A     		ldr	r2, .L71+48
 427 028e 5831     		adds	r1, r1, #88
 428 0290 2046     		mov	r0, r4
 429 0292 FFF7FEFF 		bl	lv_obj_add_style
 430              	.LVL67:
 821:Drivers/lvgl/lvgl/src/extra/themes/default/lv_theme_default.c ****             lv_obj_add_style(obj, &styles->outline_primary, LV_PART_ITEMS | LV_STATE_FOCUS_KEY);
 431              		.loc 1 821 0
 432 0296 2968     		ldr	r1, [r5]
 433 0298 1A4A     		ldr	r2, .L71+52
 434 029a 6031     		adds	r1, r1, #96
 435 029c 2046     		mov	r0, r4
 436 029e FFF7FEFF 		bl	lv_obj_add_style
 437              	.LVL68:
 822:Drivers/lvgl/lvgl/src/extra/themes/default/lv_theme_default.c ****             lv_obj_add_style(obj, &styles->outline_secondary, LV_PART_ITEMS | LV_STATE_EDITED);
 438              		.loc 1 822 0
 439 02a2 2968     		ldr	r1, [r5]
 440 02a4 184A     		ldr	r2, .L71+56
 441 02a6 A031     		adds	r1, r1, #160
 442 02a8 2046     		mov	r0, r4
 443 02aa FFF7FEFF 		bl	lv_obj_add_style
 444              	.LVL69:
 823:Drivers/lvgl/lvgl/src/extra/themes/default/lv_theme_default.c ****             return;
 445              		.loc 1 823 0
ARM GAS  /tmp/cc6wDDAF.s 			page 30


 446 02ae 2968     		ldr	r1, [r5]
 447 02b0 164A     		ldr	r2, .L71+60
 448 02b2 A831     		adds	r1, r1, #168
 449 02b4 2046     		mov	r0, r4
 450 02b6 FFF7FEFF 		bl	lv_obj_add_style
 451              	.LVL70:
 824:Drivers/lvgl/lvgl/src/extra/themes/default/lv_theme_default.c ****         }
 452              		.loc 1 824 0
 453 02ba 00E7     		b	.L1
 454              	.L59:
 780:Drivers/lvgl/lvgl/src/extra/themes/default/lv_theme_default.c ****     }
 455              		.loc 1 780 0
 456 02bc 084B     		ldr	r3, .L71+16
 457 02be 1968     		ldr	r1, [r3]
 458 02c0 0022     		movs	r2, #0
 459 02c2 01F5A871 		add	r1, r1, #336
 460 02c6 2046     		mov	r0, r4
 461 02c8 FFF7FEFF 		bl	lv_obj_add_style
 462              	.LVL71:
 463 02cc F7E6     		b	.L1
 464              	.L72:
 465 02ce 00BF     		.align	2
 466              	.L71:
 467 02d0 00000000 		.word	lv_obj_class
 468 02d4 00000000 		.word	lv_tabview_class
 469 02d8 00000000 		.word	lv_win_class
 470 02dc 00000000 		.word	lv_calendar_class
 471 02e0 00000000 		.word	.LANCHOR0
 472 02e4 40000100 		.word	65600
 473 02e8 00000000 		.word	lv_btn_class
 474 02ec 00000000 		.word	lv_menu_sidebar_header_cont_class
 475 02f0 00000000 		.word	lv_menu_main_header_cont_class
 476 02f4 00000000 		.word	lv_line_class
 477 02f8 00000000 		.word	lv_btnmatrix_class
 478 02fc 00000000 		.word	lv_msgbox_class
 479 0300 20000500 		.word	327712
 480 0304 80000500 		.word	327808
 481 0308 04000500 		.word	327684
 482 030c 08000500 		.word	327688
 483              	.L60:
 788:Drivers/lvgl/lvgl/src/extra/themes/default/lv_theme_default.c ****             lv_obj_add_style(obj, &styles->pad_gap, 0);
 484              		.loc 1 788 0
 485 0310 B84D     		ldr	r5, .L73
 486 0312 2968     		ldr	r1, [r5]
 487 0314 0022     		movs	r2, #0
 488 0316 01F5FC71 		add	r1, r1, #504
 489 031a 2046     		mov	r0, r4
 490 031c FFF7FEFF 		bl	lv_obj_add_style
 491              	.LVL72:
 789:Drivers/lvgl/lvgl/src/extra/themes/default/lv_theme_default.c ****             lv_obj_add_style(obj, &styles->btn, LV_PART_ITEMS);
 492              		.loc 1 789 0
 493 0320 2968     		ldr	r1, [r5]
 494 0322 0022     		movs	r2, #0
 495 0324 8831     		adds	r1, r1, #136
 496 0326 2046     		mov	r0, r4
 497 0328 FFF7FEFF 		bl	lv_obj_add_style
 498              	.LVL73:
ARM GAS  /tmp/cc6wDDAF.s 			page 31


 790:Drivers/lvgl/lvgl/src/extra/themes/default/lv_theme_default.c ****             lv_obj_add_style(obj, &styles->pressed, LV_PART_ITEMS | LV_STATE_PRESSED);
 499              		.loc 1 790 0
 500 032c 2968     		ldr	r1, [r5]
 501 032e 4FF4A022 		mov	r2, #327680
 502 0332 2031     		adds	r1, r1, #32
 503 0334 2046     		mov	r0, r4
 504 0336 FFF7FEFF 		bl	lv_obj_add_style
 505              	.LVL74:
 791:Drivers/lvgl/lvgl/src/extra/themes/default/lv_theme_default.c ****             lv_obj_add_style(obj, &styles->disabled, LV_PART_ITEMS | LV_STATE_DISABLED);
 506              		.loc 1 791 0
 507 033a 2968     		ldr	r1, [r5]
 508 033c AE4A     		ldr	r2, .L73+4
 509 033e 5831     		adds	r1, r1, #88
 510 0340 2046     		mov	r0, r4
 511 0342 FFF7FEFF 		bl	lv_obj_add_style
 512              	.LVL75:
 792:Drivers/lvgl/lvgl/src/extra/themes/default/lv_theme_default.c ****             lv_obj_add_style(obj, &styles->bg_color_primary, LV_PART_ITEMS | LV_STATE_CHECKED);
 513              		.loc 1 792 0
 514 0346 2968     		ldr	r1, [r5]
 515 0348 AC4A     		ldr	r2, .L73+8
 516 034a 6031     		adds	r1, r1, #96
 517 034c 2046     		mov	r0, r4
 518 034e FFF7FEFF 		bl	lv_obj_add_style
 519              	.LVL76:
 793:Drivers/lvgl/lvgl/src/extra/themes/default/lv_theme_default.c ****             lv_obj_add_style(obj, &styles->bg_color_primary_muted, LV_PART_ITEMS | LV_STATE_FOCUS_K
 520              		.loc 1 793 0
 521 0352 2968     		ldr	r1, [r5]
 522 0354 AA4A     		ldr	r2, .L73+12
 523 0356 2831     		adds	r1, r1, #40
 524 0358 2046     		mov	r0, r4
 525 035a FFF7FEFF 		bl	lv_obj_add_style
 526              	.LVL77:
 794:Drivers/lvgl/lvgl/src/extra/themes/default/lv_theme_default.c ****             lv_obj_add_style(obj, &styles->bg_color_secondary_muted, LV_PART_ITEMS | LV_STATE_EDITE
 527              		.loc 1 794 0
 528 035e 2968     		ldr	r1, [r5]
 529 0360 A84A     		ldr	r2, .L73+16
 530 0362 3031     		adds	r1, r1, #48
 531 0364 2046     		mov	r0, r4
 532 0366 FFF7FEFF 		bl	lv_obj_add_style
 533              	.LVL78:
 795:Drivers/lvgl/lvgl/src/extra/themes/default/lv_theme_default.c ****             return;
 534              		.loc 1 795 0
 535 036a 2968     		ldr	r1, [r5]
 536 036c A64A     		ldr	r2, .L73+20
 537 036e 4031     		adds	r1, r1, #64
 538 0370 2046     		mov	r0, r4
 539 0372 FFF7FEFF 		bl	lv_obj_add_style
 540              	.LVL79:
 796:Drivers/lvgl/lvgl/src/extra/themes/default/lv_theme_default.c ****         }
 541              		.loc 1 796 0
 542 0376 A2E6     		b	.L1
 543              	.L61:
 801:Drivers/lvgl/lvgl/src/extra/themes/default/lv_theme_default.c ****             lv_obj_add_style(obj, &styles->outline_primary, LV_STATE_FOCUS_KEY);
 544              		.loc 1 801 0
 545 0378 9E4D     		ldr	r5, .L73
 546 037a 2968     		ldr	r1, [r5]
 547 037c 0022     		movs	r2, #0
ARM GAS  /tmp/cc6wDDAF.s 			page 32


 548 037e 5031     		adds	r1, r1, #80
 549 0380 2046     		mov	r0, r4
 550 0382 FFF7FEFF 		bl	lv_obj_add_style
 551              	.LVL80:
 802:Drivers/lvgl/lvgl/src/extra/themes/default/lv_theme_default.c ****             lv_obj_add_style(obj, &styles->tab_bg_focus, LV_STATE_FOCUS_KEY);
 552              		.loc 1 802 0
 553 0386 2968     		ldr	r1, [r5]
 554 0388 0422     		movs	r2, #4
 555 038a A031     		adds	r1, r1, #160
 556 038c 2046     		mov	r0, r4
 557 038e FFF7FEFF 		bl	lv_obj_add_style
 558              	.LVL81:
 803:Drivers/lvgl/lvgl/src/extra/themes/default/lv_theme_default.c ****             lv_obj_add_style(obj, &styles->pressed, LV_PART_ITEMS | LV_STATE_PRESSED);
 559              		.loc 1 803 0
 560 0392 2968     		ldr	r1, [r5]
 561 0394 0422     		movs	r2, #4
 562 0396 01F50C71 		add	r1, r1, #560
 563 039a 2046     		mov	r0, r4
 564 039c FFF7FEFF 		bl	lv_obj_add_style
 565              	.LVL82:
 804:Drivers/lvgl/lvgl/src/extra/themes/default/lv_theme_default.c ****             lv_obj_add_style(obj, &styles->bg_color_primary_muted, LV_PART_ITEMS | LV_STATE_CHECKED
 566              		.loc 1 804 0
 567 03a0 2968     		ldr	r1, [r5]
 568 03a2 954A     		ldr	r2, .L73+4
 569 03a4 5831     		adds	r1, r1, #88
 570 03a6 2046     		mov	r0, r4
 571 03a8 FFF7FEFF 		bl	lv_obj_add_style
 572              	.LVL83:
 805:Drivers/lvgl/lvgl/src/extra/themes/default/lv_theme_default.c ****             lv_obj_add_style(obj, &styles->tab_btn, LV_PART_ITEMS | LV_STATE_CHECKED);
 573              		.loc 1 805 0
 574 03ac 2968     		ldr	r1, [r5]
 575 03ae 944E     		ldr	r6, .L73+12
 576 03b0 3246     		mov	r2, r6
 577 03b2 3031     		adds	r1, r1, #48
 578 03b4 2046     		mov	r0, r4
 579 03b6 FFF7FEFF 		bl	lv_obj_add_style
 580              	.LVL84:
 806:Drivers/lvgl/lvgl/src/extra/themes/default/lv_theme_default.c ****             lv_obj_add_style(obj, &styles->outline_primary, LV_PART_ITEMS | LV_STATE_FOCUS_KEY);
 581              		.loc 1 806 0
 582 03ba 2968     		ldr	r1, [r5]
 583 03bc 3246     		mov	r2, r6
 584 03be 01F50E71 		add	r1, r1, #568
 585 03c2 2046     		mov	r0, r4
 586 03c4 FFF7FEFF 		bl	lv_obj_add_style
 587              	.LVL85:
 807:Drivers/lvgl/lvgl/src/extra/themes/default/lv_theme_default.c ****             lv_obj_add_style(obj, &styles->outline_secondary, LV_PART_ITEMS | LV_STATE_EDITED);
 588              		.loc 1 807 0
 589 03c8 2968     		ldr	r1, [r5]
 590 03ca 0336     		adds	r6, r6, #3
 591 03cc 3246     		mov	r2, r6
 592 03ce A031     		adds	r1, r1, #160
 593 03d0 2046     		mov	r0, r4
 594 03d2 FFF7FEFF 		bl	lv_obj_add_style
 595              	.LVL86:
 808:Drivers/lvgl/lvgl/src/extra/themes/default/lv_theme_default.c ****             lv_obj_add_style(obj, &styles->tab_bg_focus, LV_PART_ITEMS | LV_STATE_FOCUS_KEY);
 596              		.loc 1 808 0
 597 03d6 2968     		ldr	r1, [r5]
ARM GAS  /tmp/cc6wDDAF.s 			page 33


 598 03d8 8B4A     		ldr	r2, .L73+20
 599 03da A831     		adds	r1, r1, #168
 600 03dc 2046     		mov	r0, r4
 601 03de FFF7FEFF 		bl	lv_obj_add_style
 602              	.LVL87:
 809:Drivers/lvgl/lvgl/src/extra/themes/default/lv_theme_default.c ****             return;
 603              		.loc 1 809 0
 604 03e2 2968     		ldr	r1, [r5]
 605 03e4 3246     		mov	r2, r6
 606 03e6 01F50C71 		add	r1, r1, #560
 607 03ea 2046     		mov	r0, r4
 608 03ec FFF7FEFF 		bl	lv_obj_add_style
 609              	.LVL88:
 810:Drivers/lvgl/lvgl/src/extra/themes/default/lv_theme_default.c ****         }
 610              		.loc 1 810 0
 611 03f0 65E6     		b	.L1
 612              	.L14:
 827:Drivers/lvgl/lvgl/src/extra/themes/default/lv_theme_default.c ****         lv_obj_add_style(obj, &styles->outline_primary, LV_STATE_FOCUS_KEY);
 613              		.loc 1 827 0
 614 03f2 804D     		ldr	r5, .L73
 615 03f4 2968     		ldr	r1, [r5]
 616 03f6 0022     		movs	r2, #0
 617 03f8 1831     		adds	r1, r1, #24
 618 03fa 2046     		mov	r0, r4
 619 03fc FFF7FEFF 		bl	lv_obj_add_style
 620              	.LVL89:
 828:Drivers/lvgl/lvgl/src/extra/themes/default/lv_theme_default.c ****         lv_obj_add_style(obj, &styles->outline_secondary, LV_STATE_EDITED);
 621              		.loc 1 828 0
 622 0400 2968     		ldr	r1, [r5]
 623 0402 0422     		movs	r2, #4
 624 0404 A031     		adds	r1, r1, #160
 625 0406 2046     		mov	r0, r4
 626 0408 FFF7FEFF 		bl	lv_obj_add_style
 627              	.LVL90:
 829:Drivers/lvgl/lvgl/src/extra/themes/default/lv_theme_default.c ****         lv_obj_add_style(obj, &styles->btn, LV_PART_ITEMS);
 628              		.loc 1 829 0
 629 040c 2968     		ldr	r1, [r5]
 630 040e 0822     		movs	r2, #8
 631 0410 A831     		adds	r1, r1, #168
 632 0412 2046     		mov	r0, r4
 633 0414 FFF7FEFF 		bl	lv_obj_add_style
 634              	.LVL91:
 830:Drivers/lvgl/lvgl/src/extra/themes/default/lv_theme_default.c ****         lv_obj_add_style(obj, &styles->disabled, LV_PART_ITEMS | LV_STATE_DISABLED);
 635              		.loc 1 830 0
 636 0418 2968     		ldr	r1, [r5]
 637 041a 4FF4A022 		mov	r2, #327680
 638 041e 2031     		adds	r1, r1, #32
 639 0420 2046     		mov	r0, r4
 640 0422 FFF7FEFF 		bl	lv_obj_add_style
 641              	.LVL92:
 831:Drivers/lvgl/lvgl/src/extra/themes/default/lv_theme_default.c ****         lv_obj_add_style(obj, &styles->pressed, LV_PART_ITEMS | LV_STATE_PRESSED);
 642              		.loc 1 831 0
 643 0426 2968     		ldr	r1, [r5]
 644 0428 744A     		ldr	r2, .L73+8
 645 042a 6031     		adds	r1, r1, #96
 646 042c 2046     		mov	r0, r4
 647 042e FFF7FEFF 		bl	lv_obj_add_style
ARM GAS  /tmp/cc6wDDAF.s 			page 34


 648              	.LVL93:
 832:Drivers/lvgl/lvgl/src/extra/themes/default/lv_theme_default.c ****         lv_obj_add_style(obj, &styles->bg_color_primary, LV_PART_ITEMS | LV_STATE_CHECKED);
 649              		.loc 1 832 0
 650 0432 2968     		ldr	r1, [r5]
 651 0434 704A     		ldr	r2, .L73+4
 652 0436 5831     		adds	r1, r1, #88
 653 0438 2046     		mov	r0, r4
 654 043a FFF7FEFF 		bl	lv_obj_add_style
 655              	.LVL94:
 833:Drivers/lvgl/lvgl/src/extra/themes/default/lv_theme_default.c ****         lv_obj_add_style(obj, &styles->outline_primary, LV_PART_ITEMS | LV_STATE_FOCUS_KEY);
 656              		.loc 1 833 0
 657 043e 2968     		ldr	r1, [r5]
 658 0440 6F4A     		ldr	r2, .L73+12
 659 0442 2831     		adds	r1, r1, #40
 660 0444 2046     		mov	r0, r4
 661 0446 FFF7FEFF 		bl	lv_obj_add_style
 662              	.LVL95:
 834:Drivers/lvgl/lvgl/src/extra/themes/default/lv_theme_default.c ****         lv_obj_add_style(obj, &styles->outline_secondary, LV_PART_ITEMS | LV_STATE_EDITED);
 663              		.loc 1 834 0
 664 044a 2968     		ldr	r1, [r5]
 665 044c 6D4A     		ldr	r2, .L73+16
 666 044e A031     		adds	r1, r1, #160
 667 0450 2046     		mov	r0, r4
 668 0452 FFF7FEFF 		bl	lv_obj_add_style
 669              	.LVL96:
 835:Drivers/lvgl/lvgl/src/extra/themes/default/lv_theme_default.c ****     }
 670              		.loc 1 835 0
 671 0456 2968     		ldr	r1, [r5]
 672 0458 6B4A     		ldr	r2, .L73+20
 673 045a A831     		adds	r1, r1, #168
 674 045c 2046     		mov	r0, r4
 675 045e FFF7FEFF 		bl	lv_obj_add_style
 676              	.LVL97:
 677 0462 2CE6     		b	.L1
 678              	.L11:
 840:Drivers/lvgl/lvgl/src/extra/themes/default/lv_theme_default.c ****         lv_obj_add_style(obj, &styles->bg_color_primary_muted, 0);
 679              		.loc 1 840 0
 680 0464 6949     		ldr	r1, .L73+24
 681 0466 2046     		mov	r0, r4
 682 0468 FFF7FEFF 		bl	lv_obj_check_type
 683              	.LVL98:
 684 046c 0028     		cmp	r0, #0
 685 046e 55D1     		bne	.L62
 851:Drivers/lvgl/lvgl/src/extra/themes/default/lv_theme_default.c ****         lv_obj_add_style(obj, &styles->bg_color_primary_muted, 0);
 686              		.loc 1 851 0
 687 0470 6749     		ldr	r1, .L73+28
 688 0472 2046     		mov	r0, r4
 689 0474 FFF7FEFF 		bl	lv_obj_check_type
 690              	.LVL99:
 691 0478 0028     		cmp	r0, #0
 692 047a 77D1     		bne	.L63
 868:Drivers/lvgl/lvgl/src/extra/themes/default/lv_theme_default.c ****         lv_obj_add_style(obj, &styles->card, 0);
 693              		.loc 1 868 0
 694 047c 6549     		ldr	r1, .L73+32
 695 047e 2046     		mov	r0, r4
 696 0480 FFF7FEFF 		bl	lv_obj_check_type
 697              	.LVL100:
ARM GAS  /tmp/cc6wDDAF.s 			page 35


 698 0484 0028     		cmp	r0, #0
 699 0486 40F0D180 		bne	.L64
 886:Drivers/lvgl/lvgl/src/extra/themes/default/lv_theme_default.c ****         lv_obj_add_style(obj, &styles->pad_gap, 0);
 700              		.loc 1 886 0
 701 048a 6349     		ldr	r1, .L73+36
 702 048c 2046     		mov	r0, r4
 703 048e FFF7FEFF 		bl	lv_obj_check_type
 704              	.LVL101:
 705 0492 0028     		cmp	r0, #0
 706 0494 40F01F81 		bne	.L65
 903:Drivers/lvgl/lvgl/src/extra/themes/default/lv_theme_default.c ****         lv_obj_add_style(obj, &styles->bg_color_grey, 0);
 707              		.loc 1 903 0
 708 0498 6049     		ldr	r1, .L73+40
 709 049a 2046     		mov	r0, r4
 710 049c FFF7FEFF 		bl	lv_obj_check_type
 711              	.LVL102:
 712 04a0 0028     		cmp	r0, #0
 713 04a2 40F05C81 		bne	.L66
 923:Drivers/lvgl/lvgl/src/extra/themes/default/lv_theme_default.c ****         lv_obj_add_style(obj, &styles->card, 0);
 714              		.loc 1 923 0
 715 04a6 5E49     		ldr	r1, .L73+44
 716 04a8 2046     		mov	r0, r4
 717 04aa FFF7FEFF 		bl	lv_obj_check_type
 718              	.LVL103:
 719 04ae 0028     		cmp	r0, #0
 720 04b0 40F0B281 		bne	.L67
 937:Drivers/lvgl/lvgl/src/extra/themes/default/lv_theme_default.c ****         lv_obj_add_style(obj, &styles->card, 0);
 721              		.loc 1 937 0
 722 04b4 5B49     		ldr	r1, .L73+48
 723 04b6 2046     		mov	r0, r4
 724 04b8 FFF7FEFF 		bl	lv_obj_check_type
 725              	.LVL104:
 726 04bc 0028     		cmp	r0, #0
 727 04be 00F0ED81 		beq	.L21
 938:Drivers/lvgl/lvgl/src/extra/themes/default/lv_theme_default.c ****         lv_obj_add_style(obj, &styles->anim, 0);
 728              		.loc 1 938 0
 729 04c2 4C4D     		ldr	r5, .L73
 730 04c4 2968     		ldr	r1, [r5]
 731 04c6 0022     		movs	r2, #0
 732 04c8 1831     		adds	r1, r1, #24
 733 04ca 2046     		mov	r0, r4
 734 04cc FFF7FEFF 		bl	lv_obj_add_style
 735              	.LVL105:
 939:Drivers/lvgl/lvgl/src/extra/themes/default/lv_theme_default.c ****         lv_obj_add_style(obj, &styles->line_space_large, 0);
 736              		.loc 1 939 0
 737 04d0 2968     		ldr	r1, [r5]
 738 04d2 0022     		movs	r2, #0
 739 04d4 E031     		adds	r1, r1, #224
 740 04d6 2046     		mov	r0, r4
 741 04d8 FFF7FEFF 		bl	lv_obj_add_style
 742              	.LVL106:
 940:Drivers/lvgl/lvgl/src/extra/themes/default/lv_theme_default.c ****         lv_obj_add_style(obj, &styles->text_align_center, 0);
 743              		.loc 1 940 0
 744 04dc 2968     		ldr	r1, [r5]
 745 04de 0022     		movs	r2, #0
 746 04e0 9031     		adds	r1, r1, #144
 747 04e2 2046     		mov	r0, r4
ARM GAS  /tmp/cc6wDDAF.s 			page 36


 748 04e4 FFF7FEFF 		bl	lv_obj_add_style
 749              	.LVL107:
 941:Drivers/lvgl/lvgl/src/extra/themes/default/lv_theme_default.c ****         lv_obj_add_style(obj, &styles->outline_primary, LV_STATE_FOCUS_KEY);
 750              		.loc 1 941 0
 751 04e8 2968     		ldr	r1, [r5]
 752 04ea 0022     		movs	r2, #0
 753 04ec 9831     		adds	r1, r1, #152
 754 04ee 2046     		mov	r0, r4
 755 04f0 FFF7FEFF 		bl	lv_obj_add_style
 756              	.LVL108:
 942:Drivers/lvgl/lvgl/src/extra/themes/default/lv_theme_default.c ****         lv_obj_add_style(obj, &styles->outline_secondary, LV_STATE_EDITED);
 757              		.loc 1 942 0
 758 04f4 2968     		ldr	r1, [r5]
 759 04f6 0422     		movs	r2, #4
 760 04f8 A031     		adds	r1, r1, #160
 761 04fa 2046     		mov	r0, r4
 762 04fc FFF7FEFF 		bl	lv_obj_add_style
 763              	.LVL109:
 943:Drivers/lvgl/lvgl/src/extra/themes/default/lv_theme_default.c ****         lv_obj_add_style(obj, &styles->bg_color_primary, LV_PART_SELECTED);
 764              		.loc 1 943 0
 765 0500 2968     		ldr	r1, [r5]
 766 0502 0822     		movs	r2, #8
 767 0504 A831     		adds	r1, r1, #168
 768 0506 2046     		mov	r0, r4
 769 0508 FFF7FEFF 		bl	lv_obj_add_style
 770              	.LVL110:
 944:Drivers/lvgl/lvgl/src/extra/themes/default/lv_theme_default.c ****     }
 771              		.loc 1 944 0
 772 050c 2968     		ldr	r1, [r5]
 773 050e 4FF48022 		mov	r2, #262144
 774 0512 2831     		adds	r1, r1, #40
 775 0514 2046     		mov	r0, r4
 776 0516 FFF7FEFF 		bl	lv_obj_add_style
 777              	.LVL111:
 778 051a D0E5     		b	.L1
 779              	.L62:
 841:Drivers/lvgl/lvgl/src/extra/themes/default/lv_theme_default.c ****         lv_obj_add_style(obj, &styles->circle, 0);
 780              		.loc 1 841 0
 781 051c 354D     		ldr	r5, .L73
 782 051e 2968     		ldr	r1, [r5]
 783 0520 0022     		movs	r2, #0
 784 0522 3031     		adds	r1, r1, #48
 785 0524 2046     		mov	r0, r4
 786 0526 FFF7FEFF 		bl	lv_obj_add_style
 787              	.LVL112:
 842:Drivers/lvgl/lvgl/src/extra/themes/default/lv_theme_default.c ****         lv_obj_add_style(obj, &styles->outline_primary, LV_STATE_FOCUS_KEY);
 788              		.loc 1 842 0
 789 052a 2968     		ldr	r1, [r5]
 790 052c 0022     		movs	r2, #0
 791 052e B031     		adds	r1, r1, #176
 792 0530 2046     		mov	r0, r4
 793 0532 FFF7FEFF 		bl	lv_obj_add_style
 794              	.LVL113:
 843:Drivers/lvgl/lvgl/src/extra/themes/default/lv_theme_default.c ****         lv_obj_add_style(obj, &styles->outline_secondary, LV_STATE_EDITED);
 795              		.loc 1 843 0
 796 0536 2968     		ldr	r1, [r5]
 797 0538 0422     		movs	r2, #4
ARM GAS  /tmp/cc6wDDAF.s 			page 37


 798 053a A031     		adds	r1, r1, #160
 799 053c 2046     		mov	r0, r4
 800 053e FFF7FEFF 		bl	lv_obj_add_style
 801              	.LVL114:
 844:Drivers/lvgl/lvgl/src/extra/themes/default/lv_theme_default.c ****         lv_obj_add_style(obj, &styles->bg_color_primary, LV_PART_INDICATOR);
 802              		.loc 1 844 0
 803 0542 2968     		ldr	r1, [r5]
 804 0544 0822     		movs	r2, #8
 805 0546 A831     		adds	r1, r1, #168
 806 0548 2046     		mov	r0, r4
 807 054a FFF7FEFF 		bl	lv_obj_add_style
 808              	.LVL115:
 845:Drivers/lvgl/lvgl/src/extra/themes/default/lv_theme_default.c ****         lv_obj_add_style(obj, &styles->circle, LV_PART_INDICATOR);
 809              		.loc 1 845 0
 810 054e 2968     		ldr	r1, [r5]
 811 0550 4FF40032 		mov	r2, #131072
 812 0554 2831     		adds	r1, r1, #40
 813 0556 2046     		mov	r0, r4
 814 0558 FFF7FEFF 		bl	lv_obj_add_style
 815              	.LVL116:
 846:Drivers/lvgl/lvgl/src/extra/themes/default/lv_theme_default.c ****     }
 816              		.loc 1 846 0
 817 055c 2968     		ldr	r1, [r5]
 818 055e 4FF40032 		mov	r2, #131072
 819 0562 B031     		adds	r1, r1, #176
 820 0564 2046     		mov	r0, r4
 821 0566 FFF7FEFF 		bl	lv_obj_add_style
 822              	.LVL117:
 823 056a A8E5     		b	.L1
 824              	.L63:
 852:Drivers/lvgl/lvgl/src/extra/themes/default/lv_theme_default.c ****         lv_obj_add_style(obj, &styles->circle, 0);
 825              		.loc 1 852 0
 826 056c 214D     		ldr	r5, .L73
 827 056e 2968     		ldr	r1, [r5]
 828 0570 0022     		movs	r2, #0
 829 0572 3031     		adds	r1, r1, #48
 830 0574 2046     		mov	r0, r4
 831 0576 FFF7FEFF 		bl	lv_obj_add_style
 832              	.LVL118:
 853:Drivers/lvgl/lvgl/src/extra/themes/default/lv_theme_default.c ****         lv_obj_add_style(obj, &styles->outline_primary, LV_STATE_FOCUS_KEY);
 833              		.loc 1 853 0
 834 057a 2968     		ldr	r1, [r5]
 835 057c 0022     		movs	r2, #0
 836 057e B031     		adds	r1, r1, #176
 837 0580 2046     		mov	r0, r4
 838 0582 FFF7FEFF 		bl	lv_obj_add_style
 839              	.LVL119:
 854:Drivers/lvgl/lvgl/src/extra/themes/default/lv_theme_default.c ****         lv_obj_add_style(obj, &styles->outline_secondary, LV_STATE_EDITED);
 840              		.loc 1 854 0
 841 0586 2968     		ldr	r1, [r5]
 842 0588 0422     		movs	r2, #4
 843 058a A031     		adds	r1, r1, #160
 844 058c 2046     		mov	r0, r4
 845 058e FFF7FEFF 		bl	lv_obj_add_style
 846              	.LVL120:
 855:Drivers/lvgl/lvgl/src/extra/themes/default/lv_theme_default.c ****         lv_obj_add_style(obj, &styles->bg_color_primary, LV_PART_INDICATOR);
 847              		.loc 1 855 0
ARM GAS  /tmp/cc6wDDAF.s 			page 38


 848 0592 2968     		ldr	r1, [r5]
 849 0594 0822     		movs	r2, #8
 850 0596 A831     		adds	r1, r1, #168
 851 0598 2046     		mov	r0, r4
 852 059a FFF7FEFF 		bl	lv_obj_add_style
 853              	.LVL121:
 856:Drivers/lvgl/lvgl/src/extra/themes/default/lv_theme_default.c ****         lv_obj_add_style(obj, &styles->circle, LV_PART_INDICATOR);
 854              		.loc 1 856 0
 855 059e 2968     		ldr	r1, [r5]
 856 05a0 4FF40032 		mov	r2, #131072
 857 05a4 2831     		adds	r1, r1, #40
 858 05a6 2046     		mov	r0, r4
 859 05a8 FFF7FEFF 		bl	lv_obj_add_style
 860              	.LVL122:
 857:Drivers/lvgl/lvgl/src/extra/themes/default/lv_theme_default.c ****         lv_obj_add_style(obj, &styles->knob, LV_PART_KNOB);
 861              		.loc 1 857 0
 862 05ac 2968     		ldr	r1, [r5]
 863 05ae 4FF40032 		mov	r2, #131072
 864 05b2 B031     		adds	r1, r1, #176
 865 05b4 2046     		mov	r0, r4
 866 05b6 FFF7FEFF 		bl	lv_obj_add_style
 867              	.LVL123:
 858:Drivers/lvgl/lvgl/src/extra/themes/default/lv_theme_default.c **** #if LV_THEME_DEFAULT_GROW
 868              		.loc 1 858 0
 869 05ba 2968     		ldr	r1, [r5]
 870 05bc 4FF44032 		mov	r2, #196608
 871 05c0 F031     		adds	r1, r1, #240
 872 05c2 2046     		mov	r0, r4
 873 05c4 FFF7FEFF 		bl	lv_obj_add_style
 874              	.LVL124:
 860:Drivers/lvgl/lvgl/src/extra/themes/default/lv_theme_default.c **** #endif
 875              		.loc 1 860 0
 876 05c8 2968     		ldr	r1, [r5]
 877 05ca 174E     		ldr	r6, .L73+52
 878 05cc 3246     		mov	r2, r6
 879 05ce C831     		adds	r1, r1, #200
 880 05d0 2046     		mov	r0, r4
 881 05d2 FFF7FEFF 		bl	lv_obj_add_style
 882              	.LVL125:
 862:Drivers/lvgl/lvgl/src/extra/themes/default/lv_theme_default.c ****         lv_obj_add_style(obj, &styles->transition_normal, LV_PART_KNOB | LV_STATE_PRESSED);
 883              		.loc 1 862 0
 884 05d6 2968     		ldr	r1, [r5]
 885 05d8 4FF44032 		mov	r2, #196608
 886 05dc D031     		adds	r1, r1, #208
 887 05de 2046     		mov	r0, r4
 888 05e0 FFF7FEFF 		bl	lv_obj_add_style
 889              	.LVL126:
 863:Drivers/lvgl/lvgl/src/extra/themes/default/lv_theme_default.c ****     }
 890              		.loc 1 863 0
 891 05e4 2968     		ldr	r1, [r5]
 892 05e6 3246     		mov	r2, r6
 893 05e8 D831     		adds	r1, r1, #216
 894 05ea 2046     		mov	r0, r4
 895 05ec FFF7FEFF 		bl	lv_obj_add_style
 896              	.LVL127:
 897 05f0 65E5     		b	.L1
 898              	.L74:
ARM GAS  /tmp/cc6wDDAF.s 			page 39


 899 05f2 00BF     		.align	2
 900              	.L73:
 901 05f4 00000000 		.word	.LANCHOR0
 902 05f8 20000500 		.word	327712
 903 05fc 80000500 		.word	327808
 904 0600 01000500 		.word	327681
 905 0604 04000500 		.word	327684
 906 0608 08000500 		.word	327688
 907 060c 00000000 		.word	lv_bar_class
 908 0610 00000000 		.word	lv_slider_class
 909 0614 00000000 		.word	lv_table_class
 910 0618 00000000 		.word	lv_checkbox_class
 911 061c 00000000 		.word	lv_switch_class
 912 0620 00000000 		.word	lv_chart_class
 913 0624 00000000 		.word	lv_roller_class
 914 0628 20000300 		.word	196640
 915              	.L64:
 869:Drivers/lvgl/lvgl/src/extra/themes/default/lv_theme_default.c ****         lv_obj_add_style(obj, &styles->pad_zero, 0);
 916              		.loc 1 869 0
 917 062c C04D     		ldr	r5, .L75
 918 062e 2968     		ldr	r1, [r5]
 919 0630 0022     		movs	r2, #0
 920 0632 1831     		adds	r1, r1, #24
 921 0634 2046     		mov	r0, r4
 922 0636 FFF7FEFF 		bl	lv_obj_add_style
 923              	.LVL128:
 870:Drivers/lvgl/lvgl/src/extra/themes/default/lv_theme_default.c ****         lv_obj_add_style(obj, &styles->no_radius, 0);
 924              		.loc 1 870 0
 925 063a 2968     		ldr	r1, [r5]
 926 063c 0022     		movs	r2, #0
 927 063e 6831     		adds	r1, r1, #104
 928 0640 2046     		mov	r0, r4
 929 0642 FFF7FEFF 		bl	lv_obj_add_style
 930              	.LVL129:
 871:Drivers/lvgl/lvgl/src/extra/themes/default/lv_theme_default.c ****         lv_obj_add_style(obj, &styles->outline_primary, LV_STATE_FOCUS_KEY);
 931              		.loc 1 871 0
 932 0646 2968     		ldr	r1, [r5]
 933 0648 0022     		movs	r2, #0
 934 064a B831     		adds	r1, r1, #184
 935 064c 2046     		mov	r0, r4
 936 064e FFF7FEFF 		bl	lv_obj_add_style
 937              	.LVL130:
 872:Drivers/lvgl/lvgl/src/extra/themes/default/lv_theme_default.c ****         lv_obj_add_style(obj, &styles->outline_secondary, LV_STATE_EDITED);
 938              		.loc 1 872 0
 939 0652 2968     		ldr	r1, [r5]
 940 0654 0422     		movs	r2, #4
 941 0656 A031     		adds	r1, r1, #160
 942 0658 2046     		mov	r0, r4
 943 065a FFF7FEFF 		bl	lv_obj_add_style
 944              	.LVL131:
 873:Drivers/lvgl/lvgl/src/extra/themes/default/lv_theme_default.c ****         lv_obj_add_style(obj, &styles->scrollbar, LV_PART_SCROLLBAR);
 945              		.loc 1 873 0
 946 065e 2968     		ldr	r1, [r5]
 947 0660 0822     		movs	r2, #8
 948 0662 A831     		adds	r1, r1, #168
 949 0664 2046     		mov	r0, r4
 950 0666 FFF7FEFF 		bl	lv_obj_add_style
ARM GAS  /tmp/cc6wDDAF.s 			page 40


 951              	.LVL132:
 874:Drivers/lvgl/lvgl/src/extra/themes/default/lv_theme_default.c ****         lv_obj_add_style(obj, &styles->scrollbar_scrolled, LV_PART_SCROLLBAR | LV_STATE_SCROLLED);
 952              		.loc 1 874 0
 953 066a 2968     		ldr	r1, [r5]
 954 066c 4FF48032 		mov	r2, #65536
 955 0670 0831     		adds	r1, r1, #8
 956 0672 2046     		mov	r0, r4
 957 0674 FFF7FEFF 		bl	lv_obj_add_style
 958              	.LVL133:
 875:Drivers/lvgl/lvgl/src/extra/themes/default/lv_theme_default.c ****         lv_obj_add_style(obj, &styles->bg_color_white, LV_PART_ITEMS);
 959              		.loc 1 875 0
 960 0678 2968     		ldr	r1, [r5]
 961 067a AE4A     		ldr	r2, .L75+4
 962 067c 1031     		adds	r1, r1, #16
 963 067e 2046     		mov	r0, r4
 964 0680 FFF7FEFF 		bl	lv_obj_add_style
 965              	.LVL134:
 876:Drivers/lvgl/lvgl/src/extra/themes/default/lv_theme_default.c ****         lv_obj_add_style(obj, &styles->table_cell, LV_PART_ITEMS);
 966              		.loc 1 876 0
 967 0684 2968     		ldr	r1, [r5]
 968 0686 4FF4A022 		mov	r2, #327680
 969 068a 5031     		adds	r1, r1, #80
 970 068c 2046     		mov	r0, r4
 971 068e FFF7FEFF 		bl	lv_obj_add_style
 972              	.LVL135:
 877:Drivers/lvgl/lvgl/src/extra/themes/default/lv_theme_default.c ****         lv_obj_add_style(obj, &styles->pad_normal, LV_PART_ITEMS);
 973              		.loc 1 877 0
 974 0692 2968     		ldr	r1, [r5]
 975 0694 4FF4A022 		mov	r2, #327680
 976 0698 01F5AC71 		add	r1, r1, #344
 977 069c 2046     		mov	r0, r4
 978 069e FFF7FEFF 		bl	lv_obj_add_style
 979              	.LVL136:
 878:Drivers/lvgl/lvgl/src/extra/themes/default/lv_theme_default.c ****         lv_obj_add_style(obj, &styles->pressed, LV_PART_ITEMS | LV_STATE_PRESSED);
 980              		.loc 1 878 0
 981 06a2 2968     		ldr	r1, [r5]
 982 06a4 4FF4A022 		mov	r2, #327680
 983 06a8 8031     		adds	r1, r1, #128
 984 06aa 2046     		mov	r0, r4
 985 06ac FFF7FEFF 		bl	lv_obj_add_style
 986              	.LVL137:
 879:Drivers/lvgl/lvgl/src/extra/themes/default/lv_theme_default.c ****         lv_obj_add_style(obj, &styles->bg_color_primary, LV_PART_ITEMS | LV_STATE_FOCUS_KEY);
 987              		.loc 1 879 0
 988 06b0 2968     		ldr	r1, [r5]
 989 06b2 A14A     		ldr	r2, .L75+8
 990 06b4 5831     		adds	r1, r1, #88
 991 06b6 2046     		mov	r0, r4
 992 06b8 FFF7FEFF 		bl	lv_obj_add_style
 993              	.LVL138:
 880:Drivers/lvgl/lvgl/src/extra/themes/default/lv_theme_default.c ****         lv_obj_add_style(obj, &styles->bg_color_secondary, LV_PART_ITEMS | LV_STATE_EDITED);
 994              		.loc 1 880 0
 995 06bc 2968     		ldr	r1, [r5]
 996 06be 9F4A     		ldr	r2, .L75+12
 997 06c0 2831     		adds	r1, r1, #40
 998 06c2 2046     		mov	r0, r4
 999 06c4 FFF7FEFF 		bl	lv_obj_add_style
 1000              	.LVL139:
ARM GAS  /tmp/cc6wDDAF.s 			page 41


 881:Drivers/lvgl/lvgl/src/extra/themes/default/lv_theme_default.c ****     }
 1001              		.loc 1 881 0
 1002 06c8 2968     		ldr	r1, [r5]
 1003 06ca 9D4A     		ldr	r2, .L75+16
 1004 06cc 3831     		adds	r1, r1, #56
 1005 06ce 2046     		mov	r0, r4
 1006 06d0 FFF7FEFF 		bl	lv_obj_add_style
 1007              	.LVL140:
 1008 06d4 F3E4     		b	.L1
 1009              	.L65:
 887:Drivers/lvgl/lvgl/src/extra/themes/default/lv_theme_default.c ****         lv_obj_add_style(obj, &styles->outline_primary, LV_STATE_FOCUS_KEY);
 1010              		.loc 1 887 0
 1011 06d6 964D     		ldr	r5, .L75
 1012 06d8 2968     		ldr	r1, [r5]
 1013 06da 0022     		movs	r2, #0
 1014 06dc 8831     		adds	r1, r1, #136
 1015 06de 2046     		mov	r0, r4
 1016 06e0 FFF7FEFF 		bl	lv_obj_add_style
 1017              	.LVL141:
 888:Drivers/lvgl/lvgl/src/extra/themes/default/lv_theme_default.c ****         lv_obj_add_style(obj, &styles->disabled, LV_PART_INDICATOR | LV_STATE_DISABLED);
 1018              		.loc 1 888 0
 1019 06e4 2968     		ldr	r1, [r5]
 1020 06e6 0422     		movs	r2, #4
 1021 06e8 A031     		adds	r1, r1, #160
 1022 06ea 2046     		mov	r0, r4
 1023 06ec FFF7FEFF 		bl	lv_obj_add_style
 1024              	.LVL142:
 889:Drivers/lvgl/lvgl/src/extra/themes/default/lv_theme_default.c ****         lv_obj_add_style(obj, &styles->cb_marker, LV_PART_INDICATOR);
 1025              		.loc 1 889 0
 1026 06f0 2968     		ldr	r1, [r5]
 1027 06f2 944A     		ldr	r2, .L75+20
 1028 06f4 6031     		adds	r1, r1, #96
 1029 06f6 2046     		mov	r0, r4
 1030 06f8 FFF7FEFF 		bl	lv_obj_add_style
 1031              	.LVL143:
 890:Drivers/lvgl/lvgl/src/extra/themes/default/lv_theme_default.c ****         lv_obj_add_style(obj, &styles->bg_color_primary, LV_PART_INDICATOR | LV_STATE_CHECKED);
 1032              		.loc 1 890 0
 1033 06fc 2968     		ldr	r1, [r5]
 1034 06fe 4FF40032 		mov	r2, #131072
 1035 0702 01F59C71 		add	r1, r1, #312
 1036 0706 2046     		mov	r0, r4
 1037 0708 FFF7FEFF 		bl	lv_obj_add_style
 1038              	.LVL144:
 891:Drivers/lvgl/lvgl/src/extra/themes/default/lv_theme_default.c ****         lv_obj_add_style(obj, &styles->cb_marker_checked, LV_PART_INDICATOR | LV_STATE_CHECKED);
 1039              		.loc 1 891 0
 1040 070c 2968     		ldr	r1, [r5]
 1041 070e 8E4E     		ldr	r6, .L75+24
 1042 0710 3246     		mov	r2, r6
 1043 0712 2831     		adds	r1, r1, #40
 1044 0714 2046     		mov	r0, r4
 1045 0716 FFF7FEFF 		bl	lv_obj_add_style
 1046              	.LVL145:
 892:Drivers/lvgl/lvgl/src/extra/themes/default/lv_theme_default.c ****         lv_obj_add_style(obj, &styles->pressed, LV_PART_INDICATOR | LV_STATE_PRESSED);
 1047              		.loc 1 892 0
 1048 071a 2968     		ldr	r1, [r5]
 1049 071c 3246     		mov	r2, r6
 1050 071e 01F5A071 		add	r1, r1, #320
ARM GAS  /tmp/cc6wDDAF.s 			page 42


 1051 0722 2046     		mov	r0, r4
 1052 0724 FFF7FEFF 		bl	lv_obj_add_style
 1053              	.LVL146:
 893:Drivers/lvgl/lvgl/src/extra/themes/default/lv_theme_default.c **** #if LV_THEME_DEFAULT_GROW
 1054              		.loc 1 893 0
 1055 0728 2968     		ldr	r1, [r5]
 1056 072a 1F36     		adds	r6, r6, #31
 1057 072c 3246     		mov	r2, r6
 1058 072e 5831     		adds	r1, r1, #88
 1059 0730 2046     		mov	r0, r4
 1060 0732 FFF7FEFF 		bl	lv_obj_add_style
 1061              	.LVL147:
 895:Drivers/lvgl/lvgl/src/extra/themes/default/lv_theme_default.c **** #endif
 1062              		.loc 1 895 0
 1063 0736 2968     		ldr	r1, [r5]
 1064 0738 3246     		mov	r2, r6
 1065 073a C831     		adds	r1, r1, #200
 1066 073c 2046     		mov	r0, r4
 1067 073e FFF7FEFF 		bl	lv_obj_add_style
 1068              	.LVL148:
 897:Drivers/lvgl/lvgl/src/extra/themes/default/lv_theme_default.c ****         lv_obj_add_style(obj, &styles->transition_delayed, LV_PART_INDICATOR);
 1069              		.loc 1 897 0
 1070 0742 2968     		ldr	r1, [r5]
 1071 0744 3246     		mov	r2, r6
 1072 0746 D831     		adds	r1, r1, #216
 1073 0748 2046     		mov	r0, r4
 1074 074a FFF7FEFF 		bl	lv_obj_add_style
 1075              	.LVL149:
 898:Drivers/lvgl/lvgl/src/extra/themes/default/lv_theme_default.c ****     }
 1076              		.loc 1 898 0
 1077 074e 2968     		ldr	r1, [r5]
 1078 0750 4FF40032 		mov	r2, #131072
 1079 0754 D031     		adds	r1, r1, #208
 1080 0756 2046     		mov	r0, r4
 1081 0758 FFF7FEFF 		bl	lv_obj_add_style
 1082              	.LVL150:
 1083 075c AFE4     		b	.L1
 1084              	.L66:
 904:Drivers/lvgl/lvgl/src/extra/themes/default/lv_theme_default.c ****         lv_obj_add_style(obj, &styles->circle, 0);
 1085              		.loc 1 904 0
 1086 075e 744D     		ldr	r5, .L75
 1087 0760 2968     		ldr	r1, [r5]
 1088 0762 0022     		movs	r2, #0
 1089 0764 4831     		adds	r1, r1, #72
 1090 0766 2046     		mov	r0, r4
 1091 0768 FFF7FEFF 		bl	lv_obj_add_style
 1092              	.LVL151:
 905:Drivers/lvgl/lvgl/src/extra/themes/default/lv_theme_default.c ****         lv_obj_add_style(obj, &styles->anim_fast, 0);
 1093              		.loc 1 905 0
 1094 076c 2968     		ldr	r1, [r5]
 1095 076e 0022     		movs	r2, #0
 1096 0770 B031     		adds	r1, r1, #176
 1097 0772 2046     		mov	r0, r4
 1098 0774 FFF7FEFF 		bl	lv_obj_add_style
 1099              	.LVL152:
 906:Drivers/lvgl/lvgl/src/extra/themes/default/lv_theme_default.c ****         lv_obj_add_style(obj, &styles->disabled, LV_STATE_DISABLED);
 1100              		.loc 1 906 0
ARM GAS  /tmp/cc6wDDAF.s 			page 43


 1101 0778 2968     		ldr	r1, [r5]
 1102 077a 0022     		movs	r2, #0
 1103 077c E831     		adds	r1, r1, #232
 1104 077e 2046     		mov	r0, r4
 1105 0780 FFF7FEFF 		bl	lv_obj_add_style
 1106              	.LVL153:
 907:Drivers/lvgl/lvgl/src/extra/themes/default/lv_theme_default.c ****         lv_obj_add_style(obj, &styles->outline_primary, LV_STATE_FOCUS_KEY);
 1107              		.loc 1 907 0
 1108 0784 2968     		ldr	r1, [r5]
 1109 0786 8022     		movs	r2, #128
 1110 0788 6031     		adds	r1, r1, #96
 1111 078a 2046     		mov	r0, r4
 1112 078c FFF7FEFF 		bl	lv_obj_add_style
 1113              	.LVL154:
 908:Drivers/lvgl/lvgl/src/extra/themes/default/lv_theme_default.c ****         lv_obj_add_style(obj, &styles->bg_color_primary, LV_PART_INDICATOR | LV_STATE_CHECKED);
 1114              		.loc 1 908 0
 1115 0790 2968     		ldr	r1, [r5]
 1116 0792 0422     		movs	r2, #4
 1117 0794 A031     		adds	r1, r1, #160
 1118 0796 2046     		mov	r0, r4
 1119 0798 FFF7FEFF 		bl	lv_obj_add_style
 1120              	.LVL155:
 909:Drivers/lvgl/lvgl/src/extra/themes/default/lv_theme_default.c ****         lv_obj_add_style(obj, &styles->circle, LV_PART_INDICATOR);
 1121              		.loc 1 909 0
 1122 079c 2968     		ldr	r1, [r5]
 1123 079e 6A4E     		ldr	r6, .L75+24
 1124 07a0 3246     		mov	r2, r6
 1125 07a2 2831     		adds	r1, r1, #40
 1126 07a4 2046     		mov	r0, r4
 1127 07a6 FFF7FEFF 		bl	lv_obj_add_style
 1128              	.LVL156:
 910:Drivers/lvgl/lvgl/src/extra/themes/default/lv_theme_default.c ****         lv_obj_add_style(obj, &styles->disabled, LV_PART_INDICATOR | LV_STATE_DISABLED);
 1129              		.loc 1 910 0
 1130 07aa 2968     		ldr	r1, [r5]
 1131 07ac 4FF40032 		mov	r2, #131072
 1132 07b0 B031     		adds	r1, r1, #176
 1133 07b2 2046     		mov	r0, r4
 1134 07b4 FFF7FEFF 		bl	lv_obj_add_style
 1135              	.LVL157:
 911:Drivers/lvgl/lvgl/src/extra/themes/default/lv_theme_default.c ****         lv_obj_add_style(obj, &styles->knob, LV_PART_KNOB);
 1136              		.loc 1 911 0
 1137 07b8 2968     		ldr	r1, [r5]
 1138 07ba 624A     		ldr	r2, .L75+20
 1139 07bc 6031     		adds	r1, r1, #96
 1140 07be 2046     		mov	r0, r4
 1141 07c0 FFF7FEFF 		bl	lv_obj_add_style
 1142              	.LVL158:
 912:Drivers/lvgl/lvgl/src/extra/themes/default/lv_theme_default.c ****         lv_obj_add_style(obj, &styles->bg_color_white, LV_PART_KNOB);
 1143              		.loc 1 912 0
 1144 07c4 2968     		ldr	r1, [r5]
 1145 07c6 4FF44032 		mov	r2, #196608
 1146 07ca F031     		adds	r1, r1, #240
 1147 07cc 2046     		mov	r0, r4
 1148 07ce FFF7FEFF 		bl	lv_obj_add_style
 1149              	.LVL159:
 913:Drivers/lvgl/lvgl/src/extra/themes/default/lv_theme_default.c ****         lv_obj_add_style(obj, &styles->switch_knob, LV_PART_KNOB);
 1150              		.loc 1 913 0
ARM GAS  /tmp/cc6wDDAF.s 			page 44


 1151 07d2 2968     		ldr	r1, [r5]
 1152 07d4 4FF44032 		mov	r2, #196608
 1153 07d8 5031     		adds	r1, r1, #80
 1154 07da 2046     		mov	r0, r4
 1155 07dc FFF7FEFF 		bl	lv_obj_add_style
 1156              	.LVL160:
 914:Drivers/lvgl/lvgl/src/extra/themes/default/lv_theme_default.c ****         lv_obj_add_style(obj, &styles->disabled, LV_PART_KNOB | LV_STATE_DISABLED);
 1157              		.loc 1 914 0
 1158 07e0 2968     		ldr	r1, [r5]
 1159 07e2 4FF44032 		mov	r2, #196608
 1160 07e6 01F5A471 		add	r1, r1, #328
 1161 07ea 2046     		mov	r0, r4
 1162 07ec FFF7FEFF 		bl	lv_obj_add_style
 1163              	.LVL161:
 915:Drivers/lvgl/lvgl/src/extra/themes/default/lv_theme_default.c **** 
 1164              		.loc 1 915 0
 1165 07f0 2968     		ldr	r1, [r5]
 1166 07f2 564A     		ldr	r2, .L75+28
 1167 07f4 6031     		adds	r1, r1, #96
 1168 07f6 2046     		mov	r0, r4
 1169 07f8 FFF7FEFF 		bl	lv_obj_add_style
 1170              	.LVL162:
 917:Drivers/lvgl/lvgl/src/extra/themes/default/lv_theme_default.c ****         lv_obj_add_style(obj, &styles->transition_normal, LV_PART_INDICATOR);
 1171              		.loc 1 917 0
 1172 07fc 2968     		ldr	r1, [r5]
 1173 07fe 3246     		mov	r2, r6
 1174 0800 D831     		adds	r1, r1, #216
 1175 0802 2046     		mov	r0, r4
 1176 0804 FFF7FEFF 		bl	lv_obj_add_style
 1177              	.LVL163:
 918:Drivers/lvgl/lvgl/src/extra/themes/default/lv_theme_default.c ****     }
 1178              		.loc 1 918 0
 1179 0808 2968     		ldr	r1, [r5]
 1180 080a 4FF40032 		mov	r2, #131072
 1181 080e D831     		adds	r1, r1, #216
 1182 0810 2046     		mov	r0, r4
 1183 0812 FFF7FEFF 		bl	lv_obj_add_style
 1184              	.LVL164:
 1185 0816 52E4     		b	.L1
 1186              	.L67:
 924:Drivers/lvgl/lvgl/src/extra/themes/default/lv_theme_default.c ****         lv_obj_add_style(obj, &styles->pad_small, 0);
 1187              		.loc 1 924 0
 1188 0818 454D     		ldr	r5, .L75
 1189 081a 2968     		ldr	r1, [r5]
 1190 081c 0022     		movs	r2, #0
 1191 081e 1831     		adds	r1, r1, #24
 1192 0820 2046     		mov	r0, r4
 1193 0822 FFF7FEFF 		bl	lv_obj_add_style
 1194              	.LVL165:
 925:Drivers/lvgl/lvgl/src/extra/themes/default/lv_theme_default.c ****         lv_obj_add_style(obj, &styles->chart_bg, 0);
 1195              		.loc 1 925 0
 1196 0826 2968     		ldr	r1, [r5]
 1197 0828 0022     		movs	r2, #0
 1198 082a 7831     		adds	r1, r1, #120
 1199 082c 2046     		mov	r0, r4
 1200 082e FFF7FEFF 		bl	lv_obj_add_style
 1201              	.LVL166:
ARM GAS  /tmp/cc6wDDAF.s 			page 45


 926:Drivers/lvgl/lvgl/src/extra/themes/default/lv_theme_default.c ****         lv_obj_add_style(obj, &styles->scrollbar, LV_PART_SCROLLBAR);
 1202              		.loc 1 926 0
 1203 0832 2968     		ldr	r1, [r5]
 1204 0834 0022     		movs	r2, #0
 1205 0836 01F59471 		add	r1, r1, #296
 1206 083a 2046     		mov	r0, r4
 1207 083c FFF7FEFF 		bl	lv_obj_add_style
 1208              	.LVL167:
 927:Drivers/lvgl/lvgl/src/extra/themes/default/lv_theme_default.c ****         lv_obj_add_style(obj, &styles->scrollbar_scrolled, LV_PART_SCROLLBAR | LV_STATE_SCROLLED);
 1209              		.loc 1 927 0
 1210 0840 2968     		ldr	r1, [r5]
 1211 0842 4FF48032 		mov	r2, #65536
 1212 0846 0831     		adds	r1, r1, #8
 1213 0848 2046     		mov	r0, r4
 1214 084a FFF7FEFF 		bl	lv_obj_add_style
 1215              	.LVL168:
 928:Drivers/lvgl/lvgl/src/extra/themes/default/lv_theme_default.c ****         lv_obj_add_style(obj, &styles->chart_series, LV_PART_ITEMS);
 1216              		.loc 1 928 0
 1217 084e 2968     		ldr	r1, [r5]
 1218 0850 384A     		ldr	r2, .L75+4
 1219 0852 1031     		adds	r1, r1, #16
 1220 0854 2046     		mov	r0, r4
 1221 0856 FFF7FEFF 		bl	lv_obj_add_style
 1222              	.LVL169:
 929:Drivers/lvgl/lvgl/src/extra/themes/default/lv_theme_default.c ****         lv_obj_add_style(obj, &styles->chart_indic, LV_PART_INDICATOR);
 1223              		.loc 1 929 0
 1224 085a 2968     		ldr	r1, [r5]
 1225 085c 4FF4A022 		mov	r2, #327680
 1226 0860 01F58871 		add	r1, r1, #272
 1227 0864 2046     		mov	r0, r4
 1228 0866 FFF7FEFF 		bl	lv_obj_add_style
 1229              	.LVL170:
 930:Drivers/lvgl/lvgl/src/extra/themes/default/lv_theme_default.c ****         lv_obj_add_style(obj, &styles->chart_ticks, LV_PART_TICKS);
 1230              		.loc 1 930 0
 1231 086a 2968     		ldr	r1, [r5]
 1232 086c 4FF40032 		mov	r2, #131072
 1233 0870 01F58C71 		add	r1, r1, #280
 1234 0874 2046     		mov	r0, r4
 1235 0876 FFF7FEFF 		bl	lv_obj_add_style
 1236              	.LVL171:
 931:Drivers/lvgl/lvgl/src/extra/themes/default/lv_theme_default.c ****         lv_obj_add_style(obj, &styles->chart_series, LV_PART_CURSOR);
 1237              		.loc 1 931 0
 1238 087a 2968     		ldr	r1, [r5]
 1239 087c 4FF4C022 		mov	r2, #393216
 1240 0880 01F59071 		add	r1, r1, #288
 1241 0884 2046     		mov	r0, r4
 1242 0886 FFF7FEFF 		bl	lv_obj_add_style
 1243              	.LVL172:
 932:Drivers/lvgl/lvgl/src/extra/themes/default/lv_theme_default.c ****     }
 1244              		.loc 1 932 0
 1245 088a 2968     		ldr	r1, [r5]
 1246 088c 4FF4E022 		mov	r2, #458752
 1247 0890 01F58871 		add	r1, r1, #272
 1248 0894 2046     		mov	r0, r4
 1249 0896 FFF7FEFF 		bl	lv_obj_add_style
 1250              	.LVL173:
 1251 089a 10E4     		b	.L1
ARM GAS  /tmp/cc6wDDAF.s 			page 46


 1252              	.L21:
 949:Drivers/lvgl/lvgl/src/extra/themes/default/lv_theme_default.c ****         lv_obj_add_style(obj, &styles->card, 0);
 1253              		.loc 1 949 0
 1254 089c 2C49     		ldr	r1, .L75+32
 1255 089e 2046     		mov	r0, r4
 1256 08a0 FFF7FEFF 		bl	lv_obj_check_type
 1257              	.LVL174:
 1258 08a4 0028     		cmp	r0, #0
 1259 08a6 5BD1     		bne	.L68
 959:Drivers/lvgl/lvgl/src/extra/themes/default/lv_theme_default.c ****         lv_obj_add_style(obj, &styles->card, 0);
 1260              		.loc 1 959 0
 1261 08a8 2A49     		ldr	r1, .L75+36
 1262 08aa 2046     		mov	r0, r4
 1263 08ac FFF7FEFF 		bl	lv_obj_check_type
 1264              	.LVL175:
 1265 08b0 0028     		cmp	r0, #0
 1266 08b2 00F08980 		beq	.L23
 960:Drivers/lvgl/lvgl/src/extra/themes/default/lv_theme_default.c ****         lv_obj_add_style(obj, &styles->clip_corner, 0);
 1267              		.loc 1 960 0
 1268 08b6 1E4D     		ldr	r5, .L75
 1269 08b8 2968     		ldr	r1, [r5]
 1270 08ba 0022     		movs	r2, #0
 1271 08bc 1831     		adds	r1, r1, #24
 1272 08be 2046     		mov	r0, r4
 1273 08c0 FFF7FEFF 		bl	lv_obj_add_style
 1274              	.LVL176:
 961:Drivers/lvgl/lvgl/src/extra/themes/default/lv_theme_default.c ****         lv_obj_add_style(obj, &styles->line_space_large, 0);
 1275              		.loc 1 961 0
 1276 08c4 2968     		ldr	r1, [r5]
 1277 08c6 0022     		movs	r2, #0
 1278 08c8 C031     		adds	r1, r1, #192
 1279 08ca 2046     		mov	r0, r4
 1280 08cc FFF7FEFF 		bl	lv_obj_add_style
 1281              	.LVL177:
 962:Drivers/lvgl/lvgl/src/extra/themes/default/lv_theme_default.c ****         lv_obj_add_style(obj, &styles->dropdown_list, 0);
 1282              		.loc 1 962 0
 1283 08d0 2968     		ldr	r1, [r5]
 1284 08d2 0022     		movs	r2, #0
 1285 08d4 9031     		adds	r1, r1, #144
 1286 08d6 2046     		mov	r0, r4
 1287 08d8 FFF7FEFF 		bl	lv_obj_add_style
 1288              	.LVL178:
 963:Drivers/lvgl/lvgl/src/extra/themes/default/lv_theme_default.c ****         lv_obj_add_style(obj, &styles->scrollbar, LV_PART_SCROLLBAR);
 1289              		.loc 1 963 0
 1290 08dc 2968     		ldr	r1, [r5]
 1291 08de 0022     		movs	r2, #0
 1292 08e0 01F59871 		add	r1, r1, #304
 1293 08e4 2046     		mov	r0, r4
 1294 08e6 FFF7FEFF 		bl	lv_obj_add_style
 1295              	.LVL179:
 964:Drivers/lvgl/lvgl/src/extra/themes/default/lv_theme_default.c ****         lv_obj_add_style(obj, &styles->scrollbar_scrolled, LV_PART_SCROLLBAR | LV_STATE_SCROLLED);
 1296              		.loc 1 964 0
 1297 08ea 2968     		ldr	r1, [r5]
 1298 08ec 4FF48032 		mov	r2, #65536
 1299 08f0 0831     		adds	r1, r1, #8
 1300 08f2 2046     		mov	r0, r4
 1301 08f4 FFF7FEFF 		bl	lv_obj_add_style
ARM GAS  /tmp/cc6wDDAF.s 			page 47


 1302              	.LVL180:
 965:Drivers/lvgl/lvgl/src/extra/themes/default/lv_theme_default.c ****         lv_obj_add_style(obj, &styles->bg_color_white, LV_PART_SELECTED);
 1303              		.loc 1 965 0
 1304 08f8 2968     		ldr	r1, [r5]
 1305 08fa 0E4A     		ldr	r2, .L75+4
 1306 08fc 1031     		adds	r1, r1, #16
 1307 08fe 2046     		mov	r0, r4
 1308 0900 FFF7FEFF 		bl	lv_obj_add_style
 1309              	.LVL181:
 966:Drivers/lvgl/lvgl/src/extra/themes/default/lv_theme_default.c ****         lv_obj_add_style(obj, &styles->bg_color_primary, LV_PART_SELECTED | LV_STATE_CHECKED);
 1310              		.loc 1 966 0
 1311 0904 2968     		ldr	r1, [r5]
 1312 0906 4FF48022 		mov	r2, #262144
 1313 090a 5031     		adds	r1, r1, #80
 1314 090c 2046     		mov	r0, r4
 1315 090e FFF7FEFF 		bl	lv_obj_add_style
 1316              	.LVL182:
 967:Drivers/lvgl/lvgl/src/extra/themes/default/lv_theme_default.c ****         lv_obj_add_style(obj, &styles->pressed, LV_PART_SELECTED | LV_STATE_PRESSED);
 1317              		.loc 1 967 0
 1318 0912 2968     		ldr	r1, [r5]
 1319 0914 104A     		ldr	r2, .L75+40
 1320 0916 2831     		adds	r1, r1, #40
 1321 0918 2046     		mov	r0, r4
 1322 091a FFF7FEFF 		bl	lv_obj_add_style
 1323              	.LVL183:
 968:Drivers/lvgl/lvgl/src/extra/themes/default/lv_theme_default.c ****     }
 1324              		.loc 1 968 0
 1325 091e 2968     		ldr	r1, [r5]
 1326 0920 0E4A     		ldr	r2, .L75+44
 1327 0922 5831     		adds	r1, r1, #88
 1328 0924 2046     		mov	r0, r4
 1329 0926 FFF7FEFF 		bl	lv_obj_add_style
 1330              	.LVL184:
 1331 092a FFF7C8BB 		b	.L1
 1332              	.L76:
 1333 092e 00BF     		.align	2
 1334              	.L75:
 1335 0930 00000000 		.word	.LANCHOR0
 1336 0934 40000100 		.word	65600
 1337 0938 20000500 		.word	327712
 1338 093c 04000500 		.word	327684
 1339 0940 08000500 		.word	327688
 1340 0944 80000200 		.word	131200
 1341 0948 01000200 		.word	131073
 1342 094c 80000300 		.word	196736
 1343 0950 00000000 		.word	lv_dropdown_class
 1344 0954 00000000 		.word	lv_dropdownlist_class
 1345 0958 01000400 		.word	262145
 1346 095c 20000400 		.word	262176
 1347              	.L68:
 950:Drivers/lvgl/lvgl/src/extra/themes/default/lv_theme_default.c ****         lv_obj_add_style(obj, &styles->pad_small, 0);
 1348              		.loc 1 950 0
 1349 0960 C64D     		ldr	r5, .L77
 1350 0962 2968     		ldr	r1, [r5]
 1351 0964 0022     		movs	r2, #0
 1352 0966 1831     		adds	r1, r1, #24
 1353 0968 2046     		mov	r0, r4
ARM GAS  /tmp/cc6wDDAF.s 			page 48


 1354 096a FFF7FEFF 		bl	lv_obj_add_style
 1355              	.LVL185:
 951:Drivers/lvgl/lvgl/src/extra/themes/default/lv_theme_default.c ****         lv_obj_add_style(obj, &styles->transition_delayed, 0);
 1356              		.loc 1 951 0
 1357 096e 2968     		ldr	r1, [r5]
 1358 0970 0022     		movs	r2, #0
 1359 0972 7831     		adds	r1, r1, #120
 1360 0974 2046     		mov	r0, r4
 1361 0976 FFF7FEFF 		bl	lv_obj_add_style
 1362              	.LVL186:
 952:Drivers/lvgl/lvgl/src/extra/themes/default/lv_theme_default.c ****         lv_obj_add_style(obj, &styles->transition_normal, LV_STATE_PRESSED);
 1363              		.loc 1 952 0
 1364 097a 2968     		ldr	r1, [r5]
 1365 097c 0022     		movs	r2, #0
 1366 097e D031     		adds	r1, r1, #208
 1367 0980 2046     		mov	r0, r4
 1368 0982 FFF7FEFF 		bl	lv_obj_add_style
 1369              	.LVL187:
 953:Drivers/lvgl/lvgl/src/extra/themes/default/lv_theme_default.c ****         lv_obj_add_style(obj, &styles->pressed, LV_STATE_PRESSED);
 1370              		.loc 1 953 0
 1371 0986 2968     		ldr	r1, [r5]
 1372 0988 2022     		movs	r2, #32
 1373 098a D831     		adds	r1, r1, #216
 1374 098c 2046     		mov	r0, r4
 1375 098e FFF7FEFF 		bl	lv_obj_add_style
 1376              	.LVL188:
 954:Drivers/lvgl/lvgl/src/extra/themes/default/lv_theme_default.c ****         lv_obj_add_style(obj, &styles->outline_primary, LV_STATE_FOCUS_KEY);
 1377              		.loc 1 954 0
 1378 0992 2968     		ldr	r1, [r5]
 1379 0994 2022     		movs	r2, #32
 1380 0996 5831     		adds	r1, r1, #88
 1381 0998 2046     		mov	r0, r4
 1382 099a FFF7FEFF 		bl	lv_obj_add_style
 1383              	.LVL189:
 955:Drivers/lvgl/lvgl/src/extra/themes/default/lv_theme_default.c ****         lv_obj_add_style(obj, &styles->outline_secondary, LV_STATE_EDITED);
 1384              		.loc 1 955 0
 1385 099e 2968     		ldr	r1, [r5]
 1386 09a0 0422     		movs	r2, #4
 1387 09a2 A031     		adds	r1, r1, #160
 1388 09a4 2046     		mov	r0, r4
 1389 09a6 FFF7FEFF 		bl	lv_obj_add_style
 1390              	.LVL190:
 956:Drivers/lvgl/lvgl/src/extra/themes/default/lv_theme_default.c ****         lv_obj_add_style(obj, &styles->transition_normal, LV_PART_INDICATOR);
 1391              		.loc 1 956 0
 1392 09aa 2968     		ldr	r1, [r5]
 1393 09ac 0822     		movs	r2, #8
 1394 09ae A831     		adds	r1, r1, #168
 1395 09b0 2046     		mov	r0, r4
 1396 09b2 FFF7FEFF 		bl	lv_obj_add_style
 1397              	.LVL191:
 957:Drivers/lvgl/lvgl/src/extra/themes/default/lv_theme_default.c ****     }
 1398              		.loc 1 957 0
 1399 09b6 2968     		ldr	r1, [r5]
 1400 09b8 4FF40032 		mov	r2, #131072
 1401 09bc D831     		adds	r1, r1, #216
 1402 09be 2046     		mov	r0, r4
 1403 09c0 FFF7FEFF 		bl	lv_obj_add_style
ARM GAS  /tmp/cc6wDDAF.s 			page 49


 1404              	.LVL192:
 1405 09c4 FFF77BBB 		b	.L1
 1406              	.L23:
 973:Drivers/lvgl/lvgl/src/extra/themes/default/lv_theme_default.c ****         lv_obj_add_style(obj, &styles->arc_indic, 0);
 1407              		.loc 1 973 0
 1408 09c8 AD49     		ldr	r1, .L77+4
 1409 09ca 2046     		mov	r0, r4
 1410 09cc FFF7FEFF 		bl	lv_obj_check_type
 1411              	.LVL193:
 1412 09d0 00B3     		cbz	r0, .L24
 974:Drivers/lvgl/lvgl/src/extra/themes/default/lv_theme_default.c ****         lv_obj_add_style(obj, &styles->arc_indic, LV_PART_INDICATOR);
 1413              		.loc 1 974 0
 1414 09d2 AA4D     		ldr	r5, .L77
 1415 09d4 2968     		ldr	r1, [r5]
 1416 09d6 0022     		movs	r2, #0
 1417 09d8 01F58071 		add	r1, r1, #256
 1418 09dc 2046     		mov	r0, r4
 1419 09de FFF7FEFF 		bl	lv_obj_add_style
 1420              	.LVL194:
 975:Drivers/lvgl/lvgl/src/extra/themes/default/lv_theme_default.c ****         lv_obj_add_style(obj, &styles->arc_indic_primary, LV_PART_INDICATOR);
 1421              		.loc 1 975 0
 1422 09e2 2968     		ldr	r1, [r5]
 1423 09e4 4FF40032 		mov	r2, #131072
 1424 09e8 01F58071 		add	r1, r1, #256
 1425 09ec 2046     		mov	r0, r4
 1426 09ee FFF7FEFF 		bl	lv_obj_add_style
 1427              	.LVL195:
 976:Drivers/lvgl/lvgl/src/extra/themes/default/lv_theme_default.c ****         lv_obj_add_style(obj, &styles->knob, LV_PART_KNOB);
 1428              		.loc 1 976 0
 1429 09f2 2968     		ldr	r1, [r5]
 1430 09f4 4FF40032 		mov	r2, #131072
 1431 09f8 01F58471 		add	r1, r1, #264
 1432 09fc 2046     		mov	r0, r4
 1433 09fe FFF7FEFF 		bl	lv_obj_add_style
 1434              	.LVL196:
 977:Drivers/lvgl/lvgl/src/extra/themes/default/lv_theme_default.c ****     }
 1435              		.loc 1 977 0
 1436 0a02 2968     		ldr	r1, [r5]
 1437 0a04 4FF44032 		mov	r2, #196608
 1438 0a08 F031     		adds	r1, r1, #240
 1439 0a0a 2046     		mov	r0, r4
 1440 0a0c FFF7FEFF 		bl	lv_obj_add_style
 1441              	.LVL197:
 1442 0a10 FFF755BB 		b	.L1
 1443              	.L24:
 983:Drivers/lvgl/lvgl/src/extra/themes/default/lv_theme_default.c ****         lv_obj_add_style(obj, &styles->arc_indic, 0);
 1444              		.loc 1 983 0
 1445 0a14 9B49     		ldr	r1, .L77+8
 1446 0a16 2046     		mov	r0, r4
 1447 0a18 FFF7FEFF 		bl	lv_obj_check_type
 1448              	.LVL198:
 1449 0a1c 0028     		cmp	r0, #0
 1450 0a1e 48D1     		bne	.L69
 991:Drivers/lvgl/lvgl/src/extra/themes/default/lv_theme_default.c ****         lv_obj_add_style(obj, &styles->card, 0);
 1451              		.loc 1 991 0
 1452 0a20 9949     		ldr	r1, .L77+12
 1453 0a22 2046     		mov	r0, r4
ARM GAS  /tmp/cc6wDDAF.s 			page 50


 1454 0a24 FFF7FEFF 		bl	lv_obj_check_type
 1455              	.LVL199:
 1456 0a28 0028     		cmp	r0, #0
 1457 0a2a 5CD1     		bne	.L70
 999:Drivers/lvgl/lvgl/src/extra/themes/default/lv_theme_default.c ****         lv_obj_add_style(obj, &styles->card, 0);
 1458              		.loc 1 999 0
 1459 0a2c 9749     		ldr	r1, .L77+16
 1460 0a2e 2046     		mov	r0, r4
 1461 0a30 FFF7FEFF 		bl	lv_obj_check_type
 1462              	.LVL200:
 1463 0a34 0028     		cmp	r0, #0
 1464 0a36 6DD0     		beq	.L27
1000:Drivers/lvgl/lvgl/src/extra/themes/default/lv_theme_default.c ****         lv_obj_add_style(obj, &styles->pad_small, 0);
 1465              		.loc 1 1000 0
 1466 0a38 904D     		ldr	r5, .L77
 1467 0a3a 2968     		ldr	r1, [r5]
 1468 0a3c 0022     		movs	r2, #0
 1469 0a3e 1831     		adds	r1, r1, #24
 1470 0a40 2046     		mov	r0, r4
 1471 0a42 FFF7FEFF 		bl	lv_obj_add_style
 1472              	.LVL201:
1001:Drivers/lvgl/lvgl/src/extra/themes/default/lv_theme_default.c ****         lv_obj_add_style(obj, &styles->disabled, LV_STATE_DISABLED);
 1473              		.loc 1 1001 0
 1474 0a46 2968     		ldr	r1, [r5]
 1475 0a48 0022     		movs	r2, #0
 1476 0a4a 7831     		adds	r1, r1, #120
 1477 0a4c 2046     		mov	r0, r4
 1478 0a4e FFF7FEFF 		bl	lv_obj_add_style
 1479              	.LVL202:
1002:Drivers/lvgl/lvgl/src/extra/themes/default/lv_theme_default.c ****         lv_obj_add_style(obj, &styles->outline_primary, LV_STATE_FOCUS_KEY);
 1480              		.loc 1 1002 0
 1481 0a52 2968     		ldr	r1, [r5]
 1482 0a54 8022     		movs	r2, #128
 1483 0a56 6031     		adds	r1, r1, #96
 1484 0a58 2046     		mov	r0, r4
 1485 0a5a FFF7FEFF 		bl	lv_obj_add_style
 1486              	.LVL203:
1003:Drivers/lvgl/lvgl/src/extra/themes/default/lv_theme_default.c ****         lv_obj_add_style(obj, &styles->outline_secondary, LV_STATE_EDITED);
 1487              		.loc 1 1003 0
 1488 0a5e 2968     		ldr	r1, [r5]
 1489 0a60 0422     		movs	r2, #4
 1490 0a62 A031     		adds	r1, r1, #160
 1491 0a64 2046     		mov	r0, r4
 1492 0a66 FFF7FEFF 		bl	lv_obj_add_style
 1493              	.LVL204:
1004:Drivers/lvgl/lvgl/src/extra/themes/default/lv_theme_default.c ****         lv_obj_add_style(obj, &styles->scrollbar, LV_PART_SCROLLBAR);
 1494              		.loc 1 1004 0
 1495 0a6a 2968     		ldr	r1, [r5]
 1496 0a6c 0822     		movs	r2, #8
 1497 0a6e A831     		adds	r1, r1, #168
 1498 0a70 2046     		mov	r0, r4
 1499 0a72 FFF7FEFF 		bl	lv_obj_add_style
 1500              	.LVL205:
1005:Drivers/lvgl/lvgl/src/extra/themes/default/lv_theme_default.c ****         lv_obj_add_style(obj, &styles->scrollbar_scrolled, LV_PART_SCROLLBAR | LV_STATE_SCROLLED);
 1501              		.loc 1 1005 0
 1502 0a76 2968     		ldr	r1, [r5]
 1503 0a78 4FF48032 		mov	r2, #65536
ARM GAS  /tmp/cc6wDDAF.s 			page 51


 1504 0a7c 0831     		adds	r1, r1, #8
 1505 0a7e 2046     		mov	r0, r4
 1506 0a80 FFF7FEFF 		bl	lv_obj_add_style
 1507              	.LVL206:
1006:Drivers/lvgl/lvgl/src/extra/themes/default/lv_theme_default.c ****         lv_obj_add_style(obj, &styles->ta_cursor, LV_PART_CURSOR | LV_STATE_FOCUSED);
 1508              		.loc 1 1006 0
 1509 0a84 2968     		ldr	r1, [r5]
 1510 0a86 824A     		ldr	r2, .L77+20
 1511 0a88 1031     		adds	r1, r1, #16
 1512 0a8a 2046     		mov	r0, r4
 1513 0a8c FFF7FEFF 		bl	lv_obj_add_style
 1514              	.LVL207:
1007:Drivers/lvgl/lvgl/src/extra/themes/default/lv_theme_default.c ****         lv_obj_add_style(obj, &styles->ta_placeholder, LV_PART_TEXTAREA_PLACEHOLDER);
 1515              		.loc 1 1007 0
 1516 0a90 2968     		ldr	r1, [r5]
 1517 0a92 804A     		ldr	r2, .L77+24
 1518 0a94 01F5B871 		add	r1, r1, #368
 1519 0a98 2046     		mov	r0, r4
 1520 0a9a FFF7FEFF 		bl	lv_obj_add_style
 1521              	.LVL208:
1008:Drivers/lvgl/lvgl/src/extra/themes/default/lv_theme_default.c ****     }
 1522              		.loc 1 1008 0
 1523 0a9e 2968     		ldr	r1, [r5]
 1524 0aa0 4FF40022 		mov	r2, #524288
 1525 0aa4 01F5BC71 		add	r1, r1, #376
 1526 0aa8 2046     		mov	r0, r4
 1527 0aaa FFF7FEFF 		bl	lv_obj_add_style
 1528              	.LVL209:
 1529 0aae FFF706BB 		b	.L1
 1530              	.L69:
 984:Drivers/lvgl/lvgl/src/extra/themes/default/lv_theme_default.c ****         lv_obj_add_style(obj, &styles->arc_indic, LV_PART_INDICATOR);
 1531              		.loc 1 984 0
 1532 0ab2 724D     		ldr	r5, .L77
 1533 0ab4 2968     		ldr	r1, [r5]
 1534 0ab6 0022     		movs	r2, #0
 1535 0ab8 01F58071 		add	r1, r1, #256
 1536 0abc 2046     		mov	r0, r4
 1537 0abe FFF7FEFF 		bl	lv_obj_add_style
 1538              	.LVL210:
 985:Drivers/lvgl/lvgl/src/extra/themes/default/lv_theme_default.c ****         lv_obj_add_style(obj, &styles->arc_indic_primary, LV_PART_INDICATOR);
 1539              		.loc 1 985 0
 1540 0ac2 2968     		ldr	r1, [r5]
 1541 0ac4 4FF40032 		mov	r2, #131072
 1542 0ac8 01F58071 		add	r1, r1, #256
 1543 0acc 2046     		mov	r0, r4
 1544 0ace FFF7FEFF 		bl	lv_obj_add_style
 1545              	.LVL211:
 986:Drivers/lvgl/lvgl/src/extra/themes/default/lv_theme_default.c ****     }
 1546              		.loc 1 986 0
 1547 0ad2 2968     		ldr	r1, [r5]
 1548 0ad4 4FF40032 		mov	r2, #131072
 1549 0ad8 01F58471 		add	r1, r1, #264
 1550 0adc 2046     		mov	r0, r4
 1551 0ade FFF7FEFF 		bl	lv_obj_add_style
 1552              	.LVL212:
 1553 0ae2 FFF7ECBA 		b	.L1
 1554              	.L70:
ARM GAS  /tmp/cc6wDDAF.s 			page 52


 992:Drivers/lvgl/lvgl/src/extra/themes/default/lv_theme_default.c ****         lv_obj_add_style(obj, &styles->circle, 0);
 1555              		.loc 1 992 0
 1556 0ae6 654D     		ldr	r5, .L77
 1557 0ae8 2968     		ldr	r1, [r5]
 1558 0aea 0022     		movs	r2, #0
 1559 0aec 1831     		adds	r1, r1, #24
 1560 0aee 2046     		mov	r0, r4
 1561 0af0 FFF7FEFF 		bl	lv_obj_add_style
 1562              	.LVL213:
 993:Drivers/lvgl/lvgl/src/extra/themes/default/lv_theme_default.c ****         lv_obj_add_style(obj, &styles->meter_indic, LV_PART_INDICATOR);
 1563              		.loc 1 993 0
 1564 0af4 2968     		ldr	r1, [r5]
 1565 0af6 0022     		movs	r2, #0
 1566 0af8 B031     		adds	r1, r1, #176
 1567 0afa 2046     		mov	r0, r4
 1568 0afc FFF7FEFF 		bl	lv_obj_add_style
 1569              	.LVL214:
 994:Drivers/lvgl/lvgl/src/extra/themes/default/lv_theme_default.c ****     }
 1570              		.loc 1 994 0
 1571 0b00 2968     		ldr	r1, [r5]
 1572 0b02 4FF40032 		mov	r2, #131072
 1573 0b06 01F5B471 		add	r1, r1, #360
 1574 0b0a 2046     		mov	r0, r4
 1575 0b0c FFF7FEFF 		bl	lv_obj_add_style
 1576              	.LVL215:
 1577 0b10 FFF7D5BA 		b	.L1
 1578              	.L27:
1013:Drivers/lvgl/lvgl/src/extra/themes/default/lv_theme_default.c ****         lv_obj_add_style(obj, &styles->card, 0);
 1579              		.loc 1 1013 0
 1580 0b14 6049     		ldr	r1, .L77+28
 1581 0b16 2046     		mov	r0, r4
 1582 0b18 FFF7FEFF 		bl	lv_obj_check_type
 1583              	.LVL216:
 1584 0b1c 70B1     		cbz	r0, .L28
1014:Drivers/lvgl/lvgl/src/extra/themes/default/lv_theme_default.c ****         lv_obj_add_style(obj, &styles->pad_zero, 0);
 1585              		.loc 1 1014 0
 1586 0b1e 574D     		ldr	r5, .L77
 1587 0b20 2968     		ldr	r1, [r5]
 1588 0b22 0022     		movs	r2, #0
 1589 0b24 1831     		adds	r1, r1, #24
 1590 0b26 2046     		mov	r0, r4
 1591 0b28 FFF7FEFF 		bl	lv_obj_add_style
 1592              	.LVL217:
1015:Drivers/lvgl/lvgl/src/extra/themes/default/lv_theme_default.c ****     }
 1593              		.loc 1 1015 0
 1594 0b2c 2968     		ldr	r1, [r5]
 1595 0b2e 0022     		movs	r2, #0
 1596 0b30 6831     		adds	r1, r1, #104
 1597 0b32 2046     		mov	r0, r4
 1598 0b34 FFF7FEFF 		bl	lv_obj_add_style
 1599              	.LVL218:
 1600 0b38 FFF7C1BA 		b	.L1
 1601              	.L28:
1020:Drivers/lvgl/lvgl/src/extra/themes/default/lv_theme_default.c ****         lv_obj_add_style(obj, &styles->calendar_header, 0);
 1602              		.loc 1 1020 0
 1603 0b3c 5749     		ldr	r1, .L77+32
 1604 0b3e 2046     		mov	r0, r4
ARM GAS  /tmp/cc6wDDAF.s 			page 53


 1605 0b40 FFF7FEFF 		bl	lv_obj_check_type
 1606              	.LVL219:
 1607 0b44 48B1     		cbz	r0, .L29
1021:Drivers/lvgl/lvgl/src/extra/themes/default/lv_theme_default.c ****     }
 1608              		.loc 1 1021 0
 1609 0b46 4D4B     		ldr	r3, .L77
 1610 0b48 1968     		ldr	r1, [r3]
 1611 0b4a 0022     		movs	r2, #0
 1612 0b4c 01F5C871 		add	r1, r1, #400
 1613 0b50 2046     		mov	r0, r4
 1614 0b52 FFF7FEFF 		bl	lv_obj_add_style
 1615              	.LVL220:
 1616 0b56 FFF7B2BA 		b	.L1
 1617              	.L29:
1026:Drivers/lvgl/lvgl/src/extra/themes/default/lv_theme_default.c ****         lv_obj_add_style(obj, &styles->calendar_header, 0);
 1618              		.loc 1 1026 0
 1619 0b5a 5149     		ldr	r1, .L77+36
 1620 0b5c 2046     		mov	r0, r4
 1621 0b5e FFF7FEFF 		bl	lv_obj_check_type
 1622              	.LVL221:
 1623 0b62 48B1     		cbz	r0, .L30
1027:Drivers/lvgl/lvgl/src/extra/themes/default/lv_theme_default.c ****     }
 1624              		.loc 1 1027 0
 1625 0b64 454B     		ldr	r3, .L77
 1626 0b66 1968     		ldr	r1, [r3]
 1627 0b68 0022     		movs	r2, #0
 1628 0b6a 01F5C871 		add	r1, r1, #400
 1629 0b6e 2046     		mov	r0, r4
 1630 0b70 FFF7FEFF 		bl	lv_obj_add_style
 1631              	.LVL222:
 1632 0b74 FFF7A3BA 		b	.L1
 1633              	.L30:
1032:Drivers/lvgl/lvgl/src/extra/themes/default/lv_theme_default.c ****         lv_obj_add_style(obj, &styles->scr, 0);
 1634              		.loc 1 1032 0
 1635 0b78 4A49     		ldr	r1, .L77+40
 1636 0b7a 2046     		mov	r0, r4
 1637 0b7c FFF7FEFF 		bl	lv_obj_check_type
 1638              	.LVL223:
 1639 0b80 0028     		cmp	r0, #0
 1640 0b82 57D0     		beq	.L31
1033:Drivers/lvgl/lvgl/src/extra/themes/default/lv_theme_default.c ****         lv_obj_add_style(obj, disp_size == DISP_LARGE ? &styles->pad_small : &styles->pad_tiny, 0);
 1641              		.loc 1 1033 0
 1642 0b84 0022     		movs	r2, #0
 1643 0b86 3D4B     		ldr	r3, .L77
 1644 0b88 1968     		ldr	r1, [r3]
 1645 0b8a 2046     		mov	r0, r4
 1646 0b8c FFF7FEFF 		bl	lv_obj_add_style
 1647              	.LVL224:
1034:Drivers/lvgl/lvgl/src/extra/themes/default/lv_theme_default.c ****         lv_obj_add_style(obj, &styles->outline_primary, LV_STATE_FOCUS_KEY);
 1648              		.loc 1 1034 0
 1649 0b90 454B     		ldr	r3, .L77+44
 1650 0b92 1B78     		ldrb	r3, [r3]	@ zero_extendqisi2
 1651 0b94 012B     		cmp	r3, #1
 1652 0b96 49D1     		bne	.L32
1034:Drivers/lvgl/lvgl/src/extra/themes/default/lv_theme_default.c ****         lv_obj_add_style(obj, &styles->outline_primary, LV_STATE_FOCUS_KEY);
 1653              		.loc 1 1034 0 is_stmt 0 discriminator 1
 1654 0b98 384B     		ldr	r3, .L77
ARM GAS  /tmp/cc6wDDAF.s 			page 54


 1655 0b9a 1968     		ldr	r1, [r3]
 1656 0b9c 7831     		adds	r1, r1, #120
 1657              	.L33:
1034:Drivers/lvgl/lvgl/src/extra/themes/default/lv_theme_default.c ****         lv_obj_add_style(obj, &styles->outline_primary, LV_STATE_FOCUS_KEY);
 1658              		.loc 1 1034 0 discriminator 4
 1659 0b9e 0022     		movs	r2, #0
 1660 0ba0 2046     		mov	r0, r4
 1661 0ba2 FFF7FEFF 		bl	lv_obj_add_style
 1662              	.LVL225:
1035:Drivers/lvgl/lvgl/src/extra/themes/default/lv_theme_default.c ****         lv_obj_add_style(obj, &styles->outline_secondary, LV_STATE_EDITED);
 1663              		.loc 1 1035 0 is_stmt 1 discriminator 4
 1664 0ba6 354D     		ldr	r5, .L77
 1665 0ba8 2968     		ldr	r1, [r5]
 1666 0baa 0422     		movs	r2, #4
 1667 0bac A031     		adds	r1, r1, #160
 1668 0bae 2046     		mov	r0, r4
 1669 0bb0 FFF7FEFF 		bl	lv_obj_add_style
 1670              	.LVL226:
1036:Drivers/lvgl/lvgl/src/extra/themes/default/lv_theme_default.c ****         lv_obj_add_style(obj, &styles->btn, LV_PART_ITEMS);
 1671              		.loc 1 1036 0 discriminator 4
 1672 0bb4 2968     		ldr	r1, [r5]
 1673 0bb6 0822     		movs	r2, #8
 1674 0bb8 A831     		adds	r1, r1, #168
 1675 0bba 2046     		mov	r0, r4
 1676 0bbc FFF7FEFF 		bl	lv_obj_add_style
 1677              	.LVL227:
1037:Drivers/lvgl/lvgl/src/extra/themes/default/lv_theme_default.c ****         lv_obj_add_style(obj, &styles->disabled, LV_PART_ITEMS | LV_STATE_DISABLED);
 1678              		.loc 1 1037 0 discriminator 4
 1679 0bc0 2968     		ldr	r1, [r5]
 1680 0bc2 4FF4A022 		mov	r2, #327680
 1681 0bc6 2031     		adds	r1, r1, #32
 1682 0bc8 2046     		mov	r0, r4
 1683 0bca FFF7FEFF 		bl	lv_obj_add_style
 1684              	.LVL228:
1038:Drivers/lvgl/lvgl/src/extra/themes/default/lv_theme_default.c ****         lv_obj_add_style(obj, &styles->bg_color_white, LV_PART_ITEMS);
 1685              		.loc 1 1038 0 discriminator 4
 1686 0bce 2968     		ldr	r1, [r5]
 1687 0bd0 364A     		ldr	r2, .L77+48
 1688 0bd2 6031     		adds	r1, r1, #96
 1689 0bd4 2046     		mov	r0, r4
 1690 0bd6 FFF7FEFF 		bl	lv_obj_add_style
 1691              	.LVL229:
1039:Drivers/lvgl/lvgl/src/extra/themes/default/lv_theme_default.c ****         lv_obj_add_style(obj, &styles->keyboard_btn_bg, LV_PART_ITEMS);
 1692              		.loc 1 1039 0 discriminator 4
 1693 0bda 2968     		ldr	r1, [r5]
 1694 0bdc 4FF4A022 		mov	r2, #327680
 1695 0be0 5031     		adds	r1, r1, #80
 1696 0be2 2046     		mov	r0, r4
 1697 0be4 FFF7FEFF 		bl	lv_obj_add_style
 1698              	.LVL230:
1040:Drivers/lvgl/lvgl/src/extra/themes/default/lv_theme_default.c ****         lv_obj_add_style(obj, &styles->pressed, LV_PART_ITEMS | LV_STATE_PRESSED);
 1699              		.loc 1 1040 0 discriminator 4
 1700 0be8 2968     		ldr	r1, [r5]
 1701 0bea 4FF4A022 		mov	r2, #327680
 1702 0bee 01F50271 		add	r1, r1, #520
 1703 0bf2 2046     		mov	r0, r4
 1704 0bf4 FFF7FEFF 		bl	lv_obj_add_style
ARM GAS  /tmp/cc6wDDAF.s 			page 55


 1705              	.LVL231:
1041:Drivers/lvgl/lvgl/src/extra/themes/default/lv_theme_default.c ****         lv_obj_add_style(obj, &styles->bg_color_grey, LV_PART_ITEMS | LV_STATE_CHECKED);
 1706              		.loc 1 1041 0 discriminator 4
 1707 0bf8 2968     		ldr	r1, [r5]
 1708 0bfa 2D4A     		ldr	r2, .L77+52
 1709 0bfc 5831     		adds	r1, r1, #88
 1710 0bfe 2046     		mov	r0, r4
 1711 0c00 FFF7FEFF 		bl	lv_obj_add_style
 1712              	.LVL232:
1042:Drivers/lvgl/lvgl/src/extra/themes/default/lv_theme_default.c ****         lv_obj_add_style(obj, &styles->bg_color_primary_muted, LV_PART_ITEMS | LV_STATE_FOCUS_KEY);
 1713              		.loc 1 1042 0 discriminator 4
 1714 0c04 2968     		ldr	r1, [r5]
 1715 0c06 2B4A     		ldr	r2, .L77+56
 1716 0c08 4831     		adds	r1, r1, #72
 1717 0c0a 2046     		mov	r0, r4
 1718 0c0c FFF7FEFF 		bl	lv_obj_add_style
 1719              	.LVL233:
1043:Drivers/lvgl/lvgl/src/extra/themes/default/lv_theme_default.c ****         lv_obj_add_style(obj, &styles->bg_color_secondary_muted, LV_PART_ITEMS | LV_STATE_EDITED);
 1720              		.loc 1 1043 0 discriminator 4
 1721 0c10 2968     		ldr	r1, [r5]
 1722 0c12 294A     		ldr	r2, .L77+60
 1723 0c14 3031     		adds	r1, r1, #48
 1724 0c16 2046     		mov	r0, r4
 1725 0c18 FFF7FEFF 		bl	lv_obj_add_style
 1726              	.LVL234:
1044:Drivers/lvgl/lvgl/src/extra/themes/default/lv_theme_default.c ****     }
 1727              		.loc 1 1044 0 discriminator 4
 1728 0c1c 2968     		ldr	r1, [r5]
 1729 0c1e 274A     		ldr	r2, .L77+64
 1730 0c20 4031     		adds	r1, r1, #64
 1731 0c22 2046     		mov	r0, r4
 1732 0c24 FFF7FEFF 		bl	lv_obj_add_style
 1733              	.LVL235:
 1734 0c28 FFF749BA 		b	.L1
 1735              	.L32:
1034:Drivers/lvgl/lvgl/src/extra/themes/default/lv_theme_default.c ****         lv_obj_add_style(obj, &styles->outline_primary, LV_STATE_FOCUS_KEY);
 1736              		.loc 1 1034 0 discriminator 2
 1737 0c2c 134B     		ldr	r3, .L77
 1738 0c2e 1968     		ldr	r1, [r3]
 1739 0c30 7031     		adds	r1, r1, #112
 1740 0c32 B4E7     		b	.L33
 1741              	.L31:
1048:Drivers/lvgl/lvgl/src/extra/themes/default/lv_theme_default.c ****         lv_obj_add_style(obj, &styles->card, 0);
 1742              		.loc 1 1048 0
 1743 0c34 2249     		ldr	r1, .L77+68
 1744 0c36 2046     		mov	r0, r4
 1745 0c38 FFF7FEFF 		bl	lv_obj_check_type
 1746              	.LVL236:
 1747 0c3c 0028     		cmp	r0, #0
 1748 0c3e 41D0     		beq	.L34
1049:Drivers/lvgl/lvgl/src/extra/themes/default/lv_theme_default.c ****         lv_obj_add_style(obj, &styles->list_bg, 0);
 1749              		.loc 1 1049 0
 1750 0c40 0E4D     		ldr	r5, .L77
 1751 0c42 2968     		ldr	r1, [r5]
 1752 0c44 0022     		movs	r2, #0
 1753 0c46 1831     		adds	r1, r1, #24
 1754 0c48 2046     		mov	r0, r4
ARM GAS  /tmp/cc6wDDAF.s 			page 56


 1755 0c4a FFF7FEFF 		bl	lv_obj_add_style
 1756              	.LVL237:
1050:Drivers/lvgl/lvgl/src/extra/themes/default/lv_theme_default.c ****         lv_obj_add_style(obj, &styles->scrollbar, LV_PART_SCROLLBAR);
 1757              		.loc 1 1050 0
 1758 0c4e 2968     		ldr	r1, [r5]
 1759 0c50 0022     		movs	r2, #0
 1760 0c52 01F50471 		add	r1, r1, #528
 1761 0c56 2046     		mov	r0, r4
 1762 0c58 FFF7FEFF 		bl	lv_obj_add_style
 1763              	.LVL238:
1051:Drivers/lvgl/lvgl/src/extra/themes/default/lv_theme_default.c ****         lv_obj_add_style(obj, &styles->scrollbar_scrolled, LV_PART_SCROLLBAR | LV_STATE_SCROLLED);
 1764              		.loc 1 1051 0
 1765 0c5c 2968     		ldr	r1, [r5]
 1766 0c5e 4FF48032 		mov	r2, #65536
 1767 0c62 0831     		adds	r1, r1, #8
 1768 0c64 2046     		mov	r0, r4
 1769 0c66 FFF7FEFF 		bl	lv_obj_add_style
 1770              	.LVL239:
1052:Drivers/lvgl/lvgl/src/extra/themes/default/lv_theme_default.c ****         return;
 1771              		.loc 1 1052 0
 1772 0c6a 2968     		ldr	r1, [r5]
 1773 0c6c 084A     		ldr	r2, .L77+20
 1774 0c6e 1031     		adds	r1, r1, #16
 1775 0c70 2046     		mov	r0, r4
 1776 0c72 FFF7FEFF 		bl	lv_obj_add_style
 1777              	.LVL240:
1053:Drivers/lvgl/lvgl/src/extra/themes/default/lv_theme_default.c ****     }
 1778              		.loc 1 1053 0
 1779 0c76 FFF722BA 		b	.L1
 1780              	.L78:
 1781 0c7a 00BF     		.align	2
 1782              	.L77:
 1783 0c7c 00000000 		.word	.LANCHOR0
 1784 0c80 00000000 		.word	lv_arc_class
 1785 0c84 00000000 		.word	lv_spinner_class
 1786 0c88 00000000 		.word	lv_meter_class
 1787 0c8c 00000000 		.word	lv_textarea_class
 1788 0c90 40000100 		.word	65600
 1789 0c94 02000700 		.word	458754
 1790 0c98 00000000 		.word	lv_calendar_class
 1791 0c9c 00000000 		.word	lv_calendar_header_arrow_class
 1792 0ca0 00000000 		.word	lv_calendar_header_dropdown_class
 1793 0ca4 00000000 		.word	lv_keyboard_class
 1794 0ca8 00000000 		.word	.LANCHOR1
 1795 0cac 80000500 		.word	327808
 1796 0cb0 20000500 		.word	327712
 1797 0cb4 01000500 		.word	327681
 1798 0cb8 04000500 		.word	327684
 1799 0cbc 08000500 		.word	327688
 1800 0cc0 00000000 		.word	lv_list_class
 1801              	.L34:
1055:Drivers/lvgl/lvgl/src/extra/themes/default/lv_theme_default.c ****         lv_obj_add_style(obj, &styles->bg_color_grey, 0);
 1802              		.loc 1 1055 0
 1803 0cc4 B549     		ldr	r1, .L79
 1804 0cc6 2046     		mov	r0, r4
 1805 0cc8 FFF7FEFF 		bl	lv_obj_check_type
 1806              	.LVL241:
ARM GAS  /tmp/cc6wDDAF.s 			page 57


 1807 0ccc 78B1     		cbz	r0, .L35
1056:Drivers/lvgl/lvgl/src/extra/themes/default/lv_theme_default.c ****         lv_obj_add_style(obj, &styles->list_item_grow, 0);
 1808              		.loc 1 1056 0
 1809 0cce B44D     		ldr	r5, .L79+4
 1810 0cd0 2968     		ldr	r1, [r5]
 1811 0cd2 0022     		movs	r2, #0
 1812 0cd4 4831     		adds	r1, r1, #72
 1813 0cd6 2046     		mov	r0, r4
 1814 0cd8 FFF7FEFF 		bl	lv_obj_add_style
 1815              	.LVL242:
1057:Drivers/lvgl/lvgl/src/extra/themes/default/lv_theme_default.c ****     }
 1816              		.loc 1 1057 0
 1817 0cdc 2968     		ldr	r1, [r5]
 1818 0cde 0022     		movs	r2, #0
 1819 0ce0 01F50871 		add	r1, r1, #544
 1820 0ce4 2046     		mov	r0, r4
 1821 0ce6 FFF7FEFF 		bl	lv_obj_add_style
 1822              	.LVL243:
 1823 0cea FFF7E8B9 		b	.L1
 1824              	.L35:
1059:Drivers/lvgl/lvgl/src/extra/themes/default/lv_theme_default.c ****         lv_obj_add_style(obj, &styles->bg_color_white, 0);
 1825              		.loc 1 1059 0
 1826 0cee AD49     		ldr	r1, .L79+8
 1827 0cf0 2046     		mov	r0, r4
 1828 0cf2 FFF7FEFF 		bl	lv_obj_check_type
 1829              	.LVL244:
 1830 0cf6 48B3     		cbz	r0, .L36
1060:Drivers/lvgl/lvgl/src/extra/themes/default/lv_theme_default.c ****         lv_obj_add_style(obj, &styles->list_btn, 0);
 1831              		.loc 1 1060 0
 1832 0cf8 A94D     		ldr	r5, .L79+4
 1833 0cfa 2968     		ldr	r1, [r5]
 1834 0cfc 0022     		movs	r2, #0
 1835 0cfe 5031     		adds	r1, r1, #80
 1836 0d00 2046     		mov	r0, r4
 1837 0d02 FFF7FEFF 		bl	lv_obj_add_style
 1838              	.LVL245:
1061:Drivers/lvgl/lvgl/src/extra/themes/default/lv_theme_default.c ****         lv_obj_add_style(obj, &styles->bg_color_primary, LV_STATE_FOCUS_KEY);
 1839              		.loc 1 1061 0
 1840 0d06 2968     		ldr	r1, [r5]
 1841 0d08 0022     		movs	r2, #0
 1842 0d0a 01F50671 		add	r1, r1, #536
 1843 0d0e 2046     		mov	r0, r4
 1844 0d10 FFF7FEFF 		bl	lv_obj_add_style
 1845              	.LVL246:
1062:Drivers/lvgl/lvgl/src/extra/themes/default/lv_theme_default.c ****         lv_obj_add_style(obj, &styles->list_item_grow, LV_STATE_FOCUS_KEY);
 1846              		.loc 1 1062 0
 1847 0d14 2968     		ldr	r1, [r5]
 1848 0d16 0422     		movs	r2, #4
 1849 0d18 2831     		adds	r1, r1, #40
 1850 0d1a 2046     		mov	r0, r4
 1851 0d1c FFF7FEFF 		bl	lv_obj_add_style
 1852              	.LVL247:
1063:Drivers/lvgl/lvgl/src/extra/themes/default/lv_theme_default.c ****         lv_obj_add_style(obj, &styles->list_item_grow, LV_STATE_PRESSED);
 1853              		.loc 1 1063 0
 1854 0d20 2968     		ldr	r1, [r5]
 1855 0d22 0422     		movs	r2, #4
 1856 0d24 01F50871 		add	r1, r1, #544
ARM GAS  /tmp/cc6wDDAF.s 			page 58


 1857 0d28 2046     		mov	r0, r4
 1858 0d2a FFF7FEFF 		bl	lv_obj_add_style
 1859              	.LVL248:
1064:Drivers/lvgl/lvgl/src/extra/themes/default/lv_theme_default.c ****         lv_obj_add_style(obj, &styles->pressed, LV_STATE_PRESSED);
 1860              		.loc 1 1064 0
 1861 0d2e 2968     		ldr	r1, [r5]
 1862 0d30 2022     		movs	r2, #32
 1863 0d32 01F50871 		add	r1, r1, #544
 1864 0d36 2046     		mov	r0, r4
 1865 0d38 FFF7FEFF 		bl	lv_obj_add_style
 1866              	.LVL249:
1065:Drivers/lvgl/lvgl/src/extra/themes/default/lv_theme_default.c **** 
 1867              		.loc 1 1065 0
 1868 0d3c 2968     		ldr	r1, [r5]
 1869 0d3e 2022     		movs	r2, #32
 1870 0d40 5831     		adds	r1, r1, #88
 1871 0d42 2046     		mov	r0, r4
 1872 0d44 FFF7FEFF 		bl	lv_obj_add_style
 1873              	.LVL250:
 1874 0d48 FFF7B9B9 		b	.L1
 1875              	.L36:
1070:Drivers/lvgl/lvgl/src/extra/themes/default/lv_theme_default.c ****         lv_obj_add_style(obj, &styles->card, 0);
 1876              		.loc 1 1070 0
 1877 0d4c 9649     		ldr	r1, .L79+12
 1878 0d4e 2046     		mov	r0, r4
 1879 0d50 FFF7FEFF 		bl	lv_obj_check_type
 1880              	.LVL251:
 1881 0d54 78B1     		cbz	r0, .L37
1071:Drivers/lvgl/lvgl/src/extra/themes/default/lv_theme_default.c ****         lv_obj_add_style(obj, &styles->menu_bg, 0);
 1882              		.loc 1 1071 0
 1883 0d56 924D     		ldr	r5, .L79+4
 1884 0d58 2968     		ldr	r1, [r5]
 1885 0d5a 0022     		movs	r2, #0
 1886 0d5c 1831     		adds	r1, r1, #24
 1887 0d5e 2046     		mov	r0, r4
 1888 0d60 FFF7FEFF 		bl	lv_obj_add_style
 1889              	.LVL252:
1072:Drivers/lvgl/lvgl/src/extra/themes/default/lv_theme_default.c ****     }
 1890              		.loc 1 1072 0
 1891 0d64 2968     		ldr	r1, [r5]
 1892 0d66 0022     		movs	r2, #0
 1893 0d68 01F5D071 		add	r1, r1, #416
 1894 0d6c 2046     		mov	r0, r4
 1895 0d6e FFF7FEFF 		bl	lv_obj_add_style
 1896              	.LVL253:
 1897 0d72 FFF7A4B9 		b	.L1
 1898              	.L37:
1074:Drivers/lvgl/lvgl/src/extra/themes/default/lv_theme_default.c ****         lv_obj_add_style(obj, &styles->menu_sidebar_cont, 0);
 1899              		.loc 1 1074 0
 1900 0d76 8D49     		ldr	r1, .L79+16
 1901 0d78 2046     		mov	r0, r4
 1902 0d7a FFF7FEFF 		bl	lv_obj_check_type
 1903              	.LVL254:
 1904 0d7e B0B1     		cbz	r0, .L38
1075:Drivers/lvgl/lvgl/src/extra/themes/default/lv_theme_default.c ****         lv_obj_add_style(obj, &styles->scrollbar, LV_PART_SCROLLBAR);
 1905              		.loc 1 1075 0
 1906 0d80 874D     		ldr	r5, .L79+4
ARM GAS  /tmp/cc6wDDAF.s 			page 59


 1907 0d82 2968     		ldr	r1, [r5]
 1908 0d84 0022     		movs	r2, #0
 1909 0d86 01F5D871 		add	r1, r1, #432
 1910 0d8a 2046     		mov	r0, r4
 1911 0d8c FFF7FEFF 		bl	lv_obj_add_style
 1912              	.LVL255:
1076:Drivers/lvgl/lvgl/src/extra/themes/default/lv_theme_default.c ****         lv_obj_add_style(obj, &styles->scrollbar_scrolled, LV_PART_SCROLLBAR | LV_STATE_SCROLLED);
 1913              		.loc 1 1076 0
 1914 0d90 2968     		ldr	r1, [r5]
 1915 0d92 4FF48032 		mov	r2, #65536
 1916 0d96 0831     		adds	r1, r1, #8
 1917 0d98 2046     		mov	r0, r4
 1918 0d9a FFF7FEFF 		bl	lv_obj_add_style
 1919              	.LVL256:
1077:Drivers/lvgl/lvgl/src/extra/themes/default/lv_theme_default.c ****     }
 1920              		.loc 1 1077 0
 1921 0d9e 2968     		ldr	r1, [r5]
 1922 0da0 834A     		ldr	r2, .L79+20
 1923 0da2 1031     		adds	r1, r1, #16
 1924 0da4 2046     		mov	r0, r4
 1925 0da6 FFF7FEFF 		bl	lv_obj_add_style
 1926              	.LVL257:
 1927 0daa FFF788B9 		b	.L1
 1928              	.L38:
1079:Drivers/lvgl/lvgl/src/extra/themes/default/lv_theme_default.c ****         lv_obj_add_style(obj, &styles->menu_main_cont, 0);
 1929              		.loc 1 1079 0
 1930 0dae 8149     		ldr	r1, .L79+24
 1931 0db0 2046     		mov	r0, r4
 1932 0db2 FFF7FEFF 		bl	lv_obj_check_type
 1933              	.LVL258:
 1934 0db6 B0B1     		cbz	r0, .L39
1080:Drivers/lvgl/lvgl/src/extra/themes/default/lv_theme_default.c ****         lv_obj_add_style(obj, &styles->scrollbar, LV_PART_SCROLLBAR);
 1935              		.loc 1 1080 0
 1936 0db8 794D     		ldr	r5, .L79+4
 1937 0dba 2968     		ldr	r1, [r5]
 1938 0dbc 0022     		movs	r2, #0
 1939 0dbe 01F5DC71 		add	r1, r1, #440
 1940 0dc2 2046     		mov	r0, r4
 1941 0dc4 FFF7FEFF 		bl	lv_obj_add_style
 1942              	.LVL259:
1081:Drivers/lvgl/lvgl/src/extra/themes/default/lv_theme_default.c ****         lv_obj_add_style(obj, &styles->scrollbar_scrolled, LV_PART_SCROLLBAR | LV_STATE_SCROLLED);
 1943              		.loc 1 1081 0
 1944 0dc8 2968     		ldr	r1, [r5]
 1945 0dca 4FF48032 		mov	r2, #65536
 1946 0dce 0831     		adds	r1, r1, #8
 1947 0dd0 2046     		mov	r0, r4
 1948 0dd2 FFF7FEFF 		bl	lv_obj_add_style
 1949              	.LVL260:
1082:Drivers/lvgl/lvgl/src/extra/themes/default/lv_theme_default.c ****     }
 1950              		.loc 1 1082 0
 1951 0dd6 2968     		ldr	r1, [r5]
 1952 0dd8 754A     		ldr	r2, .L79+20
 1953 0dda 1031     		adds	r1, r1, #16
 1954 0ddc 2046     		mov	r0, r4
 1955 0dde FFF7FEFF 		bl	lv_obj_add_style
 1956              	.LVL261:
 1957 0de2 FFF76CB9 		b	.L1
ARM GAS  /tmp/cc6wDDAF.s 			page 60


 1958              	.L39:
1084:Drivers/lvgl/lvgl/src/extra/themes/default/lv_theme_default.c ****         lv_obj_add_style(obj, &styles->menu_cont, 0);
 1959              		.loc 1 1084 0
 1960 0de6 7449     		ldr	r1, .L79+28
 1961 0de8 2046     		mov	r0, r4
 1962 0dea FFF7FEFF 		bl	lv_obj_check_type
 1963              	.LVL262:
 1964 0dee 10B3     		cbz	r0, .L40
1085:Drivers/lvgl/lvgl/src/extra/themes/default/lv_theme_default.c ****         lv_obj_add_style(obj, &styles->menu_pressed, LV_STATE_PRESSED);
 1965              		.loc 1 1085 0
 1966 0df0 6B4D     		ldr	r5, .L79+4
 1967 0df2 2968     		ldr	r1, [r5]
 1968 0df4 0022     		movs	r2, #0
 1969 0df6 01F5D471 		add	r1, r1, #424
 1970 0dfa 2046     		mov	r0, r4
 1971 0dfc FFF7FEFF 		bl	lv_obj_add_style
 1972              	.LVL263:
1086:Drivers/lvgl/lvgl/src/extra/themes/default/lv_theme_default.c ****         lv_obj_add_style(obj, &styles->bg_color_primary_muted, LV_STATE_PRESSED | LV_STATE_CHECKED)
 1973              		.loc 1 1086 0
 1974 0e00 2968     		ldr	r1, [r5]
 1975 0e02 2022     		movs	r2, #32
 1976 0e04 01F5F071 		add	r1, r1, #480
 1977 0e08 2046     		mov	r0, r4
 1978 0e0a FFF7FEFF 		bl	lv_obj_add_style
 1979              	.LVL264:
1087:Drivers/lvgl/lvgl/src/extra/themes/default/lv_theme_default.c ****         lv_obj_add_style(obj, &styles->bg_color_primary_muted, LV_STATE_CHECKED);
 1980              		.loc 1 1087 0
 1981 0e0e 2968     		ldr	r1, [r5]
 1982 0e10 2122     		movs	r2, #33
 1983 0e12 3031     		adds	r1, r1, #48
 1984 0e14 2046     		mov	r0, r4
 1985 0e16 FFF7FEFF 		bl	lv_obj_add_style
 1986              	.LVL265:
1088:Drivers/lvgl/lvgl/src/extra/themes/default/lv_theme_default.c ****         lv_obj_add_style(obj, &styles->bg_color_primary, LV_STATE_FOCUS_KEY);
 1987              		.loc 1 1088 0
 1988 0e1a 2968     		ldr	r1, [r5]
 1989 0e1c 0122     		movs	r2, #1
 1990 0e1e 3031     		adds	r1, r1, #48
 1991 0e20 2046     		mov	r0, r4
 1992 0e22 FFF7FEFF 		bl	lv_obj_add_style
 1993              	.LVL266:
1089:Drivers/lvgl/lvgl/src/extra/themes/default/lv_theme_default.c ****     }
 1994              		.loc 1 1089 0
 1995 0e26 2968     		ldr	r1, [r5]
 1996 0e28 0422     		movs	r2, #4
 1997 0e2a 2831     		adds	r1, r1, #40
 1998 0e2c 2046     		mov	r0, r4
 1999 0e2e FFF7FEFF 		bl	lv_obj_add_style
 2000              	.LVL267:
 2001 0e32 FFF744B9 		b	.L1
 2002              	.L40:
1091:Drivers/lvgl/lvgl/src/extra/themes/default/lv_theme_default.c ****             lv_obj_check_type(obj, &lv_menu_main_header_cont_class)) {
 2003              		.loc 1 1091 0
 2004 0e36 6149     		ldr	r1, .L79+32
 2005 0e38 2046     		mov	r0, r4
 2006 0e3a FFF7FEFF 		bl	lv_obj_check_type
 2007              	.LVL268:
ARM GAS  /tmp/cc6wDDAF.s 			page 61


 2008 0e3e 20B9     		cbnz	r0, .L41
1092:Drivers/lvgl/lvgl/src/extra/themes/default/lv_theme_default.c ****         lv_obj_add_style(obj, &styles->menu_header_cont, 0);
 2009              		.loc 1 1092 0 discriminator 1
 2010 0e40 5F49     		ldr	r1, .L79+36
 2011 0e42 2046     		mov	r0, r4
 2012 0e44 FFF7FEFF 		bl	lv_obj_check_type
 2013              	.LVL269:
1091:Drivers/lvgl/lvgl/src/extra/themes/default/lv_theme_default.c ****             lv_obj_check_type(obj, &lv_menu_main_header_cont_class)) {
 2014              		.loc 1 1091 0 discriminator 1
 2015 0e48 48B1     		cbz	r0, .L42
 2016              	.L41:
1093:Drivers/lvgl/lvgl/src/extra/themes/default/lv_theme_default.c ****     }
 2017              		.loc 1 1093 0
 2018 0e4a 554B     		ldr	r3, .L79+4
 2019 0e4c 1968     		ldr	r1, [r3]
 2020 0e4e 0022     		movs	r2, #0
 2021 0e50 01F5E471 		add	r1, r1, #456
 2022 0e54 2046     		mov	r0, r4
 2023 0e56 FFF7FEFF 		bl	lv_obj_add_style
 2024              	.LVL270:
 2025 0e5a FFF730B9 		b	.L1
 2026              	.L42:
1095:Drivers/lvgl/lvgl/src/extra/themes/default/lv_theme_default.c ****         lv_obj_add_style(obj, &styles->menu_page, 0);
 2027              		.loc 1 1095 0
 2028 0e5e 5949     		ldr	r1, .L79+40
 2029 0e60 2046     		mov	r0, r4
 2030 0e62 FFF7FEFF 		bl	lv_obj_check_type
 2031              	.LVL271:
 2032 0e66 B0B1     		cbz	r0, .L43
1096:Drivers/lvgl/lvgl/src/extra/themes/default/lv_theme_default.c ****         lv_obj_add_style(obj, &styles->scrollbar, LV_PART_SCROLLBAR);
 2033              		.loc 1 1096 0
 2034 0e68 4D4D     		ldr	r5, .L79+4
 2035 0e6a 2968     		ldr	r1, [r5]
 2036 0e6c 0022     		movs	r2, #0
 2037 0e6e 01F5E071 		add	r1, r1, #448
 2038 0e72 2046     		mov	r0, r4
 2039 0e74 FFF7FEFF 		bl	lv_obj_add_style
 2040              	.LVL272:
1097:Drivers/lvgl/lvgl/src/extra/themes/default/lv_theme_default.c ****         lv_obj_add_style(obj, &styles->scrollbar_scrolled, LV_PART_SCROLLBAR | LV_STATE_SCROLLED);
 2041              		.loc 1 1097 0
 2042 0e78 2968     		ldr	r1, [r5]
 2043 0e7a 4FF48032 		mov	r2, #65536
 2044 0e7e 0831     		adds	r1, r1, #8
 2045 0e80 2046     		mov	r0, r4
 2046 0e82 FFF7FEFF 		bl	lv_obj_add_style
 2047              	.LVL273:
1098:Drivers/lvgl/lvgl/src/extra/themes/default/lv_theme_default.c ****     }
 2048              		.loc 1 1098 0
 2049 0e86 2968     		ldr	r1, [r5]
 2050 0e88 494A     		ldr	r2, .L79+20
 2051 0e8a 1031     		adds	r1, r1, #16
 2052 0e8c 2046     		mov	r0, r4
 2053 0e8e FFF7FEFF 		bl	lv_obj_add_style
 2054              	.LVL274:
 2055 0e92 FFF714B9 		b	.L1
 2056              	.L43:
1100:Drivers/lvgl/lvgl/src/extra/themes/default/lv_theme_default.c ****         lv_obj_add_style(obj, &styles->menu_section, 0);
ARM GAS  /tmp/cc6wDDAF.s 			page 62


 2057              		.loc 1 1100 0
 2058 0e96 4C49     		ldr	r1, .L79+44
 2059 0e98 2046     		mov	r0, r4
 2060 0e9a FFF7FEFF 		bl	lv_obj_check_type
 2061              	.LVL275:
 2062 0e9e 48B1     		cbz	r0, .L44
1101:Drivers/lvgl/lvgl/src/extra/themes/default/lv_theme_default.c ****     }
 2063              		.loc 1 1101 0
 2064 0ea0 3F4B     		ldr	r3, .L79+4
 2065 0ea2 1968     		ldr	r1, [r3]
 2066 0ea4 0022     		movs	r2, #0
 2067 0ea6 01F5EC71 		add	r1, r1, #472
 2068 0eaa 2046     		mov	r0, r4
 2069 0eac FFF7FEFF 		bl	lv_obj_add_style
 2070              	.LVL276:
 2071 0eb0 FFF705B9 		b	.L1
 2072              	.L44:
1103:Drivers/lvgl/lvgl/src/extra/themes/default/lv_theme_default.c ****         lv_obj_add_style(obj, &styles->menu_separator, 0);
 2073              		.loc 1 1103 0
 2074 0eb4 4549     		ldr	r1, .L79+48
 2075 0eb6 2046     		mov	r0, r4
 2076 0eb8 FFF7FEFF 		bl	lv_obj_check_type
 2077              	.LVL277:
 2078 0ebc 48B1     		cbz	r0, .L45
1104:Drivers/lvgl/lvgl/src/extra/themes/default/lv_theme_default.c ****     }
 2079              		.loc 1 1104 0
 2080 0ebe 384B     		ldr	r3, .L79+4
 2081 0ec0 1968     		ldr	r1, [r3]
 2082 0ec2 0022     		movs	r2, #0
 2083 0ec4 01F5F471 		add	r1, r1, #488
 2084 0ec8 2046     		mov	r0, r4
 2085 0eca FFF7FEFF 		bl	lv_obj_add_style
 2086              	.LVL278:
 2087 0ece FFF7F6B8 		b	.L1
 2088              	.L45:
1108:Drivers/lvgl/lvgl/src/extra/themes/default/lv_theme_default.c ****         lv_obj_add_style(obj, &styles->card, 0);
 2089              		.loc 1 1108 0
 2090 0ed2 3F49     		ldr	r1, .L79+52
 2091 0ed4 2046     		mov	r0, r4
 2092 0ed6 FFF7FEFF 		bl	lv_obj_check_type
 2093              	.LVL279:
 2094 0eda 78B1     		cbz	r0, .L46
1109:Drivers/lvgl/lvgl/src/extra/themes/default/lv_theme_default.c ****         lv_obj_add_style(obj, &styles->msgbox_bg, 0);
 2095              		.loc 1 1109 0
 2096 0edc 304D     		ldr	r5, .L79+4
 2097 0ede 2968     		ldr	r1, [r5]
 2098 0ee0 0022     		movs	r2, #0
 2099 0ee2 1831     		adds	r1, r1, #24
 2100 0ee4 2046     		mov	r0, r4
 2101 0ee6 FFF7FEFF 		bl	lv_obj_add_style
 2102              	.LVL280:
1110:Drivers/lvgl/lvgl/src/extra/themes/default/lv_theme_default.c ****         return;
 2103              		.loc 1 1110 0
 2104 0eea 2968     		ldr	r1, [r5]
 2105 0eec 0022     		movs	r2, #0
 2106 0eee 01F5F871 		add	r1, r1, #496
 2107 0ef2 2046     		mov	r0, r4
ARM GAS  /tmp/cc6wDDAF.s 			page 63


 2108 0ef4 FFF7FEFF 		bl	lv_obj_add_style
 2109              	.LVL281:
1111:Drivers/lvgl/lvgl/src/extra/themes/default/lv_theme_default.c ****     }
 2110              		.loc 1 1111 0
 2111 0ef8 FFF7E1B8 		b	.L1
 2112              	.L46:
1113:Drivers/lvgl/lvgl/src/extra/themes/default/lv_theme_default.c ****         lv_obj_add_style(obj, &styles->msgbox_backdrop_bg, 0);
 2113              		.loc 1 1113 0
 2114 0efc 3549     		ldr	r1, .L79+56
 2115 0efe 2046     		mov	r0, r4
 2116 0f00 FFF7FEFF 		bl	lv_obj_check_type
 2117              	.LVL282:
 2118 0f04 48B1     		cbz	r0, .L47
1114:Drivers/lvgl/lvgl/src/extra/themes/default/lv_theme_default.c ****     }
 2119              		.loc 1 1114 0
 2120 0f06 264B     		ldr	r3, .L79+4
 2121 0f08 1968     		ldr	r1, [r3]
 2122 0f0a 0022     		movs	r2, #0
 2123 0f0c 01F50071 		add	r1, r1, #512
 2124 0f10 2046     		mov	r0, r4
 2125 0f12 FFF7FEFF 		bl	lv_obj_add_style
 2126              	.LVL283:
 2127 0f16 FFF7D2B8 		b	.L1
 2128              	.L47:
1118:Drivers/lvgl/lvgl/src/extra/themes/default/lv_theme_default.c ****         lv_obj_add_style(obj, &styles->card, 0);
 2129              		.loc 1 1118 0
 2130 0f1a 2F49     		ldr	r1, .L79+60
 2131 0f1c 2046     		mov	r0, r4
 2132 0f1e FFF7FEFF 		bl	lv_obj_check_type
 2133              	.LVL284:
 2134 0f22 08B3     		cbz	r0, .L48
1119:Drivers/lvgl/lvgl/src/extra/themes/default/lv_theme_default.c ****         lv_obj_add_style(obj, &styles->pad_small, 0);
 2135              		.loc 1 1119 0
 2136 0f24 1E4D     		ldr	r5, .L79+4
 2137 0f26 2968     		ldr	r1, [r5]
 2138 0f28 0022     		movs	r2, #0
 2139 0f2a 1831     		adds	r1, r1, #24
 2140 0f2c 2046     		mov	r0, r4
 2141 0f2e FFF7FEFF 		bl	lv_obj_add_style
 2142              	.LVL285:
1120:Drivers/lvgl/lvgl/src/extra/themes/default/lv_theme_default.c ****         lv_obj_add_style(obj, &styles->outline_primary, LV_STATE_FOCUS_KEY);
 2143              		.loc 1 1120 0
 2144 0f32 2968     		ldr	r1, [r5]
 2145 0f34 0022     		movs	r2, #0
 2146 0f36 7831     		adds	r1, r1, #120
 2147 0f38 2046     		mov	r0, r4
 2148 0f3a FFF7FEFF 		bl	lv_obj_add_style
 2149              	.LVL286:
1121:Drivers/lvgl/lvgl/src/extra/themes/default/lv_theme_default.c ****         lv_obj_add_style(obj, &styles->outline_secondary, LV_STATE_EDITED);
 2150              		.loc 1 1121 0
 2151 0f3e 2968     		ldr	r1, [r5]
 2152 0f40 0422     		movs	r2, #4
 2153 0f42 A031     		adds	r1, r1, #160
 2154 0f44 2046     		mov	r0, r4
 2155 0f46 FFF7FEFF 		bl	lv_obj_add_style
 2156              	.LVL287:
1122:Drivers/lvgl/lvgl/src/extra/themes/default/lv_theme_default.c ****         lv_obj_add_style(obj, &styles->bg_color_primary, LV_PART_CURSOR);
ARM GAS  /tmp/cc6wDDAF.s 			page 64


 2157              		.loc 1 1122 0
 2158 0f4a 2968     		ldr	r1, [r5]
 2159 0f4c 0822     		movs	r2, #8
 2160 0f4e A831     		adds	r1, r1, #168
 2161 0f50 2046     		mov	r0, r4
 2162 0f52 FFF7FEFF 		bl	lv_obj_add_style
 2163              	.LVL288:
1123:Drivers/lvgl/lvgl/src/extra/themes/default/lv_theme_default.c ****     }
 2164              		.loc 1 1123 0
 2165 0f56 2968     		ldr	r1, [r5]
 2166 0f58 4FF4E022 		mov	r2, #458752
 2167 0f5c 2831     		adds	r1, r1, #40
 2168 0f5e 2046     		mov	r0, r4
 2169 0f60 FFF7FEFF 		bl	lv_obj_add_style
 2170              	.LVL289:
 2171 0f64 FFF7ABB8 		b	.L1
 2172              	.L48:
1127:Drivers/lvgl/lvgl/src/extra/themes/default/lv_theme_default.c ****         lv_obj_add_style(obj, &styles->scr, 0);
 2173              		.loc 1 1127 0
 2174 0f68 1C49     		ldr	r1, .L79+64
 2175 0f6a 2046     		mov	r0, r4
 2176 0f6c FFF7FEFF 		bl	lv_obj_check_type
 2177              	.LVL290:
 2178 0f70 B0B3     		cbz	r0, .L49
1128:Drivers/lvgl/lvgl/src/extra/themes/default/lv_theme_default.c ****         lv_obj_add_style(obj, &styles->scrollbar, LV_PART_SCROLLBAR);
 2179              		.loc 1 1128 0
 2180 0f72 0B4D     		ldr	r5, .L79+4
 2181 0f74 0022     		movs	r2, #0
 2182 0f76 2968     		ldr	r1, [r5]
 2183 0f78 2046     		mov	r0, r4
 2184 0f7a FFF7FEFF 		bl	lv_obj_add_style
 2185              	.LVL291:
1129:Drivers/lvgl/lvgl/src/extra/themes/default/lv_theme_default.c ****         lv_obj_add_style(obj, &styles->scrollbar_scrolled, LV_PART_SCROLLBAR | LV_STATE_SCROLLED);
 2186              		.loc 1 1129 0
 2187 0f7e 2968     		ldr	r1, [r5]
 2188 0f80 4FF48032 		mov	r2, #65536
 2189 0f84 0831     		adds	r1, r1, #8
 2190 0f86 2046     		mov	r0, r4
 2191 0f88 FFF7FEFF 		bl	lv_obj_add_style
 2192              	.LVL292:
1130:Drivers/lvgl/lvgl/src/extra/themes/default/lv_theme_default.c ****     }
 2193              		.loc 1 1130 0
 2194 0f8c 2968     		ldr	r1, [r5]
 2195 0f8e 084A     		ldr	r2, .L79+20
 2196 0f90 1031     		adds	r1, r1, #16
 2197 0f92 2046     		mov	r0, r4
 2198 0f94 FFF7FEFF 		bl	lv_obj_add_style
 2199              	.LVL293:
 2200 0f98 FFF791B8 		b	.L1
 2201              	.L80:
 2202              		.align	2
 2203              	.L79:
 2204 0f9c 00000000 		.word	lv_list_text_class
 2205 0fa0 00000000 		.word	.LANCHOR0
 2206 0fa4 00000000 		.word	lv_list_btn_class
 2207 0fa8 00000000 		.word	lv_menu_class
 2208 0fac 00000000 		.word	lv_menu_sidebar_cont_class
ARM GAS  /tmp/cc6wDDAF.s 			page 65


 2209 0fb0 40000100 		.word	65600
 2210 0fb4 00000000 		.word	lv_menu_main_cont_class
 2211 0fb8 00000000 		.word	lv_menu_cont_class
 2212 0fbc 00000000 		.word	lv_menu_sidebar_header_cont_class
 2213 0fc0 00000000 		.word	lv_menu_main_header_cont_class
 2214 0fc4 00000000 		.word	lv_menu_page_class
 2215 0fc8 00000000 		.word	lv_menu_section_class
 2216 0fcc 00000000 		.word	lv_menu_separator_class
 2217 0fd0 00000000 		.word	lv_msgbox_class
 2218 0fd4 00000000 		.word	lv_msgbox_backdrop_class
 2219 0fd8 00000000 		.word	lv_spinbox_class
 2220 0fdc 00000000 		.word	lv_tileview_class
 2221              	.L49:
1132:Drivers/lvgl/lvgl/src/extra/themes/default/lv_theme_default.c ****         lv_obj_add_style(obj, &styles->scrollbar, LV_PART_SCROLLBAR);
 2222              		.loc 1 1132 0
 2223 0fe0 3449     		ldr	r1, .L81
 2224 0fe2 2046     		mov	r0, r4
 2225 0fe4 FFF7FEFF 		bl	lv_obj_check_type
 2226              	.LVL294:
 2227 0fe8 78B1     		cbz	r0, .L50
1133:Drivers/lvgl/lvgl/src/extra/themes/default/lv_theme_default.c ****         lv_obj_add_style(obj, &styles->scrollbar_scrolled, LV_PART_SCROLLBAR | LV_STATE_SCROLLED);
 2228              		.loc 1 1133 0
 2229 0fea 334D     		ldr	r5, .L81+4
 2230 0fec 2968     		ldr	r1, [r5]
 2231 0fee 4FF48032 		mov	r2, #65536
 2232 0ff2 0831     		adds	r1, r1, #8
 2233 0ff4 2046     		mov	r0, r4
 2234 0ff6 FFF7FEFF 		bl	lv_obj_add_style
 2235              	.LVL295:
1134:Drivers/lvgl/lvgl/src/extra/themes/default/lv_theme_default.c ****     }
 2236              		.loc 1 1134 0
 2237 0ffa 2968     		ldr	r1, [r5]
 2238 0ffc 2F4A     		ldr	r2, .L81+8
 2239 0ffe 1031     		adds	r1, r1, #16
 2240 1000 2046     		mov	r0, r4
 2241 1002 FFF7FEFF 		bl	lv_obj_add_style
 2242              	.LVL296:
 2243 1006 FFF75AB8 		b	.L1
 2244              	.L50:
1139:Drivers/lvgl/lvgl/src/extra/themes/default/lv_theme_default.c ****         lv_obj_add_style(obj, &styles->scr, 0);
 2245              		.loc 1 1139 0
 2246 100a 2D49     		ldr	r1, .L81+12
 2247 100c 2046     		mov	r0, r4
 2248 100e FFF7FEFF 		bl	lv_obj_check_type
 2249              	.LVL297:
 2250 1012 68B1     		cbz	r0, .L51
1140:Drivers/lvgl/lvgl/src/extra/themes/default/lv_theme_default.c ****         lv_obj_add_style(obj, &styles->pad_zero, 0);
 2251              		.loc 1 1140 0
 2252 1014 284D     		ldr	r5, .L81+4
 2253 1016 0022     		movs	r2, #0
 2254 1018 2968     		ldr	r1, [r5]
 2255 101a 2046     		mov	r0, r4
 2256 101c FFF7FEFF 		bl	lv_obj_add_style
 2257              	.LVL298:
1141:Drivers/lvgl/lvgl/src/extra/themes/default/lv_theme_default.c ****     }
 2258              		.loc 1 1141 0
 2259 1020 2968     		ldr	r1, [r5]
ARM GAS  /tmp/cc6wDDAF.s 			page 66


 2260 1022 0022     		movs	r2, #0
 2261 1024 6831     		adds	r1, r1, #104
 2262 1026 2046     		mov	r0, r4
 2263 1028 FFF7FEFF 		bl	lv_obj_add_style
 2264              	.LVL299:
 2265 102c FFF747B8 		b	.L1
 2266              	.L51:
1146:Drivers/lvgl/lvgl/src/extra/themes/default/lv_theme_default.c ****         lv_obj_add_style(obj, &styles->clip_corner, 0);
 2267              		.loc 1 1146 0
 2268 1030 2449     		ldr	r1, .L81+16
 2269 1032 2046     		mov	r0, r4
 2270 1034 FFF7FEFF 		bl	lv_obj_check_type
 2271              	.LVL300:
 2272 1038 40B1     		cbz	r0, .L52
1147:Drivers/lvgl/lvgl/src/extra/themes/default/lv_theme_default.c ****     }
 2273              		.loc 1 1147 0
 2274 103a 1F4B     		ldr	r3, .L81+4
 2275 103c 1968     		ldr	r1, [r3]
 2276 103e 0022     		movs	r2, #0
 2277 1040 C031     		adds	r1, r1, #192
 2278 1042 2046     		mov	r0, r4
 2279 1044 FFF7FEFF 		bl	lv_obj_add_style
 2280              	.LVL301:
 2281 1048 FFF739B8 		b	.L1
 2282              	.L52:
1152:Drivers/lvgl/lvgl/src/extra/themes/default/lv_theme_default.c ****         lv_obj_add_style(obj, &styles->colorwheel_main, 0);
 2283              		.loc 1 1152 0
 2284 104c 1E49     		ldr	r1, .L81+20
 2285 104e 2046     		mov	r0, r4
 2286 1050 FFF7FEFF 		bl	lv_obj_check_type
 2287              	.LVL302:
 2288 1054 E8B1     		cbz	r0, .L53
1153:Drivers/lvgl/lvgl/src/extra/themes/default/lv_theme_default.c ****         lv_obj_add_style(obj, &styles->pad_normal, 0);
 2289              		.loc 1 1153 0
 2290 1056 184D     		ldr	r5, .L81+4
 2291 1058 2968     		ldr	r1, [r5]
 2292 105a 0022     		movs	r2, #0
 2293 105c 01F5CC71 		add	r1, r1, #408
 2294 1060 2046     		mov	r0, r4
 2295 1062 FFF7FEFF 		bl	lv_obj_add_style
 2296              	.LVL303:
1154:Drivers/lvgl/lvgl/src/extra/themes/default/lv_theme_default.c ****         lv_obj_add_style(obj, &styles->bg_color_white, LV_PART_KNOB);
 2297              		.loc 1 1154 0
 2298 1066 2968     		ldr	r1, [r5]
 2299 1068 0022     		movs	r2, #0
 2300 106a 8031     		adds	r1, r1, #128
 2301 106c 2046     		mov	r0, r4
 2302 106e FFF7FEFF 		bl	lv_obj_add_style
 2303              	.LVL304:
1155:Drivers/lvgl/lvgl/src/extra/themes/default/lv_theme_default.c ****         lv_obj_add_style(obj, &styles->pad_normal, LV_PART_KNOB);
 2304              		.loc 1 1155 0
 2305 1072 2968     		ldr	r1, [r5]
 2306 1074 4FF44032 		mov	r2, #196608
 2307 1078 5031     		adds	r1, r1, #80
 2308 107a 2046     		mov	r0, r4
 2309 107c FFF7FEFF 		bl	lv_obj_add_style
 2310              	.LVL305:
ARM GAS  /tmp/cc6wDDAF.s 			page 67


1156:Drivers/lvgl/lvgl/src/extra/themes/default/lv_theme_default.c ****     }
 2311              		.loc 1 1156 0
 2312 1080 2968     		ldr	r1, [r5]
 2313 1082 4FF44032 		mov	r2, #196608
 2314 1086 8031     		adds	r1, r1, #128
 2315 1088 2046     		mov	r0, r4
 2316 108a FFF7FEFF 		bl	lv_obj_add_style
 2317              	.LVL306:
 2318 108e FFF716B8 		b	.L1
 2319              	.L53:
1161:Drivers/lvgl/lvgl/src/extra/themes/default/lv_theme_default.c ****         lv_obj_add_style(obj, &styles->led, 0);
 2320              		.loc 1 1161 0
 2321 1092 0E49     		ldr	r1, .L81+24
 2322 1094 2046     		mov	r0, r4
 2323 1096 FFF7FEFF 		bl	lv_obj_check_type
 2324              	.LVL307:
 2325 109a 0028     		cmp	r0, #0
 2326 109c 3FF40FA8 		beq	.L1
1162:Drivers/lvgl/lvgl/src/extra/themes/default/lv_theme_default.c ****     }
 2327              		.loc 1 1162 0
 2328 10a0 054B     		ldr	r3, .L81+4
 2329 10a2 1968     		ldr	r1, [r3]
 2330 10a4 0022     		movs	r2, #0
 2331 10a6 01F51071 		add	r1, r1, #576
 2332 10aa 2046     		mov	r0, r4
 2333 10ac FFF7FEFF 		bl	lv_obj_add_style
 2334              	.LVL308:
 2335 10b0 FFF705B8 		b	.L1
 2336              	.L82:
 2337              		.align	2
 2338              	.L81:
 2339 10b4 00000000 		.word	lv_tileview_tile_class
 2340 10b8 00000000 		.word	.LANCHOR0
 2341 10bc 40000100 		.word	65600
 2342 10c0 00000000 		.word	lv_tabview_class
 2343 10c4 00000000 		.word	lv_win_class
 2344 10c8 00000000 		.word	lv_colorwheel_class
 2345 10cc 00000000 		.word	lv_led_class
 2346              		.cfi_endproc
 2347              	.LFE208:
 2349              		.section	.text.grey_filter_cb,"ax",%progbits
 2350              		.align	1
 2351              		.syntax unified
 2352              		.thumb
 2353              		.thumb_func
 2354              		.fpu fpv5-d16
 2356              	grey_filter_cb:
 2357              	.LFB203:
 199:Drivers/lvgl/lvgl/src/extra/themes/default/lv_theme_default.c ****     LV_UNUSED(f);
 2358              		.loc 1 199 0
 2359              		.cfi_startproc
 2360              		@ args = 0, pretend = 0, frame = 0
 2361              		@ frame_needed = 0, uses_anonymous_args = 0
 2362              	.LVL309:
 2363 0000 38B5     		push	{r3, r4, r5, lr}
 2364              	.LCFI1:
 2365              		.cfi_def_cfa_offset 16
ARM GAS  /tmp/cc6wDDAF.s 			page 68


 2366              		.cfi_offset 3, -16
 2367              		.cfi_offset 4, -12
 2368              		.cfi_offset 5, -8
 2369              		.cfi_offset 14, -4
 2370 0002 0C46     		mov	r4, r1	@ movhi
 2371 0004 1546     		mov	r5, r2
 201:Drivers/lvgl/lvgl/src/extra/themes/default/lv_theme_default.c ****     else return lv_color_mix(lv_palette_lighten(LV_PALETTE_GREY, 2), color, opa);
 2372              		.loc 1 201 0
 2373 0006 1A4B     		ldr	r3, .L88
 2374 0008 1B6A     		ldr	r3, [r3, #32]
 2375 000a 13F0010F 		tst	r3, #1
 2376 000e 17D1     		bne	.L87
 202:Drivers/lvgl/lvgl/src/extra/themes/default/lv_theme_default.c **** }
 2377              		.loc 1 202 0
 2378 0010 0221     		movs	r1, #2
 2379              	.LVL310:
 2380 0012 1220     		movs	r0, #18
 2381              	.LVL311:
 2382 0014 FFF7FEFF 		bl	lv_palette_lighten
 2383              	.LVL312:
 2384              	.LBB104:
 2385              	.LBB105:
 2386              		.file 2 "Drivers/lvgl/lvgl/src/extra/themes/default/../../../../src/hal/../draw/../misc/lv_color.h
   1:Drivers/lvgl/lvgl/src/extra/themes/default/../../../../src/hal/../draw/../misc/lv_color.h **** /**
   2:Drivers/lvgl/lvgl/src/extra/themes/default/../../../../src/hal/../draw/../misc/lv_color.h ****  * @file lv_color.h
   3:Drivers/lvgl/lvgl/src/extra/themes/default/../../../../src/hal/../draw/../misc/lv_color.h ****  *
   4:Drivers/lvgl/lvgl/src/extra/themes/default/../../../../src/hal/../draw/../misc/lv_color.h ****  */
   5:Drivers/lvgl/lvgl/src/extra/themes/default/../../../../src/hal/../draw/../misc/lv_color.h **** 
   6:Drivers/lvgl/lvgl/src/extra/themes/default/../../../../src/hal/../draw/../misc/lv_color.h **** #ifndef LV_COLOR_H
   7:Drivers/lvgl/lvgl/src/extra/themes/default/../../../../src/hal/../draw/../misc/lv_color.h **** #define LV_COLOR_H
   8:Drivers/lvgl/lvgl/src/extra/themes/default/../../../../src/hal/../draw/../misc/lv_color.h **** 
   9:Drivers/lvgl/lvgl/src/extra/themes/default/../../../../src/hal/../draw/../misc/lv_color.h **** #ifdef __cplusplus
  10:Drivers/lvgl/lvgl/src/extra/themes/default/../../../../src/hal/../draw/../misc/lv_color.h **** extern "C" {
  11:Drivers/lvgl/lvgl/src/extra/themes/default/../../../../src/hal/../draw/../misc/lv_color.h **** #endif
  12:Drivers/lvgl/lvgl/src/extra/themes/default/../../../../src/hal/../draw/../misc/lv_color.h **** 
  13:Drivers/lvgl/lvgl/src/extra/themes/default/../../../../src/hal/../draw/../misc/lv_color.h **** /*********************
  14:Drivers/lvgl/lvgl/src/extra/themes/default/../../../../src/hal/../draw/../misc/lv_color.h ****  *      INCLUDES
  15:Drivers/lvgl/lvgl/src/extra/themes/default/../../../../src/hal/../draw/../misc/lv_color.h ****  *********************/
  16:Drivers/lvgl/lvgl/src/extra/themes/default/../../../../src/hal/../draw/../misc/lv_color.h **** #include "../lv_conf_internal.h"
  17:Drivers/lvgl/lvgl/src/extra/themes/default/../../../../src/hal/../draw/../misc/lv_color.h **** #include "lv_assert.h"
  18:Drivers/lvgl/lvgl/src/extra/themes/default/../../../../src/hal/../draw/../misc/lv_color.h **** #include "lv_math.h"
  19:Drivers/lvgl/lvgl/src/extra/themes/default/../../../../src/hal/../draw/../misc/lv_color.h **** #include "lv_types.h"
  20:Drivers/lvgl/lvgl/src/extra/themes/default/../../../../src/hal/../draw/../misc/lv_color.h **** 
  21:Drivers/lvgl/lvgl/src/extra/themes/default/../../../../src/hal/../draw/../misc/lv_color.h **** /*Error checking*/
  22:Drivers/lvgl/lvgl/src/extra/themes/default/../../../../src/hal/../draw/../misc/lv_color.h **** #if LV_COLOR_DEPTH == 24
  23:Drivers/lvgl/lvgl/src/extra/themes/default/../../../../src/hal/../draw/../misc/lv_color.h **** #error "LV_COLOR_DEPTH 24 is deprecated. Use LV_COLOR_DEPTH 32 instead (lv_conf.h)"
  24:Drivers/lvgl/lvgl/src/extra/themes/default/../../../../src/hal/../draw/../misc/lv_color.h **** #endif
  25:Drivers/lvgl/lvgl/src/extra/themes/default/../../../../src/hal/../draw/../misc/lv_color.h **** 
  26:Drivers/lvgl/lvgl/src/extra/themes/default/../../../../src/hal/../draw/../misc/lv_color.h **** #if LV_COLOR_DEPTH != 16 && LV_COLOR_16_SWAP != 0
  27:Drivers/lvgl/lvgl/src/extra/themes/default/../../../../src/hal/../draw/../misc/lv_color.h **** #error "LV_COLOR_16_SWAP requires LV_COLOR_DEPTH == 16. Set it in lv_conf.h"
  28:Drivers/lvgl/lvgl/src/extra/themes/default/../../../../src/hal/../draw/../misc/lv_color.h **** #endif
  29:Drivers/lvgl/lvgl/src/extra/themes/default/../../../../src/hal/../draw/../misc/lv_color.h **** 
  30:Drivers/lvgl/lvgl/src/extra/themes/default/../../../../src/hal/../draw/../misc/lv_color.h **** #include <stdint.h>
  31:Drivers/lvgl/lvgl/src/extra/themes/default/../../../../src/hal/../draw/../misc/lv_color.h **** 
  32:Drivers/lvgl/lvgl/src/extra/themes/default/../../../../src/hal/../draw/../misc/lv_color.h **** /*********************
  33:Drivers/lvgl/lvgl/src/extra/themes/default/../../../../src/hal/../draw/../misc/lv_color.h ****  *      DEFINES
  34:Drivers/lvgl/lvgl/src/extra/themes/default/../../../../src/hal/../draw/../misc/lv_color.h ****  *********************/
ARM GAS  /tmp/cc6wDDAF.s 			page 69


  35:Drivers/lvgl/lvgl/src/extra/themes/default/../../../../src/hal/../draw/../misc/lv_color.h **** LV_EXPORT_CONST_INT(LV_COLOR_DEPTH);
  36:Drivers/lvgl/lvgl/src/extra/themes/default/../../../../src/hal/../draw/../misc/lv_color.h **** LV_EXPORT_CONST_INT(LV_COLOR_16_SWAP);
  37:Drivers/lvgl/lvgl/src/extra/themes/default/../../../../src/hal/../draw/../misc/lv_color.h **** 
  38:Drivers/lvgl/lvgl/src/extra/themes/default/../../../../src/hal/../draw/../misc/lv_color.h **** /**
  39:Drivers/lvgl/lvgl/src/extra/themes/default/../../../../src/hal/../draw/../misc/lv_color.h ****  * Opacity percentages.
  40:Drivers/lvgl/lvgl/src/extra/themes/default/../../../../src/hal/../draw/../misc/lv_color.h ****  */
  41:Drivers/lvgl/lvgl/src/extra/themes/default/../../../../src/hal/../draw/../misc/lv_color.h **** enum {
  42:Drivers/lvgl/lvgl/src/extra/themes/default/../../../../src/hal/../draw/../misc/lv_color.h ****     LV_OPA_TRANSP = 0,
  43:Drivers/lvgl/lvgl/src/extra/themes/default/../../../../src/hal/../draw/../misc/lv_color.h ****     LV_OPA_0      = 0,
  44:Drivers/lvgl/lvgl/src/extra/themes/default/../../../../src/hal/../draw/../misc/lv_color.h ****     LV_OPA_10     = 25,
  45:Drivers/lvgl/lvgl/src/extra/themes/default/../../../../src/hal/../draw/../misc/lv_color.h ****     LV_OPA_20     = 51,
  46:Drivers/lvgl/lvgl/src/extra/themes/default/../../../../src/hal/../draw/../misc/lv_color.h ****     LV_OPA_30     = 76,
  47:Drivers/lvgl/lvgl/src/extra/themes/default/../../../../src/hal/../draw/../misc/lv_color.h ****     LV_OPA_40     = 102,
  48:Drivers/lvgl/lvgl/src/extra/themes/default/../../../../src/hal/../draw/../misc/lv_color.h ****     LV_OPA_50     = 127,
  49:Drivers/lvgl/lvgl/src/extra/themes/default/../../../../src/hal/../draw/../misc/lv_color.h ****     LV_OPA_60     = 153,
  50:Drivers/lvgl/lvgl/src/extra/themes/default/../../../../src/hal/../draw/../misc/lv_color.h ****     LV_OPA_70     = 178,
  51:Drivers/lvgl/lvgl/src/extra/themes/default/../../../../src/hal/../draw/../misc/lv_color.h ****     LV_OPA_80     = 204,
  52:Drivers/lvgl/lvgl/src/extra/themes/default/../../../../src/hal/../draw/../misc/lv_color.h ****     LV_OPA_90     = 229,
  53:Drivers/lvgl/lvgl/src/extra/themes/default/../../../../src/hal/../draw/../misc/lv_color.h ****     LV_OPA_100    = 255,
  54:Drivers/lvgl/lvgl/src/extra/themes/default/../../../../src/hal/../draw/../misc/lv_color.h ****     LV_OPA_COVER  = 255,
  55:Drivers/lvgl/lvgl/src/extra/themes/default/../../../../src/hal/../draw/../misc/lv_color.h **** };
  56:Drivers/lvgl/lvgl/src/extra/themes/default/../../../../src/hal/../draw/../misc/lv_color.h **** 
  57:Drivers/lvgl/lvgl/src/extra/themes/default/../../../../src/hal/../draw/../misc/lv_color.h **** #define LV_OPA_MIN 2    /*Opacities below this will be transparent*/
  58:Drivers/lvgl/lvgl/src/extra/themes/default/../../../../src/hal/../draw/../misc/lv_color.h **** #define LV_OPA_MAX 253  /*Opacities above this will fully cover*/
  59:Drivers/lvgl/lvgl/src/extra/themes/default/../../../../src/hal/../draw/../misc/lv_color.h **** 
  60:Drivers/lvgl/lvgl/src/extra/themes/default/../../../../src/hal/../draw/../misc/lv_color.h **** #if LV_COLOR_DEPTH == 1
  61:Drivers/lvgl/lvgl/src/extra/themes/default/../../../../src/hal/../draw/../misc/lv_color.h **** #define LV_COLOR_SIZE 8
  62:Drivers/lvgl/lvgl/src/extra/themes/default/../../../../src/hal/../draw/../misc/lv_color.h **** #elif LV_COLOR_DEPTH == 8
  63:Drivers/lvgl/lvgl/src/extra/themes/default/../../../../src/hal/../draw/../misc/lv_color.h **** #define LV_COLOR_SIZE 8
  64:Drivers/lvgl/lvgl/src/extra/themes/default/../../../../src/hal/../draw/../misc/lv_color.h **** #elif LV_COLOR_DEPTH == 16
  65:Drivers/lvgl/lvgl/src/extra/themes/default/../../../../src/hal/../draw/../misc/lv_color.h **** #define LV_COLOR_SIZE 16
  66:Drivers/lvgl/lvgl/src/extra/themes/default/../../../../src/hal/../draw/../misc/lv_color.h **** #elif LV_COLOR_DEPTH == 32
  67:Drivers/lvgl/lvgl/src/extra/themes/default/../../../../src/hal/../draw/../misc/lv_color.h **** #define LV_COLOR_SIZE 32
  68:Drivers/lvgl/lvgl/src/extra/themes/default/../../../../src/hal/../draw/../misc/lv_color.h **** #else
  69:Drivers/lvgl/lvgl/src/extra/themes/default/../../../../src/hal/../draw/../misc/lv_color.h **** #error "Invalid LV_COLOR_DEPTH in lv_conf.h! Set it to 1, 8, 16 or 32!"
  70:Drivers/lvgl/lvgl/src/extra/themes/default/../../../../src/hal/../draw/../misc/lv_color.h **** #endif
  71:Drivers/lvgl/lvgl/src/extra/themes/default/../../../../src/hal/../draw/../misc/lv_color.h **** 
  72:Drivers/lvgl/lvgl/src/extra/themes/default/../../../../src/hal/../draw/../misc/lv_color.h **** #if defined(__cplusplus) && !defined(_LV_COLOR_HAS_MODERN_CPP)
  73:Drivers/lvgl/lvgl/src/extra/themes/default/../../../../src/hal/../draw/../misc/lv_color.h **** /**
  74:Drivers/lvgl/lvgl/src/extra/themes/default/../../../../src/hal/../draw/../misc/lv_color.h **** * MSVC compiler's definition of the __cplusplus indicating 199711L regardless to C++ standard versi
  75:Drivers/lvgl/lvgl/src/extra/themes/default/../../../../src/hal/../draw/../misc/lv_color.h **** * see https://devblogs.microsoft.com/cppblog/msvc-now-correctly-reports-cplusplus
  76:Drivers/lvgl/lvgl/src/extra/themes/default/../../../../src/hal/../draw/../misc/lv_color.h **** * so we use _MSC_VER macro instead of __cplusplus
  77:Drivers/lvgl/lvgl/src/extra/themes/default/../../../../src/hal/../draw/../misc/lv_color.h **** */
  78:Drivers/lvgl/lvgl/src/extra/themes/default/../../../../src/hal/../draw/../misc/lv_color.h **** #ifdef _MSC_VER
  79:Drivers/lvgl/lvgl/src/extra/themes/default/../../../../src/hal/../draw/../misc/lv_color.h **** #if _MSC_VER >= 1900 /*Visual Studio 2015*/
  80:Drivers/lvgl/lvgl/src/extra/themes/default/../../../../src/hal/../draw/../misc/lv_color.h **** #define _LV_COLOR_HAS_MODERN_CPP 1
  81:Drivers/lvgl/lvgl/src/extra/themes/default/../../../../src/hal/../draw/../misc/lv_color.h **** #endif
  82:Drivers/lvgl/lvgl/src/extra/themes/default/../../../../src/hal/../draw/../misc/lv_color.h **** #else
  83:Drivers/lvgl/lvgl/src/extra/themes/default/../../../../src/hal/../draw/../misc/lv_color.h **** #if __cplusplus >= 201103L
  84:Drivers/lvgl/lvgl/src/extra/themes/default/../../../../src/hal/../draw/../misc/lv_color.h **** #define _LV_COLOR_HAS_MODERN_CPP 1
  85:Drivers/lvgl/lvgl/src/extra/themes/default/../../../../src/hal/../draw/../misc/lv_color.h **** #endif
  86:Drivers/lvgl/lvgl/src/extra/themes/default/../../../../src/hal/../draw/../misc/lv_color.h **** #endif
  87:Drivers/lvgl/lvgl/src/extra/themes/default/../../../../src/hal/../draw/../misc/lv_color.h **** #endif /*__cplusplus*/
  88:Drivers/lvgl/lvgl/src/extra/themes/default/../../../../src/hal/../draw/../misc/lv_color.h **** 
  89:Drivers/lvgl/lvgl/src/extra/themes/default/../../../../src/hal/../draw/../misc/lv_color.h **** #ifndef _LV_COLOR_HAS_MODERN_CPP
  90:Drivers/lvgl/lvgl/src/extra/themes/default/../../../../src/hal/../draw/../misc/lv_color.h **** #define _LV_COLOR_HAS_MODERN_CPP 0
  91:Drivers/lvgl/lvgl/src/extra/themes/default/../../../../src/hal/../draw/../misc/lv_color.h **** #endif
ARM GAS  /tmp/cc6wDDAF.s 			page 70


  92:Drivers/lvgl/lvgl/src/extra/themes/default/../../../../src/hal/../draw/../misc/lv_color.h **** 
  93:Drivers/lvgl/lvgl/src/extra/themes/default/../../../../src/hal/../draw/../misc/lv_color.h **** #if _LV_COLOR_HAS_MODERN_CPP
  94:Drivers/lvgl/lvgl/src/extra/themes/default/../../../../src/hal/../draw/../misc/lv_color.h **** /*Fix msvc compiler error C4576 inside C++ code*/
  95:Drivers/lvgl/lvgl/src/extra/themes/default/../../../../src/hal/../draw/../misc/lv_color.h **** #define _LV_COLOR_MAKE_TYPE_HELPER lv_color_t
  96:Drivers/lvgl/lvgl/src/extra/themes/default/../../../../src/hal/../draw/../misc/lv_color.h **** #else
  97:Drivers/lvgl/lvgl/src/extra/themes/default/../../../../src/hal/../draw/../misc/lv_color.h **** #define _LV_COLOR_MAKE_TYPE_HELPER (lv_color_t)
  98:Drivers/lvgl/lvgl/src/extra/themes/default/../../../../src/hal/../draw/../misc/lv_color.h **** #endif
  99:Drivers/lvgl/lvgl/src/extra/themes/default/../../../../src/hal/../draw/../misc/lv_color.h **** 
 100:Drivers/lvgl/lvgl/src/extra/themes/default/../../../../src/hal/../draw/../misc/lv_color.h **** /*---------------------------------------
 101:Drivers/lvgl/lvgl/src/extra/themes/default/../../../../src/hal/../draw/../misc/lv_color.h ****  * Macros for all existing color depths
 102:Drivers/lvgl/lvgl/src/extra/themes/default/../../../../src/hal/../draw/../misc/lv_color.h ****  * to set/get values of the color channels
 103:Drivers/lvgl/lvgl/src/extra/themes/default/../../../../src/hal/../draw/../misc/lv_color.h ****  *------------------------------------------*/
 104:Drivers/lvgl/lvgl/src/extra/themes/default/../../../../src/hal/../draw/../misc/lv_color.h **** # define LV_COLOR_SET_R1(c, v) (c).ch.red = (uint8_t)((v) & 0x1)
 105:Drivers/lvgl/lvgl/src/extra/themes/default/../../../../src/hal/../draw/../misc/lv_color.h **** # define LV_COLOR_SET_G1(c, v) (c).ch.green = (uint8_t)((v) & 0x1)
 106:Drivers/lvgl/lvgl/src/extra/themes/default/../../../../src/hal/../draw/../misc/lv_color.h **** # define LV_COLOR_SET_B1(c, v) (c).ch.blue = (uint8_t)((v) & 0x1)
 107:Drivers/lvgl/lvgl/src/extra/themes/default/../../../../src/hal/../draw/../misc/lv_color.h **** # define LV_COLOR_SET_A1(c, v) do {} while(0)
 108:Drivers/lvgl/lvgl/src/extra/themes/default/../../../../src/hal/../draw/../misc/lv_color.h **** 
 109:Drivers/lvgl/lvgl/src/extra/themes/default/../../../../src/hal/../draw/../misc/lv_color.h **** # define LV_COLOR_GET_R1(c) (c).ch.red
 110:Drivers/lvgl/lvgl/src/extra/themes/default/../../../../src/hal/../draw/../misc/lv_color.h **** # define LV_COLOR_GET_G1(c) (c).ch.green
 111:Drivers/lvgl/lvgl/src/extra/themes/default/../../../../src/hal/../draw/../misc/lv_color.h **** # define LV_COLOR_GET_B1(c) (c).ch.blue
 112:Drivers/lvgl/lvgl/src/extra/themes/default/../../../../src/hal/../draw/../misc/lv_color.h **** # define LV_COLOR_GET_A1(c) 0xFF
 113:Drivers/lvgl/lvgl/src/extra/themes/default/../../../../src/hal/../draw/../misc/lv_color.h **** 
 114:Drivers/lvgl/lvgl/src/extra/themes/default/../../../../src/hal/../draw/../misc/lv_color.h **** # define _LV_COLOR_ZERO_INITIALIZER1 {0x00}
 115:Drivers/lvgl/lvgl/src/extra/themes/default/../../../../src/hal/../draw/../misc/lv_color.h **** # define LV_COLOR_MAKE1(r8, g8, b8)  {(uint8_t)((b8 >> 7) | (g8 >> 7) | (r8 >> 7))}
 116:Drivers/lvgl/lvgl/src/extra/themes/default/../../../../src/hal/../draw/../misc/lv_color.h **** 
 117:Drivers/lvgl/lvgl/src/extra/themes/default/../../../../src/hal/../draw/../misc/lv_color.h **** # define LV_COLOR_SET_R8(c, v) (c).ch.red = (uint8_t)((v) & 0x7U)
 118:Drivers/lvgl/lvgl/src/extra/themes/default/../../../../src/hal/../draw/../misc/lv_color.h **** # define LV_COLOR_SET_G8(c, v) (c).ch.green = (uint8_t)((v) & 0x7U)
 119:Drivers/lvgl/lvgl/src/extra/themes/default/../../../../src/hal/../draw/../misc/lv_color.h **** # define LV_COLOR_SET_B8(c, v) (c).ch.blue = (uint8_t)((v) & 0x3U)
 120:Drivers/lvgl/lvgl/src/extra/themes/default/../../../../src/hal/../draw/../misc/lv_color.h **** # define LV_COLOR_SET_A8(c, v) do {} while(0)
 121:Drivers/lvgl/lvgl/src/extra/themes/default/../../../../src/hal/../draw/../misc/lv_color.h **** 
 122:Drivers/lvgl/lvgl/src/extra/themes/default/../../../../src/hal/../draw/../misc/lv_color.h **** # define LV_COLOR_GET_R8(c) (c).ch.red
 123:Drivers/lvgl/lvgl/src/extra/themes/default/../../../../src/hal/../draw/../misc/lv_color.h **** # define LV_COLOR_GET_G8(c) (c).ch.green
 124:Drivers/lvgl/lvgl/src/extra/themes/default/../../../../src/hal/../draw/../misc/lv_color.h **** # define LV_COLOR_GET_B8(c) (c).ch.blue
 125:Drivers/lvgl/lvgl/src/extra/themes/default/../../../../src/hal/../draw/../misc/lv_color.h **** # define LV_COLOR_GET_A8(c) 0xFF
 126:Drivers/lvgl/lvgl/src/extra/themes/default/../../../../src/hal/../draw/../misc/lv_color.h **** 
 127:Drivers/lvgl/lvgl/src/extra/themes/default/../../../../src/hal/../draw/../misc/lv_color.h **** # define _LV_COLOR_ZERO_INITIALIZER8 {{0x00, 0x00, 0x00}}
 128:Drivers/lvgl/lvgl/src/extra/themes/default/../../../../src/hal/../draw/../misc/lv_color.h **** # define LV_COLOR_MAKE8(r8, g8, b8) {{(uint8_t)((b8 >> 6) & 0x3U), (uint8_t)((g8 >> 5) & 0x7U), (ui
 129:Drivers/lvgl/lvgl/src/extra/themes/default/../../../../src/hal/../draw/../misc/lv_color.h **** 
 130:Drivers/lvgl/lvgl/src/extra/themes/default/../../../../src/hal/../draw/../misc/lv_color.h **** # define LV_COLOR_SET_R16(c, v) (c).ch.red = (uint8_t)((v) & 0x1FU)
 131:Drivers/lvgl/lvgl/src/extra/themes/default/../../../../src/hal/../draw/../misc/lv_color.h **** #if LV_COLOR_16_SWAP == 0
 132:Drivers/lvgl/lvgl/src/extra/themes/default/../../../../src/hal/../draw/../misc/lv_color.h **** # define LV_COLOR_SET_G16(c, v) (c).ch.green = (uint8_t)((v) & 0x3FU)
 133:Drivers/lvgl/lvgl/src/extra/themes/default/../../../../src/hal/../draw/../misc/lv_color.h **** #else
 134:Drivers/lvgl/lvgl/src/extra/themes/default/../../../../src/hal/../draw/../misc/lv_color.h **** # define LV_COLOR_SET_G16(c, v) {(c).ch.green_h = (uint8_t)(((v) >> 3) & 0x7); (c).ch.green_l = (ui
 135:Drivers/lvgl/lvgl/src/extra/themes/default/../../../../src/hal/../draw/../misc/lv_color.h **** #endif
 136:Drivers/lvgl/lvgl/src/extra/themes/default/../../../../src/hal/../draw/../misc/lv_color.h **** # define LV_COLOR_SET_B16(c, v) (c).ch.blue = (uint8_t)((v) & 0x1FU)
 137:Drivers/lvgl/lvgl/src/extra/themes/default/../../../../src/hal/../draw/../misc/lv_color.h **** # define LV_COLOR_SET_A16(c, v) do {} while(0)
 138:Drivers/lvgl/lvgl/src/extra/themes/default/../../../../src/hal/../draw/../misc/lv_color.h **** 
 139:Drivers/lvgl/lvgl/src/extra/themes/default/../../../../src/hal/../draw/../misc/lv_color.h **** # define LV_COLOR_GET_R16(c) (c).ch.red
 140:Drivers/lvgl/lvgl/src/extra/themes/default/../../../../src/hal/../draw/../misc/lv_color.h **** #if LV_COLOR_16_SWAP == 0
 141:Drivers/lvgl/lvgl/src/extra/themes/default/../../../../src/hal/../draw/../misc/lv_color.h **** # define LV_COLOR_GET_G16(c) (c).ch.green
 142:Drivers/lvgl/lvgl/src/extra/themes/default/../../../../src/hal/../draw/../misc/lv_color.h **** #else
 143:Drivers/lvgl/lvgl/src/extra/themes/default/../../../../src/hal/../draw/../misc/lv_color.h **** # define LV_COLOR_GET_G16(c) (((c).ch.green_h << 3) + (c).ch.green_l)
 144:Drivers/lvgl/lvgl/src/extra/themes/default/../../../../src/hal/../draw/../misc/lv_color.h **** #endif
 145:Drivers/lvgl/lvgl/src/extra/themes/default/../../../../src/hal/../draw/../misc/lv_color.h **** # define LV_COLOR_GET_B16(c) (c).ch.blue
 146:Drivers/lvgl/lvgl/src/extra/themes/default/../../../../src/hal/../draw/../misc/lv_color.h **** # define LV_COLOR_GET_A16(c) 0xFF
 147:Drivers/lvgl/lvgl/src/extra/themes/default/../../../../src/hal/../draw/../misc/lv_color.h **** 
 148:Drivers/lvgl/lvgl/src/extra/themes/default/../../../../src/hal/../draw/../misc/lv_color.h **** #if LV_COLOR_16_SWAP == 0
ARM GAS  /tmp/cc6wDDAF.s 			page 71


 149:Drivers/lvgl/lvgl/src/extra/themes/default/../../../../src/hal/../draw/../misc/lv_color.h **** # define _LV_COLOR_ZERO_INITIALIZER16  {{0x00, 0x00, 0x00}}
 150:Drivers/lvgl/lvgl/src/extra/themes/default/../../../../src/hal/../draw/../misc/lv_color.h **** # define LV_COLOR_MAKE16(r8, g8, b8) {{(uint8_t)((b8 >> 3) & 0x1FU), (uint8_t)((g8 >> 2) & 0x3FU), 
 151:Drivers/lvgl/lvgl/src/extra/themes/default/../../../../src/hal/../draw/../misc/lv_color.h **** #else
 152:Drivers/lvgl/lvgl/src/extra/themes/default/../../../../src/hal/../draw/../misc/lv_color.h **** # define _LV_COLOR_ZERO_INITIALIZER16 {{0x00, 0x00, 0x00, 0x00}}
 153:Drivers/lvgl/lvgl/src/extra/themes/default/../../../../src/hal/../draw/../misc/lv_color.h **** # define LV_COLOR_MAKE16(r8, g8, b8) {{(uint8_t)((g8 >> 5) & 0x7U), (uint8_t)((r8 >> 3) & 0x1FU), (
 154:Drivers/lvgl/lvgl/src/extra/themes/default/../../../../src/hal/../draw/../misc/lv_color.h **** #endif
 155:Drivers/lvgl/lvgl/src/extra/themes/default/../../../../src/hal/../draw/../misc/lv_color.h **** 
 156:Drivers/lvgl/lvgl/src/extra/themes/default/../../../../src/hal/../draw/../misc/lv_color.h **** # define LV_COLOR_SET_R32(c, v) (c).ch.red = (uint8_t)((v) & 0xFF)
 157:Drivers/lvgl/lvgl/src/extra/themes/default/../../../../src/hal/../draw/../misc/lv_color.h **** # define LV_COLOR_SET_G32(c, v) (c).ch.green = (uint8_t)((v) & 0xFF)
 158:Drivers/lvgl/lvgl/src/extra/themes/default/../../../../src/hal/../draw/../misc/lv_color.h **** # define LV_COLOR_SET_B32(c, v) (c).ch.blue = (uint8_t)((v) & 0xFF)
 159:Drivers/lvgl/lvgl/src/extra/themes/default/../../../../src/hal/../draw/../misc/lv_color.h **** # define LV_COLOR_SET_A32(c, v) (c).ch.alpha = (uint8_t)((v) & 0xFF)
 160:Drivers/lvgl/lvgl/src/extra/themes/default/../../../../src/hal/../draw/../misc/lv_color.h **** 
 161:Drivers/lvgl/lvgl/src/extra/themes/default/../../../../src/hal/../draw/../misc/lv_color.h **** # define LV_COLOR_GET_R32(c) (c).ch.red
 162:Drivers/lvgl/lvgl/src/extra/themes/default/../../../../src/hal/../draw/../misc/lv_color.h **** # define LV_COLOR_GET_G32(c) (c).ch.green
 163:Drivers/lvgl/lvgl/src/extra/themes/default/../../../../src/hal/../draw/../misc/lv_color.h **** # define LV_COLOR_GET_B32(c) (c).ch.blue
 164:Drivers/lvgl/lvgl/src/extra/themes/default/../../../../src/hal/../draw/../misc/lv_color.h **** # define LV_COLOR_GET_A32(c) (c).ch.alpha
 165:Drivers/lvgl/lvgl/src/extra/themes/default/../../../../src/hal/../draw/../misc/lv_color.h **** 
 166:Drivers/lvgl/lvgl/src/extra/themes/default/../../../../src/hal/../draw/../misc/lv_color.h **** # define _LV_COLOR_ZERO_INITIALIZER32  {{0x00, 0x00, 0x00, 0x00}}
 167:Drivers/lvgl/lvgl/src/extra/themes/default/../../../../src/hal/../draw/../misc/lv_color.h **** # define LV_COLOR_MAKE32(r8, g8, b8) {{b8, g8, r8, 0xff}} /*Fix 0xff alpha*/
 168:Drivers/lvgl/lvgl/src/extra/themes/default/../../../../src/hal/../draw/../misc/lv_color.h **** 
 169:Drivers/lvgl/lvgl/src/extra/themes/default/../../../../src/hal/../draw/../misc/lv_color.h **** /*---------------------------------------
 170:Drivers/lvgl/lvgl/src/extra/themes/default/../../../../src/hal/../draw/../misc/lv_color.h ****  * Macros for the current color depth
 171:Drivers/lvgl/lvgl/src/extra/themes/default/../../../../src/hal/../draw/../misc/lv_color.h ****  * to set/get values of the color channels
 172:Drivers/lvgl/lvgl/src/extra/themes/default/../../../../src/hal/../draw/../misc/lv_color.h ****  *------------------------------------------*/
 173:Drivers/lvgl/lvgl/src/extra/themes/default/../../../../src/hal/../draw/../misc/lv_color.h **** #define LV_COLOR_SET_R(c, v) LV_CONCAT(LV_COLOR_SET_R, LV_COLOR_DEPTH)(c, v)
 174:Drivers/lvgl/lvgl/src/extra/themes/default/../../../../src/hal/../draw/../misc/lv_color.h **** #define LV_COLOR_SET_G(c, v) LV_CONCAT(LV_COLOR_SET_G, LV_COLOR_DEPTH)(c, v)
 175:Drivers/lvgl/lvgl/src/extra/themes/default/../../../../src/hal/../draw/../misc/lv_color.h **** #define LV_COLOR_SET_B(c, v) LV_CONCAT(LV_COLOR_SET_B, LV_COLOR_DEPTH)(c, v)
 176:Drivers/lvgl/lvgl/src/extra/themes/default/../../../../src/hal/../draw/../misc/lv_color.h **** #define LV_COLOR_SET_A(c, v) LV_CONCAT(LV_COLOR_SET_A, LV_COLOR_DEPTH)(c, v)
 177:Drivers/lvgl/lvgl/src/extra/themes/default/../../../../src/hal/../draw/../misc/lv_color.h **** 
 178:Drivers/lvgl/lvgl/src/extra/themes/default/../../../../src/hal/../draw/../misc/lv_color.h **** #define LV_COLOR_GET_R(c) LV_CONCAT(LV_COLOR_GET_R, LV_COLOR_DEPTH)(c)
 179:Drivers/lvgl/lvgl/src/extra/themes/default/../../../../src/hal/../draw/../misc/lv_color.h **** #define LV_COLOR_GET_G(c) LV_CONCAT(LV_COLOR_GET_G, LV_COLOR_DEPTH)(c)
 180:Drivers/lvgl/lvgl/src/extra/themes/default/../../../../src/hal/../draw/../misc/lv_color.h **** #define LV_COLOR_GET_B(c) LV_CONCAT(LV_COLOR_GET_B, LV_COLOR_DEPTH)(c)
 181:Drivers/lvgl/lvgl/src/extra/themes/default/../../../../src/hal/../draw/../misc/lv_color.h **** #define LV_COLOR_GET_A(c) LV_CONCAT(LV_COLOR_GET_A, LV_COLOR_DEPTH)(c)
 182:Drivers/lvgl/lvgl/src/extra/themes/default/../../../../src/hal/../draw/../misc/lv_color.h **** 
 183:Drivers/lvgl/lvgl/src/extra/themes/default/../../../../src/hal/../draw/../misc/lv_color.h **** #define _LV_COLOR_ZERO_INITIALIZER LV_CONCAT(_LV_COLOR_ZERO_INITIALIZER, LV_COLOR_DEPTH)
 184:Drivers/lvgl/lvgl/src/extra/themes/default/../../../../src/hal/../draw/../misc/lv_color.h **** #define LV_COLOR_MAKE(r8, g8, b8) LV_CONCAT(LV_COLOR_MAKE, LV_COLOR_DEPTH)(r8, g8, b8)
 185:Drivers/lvgl/lvgl/src/extra/themes/default/../../../../src/hal/../draw/../misc/lv_color.h **** 
 186:Drivers/lvgl/lvgl/src/extra/themes/default/../../../../src/hal/../draw/../misc/lv_color.h **** /**********************
 187:Drivers/lvgl/lvgl/src/extra/themes/default/../../../../src/hal/../draw/../misc/lv_color.h ****  *      TYPEDEFS
 188:Drivers/lvgl/lvgl/src/extra/themes/default/../../../../src/hal/../draw/../misc/lv_color.h ****  **********************/
 189:Drivers/lvgl/lvgl/src/extra/themes/default/../../../../src/hal/../draw/../misc/lv_color.h **** 
 190:Drivers/lvgl/lvgl/src/extra/themes/default/../../../../src/hal/../draw/../misc/lv_color.h **** typedef union {
 191:Drivers/lvgl/lvgl/src/extra/themes/default/../../../../src/hal/../draw/../misc/lv_color.h ****     uint8_t full; /*must be declared first to set all bits of byte via initializer list*/
 192:Drivers/lvgl/lvgl/src/extra/themes/default/../../../../src/hal/../draw/../misc/lv_color.h ****     union {
 193:Drivers/lvgl/lvgl/src/extra/themes/default/../../../../src/hal/../draw/../misc/lv_color.h ****         uint8_t blue : 1;
 194:Drivers/lvgl/lvgl/src/extra/themes/default/../../../../src/hal/../draw/../misc/lv_color.h ****         uint8_t green : 1;
 195:Drivers/lvgl/lvgl/src/extra/themes/default/../../../../src/hal/../draw/../misc/lv_color.h ****         uint8_t red : 1;
 196:Drivers/lvgl/lvgl/src/extra/themes/default/../../../../src/hal/../draw/../misc/lv_color.h ****     } ch;
 197:Drivers/lvgl/lvgl/src/extra/themes/default/../../../../src/hal/../draw/../misc/lv_color.h **** } lv_color1_t;
 198:Drivers/lvgl/lvgl/src/extra/themes/default/../../../../src/hal/../draw/../misc/lv_color.h **** 
 199:Drivers/lvgl/lvgl/src/extra/themes/default/../../../../src/hal/../draw/../misc/lv_color.h **** typedef union {
 200:Drivers/lvgl/lvgl/src/extra/themes/default/../../../../src/hal/../draw/../misc/lv_color.h ****     struct {
 201:Drivers/lvgl/lvgl/src/extra/themes/default/../../../../src/hal/../draw/../misc/lv_color.h ****         uint8_t blue : 2;
 202:Drivers/lvgl/lvgl/src/extra/themes/default/../../../../src/hal/../draw/../misc/lv_color.h ****         uint8_t green : 3;
 203:Drivers/lvgl/lvgl/src/extra/themes/default/../../../../src/hal/../draw/../misc/lv_color.h ****         uint8_t red : 3;
 204:Drivers/lvgl/lvgl/src/extra/themes/default/../../../../src/hal/../draw/../misc/lv_color.h ****     } ch;
 205:Drivers/lvgl/lvgl/src/extra/themes/default/../../../../src/hal/../draw/../misc/lv_color.h ****     uint8_t full;
ARM GAS  /tmp/cc6wDDAF.s 			page 72


 206:Drivers/lvgl/lvgl/src/extra/themes/default/../../../../src/hal/../draw/../misc/lv_color.h **** } lv_color8_t;
 207:Drivers/lvgl/lvgl/src/extra/themes/default/../../../../src/hal/../draw/../misc/lv_color.h **** 
 208:Drivers/lvgl/lvgl/src/extra/themes/default/../../../../src/hal/../draw/../misc/lv_color.h **** typedef union {
 209:Drivers/lvgl/lvgl/src/extra/themes/default/../../../../src/hal/../draw/../misc/lv_color.h ****     struct {
 210:Drivers/lvgl/lvgl/src/extra/themes/default/../../../../src/hal/../draw/../misc/lv_color.h **** #if LV_COLOR_16_SWAP == 0
 211:Drivers/lvgl/lvgl/src/extra/themes/default/../../../../src/hal/../draw/../misc/lv_color.h ****         uint16_t blue : 5;
 212:Drivers/lvgl/lvgl/src/extra/themes/default/../../../../src/hal/../draw/../misc/lv_color.h ****         uint16_t green : 6;
 213:Drivers/lvgl/lvgl/src/extra/themes/default/../../../../src/hal/../draw/../misc/lv_color.h ****         uint16_t red : 5;
 214:Drivers/lvgl/lvgl/src/extra/themes/default/../../../../src/hal/../draw/../misc/lv_color.h **** #else
 215:Drivers/lvgl/lvgl/src/extra/themes/default/../../../../src/hal/../draw/../misc/lv_color.h ****         uint16_t green_h : 3;
 216:Drivers/lvgl/lvgl/src/extra/themes/default/../../../../src/hal/../draw/../misc/lv_color.h ****         uint16_t red : 5;
 217:Drivers/lvgl/lvgl/src/extra/themes/default/../../../../src/hal/../draw/../misc/lv_color.h ****         uint16_t blue : 5;
 218:Drivers/lvgl/lvgl/src/extra/themes/default/../../../../src/hal/../draw/../misc/lv_color.h ****         uint16_t green_l : 3;
 219:Drivers/lvgl/lvgl/src/extra/themes/default/../../../../src/hal/../draw/../misc/lv_color.h **** #endif
 220:Drivers/lvgl/lvgl/src/extra/themes/default/../../../../src/hal/../draw/../misc/lv_color.h ****     } ch;
 221:Drivers/lvgl/lvgl/src/extra/themes/default/../../../../src/hal/../draw/../misc/lv_color.h ****     uint16_t full;
 222:Drivers/lvgl/lvgl/src/extra/themes/default/../../../../src/hal/../draw/../misc/lv_color.h **** } lv_color16_t;
 223:Drivers/lvgl/lvgl/src/extra/themes/default/../../../../src/hal/../draw/../misc/lv_color.h **** 
 224:Drivers/lvgl/lvgl/src/extra/themes/default/../../../../src/hal/../draw/../misc/lv_color.h **** typedef union {
 225:Drivers/lvgl/lvgl/src/extra/themes/default/../../../../src/hal/../draw/../misc/lv_color.h ****     struct {
 226:Drivers/lvgl/lvgl/src/extra/themes/default/../../../../src/hal/../draw/../misc/lv_color.h ****         uint8_t blue;
 227:Drivers/lvgl/lvgl/src/extra/themes/default/../../../../src/hal/../draw/../misc/lv_color.h ****         uint8_t green;
 228:Drivers/lvgl/lvgl/src/extra/themes/default/../../../../src/hal/../draw/../misc/lv_color.h ****         uint8_t red;
 229:Drivers/lvgl/lvgl/src/extra/themes/default/../../../../src/hal/../draw/../misc/lv_color.h ****         uint8_t alpha;
 230:Drivers/lvgl/lvgl/src/extra/themes/default/../../../../src/hal/../draw/../misc/lv_color.h ****     } ch;
 231:Drivers/lvgl/lvgl/src/extra/themes/default/../../../../src/hal/../draw/../misc/lv_color.h ****     uint32_t full;
 232:Drivers/lvgl/lvgl/src/extra/themes/default/../../../../src/hal/../draw/../misc/lv_color.h **** } lv_color32_t;
 233:Drivers/lvgl/lvgl/src/extra/themes/default/../../../../src/hal/../draw/../misc/lv_color.h **** 
 234:Drivers/lvgl/lvgl/src/extra/themes/default/../../../../src/hal/../draw/../misc/lv_color.h **** typedef LV_CONCAT3(uint, LV_COLOR_SIZE, _t) lv_color_int_t;
 235:Drivers/lvgl/lvgl/src/extra/themes/default/../../../../src/hal/../draw/../misc/lv_color.h **** typedef LV_CONCAT3(lv_color, LV_COLOR_DEPTH, _t) lv_color_t;
 236:Drivers/lvgl/lvgl/src/extra/themes/default/../../../../src/hal/../draw/../misc/lv_color.h **** 
 237:Drivers/lvgl/lvgl/src/extra/themes/default/../../../../src/hal/../draw/../misc/lv_color.h **** typedef struct {
 238:Drivers/lvgl/lvgl/src/extra/themes/default/../../../../src/hal/../draw/../misc/lv_color.h ****     uint16_t h;
 239:Drivers/lvgl/lvgl/src/extra/themes/default/../../../../src/hal/../draw/../misc/lv_color.h ****     uint8_t s;
 240:Drivers/lvgl/lvgl/src/extra/themes/default/../../../../src/hal/../draw/../misc/lv_color.h ****     uint8_t v;
 241:Drivers/lvgl/lvgl/src/extra/themes/default/../../../../src/hal/../draw/../misc/lv_color.h **** } lv_color_hsv_t;
 242:Drivers/lvgl/lvgl/src/extra/themes/default/../../../../src/hal/../draw/../misc/lv_color.h **** 
 243:Drivers/lvgl/lvgl/src/extra/themes/default/../../../../src/hal/../draw/../misc/lv_color.h **** //! @cond Doxygen_Suppress
 244:Drivers/lvgl/lvgl/src/extra/themes/default/../../../../src/hal/../draw/../misc/lv_color.h **** /*No idea where the guard is required but else throws warnings in the docs*/
 245:Drivers/lvgl/lvgl/src/extra/themes/default/../../../../src/hal/../draw/../misc/lv_color.h **** typedef uint8_t lv_opa_t;
 246:Drivers/lvgl/lvgl/src/extra/themes/default/../../../../src/hal/../draw/../misc/lv_color.h **** //! @endcond
 247:Drivers/lvgl/lvgl/src/extra/themes/default/../../../../src/hal/../draw/../misc/lv_color.h **** 
 248:Drivers/lvgl/lvgl/src/extra/themes/default/../../../../src/hal/../draw/../misc/lv_color.h **** struct _lv_color_filter_dsc_t;
 249:Drivers/lvgl/lvgl/src/extra/themes/default/../../../../src/hal/../draw/../misc/lv_color.h **** 
 250:Drivers/lvgl/lvgl/src/extra/themes/default/../../../../src/hal/../draw/../misc/lv_color.h **** typedef lv_color_t (*lv_color_filter_cb_t)(const struct _lv_color_filter_dsc_t *, lv_color_t, lv_op
 251:Drivers/lvgl/lvgl/src/extra/themes/default/../../../../src/hal/../draw/../misc/lv_color.h **** 
 252:Drivers/lvgl/lvgl/src/extra/themes/default/../../../../src/hal/../draw/../misc/lv_color.h **** typedef struct _lv_color_filter_dsc_t {
 253:Drivers/lvgl/lvgl/src/extra/themes/default/../../../../src/hal/../draw/../misc/lv_color.h ****     lv_color_filter_cb_t filter_cb;
 254:Drivers/lvgl/lvgl/src/extra/themes/default/../../../../src/hal/../draw/../misc/lv_color.h ****     void * user_data;
 255:Drivers/lvgl/lvgl/src/extra/themes/default/../../../../src/hal/../draw/../misc/lv_color.h **** } lv_color_filter_dsc_t;
 256:Drivers/lvgl/lvgl/src/extra/themes/default/../../../../src/hal/../draw/../misc/lv_color.h **** 
 257:Drivers/lvgl/lvgl/src/extra/themes/default/../../../../src/hal/../draw/../misc/lv_color.h **** 
 258:Drivers/lvgl/lvgl/src/extra/themes/default/../../../../src/hal/../draw/../misc/lv_color.h **** typedef enum {
 259:Drivers/lvgl/lvgl/src/extra/themes/default/../../../../src/hal/../draw/../misc/lv_color.h ****     LV_PALETTE_RED,
 260:Drivers/lvgl/lvgl/src/extra/themes/default/../../../../src/hal/../draw/../misc/lv_color.h ****     LV_PALETTE_PINK,
 261:Drivers/lvgl/lvgl/src/extra/themes/default/../../../../src/hal/../draw/../misc/lv_color.h ****     LV_PALETTE_PURPLE,
 262:Drivers/lvgl/lvgl/src/extra/themes/default/../../../../src/hal/../draw/../misc/lv_color.h ****     LV_PALETTE_DEEP_PURPLE,
ARM GAS  /tmp/cc6wDDAF.s 			page 73


 263:Drivers/lvgl/lvgl/src/extra/themes/default/../../../../src/hal/../draw/../misc/lv_color.h ****     LV_PALETTE_INDIGO,
 264:Drivers/lvgl/lvgl/src/extra/themes/default/../../../../src/hal/../draw/../misc/lv_color.h ****     LV_PALETTE_BLUE,
 265:Drivers/lvgl/lvgl/src/extra/themes/default/../../../../src/hal/../draw/../misc/lv_color.h ****     LV_PALETTE_LIGHT_BLUE,
 266:Drivers/lvgl/lvgl/src/extra/themes/default/../../../../src/hal/../draw/../misc/lv_color.h ****     LV_PALETTE_CYAN,
 267:Drivers/lvgl/lvgl/src/extra/themes/default/../../../../src/hal/../draw/../misc/lv_color.h ****     LV_PALETTE_TEAL,
 268:Drivers/lvgl/lvgl/src/extra/themes/default/../../../../src/hal/../draw/../misc/lv_color.h ****     LV_PALETTE_GREEN,
 269:Drivers/lvgl/lvgl/src/extra/themes/default/../../../../src/hal/../draw/../misc/lv_color.h ****     LV_PALETTE_LIGHT_GREEN,
 270:Drivers/lvgl/lvgl/src/extra/themes/default/../../../../src/hal/../draw/../misc/lv_color.h ****     LV_PALETTE_LIME,
 271:Drivers/lvgl/lvgl/src/extra/themes/default/../../../../src/hal/../draw/../misc/lv_color.h ****     LV_PALETTE_YELLOW,
 272:Drivers/lvgl/lvgl/src/extra/themes/default/../../../../src/hal/../draw/../misc/lv_color.h ****     LV_PALETTE_AMBER,
 273:Drivers/lvgl/lvgl/src/extra/themes/default/../../../../src/hal/../draw/../misc/lv_color.h ****     LV_PALETTE_ORANGE,
 274:Drivers/lvgl/lvgl/src/extra/themes/default/../../../../src/hal/../draw/../misc/lv_color.h ****     LV_PALETTE_DEEP_ORANGE,
 275:Drivers/lvgl/lvgl/src/extra/themes/default/../../../../src/hal/../draw/../misc/lv_color.h ****     LV_PALETTE_BROWN,
 276:Drivers/lvgl/lvgl/src/extra/themes/default/../../../../src/hal/../draw/../misc/lv_color.h ****     LV_PALETTE_BLUE_GREY,
 277:Drivers/lvgl/lvgl/src/extra/themes/default/../../../../src/hal/../draw/../misc/lv_color.h ****     LV_PALETTE_GREY,
 278:Drivers/lvgl/lvgl/src/extra/themes/default/../../../../src/hal/../draw/../misc/lv_color.h ****     _LV_PALETTE_LAST,
 279:Drivers/lvgl/lvgl/src/extra/themes/default/../../../../src/hal/../draw/../misc/lv_color.h ****     LV_PALETTE_NONE = 0xff,
 280:Drivers/lvgl/lvgl/src/extra/themes/default/../../../../src/hal/../draw/../misc/lv_color.h **** } lv_palette_t;
 281:Drivers/lvgl/lvgl/src/extra/themes/default/../../../../src/hal/../draw/../misc/lv_color.h **** 
 282:Drivers/lvgl/lvgl/src/extra/themes/default/../../../../src/hal/../draw/../misc/lv_color.h **** /**********************
 283:Drivers/lvgl/lvgl/src/extra/themes/default/../../../../src/hal/../draw/../misc/lv_color.h ****  * GLOBAL PROTOTYPES
 284:Drivers/lvgl/lvgl/src/extra/themes/default/../../../../src/hal/../draw/../misc/lv_color.h ****  **********************/
 285:Drivers/lvgl/lvgl/src/extra/themes/default/../../../../src/hal/../draw/../misc/lv_color.h **** 
 286:Drivers/lvgl/lvgl/src/extra/themes/default/../../../../src/hal/../draw/../misc/lv_color.h **** /*In color conversations:
 287:Drivers/lvgl/lvgl/src/extra/themes/default/../../../../src/hal/../draw/../misc/lv_color.h ****  * - When converting to bigger color type the LSB weight of 1 LSB is calculated
 288:Drivers/lvgl/lvgl/src/extra/themes/default/../../../../src/hal/../draw/../misc/lv_color.h ****  *   E.g. 16 bit Red has 5 bits
 289:Drivers/lvgl/lvgl/src/extra/themes/default/../../../../src/hal/../draw/../misc/lv_color.h ****  *         8 bit Red has 3 bits
 290:Drivers/lvgl/lvgl/src/extra/themes/default/../../../../src/hal/../draw/../misc/lv_color.h ****  *        ----------------------
 291:Drivers/lvgl/lvgl/src/extra/themes/default/../../../../src/hal/../draw/../misc/lv_color.h ****  *        8 bit red LSB = (2^5 - 1) / (2^3 - 1) = 31 / 7 = 4
 292:Drivers/lvgl/lvgl/src/extra/themes/default/../../../../src/hal/../draw/../misc/lv_color.h ****  *
 293:Drivers/lvgl/lvgl/src/extra/themes/default/../../../../src/hal/../draw/../misc/lv_color.h ****  * - When calculating to smaller color type simply shift out the LSBs
 294:Drivers/lvgl/lvgl/src/extra/themes/default/../../../../src/hal/../draw/../misc/lv_color.h ****  *   E.g.  8 bit Red has 3 bits
 295:Drivers/lvgl/lvgl/src/extra/themes/default/../../../../src/hal/../draw/../misc/lv_color.h ****  *        16 bit Red has 5 bits
 296:Drivers/lvgl/lvgl/src/extra/themes/default/../../../../src/hal/../draw/../misc/lv_color.h ****  *        ----------------------
 297:Drivers/lvgl/lvgl/src/extra/themes/default/../../../../src/hal/../draw/../misc/lv_color.h ****  *         Shift right with 5 - 3 = 2
 298:Drivers/lvgl/lvgl/src/extra/themes/default/../../../../src/hal/../draw/../misc/lv_color.h ****  */
 299:Drivers/lvgl/lvgl/src/extra/themes/default/../../../../src/hal/../draw/../misc/lv_color.h **** static inline uint8_t lv_color_to1(lv_color_t color)
 300:Drivers/lvgl/lvgl/src/extra/themes/default/../../../../src/hal/../draw/../misc/lv_color.h **** {
 301:Drivers/lvgl/lvgl/src/extra/themes/default/../../../../src/hal/../draw/../misc/lv_color.h **** #if LV_COLOR_DEPTH == 1
 302:Drivers/lvgl/lvgl/src/extra/themes/default/../../../../src/hal/../draw/../misc/lv_color.h ****     return color.full;
 303:Drivers/lvgl/lvgl/src/extra/themes/default/../../../../src/hal/../draw/../misc/lv_color.h **** #elif LV_COLOR_DEPTH == 8
 304:Drivers/lvgl/lvgl/src/extra/themes/default/../../../../src/hal/../draw/../misc/lv_color.h ****     if((LV_COLOR_GET_R(color) & 0x4) || (LV_COLOR_GET_G(color) & 0x4) || (LV_COLOR_GET_B(color) & 0
 305:Drivers/lvgl/lvgl/src/extra/themes/default/../../../../src/hal/../draw/../misc/lv_color.h ****         return 1;
 306:Drivers/lvgl/lvgl/src/extra/themes/default/../../../../src/hal/../draw/../misc/lv_color.h ****     }
 307:Drivers/lvgl/lvgl/src/extra/themes/default/../../../../src/hal/../draw/../misc/lv_color.h ****     else {
 308:Drivers/lvgl/lvgl/src/extra/themes/default/../../../../src/hal/../draw/../misc/lv_color.h ****         return 0;
 309:Drivers/lvgl/lvgl/src/extra/themes/default/../../../../src/hal/../draw/../misc/lv_color.h ****     }
 310:Drivers/lvgl/lvgl/src/extra/themes/default/../../../../src/hal/../draw/../misc/lv_color.h **** #elif LV_COLOR_DEPTH == 16
 311:Drivers/lvgl/lvgl/src/extra/themes/default/../../../../src/hal/../draw/../misc/lv_color.h ****     if((LV_COLOR_GET_R(color) & 0x10) || (LV_COLOR_GET_G(color) & 0x20) || (LV_COLOR_GET_B(color) &
 312:Drivers/lvgl/lvgl/src/extra/themes/default/../../../../src/hal/../draw/../misc/lv_color.h ****         return 1;
 313:Drivers/lvgl/lvgl/src/extra/themes/default/../../../../src/hal/../draw/../misc/lv_color.h ****     }
 314:Drivers/lvgl/lvgl/src/extra/themes/default/../../../../src/hal/../draw/../misc/lv_color.h ****     else {
 315:Drivers/lvgl/lvgl/src/extra/themes/default/../../../../src/hal/../draw/../misc/lv_color.h ****         return 0;
 316:Drivers/lvgl/lvgl/src/extra/themes/default/../../../../src/hal/../draw/../misc/lv_color.h ****     }
 317:Drivers/lvgl/lvgl/src/extra/themes/default/../../../../src/hal/../draw/../misc/lv_color.h **** #elif LV_COLOR_DEPTH == 32
 318:Drivers/lvgl/lvgl/src/extra/themes/default/../../../../src/hal/../draw/../misc/lv_color.h ****     if((LV_COLOR_GET_R(color) & 0x80) || (LV_COLOR_GET_G(color) & 0x80) || (LV_COLOR_GET_B(color) &
 319:Drivers/lvgl/lvgl/src/extra/themes/default/../../../../src/hal/../draw/../misc/lv_color.h ****         return 1;
ARM GAS  /tmp/cc6wDDAF.s 			page 74


 320:Drivers/lvgl/lvgl/src/extra/themes/default/../../../../src/hal/../draw/../misc/lv_color.h ****     }
 321:Drivers/lvgl/lvgl/src/extra/themes/default/../../../../src/hal/../draw/../misc/lv_color.h ****     else {
 322:Drivers/lvgl/lvgl/src/extra/themes/default/../../../../src/hal/../draw/../misc/lv_color.h ****         return 0;
 323:Drivers/lvgl/lvgl/src/extra/themes/default/../../../../src/hal/../draw/../misc/lv_color.h ****     }
 324:Drivers/lvgl/lvgl/src/extra/themes/default/../../../../src/hal/../draw/../misc/lv_color.h **** #endif
 325:Drivers/lvgl/lvgl/src/extra/themes/default/../../../../src/hal/../draw/../misc/lv_color.h **** }
 326:Drivers/lvgl/lvgl/src/extra/themes/default/../../../../src/hal/../draw/../misc/lv_color.h **** 
 327:Drivers/lvgl/lvgl/src/extra/themes/default/../../../../src/hal/../draw/../misc/lv_color.h **** static inline uint8_t lv_color_to8(lv_color_t color)
 328:Drivers/lvgl/lvgl/src/extra/themes/default/../../../../src/hal/../draw/../misc/lv_color.h **** {
 329:Drivers/lvgl/lvgl/src/extra/themes/default/../../../../src/hal/../draw/../misc/lv_color.h **** #if LV_COLOR_DEPTH == 1
 330:Drivers/lvgl/lvgl/src/extra/themes/default/../../../../src/hal/../draw/../misc/lv_color.h ****     if(color.full == 0)
 331:Drivers/lvgl/lvgl/src/extra/themes/default/../../../../src/hal/../draw/../misc/lv_color.h ****         return 0;
 332:Drivers/lvgl/lvgl/src/extra/themes/default/../../../../src/hal/../draw/../misc/lv_color.h ****     else
 333:Drivers/lvgl/lvgl/src/extra/themes/default/../../../../src/hal/../draw/../misc/lv_color.h ****         return 0xFF;
 334:Drivers/lvgl/lvgl/src/extra/themes/default/../../../../src/hal/../draw/../misc/lv_color.h **** #elif LV_COLOR_DEPTH == 8
 335:Drivers/lvgl/lvgl/src/extra/themes/default/../../../../src/hal/../draw/../misc/lv_color.h ****     return color.full;
 336:Drivers/lvgl/lvgl/src/extra/themes/default/../../../../src/hal/../draw/../misc/lv_color.h **** #elif LV_COLOR_DEPTH == 16
 337:Drivers/lvgl/lvgl/src/extra/themes/default/../../../../src/hal/../draw/../misc/lv_color.h ****     lv_color8_t ret;
 338:Drivers/lvgl/lvgl/src/extra/themes/default/../../../../src/hal/../draw/../misc/lv_color.h ****     LV_COLOR_SET_R8(ret, LV_COLOR_GET_R(color) >> 2); /*5 - 3  = 2*/
 339:Drivers/lvgl/lvgl/src/extra/themes/default/../../../../src/hal/../draw/../misc/lv_color.h ****     LV_COLOR_SET_G8(ret, LV_COLOR_GET_G(color) >> 3); /*6 - 3  = 3*/
 340:Drivers/lvgl/lvgl/src/extra/themes/default/../../../../src/hal/../draw/../misc/lv_color.h ****     LV_COLOR_SET_B8(ret, LV_COLOR_GET_B(color) >> 3); /*5 - 2  = 3*/
 341:Drivers/lvgl/lvgl/src/extra/themes/default/../../../../src/hal/../draw/../misc/lv_color.h ****     return ret.full;
 342:Drivers/lvgl/lvgl/src/extra/themes/default/../../../../src/hal/../draw/../misc/lv_color.h **** #elif LV_COLOR_DEPTH == 32
 343:Drivers/lvgl/lvgl/src/extra/themes/default/../../../../src/hal/../draw/../misc/lv_color.h ****     lv_color8_t ret;
 344:Drivers/lvgl/lvgl/src/extra/themes/default/../../../../src/hal/../draw/../misc/lv_color.h ****     LV_COLOR_SET_R8(ret, LV_COLOR_GET_R(color) >> 5); /*8 - 3  = 5*/
 345:Drivers/lvgl/lvgl/src/extra/themes/default/../../../../src/hal/../draw/../misc/lv_color.h ****     LV_COLOR_SET_G8(ret, LV_COLOR_GET_G(color) >> 5); /*8 - 3  = 5*/
 346:Drivers/lvgl/lvgl/src/extra/themes/default/../../../../src/hal/../draw/../misc/lv_color.h ****     LV_COLOR_SET_B8(ret, LV_COLOR_GET_B(color) >> 6); /*8 - 2  = 6*/
 347:Drivers/lvgl/lvgl/src/extra/themes/default/../../../../src/hal/../draw/../misc/lv_color.h ****     return ret.full;
 348:Drivers/lvgl/lvgl/src/extra/themes/default/../../../../src/hal/../draw/../misc/lv_color.h **** #endif
 349:Drivers/lvgl/lvgl/src/extra/themes/default/../../../../src/hal/../draw/../misc/lv_color.h **** }
 350:Drivers/lvgl/lvgl/src/extra/themes/default/../../../../src/hal/../draw/../misc/lv_color.h **** 
 351:Drivers/lvgl/lvgl/src/extra/themes/default/../../../../src/hal/../draw/../misc/lv_color.h **** static inline uint16_t lv_color_to16(lv_color_t color)
 352:Drivers/lvgl/lvgl/src/extra/themes/default/../../../../src/hal/../draw/../misc/lv_color.h **** {
 353:Drivers/lvgl/lvgl/src/extra/themes/default/../../../../src/hal/../draw/../misc/lv_color.h **** #if LV_COLOR_DEPTH == 1
 354:Drivers/lvgl/lvgl/src/extra/themes/default/../../../../src/hal/../draw/../misc/lv_color.h ****     if(color.full == 0)
 355:Drivers/lvgl/lvgl/src/extra/themes/default/../../../../src/hal/../draw/../misc/lv_color.h ****         return 0;
 356:Drivers/lvgl/lvgl/src/extra/themes/default/../../../../src/hal/../draw/../misc/lv_color.h ****     else
 357:Drivers/lvgl/lvgl/src/extra/themes/default/../../../../src/hal/../draw/../misc/lv_color.h ****         return 0xFFFF;
 358:Drivers/lvgl/lvgl/src/extra/themes/default/../../../../src/hal/../draw/../misc/lv_color.h **** #elif LV_COLOR_DEPTH == 8
 359:Drivers/lvgl/lvgl/src/extra/themes/default/../../../../src/hal/../draw/../misc/lv_color.h ****     lv_color16_t ret;
 360:Drivers/lvgl/lvgl/src/extra/themes/default/../../../../src/hal/../draw/../misc/lv_color.h ****     LV_COLOR_SET_R16(ret, LV_COLOR_GET_R(color) * 4);  /*(2^5 - 1)/(2^3 - 1) = 31/7 = 4*/
 361:Drivers/lvgl/lvgl/src/extra/themes/default/../../../../src/hal/../draw/../misc/lv_color.h ****     LV_COLOR_SET_G16(ret, LV_COLOR_GET_G(color) * 9);  /*(2^6 - 1)/(2^3 - 1) = 63/7 = 9*/
 362:Drivers/lvgl/lvgl/src/extra/themes/default/../../../../src/hal/../draw/../misc/lv_color.h ****     LV_COLOR_SET_B16(ret, LV_COLOR_GET_B(color) * 10); /*(2^5 - 1)/(2^2 - 1) = 31/3 = 10*/
 363:Drivers/lvgl/lvgl/src/extra/themes/default/../../../../src/hal/../draw/../misc/lv_color.h ****     return ret.full;
 364:Drivers/lvgl/lvgl/src/extra/themes/default/../../../../src/hal/../draw/../misc/lv_color.h **** #elif LV_COLOR_DEPTH == 16
 365:Drivers/lvgl/lvgl/src/extra/themes/default/../../../../src/hal/../draw/../misc/lv_color.h ****     return color.full;
 366:Drivers/lvgl/lvgl/src/extra/themes/default/../../../../src/hal/../draw/../misc/lv_color.h **** #elif LV_COLOR_DEPTH == 32
 367:Drivers/lvgl/lvgl/src/extra/themes/default/../../../../src/hal/../draw/../misc/lv_color.h ****     lv_color16_t ret;
 368:Drivers/lvgl/lvgl/src/extra/themes/default/../../../../src/hal/../draw/../misc/lv_color.h ****     LV_COLOR_SET_R16(ret, LV_COLOR_GET_R(color) >> 3); /*8 - 5  = 3*/
 369:Drivers/lvgl/lvgl/src/extra/themes/default/../../../../src/hal/../draw/../misc/lv_color.h ****     LV_COLOR_SET_G16(ret, LV_COLOR_GET_G(color) >> 2); /*8 - 6  = 2*/
 370:Drivers/lvgl/lvgl/src/extra/themes/default/../../../../src/hal/../draw/../misc/lv_color.h ****     LV_COLOR_SET_B16(ret, LV_COLOR_GET_B(color) >> 3); /*8 - 5  = 3*/
 371:Drivers/lvgl/lvgl/src/extra/themes/default/../../../../src/hal/../draw/../misc/lv_color.h ****     return ret.full;
 372:Drivers/lvgl/lvgl/src/extra/themes/default/../../../../src/hal/../draw/../misc/lv_color.h **** #endif
 373:Drivers/lvgl/lvgl/src/extra/themes/default/../../../../src/hal/../draw/../misc/lv_color.h **** }
 374:Drivers/lvgl/lvgl/src/extra/themes/default/../../../../src/hal/../draw/../misc/lv_color.h **** 
 375:Drivers/lvgl/lvgl/src/extra/themes/default/../../../../src/hal/../draw/../misc/lv_color.h **** static inline uint32_t lv_color_to32(lv_color_t color)
 376:Drivers/lvgl/lvgl/src/extra/themes/default/../../../../src/hal/../draw/../misc/lv_color.h **** {
ARM GAS  /tmp/cc6wDDAF.s 			page 75


 377:Drivers/lvgl/lvgl/src/extra/themes/default/../../../../src/hal/../draw/../misc/lv_color.h **** #if LV_COLOR_DEPTH == 1
 378:Drivers/lvgl/lvgl/src/extra/themes/default/../../../../src/hal/../draw/../misc/lv_color.h ****     if(color.full == 0)
 379:Drivers/lvgl/lvgl/src/extra/themes/default/../../../../src/hal/../draw/../misc/lv_color.h ****         return 0xFF000000;
 380:Drivers/lvgl/lvgl/src/extra/themes/default/../../../../src/hal/../draw/../misc/lv_color.h ****     else
 381:Drivers/lvgl/lvgl/src/extra/themes/default/../../../../src/hal/../draw/../misc/lv_color.h ****         return 0xFFFFFFFF;
 382:Drivers/lvgl/lvgl/src/extra/themes/default/../../../../src/hal/../draw/../misc/lv_color.h **** #elif LV_COLOR_DEPTH == 8
 383:Drivers/lvgl/lvgl/src/extra/themes/default/../../../../src/hal/../draw/../misc/lv_color.h ****     lv_color32_t ret;
 384:Drivers/lvgl/lvgl/src/extra/themes/default/../../../../src/hal/../draw/../misc/lv_color.h ****     LV_COLOR_SET_R32(ret, LV_COLOR_GET_R(color) * 36); /*(2^8 - 1)/(2^3 - 1) = 255/7 = 36*/
 385:Drivers/lvgl/lvgl/src/extra/themes/default/../../../../src/hal/../draw/../misc/lv_color.h ****     LV_COLOR_SET_G32(ret, LV_COLOR_GET_G(color) * 36); /*(2^8 - 1)/(2^3 - 1) = 255/7 = 36*/
 386:Drivers/lvgl/lvgl/src/extra/themes/default/../../../../src/hal/../draw/../misc/lv_color.h ****     LV_COLOR_SET_B32(ret, LV_COLOR_GET_B(color) * 85); /*(2^8 - 1)/(2^2 - 1) = 255/3 = 85*/
 387:Drivers/lvgl/lvgl/src/extra/themes/default/../../../../src/hal/../draw/../misc/lv_color.h ****     LV_COLOR_SET_A32(ret, 0xFF);
 388:Drivers/lvgl/lvgl/src/extra/themes/default/../../../../src/hal/../draw/../misc/lv_color.h ****     return ret.full;
 389:Drivers/lvgl/lvgl/src/extra/themes/default/../../../../src/hal/../draw/../misc/lv_color.h **** #elif LV_COLOR_DEPTH == 16
 390:Drivers/lvgl/lvgl/src/extra/themes/default/../../../../src/hal/../draw/../misc/lv_color.h ****     /**
 391:Drivers/lvgl/lvgl/src/extra/themes/default/../../../../src/hal/../draw/../misc/lv_color.h ****      * The floating point math for conversion is:
 392:Drivers/lvgl/lvgl/src/extra/themes/default/../../../../src/hal/../draw/../misc/lv_color.h ****      *  valueto = valuefrom * ( (2^bitsto - 1) / (float)(2^bitsfrom - 1) )
 393:Drivers/lvgl/lvgl/src/extra/themes/default/../../../../src/hal/../draw/../misc/lv_color.h ****      * The faster integer math for conversion is:
 394:Drivers/lvgl/lvgl/src/extra/themes/default/../../../../src/hal/../draw/../misc/lv_color.h ****      *  valueto = ( valuefrom * multiplier + adder ) >> divisor
 395:Drivers/lvgl/lvgl/src/extra/themes/default/../../../../src/hal/../draw/../misc/lv_color.h ****      *   multiplier = FLOOR( ( (2^bitsto - 1) << divisor ) / (float)(2^bitsfrom - 1) )
 396:Drivers/lvgl/lvgl/src/extra/themes/default/../../../../src/hal/../draw/../misc/lv_color.h ****      *
 397:Drivers/lvgl/lvgl/src/extra/themes/default/../../../../src/hal/../draw/../misc/lv_color.h ****      * Find the first divisor where ( adder >> divisor ) <= 0
 398:Drivers/lvgl/lvgl/src/extra/themes/default/../../../../src/hal/../draw/../misc/lv_color.h ****      *
 399:Drivers/lvgl/lvgl/src/extra/themes/default/../../../../src/hal/../draw/../misc/lv_color.h ****      * 5-bit to 8-bit: ( 31 * multiplier + adder ) >> divisor = 255
 400:Drivers/lvgl/lvgl/src/extra/themes/default/../../../../src/hal/../draw/../misc/lv_color.h ****      * divisor  multiplier  adder  min (0)  max (31)
 401:Drivers/lvgl/lvgl/src/extra/themes/default/../../../../src/hal/../draw/../misc/lv_color.h ****      *       0           8      7        7       255
 402:Drivers/lvgl/lvgl/src/extra/themes/default/../../../../src/hal/../draw/../misc/lv_color.h ****      *       1          16     14        7       255
 403:Drivers/lvgl/lvgl/src/extra/themes/default/../../../../src/hal/../draw/../misc/lv_color.h ****      *       2          32     28        7       255
 404:Drivers/lvgl/lvgl/src/extra/themes/default/../../../../src/hal/../draw/../misc/lv_color.h ****      *       3          65     25        3       255
 405:Drivers/lvgl/lvgl/src/extra/themes/default/../../../../src/hal/../draw/../misc/lv_color.h ****      *       4         131     19        1       255
 406:Drivers/lvgl/lvgl/src/extra/themes/default/../../../../src/hal/../draw/../misc/lv_color.h ****      *       5         263      7        0       255
 407:Drivers/lvgl/lvgl/src/extra/themes/default/../../../../src/hal/../draw/../misc/lv_color.h ****      *
 408:Drivers/lvgl/lvgl/src/extra/themes/default/../../../../src/hal/../draw/../misc/lv_color.h ****      * 6-bit to 8-bit: 255 = ( 63 * multiplier + adder ) >> divisor
 409:Drivers/lvgl/lvgl/src/extra/themes/default/../../../../src/hal/../draw/../misc/lv_color.h ****      * divisor  multiplier  adder  min (0)  max (63)
 410:Drivers/lvgl/lvgl/src/extra/themes/default/../../../../src/hal/../draw/../misc/lv_color.h ****      *       0           4      3        3       255
 411:Drivers/lvgl/lvgl/src/extra/themes/default/../../../../src/hal/../draw/../misc/lv_color.h ****      *       1           8      6        3       255
 412:Drivers/lvgl/lvgl/src/extra/themes/default/../../../../src/hal/../draw/../misc/lv_color.h ****      *       2          16     12        3       255
 413:Drivers/lvgl/lvgl/src/extra/themes/default/../../../../src/hal/../draw/../misc/lv_color.h ****      *       3          32     24        3       255
 414:Drivers/lvgl/lvgl/src/extra/themes/default/../../../../src/hal/../draw/../misc/lv_color.h ****      *       4          64     48        3       255
 415:Drivers/lvgl/lvgl/src/extra/themes/default/../../../../src/hal/../draw/../misc/lv_color.h ****      *       5         129     33        1       255
 416:Drivers/lvgl/lvgl/src/extra/themes/default/../../../../src/hal/../draw/../misc/lv_color.h ****      *       6         259      3        0       255
 417:Drivers/lvgl/lvgl/src/extra/themes/default/../../../../src/hal/../draw/../misc/lv_color.h ****      */
 418:Drivers/lvgl/lvgl/src/extra/themes/default/../../../../src/hal/../draw/../misc/lv_color.h **** 
 419:Drivers/lvgl/lvgl/src/extra/themes/default/../../../../src/hal/../draw/../misc/lv_color.h ****     lv_color32_t ret;
 420:Drivers/lvgl/lvgl/src/extra/themes/default/../../../../src/hal/../draw/../misc/lv_color.h ****     LV_COLOR_SET_R32(ret, (LV_COLOR_GET_R(color) * 263 + 7) >> 5);
 421:Drivers/lvgl/lvgl/src/extra/themes/default/../../../../src/hal/../draw/../misc/lv_color.h ****     LV_COLOR_SET_G32(ret, (LV_COLOR_GET_G(color) * 259 + 3) >> 6);
 422:Drivers/lvgl/lvgl/src/extra/themes/default/../../../../src/hal/../draw/../misc/lv_color.h ****     LV_COLOR_SET_B32(ret, (LV_COLOR_GET_B(color) * 263 + 7) >> 5);
 423:Drivers/lvgl/lvgl/src/extra/themes/default/../../../../src/hal/../draw/../misc/lv_color.h ****     LV_COLOR_SET_A32(ret, 0xFF);
 424:Drivers/lvgl/lvgl/src/extra/themes/default/../../../../src/hal/../draw/../misc/lv_color.h ****     return ret.full;
 425:Drivers/lvgl/lvgl/src/extra/themes/default/../../../../src/hal/../draw/../misc/lv_color.h **** #elif LV_COLOR_DEPTH == 32
 426:Drivers/lvgl/lvgl/src/extra/themes/default/../../../../src/hal/../draw/../misc/lv_color.h ****     return color.full;
 427:Drivers/lvgl/lvgl/src/extra/themes/default/../../../../src/hal/../draw/../misc/lv_color.h **** #endif
 428:Drivers/lvgl/lvgl/src/extra/themes/default/../../../../src/hal/../draw/../misc/lv_color.h **** }
 429:Drivers/lvgl/lvgl/src/extra/themes/default/../../../../src/hal/../draw/../misc/lv_color.h **** 
 430:Drivers/lvgl/lvgl/src/extra/themes/default/../../../../src/hal/../draw/../misc/lv_color.h **** //! @cond Doxygen_Suppress
 431:Drivers/lvgl/lvgl/src/extra/themes/default/../../../../src/hal/../draw/../misc/lv_color.h **** 
 432:Drivers/lvgl/lvgl/src/extra/themes/default/../../../../src/hal/../draw/../misc/lv_color.h **** /**
 433:Drivers/lvgl/lvgl/src/extra/themes/default/../../../../src/hal/../draw/../misc/lv_color.h ****  * Mix two colors with a given ratio.
ARM GAS  /tmp/cc6wDDAF.s 			page 76


 434:Drivers/lvgl/lvgl/src/extra/themes/default/../../../../src/hal/../draw/../misc/lv_color.h ****  * @param c1 the first color to mix (usually the foreground)
 435:Drivers/lvgl/lvgl/src/extra/themes/default/../../../../src/hal/../draw/../misc/lv_color.h ****  * @param c2 the second color to mix (usually the background)
 436:Drivers/lvgl/lvgl/src/extra/themes/default/../../../../src/hal/../draw/../misc/lv_color.h ****  * @param mix The ratio of the colors. 0: full `c2`, 255: full `c1`, 127: half `c1` and half`c2`
 437:Drivers/lvgl/lvgl/src/extra/themes/default/../../../../src/hal/../draw/../misc/lv_color.h ****  * @return the mixed color
 438:Drivers/lvgl/lvgl/src/extra/themes/default/../../../../src/hal/../draw/../misc/lv_color.h ****  */
 439:Drivers/lvgl/lvgl/src/extra/themes/default/../../../../src/hal/../draw/../misc/lv_color.h **** LV_ATTRIBUTE_FAST_MEM static inline lv_color_t lv_color_mix(lv_color_t c1, lv_color_t c2, uint8_t m
 440:Drivers/lvgl/lvgl/src/extra/themes/default/../../../../src/hal/../draw/../misc/lv_color.h **** {
 441:Drivers/lvgl/lvgl/src/extra/themes/default/../../../../src/hal/../draw/../misc/lv_color.h ****     lv_color_t ret;
 442:Drivers/lvgl/lvgl/src/extra/themes/default/../../../../src/hal/../draw/../misc/lv_color.h **** 
 443:Drivers/lvgl/lvgl/src/extra/themes/default/../../../../src/hal/../draw/../misc/lv_color.h **** #if LV_COLOR_DEPTH == 16 && LV_COLOR_MIX_ROUND_OFS == 0
 444:Drivers/lvgl/lvgl/src/extra/themes/default/../../../../src/hal/../draw/../misc/lv_color.h **** #if LV_COLOR_16_SWAP == 1
 445:Drivers/lvgl/lvgl/src/extra/themes/default/../../../../src/hal/../draw/../misc/lv_color.h ****     c1.full = c1.full << 8 | c1.full >> 8;
 446:Drivers/lvgl/lvgl/src/extra/themes/default/../../../../src/hal/../draw/../misc/lv_color.h ****     c2.full = c2.full << 8 | c2.full >> 8;
 447:Drivers/lvgl/lvgl/src/extra/themes/default/../../../../src/hal/../draw/../misc/lv_color.h **** #endif
 448:Drivers/lvgl/lvgl/src/extra/themes/default/../../../../src/hal/../draw/../misc/lv_color.h ****     /*Source: https://stackoverflow.com/a/50012418/1999969*/
 449:Drivers/lvgl/lvgl/src/extra/themes/default/../../../../src/hal/../draw/../misc/lv_color.h ****     mix = (uint32_t)((uint32_t)mix + 4) >> 3;
 2387              		.loc 2 449 0
 2388 0018 0435     		adds	r5, r5, #4
 2389              	.LVL313:
 450:Drivers/lvgl/lvgl/src/extra/themes/default/../../../../src/hal/../draw/../misc/lv_color.h ****     uint32_t bg = (uint32_t)((uint32_t)c2.full | ((uint32_t)c2.full << 16)) &
 2390              		.loc 2 450 0
 2391 001a A4B2     		uxth	r4, r4
 2392              	.LVL314:
 2393 001c 44EA0444 		orr	r4, r4, r4, lsl #16
 2394 0020 144B     		ldr	r3, .L88+4
 2395 0022 1C40     		ands	r4, r4, r3
 2396              	.LVL315:
 451:Drivers/lvgl/lvgl/src/extra/themes/default/../../../../src/hal/../draw/../misc/lv_color.h ****                   0x7E0F81F; /*0b00000111111000001111100000011111*/
 452:Drivers/lvgl/lvgl/src/extra/themes/default/../../../../src/hal/../draw/../misc/lv_color.h ****     uint32_t fg = (uint32_t)((uint32_t)c1.full | ((uint32_t)c1.full << 16)) & 0x7E0F81F;
 2397              		.loc 2 452 0
 2398 0024 80B2     		uxth	r0, r0
 2399 0026 40EA0040 		orr	r0, r0, r0, lsl #16
 2400 002a 1840     		ands	r0, r0, r3
 2401              	.LVL316:
 453:Drivers/lvgl/lvgl/src/extra/themes/default/../../../../src/hal/../draw/../misc/lv_color.h ****     uint32_t result = ((((fg - bg) * mix) >> 5) + bg) & 0x7E0F81F;
 2402              		.loc 2 453 0
 2403 002c 001B     		subs	r0, r0, r4
 2404              	.LVL317:
 2405 002e ED08     		lsrs	r5, r5, #3
 2406              	.LVL318:
 2407 0030 00FB05F0 		mul	r0, r0, r5
 2408 0034 04EB5010 		add	r0, r4, r0, lsr #5
 2409 0038 1840     		ands	r0, r0, r3
 2410              	.LVL319:
 2411 003a 40EA1040 		orr	r0, r0, r0, lsr #16
 2412              	.LVL320:
 2413              	.L85:
 2414              	.LBE105:
 2415              	.LBE104:
 203:Drivers/lvgl/lvgl/src/extra/themes/default/lv_theme_default.c **** 
 2416              		.loc 1 203 0
 2417 003e 38BD     		pop	{r3, r4, r5, pc}
 2418              	.LVL321:
 2419              	.L87:
 201:Drivers/lvgl/lvgl/src/extra/themes/default/lv_theme_default.c ****     else return lv_color_mix(lv_palette_lighten(LV_PALETTE_GREY, 2), color, opa);
 2420              		.loc 1 201 0 discriminator 1
 2421 0040 0221     		movs	r1, #2
ARM GAS  /tmp/cc6wDDAF.s 			page 77


 2422              	.LVL322:
 2423 0042 1220     		movs	r0, #18
 2424              	.LVL323:
 2425 0044 FFF7FEFF 		bl	lv_palette_darken
 2426              	.LVL324:
 2427              	.LBB106:
 2428              	.LBB107:
 449:Drivers/lvgl/lvgl/src/extra/themes/default/../../../../src/hal/../draw/../misc/lv_color.h ****     uint32_t bg = (uint32_t)((uint32_t)c2.full | ((uint32_t)c2.full << 16)) &
 2429              		.loc 2 449 0 discriminator 1
 2430 0048 0435     		adds	r5, r5, #4
 2431              	.LVL325:
 450:Drivers/lvgl/lvgl/src/extra/themes/default/../../../../src/hal/../draw/../misc/lv_color.h ****                   0x7E0F81F; /*0b00000111111000001111100000011111*/
 2432              		.loc 2 450 0 discriminator 1
 2433 004a A4B2     		uxth	r4, r4
 2434              	.LVL326:
 2435 004c 44EA0444 		orr	r4, r4, r4, lsl #16
 2436 0050 084B     		ldr	r3, .L88+4
 2437 0052 1C40     		ands	r4, r4, r3
 2438              	.LVL327:
 452:Drivers/lvgl/lvgl/src/extra/themes/default/../../../../src/hal/../draw/../misc/lv_color.h ****     uint32_t result = ((((fg - bg) * mix) >> 5) + bg) & 0x7E0F81F;
 2439              		.loc 2 452 0 discriminator 1
 2440 0054 80B2     		uxth	r0, r0
 2441 0056 40EA0040 		orr	r0, r0, r0, lsl #16
 2442 005a 1840     		ands	r0, r0, r3
 2443              	.LVL328:
 2444              		.loc 2 453 0 discriminator 1
 2445 005c 001B     		subs	r0, r0, r4
 2446              	.LVL329:
 2447 005e ED08     		lsrs	r5, r5, #3
 2448              	.LVL330:
 2449 0060 00FB05F0 		mul	r0, r0, r5
 2450 0064 04EB5010 		add	r0, r4, r0, lsr #5
 2451 0068 1840     		ands	r0, r0, r3
 2452              	.LVL331:
 2453 006a 40EA1040 		orr	r0, r0, r0, lsr #16
 2454              	.LVL332:
 2455 006e E6E7     		b	.L85
 2456              	.L89:
 2457              		.align	2
 2458              	.L88:
 2459 0070 00000000 		.word	.LANCHOR2
 2460 0074 1FF8E007 		.word	132184095
 2461              	.LBE107:
 2462              	.LBE106:
 2463              		.cfi_endproc
 2464              	.LFE203:
 2466              		.section	.text.dark_color_filter_cb,"ax",%progbits
 2467              		.align	1
 2468              		.syntax unified
 2469              		.thumb
 2470              		.thumb_func
 2471              		.fpu fpv5-d16
 2473              	dark_color_filter_cb:
 2474              	.LFB202:
 193:Drivers/lvgl/lvgl/src/extra/themes/default/lv_theme_default.c ****     LV_UNUSED(f);
 2475              		.loc 1 193 0
 2476              		.cfi_startproc
ARM GAS  /tmp/cc6wDDAF.s 			page 78


 2477              		@ args = 0, pretend = 0, frame = 0
 2478              		@ frame_needed = 0, uses_anonymous_args = 0
 2479              	.LVL333:
 2480 0000 08B5     		push	{r3, lr}
 2481              	.LCFI2:
 2482              		.cfi_def_cfa_offset 8
 2483              		.cfi_offset 3, -8
 2484              		.cfi_offset 14, -4
 2485 0002 0846     		mov	r0, r1	@ movhi
 2486              	.LVL334:
 195:Drivers/lvgl/lvgl/src/extra/themes/default/lv_theme_default.c **** }
 2487              		.loc 1 195 0
 2488 0004 1146     		mov	r1, r2
 2489              	.LVL335:
 2490 0006 FFF7FEFF 		bl	lv_color_darken
 2491              	.LVL336:
 196:Drivers/lvgl/lvgl/src/extra/themes/default/lv_theme_default.c **** 
 2492              		.loc 1 196 0
 2493 000a 08BD     		pop	{r3, pc}
 2494              		.cfi_endproc
 2495              	.LFE202:
 2497              		.section	.text.style_init_reset,"ax",%progbits
 2498              		.align	1
 2499              		.syntax unified
 2500              		.thumb
 2501              		.thumb_func
 2502              		.fpu fpv5-d16
 2504              	style_init_reset:
 2505              	.LFB209:
1166:Drivers/lvgl/lvgl/src/extra/themes/default/lv_theme_default.c **** 
1167:Drivers/lvgl/lvgl/src/extra/themes/default/lv_theme_default.c **** /**********************
1168:Drivers/lvgl/lvgl/src/extra/themes/default/lv_theme_default.c ****  *   STATIC FUNCTIONS
1169:Drivers/lvgl/lvgl/src/extra/themes/default/lv_theme_default.c ****  **********************/
1170:Drivers/lvgl/lvgl/src/extra/themes/default/lv_theme_default.c **** 
1171:Drivers/lvgl/lvgl/src/extra/themes/default/lv_theme_default.c **** static void style_init_reset(lv_style_t * style)
1172:Drivers/lvgl/lvgl/src/extra/themes/default/lv_theme_default.c **** {
 2506              		.loc 1 1172 0
 2507              		.cfi_startproc
 2508              		@ args = 0, pretend = 0, frame = 0
 2509              		@ frame_needed = 0, uses_anonymous_args = 0
 2510              	.LVL337:
 2511 0000 08B5     		push	{r3, lr}
 2512              	.LCFI3:
 2513              		.cfi_def_cfa_offset 8
 2514              		.cfi_offset 3, -8
 2515              		.cfi_offset 14, -4
1173:Drivers/lvgl/lvgl/src/extra/themes/default/lv_theme_default.c ****     if(inited) {
 2516              		.loc 1 1173 0
 2517 0002 044B     		ldr	r3, .L97
 2518 0004 1B78     		ldrb	r3, [r3]	@ zero_extendqisi2
 2519 0006 13B9     		cbnz	r3, .L96
1174:Drivers/lvgl/lvgl/src/extra/themes/default/lv_theme_default.c ****         lv_style_reset(style);
1175:Drivers/lvgl/lvgl/src/extra/themes/default/lv_theme_default.c ****     }
1176:Drivers/lvgl/lvgl/src/extra/themes/default/lv_theme_default.c ****     else {
1177:Drivers/lvgl/lvgl/src/extra/themes/default/lv_theme_default.c ****         lv_style_init(style);
 2520              		.loc 1 1177 0
 2521 0008 FFF7FEFF 		bl	lv_style_init
ARM GAS  /tmp/cc6wDDAF.s 			page 79


 2522              	.LVL338:
 2523              	.L92:
1178:Drivers/lvgl/lvgl/src/extra/themes/default/lv_theme_default.c ****     }
1179:Drivers/lvgl/lvgl/src/extra/themes/default/lv_theme_default.c **** }
 2524              		.loc 1 1179 0
 2525 000c 08BD     		pop	{r3, pc}
 2526              	.LVL339:
 2527              	.L96:
1174:Drivers/lvgl/lvgl/src/extra/themes/default/lv_theme_default.c ****         lv_style_reset(style);
 2528              		.loc 1 1174 0
 2529 000e FFF7FEFF 		bl	lv_style_reset
 2530              	.LVL340:
 2531 0012 FBE7     		b	.L92
 2532              	.L98:
 2533              		.align	2
 2534              	.L97:
 2535 0014 00000000 		.word	.LANCHOR3
 2536              		.cfi_endproc
 2537              	.LFE209:
 2539              		.section	.text.style_init,"ax",%progbits
 2540              		.align	1
 2541              		.syntax unified
 2542              		.thumb
 2543              		.thumb_func
 2544              		.fpu fpv5-d16
 2546              	style_init:
 2547              	.LFB204:
 206:Drivers/lvgl/lvgl/src/extra/themes/default/lv_theme_default.c ****     static const lv_style_prop_t trans_props[] = {
 2548              		.loc 1 206 0
 2549              		.cfi_startproc
 2550              		@ args = 0, pretend = 0, frame = 0
 2551              		@ frame_needed = 0, uses_anonymous_args = 0
 2552 0000 2DE9F043 		push	{r4, r5, r6, r7, r8, r9, lr}
 2553              	.LCFI4:
 2554              		.cfi_def_cfa_offset 28
 2555              		.cfi_offset 4, -28
 2556              		.cfi_offset 5, -24
 2557              		.cfi_offset 6, -20
 2558              		.cfi_offset 7, -16
 2559              		.cfi_offset 8, -12
 2560              		.cfi_offset 9, -8
 2561              		.cfi_offset 14, -4
 2562 0004 83B0     		sub	sp, sp, #12
 2563              	.LCFI5:
 2564              		.cfi_def_cfa_offset 40
 216:Drivers/lvgl/lvgl/src/extra/themes/default/lv_theme_default.c ****     color_text = theme.flags & MODE_DARK ? DARK_COLOR_TEXT : LIGHT_COLOR_TEXT;
 2565              		.loc 1 216 0
 2566 0006 C94B     		ldr	r3, .L807
 2567 0008 1B6A     		ldr	r3, [r3, #32]
 2568 000a 13F0010F 		tst	r3, #1
 2569 000e 01F01E86 		beq	.L100
 2570              	.LVL341:
 2571 0012 41F2A302 		movw	r2, #4259
 2572 0016 C64B     		ldr	r3, .L807+4
 2573 0018 1A80     		strh	r2, [r3]	@ movhi
 2574              	.L101:
 217:Drivers/lvgl/lvgl/src/extra/themes/default/lv_theme_default.c ****     color_card = theme.flags & MODE_DARK ? DARK_COLOR_CARD : LIGHT_COLOR_CARD;
ARM GAS  /tmp/cc6wDDAF.s 			page 80


 2575              		.loc 1 217 0
 2576 001a C44B     		ldr	r3, .L807
 2577 001c 1B6A     		ldr	r3, [r3, #32]
 2578 001e 13F0010F 		tst	r3, #1
 2579 0022 01F01C86 		beq	.L102
 217:Drivers/lvgl/lvgl/src/extra/themes/default/lv_theme_default.c ****     color_card = theme.flags & MODE_DARK ? DARK_COLOR_CARD : LIGHT_COLOR_CARD;
 2580              		.loc 1 217 0 is_stmt 0 discriminator 1
 2581 0026 0521     		movs	r1, #5
 2582 0028 1220     		movs	r0, #18
 2583 002a FFF7FEFF 		bl	lv_palette_lighten
 2584              	.LVL342:
 2585 002e C14B     		ldr	r3, .L807+8
 2586 0030 1880     		strh	r0, [r3]	@ movhi
 2587              	.L103:
 218:Drivers/lvgl/lvgl/src/extra/themes/default/lv_theme_default.c ****     color_grey = theme.flags & MODE_DARK ? DARK_COLOR_GREY : LIGHT_COLOR_GREY;
 2588              		.loc 1 218 0 is_stmt 1
 2589 0032 BE4B     		ldr	r3, .L807
 2590 0034 1B6A     		ldr	r3, [r3, #32]
 2591 0036 13F0010F 		tst	r3, #1
 2592 003a 01F01886 		beq	.L104
 2593              	.LVL343:
 2594 003e 42F64612 		movw	r2, #10566
 2595 0042 BD4B     		ldr	r3, .L807+12
 2596 0044 1A80     		strh	r2, [r3]	@ movhi
 2597              	.L105:
 219:Drivers/lvgl/lvgl/src/extra/themes/default/lv_theme_default.c **** 
 2598              		.loc 1 219 0
 2599 0046 B94B     		ldr	r3, .L807
 2600 0048 1B6A     		ldr	r3, [r3, #32]
 2601 004a 13F0010F 		tst	r3, #1
 2602 004e 01F01486 		beq	.L106
 2603              	.LVL344:
 2604 0052 42F68612 		movw	r2, #10630
 2605 0056 B94B     		ldr	r3, .L807+16
 2606 0058 1A80     		strh	r2, [r3]	@ movhi
 2607              	.L107:
 221:Drivers/lvgl/lvgl/src/extra/themes/default/lv_theme_default.c ****     style_init_reset(&styles->transition_normal);
 2608              		.loc 1 221 0
 2609 005a B94C     		ldr	r4, .L807+20
 2610 005c 2068     		ldr	r0, [r4]
 2611 005e D030     		adds	r0, r0, #208
 2612 0060 FFF7FEFF 		bl	style_init_reset
 2613              	.LVL345:
 222:Drivers/lvgl/lvgl/src/extra/themes/default/lv_theme_default.c **** #if TRANSITION_TIME
 2614              		.loc 1 222 0
 2615 0064 2068     		ldr	r0, [r4]
 2616 0066 D830     		adds	r0, r0, #216
 2617 0068 FFF7FEFF 		bl	style_init_reset
 2618              	.LVL346:
 225:Drivers/lvgl/lvgl/src/extra/themes/default/lv_theme_default.c **** 
 2619              		.loc 1 225 0
 2620 006c DFF8E092 		ldr	r9, .L807+36
 2621 0070 DFF8E082 		ldr	r8, .L807+40
 2622 0074 B34F     		ldr	r7, .L807+24
 2623 0076 0025     		movs	r5, #0
 2624 0078 0195     		str	r5, [sp, #4]
 2625 007a 4623     		movs	r3, #70
ARM GAS  /tmp/cc6wDDAF.s 			page 81


 2626 007c 0093     		str	r3, [sp]
 2627 007e 5023     		movs	r3, #80
 2628 0080 4A46     		mov	r2, r9
 2629 0082 4146     		mov	r1, r8
 2630 0084 3846     		mov	r0, r7
 2631 0086 FFF7FEFF 		bl	lv_style_transition_dsc_init
 2632              	.LVL347:
 228:Drivers/lvgl/lvgl/src/extra/themes/default/lv_theme_default.c **** 
 2633              		.loc 1 228 0
 2634 008a AF4E     		ldr	r6, .L807+28
 2635 008c 0195     		str	r5, [sp, #4]
 2636 008e 0095     		str	r5, [sp]
 2637 0090 5023     		movs	r3, #80
 2638 0092 4A46     		mov	r2, r9
 2639 0094 4146     		mov	r1, r8
 2640 0096 3046     		mov	r0, r6
 2641 0098 FFF7FEFF 		bl	lv_style_transition_dsc_init
 2642              	.LVL348:
 230:Drivers/lvgl/lvgl/src/extra/themes/default/lv_theme_default.c **** 
 2643              		.loc 1 230 0
 2644 009c 2068     		ldr	r0, [r4]
 2645 009e 3946     		mov	r1, r7
 2646 00a0 D030     		adds	r0, r0, #208
 2647 00a2 FFF7FEFF 		bl	lv_style_set_transition
 2648              	.LVL349:
 232:Drivers/lvgl/lvgl/src/extra/themes/default/lv_theme_default.c **** #endif
 2649              		.loc 1 232 0
 2650 00a6 2068     		ldr	r0, [r4]
 2651 00a8 3146     		mov	r1, r6
 2652 00aa D830     		adds	r0, r0, #216
 2653 00ac FFF7FEFF 		bl	lv_style_set_transition
 2654              	.LVL350:
 235:Drivers/lvgl/lvgl/src/extra/themes/default/lv_theme_default.c ****     lv_color_t sb_color = (theme.flags & MODE_DARK) ? lv_palette_darken(LV_PALETTE_GREY,
 2655              		.loc 1 235 0
 2656 00b0 2068     		ldr	r0, [r4]
 2657 00b2 0830     		adds	r0, r0, #8
 2658 00b4 FFF7FEFF 		bl	style_init_reset
 2659              	.LVL351:
 236:Drivers/lvgl/lvgl/src/extra/themes/default/lv_theme_default.c ****                                                                         2) : lv_palette_main(LV_PAL
 2660              		.loc 1 236 0
 2661 00b8 9C4B     		ldr	r3, .L807
 2662 00ba 1B6A     		ldr	r3, [r3, #32]
 2663 00bc 13F0010F 		tst	r3, #1
 2664 00c0 01F0E385 		beq	.L108
 236:Drivers/lvgl/lvgl/src/extra/themes/default/lv_theme_default.c ****                                                                         2) : lv_palette_main(LV_PAL
 2665              		.loc 1 236 0 is_stmt 0 discriminator 1
 2666 00c4 0221     		movs	r1, #2
 2667 00c6 1220     		movs	r0, #18
 2668 00c8 FFF7FEFF 		bl	lv_palette_darken
 2669              	.LVL352:
 2670 00cc 0146     		mov	r1, r0	@ movhi
 2671              	.LVL353:
 2672              	.L109:
 238:Drivers/lvgl/lvgl/src/extra/themes/default/lv_theme_default.c **** 
 2673              		.loc 1 238 0 is_stmt 1
 2674 00ce 9C4C     		ldr	r4, .L807+20
 2675 00d0 2068     		ldr	r0, [r4]
ARM GAS  /tmp/cc6wDDAF.s 			page 82


 2676 00d2 0830     		adds	r0, r0, #8
 2677 00d4 FFF7FEFF 		bl	lv_style_set_bg_color
 2678              	.LVL354:
 240:Drivers/lvgl/lvgl/src/extra/themes/default/lv_theme_default.c ****     lv_style_set_pad_all(&styles->scrollbar, lv_disp_dpx(theme.disp, 7));
 2679              		.loc 1 240 0
 2680 00d8 2068     		ldr	r0, [r4]
 2681 00da 47F6FF71 		movw	r1, #32767
 2682 00de 0830     		adds	r0, r0, #8
 2683 00e0 FFF7FEFF 		bl	lv_style_set_radius
 2684              	.LVL355:
 241:Drivers/lvgl/lvgl/src/extra/themes/default/lv_theme_default.c ****     lv_style_set_width(&styles->scrollbar,  lv_disp_dpx(theme.disp, 5));
 2685              		.loc 1 241 0
 2686 00e4 2568     		ldr	r5, [r4]
 2687 00e6 0835     		adds	r5, r5, #8
 2688 00e8 904B     		ldr	r3, .L807
 2689 00ea DC68     		ldr	r4, [r3, #12]
 2690              	.LVL356:
 2691              	.LBB545:
 2692              	.LBB546:
 2693              		.file 3 "Drivers/lvgl/lvgl/src/extra/themes/default/../../../../src/core/lv_disp.h"
   1:Drivers/lvgl/lvgl/src/extra/themes/default/../../../../src/core/lv_disp.h **** /**
   2:Drivers/lvgl/lvgl/src/extra/themes/default/../../../../src/core/lv_disp.h ****  * @file lv_disp.h
   3:Drivers/lvgl/lvgl/src/extra/themes/default/../../../../src/core/lv_disp.h ****  *
   4:Drivers/lvgl/lvgl/src/extra/themes/default/../../../../src/core/lv_disp.h ****  */
   5:Drivers/lvgl/lvgl/src/extra/themes/default/../../../../src/core/lv_disp.h **** 
   6:Drivers/lvgl/lvgl/src/extra/themes/default/../../../../src/core/lv_disp.h **** #ifndef LV_DISP_H
   7:Drivers/lvgl/lvgl/src/extra/themes/default/../../../../src/core/lv_disp.h **** #define LV_DISP_H
   8:Drivers/lvgl/lvgl/src/extra/themes/default/../../../../src/core/lv_disp.h **** 
   9:Drivers/lvgl/lvgl/src/extra/themes/default/../../../../src/core/lv_disp.h **** #ifdef __cplusplus
  10:Drivers/lvgl/lvgl/src/extra/themes/default/../../../../src/core/lv_disp.h **** extern "C" {
  11:Drivers/lvgl/lvgl/src/extra/themes/default/../../../../src/core/lv_disp.h **** #endif
  12:Drivers/lvgl/lvgl/src/extra/themes/default/../../../../src/core/lv_disp.h **** 
  13:Drivers/lvgl/lvgl/src/extra/themes/default/../../../../src/core/lv_disp.h **** /*********************
  14:Drivers/lvgl/lvgl/src/extra/themes/default/../../../../src/core/lv_disp.h ****  *      INCLUDES
  15:Drivers/lvgl/lvgl/src/extra/themes/default/../../../../src/core/lv_disp.h ****  *********************/
  16:Drivers/lvgl/lvgl/src/extra/themes/default/../../../../src/core/lv_disp.h **** #include "../hal/lv_hal.h"
  17:Drivers/lvgl/lvgl/src/extra/themes/default/../../../../src/core/lv_disp.h **** #include "lv_obj.h"
  18:Drivers/lvgl/lvgl/src/extra/themes/default/../../../../src/core/lv_disp.h **** #include "lv_theme.h"
  19:Drivers/lvgl/lvgl/src/extra/themes/default/../../../../src/core/lv_disp.h **** 
  20:Drivers/lvgl/lvgl/src/extra/themes/default/../../../../src/core/lv_disp.h **** /*********************
  21:Drivers/lvgl/lvgl/src/extra/themes/default/../../../../src/core/lv_disp.h ****  *      DEFINES
  22:Drivers/lvgl/lvgl/src/extra/themes/default/../../../../src/core/lv_disp.h ****  *********************/
  23:Drivers/lvgl/lvgl/src/extra/themes/default/../../../../src/core/lv_disp.h **** 
  24:Drivers/lvgl/lvgl/src/extra/themes/default/../../../../src/core/lv_disp.h **** /**********************
  25:Drivers/lvgl/lvgl/src/extra/themes/default/../../../../src/core/lv_disp.h ****  *      TYPEDEFS
  26:Drivers/lvgl/lvgl/src/extra/themes/default/../../../../src/core/lv_disp.h ****  **********************/
  27:Drivers/lvgl/lvgl/src/extra/themes/default/../../../../src/core/lv_disp.h **** 
  28:Drivers/lvgl/lvgl/src/extra/themes/default/../../../../src/core/lv_disp.h **** typedef enum {
  29:Drivers/lvgl/lvgl/src/extra/themes/default/../../../../src/core/lv_disp.h ****     LV_SCR_LOAD_ANIM_NONE,
  30:Drivers/lvgl/lvgl/src/extra/themes/default/../../../../src/core/lv_disp.h ****     LV_SCR_LOAD_ANIM_OVER_LEFT,
  31:Drivers/lvgl/lvgl/src/extra/themes/default/../../../../src/core/lv_disp.h ****     LV_SCR_LOAD_ANIM_OVER_RIGHT,
  32:Drivers/lvgl/lvgl/src/extra/themes/default/../../../../src/core/lv_disp.h ****     LV_SCR_LOAD_ANIM_OVER_TOP,
  33:Drivers/lvgl/lvgl/src/extra/themes/default/../../../../src/core/lv_disp.h ****     LV_SCR_LOAD_ANIM_OVER_BOTTOM,
  34:Drivers/lvgl/lvgl/src/extra/themes/default/../../../../src/core/lv_disp.h ****     LV_SCR_LOAD_ANIM_MOVE_LEFT,
  35:Drivers/lvgl/lvgl/src/extra/themes/default/../../../../src/core/lv_disp.h ****     LV_SCR_LOAD_ANIM_MOVE_RIGHT,
  36:Drivers/lvgl/lvgl/src/extra/themes/default/../../../../src/core/lv_disp.h ****     LV_SCR_LOAD_ANIM_MOVE_TOP,
  37:Drivers/lvgl/lvgl/src/extra/themes/default/../../../../src/core/lv_disp.h ****     LV_SCR_LOAD_ANIM_MOVE_BOTTOM,
ARM GAS  /tmp/cc6wDDAF.s 			page 83


  38:Drivers/lvgl/lvgl/src/extra/themes/default/../../../../src/core/lv_disp.h ****     LV_SCR_LOAD_ANIM_FADE_IN,
  39:Drivers/lvgl/lvgl/src/extra/themes/default/../../../../src/core/lv_disp.h ****     LV_SCR_LOAD_ANIM_FADE_ON = LV_SCR_LOAD_ANIM_FADE_IN, /*For backward compatibility*/
  40:Drivers/lvgl/lvgl/src/extra/themes/default/../../../../src/core/lv_disp.h ****     LV_SCR_LOAD_ANIM_FADE_OUT,
  41:Drivers/lvgl/lvgl/src/extra/themes/default/../../../../src/core/lv_disp.h ****     LV_SCR_LOAD_ANIM_OUT_LEFT,
  42:Drivers/lvgl/lvgl/src/extra/themes/default/../../../../src/core/lv_disp.h ****     LV_SCR_LOAD_ANIM_OUT_RIGHT,
  43:Drivers/lvgl/lvgl/src/extra/themes/default/../../../../src/core/lv_disp.h ****     LV_SCR_LOAD_ANIM_OUT_TOP,
  44:Drivers/lvgl/lvgl/src/extra/themes/default/../../../../src/core/lv_disp.h ****     LV_SCR_LOAD_ANIM_OUT_BOTTOM,
  45:Drivers/lvgl/lvgl/src/extra/themes/default/../../../../src/core/lv_disp.h **** } lv_scr_load_anim_t;
  46:Drivers/lvgl/lvgl/src/extra/themes/default/../../../../src/core/lv_disp.h **** 
  47:Drivers/lvgl/lvgl/src/extra/themes/default/../../../../src/core/lv_disp.h **** /**********************
  48:Drivers/lvgl/lvgl/src/extra/themes/default/../../../../src/core/lv_disp.h ****  * GLOBAL PROTOTYPES
  49:Drivers/lvgl/lvgl/src/extra/themes/default/../../../../src/core/lv_disp.h ****  **********************/
  50:Drivers/lvgl/lvgl/src/extra/themes/default/../../../../src/core/lv_disp.h **** 
  51:Drivers/lvgl/lvgl/src/extra/themes/default/../../../../src/core/lv_disp.h **** /**
  52:Drivers/lvgl/lvgl/src/extra/themes/default/../../../../src/core/lv_disp.h ****  * Return with a pointer to the active screen
  53:Drivers/lvgl/lvgl/src/extra/themes/default/../../../../src/core/lv_disp.h ****  * @param disp pointer to display which active screen should be get. (NULL to use the default
  54:Drivers/lvgl/lvgl/src/extra/themes/default/../../../../src/core/lv_disp.h ****  * screen)
  55:Drivers/lvgl/lvgl/src/extra/themes/default/../../../../src/core/lv_disp.h ****  * @return pointer to the active screen object (loaded by 'lv_scr_load()')
  56:Drivers/lvgl/lvgl/src/extra/themes/default/../../../../src/core/lv_disp.h ****  */
  57:Drivers/lvgl/lvgl/src/extra/themes/default/../../../../src/core/lv_disp.h **** lv_obj_t * lv_disp_get_scr_act(lv_disp_t * disp);
  58:Drivers/lvgl/lvgl/src/extra/themes/default/../../../../src/core/lv_disp.h **** 
  59:Drivers/lvgl/lvgl/src/extra/themes/default/../../../../src/core/lv_disp.h **** /**
  60:Drivers/lvgl/lvgl/src/extra/themes/default/../../../../src/core/lv_disp.h ****  * Return with a pointer to the previous screen. Only used during screen transitions.
  61:Drivers/lvgl/lvgl/src/extra/themes/default/../../../../src/core/lv_disp.h ****  * @param disp pointer to display which previous screen should be get. (NULL to use the default
  62:Drivers/lvgl/lvgl/src/extra/themes/default/../../../../src/core/lv_disp.h ****  * screen)
  63:Drivers/lvgl/lvgl/src/extra/themes/default/../../../../src/core/lv_disp.h ****  * @return pointer to the previous screen object or NULL if not used now
  64:Drivers/lvgl/lvgl/src/extra/themes/default/../../../../src/core/lv_disp.h ****  */
  65:Drivers/lvgl/lvgl/src/extra/themes/default/../../../../src/core/lv_disp.h **** lv_obj_t * lv_disp_get_scr_prev(lv_disp_t * disp);
  66:Drivers/lvgl/lvgl/src/extra/themes/default/../../../../src/core/lv_disp.h **** 
  67:Drivers/lvgl/lvgl/src/extra/themes/default/../../../../src/core/lv_disp.h **** /**
  68:Drivers/lvgl/lvgl/src/extra/themes/default/../../../../src/core/lv_disp.h ****  * Make a screen active
  69:Drivers/lvgl/lvgl/src/extra/themes/default/../../../../src/core/lv_disp.h ****  * @param scr pointer to a screen
  70:Drivers/lvgl/lvgl/src/extra/themes/default/../../../../src/core/lv_disp.h ****  */
  71:Drivers/lvgl/lvgl/src/extra/themes/default/../../../../src/core/lv_disp.h **** void lv_disp_load_scr(lv_obj_t * scr);
  72:Drivers/lvgl/lvgl/src/extra/themes/default/../../../../src/core/lv_disp.h **** 
  73:Drivers/lvgl/lvgl/src/extra/themes/default/../../../../src/core/lv_disp.h **** /**
  74:Drivers/lvgl/lvgl/src/extra/themes/default/../../../../src/core/lv_disp.h ****  * Return with the top layer. (Same on every screen and it is above the normal screen layer)
  75:Drivers/lvgl/lvgl/src/extra/themes/default/../../../../src/core/lv_disp.h ****  * @param disp pointer to display which top layer should be get. (NULL to use the default screen)
  76:Drivers/lvgl/lvgl/src/extra/themes/default/../../../../src/core/lv_disp.h ****  * @return pointer to the top layer object (transparent screen sized lv_obj)
  77:Drivers/lvgl/lvgl/src/extra/themes/default/../../../../src/core/lv_disp.h ****  */
  78:Drivers/lvgl/lvgl/src/extra/themes/default/../../../../src/core/lv_disp.h **** lv_obj_t * lv_disp_get_layer_top(lv_disp_t * disp);
  79:Drivers/lvgl/lvgl/src/extra/themes/default/../../../../src/core/lv_disp.h **** 
  80:Drivers/lvgl/lvgl/src/extra/themes/default/../../../../src/core/lv_disp.h **** /**
  81:Drivers/lvgl/lvgl/src/extra/themes/default/../../../../src/core/lv_disp.h ****  * Return with the sys. layer. (Same on every screen and it is above the normal screen and the top
  82:Drivers/lvgl/lvgl/src/extra/themes/default/../../../../src/core/lv_disp.h ****  * layer)
  83:Drivers/lvgl/lvgl/src/extra/themes/default/../../../../src/core/lv_disp.h ****  * @param disp pointer to display which sys. layer should be retrieved. (NULL to use the default sc
  84:Drivers/lvgl/lvgl/src/extra/themes/default/../../../../src/core/lv_disp.h ****  * @return pointer to the sys layer object (transparent screen sized lv_obj)
  85:Drivers/lvgl/lvgl/src/extra/themes/default/../../../../src/core/lv_disp.h ****  */
  86:Drivers/lvgl/lvgl/src/extra/themes/default/../../../../src/core/lv_disp.h **** lv_obj_t * lv_disp_get_layer_sys(lv_disp_t * disp);
  87:Drivers/lvgl/lvgl/src/extra/themes/default/../../../../src/core/lv_disp.h **** 
  88:Drivers/lvgl/lvgl/src/extra/themes/default/../../../../src/core/lv_disp.h **** /**
  89:Drivers/lvgl/lvgl/src/extra/themes/default/../../../../src/core/lv_disp.h ****  * Set the theme of a display
  90:Drivers/lvgl/lvgl/src/extra/themes/default/../../../../src/core/lv_disp.h ****  * @param disp pointer to a display
  91:Drivers/lvgl/lvgl/src/extra/themes/default/../../../../src/core/lv_disp.h ****  */
  92:Drivers/lvgl/lvgl/src/extra/themes/default/../../../../src/core/lv_disp.h **** void lv_disp_set_theme(lv_disp_t * disp, lv_theme_t * th);
  93:Drivers/lvgl/lvgl/src/extra/themes/default/../../../../src/core/lv_disp.h **** 
  94:Drivers/lvgl/lvgl/src/extra/themes/default/../../../../src/core/lv_disp.h **** /**
ARM GAS  /tmp/cc6wDDAF.s 			page 84


  95:Drivers/lvgl/lvgl/src/extra/themes/default/../../../../src/core/lv_disp.h ****  * Get the theme of a display
  96:Drivers/lvgl/lvgl/src/extra/themes/default/../../../../src/core/lv_disp.h ****  * @param disp pointer to a display
  97:Drivers/lvgl/lvgl/src/extra/themes/default/../../../../src/core/lv_disp.h ****  * @return the display's theme (can be NULL)
  98:Drivers/lvgl/lvgl/src/extra/themes/default/../../../../src/core/lv_disp.h ****  */
  99:Drivers/lvgl/lvgl/src/extra/themes/default/../../../../src/core/lv_disp.h **** lv_theme_t * lv_disp_get_theme(lv_disp_t * disp);
 100:Drivers/lvgl/lvgl/src/extra/themes/default/../../../../src/core/lv_disp.h **** 
 101:Drivers/lvgl/lvgl/src/extra/themes/default/../../../../src/core/lv_disp.h **** /**
 102:Drivers/lvgl/lvgl/src/extra/themes/default/../../../../src/core/lv_disp.h ****  * Set the background color of a display
 103:Drivers/lvgl/lvgl/src/extra/themes/default/../../../../src/core/lv_disp.h ****  * @param disp pointer to a display
 104:Drivers/lvgl/lvgl/src/extra/themes/default/../../../../src/core/lv_disp.h ****  * @param color color of the background
 105:Drivers/lvgl/lvgl/src/extra/themes/default/../../../../src/core/lv_disp.h ****  */
 106:Drivers/lvgl/lvgl/src/extra/themes/default/../../../../src/core/lv_disp.h **** void lv_disp_set_bg_color(lv_disp_t * disp, lv_color_t color);
 107:Drivers/lvgl/lvgl/src/extra/themes/default/../../../../src/core/lv_disp.h **** 
 108:Drivers/lvgl/lvgl/src/extra/themes/default/../../../../src/core/lv_disp.h **** /**
 109:Drivers/lvgl/lvgl/src/extra/themes/default/../../../../src/core/lv_disp.h ****  * Set the background image of a display
 110:Drivers/lvgl/lvgl/src/extra/themes/default/../../../../src/core/lv_disp.h ****  * @param disp pointer to a display
 111:Drivers/lvgl/lvgl/src/extra/themes/default/../../../../src/core/lv_disp.h ****  * @param img_src path to file or pointer to an `lv_img_dsc_t` variable
 112:Drivers/lvgl/lvgl/src/extra/themes/default/../../../../src/core/lv_disp.h ****  */
 113:Drivers/lvgl/lvgl/src/extra/themes/default/../../../../src/core/lv_disp.h **** void lv_disp_set_bg_image(lv_disp_t * disp, const void  * img_src);
 114:Drivers/lvgl/lvgl/src/extra/themes/default/../../../../src/core/lv_disp.h **** 
 115:Drivers/lvgl/lvgl/src/extra/themes/default/../../../../src/core/lv_disp.h **** /**
 116:Drivers/lvgl/lvgl/src/extra/themes/default/../../../../src/core/lv_disp.h ****  * Set opacity of the background
 117:Drivers/lvgl/lvgl/src/extra/themes/default/../../../../src/core/lv_disp.h ****  * @param disp pointer to a display
 118:Drivers/lvgl/lvgl/src/extra/themes/default/../../../../src/core/lv_disp.h ****  * @param opa opacity (0..255)
 119:Drivers/lvgl/lvgl/src/extra/themes/default/../../../../src/core/lv_disp.h ****  */
 120:Drivers/lvgl/lvgl/src/extra/themes/default/../../../../src/core/lv_disp.h **** void lv_disp_set_bg_opa(lv_disp_t * disp, lv_opa_t opa);
 121:Drivers/lvgl/lvgl/src/extra/themes/default/../../../../src/core/lv_disp.h **** 
 122:Drivers/lvgl/lvgl/src/extra/themes/default/../../../../src/core/lv_disp.h **** /**
 123:Drivers/lvgl/lvgl/src/extra/themes/default/../../../../src/core/lv_disp.h ****  * Switch screen with animation
 124:Drivers/lvgl/lvgl/src/extra/themes/default/../../../../src/core/lv_disp.h ****  * @param scr pointer to the new screen to load
 125:Drivers/lvgl/lvgl/src/extra/themes/default/../../../../src/core/lv_disp.h ****  * @param anim_type type of the animation from `lv_scr_load_anim_t`, e.g. `LV_SCR_LOAD_ANIM_MOVE_LE
 126:Drivers/lvgl/lvgl/src/extra/themes/default/../../../../src/core/lv_disp.h ****  * @param time time of the animation
 127:Drivers/lvgl/lvgl/src/extra/themes/default/../../../../src/core/lv_disp.h ****  * @param delay delay before the transition
 128:Drivers/lvgl/lvgl/src/extra/themes/default/../../../../src/core/lv_disp.h ****  * @param auto_del true: automatically delete the old screen
 129:Drivers/lvgl/lvgl/src/extra/themes/default/../../../../src/core/lv_disp.h ****  */
 130:Drivers/lvgl/lvgl/src/extra/themes/default/../../../../src/core/lv_disp.h **** void lv_scr_load_anim(lv_obj_t * scr, lv_scr_load_anim_t anim_type, uint32_t time, uint32_t delay, 
 131:Drivers/lvgl/lvgl/src/extra/themes/default/../../../../src/core/lv_disp.h **** 
 132:Drivers/lvgl/lvgl/src/extra/themes/default/../../../../src/core/lv_disp.h **** /**
 133:Drivers/lvgl/lvgl/src/extra/themes/default/../../../../src/core/lv_disp.h ****  * Get elapsed time since last user activity on a display (e.g. click)
 134:Drivers/lvgl/lvgl/src/extra/themes/default/../../../../src/core/lv_disp.h ****  * @param disp pointer to a display (NULL to get the overall smallest inactivity)
 135:Drivers/lvgl/lvgl/src/extra/themes/default/../../../../src/core/lv_disp.h ****  * @return elapsed ticks (milliseconds) since the last activity
 136:Drivers/lvgl/lvgl/src/extra/themes/default/../../../../src/core/lv_disp.h ****  */
 137:Drivers/lvgl/lvgl/src/extra/themes/default/../../../../src/core/lv_disp.h **** uint32_t lv_disp_get_inactive_time(const lv_disp_t * disp);
 138:Drivers/lvgl/lvgl/src/extra/themes/default/../../../../src/core/lv_disp.h **** 
 139:Drivers/lvgl/lvgl/src/extra/themes/default/../../../../src/core/lv_disp.h **** /**
 140:Drivers/lvgl/lvgl/src/extra/themes/default/../../../../src/core/lv_disp.h ****  * Manually trigger an activity on a display
 141:Drivers/lvgl/lvgl/src/extra/themes/default/../../../../src/core/lv_disp.h ****  * @param disp pointer to a display (NULL to use the default display)
 142:Drivers/lvgl/lvgl/src/extra/themes/default/../../../../src/core/lv_disp.h ****  */
 143:Drivers/lvgl/lvgl/src/extra/themes/default/../../../../src/core/lv_disp.h **** void lv_disp_trig_activity(lv_disp_t * disp);
 144:Drivers/lvgl/lvgl/src/extra/themes/default/../../../../src/core/lv_disp.h **** 
 145:Drivers/lvgl/lvgl/src/extra/themes/default/../../../../src/core/lv_disp.h **** /**
 146:Drivers/lvgl/lvgl/src/extra/themes/default/../../../../src/core/lv_disp.h ****  * Clean any CPU cache that is related to the display.
 147:Drivers/lvgl/lvgl/src/extra/themes/default/../../../../src/core/lv_disp.h ****  * @param disp pointer to a display (NULL to use the default display)
 148:Drivers/lvgl/lvgl/src/extra/themes/default/../../../../src/core/lv_disp.h ****  */
 149:Drivers/lvgl/lvgl/src/extra/themes/default/../../../../src/core/lv_disp.h **** void lv_disp_clean_dcache(lv_disp_t * disp);
 150:Drivers/lvgl/lvgl/src/extra/themes/default/../../../../src/core/lv_disp.h **** 
 151:Drivers/lvgl/lvgl/src/extra/themes/default/../../../../src/core/lv_disp.h **** /**
ARM GAS  /tmp/cc6wDDAF.s 			page 85


 152:Drivers/lvgl/lvgl/src/extra/themes/default/../../../../src/core/lv_disp.h ****  * Temporarily enable and disable the invalidation of the display.
 153:Drivers/lvgl/lvgl/src/extra/themes/default/../../../../src/core/lv_disp.h ****  * @param disp pointer to a display (NULL to use the default display)
 154:Drivers/lvgl/lvgl/src/extra/themes/default/../../../../src/core/lv_disp.h ****  * @param en true: enable invalidation; false: invalidation
 155:Drivers/lvgl/lvgl/src/extra/themes/default/../../../../src/core/lv_disp.h ****  */
 156:Drivers/lvgl/lvgl/src/extra/themes/default/../../../../src/core/lv_disp.h **** void lv_disp_enable_invalidation(lv_disp_t * disp, bool en);
 157:Drivers/lvgl/lvgl/src/extra/themes/default/../../../../src/core/lv_disp.h **** 
 158:Drivers/lvgl/lvgl/src/extra/themes/default/../../../../src/core/lv_disp.h **** /**
 159:Drivers/lvgl/lvgl/src/extra/themes/default/../../../../src/core/lv_disp.h ****  * Get display invalidation is enabled.
 160:Drivers/lvgl/lvgl/src/extra/themes/default/../../../../src/core/lv_disp.h ****  * @param disp pointer to a display (NULL to use the default display)
 161:Drivers/lvgl/lvgl/src/extra/themes/default/../../../../src/core/lv_disp.h ****  * @return return true if invalidation is enabled
 162:Drivers/lvgl/lvgl/src/extra/themes/default/../../../../src/core/lv_disp.h ****  */
 163:Drivers/lvgl/lvgl/src/extra/themes/default/../../../../src/core/lv_disp.h **** bool lv_disp_is_invalidation_enabled(lv_disp_t * disp);
 164:Drivers/lvgl/lvgl/src/extra/themes/default/../../../../src/core/lv_disp.h **** 
 165:Drivers/lvgl/lvgl/src/extra/themes/default/../../../../src/core/lv_disp.h **** /**
 166:Drivers/lvgl/lvgl/src/extra/themes/default/../../../../src/core/lv_disp.h ****  * Get a pointer to the screen refresher timer to
 167:Drivers/lvgl/lvgl/src/extra/themes/default/../../../../src/core/lv_disp.h ****  * modify its parameters with `lv_timer_...` functions.
 168:Drivers/lvgl/lvgl/src/extra/themes/default/../../../../src/core/lv_disp.h ****  * @param disp pointer to a display
 169:Drivers/lvgl/lvgl/src/extra/themes/default/../../../../src/core/lv_disp.h ****  * @return pointer to the display refresher timer. (NULL on error)
 170:Drivers/lvgl/lvgl/src/extra/themes/default/../../../../src/core/lv_disp.h ****  */
 171:Drivers/lvgl/lvgl/src/extra/themes/default/../../../../src/core/lv_disp.h **** lv_timer_t * _lv_disp_get_refr_timer(lv_disp_t * disp);
 172:Drivers/lvgl/lvgl/src/extra/themes/default/../../../../src/core/lv_disp.h **** 
 173:Drivers/lvgl/lvgl/src/extra/themes/default/../../../../src/core/lv_disp.h **** /*------------------------------------------------
 174:Drivers/lvgl/lvgl/src/extra/themes/default/../../../../src/core/lv_disp.h ****  * To improve backward compatibility
 175:Drivers/lvgl/lvgl/src/extra/themes/default/../../../../src/core/lv_disp.h ****  * Recommended only if you have one display
 176:Drivers/lvgl/lvgl/src/extra/themes/default/../../../../src/core/lv_disp.h ****  *------------------------------------------------*/
 177:Drivers/lvgl/lvgl/src/extra/themes/default/../../../../src/core/lv_disp.h **** 
 178:Drivers/lvgl/lvgl/src/extra/themes/default/../../../../src/core/lv_disp.h **** /**
 179:Drivers/lvgl/lvgl/src/extra/themes/default/../../../../src/core/lv_disp.h ****  * Get the active screen of the default display
 180:Drivers/lvgl/lvgl/src/extra/themes/default/../../../../src/core/lv_disp.h ****  * @return pointer to the active screen
 181:Drivers/lvgl/lvgl/src/extra/themes/default/../../../../src/core/lv_disp.h ****  */
 182:Drivers/lvgl/lvgl/src/extra/themes/default/../../../../src/core/lv_disp.h **** static inline lv_obj_t * lv_scr_act(void)
 183:Drivers/lvgl/lvgl/src/extra/themes/default/../../../../src/core/lv_disp.h **** {
 184:Drivers/lvgl/lvgl/src/extra/themes/default/../../../../src/core/lv_disp.h ****     return lv_disp_get_scr_act(lv_disp_get_default());
 185:Drivers/lvgl/lvgl/src/extra/themes/default/../../../../src/core/lv_disp.h **** }
 186:Drivers/lvgl/lvgl/src/extra/themes/default/../../../../src/core/lv_disp.h **** 
 187:Drivers/lvgl/lvgl/src/extra/themes/default/../../../../src/core/lv_disp.h **** /**
 188:Drivers/lvgl/lvgl/src/extra/themes/default/../../../../src/core/lv_disp.h ****  * Get the top layer  of the default display
 189:Drivers/lvgl/lvgl/src/extra/themes/default/../../../../src/core/lv_disp.h ****  * @return pointer to the top layer
 190:Drivers/lvgl/lvgl/src/extra/themes/default/../../../../src/core/lv_disp.h ****  */
 191:Drivers/lvgl/lvgl/src/extra/themes/default/../../../../src/core/lv_disp.h **** static inline lv_obj_t * lv_layer_top(void)
 192:Drivers/lvgl/lvgl/src/extra/themes/default/../../../../src/core/lv_disp.h **** {
 193:Drivers/lvgl/lvgl/src/extra/themes/default/../../../../src/core/lv_disp.h ****     return lv_disp_get_layer_top(lv_disp_get_default());
 194:Drivers/lvgl/lvgl/src/extra/themes/default/../../../../src/core/lv_disp.h **** }
 195:Drivers/lvgl/lvgl/src/extra/themes/default/../../../../src/core/lv_disp.h **** 
 196:Drivers/lvgl/lvgl/src/extra/themes/default/../../../../src/core/lv_disp.h **** /**
 197:Drivers/lvgl/lvgl/src/extra/themes/default/../../../../src/core/lv_disp.h ****  * Get the active screen of the default display
 198:Drivers/lvgl/lvgl/src/extra/themes/default/../../../../src/core/lv_disp.h ****  * @return  pointer to the sys layer
 199:Drivers/lvgl/lvgl/src/extra/themes/default/../../../../src/core/lv_disp.h ****  */
 200:Drivers/lvgl/lvgl/src/extra/themes/default/../../../../src/core/lv_disp.h **** static inline lv_obj_t * lv_layer_sys(void)
 201:Drivers/lvgl/lvgl/src/extra/themes/default/../../../../src/core/lv_disp.h **** {
 202:Drivers/lvgl/lvgl/src/extra/themes/default/../../../../src/core/lv_disp.h ****     return lv_disp_get_layer_sys(lv_disp_get_default());
 203:Drivers/lvgl/lvgl/src/extra/themes/default/../../../../src/core/lv_disp.h **** }
 204:Drivers/lvgl/lvgl/src/extra/themes/default/../../../../src/core/lv_disp.h **** 
 205:Drivers/lvgl/lvgl/src/extra/themes/default/../../../../src/core/lv_disp.h **** static inline void lv_scr_load(lv_obj_t * scr)
 206:Drivers/lvgl/lvgl/src/extra/themes/default/../../../../src/core/lv_disp.h **** {
 207:Drivers/lvgl/lvgl/src/extra/themes/default/../../../../src/core/lv_disp.h ****     lv_disp_load_scr(scr);
 208:Drivers/lvgl/lvgl/src/extra/themes/default/../../../../src/core/lv_disp.h **** }
ARM GAS  /tmp/cc6wDDAF.s 			page 86


 209:Drivers/lvgl/lvgl/src/extra/themes/default/../../../../src/core/lv_disp.h **** 
 210:Drivers/lvgl/lvgl/src/extra/themes/default/../../../../src/core/lv_disp.h **** /**********************
 211:Drivers/lvgl/lvgl/src/extra/themes/default/../../../../src/core/lv_disp.h ****  *      MACROS
 212:Drivers/lvgl/lvgl/src/extra/themes/default/../../../../src/core/lv_disp.h ****  **********************/
 213:Drivers/lvgl/lvgl/src/extra/themes/default/../../../../src/core/lv_disp.h **** 
 214:Drivers/lvgl/lvgl/src/extra/themes/default/../../../../src/core/lv_disp.h **** /*------------------------------------------------
 215:Drivers/lvgl/lvgl/src/extra/themes/default/../../../../src/core/lv_disp.h ****  * To improve backward compatibility
 216:Drivers/lvgl/lvgl/src/extra/themes/default/../../../../src/core/lv_disp.h ****  * Recommended only if you have one display
 217:Drivers/lvgl/lvgl/src/extra/themes/default/../../../../src/core/lv_disp.h ****  *------------------------------------------------*/
 218:Drivers/lvgl/lvgl/src/extra/themes/default/../../../../src/core/lv_disp.h **** 
 219:Drivers/lvgl/lvgl/src/extra/themes/default/../../../../src/core/lv_disp.h **** #ifndef LV_HOR_RES
 220:Drivers/lvgl/lvgl/src/extra/themes/default/../../../../src/core/lv_disp.h **** /**
 221:Drivers/lvgl/lvgl/src/extra/themes/default/../../../../src/core/lv_disp.h ****  * The horizontal resolution of the currently active display.
 222:Drivers/lvgl/lvgl/src/extra/themes/default/../../../../src/core/lv_disp.h ****  */
 223:Drivers/lvgl/lvgl/src/extra/themes/default/../../../../src/core/lv_disp.h **** #define LV_HOR_RES lv_disp_get_hor_res(lv_disp_get_default())
 224:Drivers/lvgl/lvgl/src/extra/themes/default/../../../../src/core/lv_disp.h **** #endif
 225:Drivers/lvgl/lvgl/src/extra/themes/default/../../../../src/core/lv_disp.h **** 
 226:Drivers/lvgl/lvgl/src/extra/themes/default/../../../../src/core/lv_disp.h **** #ifndef LV_VER_RES
 227:Drivers/lvgl/lvgl/src/extra/themes/default/../../../../src/core/lv_disp.h **** /**
 228:Drivers/lvgl/lvgl/src/extra/themes/default/../../../../src/core/lv_disp.h ****  * The vertical resolution of the currently active display.
 229:Drivers/lvgl/lvgl/src/extra/themes/default/../../../../src/core/lv_disp.h ****  */
 230:Drivers/lvgl/lvgl/src/extra/themes/default/../../../../src/core/lv_disp.h **** #define LV_VER_RES lv_disp_get_ver_res(lv_disp_get_default())
 231:Drivers/lvgl/lvgl/src/extra/themes/default/../../../../src/core/lv_disp.h **** #endif
 232:Drivers/lvgl/lvgl/src/extra/themes/default/../../../../src/core/lv_disp.h **** 
 233:Drivers/lvgl/lvgl/src/extra/themes/default/../../../../src/core/lv_disp.h **** /**
 234:Drivers/lvgl/lvgl/src/extra/themes/default/../../../../src/core/lv_disp.h ****  * Scale the given number of pixels (a distance or size) relative to a 160 DPI display
 235:Drivers/lvgl/lvgl/src/extra/themes/default/../../../../src/core/lv_disp.h ****  * considering the DPI of the default display.
 236:Drivers/lvgl/lvgl/src/extra/themes/default/../../../../src/core/lv_disp.h ****  * It ensures that e.g. `lv_dpx(100)` will have the same physical size regardless to the
 237:Drivers/lvgl/lvgl/src/extra/themes/default/../../../../src/core/lv_disp.h ****  * DPI of the display.
 238:Drivers/lvgl/lvgl/src/extra/themes/default/../../../../src/core/lv_disp.h ****  * @param n     the number of pixels to scale
 239:Drivers/lvgl/lvgl/src/extra/themes/default/../../../../src/core/lv_disp.h ****  * @return      `n x current_dpi/160`
 240:Drivers/lvgl/lvgl/src/extra/themes/default/../../../../src/core/lv_disp.h ****  */
 241:Drivers/lvgl/lvgl/src/extra/themes/default/../../../../src/core/lv_disp.h **** static inline lv_coord_t lv_dpx(lv_coord_t n)
 242:Drivers/lvgl/lvgl/src/extra/themes/default/../../../../src/core/lv_disp.h **** {
 243:Drivers/lvgl/lvgl/src/extra/themes/default/../../../../src/core/lv_disp.h ****     return LV_DPX(n);
 244:Drivers/lvgl/lvgl/src/extra/themes/default/../../../../src/core/lv_disp.h **** }
 245:Drivers/lvgl/lvgl/src/extra/themes/default/../../../../src/core/lv_disp.h **** 
 246:Drivers/lvgl/lvgl/src/extra/themes/default/../../../../src/core/lv_disp.h **** /**
 247:Drivers/lvgl/lvgl/src/extra/themes/default/../../../../src/core/lv_disp.h ****  * Scale the given number of pixels (a distance or size) relative to a 160 DPI display
 248:Drivers/lvgl/lvgl/src/extra/themes/default/../../../../src/core/lv_disp.h ****  * considering the DPI of the given display.
 249:Drivers/lvgl/lvgl/src/extra/themes/default/../../../../src/core/lv_disp.h ****  * It ensures that e.g. `lv_dpx(100)` will have the same physical size regardless to the
 250:Drivers/lvgl/lvgl/src/extra/themes/default/../../../../src/core/lv_disp.h ****  * DPI of the display.
 251:Drivers/lvgl/lvgl/src/extra/themes/default/../../../../src/core/lv_disp.h ****  * @param obj   a display whose dpi should be considered
 252:Drivers/lvgl/lvgl/src/extra/themes/default/../../../../src/core/lv_disp.h ****  * @param n     the number of pixels to scale
 253:Drivers/lvgl/lvgl/src/extra/themes/default/../../../../src/core/lv_disp.h ****  * @return      `n x current_dpi/160`
 254:Drivers/lvgl/lvgl/src/extra/themes/default/../../../../src/core/lv_disp.h ****  */
 255:Drivers/lvgl/lvgl/src/extra/themes/default/../../../../src/core/lv_disp.h **** static inline lv_coord_t lv_disp_dpx(const lv_disp_t * disp, lv_coord_t n)
 256:Drivers/lvgl/lvgl/src/extra/themes/default/../../../../src/core/lv_disp.h **** {
 257:Drivers/lvgl/lvgl/src/extra/themes/default/../../../../src/core/lv_disp.h ****     return _LV_DPX_CALC(lv_disp_get_dpi(disp), n);
 2694              		.loc 3 257 0
 2695 00ec 2046     		mov	r0, r4
 2696 00ee FFF7FEFF 		bl	lv_disp_get_dpi
 2697              	.LVL357:
 2698 00f2 C0EBC000 		rsb	r0, r0, r0, lsl #3
 2699 00f6 5030     		adds	r0, r0, #80
 2700 00f8 B0F5A07F 		cmp	r0, #320
 2701 00fc 81F2CB85 		bge	.L560
ARM GAS  /tmp/cc6wDDAF.s 			page 87


 2702 0100 0124     		movs	r4, #1
 2703              	.LVL358:
 2704              	.L110:
 2705              	.LBE546:
 2706              	.LBE545:
 2707              	.LBB548:
 2708              	.LBB549:
 2709              		.file 4 "Drivers/lvgl/lvgl/src/extra/themes/default/../../../../src/hal/../draw/../misc/lv_style.h
   1:Drivers/lvgl/lvgl/src/extra/themes/default/../../../../src/hal/../draw/../misc/lv_style.h **** /**
   2:Drivers/lvgl/lvgl/src/extra/themes/default/../../../../src/hal/../draw/../misc/lv_style.h ****  * @file lv_style.h
   3:Drivers/lvgl/lvgl/src/extra/themes/default/../../../../src/hal/../draw/../misc/lv_style.h ****  *
   4:Drivers/lvgl/lvgl/src/extra/themes/default/../../../../src/hal/../draw/../misc/lv_style.h ****  */
   5:Drivers/lvgl/lvgl/src/extra/themes/default/../../../../src/hal/../draw/../misc/lv_style.h **** 
   6:Drivers/lvgl/lvgl/src/extra/themes/default/../../../../src/hal/../draw/../misc/lv_style.h **** #ifndef LV_STYLE_H
   7:Drivers/lvgl/lvgl/src/extra/themes/default/../../../../src/hal/../draw/../misc/lv_style.h **** #define LV_STYLE_H
   8:Drivers/lvgl/lvgl/src/extra/themes/default/../../../../src/hal/../draw/../misc/lv_style.h **** 
   9:Drivers/lvgl/lvgl/src/extra/themes/default/../../../../src/hal/../draw/../misc/lv_style.h **** #ifdef __cplusplus
  10:Drivers/lvgl/lvgl/src/extra/themes/default/../../../../src/hal/../draw/../misc/lv_style.h **** extern "C" {
  11:Drivers/lvgl/lvgl/src/extra/themes/default/../../../../src/hal/../draw/../misc/lv_style.h **** #endif
  12:Drivers/lvgl/lvgl/src/extra/themes/default/../../../../src/hal/../draw/../misc/lv_style.h **** 
  13:Drivers/lvgl/lvgl/src/extra/themes/default/../../../../src/hal/../draw/../misc/lv_style.h **** /*********************
  14:Drivers/lvgl/lvgl/src/extra/themes/default/../../../../src/hal/../draw/../misc/lv_style.h ****  *      INCLUDES
  15:Drivers/lvgl/lvgl/src/extra/themes/default/../../../../src/hal/../draw/../misc/lv_style.h ****  *********************/
  16:Drivers/lvgl/lvgl/src/extra/themes/default/../../../../src/hal/../draw/../misc/lv_style.h **** #include <stdbool.h>
  17:Drivers/lvgl/lvgl/src/extra/themes/default/../../../../src/hal/../draw/../misc/lv_style.h **** #include <stdint.h>
  18:Drivers/lvgl/lvgl/src/extra/themes/default/../../../../src/hal/../draw/../misc/lv_style.h **** #include "../font/lv_font.h"
  19:Drivers/lvgl/lvgl/src/extra/themes/default/../../../../src/hal/../draw/../misc/lv_style.h **** #include "lv_color.h"
  20:Drivers/lvgl/lvgl/src/extra/themes/default/../../../../src/hal/../draw/../misc/lv_style.h **** #include "lv_area.h"
  21:Drivers/lvgl/lvgl/src/extra/themes/default/../../../../src/hal/../draw/../misc/lv_style.h **** #include "lv_anim.h"
  22:Drivers/lvgl/lvgl/src/extra/themes/default/../../../../src/hal/../draw/../misc/lv_style.h **** #include "lv_txt.h"
  23:Drivers/lvgl/lvgl/src/extra/themes/default/../../../../src/hal/../draw/../misc/lv_style.h **** #include "lv_types.h"
  24:Drivers/lvgl/lvgl/src/extra/themes/default/../../../../src/hal/../draw/../misc/lv_style.h **** #include "lv_assert.h"
  25:Drivers/lvgl/lvgl/src/extra/themes/default/../../../../src/hal/../draw/../misc/lv_style.h **** #include "lv_bidi.h"
  26:Drivers/lvgl/lvgl/src/extra/themes/default/../../../../src/hal/../draw/../misc/lv_style.h **** 
  27:Drivers/lvgl/lvgl/src/extra/themes/default/../../../../src/hal/../draw/../misc/lv_style.h **** /*********************
  28:Drivers/lvgl/lvgl/src/extra/themes/default/../../../../src/hal/../draw/../misc/lv_style.h ****  *      DEFINES
  29:Drivers/lvgl/lvgl/src/extra/themes/default/../../../../src/hal/../draw/../misc/lv_style.h ****  *********************/
  30:Drivers/lvgl/lvgl/src/extra/themes/default/../../../../src/hal/../draw/../misc/lv_style.h **** 
  31:Drivers/lvgl/lvgl/src/extra/themes/default/../../../../src/hal/../draw/../misc/lv_style.h **** #define LV_STYLE_SENTINEL_VALUE     0xAABBCCDD
  32:Drivers/lvgl/lvgl/src/extra/themes/default/../../../../src/hal/../draw/../misc/lv_style.h **** 
  33:Drivers/lvgl/lvgl/src/extra/themes/default/../../../../src/hal/../draw/../misc/lv_style.h **** /**
  34:Drivers/lvgl/lvgl/src/extra/themes/default/../../../../src/hal/../draw/../misc/lv_style.h ****  * Flags for style behavior
  35:Drivers/lvgl/lvgl/src/extra/themes/default/../../../../src/hal/../draw/../misc/lv_style.h ****  *
  36:Drivers/lvgl/lvgl/src/extra/themes/default/../../../../src/hal/../draw/../misc/lv_style.h ****  * The rest of the flags will have _FLAG added to their name in v9.
  37:Drivers/lvgl/lvgl/src/extra/themes/default/../../../../src/hal/../draw/../misc/lv_style.h ****  */
  38:Drivers/lvgl/lvgl/src/extra/themes/default/../../../../src/hal/../draw/../misc/lv_style.h **** #define LV_STYLE_PROP_FLAG_NONE             (0)
  39:Drivers/lvgl/lvgl/src/extra/themes/default/../../../../src/hal/../draw/../misc/lv_style.h **** #define LV_STYLE_PROP_INHERIT               (1 << 0)  /*Inherited*/
  40:Drivers/lvgl/lvgl/src/extra/themes/default/../../../../src/hal/../draw/../misc/lv_style.h **** #define LV_STYLE_PROP_EXT_DRAW              (1 << 1)  /*Requires ext. draw size update when changed
  41:Drivers/lvgl/lvgl/src/extra/themes/default/../../../../src/hal/../draw/../misc/lv_style.h **** #define LV_STYLE_PROP_LAYOUT_REFR           (1 << 2)  /*Requires layout update when changed*/
  42:Drivers/lvgl/lvgl/src/extra/themes/default/../../../../src/hal/../draw/../misc/lv_style.h **** #define LV_STYLE_PROP_PARENT_LAYOUT_REFR    (1 << 3)  /*Requires layout update on parent when chang
  43:Drivers/lvgl/lvgl/src/extra/themes/default/../../../../src/hal/../draw/../misc/lv_style.h **** #define LV_STYLE_PROP_LAYER_REFR            (1 << 4)  /*Affects layer handling*/
  44:Drivers/lvgl/lvgl/src/extra/themes/default/../../../../src/hal/../draw/../misc/lv_style.h **** #define LV_STYLE_PROP_ALL                   (0x1F)     /*Indicating all flags*/
  45:Drivers/lvgl/lvgl/src/extra/themes/default/../../../../src/hal/../draw/../misc/lv_style.h **** 
  46:Drivers/lvgl/lvgl/src/extra/themes/default/../../../../src/hal/../draw/../misc/lv_style.h **** /**
  47:Drivers/lvgl/lvgl/src/extra/themes/default/../../../../src/hal/../draw/../misc/lv_style.h ****  * Other constants
  48:Drivers/lvgl/lvgl/src/extra/themes/default/../../../../src/hal/../draw/../misc/lv_style.h ****  */
  49:Drivers/lvgl/lvgl/src/extra/themes/default/../../../../src/hal/../draw/../misc/lv_style.h **** #define LV_IMG_ZOOM_NONE            256        /*Value for not zooming the image*/
ARM GAS  /tmp/cc6wDDAF.s 			page 88


  50:Drivers/lvgl/lvgl/src/extra/themes/default/../../../../src/hal/../draw/../misc/lv_style.h **** LV_EXPORT_CONST_INT(LV_IMG_ZOOM_NONE);
  51:Drivers/lvgl/lvgl/src/extra/themes/default/../../../../src/hal/../draw/../misc/lv_style.h **** 
  52:Drivers/lvgl/lvgl/src/extra/themes/default/../../../../src/hal/../draw/../misc/lv_style.h **** // *INDENT-OFF*
  53:Drivers/lvgl/lvgl/src/extra/themes/default/../../../../src/hal/../draw/../misc/lv_style.h **** #if LV_USE_ASSERT_STYLE
  54:Drivers/lvgl/lvgl/src/extra/themes/default/../../../../src/hal/../draw/../misc/lv_style.h **** #define LV_STYLE_CONST_INIT(var_name, prop_array)                       \
  55:Drivers/lvgl/lvgl/src/extra/themes/default/../../../../src/hal/../draw/../misc/lv_style.h ****     const lv_style_t var_name = {                                       \
  56:Drivers/lvgl/lvgl/src/extra/themes/default/../../../../src/hal/../draw/../misc/lv_style.h ****         .sentinel = LV_STYLE_SENTINEL_VALUE,                            \
  57:Drivers/lvgl/lvgl/src/extra/themes/default/../../../../src/hal/../draw/../misc/lv_style.h ****         .v_p = { .const_props = prop_array },                           \
  58:Drivers/lvgl/lvgl/src/extra/themes/default/../../../../src/hal/../draw/../misc/lv_style.h ****         .has_group = 0xFF,                                              \
  59:Drivers/lvgl/lvgl/src/extra/themes/default/../../../../src/hal/../draw/../misc/lv_style.h ****         .prop1 = LV_STYLE_PROP_ANY,                                     \
  60:Drivers/lvgl/lvgl/src/extra/themes/default/../../../../src/hal/../draw/../misc/lv_style.h ****         .prop_cnt = (sizeof(prop_array) / sizeof((prop_array)[0])),     \
  61:Drivers/lvgl/lvgl/src/extra/themes/default/../../../../src/hal/../draw/../misc/lv_style.h ****     }
  62:Drivers/lvgl/lvgl/src/extra/themes/default/../../../../src/hal/../draw/../misc/lv_style.h **** #else
  63:Drivers/lvgl/lvgl/src/extra/themes/default/../../../../src/hal/../draw/../misc/lv_style.h **** #define LV_STYLE_CONST_INIT(var_name, prop_array)                       \
  64:Drivers/lvgl/lvgl/src/extra/themes/default/../../../../src/hal/../draw/../misc/lv_style.h ****     const lv_style_t var_name = {                                       \
  65:Drivers/lvgl/lvgl/src/extra/themes/default/../../../../src/hal/../draw/../misc/lv_style.h ****         .v_p = { .const_props = prop_array },                           \
  66:Drivers/lvgl/lvgl/src/extra/themes/default/../../../../src/hal/../draw/../misc/lv_style.h ****         .has_group = 0xFF,                                              \
  67:Drivers/lvgl/lvgl/src/extra/themes/default/../../../../src/hal/../draw/../misc/lv_style.h ****         .prop1 = LV_STYLE_PROP_ANY,                                     \
  68:Drivers/lvgl/lvgl/src/extra/themes/default/../../../../src/hal/../draw/../misc/lv_style.h ****         .prop_cnt = (sizeof(prop_array) / sizeof((prop_array)[0])),     \
  69:Drivers/lvgl/lvgl/src/extra/themes/default/../../../../src/hal/../draw/../misc/lv_style.h ****     }
  70:Drivers/lvgl/lvgl/src/extra/themes/default/../../../../src/hal/../draw/../misc/lv_style.h **** #endif
  71:Drivers/lvgl/lvgl/src/extra/themes/default/../../../../src/hal/../draw/../misc/lv_style.h **** // *INDENT-ON*
  72:Drivers/lvgl/lvgl/src/extra/themes/default/../../../../src/hal/../draw/../misc/lv_style.h **** 
  73:Drivers/lvgl/lvgl/src/extra/themes/default/../../../../src/hal/../draw/../misc/lv_style.h **** #define LV_STYLE_PROP_META_INHERIT 0x8000
  74:Drivers/lvgl/lvgl/src/extra/themes/default/../../../../src/hal/../draw/../misc/lv_style.h **** #define LV_STYLE_PROP_META_INITIAL 0x4000
  75:Drivers/lvgl/lvgl/src/extra/themes/default/../../../../src/hal/../draw/../misc/lv_style.h **** #define LV_STYLE_PROP_META_MASK (LV_STYLE_PROP_META_INHERIT | LV_STYLE_PROP_META_INITIAL)
  76:Drivers/lvgl/lvgl/src/extra/themes/default/../../../../src/hal/../draw/../misc/lv_style.h **** 
  77:Drivers/lvgl/lvgl/src/extra/themes/default/../../../../src/hal/../draw/../misc/lv_style.h **** #define LV_STYLE_PROP_ID_MASK(prop) ((lv_style_prop_t)((prop) & ~LV_STYLE_PROP_META_MASK))
  78:Drivers/lvgl/lvgl/src/extra/themes/default/../../../../src/hal/../draw/../misc/lv_style.h **** 
  79:Drivers/lvgl/lvgl/src/extra/themes/default/../../../../src/hal/../draw/../misc/lv_style.h **** /**********************
  80:Drivers/lvgl/lvgl/src/extra/themes/default/../../../../src/hal/../draw/../misc/lv_style.h ****  *      TYPEDEFS
  81:Drivers/lvgl/lvgl/src/extra/themes/default/../../../../src/hal/../draw/../misc/lv_style.h ****  **********************/
  82:Drivers/lvgl/lvgl/src/extra/themes/default/../../../../src/hal/../draw/../misc/lv_style.h **** 
  83:Drivers/lvgl/lvgl/src/extra/themes/default/../../../../src/hal/../draw/../misc/lv_style.h **** /**
  84:Drivers/lvgl/lvgl/src/extra/themes/default/../../../../src/hal/../draw/../misc/lv_style.h ****  * Possible options how to blend opaque drawings
  85:Drivers/lvgl/lvgl/src/extra/themes/default/../../../../src/hal/../draw/../misc/lv_style.h ****  */
  86:Drivers/lvgl/lvgl/src/extra/themes/default/../../../../src/hal/../draw/../misc/lv_style.h **** enum {
  87:Drivers/lvgl/lvgl/src/extra/themes/default/../../../../src/hal/../draw/../misc/lv_style.h ****     LV_BLEND_MODE_NORMAL,     /**< Simply mix according to the opacity value*/
  88:Drivers/lvgl/lvgl/src/extra/themes/default/../../../../src/hal/../draw/../misc/lv_style.h ****     LV_BLEND_MODE_ADDITIVE,   /**< Add the respective color channels*/
  89:Drivers/lvgl/lvgl/src/extra/themes/default/../../../../src/hal/../draw/../misc/lv_style.h ****     LV_BLEND_MODE_SUBTRACTIVE,/**< Subtract the foreground from the background*/
  90:Drivers/lvgl/lvgl/src/extra/themes/default/../../../../src/hal/../draw/../misc/lv_style.h ****     LV_BLEND_MODE_MULTIPLY,   /**< Multiply the foreground and background*/
  91:Drivers/lvgl/lvgl/src/extra/themes/default/../../../../src/hal/../draw/../misc/lv_style.h ****     LV_BLEND_MODE_REPLACE,    /**< Replace background with foreground in the area*/
  92:Drivers/lvgl/lvgl/src/extra/themes/default/../../../../src/hal/../draw/../misc/lv_style.h **** };
  93:Drivers/lvgl/lvgl/src/extra/themes/default/../../../../src/hal/../draw/../misc/lv_style.h **** 
  94:Drivers/lvgl/lvgl/src/extra/themes/default/../../../../src/hal/../draw/../misc/lv_style.h **** typedef uint8_t lv_blend_mode_t;
  95:Drivers/lvgl/lvgl/src/extra/themes/default/../../../../src/hal/../draw/../misc/lv_style.h **** 
  96:Drivers/lvgl/lvgl/src/extra/themes/default/../../../../src/hal/../draw/../misc/lv_style.h **** /**
  97:Drivers/lvgl/lvgl/src/extra/themes/default/../../../../src/hal/../draw/../misc/lv_style.h ****  * Some options to apply decorations on texts.
  98:Drivers/lvgl/lvgl/src/extra/themes/default/../../../../src/hal/../draw/../misc/lv_style.h ****  * 'OR'ed values can be used.
  99:Drivers/lvgl/lvgl/src/extra/themes/default/../../../../src/hal/../draw/../misc/lv_style.h ****  */
 100:Drivers/lvgl/lvgl/src/extra/themes/default/../../../../src/hal/../draw/../misc/lv_style.h **** enum {
 101:Drivers/lvgl/lvgl/src/extra/themes/default/../../../../src/hal/../draw/../misc/lv_style.h ****     LV_TEXT_DECOR_NONE          = 0x00,
 102:Drivers/lvgl/lvgl/src/extra/themes/default/../../../../src/hal/../draw/../misc/lv_style.h ****     LV_TEXT_DECOR_UNDERLINE     = 0x01,
 103:Drivers/lvgl/lvgl/src/extra/themes/default/../../../../src/hal/../draw/../misc/lv_style.h ****     LV_TEXT_DECOR_STRIKETHROUGH = 0x02,
 104:Drivers/lvgl/lvgl/src/extra/themes/default/../../../../src/hal/../draw/../misc/lv_style.h **** };
 105:Drivers/lvgl/lvgl/src/extra/themes/default/../../../../src/hal/../draw/../misc/lv_style.h **** 
 106:Drivers/lvgl/lvgl/src/extra/themes/default/../../../../src/hal/../draw/../misc/lv_style.h **** typedef uint8_t lv_text_decor_t;
ARM GAS  /tmp/cc6wDDAF.s 			page 89


 107:Drivers/lvgl/lvgl/src/extra/themes/default/../../../../src/hal/../draw/../misc/lv_style.h **** 
 108:Drivers/lvgl/lvgl/src/extra/themes/default/../../../../src/hal/../draw/../misc/lv_style.h **** /**
 109:Drivers/lvgl/lvgl/src/extra/themes/default/../../../../src/hal/../draw/../misc/lv_style.h ****  * Selects on which sides border should be drawn
 110:Drivers/lvgl/lvgl/src/extra/themes/default/../../../../src/hal/../draw/../misc/lv_style.h ****  * 'OR'ed values can be used.
 111:Drivers/lvgl/lvgl/src/extra/themes/default/../../../../src/hal/../draw/../misc/lv_style.h ****  */
 112:Drivers/lvgl/lvgl/src/extra/themes/default/../../../../src/hal/../draw/../misc/lv_style.h **** enum {
 113:Drivers/lvgl/lvgl/src/extra/themes/default/../../../../src/hal/../draw/../misc/lv_style.h ****     LV_BORDER_SIDE_NONE     = 0x00,
 114:Drivers/lvgl/lvgl/src/extra/themes/default/../../../../src/hal/../draw/../misc/lv_style.h ****     LV_BORDER_SIDE_BOTTOM   = 0x01,
 115:Drivers/lvgl/lvgl/src/extra/themes/default/../../../../src/hal/../draw/../misc/lv_style.h ****     LV_BORDER_SIDE_TOP      = 0x02,
 116:Drivers/lvgl/lvgl/src/extra/themes/default/../../../../src/hal/../draw/../misc/lv_style.h ****     LV_BORDER_SIDE_LEFT     = 0x04,
 117:Drivers/lvgl/lvgl/src/extra/themes/default/../../../../src/hal/../draw/../misc/lv_style.h ****     LV_BORDER_SIDE_RIGHT    = 0x08,
 118:Drivers/lvgl/lvgl/src/extra/themes/default/../../../../src/hal/../draw/../misc/lv_style.h ****     LV_BORDER_SIDE_FULL     = 0x0F,
 119:Drivers/lvgl/lvgl/src/extra/themes/default/../../../../src/hal/../draw/../misc/lv_style.h ****     LV_BORDER_SIDE_INTERNAL = 0x10, /**< FOR matrix-like objects (e.g. Button matrix)*/
 120:Drivers/lvgl/lvgl/src/extra/themes/default/../../../../src/hal/../draw/../misc/lv_style.h **** };
 121:Drivers/lvgl/lvgl/src/extra/themes/default/../../../../src/hal/../draw/../misc/lv_style.h **** typedef uint8_t lv_border_side_t;
 122:Drivers/lvgl/lvgl/src/extra/themes/default/../../../../src/hal/../draw/../misc/lv_style.h **** 
 123:Drivers/lvgl/lvgl/src/extra/themes/default/../../../../src/hal/../draw/../misc/lv_style.h **** /**
 124:Drivers/lvgl/lvgl/src/extra/themes/default/../../../../src/hal/../draw/../misc/lv_style.h ****  * The direction of the gradient.
 125:Drivers/lvgl/lvgl/src/extra/themes/default/../../../../src/hal/../draw/../misc/lv_style.h ****  */
 126:Drivers/lvgl/lvgl/src/extra/themes/default/../../../../src/hal/../draw/../misc/lv_style.h **** enum {
 127:Drivers/lvgl/lvgl/src/extra/themes/default/../../../../src/hal/../draw/../misc/lv_style.h ****     LV_GRAD_DIR_NONE, /**< No gradient (the `grad_color` property is ignored)*/
 128:Drivers/lvgl/lvgl/src/extra/themes/default/../../../../src/hal/../draw/../misc/lv_style.h ****     LV_GRAD_DIR_VER,  /**< Vertical (top to bottom) gradient*/
 129:Drivers/lvgl/lvgl/src/extra/themes/default/../../../../src/hal/../draw/../misc/lv_style.h ****     LV_GRAD_DIR_HOR,  /**< Horizontal (left to right) gradient*/
 130:Drivers/lvgl/lvgl/src/extra/themes/default/../../../../src/hal/../draw/../misc/lv_style.h **** };
 131:Drivers/lvgl/lvgl/src/extra/themes/default/../../../../src/hal/../draw/../misc/lv_style.h **** 
 132:Drivers/lvgl/lvgl/src/extra/themes/default/../../../../src/hal/../draw/../misc/lv_style.h **** typedef uint8_t lv_grad_dir_t;
 133:Drivers/lvgl/lvgl/src/extra/themes/default/../../../../src/hal/../draw/../misc/lv_style.h **** 
 134:Drivers/lvgl/lvgl/src/extra/themes/default/../../../../src/hal/../draw/../misc/lv_style.h **** /**
 135:Drivers/lvgl/lvgl/src/extra/themes/default/../../../../src/hal/../draw/../misc/lv_style.h ****  * The dithering algorithm for the gradient
 136:Drivers/lvgl/lvgl/src/extra/themes/default/../../../../src/hal/../draw/../misc/lv_style.h ****  * Depends on LV_DITHER_GRADIENT
 137:Drivers/lvgl/lvgl/src/extra/themes/default/../../../../src/hal/../draw/../misc/lv_style.h ****  */
 138:Drivers/lvgl/lvgl/src/extra/themes/default/../../../../src/hal/../draw/../misc/lv_style.h **** enum {
 139:Drivers/lvgl/lvgl/src/extra/themes/default/../../../../src/hal/../draw/../misc/lv_style.h ****     LV_DITHER_NONE,     /**< No dithering, colors are just quantized to the output resolution*/
 140:Drivers/lvgl/lvgl/src/extra/themes/default/../../../../src/hal/../draw/../misc/lv_style.h ****     LV_DITHER_ORDERED,  /**< Ordered dithering. Faster to compute and use less memory but lower qua
 141:Drivers/lvgl/lvgl/src/extra/themes/default/../../../../src/hal/../draw/../misc/lv_style.h ****     LV_DITHER_ERR_DIFF, /**< Error diffusion mode. Slower to compute and use more memory but give h
 142:Drivers/lvgl/lvgl/src/extra/themes/default/../../../../src/hal/../draw/../misc/lv_style.h **** };
 143:Drivers/lvgl/lvgl/src/extra/themes/default/../../../../src/hal/../draw/../misc/lv_style.h **** 
 144:Drivers/lvgl/lvgl/src/extra/themes/default/../../../../src/hal/../draw/../misc/lv_style.h **** typedef uint8_t lv_dither_mode_t;
 145:Drivers/lvgl/lvgl/src/extra/themes/default/../../../../src/hal/../draw/../misc/lv_style.h **** 
 146:Drivers/lvgl/lvgl/src/extra/themes/default/../../../../src/hal/../draw/../misc/lv_style.h **** /** A gradient stop definition.
 147:Drivers/lvgl/lvgl/src/extra/themes/default/../../../../src/hal/../draw/../misc/lv_style.h ****  *  This matches a color and a position in a virtual 0-255 scale.
 148:Drivers/lvgl/lvgl/src/extra/themes/default/../../../../src/hal/../draw/../misc/lv_style.h ****  */
 149:Drivers/lvgl/lvgl/src/extra/themes/default/../../../../src/hal/../draw/../misc/lv_style.h **** typedef struct {
 150:Drivers/lvgl/lvgl/src/extra/themes/default/../../../../src/hal/../draw/../misc/lv_style.h ****     lv_color_t color;   /**< The stop color */
 151:Drivers/lvgl/lvgl/src/extra/themes/default/../../../../src/hal/../draw/../misc/lv_style.h ****     uint8_t    frac;    /**< The stop position in 1/255 unit */
 152:Drivers/lvgl/lvgl/src/extra/themes/default/../../../../src/hal/../draw/../misc/lv_style.h **** } lv_gradient_stop_t;
 153:Drivers/lvgl/lvgl/src/extra/themes/default/../../../../src/hal/../draw/../misc/lv_style.h **** 
 154:Drivers/lvgl/lvgl/src/extra/themes/default/../../../../src/hal/../draw/../misc/lv_style.h **** /** A descriptor of a gradient. */
 155:Drivers/lvgl/lvgl/src/extra/themes/default/../../../../src/hal/../draw/../misc/lv_style.h **** typedef struct {
 156:Drivers/lvgl/lvgl/src/extra/themes/default/../../../../src/hal/../draw/../misc/lv_style.h ****     lv_gradient_stop_t   stops[LV_GRADIENT_MAX_STOPS]; /**< A gradient stop array */
 157:Drivers/lvgl/lvgl/src/extra/themes/default/../../../../src/hal/../draw/../misc/lv_style.h ****     uint8_t              stops_count;                  /**< The number of used stops in the array *
 158:Drivers/lvgl/lvgl/src/extra/themes/default/../../../../src/hal/../draw/../misc/lv_style.h ****     lv_grad_dir_t        dir : 3;                      /**< The gradient direction.
 159:Drivers/lvgl/lvgl/src/extra/themes/default/../../../../src/hal/../draw/../misc/lv_style.h ****                                                         * Any of LV_GRAD_DIR_HOR, LV_GRAD_DIR_VER, 
 160:Drivers/lvgl/lvgl/src/extra/themes/default/../../../../src/hal/../draw/../misc/lv_style.h ****     lv_dither_mode_t     dither : 3;                   /**< Whether to dither the gradient or not.
 161:Drivers/lvgl/lvgl/src/extra/themes/default/../../../../src/hal/../draw/../misc/lv_style.h ****                                                         * Any of LV_DITHER_NONE, LV_DITHER_ORDERED,
 162:Drivers/lvgl/lvgl/src/extra/themes/default/../../../../src/hal/../draw/../misc/lv_style.h **** } lv_grad_dsc_t;
 163:Drivers/lvgl/lvgl/src/extra/themes/default/../../../../src/hal/../draw/../misc/lv_style.h **** 
ARM GAS  /tmp/cc6wDDAF.s 			page 90


 164:Drivers/lvgl/lvgl/src/extra/themes/default/../../../../src/hal/../draw/../misc/lv_style.h **** /**
 165:Drivers/lvgl/lvgl/src/extra/themes/default/../../../../src/hal/../draw/../misc/lv_style.h ****  * A common type to handle all the property types in the same way.
 166:Drivers/lvgl/lvgl/src/extra/themes/default/../../../../src/hal/../draw/../misc/lv_style.h ****  */
 167:Drivers/lvgl/lvgl/src/extra/themes/default/../../../../src/hal/../draw/../misc/lv_style.h **** typedef union {
 168:Drivers/lvgl/lvgl/src/extra/themes/default/../../../../src/hal/../draw/../misc/lv_style.h ****     int32_t num;         /**< Number integer number (opacity, enums, booleans or "normal" numbers)*
 169:Drivers/lvgl/lvgl/src/extra/themes/default/../../../../src/hal/../draw/../misc/lv_style.h ****     const void * ptr;    /**< Constant pointers  (font, cone text, etc)*/
 170:Drivers/lvgl/lvgl/src/extra/themes/default/../../../../src/hal/../draw/../misc/lv_style.h ****     lv_color_t color;    /**< Colors*/
 171:Drivers/lvgl/lvgl/src/extra/themes/default/../../../../src/hal/../draw/../misc/lv_style.h **** } lv_style_value_t;
 172:Drivers/lvgl/lvgl/src/extra/themes/default/../../../../src/hal/../draw/../misc/lv_style.h **** 
 173:Drivers/lvgl/lvgl/src/extra/themes/default/../../../../src/hal/../draw/../misc/lv_style.h **** /**
 174:Drivers/lvgl/lvgl/src/extra/themes/default/../../../../src/hal/../draw/../misc/lv_style.h ****  * Enumeration of all built in style properties
 175:Drivers/lvgl/lvgl/src/extra/themes/default/../../../../src/hal/../draw/../misc/lv_style.h ****  *
 176:Drivers/lvgl/lvgl/src/extra/themes/default/../../../../src/hal/../draw/../misc/lv_style.h ****  * Props are split into groups of 16. When adding a new prop to a group, ensure it does not overflo
 177:Drivers/lvgl/lvgl/src/extra/themes/default/../../../../src/hal/../draw/../misc/lv_style.h ****  */
 178:Drivers/lvgl/lvgl/src/extra/themes/default/../../../../src/hal/../draw/../misc/lv_style.h **** typedef enum {
 179:Drivers/lvgl/lvgl/src/extra/themes/default/../../../../src/hal/../draw/../misc/lv_style.h ****     LV_STYLE_PROP_INV               = 0,
 180:Drivers/lvgl/lvgl/src/extra/themes/default/../../../../src/hal/../draw/../misc/lv_style.h **** 
 181:Drivers/lvgl/lvgl/src/extra/themes/default/../../../../src/hal/../draw/../misc/lv_style.h ****     /*Group 0*/
 182:Drivers/lvgl/lvgl/src/extra/themes/default/../../../../src/hal/../draw/../misc/lv_style.h ****     LV_STYLE_WIDTH                  = 1,
 183:Drivers/lvgl/lvgl/src/extra/themes/default/../../../../src/hal/../draw/../misc/lv_style.h ****     LV_STYLE_MIN_WIDTH              = 2,
 184:Drivers/lvgl/lvgl/src/extra/themes/default/../../../../src/hal/../draw/../misc/lv_style.h ****     LV_STYLE_MAX_WIDTH              = 3,
 185:Drivers/lvgl/lvgl/src/extra/themes/default/../../../../src/hal/../draw/../misc/lv_style.h ****     LV_STYLE_HEIGHT                 = 4,
 186:Drivers/lvgl/lvgl/src/extra/themes/default/../../../../src/hal/../draw/../misc/lv_style.h ****     LV_STYLE_MIN_HEIGHT             = 5,
 187:Drivers/lvgl/lvgl/src/extra/themes/default/../../../../src/hal/../draw/../misc/lv_style.h ****     LV_STYLE_MAX_HEIGHT             = 6,
 188:Drivers/lvgl/lvgl/src/extra/themes/default/../../../../src/hal/../draw/../misc/lv_style.h ****     LV_STYLE_X                      = 7,
 189:Drivers/lvgl/lvgl/src/extra/themes/default/../../../../src/hal/../draw/../misc/lv_style.h ****     LV_STYLE_Y                      = 8,
 190:Drivers/lvgl/lvgl/src/extra/themes/default/../../../../src/hal/../draw/../misc/lv_style.h ****     LV_STYLE_ALIGN                  = 9,
 191:Drivers/lvgl/lvgl/src/extra/themes/default/../../../../src/hal/../draw/../misc/lv_style.h ****     LV_STYLE_LAYOUT                 = 10,
 192:Drivers/lvgl/lvgl/src/extra/themes/default/../../../../src/hal/../draw/../misc/lv_style.h ****     LV_STYLE_RADIUS                 = 11,
 193:Drivers/lvgl/lvgl/src/extra/themes/default/../../../../src/hal/../draw/../misc/lv_style.h **** 
 194:Drivers/lvgl/lvgl/src/extra/themes/default/../../../../src/hal/../draw/../misc/lv_style.h ****     /*Group 1*/
 195:Drivers/lvgl/lvgl/src/extra/themes/default/../../../../src/hal/../draw/../misc/lv_style.h ****     LV_STYLE_PAD_TOP                = 16,
 196:Drivers/lvgl/lvgl/src/extra/themes/default/../../../../src/hal/../draw/../misc/lv_style.h ****     LV_STYLE_PAD_BOTTOM             = 17,
 197:Drivers/lvgl/lvgl/src/extra/themes/default/../../../../src/hal/../draw/../misc/lv_style.h ****     LV_STYLE_PAD_LEFT               = 18,
 198:Drivers/lvgl/lvgl/src/extra/themes/default/../../../../src/hal/../draw/../misc/lv_style.h ****     LV_STYLE_PAD_RIGHT              = 19,
 199:Drivers/lvgl/lvgl/src/extra/themes/default/../../../../src/hal/../draw/../misc/lv_style.h ****     LV_STYLE_PAD_ROW                = 20,
 200:Drivers/lvgl/lvgl/src/extra/themes/default/../../../../src/hal/../draw/../misc/lv_style.h ****     LV_STYLE_PAD_COLUMN             = 21,
 201:Drivers/lvgl/lvgl/src/extra/themes/default/../../../../src/hal/../draw/../misc/lv_style.h ****     LV_STYLE_BASE_DIR               = 22,
 202:Drivers/lvgl/lvgl/src/extra/themes/default/../../../../src/hal/../draw/../misc/lv_style.h ****     LV_STYLE_CLIP_CORNER            = 23,
 203:Drivers/lvgl/lvgl/src/extra/themes/default/../../../../src/hal/../draw/../misc/lv_style.h **** 
 204:Drivers/lvgl/lvgl/src/extra/themes/default/../../../../src/hal/../draw/../misc/lv_style.h ****     /*Group 2*/
 205:Drivers/lvgl/lvgl/src/extra/themes/default/../../../../src/hal/../draw/../misc/lv_style.h ****     LV_STYLE_BG_COLOR               = 32,
 206:Drivers/lvgl/lvgl/src/extra/themes/default/../../../../src/hal/../draw/../misc/lv_style.h ****     LV_STYLE_BG_OPA                 = 33,
 207:Drivers/lvgl/lvgl/src/extra/themes/default/../../../../src/hal/../draw/../misc/lv_style.h ****     LV_STYLE_BG_GRAD_COLOR          = 34,
 208:Drivers/lvgl/lvgl/src/extra/themes/default/../../../../src/hal/../draw/../misc/lv_style.h ****     LV_STYLE_BG_GRAD_DIR            = 35,
 209:Drivers/lvgl/lvgl/src/extra/themes/default/../../../../src/hal/../draw/../misc/lv_style.h ****     LV_STYLE_BG_MAIN_STOP           = 36,
 210:Drivers/lvgl/lvgl/src/extra/themes/default/../../../../src/hal/../draw/../misc/lv_style.h ****     LV_STYLE_BG_GRAD_STOP           = 37,
 211:Drivers/lvgl/lvgl/src/extra/themes/default/../../../../src/hal/../draw/../misc/lv_style.h ****     LV_STYLE_BG_GRAD                = 38,
 212:Drivers/lvgl/lvgl/src/extra/themes/default/../../../../src/hal/../draw/../misc/lv_style.h ****     LV_STYLE_BG_DITHER_MODE         = 39,
 213:Drivers/lvgl/lvgl/src/extra/themes/default/../../../../src/hal/../draw/../misc/lv_style.h ****     LV_STYLE_BG_IMG_SRC             = 40,
 214:Drivers/lvgl/lvgl/src/extra/themes/default/../../../../src/hal/../draw/../misc/lv_style.h ****     LV_STYLE_BG_IMG_OPA             = 41,
 215:Drivers/lvgl/lvgl/src/extra/themes/default/../../../../src/hal/../draw/../misc/lv_style.h ****     LV_STYLE_BG_IMG_RECOLOR         = 42,
 216:Drivers/lvgl/lvgl/src/extra/themes/default/../../../../src/hal/../draw/../misc/lv_style.h ****     LV_STYLE_BG_IMG_RECOLOR_OPA     = 43,
 217:Drivers/lvgl/lvgl/src/extra/themes/default/../../../../src/hal/../draw/../misc/lv_style.h ****     LV_STYLE_BG_IMG_TILED           = 44,
 218:Drivers/lvgl/lvgl/src/extra/themes/default/../../../../src/hal/../draw/../misc/lv_style.h **** 
 219:Drivers/lvgl/lvgl/src/extra/themes/default/../../../../src/hal/../draw/../misc/lv_style.h ****     /*Group 3*/
 220:Drivers/lvgl/lvgl/src/extra/themes/default/../../../../src/hal/../draw/../misc/lv_style.h ****     LV_STYLE_BORDER_COLOR           = 48,
ARM GAS  /tmp/cc6wDDAF.s 			page 91


 221:Drivers/lvgl/lvgl/src/extra/themes/default/../../../../src/hal/../draw/../misc/lv_style.h ****     LV_STYLE_BORDER_OPA             = 49,
 222:Drivers/lvgl/lvgl/src/extra/themes/default/../../../../src/hal/../draw/../misc/lv_style.h ****     LV_STYLE_BORDER_WIDTH           = 50,
 223:Drivers/lvgl/lvgl/src/extra/themes/default/../../../../src/hal/../draw/../misc/lv_style.h ****     LV_STYLE_BORDER_SIDE            = 51,
 224:Drivers/lvgl/lvgl/src/extra/themes/default/../../../../src/hal/../draw/../misc/lv_style.h ****     LV_STYLE_BORDER_POST            = 52,
 225:Drivers/lvgl/lvgl/src/extra/themes/default/../../../../src/hal/../draw/../misc/lv_style.h ****     LV_STYLE_OUTLINE_WIDTH          = 53,
 226:Drivers/lvgl/lvgl/src/extra/themes/default/../../../../src/hal/../draw/../misc/lv_style.h ****     LV_STYLE_OUTLINE_COLOR          = 54,
 227:Drivers/lvgl/lvgl/src/extra/themes/default/../../../../src/hal/../draw/../misc/lv_style.h ****     LV_STYLE_OUTLINE_OPA            = 55,
 228:Drivers/lvgl/lvgl/src/extra/themes/default/../../../../src/hal/../draw/../misc/lv_style.h ****     LV_STYLE_OUTLINE_PAD            = 56,
 229:Drivers/lvgl/lvgl/src/extra/themes/default/../../../../src/hal/../draw/../misc/lv_style.h **** 
 230:Drivers/lvgl/lvgl/src/extra/themes/default/../../../../src/hal/../draw/../misc/lv_style.h ****     /*Group 4*/
 231:Drivers/lvgl/lvgl/src/extra/themes/default/../../../../src/hal/../draw/../misc/lv_style.h ****     LV_STYLE_SHADOW_WIDTH           = 64,
 232:Drivers/lvgl/lvgl/src/extra/themes/default/../../../../src/hal/../draw/../misc/lv_style.h ****     LV_STYLE_SHADOW_OFS_X           = 65,
 233:Drivers/lvgl/lvgl/src/extra/themes/default/../../../../src/hal/../draw/../misc/lv_style.h ****     LV_STYLE_SHADOW_OFS_Y           = 66,
 234:Drivers/lvgl/lvgl/src/extra/themes/default/../../../../src/hal/../draw/../misc/lv_style.h ****     LV_STYLE_SHADOW_SPREAD          = 67,
 235:Drivers/lvgl/lvgl/src/extra/themes/default/../../../../src/hal/../draw/../misc/lv_style.h ****     LV_STYLE_SHADOW_COLOR           = 68,
 236:Drivers/lvgl/lvgl/src/extra/themes/default/../../../../src/hal/../draw/../misc/lv_style.h ****     LV_STYLE_SHADOW_OPA             = 69,
 237:Drivers/lvgl/lvgl/src/extra/themes/default/../../../../src/hal/../draw/../misc/lv_style.h ****     LV_STYLE_IMG_OPA                = 70,
 238:Drivers/lvgl/lvgl/src/extra/themes/default/../../../../src/hal/../draw/../misc/lv_style.h ****     LV_STYLE_IMG_RECOLOR            = 71,
 239:Drivers/lvgl/lvgl/src/extra/themes/default/../../../../src/hal/../draw/../misc/lv_style.h ****     LV_STYLE_IMG_RECOLOR_OPA        = 72,
 240:Drivers/lvgl/lvgl/src/extra/themes/default/../../../../src/hal/../draw/../misc/lv_style.h ****     LV_STYLE_LINE_WIDTH             = 73,
 241:Drivers/lvgl/lvgl/src/extra/themes/default/../../../../src/hal/../draw/../misc/lv_style.h ****     LV_STYLE_LINE_DASH_WIDTH        = 74,
 242:Drivers/lvgl/lvgl/src/extra/themes/default/../../../../src/hal/../draw/../misc/lv_style.h ****     LV_STYLE_LINE_DASH_GAP          = 75,
 243:Drivers/lvgl/lvgl/src/extra/themes/default/../../../../src/hal/../draw/../misc/lv_style.h ****     LV_STYLE_LINE_ROUNDED           = 76,
 244:Drivers/lvgl/lvgl/src/extra/themes/default/../../../../src/hal/../draw/../misc/lv_style.h ****     LV_STYLE_LINE_COLOR             = 77,
 245:Drivers/lvgl/lvgl/src/extra/themes/default/../../../../src/hal/../draw/../misc/lv_style.h ****     LV_STYLE_LINE_OPA               = 78,
 246:Drivers/lvgl/lvgl/src/extra/themes/default/../../../../src/hal/../draw/../misc/lv_style.h **** 
 247:Drivers/lvgl/lvgl/src/extra/themes/default/../../../../src/hal/../draw/../misc/lv_style.h ****     /*Group 5*/
 248:Drivers/lvgl/lvgl/src/extra/themes/default/../../../../src/hal/../draw/../misc/lv_style.h ****     LV_STYLE_ARC_WIDTH              = 80,
 249:Drivers/lvgl/lvgl/src/extra/themes/default/../../../../src/hal/../draw/../misc/lv_style.h ****     LV_STYLE_ARC_ROUNDED            = 81,
 250:Drivers/lvgl/lvgl/src/extra/themes/default/../../../../src/hal/../draw/../misc/lv_style.h ****     LV_STYLE_ARC_COLOR              = 82,
 251:Drivers/lvgl/lvgl/src/extra/themes/default/../../../../src/hal/../draw/../misc/lv_style.h ****     LV_STYLE_ARC_OPA                = 83,
 252:Drivers/lvgl/lvgl/src/extra/themes/default/../../../../src/hal/../draw/../misc/lv_style.h ****     LV_STYLE_ARC_IMG_SRC            = 84,
 253:Drivers/lvgl/lvgl/src/extra/themes/default/../../../../src/hal/../draw/../misc/lv_style.h ****     LV_STYLE_TEXT_COLOR             = 85,
 254:Drivers/lvgl/lvgl/src/extra/themes/default/../../../../src/hal/../draw/../misc/lv_style.h ****     LV_STYLE_TEXT_OPA               = 86,
 255:Drivers/lvgl/lvgl/src/extra/themes/default/../../../../src/hal/../draw/../misc/lv_style.h ****     LV_STYLE_TEXT_FONT              = 87,
 256:Drivers/lvgl/lvgl/src/extra/themes/default/../../../../src/hal/../draw/../misc/lv_style.h ****     LV_STYLE_TEXT_LETTER_SPACE      = 88,
 257:Drivers/lvgl/lvgl/src/extra/themes/default/../../../../src/hal/../draw/../misc/lv_style.h ****     LV_STYLE_TEXT_LINE_SPACE        = 89,
 258:Drivers/lvgl/lvgl/src/extra/themes/default/../../../../src/hal/../draw/../misc/lv_style.h ****     LV_STYLE_TEXT_DECOR             = 90,
 259:Drivers/lvgl/lvgl/src/extra/themes/default/../../../../src/hal/../draw/../misc/lv_style.h ****     LV_STYLE_TEXT_ALIGN             = 91,
 260:Drivers/lvgl/lvgl/src/extra/themes/default/../../../../src/hal/../draw/../misc/lv_style.h **** 
 261:Drivers/lvgl/lvgl/src/extra/themes/default/../../../../src/hal/../draw/../misc/lv_style.h ****     /*Group 6*/
 262:Drivers/lvgl/lvgl/src/extra/themes/default/../../../../src/hal/../draw/../misc/lv_style.h ****     LV_STYLE_OPA                    = 96,
 263:Drivers/lvgl/lvgl/src/extra/themes/default/../../../../src/hal/../draw/../misc/lv_style.h ****     LV_STYLE_COLOR_FILTER_DSC       = 97,
 264:Drivers/lvgl/lvgl/src/extra/themes/default/../../../../src/hal/../draw/../misc/lv_style.h ****     LV_STYLE_COLOR_FILTER_OPA       = 98,
 265:Drivers/lvgl/lvgl/src/extra/themes/default/../../../../src/hal/../draw/../misc/lv_style.h ****     LV_STYLE_ANIM                   = 99,
 266:Drivers/lvgl/lvgl/src/extra/themes/default/../../../../src/hal/../draw/../misc/lv_style.h ****     LV_STYLE_ANIM_TIME              = 100,
 267:Drivers/lvgl/lvgl/src/extra/themes/default/../../../../src/hal/../draw/../misc/lv_style.h ****     LV_STYLE_ANIM_SPEED             = 101,
 268:Drivers/lvgl/lvgl/src/extra/themes/default/../../../../src/hal/../draw/../misc/lv_style.h ****     LV_STYLE_TRANSITION             = 102,
 269:Drivers/lvgl/lvgl/src/extra/themes/default/../../../../src/hal/../draw/../misc/lv_style.h ****     LV_STYLE_BLEND_MODE             = 103,
 270:Drivers/lvgl/lvgl/src/extra/themes/default/../../../../src/hal/../draw/../misc/lv_style.h ****     LV_STYLE_TRANSFORM_WIDTH        = 104,
 271:Drivers/lvgl/lvgl/src/extra/themes/default/../../../../src/hal/../draw/../misc/lv_style.h ****     LV_STYLE_TRANSFORM_HEIGHT       = 105,
 272:Drivers/lvgl/lvgl/src/extra/themes/default/../../../../src/hal/../draw/../misc/lv_style.h ****     LV_STYLE_TRANSLATE_X            = 106,
 273:Drivers/lvgl/lvgl/src/extra/themes/default/../../../../src/hal/../draw/../misc/lv_style.h ****     LV_STYLE_TRANSLATE_Y            = 107,
 274:Drivers/lvgl/lvgl/src/extra/themes/default/../../../../src/hal/../draw/../misc/lv_style.h ****     LV_STYLE_TRANSFORM_ZOOM         = 108,
 275:Drivers/lvgl/lvgl/src/extra/themes/default/../../../../src/hal/../draw/../misc/lv_style.h ****     LV_STYLE_TRANSFORM_ANGLE        = 109,
 276:Drivers/lvgl/lvgl/src/extra/themes/default/../../../../src/hal/../draw/../misc/lv_style.h ****     LV_STYLE_TRANSFORM_PIVOT_X      = 110,
 277:Drivers/lvgl/lvgl/src/extra/themes/default/../../../../src/hal/../draw/../misc/lv_style.h ****     LV_STYLE_TRANSFORM_PIVOT_Y      = 111,
ARM GAS  /tmp/cc6wDDAF.s 			page 92


 278:Drivers/lvgl/lvgl/src/extra/themes/default/../../../../src/hal/../draw/../misc/lv_style.h **** 
 279:Drivers/lvgl/lvgl/src/extra/themes/default/../../../../src/hal/../draw/../misc/lv_style.h ****     _LV_STYLE_LAST_BUILT_IN_PROP     = 111,
 280:Drivers/lvgl/lvgl/src/extra/themes/default/../../../../src/hal/../draw/../misc/lv_style.h ****     _LV_STYLE_NUM_BUILT_IN_PROPS     = _LV_STYLE_LAST_BUILT_IN_PROP + 1,
 281:Drivers/lvgl/lvgl/src/extra/themes/default/../../../../src/hal/../draw/../misc/lv_style.h **** 
 282:Drivers/lvgl/lvgl/src/extra/themes/default/../../../../src/hal/../draw/../misc/lv_style.h ****     LV_STYLE_PROP_ANY                = 0xFFFF,
 283:Drivers/lvgl/lvgl/src/extra/themes/default/../../../../src/hal/../draw/../misc/lv_style.h ****     _LV_STYLE_PROP_CONST             = 0xFFFF /* magic value for const styles */
 284:Drivers/lvgl/lvgl/src/extra/themes/default/../../../../src/hal/../draw/../misc/lv_style.h **** } lv_style_prop_t;
 285:Drivers/lvgl/lvgl/src/extra/themes/default/../../../../src/hal/../draw/../misc/lv_style.h **** 
 286:Drivers/lvgl/lvgl/src/extra/themes/default/../../../../src/hal/../draw/../misc/lv_style.h **** enum {
 287:Drivers/lvgl/lvgl/src/extra/themes/default/../../../../src/hal/../draw/../misc/lv_style.h ****     LV_STYLE_RES_NOT_FOUND,
 288:Drivers/lvgl/lvgl/src/extra/themes/default/../../../../src/hal/../draw/../misc/lv_style.h ****     LV_STYLE_RES_FOUND,
 289:Drivers/lvgl/lvgl/src/extra/themes/default/../../../../src/hal/../draw/../misc/lv_style.h ****     LV_STYLE_RES_INHERIT
 290:Drivers/lvgl/lvgl/src/extra/themes/default/../../../../src/hal/../draw/../misc/lv_style.h **** };
 291:Drivers/lvgl/lvgl/src/extra/themes/default/../../../../src/hal/../draw/../misc/lv_style.h **** 
 292:Drivers/lvgl/lvgl/src/extra/themes/default/../../../../src/hal/../draw/../misc/lv_style.h **** typedef uint8_t lv_style_res_t;
 293:Drivers/lvgl/lvgl/src/extra/themes/default/../../../../src/hal/../draw/../misc/lv_style.h **** 
 294:Drivers/lvgl/lvgl/src/extra/themes/default/../../../../src/hal/../draw/../misc/lv_style.h **** /**
 295:Drivers/lvgl/lvgl/src/extra/themes/default/../../../../src/hal/../draw/../misc/lv_style.h ****  * Descriptor for style transitions
 296:Drivers/lvgl/lvgl/src/extra/themes/default/../../../../src/hal/../draw/../misc/lv_style.h ****  */
 297:Drivers/lvgl/lvgl/src/extra/themes/default/../../../../src/hal/../draw/../misc/lv_style.h **** typedef struct {
 298:Drivers/lvgl/lvgl/src/extra/themes/default/../../../../src/hal/../draw/../misc/lv_style.h ****     const lv_style_prop_t * props; /**< An array with the properties to animate.*/
 299:Drivers/lvgl/lvgl/src/extra/themes/default/../../../../src/hal/../draw/../misc/lv_style.h **** #if LV_USE_USER_DATA
 300:Drivers/lvgl/lvgl/src/extra/themes/default/../../../../src/hal/../draw/../misc/lv_style.h ****     void * user_data;              /**< A custom user data that will be passed to the animation's u
 301:Drivers/lvgl/lvgl/src/extra/themes/default/../../../../src/hal/../draw/../misc/lv_style.h **** #endif
 302:Drivers/lvgl/lvgl/src/extra/themes/default/../../../../src/hal/../draw/../misc/lv_style.h ****     lv_anim_path_cb_t path_xcb;     /**< A path for the animation.*/
 303:Drivers/lvgl/lvgl/src/extra/themes/default/../../../../src/hal/../draw/../misc/lv_style.h ****     uint32_t time;                 /**< Duration of the transition in [ms]*/
 304:Drivers/lvgl/lvgl/src/extra/themes/default/../../../../src/hal/../draw/../misc/lv_style.h ****     uint32_t delay;                /**< Delay before the transition in [ms]*/
 305:Drivers/lvgl/lvgl/src/extra/themes/default/../../../../src/hal/../draw/../misc/lv_style.h **** } lv_style_transition_dsc_t;
 306:Drivers/lvgl/lvgl/src/extra/themes/default/../../../../src/hal/../draw/../misc/lv_style.h **** 
 307:Drivers/lvgl/lvgl/src/extra/themes/default/../../../../src/hal/../draw/../misc/lv_style.h **** /**
 308:Drivers/lvgl/lvgl/src/extra/themes/default/../../../../src/hal/../draw/../misc/lv_style.h ****  * Descriptor of a constant style property.
 309:Drivers/lvgl/lvgl/src/extra/themes/default/../../../../src/hal/../draw/../misc/lv_style.h ****  */
 310:Drivers/lvgl/lvgl/src/extra/themes/default/../../../../src/hal/../draw/../misc/lv_style.h **** typedef struct {
 311:Drivers/lvgl/lvgl/src/extra/themes/default/../../../../src/hal/../draw/../misc/lv_style.h ****     lv_style_prop_t prop;
 312:Drivers/lvgl/lvgl/src/extra/themes/default/../../../../src/hal/../draw/../misc/lv_style.h ****     lv_style_value_t value;
 313:Drivers/lvgl/lvgl/src/extra/themes/default/../../../../src/hal/../draw/../misc/lv_style.h **** } lv_style_const_prop_t;
 314:Drivers/lvgl/lvgl/src/extra/themes/default/../../../../src/hal/../draw/../misc/lv_style.h **** 
 315:Drivers/lvgl/lvgl/src/extra/themes/default/../../../../src/hal/../draw/../misc/lv_style.h **** /**
 316:Drivers/lvgl/lvgl/src/extra/themes/default/../../../../src/hal/../draw/../misc/lv_style.h ****  * Descriptor of a style (a collection of properties and values).
 317:Drivers/lvgl/lvgl/src/extra/themes/default/../../../../src/hal/../draw/../misc/lv_style.h ****  */
 318:Drivers/lvgl/lvgl/src/extra/themes/default/../../../../src/hal/../draw/../misc/lv_style.h **** typedef struct {
 319:Drivers/lvgl/lvgl/src/extra/themes/default/../../../../src/hal/../draw/../misc/lv_style.h **** 
 320:Drivers/lvgl/lvgl/src/extra/themes/default/../../../../src/hal/../draw/../misc/lv_style.h **** #if LV_USE_ASSERT_STYLE
 321:Drivers/lvgl/lvgl/src/extra/themes/default/../../../../src/hal/../draw/../misc/lv_style.h ****     uint32_t sentinel;
 322:Drivers/lvgl/lvgl/src/extra/themes/default/../../../../src/hal/../draw/../misc/lv_style.h **** #endif
 323:Drivers/lvgl/lvgl/src/extra/themes/default/../../../../src/hal/../draw/../misc/lv_style.h **** 
 324:Drivers/lvgl/lvgl/src/extra/themes/default/../../../../src/hal/../draw/../misc/lv_style.h ****     /*If there is only one property store it directly.
 325:Drivers/lvgl/lvgl/src/extra/themes/default/../../../../src/hal/../draw/../misc/lv_style.h ****      *For more properties allocate an array*/
 326:Drivers/lvgl/lvgl/src/extra/themes/default/../../../../src/hal/../draw/../misc/lv_style.h ****     union {
 327:Drivers/lvgl/lvgl/src/extra/themes/default/../../../../src/hal/../draw/../misc/lv_style.h ****         lv_style_value_t value1;
 328:Drivers/lvgl/lvgl/src/extra/themes/default/../../../../src/hal/../draw/../misc/lv_style.h ****         uint8_t * values_and_props;
 329:Drivers/lvgl/lvgl/src/extra/themes/default/../../../../src/hal/../draw/../misc/lv_style.h ****         const lv_style_const_prop_t * const_props;
 330:Drivers/lvgl/lvgl/src/extra/themes/default/../../../../src/hal/../draw/../misc/lv_style.h ****     } v_p;
 331:Drivers/lvgl/lvgl/src/extra/themes/default/../../../../src/hal/../draw/../misc/lv_style.h **** 
 332:Drivers/lvgl/lvgl/src/extra/themes/default/../../../../src/hal/../draw/../misc/lv_style.h ****     uint16_t prop1;
 333:Drivers/lvgl/lvgl/src/extra/themes/default/../../../../src/hal/../draw/../misc/lv_style.h ****     uint8_t has_group;
 334:Drivers/lvgl/lvgl/src/extra/themes/default/../../../../src/hal/../draw/../misc/lv_style.h ****     uint8_t prop_cnt;
ARM GAS  /tmp/cc6wDDAF.s 			page 93


 335:Drivers/lvgl/lvgl/src/extra/themes/default/../../../../src/hal/../draw/../misc/lv_style.h **** } lv_style_t;
 336:Drivers/lvgl/lvgl/src/extra/themes/default/../../../../src/hal/../draw/../misc/lv_style.h **** 
 337:Drivers/lvgl/lvgl/src/extra/themes/default/../../../../src/hal/../draw/../misc/lv_style.h **** /**********************
 338:Drivers/lvgl/lvgl/src/extra/themes/default/../../../../src/hal/../draw/../misc/lv_style.h ****  * GLOBAL PROTOTYPES
 339:Drivers/lvgl/lvgl/src/extra/themes/default/../../../../src/hal/../draw/../misc/lv_style.h ****  **********************/
 340:Drivers/lvgl/lvgl/src/extra/themes/default/../../../../src/hal/../draw/../misc/lv_style.h **** 
 341:Drivers/lvgl/lvgl/src/extra/themes/default/../../../../src/hal/../draw/../misc/lv_style.h **** 
 342:Drivers/lvgl/lvgl/src/extra/themes/default/../../../../src/hal/../draw/../misc/lv_style.h **** /**
 343:Drivers/lvgl/lvgl/src/extra/themes/default/../../../../src/hal/../draw/../misc/lv_style.h ****  * Initialize a style
 344:Drivers/lvgl/lvgl/src/extra/themes/default/../../../../src/hal/../draw/../misc/lv_style.h ****  * @param style pointer to a style to initialize
 345:Drivers/lvgl/lvgl/src/extra/themes/default/../../../../src/hal/../draw/../misc/lv_style.h ****  * @note Do not call `lv_style_init` on styles that already have some properties
 346:Drivers/lvgl/lvgl/src/extra/themes/default/../../../../src/hal/../draw/../misc/lv_style.h ****  *       because this function won't free the used memory, just sets a default state for the style.
 347:Drivers/lvgl/lvgl/src/extra/themes/default/../../../../src/hal/../draw/../misc/lv_style.h ****  *       In other words be sure to initialize styles only once!
 348:Drivers/lvgl/lvgl/src/extra/themes/default/../../../../src/hal/../draw/../misc/lv_style.h ****  */
 349:Drivers/lvgl/lvgl/src/extra/themes/default/../../../../src/hal/../draw/../misc/lv_style.h **** void lv_style_init(lv_style_t * style);
 350:Drivers/lvgl/lvgl/src/extra/themes/default/../../../../src/hal/../draw/../misc/lv_style.h **** 
 351:Drivers/lvgl/lvgl/src/extra/themes/default/../../../../src/hal/../draw/../misc/lv_style.h **** /**
 352:Drivers/lvgl/lvgl/src/extra/themes/default/../../../../src/hal/../draw/../misc/lv_style.h ****  * Clear all properties from a style and free all allocated memories.
 353:Drivers/lvgl/lvgl/src/extra/themes/default/../../../../src/hal/../draw/../misc/lv_style.h ****  * @param style pointer to a style
 354:Drivers/lvgl/lvgl/src/extra/themes/default/../../../../src/hal/../draw/../misc/lv_style.h ****  */
 355:Drivers/lvgl/lvgl/src/extra/themes/default/../../../../src/hal/../draw/../misc/lv_style.h **** void lv_style_reset(lv_style_t * style);
 356:Drivers/lvgl/lvgl/src/extra/themes/default/../../../../src/hal/../draw/../misc/lv_style.h **** 
 357:Drivers/lvgl/lvgl/src/extra/themes/default/../../../../src/hal/../draw/../misc/lv_style.h **** /**
 358:Drivers/lvgl/lvgl/src/extra/themes/default/../../../../src/hal/../draw/../misc/lv_style.h ****  * Register a new style property for custom usage
 359:Drivers/lvgl/lvgl/src/extra/themes/default/../../../../src/hal/../draw/../misc/lv_style.h ****  * @return a new property ID, or LV_STYLE_PROP_INV if there are no more available.
 360:Drivers/lvgl/lvgl/src/extra/themes/default/../../../../src/hal/../draw/../misc/lv_style.h ****  * @example
 361:Drivers/lvgl/lvgl/src/extra/themes/default/../../../../src/hal/../draw/../misc/lv_style.h ****  * lv_style_prop_t MY_PROP;
 362:Drivers/lvgl/lvgl/src/extra/themes/default/../../../../src/hal/../draw/../misc/lv_style.h ****  * static inline void lv_style_set_my_prop(lv_style_t * style, lv_color_t value) {
 363:Drivers/lvgl/lvgl/src/extra/themes/default/../../../../src/hal/../draw/../misc/lv_style.h ****  * lv_style_value_t v = {.color = value}; lv_style_set_prop(style, MY_PROP, v); }
 364:Drivers/lvgl/lvgl/src/extra/themes/default/../../../../src/hal/../draw/../misc/lv_style.h ****  *
 365:Drivers/lvgl/lvgl/src/extra/themes/default/../../../../src/hal/../draw/../misc/lv_style.h ****  * ...
 366:Drivers/lvgl/lvgl/src/extra/themes/default/../../../../src/hal/../draw/../misc/lv_style.h ****  * MY_PROP = lv_style_register_prop();
 367:Drivers/lvgl/lvgl/src/extra/themes/default/../../../../src/hal/../draw/../misc/lv_style.h ****  * ...
 368:Drivers/lvgl/lvgl/src/extra/themes/default/../../../../src/hal/../draw/../misc/lv_style.h ****  * lv_style_set_my_prop(&style1, lv_palette_main(LV_PALETTE_RED));
 369:Drivers/lvgl/lvgl/src/extra/themes/default/../../../../src/hal/../draw/../misc/lv_style.h ****  */
 370:Drivers/lvgl/lvgl/src/extra/themes/default/../../../../src/hal/../draw/../misc/lv_style.h **** lv_style_prop_t lv_style_register_prop(uint8_t flag);
 371:Drivers/lvgl/lvgl/src/extra/themes/default/../../../../src/hal/../draw/../misc/lv_style.h **** 
 372:Drivers/lvgl/lvgl/src/extra/themes/default/../../../../src/hal/../draw/../misc/lv_style.h **** /**
 373:Drivers/lvgl/lvgl/src/extra/themes/default/../../../../src/hal/../draw/../misc/lv_style.h ****  * Get the number of custom properties that have been registered thus far.
 374:Drivers/lvgl/lvgl/src/extra/themes/default/../../../../src/hal/../draw/../misc/lv_style.h ****  */
 375:Drivers/lvgl/lvgl/src/extra/themes/default/../../../../src/hal/../draw/../misc/lv_style.h **** lv_style_prop_t lv_style_get_num_custom_props(void);
 376:Drivers/lvgl/lvgl/src/extra/themes/default/../../../../src/hal/../draw/../misc/lv_style.h **** 
 377:Drivers/lvgl/lvgl/src/extra/themes/default/../../../../src/hal/../draw/../misc/lv_style.h **** /**
 378:Drivers/lvgl/lvgl/src/extra/themes/default/../../../../src/hal/../draw/../misc/lv_style.h ****  * Remove a property from a style
 379:Drivers/lvgl/lvgl/src/extra/themes/default/../../../../src/hal/../draw/../misc/lv_style.h ****  * @param style pointer to a style
 380:Drivers/lvgl/lvgl/src/extra/themes/default/../../../../src/hal/../draw/../misc/lv_style.h ****  * @param prop  a style property ORed with a state.
 381:Drivers/lvgl/lvgl/src/extra/themes/default/../../../../src/hal/../draw/../misc/lv_style.h ****  * @return true: the property was found and removed; false: the property wasn't found
 382:Drivers/lvgl/lvgl/src/extra/themes/default/../../../../src/hal/../draw/../misc/lv_style.h ****  */
 383:Drivers/lvgl/lvgl/src/extra/themes/default/../../../../src/hal/../draw/../misc/lv_style.h **** bool lv_style_remove_prop(lv_style_t * style, lv_style_prop_t prop);
 384:Drivers/lvgl/lvgl/src/extra/themes/default/../../../../src/hal/../draw/../misc/lv_style.h **** 
 385:Drivers/lvgl/lvgl/src/extra/themes/default/../../../../src/hal/../draw/../misc/lv_style.h **** /**
 386:Drivers/lvgl/lvgl/src/extra/themes/default/../../../../src/hal/../draw/../misc/lv_style.h ****  * Set the value of property in a style.
 387:Drivers/lvgl/lvgl/src/extra/themes/default/../../../../src/hal/../draw/../misc/lv_style.h ****  * This function shouldn't be used directly by the user.
 388:Drivers/lvgl/lvgl/src/extra/themes/default/../../../../src/hal/../draw/../misc/lv_style.h ****  * Instead use `lv_style_set_<prop_name>()`. E.g. `lv_style_set_bg_color()`
 389:Drivers/lvgl/lvgl/src/extra/themes/default/../../../../src/hal/../draw/../misc/lv_style.h ****  * @param style pointer to style
 390:Drivers/lvgl/lvgl/src/extra/themes/default/../../../../src/hal/../draw/../misc/lv_style.h ****  * @param prop the ID of a property (e.g. `LV_STYLE_BG_COLOR`)
 391:Drivers/lvgl/lvgl/src/extra/themes/default/../../../../src/hal/../draw/../misc/lv_style.h ****  * @param value `lv_style_value_t` variable in which a field is set according to the type of `prop`
ARM GAS  /tmp/cc6wDDAF.s 			page 94


 392:Drivers/lvgl/lvgl/src/extra/themes/default/../../../../src/hal/../draw/../misc/lv_style.h ****  */
 393:Drivers/lvgl/lvgl/src/extra/themes/default/../../../../src/hal/../draw/../misc/lv_style.h **** void lv_style_set_prop(lv_style_t * style, lv_style_prop_t prop, lv_style_value_t value);
 394:Drivers/lvgl/lvgl/src/extra/themes/default/../../../../src/hal/../draw/../misc/lv_style.h **** 
 395:Drivers/lvgl/lvgl/src/extra/themes/default/../../../../src/hal/../draw/../misc/lv_style.h **** /**
 396:Drivers/lvgl/lvgl/src/extra/themes/default/../../../../src/hal/../draw/../misc/lv_style.h ****  * Set a special meta state for a property in a style.
 397:Drivers/lvgl/lvgl/src/extra/themes/default/../../../../src/hal/../draw/../misc/lv_style.h ****  * This function shouldn't be used directly by the user.
 398:Drivers/lvgl/lvgl/src/extra/themes/default/../../../../src/hal/../draw/../misc/lv_style.h ****  * @param style pointer to style
 399:Drivers/lvgl/lvgl/src/extra/themes/default/../../../../src/hal/../draw/../misc/lv_style.h ****  * @param prop the ID of a property (e.g. `LV_STYLE_BG_COLOR`)
 400:Drivers/lvgl/lvgl/src/extra/themes/default/../../../../src/hal/../draw/../misc/lv_style.h ****  * @param meta the meta value to attach to the property in the style
 401:Drivers/lvgl/lvgl/src/extra/themes/default/../../../../src/hal/../draw/../misc/lv_style.h ****  */
 402:Drivers/lvgl/lvgl/src/extra/themes/default/../../../../src/hal/../draw/../misc/lv_style.h **** void lv_style_set_prop_meta(lv_style_t * style, lv_style_prop_t prop, uint16_t meta);
 403:Drivers/lvgl/lvgl/src/extra/themes/default/../../../../src/hal/../draw/../misc/lv_style.h **** 
 404:Drivers/lvgl/lvgl/src/extra/themes/default/../../../../src/hal/../draw/../misc/lv_style.h **** /**
 405:Drivers/lvgl/lvgl/src/extra/themes/default/../../../../src/hal/../draw/../misc/lv_style.h ****  * Get the value of a property
 406:Drivers/lvgl/lvgl/src/extra/themes/default/../../../../src/hal/../draw/../misc/lv_style.h ****  * @param style pointer to a style
 407:Drivers/lvgl/lvgl/src/extra/themes/default/../../../../src/hal/../draw/../misc/lv_style.h ****  * @param prop  the ID of a property
 408:Drivers/lvgl/lvgl/src/extra/themes/default/../../../../src/hal/../draw/../misc/lv_style.h ****  * @param value pointer to a `lv_style_value_t` variable to store the value
 409:Drivers/lvgl/lvgl/src/extra/themes/default/../../../../src/hal/../draw/../misc/lv_style.h ****  * @return LV_RES_INV: the property wasn't found in the style (`value` is unchanged)
 410:Drivers/lvgl/lvgl/src/extra/themes/default/../../../../src/hal/../draw/../misc/lv_style.h ****  *         LV_RES_OK: the property was fond, and `value` is set accordingly
 411:Drivers/lvgl/lvgl/src/extra/themes/default/../../../../src/hal/../draw/../misc/lv_style.h ****  * @note For performance reasons there are no sanity check on `style`
 412:Drivers/lvgl/lvgl/src/extra/themes/default/../../../../src/hal/../draw/../misc/lv_style.h ****  */
 413:Drivers/lvgl/lvgl/src/extra/themes/default/../../../../src/hal/../draw/../misc/lv_style.h **** lv_style_res_t lv_style_get_prop(const lv_style_t * style, lv_style_prop_t prop, lv_style_value_t *
 414:Drivers/lvgl/lvgl/src/extra/themes/default/../../../../src/hal/../draw/../misc/lv_style.h **** 
 415:Drivers/lvgl/lvgl/src/extra/themes/default/../../../../src/hal/../draw/../misc/lv_style.h **** /**
 416:Drivers/lvgl/lvgl/src/extra/themes/default/../../../../src/hal/../draw/../misc/lv_style.h ****  * Initialize a transition descriptor.
 417:Drivers/lvgl/lvgl/src/extra/themes/default/../../../../src/hal/../draw/../misc/lv_style.h ****  * @param tr        pointer to a transition descriptor to initialize
 418:Drivers/lvgl/lvgl/src/extra/themes/default/../../../../src/hal/../draw/../misc/lv_style.h ****  * @param props     an array with the properties to transition. The last element must be zero.
 419:Drivers/lvgl/lvgl/src/extra/themes/default/../../../../src/hal/../draw/../misc/lv_style.h ****  * @param path_cb   an animation path (ease) callback. If `NULL` liner path will be used.
 420:Drivers/lvgl/lvgl/src/extra/themes/default/../../../../src/hal/../draw/../misc/lv_style.h ****  * @param time      duration of the transition in [ms]
 421:Drivers/lvgl/lvgl/src/extra/themes/default/../../../../src/hal/../draw/../misc/lv_style.h ****  * @param delay     delay before the transition in [ms]
 422:Drivers/lvgl/lvgl/src/extra/themes/default/../../../../src/hal/../draw/../misc/lv_style.h ****  * @param user_data any custom data that will be saved in the transition animation and will be avai
 423:Drivers/lvgl/lvgl/src/extra/themes/default/../../../../src/hal/../draw/../misc/lv_style.h ****  * @example
 424:Drivers/lvgl/lvgl/src/extra/themes/default/../../../../src/hal/../draw/../misc/lv_style.h ****  * const static lv_style_prop_t trans_props[] = { LV_STYLE_BG_OPA, LV_STYLE_BG_COLOR, 0 };
 425:Drivers/lvgl/lvgl/src/extra/themes/default/../../../../src/hal/../draw/../misc/lv_style.h ****  *  static lv_style_transition_dsc_t trans1;
 426:Drivers/lvgl/lvgl/src/extra/themes/default/../../../../src/hal/../draw/../misc/lv_style.h ****  *  lv_style_transition_dsc_init(&trans1, trans_props, NULL, 300, 0, NULL);
 427:Drivers/lvgl/lvgl/src/extra/themes/default/../../../../src/hal/../draw/../misc/lv_style.h ****  */
 428:Drivers/lvgl/lvgl/src/extra/themes/default/../../../../src/hal/../draw/../misc/lv_style.h **** void lv_style_transition_dsc_init(lv_style_transition_dsc_t * tr, const lv_style_prop_t props[],
 429:Drivers/lvgl/lvgl/src/extra/themes/default/../../../../src/hal/../draw/../misc/lv_style.h ****                                   lv_anim_path_cb_t path_cb, uint32_t time, uint32_t delay, void * 
 430:Drivers/lvgl/lvgl/src/extra/themes/default/../../../../src/hal/../draw/../misc/lv_style.h **** 
 431:Drivers/lvgl/lvgl/src/extra/themes/default/../../../../src/hal/../draw/../misc/lv_style.h **** /**
 432:Drivers/lvgl/lvgl/src/extra/themes/default/../../../../src/hal/../draw/../misc/lv_style.h ****  * Get the default value of a property
 433:Drivers/lvgl/lvgl/src/extra/themes/default/../../../../src/hal/../draw/../misc/lv_style.h ****  * @param prop the ID of a property
 434:Drivers/lvgl/lvgl/src/extra/themes/default/../../../../src/hal/../draw/../misc/lv_style.h ****  * @return the default value
 435:Drivers/lvgl/lvgl/src/extra/themes/default/../../../../src/hal/../draw/../misc/lv_style.h ****  */
 436:Drivers/lvgl/lvgl/src/extra/themes/default/../../../../src/hal/../draw/../misc/lv_style.h **** lv_style_value_t lv_style_prop_get_default(lv_style_prop_t prop);
 437:Drivers/lvgl/lvgl/src/extra/themes/default/../../../../src/hal/../draw/../misc/lv_style.h **** 
 438:Drivers/lvgl/lvgl/src/extra/themes/default/../../../../src/hal/../draw/../misc/lv_style.h **** /**
 439:Drivers/lvgl/lvgl/src/extra/themes/default/../../../../src/hal/../draw/../misc/lv_style.h ****  * Get the value of a property
 440:Drivers/lvgl/lvgl/src/extra/themes/default/../../../../src/hal/../draw/../misc/lv_style.h ****  * @param style pointer to a style
 441:Drivers/lvgl/lvgl/src/extra/themes/default/../../../../src/hal/../draw/../misc/lv_style.h ****  * @param prop  the ID of a property
 442:Drivers/lvgl/lvgl/src/extra/themes/default/../../../../src/hal/../draw/../misc/lv_style.h ****  * @param value pointer to a `lv_style_value_t` variable to store the value
 443:Drivers/lvgl/lvgl/src/extra/themes/default/../../../../src/hal/../draw/../misc/lv_style.h ****  * @return LV_RES_INV: the property wasn't found in the style (`value` is unchanged)
 444:Drivers/lvgl/lvgl/src/extra/themes/default/../../../../src/hal/../draw/../misc/lv_style.h ****  *         LV_RES_OK: the property was fond, and `value` is set accordingly
 445:Drivers/lvgl/lvgl/src/extra/themes/default/../../../../src/hal/../draw/../misc/lv_style.h ****  * @note For performance reasons there are no sanity check on `style`
 446:Drivers/lvgl/lvgl/src/extra/themes/default/../../../../src/hal/../draw/../misc/lv_style.h ****  * @note This function is the same as ::lv_style_get_prop but inlined. Use it only on performance c
 447:Drivers/lvgl/lvgl/src/extra/themes/default/../../../../src/hal/../draw/../misc/lv_style.h ****  */
 448:Drivers/lvgl/lvgl/src/extra/themes/default/../../../../src/hal/../draw/../misc/lv_style.h **** static inline lv_style_res_t lv_style_get_prop_inlined(const lv_style_t * style, lv_style_prop_t pr
ARM GAS  /tmp/cc6wDDAF.s 			page 95


 449:Drivers/lvgl/lvgl/src/extra/themes/default/../../../../src/hal/../draw/../misc/lv_style.h ****                                                        lv_style_value_t * value)
 450:Drivers/lvgl/lvgl/src/extra/themes/default/../../../../src/hal/../draw/../misc/lv_style.h **** {
 451:Drivers/lvgl/lvgl/src/extra/themes/default/../../../../src/hal/../draw/../misc/lv_style.h ****     if(style->prop1 == LV_STYLE_PROP_ANY) {
 452:Drivers/lvgl/lvgl/src/extra/themes/default/../../../../src/hal/../draw/../misc/lv_style.h ****         const lv_style_const_prop_t * const_prop;
 453:Drivers/lvgl/lvgl/src/extra/themes/default/../../../../src/hal/../draw/../misc/lv_style.h ****         uint32_t i;
 454:Drivers/lvgl/lvgl/src/extra/themes/default/../../../../src/hal/../draw/../misc/lv_style.h ****         for(i = 0; i < style->prop_cnt; i++) {
 455:Drivers/lvgl/lvgl/src/extra/themes/default/../../../../src/hal/../draw/../misc/lv_style.h ****             const_prop = style->v_p.const_props + i;
 456:Drivers/lvgl/lvgl/src/extra/themes/default/../../../../src/hal/../draw/../misc/lv_style.h ****             lv_style_prop_t prop_id = LV_STYLE_PROP_ID_MASK(const_prop->prop);
 457:Drivers/lvgl/lvgl/src/extra/themes/default/../../../../src/hal/../draw/../misc/lv_style.h ****             if(prop_id == prop) {
 458:Drivers/lvgl/lvgl/src/extra/themes/default/../../../../src/hal/../draw/../misc/lv_style.h ****                 if(const_prop->prop & LV_STYLE_PROP_META_INHERIT)
 459:Drivers/lvgl/lvgl/src/extra/themes/default/../../../../src/hal/../draw/../misc/lv_style.h ****                     return LV_STYLE_RES_INHERIT;
 460:Drivers/lvgl/lvgl/src/extra/themes/default/../../../../src/hal/../draw/../misc/lv_style.h ****                 *value = (const_prop->prop & LV_STYLE_PROP_META_INITIAL) ? lv_style_prop_get_defaul
 461:Drivers/lvgl/lvgl/src/extra/themes/default/../../../../src/hal/../draw/../misc/lv_style.h ****                 return LV_STYLE_RES_FOUND;
 462:Drivers/lvgl/lvgl/src/extra/themes/default/../../../../src/hal/../draw/../misc/lv_style.h ****             }
 463:Drivers/lvgl/lvgl/src/extra/themes/default/../../../../src/hal/../draw/../misc/lv_style.h ****         }
 464:Drivers/lvgl/lvgl/src/extra/themes/default/../../../../src/hal/../draw/../misc/lv_style.h ****         return LV_STYLE_RES_NOT_FOUND;
 465:Drivers/lvgl/lvgl/src/extra/themes/default/../../../../src/hal/../draw/../misc/lv_style.h ****     }
 466:Drivers/lvgl/lvgl/src/extra/themes/default/../../../../src/hal/../draw/../misc/lv_style.h **** 
 467:Drivers/lvgl/lvgl/src/extra/themes/default/../../../../src/hal/../draw/../misc/lv_style.h ****     if(style->prop_cnt == 0) return LV_STYLE_RES_NOT_FOUND;
 468:Drivers/lvgl/lvgl/src/extra/themes/default/../../../../src/hal/../draw/../misc/lv_style.h **** 
 469:Drivers/lvgl/lvgl/src/extra/themes/default/../../../../src/hal/../draw/../misc/lv_style.h ****     if(style->prop_cnt > 1) {
 470:Drivers/lvgl/lvgl/src/extra/themes/default/../../../../src/hal/../draw/../misc/lv_style.h ****         uint8_t * tmp = style->v_p.values_and_props + style->prop_cnt * sizeof(lv_style_value_t);
 471:Drivers/lvgl/lvgl/src/extra/themes/default/../../../../src/hal/../draw/../misc/lv_style.h ****         uint16_t * props = (uint16_t *)tmp;
 472:Drivers/lvgl/lvgl/src/extra/themes/default/../../../../src/hal/../draw/../misc/lv_style.h ****         uint32_t i;
 473:Drivers/lvgl/lvgl/src/extra/themes/default/../../../../src/hal/../draw/../misc/lv_style.h ****         for(i = 0; i < style->prop_cnt; i++) {
 474:Drivers/lvgl/lvgl/src/extra/themes/default/../../../../src/hal/../draw/../misc/lv_style.h ****             lv_style_prop_t prop_id = LV_STYLE_PROP_ID_MASK(props[i]);
 475:Drivers/lvgl/lvgl/src/extra/themes/default/../../../../src/hal/../draw/../misc/lv_style.h ****             if(prop_id == prop) {
 476:Drivers/lvgl/lvgl/src/extra/themes/default/../../../../src/hal/../draw/../misc/lv_style.h ****                 if(props[i] & LV_STYLE_PROP_META_INHERIT)
 477:Drivers/lvgl/lvgl/src/extra/themes/default/../../../../src/hal/../draw/../misc/lv_style.h ****                     return LV_STYLE_RES_INHERIT;
 478:Drivers/lvgl/lvgl/src/extra/themes/default/../../../../src/hal/../draw/../misc/lv_style.h ****                 if(props[i] & LV_STYLE_PROP_META_INITIAL)
 479:Drivers/lvgl/lvgl/src/extra/themes/default/../../../../src/hal/../draw/../misc/lv_style.h ****                     *value = lv_style_prop_get_default(prop_id);
 480:Drivers/lvgl/lvgl/src/extra/themes/default/../../../../src/hal/../draw/../misc/lv_style.h ****                 else {
 481:Drivers/lvgl/lvgl/src/extra/themes/default/../../../../src/hal/../draw/../misc/lv_style.h ****                     lv_style_value_t * values = (lv_style_value_t *)style->v_p.values_and_props;
 482:Drivers/lvgl/lvgl/src/extra/themes/default/../../../../src/hal/../draw/../misc/lv_style.h ****                     *value = values[i];
 483:Drivers/lvgl/lvgl/src/extra/themes/default/../../../../src/hal/../draw/../misc/lv_style.h ****                 }
 484:Drivers/lvgl/lvgl/src/extra/themes/default/../../../../src/hal/../draw/../misc/lv_style.h ****                 return LV_STYLE_RES_FOUND;
 485:Drivers/lvgl/lvgl/src/extra/themes/default/../../../../src/hal/../draw/../misc/lv_style.h ****             }
 486:Drivers/lvgl/lvgl/src/extra/themes/default/../../../../src/hal/../draw/../misc/lv_style.h ****         }
 487:Drivers/lvgl/lvgl/src/extra/themes/default/../../../../src/hal/../draw/../misc/lv_style.h ****     }
 488:Drivers/lvgl/lvgl/src/extra/themes/default/../../../../src/hal/../draw/../misc/lv_style.h ****     else if(LV_STYLE_PROP_ID_MASK(style->prop1) == prop) {
 489:Drivers/lvgl/lvgl/src/extra/themes/default/../../../../src/hal/../draw/../misc/lv_style.h ****         if(style->prop1 & LV_STYLE_PROP_META_INHERIT)
 490:Drivers/lvgl/lvgl/src/extra/themes/default/../../../../src/hal/../draw/../misc/lv_style.h ****             return LV_STYLE_RES_INHERIT;
 491:Drivers/lvgl/lvgl/src/extra/themes/default/../../../../src/hal/../draw/../misc/lv_style.h ****         *value = (style->prop1 & LV_STYLE_PROP_META_INITIAL) ? lv_style_prop_get_default(LV_STYLE_P
 492:Drivers/lvgl/lvgl/src/extra/themes/default/../../../../src/hal/../draw/../misc/lv_style.h ****                                                                                              style-
 493:Drivers/lvgl/lvgl/src/extra/themes/default/../../../../src/hal/../draw/../misc/lv_style.h ****         return LV_STYLE_RES_FOUND;
 494:Drivers/lvgl/lvgl/src/extra/themes/default/../../../../src/hal/../draw/../misc/lv_style.h ****     }
 495:Drivers/lvgl/lvgl/src/extra/themes/default/../../../../src/hal/../draw/../misc/lv_style.h ****     return LV_STYLE_RES_NOT_FOUND;
 496:Drivers/lvgl/lvgl/src/extra/themes/default/../../../../src/hal/../draw/../misc/lv_style.h **** }
 497:Drivers/lvgl/lvgl/src/extra/themes/default/../../../../src/hal/../draw/../misc/lv_style.h **** 
 498:Drivers/lvgl/lvgl/src/extra/themes/default/../../../../src/hal/../draw/../misc/lv_style.h **** /**
 499:Drivers/lvgl/lvgl/src/extra/themes/default/../../../../src/hal/../draw/../misc/lv_style.h ****  * Checks if a style is empty (has no properties)
 500:Drivers/lvgl/lvgl/src/extra/themes/default/../../../../src/hal/../draw/../misc/lv_style.h ****  * @param style pointer to a style
 501:Drivers/lvgl/lvgl/src/extra/themes/default/../../../../src/hal/../draw/../misc/lv_style.h ****  * @return true if the style is empty
 502:Drivers/lvgl/lvgl/src/extra/themes/default/../../../../src/hal/../draw/../misc/lv_style.h ****  */
 503:Drivers/lvgl/lvgl/src/extra/themes/default/../../../../src/hal/../draw/../misc/lv_style.h **** bool lv_style_is_empty(const lv_style_t * style);
 504:Drivers/lvgl/lvgl/src/extra/themes/default/../../../../src/hal/../draw/../misc/lv_style.h **** 
 505:Drivers/lvgl/lvgl/src/extra/themes/default/../../../../src/hal/../draw/../misc/lv_style.h **** /**
ARM GAS  /tmp/cc6wDDAF.s 			page 96


 506:Drivers/lvgl/lvgl/src/extra/themes/default/../../../../src/hal/../draw/../misc/lv_style.h ****  * Tell the group of a property. If the a property from a group is set in a style the (1 << group) 
 507:Drivers/lvgl/lvgl/src/extra/themes/default/../../../../src/hal/../draw/../misc/lv_style.h ****  * It allows early skipping the style if the property is not exists in the style at all.
 508:Drivers/lvgl/lvgl/src/extra/themes/default/../../../../src/hal/../draw/../misc/lv_style.h ****  * @param prop a style property
 509:Drivers/lvgl/lvgl/src/extra/themes/default/../../../../src/hal/../draw/../misc/lv_style.h ****  * @return the group [0..7] 7 means all the custom properties with index > 112
 510:Drivers/lvgl/lvgl/src/extra/themes/default/../../../../src/hal/../draw/../misc/lv_style.h ****  */
 511:Drivers/lvgl/lvgl/src/extra/themes/default/../../../../src/hal/../draw/../misc/lv_style.h **** uint8_t _lv_style_get_prop_group(lv_style_prop_t prop);
 512:Drivers/lvgl/lvgl/src/extra/themes/default/../../../../src/hal/../draw/../misc/lv_style.h **** 
 513:Drivers/lvgl/lvgl/src/extra/themes/default/../../../../src/hal/../draw/../misc/lv_style.h **** /**
 514:Drivers/lvgl/lvgl/src/extra/themes/default/../../../../src/hal/../draw/../misc/lv_style.h ****  * Get the flags of a built-in or custom property.
 515:Drivers/lvgl/lvgl/src/extra/themes/default/../../../../src/hal/../draw/../misc/lv_style.h ****  *
 516:Drivers/lvgl/lvgl/src/extra/themes/default/../../../../src/hal/../draw/../misc/lv_style.h ****  * @param prop a style property
 517:Drivers/lvgl/lvgl/src/extra/themes/default/../../../../src/hal/../draw/../misc/lv_style.h ****  * @return the flags of the property
 518:Drivers/lvgl/lvgl/src/extra/themes/default/../../../../src/hal/../draw/../misc/lv_style.h ****  */
 519:Drivers/lvgl/lvgl/src/extra/themes/default/../../../../src/hal/../draw/../misc/lv_style.h **** uint8_t _lv_style_prop_lookup_flags(lv_style_prop_t prop);
 520:Drivers/lvgl/lvgl/src/extra/themes/default/../../../../src/hal/../draw/../misc/lv_style.h **** 
 521:Drivers/lvgl/lvgl/src/extra/themes/default/../../../../src/hal/../draw/../misc/lv_style.h **** #include "lv_style_gen.h"
 522:Drivers/lvgl/lvgl/src/extra/themes/default/../../../../src/hal/../draw/../misc/lv_style.h **** 
 523:Drivers/lvgl/lvgl/src/extra/themes/default/../../../../src/hal/../draw/../misc/lv_style.h **** static inline void lv_style_set_size(lv_style_t * style, lv_coord_t value)
 524:Drivers/lvgl/lvgl/src/extra/themes/default/../../../../src/hal/../draw/../misc/lv_style.h **** {
 525:Drivers/lvgl/lvgl/src/extra/themes/default/../../../../src/hal/../draw/../misc/lv_style.h ****     lv_style_set_width(style, value);
 526:Drivers/lvgl/lvgl/src/extra/themes/default/../../../../src/hal/../draw/../misc/lv_style.h ****     lv_style_set_height(style, value);
 527:Drivers/lvgl/lvgl/src/extra/themes/default/../../../../src/hal/../draw/../misc/lv_style.h **** }
 528:Drivers/lvgl/lvgl/src/extra/themes/default/../../../../src/hal/../draw/../misc/lv_style.h **** 
 529:Drivers/lvgl/lvgl/src/extra/themes/default/../../../../src/hal/../draw/../misc/lv_style.h **** static inline void lv_style_set_pad_all(lv_style_t * style, lv_coord_t value)
 530:Drivers/lvgl/lvgl/src/extra/themes/default/../../../../src/hal/../draw/../misc/lv_style.h **** {
 531:Drivers/lvgl/lvgl/src/extra/themes/default/../../../../src/hal/../draw/../misc/lv_style.h ****     lv_style_set_pad_left(style, value);
 2710              		.loc 4 531 0
 2711 0102 2146     		mov	r1, r4
 2712 0104 2846     		mov	r0, r5
 2713 0106 FFF7FEFF 		bl	lv_style_set_pad_left
 2714              	.LVL359:
 532:Drivers/lvgl/lvgl/src/extra/themes/default/../../../../src/hal/../draw/../misc/lv_style.h ****     lv_style_set_pad_right(style, value);
 2715              		.loc 4 532 0
 2716 010a 2146     		mov	r1, r4
 2717 010c 2846     		mov	r0, r5
 2718 010e FFF7FEFF 		bl	lv_style_set_pad_right
 2719              	.LVL360:
 533:Drivers/lvgl/lvgl/src/extra/themes/default/../../../../src/hal/../draw/../misc/lv_style.h ****     lv_style_set_pad_top(style, value);
 2720              		.loc 4 533 0
 2721 0112 2146     		mov	r1, r4
 2722 0114 2846     		mov	r0, r5
 2723 0116 FFF7FEFF 		bl	lv_style_set_pad_top
 2724              	.LVL361:
 534:Drivers/lvgl/lvgl/src/extra/themes/default/../../../../src/hal/../draw/../misc/lv_style.h ****     lv_style_set_pad_bottom(style, value);
 2725              		.loc 4 534 0
 2726 011a 2146     		mov	r1, r4
 2727 011c 2846     		mov	r0, r5
 2728 011e FFF7FEFF 		bl	lv_style_set_pad_bottom
 2729              	.LVL362:
 2730              	.LBE549:
 2731              	.LBE548:
 242:Drivers/lvgl/lvgl/src/extra/themes/default/lv_theme_default.c ****     lv_style_set_bg_opa(&styles->scrollbar,  LV_OPA_40);
 2732              		.loc 1 242 0
 2733 0122 874B     		ldr	r3, .L807+20
 2734 0124 1C68     		ldr	r4, [r3]
 2735 0126 0834     		adds	r4, r4, #8
 2736 0128 804B     		ldr	r3, .L807
ARM GAS  /tmp/cc6wDDAF.s 			page 97


 2737 012a DD68     		ldr	r5, [r3, #12]
 2738              	.LVL363:
 2739              	.LBB550:
 2740              	.LBB551:
 2741              		.loc 3 257 0
 2742 012c 2846     		mov	r0, r5
 2743 012e FFF7FEFF 		bl	lv_disp_get_dpi
 2744              	.LVL364:
 2745 0132 00EB8000 		add	r0, r0, r0, lsl #2
 2746 0136 5030     		adds	r0, r0, #80
 2747 0138 B0F5A07F 		cmp	r0, #320
 2748 013c 81F2BA85 		bge	.L561
 2749 0140 0121     		movs	r1, #1
 2750              	.L111:
 2751              	.LVL365:
 2752              	.LBE551:
 2753              	.LBE550:
 242:Drivers/lvgl/lvgl/src/extra/themes/default/lv_theme_default.c ****     lv_style_set_bg_opa(&styles->scrollbar,  LV_OPA_40);
 2754              		.loc 1 242 0
 2755 0142 2046     		mov	r0, r4
 2756 0144 FFF7FEFF 		bl	lv_style_set_width
 2757              	.LVL366:
 243:Drivers/lvgl/lvgl/src/extra/themes/default/lv_theme_default.c **** #if TRANSITION_TIME
 2758              		.loc 1 243 0
 2759 0148 7D4C     		ldr	r4, .L807+20
 2760 014a 2068     		ldr	r0, [r4]
 2761 014c 6621     		movs	r1, #102
 2762 014e 0830     		adds	r0, r0, #8
 2763 0150 FFF7FEFF 		bl	lv_style_set_bg_opa
 2764              	.LVL367:
 245:Drivers/lvgl/lvgl/src/extra/themes/default/lv_theme_default.c **** #endif
 2765              		.loc 1 245 0
 2766 0154 2068     		ldr	r0, [r4]
 2767 0156 7C49     		ldr	r1, .L807+28
 2768 0158 0830     		adds	r0, r0, #8
 2769 015a FFF7FEFF 		bl	lv_style_set_transition
 2770              	.LVL368:
 248:Drivers/lvgl/lvgl/src/extra/themes/default/lv_theme_default.c ****     lv_style_set_bg_opa(&styles->scrollbar_scrolled,  LV_OPA_COVER);
 2771              		.loc 1 248 0
 2772 015e 2068     		ldr	r0, [r4]
 2773 0160 1030     		adds	r0, r0, #16
 2774 0162 FFF7FEFF 		bl	style_init_reset
 2775              	.LVL369:
 249:Drivers/lvgl/lvgl/src/extra/themes/default/lv_theme_default.c **** 
 2776              		.loc 1 249 0
 2777 0166 2068     		ldr	r0, [r4]
 2778 0168 FF21     		movs	r1, #255
 2779 016a 1030     		adds	r0, r0, #16
 2780 016c FFF7FEFF 		bl	lv_style_set_bg_opa
 2781              	.LVL370:
 251:Drivers/lvgl/lvgl/src/extra/themes/default/lv_theme_default.c ****     lv_style_set_bg_opa(&styles->scr, LV_OPA_COVER);
 2782              		.loc 1 251 0
 2783 0170 2068     		ldr	r0, [r4]
 2784 0172 FFF7FEFF 		bl	style_init_reset
 2785              	.LVL371:
 252:Drivers/lvgl/lvgl/src/extra/themes/default/lv_theme_default.c ****     lv_style_set_bg_color(&styles->scr, color_scr);
 2786              		.loc 1 252 0
ARM GAS  /tmp/cc6wDDAF.s 			page 98


 2787 0176 FF21     		movs	r1, #255
 2788 0178 2068     		ldr	r0, [r4]
 2789 017a FFF7FEFF 		bl	lv_style_set_bg_opa
 2790              	.LVL372:
 253:Drivers/lvgl/lvgl/src/extra/themes/default/lv_theme_default.c ****     lv_style_set_text_color(&styles->scr, color_text);
 2791              		.loc 1 253 0
 2792 017e 6C4B     		ldr	r3, .L807+4
 2793 0180 1988     		ldrh	r1, [r3]
 2794 0182 2068     		ldr	r0, [r4]
 2795 0184 FFF7FEFF 		bl	lv_style_set_bg_color
 2796              	.LVL373:
 254:Drivers/lvgl/lvgl/src/extra/themes/default/lv_theme_default.c ****     lv_style_set_pad_row(&styles->scr, PAD_SMALL);
 2797              		.loc 1 254 0
 2798 0188 6A4B     		ldr	r3, .L807+8
 2799 018a 1988     		ldrh	r1, [r3]
 2800 018c 2068     		ldr	r0, [r4]
 2801 018e FFF7FEFF 		bl	lv_style_set_text_color
 2802              	.LVL374:
 255:Drivers/lvgl/lvgl/src/extra/themes/default/lv_theme_default.c ****     lv_style_set_pad_column(&styles->scr, PAD_SMALL);
 2803              		.loc 1 255 0
 2804 0192 2468     		ldr	r4, [r4]
 2805 0194 6D4B     		ldr	r3, .L807+32
 2806 0196 1B78     		ldrb	r3, [r3]	@ zero_extendqisi2
 2807 0198 012B     		cmp	r3, #1
 2808 019a 01F09A85 		beq	.L562
 255:Drivers/lvgl/lvgl/src/extra/themes/default/lv_theme_default.c ****     lv_style_set_pad_column(&styles->scr, PAD_SMALL);
 2809              		.loc 1 255 0 is_stmt 0 discriminator 2
 2810 019e 022B     		cmp	r3, #2
 2811 01a0 01F0B685 		beq	.L563
 255:Drivers/lvgl/lvgl/src/extra/themes/default/lv_theme_default.c ****     lv_style_set_pad_column(&styles->scr, PAD_SMALL);
 2812              		.loc 1 255 0 discriminator 5
 2813 01a4 614B     		ldr	r3, .L807
 2814 01a6 DD68     		ldr	r5, [r3, #12]
 2815              	.LVL375:
 2816              	.LBB553:
 2817              	.LBB554:
 2818              		.loc 3 257 0 is_stmt 1 discriminator 5
 2819 01a8 2846     		mov	r0, r5
 2820 01aa FFF7FEFF 		bl	lv_disp_get_dpi
 2821              	.LVL376:
 2822 01ae 00EB8000 		add	r0, r0, r0, lsl #2
 2823 01b2 4000     		lsls	r0, r0, #1
 2824 01b4 5030     		adds	r0, r0, #80
 2825 01b6 B0F5A07F 		cmp	r0, #320
 2826 01ba 81F2C885 		bge	.L564
 2827              		.loc 3 257 0 is_stmt 0
 2828 01be 0121     		movs	r1, #1
 2829              	.LVL377:
 2830              	.L114:
 2831              	.LBE554:
 2832              	.LBE553:
 255:Drivers/lvgl/lvgl/src/extra/themes/default/lv_theme_default.c ****     lv_style_set_pad_column(&styles->scr, PAD_SMALL);
 2833              		.loc 1 255 0 is_stmt 1 discriminator 8
 2834 01c0 2046     		mov	r0, r4
 2835 01c2 FFF7FEFF 		bl	lv_style_set_pad_row
 2836              	.LVL378:
 256:Drivers/lvgl/lvgl/src/extra/themes/default/lv_theme_default.c **** 
ARM GAS  /tmp/cc6wDDAF.s 			page 99


 2837              		.loc 1 256 0 discriminator 8
 2838 01c6 5E4B     		ldr	r3, .L807+20
 2839 01c8 1C68     		ldr	r4, [r3]
 2840 01ca 604B     		ldr	r3, .L807+32
 2841 01cc 1B78     		ldrb	r3, [r3]	@ zero_extendqisi2
 2842 01ce 012B     		cmp	r3, #1
 2843 01d0 01F0CD85 		beq	.L565
 256:Drivers/lvgl/lvgl/src/extra/themes/default/lv_theme_default.c **** 
 2844              		.loc 1 256 0 is_stmt 0 discriminator 2
 2845 01d4 022B     		cmp	r3, #2
 2846 01d6 01F0E985 		beq	.L566
 256:Drivers/lvgl/lvgl/src/extra/themes/default/lv_theme_default.c **** 
 2847              		.loc 1 256 0 discriminator 5
 2848 01da 544B     		ldr	r3, .L807
 2849 01dc DD68     		ldr	r5, [r3, #12]
 2850              	.LVL379:
 2851              	.LBB556:
 2852              	.LBB557:
 2853              		.loc 3 257 0 is_stmt 1 discriminator 5
 2854 01de 2846     		mov	r0, r5
 2855 01e0 FFF7FEFF 		bl	lv_disp_get_dpi
 2856              	.LVL380:
 2857 01e4 00EB8000 		add	r0, r0, r0, lsl #2
 2858 01e8 4000     		lsls	r0, r0, #1
 2859 01ea 5030     		adds	r0, r0, #80
 2860 01ec B0F5A07F 		cmp	r0, #320
 2861 01f0 81F2FB85 		bge	.L567
 2862              		.loc 3 257 0 is_stmt 0
 2863 01f4 0121     		movs	r1, #1
 2864              	.LVL381:
 2865              	.L120:
 2866              	.LBE557:
 2867              	.LBE556:
 256:Drivers/lvgl/lvgl/src/extra/themes/default/lv_theme_default.c **** 
 2868              		.loc 1 256 0 is_stmt 1 discriminator 8
 2869 01f6 2046     		mov	r0, r4
 2870 01f8 FFF7FEFF 		bl	lv_style_set_pad_column
 2871              	.LVL382:
 258:Drivers/lvgl/lvgl/src/extra/themes/default/lv_theme_default.c ****     lv_style_set_radius(&styles->card, RADIUS_DEFAULT);
 2872              		.loc 1 258 0 discriminator 8
 2873 01fc 504C     		ldr	r4, .L807+20
 2874 01fe 2068     		ldr	r0, [r4]
 2875 0200 1830     		adds	r0, r0, #24
 2876 0202 FFF7FEFF 		bl	style_init_reset
 2877              	.LVL383:
 259:Drivers/lvgl/lvgl/src/extra/themes/default/lv_theme_default.c ****     lv_style_set_bg_opa(&styles->card, LV_OPA_COVER);
 2878              		.loc 1 259 0 discriminator 8
 2879 0206 2468     		ldr	r4, [r4]
 2880 0208 1834     		adds	r4, r4, #24
 2881 020a 504B     		ldr	r3, .L807+32
 2882 020c 1B78     		ldrb	r3, [r3]	@ zero_extendqisi2
 2883 020e 012B     		cmp	r3, #1
 2884 0210 01F0FB85 		beq	.L568
 259:Drivers/lvgl/lvgl/src/extra/themes/default/lv_theme_default.c ****     lv_style_set_bg_opa(&styles->card, LV_OPA_COVER);
 2885              		.loc 1 259 0 is_stmt 0 discriminator 2
 2886 0214 454B     		ldr	r3, .L807
 2887 0216 DD68     		ldr	r5, [r3, #12]
ARM GAS  /tmp/cc6wDDAF.s 			page 100


 2888              	.LVL384:
 2889              	.LBB559:
 2890              	.LBB560:
 2891              		.loc 3 257 0 is_stmt 1 discriminator 2
 2892 0218 2846     		mov	r0, r5
 2893 021a FFF7FEFF 		bl	lv_disp_get_dpi
 2894              	.LVL385:
 2895 021e C000     		lsls	r0, r0, #3
 2896 0220 5030     		adds	r0, r0, #80
 2897 0222 B0F5A07F 		cmp	r0, #320
 2898 0226 81F20F86 		bge	.L569
 2899              		.loc 3 257 0 is_stmt 0
 2900 022a 0121     		movs	r1, #1
 2901              	.LVL386:
 2902              	.L126:
 2903              	.LBE560:
 2904              	.LBE559:
 259:Drivers/lvgl/lvgl/src/extra/themes/default/lv_theme_default.c ****     lv_style_set_bg_opa(&styles->card, LV_OPA_COVER);
 2905              		.loc 1 259 0 is_stmt 1 discriminator 4
 2906 022c 2046     		mov	r0, r4
 2907 022e FFF7FEFF 		bl	lv_style_set_radius
 2908              	.LVL387:
 260:Drivers/lvgl/lvgl/src/extra/themes/default/lv_theme_default.c ****     lv_style_set_bg_color(&styles->card, color_card);
 2909              		.loc 1 260 0 discriminator 4
 2910 0232 434C     		ldr	r4, .L807+20
 2911 0234 2068     		ldr	r0, [r4]
 2912 0236 FF21     		movs	r1, #255
 2913 0238 1830     		adds	r0, r0, #24
 2914 023a FFF7FEFF 		bl	lv_style_set_bg_opa
 2915              	.LVL388:
 261:Drivers/lvgl/lvgl/src/extra/themes/default/lv_theme_default.c ****     lv_style_set_border_color(&styles->card, color_grey);
 2916              		.loc 1 261 0 discriminator 4
 2917 023e 2068     		ldr	r0, [r4]
 2918 0240 3D4B     		ldr	r3, .L807+12
 2919 0242 1988     		ldrh	r1, [r3]
 2920 0244 1830     		adds	r0, r0, #24
 2921 0246 FFF7FEFF 		bl	lv_style_set_bg_color
 2922              	.LVL389:
 262:Drivers/lvgl/lvgl/src/extra/themes/default/lv_theme_default.c ****     lv_style_set_border_width(&styles->card, BORDER_WIDTH);
 2923              		.loc 1 262 0 discriminator 4
 2924 024a 2068     		ldr	r0, [r4]
 2925 024c 3B4B     		ldr	r3, .L807+16
 2926 024e 1988     		ldrh	r1, [r3]
 2927 0250 1830     		adds	r0, r0, #24
 2928 0252 FFF7FEFF 		bl	lv_style_set_border_color
 2929              	.LVL390:
 263:Drivers/lvgl/lvgl/src/extra/themes/default/lv_theme_default.c ****     lv_style_set_border_post(&styles->card, true);
 2930              		.loc 1 263 0 discriminator 4
 2931 0256 2468     		ldr	r4, [r4]
 2932 0258 1834     		adds	r4, r4, #24
 2933 025a 344B     		ldr	r3, .L807
 2934 025c DD68     		ldr	r5, [r3, #12]
 2935              	.LVL391:
 2936              	.LBB562:
 2937              	.LBB563:
 2938              		.loc 3 257 0 discriminator 4
 2939 025e 2846     		mov	r0, r5
ARM GAS  /tmp/cc6wDDAF.s 			page 101


 2940 0260 FFF7FEFF 		bl	lv_disp_get_dpi
 2941              	.LVL392:
 2942 0264 4000     		lsls	r0, r0, #1
 2943 0266 5030     		adds	r0, r0, #80
 2944 0268 B0F5A07F 		cmp	r0, #320
 2945 026c 81F2FA85 		bge	.L570
 2946              		.loc 3 257 0 is_stmt 0
 2947 0270 0121     		movs	r1, #1
 2948              	.L128:
 2949              	.LVL393:
 2950              	.LBE563:
 2951              	.LBE562:
 263:Drivers/lvgl/lvgl/src/extra/themes/default/lv_theme_default.c ****     lv_style_set_border_post(&styles->card, true);
 2952              		.loc 1 263 0 is_stmt 1
 2953 0272 2046     		mov	r0, r4
 2954 0274 FFF7FEFF 		bl	lv_style_set_border_width
 2955              	.LVL394:
 264:Drivers/lvgl/lvgl/src/extra/themes/default/lv_theme_default.c ****     lv_style_set_text_color(&styles->card, color_text);
 2956              		.loc 1 264 0
 2957 0278 314C     		ldr	r4, .L807+20
 2958 027a 2068     		ldr	r0, [r4]
 2959 027c 0121     		movs	r1, #1
 2960 027e 1830     		adds	r0, r0, #24
 2961 0280 FFF7FEFF 		bl	lv_style_set_border_post
 2962              	.LVL395:
 265:Drivers/lvgl/lvgl/src/extra/themes/default/lv_theme_default.c ****     lv_style_set_pad_all(&styles->card, PAD_DEF);
 2963              		.loc 1 265 0
 2964 0284 2068     		ldr	r0, [r4]
 2965 0286 2B4B     		ldr	r3, .L807+8
 2966 0288 1988     		ldrh	r1, [r3]
 2967 028a 1830     		adds	r0, r0, #24
 2968 028c FFF7FEFF 		bl	lv_style_set_text_color
 2969              	.LVL396:
 266:Drivers/lvgl/lvgl/src/extra/themes/default/lv_theme_default.c ****     lv_style_set_pad_row(&styles->card, PAD_SMALL);
 2970              		.loc 1 266 0
 2971 0290 2568     		ldr	r5, [r4]
 2972 0292 1835     		adds	r5, r5, #24
 2973 0294 2D4B     		ldr	r3, .L807+32
 2974 0296 1B78     		ldrb	r3, [r3]	@ zero_extendqisi2
 2975 0298 012B     		cmp	r3, #1
 2976 029a 01F0F185 		beq	.L571
 266:Drivers/lvgl/lvgl/src/extra/themes/default/lv_theme_default.c ****     lv_style_set_pad_row(&styles->card, PAD_SMALL);
 2977              		.loc 1 266 0 is_stmt 0 discriminator 2
 2978 029e 022B     		cmp	r3, #2
 2979 02a0 01F00D86 		beq	.L572
 266:Drivers/lvgl/lvgl/src/extra/themes/default/lv_theme_default.c ****     lv_style_set_pad_row(&styles->card, PAD_SMALL);
 2980              		.loc 1 266 0 discriminator 5
 2981 02a4 214B     		ldr	r3, .L807
 2982 02a6 DC68     		ldr	r4, [r3, #12]
 2983              	.LVL397:
 2984              	.LBB565:
 2985              	.LBB566:
 2986              		.loc 3 257 0 is_stmt 1 discriminator 5
 2987 02a8 2046     		mov	r0, r4
 2988 02aa FFF7FEFF 		bl	lv_disp_get_dpi
 2989              	.LVL398:
 2990 02ae 0001     		lsls	r0, r0, #4
ARM GAS  /tmp/cc6wDDAF.s 			page 102


 2991 02b0 5030     		adds	r0, r0, #80
 2992 02b2 B0F5A07F 		cmp	r0, #320
 2993 02b6 81F22186 		bge	.L573
 2994              		.loc 3 257 0 is_stmt 0
 2995 02ba 0124     		movs	r4, #1
 2996              	.LVL399:
 2997              	.L131:
 2998              	.LBE566:
 2999              	.LBE565:
 3000              	.LBB568:
 3001              	.LBB569:
 531:Drivers/lvgl/lvgl/src/extra/themes/default/../../../../src/hal/../draw/../misc/lv_style.h ****     lv_style_set_pad_right(style, value);
 3002              		.loc 4 531 0 is_stmt 1 discriminator 8
 3003 02bc 2146     		mov	r1, r4
 3004 02be 2846     		mov	r0, r5
 3005 02c0 FFF7FEFF 		bl	lv_style_set_pad_left
 3006              	.LVL400:
 532:Drivers/lvgl/lvgl/src/extra/themes/default/../../../../src/hal/../draw/../misc/lv_style.h ****     lv_style_set_pad_top(style, value);
 3007              		.loc 4 532 0 discriminator 8
 3008 02c4 2146     		mov	r1, r4
 3009 02c6 2846     		mov	r0, r5
 3010 02c8 FFF7FEFF 		bl	lv_style_set_pad_right
 3011              	.LVL401:
 533:Drivers/lvgl/lvgl/src/extra/themes/default/../../../../src/hal/../draw/../misc/lv_style.h ****     lv_style_set_pad_bottom(style, value);
 3012              		.loc 4 533 0 discriminator 8
 3013 02cc 2146     		mov	r1, r4
 3014 02ce 2846     		mov	r0, r5
 3015 02d0 FFF7FEFF 		bl	lv_style_set_pad_top
 3016              	.LVL402:
 3017              		.loc 4 534 0 discriminator 8
 3018 02d4 2146     		mov	r1, r4
 3019 02d6 2846     		mov	r0, r5
 3020 02d8 FFF7FEFF 		bl	lv_style_set_pad_bottom
 3021              	.LVL403:
 3022              	.LBE569:
 3023              	.LBE568:
 267:Drivers/lvgl/lvgl/src/extra/themes/default/lv_theme_default.c ****     lv_style_set_pad_column(&styles->card, PAD_SMALL);
 3024              		.loc 1 267 0 discriminator 8
 3025 02dc 184B     		ldr	r3, .L807+20
 3026 02de 1C68     		ldr	r4, [r3]
 3027 02e0 1834     		adds	r4, r4, #24
 3028 02e2 1A4B     		ldr	r3, .L807+32
 3029 02e4 1B78     		ldrb	r3, [r3]	@ zero_extendqisi2
 3030 02e6 012B     		cmp	r3, #1
 3031 02e8 01F01686 		beq	.L574
 267:Drivers/lvgl/lvgl/src/extra/themes/default/lv_theme_default.c ****     lv_style_set_pad_column(&styles->card, PAD_SMALL);
 3032              		.loc 1 267 0 is_stmt 0 discriminator 2
 3033 02ec 022B     		cmp	r3, #2
 3034 02ee 01F04186 		beq	.L575
 267:Drivers/lvgl/lvgl/src/extra/themes/default/lv_theme_default.c ****     lv_style_set_pad_column(&styles->card, PAD_SMALL);
 3035              		.loc 1 267 0 discriminator 5
 3036 02f2 0E4B     		ldr	r3, .L807
 3037 02f4 DD68     		ldr	r5, [r3, #12]
 3038              	.LVL404:
 3039              	.LBB570:
 3040              	.LBB571:
 3041              		.loc 3 257 0 is_stmt 1 discriminator 5
ARM GAS  /tmp/cc6wDDAF.s 			page 103


 3042 02f6 2846     		mov	r0, r5
 3043 02f8 FFF7FEFF 		bl	lv_disp_get_dpi
 3044              	.LVL405:
 3045 02fc 00EB8000 		add	r0, r0, r0, lsl #2
 3046 0300 4000     		lsls	r0, r0, #1
 3047 0302 5030     		adds	r0, r0, #80
 3048 0304 B0F5A07F 		cmp	r0, #320
 3049 0308 81F25386 		bge	.L576
 3050              		.loc 3 257 0 is_stmt 0
 3051 030c 0121     		movs	r1, #1
 3052              	.LVL406:
 3053              	.L137:
 3054              	.LBE571:
 3055              	.LBE570:
 267:Drivers/lvgl/lvgl/src/extra/themes/default/lv_theme_default.c ****     lv_style_set_pad_column(&styles->card, PAD_SMALL);
 3056              		.loc 1 267 0 is_stmt 1 discriminator 8
 3057 030e 2046     		mov	r0, r4
 3058 0310 FFF7FEFF 		bl	lv_style_set_pad_row
 3059              	.LVL407:
 268:Drivers/lvgl/lvgl/src/extra/themes/default/lv_theme_default.c ****     lv_style_set_line_color(&styles->card, lv_palette_main(LV_PALETTE_GREY));
 3060              		.loc 1 268 0 discriminator 8
 3061 0314 0A4B     		ldr	r3, .L807+20
 3062 0316 1C68     		ldr	r4, [r3]
 3063 0318 1834     		adds	r4, r4, #24
 3064 031a 0C4B     		ldr	r3, .L807+32
 3065 031c 1B78     		ldrb	r3, [r3]	@ zero_extendqisi2
 3066 031e 012B     		cmp	r3, #1
 3067 0320 01F05786 		beq	.L577
 268:Drivers/lvgl/lvgl/src/extra/themes/default/lv_theme_default.c ****     lv_style_set_line_color(&styles->card, lv_palette_main(LV_PALETTE_GREY));
 3068              		.loc 1 268 0 is_stmt 0 discriminator 2
 3069 0324 022B     		cmp	r3, #2
 3070 0326 01F07386 		beq	.L578
 3071 032a 15E0     		b	.L808
 3072              	.L809:
 3073              		.align	2
 3074              	.L807:
 3075 032c 00000000 		.word	.LANCHOR2
 3076 0330 00000000 		.word	.LANCHOR4
 3077 0334 00000000 		.word	.LANCHOR5
 3078 0338 00000000 		.word	.LANCHOR6
 3079 033c 00000000 		.word	.LANCHOR7
 3080 0340 00000000 		.word	.LANCHOR0
 3081 0344 00000000 		.word	.LANCHOR9
 3082 0348 00000000 		.word	.LANCHOR10
 3083 034c 00000000 		.word	.LANCHOR1
 3084 0350 00000000 		.word	lv_anim_path_linear
 3085 0354 00000000 		.word	.LANCHOR8
 3086              	.L808:
 268:Drivers/lvgl/lvgl/src/extra/themes/default/lv_theme_default.c ****     lv_style_set_line_color(&styles->card, lv_palette_main(LV_PALETTE_GREY));
 3087              		.loc 1 268 0 discriminator 5
 3088 0358 CE4B     		ldr	r3, .L810
 3089 035a DD68     		ldr	r5, [r3, #12]
 3090              	.LVL408:
 3091              	.LBB573:
 3092              	.LBB574:
 3093              		.loc 3 257 0 is_stmt 1 discriminator 5
 3094 035c 2846     		mov	r0, r5
ARM GAS  /tmp/cc6wDDAF.s 			page 104


 3095 035e FFF7FEFF 		bl	lv_disp_get_dpi
 3096              	.LVL409:
 3097 0362 00EB8000 		add	r0, r0, r0, lsl #2
 3098 0366 4000     		lsls	r0, r0, #1
 3099 0368 5030     		adds	r0, r0, #80
 3100 036a B0F5A07F 		cmp	r0, #320
 3101 036e 81F26E86 		bge	.L579
 3102              		.loc 3 257 0 is_stmt 0
 3103 0372 0121     		movs	r1, #1
 3104              	.LVL410:
 3105              	.L143:
 3106              	.LBE574:
 3107              	.LBE573:
 268:Drivers/lvgl/lvgl/src/extra/themes/default/lv_theme_default.c ****     lv_style_set_line_color(&styles->card, lv_palette_main(LV_PALETTE_GREY));
 3108              		.loc 1 268 0 is_stmt 1 discriminator 8
 3109 0374 2046     		mov	r0, r4
 3110 0376 FFF7FEFF 		bl	lv_style_set_pad_column
 3111              	.LVL411:
 269:Drivers/lvgl/lvgl/src/extra/themes/default/lv_theme_default.c ****     lv_style_set_line_width(&styles->card, lv_disp_dpx(theme.disp, 1));
 3112              		.loc 1 269 0 discriminator 8
 3113 037a C74C     		ldr	r4, .L810+4
 3114 037c 2568     		ldr	r5, [r4]
 3115 037e 1220     		movs	r0, #18
 3116 0380 FFF7FEFF 		bl	lv_palette_main
 3117              	.LVL412:
 3118 0384 0146     		mov	r1, r0	@ movhi
 3119 0386 05F11800 		add	r0, r5, #24
 3120 038a FFF7FEFF 		bl	lv_style_set_line_color
 3121              	.LVL413:
 270:Drivers/lvgl/lvgl/src/extra/themes/default/lv_theme_default.c **** 
 3122              		.loc 1 270 0 discriminator 8
 3123 038e 2468     		ldr	r4, [r4]
 3124 0390 1834     		adds	r4, r4, #24
 3125 0392 C04B     		ldr	r3, .L810
 3126 0394 DD68     		ldr	r5, [r3, #12]
 3127              	.LVL414:
 3128              	.LBB576:
 3129              	.LBB577:
 3130              		.loc 3 257 0 discriminator 8
 3131 0396 2846     		mov	r0, r5
 3132 0398 FFF7FEFF 		bl	lv_disp_get_dpi
 3133              	.LVL415:
 3134 039c 5030     		adds	r0, r0, #80
 3135 039e B0F5A07F 		cmp	r0, #320
 3136 03a2 81F26486 		bge	.L580
 3137              		.loc 3 257 0 is_stmt 0
 3138 03a6 0121     		movs	r1, #1
 3139              	.L147:
 3140              	.LVL416:
 3141              	.LBE577:
 3142              	.LBE576:
 270:Drivers/lvgl/lvgl/src/extra/themes/default/lv_theme_default.c **** 
 3143              		.loc 1 270 0 is_stmt 1
 3144 03a8 2046     		mov	r0, r4
 3145 03aa FFF7FEFF 		bl	lv_style_set_line_width
 3146              	.LVL417:
 272:Drivers/lvgl/lvgl/src/extra/themes/default/lv_theme_default.c ****     lv_style_set_outline_color(&styles->outline_primary, theme.color_primary);
ARM GAS  /tmp/cc6wDDAF.s 			page 105


 3147              		.loc 1 272 0
 3148 03ae BA4C     		ldr	r4, .L810+4
 3149 03b0 2068     		ldr	r0, [r4]
 3150 03b2 A030     		adds	r0, r0, #160
 3151 03b4 FFF7FEFF 		bl	style_init_reset
 3152              	.LVL418:
 273:Drivers/lvgl/lvgl/src/extra/themes/default/lv_theme_default.c ****     lv_style_set_outline_width(&styles->outline_primary, OUTLINE_WIDTH);
 3153              		.loc 1 273 0
 3154 03b8 2068     		ldr	r0, [r4]
 3155 03ba B64D     		ldr	r5, .L810
 3156 03bc 298A     		ldrh	r1, [r5, #16]
 3157 03be A030     		adds	r0, r0, #160
 3158 03c0 FFF7FEFF 		bl	lv_style_set_outline_color
 3159              	.LVL419:
 274:Drivers/lvgl/lvgl/src/extra/themes/default/lv_theme_default.c ****     lv_style_set_outline_pad(&styles->outline_primary, OUTLINE_WIDTH);
 3160              		.loc 1 274 0
 3161 03c4 2468     		ldr	r4, [r4]
 3162 03c6 A034     		adds	r4, r4, #160
 3163 03c8 ED68     		ldr	r5, [r5, #12]
 3164              	.LVL420:
 3165              	.LBB579:
 3166              	.LBB580:
 3167              		.loc 3 257 0
 3168 03ca 2846     		mov	r0, r5
 3169 03cc FFF7FEFF 		bl	lv_disp_get_dpi
 3170              	.LVL421:
 3171 03d0 00EB4000 		add	r0, r0, r0, lsl #1
 3172 03d4 5030     		adds	r0, r0, #80
 3173 03d6 B0F5A07F 		cmp	r0, #320
 3174 03da 81F25586 		bge	.L581
 3175 03de 0121     		movs	r1, #1
 3176              	.L148:
 3177              	.LVL422:
 3178              	.LBE580:
 3179              	.LBE579:
 274:Drivers/lvgl/lvgl/src/extra/themes/default/lv_theme_default.c ****     lv_style_set_outline_pad(&styles->outline_primary, OUTLINE_WIDTH);
 3180              		.loc 1 274 0
 3181 03e0 2046     		mov	r0, r4
 3182 03e2 FFF7FEFF 		bl	lv_style_set_outline_width
 3183              	.LVL423:
 275:Drivers/lvgl/lvgl/src/extra/themes/default/lv_theme_default.c ****     lv_style_set_outline_opa(&styles->outline_primary, LV_OPA_50);
 3184              		.loc 1 275 0
 3185 03e6 AC4B     		ldr	r3, .L810+4
 3186 03e8 1C68     		ldr	r4, [r3]
 3187 03ea A034     		adds	r4, r4, #160
 3188 03ec A94B     		ldr	r3, .L810
 3189 03ee DD68     		ldr	r5, [r3, #12]
 3190              	.LVL424:
 3191              	.LBB582:
 3192              	.LBB583:
 3193              		.loc 3 257 0
 3194 03f0 2846     		mov	r0, r5
 3195 03f2 FFF7FEFF 		bl	lv_disp_get_dpi
 3196              	.LVL425:
 3197 03f6 00EB4000 		add	r0, r0, r0, lsl #1
 3198 03fa 5030     		adds	r0, r0, #80
 3199 03fc B0F5A07F 		cmp	r0, #320
ARM GAS  /tmp/cc6wDDAF.s 			page 106


 3200 0400 81F25186 		bge	.L582
 3201 0404 0121     		movs	r1, #1
 3202              	.L149:
 3203              	.LVL426:
 3204              	.LBE583:
 3205              	.LBE582:
 275:Drivers/lvgl/lvgl/src/extra/themes/default/lv_theme_default.c ****     lv_style_set_outline_opa(&styles->outline_primary, LV_OPA_50);
 3206              		.loc 1 275 0
 3207 0406 2046     		mov	r0, r4
 3208 0408 FFF7FEFF 		bl	lv_style_set_outline_pad
 3209              	.LVL427:
 276:Drivers/lvgl/lvgl/src/extra/themes/default/lv_theme_default.c **** 
 3210              		.loc 1 276 0
 3211 040c A24C     		ldr	r4, .L810+4
 3212 040e 2068     		ldr	r0, [r4]
 3213 0410 7F21     		movs	r1, #127
 3214 0412 A030     		adds	r0, r0, #160
 3215 0414 FFF7FEFF 		bl	lv_style_set_outline_opa
 3216              	.LVL428:
 278:Drivers/lvgl/lvgl/src/extra/themes/default/lv_theme_default.c ****     lv_style_set_outline_color(&styles->outline_secondary, theme.color_secondary);
 3217              		.loc 1 278 0
 3218 0418 2068     		ldr	r0, [r4]
 3219 041a A830     		adds	r0, r0, #168
 3220 041c FFF7FEFF 		bl	style_init_reset
 3221              	.LVL429:
 279:Drivers/lvgl/lvgl/src/extra/themes/default/lv_theme_default.c ****     lv_style_set_outline_width(&styles->outline_secondary, OUTLINE_WIDTH);
 3222              		.loc 1 279 0
 3223 0420 2068     		ldr	r0, [r4]
 3224 0422 9C4D     		ldr	r5, .L810
 3225 0424 698A     		ldrh	r1, [r5, #18]
 3226 0426 A830     		adds	r0, r0, #168
 3227 0428 FFF7FEFF 		bl	lv_style_set_outline_color
 3228              	.LVL430:
 280:Drivers/lvgl/lvgl/src/extra/themes/default/lv_theme_default.c ****     lv_style_set_outline_opa(&styles->outline_secondary, LV_OPA_50);
 3229              		.loc 1 280 0
 3230 042c 2468     		ldr	r4, [r4]
 3231 042e A834     		adds	r4, r4, #168
 3232 0430 ED68     		ldr	r5, [r5, #12]
 3233              	.LVL431:
 3234              	.LBB585:
 3235              	.LBB586:
 3236              		.loc 3 257 0
 3237 0432 2846     		mov	r0, r5
 3238 0434 FFF7FEFF 		bl	lv_disp_get_dpi
 3239              	.LVL432:
 3240 0438 00EB4000 		add	r0, r0, r0, lsl #1
 3241 043c 5030     		adds	r0, r0, #80
 3242 043e B0F5A07F 		cmp	r0, #320
 3243 0442 81F23F86 		bge	.L583
 3244 0446 0121     		movs	r1, #1
 3245              	.L150:
 3246              	.LVL433:
 3247              	.LBE586:
 3248              	.LBE585:
 280:Drivers/lvgl/lvgl/src/extra/themes/default/lv_theme_default.c ****     lv_style_set_outline_opa(&styles->outline_secondary, LV_OPA_50);
 3249              		.loc 1 280 0
 3250 0448 2046     		mov	r0, r4
ARM GAS  /tmp/cc6wDDAF.s 			page 107


 3251 044a FFF7FEFF 		bl	lv_style_set_outline_width
 3252              	.LVL434:
 281:Drivers/lvgl/lvgl/src/extra/themes/default/lv_theme_default.c **** 
 3253              		.loc 1 281 0
 3254 044e 924C     		ldr	r4, .L810+4
 3255 0450 2068     		ldr	r0, [r4]
 3256 0452 7F21     		movs	r1, #127
 3257 0454 A830     		adds	r0, r0, #168
 3258 0456 FFF7FEFF 		bl	lv_style_set_outline_opa
 3259              	.LVL435:
 283:Drivers/lvgl/lvgl/src/extra/themes/default/lv_theme_default.c ****     lv_style_set_radius(&styles->btn, (disp_size == DISP_LARGE ? lv_disp_dpx(theme.disp,
 3260              		.loc 1 283 0
 3261 045a 2068     		ldr	r0, [r4]
 3262 045c 2030     		adds	r0, r0, #32
 3263 045e FFF7FEFF 		bl	style_init_reset
 3264              	.LVL436:
 284:Drivers/lvgl/lvgl/src/extra/themes/default/lv_theme_default.c ****                                                                              16) : disp_size == DIS
 3265              		.loc 1 284 0
 3266 0462 2468     		ldr	r4, [r4]
 3267 0464 2034     		adds	r4, r4, #32
 3268 0466 8D4B     		ldr	r3, .L810+8
 3269 0468 1B78     		ldrb	r3, [r3]	@ zero_extendqisi2
 3270 046a 012B     		cmp	r3, #1
 3271 046c 01F03986 		beq	.L584
 284:Drivers/lvgl/lvgl/src/extra/themes/default/lv_theme_default.c ****                                                                              16) : disp_size == DIS
 3272              		.loc 1 284 0 is_stmt 0 discriminator 2
 3273 0470 022B     		cmp	r3, #2
 3274 0472 01F05186 		beq	.L585
 285:Drivers/lvgl/lvgl/src/extra/themes/default/lv_theme_default.c ****     lv_style_set_bg_opa(&styles->btn, LV_OPA_COVER);
 3275              		.loc 1 285 0 is_stmt 1 discriminator 5
 3276 0476 874B     		ldr	r3, .L810
 3277 0478 DD68     		ldr	r5, [r3, #12]
 3278              	.LVL437:
 3279              	.LBB588:
 3280              	.LBB589:
 3281              		.loc 3 257 0 discriminator 5
 3282 047a 2846     		mov	r0, r5
 3283 047c FFF7FEFF 		bl	lv_disp_get_dpi
 3284              	.LVL438:
 3285 0480 C000     		lsls	r0, r0, #3
 3286 0482 5030     		adds	r0, r0, #80
 3287 0484 B0F5A07F 		cmp	r0, #320
 3288 0488 81F26586 		bge	.L586
 3289              		.loc 3 257 0 is_stmt 0
 3290 048c 0121     		movs	r1, #1
 3291              	.LVL439:
 3292              	.L153:
 3293              	.LBE589:
 3294              	.LBE588:
 284:Drivers/lvgl/lvgl/src/extra/themes/default/lv_theme_default.c ****                                                                              16) : disp_size == DIS
 3295              		.loc 1 284 0 is_stmt 1 discriminator 8
 3296 048e 2046     		mov	r0, r4
 3297 0490 FFF7FEFF 		bl	lv_style_set_radius
 3298              	.LVL440:
 286:Drivers/lvgl/lvgl/src/extra/themes/default/lv_theme_default.c ****     lv_style_set_bg_color(&styles->btn, color_grey);
 3299              		.loc 1 286 0 discriminator 8
 3300 0494 804C     		ldr	r4, .L810+4
ARM GAS  /tmp/cc6wDDAF.s 			page 108


 3301 0496 2068     		ldr	r0, [r4]
 3302 0498 FF21     		movs	r1, #255
 3303 049a 2030     		adds	r0, r0, #32
 3304 049c FFF7FEFF 		bl	lv_style_set_bg_opa
 3305              	.LVL441:
 287:Drivers/lvgl/lvgl/src/extra/themes/default/lv_theme_default.c ****     if(!(theme.flags & MODE_DARK)) {
 3306              		.loc 1 287 0 discriminator 8
 3307 04a0 2068     		ldr	r0, [r4]
 3308 04a2 7F4B     		ldr	r3, .L810+12
 3309 04a4 1988     		ldrh	r1, [r3]
 3310 04a6 2030     		adds	r0, r0, #32
 3311 04a8 FFF7FEFF 		bl	lv_style_set_bg_color
 3312              	.LVL442:
 288:Drivers/lvgl/lvgl/src/extra/themes/default/lv_theme_default.c ****         lv_style_set_shadow_color(&styles->btn, lv_palette_main(LV_PALETTE_GREY));
 3313              		.loc 1 288 0 discriminator 8
 3314 04ac 794B     		ldr	r3, .L810
 3315 04ae 1B6A     		ldr	r3, [r3, #32]
 3316 04b0 13F0010F 		tst	r3, #1
 3317 04b4 01F05D86 		beq	.L587
 3318              	.L157:
 294:Drivers/lvgl/lvgl/src/extra/themes/default/lv_theme_default.c ****     lv_style_set_pad_hor(&styles->btn, PAD_DEF);
 3319              		.loc 1 294 0
 3320 04b8 774C     		ldr	r4, .L810+4
 3321 04ba 2068     		ldr	r0, [r4]
 3322 04bc 794B     		ldr	r3, .L810+16
 3323 04be 1988     		ldrh	r1, [r3]
 3324 04c0 2030     		adds	r0, r0, #32
 3325 04c2 FFF7FEFF 		bl	lv_style_set_text_color
 3326              	.LVL443:
 295:Drivers/lvgl/lvgl/src/extra/themes/default/lv_theme_default.c ****     lv_style_set_pad_ver(&styles->btn, PAD_SMALL);
 3327              		.loc 1 295 0
 3328 04c6 2568     		ldr	r5, [r4]
 3329 04c8 2035     		adds	r5, r5, #32
 3330 04ca 744B     		ldr	r3, .L810+8
 3331 04cc 1B78     		ldrb	r3, [r3]	@ zero_extendqisi2
 3332 04ce 012B     		cmp	r3, #1
 3333 04d0 01F0B586 		beq	.L588
 295:Drivers/lvgl/lvgl/src/extra/themes/default/lv_theme_default.c ****     lv_style_set_pad_ver(&styles->btn, PAD_SMALL);
 3334              		.loc 1 295 0 is_stmt 0 discriminator 2
 3335 04d4 022B     		cmp	r3, #2
 3336 04d6 01F0D186 		beq	.L589
 295:Drivers/lvgl/lvgl/src/extra/themes/default/lv_theme_default.c ****     lv_style_set_pad_ver(&styles->btn, PAD_SMALL);
 3337              		.loc 1 295 0 discriminator 5
 3338 04da 6E4B     		ldr	r3, .L810
 3339 04dc DC68     		ldr	r4, [r3, #12]
 3340              	.LVL444:
 3341              	.LBB591:
 3342              	.LBB592:
 3343              		.loc 3 257 0 is_stmt 1 discriminator 5
 3344 04de 2046     		mov	r0, r4
 3345 04e0 FFF7FEFF 		bl	lv_disp_get_dpi
 3346              	.LVL445:
 3347 04e4 0001     		lsls	r0, r0, #4
 3348 04e6 5030     		adds	r0, r0, #80
 3349 04e8 B0F5A07F 		cmp	r0, #320
 3350 04ec 81F2E586 		bge	.L590
 3351              		.loc 3 257 0 is_stmt 0
ARM GAS  /tmp/cc6wDDAF.s 			page 109


 3352 04f0 0124     		movs	r4, #1
 3353              	.LVL446:
 3354              	.L163:
 3355              	.LBE592:
 3356              	.LBE591:
 3357              	.LBB594:
 3358              	.LBB595:
 535:Drivers/lvgl/lvgl/src/extra/themes/default/../../../../src/hal/../draw/../misc/lv_style.h **** }
 536:Drivers/lvgl/lvgl/src/extra/themes/default/../../../../src/hal/../draw/../misc/lv_style.h **** 
 537:Drivers/lvgl/lvgl/src/extra/themes/default/../../../../src/hal/../draw/../misc/lv_style.h **** static inline void lv_style_set_pad_hor(lv_style_t * style, lv_coord_t value)
 538:Drivers/lvgl/lvgl/src/extra/themes/default/../../../../src/hal/../draw/../misc/lv_style.h **** {
 539:Drivers/lvgl/lvgl/src/extra/themes/default/../../../../src/hal/../draw/../misc/lv_style.h ****     lv_style_set_pad_left(style, value);
 3359              		.loc 4 539 0 is_stmt 1 discriminator 8
 3360 04f2 2146     		mov	r1, r4
 3361 04f4 2846     		mov	r0, r5
 3362 04f6 FFF7FEFF 		bl	lv_style_set_pad_left
 3363              	.LVL447:
 540:Drivers/lvgl/lvgl/src/extra/themes/default/../../../../src/hal/../draw/../misc/lv_style.h ****     lv_style_set_pad_right(style, value);
 3364              		.loc 4 540 0 discriminator 8
 3365 04fa 2146     		mov	r1, r4
 3366 04fc 2846     		mov	r0, r5
 3367 04fe FFF7FEFF 		bl	lv_style_set_pad_right
 3368              	.LVL448:
 3369              	.LBE595:
 3370              	.LBE594:
 296:Drivers/lvgl/lvgl/src/extra/themes/default/lv_theme_default.c ****     lv_style_set_pad_column(&styles->btn, lv_disp_dpx(theme.disp, 5));
 3371              		.loc 1 296 0 discriminator 8
 3372 0502 654B     		ldr	r3, .L810+4
 3373 0504 1D68     		ldr	r5, [r3]
 3374 0506 2035     		adds	r5, r5, #32
 3375 0508 644B     		ldr	r3, .L810+8
 3376 050a 1B78     		ldrb	r3, [r3]	@ zero_extendqisi2
 3377 050c 012B     		cmp	r3, #1
 3378 050e 01F0E986 		beq	.L591
 296:Drivers/lvgl/lvgl/src/extra/themes/default/lv_theme_default.c ****     lv_style_set_pad_column(&styles->btn, lv_disp_dpx(theme.disp, 5));
 3379              		.loc 1 296 0 is_stmt 0 discriminator 2
 3380 0512 022B     		cmp	r3, #2
 3381 0514 01F00587 		beq	.L592
 296:Drivers/lvgl/lvgl/src/extra/themes/default/lv_theme_default.c ****     lv_style_set_pad_column(&styles->btn, lv_disp_dpx(theme.disp, 5));
 3382              		.loc 1 296 0 discriminator 5
 3383 0518 5E4B     		ldr	r3, .L810
 3384 051a DC68     		ldr	r4, [r3, #12]
 3385              	.LVL449:
 3386              	.LBB596:
 3387              	.LBB597:
 3388              		.loc 3 257 0 is_stmt 1 discriminator 5
 3389 051c 2046     		mov	r0, r4
 3390 051e FFF7FEFF 		bl	lv_disp_get_dpi
 3391              	.LVL450:
 3392 0522 00EB8000 		add	r0, r0, r0, lsl #2
 3393 0526 4000     		lsls	r0, r0, #1
 3394 0528 5030     		adds	r0, r0, #80
 3395 052a B0F5A07F 		cmp	r0, #320
 3396 052e 81F21787 		bge	.L593
 3397              		.loc 3 257 0 is_stmt 0
 3398 0532 0124     		movs	r4, #1
 3399              	.LVL451:
ARM GAS  /tmp/cc6wDDAF.s 			page 110


 3400              	.L169:
 3401              	.LBE597:
 3402              	.LBE596:
 3403              	.LBB599:
 3404              	.LBB600:
 541:Drivers/lvgl/lvgl/src/extra/themes/default/../../../../src/hal/../draw/../misc/lv_style.h **** }
 542:Drivers/lvgl/lvgl/src/extra/themes/default/../../../../src/hal/../draw/../misc/lv_style.h **** 
 543:Drivers/lvgl/lvgl/src/extra/themes/default/../../../../src/hal/../draw/../misc/lv_style.h **** static inline void lv_style_set_pad_ver(lv_style_t * style, lv_coord_t value)
 544:Drivers/lvgl/lvgl/src/extra/themes/default/../../../../src/hal/../draw/../misc/lv_style.h **** {
 545:Drivers/lvgl/lvgl/src/extra/themes/default/../../../../src/hal/../draw/../misc/lv_style.h ****     lv_style_set_pad_top(style, value);
 3405              		.loc 4 545 0 is_stmt 1 discriminator 8
 3406 0534 2146     		mov	r1, r4
 3407 0536 2846     		mov	r0, r5
 3408 0538 FFF7FEFF 		bl	lv_style_set_pad_top
 3409              	.LVL452:
 546:Drivers/lvgl/lvgl/src/extra/themes/default/../../../../src/hal/../draw/../misc/lv_style.h ****     lv_style_set_pad_bottom(style, value);
 3410              		.loc 4 546 0 discriminator 8
 3411 053c 2146     		mov	r1, r4
 3412 053e 2846     		mov	r0, r5
 3413 0540 FFF7FEFF 		bl	lv_style_set_pad_bottom
 3414              	.LVL453:
 3415              	.LBE600:
 3416              	.LBE599:
 297:Drivers/lvgl/lvgl/src/extra/themes/default/lv_theme_default.c ****     lv_style_set_pad_row(&styles->btn, lv_disp_dpx(theme.disp, 5));
 3417              		.loc 1 297 0 discriminator 8
 3418 0544 544B     		ldr	r3, .L810+4
 3419 0546 1C68     		ldr	r4, [r3]
 3420 0548 2034     		adds	r4, r4, #32
 3421 054a 524B     		ldr	r3, .L810
 3422 054c DD68     		ldr	r5, [r3, #12]
 3423              	.LVL454:
 3424              	.LBB601:
 3425              	.LBB602:
 3426              		.loc 3 257 0 discriminator 8
 3427 054e 2846     		mov	r0, r5
 3428 0550 FFF7FEFF 		bl	lv_disp_get_dpi
 3429              	.LVL455:
 3430 0554 00EB8000 		add	r0, r0, r0, lsl #2
 3431 0558 5030     		adds	r0, r0, #80
 3432 055a B0F5A07F 		cmp	r0, #320
 3433 055e 81F20F87 		bge	.L594
 3434              		.loc 3 257 0 is_stmt 0
 3435 0562 0121     		movs	r1, #1
 3436              	.L173:
 3437              	.LVL456:
 3438              	.LBE602:
 3439              	.LBE601:
 297:Drivers/lvgl/lvgl/src/extra/themes/default/lv_theme_default.c ****     lv_style_set_pad_row(&styles->btn, lv_disp_dpx(theme.disp, 5));
 3440              		.loc 1 297 0 is_stmt 1
 3441 0564 2046     		mov	r0, r4
 3442 0566 FFF7FEFF 		bl	lv_style_set_pad_column
 3443              	.LVL457:
 298:Drivers/lvgl/lvgl/src/extra/themes/default/lv_theme_default.c **** 
 3444              		.loc 1 298 0
 3445 056a 4B4B     		ldr	r3, .L810+4
 3446 056c 1C68     		ldr	r4, [r3]
 3447 056e 2034     		adds	r4, r4, #32
ARM GAS  /tmp/cc6wDDAF.s 			page 111


 3448 0570 484B     		ldr	r3, .L810
 3449 0572 DD68     		ldr	r5, [r3, #12]
 3450              	.LVL458:
 3451              	.LBB604:
 3452              	.LBB605:
 3453              		.loc 3 257 0
 3454 0574 2846     		mov	r0, r5
 3455 0576 FFF7FEFF 		bl	lv_disp_get_dpi
 3456              	.LVL459:
 3457 057a 00EB8000 		add	r0, r0, r0, lsl #2
 3458 057e 5030     		adds	r0, r0, #80
 3459 0580 B0F5A07F 		cmp	r0, #320
 3460 0584 81F20B87 		bge	.L595
 3461 0588 0121     		movs	r1, #1
 3462              	.L174:
 3463              	.LVL460:
 3464              	.LBE605:
 3465              	.LBE604:
 298:Drivers/lvgl/lvgl/src/extra/themes/default/lv_theme_default.c **** 
 3466              		.loc 1 298 0
 3467 058a 2046     		mov	r0, r4
 3468 058c FFF7FEFF 		bl	lv_style_set_pad_row
 3469              	.LVL461:
 3470              	.LBB607:
 3471              	.LBB608:
 454:Drivers/lvgl/lvgl/src/extra/themes/default/../../../../src/hal/../draw/../misc/lv_color.h ****     ret.full = (uint16_t)((result >> 16) | result);
 455:Drivers/lvgl/lvgl/src/extra/themes/default/../../../../src/hal/../draw/../misc/lv_color.h **** #if LV_COLOR_16_SWAP == 1
 456:Drivers/lvgl/lvgl/src/extra/themes/default/../../../../src/hal/../draw/../misc/lv_color.h ****     ret.full = ret.full << 8 | ret.full >> 8;
 457:Drivers/lvgl/lvgl/src/extra/themes/default/../../../../src/hal/../draw/../misc/lv_color.h **** #endif
 458:Drivers/lvgl/lvgl/src/extra/themes/default/../../../../src/hal/../draw/../misc/lv_color.h **** #elif LV_COLOR_DEPTH != 1
 459:Drivers/lvgl/lvgl/src/extra/themes/default/../../../../src/hal/../draw/../misc/lv_color.h ****     /*LV_COLOR_DEPTH == 8, 16 or 32*/
 460:Drivers/lvgl/lvgl/src/extra/themes/default/../../../../src/hal/../draw/../misc/lv_color.h ****     LV_COLOR_SET_R(ret, LV_UDIV255((uint16_t)LV_COLOR_GET_R(c1) * mix + LV_COLOR_GET_R(c2) *
 461:Drivers/lvgl/lvgl/src/extra/themes/default/../../../../src/hal/../draw/../misc/lv_color.h ****                                    (255 - mix) + LV_COLOR_MIX_ROUND_OFS));
 462:Drivers/lvgl/lvgl/src/extra/themes/default/../../../../src/hal/../draw/../misc/lv_color.h ****     LV_COLOR_SET_G(ret, LV_UDIV255((uint16_t)LV_COLOR_GET_G(c1) * mix + LV_COLOR_GET_G(c2) *
 463:Drivers/lvgl/lvgl/src/extra/themes/default/../../../../src/hal/../draw/../misc/lv_color.h ****                                    (255 - mix) + LV_COLOR_MIX_ROUND_OFS));
 464:Drivers/lvgl/lvgl/src/extra/themes/default/../../../../src/hal/../draw/../misc/lv_color.h ****     LV_COLOR_SET_B(ret, LV_UDIV255((uint16_t)LV_COLOR_GET_B(c1) * mix + LV_COLOR_GET_B(c2) *
 465:Drivers/lvgl/lvgl/src/extra/themes/default/../../../../src/hal/../draw/../misc/lv_color.h ****                                    (255 - mix) + LV_COLOR_MIX_ROUND_OFS));
 466:Drivers/lvgl/lvgl/src/extra/themes/default/../../../../src/hal/../draw/../misc/lv_color.h ****     LV_COLOR_SET_A(ret, 0xFF);
 467:Drivers/lvgl/lvgl/src/extra/themes/default/../../../../src/hal/../draw/../misc/lv_color.h **** #else
 468:Drivers/lvgl/lvgl/src/extra/themes/default/../../../../src/hal/../draw/../misc/lv_color.h ****     /*LV_COLOR_DEPTH == 1*/
 469:Drivers/lvgl/lvgl/src/extra/themes/default/../../../../src/hal/../draw/../misc/lv_color.h ****     ret.full = mix > LV_OPA_50 ? c1.full : c2.full;
 470:Drivers/lvgl/lvgl/src/extra/themes/default/../../../../src/hal/../draw/../misc/lv_color.h **** #endif
 471:Drivers/lvgl/lvgl/src/extra/themes/default/../../../../src/hal/../draw/../misc/lv_color.h **** 
 472:Drivers/lvgl/lvgl/src/extra/themes/default/../../../../src/hal/../draw/../misc/lv_color.h ****     return ret;
 473:Drivers/lvgl/lvgl/src/extra/themes/default/../../../../src/hal/../draw/../misc/lv_color.h **** }
 474:Drivers/lvgl/lvgl/src/extra/themes/default/../../../../src/hal/../draw/../misc/lv_color.h **** 
 475:Drivers/lvgl/lvgl/src/extra/themes/default/../../../../src/hal/../draw/../misc/lv_color.h **** LV_ATTRIBUTE_FAST_MEM static inline void lv_color_premult(lv_color_t c, uint8_t mix, uint16_t * out
 476:Drivers/lvgl/lvgl/src/extra/themes/default/../../../../src/hal/../draw/../misc/lv_color.h **** {
 477:Drivers/lvgl/lvgl/src/extra/themes/default/../../../../src/hal/../draw/../misc/lv_color.h **** #if LV_COLOR_DEPTH != 1
 478:Drivers/lvgl/lvgl/src/extra/themes/default/../../../../src/hal/../draw/../misc/lv_color.h ****     out[0] = (uint16_t)LV_COLOR_GET_R(c) * mix;
 479:Drivers/lvgl/lvgl/src/extra/themes/default/../../../../src/hal/../draw/../misc/lv_color.h ****     out[1] = (uint16_t)LV_COLOR_GET_G(c) * mix;
 480:Drivers/lvgl/lvgl/src/extra/themes/default/../../../../src/hal/../draw/../misc/lv_color.h ****     out[2] = (uint16_t)LV_COLOR_GET_B(c) * mix;
 481:Drivers/lvgl/lvgl/src/extra/themes/default/../../../../src/hal/../draw/../misc/lv_color.h **** #else
 482:Drivers/lvgl/lvgl/src/extra/themes/default/../../../../src/hal/../draw/../misc/lv_color.h ****     (void) mix;
 483:Drivers/lvgl/lvgl/src/extra/themes/default/../../../../src/hal/../draw/../misc/lv_color.h ****     /*Pre-multiplication can't be used with 1 bpp*/
 484:Drivers/lvgl/lvgl/src/extra/themes/default/../../../../src/hal/../draw/../misc/lv_color.h ****     out[0] = LV_COLOR_GET_R(c);
 485:Drivers/lvgl/lvgl/src/extra/themes/default/../../../../src/hal/../draw/../misc/lv_color.h ****     out[1] = LV_COLOR_GET_G(c);
ARM GAS  /tmp/cc6wDDAF.s 			page 112


 486:Drivers/lvgl/lvgl/src/extra/themes/default/../../../../src/hal/../draw/../misc/lv_color.h ****     out[2] = LV_COLOR_GET_B(c);
 487:Drivers/lvgl/lvgl/src/extra/themes/default/../../../../src/hal/../draw/../misc/lv_color.h **** #endif
 488:Drivers/lvgl/lvgl/src/extra/themes/default/../../../../src/hal/../draw/../misc/lv_color.h **** 
 489:Drivers/lvgl/lvgl/src/extra/themes/default/../../../../src/hal/../draw/../misc/lv_color.h **** }
 490:Drivers/lvgl/lvgl/src/extra/themes/default/../../../../src/hal/../draw/../misc/lv_color.h **** 
 491:Drivers/lvgl/lvgl/src/extra/themes/default/../../../../src/hal/../draw/../misc/lv_color.h **** /**
 492:Drivers/lvgl/lvgl/src/extra/themes/default/../../../../src/hal/../draw/../misc/lv_color.h ****  * Mix two colors with a given ratio. It runs faster then `lv_color_mix` but requires some pre comp
 493:Drivers/lvgl/lvgl/src/extra/themes/default/../../../../src/hal/../draw/../misc/lv_color.h ****  * @param premult_c1 The first color. Should be preprocessed with `lv_color_premult(c1)`
 494:Drivers/lvgl/lvgl/src/extra/themes/default/../../../../src/hal/../draw/../misc/lv_color.h ****  * @param c2 The second color. As it is no pre computation required on it
 495:Drivers/lvgl/lvgl/src/extra/themes/default/../../../../src/hal/../draw/../misc/lv_color.h ****  * @param mix The ratio of the colors. 0: full `c1`, 255: full `c2`, 127: half `c1` and half `c2`.
 496:Drivers/lvgl/lvgl/src/extra/themes/default/../../../../src/hal/../draw/../misc/lv_color.h ****  *            Should be modified like mix = `255 - mix`
 497:Drivers/lvgl/lvgl/src/extra/themes/default/../../../../src/hal/../draw/../misc/lv_color.h ****  * @return the mixed color
 498:Drivers/lvgl/lvgl/src/extra/themes/default/../../../../src/hal/../draw/../misc/lv_color.h ****  * @note 255 won't give clearly `c1`.
 499:Drivers/lvgl/lvgl/src/extra/themes/default/../../../../src/hal/../draw/../misc/lv_color.h ****  */
 500:Drivers/lvgl/lvgl/src/extra/themes/default/../../../../src/hal/../draw/../misc/lv_color.h **** LV_ATTRIBUTE_FAST_MEM static inline lv_color_t lv_color_mix_premult(uint16_t * premult_c1, lv_color
 501:Drivers/lvgl/lvgl/src/extra/themes/default/../../../../src/hal/../draw/../misc/lv_color.h **** {
 502:Drivers/lvgl/lvgl/src/extra/themes/default/../../../../src/hal/../draw/../misc/lv_color.h ****     lv_color_t ret;
 503:Drivers/lvgl/lvgl/src/extra/themes/default/../../../../src/hal/../draw/../misc/lv_color.h **** #if LV_COLOR_DEPTH != 1
 504:Drivers/lvgl/lvgl/src/extra/themes/default/../../../../src/hal/../draw/../misc/lv_color.h ****     /*LV_COLOR_DEPTH == 8 or 32*/
 505:Drivers/lvgl/lvgl/src/extra/themes/default/../../../../src/hal/../draw/../misc/lv_color.h ****     LV_COLOR_SET_R(ret, LV_UDIV255(premult_c1[0] + LV_COLOR_GET_R(c2) * mix + LV_COLOR_MIX_ROUND_OF
 506:Drivers/lvgl/lvgl/src/extra/themes/default/../../../../src/hal/../draw/../misc/lv_color.h ****     LV_COLOR_SET_G(ret, LV_UDIV255(premult_c1[1] + LV_COLOR_GET_G(c2) * mix + LV_COLOR_MIX_ROUND_OF
 507:Drivers/lvgl/lvgl/src/extra/themes/default/../../../../src/hal/../draw/../misc/lv_color.h ****     LV_COLOR_SET_B(ret, LV_UDIV255(premult_c1[2] + LV_COLOR_GET_B(c2) * mix + LV_COLOR_MIX_ROUND_OF
 508:Drivers/lvgl/lvgl/src/extra/themes/default/../../../../src/hal/../draw/../misc/lv_color.h ****     LV_COLOR_SET_A(ret, 0xFF);
 509:Drivers/lvgl/lvgl/src/extra/themes/default/../../../../src/hal/../draw/../misc/lv_color.h **** #else
 510:Drivers/lvgl/lvgl/src/extra/themes/default/../../../../src/hal/../draw/../misc/lv_color.h ****     /*LV_COLOR_DEPTH == 1*/
 511:Drivers/lvgl/lvgl/src/extra/themes/default/../../../../src/hal/../draw/../misc/lv_color.h ****     /*Restore color1*/
 512:Drivers/lvgl/lvgl/src/extra/themes/default/../../../../src/hal/../draw/../misc/lv_color.h ****     lv_color_t c1;
 513:Drivers/lvgl/lvgl/src/extra/themes/default/../../../../src/hal/../draw/../misc/lv_color.h ****     LV_COLOR_SET_R(c1, premult_c1[0]);
 514:Drivers/lvgl/lvgl/src/extra/themes/default/../../../../src/hal/../draw/../misc/lv_color.h ****     LV_COLOR_SET_G(c1, premult_c1[1]);
 515:Drivers/lvgl/lvgl/src/extra/themes/default/../../../../src/hal/../draw/../misc/lv_color.h ****     LV_COLOR_SET_B(c1, premult_c1[2]);
 516:Drivers/lvgl/lvgl/src/extra/themes/default/../../../../src/hal/../draw/../misc/lv_color.h ****     ret.full = mix > LV_OPA_50 ? c2.full : c1.full;
 517:Drivers/lvgl/lvgl/src/extra/themes/default/../../../../src/hal/../draw/../misc/lv_color.h **** #endif
 518:Drivers/lvgl/lvgl/src/extra/themes/default/../../../../src/hal/../draw/../misc/lv_color.h **** 
 519:Drivers/lvgl/lvgl/src/extra/themes/default/../../../../src/hal/../draw/../misc/lv_color.h ****     return ret;
 520:Drivers/lvgl/lvgl/src/extra/themes/default/../../../../src/hal/../draw/../misc/lv_color.h **** }
 521:Drivers/lvgl/lvgl/src/extra/themes/default/../../../../src/hal/../draw/../misc/lv_color.h **** 
 522:Drivers/lvgl/lvgl/src/extra/themes/default/../../../../src/hal/../draw/../misc/lv_color.h **** /**
 523:Drivers/lvgl/lvgl/src/extra/themes/default/../../../../src/hal/../draw/../misc/lv_color.h ****  * Mix two colors. Both color can have alpha value.
 524:Drivers/lvgl/lvgl/src/extra/themes/default/../../../../src/hal/../draw/../misc/lv_color.h ****  * @param bg_color background color
 525:Drivers/lvgl/lvgl/src/extra/themes/default/../../../../src/hal/../draw/../misc/lv_color.h ****  * @param bg_opa alpha of the background color
 526:Drivers/lvgl/lvgl/src/extra/themes/default/../../../../src/hal/../draw/../misc/lv_color.h ****  * @param fg_color foreground color
 527:Drivers/lvgl/lvgl/src/extra/themes/default/../../../../src/hal/../draw/../misc/lv_color.h ****  * @param fg_opa alpha of the foreground color
 528:Drivers/lvgl/lvgl/src/extra/themes/default/../../../../src/hal/../draw/../misc/lv_color.h ****  * @param res_color the result color
 529:Drivers/lvgl/lvgl/src/extra/themes/default/../../../../src/hal/../draw/../misc/lv_color.h ****  * @param res_opa the result opacity
 530:Drivers/lvgl/lvgl/src/extra/themes/default/../../../../src/hal/../draw/../misc/lv_color.h ****  */
 531:Drivers/lvgl/lvgl/src/extra/themes/default/../../../../src/hal/../draw/../misc/lv_color.h **** LV_ATTRIBUTE_FAST_MEM static inline void lv_color_mix_with_alpha(lv_color_t bg_color, lv_opa_t bg_o
 532:Drivers/lvgl/lvgl/src/extra/themes/default/../../../../src/hal/../draw/../misc/lv_color.h ****                                                                  lv_color_t fg_color, lv_opa_t fg_o
 533:Drivers/lvgl/lvgl/src/extra/themes/default/../../../../src/hal/../draw/../misc/lv_color.h ****                                                                  lv_color_t * res_color, lv_opa_t *
 534:Drivers/lvgl/lvgl/src/extra/themes/default/../../../../src/hal/../draw/../misc/lv_color.h **** {
 535:Drivers/lvgl/lvgl/src/extra/themes/default/../../../../src/hal/../draw/../misc/lv_color.h ****     /*Pick the foreground if it's fully opaque or the Background is fully transparent*/
 536:Drivers/lvgl/lvgl/src/extra/themes/default/../../../../src/hal/../draw/../misc/lv_color.h ****     if(fg_opa >= LV_OPA_MAX || bg_opa <= LV_OPA_MIN) {
 537:Drivers/lvgl/lvgl/src/extra/themes/default/../../../../src/hal/../draw/../misc/lv_color.h ****         res_color->full = fg_color.full;
 538:Drivers/lvgl/lvgl/src/extra/themes/default/../../../../src/hal/../draw/../misc/lv_color.h ****         *res_opa = fg_opa;
 539:Drivers/lvgl/lvgl/src/extra/themes/default/../../../../src/hal/../draw/../misc/lv_color.h ****     }
 540:Drivers/lvgl/lvgl/src/extra/themes/default/../../../../src/hal/../draw/../misc/lv_color.h ****     /*Transparent foreground: use the Background*/
 541:Drivers/lvgl/lvgl/src/extra/themes/default/../../../../src/hal/../draw/../misc/lv_color.h ****     else if(fg_opa <= LV_OPA_MIN) {
 542:Drivers/lvgl/lvgl/src/extra/themes/default/../../../../src/hal/../draw/../misc/lv_color.h ****         res_color->full = bg_color.full;
ARM GAS  /tmp/cc6wDDAF.s 			page 113


 543:Drivers/lvgl/lvgl/src/extra/themes/default/../../../../src/hal/../draw/../misc/lv_color.h ****         *res_opa = bg_opa;
 544:Drivers/lvgl/lvgl/src/extra/themes/default/../../../../src/hal/../draw/../misc/lv_color.h ****     }
 545:Drivers/lvgl/lvgl/src/extra/themes/default/../../../../src/hal/../draw/../misc/lv_color.h ****     /*Opaque background: use simple mix*/
 546:Drivers/lvgl/lvgl/src/extra/themes/default/../../../../src/hal/../draw/../misc/lv_color.h ****     else if(bg_opa >= LV_OPA_MAX) {
 547:Drivers/lvgl/lvgl/src/extra/themes/default/../../../../src/hal/../draw/../misc/lv_color.h ****         *res_color = lv_color_mix(fg_color, bg_color, fg_opa);
 548:Drivers/lvgl/lvgl/src/extra/themes/default/../../../../src/hal/../draw/../misc/lv_color.h ****         *res_opa = LV_OPA_COVER;
 549:Drivers/lvgl/lvgl/src/extra/themes/default/../../../../src/hal/../draw/../misc/lv_color.h ****     }
 550:Drivers/lvgl/lvgl/src/extra/themes/default/../../../../src/hal/../draw/../misc/lv_color.h ****     /*Both colors have alpha. Expensive calculation need to be applied*/
 551:Drivers/lvgl/lvgl/src/extra/themes/default/../../../../src/hal/../draw/../misc/lv_color.h ****     else {
 552:Drivers/lvgl/lvgl/src/extra/themes/default/../../../../src/hal/../draw/../misc/lv_color.h ****         /*Save the parameters and the result. If they will be asked again don't compute again*/
 553:Drivers/lvgl/lvgl/src/extra/themes/default/../../../../src/hal/../draw/../misc/lv_color.h ****         static lv_opa_t fg_opa_save     = 0;
 554:Drivers/lvgl/lvgl/src/extra/themes/default/../../../../src/hal/../draw/../misc/lv_color.h ****         static lv_opa_t bg_opa_save     = 0;
 555:Drivers/lvgl/lvgl/src/extra/themes/default/../../../../src/hal/../draw/../misc/lv_color.h ****         static lv_color_t fg_color_save = _LV_COLOR_ZERO_INITIALIZER;
 556:Drivers/lvgl/lvgl/src/extra/themes/default/../../../../src/hal/../draw/../misc/lv_color.h ****         static lv_color_t bg_color_save = _LV_COLOR_ZERO_INITIALIZER;
 557:Drivers/lvgl/lvgl/src/extra/themes/default/../../../../src/hal/../draw/../misc/lv_color.h ****         static lv_color_t res_color_saved = _LV_COLOR_ZERO_INITIALIZER;
 558:Drivers/lvgl/lvgl/src/extra/themes/default/../../../../src/hal/../draw/../misc/lv_color.h ****         static lv_opa_t res_opa_saved = 0;
 559:Drivers/lvgl/lvgl/src/extra/themes/default/../../../../src/hal/../draw/../misc/lv_color.h **** 
 560:Drivers/lvgl/lvgl/src/extra/themes/default/../../../../src/hal/../draw/../misc/lv_color.h ****         if(fg_opa != fg_opa_save || bg_opa != bg_opa_save || fg_color.full != fg_color_save.full ||
 561:Drivers/lvgl/lvgl/src/extra/themes/default/../../../../src/hal/../draw/../misc/lv_color.h ****            bg_color.full != bg_color_save.full) {
 562:Drivers/lvgl/lvgl/src/extra/themes/default/../../../../src/hal/../draw/../misc/lv_color.h ****             fg_opa_save        = fg_opa;
 563:Drivers/lvgl/lvgl/src/extra/themes/default/../../../../src/hal/../draw/../misc/lv_color.h ****             bg_opa_save        = bg_opa;
 564:Drivers/lvgl/lvgl/src/extra/themes/default/../../../../src/hal/../draw/../misc/lv_color.h ****             fg_color_save.full = fg_color.full;
 565:Drivers/lvgl/lvgl/src/extra/themes/default/../../../../src/hal/../draw/../misc/lv_color.h ****             bg_color_save.full = bg_color.full;
 566:Drivers/lvgl/lvgl/src/extra/themes/default/../../../../src/hal/../draw/../misc/lv_color.h ****             /*Info:
 567:Drivers/lvgl/lvgl/src/extra/themes/default/../../../../src/hal/../draw/../misc/lv_color.h ****              * https://en.wikipedia.org/wiki/Alpha_compositing#Analytical_derivation_of_the_over_op
 568:Drivers/lvgl/lvgl/src/extra/themes/default/../../../../src/hal/../draw/../misc/lv_color.h ****             res_opa_saved = 255 - ((uint16_t)((uint16_t)(255 - fg_opa) * (255 - bg_opa)) >> 8);
 569:Drivers/lvgl/lvgl/src/extra/themes/default/../../../../src/hal/../draw/../misc/lv_color.h ****             LV_ASSERT(res_opa_saved != 0);
 570:Drivers/lvgl/lvgl/src/extra/themes/default/../../../../src/hal/../draw/../misc/lv_color.h ****             lv_opa_t ratio = (uint16_t)((uint16_t)fg_opa * 255) / res_opa_saved;
 571:Drivers/lvgl/lvgl/src/extra/themes/default/../../../../src/hal/../draw/../misc/lv_color.h ****             res_color_saved = lv_color_mix(fg_color, bg_color, ratio);
 572:Drivers/lvgl/lvgl/src/extra/themes/default/../../../../src/hal/../draw/../misc/lv_color.h **** 
 573:Drivers/lvgl/lvgl/src/extra/themes/default/../../../../src/hal/../draw/../misc/lv_color.h ****         }
 574:Drivers/lvgl/lvgl/src/extra/themes/default/../../../../src/hal/../draw/../misc/lv_color.h **** 
 575:Drivers/lvgl/lvgl/src/extra/themes/default/../../../../src/hal/../draw/../misc/lv_color.h ****         res_color->full = res_color_saved.full;
 576:Drivers/lvgl/lvgl/src/extra/themes/default/../../../../src/hal/../draw/../misc/lv_color.h ****         *res_opa = res_opa_saved;
 577:Drivers/lvgl/lvgl/src/extra/themes/default/../../../../src/hal/../draw/../misc/lv_color.h ****     }
 578:Drivers/lvgl/lvgl/src/extra/themes/default/../../../../src/hal/../draw/../misc/lv_color.h **** }
 579:Drivers/lvgl/lvgl/src/extra/themes/default/../../../../src/hal/../draw/../misc/lv_color.h **** 
 580:Drivers/lvgl/lvgl/src/extra/themes/default/../../../../src/hal/../draw/../misc/lv_color.h **** //! @endcond
 581:Drivers/lvgl/lvgl/src/extra/themes/default/../../../../src/hal/../draw/../misc/lv_color.h **** 
 582:Drivers/lvgl/lvgl/src/extra/themes/default/../../../../src/hal/../draw/../misc/lv_color.h **** /**
 583:Drivers/lvgl/lvgl/src/extra/themes/default/../../../../src/hal/../draw/../misc/lv_color.h ****  * Get the brightness of a color
 584:Drivers/lvgl/lvgl/src/extra/themes/default/../../../../src/hal/../draw/../misc/lv_color.h ****  * @param color a color
 585:Drivers/lvgl/lvgl/src/extra/themes/default/../../../../src/hal/../draw/../misc/lv_color.h ****  * @return the brightness [0..255]
 586:Drivers/lvgl/lvgl/src/extra/themes/default/../../../../src/hal/../draw/../misc/lv_color.h ****  */
 587:Drivers/lvgl/lvgl/src/extra/themes/default/../../../../src/hal/../draw/../misc/lv_color.h **** static inline uint8_t lv_color_brightness(lv_color_t color)
 588:Drivers/lvgl/lvgl/src/extra/themes/default/../../../../src/hal/../draw/../misc/lv_color.h **** {
 589:Drivers/lvgl/lvgl/src/extra/themes/default/../../../../src/hal/../draw/../misc/lv_color.h ****     lv_color32_t c32;
 590:Drivers/lvgl/lvgl/src/extra/themes/default/../../../../src/hal/../draw/../misc/lv_color.h ****     c32.full        = lv_color_to32(color);
 591:Drivers/lvgl/lvgl/src/extra/themes/default/../../../../src/hal/../draw/../misc/lv_color.h ****     uint16_t bright = (uint16_t)(3u * LV_COLOR_GET_R32(c32) + LV_COLOR_GET_B32(c32) + 4u * LV_COLOR
 592:Drivers/lvgl/lvgl/src/extra/themes/default/../../../../src/hal/../draw/../misc/lv_color.h ****     return (uint8_t)(bright >> 3);
 593:Drivers/lvgl/lvgl/src/extra/themes/default/../../../../src/hal/../draw/../misc/lv_color.h **** }
 594:Drivers/lvgl/lvgl/src/extra/themes/default/../../../../src/hal/../draw/../misc/lv_color.h **** 
 595:Drivers/lvgl/lvgl/src/extra/themes/default/../../../../src/hal/../draw/../misc/lv_color.h **** static inline lv_color_t lv_color_make(uint8_t r, uint8_t g, uint8_t b)
 596:Drivers/lvgl/lvgl/src/extra/themes/default/../../../../src/hal/../draw/../misc/lv_color.h **** {
 597:Drivers/lvgl/lvgl/src/extra/themes/default/../../../../src/hal/../draw/../misc/lv_color.h ****     return _LV_COLOR_MAKE_TYPE_HELPER LV_COLOR_MAKE(r, g, b);
 598:Drivers/lvgl/lvgl/src/extra/themes/default/../../../../src/hal/../draw/../misc/lv_color.h **** }
 599:Drivers/lvgl/lvgl/src/extra/themes/default/../../../../src/hal/../draw/../misc/lv_color.h **** 
ARM GAS  /tmp/cc6wDDAF.s 			page 114


 600:Drivers/lvgl/lvgl/src/extra/themes/default/../../../../src/hal/../draw/../misc/lv_color.h **** static inline lv_color_t lv_color_hex(uint32_t c)
 601:Drivers/lvgl/lvgl/src/extra/themes/default/../../../../src/hal/../draw/../misc/lv_color.h **** {
 602:Drivers/lvgl/lvgl/src/extra/themes/default/../../../../src/hal/../draw/../misc/lv_color.h **** #if LV_COLOR_DEPTH == 16
 603:Drivers/lvgl/lvgl/src/extra/themes/default/../../../../src/hal/../draw/../misc/lv_color.h ****     lv_color_t r;
 604:Drivers/lvgl/lvgl/src/extra/themes/default/../../../../src/hal/../draw/../misc/lv_color.h **** #if LV_COLOR_16_SWAP == 0
 605:Drivers/lvgl/lvgl/src/extra/themes/default/../../../../src/hal/../draw/../misc/lv_color.h ****     /* Convert a 4 bytes per pixel in format ARGB32 to R5G6B5 format
 606:Drivers/lvgl/lvgl/src/extra/themes/default/../../../../src/hal/../draw/../misc/lv_color.h ****         naive way (by calling lv_color_make with components):
 607:Drivers/lvgl/lvgl/src/extra/themes/default/../../../../src/hal/../draw/../misc/lv_color.h ****                     r = ((c & 0xFF0000) >> 19)
 608:Drivers/lvgl/lvgl/src/extra/themes/default/../../../../src/hal/../draw/../misc/lv_color.h ****                     g = ((c & 0xFF00) >> 10)
 609:Drivers/lvgl/lvgl/src/extra/themes/default/../../../../src/hal/../draw/../misc/lv_color.h ****                     b = ((c & 0xFF) >> 3)
 610:Drivers/lvgl/lvgl/src/extra/themes/default/../../../../src/hal/../draw/../misc/lv_color.h ****                     rgb565 = (r << 11) | (g << 5) | b
 611:Drivers/lvgl/lvgl/src/extra/themes/default/../../../../src/hal/../draw/../misc/lv_color.h ****         That's 3 mask, 5 bitshift and 2 or operations
 612:Drivers/lvgl/lvgl/src/extra/themes/default/../../../../src/hal/../draw/../misc/lv_color.h **** 
 613:Drivers/lvgl/lvgl/src/extra/themes/default/../../../../src/hal/../draw/../misc/lv_color.h ****         A bit better:
 614:Drivers/lvgl/lvgl/src/extra/themes/default/../../../../src/hal/../draw/../misc/lv_color.h ****                     r = ((c & 0xF80000) >> 8)
 615:Drivers/lvgl/lvgl/src/extra/themes/default/../../../../src/hal/../draw/../misc/lv_color.h ****                     g = ((c & 0xFC00) >> 5)
 616:Drivers/lvgl/lvgl/src/extra/themes/default/../../../../src/hal/../draw/../misc/lv_color.h ****                     b = ((c & 0xFF) >> 3)
 617:Drivers/lvgl/lvgl/src/extra/themes/default/../../../../src/hal/../draw/../misc/lv_color.h ****                     rgb565 = r | g | b
 618:Drivers/lvgl/lvgl/src/extra/themes/default/../../../../src/hal/../draw/../misc/lv_color.h ****         That's 3 mask, 3 bitshifts and 2 or operations */
 619:Drivers/lvgl/lvgl/src/extra/themes/default/../../../../src/hal/../draw/../misc/lv_color.h ****     r.full = (uint16_t)(((c & 0xF80000) >> 8) | ((c & 0xFC00) >> 5) | ((c & 0xFF) >> 3));
 620:Drivers/lvgl/lvgl/src/extra/themes/default/../../../../src/hal/../draw/../misc/lv_color.h **** #else
 621:Drivers/lvgl/lvgl/src/extra/themes/default/../../../../src/hal/../draw/../misc/lv_color.h ****     /* We want: rrrr rrrr GGGg gggg bbbb bbbb => gggb bbbb rrrr rGGG */
 622:Drivers/lvgl/lvgl/src/extra/themes/default/../../../../src/hal/../draw/../misc/lv_color.h ****     r.full = (uint16_t)(((c & 0xF80000) >> 16) | ((c & 0xFC00) >> 13) | ((c & 0x1C00) << 3) | ((c &
 623:Drivers/lvgl/lvgl/src/extra/themes/default/../../../../src/hal/../draw/../misc/lv_color.h **** #endif
 624:Drivers/lvgl/lvgl/src/extra/themes/default/../../../../src/hal/../draw/../misc/lv_color.h ****     return r;
 625:Drivers/lvgl/lvgl/src/extra/themes/default/../../../../src/hal/../draw/../misc/lv_color.h **** #elif LV_COLOR_DEPTH == 32
 626:Drivers/lvgl/lvgl/src/extra/themes/default/../../../../src/hal/../draw/../misc/lv_color.h ****     lv_color_t r;
 627:Drivers/lvgl/lvgl/src/extra/themes/default/../../../../src/hal/../draw/../misc/lv_color.h ****     r.full = c | 0xFF000000;
 628:Drivers/lvgl/lvgl/src/extra/themes/default/../../../../src/hal/../draw/../misc/lv_color.h ****     return r;
 629:Drivers/lvgl/lvgl/src/extra/themes/default/../../../../src/hal/../draw/../misc/lv_color.h **** #else /*LV_COLOR_DEPTH == 8*/
 630:Drivers/lvgl/lvgl/src/extra/themes/default/../../../../src/hal/../draw/../misc/lv_color.h ****     return lv_color_make((uint8_t)((c >> 16) & 0xFF), (uint8_t)((c >> 8) & 0xFF), (uint8_t)(c & 0xF
 631:Drivers/lvgl/lvgl/src/extra/themes/default/../../../../src/hal/../draw/../misc/lv_color.h **** #endif
 632:Drivers/lvgl/lvgl/src/extra/themes/default/../../../../src/hal/../draw/../misc/lv_color.h **** }
 633:Drivers/lvgl/lvgl/src/extra/themes/default/../../../../src/hal/../draw/../misc/lv_color.h **** 
 634:Drivers/lvgl/lvgl/src/extra/themes/default/../../../../src/hal/../draw/../misc/lv_color.h **** static inline lv_color_t lv_color_hex3(uint32_t c)
 635:Drivers/lvgl/lvgl/src/extra/themes/default/../../../../src/hal/../draw/../misc/lv_color.h **** {
 636:Drivers/lvgl/lvgl/src/extra/themes/default/../../../../src/hal/../draw/../misc/lv_color.h ****     return lv_color_make((uint8_t)(((c >> 4) & 0xF0) | ((c >> 8) & 0xF)), (uint8_t)((c & 0xF0) | ((
 637:Drivers/lvgl/lvgl/src/extra/themes/default/../../../../src/hal/../draw/../misc/lv_color.h ****                          (uint8_t)((c & 0xF) | ((c & 0xF) << 4)));
 638:Drivers/lvgl/lvgl/src/extra/themes/default/../../../../src/hal/../draw/../misc/lv_color.h **** }
 639:Drivers/lvgl/lvgl/src/extra/themes/default/../../../../src/hal/../draw/../misc/lv_color.h **** 
 640:Drivers/lvgl/lvgl/src/extra/themes/default/../../../../src/hal/../draw/../misc/lv_color.h **** static inline void lv_color_filter_dsc_init(lv_color_filter_dsc_t * dsc, lv_color_filter_cb_t cb)
 641:Drivers/lvgl/lvgl/src/extra/themes/default/../../../../src/hal/../draw/../misc/lv_color.h **** {
 642:Drivers/lvgl/lvgl/src/extra/themes/default/../../../../src/hal/../draw/../misc/lv_color.h ****     dsc->filter_cb = cb;
 3472              		.loc 2 642 0
 3473 0590 454D     		ldr	r5, .L810+20
 3474 0592 464B     		ldr	r3, .L810+24
 3475 0594 2B60     		str	r3, [r5]
 3476              	.LVL462:
 3477              	.LBE608:
 3478              	.LBE607:
 3479              	.LBB609:
 3480              	.LBB610:
 3481 0596 464E     		ldr	r6, .L810+28
 3482 0598 464B     		ldr	r3, .L810+32
 3483 059a 3360     		str	r3, [r6]
 3484              	.LVL463:
 3485              	.LBE610:
ARM GAS  /tmp/cc6wDDAF.s 			page 115


 3486              	.LBE609:
 306:Drivers/lvgl/lvgl/src/extra/themes/default/lv_theme_default.c ****     lv_style_set_color_filter_dsc(&styles->pressed, &dark_filter);
 3487              		.loc 1 306 0
 3488 059c 3E4C     		ldr	r4, .L810+4
 3489 059e 2068     		ldr	r0, [r4]
 3490 05a0 5830     		adds	r0, r0, #88
 3491 05a2 FFF7FEFF 		bl	style_init_reset
 3492              	.LVL464:
 307:Drivers/lvgl/lvgl/src/extra/themes/default/lv_theme_default.c ****     lv_style_set_color_filter_opa(&styles->pressed, 35);
 3493              		.loc 1 307 0
 3494 05a6 2068     		ldr	r0, [r4]
 3495 05a8 2946     		mov	r1, r5
 3496 05aa 5830     		adds	r0, r0, #88
 3497 05ac FFF7FEFF 		bl	lv_style_set_color_filter_dsc
 3498              	.LVL465:
 308:Drivers/lvgl/lvgl/src/extra/themes/default/lv_theme_default.c **** 
 3499              		.loc 1 308 0
 3500 05b0 2068     		ldr	r0, [r4]
 3501 05b2 2321     		movs	r1, #35
 3502 05b4 5830     		adds	r0, r0, #88
 3503 05b6 FFF7FEFF 		bl	lv_style_set_color_filter_opa
 3504              	.LVL466:
 310:Drivers/lvgl/lvgl/src/extra/themes/default/lv_theme_default.c ****     lv_style_set_color_filter_dsc(&styles->disabled, &grey_filter);
 3505              		.loc 1 310 0
 3506 05ba 2068     		ldr	r0, [r4]
 3507 05bc 6030     		adds	r0, r0, #96
 3508 05be FFF7FEFF 		bl	style_init_reset
 3509              	.LVL467:
 311:Drivers/lvgl/lvgl/src/extra/themes/default/lv_theme_default.c ****     lv_style_set_color_filter_opa(&styles->disabled, LV_OPA_50);
 3510              		.loc 1 311 0
 3511 05c2 2068     		ldr	r0, [r4]
 3512 05c4 3146     		mov	r1, r6
 3513 05c6 6030     		adds	r0, r0, #96
 3514 05c8 FFF7FEFF 		bl	lv_style_set_color_filter_dsc
 3515              	.LVL468:
 312:Drivers/lvgl/lvgl/src/extra/themes/default/lv_theme_default.c **** 
 3516              		.loc 1 312 0
 3517 05cc 2068     		ldr	r0, [r4]
 3518 05ce 7F21     		movs	r1, #127
 3519 05d0 6030     		adds	r0, r0, #96
 3520 05d2 FFF7FEFF 		bl	lv_style_set_color_filter_opa
 3521              	.LVL469:
 314:Drivers/lvgl/lvgl/src/extra/themes/default/lv_theme_default.c ****     lv_style_set_clip_corner(&styles->clip_corner, true);
 3522              		.loc 1 314 0
 3523 05d6 2068     		ldr	r0, [r4]
 3524 05d8 C030     		adds	r0, r0, #192
 3525 05da FFF7FEFF 		bl	style_init_reset
 3526              	.LVL470:
 315:Drivers/lvgl/lvgl/src/extra/themes/default/lv_theme_default.c ****     lv_style_set_border_post(&styles->clip_corner, true);
 3527              		.loc 1 315 0
 3528 05de 2068     		ldr	r0, [r4]
 3529 05e0 0121     		movs	r1, #1
 3530 05e2 C030     		adds	r0, r0, #192
 3531 05e4 FFF7FEFF 		bl	lv_style_set_clip_corner
 3532              	.LVL471:
 316:Drivers/lvgl/lvgl/src/extra/themes/default/lv_theme_default.c **** 
 3533              		.loc 1 316 0
ARM GAS  /tmp/cc6wDDAF.s 			page 116


 3534 05e8 2068     		ldr	r0, [r4]
 3535 05ea 0121     		movs	r1, #1
 3536 05ec C030     		adds	r0, r0, #192
 3537 05ee FFF7FEFF 		bl	lv_style_set_border_post
 3538              	.LVL472:
 318:Drivers/lvgl/lvgl/src/extra/themes/default/lv_theme_default.c ****     lv_style_set_pad_all(&styles->pad_normal, PAD_DEF);
 3539              		.loc 1 318 0
 3540 05f2 2068     		ldr	r0, [r4]
 3541 05f4 8030     		adds	r0, r0, #128
 3542 05f6 FFF7FEFF 		bl	style_init_reset
 3543              	.LVL473:
 319:Drivers/lvgl/lvgl/src/extra/themes/default/lv_theme_default.c ****     lv_style_set_pad_row(&styles->pad_normal, PAD_DEF);
 3544              		.loc 1 319 0
 3545 05fa 2568     		ldr	r5, [r4]
 3546 05fc 8035     		adds	r5, r5, #128
 3547 05fe 274B     		ldr	r3, .L810+8
 3548 0600 1B78     		ldrb	r3, [r3]	@ zero_extendqisi2
 3549 0602 012B     		cmp	r3, #1
 3550 0604 01F0DA86 		beq	.L596
 319:Drivers/lvgl/lvgl/src/extra/themes/default/lv_theme_default.c ****     lv_style_set_pad_row(&styles->pad_normal, PAD_DEF);
 3551              		.loc 1 319 0 is_stmt 0 discriminator 2
 3552 0608 022B     		cmp	r3, #2
 3553 060a 01F0F686 		beq	.L597
 319:Drivers/lvgl/lvgl/src/extra/themes/default/lv_theme_default.c ****     lv_style_set_pad_row(&styles->pad_normal, PAD_DEF);
 3554              		.loc 1 319 0 discriminator 5
 3555 060e 214B     		ldr	r3, .L810
 3556 0610 DC68     		ldr	r4, [r3, #12]
 3557              	.LVL474:
 3558              	.LBB611:
 3559              	.LBB612:
 3560              		.loc 3 257 0 is_stmt 1 discriminator 5
 3561 0612 2046     		mov	r0, r4
 3562 0614 FFF7FEFF 		bl	lv_disp_get_dpi
 3563              	.LVL475:
 3564 0618 0001     		lsls	r0, r0, #4
 3565 061a 5030     		adds	r0, r0, #80
 3566 061c B0F5A07F 		cmp	r0, #320
 3567 0620 81F20A87 		bge	.L598
 3568              		.loc 3 257 0 is_stmt 0
 3569 0624 0124     		movs	r4, #1
 3570              	.LVL476:
 3571              	.L177:
 3572              	.LBE612:
 3573              	.LBE611:
 3574              	.LBB614:
 3575              	.LBB615:
 531:Drivers/lvgl/lvgl/src/extra/themes/default/../../../../src/hal/../draw/../misc/lv_style.h ****     lv_style_set_pad_right(style, value);
 3576              		.loc 4 531 0 is_stmt 1 discriminator 8
 3577 0626 2146     		mov	r1, r4
 3578 0628 2846     		mov	r0, r5
 3579 062a FFF7FEFF 		bl	lv_style_set_pad_left
 3580              	.LVL477:
 532:Drivers/lvgl/lvgl/src/extra/themes/default/../../../../src/hal/../draw/../misc/lv_style.h ****     lv_style_set_pad_top(style, value);
 3581              		.loc 4 532 0 discriminator 8
 3582 062e 2146     		mov	r1, r4
 3583 0630 2846     		mov	r0, r5
 3584 0632 FFF7FEFF 		bl	lv_style_set_pad_right
ARM GAS  /tmp/cc6wDDAF.s 			page 117


 3585              	.LVL478:
 533:Drivers/lvgl/lvgl/src/extra/themes/default/../../../../src/hal/../draw/../misc/lv_style.h ****     lv_style_set_pad_bottom(style, value);
 3586              		.loc 4 533 0 discriminator 8
 3587 0636 2146     		mov	r1, r4
 3588 0638 2846     		mov	r0, r5
 3589 063a FFF7FEFF 		bl	lv_style_set_pad_top
 3590              	.LVL479:
 534:Drivers/lvgl/lvgl/src/extra/themes/default/../../../../src/hal/../draw/../misc/lv_style.h **** }
 3591              		.loc 4 534 0 discriminator 8
 3592 063e 2146     		mov	r1, r4
 3593 0640 2846     		mov	r0, r5
 3594 0642 FFF7FEFF 		bl	lv_style_set_pad_bottom
 3595              	.LVL480:
 3596              	.LBE615:
 3597              	.LBE614:
 320:Drivers/lvgl/lvgl/src/extra/themes/default/lv_theme_default.c ****     lv_style_set_pad_column(&styles->pad_normal, PAD_DEF);
 3598              		.loc 1 320 0 discriminator 8
 3599 0646 144B     		ldr	r3, .L810+4
 3600 0648 1C68     		ldr	r4, [r3]
 3601 064a 8034     		adds	r4, r4, #128
 3602 064c 134B     		ldr	r3, .L810+8
 3603 064e 1B78     		ldrb	r3, [r3]	@ zero_extendqisi2
 3604 0650 012B     		cmp	r3, #1
 3605 0652 01F0FF86 		beq	.L599
 320:Drivers/lvgl/lvgl/src/extra/themes/default/lv_theme_default.c ****     lv_style_set_pad_column(&styles->pad_normal, PAD_DEF);
 3606              		.loc 1 320 0 is_stmt 0 discriminator 2
 3607 0656 022B     		cmp	r3, #2
 3608 0658 01F01B87 		beq	.L600
 320:Drivers/lvgl/lvgl/src/extra/themes/default/lv_theme_default.c ****     lv_style_set_pad_column(&styles->pad_normal, PAD_DEF);
 3609              		.loc 1 320 0 discriminator 5
 3610 065c 0D4B     		ldr	r3, .L810
 3611 065e DD68     		ldr	r5, [r3, #12]
 3612              	.LVL481:
 3613              	.LBB616:
 3614              	.LBB617:
 3615              		.loc 3 257 0 is_stmt 1 discriminator 5
 3616 0660 2846     		mov	r0, r5
 3617 0662 FFF7FEFF 		bl	lv_disp_get_dpi
 3618              	.LVL482:
 3619 0666 0001     		lsls	r0, r0, #4
 3620 0668 5030     		adds	r0, r0, #80
 3621 066a B0F5A07F 		cmp	r0, #320
 3622 066e 81F22F87 		bge	.L601
 3623              		.loc 3 257 0 is_stmt 0
 3624 0672 0121     		movs	r1, #1
 3625              	.LVL483:
 3626              	.L183:
 3627              	.LBE617:
 3628              	.LBE616:
 320:Drivers/lvgl/lvgl/src/extra/themes/default/lv_theme_default.c ****     lv_style_set_pad_column(&styles->pad_normal, PAD_DEF);
 3629              		.loc 1 320 0 is_stmt 1 discriminator 8
 3630 0674 2046     		mov	r0, r4
 3631 0676 FFF7FEFF 		bl	lv_style_set_pad_row
 3632              	.LVL484:
 321:Drivers/lvgl/lvgl/src/extra/themes/default/lv_theme_default.c **** 
 3633              		.loc 1 321 0 discriminator 8
 3634 067a 074B     		ldr	r3, .L810+4
ARM GAS  /tmp/cc6wDDAF.s 			page 118


 3635 067c 1C68     		ldr	r4, [r3]
 3636 067e 8034     		adds	r4, r4, #128
 3637 0680 064B     		ldr	r3, .L810+8
 3638 0682 1B78     		ldrb	r3, [r3]	@ zero_extendqisi2
 3639 0684 012B     		cmp	r3, #1
 3640 0686 01F03187 		beq	.L602
 321:Drivers/lvgl/lvgl/src/extra/themes/default/lv_theme_default.c **** 
 3641              		.loc 1 321 0 is_stmt 0 discriminator 2
 3642 068a 022B     		cmp	r3, #2
 3643 068c 01F04D87 		beq	.L603
 3644 0690 12E0     		b	.L811
 3645              	.L812:
 3646 0692 00BF     		.align	2
 3647              	.L810:
 3648 0694 00000000 		.word	.LANCHOR2
 3649 0698 00000000 		.word	.LANCHOR0
 3650 069c 00000000 		.word	.LANCHOR1
 3651 06a0 00000000 		.word	.LANCHOR7
 3652 06a4 00000000 		.word	.LANCHOR5
 3653 06a8 00000000 		.word	.LANCHOR11
 3654 06ac 00000000 		.word	dark_color_filter_cb
 3655 06b0 00000000 		.word	.LANCHOR12
 3656 06b4 00000000 		.word	grey_filter_cb
 3657              	.L811:
 321:Drivers/lvgl/lvgl/src/extra/themes/default/lv_theme_default.c **** 
 3658              		.loc 1 321 0 discriminator 5
 3659 06b8 CF4B     		ldr	r3, .L813
 3660 06ba DD68     		ldr	r5, [r3, #12]
 3661              	.LVL485:
 3662              	.LBB619:
 3663              	.LBB620:
 3664              		.loc 3 257 0 is_stmt 1 discriminator 5
 3665 06bc 2846     		mov	r0, r5
 3666 06be FFF7FEFF 		bl	lv_disp_get_dpi
 3667              	.LVL486:
 3668 06c2 0001     		lsls	r0, r0, #4
 3669 06c4 5030     		adds	r0, r0, #80
 3670 06c6 B0F5A07F 		cmp	r0, #320
 3671 06ca 81F24D87 		bge	.L604
 3672              		.loc 3 257 0 is_stmt 0
 3673 06ce 0121     		movs	r1, #1
 3674              	.LVL487:
 3675              	.L189:
 3676              	.LBE620:
 3677              	.LBE619:
 321:Drivers/lvgl/lvgl/src/extra/themes/default/lv_theme_default.c **** 
 3678              		.loc 1 321 0 is_stmt 1 discriminator 8
 3679 06d0 2046     		mov	r0, r4
 3680 06d2 FFF7FEFF 		bl	lv_style_set_pad_column
 3681              	.LVL488:
 323:Drivers/lvgl/lvgl/src/extra/themes/default/lv_theme_default.c ****     lv_style_set_pad_all(&styles->pad_small, PAD_SMALL);
 3682              		.loc 1 323 0 discriminator 8
 3683 06d6 C94C     		ldr	r4, .L813+4
 3684 06d8 2068     		ldr	r0, [r4]
 3685 06da 7830     		adds	r0, r0, #120
 3686 06dc FFF7FEFF 		bl	style_init_reset
 3687              	.LVL489:
ARM GAS  /tmp/cc6wDDAF.s 			page 119


 324:Drivers/lvgl/lvgl/src/extra/themes/default/lv_theme_default.c ****     lv_style_set_pad_gap(&styles->pad_small, PAD_SMALL);
 3688              		.loc 1 324 0 discriminator 8
 3689 06e0 2568     		ldr	r5, [r4]
 3690 06e2 7835     		adds	r5, r5, #120
 3691 06e4 C64B     		ldr	r3, .L813+8
 3692 06e6 1B78     		ldrb	r3, [r3]	@ zero_extendqisi2
 3693 06e8 012B     		cmp	r3, #1
 3694 06ea 01F04B87 		beq	.L605
 324:Drivers/lvgl/lvgl/src/extra/themes/default/lv_theme_default.c ****     lv_style_set_pad_gap(&styles->pad_small, PAD_SMALL);
 3695              		.loc 1 324 0 is_stmt 0 discriminator 2
 3696 06ee 022B     		cmp	r3, #2
 3697 06f0 01F06787 		beq	.L606
 324:Drivers/lvgl/lvgl/src/extra/themes/default/lv_theme_default.c ****     lv_style_set_pad_gap(&styles->pad_small, PAD_SMALL);
 3698              		.loc 1 324 0 discriminator 5
 3699 06f4 C04B     		ldr	r3, .L813
 3700 06f6 DC68     		ldr	r4, [r3, #12]
 3701              	.LVL490:
 3702              	.LBB622:
 3703              	.LBB623:
 3704              		.loc 3 257 0 is_stmt 1 discriminator 5
 3705 06f8 2046     		mov	r0, r4
 3706 06fa FFF7FEFF 		bl	lv_disp_get_dpi
 3707              	.LVL491:
 3708 06fe 00EB8000 		add	r0, r0, r0, lsl #2
 3709 0702 4000     		lsls	r0, r0, #1
 3710 0704 5030     		adds	r0, r0, #80
 3711 0706 B0F5A07F 		cmp	r0, #320
 3712 070a 81F27987 		bge	.L607
 3713              		.loc 3 257 0 is_stmt 0
 3714 070e 0124     		movs	r4, #1
 3715              	.LVL492:
 3716              	.L195:
 3717              	.LBE623:
 3718              	.LBE622:
 3719              	.LBB625:
 3720              	.LBB626:
 531:Drivers/lvgl/lvgl/src/extra/themes/default/../../../../src/hal/../draw/../misc/lv_style.h ****     lv_style_set_pad_right(style, value);
 3721              		.loc 4 531 0 is_stmt 1 discriminator 8
 3722 0710 2146     		mov	r1, r4
 3723 0712 2846     		mov	r0, r5
 3724 0714 FFF7FEFF 		bl	lv_style_set_pad_left
 3725              	.LVL493:
 532:Drivers/lvgl/lvgl/src/extra/themes/default/../../../../src/hal/../draw/../misc/lv_style.h ****     lv_style_set_pad_top(style, value);
 3726              		.loc 4 532 0 discriminator 8
 3727 0718 2146     		mov	r1, r4
 3728 071a 2846     		mov	r0, r5
 3729 071c FFF7FEFF 		bl	lv_style_set_pad_right
 3730              	.LVL494:
 533:Drivers/lvgl/lvgl/src/extra/themes/default/../../../../src/hal/../draw/../misc/lv_style.h ****     lv_style_set_pad_bottom(style, value);
 3731              		.loc 4 533 0 discriminator 8
 3732 0720 2146     		mov	r1, r4
 3733 0722 2846     		mov	r0, r5
 3734 0724 FFF7FEFF 		bl	lv_style_set_pad_top
 3735              	.LVL495:
 534:Drivers/lvgl/lvgl/src/extra/themes/default/../../../../src/hal/../draw/../misc/lv_style.h **** }
 3736              		.loc 4 534 0 discriminator 8
 3737 0728 2146     		mov	r1, r4
ARM GAS  /tmp/cc6wDDAF.s 			page 120


 3738 072a 2846     		mov	r0, r5
 3739 072c FFF7FEFF 		bl	lv_style_set_pad_bottom
 3740              	.LVL496:
 3741              	.LBE626:
 3742              	.LBE625:
 325:Drivers/lvgl/lvgl/src/extra/themes/default/lv_theme_default.c **** 
 3743              		.loc 1 325 0 discriminator 8
 3744 0730 B24B     		ldr	r3, .L813+4
 3745 0732 1D68     		ldr	r5, [r3]
 3746 0734 7835     		adds	r5, r5, #120
 3747 0736 B24B     		ldr	r3, .L813+8
 3748 0738 1B78     		ldrb	r3, [r3]	@ zero_extendqisi2
 3749 073a 012B     		cmp	r3, #1
 3750 073c 01F07087 		beq	.L608
 325:Drivers/lvgl/lvgl/src/extra/themes/default/lv_theme_default.c **** 
 3751              		.loc 1 325 0 is_stmt 0 discriminator 2
 3752 0740 022B     		cmp	r3, #2
 3753 0742 01F09187 		beq	.L609
 325:Drivers/lvgl/lvgl/src/extra/themes/default/lv_theme_default.c **** 
 3754              		.loc 1 325 0 discriminator 5
 3755 0746 AC4B     		ldr	r3, .L813
 3756 0748 DC68     		ldr	r4, [r3, #12]
 3757              	.LVL497:
 3758              	.LBB627:
 3759              	.LBB628:
 3760              		.loc 3 257 0 is_stmt 1 discriminator 5
 3761 074a 2046     		mov	r0, r4
 3762 074c FFF7FEFF 		bl	lv_disp_get_dpi
 3763              	.LVL498:
 3764 0750 00EB8000 		add	r0, r0, r0, lsl #2
 3765 0754 4000     		lsls	r0, r0, #1
 3766 0756 5030     		adds	r0, r0, #80
 3767 0758 B0F5A07F 		cmp	r0, #320
 3768 075c 81F2A387 		bge	.L610
 3769              		.loc 3 257 0 is_stmt 0
 3770 0760 0124     		movs	r4, #1
 3771              	.LVL499:
 3772              	.L201:
 3773              	.LBE628:
 3774              	.LBE627:
 3775              	.LBB630:
 3776              	.LBB631:
 547:Drivers/lvgl/lvgl/src/extra/themes/default/../../../../src/hal/../draw/../misc/lv_style.h **** }
 548:Drivers/lvgl/lvgl/src/extra/themes/default/../../../../src/hal/../draw/../misc/lv_style.h **** 
 549:Drivers/lvgl/lvgl/src/extra/themes/default/../../../../src/hal/../draw/../misc/lv_style.h **** static inline void lv_style_set_pad_gap(lv_style_t * style, lv_coord_t value)
 550:Drivers/lvgl/lvgl/src/extra/themes/default/../../../../src/hal/../draw/../misc/lv_style.h **** {
 551:Drivers/lvgl/lvgl/src/extra/themes/default/../../../../src/hal/../draw/../misc/lv_style.h ****     lv_style_set_pad_row(style, value);
 3777              		.loc 4 551 0 is_stmt 1 discriminator 8
 3778 0762 2146     		mov	r1, r4
 3779 0764 2846     		mov	r0, r5
 3780 0766 FFF7FEFF 		bl	lv_style_set_pad_row
 3781              	.LVL500:
 552:Drivers/lvgl/lvgl/src/extra/themes/default/../../../../src/hal/../draw/../misc/lv_style.h ****     lv_style_set_pad_column(style, value);
 3782              		.loc 4 552 0 discriminator 8
 3783 076a 2146     		mov	r1, r4
 3784 076c 2846     		mov	r0, r5
 3785 076e FFF7FEFF 		bl	lv_style_set_pad_column
ARM GAS  /tmp/cc6wDDAF.s 			page 121


 3786              	.LVL501:
 3787              	.LBE631:
 3788              	.LBE630:
 327:Drivers/lvgl/lvgl/src/extra/themes/default/lv_theme_default.c ****     lv_style_set_pad_row(&styles->pad_gap, lv_disp_dpx(theme.disp, 10));
 3789              		.loc 1 327 0 discriminator 8
 3790 0772 A24C     		ldr	r4, .L813+4
 3791 0774 2068     		ldr	r0, [r4]
 3792 0776 8830     		adds	r0, r0, #136
 3793 0778 FFF7FEFF 		bl	style_init_reset
 3794              	.LVL502:
 328:Drivers/lvgl/lvgl/src/extra/themes/default/lv_theme_default.c ****     lv_style_set_pad_column(&styles->pad_gap, lv_disp_dpx(theme.disp, 10));
 3795              		.loc 1 328 0 discriminator 8
 3796 077c 2468     		ldr	r4, [r4]
 3797 077e 8834     		adds	r4, r4, #136
 3798 0780 9D4B     		ldr	r3, .L813
 3799 0782 DD68     		ldr	r5, [r3, #12]
 3800              	.LVL503:
 3801              	.LBB632:
 3802              	.LBB633:
 3803              		.loc 3 257 0 discriminator 8
 3804 0784 2846     		mov	r0, r5
 3805 0786 FFF7FEFF 		bl	lv_disp_get_dpi
 3806              	.LVL504:
 3807 078a 00EB8000 		add	r0, r0, r0, lsl #2
 3808 078e 4000     		lsls	r0, r0, #1
 3809 0790 5030     		adds	r0, r0, #80
 3810 0792 B0F5A07F 		cmp	r0, #320
 3811 0796 81F29687 		bge	.L611
 3812              		.loc 3 257 0 is_stmt 0
 3813 079a 0121     		movs	r1, #1
 3814              	.L205:
 3815              	.LVL505:
 3816              	.LBE633:
 3817              	.LBE632:
 328:Drivers/lvgl/lvgl/src/extra/themes/default/lv_theme_default.c ****     lv_style_set_pad_column(&styles->pad_gap, lv_disp_dpx(theme.disp, 10));
 3818              		.loc 1 328 0 is_stmt 1
 3819 079c 2046     		mov	r0, r4
 3820 079e FFF7FEFF 		bl	lv_style_set_pad_row
 3821              	.LVL506:
 329:Drivers/lvgl/lvgl/src/extra/themes/default/lv_theme_default.c **** 
 3822              		.loc 1 329 0
 3823 07a2 964B     		ldr	r3, .L813+4
 3824 07a4 1C68     		ldr	r4, [r3]
 3825 07a6 8834     		adds	r4, r4, #136
 3826 07a8 934B     		ldr	r3, .L813
 3827 07aa DD68     		ldr	r5, [r3, #12]
 3828              	.LVL507:
 3829              	.LBB635:
 3830              	.LBB636:
 3831              		.loc 3 257 0
 3832 07ac 2846     		mov	r0, r5
 3833 07ae FFF7FEFF 		bl	lv_disp_get_dpi
 3834              	.LVL508:
 3835 07b2 00EB8000 		add	r0, r0, r0, lsl #2
 3836 07b6 4000     		lsls	r0, r0, #1
 3837 07b8 5030     		adds	r0, r0, #80
 3838 07ba B0F5A07F 		cmp	r0, #320
ARM GAS  /tmp/cc6wDDAF.s 			page 122


 3839 07be 81F29287 		bge	.L612
 3840 07c2 0121     		movs	r1, #1
 3841              	.L206:
 3842              	.LVL509:
 3843              	.LBE636:
 3844              	.LBE635:
 329:Drivers/lvgl/lvgl/src/extra/themes/default/lv_theme_default.c **** 
 3845              		.loc 1 329 0
 3846 07c4 2046     		mov	r0, r4
 3847 07c6 FFF7FEFF 		bl	lv_style_set_pad_column
 3848              	.LVL510:
 331:Drivers/lvgl/lvgl/src/extra/themes/default/lv_theme_default.c ****     lv_style_set_text_line_space(&styles->line_space_large, lv_disp_dpx(theme.disp, 20));
 3849              		.loc 1 331 0
 3850 07ca 8C4C     		ldr	r4, .L813+4
 3851 07cc 2068     		ldr	r0, [r4]
 3852 07ce 9030     		adds	r0, r0, #144
 3853 07d0 FFF7FEFF 		bl	style_init_reset
 3854              	.LVL511:
 332:Drivers/lvgl/lvgl/src/extra/themes/default/lv_theme_default.c **** 
 3855              		.loc 1 332 0
 3856 07d4 2468     		ldr	r4, [r4]
 3857 07d6 9034     		adds	r4, r4, #144
 3858 07d8 874B     		ldr	r3, .L813
 3859 07da DD68     		ldr	r5, [r3, #12]
 3860              	.LVL512:
 3861              	.LBB638:
 3862              	.LBB639:
 3863              		.loc 3 257 0
 3864 07dc 2846     		mov	r0, r5
 3865 07de FFF7FEFF 		bl	lv_disp_get_dpi
 3866              	.LVL513:
 3867 07e2 00EB8000 		add	r0, r0, r0, lsl #2
 3868 07e6 8000     		lsls	r0, r0, #2
 3869 07e8 5030     		adds	r0, r0, #80
 3870 07ea B0F5A07F 		cmp	r0, #320
 3871 07ee 81F28A87 		bge	.L613
 3872 07f2 0121     		movs	r1, #1
 3873              	.L207:
 3874              	.LVL514:
 3875              	.LBE639:
 3876              	.LBE638:
 332:Drivers/lvgl/lvgl/src/extra/themes/default/lv_theme_default.c **** 
 3877              		.loc 1 332 0
 3878 07f4 2046     		mov	r0, r4
 3879 07f6 FFF7FEFF 		bl	lv_style_set_text_line_space
 3880              	.LVL515:
 334:Drivers/lvgl/lvgl/src/extra/themes/default/lv_theme_default.c ****     lv_style_set_text_align(&styles->text_align_center, LV_TEXT_ALIGN_CENTER);
 3881              		.loc 1 334 0
 3882 07fa 804C     		ldr	r4, .L813+4
 3883 07fc 2068     		ldr	r0, [r4]
 3884 07fe 9830     		adds	r0, r0, #152
 3885 0800 FFF7FEFF 		bl	style_init_reset
 3886              	.LVL516:
 335:Drivers/lvgl/lvgl/src/extra/themes/default/lv_theme_default.c **** 
 3887              		.loc 1 335 0
 3888 0804 2068     		ldr	r0, [r4]
 3889 0806 0221     		movs	r1, #2
ARM GAS  /tmp/cc6wDDAF.s 			page 123


 3890 0808 9830     		adds	r0, r0, #152
 3891 080a FFF7FEFF 		bl	lv_style_set_text_align
 3892              	.LVL517:
 337:Drivers/lvgl/lvgl/src/extra/themes/default/lv_theme_default.c ****     lv_style_set_pad_all(&styles->pad_zero, 0);
 3893              		.loc 1 337 0
 3894 080e 2068     		ldr	r0, [r4]
 3895 0810 6830     		adds	r0, r0, #104
 3896 0812 FFF7FEFF 		bl	style_init_reset
 3897              	.LVL518:
 338:Drivers/lvgl/lvgl/src/extra/themes/default/lv_theme_default.c ****     lv_style_set_pad_row(&styles->pad_zero, 0);
 3898              		.loc 1 338 0
 3899 0816 2568     		ldr	r5, [r4]
 3900 0818 6835     		adds	r5, r5, #104
 3901              	.LVL519:
 3902              	.LBB641:
 3903              	.LBB642:
 531:Drivers/lvgl/lvgl/src/extra/themes/default/../../../../src/hal/../draw/../misc/lv_style.h ****     lv_style_set_pad_right(style, value);
 3904              		.loc 4 531 0
 3905 081a 0021     		movs	r1, #0
 3906 081c 2846     		mov	r0, r5
 3907 081e FFF7FEFF 		bl	lv_style_set_pad_left
 3908              	.LVL520:
 532:Drivers/lvgl/lvgl/src/extra/themes/default/../../../../src/hal/../draw/../misc/lv_style.h ****     lv_style_set_pad_top(style, value);
 3909              		.loc 4 532 0
 3910 0822 0021     		movs	r1, #0
 3911 0824 2846     		mov	r0, r5
 3912 0826 FFF7FEFF 		bl	lv_style_set_pad_right
 3913              	.LVL521:
 533:Drivers/lvgl/lvgl/src/extra/themes/default/../../../../src/hal/../draw/../misc/lv_style.h ****     lv_style_set_pad_bottom(style, value);
 3914              		.loc 4 533 0
 3915 082a 0021     		movs	r1, #0
 3916 082c 2846     		mov	r0, r5
 3917 082e FFF7FEFF 		bl	lv_style_set_pad_top
 3918              	.LVL522:
 534:Drivers/lvgl/lvgl/src/extra/themes/default/../../../../src/hal/../draw/../misc/lv_style.h **** }
 3919              		.loc 4 534 0
 3920 0832 0021     		movs	r1, #0
 3921 0834 2846     		mov	r0, r5
 3922 0836 FFF7FEFF 		bl	lv_style_set_pad_bottom
 3923              	.LVL523:
 3924              	.LBE642:
 3925              	.LBE641:
 339:Drivers/lvgl/lvgl/src/extra/themes/default/lv_theme_default.c ****     lv_style_set_pad_column(&styles->pad_zero, 0);
 3926              		.loc 1 339 0
 3927 083a 2068     		ldr	r0, [r4]
 3928 083c 0021     		movs	r1, #0
 3929 083e 6830     		adds	r0, r0, #104
 3930 0840 FFF7FEFF 		bl	lv_style_set_pad_row
 3931              	.LVL524:
 340:Drivers/lvgl/lvgl/src/extra/themes/default/lv_theme_default.c **** 
 3932              		.loc 1 340 0
 3933 0844 2068     		ldr	r0, [r4]
 3934 0846 0021     		movs	r1, #0
 3935 0848 6830     		adds	r0, r0, #104
 3936 084a FFF7FEFF 		bl	lv_style_set_pad_column
 3937              	.LVL525:
 342:Drivers/lvgl/lvgl/src/extra/themes/default/lv_theme_default.c ****     lv_style_set_pad_all(&styles->pad_tiny, PAD_TINY);
ARM GAS  /tmp/cc6wDDAF.s 			page 124


 3938              		.loc 1 342 0
 3939 084e 2068     		ldr	r0, [r4]
 3940 0850 7030     		adds	r0, r0, #112
 3941 0852 FFF7FEFF 		bl	style_init_reset
 3942              	.LVL526:
 343:Drivers/lvgl/lvgl/src/extra/themes/default/lv_theme_default.c ****     lv_style_set_pad_row(&styles->pad_tiny, PAD_TINY);
 3943              		.loc 1 343 0
 3944 0856 2568     		ldr	r5, [r4]
 3945 0858 7035     		adds	r5, r5, #112
 3946 085a 694B     		ldr	r3, .L813+8
 3947 085c 1B78     		ldrb	r3, [r3]	@ zero_extendqisi2
 3948 085e 012B     		cmp	r3, #1
 3949 0860 01F06187 		beq	.L614
 343:Drivers/lvgl/lvgl/src/extra/themes/default/lv_theme_default.c ****     lv_style_set_pad_row(&styles->pad_tiny, PAD_TINY);
 3950              		.loc 1 343 0 is_stmt 0 discriminator 2
 3951 0864 022B     		cmp	r3, #2
 3952 0866 01F07987 		beq	.L615
 343:Drivers/lvgl/lvgl/src/extra/themes/default/lv_theme_default.c ****     lv_style_set_pad_row(&styles->pad_tiny, PAD_TINY);
 3953              		.loc 1 343 0 discriminator 5
 3954 086a 634B     		ldr	r3, .L813
 3955 086c DC68     		ldr	r4, [r3, #12]
 3956              	.LVL527:
 3957              	.LBB643:
 3958              	.LBB644:
 3959              		.loc 3 257 0 is_stmt 1 discriminator 5
 3960 086e 2046     		mov	r0, r4
 3961 0870 FFF7FEFF 		bl	lv_disp_get_dpi
 3962              	.LVL528:
 3963 0874 4000     		lsls	r0, r0, #1
 3964 0876 5030     		adds	r0, r0, #80
 3965 0878 B0F5A07F 		cmp	r0, #320
 3966 087c 81F28D87 		bge	.L616
 3967              		.loc 3 257 0 is_stmt 0
 3968 0880 0124     		movs	r4, #1
 3969              	.LVL529:
 3970              	.L210:
 3971              	.LBE644:
 3972              	.LBE643:
 3973              	.LBB646:
 3974              	.LBB647:
 531:Drivers/lvgl/lvgl/src/extra/themes/default/../../../../src/hal/../draw/../misc/lv_style.h ****     lv_style_set_pad_right(style, value);
 3975              		.loc 4 531 0 is_stmt 1 discriminator 8
 3976 0882 2146     		mov	r1, r4
 3977 0884 2846     		mov	r0, r5
 3978 0886 FFF7FEFF 		bl	lv_style_set_pad_left
 3979              	.LVL530:
 532:Drivers/lvgl/lvgl/src/extra/themes/default/../../../../src/hal/../draw/../misc/lv_style.h ****     lv_style_set_pad_top(style, value);
 3980              		.loc 4 532 0 discriminator 8
 3981 088a 2146     		mov	r1, r4
 3982 088c 2846     		mov	r0, r5
 3983 088e FFF7FEFF 		bl	lv_style_set_pad_right
 3984              	.LVL531:
 533:Drivers/lvgl/lvgl/src/extra/themes/default/../../../../src/hal/../draw/../misc/lv_style.h ****     lv_style_set_pad_bottom(style, value);
 3985              		.loc 4 533 0 discriminator 8
 3986 0892 2146     		mov	r1, r4
 3987 0894 2846     		mov	r0, r5
 3988 0896 FFF7FEFF 		bl	lv_style_set_pad_top
ARM GAS  /tmp/cc6wDDAF.s 			page 125


 3989              	.LVL532:
 534:Drivers/lvgl/lvgl/src/extra/themes/default/../../../../src/hal/../draw/../misc/lv_style.h **** }
 3990              		.loc 4 534 0 discriminator 8
 3991 089a 2146     		mov	r1, r4
 3992 089c 2846     		mov	r0, r5
 3993 089e FFF7FEFF 		bl	lv_style_set_pad_bottom
 3994              	.LVL533:
 3995              	.LBE647:
 3996              	.LBE646:
 344:Drivers/lvgl/lvgl/src/extra/themes/default/lv_theme_default.c ****     lv_style_set_pad_column(&styles->pad_tiny, PAD_TINY);
 3997              		.loc 1 344 0 discriminator 8
 3998 08a2 564B     		ldr	r3, .L813+4
 3999 08a4 1C68     		ldr	r4, [r3]
 4000 08a6 7034     		adds	r4, r4, #112
 4001 08a8 554B     		ldr	r3, .L813+8
 4002 08aa 1B78     		ldrb	r3, [r3]	@ zero_extendqisi2
 4003 08ac 012B     		cmp	r3, #1
 4004 08ae 01F08287 		beq	.L617
 344:Drivers/lvgl/lvgl/src/extra/themes/default/lv_theme_default.c ****     lv_style_set_pad_column(&styles->pad_tiny, PAD_TINY);
 4005              		.loc 1 344 0 is_stmt 0 discriminator 2
 4006 08b2 022B     		cmp	r3, #2
 4007 08b4 01F09A87 		beq	.L618
 344:Drivers/lvgl/lvgl/src/extra/themes/default/lv_theme_default.c ****     lv_style_set_pad_column(&styles->pad_tiny, PAD_TINY);
 4008              		.loc 1 344 0 discriminator 5
 4009 08b8 4F4B     		ldr	r3, .L813
 4010 08ba DD68     		ldr	r5, [r3, #12]
 4011              	.LVL534:
 4012              	.LBB648:
 4013              	.LBB649:
 4014              		.loc 3 257 0 is_stmt 1 discriminator 5
 4015 08bc 2846     		mov	r0, r5
 4016 08be FFF7FEFF 		bl	lv_disp_get_dpi
 4017              	.LVL535:
 4018 08c2 4000     		lsls	r0, r0, #1
 4019 08c4 5030     		adds	r0, r0, #80
 4020 08c6 B0F5A07F 		cmp	r0, #320
 4021 08ca 81F2AE87 		bge	.L619
 4022              		.loc 3 257 0 is_stmt 0
 4023 08ce 0121     		movs	r1, #1
 4024              	.LVL536:
 4025              	.L216:
 4026              	.LBE649:
 4027              	.LBE648:
 344:Drivers/lvgl/lvgl/src/extra/themes/default/lv_theme_default.c ****     lv_style_set_pad_column(&styles->pad_tiny, PAD_TINY);
 4028              		.loc 1 344 0 is_stmt 1 discriminator 8
 4029 08d0 2046     		mov	r0, r4
 4030 08d2 FFF7FEFF 		bl	lv_style_set_pad_row
 4031              	.LVL537:
 345:Drivers/lvgl/lvgl/src/extra/themes/default/lv_theme_default.c **** 
 4032              		.loc 1 345 0 discriminator 8
 4033 08d6 494B     		ldr	r3, .L813+4
 4034 08d8 1C68     		ldr	r4, [r3]
 4035 08da 7034     		adds	r4, r4, #112
 4036 08dc 484B     		ldr	r3, .L813+8
 4037 08de 1B78     		ldrb	r3, [r3]	@ zero_extendqisi2
 4038 08e0 012B     		cmp	r3, #1
 4039 08e2 01F0B087 		beq	.L620
ARM GAS  /tmp/cc6wDDAF.s 			page 126


 345:Drivers/lvgl/lvgl/src/extra/themes/default/lv_theme_default.c **** 
 4040              		.loc 1 345 0 is_stmt 0 discriminator 2
 4041 08e6 022B     		cmp	r3, #2
 4042 08e8 01F0C887 		beq	.L621
 345:Drivers/lvgl/lvgl/src/extra/themes/default/lv_theme_default.c **** 
 4043              		.loc 1 345 0 discriminator 5
 4044 08ec 424B     		ldr	r3, .L813
 4045 08ee DD68     		ldr	r5, [r3, #12]
 4046              	.LVL538:
 4047              	.LBB651:
 4048              	.LBB652:
 4049              		.loc 3 257 0 is_stmt 1 discriminator 5
 4050 08f0 2846     		mov	r0, r5
 4051 08f2 FFF7FEFF 		bl	lv_disp_get_dpi
 4052              	.LVL539:
 4053 08f6 4000     		lsls	r0, r0, #1
 4054 08f8 5030     		adds	r0, r0, #80
 4055 08fa B0F5A07F 		cmp	r0, #320
 4056 08fe 81F2DC87 		bge	.L622
 4057              		.loc 3 257 0 is_stmt 0
 4058 0902 0121     		movs	r1, #1
 4059              	.LVL540:
 4060              	.L222:
 4061              	.LBE652:
 4062              	.LBE651:
 345:Drivers/lvgl/lvgl/src/extra/themes/default/lv_theme_default.c **** 
 4063              		.loc 1 345 0 is_stmt 1 discriminator 8
 4064 0904 2046     		mov	r0, r4
 4065 0906 FFF7FEFF 		bl	lv_style_set_pad_column
 4066              	.LVL541:
 347:Drivers/lvgl/lvgl/src/extra/themes/default/lv_theme_default.c ****     lv_style_set_bg_color(&styles->bg_color_primary, theme.color_primary);
 4067              		.loc 1 347 0 discriminator 8
 4068 090a 3C4C     		ldr	r4, .L813+4
 4069 090c 2068     		ldr	r0, [r4]
 4070 090e 2830     		adds	r0, r0, #40
 4071 0910 FFF7FEFF 		bl	style_init_reset
 4072              	.LVL542:
 348:Drivers/lvgl/lvgl/src/extra/themes/default/lv_theme_default.c ****     lv_style_set_text_color(&styles->bg_color_primary, lv_color_white());
 4073              		.loc 1 348 0 discriminator 8
 4074 0914 2068     		ldr	r0, [r4]
 4075 0916 384D     		ldr	r5, .L813
 4076 0918 298A     		ldrh	r1, [r5, #16]
 4077 091a 2830     		adds	r0, r0, #40
 4078 091c FFF7FEFF 		bl	lv_style_set_bg_color
 4079              	.LVL543:
 349:Drivers/lvgl/lvgl/src/extra/themes/default/lv_theme_default.c ****     lv_style_set_bg_opa(&styles->bg_color_primary, LV_OPA_COVER);
 4080              		.loc 1 349 0 discriminator 8
 4081 0920 2068     		ldr	r0, [r4]
 4082 0922 4FF0FF31 		mov	r1, #-1	@ movhi
 4083 0926 2830     		adds	r0, r0, #40
 4084 0928 FFF7FEFF 		bl	lv_style_set_text_color
 4085              	.LVL544:
 350:Drivers/lvgl/lvgl/src/extra/themes/default/lv_theme_default.c **** 
 4086              		.loc 1 350 0 discriminator 8
 4087 092c 2068     		ldr	r0, [r4]
 4088 092e FF21     		movs	r1, #255
 4089 0930 2830     		adds	r0, r0, #40
ARM GAS  /tmp/cc6wDDAF.s 			page 127


 4090 0932 FFF7FEFF 		bl	lv_style_set_bg_opa
 4091              	.LVL545:
 352:Drivers/lvgl/lvgl/src/extra/themes/default/lv_theme_default.c ****     lv_style_set_bg_color(&styles->bg_color_primary_muted, theme.color_primary);
 4092              		.loc 1 352 0 discriminator 8
 4093 0936 2068     		ldr	r0, [r4]
 4094 0938 3030     		adds	r0, r0, #48
 4095 093a FFF7FEFF 		bl	style_init_reset
 4096              	.LVL546:
 353:Drivers/lvgl/lvgl/src/extra/themes/default/lv_theme_default.c ****     lv_style_set_text_color(&styles->bg_color_primary_muted, theme.color_primary);
 4097              		.loc 1 353 0 discriminator 8
 4098 093e 2068     		ldr	r0, [r4]
 4099 0940 298A     		ldrh	r1, [r5, #16]
 4100 0942 3030     		adds	r0, r0, #48
 4101 0944 FFF7FEFF 		bl	lv_style_set_bg_color
 4102              	.LVL547:
 354:Drivers/lvgl/lvgl/src/extra/themes/default/lv_theme_default.c ****     lv_style_set_bg_opa(&styles->bg_color_primary_muted, LV_OPA_20);
 4103              		.loc 1 354 0 discriminator 8
 4104 0948 2068     		ldr	r0, [r4]
 4105 094a 298A     		ldrh	r1, [r5, #16]
 4106 094c 3030     		adds	r0, r0, #48
 4107 094e FFF7FEFF 		bl	lv_style_set_text_color
 4108              	.LVL548:
 355:Drivers/lvgl/lvgl/src/extra/themes/default/lv_theme_default.c **** 
 4109              		.loc 1 355 0 discriminator 8
 4110 0952 2068     		ldr	r0, [r4]
 4111 0954 3321     		movs	r1, #51
 4112 0956 3030     		adds	r0, r0, #48
 4113 0958 FFF7FEFF 		bl	lv_style_set_bg_opa
 4114              	.LVL549:
 357:Drivers/lvgl/lvgl/src/extra/themes/default/lv_theme_default.c ****     lv_style_set_bg_color(&styles->bg_color_secondary, theme.color_secondary);
 4115              		.loc 1 357 0 discriminator 8
 4116 095c 2068     		ldr	r0, [r4]
 4117 095e 3830     		adds	r0, r0, #56
 4118 0960 FFF7FEFF 		bl	style_init_reset
 4119              	.LVL550:
 358:Drivers/lvgl/lvgl/src/extra/themes/default/lv_theme_default.c ****     lv_style_set_text_color(&styles->bg_color_secondary, lv_color_white());
 4120              		.loc 1 358 0 discriminator 8
 4121 0964 2068     		ldr	r0, [r4]
 4122 0966 698A     		ldrh	r1, [r5, #18]
 4123 0968 3830     		adds	r0, r0, #56
 4124 096a FFF7FEFF 		bl	lv_style_set_bg_color
 4125              	.LVL551:
 359:Drivers/lvgl/lvgl/src/extra/themes/default/lv_theme_default.c ****     lv_style_set_bg_opa(&styles->bg_color_secondary, LV_OPA_COVER);
 4126              		.loc 1 359 0 discriminator 8
 4127 096e 2068     		ldr	r0, [r4]
 4128 0970 4FF0FF31 		mov	r1, #-1	@ movhi
 4129 0974 3830     		adds	r0, r0, #56
 4130 0976 FFF7FEFF 		bl	lv_style_set_text_color
 4131              	.LVL552:
 360:Drivers/lvgl/lvgl/src/extra/themes/default/lv_theme_default.c **** 
 4132              		.loc 1 360 0 discriminator 8
 4133 097a 2068     		ldr	r0, [r4]
 4134 097c FF21     		movs	r1, #255
 4135 097e 3830     		adds	r0, r0, #56
 4136 0980 FFF7FEFF 		bl	lv_style_set_bg_opa
 4137              	.LVL553:
 362:Drivers/lvgl/lvgl/src/extra/themes/default/lv_theme_default.c ****     lv_style_set_bg_color(&styles->bg_color_secondary_muted, theme.color_secondary);
ARM GAS  /tmp/cc6wDDAF.s 			page 128


 4138              		.loc 1 362 0 discriminator 8
 4139 0984 2068     		ldr	r0, [r4]
 4140 0986 4030     		adds	r0, r0, #64
 4141 0988 FFF7FEFF 		bl	style_init_reset
 4142              	.LVL554:
 363:Drivers/lvgl/lvgl/src/extra/themes/default/lv_theme_default.c ****     lv_style_set_text_color(&styles->bg_color_secondary_muted, theme.color_secondary);
 4143              		.loc 1 363 0 discriminator 8
 4144 098c 2068     		ldr	r0, [r4]
 4145 098e 698A     		ldrh	r1, [r5, #18]
 4146 0990 4030     		adds	r0, r0, #64
 4147 0992 FFF7FEFF 		bl	lv_style_set_bg_color
 4148              	.LVL555:
 364:Drivers/lvgl/lvgl/src/extra/themes/default/lv_theme_default.c ****     lv_style_set_bg_opa(&styles->bg_color_secondary_muted, LV_OPA_20);
 4149              		.loc 1 364 0 discriminator 8
 4150 0996 2068     		ldr	r0, [r4]
 4151 0998 698A     		ldrh	r1, [r5, #18]
 4152 099a 4030     		adds	r0, r0, #64
 4153 099c FFF7FEFF 		bl	lv_style_set_text_color
 4154              	.LVL556:
 365:Drivers/lvgl/lvgl/src/extra/themes/default/lv_theme_default.c **** 
 4155              		.loc 1 365 0 discriminator 8
 4156 09a0 2068     		ldr	r0, [r4]
 4157 09a2 3321     		movs	r1, #51
 4158 09a4 4030     		adds	r0, r0, #64
 4159 09a6 FFF7FEFF 		bl	lv_style_set_bg_opa
 4160              	.LVL557:
 367:Drivers/lvgl/lvgl/src/extra/themes/default/lv_theme_default.c ****     lv_style_set_bg_color(&styles->bg_color_grey, color_grey);
 4161              		.loc 1 367 0 discriminator 8
 4162 09aa 2068     		ldr	r0, [r4]
 4163 09ac 4830     		adds	r0, r0, #72
 4164 09ae FFF7FEFF 		bl	style_init_reset
 4165              	.LVL558:
 368:Drivers/lvgl/lvgl/src/extra/themes/default/lv_theme_default.c ****     lv_style_set_bg_opa(&styles->bg_color_grey, LV_OPA_COVER);
 4166              		.loc 1 368 0 discriminator 8
 4167 09b2 2068     		ldr	r0, [r4]
 4168 09b4 134B     		ldr	r3, .L813+12
 4169 09b6 1988     		ldrh	r1, [r3]
 4170 09b8 4830     		adds	r0, r0, #72
 4171 09ba FFF7FEFF 		bl	lv_style_set_bg_color
 4172              	.LVL559:
 369:Drivers/lvgl/lvgl/src/extra/themes/default/lv_theme_default.c ****     lv_style_set_text_color(&styles->bg_color_grey, color_text);
 4173              		.loc 1 369 0 discriminator 8
 4174 09be 2068     		ldr	r0, [r4]
 4175 09c0 FF21     		movs	r1, #255
 4176 09c2 4830     		adds	r0, r0, #72
 4177 09c4 FFF7FEFF 		bl	lv_style_set_bg_opa
 4178              	.LVL560:
 370:Drivers/lvgl/lvgl/src/extra/themes/default/lv_theme_default.c **** 
 4179              		.loc 1 370 0 discriminator 8
 4180 09c8 2068     		ldr	r0, [r4]
 4181 09ca 0F4E     		ldr	r6, .L813+16
 4182 09cc 3188     		ldrh	r1, [r6]
 4183 09ce 4830     		adds	r0, r0, #72
 4184 09d0 FFF7FEFF 		bl	lv_style_set_text_color
 4185              	.LVL561:
 372:Drivers/lvgl/lvgl/src/extra/themes/default/lv_theme_default.c ****     lv_style_set_bg_color(&styles->bg_color_white, color_card);
 4186              		.loc 1 372 0 discriminator 8
ARM GAS  /tmp/cc6wDDAF.s 			page 129


 4187 09d4 2068     		ldr	r0, [r4]
 4188 09d6 5030     		adds	r0, r0, #80
 4189 09d8 FFF7FEFF 		bl	style_init_reset
 4190              	.LVL562:
 373:Drivers/lvgl/lvgl/src/extra/themes/default/lv_theme_default.c ****     lv_style_set_bg_opa(&styles->bg_color_white, LV_OPA_COVER);
 4191              		.loc 1 373 0 discriminator 8
 4192 09dc 2068     		ldr	r0, [r4]
 4193 09de 0B4B     		ldr	r3, .L813+20
 4194 09e0 1988     		ldrh	r1, [r3]
 4195 09e2 5030     		adds	r0, r0, #80
 4196 09e4 FFF7FEFF 		bl	lv_style_set_bg_color
 4197              	.LVL563:
 374:Drivers/lvgl/lvgl/src/extra/themes/default/lv_theme_default.c ****     lv_style_set_text_color(&styles->bg_color_white, color_text);
 4198              		.loc 1 374 0 discriminator 8
 4199 09e8 2068     		ldr	r0, [r4]
 4200 09ea FF21     		movs	r1, #255
 4201 09ec 5030     		adds	r0, r0, #80
 4202 09ee FFF7FEFF 		bl	lv_style_set_bg_opa
 4203              	.LVL564:
 375:Drivers/lvgl/lvgl/src/extra/themes/default/lv_theme_default.c **** 
 4204              		.loc 1 375 0 discriminator 8
 4205 09f2 2068     		ldr	r0, [r4]
 4206 09f4 3188     		ldrh	r1, [r6]
 4207 09f6 0BE0     		b	.L814
 4208              	.L815:
 4209              		.align	2
 4210              	.L813:
 4211 09f8 00000000 		.word	.LANCHOR2
 4212 09fc 00000000 		.word	.LANCHOR0
 4213 0a00 00000000 		.word	.LANCHOR1
 4214 0a04 00000000 		.word	.LANCHOR7
 4215 0a08 00000000 		.word	.LANCHOR5
 4216 0a0c 00000000 		.word	.LANCHOR6
 4217              	.L814:
 4218 0a10 5030     		adds	r0, r0, #80
 4219 0a12 FFF7FEFF 		bl	lv_style_set_text_color
 4220              	.LVL565:
 377:Drivers/lvgl/lvgl/src/extra/themes/default/lv_theme_default.c ****     lv_style_set_radius(&styles->circle, LV_RADIUS_CIRCLE);
 4221              		.loc 1 377 0 discriminator 8
 4222 0a16 2068     		ldr	r0, [r4]
 4223 0a18 B030     		adds	r0, r0, #176
 4224 0a1a FFF7FEFF 		bl	style_init_reset
 4225              	.LVL566:
 378:Drivers/lvgl/lvgl/src/extra/themes/default/lv_theme_default.c **** 
 4226              		.loc 1 378 0 discriminator 8
 4227 0a1e 2068     		ldr	r0, [r4]
 4228 0a20 47F6FF71 		movw	r1, #32767
 4229 0a24 B030     		adds	r0, r0, #176
 4230 0a26 FFF7FEFF 		bl	lv_style_set_radius
 4231              	.LVL567:
 380:Drivers/lvgl/lvgl/src/extra/themes/default/lv_theme_default.c ****     lv_style_set_radius(&styles->no_radius, 0);
 4232              		.loc 1 380 0 discriminator 8
 4233 0a2a 2068     		ldr	r0, [r4]
 4234 0a2c B830     		adds	r0, r0, #184
 4235 0a2e FFF7FEFF 		bl	style_init_reset
 4236              	.LVL568:
 381:Drivers/lvgl/lvgl/src/extra/themes/default/lv_theme_default.c **** 
ARM GAS  /tmp/cc6wDDAF.s 			page 130


 4237              		.loc 1 381 0 discriminator 8
 4238 0a32 2068     		ldr	r0, [r4]
 4239 0a34 0021     		movs	r1, #0
 4240 0a36 B830     		adds	r0, r0, #184
 4241 0a38 FFF7FEFF 		bl	lv_style_set_radius
 4242              	.LVL569:
 384:Drivers/lvgl/lvgl/src/extra/themes/default/lv_theme_default.c ****     lv_style_set_transform_width(&styles->grow, lv_disp_dpx(theme.disp, 3));
 4243              		.loc 1 384 0 discriminator 8
 4244 0a3c 2068     		ldr	r0, [r4]
 4245 0a3e C830     		adds	r0, r0, #200
 4246 0a40 FFF7FEFF 		bl	style_init_reset
 4247              	.LVL570:
 385:Drivers/lvgl/lvgl/src/extra/themes/default/lv_theme_default.c ****     lv_style_set_transform_height(&styles->grow, lv_disp_dpx(theme.disp, 3));
 4248              		.loc 1 385 0 discriminator 8
 4249 0a44 2468     		ldr	r4, [r4]
 4250 0a46 C834     		adds	r4, r4, #200
 4251 0a48 ED68     		ldr	r5, [r5, #12]
 4252              	.LVL571:
 4253              	.LBB654:
 4254              	.LBB655:
 4255              		.loc 3 257 0 discriminator 8
 4256 0a4a 2846     		mov	r0, r5
 4257 0a4c FFF7FEFF 		bl	lv_disp_get_dpi
 4258              	.LVL572:
 4259 0a50 00EB4000 		add	r0, r0, r0, lsl #1
 4260 0a54 5030     		adds	r0, r0, #80
 4261 0a56 B0F5A07F 		cmp	r0, #320
 4262 0a5a 81F23C87 		bge	.L623
 4263              		.loc 3 257 0 is_stmt 0
 4264 0a5e 0121     		movs	r1, #1
 4265              	.L226:
 4266              	.LVL573:
 4267              	.LBE655:
 4268              	.LBE654:
 385:Drivers/lvgl/lvgl/src/extra/themes/default/lv_theme_default.c ****     lv_style_set_transform_height(&styles->grow, lv_disp_dpx(theme.disp, 3));
 4269              		.loc 1 385 0 is_stmt 1
 4270 0a60 2046     		mov	r0, r4
 4271 0a62 FFF7FEFF 		bl	lv_style_set_transform_width
 4272              	.LVL574:
 386:Drivers/lvgl/lvgl/src/extra/themes/default/lv_theme_default.c **** #endif
 4273              		.loc 1 386 0
 4274 0a66 D14B     		ldr	r3, .L816
 4275 0a68 1C68     		ldr	r4, [r3]
 4276 0a6a C834     		adds	r4, r4, #200
 4277 0a6c D04B     		ldr	r3, .L816+4
 4278 0a6e DD68     		ldr	r5, [r3, #12]
 4279              	.LVL575:
 4280              	.LBB657:
 4281              	.LBB658:
 4282              		.loc 3 257 0
 4283 0a70 2846     		mov	r0, r5
 4284 0a72 FFF7FEFF 		bl	lv_disp_get_dpi
 4285              	.LVL576:
 4286 0a76 00EB4000 		add	r0, r0, r0, lsl #1
 4287 0a7a 5030     		adds	r0, r0, #80
 4288 0a7c B0F5A07F 		cmp	r0, #320
 4289 0a80 81F23887 		bge	.L624
ARM GAS  /tmp/cc6wDDAF.s 			page 131


 4290 0a84 0121     		movs	r1, #1
 4291              	.L227:
 4292              	.LVL577:
 4293              	.LBE658:
 4294              	.LBE657:
 386:Drivers/lvgl/lvgl/src/extra/themes/default/lv_theme_default.c **** #endif
 4295              		.loc 1 386 0
 4296 0a86 2046     		mov	r0, r4
 4297 0a88 FFF7FEFF 		bl	lv_style_set_transform_height
 4298              	.LVL578:
 389:Drivers/lvgl/lvgl/src/extra/themes/default/lv_theme_default.c ****     lv_style_set_bg_color(&styles->knob, theme.color_primary);
 4299              		.loc 1 389 0
 4300 0a8c C74C     		ldr	r4, .L816
 4301 0a8e 2068     		ldr	r0, [r4]
 4302 0a90 F030     		adds	r0, r0, #240
 4303 0a92 FFF7FEFF 		bl	style_init_reset
 4304              	.LVL579:
 390:Drivers/lvgl/lvgl/src/extra/themes/default/lv_theme_default.c ****     lv_style_set_bg_opa(&styles->knob, LV_OPA_COVER);
 4305              		.loc 1 390 0
 4306 0a96 2068     		ldr	r0, [r4]
 4307 0a98 C54E     		ldr	r6, .L816+4
 4308 0a9a 318A     		ldrh	r1, [r6, #16]
 4309 0a9c F030     		adds	r0, r0, #240
 4310 0a9e FFF7FEFF 		bl	lv_style_set_bg_color
 4311              	.LVL580:
 391:Drivers/lvgl/lvgl/src/extra/themes/default/lv_theme_default.c ****     lv_style_set_pad_all(&styles->knob, lv_disp_dpx(theme.disp, 6));
 4312              		.loc 1 391 0
 4313 0aa2 2068     		ldr	r0, [r4]
 4314 0aa4 FF21     		movs	r1, #255
 4315 0aa6 F030     		adds	r0, r0, #240
 4316 0aa8 FFF7FEFF 		bl	lv_style_set_bg_opa
 4317              	.LVL581:
 392:Drivers/lvgl/lvgl/src/extra/themes/default/lv_theme_default.c ****     lv_style_set_radius(&styles->knob, LV_RADIUS_CIRCLE);
 4318              		.loc 1 392 0
 4319 0aac 2568     		ldr	r5, [r4]
 4320 0aae F035     		adds	r5, r5, #240
 4321 0ab0 F468     		ldr	r4, [r6, #12]
 4322              	.LVL582:
 4323              	.LBB660:
 4324              	.LBB661:
 4325              		.loc 3 257 0
 4326 0ab2 2046     		mov	r0, r4
 4327 0ab4 FFF7FEFF 		bl	lv_disp_get_dpi
 4328              	.LVL583:
 4329 0ab8 00EB4000 		add	r0, r0, r0, lsl #1
 4330 0abc 4000     		lsls	r0, r0, #1
 4331 0abe 5030     		adds	r0, r0, #80
 4332 0ac0 B0F5A07F 		cmp	r0, #320
 4333 0ac4 81F22587 		bge	.L625
 4334 0ac8 0124     		movs	r4, #1
 4335              	.LVL584:
 4336              	.L228:
 4337              	.LBE661:
 4338              	.LBE660:
 4339              	.LBB663:
 4340              	.LBB664:
 531:Drivers/lvgl/lvgl/src/extra/themes/default/../../../../src/hal/../draw/../misc/lv_style.h ****     lv_style_set_pad_right(style, value);
ARM GAS  /tmp/cc6wDDAF.s 			page 132


 4341              		.loc 4 531 0
 4342 0aca 2146     		mov	r1, r4
 4343 0acc 2846     		mov	r0, r5
 4344 0ace FFF7FEFF 		bl	lv_style_set_pad_left
 4345              	.LVL585:
 532:Drivers/lvgl/lvgl/src/extra/themes/default/../../../../src/hal/../draw/../misc/lv_style.h ****     lv_style_set_pad_top(style, value);
 4346              		.loc 4 532 0
 4347 0ad2 2146     		mov	r1, r4
 4348 0ad4 2846     		mov	r0, r5
 4349 0ad6 FFF7FEFF 		bl	lv_style_set_pad_right
 4350              	.LVL586:
 533:Drivers/lvgl/lvgl/src/extra/themes/default/../../../../src/hal/../draw/../misc/lv_style.h ****     lv_style_set_pad_bottom(style, value);
 4351              		.loc 4 533 0
 4352 0ada 2146     		mov	r1, r4
 4353 0adc 2846     		mov	r0, r5
 4354 0ade FFF7FEFF 		bl	lv_style_set_pad_top
 4355              	.LVL587:
 534:Drivers/lvgl/lvgl/src/extra/themes/default/../../../../src/hal/../draw/../misc/lv_style.h **** }
 4356              		.loc 4 534 0
 4357 0ae2 2146     		mov	r1, r4
 4358 0ae4 2846     		mov	r0, r5
 4359 0ae6 FFF7FEFF 		bl	lv_style_set_pad_bottom
 4360              	.LVL588:
 4361              	.LBE664:
 4362              	.LBE663:
 393:Drivers/lvgl/lvgl/src/extra/themes/default/lv_theme_default.c **** 
 4363              		.loc 1 393 0
 4364 0aea B04C     		ldr	r4, .L816
 4365 0aec 2068     		ldr	r0, [r4]
 4366 0aee 47F6FF71 		movw	r1, #32767
 4367 0af2 F030     		adds	r0, r0, #240
 4368 0af4 FFF7FEFF 		bl	lv_style_set_radius
 4369              	.LVL589:
 395:Drivers/lvgl/lvgl/src/extra/themes/default/lv_theme_default.c ****     lv_style_set_anim_time(&styles->anim, 200);
 4370              		.loc 1 395 0
 4371 0af8 2068     		ldr	r0, [r4]
 4372 0afa E030     		adds	r0, r0, #224
 4373 0afc FFF7FEFF 		bl	style_init_reset
 4374              	.LVL590:
 396:Drivers/lvgl/lvgl/src/extra/themes/default/lv_theme_default.c **** 
 4375              		.loc 1 396 0
 4376 0b00 2068     		ldr	r0, [r4]
 4377 0b02 C821     		movs	r1, #200
 4378 0b04 E030     		adds	r0, r0, #224
 4379 0b06 FFF7FEFF 		bl	lv_style_set_anim_time
 4380              	.LVL591:
 398:Drivers/lvgl/lvgl/src/extra/themes/default/lv_theme_default.c ****     lv_style_set_anim_time(&styles->anim_fast, 120);
 4381              		.loc 1 398 0
 4382 0b0a 2068     		ldr	r0, [r4]
 4383 0b0c E830     		adds	r0, r0, #232
 4384 0b0e FFF7FEFF 		bl	style_init_reset
 4385              	.LVL592:
 399:Drivers/lvgl/lvgl/src/extra/themes/default/lv_theme_default.c **** 
 4386              		.loc 1 399 0
 4387 0b12 2068     		ldr	r0, [r4]
 4388 0b14 7821     		movs	r1, #120
 4389 0b16 E830     		adds	r0, r0, #232
ARM GAS  /tmp/cc6wDDAF.s 			page 133


 4390 0b18 FFF7FEFF 		bl	lv_style_set_anim_time
 4391              	.LVL593:
 402:Drivers/lvgl/lvgl/src/extra/themes/default/lv_theme_default.c ****     lv_style_set_arc_color(&styles->arc_indic, color_grey);
 4392              		.loc 1 402 0
 4393 0b1c 2068     		ldr	r0, [r4]
 4394 0b1e 00F58070 		add	r0, r0, #256
 4395 0b22 FFF7FEFF 		bl	style_init_reset
 4396              	.LVL594:
 403:Drivers/lvgl/lvgl/src/extra/themes/default/lv_theme_default.c ****     lv_style_set_arc_width(&styles->arc_indic, lv_disp_dpx(theme.disp, 15));
 4397              		.loc 1 403 0
 4398 0b26 2068     		ldr	r0, [r4]
 4399 0b28 A24B     		ldr	r3, .L816+8
 4400 0b2a 1988     		ldrh	r1, [r3]
 4401 0b2c 00F58070 		add	r0, r0, #256
 4402 0b30 FFF7FEFF 		bl	lv_style_set_arc_color
 4403              	.LVL595:
 404:Drivers/lvgl/lvgl/src/extra/themes/default/lv_theme_default.c ****     lv_style_set_arc_rounded(&styles->arc_indic, true);
 4404              		.loc 1 404 0
 4405 0b34 2468     		ldr	r4, [r4]
 4406 0b36 04F58074 		add	r4, r4, #256
 4407 0b3a 9D4B     		ldr	r3, .L816+4
 4408 0b3c DD68     		ldr	r5, [r3, #12]
 4409              	.LVL596:
 4410              	.LBB665:
 4411              	.LBB666:
 4412              		.loc 3 257 0
 4413 0b3e 2846     		mov	r0, r5
 4414 0b40 FFF7FEFF 		bl	lv_disp_get_dpi
 4415              	.LVL597:
 4416 0b44 C0EB0010 		rsb	r0, r0, r0, lsl #4
 4417 0b48 5030     		adds	r0, r0, #80
 4418 0b4a B0F5A07F 		cmp	r0, #320
 4419 0b4e 81F2F086 		bge	.L626
 4420 0b52 0121     		movs	r1, #1
 4421              	.L229:
 4422              	.LVL598:
 4423              	.LBE666:
 4424              	.LBE665:
 404:Drivers/lvgl/lvgl/src/extra/themes/default/lv_theme_default.c ****     lv_style_set_arc_rounded(&styles->arc_indic, true);
 4425              		.loc 1 404 0
 4426 0b54 2046     		mov	r0, r4
 4427 0b56 FFF7FEFF 		bl	lv_style_set_arc_width
 4428              	.LVL599:
 405:Drivers/lvgl/lvgl/src/extra/themes/default/lv_theme_default.c **** 
 4429              		.loc 1 405 0
 4430 0b5a 944C     		ldr	r4, .L816
 4431 0b5c 2068     		ldr	r0, [r4]
 4432 0b5e 0121     		movs	r1, #1
 4433 0b60 00F58070 		add	r0, r0, #256
 4434 0b64 FFF7FEFF 		bl	lv_style_set_arc_rounded
 4435              	.LVL600:
 407:Drivers/lvgl/lvgl/src/extra/themes/default/lv_theme_default.c ****     lv_style_set_arc_color(&styles->arc_indic_primary, theme.color_primary);
 4436              		.loc 1 407 0
 4437 0b68 2068     		ldr	r0, [r4]
 4438 0b6a 00F58470 		add	r0, r0, #264
 4439 0b6e FFF7FEFF 		bl	style_init_reset
 4440              	.LVL601:
ARM GAS  /tmp/cc6wDDAF.s 			page 134


 408:Drivers/lvgl/lvgl/src/extra/themes/default/lv_theme_default.c **** #endif
 4441              		.loc 1 408 0
 4442 0b72 2068     		ldr	r0, [r4]
 4443 0b74 8E4E     		ldr	r6, .L816+4
 4444 0b76 318A     		ldrh	r1, [r6, #16]
 4445 0b78 00F58470 		add	r0, r0, #264
 4446 0b7c FFF7FEFF 		bl	lv_style_set_arc_color
 4447              	.LVL602:
 412:Drivers/lvgl/lvgl/src/extra/themes/default/lv_theme_default.c ****     lv_style_set_max_height(&styles->dropdown_list, LV_DPI_DEF * 2);
 4448              		.loc 1 412 0
 4449 0b80 2068     		ldr	r0, [r4]
 4450 0b82 00F59870 		add	r0, r0, #304
 4451 0b86 FFF7FEFF 		bl	style_init_reset
 4452              	.LVL603:
 413:Drivers/lvgl/lvgl/src/extra/themes/default/lv_theme_default.c **** #endif
 4453              		.loc 1 413 0
 4454 0b8a 2068     		ldr	r0, [r4]
 4455 0b8c 4FF48271 		mov	r1, #260
 4456 0b90 00F59870 		add	r0, r0, #304
 4457 0b94 FFF7FEFF 		bl	lv_style_set_max_height
 4458              	.LVL604:
 416:Drivers/lvgl/lvgl/src/extra/themes/default/lv_theme_default.c ****     lv_style_set_pad_all(&styles->cb_marker, lv_disp_dpx(theme.disp, 3));
 4459              		.loc 1 416 0
 4460 0b98 2068     		ldr	r0, [r4]
 4461 0b9a 00F59C70 		add	r0, r0, #312
 4462 0b9e FFF7FEFF 		bl	style_init_reset
 4463              	.LVL605:
 417:Drivers/lvgl/lvgl/src/extra/themes/default/lv_theme_default.c ****     lv_style_set_border_width(&styles->cb_marker, BORDER_WIDTH);
 4464              		.loc 1 417 0
 4465 0ba2 2568     		ldr	r5, [r4]
 4466 0ba4 05F59C75 		add	r5, r5, #312
 4467 0ba8 F468     		ldr	r4, [r6, #12]
 4468              	.LVL606:
 4469              	.LBB668:
 4470              	.LBB669:
 4471              		.loc 3 257 0
 4472 0baa 2046     		mov	r0, r4
 4473 0bac FFF7FEFF 		bl	lv_disp_get_dpi
 4474              	.LVL607:
 4475 0bb0 00EB4000 		add	r0, r0, r0, lsl #1
 4476 0bb4 5030     		adds	r0, r0, #80
 4477 0bb6 B0F5A07F 		cmp	r0, #320
 4478 0bba 81F2C986 		bge	.L627
 4479 0bbe 0124     		movs	r4, #1
 4480              	.LVL608:
 4481              	.L230:
 4482              	.LBE669:
 4483              	.LBE668:
 4484              	.LBB671:
 4485              	.LBB672:
 531:Drivers/lvgl/lvgl/src/extra/themes/default/../../../../src/hal/../draw/../misc/lv_style.h ****     lv_style_set_pad_right(style, value);
 4486              		.loc 4 531 0
 4487 0bc0 2146     		mov	r1, r4
 4488 0bc2 2846     		mov	r0, r5
 4489 0bc4 FFF7FEFF 		bl	lv_style_set_pad_left
 4490              	.LVL609:
 532:Drivers/lvgl/lvgl/src/extra/themes/default/../../../../src/hal/../draw/../misc/lv_style.h ****     lv_style_set_pad_top(style, value);
ARM GAS  /tmp/cc6wDDAF.s 			page 135


 4491              		.loc 4 532 0
 4492 0bc8 2146     		mov	r1, r4
 4493 0bca 2846     		mov	r0, r5
 4494 0bcc FFF7FEFF 		bl	lv_style_set_pad_right
 4495              	.LVL610:
 533:Drivers/lvgl/lvgl/src/extra/themes/default/../../../../src/hal/../draw/../misc/lv_style.h ****     lv_style_set_pad_bottom(style, value);
 4496              		.loc 4 533 0
 4497 0bd0 2146     		mov	r1, r4
 4498 0bd2 2846     		mov	r0, r5
 4499 0bd4 FFF7FEFF 		bl	lv_style_set_pad_top
 4500              	.LVL611:
 534:Drivers/lvgl/lvgl/src/extra/themes/default/../../../../src/hal/../draw/../misc/lv_style.h **** }
 4501              		.loc 4 534 0
 4502 0bd8 2146     		mov	r1, r4
 4503 0bda 2846     		mov	r0, r5
 4504 0bdc FFF7FEFF 		bl	lv_style_set_pad_bottom
 4505              	.LVL612:
 4506              	.LBE672:
 4507              	.LBE671:
 418:Drivers/lvgl/lvgl/src/extra/themes/default/lv_theme_default.c ****     lv_style_set_border_color(&styles->cb_marker, theme.color_primary);
 4508              		.loc 1 418 0
 4509 0be0 724B     		ldr	r3, .L816
 4510 0be2 1C68     		ldr	r4, [r3]
 4511 0be4 04F59C74 		add	r4, r4, #312
 4512 0be8 714B     		ldr	r3, .L816+4
 4513 0bea DD68     		ldr	r5, [r3, #12]
 4514              	.LVL613:
 4515              	.LBB673:
 4516              	.LBB674:
 4517              		.loc 3 257 0
 4518 0bec 2846     		mov	r0, r5
 4519 0bee FFF7FEFF 		bl	lv_disp_get_dpi
 4520              	.LVL614:
 4521 0bf2 4000     		lsls	r0, r0, #1
 4522 0bf4 5030     		adds	r0, r0, #80
 4523 0bf6 B0F5A07F 		cmp	r0, #320
 4524 0bfa 81F2B886 		bge	.L628
 4525 0bfe 0121     		movs	r1, #1
 4526              	.L231:
 4527              	.LVL615:
 4528              	.LBE674:
 4529              	.LBE673:
 418:Drivers/lvgl/lvgl/src/extra/themes/default/lv_theme_default.c ****     lv_style_set_border_color(&styles->cb_marker, theme.color_primary);
 4530              		.loc 1 418 0
 4531 0c00 2046     		mov	r0, r4
 4532 0c02 FFF7FEFF 		bl	lv_style_set_border_width
 4533              	.LVL616:
 419:Drivers/lvgl/lvgl/src/extra/themes/default/lv_theme_default.c ****     lv_style_set_bg_color(&styles->cb_marker, color_card);
 4534              		.loc 1 419 0
 4535 0c06 694C     		ldr	r4, .L816
 4536 0c08 2068     		ldr	r0, [r4]
 4537 0c0a 694B     		ldr	r3, .L816+4
 4538 0c0c 198A     		ldrh	r1, [r3, #16]
 4539 0c0e 00F59C70 		add	r0, r0, #312
 4540 0c12 FFF7FEFF 		bl	lv_style_set_border_color
 4541              	.LVL617:
 420:Drivers/lvgl/lvgl/src/extra/themes/default/lv_theme_default.c ****     lv_style_set_bg_opa(&styles->cb_marker, LV_OPA_COVER);
ARM GAS  /tmp/cc6wDDAF.s 			page 136


 4542              		.loc 1 420 0
 4543 0c16 2068     		ldr	r0, [r4]
 4544 0c18 674B     		ldr	r3, .L816+12
 4545 0c1a 1988     		ldrh	r1, [r3]
 4546 0c1c 00F59C70 		add	r0, r0, #312
 4547 0c20 FFF7FEFF 		bl	lv_style_set_bg_color
 4548              	.LVL618:
 421:Drivers/lvgl/lvgl/src/extra/themes/default/lv_theme_default.c ****     lv_style_set_radius(&styles->cb_marker, RADIUS_DEFAULT / 2);
 4549              		.loc 1 421 0
 4550 0c24 2068     		ldr	r0, [r4]
 4551 0c26 FF21     		movs	r1, #255
 4552 0c28 00F59C70 		add	r0, r0, #312
 4553 0c2c FFF7FEFF 		bl	lv_style_set_bg_opa
 4554              	.LVL619:
 422:Drivers/lvgl/lvgl/src/extra/themes/default/lv_theme_default.c **** 
 4555              		.loc 1 422 0
 4556 0c30 2468     		ldr	r4, [r4]
 4557 0c32 04F59C74 		add	r4, r4, #312
 4558 0c36 614B     		ldr	r3, .L816+16
 4559 0c38 1B78     		ldrb	r3, [r3]	@ zero_extendqisi2
 4560 0c3a 012B     		cmp	r3, #1
 4561 0c3c 01F0A586 		beq	.L629
 422:Drivers/lvgl/lvgl/src/extra/themes/default/lv_theme_default.c **** 
 4562              		.loc 1 422 0 is_stmt 0 discriminator 2
 4563 0c40 5B4B     		ldr	r3, .L816+4
 4564 0c42 DD68     		ldr	r5, [r3, #12]
 4565              	.LVL620:
 4566              	.LBB676:
 4567              	.LBB677:
 4568              		.loc 3 257 0 is_stmt 1 discriminator 2
 4569 0c44 2846     		mov	r0, r5
 4570 0c46 FFF7FEFF 		bl	lv_disp_get_dpi
 4571              	.LVL621:
 4572 0c4a C000     		lsls	r0, r0, #3
 4573 0c4c 5030     		adds	r0, r0, #80
 4574 0c4e B0F5A07F 		cmp	r0, #320
 4575 0c52 81F2C486 		bge	.L630
 4576              		.loc 3 257 0 is_stmt 0
 4577 0c56 0123     		movs	r3, #1
 4578              	.L236:
 4579              	.LVL622:
 4580              	.LBE677:
 4581              	.LBE676:
 422:Drivers/lvgl/lvgl/src/extra/themes/default/lv_theme_default.c **** 
 4582              		.loc 1 422 0 is_stmt 1
 4583 0c58 1946     		mov	r1, r3
 4584 0c5a 002B     		cmp	r3, #0
 4585 0c5c C1F2CD86 		blt	.L631
 4586              	.L237:
 4587 0c60 41F34F01 		sbfx	r1, r1, #1, #16
 4588              	.L235:
 422:Drivers/lvgl/lvgl/src/extra/themes/default/lv_theme_default.c **** 
 4589              		.loc 1 422 0 is_stmt 0 discriminator 4
 4590 0c64 2046     		mov	r0, r4
 4591 0c66 FFF7FEFF 		bl	lv_style_set_radius
 4592              	.LVL623:
 424:Drivers/lvgl/lvgl/src/extra/themes/default/lv_theme_default.c ****     lv_style_set_bg_img_src(&styles->cb_marker_checked, LV_SYMBOL_OK);
ARM GAS  /tmp/cc6wDDAF.s 			page 137


 4593              		.loc 1 424 0 is_stmt 1 discriminator 4
 4594 0c6a 504C     		ldr	r4, .L816
 4595 0c6c 2068     		ldr	r0, [r4]
 4596 0c6e 00F5A070 		add	r0, r0, #320
 4597 0c72 FFF7FEFF 		bl	style_init_reset
 4598              	.LVL624:
 425:Drivers/lvgl/lvgl/src/extra/themes/default/lv_theme_default.c ****     lv_style_set_text_color(&styles->cb_marker_checked, lv_color_white());
 4599              		.loc 1 425 0 discriminator 4
 4600 0c76 2068     		ldr	r0, [r4]
 4601 0c78 5149     		ldr	r1, .L816+20
 4602 0c7a 00F5A070 		add	r0, r0, #320
 4603 0c7e FFF7FEFF 		bl	lv_style_set_bg_img_src
 4604              	.LVL625:
 426:Drivers/lvgl/lvgl/src/extra/themes/default/lv_theme_default.c ****     lv_style_set_text_font(&styles->cb_marker_checked, theme.font_small);
 4605              		.loc 1 426 0 discriminator 4
 4606 0c82 2068     		ldr	r0, [r4]
 4607 0c84 4FF0FF31 		mov	r1, #-1	@ movhi
 4608 0c88 00F5A070 		add	r0, r0, #320
 4609 0c8c FFF7FEFF 		bl	lv_style_set_text_color
 4610              	.LVL626:
 427:Drivers/lvgl/lvgl/src/extra/themes/default/lv_theme_default.c **** #endif
 4611              		.loc 1 427 0 discriminator 4
 4612 0c90 2068     		ldr	r0, [r4]
 4613 0c92 474E     		ldr	r6, .L816+4
 4614 0c94 7169     		ldr	r1, [r6, #20]
 4615 0c96 00F5A070 		add	r0, r0, #320
 4616 0c9a FFF7FEFF 		bl	lv_style_set_text_font
 4617              	.LVL627:
 431:Drivers/lvgl/lvgl/src/extra/themes/default/lv_theme_default.c ****     lv_style_set_pad_all(&styles->switch_knob, - lv_disp_dpx(theme.disp, 4));
 4618              		.loc 1 431 0 discriminator 4
 4619 0c9e 2068     		ldr	r0, [r4]
 4620 0ca0 00F5A470 		add	r0, r0, #328
 4621 0ca4 FFF7FEFF 		bl	style_init_reset
 4622              	.LVL628:
 432:Drivers/lvgl/lvgl/src/extra/themes/default/lv_theme_default.c ****     lv_style_set_bg_color(&styles->switch_knob, lv_color_white());
 4623              		.loc 1 432 0 discriminator 4
 4624 0ca8 2568     		ldr	r5, [r4]
 4625 0caa 05F5A475 		add	r5, r5, #328
 4626 0cae F468     		ldr	r4, [r6, #12]
 4627              	.LVL629:
 4628              	.LBB679:
 4629              	.LBB680:
 4630              		.loc 3 257 0 discriminator 4
 4631 0cb0 2046     		mov	r0, r4
 4632 0cb2 FFF7FEFF 		bl	lv_disp_get_dpi
 4633              	.LVL630:
 4634 0cb6 8000     		lsls	r0, r0, #2
 4635 0cb8 5030     		adds	r0, r0, #80
 4636 0cba B0F5A07F 		cmp	r0, #320
 4637 0cbe 81F29F86 		bge	.L632
 4638              		.loc 3 257 0 is_stmt 0
 4639 0cc2 0124     		movs	r4, #1
 4640              	.LVL631:
 4641              	.L238:
 4642              	.LBE680:
 4643              	.LBE679:
 432:Drivers/lvgl/lvgl/src/extra/themes/default/lv_theme_default.c ****     lv_style_set_bg_color(&styles->switch_knob, lv_color_white());
ARM GAS  /tmp/cc6wDDAF.s 			page 138


 4644              		.loc 1 432 0 is_stmt 1
 4645 0cc4 A4B2     		uxth	r4, r4
 4646 0cc6 6442     		negs	r4, r4
 4647 0cc8 24B2     		sxth	r4, r4
 4648              	.LVL632:
 4649              	.LBB682:
 4650              	.LBB683:
 531:Drivers/lvgl/lvgl/src/extra/themes/default/../../../../src/hal/../draw/../misc/lv_style.h ****     lv_style_set_pad_right(style, value);
 4651              		.loc 4 531 0
 4652 0cca 2146     		mov	r1, r4
 4653 0ccc 2846     		mov	r0, r5
 4654 0cce FFF7FEFF 		bl	lv_style_set_pad_left
 4655              	.LVL633:
 532:Drivers/lvgl/lvgl/src/extra/themes/default/../../../../src/hal/../draw/../misc/lv_style.h ****     lv_style_set_pad_top(style, value);
 4656              		.loc 4 532 0
 4657 0cd2 2146     		mov	r1, r4
 4658 0cd4 2846     		mov	r0, r5
 4659 0cd6 FFF7FEFF 		bl	lv_style_set_pad_right
 4660              	.LVL634:
 533:Drivers/lvgl/lvgl/src/extra/themes/default/../../../../src/hal/../draw/../misc/lv_style.h ****     lv_style_set_pad_bottom(style, value);
 4661              		.loc 4 533 0
 4662 0cda 2146     		mov	r1, r4
 4663 0cdc 2846     		mov	r0, r5
 4664 0cde FFF7FEFF 		bl	lv_style_set_pad_top
 4665              	.LVL635:
 534:Drivers/lvgl/lvgl/src/extra/themes/default/../../../../src/hal/../draw/../misc/lv_style.h **** }
 4666              		.loc 4 534 0
 4667 0ce2 2146     		mov	r1, r4
 4668 0ce4 2846     		mov	r0, r5
 4669 0ce6 FFF7FEFF 		bl	lv_style_set_pad_bottom
 4670              	.LVL636:
 4671              	.LBE683:
 4672              	.LBE682:
 433:Drivers/lvgl/lvgl/src/extra/themes/default/lv_theme_default.c **** #endif
 4673              		.loc 1 433 0
 4674 0cea 304C     		ldr	r4, .L816
 4675 0cec 2068     		ldr	r0, [r4]
 4676 0cee 4FF0FF31 		mov	r1, #-1	@ movhi
 4677 0cf2 00F5A470 		add	r0, r0, #328
 4678 0cf6 FFF7FEFF 		bl	lv_style_set_bg_color
 4679              	.LVL637:
 437:Drivers/lvgl/lvgl/src/extra/themes/default/lv_theme_default.c ****     lv_style_set_line_width(&styles->line, 1);
 4680              		.loc 1 437 0
 4681 0cfa 2068     		ldr	r0, [r4]
 4682 0cfc 00F5A870 		add	r0, r0, #336
 4683 0d00 FFF7FEFF 		bl	style_init_reset
 4684              	.LVL638:
 438:Drivers/lvgl/lvgl/src/extra/themes/default/lv_theme_default.c ****     lv_style_set_line_color(&styles->line, color_text);
 4685              		.loc 1 438 0
 4686 0d04 2068     		ldr	r0, [r4]
 4687 0d06 0121     		movs	r1, #1
 4688 0d08 00F5A870 		add	r0, r0, #336
 4689 0d0c FFF7FEFF 		bl	lv_style_set_line_width
 4690              	.LVL639:
 439:Drivers/lvgl/lvgl/src/extra/themes/default/lv_theme_default.c **** #endif
 4691              		.loc 1 439 0
 4692 0d10 2068     		ldr	r0, [r4]
ARM GAS  /tmp/cc6wDDAF.s 			page 139


 4693 0d12 2C4B     		ldr	r3, .L816+24
 4694 0d14 1988     		ldrh	r1, [r3]
 4695 0d16 00F5A870 		add	r0, r0, #336
 4696 0d1a FFF7FEFF 		bl	lv_style_set_line_color
 4697              	.LVL640:
 443:Drivers/lvgl/lvgl/src/extra/themes/default/lv_theme_default.c ****     lv_style_set_border_post(&styles->chart_bg, false);
 4698              		.loc 1 443 0
 4699 0d1e 2068     		ldr	r0, [r4]
 4700 0d20 00F59470 		add	r0, r0, #296
 4701 0d24 FFF7FEFF 		bl	style_init_reset
 4702              	.LVL641:
 444:Drivers/lvgl/lvgl/src/extra/themes/default/lv_theme_default.c ****     lv_style_set_pad_column(&styles->chart_bg, lv_disp_dpx(theme.disp, 10));
 4703              		.loc 1 444 0
 4704 0d28 2068     		ldr	r0, [r4]
 4705 0d2a 0021     		movs	r1, #0
 4706 0d2c 00F59470 		add	r0, r0, #296
 4707 0d30 FFF7FEFF 		bl	lv_style_set_border_post
 4708              	.LVL642:
 445:Drivers/lvgl/lvgl/src/extra/themes/default/lv_theme_default.c ****     lv_style_set_line_color(&styles->chart_bg, color_grey);
 4709              		.loc 1 445 0
 4710 0d34 2468     		ldr	r4, [r4]
 4711 0d36 04F59474 		add	r4, r4, #296
 4712 0d3a 1D4B     		ldr	r3, .L816+4
 4713 0d3c DD68     		ldr	r5, [r3, #12]
 4714              	.LVL643:
 4715              	.LBB684:
 4716              	.LBB685:
 4717              		.loc 3 257 0
 4718 0d3e 2846     		mov	r0, r5
 4719 0d40 FFF7FEFF 		bl	lv_disp_get_dpi
 4720              	.LVL644:
 4721 0d44 00EB8000 		add	r0, r0, r0, lsl #2
 4722 0d48 4000     		lsls	r0, r0, #1
 4723 0d4a 5030     		adds	r0, r0, #80
 4724 0d4c B0F5A07F 		cmp	r0, #320
 4725 0d50 81F26486 		bge	.L633
 4726 0d54 0121     		movs	r1, #1
 4727              	.L239:
 4728              	.LVL645:
 4729              	.LBE685:
 4730              	.LBE684:
 445:Drivers/lvgl/lvgl/src/extra/themes/default/lv_theme_default.c ****     lv_style_set_line_color(&styles->chart_bg, color_grey);
 4731              		.loc 1 445 0
 4732 0d56 2046     		mov	r0, r4
 4733 0d58 FFF7FEFF 		bl	lv_style_set_pad_column
 4734              	.LVL646:
 446:Drivers/lvgl/lvgl/src/extra/themes/default/lv_theme_default.c **** 
 4735              		.loc 1 446 0
 4736 0d5c 134C     		ldr	r4, .L816
 4737 0d5e 2068     		ldr	r0, [r4]
 4738 0d60 144B     		ldr	r3, .L816+8
 4739 0d62 1988     		ldrh	r1, [r3]
 4740 0d64 00F59470 		add	r0, r0, #296
 4741 0d68 FFF7FEFF 		bl	lv_style_set_line_color
 4742              	.LVL647:
 448:Drivers/lvgl/lvgl/src/extra/themes/default/lv_theme_default.c ****     lv_style_set_line_width(&styles->chart_series, lv_disp_dpx(theme.disp, 3));
 4743              		.loc 1 448 0
ARM GAS  /tmp/cc6wDDAF.s 			page 140


 4744 0d6c 2068     		ldr	r0, [r4]
 4745 0d6e 00F58870 		add	r0, r0, #272
 4746 0d72 FFF7FEFF 		bl	style_init_reset
 4747              	.LVL648:
 449:Drivers/lvgl/lvgl/src/extra/themes/default/lv_theme_default.c ****     lv_style_set_radius(&styles->chart_series, lv_disp_dpx(theme.disp, 3));
 4748              		.loc 1 449 0
 4749 0d76 2468     		ldr	r4, [r4]
 4750 0d78 04F58874 		add	r4, r4, #272
 4751 0d7c 0C4B     		ldr	r3, .L816+4
 4752 0d7e DD68     		ldr	r5, [r3, #12]
 4753              	.LVL649:
 4754              	.LBB687:
 4755              	.LBB688:
 4756              		.loc 3 257 0
 4757 0d80 2846     		mov	r0, r5
 4758 0d82 FFF7FEFF 		bl	lv_disp_get_dpi
 4759              	.LVL650:
 4760 0d86 00EB4000 		add	r0, r0, r0, lsl #1
 4761 0d8a 5030     		adds	r0, r0, #80
 4762 0d8c B0F5A07F 		cmp	r0, #320
 4763 0d90 81F25486 		bge	.L634
 4764 0d94 0121     		movs	r1, #1
 4765              	.L240:
 4766              	.LVL651:
 4767              	.LBE688:
 4768              	.LBE687:
 449:Drivers/lvgl/lvgl/src/extra/themes/default/lv_theme_default.c ****     lv_style_set_radius(&styles->chart_series, lv_disp_dpx(theme.disp, 3));
 4769              		.loc 1 449 0
 4770 0d96 2046     		mov	r0, r4
 4771 0d98 FFF7FEFF 		bl	lv_style_set_line_width
 4772              	.LVL652:
 450:Drivers/lvgl/lvgl/src/extra/themes/default/lv_theme_default.c ****     lv_style_set_size(&styles->chart_series, lv_disp_dpx(theme.disp, 8));
 4773              		.loc 1 450 0
 4774 0d9c 034B     		ldr	r3, .L816
 4775 0d9e 1C68     		ldr	r4, [r3]
 4776 0da0 04F58874 		add	r4, r4, #272
 4777 0da4 024B     		ldr	r3, .L816+4
 4778 0da6 DD68     		ldr	r5, [r3, #12]
 4779              	.LVL653:
 4780              	.LBB690:
 4781              	.LBB691:
 4782              		.loc 3 257 0
 4783 0da8 2846     		mov	r0, r5
 4784 0daa 0DE0     		b	.L817
 4785              	.L818:
 4786              		.align	2
 4787              	.L816:
 4788 0dac 00000000 		.word	.LANCHOR0
 4789 0db0 00000000 		.word	.LANCHOR2
 4790 0db4 00000000 		.word	.LANCHOR7
 4791 0db8 00000000 		.word	.LANCHOR6
 4792 0dbc 00000000 		.word	.LANCHOR1
 4793 0dc0 00000000 		.word	.LC0
 4794 0dc4 00000000 		.word	.LANCHOR5
 4795              	.L817:
 4796 0dc8 FFF7FEFF 		bl	lv_disp_get_dpi
 4797              	.LVL654:
ARM GAS  /tmp/cc6wDDAF.s 			page 141


 4798 0dcc 00EB4000 		add	r0, r0, r0, lsl #1
 4799 0dd0 5030     		adds	r0, r0, #80
 4800 0dd2 B0F5A07F 		cmp	r0, #320
 4801 0dd6 81F24086 		bge	.L635
 4802 0dda 0121     		movs	r1, #1
 4803              	.L241:
 4804              	.LVL655:
 4805              	.LBE691:
 4806              	.LBE690:
 450:Drivers/lvgl/lvgl/src/extra/themes/default/lv_theme_default.c ****     lv_style_set_size(&styles->chart_series, lv_disp_dpx(theme.disp, 8));
 4807              		.loc 1 450 0
 4808 0ddc 2046     		mov	r0, r4
 4809 0dde FFF7FEFF 		bl	lv_style_set_radius
 4810              	.LVL656:
 451:Drivers/lvgl/lvgl/src/extra/themes/default/lv_theme_default.c ****     lv_style_set_pad_column(&styles->chart_series, lv_disp_dpx(theme.disp, 2));
 4811              		.loc 1 451 0
 4812 0de2 D54B     		ldr	r3, .L819
 4813 0de4 1D68     		ldr	r5, [r3]
 4814 0de6 05F58875 		add	r5, r5, #272
 4815 0dea D44B     		ldr	r3, .L819+4
 4816 0dec DC68     		ldr	r4, [r3, #12]
 4817              	.LVL657:
 4818              	.LBB693:
 4819              	.LBB694:
 4820              		.loc 3 257 0
 4821 0dee 2046     		mov	r0, r4
 4822 0df0 FFF7FEFF 		bl	lv_disp_get_dpi
 4823              	.LVL658:
 4824 0df4 C000     		lsls	r0, r0, #3
 4825 0df6 5030     		adds	r0, r0, #80
 4826 0df8 B0F5A07F 		cmp	r0, #320
 4827 0dfc 81F23C86 		bge	.L636
 4828 0e00 0124     		movs	r4, #1
 4829              	.LVL659:
 4830              	.L242:
 4831              	.LBE694:
 4832              	.LBE693:
 4833              	.LBB696:
 4834              	.LBB697:
 525:Drivers/lvgl/lvgl/src/extra/themes/default/../../../../src/hal/../draw/../misc/lv_style.h ****     lv_style_set_height(style, value);
 4835              		.loc 4 525 0
 4836 0e02 2146     		mov	r1, r4
 4837 0e04 2846     		mov	r0, r5
 4838 0e06 FFF7FEFF 		bl	lv_style_set_width
 4839              	.LVL660:
 526:Drivers/lvgl/lvgl/src/extra/themes/default/../../../../src/hal/../draw/../misc/lv_style.h **** }
 4840              		.loc 4 526 0
 4841 0e0a 2146     		mov	r1, r4
 4842 0e0c 2846     		mov	r0, r5
 4843 0e0e FFF7FEFF 		bl	lv_style_set_height
 4844              	.LVL661:
 4845              	.LBE697:
 4846              	.LBE696:
 452:Drivers/lvgl/lvgl/src/extra/themes/default/lv_theme_default.c **** 
 4847              		.loc 1 452 0
 4848 0e12 C94B     		ldr	r3, .L819
 4849 0e14 1C68     		ldr	r4, [r3]
ARM GAS  /tmp/cc6wDDAF.s 			page 142


 4850 0e16 04F58874 		add	r4, r4, #272
 4851 0e1a C84B     		ldr	r3, .L819+4
 4852 0e1c DD68     		ldr	r5, [r3, #12]
 4853              	.LVL662:
 4854              	.LBB698:
 4855              	.LBB699:
 4856              		.loc 3 257 0
 4857 0e1e 2846     		mov	r0, r5
 4858 0e20 FFF7FEFF 		bl	lv_disp_get_dpi
 4859              	.LVL663:
 4860 0e24 4000     		lsls	r0, r0, #1
 4861 0e26 5030     		adds	r0, r0, #80
 4862 0e28 B0F5A07F 		cmp	r0, #320
 4863 0e2c 81F23286 		bge	.L637
 4864 0e30 0121     		movs	r1, #1
 4865              	.L243:
 4866              	.LVL664:
 4867              	.LBE699:
 4868              	.LBE698:
 452:Drivers/lvgl/lvgl/src/extra/themes/default/lv_theme_default.c **** 
 4869              		.loc 1 452 0
 4870 0e32 2046     		mov	r0, r4
 4871 0e34 FFF7FEFF 		bl	lv_style_set_pad_column
 4872              	.LVL665:
 454:Drivers/lvgl/lvgl/src/extra/themes/default/lv_theme_default.c ****     lv_style_set_radius(&styles->chart_indic, LV_RADIUS_CIRCLE);
 4873              		.loc 1 454 0
 4874 0e38 BF4C     		ldr	r4, .L819
 4875 0e3a 2068     		ldr	r0, [r4]
 4876 0e3c 00F58C70 		add	r0, r0, #280
 4877 0e40 FFF7FEFF 		bl	style_init_reset
 4878              	.LVL666:
 455:Drivers/lvgl/lvgl/src/extra/themes/default/lv_theme_default.c ****     lv_style_set_size(&styles->chart_indic, lv_disp_dpx(theme.disp, 8));
 4879              		.loc 1 455 0
 4880 0e44 2068     		ldr	r0, [r4]
 4881 0e46 47F6FF71 		movw	r1, #32767
 4882 0e4a 00F58C70 		add	r0, r0, #280
 4883 0e4e FFF7FEFF 		bl	lv_style_set_radius
 4884              	.LVL667:
 456:Drivers/lvgl/lvgl/src/extra/themes/default/lv_theme_default.c ****     lv_style_set_bg_color(&styles->chart_indic, theme.color_primary);
 4885              		.loc 1 456 0
 4886 0e52 2568     		ldr	r5, [r4]
 4887 0e54 05F58C75 		add	r5, r5, #280
 4888 0e58 B84B     		ldr	r3, .L819+4
 4889 0e5a DC68     		ldr	r4, [r3, #12]
 4890              	.LVL668:
 4891              	.LBB701:
 4892              	.LBB702:
 4893              		.loc 3 257 0
 4894 0e5c 2046     		mov	r0, r4
 4895 0e5e FFF7FEFF 		bl	lv_disp_get_dpi
 4896              	.LVL669:
 4897 0e62 C000     		lsls	r0, r0, #3
 4898 0e64 5030     		adds	r0, r0, #80
 4899 0e66 B0F5A07F 		cmp	r0, #320
 4900 0e6a 81F22186 		bge	.L638
 4901 0e6e 0124     		movs	r4, #1
 4902              	.LVL670:
ARM GAS  /tmp/cc6wDDAF.s 			page 143


 4903              	.L244:
 4904              	.LBE702:
 4905              	.LBE701:
 4906              	.LBB704:
 4907              	.LBB705:
 525:Drivers/lvgl/lvgl/src/extra/themes/default/../../../../src/hal/../draw/../misc/lv_style.h ****     lv_style_set_height(style, value);
 4908              		.loc 4 525 0
 4909 0e70 2146     		mov	r1, r4
 4910 0e72 2846     		mov	r0, r5
 4911 0e74 FFF7FEFF 		bl	lv_style_set_width
 4912              	.LVL671:
 526:Drivers/lvgl/lvgl/src/extra/themes/default/../../../../src/hal/../draw/../misc/lv_style.h **** }
 4913              		.loc 4 526 0
 4914 0e78 2146     		mov	r1, r4
 4915 0e7a 2846     		mov	r0, r5
 4916 0e7c FFF7FEFF 		bl	lv_style_set_height
 4917              	.LVL672:
 4918              	.LBE705:
 4919              	.LBE704:
 457:Drivers/lvgl/lvgl/src/extra/themes/default/lv_theme_default.c ****     lv_style_set_bg_opa(&styles->chart_indic, LV_OPA_COVER);
 4920              		.loc 1 457 0
 4921 0e80 AD4C     		ldr	r4, .L819
 4922 0e82 2068     		ldr	r0, [r4]
 4923 0e84 AD4D     		ldr	r5, .L819+4
 4924 0e86 298A     		ldrh	r1, [r5, #16]
 4925 0e88 00F58C70 		add	r0, r0, #280
 4926 0e8c FFF7FEFF 		bl	lv_style_set_bg_color
 4927              	.LVL673:
 458:Drivers/lvgl/lvgl/src/extra/themes/default/lv_theme_default.c **** 
 4928              		.loc 1 458 0
 4929 0e90 2068     		ldr	r0, [r4]
 4930 0e92 FF21     		movs	r1, #255
 4931 0e94 00F58C70 		add	r0, r0, #280
 4932 0e98 FFF7FEFF 		bl	lv_style_set_bg_opa
 4933              	.LVL674:
 460:Drivers/lvgl/lvgl/src/extra/themes/default/lv_theme_default.c ****     lv_style_set_line_width(&styles->chart_ticks, lv_disp_dpx(theme.disp, 1));
 4934              		.loc 1 460 0
 4935 0e9c 2068     		ldr	r0, [r4]
 4936 0e9e 00F59070 		add	r0, r0, #288
 4937 0ea2 FFF7FEFF 		bl	style_init_reset
 4938              	.LVL675:
 461:Drivers/lvgl/lvgl/src/extra/themes/default/lv_theme_default.c ****     lv_style_set_line_color(&styles->chart_ticks, color_text);
 4939              		.loc 1 461 0
 4940 0ea6 2468     		ldr	r4, [r4]
 4941 0ea8 04F59074 		add	r4, r4, #288
 4942 0eac ED68     		ldr	r5, [r5, #12]
 4943              	.LVL676:
 4944              	.LBB706:
 4945              	.LBB707:
 4946              		.loc 3 257 0
 4947 0eae 2846     		mov	r0, r5
 4948 0eb0 FFF7FEFF 		bl	lv_disp_get_dpi
 4949              	.LVL677:
 4950 0eb4 5030     		adds	r0, r0, #80
 4951 0eb6 B0F5A07F 		cmp	r0, #320
 4952 0eba 81F20786 		bge	.L639
 4953 0ebe 0121     		movs	r1, #1
ARM GAS  /tmp/cc6wDDAF.s 			page 144


 4954              	.L245:
 4955              	.LVL678:
 4956              	.LBE707:
 4957              	.LBE706:
 461:Drivers/lvgl/lvgl/src/extra/themes/default/lv_theme_default.c ****     lv_style_set_line_color(&styles->chart_ticks, color_text);
 4958              		.loc 1 461 0
 4959 0ec0 2046     		mov	r0, r4
 4960 0ec2 FFF7FEFF 		bl	lv_style_set_line_width
 4961              	.LVL679:
 462:Drivers/lvgl/lvgl/src/extra/themes/default/lv_theme_default.c ****     lv_style_set_pad_all(&styles->chart_ticks, lv_disp_dpx(theme.disp, 2));
 4962              		.loc 1 462 0
 4963 0ec6 9C4C     		ldr	r4, .L819
 4964 0ec8 2068     		ldr	r0, [r4]
 4965 0eca 9D4B     		ldr	r3, .L819+8
 4966 0ecc 1988     		ldrh	r1, [r3]
 4967 0ece 00F59070 		add	r0, r0, #288
 4968 0ed2 FFF7FEFF 		bl	lv_style_set_line_color
 4969              	.LVL680:
 463:Drivers/lvgl/lvgl/src/extra/themes/default/lv_theme_default.c ****     lv_style_set_text_color(&styles->chart_ticks, lv_palette_main(LV_PALETTE_GREY));
 4970              		.loc 1 463 0
 4971 0ed6 2568     		ldr	r5, [r4]
 4972 0ed8 05F59075 		add	r5, r5, #288
 4973 0edc 974B     		ldr	r3, .L819+4
 4974 0ede DC68     		ldr	r4, [r3, #12]
 4975              	.LVL681:
 4976              	.LBB709:
 4977              	.LBB710:
 4978              		.loc 3 257 0
 4979 0ee0 2046     		mov	r0, r4
 4980 0ee2 FFF7FEFF 		bl	lv_disp_get_dpi
 4981              	.LVL682:
 4982 0ee6 4000     		lsls	r0, r0, #1
 4983 0ee8 5030     		adds	r0, r0, #80
 4984 0eea B0F5A07F 		cmp	r0, #320
 4985 0eee 81F2FA85 		bge	.L640
 4986 0ef2 0124     		movs	r4, #1
 4987              	.LVL683:
 4988              	.L246:
 4989              	.LBE710:
 4990              	.LBE709:
 4991              	.LBB712:
 4992              	.LBB713:
 531:Drivers/lvgl/lvgl/src/extra/themes/default/../../../../src/hal/../draw/../misc/lv_style.h ****     lv_style_set_pad_right(style, value);
 4993              		.loc 4 531 0
 4994 0ef4 2146     		mov	r1, r4
 4995 0ef6 2846     		mov	r0, r5
 4996 0ef8 FFF7FEFF 		bl	lv_style_set_pad_left
 4997              	.LVL684:
 532:Drivers/lvgl/lvgl/src/extra/themes/default/../../../../src/hal/../draw/../misc/lv_style.h ****     lv_style_set_pad_top(style, value);
 4998              		.loc 4 532 0
 4999 0efc 2146     		mov	r1, r4
 5000 0efe 2846     		mov	r0, r5
 5001 0f00 FFF7FEFF 		bl	lv_style_set_pad_right
 5002              	.LVL685:
 533:Drivers/lvgl/lvgl/src/extra/themes/default/../../../../src/hal/../draw/../misc/lv_style.h ****     lv_style_set_pad_bottom(style, value);
 5003              		.loc 4 533 0
 5004 0f04 2146     		mov	r1, r4
ARM GAS  /tmp/cc6wDDAF.s 			page 145


 5005 0f06 2846     		mov	r0, r5
 5006 0f08 FFF7FEFF 		bl	lv_style_set_pad_top
 5007              	.LVL686:
 534:Drivers/lvgl/lvgl/src/extra/themes/default/../../../../src/hal/../draw/../misc/lv_style.h **** }
 5008              		.loc 4 534 0
 5009 0f0c 2146     		mov	r1, r4
 5010 0f0e 2846     		mov	r0, r5
 5011 0f10 FFF7FEFF 		bl	lv_style_set_pad_bottom
 5012              	.LVL687:
 5013              	.LBE713:
 5014              	.LBE712:
 464:Drivers/lvgl/lvgl/src/extra/themes/default/lv_theme_default.c **** #endif
 5015              		.loc 1 464 0
 5016 0f14 884C     		ldr	r4, .L819
 5017 0f16 2568     		ldr	r5, [r4]
 5018 0f18 1220     		movs	r0, #18
 5019 0f1a FFF7FEFF 		bl	lv_palette_main
 5020              	.LVL688:
 5021 0f1e 0146     		mov	r1, r0	@ movhi
 5022 0f20 05F59070 		add	r0, r5, #288
 5023 0f24 FFF7FEFF 		bl	lv_style_set_text_color
 5024              	.LVL689:
 468:Drivers/lvgl/lvgl/src/extra/themes/default/lv_theme_default.c ****     lv_style_set_pad_all(&styles->menu_bg, 0);
 5025              		.loc 1 468 0
 5026 0f28 2068     		ldr	r0, [r4]
 5027 0f2a 00F5D070 		add	r0, r0, #416
 5028 0f2e FFF7FEFF 		bl	style_init_reset
 5029              	.LVL690:
 469:Drivers/lvgl/lvgl/src/extra/themes/default/lv_theme_default.c ****     lv_style_set_pad_gap(&styles->menu_bg, 0);
 5030              		.loc 1 469 0
 5031 0f32 2568     		ldr	r5, [r4]
 5032 0f34 05F5D075 		add	r5, r5, #416
 5033              	.LVL691:
 5034              	.LBB714:
 5035              	.LBB715:
 531:Drivers/lvgl/lvgl/src/extra/themes/default/../../../../src/hal/../draw/../misc/lv_style.h ****     lv_style_set_pad_right(style, value);
 5036              		.loc 4 531 0
 5037 0f38 0021     		movs	r1, #0
 5038 0f3a 2846     		mov	r0, r5
 5039 0f3c FFF7FEFF 		bl	lv_style_set_pad_left
 5040              	.LVL692:
 532:Drivers/lvgl/lvgl/src/extra/themes/default/../../../../src/hal/../draw/../misc/lv_style.h ****     lv_style_set_pad_top(style, value);
 5041              		.loc 4 532 0
 5042 0f40 0021     		movs	r1, #0
 5043 0f42 2846     		mov	r0, r5
 5044 0f44 FFF7FEFF 		bl	lv_style_set_pad_right
 5045              	.LVL693:
 533:Drivers/lvgl/lvgl/src/extra/themes/default/../../../../src/hal/../draw/../misc/lv_style.h ****     lv_style_set_pad_bottom(style, value);
 5046              		.loc 4 533 0
 5047 0f48 0021     		movs	r1, #0
 5048 0f4a 2846     		mov	r0, r5
 5049 0f4c FFF7FEFF 		bl	lv_style_set_pad_top
 5050              	.LVL694:
 534:Drivers/lvgl/lvgl/src/extra/themes/default/../../../../src/hal/../draw/../misc/lv_style.h **** }
 5051              		.loc 4 534 0
 5052 0f50 0021     		movs	r1, #0
 5053 0f52 2846     		mov	r0, r5
ARM GAS  /tmp/cc6wDDAF.s 			page 146


 5054 0f54 FFF7FEFF 		bl	lv_style_set_pad_bottom
 5055              	.LVL695:
 5056              	.LBE715:
 5057              	.LBE714:
 470:Drivers/lvgl/lvgl/src/extra/themes/default/lv_theme_default.c ****     lv_style_set_radius(&styles->menu_bg, 0);
 5058              		.loc 1 470 0
 5059 0f58 2568     		ldr	r5, [r4]
 5060 0f5a 05F5D075 		add	r5, r5, #416
 5061              	.LVL696:
 5062              	.LBB716:
 5063              	.LBB717:
 551:Drivers/lvgl/lvgl/src/extra/themes/default/../../../../src/hal/../draw/../misc/lv_style.h ****     lv_style_set_pad_column(style, value);
 5064              		.loc 4 551 0
 5065 0f5e 0021     		movs	r1, #0
 5066 0f60 2846     		mov	r0, r5
 5067 0f62 FFF7FEFF 		bl	lv_style_set_pad_row
 5068              	.LVL697:
 5069              		.loc 4 552 0
 5070 0f66 0021     		movs	r1, #0
 5071 0f68 2846     		mov	r0, r5
 5072 0f6a FFF7FEFF 		bl	lv_style_set_pad_column
 5073              	.LVL698:
 5074              	.LBE717:
 5075              	.LBE716:
 471:Drivers/lvgl/lvgl/src/extra/themes/default/lv_theme_default.c ****     lv_style_set_clip_corner(&styles->menu_bg, true);
 5076              		.loc 1 471 0
 5077 0f6e 2068     		ldr	r0, [r4]
 5078 0f70 0021     		movs	r1, #0
 5079 0f72 00F5D070 		add	r0, r0, #416
 5080 0f76 FFF7FEFF 		bl	lv_style_set_radius
 5081              	.LVL699:
 472:Drivers/lvgl/lvgl/src/extra/themes/default/lv_theme_default.c ****     lv_style_set_border_side(&styles->menu_bg, LV_BORDER_SIDE_NONE);
 5082              		.loc 1 472 0
 5083 0f7a 2068     		ldr	r0, [r4]
 5084 0f7c 0121     		movs	r1, #1
 5085 0f7e 00F5D070 		add	r0, r0, #416
 5086 0f82 FFF7FEFF 		bl	lv_style_set_clip_corner
 5087              	.LVL700:
 473:Drivers/lvgl/lvgl/src/extra/themes/default/lv_theme_default.c **** 
 5088              		.loc 1 473 0
 5089 0f86 2068     		ldr	r0, [r4]
 5090 0f88 0021     		movs	r1, #0
 5091 0f8a 00F5D070 		add	r0, r0, #416
 5092 0f8e FFF7FEFF 		bl	lv_style_set_border_side
 5093              	.LVL701:
 475:Drivers/lvgl/lvgl/src/extra/themes/default/lv_theme_default.c ****     lv_style_set_radius(&styles->menu_section, RADIUS_DEFAULT);
 5094              		.loc 1 475 0
 5095 0f92 2068     		ldr	r0, [r4]
 5096 0f94 00F5EC70 		add	r0, r0, #472
 5097 0f98 FFF7FEFF 		bl	style_init_reset
 5098              	.LVL702:
 476:Drivers/lvgl/lvgl/src/extra/themes/default/lv_theme_default.c ****     lv_style_set_clip_corner(&styles->menu_section, true);
 5099              		.loc 1 476 0
 5100 0f9c 2468     		ldr	r4, [r4]
 5101 0f9e 04F5EC74 		add	r4, r4, #472
 5102 0fa2 684B     		ldr	r3, .L819+12
 5103 0fa4 1B78     		ldrb	r3, [r3]	@ zero_extendqisi2
ARM GAS  /tmp/cc6wDDAF.s 			page 147


 5104 0fa6 012B     		cmp	r3, #1
 5105 0fa8 01F0AB85 		beq	.L641
 476:Drivers/lvgl/lvgl/src/extra/themes/default/lv_theme_default.c ****     lv_style_set_clip_corner(&styles->menu_section, true);
 5106              		.loc 1 476 0 is_stmt 0 discriminator 2
 5107 0fac 634B     		ldr	r3, .L819+4
 5108 0fae DD68     		ldr	r5, [r3, #12]
 5109              	.LVL703:
 5110              	.LBB718:
 5111              	.LBB719:
 5112              		.loc 3 257 0 is_stmt 1 discriminator 2
 5113 0fb0 2846     		mov	r0, r5
 5114 0fb2 FFF7FEFF 		bl	lv_disp_get_dpi
 5115              	.LVL704:
 5116 0fb6 C000     		lsls	r0, r0, #3
 5117 0fb8 5030     		adds	r0, r0, #80
 5118 0fba B0F5A07F 		cmp	r0, #320
 5119 0fbe 81F2BF85 		bge	.L642
 5120              		.loc 3 257 0 is_stmt 0
 5121 0fc2 0121     		movs	r1, #1
 5122              	.LVL705:
 5123              	.L249:
 5124              	.LBE719:
 5125              	.LBE718:
 476:Drivers/lvgl/lvgl/src/extra/themes/default/lv_theme_default.c ****     lv_style_set_clip_corner(&styles->menu_section, true);
 5126              		.loc 1 476 0 is_stmt 1 discriminator 4
 5127 0fc4 2046     		mov	r0, r4
 5128 0fc6 FFF7FEFF 		bl	lv_style_set_radius
 5129              	.LVL706:
 477:Drivers/lvgl/lvgl/src/extra/themes/default/lv_theme_default.c ****     lv_style_set_bg_opa(&styles->menu_section, LV_OPA_COVER);
 5130              		.loc 1 477 0 discriminator 4
 5131 0fca 5B4C     		ldr	r4, .L819
 5132 0fcc 2068     		ldr	r0, [r4]
 5133 0fce 0121     		movs	r1, #1
 5134 0fd0 00F5EC70 		add	r0, r0, #472
 5135 0fd4 FFF7FEFF 		bl	lv_style_set_clip_corner
 5136              	.LVL707:
 478:Drivers/lvgl/lvgl/src/extra/themes/default/lv_theme_default.c ****     lv_style_set_bg_color(&styles->menu_section, color_card);
 5137              		.loc 1 478 0 discriminator 4
 5138 0fd8 2068     		ldr	r0, [r4]
 5139 0fda FF21     		movs	r1, #255
 5140 0fdc 00F5EC70 		add	r0, r0, #472
 5141 0fe0 FFF7FEFF 		bl	lv_style_set_bg_opa
 5142              	.LVL708:
 479:Drivers/lvgl/lvgl/src/extra/themes/default/lv_theme_default.c ****     lv_style_set_text_color(&styles->menu_section, color_text);
 5143              		.loc 1 479 0 discriminator 4
 5144 0fe4 2068     		ldr	r0, [r4]
 5145 0fe6 584B     		ldr	r3, .L819+16
 5146 0fe8 1988     		ldrh	r1, [r3]
 5147 0fea 00F5EC70 		add	r0, r0, #472
 5148 0fee FFF7FEFF 		bl	lv_style_set_bg_color
 5149              	.LVL709:
 480:Drivers/lvgl/lvgl/src/extra/themes/default/lv_theme_default.c **** 
 5150              		.loc 1 480 0 discriminator 4
 5151 0ff2 2068     		ldr	r0, [r4]
 5152 0ff4 524B     		ldr	r3, .L819+8
 5153 0ff6 1988     		ldrh	r1, [r3]
 5154 0ff8 00F5EC70 		add	r0, r0, #472
ARM GAS  /tmp/cc6wDDAF.s 			page 148


 5155 0ffc FFF7FEFF 		bl	lv_style_set_text_color
 5156              	.LVL710:
 482:Drivers/lvgl/lvgl/src/extra/themes/default/lv_theme_default.c ****     lv_style_set_pad_hor(&styles->menu_cont, PAD_SMALL);
 5157              		.loc 1 482 0 discriminator 4
 5158 1000 2068     		ldr	r0, [r4]
 5159 1002 00F5D470 		add	r0, r0, #424
 5160 1006 FFF7FEFF 		bl	style_init_reset
 5161              	.LVL711:
 483:Drivers/lvgl/lvgl/src/extra/themes/default/lv_theme_default.c ****     lv_style_set_pad_ver(&styles->menu_cont, PAD_SMALL);
 5162              		.loc 1 483 0 discriminator 4
 5163 100a 2568     		ldr	r5, [r4]
 5164 100c 05F5D475 		add	r5, r5, #424
 5165 1010 4C4B     		ldr	r3, .L819+12
 5166 1012 1B78     		ldrb	r3, [r3]	@ zero_extendqisi2
 5167 1014 012B     		cmp	r3, #1
 5168 1016 01F0A185 		beq	.L643
 483:Drivers/lvgl/lvgl/src/extra/themes/default/lv_theme_default.c ****     lv_style_set_pad_ver(&styles->menu_cont, PAD_SMALL);
 5169              		.loc 1 483 0 is_stmt 0 discriminator 2
 5170 101a 022B     		cmp	r3, #2
 5171 101c 01F0BD85 		beq	.L644
 483:Drivers/lvgl/lvgl/src/extra/themes/default/lv_theme_default.c ****     lv_style_set_pad_ver(&styles->menu_cont, PAD_SMALL);
 5172              		.loc 1 483 0 discriminator 5
 5173 1020 464B     		ldr	r3, .L819+4
 5174 1022 DC68     		ldr	r4, [r3, #12]
 5175              	.LVL712:
 5176              	.LBB721:
 5177              	.LBB722:
 5178              		.loc 3 257 0 is_stmt 1 discriminator 5
 5179 1024 2046     		mov	r0, r4
 5180 1026 FFF7FEFF 		bl	lv_disp_get_dpi
 5181              	.LVL713:
 5182 102a 00EB8000 		add	r0, r0, r0, lsl #2
 5183 102e 4000     		lsls	r0, r0, #1
 5184 1030 5030     		adds	r0, r0, #80
 5185 1032 B0F5A07F 		cmp	r0, #320
 5186 1036 81F2CF85 		bge	.L645
 5187              		.loc 3 257 0 is_stmt 0
 5188 103a 0124     		movs	r4, #1
 5189              	.LVL714:
 5190              	.L253:
 5191              	.LBE722:
 5192              	.LBE721:
 5193              	.LBB724:
 5194              	.LBB725:
 539:Drivers/lvgl/lvgl/src/extra/themes/default/../../../../src/hal/../draw/../misc/lv_style.h ****     lv_style_set_pad_right(style, value);
 5195              		.loc 4 539 0 is_stmt 1 discriminator 8
 5196 103c 2146     		mov	r1, r4
 5197 103e 2846     		mov	r0, r5
 5198 1040 FFF7FEFF 		bl	lv_style_set_pad_left
 5199              	.LVL715:
 540:Drivers/lvgl/lvgl/src/extra/themes/default/../../../../src/hal/../draw/../misc/lv_style.h **** }
 5200              		.loc 4 540 0 discriminator 8
 5201 1044 2146     		mov	r1, r4
 5202 1046 2846     		mov	r0, r5
 5203 1048 FFF7FEFF 		bl	lv_style_set_pad_right
 5204              	.LVL716:
 5205              	.LBE725:
ARM GAS  /tmp/cc6wDDAF.s 			page 149


 5206              	.LBE724:
 484:Drivers/lvgl/lvgl/src/extra/themes/default/lv_theme_default.c ****     lv_style_set_pad_gap(&styles->menu_cont, PAD_SMALL);
 5207              		.loc 1 484 0 discriminator 8
 5208 104c 3A4B     		ldr	r3, .L819
 5209 104e 1D68     		ldr	r5, [r3]
 5210 1050 05F5D475 		add	r5, r5, #424
 5211 1054 3B4B     		ldr	r3, .L819+12
 5212 1056 1B78     		ldrb	r3, [r3]	@ zero_extendqisi2
 5213 1058 012B     		cmp	r3, #1
 5214 105a 01F0CD85 		beq	.L646
 484:Drivers/lvgl/lvgl/src/extra/themes/default/lv_theme_default.c ****     lv_style_set_pad_gap(&styles->menu_cont, PAD_SMALL);
 5215              		.loc 1 484 0 is_stmt 0 discriminator 2
 5216 105e 022B     		cmp	r3, #2
 5217 1060 01F0E985 		beq	.L647
 484:Drivers/lvgl/lvgl/src/extra/themes/default/lv_theme_default.c ****     lv_style_set_pad_gap(&styles->menu_cont, PAD_SMALL);
 5218              		.loc 1 484 0 discriminator 5
 5219 1064 354B     		ldr	r3, .L819+4
 5220 1066 DC68     		ldr	r4, [r3, #12]
 5221              	.LVL717:
 5222              	.LBB726:
 5223              	.LBB727:
 5224              		.loc 3 257 0 is_stmt 1 discriminator 5
 5225 1068 2046     		mov	r0, r4
 5226 106a FFF7FEFF 		bl	lv_disp_get_dpi
 5227              	.LVL718:
 5228 106e 00EB8000 		add	r0, r0, r0, lsl #2
 5229 1072 4000     		lsls	r0, r0, #1
 5230 1074 5030     		adds	r0, r0, #80
 5231 1076 B0F5A07F 		cmp	r0, #320
 5232 107a 81F2FB85 		bge	.L648
 5233              		.loc 3 257 0 is_stmt 0
 5234 107e 0124     		movs	r4, #1
 5235              	.LVL719:
 5236              	.L259:
 5237              	.LBE727:
 5238              	.LBE726:
 5239              	.LBB729:
 5240              	.LBB730:
 545:Drivers/lvgl/lvgl/src/extra/themes/default/../../../../src/hal/../draw/../misc/lv_style.h ****     lv_style_set_pad_bottom(style, value);
 5241              		.loc 4 545 0 is_stmt 1 discriminator 8
 5242 1080 2146     		mov	r1, r4
 5243 1082 2846     		mov	r0, r5
 5244 1084 FFF7FEFF 		bl	lv_style_set_pad_top
 5245              	.LVL720:
 546:Drivers/lvgl/lvgl/src/extra/themes/default/../../../../src/hal/../draw/../misc/lv_style.h **** }
 5246              		.loc 4 546 0 discriminator 8
 5247 1088 2146     		mov	r1, r4
 5248 108a 2846     		mov	r0, r5
 5249 108c FFF7FEFF 		bl	lv_style_set_pad_bottom
 5250              	.LVL721:
 5251              	.LBE730:
 5252              	.LBE729:
 485:Drivers/lvgl/lvgl/src/extra/themes/default/lv_theme_default.c ****     lv_style_set_border_width(&styles->menu_cont, lv_disp_dpx(theme.disp, 1));
 5253              		.loc 1 485 0 discriminator 8
 5254 1090 294B     		ldr	r3, .L819
 5255 1092 1D68     		ldr	r5, [r3]
 5256 1094 05F5D475 		add	r5, r5, #424
ARM GAS  /tmp/cc6wDDAF.s 			page 150


 5257 1098 2A4B     		ldr	r3, .L819+12
 5258 109a 1B78     		ldrb	r3, [r3]	@ zero_extendqisi2
 5259 109c 012B     		cmp	r3, #1
 5260 109e 01F0F985 		beq	.L649
 485:Drivers/lvgl/lvgl/src/extra/themes/default/lv_theme_default.c ****     lv_style_set_border_width(&styles->menu_cont, lv_disp_dpx(theme.disp, 1));
 5261              		.loc 1 485 0 is_stmt 0 discriminator 2
 5262 10a2 022B     		cmp	r3, #2
 5263 10a4 01F01586 		beq	.L650
 485:Drivers/lvgl/lvgl/src/extra/themes/default/lv_theme_default.c ****     lv_style_set_border_width(&styles->menu_cont, lv_disp_dpx(theme.disp, 1));
 5264              		.loc 1 485 0 discriminator 5
 5265 10a8 244B     		ldr	r3, .L819+4
 5266 10aa DC68     		ldr	r4, [r3, #12]
 5267              	.LVL722:
 5268              	.LBB731:
 5269              	.LBB732:
 5270              		.loc 3 257 0 is_stmt 1 discriminator 5
 5271 10ac 2046     		mov	r0, r4
 5272 10ae FFF7FEFF 		bl	lv_disp_get_dpi
 5273              	.LVL723:
 5274 10b2 00EB8000 		add	r0, r0, r0, lsl #2
 5275 10b6 4000     		lsls	r0, r0, #1
 5276 10b8 5030     		adds	r0, r0, #80
 5277 10ba B0F5A07F 		cmp	r0, #320
 5278 10be 81F22786 		bge	.L651
 5279              		.loc 3 257 0 is_stmt 0
 5280 10c2 0124     		movs	r4, #1
 5281              	.LVL724:
 5282              	.L265:
 5283              	.LBE732:
 5284              	.LBE731:
 5285              	.LBB734:
 5286              	.LBB735:
 551:Drivers/lvgl/lvgl/src/extra/themes/default/../../../../src/hal/../draw/../misc/lv_style.h ****     lv_style_set_pad_column(style, value);
 5287              		.loc 4 551 0 is_stmt 1 discriminator 8
 5288 10c4 2146     		mov	r1, r4
 5289 10c6 2846     		mov	r0, r5
 5290 10c8 FFF7FEFF 		bl	lv_style_set_pad_row
 5291              	.LVL725:
 5292              		.loc 4 552 0 discriminator 8
 5293 10cc 2146     		mov	r1, r4
 5294 10ce 2846     		mov	r0, r5
 5295 10d0 FFF7FEFF 		bl	lv_style_set_pad_column
 5296              	.LVL726:
 5297              	.LBE735:
 5298              	.LBE734:
 486:Drivers/lvgl/lvgl/src/extra/themes/default/lv_theme_default.c ****     lv_style_set_border_opa(&styles->menu_cont, LV_OPA_10);
 5299              		.loc 1 486 0 discriminator 8
 5300 10d4 184B     		ldr	r3, .L819
 5301 10d6 1C68     		ldr	r4, [r3]
 5302 10d8 04F5D474 		add	r4, r4, #424
 5303 10dc 174B     		ldr	r3, .L819+4
 5304 10de DD68     		ldr	r5, [r3, #12]
 5305              	.LVL727:
 5306              	.LBB736:
 5307              	.LBB737:
 5308              		.loc 3 257 0 discriminator 8
 5309 10e0 2846     		mov	r0, r5
ARM GAS  /tmp/cc6wDDAF.s 			page 151


 5310 10e2 FFF7FEFF 		bl	lv_disp_get_dpi
 5311              	.LVL728:
 5312 10e6 5030     		adds	r0, r0, #80
 5313 10e8 B0F5A07F 		cmp	r0, #320
 5314 10ec 81F22486 		bge	.L652
 5315              		.loc 3 257 0 is_stmt 0
 5316 10f0 0121     		movs	r1, #1
 5317              	.L269:
 5318              	.LVL729:
 5319              	.LBE737:
 5320              	.LBE736:
 486:Drivers/lvgl/lvgl/src/extra/themes/default/lv_theme_default.c ****     lv_style_set_border_opa(&styles->menu_cont, LV_OPA_10);
 5321              		.loc 1 486 0 is_stmt 1
 5322 10f2 2046     		mov	r0, r4
 5323 10f4 FFF7FEFF 		bl	lv_style_set_border_width
 5324              	.LVL730:
 487:Drivers/lvgl/lvgl/src/extra/themes/default/lv_theme_default.c ****     lv_style_set_border_color(&styles->menu_cont, color_text);
 5325              		.loc 1 487 0
 5326 10f8 0F4C     		ldr	r4, .L819
 5327 10fa 2068     		ldr	r0, [r4]
 5328 10fc 1921     		movs	r1, #25
 5329 10fe 00F5D470 		add	r0, r0, #424
 5330 1102 FFF7FEFF 		bl	lv_style_set_border_opa
 5331              	.LVL731:
 488:Drivers/lvgl/lvgl/src/extra/themes/default/lv_theme_default.c ****     lv_style_set_border_side(&styles->menu_cont, LV_BORDER_SIDE_NONE);
 5332              		.loc 1 488 0
 5333 1106 2068     		ldr	r0, [r4]
 5334 1108 0D4B     		ldr	r3, .L819+8
 5335 110a 1988     		ldrh	r1, [r3]
 5336 110c 00F5D470 		add	r0, r0, #424
 5337 1110 FFF7FEFF 		bl	lv_style_set_border_color
 5338              	.LVL732:
 489:Drivers/lvgl/lvgl/src/extra/themes/default/lv_theme_default.c **** 
 5339              		.loc 1 489 0
 5340 1114 2068     		ldr	r0, [r4]
 5341 1116 0021     		movs	r1, #0
 5342 1118 00F5D470 		add	r0, r0, #424
 5343 111c FFF7FEFF 		bl	lv_style_set_border_side
 5344              	.LVL733:
 491:Drivers/lvgl/lvgl/src/extra/themes/default/lv_theme_default.c ****     lv_style_set_pad_all(&styles->menu_sidebar_cont, 0);
 5345              		.loc 1 491 0
 5346 1120 2068     		ldr	r0, [r4]
 5347 1122 00F5D870 		add	r0, r0, #432
 5348 1126 FFF7FEFF 		bl	style_init_reset
 5349              	.LVL734:
 492:Drivers/lvgl/lvgl/src/extra/themes/default/lv_theme_default.c ****     lv_style_set_pad_gap(&styles->menu_sidebar_cont, 0);
 5350              		.loc 1 492 0
 5351 112a 2568     		ldr	r5, [r4]
 5352 112c 05F5D875 		add	r5, r5, #432
 5353              	.LVL735:
 5354              	.LBB739:
 5355              	.LBB740:
 531:Drivers/lvgl/lvgl/src/extra/themes/default/../../../../src/hal/../draw/../misc/lv_style.h ****     lv_style_set_pad_right(style, value);
 5356              		.loc 4 531 0
 5357 1130 0021     		movs	r1, #0
 5358 1132 2846     		mov	r0, r5
 5359 1134 0AE0     		b	.L820
ARM GAS  /tmp/cc6wDDAF.s 			page 152


 5360              	.L821:
 5361 1136 00BF     		.align	2
 5362              	.L819:
 5363 1138 00000000 		.word	.LANCHOR0
 5364 113c 00000000 		.word	.LANCHOR2
 5365 1140 00000000 		.word	.LANCHOR5
 5366 1144 00000000 		.word	.LANCHOR1
 5367 1148 00000000 		.word	.LANCHOR6
 5368              	.L820:
 5369 114c FFF7FEFF 		bl	lv_style_set_pad_left
 5370              	.LVL736:
 532:Drivers/lvgl/lvgl/src/extra/themes/default/../../../../src/hal/../draw/../misc/lv_style.h ****     lv_style_set_pad_top(style, value);
 5371              		.loc 4 532 0
 5372 1150 0021     		movs	r1, #0
 5373 1152 2846     		mov	r0, r5
 5374 1154 FFF7FEFF 		bl	lv_style_set_pad_right
 5375              	.LVL737:
 533:Drivers/lvgl/lvgl/src/extra/themes/default/../../../../src/hal/../draw/../misc/lv_style.h ****     lv_style_set_pad_bottom(style, value);
 5376              		.loc 4 533 0
 5377 1158 0021     		movs	r1, #0
 5378 115a 2846     		mov	r0, r5
 5379 115c FFF7FEFF 		bl	lv_style_set_pad_top
 5380              	.LVL738:
 534:Drivers/lvgl/lvgl/src/extra/themes/default/../../../../src/hal/../draw/../misc/lv_style.h **** }
 5381              		.loc 4 534 0
 5382 1160 0021     		movs	r1, #0
 5383 1162 2846     		mov	r0, r5
 5384 1164 FFF7FEFF 		bl	lv_style_set_pad_bottom
 5385              	.LVL739:
 5386              	.LBE740:
 5387              	.LBE739:
 493:Drivers/lvgl/lvgl/src/extra/themes/default/lv_theme_default.c ****     lv_style_set_border_width(&styles->menu_sidebar_cont, lv_disp_dpx(theme.disp, 1));
 5388              		.loc 1 493 0
 5389 1168 2568     		ldr	r5, [r4]
 5390 116a 05F5D875 		add	r5, r5, #432
 5391              	.LVL740:
 5392              	.LBB741:
 5393              	.LBB742:
 551:Drivers/lvgl/lvgl/src/extra/themes/default/../../../../src/hal/../draw/../misc/lv_style.h ****     lv_style_set_pad_column(style, value);
 5394              		.loc 4 551 0
 5395 116e 0021     		movs	r1, #0
 5396 1170 2846     		mov	r0, r5
 5397 1172 FFF7FEFF 		bl	lv_style_set_pad_row
 5398              	.LVL741:
 5399              		.loc 4 552 0
 5400 1176 0021     		movs	r1, #0
 5401 1178 2846     		mov	r0, r5
 5402 117a FFF7FEFF 		bl	lv_style_set_pad_column
 5403              	.LVL742:
 5404              	.LBE742:
 5405              	.LBE741:
 494:Drivers/lvgl/lvgl/src/extra/themes/default/lv_theme_default.c ****     lv_style_set_border_opa(&styles->menu_sidebar_cont, LV_OPA_10);
 5406              		.loc 1 494 0
 5407 117e 2468     		ldr	r4, [r4]
 5408 1180 04F5D874 		add	r4, r4, #432
 5409 1184 D54B     		ldr	r3, .L822
 5410 1186 DD68     		ldr	r5, [r3, #12]
ARM GAS  /tmp/cc6wDDAF.s 			page 153


 5411              	.LVL743:
 5412              	.LBB743:
 5413              	.LBB744:
 5414              		.loc 3 257 0
 5415 1188 2846     		mov	r0, r5
 5416 118a FFF7FEFF 		bl	lv_disp_get_dpi
 5417              	.LVL744:
 5418 118e 5030     		adds	r0, r0, #80
 5419 1190 B0F5A07F 		cmp	r0, #320
 5420 1194 81F2DD85 		bge	.L653
 5421 1198 0121     		movs	r1, #1
 5422              	.L270:
 5423              	.LVL745:
 5424              	.LBE744:
 5425              	.LBE743:
 494:Drivers/lvgl/lvgl/src/extra/themes/default/lv_theme_default.c ****     lv_style_set_border_opa(&styles->menu_sidebar_cont, LV_OPA_10);
 5426              		.loc 1 494 0
 5427 119a 2046     		mov	r0, r4
 5428 119c FFF7FEFF 		bl	lv_style_set_border_width
 5429              	.LVL746:
 495:Drivers/lvgl/lvgl/src/extra/themes/default/lv_theme_default.c ****     lv_style_set_border_color(&styles->menu_sidebar_cont, color_text);
 5430              		.loc 1 495 0
 5431 11a0 CF4C     		ldr	r4, .L822+4
 5432 11a2 2068     		ldr	r0, [r4]
 5433 11a4 1921     		movs	r1, #25
 5434 11a6 00F5D870 		add	r0, r0, #432
 5435 11aa FFF7FEFF 		bl	lv_style_set_border_opa
 5436              	.LVL747:
 496:Drivers/lvgl/lvgl/src/extra/themes/default/lv_theme_default.c ****     lv_style_set_border_side(&styles->menu_sidebar_cont, LV_BORDER_SIDE_RIGHT);
 5437              		.loc 1 496 0
 5438 11ae 2068     		ldr	r0, [r4]
 5439 11b0 CC4B     		ldr	r3, .L822+8
 5440 11b2 1988     		ldrh	r1, [r3]
 5441 11b4 00F5D870 		add	r0, r0, #432
 5442 11b8 FFF7FEFF 		bl	lv_style_set_border_color
 5443              	.LVL748:
 497:Drivers/lvgl/lvgl/src/extra/themes/default/lv_theme_default.c **** 
 5444              		.loc 1 497 0
 5445 11bc 2068     		ldr	r0, [r4]
 5446 11be 0821     		movs	r1, #8
 5447 11c0 00F5D870 		add	r0, r0, #432
 5448 11c4 FFF7FEFF 		bl	lv_style_set_border_side
 5449              	.LVL749:
 499:Drivers/lvgl/lvgl/src/extra/themes/default/lv_theme_default.c ****     lv_style_set_pad_all(&styles->menu_main_cont, 0);
 5450              		.loc 1 499 0
 5451 11c8 2068     		ldr	r0, [r4]
 5452 11ca 00F5DC70 		add	r0, r0, #440
 5453 11ce FFF7FEFF 		bl	style_init_reset
 5454              	.LVL750:
 500:Drivers/lvgl/lvgl/src/extra/themes/default/lv_theme_default.c ****     lv_style_set_pad_gap(&styles->menu_main_cont, 0);
 5455              		.loc 1 500 0
 5456 11d2 2568     		ldr	r5, [r4]
 5457 11d4 05F5DC75 		add	r5, r5, #440
 5458              	.LVL751:
 5459              	.LBB746:
 5460              	.LBB747:
 531:Drivers/lvgl/lvgl/src/extra/themes/default/../../../../src/hal/../draw/../misc/lv_style.h ****     lv_style_set_pad_right(style, value);
ARM GAS  /tmp/cc6wDDAF.s 			page 154


 5461              		.loc 4 531 0
 5462 11d8 0021     		movs	r1, #0
 5463 11da 2846     		mov	r0, r5
 5464 11dc FFF7FEFF 		bl	lv_style_set_pad_left
 5465              	.LVL752:
 532:Drivers/lvgl/lvgl/src/extra/themes/default/../../../../src/hal/../draw/../misc/lv_style.h ****     lv_style_set_pad_top(style, value);
 5466              		.loc 4 532 0
 5467 11e0 0021     		movs	r1, #0
 5468 11e2 2846     		mov	r0, r5
 5469 11e4 FFF7FEFF 		bl	lv_style_set_pad_right
 5470              	.LVL753:
 533:Drivers/lvgl/lvgl/src/extra/themes/default/../../../../src/hal/../draw/../misc/lv_style.h ****     lv_style_set_pad_bottom(style, value);
 5471              		.loc 4 533 0
 5472 11e8 0021     		movs	r1, #0
 5473 11ea 2846     		mov	r0, r5
 5474 11ec FFF7FEFF 		bl	lv_style_set_pad_top
 5475              	.LVL754:
 534:Drivers/lvgl/lvgl/src/extra/themes/default/../../../../src/hal/../draw/../misc/lv_style.h **** }
 5476              		.loc 4 534 0
 5477 11f0 0021     		movs	r1, #0
 5478 11f2 2846     		mov	r0, r5
 5479 11f4 FFF7FEFF 		bl	lv_style_set_pad_bottom
 5480              	.LVL755:
 5481              	.LBE747:
 5482              	.LBE746:
 501:Drivers/lvgl/lvgl/src/extra/themes/default/lv_theme_default.c **** 
 5483              		.loc 1 501 0
 5484 11f8 2568     		ldr	r5, [r4]
 5485 11fa 05F5DC75 		add	r5, r5, #440
 5486              	.LVL756:
 5487              	.LBB748:
 5488              	.LBB749:
 551:Drivers/lvgl/lvgl/src/extra/themes/default/../../../../src/hal/../draw/../misc/lv_style.h ****     lv_style_set_pad_column(style, value);
 5489              		.loc 4 551 0
 5490 11fe 0021     		movs	r1, #0
 5491 1200 2846     		mov	r0, r5
 5492 1202 FFF7FEFF 		bl	lv_style_set_pad_row
 5493              	.LVL757:
 5494              		.loc 4 552 0
 5495 1206 0021     		movs	r1, #0
 5496 1208 2846     		mov	r0, r5
 5497 120a FFF7FEFF 		bl	lv_style_set_pad_column
 5498              	.LVL758:
 5499              	.LBE749:
 5500              	.LBE748:
 503:Drivers/lvgl/lvgl/src/extra/themes/default/lv_theme_default.c ****     lv_style_set_pad_hor(&styles->menu_header_cont, PAD_SMALL);
 5501              		.loc 1 503 0
 5502 120e 2068     		ldr	r0, [r4]
 5503 1210 00F5E470 		add	r0, r0, #456
 5504 1214 FFF7FEFF 		bl	style_init_reset
 5505              	.LVL759:
 504:Drivers/lvgl/lvgl/src/extra/themes/default/lv_theme_default.c ****     lv_style_set_pad_ver(&styles->menu_header_cont, PAD_TINY);
 5506              		.loc 1 504 0
 5507 1218 2568     		ldr	r5, [r4]
 5508 121a 05F5E475 		add	r5, r5, #456
 5509 121e B24B     		ldr	r3, .L822+12
 5510 1220 1B78     		ldrb	r3, [r3]	@ zero_extendqisi2
ARM GAS  /tmp/cc6wDDAF.s 			page 155


 5511 1222 012B     		cmp	r3, #1
 5512 1224 01F0A285 		beq	.L654
 504:Drivers/lvgl/lvgl/src/extra/themes/default/lv_theme_default.c ****     lv_style_set_pad_ver(&styles->menu_header_cont, PAD_TINY);
 5513              		.loc 1 504 0 is_stmt 0 discriminator 2
 5514 1228 022B     		cmp	r3, #2
 5515 122a 01F0BE85 		beq	.L655
 504:Drivers/lvgl/lvgl/src/extra/themes/default/lv_theme_default.c ****     lv_style_set_pad_ver(&styles->menu_header_cont, PAD_TINY);
 5516              		.loc 1 504 0 discriminator 5
 5517 122e AB4B     		ldr	r3, .L822
 5518 1230 DC68     		ldr	r4, [r3, #12]
 5519              	.LVL760:
 5520              	.LBB750:
 5521              	.LBB751:
 5522              		.loc 3 257 0 is_stmt 1 discriminator 5
 5523 1232 2046     		mov	r0, r4
 5524 1234 FFF7FEFF 		bl	lv_disp_get_dpi
 5525              	.LVL761:
 5526 1238 00EB8000 		add	r0, r0, r0, lsl #2
 5527 123c 4000     		lsls	r0, r0, #1
 5528 123e 5030     		adds	r0, r0, #80
 5529 1240 B0F5A07F 		cmp	r0, #320
 5530 1244 81F2D085 		bge	.L656
 5531              		.loc 3 257 0 is_stmt 0
 5532 1248 0124     		movs	r4, #1
 5533              	.LVL762:
 5534              	.L273:
 5535              	.LBE751:
 5536              	.LBE750:
 5537              	.LBB753:
 5538              	.LBB754:
 539:Drivers/lvgl/lvgl/src/extra/themes/default/../../../../src/hal/../draw/../misc/lv_style.h ****     lv_style_set_pad_right(style, value);
 5539              		.loc 4 539 0 is_stmt 1 discriminator 8
 5540 124a 2146     		mov	r1, r4
 5541 124c 2846     		mov	r0, r5
 5542 124e FFF7FEFF 		bl	lv_style_set_pad_left
 5543              	.LVL763:
 540:Drivers/lvgl/lvgl/src/extra/themes/default/../../../../src/hal/../draw/../misc/lv_style.h **** }
 5544              		.loc 4 540 0 discriminator 8
 5545 1252 2146     		mov	r1, r4
 5546 1254 2846     		mov	r0, r5
 5547 1256 FFF7FEFF 		bl	lv_style_set_pad_right
 5548              	.LVL764:
 5549              	.LBE754:
 5550              	.LBE753:
 505:Drivers/lvgl/lvgl/src/extra/themes/default/lv_theme_default.c ****     lv_style_set_pad_gap(&styles->menu_header_cont, PAD_SMALL);
 5551              		.loc 1 505 0 discriminator 8
 5552 125a A14B     		ldr	r3, .L822+4
 5553 125c 1D68     		ldr	r5, [r3]
 5554 125e 05F5E475 		add	r5, r5, #456
 5555 1262 A14B     		ldr	r3, .L822+12
 5556 1264 1B78     		ldrb	r3, [r3]	@ zero_extendqisi2
 5557 1266 012B     		cmp	r3, #1
 5558 1268 01F0CE85 		beq	.L657
 505:Drivers/lvgl/lvgl/src/extra/themes/default/lv_theme_default.c ****     lv_style_set_pad_gap(&styles->menu_header_cont, PAD_SMALL);
 5559              		.loc 1 505 0 is_stmt 0 discriminator 2
 5560 126c 022B     		cmp	r3, #2
 5561 126e 01F0E685 		beq	.L658
ARM GAS  /tmp/cc6wDDAF.s 			page 156


 505:Drivers/lvgl/lvgl/src/extra/themes/default/lv_theme_default.c ****     lv_style_set_pad_gap(&styles->menu_header_cont, PAD_SMALL);
 5562              		.loc 1 505 0 discriminator 5
 5563 1272 9A4B     		ldr	r3, .L822
 5564 1274 DC68     		ldr	r4, [r3, #12]
 5565              	.LVL765:
 5566              	.LBB755:
 5567              	.LBB756:
 5568              		.loc 3 257 0 is_stmt 1 discriminator 5
 5569 1276 2046     		mov	r0, r4
 5570 1278 FFF7FEFF 		bl	lv_disp_get_dpi
 5571              	.LVL766:
 5572 127c 4000     		lsls	r0, r0, #1
 5573 127e 5030     		adds	r0, r0, #80
 5574 1280 B0F5A07F 		cmp	r0, #320
 5575 1284 81F2FA85 		bge	.L659
 5576              		.loc 3 257 0 is_stmt 0
 5577 1288 0124     		movs	r4, #1
 5578              	.LVL767:
 5579              	.L279:
 5580              	.LBE756:
 5581              	.LBE755:
 5582              	.LBB758:
 5583              	.LBB759:
 545:Drivers/lvgl/lvgl/src/extra/themes/default/../../../../src/hal/../draw/../misc/lv_style.h ****     lv_style_set_pad_bottom(style, value);
 5584              		.loc 4 545 0 is_stmt 1 discriminator 8
 5585 128a 2146     		mov	r1, r4
 5586 128c 2846     		mov	r0, r5
 5587 128e FFF7FEFF 		bl	lv_style_set_pad_top
 5588              	.LVL768:
 546:Drivers/lvgl/lvgl/src/extra/themes/default/../../../../src/hal/../draw/../misc/lv_style.h **** }
 5589              		.loc 4 546 0 discriminator 8
 5590 1292 2146     		mov	r1, r4
 5591 1294 2846     		mov	r0, r5
 5592 1296 FFF7FEFF 		bl	lv_style_set_pad_bottom
 5593              	.LVL769:
 5594              	.LBE759:
 5595              	.LBE758:
 506:Drivers/lvgl/lvgl/src/extra/themes/default/lv_theme_default.c **** 
 5596              		.loc 1 506 0 discriminator 8
 5597 129a 914B     		ldr	r3, .L822+4
 5598 129c 1D68     		ldr	r5, [r3]
 5599 129e 05F5E475 		add	r5, r5, #456
 5600 12a2 914B     		ldr	r3, .L822+12
 5601 12a4 1B78     		ldrb	r3, [r3]	@ zero_extendqisi2
 5602 12a6 012B     		cmp	r3, #1
 5603 12a8 01F0F685 		beq	.L660
 506:Drivers/lvgl/lvgl/src/extra/themes/default/lv_theme_default.c **** 
 5604              		.loc 1 506 0 is_stmt 0 discriminator 2
 5605 12ac 022B     		cmp	r3, #2
 5606 12ae 01F01286 		beq	.L661
 506:Drivers/lvgl/lvgl/src/extra/themes/default/lv_theme_default.c **** 
 5607              		.loc 1 506 0 discriminator 5
 5608 12b2 8A4B     		ldr	r3, .L822
 5609 12b4 DC68     		ldr	r4, [r3, #12]
 5610              	.LVL770:
 5611              	.LBB760:
 5612              	.LBB761:
ARM GAS  /tmp/cc6wDDAF.s 			page 157


 5613              		.loc 3 257 0 is_stmt 1 discriminator 5
 5614 12b6 2046     		mov	r0, r4
 5615 12b8 FFF7FEFF 		bl	lv_disp_get_dpi
 5616              	.LVL771:
 5617 12bc 00EB8000 		add	r0, r0, r0, lsl #2
 5618 12c0 4000     		lsls	r0, r0, #1
 5619 12c2 5030     		adds	r0, r0, #80
 5620 12c4 B0F5A07F 		cmp	r0, #320
 5621 12c8 81F22486 		bge	.L662
 5622              		.loc 3 257 0 is_stmt 0
 5623 12cc 0124     		movs	r4, #1
 5624              	.LVL772:
 5625              	.L285:
 5626              	.LBE761:
 5627              	.LBE760:
 5628              	.LBB763:
 5629              	.LBB764:
 551:Drivers/lvgl/lvgl/src/extra/themes/default/../../../../src/hal/../draw/../misc/lv_style.h ****     lv_style_set_pad_column(style, value);
 5630              		.loc 4 551 0 is_stmt 1 discriminator 8
 5631 12ce 2146     		mov	r1, r4
 5632 12d0 2846     		mov	r0, r5
 5633 12d2 FFF7FEFF 		bl	lv_style_set_pad_row
 5634              	.LVL773:
 5635              		.loc 4 552 0 discriminator 8
 5636 12d6 2146     		mov	r1, r4
 5637 12d8 2846     		mov	r0, r5
 5638 12da FFF7FEFF 		bl	lv_style_set_pad_column
 5639              	.LVL774:
 5640              	.LBE764:
 5641              	.LBE763:
 508:Drivers/lvgl/lvgl/src/extra/themes/default/lv_theme_default.c ****     lv_style_set_pad_hor(&styles->menu_header_btn, PAD_TINY);
 5642              		.loc 1 508 0 discriminator 8
 5643 12de 804C     		ldr	r4, .L822+4
 5644 12e0 2068     		ldr	r0, [r4]
 5645 12e2 00F5E870 		add	r0, r0, #464
 5646 12e6 FFF7FEFF 		bl	style_init_reset
 5647              	.LVL775:
 509:Drivers/lvgl/lvgl/src/extra/themes/default/lv_theme_default.c ****     lv_style_set_pad_ver(&styles->menu_header_btn, PAD_TINY);
 5648              		.loc 1 509 0 discriminator 8
 5649 12ea 2568     		ldr	r5, [r4]
 5650 12ec 05F5E875 		add	r5, r5, #464
 5651 12f0 7D4B     		ldr	r3, .L822+12
 5652 12f2 1B78     		ldrb	r3, [r3]	@ zero_extendqisi2
 5653 12f4 012B     		cmp	r3, #1
 5654 12f6 01F01D86 		beq	.L663
 509:Drivers/lvgl/lvgl/src/extra/themes/default/lv_theme_default.c ****     lv_style_set_pad_ver(&styles->menu_header_btn, PAD_TINY);
 5655              		.loc 1 509 0 is_stmt 0 discriminator 2
 5656 12fa 022B     		cmp	r3, #2
 5657 12fc 01F03586 		beq	.L664
 509:Drivers/lvgl/lvgl/src/extra/themes/default/lv_theme_default.c ****     lv_style_set_pad_ver(&styles->menu_header_btn, PAD_TINY);
 5658              		.loc 1 509 0 discriminator 5
 5659 1300 764B     		ldr	r3, .L822
 5660 1302 DC68     		ldr	r4, [r3, #12]
 5661              	.LVL776:
 5662              	.LBB765:
 5663              	.LBB766:
 5664              		.loc 3 257 0 is_stmt 1 discriminator 5
ARM GAS  /tmp/cc6wDDAF.s 			page 158


 5665 1304 2046     		mov	r0, r4
 5666 1306 FFF7FEFF 		bl	lv_disp_get_dpi
 5667              	.LVL777:
 5668 130a 4000     		lsls	r0, r0, #1
 5669 130c 5030     		adds	r0, r0, #80
 5670 130e B0F5A07F 		cmp	r0, #320
 5671 1312 81F24986 		bge	.L665
 5672              		.loc 3 257 0 is_stmt 0
 5673 1316 0124     		movs	r4, #1
 5674              	.LVL778:
 5675              	.L291:
 5676              	.LBE766:
 5677              	.LBE765:
 5678              	.LBB768:
 5679              	.LBB769:
 539:Drivers/lvgl/lvgl/src/extra/themes/default/../../../../src/hal/../draw/../misc/lv_style.h ****     lv_style_set_pad_right(style, value);
 5680              		.loc 4 539 0 is_stmt 1 discriminator 8
 5681 1318 2146     		mov	r1, r4
 5682 131a 2846     		mov	r0, r5
 5683 131c FFF7FEFF 		bl	lv_style_set_pad_left
 5684              	.LVL779:
 540:Drivers/lvgl/lvgl/src/extra/themes/default/../../../../src/hal/../draw/../misc/lv_style.h **** }
 5685              		.loc 4 540 0 discriminator 8
 5686 1320 2146     		mov	r1, r4
 5687 1322 2846     		mov	r0, r5
 5688 1324 FFF7FEFF 		bl	lv_style_set_pad_right
 5689              	.LVL780:
 5690              	.LBE769:
 5691              	.LBE768:
 510:Drivers/lvgl/lvgl/src/extra/themes/default/lv_theme_default.c ****     lv_style_set_shadow_opa(&styles->menu_header_btn, LV_OPA_TRANSP);
 5692              		.loc 1 510 0 discriminator 8
 5693 1328 6D4B     		ldr	r3, .L822+4
 5694 132a 1D68     		ldr	r5, [r3]
 5695 132c 05F5E875 		add	r5, r5, #464
 5696 1330 6D4B     		ldr	r3, .L822+12
 5697 1332 1B78     		ldrb	r3, [r3]	@ zero_extendqisi2
 5698 1334 012B     		cmp	r3, #1
 5699 1336 01F04586 		beq	.L666
 510:Drivers/lvgl/lvgl/src/extra/themes/default/lv_theme_default.c ****     lv_style_set_shadow_opa(&styles->menu_header_btn, LV_OPA_TRANSP);
 5700              		.loc 1 510 0 is_stmt 0 discriminator 2
 5701 133a 022B     		cmp	r3, #2
 5702 133c 01F05D86 		beq	.L667
 510:Drivers/lvgl/lvgl/src/extra/themes/default/lv_theme_default.c ****     lv_style_set_shadow_opa(&styles->menu_header_btn, LV_OPA_TRANSP);
 5703              		.loc 1 510 0 discriminator 5
 5704 1340 664B     		ldr	r3, .L822
 5705 1342 DC68     		ldr	r4, [r3, #12]
 5706              	.LVL781:
 5707              	.LBB770:
 5708              	.LBB771:
 5709              		.loc 3 257 0 is_stmt 1 discriminator 5
 5710 1344 2046     		mov	r0, r4
 5711 1346 FFF7FEFF 		bl	lv_disp_get_dpi
 5712              	.LVL782:
 5713 134a 4000     		lsls	r0, r0, #1
 5714 134c 5030     		adds	r0, r0, #80
 5715 134e B0F5A07F 		cmp	r0, #320
 5716 1352 81F27186 		bge	.L668
ARM GAS  /tmp/cc6wDDAF.s 			page 159


 5717              		.loc 3 257 0 is_stmt 0
 5718 1356 0124     		movs	r4, #1
 5719              	.LVL783:
 5720              	.L297:
 5721              	.LBE771:
 5722              	.LBE770:
 5723              	.LBB773:
 5724              	.LBB774:
 545:Drivers/lvgl/lvgl/src/extra/themes/default/../../../../src/hal/../draw/../misc/lv_style.h ****     lv_style_set_pad_bottom(style, value);
 5725              		.loc 4 545 0 is_stmt 1 discriminator 8
 5726 1358 2146     		mov	r1, r4
 5727 135a 2846     		mov	r0, r5
 5728 135c FFF7FEFF 		bl	lv_style_set_pad_top
 5729              	.LVL784:
 546:Drivers/lvgl/lvgl/src/extra/themes/default/../../../../src/hal/../draw/../misc/lv_style.h **** }
 5730              		.loc 4 546 0 discriminator 8
 5731 1360 2146     		mov	r1, r4
 5732 1362 2846     		mov	r0, r5
 5733 1364 FFF7FEFF 		bl	lv_style_set_pad_bottom
 5734              	.LVL785:
 5735              	.LBE774:
 5736              	.LBE773:
 511:Drivers/lvgl/lvgl/src/extra/themes/default/lv_theme_default.c ****     lv_style_set_bg_opa(&styles->menu_header_btn, LV_OPA_TRANSP);
 5737              		.loc 1 511 0 discriminator 8
 5738 1368 5D4C     		ldr	r4, .L822+4
 5739 136a 2068     		ldr	r0, [r4]
 5740 136c 0021     		movs	r1, #0
 5741 136e 00F5E870 		add	r0, r0, #464
 5742 1372 FFF7FEFF 		bl	lv_style_set_shadow_opa
 5743              	.LVL786:
 512:Drivers/lvgl/lvgl/src/extra/themes/default/lv_theme_default.c ****     lv_style_set_text_color(&styles->menu_header_btn, color_text);
 5744              		.loc 1 512 0 discriminator 8
 5745 1376 2068     		ldr	r0, [r4]
 5746 1378 0021     		movs	r1, #0
 5747 137a 00F5E870 		add	r0, r0, #464
 5748 137e FFF7FEFF 		bl	lv_style_set_bg_opa
 5749              	.LVL787:
 513:Drivers/lvgl/lvgl/src/extra/themes/default/lv_theme_default.c **** 
 5750              		.loc 1 513 0 discriminator 8
 5751 1382 2068     		ldr	r0, [r4]
 5752 1384 574B     		ldr	r3, .L822+8
 5753 1386 1988     		ldrh	r1, [r3]
 5754 1388 00F5E870 		add	r0, r0, #464
 5755 138c FFF7FEFF 		bl	lv_style_set_text_color
 5756              	.LVL788:
 515:Drivers/lvgl/lvgl/src/extra/themes/default/lv_theme_default.c ****     lv_style_set_pad_hor(&styles->menu_page, 0);
 5757              		.loc 1 515 0 discriminator 8
 5758 1390 2068     		ldr	r0, [r4]
 5759 1392 00F5E070 		add	r0, r0, #448
 5760 1396 FFF7FEFF 		bl	style_init_reset
 5761              	.LVL789:
 516:Drivers/lvgl/lvgl/src/extra/themes/default/lv_theme_default.c ****     lv_style_set_pad_gap(&styles->menu_page, 0);
 5762              		.loc 1 516 0 discriminator 8
 5763 139a 2568     		ldr	r5, [r4]
 5764 139c 05F5E075 		add	r5, r5, #448
 5765              	.LVL790:
 5766              	.LBB775:
ARM GAS  /tmp/cc6wDDAF.s 			page 160


 5767              	.LBB776:
 539:Drivers/lvgl/lvgl/src/extra/themes/default/../../../../src/hal/../draw/../misc/lv_style.h ****     lv_style_set_pad_right(style, value);
 5768              		.loc 4 539 0 discriminator 8
 5769 13a0 0021     		movs	r1, #0
 5770 13a2 2846     		mov	r0, r5
 5771 13a4 FFF7FEFF 		bl	lv_style_set_pad_left
 5772              	.LVL791:
 540:Drivers/lvgl/lvgl/src/extra/themes/default/../../../../src/hal/../draw/../misc/lv_style.h **** }
 5773              		.loc 4 540 0 discriminator 8
 5774 13a8 0021     		movs	r1, #0
 5775 13aa 2846     		mov	r0, r5
 5776 13ac FFF7FEFF 		bl	lv_style_set_pad_right
 5777              	.LVL792:
 5778              	.LBE776:
 5779              	.LBE775:
 517:Drivers/lvgl/lvgl/src/extra/themes/default/lv_theme_default.c **** 
 5780              		.loc 1 517 0 discriminator 8
 5781 13b0 2568     		ldr	r5, [r4]
 5782 13b2 05F5E075 		add	r5, r5, #448
 5783              	.LVL793:
 5784              	.LBB777:
 5785              	.LBB778:
 551:Drivers/lvgl/lvgl/src/extra/themes/default/../../../../src/hal/../draw/../misc/lv_style.h ****     lv_style_set_pad_column(style, value);
 5786              		.loc 4 551 0 discriminator 8
 5787 13b6 0021     		movs	r1, #0
 5788 13b8 2846     		mov	r0, r5
 5789 13ba FFF7FEFF 		bl	lv_style_set_pad_row
 5790              	.LVL794:
 5791              		.loc 4 552 0 discriminator 8
 5792 13be 0021     		movs	r1, #0
 5793 13c0 2846     		mov	r0, r5
 5794 13c2 FFF7FEFF 		bl	lv_style_set_pad_column
 5795              	.LVL795:
 5796              	.LBE778:
 5797              	.LBE777:
 519:Drivers/lvgl/lvgl/src/extra/themes/default/lv_theme_default.c ****     lv_style_set_bg_opa(&styles->menu_pressed, LV_OPA_20);
 5798              		.loc 1 519 0 discriminator 8
 5799 13c6 2068     		ldr	r0, [r4]
 5800 13c8 00F5F070 		add	r0, r0, #480
 5801 13cc FFF7FEFF 		bl	style_init_reset
 5802              	.LVL796:
 520:Drivers/lvgl/lvgl/src/extra/themes/default/lv_theme_default.c ****     lv_style_set_bg_color(&styles->menu_pressed, lv_palette_main(LV_PALETTE_GREY));
 5803              		.loc 1 520 0 discriminator 8
 5804 13d0 2068     		ldr	r0, [r4]
 5805 13d2 3321     		movs	r1, #51
 5806 13d4 00F5F070 		add	r0, r0, #480
 5807 13d8 FFF7FEFF 		bl	lv_style_set_bg_opa
 5808              	.LVL797:
 521:Drivers/lvgl/lvgl/src/extra/themes/default/lv_theme_default.c **** 
 5809              		.loc 1 521 0 discriminator 8
 5810 13dc 2568     		ldr	r5, [r4]
 5811 13de 1220     		movs	r0, #18
 5812 13e0 FFF7FEFF 		bl	lv_palette_main
 5813              	.LVL798:
 5814 13e4 0146     		mov	r1, r0	@ movhi
 5815 13e6 05F5F070 		add	r0, r5, #480
 5816 13ea FFF7FEFF 		bl	lv_style_set_bg_color
ARM GAS  /tmp/cc6wDDAF.s 			page 161


 5817              	.LVL799:
 523:Drivers/lvgl/lvgl/src/extra/themes/default/lv_theme_default.c ****     lv_style_set_bg_opa(&styles->menu_separator, LV_OPA_TRANSP);
 5818              		.loc 1 523 0 discriminator 8
 5819 13ee 2068     		ldr	r0, [r4]
 5820 13f0 00F5F470 		add	r0, r0, #488
 5821 13f4 FFF7FEFF 		bl	style_init_reset
 5822              	.LVL800:
 524:Drivers/lvgl/lvgl/src/extra/themes/default/lv_theme_default.c ****     lv_style_set_pad_ver(&styles->menu_separator, PAD_TINY);
 5823              		.loc 1 524 0 discriminator 8
 5824 13f8 2068     		ldr	r0, [r4]
 5825 13fa 0021     		movs	r1, #0
 5826 13fc 00F5F470 		add	r0, r0, #488
 5827 1400 FFF7FEFF 		bl	lv_style_set_bg_opa
 5828              	.LVL801:
 525:Drivers/lvgl/lvgl/src/extra/themes/default/lv_theme_default.c **** #endif
 5829              		.loc 1 525 0 discriminator 8
 5830 1404 2568     		ldr	r5, [r4]
 5831 1406 05F5F475 		add	r5, r5, #488
 5832 140a 374B     		ldr	r3, .L822+12
 5833 140c 1B78     		ldrb	r3, [r3]	@ zero_extendqisi2
 5834 140e 012B     		cmp	r3, #1
 5835 1410 01F02086 		beq	.L669
 525:Drivers/lvgl/lvgl/src/extra/themes/default/lv_theme_default.c **** #endif
 5836              		.loc 1 525 0 is_stmt 0 discriminator 2
 5837 1414 022B     		cmp	r3, #2
 5838 1416 01F03886 		beq	.L670
 525:Drivers/lvgl/lvgl/src/extra/themes/default/lv_theme_default.c **** #endif
 5839              		.loc 1 525 0 discriminator 5
 5840 141a 304B     		ldr	r3, .L822
 5841 141c DC68     		ldr	r4, [r3, #12]
 5842              	.LVL802:
 5843              	.LBB779:
 5844              	.LBB780:
 5845              		.loc 3 257 0 is_stmt 1 discriminator 5
 5846 141e 2046     		mov	r0, r4
 5847 1420 FFF7FEFF 		bl	lv_disp_get_dpi
 5848              	.LVL803:
 5849 1424 4000     		lsls	r0, r0, #1
 5850 1426 5030     		adds	r0, r0, #80
 5851 1428 B0F5A07F 		cmp	r0, #320
 5852 142c 81F25086 		bge	.L671
 5853              		.loc 3 257 0 is_stmt 0
 5854 1430 0124     		movs	r4, #1
 5855              	.LVL804:
 5856              	.L303:
 5857              	.LBE780:
 5858              	.LBE779:
 5859              	.LBB782:
 5860              	.LBB783:
 545:Drivers/lvgl/lvgl/src/extra/themes/default/../../../../src/hal/../draw/../misc/lv_style.h ****     lv_style_set_pad_bottom(style, value);
 5861              		.loc 4 545 0 is_stmt 1 discriminator 8
 5862 1432 2146     		mov	r1, r4
 5863 1434 2846     		mov	r0, r5
 5864 1436 FFF7FEFF 		bl	lv_style_set_pad_top
 5865              	.LVL805:
 546:Drivers/lvgl/lvgl/src/extra/themes/default/../../../../src/hal/../draw/../misc/lv_style.h **** }
 5866              		.loc 4 546 0 discriminator 8
ARM GAS  /tmp/cc6wDDAF.s 			page 162


 5867 143a 2146     		mov	r1, r4
 5868 143c 2846     		mov	r0, r5
 5869 143e FFF7FEFF 		bl	lv_style_set_pad_bottom
 5870              	.LVL806:
 5871              	.LBE783:
 5872              	.LBE782:
 529:Drivers/lvgl/lvgl/src/extra/themes/default/lv_theme_default.c ****     lv_style_set_line_width(&styles->meter_marker, lv_disp_dpx(theme.disp, 5));
 5873              		.loc 1 529 0 discriminator 8
 5874 1442 274C     		ldr	r4, .L822+4
 5875 1444 2068     		ldr	r0, [r4]
 5876 1446 00F5B070 		add	r0, r0, #352
 5877 144a FFF7FEFF 		bl	style_init_reset
 5878              	.LVL807:
 530:Drivers/lvgl/lvgl/src/extra/themes/default/lv_theme_default.c ****     lv_style_set_line_color(&styles->meter_marker, color_text);
 5879              		.loc 1 530 0 discriminator 8
 5880 144e 2468     		ldr	r4, [r4]
 5881 1450 04F5B074 		add	r4, r4, #352
 5882 1454 214B     		ldr	r3, .L822
 5883 1456 DD68     		ldr	r5, [r3, #12]
 5884              	.LVL808:
 5885              	.LBB784:
 5886              	.LBB785:
 5887              		.loc 3 257 0 discriminator 8
 5888 1458 2846     		mov	r0, r5
 5889 145a FFF7FEFF 		bl	lv_disp_get_dpi
 5890              	.LVL809:
 5891 145e 00EB8000 		add	r0, r0, r0, lsl #2
 5892 1462 5030     		adds	r0, r0, #80
 5893 1464 B0F5A07F 		cmp	r0, #320
 5894 1468 81F24086 		bge	.L672
 5895              		.loc 3 257 0 is_stmt 0
 5896 146c 0121     		movs	r1, #1
 5897              	.L307:
 5898              	.LVL810:
 5899              	.LBE785:
 5900              	.LBE784:
 530:Drivers/lvgl/lvgl/src/extra/themes/default/lv_theme_default.c ****     lv_style_set_line_color(&styles->meter_marker, color_text);
 5901              		.loc 1 530 0 is_stmt 1
 5902 146e 2046     		mov	r0, r4
 5903 1470 FFF7FEFF 		bl	lv_style_set_line_width
 5904              	.LVL811:
 531:Drivers/lvgl/lvgl/src/extra/themes/default/lv_theme_default.c ****     lv_style_set_size(&styles->meter_marker, lv_disp_dpx(theme.disp, 20));
 5905              		.loc 1 531 0
 5906 1474 1A4C     		ldr	r4, .L822+4
 5907 1476 2068     		ldr	r0, [r4]
 5908 1478 1A4B     		ldr	r3, .L822+8
 5909 147a 1988     		ldrh	r1, [r3]
 5910 147c 00F5B070 		add	r0, r0, #352
 5911 1480 FFF7FEFF 		bl	lv_style_set_line_color
 5912              	.LVL812:
 532:Drivers/lvgl/lvgl/src/extra/themes/default/lv_theme_default.c ****     lv_style_set_pad_left(&styles->meter_marker, lv_disp_dpx(theme.disp, 15));
 5913              		.loc 1 532 0
 5914 1484 2568     		ldr	r5, [r4]
 5915 1486 05F5B075 		add	r5, r5, #352
 5916 148a 144B     		ldr	r3, .L822
 5917 148c DC68     		ldr	r4, [r3, #12]
 5918              	.LVL813:
ARM GAS  /tmp/cc6wDDAF.s 			page 163


 5919              	.LBB787:
 5920              	.LBB788:
 5921              		.loc 3 257 0
 5922 148e 2046     		mov	r0, r4
 5923 1490 FFF7FEFF 		bl	lv_disp_get_dpi
 5924              	.LVL814:
 5925 1494 00EB8000 		add	r0, r0, r0, lsl #2
 5926 1498 8000     		lsls	r0, r0, #2
 5927 149a 5030     		adds	r0, r0, #80
 5928 149c B0F5A07F 		cmp	r0, #320
 5929 14a0 81F23386 		bge	.L673
 5930 14a4 0124     		movs	r4, #1
 5931              	.LVL815:
 5932              	.L308:
 5933              	.LBE788:
 5934              	.LBE787:
 5935              	.LBB790:
 5936              	.LBB791:
 525:Drivers/lvgl/lvgl/src/extra/themes/default/../../../../src/hal/../draw/../misc/lv_style.h ****     lv_style_set_height(style, value);
 5937              		.loc 4 525 0
 5938 14a6 2146     		mov	r1, r4
 5939 14a8 2846     		mov	r0, r5
 5940 14aa FFF7FEFF 		bl	lv_style_set_width
 5941              	.LVL816:
 526:Drivers/lvgl/lvgl/src/extra/themes/default/../../../../src/hal/../draw/../misc/lv_style.h **** }
 5942              		.loc 4 526 0
 5943 14ae 2146     		mov	r1, r4
 5944 14b0 2846     		mov	r0, r5
 5945 14b2 FFF7FEFF 		bl	lv_style_set_height
 5946              	.LVL817:
 5947              	.LBE791:
 5948              	.LBE790:
 533:Drivers/lvgl/lvgl/src/extra/themes/default/lv_theme_default.c **** 
 5949              		.loc 1 533 0
 5950 14b6 0A4B     		ldr	r3, .L822+4
 5951 14b8 1C68     		ldr	r4, [r3]
 5952 14ba 04F5B074 		add	r4, r4, #352
 5953 14be 074B     		ldr	r3, .L822
 5954 14c0 DD68     		ldr	r5, [r3, #12]
 5955              	.LVL818:
 5956              	.LBB792:
 5957              	.LBB793:
 5958              		.loc 3 257 0
 5959 14c2 2846     		mov	r0, r5
 5960 14c4 FFF7FEFF 		bl	lv_disp_get_dpi
 5961              	.LVL819:
 5962 14c8 C0EB0010 		rsb	r0, r0, r0, lsl #4
 5963 14cc 5030     		adds	r0, r0, #80
 5964 14ce B0F5A07F 		cmp	r0, #320
 5965 14d2 81F22A86 		bge	.L674
 5966 14d6 0121     		movs	r1, #1
 5967 14d8 08E0     		b	.L823
 5968              	.L824:
 5969 14da 00BF     		.align	2
 5970              	.L822:
 5971 14dc 00000000 		.word	.LANCHOR2
 5972 14e0 00000000 		.word	.LANCHOR0
ARM GAS  /tmp/cc6wDDAF.s 			page 164


 5973 14e4 00000000 		.word	.LANCHOR5
 5974 14e8 00000000 		.word	.LANCHOR1
 5975              	.L823:
 5976              	.L309:
 5977              	.LVL820:
 5978              	.LBE793:
 5979              	.LBE792:
 533:Drivers/lvgl/lvgl/src/extra/themes/default/lv_theme_default.c **** 
 5980              		.loc 1 533 0
 5981 14ec 2046     		mov	r0, r4
 5982 14ee FFF7FEFF 		bl	lv_style_set_pad_left
 5983              	.LVL821:
 535:Drivers/lvgl/lvgl/src/extra/themes/default/lv_theme_default.c ****     lv_style_set_radius(&styles->meter_indic, LV_RADIUS_CIRCLE);
 5984              		.loc 1 535 0
 5985 14f2 D14C     		ldr	r4, .L825
 5986 14f4 2068     		ldr	r0, [r4]
 5987 14f6 00F5B470 		add	r0, r0, #360
 5988 14fa FFF7FEFF 		bl	style_init_reset
 5989              	.LVL822:
 536:Drivers/lvgl/lvgl/src/extra/themes/default/lv_theme_default.c ****     lv_style_set_bg_color(&styles->meter_indic, color_text);
 5990              		.loc 1 536 0
 5991 14fe 2068     		ldr	r0, [r4]
 5992 1500 47F6FF71 		movw	r1, #32767
 5993 1504 00F5B470 		add	r0, r0, #360
 5994 1508 FFF7FEFF 		bl	lv_style_set_radius
 5995              	.LVL823:
 537:Drivers/lvgl/lvgl/src/extra/themes/default/lv_theme_default.c ****     lv_style_set_bg_opa(&styles->meter_indic, LV_OPA_COVER);
 5996              		.loc 1 537 0
 5997 150c 2068     		ldr	r0, [r4]
 5998 150e CB4B     		ldr	r3, .L825+4
 5999 1510 1988     		ldrh	r1, [r3]
 6000 1512 00F5B470 		add	r0, r0, #360
 6001 1516 FFF7FEFF 		bl	lv_style_set_bg_color
 6002              	.LVL824:
 538:Drivers/lvgl/lvgl/src/extra/themes/default/lv_theme_default.c ****     lv_style_set_size(&styles->meter_indic, lv_disp_dpx(theme.disp, 15));
 6003              		.loc 1 538 0
 6004 151a 2068     		ldr	r0, [r4]
 6005 151c FF21     		movs	r1, #255
 6006 151e 00F5B470 		add	r0, r0, #360
 6007 1522 FFF7FEFF 		bl	lv_style_set_bg_opa
 6008              	.LVL825:
 539:Drivers/lvgl/lvgl/src/extra/themes/default/lv_theme_default.c **** #endif
 6009              		.loc 1 539 0
 6010 1526 2568     		ldr	r5, [r4]
 6011 1528 05F5B475 		add	r5, r5, #360
 6012 152c C44B     		ldr	r3, .L825+8
 6013 152e DC68     		ldr	r4, [r3, #12]
 6014              	.LVL826:
 6015              	.LBB795:
 6016              	.LBB796:
 6017              		.loc 3 257 0
 6018 1530 2046     		mov	r0, r4
 6019 1532 FFF7FEFF 		bl	lv_disp_get_dpi
 6020              	.LVL827:
 6021 1536 C0EB0010 		rsb	r0, r0, r0, lsl #4
 6022 153a 5030     		adds	r0, r0, #80
 6023 153c B0F5A07F 		cmp	r0, #320
ARM GAS  /tmp/cc6wDDAF.s 			page 165


 6024 1540 81F20286 		bge	.L675
 6025 1544 0124     		movs	r4, #1
 6026              	.LVL828:
 6027              	.L310:
 6028              	.LBE796:
 6029              	.LBE795:
 6030              	.LBB798:
 6031              	.LBB799:
 525:Drivers/lvgl/lvgl/src/extra/themes/default/../../../../src/hal/../draw/../misc/lv_style.h ****     lv_style_set_height(style, value);
 6032              		.loc 4 525 0
 6033 1546 2146     		mov	r1, r4
 6034 1548 2846     		mov	r0, r5
 6035 154a FFF7FEFF 		bl	lv_style_set_width
 6036              	.LVL829:
 526:Drivers/lvgl/lvgl/src/extra/themes/default/../../../../src/hal/../draw/../misc/lv_style.h **** }
 6037              		.loc 4 526 0
 6038 154e 2146     		mov	r1, r4
 6039 1550 2846     		mov	r0, r5
 6040 1552 FFF7FEFF 		bl	lv_style_set_height
 6041              	.LVL830:
 6042              	.LBE799:
 6043              	.LBE798:
 543:Drivers/lvgl/lvgl/src/extra/themes/default/lv_theme_default.c ****     lv_style_set_border_width(&styles->table_cell, lv_disp_dpx(theme.disp, 1));
 6044              		.loc 1 543 0
 6045 1556 B84C     		ldr	r4, .L825
 6046 1558 2068     		ldr	r0, [r4]
 6047 155a 00F5AC70 		add	r0, r0, #344
 6048 155e FFF7FEFF 		bl	style_init_reset
 6049              	.LVL831:
 544:Drivers/lvgl/lvgl/src/extra/themes/default/lv_theme_default.c ****     lv_style_set_border_color(&styles->table_cell, color_grey);
 6050              		.loc 1 544 0
 6051 1562 2468     		ldr	r4, [r4]
 6052 1564 04F5AC74 		add	r4, r4, #344
 6053 1568 B54B     		ldr	r3, .L825+8
 6054 156a DD68     		ldr	r5, [r3, #12]
 6055              	.LVL832:
 6056              	.LBB800:
 6057              	.LBB801:
 6058              		.loc 3 257 0
 6059 156c 2846     		mov	r0, r5
 6060 156e FFF7FEFF 		bl	lv_disp_get_dpi
 6061              	.LVL833:
 6062 1572 5030     		adds	r0, r0, #80
 6063 1574 B0F5A07F 		cmp	r0, #320
 6064 1578 81F2F585 		bge	.L676
 6065 157c 0121     		movs	r1, #1
 6066              	.L311:
 6067              	.LVL834:
 6068              	.LBE801:
 6069              	.LBE800:
 544:Drivers/lvgl/lvgl/src/extra/themes/default/lv_theme_default.c ****     lv_style_set_border_color(&styles->table_cell, color_grey);
 6070              		.loc 1 544 0
 6071 157e 2046     		mov	r0, r4
 6072 1580 FFF7FEFF 		bl	lv_style_set_border_width
 6073              	.LVL835:
 545:Drivers/lvgl/lvgl/src/extra/themes/default/lv_theme_default.c ****     lv_style_set_border_side(&styles->table_cell, LV_BORDER_SIDE_TOP | LV_BORDER_SIDE_BOTTOM);
 6074              		.loc 1 545 0
ARM GAS  /tmp/cc6wDDAF.s 			page 166


 6075 1584 AC4C     		ldr	r4, .L825
 6076 1586 2068     		ldr	r0, [r4]
 6077 1588 AE4B     		ldr	r3, .L825+12
 6078 158a 1988     		ldrh	r1, [r3]
 6079 158c 00F5AC70 		add	r0, r0, #344
 6080 1590 FFF7FEFF 		bl	lv_style_set_border_color
 6081              	.LVL836:
 546:Drivers/lvgl/lvgl/src/extra/themes/default/lv_theme_default.c **** #endif
 6082              		.loc 1 546 0
 6083 1594 2068     		ldr	r0, [r4]
 6084 1596 0321     		movs	r1, #3
 6085 1598 00F5AC70 		add	r0, r0, #344
 6086 159c FFF7FEFF 		bl	lv_style_set_border_side
 6087              	.LVL837:
 550:Drivers/lvgl/lvgl/src/extra/themes/default/lv_theme_default.c ****     lv_style_set_border_color(&styles->ta_cursor, color_text);
 6088              		.loc 1 550 0
 6089 15a0 2068     		ldr	r0, [r4]
 6090 15a2 00F5B870 		add	r0, r0, #368
 6091 15a6 FFF7FEFF 		bl	style_init_reset
 6092              	.LVL838:
 551:Drivers/lvgl/lvgl/src/extra/themes/default/lv_theme_default.c ****     lv_style_set_border_width(&styles->ta_cursor, lv_disp_dpx(theme.disp, 2));
 6093              		.loc 1 551 0
 6094 15aa 2068     		ldr	r0, [r4]
 6095 15ac A34B     		ldr	r3, .L825+4
 6096 15ae 1988     		ldrh	r1, [r3]
 6097 15b0 00F5B870 		add	r0, r0, #368
 6098 15b4 FFF7FEFF 		bl	lv_style_set_border_color
 6099              	.LVL839:
 552:Drivers/lvgl/lvgl/src/extra/themes/default/lv_theme_default.c ****     lv_style_set_pad_left(&styles->ta_cursor, - lv_disp_dpx(theme.disp, 1));
 6100              		.loc 1 552 0
 6101 15b8 2468     		ldr	r4, [r4]
 6102 15ba 04F5B874 		add	r4, r4, #368
 6103 15be A04B     		ldr	r3, .L825+8
 6104 15c0 DD68     		ldr	r5, [r3, #12]
 6105              	.LVL840:
 6106              	.LBB803:
 6107              	.LBB804:
 6108              		.loc 3 257 0
 6109 15c2 2846     		mov	r0, r5
 6110 15c4 FFF7FEFF 		bl	lv_disp_get_dpi
 6111              	.LVL841:
 6112 15c8 4000     		lsls	r0, r0, #1
 6113 15ca 5030     		adds	r0, r0, #80
 6114 15cc B0F5A07F 		cmp	r0, #320
 6115 15d0 81F2D685 		bge	.L677
 6116 15d4 0121     		movs	r1, #1
 6117              	.L312:
 6118              	.LVL842:
 6119              	.LBE804:
 6120              	.LBE803:
 552:Drivers/lvgl/lvgl/src/extra/themes/default/lv_theme_default.c ****     lv_style_set_pad_left(&styles->ta_cursor, - lv_disp_dpx(theme.disp, 1));
 6121              		.loc 1 552 0
 6122 15d6 2046     		mov	r0, r4
 6123 15d8 FFF7FEFF 		bl	lv_style_set_border_width
 6124              	.LVL843:
 553:Drivers/lvgl/lvgl/src/extra/themes/default/lv_theme_default.c ****     lv_style_set_border_side(&styles->ta_cursor, LV_BORDER_SIDE_LEFT);
 6125              		.loc 1 553 0
ARM GAS  /tmp/cc6wDDAF.s 			page 167


 6126 15dc 964B     		ldr	r3, .L825
 6127 15de 1D68     		ldr	r5, [r3]
 6128 15e0 05F5B875 		add	r5, r5, #368
 6129 15e4 964B     		ldr	r3, .L825+8
 6130 15e6 DC68     		ldr	r4, [r3, #12]
 6131              	.LVL844:
 6132              	.LBB806:
 6133              	.LBB807:
 6134              		.loc 3 257 0
 6135 15e8 2046     		mov	r0, r4
 6136 15ea FFF7FEFF 		bl	lv_disp_get_dpi
 6137              	.LVL845:
 6138 15ee 5030     		adds	r0, r0, #80
 6139 15f0 B0F5A07F 		cmp	r0, #320
 6140 15f4 81F2D285 		bge	.L678
 6141 15f8 0121     		movs	r1, #1
 6142              	.L313:
 6143              	.LVL846:
 6144              	.LBE807:
 6145              	.LBE806:
 553:Drivers/lvgl/lvgl/src/extra/themes/default/lv_theme_default.c ****     lv_style_set_border_side(&styles->ta_cursor, LV_BORDER_SIDE_LEFT);
 6146              		.loc 1 553 0
 6147 15fa 89B2     		uxth	r1, r1
 6148 15fc 4942     		negs	r1, r1
 6149 15fe 09B2     		sxth	r1, r1
 6150 1600 2846     		mov	r0, r5
 6151 1602 FFF7FEFF 		bl	lv_style_set_pad_left
 6152              	.LVL847:
 554:Drivers/lvgl/lvgl/src/extra/themes/default/lv_theme_default.c ****     lv_style_set_anim_time(&styles->ta_cursor, 400);
 6153              		.loc 1 554 0
 6154 1606 8C4C     		ldr	r4, .L825
 6155 1608 2068     		ldr	r0, [r4]
 6156 160a 0421     		movs	r1, #4
 6157 160c 00F5B870 		add	r0, r0, #368
 6158 1610 FFF7FEFF 		bl	lv_style_set_border_side
 6159              	.LVL848:
 555:Drivers/lvgl/lvgl/src/extra/themes/default/lv_theme_default.c **** 
 6160              		.loc 1 555 0
 6161 1614 2068     		ldr	r0, [r4]
 6162 1616 4FF4C871 		mov	r1, #400
 6163 161a 00F5B870 		add	r0, r0, #368
 6164 161e FFF7FEFF 		bl	lv_style_set_anim_time
 6165              	.LVL849:
 557:Drivers/lvgl/lvgl/src/extra/themes/default/lv_theme_default.c ****     lv_style_set_text_color(&styles->ta_placeholder, (theme.flags & MODE_DARK) ? lv_palette_darken(
 6166              		.loc 1 557 0
 6167 1622 2068     		ldr	r0, [r4]
 6168 1624 00F5BC70 		add	r0, r0, #376
 6169 1628 FFF7FEFF 		bl	style_init_reset
 6170              	.LVL850:
 558:Drivers/lvgl/lvgl/src/extra/themes/default/lv_theme_default.c ****                                                                                                    
 6171              		.loc 1 558 0
 6172 162c 2468     		ldr	r4, [r4]
 6173 162e 04F5BC74 		add	r4, r4, #376
 6174 1632 834B     		ldr	r3, .L825+8
 6175 1634 1B6A     		ldr	r3, [r3, #32]
 6176 1636 13F0010F 		tst	r3, #1
 6177 163a 01F0BC85 		beq	.L314
ARM GAS  /tmp/cc6wDDAF.s 			page 168


 558:Drivers/lvgl/lvgl/src/extra/themes/default/lv_theme_default.c ****                                                                                                    
 6178              		.loc 1 558 0 is_stmt 0 discriminator 1
 6179 163e 0221     		movs	r1, #2
 6180 1640 1220     		movs	r0, #18
 6181 1642 FFF7FEFF 		bl	lv_palette_darken
 6182              	.LVL851:
 6183 1646 0146     		mov	r1, r0	@ movhi
 6184              	.L315:
 558:Drivers/lvgl/lvgl/src/extra/themes/default/lv_theme_default.c ****                                                                                                    
 6185              		.loc 1 558 0 discriminator 4
 6186 1648 2046     		mov	r0, r4
 6187 164a FFF7FEFF 		bl	lv_style_set_text_color
 6188              	.LVL852:
 563:Drivers/lvgl/lvgl/src/extra/themes/default/lv_theme_default.c ****     lv_style_set_pad_all(&styles->calendar_btnm_bg, PAD_SMALL);
 6189              		.loc 1 563 0 is_stmt 1 discriminator 4
 6190 164e 7A4C     		ldr	r4, .L825
 6191 1650 2068     		ldr	r0, [r4]
 6192 1652 00F5C070 		add	r0, r0, #384
 6193 1656 FFF7FEFF 		bl	style_init_reset
 6194              	.LVL853:
 564:Drivers/lvgl/lvgl/src/extra/themes/default/lv_theme_default.c ****     lv_style_set_pad_gap(&styles->calendar_btnm_bg, PAD_SMALL / 2);
 6195              		.loc 1 564 0 discriminator 4
 6196 165a 2568     		ldr	r5, [r4]
 6197 165c 05F5C075 		add	r5, r5, #384
 6198 1660 794B     		ldr	r3, .L825+16
 6199 1662 1B78     		ldrb	r3, [r3]	@ zero_extendqisi2
 6200 1664 012B     		cmp	r3, #1
 6201 1666 01F0AD85 		beq	.L679
 564:Drivers/lvgl/lvgl/src/extra/themes/default/lv_theme_default.c ****     lv_style_set_pad_gap(&styles->calendar_btnm_bg, PAD_SMALL / 2);
 6202              		.loc 1 564 0 is_stmt 0 discriminator 2
 6203 166a 022B     		cmp	r3, #2
 6204 166c 01F0C985 		beq	.L680
 564:Drivers/lvgl/lvgl/src/extra/themes/default/lv_theme_default.c ****     lv_style_set_pad_gap(&styles->calendar_btnm_bg, PAD_SMALL / 2);
 6205              		.loc 1 564 0 discriminator 5
 6206 1670 734B     		ldr	r3, .L825+8
 6207 1672 DC68     		ldr	r4, [r3, #12]
 6208              	.LVL854:
 6209              	.LBB809:
 6210              	.LBB810:
 6211              		.loc 3 257 0 is_stmt 1 discriminator 5
 6212 1674 2046     		mov	r0, r4
 6213 1676 FFF7FEFF 		bl	lv_disp_get_dpi
 6214              	.LVL855:
 6215 167a 00EB8000 		add	r0, r0, r0, lsl #2
 6216 167e 4000     		lsls	r0, r0, #1
 6217 1680 5030     		adds	r0, r0, #80
 6218 1682 B0F5A07F 		cmp	r0, #320
 6219 1686 81F2DB85 		bge	.L681
 6220              		.loc 3 257 0 is_stmt 0
 6221 168a 0124     		movs	r4, #1
 6222              	.LVL856:
 6223              	.L318:
 6224              	.LBE810:
 6225              	.LBE809:
 6226              	.LBB812:
 6227              	.LBB813:
 531:Drivers/lvgl/lvgl/src/extra/themes/default/../../../../src/hal/../draw/../misc/lv_style.h ****     lv_style_set_pad_right(style, value);
ARM GAS  /tmp/cc6wDDAF.s 			page 169


 6228              		.loc 4 531 0 is_stmt 1 discriminator 8
 6229 168c 2146     		mov	r1, r4
 6230 168e 2846     		mov	r0, r5
 6231 1690 FFF7FEFF 		bl	lv_style_set_pad_left
 6232              	.LVL857:
 532:Drivers/lvgl/lvgl/src/extra/themes/default/../../../../src/hal/../draw/../misc/lv_style.h ****     lv_style_set_pad_top(style, value);
 6233              		.loc 4 532 0 discriminator 8
 6234 1694 2146     		mov	r1, r4
 6235 1696 2846     		mov	r0, r5
 6236 1698 FFF7FEFF 		bl	lv_style_set_pad_right
 6237              	.LVL858:
 533:Drivers/lvgl/lvgl/src/extra/themes/default/../../../../src/hal/../draw/../misc/lv_style.h ****     lv_style_set_pad_bottom(style, value);
 6238              		.loc 4 533 0 discriminator 8
 6239 169c 2146     		mov	r1, r4
 6240 169e 2846     		mov	r0, r5
 6241 16a0 FFF7FEFF 		bl	lv_style_set_pad_top
 6242              	.LVL859:
 534:Drivers/lvgl/lvgl/src/extra/themes/default/../../../../src/hal/../draw/../misc/lv_style.h **** }
 6243              		.loc 4 534 0 discriminator 8
 6244 16a4 2146     		mov	r1, r4
 6245 16a6 2846     		mov	r0, r5
 6246 16a8 FFF7FEFF 		bl	lv_style_set_pad_bottom
 6247              	.LVL860:
 6248              	.LBE813:
 6249              	.LBE812:
 565:Drivers/lvgl/lvgl/src/extra/themes/default/lv_theme_default.c **** 
 6250              		.loc 1 565 0 discriminator 8
 6251 16ac 624B     		ldr	r3, .L825
 6252 16ae 1D68     		ldr	r5, [r3]
 6253 16b0 05F5C075 		add	r5, r5, #384
 6254 16b4 644B     		ldr	r3, .L825+16
 6255 16b6 1B78     		ldrb	r3, [r3]	@ zero_extendqisi2
 6256 16b8 012B     		cmp	r3, #1
 6257 16ba 01F0D185 		beq	.L682
 565:Drivers/lvgl/lvgl/src/extra/themes/default/lv_theme_default.c **** 
 6258              		.loc 1 565 0 is_stmt 0 discriminator 2
 6259 16be 022B     		cmp	r3, #2
 6260 16c0 01F0F385 		beq	.L683
 565:Drivers/lvgl/lvgl/src/extra/themes/default/lv_theme_default.c **** 
 6261              		.loc 1 565 0 discriminator 5
 6262 16c4 5E4B     		ldr	r3, .L825+8
 6263 16c6 DC68     		ldr	r4, [r3, #12]
 6264              	.LVL861:
 6265              	.LBB814:
 6266              	.LBB815:
 6267              		.loc 3 257 0 is_stmt 1 discriminator 5
 6268 16c8 2046     		mov	r0, r4
 6269 16ca FFF7FEFF 		bl	lv_disp_get_dpi
 6270              	.LVL862:
 6271 16ce 00EB8000 		add	r0, r0, r0, lsl #2
 6272 16d2 4000     		lsls	r0, r0, #1
 6273 16d4 5030     		adds	r0, r0, #80
 6274 16d6 B0F5A07F 		cmp	r0, #320
 6275 16da 81F20B86 		bge	.L684
 6276              		.loc 3 257 0 is_stmt 0
 6277 16de 0123     		movs	r3, #1
 6278              	.L329:
ARM GAS  /tmp/cc6wDDAF.s 			page 170


 6279              	.LVL863:
 6280              	.LBE815:
 6281              	.LBE814:
 565:Drivers/lvgl/lvgl/src/extra/themes/default/lv_theme_default.c **** 
 6282              		.loc 1 565 0 is_stmt 1
 6283 16e0 1C46     		mov	r4, r3
 6284 16e2 002B     		cmp	r3, #0
 6285 16e4 C1F21686 		blt	.L685
 6286              	.L330:
 6287 16e8 44F34F04 		sbfx	r4, r4, #1, #16
 6288              	.L325:
 6289              	.LVL864:
 6290              	.LBB817:
 6291              	.LBB818:
 551:Drivers/lvgl/lvgl/src/extra/themes/default/../../../../src/hal/../draw/../misc/lv_style.h ****     lv_style_set_pad_column(style, value);
 6292              		.loc 4 551 0 discriminator 8
 6293 16ec 2146     		mov	r1, r4
 6294 16ee 2846     		mov	r0, r5
 6295 16f0 FFF7FEFF 		bl	lv_style_set_pad_row
 6296              	.LVL865:
 6297              		.loc 4 552 0 discriminator 8
 6298 16f4 2146     		mov	r1, r4
 6299 16f6 2846     		mov	r0, r5
 6300 16f8 FFF7FEFF 		bl	lv_style_set_pad_column
 6301              	.LVL866:
 6302              	.LBE818:
 6303              	.LBE817:
 567:Drivers/lvgl/lvgl/src/extra/themes/default/lv_theme_default.c ****     lv_style_set_border_width(&styles->calendar_btnm_day, lv_disp_dpx(theme.disp, 1));
 6304              		.loc 1 567 0 discriminator 8
 6305 16fc 4E4C     		ldr	r4, .L825
 6306 16fe 2068     		ldr	r0, [r4]
 6307 1700 00F5C470 		add	r0, r0, #392
 6308 1704 FFF7FEFF 		bl	style_init_reset
 6309              	.LVL867:
 568:Drivers/lvgl/lvgl/src/extra/themes/default/lv_theme_default.c ****     lv_style_set_border_color(&styles->calendar_btnm_day, color_grey);
 6310              		.loc 1 568 0 discriminator 8
 6311 1708 2468     		ldr	r4, [r4]
 6312 170a 04F5C474 		add	r4, r4, #392
 6313 170e 4C4B     		ldr	r3, .L825+8
 6314 1710 DD68     		ldr	r5, [r3, #12]
 6315              	.LVL868:
 6316              	.LBB819:
 6317              	.LBB820:
 6318              		.loc 3 257 0 discriminator 8
 6319 1712 2846     		mov	r0, r5
 6320 1714 FFF7FEFF 		bl	lv_disp_get_dpi
 6321              	.LVL869:
 6322 1718 5030     		adds	r0, r0, #80
 6323 171a B0F5A07F 		cmp	r0, #320
 6324 171e 81F2FC85 		bge	.L686
 6325              		.loc 3 257 0 is_stmt 0
 6326 1722 0121     		movs	r1, #1
 6327              	.L331:
 6328              	.LVL870:
 6329              	.LBE820:
 6330              	.LBE819:
 568:Drivers/lvgl/lvgl/src/extra/themes/default/lv_theme_default.c ****     lv_style_set_border_color(&styles->calendar_btnm_day, color_grey);
ARM GAS  /tmp/cc6wDDAF.s 			page 171


 6331              		.loc 1 568 0 is_stmt 1
 6332 1724 2046     		mov	r0, r4
 6333 1726 FFF7FEFF 		bl	lv_style_set_border_width
 6334              	.LVL871:
 569:Drivers/lvgl/lvgl/src/extra/themes/default/lv_theme_default.c ****     lv_style_set_bg_color(&styles->calendar_btnm_day, color_card);
 6335              		.loc 1 569 0
 6336 172a 434C     		ldr	r4, .L825
 6337 172c 2068     		ldr	r0, [r4]
 6338 172e 454B     		ldr	r3, .L825+12
 6339 1730 1988     		ldrh	r1, [r3]
 6340 1732 00F5C470 		add	r0, r0, #392
 6341 1736 FFF7FEFF 		bl	lv_style_set_border_color
 6342              	.LVL872:
 570:Drivers/lvgl/lvgl/src/extra/themes/default/lv_theme_default.c ****     lv_style_set_bg_opa(&styles->calendar_btnm_day, LV_OPA_20);
 6343              		.loc 1 570 0
 6344 173a 2068     		ldr	r0, [r4]
 6345 173c 434B     		ldr	r3, .L825+20
 6346 173e 1988     		ldrh	r1, [r3]
 6347 1740 00F5C470 		add	r0, r0, #392
 6348 1744 FFF7FEFF 		bl	lv_style_set_bg_color
 6349              	.LVL873:
 571:Drivers/lvgl/lvgl/src/extra/themes/default/lv_theme_default.c **** 
 6350              		.loc 1 571 0
 6351 1748 2068     		ldr	r0, [r4]
 6352 174a 3321     		movs	r1, #51
 6353 174c 00F5C470 		add	r0, r0, #392
 6354 1750 FFF7FEFF 		bl	lv_style_set_bg_opa
 6355              	.LVL874:
 573:Drivers/lvgl/lvgl/src/extra/themes/default/lv_theme_default.c ****     lv_style_set_pad_hor(&styles->calendar_header, PAD_SMALL);
 6356              		.loc 1 573 0
 6357 1754 2068     		ldr	r0, [r4]
 6358 1756 00F5C870 		add	r0, r0, #400
 6359 175a FFF7FEFF 		bl	style_init_reset
 6360              	.LVL875:
 574:Drivers/lvgl/lvgl/src/extra/themes/default/lv_theme_default.c ****     lv_style_set_pad_top(&styles->calendar_header, PAD_SMALL);
 6361              		.loc 1 574 0
 6362 175e 2568     		ldr	r5, [r4]
 6363 1760 05F5C875 		add	r5, r5, #400
 6364 1764 384B     		ldr	r3, .L825+16
 6365 1766 1B78     		ldrb	r3, [r3]	@ zero_extendqisi2
 6366 1768 012B     		cmp	r3, #1
 6367 176a 01F0E385 		beq	.L687
 574:Drivers/lvgl/lvgl/src/extra/themes/default/lv_theme_default.c ****     lv_style_set_pad_top(&styles->calendar_header, PAD_SMALL);
 6368              		.loc 1 574 0 is_stmt 0 discriminator 2
 6369 176e 022B     		cmp	r3, #2
 6370 1770 01F0FF85 		beq	.L688
 574:Drivers/lvgl/lvgl/src/extra/themes/default/lv_theme_default.c ****     lv_style_set_pad_top(&styles->calendar_header, PAD_SMALL);
 6371              		.loc 1 574 0 discriminator 5
 6372 1774 324B     		ldr	r3, .L825+8
 6373 1776 DC68     		ldr	r4, [r3, #12]
 6374              	.LVL876:
 6375              	.LBB822:
 6376              	.LBB823:
 6377              		.loc 3 257 0 is_stmt 1 discriminator 5
 6378 1778 2046     		mov	r0, r4
 6379 177a FFF7FEFF 		bl	lv_disp_get_dpi
 6380              	.LVL877:
ARM GAS  /tmp/cc6wDDAF.s 			page 172


 6381 177e 00EB8000 		add	r0, r0, r0, lsl #2
 6382 1782 4000     		lsls	r0, r0, #1
 6383 1784 5030     		adds	r0, r0, #80
 6384 1786 B0F5A07F 		cmp	r0, #320
 6385 178a 81F21186 		bge	.L689
 6386              		.loc 3 257 0 is_stmt 0
 6387 178e 0124     		movs	r4, #1
 6388              	.LVL878:
 6389              	.L334:
 6390              	.LBE823:
 6391              	.LBE822:
 6392              	.LBB825:
 6393              	.LBB826:
 539:Drivers/lvgl/lvgl/src/extra/themes/default/../../../../src/hal/../draw/../misc/lv_style.h ****     lv_style_set_pad_right(style, value);
 6394              		.loc 4 539 0 is_stmt 1 discriminator 8
 6395 1790 2146     		mov	r1, r4
 6396 1792 2846     		mov	r0, r5
 6397 1794 FFF7FEFF 		bl	lv_style_set_pad_left
 6398              	.LVL879:
 540:Drivers/lvgl/lvgl/src/extra/themes/default/../../../../src/hal/../draw/../misc/lv_style.h **** }
 6399              		.loc 4 540 0 discriminator 8
 6400 1798 2146     		mov	r1, r4
 6401 179a 2846     		mov	r0, r5
 6402 179c FFF7FEFF 		bl	lv_style_set_pad_right
 6403              	.LVL880:
 6404              	.LBE826:
 6405              	.LBE825:
 575:Drivers/lvgl/lvgl/src/extra/themes/default/lv_theme_default.c ****     lv_style_set_pad_bottom(&styles->calendar_header, PAD_TINY);
 6406              		.loc 1 575 0 discriminator 8
 6407 17a0 254B     		ldr	r3, .L825
 6408 17a2 1C68     		ldr	r4, [r3]
 6409 17a4 04F5C874 		add	r4, r4, #400
 6410 17a8 274B     		ldr	r3, .L825+16
 6411 17aa 1B78     		ldrb	r3, [r3]	@ zero_extendqisi2
 6412 17ac 012B     		cmp	r3, #1
 6413 17ae 01F00F86 		beq	.L690
 575:Drivers/lvgl/lvgl/src/extra/themes/default/lv_theme_default.c ****     lv_style_set_pad_bottom(&styles->calendar_header, PAD_TINY);
 6414              		.loc 1 575 0 is_stmt 0 discriminator 2
 6415 17b2 022B     		cmp	r3, #2
 6416 17b4 01F03086 		beq	.L691
 575:Drivers/lvgl/lvgl/src/extra/themes/default/lv_theme_default.c ****     lv_style_set_pad_bottom(&styles->calendar_header, PAD_TINY);
 6417              		.loc 1 575 0 discriminator 5
 6418 17b8 214B     		ldr	r3, .L825+8
 6419 17ba DD68     		ldr	r5, [r3, #12]
 6420              	.LVL881:
 6421              	.LBB827:
 6422              	.LBB828:
 6423              		.loc 3 257 0 is_stmt 1 discriminator 5
 6424 17bc 2846     		mov	r0, r5
 6425 17be FFF7FEFF 		bl	lv_disp_get_dpi
 6426              	.LVL882:
 6427 17c2 00EB8000 		add	r0, r0, r0, lsl #2
 6428 17c6 4000     		lsls	r0, r0, #1
 6429 17c8 5030     		adds	r0, r0, #80
 6430 17ca B0F5A07F 		cmp	r0, #320
 6431 17ce 81F24286 		bge	.L692
 6432              		.loc 3 257 0 is_stmt 0
ARM GAS  /tmp/cc6wDDAF.s 			page 173


 6433 17d2 0121     		movs	r1, #1
 6434              	.LVL883:
 6435              	.L340:
 6436              	.LBE828:
 6437              	.LBE827:
 575:Drivers/lvgl/lvgl/src/extra/themes/default/lv_theme_default.c ****     lv_style_set_pad_bottom(&styles->calendar_header, PAD_TINY);
 6438              		.loc 1 575 0 is_stmt 1 discriminator 8
 6439 17d4 2046     		mov	r0, r4
 6440 17d6 FFF7FEFF 		bl	lv_style_set_pad_top
 6441              	.LVL884:
 576:Drivers/lvgl/lvgl/src/extra/themes/default/lv_theme_default.c ****     lv_style_set_pad_gap(&styles->calendar_header, PAD_SMALL);
 6442              		.loc 1 576 0 discriminator 8
 6443 17da 174B     		ldr	r3, .L825
 6444 17dc 1C68     		ldr	r4, [r3]
 6445 17de 04F5C874 		add	r4, r4, #400
 6446 17e2 194B     		ldr	r3, .L825+16
 6447 17e4 1B78     		ldrb	r3, [r3]	@ zero_extendqisi2
 6448 17e6 012B     		cmp	r3, #1
 6449 17e8 01F04586 		beq	.L693
 576:Drivers/lvgl/lvgl/src/extra/themes/default/lv_theme_default.c ****     lv_style_set_pad_gap(&styles->calendar_header, PAD_SMALL);
 6450              		.loc 1 576 0 is_stmt 0 discriminator 2
 6451 17ec 022B     		cmp	r3, #2
 6452 17ee 01F05D86 		beq	.L694
 576:Drivers/lvgl/lvgl/src/extra/themes/default/lv_theme_default.c ****     lv_style_set_pad_gap(&styles->calendar_header, PAD_SMALL);
 6453              		.loc 1 576 0 discriminator 5
 6454 17f2 134B     		ldr	r3, .L825+8
 6455 17f4 DD68     		ldr	r5, [r3, #12]
 6456              	.LVL885:
 6457              	.LBB830:
 6458              	.LBB831:
 6459              		.loc 3 257 0 is_stmt 1 discriminator 5
 6460 17f6 2846     		mov	r0, r5
 6461 17f8 FFF7FEFF 		bl	lv_disp_get_dpi
 6462              	.LVL886:
 6463 17fc 4000     		lsls	r0, r0, #1
 6464 17fe 5030     		adds	r0, r0, #80
 6465 1800 B0F5A07F 		cmp	r0, #320
 6466 1804 81F27186 		bge	.L695
 6467              		.loc 3 257 0 is_stmt 0
 6468 1808 0121     		movs	r1, #1
 6469              	.LVL887:
 6470              	.L346:
 6471              	.LBE831:
 6472              	.LBE830:
 576:Drivers/lvgl/lvgl/src/extra/themes/default/lv_theme_default.c ****     lv_style_set_pad_gap(&styles->calendar_header, PAD_SMALL);
 6473              		.loc 1 576 0 is_stmt 1 discriminator 8
 6474 180a 2046     		mov	r0, r4
 6475 180c FFF7FEFF 		bl	lv_style_set_pad_bottom
 6476              	.LVL888:
 577:Drivers/lvgl/lvgl/src/extra/themes/default/lv_theme_default.c **** #endif
 6477              		.loc 1 577 0 discriminator 8
 6478 1810 094B     		ldr	r3, .L825
 6479 1812 1D68     		ldr	r5, [r3]
 6480 1814 05F5C875 		add	r5, r5, #400
 6481 1818 0B4B     		ldr	r3, .L825+16
 6482 181a 1B78     		ldrb	r3, [r3]	@ zero_extendqisi2
 6483 181c 012B     		cmp	r3, #1
ARM GAS  /tmp/cc6wDDAF.s 			page 174


 6484 181e 01F07286 		beq	.L696
 577:Drivers/lvgl/lvgl/src/extra/themes/default/lv_theme_default.c **** #endif
 6485              		.loc 1 577 0 is_stmt 0 discriminator 2
 6486 1822 022B     		cmp	r3, #2
 6487 1824 01F08E86 		beq	.L697
 577:Drivers/lvgl/lvgl/src/extra/themes/default/lv_theme_default.c **** #endif
 6488              		.loc 1 577 0 discriminator 5
 6489 1828 054B     		ldr	r3, .L825+8
 6490 182a DC68     		ldr	r4, [r3, #12]
 6491              	.LVL889:
 6492              	.LBB833:
 6493              	.LBB834:
 6494              		.loc 3 257 0 is_stmt 1 discriminator 5
 6495 182c 2046     		mov	r0, r4
 6496 182e FFF7FEFF 		bl	lv_disp_get_dpi
 6497              	.LVL890:
 6498 1832 00EB8000 		add	r0, r0, r0, lsl #2
 6499 1836 0BE0     		b	.L826
 6500              	.L827:
 6501              		.align	2
 6502              	.L825:
 6503 1838 00000000 		.word	.LANCHOR0
 6504 183c 00000000 		.word	.LANCHOR5
 6505 1840 00000000 		.word	.LANCHOR2
 6506 1844 00000000 		.word	.LANCHOR7
 6507 1848 00000000 		.word	.LANCHOR1
 6508 184c 00000000 		.word	.LANCHOR6
 6509              	.L826:
 6510 1850 4000     		lsls	r0, r0, #1
 6511 1852 5030     		adds	r0, r0, #80
 6512 1854 B0F5A07F 		cmp	r0, #320
 6513 1858 81F29386 		bge	.L698
 6514              		.loc 3 257 0 is_stmt 0
 6515 185c 0124     		movs	r4, #1
 6516              	.LVL891:
 6517              	.L352:
 6518              	.LBE834:
 6519              	.LBE833:
 6520              	.LBB836:
 6521              	.LBB837:
 551:Drivers/lvgl/lvgl/src/extra/themes/default/../../../../src/hal/../draw/../misc/lv_style.h ****     lv_style_set_pad_column(style, value);
 6522              		.loc 4 551 0 is_stmt 1 discriminator 8
 6523 185e 2146     		mov	r1, r4
 6524 1860 2846     		mov	r0, r5
 6525 1862 FFF7FEFF 		bl	lv_style_set_pad_row
 6526              	.LVL892:
 6527              		.loc 4 552 0 discriminator 8
 6528 1866 2146     		mov	r1, r4
 6529 1868 2846     		mov	r0, r5
 6530 186a FFF7FEFF 		bl	lv_style_set_pad_column
 6531              	.LVL893:
 6532              	.LBE837:
 6533              	.LBE836:
 581:Drivers/lvgl/lvgl/src/extra/themes/default/lv_theme_default.c ****     lv_style_set_arc_width(&styles->colorwheel_main, lv_disp_dpx(theme.disp, 10));
 6534              		.loc 1 581 0 discriminator 8
 6535 186e D44C     		ldr	r4, .L828
 6536 1870 2068     		ldr	r0, [r4]
ARM GAS  /tmp/cc6wDDAF.s 			page 175


 6537 1872 00F5CC70 		add	r0, r0, #408
 6538 1876 FFF7FEFF 		bl	style_init_reset
 6539              	.LVL894:
 582:Drivers/lvgl/lvgl/src/extra/themes/default/lv_theme_default.c **** #endif
 6540              		.loc 1 582 0 discriminator 8
 6541 187a 2468     		ldr	r4, [r4]
 6542 187c 04F5CC74 		add	r4, r4, #408
 6543 1880 D04B     		ldr	r3, .L828+4
 6544 1882 DD68     		ldr	r5, [r3, #12]
 6545              	.LVL895:
 6546              	.LBB838:
 6547              	.LBB839:
 6548              		.loc 3 257 0 discriminator 8
 6549 1884 2846     		mov	r0, r5
 6550 1886 FFF7FEFF 		bl	lv_disp_get_dpi
 6551              	.LVL896:
 6552 188a 00EB8000 		add	r0, r0, r0, lsl #2
 6553 188e 4000     		lsls	r0, r0, #1
 6554 1890 5030     		adds	r0, r0, #80
 6555 1892 B0F5A07F 		cmp	r0, #320
 6556 1896 81F28486 		bge	.L699
 6557              		.loc 3 257 0 is_stmt 0
 6558 189a 0121     		movs	r1, #1
 6559              	.L356:
 6560              	.LVL897:
 6561              	.LBE839:
 6562              	.LBE838:
 582:Drivers/lvgl/lvgl/src/extra/themes/default/lv_theme_default.c **** #endif
 6563              		.loc 1 582 0 is_stmt 1
 6564 189c 2046     		mov	r0, r4
 6565 189e FFF7FEFF 		bl	lv_style_set_arc_width
 6566              	.LVL898:
 587:Drivers/lvgl/lvgl/src/extra/themes/default/lv_theme_default.c ****     lv_style_set_pad_all(&styles->msgbox_btn_bg, lv_disp_dpx(theme.disp, 4));
 6567              		.loc 1 587 0
 6568 18a2 C74C     		ldr	r4, .L828
 6569 18a4 2068     		ldr	r0, [r4]
 6570 18a6 00F5FC70 		add	r0, r0, #504
 6571 18aa FFF7FEFF 		bl	style_init_reset
 6572              	.LVL899:
 588:Drivers/lvgl/lvgl/src/extra/themes/default/lv_theme_default.c **** 
 6573              		.loc 1 588 0
 6574 18ae 2568     		ldr	r5, [r4]
 6575 18b0 05F5FC75 		add	r5, r5, #504
 6576 18b4 C34B     		ldr	r3, .L828+4
 6577 18b6 DC68     		ldr	r4, [r3, #12]
 6578              	.LVL900:
 6579              	.LBB841:
 6580              	.LBB842:
 6581              		.loc 3 257 0
 6582 18b8 2046     		mov	r0, r4
 6583 18ba FFF7FEFF 		bl	lv_disp_get_dpi
 6584              	.LVL901:
 6585 18be 8000     		lsls	r0, r0, #2
 6586 18c0 5030     		adds	r0, r0, #80
 6587 18c2 B0F5A07F 		cmp	r0, #320
 6588 18c6 81F27C86 		bge	.L700
 6589 18ca 0124     		movs	r4, #1
ARM GAS  /tmp/cc6wDDAF.s 			page 176


 6590              	.LVL902:
 6591              	.L357:
 6592              	.LBE842:
 6593              	.LBE841:
 6594              	.LBB844:
 6595              	.LBB845:
 531:Drivers/lvgl/lvgl/src/extra/themes/default/../../../../src/hal/../draw/../misc/lv_style.h ****     lv_style_set_pad_right(style, value);
 6596              		.loc 4 531 0
 6597 18cc 2146     		mov	r1, r4
 6598 18ce 2846     		mov	r0, r5
 6599 18d0 FFF7FEFF 		bl	lv_style_set_pad_left
 6600              	.LVL903:
 532:Drivers/lvgl/lvgl/src/extra/themes/default/../../../../src/hal/../draw/../misc/lv_style.h ****     lv_style_set_pad_top(style, value);
 6601              		.loc 4 532 0
 6602 18d4 2146     		mov	r1, r4
 6603 18d6 2846     		mov	r0, r5
 6604 18d8 FFF7FEFF 		bl	lv_style_set_pad_right
 6605              	.LVL904:
 533:Drivers/lvgl/lvgl/src/extra/themes/default/../../../../src/hal/../draw/../misc/lv_style.h ****     lv_style_set_pad_bottom(style, value);
 6606              		.loc 4 533 0
 6607 18dc 2146     		mov	r1, r4
 6608 18de 2846     		mov	r0, r5
 6609 18e0 FFF7FEFF 		bl	lv_style_set_pad_top
 6610              	.LVL905:
 534:Drivers/lvgl/lvgl/src/extra/themes/default/../../../../src/hal/../draw/../misc/lv_style.h **** }
 6611              		.loc 4 534 0
 6612 18e4 2146     		mov	r1, r4
 6613 18e6 2846     		mov	r0, r5
 6614 18e8 FFF7FEFF 		bl	lv_style_set_pad_bottom
 6615              	.LVL906:
 6616              	.LBE845:
 6617              	.LBE844:
 590:Drivers/lvgl/lvgl/src/extra/themes/default/lv_theme_default.c ****     lv_style_set_max_width(&styles->msgbox_bg, lv_pct(100));
 6618              		.loc 1 590 0
 6619 18ec B44C     		ldr	r4, .L828
 6620 18ee 2068     		ldr	r0, [r4]
 6621 18f0 00F5F870 		add	r0, r0, #496
 6622 18f4 FFF7FEFF 		bl	style_init_reset
 6623              	.LVL907:
 591:Drivers/lvgl/lvgl/src/extra/themes/default/lv_theme_default.c **** 
 6624              		.loc 1 591 0
 6625 18f8 2068     		ldr	r0, [r4]
 6626 18fa 42F26401 		movw	r1, #8292
 6627 18fe 00F5F870 		add	r0, r0, #496
 6628 1902 FFF7FEFF 		bl	lv_style_set_max_width
 6629              	.LVL908:
 593:Drivers/lvgl/lvgl/src/extra/themes/default/lv_theme_default.c ****     lv_style_set_bg_color(&styles->msgbox_backdrop_bg, lv_palette_main(LV_PALETTE_GREY));
 6630              		.loc 1 593 0
 6631 1906 2068     		ldr	r0, [r4]
 6632 1908 00F50070 		add	r0, r0, #512
 6633 190c FFF7FEFF 		bl	style_init_reset
 6634              	.LVL909:
 594:Drivers/lvgl/lvgl/src/extra/themes/default/lv_theme_default.c ****     lv_style_set_bg_opa(&styles->msgbox_backdrop_bg, LV_OPA_50);
 6635              		.loc 1 594 0
 6636 1910 2568     		ldr	r5, [r4]
 6637 1912 1220     		movs	r0, #18
 6638 1914 FFF7FEFF 		bl	lv_palette_main
ARM GAS  /tmp/cc6wDDAF.s 			page 177


 6639              	.LVL910:
 6640 1918 0146     		mov	r1, r0	@ movhi
 6641 191a 05F50070 		add	r0, r5, #512
 6642 191e FFF7FEFF 		bl	lv_style_set_bg_color
 6643              	.LVL911:
 595:Drivers/lvgl/lvgl/src/extra/themes/default/lv_theme_default.c **** #endif
 6644              		.loc 1 595 0
 6645 1922 2068     		ldr	r0, [r4]
 6646 1924 7F21     		movs	r1, #127
 6647 1926 00F50070 		add	r0, r0, #512
 6648 192a FFF7FEFF 		bl	lv_style_set_bg_opa
 6649              	.LVL912:
 598:Drivers/lvgl/lvgl/src/extra/themes/default/lv_theme_default.c ****     lv_style_set_shadow_width(&styles->keyboard_btn_bg, 0);
 6650              		.loc 1 598 0
 6651 192e 2068     		ldr	r0, [r4]
 6652 1930 00F50270 		add	r0, r0, #520
 6653 1934 FFF7FEFF 		bl	style_init_reset
 6654              	.LVL913:
 599:Drivers/lvgl/lvgl/src/extra/themes/default/lv_theme_default.c ****     lv_style_set_radius(&styles->keyboard_btn_bg, disp_size == DISP_SMALL ? RADIUS_DEFAULT / 2 : RA
 6655              		.loc 1 599 0
 6656 1938 2068     		ldr	r0, [r4]
 6657 193a 0021     		movs	r1, #0
 6658 193c 00F50270 		add	r0, r0, #520
 6659 1940 FFF7FEFF 		bl	lv_style_set_shadow_width
 6660              	.LVL914:
 600:Drivers/lvgl/lvgl/src/extra/themes/default/lv_theme_default.c **** #endif
 6661              		.loc 1 600 0
 6662 1944 2468     		ldr	r4, [r4]
 6663 1946 04F50274 		add	r4, r4, #520
 6664 194a 9F4B     		ldr	r3, .L828+8
 6665 194c 1B78     		ldrb	r3, [r3]	@ zero_extendqisi2
 6666 194e 032B     		cmp	r3, #3
 6667 1950 01F04586 		beq	.L701
 600:Drivers/lvgl/lvgl/src/extra/themes/default/lv_theme_default.c **** #endif
 6668              		.loc 1 600 0 is_stmt 0 discriminator 2
 6669 1954 012B     		cmp	r3, #1
 6670 1956 01F08A86 		beq	.L702
 600:Drivers/lvgl/lvgl/src/extra/themes/default/lv_theme_default.c **** #endif
 6671              		.loc 1 600 0 discriminator 9
 6672 195a 9A4B     		ldr	r3, .L828+4
 6673 195c DD68     		ldr	r5, [r3, #12]
 6674              	.LVL915:
 6675              	.LBB846:
 6676              	.LBB847:
 6677              		.loc 3 257 0 is_stmt 1 discriminator 9
 6678 195e 2846     		mov	r0, r5
 6679 1960 FFF7FEFF 		bl	lv_disp_get_dpi
 6680              	.LVL916:
 6681 1964 C000     		lsls	r0, r0, #3
 6682 1966 5030     		adds	r0, r0, #80
 6683 1968 B0F5A07F 		cmp	r0, #320
 6684 196c 81F29E86 		bge	.L703
 6685              		.loc 3 257 0 is_stmt 0
 6686 1970 0121     		movs	r1, #1
 6687              	.LVL917:
 6688              	.L362:
 6689              	.LBE847:
ARM GAS  /tmp/cc6wDDAF.s 			page 178


 6690              	.LBE846:
 600:Drivers/lvgl/lvgl/src/extra/themes/default/lv_theme_default.c **** #endif
 6691              		.loc 1 600 0 is_stmt 1 discriminator 12
 6692 1972 2046     		mov	r0, r4
 6693 1974 FFF7FEFF 		bl	lv_style_set_radius
 6694              	.LVL918:
 604:Drivers/lvgl/lvgl/src/extra/themes/default/lv_theme_default.c ****     lv_style_set_border_color(&styles->tab_btn, theme.color_primary);
 6695              		.loc 1 604 0 discriminator 12
 6696 1978 914C     		ldr	r4, .L828
 6697 197a 2068     		ldr	r0, [r4]
 6698 197c 00F50E70 		add	r0, r0, #568
 6699 1980 FFF7FEFF 		bl	style_init_reset
 6700              	.LVL919:
 605:Drivers/lvgl/lvgl/src/extra/themes/default/lv_theme_default.c ****     lv_style_set_border_width(&styles->tab_btn, BORDER_WIDTH * 2);
 6701              		.loc 1 605 0 discriminator 12
 6702 1984 2068     		ldr	r0, [r4]
 6703 1986 8F4D     		ldr	r5, .L828+4
 6704 1988 298A     		ldrh	r1, [r5, #16]
 6705 198a 00F50E70 		add	r0, r0, #568
 6706 198e FFF7FEFF 		bl	lv_style_set_border_color
 6707              	.LVL920:
 606:Drivers/lvgl/lvgl/src/extra/themes/default/lv_theme_default.c ****     lv_style_set_border_side(&styles->tab_btn, LV_BORDER_SIDE_BOTTOM);
 6708              		.loc 1 606 0 discriminator 12
 6709 1992 2468     		ldr	r4, [r4]
 6710 1994 04F50E74 		add	r4, r4, #568
 6711 1998 ED68     		ldr	r5, [r5, #12]
 6712              	.LVL921:
 6713              	.LBB849:
 6714              	.LBB850:
 6715              		.loc 3 257 0 discriminator 12
 6716 199a 2846     		mov	r0, r5
 6717 199c FFF7FEFF 		bl	lv_disp_get_dpi
 6718              	.LVL922:
 6719 19a0 4000     		lsls	r0, r0, #1
 6720 19a2 5030     		adds	r0, r0, #80
 6721 19a4 B0F5A07F 		cmp	r0, #320
 6722 19a8 81F28E86 		bge	.L704
 6723              		.loc 3 257 0 is_stmt 0
 6724 19ac 0121     		movs	r1, #1
 6725              	.L368:
 6726              	.LVL923:
 6727              	.LBE850:
 6728              	.LBE849:
 606:Drivers/lvgl/lvgl/src/extra/themes/default/lv_theme_default.c ****     lv_style_set_border_side(&styles->tab_btn, LV_BORDER_SIDE_BOTTOM);
 6729              		.loc 1 606 0 is_stmt 1
 6730 19ae 89B2     		uxth	r1, r1
 6731 19b0 4900     		lsls	r1, r1, #1
 6732 19b2 09B2     		sxth	r1, r1
 6733 19b4 2046     		mov	r0, r4
 6734 19b6 FFF7FEFF 		bl	lv_style_set_border_width
 6735              	.LVL924:
 607:Drivers/lvgl/lvgl/src/extra/themes/default/lv_theme_default.c **** 
 6736              		.loc 1 607 0
 6737 19ba 814C     		ldr	r4, .L828
 6738 19bc 2068     		ldr	r0, [r4]
 6739 19be 0121     		movs	r1, #1
 6740 19c0 00F50E70 		add	r0, r0, #568
ARM GAS  /tmp/cc6wDDAF.s 			page 179


 6741 19c4 FFF7FEFF 		bl	lv_style_set_border_side
 6742              	.LVL925:
 609:Drivers/lvgl/lvgl/src/extra/themes/default/lv_theme_default.c ****     lv_style_set_outline_pad(&styles->tab_bg_focus, -BORDER_WIDTH);
 6743              		.loc 1 609 0
 6744 19c8 2068     		ldr	r0, [r4]
 6745 19ca 00F50C70 		add	r0, r0, #560
 6746 19ce FFF7FEFF 		bl	style_init_reset
 6747              	.LVL926:
 610:Drivers/lvgl/lvgl/src/extra/themes/default/lv_theme_default.c **** #endif
 6748              		.loc 1 610 0
 6749 19d2 2468     		ldr	r4, [r4]
 6750 19d4 04F50C74 		add	r4, r4, #560
 6751 19d8 7A4B     		ldr	r3, .L828+4
 6752 19da DD68     		ldr	r5, [r3, #12]
 6753              	.LVL927:
 6754              	.LBB852:
 6755              	.LBB853:
 6756              		.loc 3 257 0
 6757 19dc 2846     		mov	r0, r5
 6758 19de FFF7FEFF 		bl	lv_disp_get_dpi
 6759              	.LVL928:
 6760 19e2 4000     		lsls	r0, r0, #1
 6761 19e4 5030     		adds	r0, r0, #80
 6762 19e6 B0F5A07F 		cmp	r0, #320
 6763 19ea 81F27B86 		bge	.L705
 6764 19ee 0121     		movs	r1, #1
 6765              	.L369:
 6766              	.LVL929:
 6767              	.LBE853:
 6768              	.LBE852:
 610:Drivers/lvgl/lvgl/src/extra/themes/default/lv_theme_default.c **** #endif
 6769              		.loc 1 610 0
 6770 19f0 89B2     		uxth	r1, r1
 6771 19f2 4942     		negs	r1, r1
 6772 19f4 09B2     		sxth	r1, r1
 6773 19f6 2046     		mov	r0, r4
 6774 19f8 FFF7FEFF 		bl	lv_style_set_outline_pad
 6775              	.LVL930:
 614:Drivers/lvgl/lvgl/src/extra/themes/default/lv_theme_default.c ****     lv_style_set_pad_hor(&styles->list_bg, PAD_DEF);
 6776              		.loc 1 614 0
 6777 19fc 704C     		ldr	r4, .L828
 6778 19fe 2068     		ldr	r0, [r4]
 6779 1a00 00F50470 		add	r0, r0, #528
 6780 1a04 FFF7FEFF 		bl	style_init_reset
 6781              	.LVL931:
 615:Drivers/lvgl/lvgl/src/extra/themes/default/lv_theme_default.c ****     lv_style_set_pad_ver(&styles->list_bg, 0);
 6782              		.loc 1 615 0
 6783 1a08 2568     		ldr	r5, [r4]
 6784 1a0a 05F50475 		add	r5, r5, #528
 6785 1a0e 6E4B     		ldr	r3, .L828+8
 6786 1a10 1B78     		ldrb	r3, [r3]	@ zero_extendqisi2
 6787 1a12 012B     		cmp	r3, #1
 6788 1a14 01F07486 		beq	.L706
 615:Drivers/lvgl/lvgl/src/extra/themes/default/lv_theme_default.c ****     lv_style_set_pad_ver(&styles->list_bg, 0);
 6789              		.loc 1 615 0 is_stmt 0 discriminator 2
 6790 1a18 022B     		cmp	r3, #2
 6791 1a1a 01F09086 		beq	.L707
ARM GAS  /tmp/cc6wDDAF.s 			page 180


 615:Drivers/lvgl/lvgl/src/extra/themes/default/lv_theme_default.c ****     lv_style_set_pad_ver(&styles->list_bg, 0);
 6792              		.loc 1 615 0 discriminator 5
 6793 1a1e 694B     		ldr	r3, .L828+4
 6794 1a20 DC68     		ldr	r4, [r3, #12]
 6795              	.LVL932:
 6796              	.LBB855:
 6797              	.LBB856:
 6798              		.loc 3 257 0 is_stmt 1 discriminator 5
 6799 1a22 2046     		mov	r0, r4
 6800 1a24 FFF7FEFF 		bl	lv_disp_get_dpi
 6801              	.LVL933:
 6802 1a28 0001     		lsls	r0, r0, #4
 6803 1a2a 5030     		adds	r0, r0, #80
 6804 1a2c B0F5A07F 		cmp	r0, #320
 6805 1a30 81F2A886 		bge	.L708
 6806              		.loc 3 257 0 is_stmt 0
 6807 1a34 0124     		movs	r4, #1
 6808              	.LVL934:
 6809              	.L372:
 6810              	.LBE856:
 6811              	.LBE855:
 6812              	.LBB858:
 6813              	.LBB859:
 539:Drivers/lvgl/lvgl/src/extra/themes/default/../../../../src/hal/../draw/../misc/lv_style.h ****     lv_style_set_pad_right(style, value);
 6814              		.loc 4 539 0 is_stmt 1 discriminator 8
 6815 1a36 2146     		mov	r1, r4
 6816 1a38 2846     		mov	r0, r5
 6817 1a3a FFF7FEFF 		bl	lv_style_set_pad_left
 6818              	.LVL935:
 540:Drivers/lvgl/lvgl/src/extra/themes/default/../../../../src/hal/../draw/../misc/lv_style.h **** }
 6819              		.loc 4 540 0 discriminator 8
 6820 1a3e 2146     		mov	r1, r4
 6821 1a40 2846     		mov	r0, r5
 6822 1a42 FFF7FEFF 		bl	lv_style_set_pad_right
 6823              	.LVL936:
 6824              	.LBE859:
 6825              	.LBE858:
 616:Drivers/lvgl/lvgl/src/extra/themes/default/lv_theme_default.c ****     lv_style_set_pad_gap(&styles->list_bg, 0);
 6826              		.loc 1 616 0 discriminator 8
 6827 1a46 5E4C     		ldr	r4, .L828
 6828 1a48 2568     		ldr	r5, [r4]
 6829 1a4a 05F50475 		add	r5, r5, #528
 6830              	.LVL937:
 6831              	.LBB860:
 6832              	.LBB861:
 545:Drivers/lvgl/lvgl/src/extra/themes/default/../../../../src/hal/../draw/../misc/lv_style.h ****     lv_style_set_pad_bottom(style, value);
 6833              		.loc 4 545 0 discriminator 8
 6834 1a4e 0021     		movs	r1, #0
 6835 1a50 2846     		mov	r0, r5
 6836 1a52 FFF7FEFF 		bl	lv_style_set_pad_top
 6837              	.LVL938:
 546:Drivers/lvgl/lvgl/src/extra/themes/default/../../../../src/hal/../draw/../misc/lv_style.h **** }
 6838              		.loc 4 546 0 discriminator 8
 6839 1a56 0021     		movs	r1, #0
 6840 1a58 2846     		mov	r0, r5
 6841 1a5a FFF7FEFF 		bl	lv_style_set_pad_bottom
 6842              	.LVL939:
ARM GAS  /tmp/cc6wDDAF.s 			page 181


 6843              	.LBE861:
 6844              	.LBE860:
 617:Drivers/lvgl/lvgl/src/extra/themes/default/lv_theme_default.c ****     lv_style_set_clip_corner(&styles->list_bg, true);
 6845              		.loc 1 617 0 discriminator 8
 6846 1a5e 2568     		ldr	r5, [r4]
 6847 1a60 05F50475 		add	r5, r5, #528
 6848              	.LVL940:
 6849              	.LBB862:
 6850              	.LBB863:
 551:Drivers/lvgl/lvgl/src/extra/themes/default/../../../../src/hal/../draw/../misc/lv_style.h ****     lv_style_set_pad_column(style, value);
 6851              		.loc 4 551 0 discriminator 8
 6852 1a64 0021     		movs	r1, #0
 6853 1a66 2846     		mov	r0, r5
 6854 1a68 FFF7FEFF 		bl	lv_style_set_pad_row
 6855              	.LVL941:
 6856              		.loc 4 552 0 discriminator 8
 6857 1a6c 0021     		movs	r1, #0
 6858 1a6e 2846     		mov	r0, r5
 6859 1a70 FFF7FEFF 		bl	lv_style_set_pad_column
 6860              	.LVL942:
 6861              	.LBE863:
 6862              	.LBE862:
 618:Drivers/lvgl/lvgl/src/extra/themes/default/lv_theme_default.c **** 
 6863              		.loc 1 618 0 discriminator 8
 6864 1a74 2068     		ldr	r0, [r4]
 6865 1a76 0121     		movs	r1, #1
 6866 1a78 00F50470 		add	r0, r0, #528
 6867 1a7c FFF7FEFF 		bl	lv_style_set_clip_corner
 6868              	.LVL943:
 620:Drivers/lvgl/lvgl/src/extra/themes/default/lv_theme_default.c ****     lv_style_set_border_width(&styles->list_btn, lv_disp_dpx(theme.disp, 1));
 6869              		.loc 1 620 0 discriminator 8
 6870 1a80 2068     		ldr	r0, [r4]
 6871 1a82 00F50670 		add	r0, r0, #536
 6872 1a86 FFF7FEFF 		bl	style_init_reset
 6873              	.LVL944:
 621:Drivers/lvgl/lvgl/src/extra/themes/default/lv_theme_default.c ****     lv_style_set_border_color(&styles->list_btn, color_grey);
 6874              		.loc 1 621 0 discriminator 8
 6875 1a8a 2468     		ldr	r4, [r4]
 6876 1a8c 04F50674 		add	r4, r4, #536
 6877 1a90 4C4B     		ldr	r3, .L828+4
 6878 1a92 DD68     		ldr	r5, [r3, #12]
 6879              	.LVL945:
 6880              	.LBB864:
 6881              	.LBB865:
 6882              		.loc 3 257 0 discriminator 8
 6883 1a94 2846     		mov	r0, r5
 6884 1a96 FFF7FEFF 		bl	lv_disp_get_dpi
 6885              	.LVL946:
 6886 1a9a 5030     		adds	r0, r0, #80
 6887 1a9c B0F5A07F 		cmp	r0, #320
 6888 1aa0 81F27E86 		bge	.L709
 6889              		.loc 3 257 0 is_stmt 0
 6890 1aa4 0121     		movs	r1, #1
 6891              	.L376:
 6892              	.LVL947:
 6893              	.LBE865:
 6894              	.LBE864:
ARM GAS  /tmp/cc6wDDAF.s 			page 182


 621:Drivers/lvgl/lvgl/src/extra/themes/default/lv_theme_default.c ****     lv_style_set_border_color(&styles->list_btn, color_grey);
 6895              		.loc 1 621 0 is_stmt 1
 6896 1aa6 2046     		mov	r0, r4
 6897 1aa8 FFF7FEFF 		bl	lv_style_set_border_width
 6898              	.LVL948:
 622:Drivers/lvgl/lvgl/src/extra/themes/default/lv_theme_default.c ****     lv_style_set_border_side(&styles->list_btn, LV_BORDER_SIDE_BOTTOM);
 6899              		.loc 1 622 0
 6900 1aac 444C     		ldr	r4, .L828
 6901 1aae 2068     		ldr	r0, [r4]
 6902 1ab0 464B     		ldr	r3, .L828+12
 6903 1ab2 1988     		ldrh	r1, [r3]
 6904 1ab4 00F50670 		add	r0, r0, #536
 6905 1ab8 FFF7FEFF 		bl	lv_style_set_border_color
 6906              	.LVL949:
 623:Drivers/lvgl/lvgl/src/extra/themes/default/lv_theme_default.c ****     lv_style_set_pad_all(&styles->list_btn, PAD_SMALL);
 6907              		.loc 1 623 0
 6908 1abc 2068     		ldr	r0, [r4]
 6909 1abe 0121     		movs	r1, #1
 6910 1ac0 00F50670 		add	r0, r0, #536
 6911 1ac4 FFF7FEFF 		bl	lv_style_set_border_side
 6912              	.LVL950:
 624:Drivers/lvgl/lvgl/src/extra/themes/default/lv_theme_default.c ****     lv_style_set_pad_column(&styles->list_btn, PAD_SMALL);
 6913              		.loc 1 624 0
 6914 1ac8 2568     		ldr	r5, [r4]
 6915 1aca 05F50675 		add	r5, r5, #536
 6916 1ace 3E4B     		ldr	r3, .L828+8
 6917 1ad0 1B78     		ldrb	r3, [r3]	@ zero_extendqisi2
 6918 1ad2 012B     		cmp	r3, #1
 6919 1ad4 01F07186 		beq	.L710
 624:Drivers/lvgl/lvgl/src/extra/themes/default/lv_theme_default.c ****     lv_style_set_pad_column(&styles->list_btn, PAD_SMALL);
 6920              		.loc 1 624 0 is_stmt 0 discriminator 2
 6921 1ad8 022B     		cmp	r3, #2
 6922 1ada 01F08D86 		beq	.L711
 624:Drivers/lvgl/lvgl/src/extra/themes/default/lv_theme_default.c ****     lv_style_set_pad_column(&styles->list_btn, PAD_SMALL);
 6923              		.loc 1 624 0 discriminator 5
 6924 1ade 394B     		ldr	r3, .L828+4
 6925 1ae0 DC68     		ldr	r4, [r3, #12]
 6926              	.LVL951:
 6927              	.LBB867:
 6928              	.LBB868:
 6929              		.loc 3 257 0 is_stmt 1 discriminator 5
 6930 1ae2 2046     		mov	r0, r4
 6931 1ae4 FFF7FEFF 		bl	lv_disp_get_dpi
 6932              	.LVL952:
 6933 1ae8 00EB8000 		add	r0, r0, r0, lsl #2
 6934 1aec 4000     		lsls	r0, r0, #1
 6935 1aee 5030     		adds	r0, r0, #80
 6936 1af0 B0F5A07F 		cmp	r0, #320
 6937 1af4 81F29F86 		bge	.L712
 6938              		.loc 3 257 0 is_stmt 0
 6939 1af8 0124     		movs	r4, #1
 6940              	.LVL953:
 6941              	.L379:
 6942              	.LBE868:
 6943              	.LBE867:
 6944              	.LBB870:
 6945              	.LBB871:
ARM GAS  /tmp/cc6wDDAF.s 			page 183


 531:Drivers/lvgl/lvgl/src/extra/themes/default/../../../../src/hal/../draw/../misc/lv_style.h ****     lv_style_set_pad_right(style, value);
 6946              		.loc 4 531 0 is_stmt 1 discriminator 8
 6947 1afa 2146     		mov	r1, r4
 6948 1afc 2846     		mov	r0, r5
 6949 1afe FFF7FEFF 		bl	lv_style_set_pad_left
 6950              	.LVL954:
 532:Drivers/lvgl/lvgl/src/extra/themes/default/../../../../src/hal/../draw/../misc/lv_style.h ****     lv_style_set_pad_top(style, value);
 6951              		.loc 4 532 0 discriminator 8
 6952 1b02 2146     		mov	r1, r4
 6953 1b04 2846     		mov	r0, r5
 6954 1b06 FFF7FEFF 		bl	lv_style_set_pad_right
 6955              	.LVL955:
 533:Drivers/lvgl/lvgl/src/extra/themes/default/../../../../src/hal/../draw/../misc/lv_style.h ****     lv_style_set_pad_bottom(style, value);
 6956              		.loc 4 533 0 discriminator 8
 6957 1b0a 2146     		mov	r1, r4
 6958 1b0c 2846     		mov	r0, r5
 6959 1b0e FFF7FEFF 		bl	lv_style_set_pad_top
 6960              	.LVL956:
 534:Drivers/lvgl/lvgl/src/extra/themes/default/../../../../src/hal/../draw/../misc/lv_style.h **** }
 6961              		.loc 4 534 0 discriminator 8
 6962 1b12 2146     		mov	r1, r4
 6963 1b14 2846     		mov	r0, r5
 6964 1b16 FFF7FEFF 		bl	lv_style_set_pad_bottom
 6965              	.LVL957:
 6966              	.LBE871:
 6967              	.LBE870:
 625:Drivers/lvgl/lvgl/src/extra/themes/default/lv_theme_default.c **** 
 6968              		.loc 1 625 0 discriminator 8
 6969 1b1a 294B     		ldr	r3, .L828
 6970 1b1c 1C68     		ldr	r4, [r3]
 6971 1b1e 04F50674 		add	r4, r4, #536
 6972 1b22 294B     		ldr	r3, .L828+8
 6973 1b24 1B78     		ldrb	r3, [r3]	@ zero_extendqisi2
 6974 1b26 012B     		cmp	r3, #1
 6975 1b28 01F09586 		beq	.L713
 625:Drivers/lvgl/lvgl/src/extra/themes/default/lv_theme_default.c **** 
 6976              		.loc 1 625 0 is_stmt 0 discriminator 2
 6977 1b2c 022B     		cmp	r3, #2
 6978 1b2e 01F0B186 		beq	.L714
 625:Drivers/lvgl/lvgl/src/extra/themes/default/lv_theme_default.c **** 
 6979              		.loc 1 625 0 discriminator 5
 6980 1b32 244B     		ldr	r3, .L828+4
 6981 1b34 DD68     		ldr	r5, [r3, #12]
 6982              	.LVL958:
 6983              	.LBB872:
 6984              	.LBB873:
 6985              		.loc 3 257 0 is_stmt 1 discriminator 5
 6986 1b36 2846     		mov	r0, r5
 6987 1b38 FFF7FEFF 		bl	lv_disp_get_dpi
 6988              	.LVL959:
 6989 1b3c 00EB8000 		add	r0, r0, r0, lsl #2
 6990 1b40 4000     		lsls	r0, r0, #1
 6991 1b42 5030     		adds	r0, r0, #80
 6992 1b44 B0F5A07F 		cmp	r0, #320
 6993 1b48 81F2C386 		bge	.L715
 6994              		.loc 3 257 0 is_stmt 0
 6995 1b4c 0121     		movs	r1, #1
ARM GAS  /tmp/cc6wDDAF.s 			page 184


 6996              	.LVL960:
 6997              	.L385:
 6998              	.LBE873:
 6999              	.LBE872:
 625:Drivers/lvgl/lvgl/src/extra/themes/default/lv_theme_default.c **** 
 7000              		.loc 1 625 0 is_stmt 1 discriminator 8
 7001 1b4e 2046     		mov	r0, r4
 7002 1b50 FFF7FEFF 		bl	lv_style_set_pad_column
 7003              	.LVL961:
 627:Drivers/lvgl/lvgl/src/extra/themes/default/lv_theme_default.c ****     lv_style_set_transform_width(&styles->list_item_grow, PAD_DEF);
 7004              		.loc 1 627 0 discriminator 8
 7005 1b54 1A4C     		ldr	r4, .L828
 7006 1b56 2068     		ldr	r0, [r4]
 7007 1b58 00F50870 		add	r0, r0, #544
 7008 1b5c FFF7FEFF 		bl	style_init_reset
 7009              	.LVL962:
 628:Drivers/lvgl/lvgl/src/extra/themes/default/lv_theme_default.c **** #endif
 7010              		.loc 1 628 0 discriminator 8
 7011 1b60 2468     		ldr	r4, [r4]
 7012 1b62 04F50874 		add	r4, r4, #544
 7013 1b66 184B     		ldr	r3, .L828+8
 7014 1b68 1B78     		ldrb	r3, [r3]	@ zero_extendqisi2
 7015 1b6a 012B     		cmp	r3, #1
 7016 1b6c 01F0C186 		beq	.L716
 628:Drivers/lvgl/lvgl/src/extra/themes/default/lv_theme_default.c **** #endif
 7017              		.loc 1 628 0 is_stmt 0 discriminator 2
 7018 1b70 022B     		cmp	r3, #2
 7019 1b72 01F0DD86 		beq	.L717
 628:Drivers/lvgl/lvgl/src/extra/themes/default/lv_theme_default.c **** #endif
 7020              		.loc 1 628 0 discriminator 5
 7021 1b76 134B     		ldr	r3, .L828+4
 7022 1b78 DD68     		ldr	r5, [r3, #12]
 7023              	.LVL963:
 7024              	.LBB875:
 7025              	.LBB876:
 7026              		.loc 3 257 0 is_stmt 1 discriminator 5
 7027 1b7a 2846     		mov	r0, r5
 7028 1b7c FFF7FEFF 		bl	lv_disp_get_dpi
 7029              	.LVL964:
 7030 1b80 0001     		lsls	r0, r0, #4
 7031 1b82 5030     		adds	r0, r0, #80
 7032 1b84 B0F5A07F 		cmp	r0, #320
 7033 1b88 81F2F186 		bge	.L718
 7034              		.loc 3 257 0 is_stmt 0
 7035 1b8c 0121     		movs	r1, #1
 7036              	.LVL965:
 7037              	.L391:
 7038              	.LBE876:
 7039              	.LBE875:
 628:Drivers/lvgl/lvgl/src/extra/themes/default/lv_theme_default.c **** #endif
 7040              		.loc 1 628 0 is_stmt 1 discriminator 8
 7041 1b8e 2046     		mov	r0, r4
 7042 1b90 FFF7FEFF 		bl	lv_style_set_transform_width
 7043              	.LVL966:
 633:Drivers/lvgl/lvgl/src/extra/themes/default/lv_theme_default.c ****     lv_style_set_bg_opa(&styles->led, LV_OPA_COVER);
 7044              		.loc 1 633 0 discriminator 8
 7045 1b94 0A4C     		ldr	r4, .L828
ARM GAS  /tmp/cc6wDDAF.s 			page 185


 7046 1b96 2068     		ldr	r0, [r4]
 7047 1b98 00F51070 		add	r0, r0, #576
 7048 1b9c FFF7FEFF 		bl	style_init_reset
 7049              	.LVL967:
 634:Drivers/lvgl/lvgl/src/extra/themes/default/lv_theme_default.c ****     lv_style_set_bg_color(&styles->led, lv_color_white());
 7050              		.loc 1 634 0 discriminator 8
 7051 1ba0 2068     		ldr	r0, [r4]
 7052 1ba2 FF21     		movs	r1, #255
 7053 1ba4 00F51070 		add	r0, r0, #576
 7054 1ba8 FFF7FEFF 		bl	lv_style_set_bg_opa
 7055              	.LVL968:
 635:Drivers/lvgl/lvgl/src/extra/themes/default/lv_theme_default.c ****     lv_style_set_bg_grad_color(&styles->led, lv_palette_main(LV_PALETTE_GREY));
 7056              		.loc 1 635 0 discriminator 8
 7057 1bac 2068     		ldr	r0, [r4]
 7058 1bae 4FF0FF31 		mov	r1, #-1	@ movhi
 7059 1bb2 00F51070 		add	r0, r0, #576
 7060 1bb6 FFF7FEFF 		bl	lv_style_set_bg_color
 7061              	.LVL969:
 636:Drivers/lvgl/lvgl/src/extra/themes/default/lv_theme_default.c ****     lv_style_set_radius(&styles->led, LV_RADIUS_CIRCLE);
 7062              		.loc 1 636 0 discriminator 8
 7063 1bba 2568     		ldr	r5, [r4]
 7064 1bbc 1220     		movs	r0, #18
 7065 1bbe 07E0     		b	.L829
 7066              	.L830:
 7067              		.align	2
 7068              	.L828:
 7069 1bc0 00000000 		.word	.LANCHOR0
 7070 1bc4 00000000 		.word	.LANCHOR2
 7071 1bc8 00000000 		.word	.LANCHOR1
 7072 1bcc 00000000 		.word	.LANCHOR7
 7073              	.L829:
 7074 1bd0 FFF7FEFF 		bl	lv_palette_main
 7075              	.LVL970:
 7076 1bd4 0146     		mov	r1, r0	@ movhi
 7077 1bd6 05F51070 		add	r0, r5, #576
 7078 1bda FFF7FEFF 		bl	lv_style_set_bg_grad_color
 7079              	.LVL971:
 637:Drivers/lvgl/lvgl/src/extra/themes/default/lv_theme_default.c ****     lv_style_set_shadow_width(&styles->led, lv_disp_dpx(theme.disp, 15));
 7080              		.loc 1 637 0 discriminator 8
 7081 1bde 2068     		ldr	r0, [r4]
 7082 1be0 47F6FF71 		movw	r1, #32767
 7083 1be4 00F51070 		add	r0, r0, #576
 7084 1be8 FFF7FEFF 		bl	lv_style_set_radius
 7085              	.LVL972:
 638:Drivers/lvgl/lvgl/src/extra/themes/default/lv_theme_default.c ****     lv_style_set_shadow_color(&styles->led, lv_color_white());
 7086              		.loc 1 638 0 discriminator 8
 7087 1bec 2468     		ldr	r4, [r4]
 7088 1bee 04F51074 		add	r4, r4, #576
 7089 1bf2 D94B     		ldr	r3, .L831
 7090 1bf4 DD68     		ldr	r5, [r3, #12]
 7091              	.LVL973:
 7092              	.LBB878:
 7093              	.LBB879:
 7094              		.loc 3 257 0 discriminator 8
 7095 1bf6 2846     		mov	r0, r5
 7096 1bf8 FFF7FEFF 		bl	lv_disp_get_dpi
 7097              	.LVL974:
ARM GAS  /tmp/cc6wDDAF.s 			page 186


 7098 1bfc C0EB0010 		rsb	r0, r0, r0, lsl #4
 7099 1c00 5030     		adds	r0, r0, #80
 7100 1c02 B0F5A07F 		cmp	r0, #320
 7101 1c06 81F2C086 		bge	.L719
 7102              		.loc 3 257 0 is_stmt 0
 7103 1c0a 0121     		movs	r1, #1
 7104              	.L395:
 7105              	.LVL975:
 7106              	.LBE879:
 7107              	.LBE878:
 638:Drivers/lvgl/lvgl/src/extra/themes/default/lv_theme_default.c ****     lv_style_set_shadow_color(&styles->led, lv_color_white());
 7108              		.loc 1 638 0 is_stmt 1
 7109 1c0c 2046     		mov	r0, r4
 7110 1c0e FFF7FEFF 		bl	lv_style_set_shadow_width
 7111              	.LVL976:
 639:Drivers/lvgl/lvgl/src/extra/themes/default/lv_theme_default.c ****     lv_style_set_shadow_spread(&styles->led, lv_disp_dpx(theme.disp, 5));
 7112              		.loc 1 639 0
 7113 1c12 D24C     		ldr	r4, .L831+4
 7114 1c14 2068     		ldr	r0, [r4]
 7115 1c16 4FF0FF31 		mov	r1, #-1	@ movhi
 7116 1c1a 00F51070 		add	r0, r0, #576
 7117 1c1e FFF7FEFF 		bl	lv_style_set_shadow_color
 7118              	.LVL977:
 640:Drivers/lvgl/lvgl/src/extra/themes/default/lv_theme_default.c **** #endif
 7119              		.loc 1 640 0
 7120 1c22 2468     		ldr	r4, [r4]
 7121 1c24 04F51074 		add	r4, r4, #576
 7122 1c28 CB4B     		ldr	r3, .L831
 7123 1c2a DD68     		ldr	r5, [r3, #12]
 7124              	.LVL978:
 7125              	.LBB881:
 7126              	.LBB882:
 7127              		.loc 3 257 0
 7128 1c2c 2846     		mov	r0, r5
 7129 1c2e FFF7FEFF 		bl	lv_disp_get_dpi
 7130              	.LVL979:
 7131 1c32 00EB8000 		add	r0, r0, r0, lsl #2
 7132 1c36 5030     		adds	r0, r0, #80
 7133 1c38 B0F5A07F 		cmp	r0, #320
 7134 1c3c 81F2B486 		bge	.L720
 7135 1c40 0121     		movs	r1, #1
 7136              	.L396:
 7137              	.LVL980:
 7138              	.LBE882:
 7139              	.LBE881:
 640:Drivers/lvgl/lvgl/src/extra/themes/default/lv_theme_default.c **** #endif
 7140              		.loc 1 640 0
 7141 1c42 2046     		mov	r0, r4
 7142 1c44 FFF7FEFF 		bl	lv_style_set_shadow_spread
 7143              	.LVL981:
 642:Drivers/lvgl/lvgl/src/extra/themes/default/lv_theme_default.c **** 
 7144              		.loc 1 642 0
 7145 1c48 03B0     		add	sp, sp, #12
 7146              	.LCFI6:
 7147              		.cfi_remember_state
 7148              		.cfi_def_cfa_offset 28
 7149              		@ sp needed
ARM GAS  /tmp/cc6wDDAF.s 			page 187


 7150 1c4a BDE8F083 		pop	{r4, r5, r6, r7, r8, r9, pc}
 7151              	.L100:
 7152              	.LCFI7:
 7153              		.cfi_restore_state
 216:Drivers/lvgl/lvgl/src/extra/themes/default/lv_theme_default.c ****     color_text = theme.flags & MODE_DARK ? DARK_COLOR_TEXT : LIGHT_COLOR_TEXT;
 7154              		.loc 1 216 0 discriminator 2
 7155 1c4e 0421     		movs	r1, #4
 7156 1c50 1220     		movs	r0, #18
 7157 1c52 FFF7FEFF 		bl	lv_palette_lighten
 7158              	.LVL982:
 7159 1c56 C24B     		ldr	r3, .L831+8
 7160 1c58 1880     		strh	r0, [r3]	@ movhi
 7161 1c5a FEF7DEB9 		b	.L101
 7162              	.L102:
 217:Drivers/lvgl/lvgl/src/extra/themes/default/lv_theme_default.c ****     color_card = theme.flags & MODE_DARK ? DARK_COLOR_CARD : LIGHT_COLOR_CARD;
 7163              		.loc 1 217 0 discriminator 2
 7164 1c5e 0421     		movs	r1, #4
 7165 1c60 1220     		movs	r0, #18
 7166 1c62 FFF7FEFF 		bl	lv_palette_darken
 7167              	.LVL983:
 7168 1c66 BF4B     		ldr	r3, .L831+12
 7169 1c68 1880     		strh	r0, [r3]	@ movhi
 7170 1c6a FEF7E2B9 		b	.L103
 7171              	.L104:
 7172              	.LVL984:
 218:Drivers/lvgl/lvgl/src/extra/themes/default/lv_theme_default.c ****     color_grey = theme.flags & MODE_DARK ? DARK_COLOR_GREY : LIGHT_COLOR_GREY;
 7173              		.loc 1 218 0
 7174 1c6e 4FF6FF72 		movw	r2, #65535
 7175 1c72 BD4B     		ldr	r3, .L831+16
 7176 1c74 1A80     		strh	r2, [r3]	@ movhi
 7177 1c76 FEF7E6B9 		b	.L105
 7178              	.L106:
 219:Drivers/lvgl/lvgl/src/extra/themes/default/lv_theme_default.c **** 
 7179              		.loc 1 219 0 discriminator 2
 7180 1c7a 0221     		movs	r1, #2
 7181 1c7c 1220     		movs	r0, #18
 7182 1c7e FFF7FEFF 		bl	lv_palette_lighten
 7183              	.LVL985:
 7184 1c82 BA4B     		ldr	r3, .L831+20
 7185 1c84 1880     		strh	r0, [r3]	@ movhi
 7186 1c86 FEF7E8B9 		b	.L107
 7187              	.L108:
 236:Drivers/lvgl/lvgl/src/extra/themes/default/lv_theme_default.c ****                                                                         2) : lv_palette_main(LV_PAL
 7188              		.loc 1 236 0 discriminator 2
 7189 1c8a 1220     		movs	r0, #18
 7190 1c8c FFF7FEFF 		bl	lv_palette_main
 7191              	.LVL986:
 7192 1c90 0146     		mov	r1, r0	@ movhi
 7193 1c92 FEF71CBA 		b	.L109
 7194              	.LVL987:
 7195              	.L560:
 7196              	.LBB884:
 7197              	.LBB547:
 7198              		.loc 3 257 0
 7199 1c96 2046     		mov	r0, r4
 7200 1c98 FFF7FEFF 		bl	lv_disp_get_dpi
 7201              	.LVL988:
ARM GAS  /tmp/cc6wDDAF.s 			page 188


 7202 1c9c C0EBC000 		rsb	r0, r0, r0, lsl #3
 7203 1ca0 5030     		adds	r0, r0, #80
 7204 1ca2 B34B     		ldr	r3, .L831+24
 7205 1ca4 83FB0023 		smull	r2, r3, r3, r0
 7206 1ca8 C417     		asrs	r4, r0, #31
 7207              	.LVL989:
 7208 1caa C4EBA314 		rsb	r4, r4, r3, asr #6
 7209 1cae 24B2     		sxth	r4, r4
 7210 1cb0 FEF727BA 		b	.L110
 7211              	.LVL990:
 7212              	.L561:
 7213              	.LBE547:
 7214              	.LBE884:
 7215              	.LBB885:
 7216              	.LBB552:
 7217 1cb4 2846     		mov	r0, r5
 7218 1cb6 FFF7FEFF 		bl	lv_disp_get_dpi
 7219              	.LVL991:
 7220 1cba 00EB8000 		add	r0, r0, r0, lsl #2
 7221 1cbe 5030     		adds	r0, r0, #80
 7222 1cc0 AB4B     		ldr	r3, .L831+24
 7223 1cc2 83FB0023 		smull	r2, r3, r3, r0
 7224 1cc6 C117     		asrs	r1, r0, #31
 7225 1cc8 C1EBA311 		rsb	r1, r1, r3, asr #6
 7226 1ccc 09B2     		sxth	r1, r1
 7227 1cce FEF738BA 		b	.L111
 7228              	.LVL992:
 7229              	.L562:
 7230              	.LBE552:
 7231              	.LBE885:
 255:Drivers/lvgl/lvgl/src/extra/themes/default/lv_theme_default.c ****     lv_style_set_pad_column(&styles->scr, PAD_SMALL);
 7232              		.loc 1 255 0 discriminator 1
 7233 1cd2 A14B     		ldr	r3, .L831
 7234 1cd4 DD68     		ldr	r5, [r3, #12]
 7235              	.LVL993:
 7236              	.LBB886:
 7237              	.LBB887:
 7238              		.loc 3 257 0 discriminator 1
 7239 1cd6 2846     		mov	r0, r5
 7240 1cd8 FFF7FEFF 		bl	lv_disp_get_dpi
 7241              	.LVL994:
 7242 1cdc C0EBC000 		rsb	r0, r0, r0, lsl #3
 7243 1ce0 4000     		lsls	r0, r0, #1
 7244 1ce2 5030     		adds	r0, r0, #80
 7245 1ce4 B0F5A07F 		cmp	r0, #320
 7246 1ce8 02DA     		bge	.L721
 7247              		.loc 3 257 0 is_stmt 0
 7248 1cea 0121     		movs	r1, #1
 7249              	.LVL995:
 7250 1cec FEF768BA 		b	.L114
 7251              	.LVL996:
 7252              	.L721:
 7253 1cf0 2846     		mov	r0, r5
 7254 1cf2 FFF7FEFF 		bl	lv_disp_get_dpi
 7255              	.LVL997:
 7256 1cf6 C0EBC000 		rsb	r0, r0, r0, lsl #3
 7257 1cfa 4000     		lsls	r0, r0, #1
ARM GAS  /tmp/cc6wDDAF.s 			page 189


 7258 1cfc 5030     		adds	r0, r0, #80
 7259 1cfe 9C4B     		ldr	r3, .L831+24
 7260 1d00 83FB0023 		smull	r2, r3, r3, r0
 7261 1d04 C117     		asrs	r1, r0, #31
 7262 1d06 C1EBA311 		rsb	r1, r1, r3, asr #6
 7263 1d0a 09B2     		sxth	r1, r1
 7264 1d0c FEF758BA 		b	.L114
 7265              	.LVL998:
 7266              	.L563:
 7267              	.LBE887:
 7268              	.LBE886:
 255:Drivers/lvgl/lvgl/src/extra/themes/default/lv_theme_default.c ****     lv_style_set_pad_column(&styles->scr, PAD_SMALL);
 7269              		.loc 1 255 0 is_stmt 1 discriminator 4
 7270 1d10 914B     		ldr	r3, .L831
 7271 1d12 DD68     		ldr	r5, [r3, #12]
 7272              	.LVL999:
 7273              	.LBB888:
 7274              	.LBB889:
 7275              		.loc 3 257 0 discriminator 4
 7276 1d14 2846     		mov	r0, r5
 7277 1d16 FFF7FEFF 		bl	lv_disp_get_dpi
 7278              	.LVL1000:
 7279 1d1a 00EB4000 		add	r0, r0, r0, lsl #1
 7280 1d1e 8000     		lsls	r0, r0, #2
 7281 1d20 5030     		adds	r0, r0, #80
 7282 1d22 B0F5A07F 		cmp	r0, #320
 7283 1d26 02DA     		bge	.L722
 7284              		.loc 3 257 0 is_stmt 0
 7285 1d28 0121     		movs	r1, #1
 7286              	.LVL1001:
 7287 1d2a FEF749BA 		b	.L114
 7288              	.LVL1002:
 7289              	.L722:
 7290 1d2e 2846     		mov	r0, r5
 7291 1d30 FFF7FEFF 		bl	lv_disp_get_dpi
 7292              	.LVL1003:
 7293 1d34 00EB4000 		add	r0, r0, r0, lsl #1
 7294 1d38 8000     		lsls	r0, r0, #2
 7295 1d3a 5030     		adds	r0, r0, #80
 7296 1d3c 8C4B     		ldr	r3, .L831+24
 7297 1d3e 83FB0023 		smull	r2, r3, r3, r0
 7298 1d42 C117     		asrs	r1, r0, #31
 7299 1d44 C1EBA311 		rsb	r1, r1, r3, asr #6
 7300 1d48 09B2     		sxth	r1, r1
 7301 1d4a FEF739BA 		b	.L114
 7302              	.LVL1004:
 7303              	.L564:
 7304              	.LBE889:
 7305              	.LBE888:
 7306              	.LBB890:
 7307              	.LBB555:
 7308 1d4e 2846     		mov	r0, r5
 7309 1d50 FFF7FEFF 		bl	lv_disp_get_dpi
 7310              	.LVL1005:
 7311 1d54 00EB8000 		add	r0, r0, r0, lsl #2
 7312 1d58 4000     		lsls	r0, r0, #1
 7313 1d5a 5030     		adds	r0, r0, #80
ARM GAS  /tmp/cc6wDDAF.s 			page 190


 7314 1d5c 844B     		ldr	r3, .L831+24
 7315 1d5e 83FB0023 		smull	r2, r3, r3, r0
 7316 1d62 C117     		asrs	r1, r0, #31
 7317 1d64 C1EBA311 		rsb	r1, r1, r3, asr #6
 7318 1d68 09B2     		sxth	r1, r1
 7319 1d6a FEF729BA 		b	.L114
 7320              	.LVL1006:
 7321              	.L565:
 7322              	.LBE555:
 7323              	.LBE890:
 256:Drivers/lvgl/lvgl/src/extra/themes/default/lv_theme_default.c **** 
 7324              		.loc 1 256 0 is_stmt 1 discriminator 1
 7325 1d6e 7A4B     		ldr	r3, .L831
 7326 1d70 DD68     		ldr	r5, [r3, #12]
 7327              	.LVL1007:
 7328              	.LBB891:
 7329              	.LBB892:
 7330              		.loc 3 257 0 discriminator 1
 7331 1d72 2846     		mov	r0, r5
 7332 1d74 FFF7FEFF 		bl	lv_disp_get_dpi
 7333              	.LVL1008:
 7334 1d78 C0EBC000 		rsb	r0, r0, r0, lsl #3
 7335 1d7c 4000     		lsls	r0, r0, #1
 7336 1d7e 5030     		adds	r0, r0, #80
 7337 1d80 B0F5A07F 		cmp	r0, #320
 7338 1d84 02DA     		bge	.L723
 7339              		.loc 3 257 0 is_stmt 0
 7340 1d86 0121     		movs	r1, #1
 7341              	.LVL1009:
 7342 1d88 FEF735BA 		b	.L120
 7343              	.LVL1010:
 7344              	.L723:
 7345 1d8c 2846     		mov	r0, r5
 7346 1d8e FFF7FEFF 		bl	lv_disp_get_dpi
 7347              	.LVL1011:
 7348 1d92 C0EBC000 		rsb	r0, r0, r0, lsl #3
 7349 1d96 4000     		lsls	r0, r0, #1
 7350 1d98 5030     		adds	r0, r0, #80
 7351 1d9a 754B     		ldr	r3, .L831+24
 7352 1d9c 83FB0023 		smull	r2, r3, r3, r0
 7353 1da0 C117     		asrs	r1, r0, #31
 7354 1da2 C1EBA311 		rsb	r1, r1, r3, asr #6
 7355 1da6 09B2     		sxth	r1, r1
 7356 1da8 FEF725BA 		b	.L120
 7357              	.LVL1012:
 7358              	.L566:
 7359              	.LBE892:
 7360              	.LBE891:
 256:Drivers/lvgl/lvgl/src/extra/themes/default/lv_theme_default.c **** 
 7361              		.loc 1 256 0 is_stmt 1 discriminator 4
 7362 1dac 6A4B     		ldr	r3, .L831
 7363 1dae DD68     		ldr	r5, [r3, #12]
 7364              	.LVL1013:
 7365              	.LBB893:
 7366              	.LBB894:
 7367              		.loc 3 257 0 discriminator 4
 7368 1db0 2846     		mov	r0, r5
ARM GAS  /tmp/cc6wDDAF.s 			page 191


 7369 1db2 FFF7FEFF 		bl	lv_disp_get_dpi
 7370              	.LVL1014:
 7371 1db6 00EB4000 		add	r0, r0, r0, lsl #1
 7372 1dba 8000     		lsls	r0, r0, #2
 7373 1dbc 5030     		adds	r0, r0, #80
 7374 1dbe B0F5A07F 		cmp	r0, #320
 7375 1dc2 02DA     		bge	.L724
 7376              		.loc 3 257 0 is_stmt 0
 7377 1dc4 0121     		movs	r1, #1
 7378              	.LVL1015:
 7379 1dc6 FEF716BA 		b	.L120
 7380              	.LVL1016:
 7381              	.L724:
 7382 1dca 2846     		mov	r0, r5
 7383 1dcc FFF7FEFF 		bl	lv_disp_get_dpi
 7384              	.LVL1017:
 7385 1dd0 00EB4000 		add	r0, r0, r0, lsl #1
 7386 1dd4 8000     		lsls	r0, r0, #2
 7387 1dd6 5030     		adds	r0, r0, #80
 7388 1dd8 654B     		ldr	r3, .L831+24
 7389 1dda 83FB0023 		smull	r2, r3, r3, r0
 7390 1dde C117     		asrs	r1, r0, #31
 7391 1de0 C1EBA311 		rsb	r1, r1, r3, asr #6
 7392 1de4 09B2     		sxth	r1, r1
 7393 1de6 FEF706BA 		b	.L120
 7394              	.LVL1018:
 7395              	.L567:
 7396              	.LBE894:
 7397              	.LBE893:
 7398              	.LBB895:
 7399              	.LBB558:
 7400 1dea 2846     		mov	r0, r5
 7401 1dec FFF7FEFF 		bl	lv_disp_get_dpi
 7402              	.LVL1019:
 7403 1df0 00EB8000 		add	r0, r0, r0, lsl #2
 7404 1df4 4000     		lsls	r0, r0, #1
 7405 1df6 5030     		adds	r0, r0, #80
 7406 1df8 5D4B     		ldr	r3, .L831+24
 7407 1dfa 83FB0023 		smull	r2, r3, r3, r0
 7408 1dfe C117     		asrs	r1, r0, #31
 7409 1e00 C1EBA311 		rsb	r1, r1, r3, asr #6
 7410 1e04 09B2     		sxth	r1, r1
 7411 1e06 FEF7F6B9 		b	.L120
 7412              	.LVL1020:
 7413              	.L568:
 7414              	.LBE558:
 7415              	.LBE895:
 259:Drivers/lvgl/lvgl/src/extra/themes/default/lv_theme_default.c ****     lv_style_set_bg_opa(&styles->card, LV_OPA_COVER);
 7416              		.loc 1 259 0 is_stmt 1 discriminator 1
 7417 1e0a 534B     		ldr	r3, .L831
 7418 1e0c DD68     		ldr	r5, [r3, #12]
 7419              	.LVL1021:
 7420              	.LBB896:
 7421              	.LBB897:
 7422              		.loc 3 257 0 discriminator 1
 7423 1e0e 2846     		mov	r0, r5
 7424 1e10 FFF7FEFF 		bl	lv_disp_get_dpi
ARM GAS  /tmp/cc6wDDAF.s 			page 192


 7425              	.LVL1022:
 7426 1e14 00EB4000 		add	r0, r0, r0, lsl #1
 7427 1e18 8000     		lsls	r0, r0, #2
 7428 1e1a 5030     		adds	r0, r0, #80
 7429 1e1c B0F5A07F 		cmp	r0, #320
 7430 1e20 02DA     		bge	.L725
 7431              		.loc 3 257 0 is_stmt 0
 7432 1e22 0121     		movs	r1, #1
 7433              	.LVL1023:
 7434 1e24 FEF702BA 		b	.L126
 7435              	.LVL1024:
 7436              	.L725:
 7437 1e28 2846     		mov	r0, r5
 7438 1e2a FFF7FEFF 		bl	lv_disp_get_dpi
 7439              	.LVL1025:
 7440 1e2e 00EB4000 		add	r0, r0, r0, lsl #1
 7441 1e32 8000     		lsls	r0, r0, #2
 7442 1e34 5030     		adds	r0, r0, #80
 7443 1e36 4E4B     		ldr	r3, .L831+24
 7444 1e38 83FB0023 		smull	r2, r3, r3, r0
 7445 1e3c C117     		asrs	r1, r0, #31
 7446 1e3e C1EBA311 		rsb	r1, r1, r3, asr #6
 7447 1e42 09B2     		sxth	r1, r1
 7448 1e44 FEF7F2B9 		b	.L126
 7449              	.LVL1026:
 7450              	.L569:
 7451              	.LBE897:
 7452              	.LBE896:
 7453              	.LBB898:
 7454              	.LBB561:
 7455 1e48 2846     		mov	r0, r5
 7456 1e4a FFF7FEFF 		bl	lv_disp_get_dpi
 7457              	.LVL1027:
 7458 1e4e C000     		lsls	r0, r0, #3
 7459 1e50 5030     		adds	r0, r0, #80
 7460 1e52 474B     		ldr	r3, .L831+24
 7461 1e54 83FB0023 		smull	r2, r3, r3, r0
 7462 1e58 C117     		asrs	r1, r0, #31
 7463 1e5a C1EBA311 		rsb	r1, r1, r3, asr #6
 7464 1e5e 09B2     		sxth	r1, r1
 7465 1e60 FEF7E4B9 		b	.L126
 7466              	.LVL1028:
 7467              	.L570:
 7468              	.LBE561:
 7469              	.LBE898:
 7470              	.LBB899:
 7471              	.LBB564:
 7472 1e64 2846     		mov	r0, r5
 7473 1e66 FFF7FEFF 		bl	lv_disp_get_dpi
 7474              	.LVL1029:
 7475 1e6a 4000     		lsls	r0, r0, #1
 7476 1e6c 5030     		adds	r0, r0, #80
 7477 1e6e 404B     		ldr	r3, .L831+24
 7478 1e70 83FB0023 		smull	r2, r3, r3, r0
 7479 1e74 C117     		asrs	r1, r0, #31
 7480 1e76 C1EBA311 		rsb	r1, r1, r3, asr #6
 7481 1e7a 09B2     		sxth	r1, r1
ARM GAS  /tmp/cc6wDDAF.s 			page 193


 7482 1e7c FEF7F9B9 		b	.L128
 7483              	.LVL1030:
 7484              	.L571:
 7485              	.LBE564:
 7486              	.LBE899:
 266:Drivers/lvgl/lvgl/src/extra/themes/default/lv_theme_default.c ****     lv_style_set_pad_row(&styles->card, PAD_SMALL);
 7487              		.loc 1 266 0 is_stmt 1 discriminator 1
 7488 1e80 354B     		ldr	r3, .L831
 7489 1e82 DC68     		ldr	r4, [r3, #12]
 7490              	.LVL1031:
 7491              	.LBB900:
 7492              	.LBB901:
 7493              		.loc 3 257 0 discriminator 1
 7494 1e84 2046     		mov	r0, r4
 7495 1e86 FFF7FEFF 		bl	lv_disp_get_dpi
 7496              	.LVL1032:
 7497 1e8a 00EB4000 		add	r0, r0, r0, lsl #1
 7498 1e8e C000     		lsls	r0, r0, #3
 7499 1e90 5030     		adds	r0, r0, #80
 7500 1e92 B0F5A07F 		cmp	r0, #320
 7501 1e96 02DA     		bge	.L726
 7502              		.loc 3 257 0 is_stmt 0
 7503 1e98 0124     		movs	r4, #1
 7504              	.LVL1033:
 7505 1e9a FEF70FBA 		b	.L131
 7506              	.LVL1034:
 7507              	.L726:
 7508 1e9e 2046     		mov	r0, r4
 7509 1ea0 FFF7FEFF 		bl	lv_disp_get_dpi
 7510              	.LVL1035:
 7511 1ea4 00EB4000 		add	r0, r0, r0, lsl #1
 7512 1ea8 C000     		lsls	r0, r0, #3
 7513 1eaa 5030     		adds	r0, r0, #80
 7514 1eac 304B     		ldr	r3, .L831+24
 7515 1eae 83FB0023 		smull	r2, r3, r3, r0
 7516 1eb2 C417     		asrs	r4, r0, #31
 7517              	.LVL1036:
 7518 1eb4 C4EBA314 		rsb	r4, r4, r3, asr #6
 7519 1eb8 24B2     		sxth	r4, r4
 7520 1eba FEF7FFB9 		b	.L131
 7521              	.LVL1037:
 7522              	.L572:
 7523              	.LBE901:
 7524              	.LBE900:
 266:Drivers/lvgl/lvgl/src/extra/themes/default/lv_theme_default.c ****     lv_style_set_pad_row(&styles->card, PAD_SMALL);
 7525              		.loc 1 266 0 is_stmt 1 discriminator 4
 7526 1ebe 264B     		ldr	r3, .L831
 7527 1ec0 DC68     		ldr	r4, [r3, #12]
 7528              	.LVL1038:
 7529              	.LBB902:
 7530              	.LBB903:
 7531              		.loc 3 257 0 discriminator 4
 7532 1ec2 2046     		mov	r0, r4
 7533 1ec4 FFF7FEFF 		bl	lv_disp_get_dpi
 7534              	.LVL1039:
 7535 1ec8 00EB8000 		add	r0, r0, r0, lsl #2
 7536 1ecc 8000     		lsls	r0, r0, #2
ARM GAS  /tmp/cc6wDDAF.s 			page 194


 7537 1ece 5030     		adds	r0, r0, #80
 7538 1ed0 B0F5A07F 		cmp	r0, #320
 7539 1ed4 02DA     		bge	.L727
 7540              		.loc 3 257 0 is_stmt 0
 7541 1ed6 0124     		movs	r4, #1
 7542              	.LVL1040:
 7543 1ed8 FEF7F0B9 		b	.L131
 7544              	.LVL1041:
 7545              	.L727:
 7546 1edc 2046     		mov	r0, r4
 7547 1ede FFF7FEFF 		bl	lv_disp_get_dpi
 7548              	.LVL1042:
 7549 1ee2 00EB8000 		add	r0, r0, r0, lsl #2
 7550 1ee6 8000     		lsls	r0, r0, #2
 7551 1ee8 5030     		adds	r0, r0, #80
 7552 1eea 214B     		ldr	r3, .L831+24
 7553 1eec 83FB0023 		smull	r2, r3, r3, r0
 7554 1ef0 C417     		asrs	r4, r0, #31
 7555              	.LVL1043:
 7556 1ef2 C4EBA314 		rsb	r4, r4, r3, asr #6
 7557 1ef6 24B2     		sxth	r4, r4
 7558 1ef8 FEF7E0B9 		b	.L131
 7559              	.LVL1044:
 7560              	.L573:
 7561              	.LBE903:
 7562              	.LBE902:
 7563              	.LBB904:
 7564              	.LBB567:
 7565 1efc 2046     		mov	r0, r4
 7566 1efe FFF7FEFF 		bl	lv_disp_get_dpi
 7567              	.LVL1045:
 7568 1f02 0001     		lsls	r0, r0, #4
 7569 1f04 5030     		adds	r0, r0, #80
 7570 1f06 1A4B     		ldr	r3, .L831+24
 7571 1f08 83FB0023 		smull	r2, r3, r3, r0
 7572 1f0c C417     		asrs	r4, r0, #31
 7573              	.LVL1046:
 7574 1f0e C4EBA314 		rsb	r4, r4, r3, asr #6
 7575 1f12 24B2     		sxth	r4, r4
 7576 1f14 FEF7D2B9 		b	.L131
 7577              	.LVL1047:
 7578              	.L574:
 7579              	.LBE567:
 7580              	.LBE904:
 267:Drivers/lvgl/lvgl/src/extra/themes/default/lv_theme_default.c ****     lv_style_set_pad_column(&styles->card, PAD_SMALL);
 7581              		.loc 1 267 0 is_stmt 1 discriminator 1
 7582 1f18 0F4B     		ldr	r3, .L831
 7583 1f1a DD68     		ldr	r5, [r3, #12]
 7584              	.LVL1048:
 7585              	.LBB905:
 7586              	.LBB906:
 7587              		.loc 3 257 0 discriminator 1
 7588 1f1c 2846     		mov	r0, r5
 7589 1f1e FFF7FEFF 		bl	lv_disp_get_dpi
 7590              	.LVL1049:
 7591 1f22 C0EBC000 		rsb	r0, r0, r0, lsl #3
 7592 1f26 4000     		lsls	r0, r0, #1
ARM GAS  /tmp/cc6wDDAF.s 			page 195


 7593 1f28 5030     		adds	r0, r0, #80
 7594 1f2a B0F5A07F 		cmp	r0, #320
 7595 1f2e 02DA     		bge	.L728
 7596              		.loc 3 257 0 is_stmt 0
 7597 1f30 0121     		movs	r1, #1
 7598              	.LVL1050:
 7599 1f32 FEF7ECB9 		b	.L137
 7600              	.LVL1051:
 7601              	.L728:
 7602 1f36 2846     		mov	r0, r5
 7603 1f38 FFF7FEFF 		bl	lv_disp_get_dpi
 7604              	.LVL1052:
 7605 1f3c C0EBC000 		rsb	r0, r0, r0, lsl #3
 7606 1f40 4000     		lsls	r0, r0, #1
 7607 1f42 5030     		adds	r0, r0, #80
 7608 1f44 0A4B     		ldr	r3, .L831+24
 7609 1f46 83FB0023 		smull	r2, r3, r3, r0
 7610 1f4a C117     		asrs	r1, r0, #31
 7611 1f4c C1EBA311 		rsb	r1, r1, r3, asr #6
 7612 1f50 09B2     		sxth	r1, r1
 7613 1f52 FEF7DCB9 		b	.L137
 7614              	.L832:
 7615 1f56 00BF     		.align	2
 7616              	.L831:
 7617 1f58 00000000 		.word	.LANCHOR2
 7618 1f5c 00000000 		.word	.LANCHOR0
 7619 1f60 00000000 		.word	.LANCHOR4
 7620 1f64 00000000 		.word	.LANCHOR5
 7621 1f68 00000000 		.word	.LANCHOR6
 7622 1f6c 00000000 		.word	.LANCHOR7
 7623 1f70 67666666 		.word	1717986919
 7624              	.LVL1053:
 7625              	.L575:
 7626              	.LBE906:
 7627              	.LBE905:
 267:Drivers/lvgl/lvgl/src/extra/themes/default/lv_theme_default.c ****     lv_style_set_pad_column(&styles->card, PAD_SMALL);
 7628              		.loc 1 267 0 is_stmt 1 discriminator 4
 7629 1f74 D84B     		ldr	r3, .L833
 7630 1f76 DD68     		ldr	r5, [r3, #12]
 7631              	.LVL1054:
 7632              	.LBB907:
 7633              	.LBB908:
 7634              		.loc 3 257 0 discriminator 4
 7635 1f78 2846     		mov	r0, r5
 7636 1f7a FFF7FEFF 		bl	lv_disp_get_dpi
 7637              	.LVL1055:
 7638 1f7e 00EB4000 		add	r0, r0, r0, lsl #1
 7639 1f82 8000     		lsls	r0, r0, #2
 7640 1f84 5030     		adds	r0, r0, #80
 7641 1f86 B0F5A07F 		cmp	r0, #320
 7642 1f8a 02DA     		bge	.L729
 7643              		.loc 3 257 0 is_stmt 0
 7644 1f8c 0121     		movs	r1, #1
 7645              	.LVL1056:
 7646 1f8e FEF7BEB9 		b	.L137
 7647              	.LVL1057:
 7648              	.L729:
ARM GAS  /tmp/cc6wDDAF.s 			page 196


 7649 1f92 2846     		mov	r0, r5
 7650 1f94 FFF7FEFF 		bl	lv_disp_get_dpi
 7651              	.LVL1058:
 7652 1f98 00EB4000 		add	r0, r0, r0, lsl #1
 7653 1f9c 8000     		lsls	r0, r0, #2
 7654 1f9e 5030     		adds	r0, r0, #80
 7655 1fa0 CE4B     		ldr	r3, .L833+4
 7656 1fa2 83FB0023 		smull	r2, r3, r3, r0
 7657 1fa6 C117     		asrs	r1, r0, #31
 7658 1fa8 C1EBA311 		rsb	r1, r1, r3, asr #6
 7659 1fac 09B2     		sxth	r1, r1
 7660 1fae FEF7AEB9 		b	.L137
 7661              	.LVL1059:
 7662              	.L576:
 7663              	.LBE908:
 7664              	.LBE907:
 7665              	.LBB909:
 7666              	.LBB572:
 7667 1fb2 2846     		mov	r0, r5
 7668 1fb4 FFF7FEFF 		bl	lv_disp_get_dpi
 7669              	.LVL1060:
 7670 1fb8 00EB8000 		add	r0, r0, r0, lsl #2
 7671 1fbc 4000     		lsls	r0, r0, #1
 7672 1fbe 5030     		adds	r0, r0, #80
 7673 1fc0 C64B     		ldr	r3, .L833+4
 7674 1fc2 83FB0023 		smull	r2, r3, r3, r0
 7675 1fc6 C117     		asrs	r1, r0, #31
 7676 1fc8 C1EBA311 		rsb	r1, r1, r3, asr #6
 7677 1fcc 09B2     		sxth	r1, r1
 7678 1fce FEF79EB9 		b	.L137
 7679              	.LVL1061:
 7680              	.L577:
 7681              	.LBE572:
 7682              	.LBE909:
 268:Drivers/lvgl/lvgl/src/extra/themes/default/lv_theme_default.c ****     lv_style_set_line_color(&styles->card, lv_palette_main(LV_PALETTE_GREY));
 7683              		.loc 1 268 0 is_stmt 1 discriminator 1
 7684 1fd2 C14B     		ldr	r3, .L833
 7685 1fd4 DD68     		ldr	r5, [r3, #12]
 7686              	.LVL1062:
 7687              	.LBB910:
 7688              	.LBB911:
 7689              		.loc 3 257 0 discriminator 1
 7690 1fd6 2846     		mov	r0, r5
 7691 1fd8 FFF7FEFF 		bl	lv_disp_get_dpi
 7692              	.LVL1063:
 7693 1fdc C0EBC000 		rsb	r0, r0, r0, lsl #3
 7694 1fe0 4000     		lsls	r0, r0, #1
 7695 1fe2 5030     		adds	r0, r0, #80
 7696 1fe4 B0F5A07F 		cmp	r0, #320
 7697 1fe8 02DA     		bge	.L730
 7698              		.loc 3 257 0 is_stmt 0
 7699 1fea 0121     		movs	r1, #1
 7700              	.LVL1064:
 7701 1fec FEF7C2B9 		b	.L143
 7702              	.LVL1065:
 7703              	.L730:
 7704 1ff0 2846     		mov	r0, r5
ARM GAS  /tmp/cc6wDDAF.s 			page 197


 7705 1ff2 FFF7FEFF 		bl	lv_disp_get_dpi
 7706              	.LVL1066:
 7707 1ff6 C0EBC000 		rsb	r0, r0, r0, lsl #3
 7708 1ffa 4000     		lsls	r0, r0, #1
 7709 1ffc 5030     		adds	r0, r0, #80
 7710 1ffe B74B     		ldr	r3, .L833+4
 7711 2000 83FB0023 		smull	r2, r3, r3, r0
 7712 2004 C117     		asrs	r1, r0, #31
 7713 2006 C1EBA311 		rsb	r1, r1, r3, asr #6
 7714 200a 09B2     		sxth	r1, r1
 7715 200c FEF7B2B9 		b	.L143
 7716              	.LVL1067:
 7717              	.L578:
 7718              	.LBE911:
 7719              	.LBE910:
 268:Drivers/lvgl/lvgl/src/extra/themes/default/lv_theme_default.c ****     lv_style_set_line_color(&styles->card, lv_palette_main(LV_PALETTE_GREY));
 7720              		.loc 1 268 0 is_stmt 1 discriminator 4
 7721 2010 B14B     		ldr	r3, .L833
 7722 2012 DD68     		ldr	r5, [r3, #12]
 7723              	.LVL1068:
 7724              	.LBB912:
 7725              	.LBB913:
 7726              		.loc 3 257 0 discriminator 4
 7727 2014 2846     		mov	r0, r5
 7728 2016 FFF7FEFF 		bl	lv_disp_get_dpi
 7729              	.LVL1069:
 7730 201a 00EB4000 		add	r0, r0, r0, lsl #1
 7731 201e 8000     		lsls	r0, r0, #2
 7732 2020 5030     		adds	r0, r0, #80
 7733 2022 B0F5A07F 		cmp	r0, #320
 7734 2026 02DA     		bge	.L731
 7735              		.loc 3 257 0 is_stmt 0
 7736 2028 0121     		movs	r1, #1
 7737              	.LVL1070:
 7738 202a FEF7A3B9 		b	.L143
 7739              	.LVL1071:
 7740              	.L731:
 7741 202e 2846     		mov	r0, r5
 7742 2030 FFF7FEFF 		bl	lv_disp_get_dpi
 7743              	.LVL1072:
 7744 2034 00EB4000 		add	r0, r0, r0, lsl #1
 7745 2038 8000     		lsls	r0, r0, #2
 7746 203a 5030     		adds	r0, r0, #80
 7747 203c A74B     		ldr	r3, .L833+4
 7748 203e 83FB0023 		smull	r2, r3, r3, r0
 7749 2042 C117     		asrs	r1, r0, #31
 7750 2044 C1EBA311 		rsb	r1, r1, r3, asr #6
 7751 2048 09B2     		sxth	r1, r1
 7752 204a FEF793B9 		b	.L143
 7753              	.LVL1073:
 7754              	.L579:
 7755              	.LBE913:
 7756              	.LBE912:
 7757              	.LBB914:
 7758              	.LBB575:
 7759 204e 2846     		mov	r0, r5
 7760 2050 FFF7FEFF 		bl	lv_disp_get_dpi
ARM GAS  /tmp/cc6wDDAF.s 			page 198


 7761              	.LVL1074:
 7762 2054 00EB8000 		add	r0, r0, r0, lsl #2
 7763 2058 4000     		lsls	r0, r0, #1
 7764 205a 5030     		adds	r0, r0, #80
 7765 205c 9F4B     		ldr	r3, .L833+4
 7766 205e 83FB0023 		smull	r2, r3, r3, r0
 7767 2062 C117     		asrs	r1, r0, #31
 7768 2064 C1EBA311 		rsb	r1, r1, r3, asr #6
 7769 2068 09B2     		sxth	r1, r1
 7770 206a FEF783B9 		b	.L143
 7771              	.LVL1075:
 7772              	.L580:
 7773              	.LBE575:
 7774              	.LBE914:
 7775              	.LBB915:
 7776              	.LBB578:
 7777 206e 2846     		mov	r0, r5
 7778 2070 FFF7FEFF 		bl	lv_disp_get_dpi
 7779              	.LVL1076:
 7780 2074 5030     		adds	r0, r0, #80
 7781 2076 994B     		ldr	r3, .L833+4
 7782 2078 83FB0023 		smull	r2, r3, r3, r0
 7783 207c C117     		asrs	r1, r0, #31
 7784 207e C1EBA311 		rsb	r1, r1, r3, asr #6
 7785 2082 09B2     		sxth	r1, r1
 7786 2084 FEF790B9 		b	.L147
 7787              	.LVL1077:
 7788              	.L581:
 7789              	.LBE578:
 7790              	.LBE915:
 7791              	.LBB916:
 7792              	.LBB581:
 7793 2088 2846     		mov	r0, r5
 7794 208a FFF7FEFF 		bl	lv_disp_get_dpi
 7795              	.LVL1078:
 7796 208e 00EB4000 		add	r0, r0, r0, lsl #1
 7797 2092 5030     		adds	r0, r0, #80
 7798 2094 914B     		ldr	r3, .L833+4
 7799 2096 83FB0023 		smull	r2, r3, r3, r0
 7800 209a C117     		asrs	r1, r0, #31
 7801 209c C1EBA311 		rsb	r1, r1, r3, asr #6
 7802 20a0 09B2     		sxth	r1, r1
 7803 20a2 FEF79DB9 		b	.L148
 7804              	.LVL1079:
 7805              	.L582:
 7806              	.LBE581:
 7807              	.LBE916:
 7808              	.LBB917:
 7809              	.LBB584:
 7810 20a6 2846     		mov	r0, r5
 7811 20a8 FFF7FEFF 		bl	lv_disp_get_dpi
 7812              	.LVL1080:
 7813 20ac 00EB4000 		add	r0, r0, r0, lsl #1
 7814 20b0 5030     		adds	r0, r0, #80
 7815 20b2 8A4B     		ldr	r3, .L833+4
 7816 20b4 83FB0023 		smull	r2, r3, r3, r0
 7817 20b8 C117     		asrs	r1, r0, #31
ARM GAS  /tmp/cc6wDDAF.s 			page 199


 7818 20ba C1EBA311 		rsb	r1, r1, r3, asr #6
 7819 20be 09B2     		sxth	r1, r1
 7820 20c0 FEF7A1B9 		b	.L149
 7821              	.LVL1081:
 7822              	.L583:
 7823              	.LBE584:
 7824              	.LBE917:
 7825              	.LBB918:
 7826              	.LBB587:
 7827 20c4 2846     		mov	r0, r5
 7828 20c6 FFF7FEFF 		bl	lv_disp_get_dpi
 7829              	.LVL1082:
 7830 20ca 00EB4000 		add	r0, r0, r0, lsl #1
 7831 20ce 5030     		adds	r0, r0, #80
 7832 20d0 824B     		ldr	r3, .L833+4
 7833 20d2 83FB0023 		smull	r2, r3, r3, r0
 7834 20d6 C117     		asrs	r1, r0, #31
 7835 20d8 C1EBA311 		rsb	r1, r1, r3, asr #6
 7836 20dc 09B2     		sxth	r1, r1
 7837 20de FEF7B3B9 		b	.L150
 7838              	.LVL1083:
 7839              	.L584:
 7840              	.LBE587:
 7841              	.LBE918:
 284:Drivers/lvgl/lvgl/src/extra/themes/default/lv_theme_default.c ****                                                                              16) : disp_size == DIS
 7842              		.loc 1 284 0 is_stmt 1 discriminator 1
 7843 20e2 7D4B     		ldr	r3, .L833
 7844 20e4 DD68     		ldr	r5, [r3, #12]
 7845              	.LVL1084:
 7846              	.LBB919:
 7847              	.LBB920:
 7848              		.loc 3 257 0 discriminator 1
 7849 20e6 2846     		mov	r0, r5
 7850 20e8 FFF7FEFF 		bl	lv_disp_get_dpi
 7851              	.LVL1085:
 7852 20ec 0001     		lsls	r0, r0, #4
 7853 20ee 5030     		adds	r0, r0, #80
 7854 20f0 B0F5A07F 		cmp	r0, #320
 7855 20f4 02DA     		bge	.L732
 7856              		.loc 3 257 0 is_stmt 0
 7857 20f6 0121     		movs	r1, #1
 7858              	.LVL1086:
 7859 20f8 FEF7C9B9 		b	.L153
 7860              	.LVL1087:
 7861              	.L732:
 7862 20fc 2846     		mov	r0, r5
 7863 20fe FFF7FEFF 		bl	lv_disp_get_dpi
 7864              	.LVL1088:
 7865 2102 0001     		lsls	r0, r0, #4
 7866 2104 5030     		adds	r0, r0, #80
 7867 2106 754B     		ldr	r3, .L833+4
 7868 2108 83FB0023 		smull	r2, r3, r3, r0
 7869 210c C117     		asrs	r1, r0, #31
 7870 210e C1EBA311 		rsb	r1, r1, r3, asr #6
 7871 2112 09B2     		sxth	r1, r1
 7872 2114 FEF7BBB9 		b	.L153
 7873              	.LVL1089:
ARM GAS  /tmp/cc6wDDAF.s 			page 200


 7874              	.L585:
 7875              	.LBE920:
 7876              	.LBE919:
 285:Drivers/lvgl/lvgl/src/extra/themes/default/lv_theme_default.c ****     lv_style_set_bg_opa(&styles->btn, LV_OPA_COVER);
 7877              		.loc 1 285 0 is_stmt 1 discriminator 4
 7878 2118 6F4B     		ldr	r3, .L833
 7879 211a DD68     		ldr	r5, [r3, #12]
 7880              	.LVL1090:
 7881              	.LBB921:
 7882              	.LBB922:
 7883              		.loc 3 257 0 discriminator 4
 7884 211c 2846     		mov	r0, r5
 7885 211e FFF7FEFF 		bl	lv_disp_get_dpi
 7886              	.LVL1091:
 7887 2122 00EB4000 		add	r0, r0, r0, lsl #1
 7888 2126 8000     		lsls	r0, r0, #2
 7889 2128 5030     		adds	r0, r0, #80
 7890 212a B0F5A07F 		cmp	r0, #320
 7891 212e 02DA     		bge	.L733
 7892              		.loc 3 257 0 is_stmt 0
 7893 2130 0121     		movs	r1, #1
 7894              	.LVL1092:
 7895 2132 FEF7ACB9 		b	.L153
 7896              	.LVL1093:
 7897              	.L733:
 7898 2136 2846     		mov	r0, r5
 7899 2138 FFF7FEFF 		bl	lv_disp_get_dpi
 7900              	.LVL1094:
 7901 213c 00EB4000 		add	r0, r0, r0, lsl #1
 7902 2140 8000     		lsls	r0, r0, #2
 7903 2142 5030     		adds	r0, r0, #80
 7904 2144 654B     		ldr	r3, .L833+4
 7905 2146 83FB0023 		smull	r2, r3, r3, r0
 7906 214a C117     		asrs	r1, r0, #31
 7907 214c C1EBA311 		rsb	r1, r1, r3, asr #6
 7908 2150 09B2     		sxth	r1, r1
 7909 2152 FEF79CB9 		b	.L153
 7910              	.LVL1095:
 7911              	.L586:
 7912              	.LBE922:
 7913              	.LBE921:
 7914              	.LBB923:
 7915              	.LBB590:
 7916 2156 2846     		mov	r0, r5
 7917 2158 FFF7FEFF 		bl	lv_disp_get_dpi
 7918              	.LVL1096:
 7919 215c C000     		lsls	r0, r0, #3
 7920 215e 5030     		adds	r0, r0, #80
 7921 2160 5E4B     		ldr	r3, .L833+4
 7922 2162 83FB0023 		smull	r2, r3, r3, r0
 7923 2166 C117     		asrs	r1, r0, #31
 7924 2168 C1EBA311 		rsb	r1, r1, r3, asr #6
 7925 216c 09B2     		sxth	r1, r1
 7926 216e FEF78EB9 		b	.L153
 7927              	.LVL1097:
 7928              	.L587:
 7929              	.LBE590:
ARM GAS  /tmp/cc6wDDAF.s 			page 201


 7930              	.LBE923:
 289:Drivers/lvgl/lvgl/src/extra/themes/default/lv_theme_default.c ****         lv_style_set_shadow_width(&styles->btn, LV_DPX(3));
 7931              		.loc 1 289 0 is_stmt 1
 7932 2172 2568     		ldr	r5, [r4]
 7933 2174 1220     		movs	r0, #18
 7934 2176 FFF7FEFF 		bl	lv_palette_main
 7935              	.LVL1098:
 7936 217a 0146     		mov	r1, r0	@ movhi
 7937 217c 05F12000 		add	r0, r5, #32
 7938 2180 FFF7FEFF 		bl	lv_style_set_shadow_color
 7939              	.LVL1099:
 290:Drivers/lvgl/lvgl/src/extra/themes/default/lv_theme_default.c ****         lv_style_set_shadow_opa(&styles->btn, LV_OPA_50);
 7940              		.loc 1 290 0
 7941 2184 2468     		ldr	r4, [r4]
 7942 2186 2034     		adds	r4, r4, #32
 7943 2188 0020     		movs	r0, #0
 7944 218a FFF7FEFF 		bl	lv_disp_get_dpi
 7945              	.LVL1100:
 7946 218e 00EB4000 		add	r0, r0, r0, lsl #1
 7947 2192 5030     		adds	r0, r0, #80
 7948 2194 B0F5A07F 		cmp	r0, #320
 7949 2198 1DDA     		bge	.L734
 7950 219a 0121     		movs	r1, #1
 7951              	.L158:
 290:Drivers/lvgl/lvgl/src/extra/themes/default/lv_theme_default.c ****         lv_style_set_shadow_opa(&styles->btn, LV_OPA_50);
 7952              		.loc 1 290 0 is_stmt 0 discriminator 4
 7953 219c 2046     		mov	r0, r4
 7954 219e FFF7FEFF 		bl	lv_style_set_shadow_width
 7955              	.LVL1101:
 291:Drivers/lvgl/lvgl/src/extra/themes/default/lv_theme_default.c ****         lv_style_set_shadow_ofs_y(&styles->btn, lv_disp_dpx(theme.disp, LV_DPX(4)));
 7956              		.loc 1 291 0 is_stmt 1 discriminator 4
 7957 21a2 4F4C     		ldr	r4, .L833+8
 7958 21a4 2068     		ldr	r0, [r4]
 7959 21a6 7F21     		movs	r1, #127
 7960 21a8 2030     		adds	r0, r0, #32
 7961 21aa FFF7FEFF 		bl	lv_style_set_shadow_opa
 7962              	.LVL1102:
 292:Drivers/lvgl/lvgl/src/extra/themes/default/lv_theme_default.c ****     }
 7963              		.loc 1 292 0 discriminator 4
 7964 21ae 2568     		ldr	r5, [r4]
 7965 21b0 2035     		adds	r5, r5, #32
 7966 21b2 494B     		ldr	r3, .L833
 7967 21b4 DE68     		ldr	r6, [r3, #12]
 7968 21b6 0020     		movs	r0, #0
 7969 21b8 FFF7FEFF 		bl	lv_disp_get_dpi
 7970              	.LVL1103:
 7971 21bc 1430     		adds	r0, r0, #20
 7972 21be 8000     		lsls	r0, r0, #2
 7973 21c0 B0F5A07F 		cmp	r0, #320
 7974 21c4 15DA     		bge	.L735
 292:Drivers/lvgl/lvgl/src/extra/themes/default/lv_theme_default.c ****     }
 7975              		.loc 1 292 0 is_stmt 0
 7976 21c6 0124     		movs	r4, #1
 7977              	.L159:
 7978              	.LVL1104:
 7979              	.LBB924:
 7980              	.LBB925:
ARM GAS  /tmp/cc6wDDAF.s 			page 202


 7981              		.loc 3 257 0 is_stmt 1 discriminator 4
 7982 21c8 04BB     		cbnz	r4, .L736
 7983              	.LVL1105:
 7984              	.L160:
 7985              	.LBE925:
 7986              	.LBE924:
 292:Drivers/lvgl/lvgl/src/extra/themes/default/lv_theme_default.c ****     }
 7987              		.loc 1 292 0
 7988 21ca 2146     		mov	r1, r4
 7989 21cc 2846     		mov	r0, r5
 7990 21ce FFF7FEFF 		bl	lv_style_set_shadow_ofs_y
 7991              	.LVL1106:
 7992 21d2 FEF771B9 		b	.L157
 7993              	.L734:
 290:Drivers/lvgl/lvgl/src/extra/themes/default/lv_theme_default.c ****         lv_style_set_shadow_opa(&styles->btn, LV_OPA_50);
 7994              		.loc 1 290 0 discriminator 1
 7995 21d6 0020     		movs	r0, #0
 7996 21d8 FFF7FEFF 		bl	lv_disp_get_dpi
 7997              	.LVL1107:
 7998 21dc 00EB4000 		add	r0, r0, r0, lsl #1
 7999 21e0 5030     		adds	r0, r0, #80
 8000 21e2 3E4B     		ldr	r3, .L833+4
 8001 21e4 83FB0023 		smull	r2, r3, r3, r0
 8002 21e8 C117     		asrs	r1, r0, #31
 8003 21ea C1EBA311 		rsb	r1, r1, r3, asr #6
 8004 21ee 09B2     		sxth	r1, r1
 8005 21f0 D4E7     		b	.L158
 8006              	.L735:
 292:Drivers/lvgl/lvgl/src/extra/themes/default/lv_theme_default.c ****     }
 8007              		.loc 1 292 0 discriminator 1
 8008 21f2 0020     		movs	r0, #0
 8009 21f4 FFF7FEFF 		bl	lv_disp_get_dpi
 8010              	.LVL1108:
 8011 21f8 1430     		adds	r0, r0, #20
 8012 21fa 8000     		lsls	r0, r0, #2
 8013 21fc 374B     		ldr	r3, .L833+4
 8014 21fe 83FB0023 		smull	r2, r3, r3, r0
 8015 2202 C417     		asrs	r4, r0, #31
 8016 2204 C4EBA314 		rsb	r4, r4, r3, asr #6
 8017 2208 24B2     		sxth	r4, r4
 8018 220a DDE7     		b	.L159
 8019              	.LVL1109:
 8020              	.L736:
 8021              	.LBB927:
 8022              	.LBB926:
 8023              		.loc 3 257 0
 8024 220c 3046     		mov	r0, r6
 8025 220e FFF7FEFF 		bl	lv_disp_get_dpi
 8026              	.LVL1110:
 8027 2212 04FB00F0 		mul	r0, r4, r0
 8028 2216 5030     		adds	r0, r0, #80
 8029 2218 B0F5A07F 		cmp	r0, #320
 8030 221c 01DA     		bge	.L737
 8031 221e 0124     		movs	r4, #1
 8032              	.LVL1111:
 8033 2220 D3E7     		b	.L160
 8034              	.LVL1112:
ARM GAS  /tmp/cc6wDDAF.s 			page 203


 8035              	.L737:
 8036 2222 3046     		mov	r0, r6
 8037 2224 FFF7FEFF 		bl	lv_disp_get_dpi
 8038              	.LVL1113:
 8039 2228 00FB04F0 		mul	r0, r0, r4
 8040 222c 5030     		adds	r0, r0, #80
 8041 222e 2B4B     		ldr	r3, .L833+4
 8042 2230 83FB0023 		smull	r2, r3, r3, r0
 8043 2234 C417     		asrs	r4, r0, #31
 8044              	.LVL1114:
 8045 2236 C4EBA314 		rsb	r4, r4, r3, asr #6
 8046 223a 24B2     		sxth	r4, r4
 8047 223c C5E7     		b	.L160
 8048              	.LVL1115:
 8049              	.L588:
 8050              	.LBE926:
 8051              	.LBE927:
 295:Drivers/lvgl/lvgl/src/extra/themes/default/lv_theme_default.c ****     lv_style_set_pad_ver(&styles->btn, PAD_SMALL);
 8052              		.loc 1 295 0 discriminator 1
 8053 223e 264B     		ldr	r3, .L833
 8054 2240 DC68     		ldr	r4, [r3, #12]
 8055              	.LVL1116:
 8056              	.LBB928:
 8057              	.LBB929:
 8058              		.loc 3 257 0 discriminator 1
 8059 2242 2046     		mov	r0, r4
 8060 2244 FFF7FEFF 		bl	lv_disp_get_dpi
 8061              	.LVL1117:
 8062 2248 00EB4000 		add	r0, r0, r0, lsl #1
 8063 224c C000     		lsls	r0, r0, #3
 8064 224e 5030     		adds	r0, r0, #80
 8065 2250 B0F5A07F 		cmp	r0, #320
 8066 2254 02DA     		bge	.L738
 8067              		.loc 3 257 0 is_stmt 0
 8068 2256 0124     		movs	r4, #1
 8069              	.LVL1118:
 8070 2258 FEF74BB9 		b	.L163
 8071              	.LVL1119:
 8072              	.L738:
 8073 225c 2046     		mov	r0, r4
 8074 225e FFF7FEFF 		bl	lv_disp_get_dpi
 8075              	.LVL1120:
 8076 2262 00EB4000 		add	r0, r0, r0, lsl #1
 8077 2266 C000     		lsls	r0, r0, #3
 8078 2268 5030     		adds	r0, r0, #80
 8079 226a 1C4B     		ldr	r3, .L833+4
 8080 226c 83FB0023 		smull	r2, r3, r3, r0
 8081 2270 C417     		asrs	r4, r0, #31
 8082              	.LVL1121:
 8083 2272 C4EBA314 		rsb	r4, r4, r3, asr #6
 8084 2276 24B2     		sxth	r4, r4
 8085 2278 FEF73BB9 		b	.L163
 8086              	.LVL1122:
 8087              	.L589:
 8088              	.LBE929:
 8089              	.LBE928:
 295:Drivers/lvgl/lvgl/src/extra/themes/default/lv_theme_default.c ****     lv_style_set_pad_ver(&styles->btn, PAD_SMALL);
ARM GAS  /tmp/cc6wDDAF.s 			page 204


 8090              		.loc 1 295 0 is_stmt 1 discriminator 4
 8091 227c 164B     		ldr	r3, .L833
 8092 227e DC68     		ldr	r4, [r3, #12]
 8093              	.LVL1123:
 8094              	.LBB930:
 8095              	.LBB931:
 8096              		.loc 3 257 0 discriminator 4
 8097 2280 2046     		mov	r0, r4
 8098 2282 FFF7FEFF 		bl	lv_disp_get_dpi
 8099              	.LVL1124:
 8100 2286 00EB8000 		add	r0, r0, r0, lsl #2
 8101 228a 8000     		lsls	r0, r0, #2
 8102 228c 5030     		adds	r0, r0, #80
 8103 228e B0F5A07F 		cmp	r0, #320
 8104 2292 02DA     		bge	.L739
 8105              		.loc 3 257 0 is_stmt 0
 8106 2294 0124     		movs	r4, #1
 8107              	.LVL1125:
 8108 2296 FEF72CB9 		b	.L163
 8109              	.LVL1126:
 8110              	.L739:
 8111 229a 2046     		mov	r0, r4
 8112 229c FFF7FEFF 		bl	lv_disp_get_dpi
 8113              	.LVL1127:
 8114 22a0 00EB8000 		add	r0, r0, r0, lsl #2
 8115 22a4 8000     		lsls	r0, r0, #2
 8116 22a6 5030     		adds	r0, r0, #80
 8117 22a8 0C4B     		ldr	r3, .L833+4
 8118 22aa 83FB0023 		smull	r2, r3, r3, r0
 8119 22ae C417     		asrs	r4, r0, #31
 8120              	.LVL1128:
 8121 22b0 C4EBA314 		rsb	r4, r4, r3, asr #6
 8122 22b4 24B2     		sxth	r4, r4
 8123 22b6 FEF71CB9 		b	.L163
 8124              	.LVL1129:
 8125              	.L590:
 8126              	.LBE931:
 8127              	.LBE930:
 8128              	.LBB932:
 8129              	.LBB593:
 8130 22ba 2046     		mov	r0, r4
 8131 22bc FFF7FEFF 		bl	lv_disp_get_dpi
 8132              	.LVL1130:
 8133 22c0 0001     		lsls	r0, r0, #4
 8134 22c2 5030     		adds	r0, r0, #80
 8135 22c4 054B     		ldr	r3, .L833+4
 8136 22c6 83FB0023 		smull	r2, r3, r3, r0
 8137 22ca C417     		asrs	r4, r0, #31
 8138              	.LVL1131:
 8139 22cc C4EBA314 		rsb	r4, r4, r3, asr #6
 8140 22d0 24B2     		sxth	r4, r4
 8141 22d2 FEF70EB9 		b	.L163
 8142              	.L834:
 8143 22d6 00BF     		.align	2
 8144              	.L833:
 8145 22d8 00000000 		.word	.LANCHOR2
 8146 22dc 67666666 		.word	1717986919
ARM GAS  /tmp/cc6wDDAF.s 			page 205


 8147 22e0 00000000 		.word	.LANCHOR0
 8148              	.LVL1132:
 8149              	.L591:
 8150              	.LBE593:
 8151              	.LBE932:
 296:Drivers/lvgl/lvgl/src/extra/themes/default/lv_theme_default.c ****     lv_style_set_pad_column(&styles->btn, lv_disp_dpx(theme.disp, 5));
 8152              		.loc 1 296 0 is_stmt 1 discriminator 1
 8153 22e4 D64B     		ldr	r3, .L835
 8154 22e6 DC68     		ldr	r4, [r3, #12]
 8155              	.LVL1133:
 8156              	.LBB933:
 8157              	.LBB934:
 8158              		.loc 3 257 0 discriminator 1
 8159 22e8 2046     		mov	r0, r4
 8160 22ea FFF7FEFF 		bl	lv_disp_get_dpi
 8161              	.LVL1134:
 8162 22ee C0EBC000 		rsb	r0, r0, r0, lsl #3
 8163 22f2 4000     		lsls	r0, r0, #1
 8164 22f4 5030     		adds	r0, r0, #80
 8165 22f6 B0F5A07F 		cmp	r0, #320
 8166 22fa 02DA     		bge	.L740
 8167              		.loc 3 257 0 is_stmt 0
 8168 22fc 0124     		movs	r4, #1
 8169              	.LVL1135:
 8170 22fe FEF719B9 		b	.L169
 8171              	.LVL1136:
 8172              	.L740:
 8173 2302 2046     		mov	r0, r4
 8174 2304 FFF7FEFF 		bl	lv_disp_get_dpi
 8175              	.LVL1137:
 8176 2308 C0EBC000 		rsb	r0, r0, r0, lsl #3
 8177 230c 4000     		lsls	r0, r0, #1
 8178 230e 5030     		adds	r0, r0, #80
 8179 2310 CC4B     		ldr	r3, .L835+4
 8180 2312 83FB0023 		smull	r2, r3, r3, r0
 8181 2316 C417     		asrs	r4, r0, #31
 8182              	.LVL1138:
 8183 2318 C4EBA314 		rsb	r4, r4, r3, asr #6
 8184 231c 24B2     		sxth	r4, r4
 8185 231e FEF709B9 		b	.L169
 8186              	.LVL1139:
 8187              	.L592:
 8188              	.LBE934:
 8189              	.LBE933:
 296:Drivers/lvgl/lvgl/src/extra/themes/default/lv_theme_default.c ****     lv_style_set_pad_column(&styles->btn, lv_disp_dpx(theme.disp, 5));
 8190              		.loc 1 296 0 is_stmt 1 discriminator 4
 8191 2322 C74B     		ldr	r3, .L835
 8192 2324 DC68     		ldr	r4, [r3, #12]
 8193              	.LVL1140:
 8194              	.LBB935:
 8195              	.LBB936:
 8196              		.loc 3 257 0 discriminator 4
 8197 2326 2046     		mov	r0, r4
 8198 2328 FFF7FEFF 		bl	lv_disp_get_dpi
 8199              	.LVL1141:
 8200 232c 00EB4000 		add	r0, r0, r0, lsl #1
 8201 2330 8000     		lsls	r0, r0, #2
ARM GAS  /tmp/cc6wDDAF.s 			page 206


 8202 2332 5030     		adds	r0, r0, #80
 8203 2334 B0F5A07F 		cmp	r0, #320
 8204 2338 02DA     		bge	.L741
 8205              		.loc 3 257 0 is_stmt 0
 8206 233a 0124     		movs	r4, #1
 8207              	.LVL1142:
 8208 233c FEF7FAB8 		b	.L169
 8209              	.LVL1143:
 8210              	.L741:
 8211 2340 2046     		mov	r0, r4
 8212 2342 FFF7FEFF 		bl	lv_disp_get_dpi
 8213              	.LVL1144:
 8214 2346 00EB4000 		add	r0, r0, r0, lsl #1
 8215 234a 8000     		lsls	r0, r0, #2
 8216 234c 5030     		adds	r0, r0, #80
 8217 234e BD4B     		ldr	r3, .L835+4
 8218 2350 83FB0023 		smull	r2, r3, r3, r0
 8219 2354 C417     		asrs	r4, r0, #31
 8220              	.LVL1145:
 8221 2356 C4EBA314 		rsb	r4, r4, r3, asr #6
 8222 235a 24B2     		sxth	r4, r4
 8223 235c FEF7EAB8 		b	.L169
 8224              	.LVL1146:
 8225              	.L593:
 8226              	.LBE936:
 8227              	.LBE935:
 8228              	.LBB937:
 8229              	.LBB598:
 8230 2360 2046     		mov	r0, r4
 8231 2362 FFF7FEFF 		bl	lv_disp_get_dpi
 8232              	.LVL1147:
 8233 2366 00EB8000 		add	r0, r0, r0, lsl #2
 8234 236a 4000     		lsls	r0, r0, #1
 8235 236c 5030     		adds	r0, r0, #80
 8236 236e B54B     		ldr	r3, .L835+4
 8237 2370 83FB0023 		smull	r2, r3, r3, r0
 8238 2374 C417     		asrs	r4, r0, #31
 8239              	.LVL1148:
 8240 2376 C4EBA314 		rsb	r4, r4, r3, asr #6
 8241 237a 24B2     		sxth	r4, r4
 8242 237c FEF7DAB8 		b	.L169
 8243              	.LVL1149:
 8244              	.L594:
 8245              	.LBE598:
 8246              	.LBE937:
 8247              	.LBB938:
 8248              	.LBB603:
 8249 2380 2846     		mov	r0, r5
 8250 2382 FFF7FEFF 		bl	lv_disp_get_dpi
 8251              	.LVL1150:
 8252 2386 00EB8000 		add	r0, r0, r0, lsl #2
 8253 238a 5030     		adds	r0, r0, #80
 8254 238c AD4B     		ldr	r3, .L835+4
 8255 238e 83FB0023 		smull	r2, r3, r3, r0
 8256 2392 C117     		asrs	r1, r0, #31
 8257 2394 C1EBA311 		rsb	r1, r1, r3, asr #6
 8258 2398 09B2     		sxth	r1, r1
ARM GAS  /tmp/cc6wDDAF.s 			page 207


 8259 239a FEF7E3B8 		b	.L173
 8260              	.LVL1151:
 8261              	.L595:
 8262              	.LBE603:
 8263              	.LBE938:
 8264              	.LBB939:
 8265              	.LBB606:
 8266 239e 2846     		mov	r0, r5
 8267 23a0 FFF7FEFF 		bl	lv_disp_get_dpi
 8268              	.LVL1152:
 8269 23a4 00EB8000 		add	r0, r0, r0, lsl #2
 8270 23a8 5030     		adds	r0, r0, #80
 8271 23aa A64B     		ldr	r3, .L835+4
 8272 23ac 83FB0023 		smull	r2, r3, r3, r0
 8273 23b0 C117     		asrs	r1, r0, #31
 8274 23b2 C1EBA311 		rsb	r1, r1, r3, asr #6
 8275 23b6 09B2     		sxth	r1, r1
 8276 23b8 FEF7E7B8 		b	.L174
 8277              	.LVL1153:
 8278              	.L596:
 8279              	.LBE606:
 8280              	.LBE939:
 319:Drivers/lvgl/lvgl/src/extra/themes/default/lv_theme_default.c ****     lv_style_set_pad_row(&styles->pad_normal, PAD_DEF);
 8281              		.loc 1 319 0 is_stmt 1 discriminator 1
 8282 23bc A04B     		ldr	r3, .L835
 8283 23be DC68     		ldr	r4, [r3, #12]
 8284              	.LVL1154:
 8285              	.LBB940:
 8286              	.LBB941:
 8287              		.loc 3 257 0 discriminator 1
 8288 23c0 2046     		mov	r0, r4
 8289 23c2 FFF7FEFF 		bl	lv_disp_get_dpi
 8290              	.LVL1155:
 8291 23c6 00EB4000 		add	r0, r0, r0, lsl #1
 8292 23ca C000     		lsls	r0, r0, #3
 8293 23cc 5030     		adds	r0, r0, #80
 8294 23ce B0F5A07F 		cmp	r0, #320
 8295 23d2 02DA     		bge	.L742
 8296              		.loc 3 257 0 is_stmt 0
 8297 23d4 0124     		movs	r4, #1
 8298              	.LVL1156:
 8299 23d6 FEF726B9 		b	.L177
 8300              	.LVL1157:
 8301              	.L742:
 8302 23da 2046     		mov	r0, r4
 8303 23dc FFF7FEFF 		bl	lv_disp_get_dpi
 8304              	.LVL1158:
 8305 23e0 00EB4000 		add	r0, r0, r0, lsl #1
 8306 23e4 C000     		lsls	r0, r0, #3
 8307 23e6 5030     		adds	r0, r0, #80
 8308 23e8 964B     		ldr	r3, .L835+4
 8309 23ea 83FB0023 		smull	r2, r3, r3, r0
 8310 23ee C417     		asrs	r4, r0, #31
 8311              	.LVL1159:
 8312 23f0 C4EBA314 		rsb	r4, r4, r3, asr #6
 8313 23f4 24B2     		sxth	r4, r4
 8314 23f6 FEF716B9 		b	.L177
ARM GAS  /tmp/cc6wDDAF.s 			page 208


 8315              	.LVL1160:
 8316              	.L597:
 8317              	.LBE941:
 8318              	.LBE940:
 319:Drivers/lvgl/lvgl/src/extra/themes/default/lv_theme_default.c ****     lv_style_set_pad_row(&styles->pad_normal, PAD_DEF);
 8319              		.loc 1 319 0 is_stmt 1 discriminator 4
 8320 23fa 914B     		ldr	r3, .L835
 8321 23fc DC68     		ldr	r4, [r3, #12]
 8322              	.LVL1161:
 8323              	.LBB942:
 8324              	.LBB943:
 8325              		.loc 3 257 0 discriminator 4
 8326 23fe 2046     		mov	r0, r4
 8327 2400 FFF7FEFF 		bl	lv_disp_get_dpi
 8328              	.LVL1162:
 8329 2404 00EB8000 		add	r0, r0, r0, lsl #2
 8330 2408 8000     		lsls	r0, r0, #2
 8331 240a 5030     		adds	r0, r0, #80
 8332 240c B0F5A07F 		cmp	r0, #320
 8333 2410 02DA     		bge	.L743
 8334              		.loc 3 257 0 is_stmt 0
 8335 2412 0124     		movs	r4, #1
 8336              	.LVL1163:
 8337 2414 FEF707B9 		b	.L177
 8338              	.LVL1164:
 8339              	.L743:
 8340 2418 2046     		mov	r0, r4
 8341 241a FFF7FEFF 		bl	lv_disp_get_dpi
 8342              	.LVL1165:
 8343 241e 00EB8000 		add	r0, r0, r0, lsl #2
 8344 2422 8000     		lsls	r0, r0, #2
 8345 2424 5030     		adds	r0, r0, #80
 8346 2426 874B     		ldr	r3, .L835+4
 8347 2428 83FB0023 		smull	r2, r3, r3, r0
 8348 242c C417     		asrs	r4, r0, #31
 8349              	.LVL1166:
 8350 242e C4EBA314 		rsb	r4, r4, r3, asr #6
 8351 2432 24B2     		sxth	r4, r4
 8352 2434 FEF7F7B8 		b	.L177
 8353              	.LVL1167:
 8354              	.L598:
 8355              	.LBE943:
 8356              	.LBE942:
 8357              	.LBB944:
 8358              	.LBB613:
 8359 2438 2046     		mov	r0, r4
 8360 243a FFF7FEFF 		bl	lv_disp_get_dpi
 8361              	.LVL1168:
 8362 243e 0001     		lsls	r0, r0, #4
 8363 2440 5030     		adds	r0, r0, #80
 8364 2442 804B     		ldr	r3, .L835+4
 8365 2444 83FB0023 		smull	r2, r3, r3, r0
 8366 2448 C417     		asrs	r4, r0, #31
 8367              	.LVL1169:
 8368 244a C4EBA314 		rsb	r4, r4, r3, asr #6
 8369 244e 24B2     		sxth	r4, r4
 8370 2450 FEF7E9B8 		b	.L177
ARM GAS  /tmp/cc6wDDAF.s 			page 209


 8371              	.LVL1170:
 8372              	.L599:
 8373              	.LBE613:
 8374              	.LBE944:
 320:Drivers/lvgl/lvgl/src/extra/themes/default/lv_theme_default.c ****     lv_style_set_pad_column(&styles->pad_normal, PAD_DEF);
 8375              		.loc 1 320 0 is_stmt 1 discriminator 1
 8376 2454 7A4B     		ldr	r3, .L835
 8377 2456 DD68     		ldr	r5, [r3, #12]
 8378              	.LVL1171:
 8379              	.LBB945:
 8380              	.LBB946:
 8381              		.loc 3 257 0 discriminator 1
 8382 2458 2846     		mov	r0, r5
 8383 245a FFF7FEFF 		bl	lv_disp_get_dpi
 8384              	.LVL1172:
 8385 245e 00EB4000 		add	r0, r0, r0, lsl #1
 8386 2462 C000     		lsls	r0, r0, #3
 8387 2464 5030     		adds	r0, r0, #80
 8388 2466 B0F5A07F 		cmp	r0, #320
 8389 246a 02DA     		bge	.L744
 8390              		.loc 3 257 0 is_stmt 0
 8391 246c 0121     		movs	r1, #1
 8392              	.LVL1173:
 8393 246e FEF701B9 		b	.L183
 8394              	.LVL1174:
 8395              	.L744:
 8396 2472 2846     		mov	r0, r5
 8397 2474 FFF7FEFF 		bl	lv_disp_get_dpi
 8398              	.LVL1175:
 8399 2478 00EB4000 		add	r0, r0, r0, lsl #1
 8400 247c C000     		lsls	r0, r0, #3
 8401 247e 5030     		adds	r0, r0, #80
 8402 2480 704B     		ldr	r3, .L835+4
 8403 2482 83FB0023 		smull	r2, r3, r3, r0
 8404 2486 C117     		asrs	r1, r0, #31
 8405 2488 C1EBA311 		rsb	r1, r1, r3, asr #6
 8406 248c 09B2     		sxth	r1, r1
 8407 248e FEF7F1B8 		b	.L183
 8408              	.LVL1176:
 8409              	.L600:
 8410              	.LBE946:
 8411              	.LBE945:
 320:Drivers/lvgl/lvgl/src/extra/themes/default/lv_theme_default.c ****     lv_style_set_pad_column(&styles->pad_normal, PAD_DEF);
 8412              		.loc 1 320 0 is_stmt 1 discriminator 4
 8413 2492 6B4B     		ldr	r3, .L835
 8414 2494 DD68     		ldr	r5, [r3, #12]
 8415              	.LVL1177:
 8416              	.LBB947:
 8417              	.LBB948:
 8418              		.loc 3 257 0 discriminator 4
 8419 2496 2846     		mov	r0, r5
 8420 2498 FFF7FEFF 		bl	lv_disp_get_dpi
 8421              	.LVL1178:
 8422 249c 00EB8000 		add	r0, r0, r0, lsl #2
 8423 24a0 8000     		lsls	r0, r0, #2
 8424 24a2 5030     		adds	r0, r0, #80
 8425 24a4 B0F5A07F 		cmp	r0, #320
ARM GAS  /tmp/cc6wDDAF.s 			page 210


 8426 24a8 02DA     		bge	.L745
 8427              		.loc 3 257 0 is_stmt 0
 8428 24aa 0121     		movs	r1, #1
 8429              	.LVL1179:
 8430 24ac FEF7E2B8 		b	.L183
 8431              	.LVL1180:
 8432              	.L745:
 8433 24b0 2846     		mov	r0, r5
 8434 24b2 FFF7FEFF 		bl	lv_disp_get_dpi
 8435              	.LVL1181:
 8436 24b6 00EB8000 		add	r0, r0, r0, lsl #2
 8437 24ba 8000     		lsls	r0, r0, #2
 8438 24bc 5030     		adds	r0, r0, #80
 8439 24be 614B     		ldr	r3, .L835+4
 8440 24c0 83FB0023 		smull	r2, r3, r3, r0
 8441 24c4 C117     		asrs	r1, r0, #31
 8442 24c6 C1EBA311 		rsb	r1, r1, r3, asr #6
 8443 24ca 09B2     		sxth	r1, r1
 8444 24cc FEF7D2B8 		b	.L183
 8445              	.LVL1182:
 8446              	.L601:
 8447              	.LBE948:
 8448              	.LBE947:
 8449              	.LBB949:
 8450              	.LBB618:
 8451 24d0 2846     		mov	r0, r5
 8452 24d2 FFF7FEFF 		bl	lv_disp_get_dpi
 8453              	.LVL1183:
 8454 24d6 0001     		lsls	r0, r0, #4
 8455 24d8 5030     		adds	r0, r0, #80
 8456 24da 5A4B     		ldr	r3, .L835+4
 8457 24dc 83FB0023 		smull	r2, r3, r3, r0
 8458 24e0 C117     		asrs	r1, r0, #31
 8459 24e2 C1EBA311 		rsb	r1, r1, r3, asr #6
 8460 24e6 09B2     		sxth	r1, r1
 8461 24e8 FEF7C4B8 		b	.L183
 8462              	.LVL1184:
 8463              	.L602:
 8464              	.LBE618:
 8465              	.LBE949:
 321:Drivers/lvgl/lvgl/src/extra/themes/default/lv_theme_default.c **** 
 8466              		.loc 1 321 0 is_stmt 1 discriminator 1
 8467 24ec 544B     		ldr	r3, .L835
 8468 24ee DD68     		ldr	r5, [r3, #12]
 8469              	.LVL1185:
 8470              	.LBB950:
 8471              	.LBB951:
 8472              		.loc 3 257 0 discriminator 1
 8473 24f0 2846     		mov	r0, r5
 8474 24f2 FFF7FEFF 		bl	lv_disp_get_dpi
 8475              	.LVL1186:
 8476 24f6 00EB4000 		add	r0, r0, r0, lsl #1
 8477 24fa C000     		lsls	r0, r0, #3
 8478 24fc 5030     		adds	r0, r0, #80
 8479 24fe B0F5A07F 		cmp	r0, #320
 8480 2502 02DA     		bge	.L746
 8481              		.loc 3 257 0 is_stmt 0
ARM GAS  /tmp/cc6wDDAF.s 			page 211


 8482 2504 0121     		movs	r1, #1
 8483              	.LVL1187:
 8484 2506 FEF7E3B8 		b	.L189
 8485              	.LVL1188:
 8486              	.L746:
 8487 250a 2846     		mov	r0, r5
 8488 250c FFF7FEFF 		bl	lv_disp_get_dpi
 8489              	.LVL1189:
 8490 2510 00EB4000 		add	r0, r0, r0, lsl #1
 8491 2514 C000     		lsls	r0, r0, #3
 8492 2516 5030     		adds	r0, r0, #80
 8493 2518 4A4B     		ldr	r3, .L835+4
 8494 251a 83FB0023 		smull	r2, r3, r3, r0
 8495 251e C117     		asrs	r1, r0, #31
 8496 2520 C1EBA311 		rsb	r1, r1, r3, asr #6
 8497 2524 09B2     		sxth	r1, r1
 8498 2526 FEF7D3B8 		b	.L189
 8499              	.LVL1190:
 8500              	.L603:
 8501              	.LBE951:
 8502              	.LBE950:
 321:Drivers/lvgl/lvgl/src/extra/themes/default/lv_theme_default.c **** 
 8503              		.loc 1 321 0 is_stmt 1 discriminator 4
 8504 252a 454B     		ldr	r3, .L835
 8505 252c DD68     		ldr	r5, [r3, #12]
 8506              	.LVL1191:
 8507              	.LBB952:
 8508              	.LBB953:
 8509              		.loc 3 257 0 discriminator 4
 8510 252e 2846     		mov	r0, r5
 8511 2530 FFF7FEFF 		bl	lv_disp_get_dpi
 8512              	.LVL1192:
 8513 2534 00EB8000 		add	r0, r0, r0, lsl #2
 8514 2538 8000     		lsls	r0, r0, #2
 8515 253a 5030     		adds	r0, r0, #80
 8516 253c B0F5A07F 		cmp	r0, #320
 8517 2540 02DA     		bge	.L747
 8518              		.loc 3 257 0 is_stmt 0
 8519 2542 0121     		movs	r1, #1
 8520              	.LVL1193:
 8521 2544 FEF7C4B8 		b	.L189
 8522              	.LVL1194:
 8523              	.L747:
 8524 2548 2846     		mov	r0, r5
 8525 254a FFF7FEFF 		bl	lv_disp_get_dpi
 8526              	.LVL1195:
 8527 254e 00EB8000 		add	r0, r0, r0, lsl #2
 8528 2552 8000     		lsls	r0, r0, #2
 8529 2554 5030     		adds	r0, r0, #80
 8530 2556 3B4B     		ldr	r3, .L835+4
 8531 2558 83FB0023 		smull	r2, r3, r3, r0
 8532 255c C117     		asrs	r1, r0, #31
 8533 255e C1EBA311 		rsb	r1, r1, r3, asr #6
 8534 2562 09B2     		sxth	r1, r1
 8535 2564 FEF7B4B8 		b	.L189
 8536              	.LVL1196:
 8537              	.L604:
ARM GAS  /tmp/cc6wDDAF.s 			page 212


 8538              	.LBE953:
 8539              	.LBE952:
 8540              	.LBB954:
 8541              	.LBB621:
 8542 2568 2846     		mov	r0, r5
 8543 256a FFF7FEFF 		bl	lv_disp_get_dpi
 8544              	.LVL1197:
 8545 256e 0001     		lsls	r0, r0, #4
 8546 2570 5030     		adds	r0, r0, #80
 8547 2572 344B     		ldr	r3, .L835+4
 8548 2574 83FB0023 		smull	r2, r3, r3, r0
 8549 2578 C117     		asrs	r1, r0, #31
 8550 257a C1EBA311 		rsb	r1, r1, r3, asr #6
 8551 257e 09B2     		sxth	r1, r1
 8552 2580 FEF7A6B8 		b	.L189
 8553              	.LVL1198:
 8554              	.L605:
 8555              	.LBE621:
 8556              	.LBE954:
 324:Drivers/lvgl/lvgl/src/extra/themes/default/lv_theme_default.c ****     lv_style_set_pad_gap(&styles->pad_small, PAD_SMALL);
 8557              		.loc 1 324 0 is_stmt 1 discriminator 1
 8558 2584 2E4B     		ldr	r3, .L835
 8559 2586 DC68     		ldr	r4, [r3, #12]
 8560              	.LVL1199:
 8561              	.LBB955:
 8562              	.LBB956:
 8563              		.loc 3 257 0 discriminator 1
 8564 2588 2046     		mov	r0, r4
 8565 258a FFF7FEFF 		bl	lv_disp_get_dpi
 8566              	.LVL1200:
 8567 258e C0EBC000 		rsb	r0, r0, r0, lsl #3
 8568 2592 4000     		lsls	r0, r0, #1
 8569 2594 5030     		adds	r0, r0, #80
 8570 2596 B0F5A07F 		cmp	r0, #320
 8571 259a 02DA     		bge	.L748
 8572              		.loc 3 257 0 is_stmt 0
 8573 259c 0124     		movs	r4, #1
 8574              	.LVL1201:
 8575 259e FEF7B7B8 		b	.L195
 8576              	.LVL1202:
 8577              	.L748:
 8578 25a2 2046     		mov	r0, r4
 8579 25a4 FFF7FEFF 		bl	lv_disp_get_dpi
 8580              	.LVL1203:
 8581 25a8 C0EBC000 		rsb	r0, r0, r0, lsl #3
 8582 25ac 4000     		lsls	r0, r0, #1
 8583 25ae 5030     		adds	r0, r0, #80
 8584 25b0 244B     		ldr	r3, .L835+4
 8585 25b2 83FB0023 		smull	r2, r3, r3, r0
 8586 25b6 C417     		asrs	r4, r0, #31
 8587              	.LVL1204:
 8588 25b8 C4EBA314 		rsb	r4, r4, r3, asr #6
 8589 25bc 24B2     		sxth	r4, r4
 8590 25be FEF7A7B8 		b	.L195
 8591              	.LVL1205:
 8592              	.L606:
 8593              	.LBE956:
ARM GAS  /tmp/cc6wDDAF.s 			page 213


 8594              	.LBE955:
 324:Drivers/lvgl/lvgl/src/extra/themes/default/lv_theme_default.c ****     lv_style_set_pad_gap(&styles->pad_small, PAD_SMALL);
 8595              		.loc 1 324 0 is_stmt 1 discriminator 4
 8596 25c2 1F4B     		ldr	r3, .L835
 8597 25c4 DC68     		ldr	r4, [r3, #12]
 8598              	.LVL1206:
 8599              	.LBB957:
 8600              	.LBB958:
 8601              		.loc 3 257 0 discriminator 4
 8602 25c6 2046     		mov	r0, r4
 8603 25c8 FFF7FEFF 		bl	lv_disp_get_dpi
 8604              	.LVL1207:
 8605 25cc 00EB4000 		add	r0, r0, r0, lsl #1
 8606 25d0 8000     		lsls	r0, r0, #2
 8607 25d2 5030     		adds	r0, r0, #80
 8608 25d4 B0F5A07F 		cmp	r0, #320
 8609 25d8 02DA     		bge	.L749
 8610              		.loc 3 257 0 is_stmt 0
 8611 25da 0124     		movs	r4, #1
 8612              	.LVL1208:
 8613 25dc FEF798B8 		b	.L195
 8614              	.LVL1209:
 8615              	.L749:
 8616 25e0 2046     		mov	r0, r4
 8617 25e2 FFF7FEFF 		bl	lv_disp_get_dpi
 8618              	.LVL1210:
 8619 25e6 00EB4000 		add	r0, r0, r0, lsl #1
 8620 25ea 8000     		lsls	r0, r0, #2
 8621 25ec 5030     		adds	r0, r0, #80
 8622 25ee 154B     		ldr	r3, .L835+4
 8623 25f0 83FB0023 		smull	r2, r3, r3, r0
 8624 25f4 C417     		asrs	r4, r0, #31
 8625              	.LVL1211:
 8626 25f6 C4EBA314 		rsb	r4, r4, r3, asr #6
 8627 25fa 24B2     		sxth	r4, r4
 8628 25fc FEF788B8 		b	.L195
 8629              	.LVL1212:
 8630              	.L607:
 8631              	.LBE958:
 8632              	.LBE957:
 8633              	.LBB959:
 8634              	.LBB624:
 8635 2600 2046     		mov	r0, r4
 8636 2602 FFF7FEFF 		bl	lv_disp_get_dpi
 8637              	.LVL1213:
 8638 2606 00EB8000 		add	r0, r0, r0, lsl #2
 8639 260a 4000     		lsls	r0, r0, #1
 8640 260c 5030     		adds	r0, r0, #80
 8641 260e 0D4B     		ldr	r3, .L835+4
 8642 2610 83FB0023 		smull	r2, r3, r3, r0
 8643 2614 C417     		asrs	r4, r0, #31
 8644              	.LVL1214:
 8645 2616 C4EBA314 		rsb	r4, r4, r3, asr #6
 8646 261a 24B2     		sxth	r4, r4
 8647 261c FEF778B8 		b	.L195
 8648              	.LVL1215:
 8649              	.L608:
ARM GAS  /tmp/cc6wDDAF.s 			page 214


 8650              	.LBE624:
 8651              	.LBE959:
 325:Drivers/lvgl/lvgl/src/extra/themes/default/lv_theme_default.c **** 
 8652              		.loc 1 325 0 is_stmt 1 discriminator 1
 8653 2620 074B     		ldr	r3, .L835
 8654 2622 DC68     		ldr	r4, [r3, #12]
 8655              	.LVL1216:
 8656              	.LBB960:
 8657              	.LBB961:
 8658              		.loc 3 257 0 discriminator 1
 8659 2624 2046     		mov	r0, r4
 8660 2626 FFF7FEFF 		bl	lv_disp_get_dpi
 8661              	.LVL1217:
 8662 262a C0EBC000 		rsb	r0, r0, r0, lsl #3
 8663 262e 4000     		lsls	r0, r0, #1
 8664 2630 5030     		adds	r0, r0, #80
 8665 2632 B0F5A07F 		cmp	r0, #320
 8666 2636 07DA     		bge	.L750
 8667              		.loc 3 257 0 is_stmt 0
 8668 2638 0124     		movs	r4, #1
 8669              	.LVL1218:
 8670 263a FEF792B8 		b	.L201
 8671              	.L836:
 8672 263e 00BF     		.align	2
 8673              	.L835:
 8674 2640 00000000 		.word	.LANCHOR2
 8675 2644 67666666 		.word	1717986919
 8676              	.LVL1219:
 8677              	.L750:
 8678 2648 2046     		mov	r0, r4
 8679 264a FFF7FEFF 		bl	lv_disp_get_dpi
 8680              	.LVL1220:
 8681 264e C0EBC000 		rsb	r0, r0, r0, lsl #3
 8682 2652 4000     		lsls	r0, r0, #1
 8683 2654 5030     		adds	r0, r0, #80
 8684 2656 D74B     		ldr	r3, .L837
 8685 2658 83FB0023 		smull	r2, r3, r3, r0
 8686 265c C417     		asrs	r4, r0, #31
 8687              	.LVL1221:
 8688 265e C4EBA314 		rsb	r4, r4, r3, asr #6
 8689 2662 24B2     		sxth	r4, r4
 8690 2664 FEF77DB8 		b	.L201
 8691              	.LVL1222:
 8692              	.L609:
 8693              	.LBE961:
 8694              	.LBE960:
 325:Drivers/lvgl/lvgl/src/extra/themes/default/lv_theme_default.c **** 
 8695              		.loc 1 325 0 is_stmt 1 discriminator 4
 8696 2668 D34B     		ldr	r3, .L837+4
 8697 266a DC68     		ldr	r4, [r3, #12]
 8698              	.LVL1223:
 8699              	.LBB962:
 8700              	.LBB963:
 8701              		.loc 3 257 0 discriminator 4
 8702 266c 2046     		mov	r0, r4
 8703 266e FFF7FEFF 		bl	lv_disp_get_dpi
 8704              	.LVL1224:
ARM GAS  /tmp/cc6wDDAF.s 			page 215


 8705 2672 00EB4000 		add	r0, r0, r0, lsl #1
 8706 2676 8000     		lsls	r0, r0, #2
 8707 2678 5030     		adds	r0, r0, #80
 8708 267a B0F5A07F 		cmp	r0, #320
 8709 267e 02DA     		bge	.L751
 8710              		.loc 3 257 0 is_stmt 0
 8711 2680 0124     		movs	r4, #1
 8712              	.LVL1225:
 8713 2682 FEF76EB8 		b	.L201
 8714              	.LVL1226:
 8715              	.L751:
 8716 2686 2046     		mov	r0, r4
 8717 2688 FFF7FEFF 		bl	lv_disp_get_dpi
 8718              	.LVL1227:
 8719 268c 00EB4000 		add	r0, r0, r0, lsl #1
 8720 2690 8000     		lsls	r0, r0, #2
 8721 2692 5030     		adds	r0, r0, #80
 8722 2694 C74B     		ldr	r3, .L837
 8723 2696 83FB0023 		smull	r2, r3, r3, r0
 8724 269a C417     		asrs	r4, r0, #31
 8725              	.LVL1228:
 8726 269c C4EBA314 		rsb	r4, r4, r3, asr #6
 8727 26a0 24B2     		sxth	r4, r4
 8728 26a2 FEF75EB8 		b	.L201
 8729              	.LVL1229:
 8730              	.L610:
 8731              	.LBE963:
 8732              	.LBE962:
 8733              	.LBB964:
 8734              	.LBB629:
 8735 26a6 2046     		mov	r0, r4
 8736 26a8 FFF7FEFF 		bl	lv_disp_get_dpi
 8737              	.LVL1230:
 8738 26ac 00EB8000 		add	r0, r0, r0, lsl #2
 8739 26b0 4000     		lsls	r0, r0, #1
 8740 26b2 5030     		adds	r0, r0, #80
 8741 26b4 BF4B     		ldr	r3, .L837
 8742 26b6 83FB0023 		smull	r2, r3, r3, r0
 8743 26ba C417     		asrs	r4, r0, #31
 8744              	.LVL1231:
 8745 26bc C4EBA314 		rsb	r4, r4, r3, asr #6
 8746 26c0 24B2     		sxth	r4, r4
 8747 26c2 FEF74EB8 		b	.L201
 8748              	.LVL1232:
 8749              	.L611:
 8750              	.LBE629:
 8751              	.LBE964:
 8752              	.LBB965:
 8753              	.LBB634:
 8754 26c6 2846     		mov	r0, r5
 8755 26c8 FFF7FEFF 		bl	lv_disp_get_dpi
 8756              	.LVL1233:
 8757 26cc 00EB8000 		add	r0, r0, r0, lsl #2
 8758 26d0 4000     		lsls	r0, r0, #1
 8759 26d2 5030     		adds	r0, r0, #80
 8760 26d4 B74B     		ldr	r3, .L837
 8761 26d6 83FB0023 		smull	r2, r3, r3, r0
ARM GAS  /tmp/cc6wDDAF.s 			page 216


 8762 26da C117     		asrs	r1, r0, #31
 8763 26dc C1EBA311 		rsb	r1, r1, r3, asr #6
 8764 26e0 09B2     		sxth	r1, r1
 8765 26e2 FEF75BB8 		b	.L205
 8766              	.LVL1234:
 8767              	.L612:
 8768              	.LBE634:
 8769              	.LBE965:
 8770              	.LBB966:
 8771              	.LBB637:
 8772 26e6 2846     		mov	r0, r5
 8773 26e8 FFF7FEFF 		bl	lv_disp_get_dpi
 8774              	.LVL1235:
 8775 26ec 00EB8000 		add	r0, r0, r0, lsl #2
 8776 26f0 4000     		lsls	r0, r0, #1
 8777 26f2 5030     		adds	r0, r0, #80
 8778 26f4 AF4B     		ldr	r3, .L837
 8779 26f6 83FB0023 		smull	r2, r3, r3, r0
 8780 26fa C117     		asrs	r1, r0, #31
 8781 26fc C1EBA311 		rsb	r1, r1, r3, asr #6
 8782 2700 09B2     		sxth	r1, r1
 8783 2702 FEF75FB8 		b	.L206
 8784              	.LVL1236:
 8785              	.L613:
 8786              	.LBE637:
 8787              	.LBE966:
 8788              	.LBB967:
 8789              	.LBB640:
 8790 2706 2846     		mov	r0, r5
 8791 2708 FFF7FEFF 		bl	lv_disp_get_dpi
 8792              	.LVL1237:
 8793 270c 00EB8000 		add	r0, r0, r0, lsl #2
 8794 2710 8000     		lsls	r0, r0, #2
 8795 2712 5030     		adds	r0, r0, #80
 8796 2714 A74B     		ldr	r3, .L837
 8797 2716 83FB0023 		smull	r2, r3, r3, r0
 8798 271a C117     		asrs	r1, r0, #31
 8799 271c C1EBA311 		rsb	r1, r1, r3, asr #6
 8800 2720 09B2     		sxth	r1, r1
 8801 2722 FEF767B8 		b	.L207
 8802              	.LVL1238:
 8803              	.L614:
 8804              	.LBE640:
 8805              	.LBE967:
 343:Drivers/lvgl/lvgl/src/extra/themes/default/lv_theme_default.c ****     lv_style_set_pad_row(&styles->pad_tiny, PAD_TINY);
 8806              		.loc 1 343 0 is_stmt 1 discriminator 1
 8807 2726 A44B     		ldr	r3, .L837+4
 8808 2728 DC68     		ldr	r4, [r3, #12]
 8809              	.LVL1239:
 8810              	.LBB968:
 8811              	.LBB969:
 8812              		.loc 3 257 0 discriminator 1
 8813 272a 2046     		mov	r0, r4
 8814 272c FFF7FEFF 		bl	lv_disp_get_dpi
 8815              	.LVL1240:
 8816 2730 C000     		lsls	r0, r0, #3
 8817 2732 5030     		adds	r0, r0, #80
ARM GAS  /tmp/cc6wDDAF.s 			page 217


 8818 2734 B0F5A07F 		cmp	r0, #320
 8819 2738 02DA     		bge	.L752
 8820              		.loc 3 257 0 is_stmt 0
 8821 273a 0124     		movs	r4, #1
 8822              	.LVL1241:
 8823 273c FEF7A1B8 		b	.L210
 8824              	.LVL1242:
 8825              	.L752:
 8826 2740 2046     		mov	r0, r4
 8827 2742 FFF7FEFF 		bl	lv_disp_get_dpi
 8828              	.LVL1243:
 8829 2746 C000     		lsls	r0, r0, #3
 8830 2748 5030     		adds	r0, r0, #80
 8831 274a 9A4B     		ldr	r3, .L837
 8832 274c 83FB0023 		smull	r2, r3, r3, r0
 8833 2750 C417     		asrs	r4, r0, #31
 8834              	.LVL1244:
 8835 2752 C4EBA314 		rsb	r4, r4, r3, asr #6
 8836 2756 24B2     		sxth	r4, r4
 8837 2758 FEF793B8 		b	.L210
 8838              	.LVL1245:
 8839              	.L615:
 8840              	.LBE969:
 8841              	.LBE968:
 343:Drivers/lvgl/lvgl/src/extra/themes/default/lv_theme_default.c ****     lv_style_set_pad_row(&styles->pad_tiny, PAD_TINY);
 8842              		.loc 1 343 0 is_stmt 1 discriminator 4
 8843 275c 964B     		ldr	r3, .L837+4
 8844 275e DC68     		ldr	r4, [r3, #12]
 8845              	.LVL1246:
 8846              	.LBB970:
 8847              	.LBB971:
 8848              		.loc 3 257 0 discriminator 4
 8849 2760 2046     		mov	r0, r4
 8850 2762 FFF7FEFF 		bl	lv_disp_get_dpi
 8851              	.LVL1247:
 8852 2766 00EB4000 		add	r0, r0, r0, lsl #1
 8853 276a 4000     		lsls	r0, r0, #1
 8854 276c 5030     		adds	r0, r0, #80
 8855 276e B0F5A07F 		cmp	r0, #320
 8856 2772 02DA     		bge	.L753
 8857              		.loc 3 257 0 is_stmt 0
 8858 2774 0124     		movs	r4, #1
 8859              	.LVL1248:
 8860 2776 FEF784B8 		b	.L210
 8861              	.LVL1249:
 8862              	.L753:
 8863 277a 2046     		mov	r0, r4
 8864 277c FFF7FEFF 		bl	lv_disp_get_dpi
 8865              	.LVL1250:
 8866 2780 00EB4000 		add	r0, r0, r0, lsl #1
 8867 2784 4000     		lsls	r0, r0, #1
 8868 2786 5030     		adds	r0, r0, #80
 8869 2788 8A4B     		ldr	r3, .L837
 8870 278a 83FB0023 		smull	r2, r3, r3, r0
 8871 278e C417     		asrs	r4, r0, #31
 8872              	.LVL1251:
 8873 2790 C4EBA314 		rsb	r4, r4, r3, asr #6
ARM GAS  /tmp/cc6wDDAF.s 			page 218


 8874 2794 24B2     		sxth	r4, r4
 8875 2796 FEF774B8 		b	.L210
 8876              	.LVL1252:
 8877              	.L616:
 8878              	.LBE971:
 8879              	.LBE970:
 8880              	.LBB972:
 8881              	.LBB645:
 8882 279a 2046     		mov	r0, r4
 8883 279c FFF7FEFF 		bl	lv_disp_get_dpi
 8884              	.LVL1253:
 8885 27a0 4000     		lsls	r0, r0, #1
 8886 27a2 5030     		adds	r0, r0, #80
 8887 27a4 834B     		ldr	r3, .L837
 8888 27a6 83FB0023 		smull	r2, r3, r3, r0
 8889 27aa C417     		asrs	r4, r0, #31
 8890              	.LVL1254:
 8891 27ac C4EBA314 		rsb	r4, r4, r3, asr #6
 8892 27b0 24B2     		sxth	r4, r4
 8893 27b2 FEF766B8 		b	.L210
 8894              	.LVL1255:
 8895              	.L617:
 8896              	.LBE645:
 8897              	.LBE972:
 344:Drivers/lvgl/lvgl/src/extra/themes/default/lv_theme_default.c ****     lv_style_set_pad_column(&styles->pad_tiny, PAD_TINY);
 8898              		.loc 1 344 0 is_stmt 1 discriminator 1
 8899 27b6 804B     		ldr	r3, .L837+4
 8900 27b8 DD68     		ldr	r5, [r3, #12]
 8901              	.LVL1256:
 8902              	.LBB973:
 8903              	.LBB974:
 8904              		.loc 3 257 0 discriminator 1
 8905 27ba 2846     		mov	r0, r5
 8906 27bc FFF7FEFF 		bl	lv_disp_get_dpi
 8907              	.LVL1257:
 8908 27c0 C000     		lsls	r0, r0, #3
 8909 27c2 5030     		adds	r0, r0, #80
 8910 27c4 B0F5A07F 		cmp	r0, #320
 8911 27c8 02DA     		bge	.L754
 8912              		.loc 3 257 0 is_stmt 0
 8913 27ca 0121     		movs	r1, #1
 8914              	.LVL1258:
 8915 27cc FEF780B8 		b	.L216
 8916              	.LVL1259:
 8917              	.L754:
 8918 27d0 2846     		mov	r0, r5
 8919 27d2 FFF7FEFF 		bl	lv_disp_get_dpi
 8920              	.LVL1260:
 8921 27d6 C000     		lsls	r0, r0, #3
 8922 27d8 5030     		adds	r0, r0, #80
 8923 27da 764B     		ldr	r3, .L837
 8924 27dc 83FB0023 		smull	r2, r3, r3, r0
 8925 27e0 C117     		asrs	r1, r0, #31
 8926 27e2 C1EBA311 		rsb	r1, r1, r3, asr #6
 8927 27e6 09B2     		sxth	r1, r1
 8928 27e8 FEF772B8 		b	.L216
 8929              	.LVL1261:
ARM GAS  /tmp/cc6wDDAF.s 			page 219


 8930              	.L618:
 8931              	.LBE974:
 8932              	.LBE973:
 344:Drivers/lvgl/lvgl/src/extra/themes/default/lv_theme_default.c ****     lv_style_set_pad_column(&styles->pad_tiny, PAD_TINY);
 8933              		.loc 1 344 0 is_stmt 1 discriminator 4
 8934 27ec 724B     		ldr	r3, .L837+4
 8935 27ee DD68     		ldr	r5, [r3, #12]
 8936              	.LVL1262:
 8937              	.LBB975:
 8938              	.LBB976:
 8939              		.loc 3 257 0 discriminator 4
 8940 27f0 2846     		mov	r0, r5
 8941 27f2 FFF7FEFF 		bl	lv_disp_get_dpi
 8942              	.LVL1263:
 8943 27f6 00EB4000 		add	r0, r0, r0, lsl #1
 8944 27fa 4000     		lsls	r0, r0, #1
 8945 27fc 5030     		adds	r0, r0, #80
 8946 27fe B0F5A07F 		cmp	r0, #320
 8947 2802 02DA     		bge	.L755
 8948              		.loc 3 257 0 is_stmt 0
 8949 2804 0121     		movs	r1, #1
 8950              	.LVL1264:
 8951 2806 FEF763B8 		b	.L216
 8952              	.LVL1265:
 8953              	.L755:
 8954 280a 2846     		mov	r0, r5
 8955 280c FFF7FEFF 		bl	lv_disp_get_dpi
 8956              	.LVL1266:
 8957 2810 00EB4000 		add	r0, r0, r0, lsl #1
 8958 2814 4000     		lsls	r0, r0, #1
 8959 2816 5030     		adds	r0, r0, #80
 8960 2818 664B     		ldr	r3, .L837
 8961 281a 83FB0023 		smull	r2, r3, r3, r0
 8962 281e C117     		asrs	r1, r0, #31
 8963 2820 C1EBA311 		rsb	r1, r1, r3, asr #6
 8964 2824 09B2     		sxth	r1, r1
 8965 2826 FEF753B8 		b	.L216
 8966              	.LVL1267:
 8967              	.L619:
 8968              	.LBE976:
 8969              	.LBE975:
 8970              	.LBB977:
 8971              	.LBB650:
 8972 282a 2846     		mov	r0, r5
 8973 282c FFF7FEFF 		bl	lv_disp_get_dpi
 8974              	.LVL1268:
 8975 2830 4000     		lsls	r0, r0, #1
 8976 2832 5030     		adds	r0, r0, #80
 8977 2834 5F4B     		ldr	r3, .L837
 8978 2836 83FB0023 		smull	r2, r3, r3, r0
 8979 283a C117     		asrs	r1, r0, #31
 8980 283c C1EBA311 		rsb	r1, r1, r3, asr #6
 8981 2840 09B2     		sxth	r1, r1
 8982 2842 FEF745B8 		b	.L216
 8983              	.LVL1269:
 8984              	.L620:
 8985              	.LBE650:
ARM GAS  /tmp/cc6wDDAF.s 			page 220


 8986              	.LBE977:
 345:Drivers/lvgl/lvgl/src/extra/themes/default/lv_theme_default.c **** 
 8987              		.loc 1 345 0 is_stmt 1 discriminator 1
 8988 2846 5C4B     		ldr	r3, .L837+4
 8989 2848 DD68     		ldr	r5, [r3, #12]
 8990              	.LVL1270:
 8991              	.LBB978:
 8992              	.LBB979:
 8993              		.loc 3 257 0 discriminator 1
 8994 284a 2846     		mov	r0, r5
 8995 284c FFF7FEFF 		bl	lv_disp_get_dpi
 8996              	.LVL1271:
 8997 2850 C000     		lsls	r0, r0, #3
 8998 2852 5030     		adds	r0, r0, #80
 8999 2854 B0F5A07F 		cmp	r0, #320
 9000 2858 02DA     		bge	.L756
 9001              		.loc 3 257 0 is_stmt 0
 9002 285a 0121     		movs	r1, #1
 9003              	.LVL1272:
 9004 285c FEF752B8 		b	.L222
 9005              	.LVL1273:
 9006              	.L756:
 9007 2860 2846     		mov	r0, r5
 9008 2862 FFF7FEFF 		bl	lv_disp_get_dpi
 9009              	.LVL1274:
 9010 2866 C000     		lsls	r0, r0, #3
 9011 2868 5030     		adds	r0, r0, #80
 9012 286a 524B     		ldr	r3, .L837
 9013 286c 83FB0023 		smull	r2, r3, r3, r0
 9014 2870 C117     		asrs	r1, r0, #31
 9015 2872 C1EBA311 		rsb	r1, r1, r3, asr #6
 9016 2876 09B2     		sxth	r1, r1
 9017 2878 FEF744B8 		b	.L222
 9018              	.LVL1275:
 9019              	.L621:
 9020              	.LBE979:
 9021              	.LBE978:
 345:Drivers/lvgl/lvgl/src/extra/themes/default/lv_theme_default.c **** 
 9022              		.loc 1 345 0 is_stmt 1 discriminator 4
 9023 287c 4E4B     		ldr	r3, .L837+4
 9024 287e DD68     		ldr	r5, [r3, #12]
 9025              	.LVL1276:
 9026              	.LBB980:
 9027              	.LBB981:
 9028              		.loc 3 257 0 discriminator 4
 9029 2880 2846     		mov	r0, r5
 9030 2882 FFF7FEFF 		bl	lv_disp_get_dpi
 9031              	.LVL1277:
 9032 2886 00EB4000 		add	r0, r0, r0, lsl #1
 9033 288a 4000     		lsls	r0, r0, #1
 9034 288c 5030     		adds	r0, r0, #80
 9035 288e B0F5A07F 		cmp	r0, #320
 9036 2892 02DA     		bge	.L757
 9037              		.loc 3 257 0 is_stmt 0
 9038 2894 0121     		movs	r1, #1
 9039              	.LVL1278:
 9040 2896 FEF735B8 		b	.L222
ARM GAS  /tmp/cc6wDDAF.s 			page 221


 9041              	.LVL1279:
 9042              	.L757:
 9043 289a 2846     		mov	r0, r5
 9044 289c FFF7FEFF 		bl	lv_disp_get_dpi
 9045              	.LVL1280:
 9046 28a0 00EB4000 		add	r0, r0, r0, lsl #1
 9047 28a4 4000     		lsls	r0, r0, #1
 9048 28a6 5030     		adds	r0, r0, #80
 9049 28a8 424B     		ldr	r3, .L837
 9050 28aa 83FB0023 		smull	r2, r3, r3, r0
 9051 28ae C117     		asrs	r1, r0, #31
 9052 28b0 C1EBA311 		rsb	r1, r1, r3, asr #6
 9053 28b4 09B2     		sxth	r1, r1
 9054 28b6 FEF725B8 		b	.L222
 9055              	.LVL1281:
 9056              	.L622:
 9057              	.LBE981:
 9058              	.LBE980:
 9059              	.LBB982:
 9060              	.LBB653:
 9061 28ba 2846     		mov	r0, r5
 9062 28bc FFF7FEFF 		bl	lv_disp_get_dpi
 9063              	.LVL1282:
 9064 28c0 4000     		lsls	r0, r0, #1
 9065 28c2 5030     		adds	r0, r0, #80
 9066 28c4 3B4B     		ldr	r3, .L837
 9067 28c6 83FB0023 		smull	r2, r3, r3, r0
 9068 28ca C117     		asrs	r1, r0, #31
 9069 28cc C1EBA311 		rsb	r1, r1, r3, asr #6
 9070 28d0 09B2     		sxth	r1, r1
 9071 28d2 FEF717B8 		b	.L222
 9072              	.LVL1283:
 9073              	.L623:
 9074              	.LBE653:
 9075              	.LBE982:
 9076              	.LBB983:
 9077              	.LBB656:
 9078 28d6 2846     		mov	r0, r5
 9079 28d8 FFF7FEFF 		bl	lv_disp_get_dpi
 9080              	.LVL1284:
 9081 28dc 00EB4000 		add	r0, r0, r0, lsl #1
 9082 28e0 5030     		adds	r0, r0, #80
 9083 28e2 344B     		ldr	r3, .L837
 9084 28e4 83FB0023 		smull	r2, r3, r3, r0
 9085 28e8 C117     		asrs	r1, r0, #31
 9086 28ea C1EBA311 		rsb	r1, r1, r3, asr #6
 9087 28ee 09B2     		sxth	r1, r1
 9088 28f0 FEF7B6B8 		b	.L226
 9089              	.LVL1285:
 9090              	.L624:
 9091              	.LBE656:
 9092              	.LBE983:
 9093              	.LBB984:
 9094              	.LBB659:
 9095 28f4 2846     		mov	r0, r5
 9096 28f6 FFF7FEFF 		bl	lv_disp_get_dpi
 9097              	.LVL1286:
ARM GAS  /tmp/cc6wDDAF.s 			page 222


 9098 28fa 00EB4000 		add	r0, r0, r0, lsl #1
 9099 28fe 5030     		adds	r0, r0, #80
 9100 2900 2C4B     		ldr	r3, .L837
 9101 2902 83FB0023 		smull	r2, r3, r3, r0
 9102 2906 C117     		asrs	r1, r0, #31
 9103 2908 C1EBA311 		rsb	r1, r1, r3, asr #6
 9104 290c 09B2     		sxth	r1, r1
 9105 290e FEF7BAB8 		b	.L227
 9106              	.LVL1287:
 9107              	.L625:
 9108              	.LBE659:
 9109              	.LBE984:
 9110              	.LBB985:
 9111              	.LBB662:
 9112 2912 2046     		mov	r0, r4
 9113 2914 FFF7FEFF 		bl	lv_disp_get_dpi
 9114              	.LVL1288:
 9115 2918 00EB4000 		add	r0, r0, r0, lsl #1
 9116 291c 4000     		lsls	r0, r0, #1
 9117 291e 5030     		adds	r0, r0, #80
 9118 2920 244B     		ldr	r3, .L837
 9119 2922 83FB0023 		smull	r2, r3, r3, r0
 9120 2926 C417     		asrs	r4, r0, #31
 9121              	.LVL1289:
 9122 2928 C4EBA314 		rsb	r4, r4, r3, asr #6
 9123 292c 24B2     		sxth	r4, r4
 9124 292e FEF7CCB8 		b	.L228
 9125              	.LVL1290:
 9126              	.L626:
 9127              	.LBE662:
 9128              	.LBE985:
 9129              	.LBB986:
 9130              	.LBB667:
 9131 2932 2846     		mov	r0, r5
 9132 2934 FFF7FEFF 		bl	lv_disp_get_dpi
 9133              	.LVL1291:
 9134 2938 C0EB0010 		rsb	r0, r0, r0, lsl #4
 9135 293c 5030     		adds	r0, r0, #80
 9136 293e 1D4B     		ldr	r3, .L837
 9137 2940 83FB0023 		smull	r2, r3, r3, r0
 9138 2944 C117     		asrs	r1, r0, #31
 9139 2946 C1EBA311 		rsb	r1, r1, r3, asr #6
 9140 294a 09B2     		sxth	r1, r1
 9141 294c FEF702B9 		b	.L229
 9142              	.LVL1292:
 9143              	.L627:
 9144              	.LBE667:
 9145              	.LBE986:
 9146              	.LBB987:
 9147              	.LBB670:
 9148 2950 2046     		mov	r0, r4
 9149 2952 FFF7FEFF 		bl	lv_disp_get_dpi
 9150              	.LVL1293:
 9151 2956 00EB4000 		add	r0, r0, r0, lsl #1
 9152 295a 5030     		adds	r0, r0, #80
 9153 295c 154B     		ldr	r3, .L837
 9154 295e 83FB0023 		smull	r2, r3, r3, r0
ARM GAS  /tmp/cc6wDDAF.s 			page 223


 9155 2962 C417     		asrs	r4, r0, #31
 9156              	.LVL1294:
 9157 2964 C4EBA314 		rsb	r4, r4, r3, asr #6
 9158 2968 24B2     		sxth	r4, r4
 9159 296a FEF729B9 		b	.L230
 9160              	.LVL1295:
 9161              	.L628:
 9162              	.LBE670:
 9163              	.LBE987:
 9164              	.LBB988:
 9165              	.LBB675:
 9166 296e 2846     		mov	r0, r5
 9167 2970 FFF7FEFF 		bl	lv_disp_get_dpi
 9168              	.LVL1296:
 9169 2974 4000     		lsls	r0, r0, #1
 9170 2976 5030     		adds	r0, r0, #80
 9171 2978 0E4B     		ldr	r3, .L837
 9172 297a 83FB0023 		smull	r2, r3, r3, r0
 9173 297e C117     		asrs	r1, r0, #31
 9174 2980 C1EBA311 		rsb	r1, r1, r3, asr #6
 9175 2984 09B2     		sxth	r1, r1
 9176 2986 FEF73BB9 		b	.L231
 9177              	.LVL1297:
 9178              	.L629:
 9179              	.LBE675:
 9180              	.LBE988:
 422:Drivers/lvgl/lvgl/src/extra/themes/default/lv_theme_default.c **** 
 9181              		.loc 1 422 0 is_stmt 1 discriminator 1
 9182 298a 0B4B     		ldr	r3, .L837+4
 9183 298c DD68     		ldr	r5, [r3, #12]
 9184              	.LVL1298:
 9185              	.LBB989:
 9186              	.LBB990:
 9187              		.loc 3 257 0 discriminator 1
 9188 298e 2846     		mov	r0, r5
 9189 2990 FFF7FEFF 		bl	lv_disp_get_dpi
 9190              	.LVL1299:
 9191 2994 00EB4000 		add	r0, r0, r0, lsl #1
 9192 2998 8000     		lsls	r0, r0, #2
 9193 299a 5030     		adds	r0, r0, #80
 9194 299c B0F5A07F 		cmp	r0, #320
 9195 29a0 0CDA     		bge	.L758
 9196              		.loc 3 257 0 is_stmt 0
 9197 29a2 0123     		movs	r3, #1
 9198              	.L233:
 9199              	.LVL1300:
 9200              	.LBE990:
 9201              	.LBE989:
 422:Drivers/lvgl/lvgl/src/extra/themes/default/lv_theme_default.c **** 
 9202              		.loc 1 422 0 is_stmt 1
 9203 29a4 1946     		mov	r1, r3
 9204 29a6 002B     		cmp	r3, #0
 9205 29a8 17DB     		blt	.L759
 9206              	.L234:
 9207 29aa 41F34F01 		sbfx	r1, r1, #1, #16
 9208 29ae FEF759B9 		b	.L235
 9209              	.L838:
ARM GAS  /tmp/cc6wDDAF.s 			page 224


 9210 29b2 00BF     		.align	2
 9211              	.L837:
 9212 29b4 67666666 		.word	1717986919
 9213 29b8 00000000 		.word	.LANCHOR2
 9214              	.LVL1301:
 9215              	.L758:
 9216              	.LBB992:
 9217              	.LBB991:
 9218              		.loc 3 257 0
 9219 29bc 2846     		mov	r0, r5
 9220 29be FFF7FEFF 		bl	lv_disp_get_dpi
 9221              	.LVL1302:
 9222 29c2 00EB4000 		add	r0, r0, r0, lsl #1
 9223 29c6 8000     		lsls	r0, r0, #2
 9224 29c8 5030     		adds	r0, r0, #80
 9225 29ca D94A     		ldr	r2, .L839
 9226 29cc 82FB0032 		smull	r3, r2, r2, r0
 9227 29d0 C317     		asrs	r3, r0, #31
 9228 29d2 C3EBA213 		rsb	r3, r3, r2, asr #6
 9229 29d6 1BB2     		sxth	r3, r3
 9230 29d8 E4E7     		b	.L233
 9231              	.LVL1303:
 9232              	.L759:
 9233              	.LBE991:
 9234              	.LBE992:
 422:Drivers/lvgl/lvgl/src/extra/themes/default/lv_theme_default.c **** 
 9235              		.loc 1 422 0
 9236 29da 591C     		adds	r1, r3, #1
 9237 29dc E5E7     		b	.L234
 9238              	.LVL1304:
 9239              	.L630:
 9240              	.LBB993:
 9241              	.LBB678:
 9242              		.loc 3 257 0
 9243 29de 2846     		mov	r0, r5
 9244 29e0 FFF7FEFF 		bl	lv_disp_get_dpi
 9245              	.LVL1305:
 9246 29e4 C000     		lsls	r0, r0, #3
 9247 29e6 5030     		adds	r0, r0, #80
 9248 29e8 D14A     		ldr	r2, .L839
 9249 29ea 82FB0032 		smull	r3, r2, r2, r0
 9250 29ee C317     		asrs	r3, r0, #31
 9251 29f0 C3EBA213 		rsb	r3, r3, r2, asr #6
 9252 29f4 1BB2     		sxth	r3, r3
 9253 29f6 FEF72FB9 		b	.L236
 9254              	.LVL1306:
 9255              	.L631:
 9256              	.LBE678:
 9257              	.LBE993:
 422:Drivers/lvgl/lvgl/src/extra/themes/default/lv_theme_default.c **** 
 9258              		.loc 1 422 0
 9259 29fa 591C     		adds	r1, r3, #1
 9260 29fc FEF730B9 		b	.L237
 9261              	.LVL1307:
 9262              	.L632:
 9263              	.LBB994:
 9264              	.LBB681:
ARM GAS  /tmp/cc6wDDAF.s 			page 225


 9265              		.loc 3 257 0
 9266 2a00 2046     		mov	r0, r4
 9267 2a02 FFF7FEFF 		bl	lv_disp_get_dpi
 9268              	.LVL1308:
 9269 2a06 8000     		lsls	r0, r0, #2
 9270 2a08 5030     		adds	r0, r0, #80
 9271 2a0a C94B     		ldr	r3, .L839
 9272 2a0c 83FB0023 		smull	r2, r3, r3, r0
 9273 2a10 C417     		asrs	r4, r0, #31
 9274              	.LVL1309:
 9275 2a12 C4EBA314 		rsb	r4, r4, r3, asr #6
 9276 2a16 24B2     		sxth	r4, r4
 9277 2a18 FEF754B9 		b	.L238
 9278              	.LVL1310:
 9279              	.L633:
 9280              	.LBE681:
 9281              	.LBE994:
 9282              	.LBB995:
 9283              	.LBB686:
 9284 2a1c 2846     		mov	r0, r5
 9285 2a1e FFF7FEFF 		bl	lv_disp_get_dpi
 9286              	.LVL1311:
 9287 2a22 00EB8000 		add	r0, r0, r0, lsl #2
 9288 2a26 4000     		lsls	r0, r0, #1
 9289 2a28 5030     		adds	r0, r0, #80
 9290 2a2a C14B     		ldr	r3, .L839
 9291 2a2c 83FB0023 		smull	r2, r3, r3, r0
 9292 2a30 C117     		asrs	r1, r0, #31
 9293 2a32 C1EBA311 		rsb	r1, r1, r3, asr #6
 9294 2a36 09B2     		sxth	r1, r1
 9295 2a38 FEF78DB9 		b	.L239
 9296              	.LVL1312:
 9297              	.L634:
 9298              	.LBE686:
 9299              	.LBE995:
 9300              	.LBB996:
 9301              	.LBB689:
 9302 2a3c 2846     		mov	r0, r5
 9303 2a3e FFF7FEFF 		bl	lv_disp_get_dpi
 9304              	.LVL1313:
 9305 2a42 00EB4000 		add	r0, r0, r0, lsl #1
 9306 2a46 5030     		adds	r0, r0, #80
 9307 2a48 B94B     		ldr	r3, .L839
 9308 2a4a 83FB0023 		smull	r2, r3, r3, r0
 9309 2a4e C117     		asrs	r1, r0, #31
 9310 2a50 C1EBA311 		rsb	r1, r1, r3, asr #6
 9311 2a54 09B2     		sxth	r1, r1
 9312 2a56 FEF79EB9 		b	.L240
 9313              	.LVL1314:
 9314              	.L635:
 9315              	.LBE689:
 9316              	.LBE996:
 9317              	.LBB997:
 9318              	.LBB692:
 9319 2a5a 2846     		mov	r0, r5
 9320 2a5c FFF7FEFF 		bl	lv_disp_get_dpi
 9321              	.LVL1315:
ARM GAS  /tmp/cc6wDDAF.s 			page 226


 9322 2a60 00EB4000 		add	r0, r0, r0, lsl #1
 9323 2a64 5030     		adds	r0, r0, #80
 9324 2a66 B24B     		ldr	r3, .L839
 9325 2a68 83FB0023 		smull	r2, r3, r3, r0
 9326 2a6c C117     		asrs	r1, r0, #31
 9327 2a6e C1EBA311 		rsb	r1, r1, r3, asr #6
 9328 2a72 09B2     		sxth	r1, r1
 9329 2a74 FEF7B2B9 		b	.L241
 9330              	.LVL1316:
 9331              	.L636:
 9332              	.LBE692:
 9333              	.LBE997:
 9334              	.LBB998:
 9335              	.LBB695:
 9336 2a78 2046     		mov	r0, r4
 9337 2a7a FFF7FEFF 		bl	lv_disp_get_dpi
 9338              	.LVL1317:
 9339 2a7e C000     		lsls	r0, r0, #3
 9340 2a80 5030     		adds	r0, r0, #80
 9341 2a82 AB4B     		ldr	r3, .L839
 9342 2a84 83FB0023 		smull	r2, r3, r3, r0
 9343 2a88 C417     		asrs	r4, r0, #31
 9344              	.LVL1318:
 9345 2a8a C4EBA314 		rsb	r4, r4, r3, asr #6
 9346 2a8e 24B2     		sxth	r4, r4
 9347 2a90 FEF7B7B9 		b	.L242
 9348              	.LVL1319:
 9349              	.L637:
 9350              	.LBE695:
 9351              	.LBE998:
 9352              	.LBB999:
 9353              	.LBB700:
 9354 2a94 2846     		mov	r0, r5
 9355 2a96 FFF7FEFF 		bl	lv_disp_get_dpi
 9356              	.LVL1320:
 9357 2a9a 4000     		lsls	r0, r0, #1
 9358 2a9c 5030     		adds	r0, r0, #80
 9359 2a9e A44B     		ldr	r3, .L839
 9360 2aa0 83FB0023 		smull	r2, r3, r3, r0
 9361 2aa4 C117     		asrs	r1, r0, #31
 9362 2aa6 C1EBA311 		rsb	r1, r1, r3, asr #6
 9363 2aaa 09B2     		sxth	r1, r1
 9364 2aac FEF7C1B9 		b	.L243
 9365              	.LVL1321:
 9366              	.L638:
 9367              	.LBE700:
 9368              	.LBE999:
 9369              	.LBB1000:
 9370              	.LBB703:
 9371 2ab0 2046     		mov	r0, r4
 9372 2ab2 FFF7FEFF 		bl	lv_disp_get_dpi
 9373              	.LVL1322:
 9374 2ab6 C000     		lsls	r0, r0, #3
 9375 2ab8 5030     		adds	r0, r0, #80
 9376 2aba 9D4B     		ldr	r3, .L839
 9377 2abc 83FB0023 		smull	r2, r3, r3, r0
 9378 2ac0 C417     		asrs	r4, r0, #31
ARM GAS  /tmp/cc6wDDAF.s 			page 227


 9379              	.LVL1323:
 9380 2ac2 C4EBA314 		rsb	r4, r4, r3, asr #6
 9381 2ac6 24B2     		sxth	r4, r4
 9382 2ac8 FEF7D2B9 		b	.L244
 9383              	.LVL1324:
 9384              	.L639:
 9385              	.LBE703:
 9386              	.LBE1000:
 9387              	.LBB1001:
 9388              	.LBB708:
 9389 2acc 2846     		mov	r0, r5
 9390 2ace FFF7FEFF 		bl	lv_disp_get_dpi
 9391              	.LVL1325:
 9392 2ad2 5030     		adds	r0, r0, #80
 9393 2ad4 964B     		ldr	r3, .L839
 9394 2ad6 83FB0023 		smull	r2, r3, r3, r0
 9395 2ada C117     		asrs	r1, r0, #31
 9396 2adc C1EBA311 		rsb	r1, r1, r3, asr #6
 9397 2ae0 09B2     		sxth	r1, r1
 9398 2ae2 FEF7EDB9 		b	.L245
 9399              	.LVL1326:
 9400              	.L640:
 9401              	.LBE708:
 9402              	.LBE1001:
 9403              	.LBB1002:
 9404              	.LBB711:
 9405 2ae6 2046     		mov	r0, r4
 9406 2ae8 FFF7FEFF 		bl	lv_disp_get_dpi
 9407              	.LVL1327:
 9408 2aec 4000     		lsls	r0, r0, #1
 9409 2aee 5030     		adds	r0, r0, #80
 9410 2af0 8F4B     		ldr	r3, .L839
 9411 2af2 83FB0023 		smull	r2, r3, r3, r0
 9412 2af6 C417     		asrs	r4, r0, #31
 9413              	.LVL1328:
 9414 2af8 C4EBA314 		rsb	r4, r4, r3, asr #6
 9415 2afc 24B2     		sxth	r4, r4
 9416 2afe FEF7F9B9 		b	.L246
 9417              	.LVL1329:
 9418              	.L641:
 9419              	.LBE711:
 9420              	.LBE1002:
 476:Drivers/lvgl/lvgl/src/extra/themes/default/lv_theme_default.c ****     lv_style_set_clip_corner(&styles->menu_section, true);
 9421              		.loc 1 476 0 discriminator 1
 9422 2b02 8C4B     		ldr	r3, .L839+4
 9423 2b04 DD68     		ldr	r5, [r3, #12]
 9424              	.LVL1330:
 9425              	.LBB1003:
 9426              	.LBB1004:
 9427              		.loc 3 257 0 discriminator 1
 9428 2b06 2846     		mov	r0, r5
 9429 2b08 FFF7FEFF 		bl	lv_disp_get_dpi
 9430              	.LVL1331:
 9431 2b0c 00EB4000 		add	r0, r0, r0, lsl #1
 9432 2b10 8000     		lsls	r0, r0, #2
 9433 2b12 5030     		adds	r0, r0, #80
 9434 2b14 B0F5A07F 		cmp	r0, #320
ARM GAS  /tmp/cc6wDDAF.s 			page 228


 9435 2b18 02DA     		bge	.L760
 9436              		.loc 3 257 0 is_stmt 0
 9437 2b1a 0121     		movs	r1, #1
 9438              	.LVL1332:
 9439 2b1c FEF752BA 		b	.L249
 9440              	.LVL1333:
 9441              	.L760:
 9442 2b20 2846     		mov	r0, r5
 9443 2b22 FFF7FEFF 		bl	lv_disp_get_dpi
 9444              	.LVL1334:
 9445 2b26 00EB4000 		add	r0, r0, r0, lsl #1
 9446 2b2a 8000     		lsls	r0, r0, #2
 9447 2b2c 5030     		adds	r0, r0, #80
 9448 2b2e 804B     		ldr	r3, .L839
 9449 2b30 83FB0023 		smull	r2, r3, r3, r0
 9450 2b34 C117     		asrs	r1, r0, #31
 9451 2b36 C1EBA311 		rsb	r1, r1, r3, asr #6
 9452 2b3a 09B2     		sxth	r1, r1
 9453 2b3c FEF742BA 		b	.L249
 9454              	.LVL1335:
 9455              	.L642:
 9456              	.LBE1004:
 9457              	.LBE1003:
 9458              	.LBB1005:
 9459              	.LBB720:
 9460 2b40 2846     		mov	r0, r5
 9461 2b42 FFF7FEFF 		bl	lv_disp_get_dpi
 9462              	.LVL1336:
 9463 2b46 C000     		lsls	r0, r0, #3
 9464 2b48 5030     		adds	r0, r0, #80
 9465 2b4a 794B     		ldr	r3, .L839
 9466 2b4c 83FB0023 		smull	r2, r3, r3, r0
 9467 2b50 C117     		asrs	r1, r0, #31
 9468 2b52 C1EBA311 		rsb	r1, r1, r3, asr #6
 9469 2b56 09B2     		sxth	r1, r1
 9470 2b58 FEF734BA 		b	.L249
 9471              	.LVL1337:
 9472              	.L643:
 9473              	.LBE720:
 9474              	.LBE1005:
 483:Drivers/lvgl/lvgl/src/extra/themes/default/lv_theme_default.c ****     lv_style_set_pad_ver(&styles->menu_cont, PAD_SMALL);
 9475              		.loc 1 483 0 is_stmt 1 discriminator 1
 9476 2b5c 754B     		ldr	r3, .L839+4
 9477 2b5e DC68     		ldr	r4, [r3, #12]
 9478              	.LVL1338:
 9479              	.LBB1006:
 9480              	.LBB1007:
 9481              		.loc 3 257 0 discriminator 1
 9482 2b60 2046     		mov	r0, r4
 9483 2b62 FFF7FEFF 		bl	lv_disp_get_dpi
 9484              	.LVL1339:
 9485 2b66 C0EBC000 		rsb	r0, r0, r0, lsl #3
 9486 2b6a 4000     		lsls	r0, r0, #1
 9487 2b6c 5030     		adds	r0, r0, #80
 9488 2b6e B0F5A07F 		cmp	r0, #320
 9489 2b72 02DA     		bge	.L761
 9490              		.loc 3 257 0 is_stmt 0
ARM GAS  /tmp/cc6wDDAF.s 			page 229


 9491 2b74 0124     		movs	r4, #1
 9492              	.LVL1340:
 9493 2b76 FEF761BA 		b	.L253
 9494              	.LVL1341:
 9495              	.L761:
 9496 2b7a 2046     		mov	r0, r4
 9497 2b7c FFF7FEFF 		bl	lv_disp_get_dpi
 9498              	.LVL1342:
 9499 2b80 C0EBC000 		rsb	r0, r0, r0, lsl #3
 9500 2b84 4000     		lsls	r0, r0, #1
 9501 2b86 5030     		adds	r0, r0, #80
 9502 2b88 694B     		ldr	r3, .L839
 9503 2b8a 83FB0023 		smull	r2, r3, r3, r0
 9504 2b8e C417     		asrs	r4, r0, #31
 9505              	.LVL1343:
 9506 2b90 C4EBA314 		rsb	r4, r4, r3, asr #6
 9507 2b94 24B2     		sxth	r4, r4
 9508 2b96 FEF751BA 		b	.L253
 9509              	.LVL1344:
 9510              	.L644:
 9511              	.LBE1007:
 9512              	.LBE1006:
 483:Drivers/lvgl/lvgl/src/extra/themes/default/lv_theme_default.c ****     lv_style_set_pad_ver(&styles->menu_cont, PAD_SMALL);
 9513              		.loc 1 483 0 is_stmt 1 discriminator 4
 9514 2b9a 664B     		ldr	r3, .L839+4
 9515 2b9c DC68     		ldr	r4, [r3, #12]
 9516              	.LVL1345:
 9517              	.LBB1008:
 9518              	.LBB1009:
 9519              		.loc 3 257 0 discriminator 4
 9520 2b9e 2046     		mov	r0, r4
 9521 2ba0 FFF7FEFF 		bl	lv_disp_get_dpi
 9522              	.LVL1346:
 9523 2ba4 00EB4000 		add	r0, r0, r0, lsl #1
 9524 2ba8 8000     		lsls	r0, r0, #2
 9525 2baa 5030     		adds	r0, r0, #80
 9526 2bac B0F5A07F 		cmp	r0, #320
 9527 2bb0 02DA     		bge	.L762
 9528              		.loc 3 257 0 is_stmt 0
 9529 2bb2 0124     		movs	r4, #1
 9530              	.LVL1347:
 9531 2bb4 FEF742BA 		b	.L253
 9532              	.LVL1348:
 9533              	.L762:
 9534 2bb8 2046     		mov	r0, r4
 9535 2bba FFF7FEFF 		bl	lv_disp_get_dpi
 9536              	.LVL1349:
 9537 2bbe 00EB4000 		add	r0, r0, r0, lsl #1
 9538 2bc2 8000     		lsls	r0, r0, #2
 9539 2bc4 5030     		adds	r0, r0, #80
 9540 2bc6 5A4B     		ldr	r3, .L839
 9541 2bc8 83FB0023 		smull	r2, r3, r3, r0
 9542 2bcc C417     		asrs	r4, r0, #31
 9543              	.LVL1350:
 9544 2bce C4EBA314 		rsb	r4, r4, r3, asr #6
 9545 2bd2 24B2     		sxth	r4, r4
 9546 2bd4 FEF732BA 		b	.L253
ARM GAS  /tmp/cc6wDDAF.s 			page 230


 9547              	.LVL1351:
 9548              	.L645:
 9549              	.LBE1009:
 9550              	.LBE1008:
 9551              	.LBB1010:
 9552              	.LBB723:
 9553 2bd8 2046     		mov	r0, r4
 9554 2bda FFF7FEFF 		bl	lv_disp_get_dpi
 9555              	.LVL1352:
 9556 2bde 00EB8000 		add	r0, r0, r0, lsl #2
 9557 2be2 4000     		lsls	r0, r0, #1
 9558 2be4 5030     		adds	r0, r0, #80
 9559 2be6 524B     		ldr	r3, .L839
 9560 2be8 83FB0023 		smull	r2, r3, r3, r0
 9561 2bec C417     		asrs	r4, r0, #31
 9562              	.LVL1353:
 9563 2bee C4EBA314 		rsb	r4, r4, r3, asr #6
 9564 2bf2 24B2     		sxth	r4, r4
 9565 2bf4 FEF722BA 		b	.L253
 9566              	.LVL1354:
 9567              	.L646:
 9568              	.LBE723:
 9569              	.LBE1010:
 484:Drivers/lvgl/lvgl/src/extra/themes/default/lv_theme_default.c ****     lv_style_set_pad_gap(&styles->menu_cont, PAD_SMALL);
 9570              		.loc 1 484 0 is_stmt 1 discriminator 1
 9571 2bf8 4E4B     		ldr	r3, .L839+4
 9572 2bfa DC68     		ldr	r4, [r3, #12]
 9573              	.LVL1355:
 9574              	.LBB1011:
 9575              	.LBB1012:
 9576              		.loc 3 257 0 discriminator 1
 9577 2bfc 2046     		mov	r0, r4
 9578 2bfe FFF7FEFF 		bl	lv_disp_get_dpi
 9579              	.LVL1356:
 9580 2c02 C0EBC000 		rsb	r0, r0, r0, lsl #3
 9581 2c06 4000     		lsls	r0, r0, #1
 9582 2c08 5030     		adds	r0, r0, #80
 9583 2c0a B0F5A07F 		cmp	r0, #320
 9584 2c0e 02DA     		bge	.L763
 9585              		.loc 3 257 0 is_stmt 0
 9586 2c10 0124     		movs	r4, #1
 9587              	.LVL1357:
 9588 2c12 FEF735BA 		b	.L259
 9589              	.LVL1358:
 9590              	.L763:
 9591 2c16 2046     		mov	r0, r4
 9592 2c18 FFF7FEFF 		bl	lv_disp_get_dpi
 9593              	.LVL1359:
 9594 2c1c C0EBC000 		rsb	r0, r0, r0, lsl #3
 9595 2c20 4000     		lsls	r0, r0, #1
 9596 2c22 5030     		adds	r0, r0, #80
 9597 2c24 424B     		ldr	r3, .L839
 9598 2c26 83FB0023 		smull	r2, r3, r3, r0
 9599 2c2a C417     		asrs	r4, r0, #31
 9600              	.LVL1360:
 9601 2c2c C4EBA314 		rsb	r4, r4, r3, asr #6
 9602 2c30 24B2     		sxth	r4, r4
ARM GAS  /tmp/cc6wDDAF.s 			page 231


 9603 2c32 FEF725BA 		b	.L259
 9604              	.LVL1361:
 9605              	.L647:
 9606              	.LBE1012:
 9607              	.LBE1011:
 484:Drivers/lvgl/lvgl/src/extra/themes/default/lv_theme_default.c ****     lv_style_set_pad_gap(&styles->menu_cont, PAD_SMALL);
 9608              		.loc 1 484 0 is_stmt 1 discriminator 4
 9609 2c36 3F4B     		ldr	r3, .L839+4
 9610 2c38 DC68     		ldr	r4, [r3, #12]
 9611              	.LVL1362:
 9612              	.LBB1013:
 9613              	.LBB1014:
 9614              		.loc 3 257 0 discriminator 4
 9615 2c3a 2046     		mov	r0, r4
 9616 2c3c FFF7FEFF 		bl	lv_disp_get_dpi
 9617              	.LVL1363:
 9618 2c40 00EB4000 		add	r0, r0, r0, lsl #1
 9619 2c44 8000     		lsls	r0, r0, #2
 9620 2c46 5030     		adds	r0, r0, #80
 9621 2c48 B0F5A07F 		cmp	r0, #320
 9622 2c4c 02DA     		bge	.L764
 9623              		.loc 3 257 0 is_stmt 0
 9624 2c4e 0124     		movs	r4, #1
 9625              	.LVL1364:
 9626 2c50 FEF716BA 		b	.L259
 9627              	.LVL1365:
 9628              	.L764:
 9629 2c54 2046     		mov	r0, r4
 9630 2c56 FFF7FEFF 		bl	lv_disp_get_dpi
 9631              	.LVL1366:
 9632 2c5a 00EB4000 		add	r0, r0, r0, lsl #1
 9633 2c5e 8000     		lsls	r0, r0, #2
 9634 2c60 5030     		adds	r0, r0, #80
 9635 2c62 334B     		ldr	r3, .L839
 9636 2c64 83FB0023 		smull	r2, r3, r3, r0
 9637 2c68 C417     		asrs	r4, r0, #31
 9638              	.LVL1367:
 9639 2c6a C4EBA314 		rsb	r4, r4, r3, asr #6
 9640 2c6e 24B2     		sxth	r4, r4
 9641 2c70 FEF706BA 		b	.L259
 9642              	.LVL1368:
 9643              	.L648:
 9644              	.LBE1014:
 9645              	.LBE1013:
 9646              	.LBB1015:
 9647              	.LBB728:
 9648 2c74 2046     		mov	r0, r4
 9649 2c76 FFF7FEFF 		bl	lv_disp_get_dpi
 9650              	.LVL1369:
 9651 2c7a 00EB8000 		add	r0, r0, r0, lsl #2
 9652 2c7e 4000     		lsls	r0, r0, #1
 9653 2c80 5030     		adds	r0, r0, #80
 9654 2c82 2B4B     		ldr	r3, .L839
 9655 2c84 83FB0023 		smull	r2, r3, r3, r0
 9656 2c88 C417     		asrs	r4, r0, #31
 9657              	.LVL1370:
 9658 2c8a C4EBA314 		rsb	r4, r4, r3, asr #6
ARM GAS  /tmp/cc6wDDAF.s 			page 232


 9659 2c8e 24B2     		sxth	r4, r4
 9660 2c90 FEF7F6B9 		b	.L259
 9661              	.LVL1371:
 9662              	.L649:
 9663              	.LBE728:
 9664              	.LBE1015:
 485:Drivers/lvgl/lvgl/src/extra/themes/default/lv_theme_default.c ****     lv_style_set_border_width(&styles->menu_cont, lv_disp_dpx(theme.disp, 1));
 9665              		.loc 1 485 0 is_stmt 1 discriminator 1
 9666 2c94 274B     		ldr	r3, .L839+4
 9667 2c96 DC68     		ldr	r4, [r3, #12]
 9668              	.LVL1372:
 9669              	.LBB1016:
 9670              	.LBB1017:
 9671              		.loc 3 257 0 discriminator 1
 9672 2c98 2046     		mov	r0, r4
 9673 2c9a FFF7FEFF 		bl	lv_disp_get_dpi
 9674              	.LVL1373:
 9675 2c9e C0EBC000 		rsb	r0, r0, r0, lsl #3
 9676 2ca2 4000     		lsls	r0, r0, #1
 9677 2ca4 5030     		adds	r0, r0, #80
 9678 2ca6 B0F5A07F 		cmp	r0, #320
 9679 2caa 02DA     		bge	.L765
 9680              		.loc 3 257 0 is_stmt 0
 9681 2cac 0124     		movs	r4, #1
 9682              	.LVL1374:
 9683 2cae FEF709BA 		b	.L265
 9684              	.LVL1375:
 9685              	.L765:
 9686 2cb2 2046     		mov	r0, r4
 9687 2cb4 FFF7FEFF 		bl	lv_disp_get_dpi
 9688              	.LVL1376:
 9689 2cb8 C0EBC000 		rsb	r0, r0, r0, lsl #3
 9690 2cbc 4000     		lsls	r0, r0, #1
 9691 2cbe 5030     		adds	r0, r0, #80
 9692 2cc0 1B4B     		ldr	r3, .L839
 9693 2cc2 83FB0023 		smull	r2, r3, r3, r0
 9694 2cc6 C417     		asrs	r4, r0, #31
 9695              	.LVL1377:
 9696 2cc8 C4EBA314 		rsb	r4, r4, r3, asr #6
 9697 2ccc 24B2     		sxth	r4, r4
 9698 2cce FEF7F9B9 		b	.L265
 9699              	.LVL1378:
 9700              	.L650:
 9701              	.LBE1017:
 9702              	.LBE1016:
 485:Drivers/lvgl/lvgl/src/extra/themes/default/lv_theme_default.c ****     lv_style_set_border_width(&styles->menu_cont, lv_disp_dpx(theme.disp, 1));
 9703              		.loc 1 485 0 is_stmt 1 discriminator 4
 9704 2cd2 184B     		ldr	r3, .L839+4
 9705 2cd4 DC68     		ldr	r4, [r3, #12]
 9706              	.LVL1379:
 9707              	.LBB1018:
 9708              	.LBB1019:
 9709              		.loc 3 257 0 discriminator 4
 9710 2cd6 2046     		mov	r0, r4
 9711 2cd8 FFF7FEFF 		bl	lv_disp_get_dpi
 9712              	.LVL1380:
 9713 2cdc 00EB4000 		add	r0, r0, r0, lsl #1
ARM GAS  /tmp/cc6wDDAF.s 			page 233


 9714 2ce0 8000     		lsls	r0, r0, #2
 9715 2ce2 5030     		adds	r0, r0, #80
 9716 2ce4 B0F5A07F 		cmp	r0, #320
 9717 2ce8 02DA     		bge	.L766
 9718              		.loc 3 257 0 is_stmt 0
 9719 2cea 0124     		movs	r4, #1
 9720              	.LVL1381:
 9721 2cec FEF7EAB9 		b	.L265
 9722              	.LVL1382:
 9723              	.L766:
 9724 2cf0 2046     		mov	r0, r4
 9725 2cf2 FFF7FEFF 		bl	lv_disp_get_dpi
 9726              	.LVL1383:
 9727 2cf6 00EB4000 		add	r0, r0, r0, lsl #1
 9728 2cfa 8000     		lsls	r0, r0, #2
 9729 2cfc 5030     		adds	r0, r0, #80
 9730 2cfe 0C4B     		ldr	r3, .L839
 9731 2d00 83FB0023 		smull	r2, r3, r3, r0
 9732 2d04 C417     		asrs	r4, r0, #31
 9733              	.LVL1384:
 9734 2d06 C4EBA314 		rsb	r4, r4, r3, asr #6
 9735 2d0a 24B2     		sxth	r4, r4
 9736 2d0c FEF7DAB9 		b	.L265
 9737              	.LVL1385:
 9738              	.L651:
 9739              	.LBE1019:
 9740              	.LBE1018:
 9741              	.LBB1020:
 9742              	.LBB733:
 9743 2d10 2046     		mov	r0, r4
 9744 2d12 FFF7FEFF 		bl	lv_disp_get_dpi
 9745              	.LVL1386:
 9746 2d16 00EB8000 		add	r0, r0, r0, lsl #2
 9747 2d1a 4000     		lsls	r0, r0, #1
 9748 2d1c 5030     		adds	r0, r0, #80
 9749 2d1e 044B     		ldr	r3, .L839
 9750 2d20 83FB0023 		smull	r2, r3, r3, r0
 9751 2d24 C417     		asrs	r4, r0, #31
 9752              	.LVL1387:
 9753 2d26 C4EBA314 		rsb	r4, r4, r3, asr #6
 9754 2d2a 24B2     		sxth	r4, r4
 9755 2d2c FEF7CAB9 		b	.L265
 9756              	.L840:
 9757              		.align	2
 9758              	.L839:
 9759 2d30 67666666 		.word	1717986919
 9760 2d34 00000000 		.word	.LANCHOR2
 9761              	.LVL1388:
 9762              	.L652:
 9763              	.LBE733:
 9764              	.LBE1020:
 9765              	.LBB1021:
 9766              	.LBB738:
 9767 2d38 2846     		mov	r0, r5
 9768 2d3a FFF7FEFF 		bl	lv_disp_get_dpi
 9769              	.LVL1389:
 9770 2d3e 5030     		adds	r0, r0, #80
ARM GAS  /tmp/cc6wDDAF.s 			page 234


 9771 2d40 D94B     		ldr	r3, .L841
 9772 2d42 83FB0023 		smull	r2, r3, r3, r0
 9773 2d46 C117     		asrs	r1, r0, #31
 9774 2d48 C1EBA311 		rsb	r1, r1, r3, asr #6
 9775 2d4c 09B2     		sxth	r1, r1
 9776 2d4e FEF7D0B9 		b	.L269
 9777              	.LVL1390:
 9778              	.L653:
 9779              	.LBE738:
 9780              	.LBE1021:
 9781              	.LBB1022:
 9782              	.LBB745:
 9783 2d52 2846     		mov	r0, r5
 9784 2d54 FFF7FEFF 		bl	lv_disp_get_dpi
 9785              	.LVL1391:
 9786 2d58 5030     		adds	r0, r0, #80
 9787 2d5a D34B     		ldr	r3, .L841
 9788 2d5c 83FB0023 		smull	r2, r3, r3, r0
 9789 2d60 C117     		asrs	r1, r0, #31
 9790 2d62 C1EBA311 		rsb	r1, r1, r3, asr #6
 9791 2d66 09B2     		sxth	r1, r1
 9792 2d68 FEF717BA 		b	.L270
 9793              	.LVL1392:
 9794              	.L654:
 9795              	.LBE745:
 9796              	.LBE1022:
 504:Drivers/lvgl/lvgl/src/extra/themes/default/lv_theme_default.c ****     lv_style_set_pad_ver(&styles->menu_header_cont, PAD_TINY);
 9797              		.loc 1 504 0 is_stmt 1 discriminator 1
 9798 2d6c CF4B     		ldr	r3, .L841+4
 9799 2d6e DC68     		ldr	r4, [r3, #12]
 9800              	.LVL1393:
 9801              	.LBB1023:
 9802              	.LBB1024:
 9803              		.loc 3 257 0 discriminator 1
 9804 2d70 2046     		mov	r0, r4
 9805 2d72 FFF7FEFF 		bl	lv_disp_get_dpi
 9806              	.LVL1394:
 9807 2d76 C0EBC000 		rsb	r0, r0, r0, lsl #3
 9808 2d7a 4000     		lsls	r0, r0, #1
 9809 2d7c 5030     		adds	r0, r0, #80
 9810 2d7e B0F5A07F 		cmp	r0, #320
 9811 2d82 02DA     		bge	.L767
 9812              		.loc 3 257 0 is_stmt 0
 9813 2d84 0124     		movs	r4, #1
 9814              	.LVL1395:
 9815 2d86 FEF760BA 		b	.L273
 9816              	.LVL1396:
 9817              	.L767:
 9818 2d8a 2046     		mov	r0, r4
 9819 2d8c FFF7FEFF 		bl	lv_disp_get_dpi
 9820              	.LVL1397:
 9821 2d90 C0EBC000 		rsb	r0, r0, r0, lsl #3
 9822 2d94 4000     		lsls	r0, r0, #1
 9823 2d96 5030     		adds	r0, r0, #80
 9824 2d98 C34B     		ldr	r3, .L841
 9825 2d9a 83FB0023 		smull	r2, r3, r3, r0
 9826 2d9e C417     		asrs	r4, r0, #31
ARM GAS  /tmp/cc6wDDAF.s 			page 235


 9827              	.LVL1398:
 9828 2da0 C4EBA314 		rsb	r4, r4, r3, asr #6
 9829 2da4 24B2     		sxth	r4, r4
 9830 2da6 FEF750BA 		b	.L273
 9831              	.LVL1399:
 9832              	.L655:
 9833              	.LBE1024:
 9834              	.LBE1023:
 504:Drivers/lvgl/lvgl/src/extra/themes/default/lv_theme_default.c ****     lv_style_set_pad_ver(&styles->menu_header_cont, PAD_TINY);
 9835              		.loc 1 504 0 is_stmt 1 discriminator 4
 9836 2daa C04B     		ldr	r3, .L841+4
 9837 2dac DC68     		ldr	r4, [r3, #12]
 9838              	.LVL1400:
 9839              	.LBB1025:
 9840              	.LBB1026:
 9841              		.loc 3 257 0 discriminator 4
 9842 2dae 2046     		mov	r0, r4
 9843 2db0 FFF7FEFF 		bl	lv_disp_get_dpi
 9844              	.LVL1401:
 9845 2db4 00EB4000 		add	r0, r0, r0, lsl #1
 9846 2db8 8000     		lsls	r0, r0, #2
 9847 2dba 5030     		adds	r0, r0, #80
 9848 2dbc B0F5A07F 		cmp	r0, #320
 9849 2dc0 02DA     		bge	.L768
 9850              		.loc 3 257 0 is_stmt 0
 9851 2dc2 0124     		movs	r4, #1
 9852              	.LVL1402:
 9853 2dc4 FEF741BA 		b	.L273
 9854              	.LVL1403:
 9855              	.L768:
 9856 2dc8 2046     		mov	r0, r4
 9857 2dca FFF7FEFF 		bl	lv_disp_get_dpi
 9858              	.LVL1404:
 9859 2dce 00EB4000 		add	r0, r0, r0, lsl #1
 9860 2dd2 8000     		lsls	r0, r0, #2
 9861 2dd4 5030     		adds	r0, r0, #80
 9862 2dd6 B44B     		ldr	r3, .L841
 9863 2dd8 83FB0023 		smull	r2, r3, r3, r0
 9864 2ddc C417     		asrs	r4, r0, #31
 9865              	.LVL1405:
 9866 2dde C4EBA314 		rsb	r4, r4, r3, asr #6
 9867 2de2 24B2     		sxth	r4, r4
 9868 2de4 FEF731BA 		b	.L273
 9869              	.LVL1406:
 9870              	.L656:
 9871              	.LBE1026:
 9872              	.LBE1025:
 9873              	.LBB1027:
 9874              	.LBB752:
 9875 2de8 2046     		mov	r0, r4
 9876 2dea FFF7FEFF 		bl	lv_disp_get_dpi
 9877              	.LVL1407:
 9878 2dee 00EB8000 		add	r0, r0, r0, lsl #2
 9879 2df2 4000     		lsls	r0, r0, #1
 9880 2df4 5030     		adds	r0, r0, #80
 9881 2df6 AC4B     		ldr	r3, .L841
 9882 2df8 83FB0023 		smull	r2, r3, r3, r0
ARM GAS  /tmp/cc6wDDAF.s 			page 236


 9883 2dfc C417     		asrs	r4, r0, #31
 9884              	.LVL1408:
 9885 2dfe C4EBA314 		rsb	r4, r4, r3, asr #6
 9886 2e02 24B2     		sxth	r4, r4
 9887 2e04 FEF721BA 		b	.L273
 9888              	.LVL1409:
 9889              	.L657:
 9890              	.LBE752:
 9891              	.LBE1027:
 505:Drivers/lvgl/lvgl/src/extra/themes/default/lv_theme_default.c ****     lv_style_set_pad_gap(&styles->menu_header_cont, PAD_SMALL);
 9892              		.loc 1 505 0 is_stmt 1 discriminator 1
 9893 2e08 A84B     		ldr	r3, .L841+4
 9894 2e0a DC68     		ldr	r4, [r3, #12]
 9895              	.LVL1410:
 9896              	.LBB1028:
 9897              	.LBB1029:
 9898              		.loc 3 257 0 discriminator 1
 9899 2e0c 2046     		mov	r0, r4
 9900 2e0e FFF7FEFF 		bl	lv_disp_get_dpi
 9901              	.LVL1411:
 9902 2e12 C000     		lsls	r0, r0, #3
 9903 2e14 5030     		adds	r0, r0, #80
 9904 2e16 B0F5A07F 		cmp	r0, #320
 9905 2e1a 02DA     		bge	.L769
 9906              		.loc 3 257 0 is_stmt 0
 9907 2e1c 0124     		movs	r4, #1
 9908              	.LVL1412:
 9909 2e1e FEF734BA 		b	.L279
 9910              	.LVL1413:
 9911              	.L769:
 9912 2e22 2046     		mov	r0, r4
 9913 2e24 FFF7FEFF 		bl	lv_disp_get_dpi
 9914              	.LVL1414:
 9915 2e28 C000     		lsls	r0, r0, #3
 9916 2e2a 5030     		adds	r0, r0, #80
 9917 2e2c 9E4B     		ldr	r3, .L841
 9918 2e2e 83FB0023 		smull	r2, r3, r3, r0
 9919 2e32 C417     		asrs	r4, r0, #31
 9920              	.LVL1415:
 9921 2e34 C4EBA314 		rsb	r4, r4, r3, asr #6
 9922 2e38 24B2     		sxth	r4, r4
 9923 2e3a FEF726BA 		b	.L279
 9924              	.LVL1416:
 9925              	.L658:
 9926              	.LBE1029:
 9927              	.LBE1028:
 505:Drivers/lvgl/lvgl/src/extra/themes/default/lv_theme_default.c ****     lv_style_set_pad_gap(&styles->menu_header_cont, PAD_SMALL);
 9928              		.loc 1 505 0 is_stmt 1 discriminator 4
 9929 2e3e 9B4B     		ldr	r3, .L841+4
 9930 2e40 DC68     		ldr	r4, [r3, #12]
 9931              	.LVL1417:
 9932              	.LBB1030:
 9933              	.LBB1031:
 9934              		.loc 3 257 0 discriminator 4
 9935 2e42 2046     		mov	r0, r4
 9936 2e44 FFF7FEFF 		bl	lv_disp_get_dpi
 9937              	.LVL1418:
ARM GAS  /tmp/cc6wDDAF.s 			page 237


 9938 2e48 00EB4000 		add	r0, r0, r0, lsl #1
 9939 2e4c 4000     		lsls	r0, r0, #1
 9940 2e4e 5030     		adds	r0, r0, #80
 9941 2e50 B0F5A07F 		cmp	r0, #320
 9942 2e54 02DA     		bge	.L770
 9943              		.loc 3 257 0 is_stmt 0
 9944 2e56 0124     		movs	r4, #1
 9945              	.LVL1419:
 9946 2e58 FEF717BA 		b	.L279
 9947              	.LVL1420:
 9948              	.L770:
 9949 2e5c 2046     		mov	r0, r4
 9950 2e5e FFF7FEFF 		bl	lv_disp_get_dpi
 9951              	.LVL1421:
 9952 2e62 00EB4000 		add	r0, r0, r0, lsl #1
 9953 2e66 4000     		lsls	r0, r0, #1
 9954 2e68 5030     		adds	r0, r0, #80
 9955 2e6a 8F4B     		ldr	r3, .L841
 9956 2e6c 83FB0023 		smull	r2, r3, r3, r0
 9957 2e70 C417     		asrs	r4, r0, #31
 9958              	.LVL1422:
 9959 2e72 C4EBA314 		rsb	r4, r4, r3, asr #6
 9960 2e76 24B2     		sxth	r4, r4
 9961 2e78 FEF707BA 		b	.L279
 9962              	.LVL1423:
 9963              	.L659:
 9964              	.LBE1031:
 9965              	.LBE1030:
 9966              	.LBB1032:
 9967              	.LBB757:
 9968 2e7c 2046     		mov	r0, r4
 9969 2e7e FFF7FEFF 		bl	lv_disp_get_dpi
 9970              	.LVL1424:
 9971 2e82 4000     		lsls	r0, r0, #1
 9972 2e84 5030     		adds	r0, r0, #80
 9973 2e86 884B     		ldr	r3, .L841
 9974 2e88 83FB0023 		smull	r2, r3, r3, r0
 9975 2e8c C417     		asrs	r4, r0, #31
 9976              	.LVL1425:
 9977 2e8e C4EBA314 		rsb	r4, r4, r3, asr #6
 9978 2e92 24B2     		sxth	r4, r4
 9979 2e94 FEF7F9B9 		b	.L279
 9980              	.LVL1426:
 9981              	.L660:
 9982              	.LBE757:
 9983              	.LBE1032:
 506:Drivers/lvgl/lvgl/src/extra/themes/default/lv_theme_default.c **** 
 9984              		.loc 1 506 0 is_stmt 1 discriminator 1
 9985 2e98 844B     		ldr	r3, .L841+4
 9986 2e9a DC68     		ldr	r4, [r3, #12]
 9987              	.LVL1427:
 9988              	.LBB1033:
 9989              	.LBB1034:
 9990              		.loc 3 257 0 discriminator 1
 9991 2e9c 2046     		mov	r0, r4
 9992 2e9e FFF7FEFF 		bl	lv_disp_get_dpi
 9993              	.LVL1428:
ARM GAS  /tmp/cc6wDDAF.s 			page 238


 9994 2ea2 C0EBC000 		rsb	r0, r0, r0, lsl #3
 9995 2ea6 4000     		lsls	r0, r0, #1
 9996 2ea8 5030     		adds	r0, r0, #80
 9997 2eaa B0F5A07F 		cmp	r0, #320
 9998 2eae 02DA     		bge	.L771
 9999              		.loc 3 257 0 is_stmt 0
 10000 2eb0 0124     		movs	r4, #1
 10001              	.LVL1429:
 10002 2eb2 FEF70CBA 		b	.L285
 10003              	.LVL1430:
 10004              	.L771:
 10005 2eb6 2046     		mov	r0, r4
 10006 2eb8 FFF7FEFF 		bl	lv_disp_get_dpi
 10007              	.LVL1431:
 10008 2ebc C0EBC000 		rsb	r0, r0, r0, lsl #3
 10009 2ec0 4000     		lsls	r0, r0, #1
 10010 2ec2 5030     		adds	r0, r0, #80
 10011 2ec4 784B     		ldr	r3, .L841
 10012 2ec6 83FB0023 		smull	r2, r3, r3, r0
 10013 2eca C417     		asrs	r4, r0, #31
 10014              	.LVL1432:
 10015 2ecc C4EBA314 		rsb	r4, r4, r3, asr #6
 10016 2ed0 24B2     		sxth	r4, r4
 10017 2ed2 FEF7FCB9 		b	.L285
 10018              	.LVL1433:
 10019              	.L661:
 10020              	.LBE1034:
 10021              	.LBE1033:
 506:Drivers/lvgl/lvgl/src/extra/themes/default/lv_theme_default.c **** 
 10022              		.loc 1 506 0 is_stmt 1 discriminator 4
 10023 2ed6 754B     		ldr	r3, .L841+4
 10024 2ed8 DC68     		ldr	r4, [r3, #12]
 10025              	.LVL1434:
 10026              	.LBB1035:
 10027              	.LBB1036:
 10028              		.loc 3 257 0 discriminator 4
 10029 2eda 2046     		mov	r0, r4
 10030 2edc FFF7FEFF 		bl	lv_disp_get_dpi
 10031              	.LVL1435:
 10032 2ee0 00EB4000 		add	r0, r0, r0, lsl #1
 10033 2ee4 8000     		lsls	r0, r0, #2
 10034 2ee6 5030     		adds	r0, r0, #80
 10035 2ee8 B0F5A07F 		cmp	r0, #320
 10036 2eec 02DA     		bge	.L772
 10037              		.loc 3 257 0 is_stmt 0
 10038 2eee 0124     		movs	r4, #1
 10039              	.LVL1436:
 10040 2ef0 FEF7EDB9 		b	.L285
 10041              	.LVL1437:
 10042              	.L772:
 10043 2ef4 2046     		mov	r0, r4
 10044 2ef6 FFF7FEFF 		bl	lv_disp_get_dpi
 10045              	.LVL1438:
 10046 2efa 00EB4000 		add	r0, r0, r0, lsl #1
 10047 2efe 8000     		lsls	r0, r0, #2
 10048 2f00 5030     		adds	r0, r0, #80
 10049 2f02 694B     		ldr	r3, .L841
ARM GAS  /tmp/cc6wDDAF.s 			page 239


 10050 2f04 83FB0023 		smull	r2, r3, r3, r0
 10051 2f08 C417     		asrs	r4, r0, #31
 10052              	.LVL1439:
 10053 2f0a C4EBA314 		rsb	r4, r4, r3, asr #6
 10054 2f0e 24B2     		sxth	r4, r4
 10055 2f10 FEF7DDB9 		b	.L285
 10056              	.LVL1440:
 10057              	.L662:
 10058              	.LBE1036:
 10059              	.LBE1035:
 10060              	.LBB1037:
 10061              	.LBB762:
 10062 2f14 2046     		mov	r0, r4
 10063 2f16 FFF7FEFF 		bl	lv_disp_get_dpi
 10064              	.LVL1441:
 10065 2f1a 00EB8000 		add	r0, r0, r0, lsl #2
 10066 2f1e 4000     		lsls	r0, r0, #1
 10067 2f20 5030     		adds	r0, r0, #80
 10068 2f22 614B     		ldr	r3, .L841
 10069 2f24 83FB0023 		smull	r2, r3, r3, r0
 10070 2f28 C417     		asrs	r4, r0, #31
 10071              	.LVL1442:
 10072 2f2a C4EBA314 		rsb	r4, r4, r3, asr #6
 10073 2f2e 24B2     		sxth	r4, r4
 10074 2f30 FEF7CDB9 		b	.L285
 10075              	.LVL1443:
 10076              	.L663:
 10077              	.LBE762:
 10078              	.LBE1037:
 509:Drivers/lvgl/lvgl/src/extra/themes/default/lv_theme_default.c ****     lv_style_set_pad_ver(&styles->menu_header_btn, PAD_TINY);
 10079              		.loc 1 509 0 is_stmt 1 discriminator 1
 10080 2f34 5D4B     		ldr	r3, .L841+4
 10081 2f36 DC68     		ldr	r4, [r3, #12]
 10082              	.LVL1444:
 10083              	.LBB1038:
 10084              	.LBB1039:
 10085              		.loc 3 257 0 discriminator 1
 10086 2f38 2046     		mov	r0, r4
 10087 2f3a FFF7FEFF 		bl	lv_disp_get_dpi
 10088              	.LVL1445:
 10089 2f3e C000     		lsls	r0, r0, #3
 10090 2f40 5030     		adds	r0, r0, #80
 10091 2f42 B0F5A07F 		cmp	r0, #320
 10092 2f46 02DA     		bge	.L773
 10093              		.loc 3 257 0 is_stmt 0
 10094 2f48 0124     		movs	r4, #1
 10095              	.LVL1446:
 10096 2f4a FEF7E5B9 		b	.L291
 10097              	.LVL1447:
 10098              	.L773:
 10099 2f4e 2046     		mov	r0, r4
 10100 2f50 FFF7FEFF 		bl	lv_disp_get_dpi
 10101              	.LVL1448:
 10102 2f54 C000     		lsls	r0, r0, #3
 10103 2f56 5030     		adds	r0, r0, #80
 10104 2f58 534B     		ldr	r3, .L841
 10105 2f5a 83FB0023 		smull	r2, r3, r3, r0
ARM GAS  /tmp/cc6wDDAF.s 			page 240


 10106 2f5e C417     		asrs	r4, r0, #31
 10107              	.LVL1449:
 10108 2f60 C4EBA314 		rsb	r4, r4, r3, asr #6
 10109 2f64 24B2     		sxth	r4, r4
 10110 2f66 FEF7D7B9 		b	.L291
 10111              	.LVL1450:
 10112              	.L664:
 10113              	.LBE1039:
 10114              	.LBE1038:
 509:Drivers/lvgl/lvgl/src/extra/themes/default/lv_theme_default.c ****     lv_style_set_pad_ver(&styles->menu_header_btn, PAD_TINY);
 10115              		.loc 1 509 0 is_stmt 1 discriminator 4
 10116 2f6a 504B     		ldr	r3, .L841+4
 10117 2f6c DC68     		ldr	r4, [r3, #12]
 10118              	.LVL1451:
 10119              	.LBB1040:
 10120              	.LBB1041:
 10121              		.loc 3 257 0 discriminator 4
 10122 2f6e 2046     		mov	r0, r4
 10123 2f70 FFF7FEFF 		bl	lv_disp_get_dpi
 10124              	.LVL1452:
 10125 2f74 00EB4000 		add	r0, r0, r0, lsl #1
 10126 2f78 4000     		lsls	r0, r0, #1
 10127 2f7a 5030     		adds	r0, r0, #80
 10128 2f7c B0F5A07F 		cmp	r0, #320
 10129 2f80 02DA     		bge	.L774
 10130              		.loc 3 257 0 is_stmt 0
 10131 2f82 0124     		movs	r4, #1
 10132              	.LVL1453:
 10133 2f84 FEF7C8B9 		b	.L291
 10134              	.LVL1454:
 10135              	.L774:
 10136 2f88 2046     		mov	r0, r4
 10137 2f8a FFF7FEFF 		bl	lv_disp_get_dpi
 10138              	.LVL1455:
 10139 2f8e 00EB4000 		add	r0, r0, r0, lsl #1
 10140 2f92 4000     		lsls	r0, r0, #1
 10141 2f94 5030     		adds	r0, r0, #80
 10142 2f96 444B     		ldr	r3, .L841
 10143 2f98 83FB0023 		smull	r2, r3, r3, r0
 10144 2f9c C417     		asrs	r4, r0, #31
 10145              	.LVL1456:
 10146 2f9e C4EBA314 		rsb	r4, r4, r3, asr #6
 10147 2fa2 24B2     		sxth	r4, r4
 10148 2fa4 FEF7B8B9 		b	.L291
 10149              	.LVL1457:
 10150              	.L665:
 10151              	.LBE1041:
 10152              	.LBE1040:
 10153              	.LBB1042:
 10154              	.LBB767:
 10155 2fa8 2046     		mov	r0, r4
 10156 2faa FFF7FEFF 		bl	lv_disp_get_dpi
 10157              	.LVL1458:
 10158 2fae 4000     		lsls	r0, r0, #1
 10159 2fb0 5030     		adds	r0, r0, #80
 10160 2fb2 3D4B     		ldr	r3, .L841
 10161 2fb4 83FB0023 		smull	r2, r3, r3, r0
ARM GAS  /tmp/cc6wDDAF.s 			page 241


 10162 2fb8 C417     		asrs	r4, r0, #31
 10163              	.LVL1459:
 10164 2fba C4EBA314 		rsb	r4, r4, r3, asr #6
 10165 2fbe 24B2     		sxth	r4, r4
 10166 2fc0 FEF7AAB9 		b	.L291
 10167              	.LVL1460:
 10168              	.L666:
 10169              	.LBE767:
 10170              	.LBE1042:
 510:Drivers/lvgl/lvgl/src/extra/themes/default/lv_theme_default.c ****     lv_style_set_shadow_opa(&styles->menu_header_btn, LV_OPA_TRANSP);
 10171              		.loc 1 510 0 is_stmt 1 discriminator 1
 10172 2fc4 394B     		ldr	r3, .L841+4
 10173 2fc6 DC68     		ldr	r4, [r3, #12]
 10174              	.LVL1461:
 10175              	.LBB1043:
 10176              	.LBB1044:
 10177              		.loc 3 257 0 discriminator 1
 10178 2fc8 2046     		mov	r0, r4
 10179 2fca FFF7FEFF 		bl	lv_disp_get_dpi
 10180              	.LVL1462:
 10181 2fce C000     		lsls	r0, r0, #3
 10182 2fd0 5030     		adds	r0, r0, #80
 10183 2fd2 B0F5A07F 		cmp	r0, #320
 10184 2fd6 02DA     		bge	.L775
 10185              		.loc 3 257 0 is_stmt 0
 10186 2fd8 0124     		movs	r4, #1
 10187              	.LVL1463:
 10188 2fda FEF7BDB9 		b	.L297
 10189              	.LVL1464:
 10190              	.L775:
 10191 2fde 2046     		mov	r0, r4
 10192 2fe0 FFF7FEFF 		bl	lv_disp_get_dpi
 10193              	.LVL1465:
 10194 2fe4 C000     		lsls	r0, r0, #3
 10195 2fe6 5030     		adds	r0, r0, #80
 10196 2fe8 2F4B     		ldr	r3, .L841
 10197 2fea 83FB0023 		smull	r2, r3, r3, r0
 10198 2fee C417     		asrs	r4, r0, #31
 10199              	.LVL1466:
 10200 2ff0 C4EBA314 		rsb	r4, r4, r3, asr #6
 10201 2ff4 24B2     		sxth	r4, r4
 10202 2ff6 FEF7AFB9 		b	.L297
 10203              	.LVL1467:
 10204              	.L667:
 10205              	.LBE1044:
 10206              	.LBE1043:
 510:Drivers/lvgl/lvgl/src/extra/themes/default/lv_theme_default.c ****     lv_style_set_shadow_opa(&styles->menu_header_btn, LV_OPA_TRANSP);
 10207              		.loc 1 510 0 is_stmt 1 discriminator 4
 10208 2ffa 2C4B     		ldr	r3, .L841+4
 10209 2ffc DC68     		ldr	r4, [r3, #12]
 10210              	.LVL1468:
 10211              	.LBB1045:
 10212              	.LBB1046:
 10213              		.loc 3 257 0 discriminator 4
 10214 2ffe 2046     		mov	r0, r4
 10215 3000 FFF7FEFF 		bl	lv_disp_get_dpi
 10216              	.LVL1469:
ARM GAS  /tmp/cc6wDDAF.s 			page 242


 10217 3004 00EB4000 		add	r0, r0, r0, lsl #1
 10218 3008 4000     		lsls	r0, r0, #1
 10219 300a 5030     		adds	r0, r0, #80
 10220 300c B0F5A07F 		cmp	r0, #320
 10221 3010 02DA     		bge	.L776
 10222              		.loc 3 257 0 is_stmt 0
 10223 3012 0124     		movs	r4, #1
 10224              	.LVL1470:
 10225 3014 FEF7A0B9 		b	.L297
 10226              	.LVL1471:
 10227              	.L776:
 10228 3018 2046     		mov	r0, r4
 10229 301a FFF7FEFF 		bl	lv_disp_get_dpi
 10230              	.LVL1472:
 10231 301e 00EB4000 		add	r0, r0, r0, lsl #1
 10232 3022 4000     		lsls	r0, r0, #1
 10233 3024 5030     		adds	r0, r0, #80
 10234 3026 204B     		ldr	r3, .L841
 10235 3028 83FB0023 		smull	r2, r3, r3, r0
 10236 302c C417     		asrs	r4, r0, #31
 10237              	.LVL1473:
 10238 302e C4EBA314 		rsb	r4, r4, r3, asr #6
 10239 3032 24B2     		sxth	r4, r4
 10240 3034 FEF790B9 		b	.L297
 10241              	.LVL1474:
 10242              	.L668:
 10243              	.LBE1046:
 10244              	.LBE1045:
 10245              	.LBB1047:
 10246              	.LBB772:
 10247 3038 2046     		mov	r0, r4
 10248 303a FFF7FEFF 		bl	lv_disp_get_dpi
 10249              	.LVL1475:
 10250 303e 4000     		lsls	r0, r0, #1
 10251 3040 5030     		adds	r0, r0, #80
 10252 3042 194B     		ldr	r3, .L841
 10253 3044 83FB0023 		smull	r2, r3, r3, r0
 10254 3048 C417     		asrs	r4, r0, #31
 10255              	.LVL1476:
 10256 304a C4EBA314 		rsb	r4, r4, r3, asr #6
 10257 304e 24B2     		sxth	r4, r4
 10258 3050 FEF782B9 		b	.L297
 10259              	.LVL1477:
 10260              	.L669:
 10261              	.LBE772:
 10262              	.LBE1047:
 525:Drivers/lvgl/lvgl/src/extra/themes/default/lv_theme_default.c **** #endif
 10263              		.loc 1 525 0 is_stmt 1 discriminator 1
 10264 3054 154B     		ldr	r3, .L841+4
 10265 3056 DC68     		ldr	r4, [r3, #12]
 10266              	.LVL1478:
 10267              	.LBB1048:
 10268              	.LBB1049:
 10269              		.loc 3 257 0 discriminator 1
 10270 3058 2046     		mov	r0, r4
 10271 305a FFF7FEFF 		bl	lv_disp_get_dpi
 10272              	.LVL1479:
ARM GAS  /tmp/cc6wDDAF.s 			page 243


 10273 305e C000     		lsls	r0, r0, #3
 10274 3060 5030     		adds	r0, r0, #80
 10275 3062 B0F5A07F 		cmp	r0, #320
 10276 3066 02DA     		bge	.L777
 10277              		.loc 3 257 0 is_stmt 0
 10278 3068 0124     		movs	r4, #1
 10279              	.LVL1480:
 10280 306a FEF7E2B9 		b	.L303
 10281              	.LVL1481:
 10282              	.L777:
 10283 306e 2046     		mov	r0, r4
 10284 3070 FFF7FEFF 		bl	lv_disp_get_dpi
 10285              	.LVL1482:
 10286 3074 C000     		lsls	r0, r0, #3
 10287 3076 5030     		adds	r0, r0, #80
 10288 3078 0B4B     		ldr	r3, .L841
 10289 307a 83FB0023 		smull	r2, r3, r3, r0
 10290 307e C417     		asrs	r4, r0, #31
 10291              	.LVL1483:
 10292 3080 C4EBA314 		rsb	r4, r4, r3, asr #6
 10293 3084 24B2     		sxth	r4, r4
 10294 3086 FEF7D4B9 		b	.L303
 10295              	.LVL1484:
 10296              	.L670:
 10297              	.LBE1049:
 10298              	.LBE1048:
 525:Drivers/lvgl/lvgl/src/extra/themes/default/lv_theme_default.c **** #endif
 10299              		.loc 1 525 0 is_stmt 1 discriminator 4
 10300 308a 084B     		ldr	r3, .L841+4
 10301 308c DC68     		ldr	r4, [r3, #12]
 10302              	.LVL1485:
 10303              	.LBB1050:
 10304              	.LBB1051:
 10305              		.loc 3 257 0 discriminator 4
 10306 308e 2046     		mov	r0, r4
 10307 3090 FFF7FEFF 		bl	lv_disp_get_dpi
 10308              	.LVL1486:
 10309 3094 00EB4000 		add	r0, r0, r0, lsl #1
 10310 3098 4000     		lsls	r0, r0, #1
 10311 309a 5030     		adds	r0, r0, #80
 10312 309c B0F5A07F 		cmp	r0, #320
 10313 30a0 06DA     		bge	.L778
 10314              		.loc 3 257 0 is_stmt 0
 10315 30a2 0124     		movs	r4, #1
 10316              	.LVL1487:
 10317 30a4 FEF7C5B9 		b	.L303
 10318              	.L842:
 10319              		.align	2
 10320              	.L841:
 10321 30a8 67666666 		.word	1717986919
 10322 30ac 00000000 		.word	.LANCHOR2
 10323              	.LVL1488:
 10324              	.L778:
 10325 30b0 2046     		mov	r0, r4
 10326 30b2 FFF7FEFF 		bl	lv_disp_get_dpi
 10327              	.LVL1489:
 10328 30b6 00EB4000 		add	r0, r0, r0, lsl #1
ARM GAS  /tmp/cc6wDDAF.s 			page 244


 10329 30ba 4000     		lsls	r0, r0, #1
 10330 30bc 5030     		adds	r0, r0, #80
 10331 30be D44B     		ldr	r3, .L843
 10332 30c0 83FB0023 		smull	r2, r3, r3, r0
 10333 30c4 C417     		asrs	r4, r0, #31
 10334              	.LVL1490:
 10335 30c6 C4EBA314 		rsb	r4, r4, r3, asr #6
 10336 30ca 24B2     		sxth	r4, r4
 10337 30cc FEF7B1B9 		b	.L303
 10338              	.LVL1491:
 10339              	.L671:
 10340              	.LBE1051:
 10341              	.LBE1050:
 10342              	.LBB1052:
 10343              	.LBB781:
 10344 30d0 2046     		mov	r0, r4
 10345 30d2 FFF7FEFF 		bl	lv_disp_get_dpi
 10346              	.LVL1492:
 10347 30d6 4000     		lsls	r0, r0, #1
 10348 30d8 5030     		adds	r0, r0, #80
 10349 30da CD4B     		ldr	r3, .L843
 10350 30dc 83FB0023 		smull	r2, r3, r3, r0
 10351 30e0 C417     		asrs	r4, r0, #31
 10352              	.LVL1493:
 10353 30e2 C4EBA314 		rsb	r4, r4, r3, asr #6
 10354 30e6 24B2     		sxth	r4, r4
 10355 30e8 FEF7A3B9 		b	.L303
 10356              	.LVL1494:
 10357              	.L672:
 10358              	.LBE781:
 10359              	.LBE1052:
 10360              	.LBB1053:
 10361              	.LBB786:
 10362 30ec 2846     		mov	r0, r5
 10363 30ee FFF7FEFF 		bl	lv_disp_get_dpi
 10364              	.LVL1495:
 10365 30f2 00EB8000 		add	r0, r0, r0, lsl #2
 10366 30f6 5030     		adds	r0, r0, #80
 10367 30f8 C54B     		ldr	r3, .L843
 10368 30fa 83FB0023 		smull	r2, r3, r3, r0
 10369 30fe C117     		asrs	r1, r0, #31
 10370 3100 C1EBA311 		rsb	r1, r1, r3, asr #6
 10371 3104 09B2     		sxth	r1, r1
 10372 3106 FEF7B2B9 		b	.L307
 10373              	.LVL1496:
 10374              	.L673:
 10375              	.LBE786:
 10376              	.LBE1053:
 10377              	.LBB1054:
 10378              	.LBB789:
 10379 310a 2046     		mov	r0, r4
 10380 310c FFF7FEFF 		bl	lv_disp_get_dpi
 10381              	.LVL1497:
 10382 3110 00EB8000 		add	r0, r0, r0, lsl #2
 10383 3114 8000     		lsls	r0, r0, #2
 10384 3116 5030     		adds	r0, r0, #80
 10385 3118 BD4B     		ldr	r3, .L843
ARM GAS  /tmp/cc6wDDAF.s 			page 245


 10386 311a 83FB0023 		smull	r2, r3, r3, r0
 10387 311e C417     		asrs	r4, r0, #31
 10388              	.LVL1498:
 10389 3120 C4EBA314 		rsb	r4, r4, r3, asr #6
 10390 3124 24B2     		sxth	r4, r4
 10391 3126 FEF7BEB9 		b	.L308
 10392              	.LVL1499:
 10393              	.L674:
 10394              	.LBE789:
 10395              	.LBE1054:
 10396              	.LBB1055:
 10397              	.LBB794:
 10398 312a 2846     		mov	r0, r5
 10399 312c FFF7FEFF 		bl	lv_disp_get_dpi
 10400              	.LVL1500:
 10401 3130 C0EB0010 		rsb	r0, r0, r0, lsl #4
 10402 3134 5030     		adds	r0, r0, #80
 10403 3136 B64B     		ldr	r3, .L843
 10404 3138 83FB0023 		smull	r2, r3, r3, r0
 10405 313c C117     		asrs	r1, r0, #31
 10406 313e C1EBA311 		rsb	r1, r1, r3, asr #6
 10407 3142 09B2     		sxth	r1, r1
 10408 3144 FEF7D2B9 		b	.L309
 10409              	.LVL1501:
 10410              	.L675:
 10411              	.LBE794:
 10412              	.LBE1055:
 10413              	.LBB1056:
 10414              	.LBB797:
 10415 3148 2046     		mov	r0, r4
 10416 314a FFF7FEFF 		bl	lv_disp_get_dpi
 10417              	.LVL1502:
 10418 314e C0EB0010 		rsb	r0, r0, r0, lsl #4
 10419 3152 5030     		adds	r0, r0, #80
 10420 3154 AE4B     		ldr	r3, .L843
 10421 3156 83FB0023 		smull	r2, r3, r3, r0
 10422 315a C417     		asrs	r4, r0, #31
 10423              	.LVL1503:
 10424 315c C4EBA314 		rsb	r4, r4, r3, asr #6
 10425 3160 24B2     		sxth	r4, r4
 10426 3162 FEF7F0B9 		b	.L310
 10427              	.LVL1504:
 10428              	.L676:
 10429              	.LBE797:
 10430              	.LBE1056:
 10431              	.LBB1057:
 10432              	.LBB802:
 10433 3166 2846     		mov	r0, r5
 10434 3168 FFF7FEFF 		bl	lv_disp_get_dpi
 10435              	.LVL1505:
 10436 316c 5030     		adds	r0, r0, #80
 10437 316e A84B     		ldr	r3, .L843
 10438 3170 83FB0023 		smull	r2, r3, r3, r0
 10439 3174 C117     		asrs	r1, r0, #31
 10440 3176 C1EBA311 		rsb	r1, r1, r3, asr #6
 10441 317a 09B2     		sxth	r1, r1
 10442 317c FEF7FFB9 		b	.L311
ARM GAS  /tmp/cc6wDDAF.s 			page 246


 10443              	.LVL1506:
 10444              	.L677:
 10445              	.LBE802:
 10446              	.LBE1057:
 10447              	.LBB1058:
 10448              	.LBB805:
 10449 3180 2846     		mov	r0, r5
 10450 3182 FFF7FEFF 		bl	lv_disp_get_dpi
 10451              	.LVL1507:
 10452 3186 4000     		lsls	r0, r0, #1
 10453 3188 5030     		adds	r0, r0, #80
 10454 318a A14B     		ldr	r3, .L843
 10455 318c 83FB0023 		smull	r2, r3, r3, r0
 10456 3190 C117     		asrs	r1, r0, #31
 10457 3192 C1EBA311 		rsb	r1, r1, r3, asr #6
 10458 3196 09B2     		sxth	r1, r1
 10459 3198 FEF71DBA 		b	.L312
 10460              	.LVL1508:
 10461              	.L678:
 10462              	.LBE805:
 10463              	.LBE1058:
 10464              	.LBB1059:
 10465              	.LBB808:
 10466 319c 2046     		mov	r0, r4
 10467 319e FFF7FEFF 		bl	lv_disp_get_dpi
 10468              	.LVL1509:
 10469 31a2 5030     		adds	r0, r0, #80
 10470 31a4 9A4B     		ldr	r3, .L843
 10471 31a6 83FB0023 		smull	r2, r3, r3, r0
 10472 31aa C117     		asrs	r1, r0, #31
 10473 31ac C1EBA311 		rsb	r1, r1, r3, asr #6
 10474 31b0 09B2     		sxth	r1, r1
 10475 31b2 FEF722BA 		b	.L313
 10476              	.LVL1510:
 10477              	.L314:
 10478              	.LBE808:
 10479              	.LBE1059:
 558:Drivers/lvgl/lvgl/src/extra/themes/default/lv_theme_default.c ****                                                                                                    
 10480              		.loc 1 558 0 is_stmt 1 discriminator 2
 10481 31b6 0121     		movs	r1, #1
 10482 31b8 1220     		movs	r0, #18
 10483 31ba FFF7FEFF 		bl	lv_palette_lighten
 10484              	.LVL1511:
 10485 31be 0146     		mov	r1, r0	@ movhi
 10486 31c0 FEF742BA 		b	.L315
 10487              	.L679:
 564:Drivers/lvgl/lvgl/src/extra/themes/default/lv_theme_default.c ****     lv_style_set_pad_gap(&styles->calendar_btnm_bg, PAD_SMALL / 2);
 10488              		.loc 1 564 0 discriminator 1
 10489 31c4 934B     		ldr	r3, .L843+4
 10490 31c6 DC68     		ldr	r4, [r3, #12]
 10491              	.LVL1512:
 10492              	.LBB1060:
 10493              	.LBB1061:
 10494              		.loc 3 257 0 discriminator 1
 10495 31c8 2046     		mov	r0, r4
 10496 31ca FFF7FEFF 		bl	lv_disp_get_dpi
 10497              	.LVL1513:
ARM GAS  /tmp/cc6wDDAF.s 			page 247


 10498 31ce C0EBC000 		rsb	r0, r0, r0, lsl #3
 10499 31d2 4000     		lsls	r0, r0, #1
 10500 31d4 5030     		adds	r0, r0, #80
 10501 31d6 B0F5A07F 		cmp	r0, #320
 10502 31da 02DA     		bge	.L779
 10503              		.loc 3 257 0 is_stmt 0
 10504 31dc 0124     		movs	r4, #1
 10505              	.LVL1514:
 10506 31de FEF755BA 		b	.L318
 10507              	.LVL1515:
 10508              	.L779:
 10509 31e2 2046     		mov	r0, r4
 10510 31e4 FFF7FEFF 		bl	lv_disp_get_dpi
 10511              	.LVL1516:
 10512 31e8 C0EBC000 		rsb	r0, r0, r0, lsl #3
 10513 31ec 4000     		lsls	r0, r0, #1
 10514 31ee 5030     		adds	r0, r0, #80
 10515 31f0 874B     		ldr	r3, .L843
 10516 31f2 83FB0023 		smull	r2, r3, r3, r0
 10517 31f6 C417     		asrs	r4, r0, #31
 10518              	.LVL1517:
 10519 31f8 C4EBA314 		rsb	r4, r4, r3, asr #6
 10520 31fc 24B2     		sxth	r4, r4
 10521 31fe FEF745BA 		b	.L318
 10522              	.LVL1518:
 10523              	.L680:
 10524              	.LBE1061:
 10525              	.LBE1060:
 564:Drivers/lvgl/lvgl/src/extra/themes/default/lv_theme_default.c ****     lv_style_set_pad_gap(&styles->calendar_btnm_bg, PAD_SMALL / 2);
 10526              		.loc 1 564 0 is_stmt 1 discriminator 4
 10527 3202 844B     		ldr	r3, .L843+4
 10528 3204 DC68     		ldr	r4, [r3, #12]
 10529              	.LVL1519:
 10530              	.LBB1062:
 10531              	.LBB1063:
 10532              		.loc 3 257 0 discriminator 4
 10533 3206 2046     		mov	r0, r4
 10534 3208 FFF7FEFF 		bl	lv_disp_get_dpi
 10535              	.LVL1520:
 10536 320c 00EB4000 		add	r0, r0, r0, lsl #1
 10537 3210 8000     		lsls	r0, r0, #2
 10538 3212 5030     		adds	r0, r0, #80
 10539 3214 B0F5A07F 		cmp	r0, #320
 10540 3218 02DA     		bge	.L780
 10541              		.loc 3 257 0 is_stmt 0
 10542 321a 0124     		movs	r4, #1
 10543              	.LVL1521:
 10544 321c FEF736BA 		b	.L318
 10545              	.LVL1522:
 10546              	.L780:
 10547 3220 2046     		mov	r0, r4
 10548 3222 FFF7FEFF 		bl	lv_disp_get_dpi
 10549              	.LVL1523:
 10550 3226 00EB4000 		add	r0, r0, r0, lsl #1
 10551 322a 8000     		lsls	r0, r0, #2
 10552 322c 5030     		adds	r0, r0, #80
 10553 322e 784B     		ldr	r3, .L843
ARM GAS  /tmp/cc6wDDAF.s 			page 248


 10554 3230 83FB0023 		smull	r2, r3, r3, r0
 10555 3234 C417     		asrs	r4, r0, #31
 10556              	.LVL1524:
 10557 3236 C4EBA314 		rsb	r4, r4, r3, asr #6
 10558 323a 24B2     		sxth	r4, r4
 10559 323c FEF726BA 		b	.L318
 10560              	.LVL1525:
 10561              	.L681:
 10562              	.LBE1063:
 10563              	.LBE1062:
 10564              	.LBB1064:
 10565              	.LBB811:
 10566 3240 2046     		mov	r0, r4
 10567 3242 FFF7FEFF 		bl	lv_disp_get_dpi
 10568              	.LVL1526:
 10569 3246 00EB8000 		add	r0, r0, r0, lsl #2
 10570 324a 4000     		lsls	r0, r0, #1
 10571 324c 5030     		adds	r0, r0, #80
 10572 324e 704B     		ldr	r3, .L843
 10573 3250 83FB0023 		smull	r2, r3, r3, r0
 10574 3254 C417     		asrs	r4, r0, #31
 10575              	.LVL1527:
 10576 3256 C4EBA314 		rsb	r4, r4, r3, asr #6
 10577 325a 24B2     		sxth	r4, r4
 10578 325c FEF716BA 		b	.L318
 10579              	.LVL1528:
 10580              	.L682:
 10581              	.LBE811:
 10582              	.LBE1064:
 565:Drivers/lvgl/lvgl/src/extra/themes/default/lv_theme_default.c **** 
 10583              		.loc 1 565 0 is_stmt 1 discriminator 1
 10584 3260 6C4B     		ldr	r3, .L843+4
 10585 3262 DC68     		ldr	r4, [r3, #12]
 10586              	.LVL1529:
 10587              	.LBB1065:
 10588              	.LBB1066:
 10589              		.loc 3 257 0 discriminator 1
 10590 3264 2046     		mov	r0, r4
 10591 3266 FFF7FEFF 		bl	lv_disp_get_dpi
 10592              	.LVL1530:
 10593 326a C0EBC000 		rsb	r0, r0, r0, lsl #3
 10594 326e 4000     		lsls	r0, r0, #1
 10595 3270 5030     		adds	r0, r0, #80
 10596 3272 B0F5A07F 		cmp	r0, #320
 10597 3276 07DA     		bge	.L781
 10598              		.loc 3 257 0 is_stmt 0
 10599 3278 0123     		movs	r3, #1
 10600              	.L323:
 10601              	.LVL1531:
 10602              	.LBE1066:
 10603              	.LBE1065:
 565:Drivers/lvgl/lvgl/src/extra/themes/default/lv_theme_default.c **** 
 10604              		.loc 1 565 0 is_stmt 1
 10605 327a 1C46     		mov	r4, r3
 10606 327c 002B     		cmp	r3, #0
 10607 327e 12DB     		blt	.L782
 10608              	.L324:
ARM GAS  /tmp/cc6wDDAF.s 			page 249


 10609 3280 44F34F04 		sbfx	r4, r4, #1, #16
 10610 3284 FEF732BA 		b	.L325
 10611              	.LVL1532:
 10612              	.L781:
 10613              	.LBB1068:
 10614              	.LBB1067:
 10615              		.loc 3 257 0
 10616 3288 2046     		mov	r0, r4
 10617 328a FFF7FEFF 		bl	lv_disp_get_dpi
 10618              	.LVL1533:
 10619 328e C0EBC000 		rsb	r0, r0, r0, lsl #3
 10620 3292 4000     		lsls	r0, r0, #1
 10621 3294 5030     		adds	r0, r0, #80
 10622 3296 5E4A     		ldr	r2, .L843
 10623 3298 82FB0032 		smull	r3, r2, r2, r0
 10624 329c C317     		asrs	r3, r0, #31
 10625 329e C3EBA213 		rsb	r3, r3, r2, asr #6
 10626 32a2 1BB2     		sxth	r3, r3
 10627 32a4 E9E7     		b	.L323
 10628              	.LVL1534:
 10629              	.L782:
 10630              	.LBE1067:
 10631              	.LBE1068:
 565:Drivers/lvgl/lvgl/src/extra/themes/default/lv_theme_default.c **** 
 10632              		.loc 1 565 0
 10633 32a6 5C1C     		adds	r4, r3, #1
 10634 32a8 EAE7     		b	.L324
 10635              	.L683:
 565:Drivers/lvgl/lvgl/src/extra/themes/default/lv_theme_default.c **** 
 10636              		.loc 1 565 0 is_stmt 0 discriminator 4
 10637 32aa 5A4B     		ldr	r3, .L843+4
 10638 32ac DC68     		ldr	r4, [r3, #12]
 10639              	.LVL1535:
 10640              	.LBB1069:
 10641              	.LBB1070:
 10642              		.loc 3 257 0 is_stmt 1 discriminator 4
 10643 32ae 2046     		mov	r0, r4
 10644 32b0 FFF7FEFF 		bl	lv_disp_get_dpi
 10645              	.LVL1536:
 10646 32b4 00EB4000 		add	r0, r0, r0, lsl #1
 10647 32b8 8000     		lsls	r0, r0, #2
 10648 32ba 5030     		adds	r0, r0, #80
 10649 32bc B0F5A07F 		cmp	r0, #320
 10650 32c0 07DA     		bge	.L783
 10651              		.loc 3 257 0 is_stmt 0
 10652 32c2 0123     		movs	r3, #1
 10653              	.L327:
 10654              	.LVL1537:
 10655              	.LBE1070:
 10656              	.LBE1069:
 565:Drivers/lvgl/lvgl/src/extra/themes/default/lv_theme_default.c **** 
 10657              		.loc 1 565 0 is_stmt 1
 10658 32c4 1C46     		mov	r4, r3
 10659 32c6 002B     		cmp	r3, #0
 10660 32c8 12DB     		blt	.L784
 10661              	.L328:
 10662 32ca 44F34F04 		sbfx	r4, r4, #1, #16
ARM GAS  /tmp/cc6wDDAF.s 			page 250


 10663 32ce FEF70DBA 		b	.L325
 10664              	.LVL1538:
 10665              	.L783:
 10666              	.LBB1072:
 10667              	.LBB1071:
 10668              		.loc 3 257 0
 10669 32d2 2046     		mov	r0, r4
 10670 32d4 FFF7FEFF 		bl	lv_disp_get_dpi
 10671              	.LVL1539:
 10672 32d8 00EB4000 		add	r0, r0, r0, lsl #1
 10673 32dc 8000     		lsls	r0, r0, #2
 10674 32de 5030     		adds	r0, r0, #80
 10675 32e0 4B4A     		ldr	r2, .L843
 10676 32e2 82FB0032 		smull	r3, r2, r2, r0
 10677 32e6 C317     		asrs	r3, r0, #31
 10678 32e8 C3EBA213 		rsb	r3, r3, r2, asr #6
 10679 32ec 1BB2     		sxth	r3, r3
 10680 32ee E9E7     		b	.L327
 10681              	.LVL1540:
 10682              	.L784:
 10683              	.LBE1071:
 10684              	.LBE1072:
 565:Drivers/lvgl/lvgl/src/extra/themes/default/lv_theme_default.c **** 
 10685              		.loc 1 565 0
 10686 32f0 5C1C     		adds	r4, r3, #1
 10687 32f2 EAE7     		b	.L328
 10688              	.LVL1541:
 10689              	.L684:
 10690              	.LBB1073:
 10691              	.LBB816:
 10692              		.loc 3 257 0
 10693 32f4 2046     		mov	r0, r4
 10694 32f6 FFF7FEFF 		bl	lv_disp_get_dpi
 10695              	.LVL1542:
 10696 32fa 00EB8000 		add	r0, r0, r0, lsl #2
 10697 32fe 4000     		lsls	r0, r0, #1
 10698 3300 5030     		adds	r0, r0, #80
 10699 3302 434A     		ldr	r2, .L843
 10700 3304 82FB0032 		smull	r3, r2, r2, r0
 10701 3308 C317     		asrs	r3, r0, #31
 10702 330a C3EBA213 		rsb	r3, r3, r2, asr #6
 10703 330e 1BB2     		sxth	r3, r3
 10704 3310 FEF7E6B9 		b	.L329
 10705              	.LVL1543:
 10706              	.L685:
 10707              	.LBE816:
 10708              	.LBE1073:
 565:Drivers/lvgl/lvgl/src/extra/themes/default/lv_theme_default.c **** 
 10709              		.loc 1 565 0
 10710 3314 5C1C     		adds	r4, r3, #1
 10711 3316 FEF7E7B9 		b	.L330
 10712              	.LVL1544:
 10713              	.L686:
 10714              	.LBB1074:
 10715              	.LBB821:
 10716              		.loc 3 257 0
 10717 331a 2846     		mov	r0, r5
ARM GAS  /tmp/cc6wDDAF.s 			page 251


 10718 331c FFF7FEFF 		bl	lv_disp_get_dpi
 10719              	.LVL1545:
 10720 3320 5030     		adds	r0, r0, #80
 10721 3322 3B4B     		ldr	r3, .L843
 10722 3324 83FB0023 		smull	r2, r3, r3, r0
 10723 3328 C117     		asrs	r1, r0, #31
 10724 332a C1EBA311 		rsb	r1, r1, r3, asr #6
 10725 332e 09B2     		sxth	r1, r1
 10726 3330 FEF7F8B9 		b	.L331
 10727              	.LVL1546:
 10728              	.L687:
 10729              	.LBE821:
 10730              	.LBE1074:
 574:Drivers/lvgl/lvgl/src/extra/themes/default/lv_theme_default.c ****     lv_style_set_pad_top(&styles->calendar_header, PAD_SMALL);
 10731              		.loc 1 574 0 discriminator 1
 10732 3334 374B     		ldr	r3, .L843+4
 10733 3336 DC68     		ldr	r4, [r3, #12]
 10734              	.LVL1547:
 10735              	.LBB1075:
 10736              	.LBB1076:
 10737              		.loc 3 257 0 discriminator 1
 10738 3338 2046     		mov	r0, r4
 10739 333a FFF7FEFF 		bl	lv_disp_get_dpi
 10740              	.LVL1548:
 10741 333e C0EBC000 		rsb	r0, r0, r0, lsl #3
 10742 3342 4000     		lsls	r0, r0, #1
 10743 3344 5030     		adds	r0, r0, #80
 10744 3346 B0F5A07F 		cmp	r0, #320
 10745 334a 02DA     		bge	.L785
 10746              		.loc 3 257 0 is_stmt 0
 10747 334c 0124     		movs	r4, #1
 10748              	.LVL1549:
 10749 334e FEF71FBA 		b	.L334
 10750              	.LVL1550:
 10751              	.L785:
 10752 3352 2046     		mov	r0, r4
 10753 3354 FFF7FEFF 		bl	lv_disp_get_dpi
 10754              	.LVL1551:
 10755 3358 C0EBC000 		rsb	r0, r0, r0, lsl #3
 10756 335c 4000     		lsls	r0, r0, #1
 10757 335e 5030     		adds	r0, r0, #80
 10758 3360 2B4B     		ldr	r3, .L843
 10759 3362 83FB0023 		smull	r2, r3, r3, r0
 10760 3366 C417     		asrs	r4, r0, #31
 10761              	.LVL1552:
 10762 3368 C4EBA314 		rsb	r4, r4, r3, asr #6
 10763 336c 24B2     		sxth	r4, r4
 10764 336e FEF70FBA 		b	.L334
 10765              	.LVL1553:
 10766              	.L688:
 10767              	.LBE1076:
 10768              	.LBE1075:
 574:Drivers/lvgl/lvgl/src/extra/themes/default/lv_theme_default.c ****     lv_style_set_pad_top(&styles->calendar_header, PAD_SMALL);
 10769              		.loc 1 574 0 is_stmt 1 discriminator 4
 10770 3372 284B     		ldr	r3, .L843+4
 10771 3374 DC68     		ldr	r4, [r3, #12]
 10772              	.LVL1554:
ARM GAS  /tmp/cc6wDDAF.s 			page 252


 10773              	.LBB1077:
 10774              	.LBB1078:
 10775              		.loc 3 257 0 discriminator 4
 10776 3376 2046     		mov	r0, r4
 10777 3378 FFF7FEFF 		bl	lv_disp_get_dpi
 10778              	.LVL1555:
 10779 337c 00EB4000 		add	r0, r0, r0, lsl #1
 10780 3380 8000     		lsls	r0, r0, #2
 10781 3382 5030     		adds	r0, r0, #80
 10782 3384 B0F5A07F 		cmp	r0, #320
 10783 3388 02DA     		bge	.L786
 10784              		.loc 3 257 0 is_stmt 0
 10785 338a 0124     		movs	r4, #1
 10786              	.LVL1556:
 10787 338c FEF700BA 		b	.L334
 10788              	.LVL1557:
 10789              	.L786:
 10790 3390 2046     		mov	r0, r4
 10791 3392 FFF7FEFF 		bl	lv_disp_get_dpi
 10792              	.LVL1558:
 10793 3396 00EB4000 		add	r0, r0, r0, lsl #1
 10794 339a 8000     		lsls	r0, r0, #2
 10795 339c 5030     		adds	r0, r0, #80
 10796 339e 1C4B     		ldr	r3, .L843
 10797 33a0 83FB0023 		smull	r2, r3, r3, r0
 10798 33a4 C417     		asrs	r4, r0, #31
 10799              	.LVL1559:
 10800 33a6 C4EBA314 		rsb	r4, r4, r3, asr #6
 10801 33aa 24B2     		sxth	r4, r4
 10802 33ac FEF7F0B9 		b	.L334
 10803              	.LVL1560:
 10804              	.L689:
 10805              	.LBE1078:
 10806              	.LBE1077:
 10807              	.LBB1079:
 10808              	.LBB824:
 10809 33b0 2046     		mov	r0, r4
 10810 33b2 FFF7FEFF 		bl	lv_disp_get_dpi
 10811              	.LVL1561:
 10812 33b6 00EB8000 		add	r0, r0, r0, lsl #2
 10813 33ba 4000     		lsls	r0, r0, #1
 10814 33bc 5030     		adds	r0, r0, #80
 10815 33be 144B     		ldr	r3, .L843
 10816 33c0 83FB0023 		smull	r2, r3, r3, r0
 10817 33c4 C417     		asrs	r4, r0, #31
 10818              	.LVL1562:
 10819 33c6 C4EBA314 		rsb	r4, r4, r3, asr #6
 10820 33ca 24B2     		sxth	r4, r4
 10821 33cc FEF7E0B9 		b	.L334
 10822              	.LVL1563:
 10823              	.L690:
 10824              	.LBE824:
 10825              	.LBE1079:
 575:Drivers/lvgl/lvgl/src/extra/themes/default/lv_theme_default.c ****     lv_style_set_pad_bottom(&styles->calendar_header, PAD_TINY);
 10826              		.loc 1 575 0 is_stmt 1 discriminator 1
 10827 33d0 104B     		ldr	r3, .L843+4
 10828 33d2 DD68     		ldr	r5, [r3, #12]
ARM GAS  /tmp/cc6wDDAF.s 			page 253


 10829              	.LVL1564:
 10830              	.LBB1080:
 10831              	.LBB1081:
 10832              		.loc 3 257 0 discriminator 1
 10833 33d4 2846     		mov	r0, r5
 10834 33d6 FFF7FEFF 		bl	lv_disp_get_dpi
 10835              	.LVL1565:
 10836 33da C0EBC000 		rsb	r0, r0, r0, lsl #3
 10837 33de 4000     		lsls	r0, r0, #1
 10838 33e0 5030     		adds	r0, r0, #80
 10839 33e2 B0F5A07F 		cmp	r0, #320
 10840 33e6 02DA     		bge	.L787
 10841              		.loc 3 257 0 is_stmt 0
 10842 33e8 0121     		movs	r1, #1
 10843              	.LVL1566:
 10844 33ea FEF7F3B9 		b	.L340
 10845              	.LVL1567:
 10846              	.L787:
 10847 33ee 2846     		mov	r0, r5
 10848 33f0 FFF7FEFF 		bl	lv_disp_get_dpi
 10849              	.LVL1568:
 10850 33f4 C0EBC000 		rsb	r0, r0, r0, lsl #3
 10851 33f8 4000     		lsls	r0, r0, #1
 10852 33fa 5030     		adds	r0, r0, #80
 10853 33fc 044B     		ldr	r3, .L843
 10854 33fe 83FB0023 		smull	r2, r3, r3, r0
 10855 3402 C117     		asrs	r1, r0, #31
 10856 3404 C1EBA311 		rsb	r1, r1, r3, asr #6
 10857 3408 09B2     		sxth	r1, r1
 10858 340a FEF7E3B9 		b	.L340
 10859              	.L844:
 10860 340e 00BF     		.align	2
 10861              	.L843:
 10862 3410 67666666 		.word	1717986919
 10863 3414 00000000 		.word	.LANCHOR2
 10864              	.LVL1569:
 10865              	.L691:
 10866              	.LBE1081:
 10867              	.LBE1080:
 575:Drivers/lvgl/lvgl/src/extra/themes/default/lv_theme_default.c ****     lv_style_set_pad_bottom(&styles->calendar_header, PAD_TINY);
 10868              		.loc 1 575 0 is_stmt 1 discriminator 4
 10869 3418 D84B     		ldr	r3, .L845
 10870 341a DD68     		ldr	r5, [r3, #12]
 10871              	.LVL1570:
 10872              	.LBB1082:
 10873              	.LBB1083:
 10874              		.loc 3 257 0 discriminator 4
 10875 341c 2846     		mov	r0, r5
 10876 341e FFF7FEFF 		bl	lv_disp_get_dpi
 10877              	.LVL1571:
 10878 3422 00EB4000 		add	r0, r0, r0, lsl #1
 10879 3426 8000     		lsls	r0, r0, #2
 10880 3428 5030     		adds	r0, r0, #80
 10881 342a B0F5A07F 		cmp	r0, #320
 10882 342e 02DA     		bge	.L788
 10883              		.loc 3 257 0 is_stmt 0
 10884 3430 0121     		movs	r1, #1
ARM GAS  /tmp/cc6wDDAF.s 			page 254


 10885              	.LVL1572:
 10886 3432 FEF7CFB9 		b	.L340
 10887              	.LVL1573:
 10888              	.L788:
 10889 3436 2846     		mov	r0, r5
 10890 3438 FFF7FEFF 		bl	lv_disp_get_dpi
 10891              	.LVL1574:
 10892 343c 00EB4000 		add	r0, r0, r0, lsl #1
 10893 3440 8000     		lsls	r0, r0, #2
 10894 3442 5030     		adds	r0, r0, #80
 10895 3444 CE4B     		ldr	r3, .L845+4
 10896 3446 83FB0023 		smull	r2, r3, r3, r0
 10897 344a C117     		asrs	r1, r0, #31
 10898 344c C1EBA311 		rsb	r1, r1, r3, asr #6
 10899 3450 09B2     		sxth	r1, r1
 10900 3452 FEF7BFB9 		b	.L340
 10901              	.LVL1575:
 10902              	.L692:
 10903              	.LBE1083:
 10904              	.LBE1082:
 10905              	.LBB1084:
 10906              	.LBB829:
 10907 3456 2846     		mov	r0, r5
 10908 3458 FFF7FEFF 		bl	lv_disp_get_dpi
 10909              	.LVL1576:
 10910 345c 00EB8000 		add	r0, r0, r0, lsl #2
 10911 3460 4000     		lsls	r0, r0, #1
 10912 3462 5030     		adds	r0, r0, #80
 10913 3464 C64B     		ldr	r3, .L845+4
 10914 3466 83FB0023 		smull	r2, r3, r3, r0
 10915 346a C117     		asrs	r1, r0, #31
 10916 346c C1EBA311 		rsb	r1, r1, r3, asr #6
 10917 3470 09B2     		sxth	r1, r1
 10918 3472 FEF7AFB9 		b	.L340
 10919              	.LVL1577:
 10920              	.L693:
 10921              	.LBE829:
 10922              	.LBE1084:
 576:Drivers/lvgl/lvgl/src/extra/themes/default/lv_theme_default.c ****     lv_style_set_pad_gap(&styles->calendar_header, PAD_SMALL);
 10923              		.loc 1 576 0 is_stmt 1 discriminator 1
 10924 3476 C14B     		ldr	r3, .L845
 10925 3478 DD68     		ldr	r5, [r3, #12]
 10926              	.LVL1578:
 10927              	.LBB1085:
 10928              	.LBB1086:
 10929              		.loc 3 257 0 discriminator 1
 10930 347a 2846     		mov	r0, r5
 10931 347c FFF7FEFF 		bl	lv_disp_get_dpi
 10932              	.LVL1579:
 10933 3480 C000     		lsls	r0, r0, #3
 10934 3482 5030     		adds	r0, r0, #80
 10935 3484 B0F5A07F 		cmp	r0, #320
 10936 3488 02DA     		bge	.L789
 10937              		.loc 3 257 0 is_stmt 0
 10938 348a 0121     		movs	r1, #1
 10939              	.LVL1580:
 10940 348c FEF7BDB9 		b	.L346
ARM GAS  /tmp/cc6wDDAF.s 			page 255


 10941              	.LVL1581:
 10942              	.L789:
 10943 3490 2846     		mov	r0, r5
 10944 3492 FFF7FEFF 		bl	lv_disp_get_dpi
 10945              	.LVL1582:
 10946 3496 C000     		lsls	r0, r0, #3
 10947 3498 5030     		adds	r0, r0, #80
 10948 349a B94B     		ldr	r3, .L845+4
 10949 349c 83FB0023 		smull	r2, r3, r3, r0
 10950 34a0 C117     		asrs	r1, r0, #31
 10951 34a2 C1EBA311 		rsb	r1, r1, r3, asr #6
 10952 34a6 09B2     		sxth	r1, r1
 10953 34a8 FEF7AFB9 		b	.L346
 10954              	.LVL1583:
 10955              	.L694:
 10956              	.LBE1086:
 10957              	.LBE1085:
 576:Drivers/lvgl/lvgl/src/extra/themes/default/lv_theme_default.c ****     lv_style_set_pad_gap(&styles->calendar_header, PAD_SMALL);
 10958              		.loc 1 576 0 is_stmt 1 discriminator 4
 10959 34ac B34B     		ldr	r3, .L845
 10960 34ae DD68     		ldr	r5, [r3, #12]
 10961              	.LVL1584:
 10962              	.LBB1087:
 10963              	.LBB1088:
 10964              		.loc 3 257 0 discriminator 4
 10965 34b0 2846     		mov	r0, r5
 10966 34b2 FFF7FEFF 		bl	lv_disp_get_dpi
 10967              	.LVL1585:
 10968 34b6 00EB4000 		add	r0, r0, r0, lsl #1
 10969 34ba 4000     		lsls	r0, r0, #1
 10970 34bc 5030     		adds	r0, r0, #80
 10971 34be B0F5A07F 		cmp	r0, #320
 10972 34c2 02DA     		bge	.L790
 10973              		.loc 3 257 0 is_stmt 0
 10974 34c4 0121     		movs	r1, #1
 10975              	.LVL1586:
 10976 34c6 FEF7A0B9 		b	.L346
 10977              	.LVL1587:
 10978              	.L790:
 10979 34ca 2846     		mov	r0, r5
 10980 34cc FFF7FEFF 		bl	lv_disp_get_dpi
 10981              	.LVL1588:
 10982 34d0 00EB4000 		add	r0, r0, r0, lsl #1
 10983 34d4 4000     		lsls	r0, r0, #1
 10984 34d6 5030     		adds	r0, r0, #80
 10985 34d8 A94B     		ldr	r3, .L845+4
 10986 34da 83FB0023 		smull	r2, r3, r3, r0
 10987 34de C117     		asrs	r1, r0, #31
 10988 34e0 C1EBA311 		rsb	r1, r1, r3, asr #6
 10989 34e4 09B2     		sxth	r1, r1
 10990 34e6 FEF790B9 		b	.L346
 10991              	.LVL1589:
 10992              	.L695:
 10993              	.LBE1088:
 10994              	.LBE1087:
 10995              	.LBB1089:
 10996              	.LBB832:
ARM GAS  /tmp/cc6wDDAF.s 			page 256


 10997 34ea 2846     		mov	r0, r5
 10998 34ec FFF7FEFF 		bl	lv_disp_get_dpi
 10999              	.LVL1590:
 11000 34f0 4000     		lsls	r0, r0, #1
 11001 34f2 5030     		adds	r0, r0, #80
 11002 34f4 A24B     		ldr	r3, .L845+4
 11003 34f6 83FB0023 		smull	r2, r3, r3, r0
 11004 34fa C117     		asrs	r1, r0, #31
 11005 34fc C1EBA311 		rsb	r1, r1, r3, asr #6
 11006 3500 09B2     		sxth	r1, r1
 11007 3502 FEF782B9 		b	.L346
 11008              	.LVL1591:
 11009              	.L696:
 11010              	.LBE832:
 11011              	.LBE1089:
 577:Drivers/lvgl/lvgl/src/extra/themes/default/lv_theme_default.c **** #endif
 11012              		.loc 1 577 0 is_stmt 1 discriminator 1
 11013 3506 9D4B     		ldr	r3, .L845
 11014 3508 DC68     		ldr	r4, [r3, #12]
 11015              	.LVL1592:
 11016              	.LBB1090:
 11017              	.LBB1091:
 11018              		.loc 3 257 0 discriminator 1
 11019 350a 2046     		mov	r0, r4
 11020 350c FFF7FEFF 		bl	lv_disp_get_dpi
 11021              	.LVL1593:
 11022 3510 C0EBC000 		rsb	r0, r0, r0, lsl #3
 11023 3514 4000     		lsls	r0, r0, #1
 11024 3516 5030     		adds	r0, r0, #80
 11025 3518 B0F5A07F 		cmp	r0, #320
 11026 351c 02DA     		bge	.L791
 11027              		.loc 3 257 0 is_stmt 0
 11028 351e 0124     		movs	r4, #1
 11029              	.LVL1594:
 11030 3520 FEF79DB9 		b	.L352
 11031              	.LVL1595:
 11032              	.L791:
 11033 3524 2046     		mov	r0, r4
 11034 3526 FFF7FEFF 		bl	lv_disp_get_dpi
 11035              	.LVL1596:
 11036 352a C0EBC000 		rsb	r0, r0, r0, lsl #3
 11037 352e 4000     		lsls	r0, r0, #1
 11038 3530 5030     		adds	r0, r0, #80
 11039 3532 934B     		ldr	r3, .L845+4
 11040 3534 83FB0023 		smull	r2, r3, r3, r0
 11041 3538 C417     		asrs	r4, r0, #31
 11042              	.LVL1597:
 11043 353a C4EBA314 		rsb	r4, r4, r3, asr #6
 11044 353e 24B2     		sxth	r4, r4
 11045 3540 FEF78DB9 		b	.L352
 11046              	.LVL1598:
 11047              	.L697:
 11048              	.LBE1091:
 11049              	.LBE1090:
 577:Drivers/lvgl/lvgl/src/extra/themes/default/lv_theme_default.c **** #endif
 11050              		.loc 1 577 0 is_stmt 1 discriminator 4
 11051 3544 8D4B     		ldr	r3, .L845
ARM GAS  /tmp/cc6wDDAF.s 			page 257


 11052 3546 DC68     		ldr	r4, [r3, #12]
 11053              	.LVL1599:
 11054              	.LBB1092:
 11055              	.LBB1093:
 11056              		.loc 3 257 0 discriminator 4
 11057 3548 2046     		mov	r0, r4
 11058 354a FFF7FEFF 		bl	lv_disp_get_dpi
 11059              	.LVL1600:
 11060 354e 00EB4000 		add	r0, r0, r0, lsl #1
 11061 3552 8000     		lsls	r0, r0, #2
 11062 3554 5030     		adds	r0, r0, #80
 11063 3556 B0F5A07F 		cmp	r0, #320
 11064 355a 02DA     		bge	.L792
 11065              		.loc 3 257 0 is_stmt 0
 11066 355c 0124     		movs	r4, #1
 11067              	.LVL1601:
 11068 355e FEF77EB9 		b	.L352
 11069              	.LVL1602:
 11070              	.L792:
 11071 3562 2046     		mov	r0, r4
 11072 3564 FFF7FEFF 		bl	lv_disp_get_dpi
 11073              	.LVL1603:
 11074 3568 00EB4000 		add	r0, r0, r0, lsl #1
 11075 356c 8000     		lsls	r0, r0, #2
 11076 356e 5030     		adds	r0, r0, #80
 11077 3570 834B     		ldr	r3, .L845+4
 11078 3572 83FB0023 		smull	r2, r3, r3, r0
 11079 3576 C417     		asrs	r4, r0, #31
 11080              	.LVL1604:
 11081 3578 C4EBA314 		rsb	r4, r4, r3, asr #6
 11082 357c 24B2     		sxth	r4, r4
 11083 357e FEF76EB9 		b	.L352
 11084              	.LVL1605:
 11085              	.L698:
 11086              	.LBE1093:
 11087              	.LBE1092:
 11088              	.LBB1094:
 11089              	.LBB835:
 11090 3582 2046     		mov	r0, r4
 11091 3584 FFF7FEFF 		bl	lv_disp_get_dpi
 11092              	.LVL1606:
 11093 3588 00EB8000 		add	r0, r0, r0, lsl #2
 11094 358c 4000     		lsls	r0, r0, #1
 11095 358e 5030     		adds	r0, r0, #80
 11096 3590 7B4B     		ldr	r3, .L845+4
 11097 3592 83FB0023 		smull	r2, r3, r3, r0
 11098 3596 C417     		asrs	r4, r0, #31
 11099              	.LVL1607:
 11100 3598 C4EBA314 		rsb	r4, r4, r3, asr #6
 11101 359c 24B2     		sxth	r4, r4
 11102 359e FEF75EB9 		b	.L352
 11103              	.LVL1608:
 11104              	.L699:
 11105              	.LBE835:
 11106              	.LBE1094:
 11107              	.LBB1095:
 11108              	.LBB840:
ARM GAS  /tmp/cc6wDDAF.s 			page 258


 11109 35a2 2846     		mov	r0, r5
 11110 35a4 FFF7FEFF 		bl	lv_disp_get_dpi
 11111              	.LVL1609:
 11112 35a8 00EB8000 		add	r0, r0, r0, lsl #2
 11113 35ac 4000     		lsls	r0, r0, #1
 11114 35ae 5030     		adds	r0, r0, #80
 11115 35b0 734B     		ldr	r3, .L845+4
 11116 35b2 83FB0023 		smull	r2, r3, r3, r0
 11117 35b6 C117     		asrs	r1, r0, #31
 11118 35b8 C1EBA311 		rsb	r1, r1, r3, asr #6
 11119 35bc 09B2     		sxth	r1, r1
 11120 35be FEF76DB9 		b	.L356
 11121              	.LVL1610:
 11122              	.L700:
 11123              	.LBE840:
 11124              	.LBE1095:
 11125              	.LBB1096:
 11126              	.LBB843:
 11127 35c2 2046     		mov	r0, r4
 11128 35c4 FFF7FEFF 		bl	lv_disp_get_dpi
 11129              	.LVL1611:
 11130 35c8 8000     		lsls	r0, r0, #2
 11131 35ca 5030     		adds	r0, r0, #80
 11132 35cc 6C4B     		ldr	r3, .L845+4
 11133 35ce 83FB0023 		smull	r2, r3, r3, r0
 11134 35d2 C417     		asrs	r4, r0, #31
 11135              	.LVL1612:
 11136 35d4 C4EBA314 		rsb	r4, r4, r3, asr #6
 11137 35d8 24B2     		sxth	r4, r4
 11138 35da FEF777B9 		b	.L357
 11139              	.LVL1613:
 11140              	.L701:
 11141              	.LBE843:
 11142              	.LBE1096:
 600:Drivers/lvgl/lvgl/src/extra/themes/default/lv_theme_default.c **** #endif
 11143              		.loc 1 600 0 is_stmt 1 discriminator 1
 11144 35de 012B     		cmp	r3, #1
 11145 35e0 11D0     		beq	.L793
 600:Drivers/lvgl/lvgl/src/extra/themes/default/lv_theme_default.c **** #endif
 11146              		.loc 1 600 0 is_stmt 0 discriminator 4
 11147 35e2 664B     		ldr	r3, .L845
 11148 35e4 DD68     		ldr	r5, [r3, #12]
 11149              	.LVL1614:
 11150              	.LBB1097:
 11151              	.LBB1098:
 11152              		.loc 3 257 0 is_stmt 1 discriminator 4
 11153 35e6 2846     		mov	r0, r5
 11154 35e8 FFF7FEFF 		bl	lv_disp_get_dpi
 11155              	.LVL1615:
 11156 35ec C000     		lsls	r0, r0, #3
 11157 35ee 5030     		adds	r0, r0, #80
 11158 35f0 B0F5A07F 		cmp	r0, #320
 11159 35f4 2CDA     		bge	.L794
 11160              		.loc 3 257 0 is_stmt 0
 11161 35f6 0123     		movs	r3, #1
 11162              	.L363:
 11163              	.LVL1616:
ARM GAS  /tmp/cc6wDDAF.s 			page 259


 11164              	.LBE1098:
 11165              	.LBE1097:
 600:Drivers/lvgl/lvgl/src/extra/themes/default/lv_theme_default.c **** #endif
 11166              		.loc 1 600 0 is_stmt 1
 11167 35f8 1946     		mov	r1, r3
 11168 35fa 002B     		cmp	r3, #0
 11169 35fc 35DB     		blt	.L795
 11170              	.L364:
 11171 35fe 41F34F01 		sbfx	r1, r1, #1, #16
 11172 3602 FEF7B6B9 		b	.L362
 11173              	.L793:
 600:Drivers/lvgl/lvgl/src/extra/themes/default/lv_theme_default.c **** #endif
 11174              		.loc 1 600 0 is_stmt 0 discriminator 3
 11175 3606 5D4B     		ldr	r3, .L845
 11176 3608 DD68     		ldr	r5, [r3, #12]
 11177              	.LVL1617:
 11178              	.LBB1100:
 11179              	.LBB1101:
 11180              		.loc 3 257 0 is_stmt 1 discriminator 3
 11181 360a 2846     		mov	r0, r5
 11182 360c FFF7FEFF 		bl	lv_disp_get_dpi
 11183              	.LVL1618:
 11184 3610 00EB4000 		add	r0, r0, r0, lsl #1
 11185 3614 8000     		lsls	r0, r0, #2
 11186 3616 5030     		adds	r0, r0, #80
 11187 3618 B0F5A07F 		cmp	r0, #320
 11188 361c 07DA     		bge	.L796
 11189              		.loc 3 257 0 is_stmt 0
 11190 361e 0123     		movs	r3, #1
 11191              	.L360:
 11192              	.LVL1619:
 11193              	.LBE1101:
 11194              	.LBE1100:
 600:Drivers/lvgl/lvgl/src/extra/themes/default/lv_theme_default.c **** #endif
 11195              		.loc 1 600 0 is_stmt 1
 11196 3620 1946     		mov	r1, r3
 11197 3622 002B     		cmp	r3, #0
 11198 3624 12DB     		blt	.L797
 11199              	.L361:
 11200 3626 41F34F01 		sbfx	r1, r1, #1, #16
 11201 362a FEF7A2B9 		b	.L362
 11202              	.LVL1620:
 11203              	.L796:
 11204              	.LBB1103:
 11205              	.LBB1102:
 11206              		.loc 3 257 0
 11207 362e 2846     		mov	r0, r5
 11208 3630 FFF7FEFF 		bl	lv_disp_get_dpi
 11209              	.LVL1621:
 11210 3634 00EB4000 		add	r0, r0, r0, lsl #1
 11211 3638 8300     		lsls	r3, r0, #2
 11212 363a 5033     		adds	r3, r3, #80
 11213 363c 504A     		ldr	r2, .L845+4
 11214 363e 82FB0312 		smull	r1, r2, r2, r3
 11215 3642 DB17     		asrs	r3, r3, #31
 11216 3644 C3EBA213 		rsb	r3, r3, r2, asr #6
 11217 3648 1BB2     		sxth	r3, r3
ARM GAS  /tmp/cc6wDDAF.s 			page 260


 11218 364a E9E7     		b	.L360
 11219              	.LVL1622:
 11220              	.L797:
 11221              	.LBE1102:
 11222              	.LBE1103:
 600:Drivers/lvgl/lvgl/src/extra/themes/default/lv_theme_default.c **** #endif
 11223              		.loc 1 600 0
 11224 364c 591C     		adds	r1, r3, #1
 11225 364e EAE7     		b	.L361
 11226              	.LVL1623:
 11227              	.L794:
 11228              	.LBB1104:
 11229              	.LBB1099:
 11230              		.loc 3 257 0
 11231 3650 2846     		mov	r0, r5
 11232 3652 FFF7FEFF 		bl	lv_disp_get_dpi
 11233              	.LVL1624:
 11234 3656 C000     		lsls	r0, r0, #3
 11235 3658 5030     		adds	r0, r0, #80
 11236 365a 494A     		ldr	r2, .L845+4
 11237 365c 82FB0032 		smull	r3, r2, r2, r0
 11238 3660 C317     		asrs	r3, r0, #31
 11239 3662 C3EBA213 		rsb	r3, r3, r2, asr #6
 11240 3666 1BB2     		sxth	r3, r3
 11241 3668 C6E7     		b	.L363
 11242              	.LVL1625:
 11243              	.L795:
 11244              	.LBE1099:
 11245              	.LBE1104:
 600:Drivers/lvgl/lvgl/src/extra/themes/default/lv_theme_default.c **** #endif
 11246              		.loc 1 600 0
 11247 366a 591C     		adds	r1, r3, #1
 11248 366c C7E7     		b	.L364
 11249              	.L702:
 600:Drivers/lvgl/lvgl/src/extra/themes/default/lv_theme_default.c **** #endif
 11250              		.loc 1 600 0 is_stmt 0 discriminator 8
 11251 366e 434B     		ldr	r3, .L845
 11252 3670 DD68     		ldr	r5, [r3, #12]
 11253              	.LVL1626:
 11254              	.LBB1105:
 11255              	.LBB1106:
 11256              		.loc 3 257 0 is_stmt 1 discriminator 8
 11257 3672 2846     		mov	r0, r5
 11258 3674 FFF7FEFF 		bl	lv_disp_get_dpi
 11259              	.LVL1627:
 11260 3678 00EB4000 		add	r0, r0, r0, lsl #1
 11261 367c 8000     		lsls	r0, r0, #2
 11262 367e 5030     		adds	r0, r0, #80
 11263 3680 B0F5A07F 		cmp	r0, #320
 11264 3684 02DA     		bge	.L798
 11265              		.loc 3 257 0 is_stmt 0
 11266 3686 0121     		movs	r1, #1
 11267              	.LVL1628:
 11268 3688 FEF773B9 		b	.L362
 11269              	.LVL1629:
 11270              	.L798:
 11271 368c 2846     		mov	r0, r5
ARM GAS  /tmp/cc6wDDAF.s 			page 261


 11272 368e FFF7FEFF 		bl	lv_disp_get_dpi
 11273              	.LVL1630:
 11274 3692 00EB4000 		add	r0, r0, r0, lsl #1
 11275 3696 8000     		lsls	r0, r0, #2
 11276 3698 5030     		adds	r0, r0, #80
 11277 369a 394B     		ldr	r3, .L845+4
 11278 369c 83FB0023 		smull	r2, r3, r3, r0
 11279 36a0 C117     		asrs	r1, r0, #31
 11280 36a2 C1EBA311 		rsb	r1, r1, r3, asr #6
 11281 36a6 09B2     		sxth	r1, r1
 11282 36a8 FEF763B9 		b	.L362
 11283              	.LVL1631:
 11284              	.L703:
 11285              	.LBE1106:
 11286              	.LBE1105:
 11287              	.LBB1107:
 11288              	.LBB848:
 11289 36ac 2846     		mov	r0, r5
 11290 36ae FFF7FEFF 		bl	lv_disp_get_dpi
 11291              	.LVL1632:
 11292 36b2 C000     		lsls	r0, r0, #3
 11293 36b4 5030     		adds	r0, r0, #80
 11294 36b6 324B     		ldr	r3, .L845+4
 11295 36b8 83FB0023 		smull	r2, r3, r3, r0
 11296 36bc C117     		asrs	r1, r0, #31
 11297 36be C1EBA311 		rsb	r1, r1, r3, asr #6
 11298 36c2 09B2     		sxth	r1, r1
 11299 36c4 FEF755B9 		b	.L362
 11300              	.LVL1633:
 11301              	.L704:
 11302              	.LBE848:
 11303              	.LBE1107:
 11304              	.LBB1108:
 11305              	.LBB851:
 11306 36c8 2846     		mov	r0, r5
 11307 36ca FFF7FEFF 		bl	lv_disp_get_dpi
 11308              	.LVL1634:
 11309 36ce 4000     		lsls	r0, r0, #1
 11310 36d0 5030     		adds	r0, r0, #80
 11311 36d2 2B4B     		ldr	r3, .L845+4
 11312 36d4 83FB0023 		smull	r2, r3, r3, r0
 11313 36d8 C117     		asrs	r1, r0, #31
 11314 36da C1EBA311 		rsb	r1, r1, r3, asr #6
 11315 36de 09B2     		sxth	r1, r1
 11316 36e0 FEF765B9 		b	.L368
 11317              	.LVL1635:
 11318              	.L705:
 11319              	.LBE851:
 11320              	.LBE1108:
 11321              	.LBB1109:
 11322              	.LBB854:
 11323 36e4 2846     		mov	r0, r5
 11324 36e6 FFF7FEFF 		bl	lv_disp_get_dpi
 11325              	.LVL1636:
 11326 36ea 4000     		lsls	r0, r0, #1
 11327 36ec 5030     		adds	r0, r0, #80
 11328 36ee 244B     		ldr	r3, .L845+4
ARM GAS  /tmp/cc6wDDAF.s 			page 262


 11329 36f0 83FB0023 		smull	r2, r3, r3, r0
 11330 36f4 C117     		asrs	r1, r0, #31
 11331 36f6 C1EBA311 		rsb	r1, r1, r3, asr #6
 11332 36fa 09B2     		sxth	r1, r1
 11333 36fc FEF778B9 		b	.L369
 11334              	.LVL1637:
 11335              	.L706:
 11336              	.LBE854:
 11337              	.LBE1109:
 615:Drivers/lvgl/lvgl/src/extra/themes/default/lv_theme_default.c ****     lv_style_set_pad_ver(&styles->list_bg, 0);
 11338              		.loc 1 615 0 is_stmt 1 discriminator 1
 11339 3700 1E4B     		ldr	r3, .L845
 11340 3702 DC68     		ldr	r4, [r3, #12]
 11341              	.LVL1638:
 11342              	.LBB1110:
 11343              	.LBB1111:
 11344              		.loc 3 257 0 discriminator 1
 11345 3704 2046     		mov	r0, r4
 11346 3706 FFF7FEFF 		bl	lv_disp_get_dpi
 11347              	.LVL1639:
 11348 370a 00EB4000 		add	r0, r0, r0, lsl #1
 11349 370e C000     		lsls	r0, r0, #3
 11350 3710 5030     		adds	r0, r0, #80
 11351 3712 B0F5A07F 		cmp	r0, #320
 11352 3716 02DA     		bge	.L799
 11353              		.loc 3 257 0 is_stmt 0
 11354 3718 0124     		movs	r4, #1
 11355              	.LVL1640:
 11356 371a FEF78CB9 		b	.L372
 11357              	.LVL1641:
 11358              	.L799:
 11359 371e 2046     		mov	r0, r4
 11360 3720 FFF7FEFF 		bl	lv_disp_get_dpi
 11361              	.LVL1642:
 11362 3724 00EB4000 		add	r0, r0, r0, lsl #1
 11363 3728 C000     		lsls	r0, r0, #3
 11364 372a 5030     		adds	r0, r0, #80
 11365 372c 144B     		ldr	r3, .L845+4
 11366 372e 83FB0023 		smull	r2, r3, r3, r0
 11367 3732 C417     		asrs	r4, r0, #31
 11368              	.LVL1643:
 11369 3734 C4EBA314 		rsb	r4, r4, r3, asr #6
 11370 3738 24B2     		sxth	r4, r4
 11371 373a FEF77CB9 		b	.L372
 11372              	.LVL1644:
 11373              	.L707:
 11374              	.LBE1111:
 11375              	.LBE1110:
 615:Drivers/lvgl/lvgl/src/extra/themes/default/lv_theme_default.c ****     lv_style_set_pad_ver(&styles->list_bg, 0);
 11376              		.loc 1 615 0 is_stmt 1 discriminator 4
 11377 373e 0F4B     		ldr	r3, .L845
 11378 3740 DC68     		ldr	r4, [r3, #12]
 11379              	.LVL1645:
 11380              	.LBB1112:
 11381              	.LBB1113:
 11382              		.loc 3 257 0 discriminator 4
 11383 3742 2046     		mov	r0, r4
ARM GAS  /tmp/cc6wDDAF.s 			page 263


 11384 3744 FFF7FEFF 		bl	lv_disp_get_dpi
 11385              	.LVL1646:
 11386 3748 00EB8000 		add	r0, r0, r0, lsl #2
 11387 374c 8000     		lsls	r0, r0, #2
 11388 374e 5030     		adds	r0, r0, #80
 11389 3750 B0F5A07F 		cmp	r0, #320
 11390 3754 02DA     		bge	.L800
 11391              		.loc 3 257 0 is_stmt 0
 11392 3756 0124     		movs	r4, #1
 11393              	.LVL1647:
 11394 3758 FEF76DB9 		b	.L372
 11395              	.LVL1648:
 11396              	.L800:
 11397 375c 2046     		mov	r0, r4
 11398 375e FFF7FEFF 		bl	lv_disp_get_dpi
 11399              	.LVL1649:
 11400 3762 00EB8000 		add	r0, r0, r0, lsl #2
 11401 3766 8000     		lsls	r0, r0, #2
 11402 3768 5030     		adds	r0, r0, #80
 11403 376a 054B     		ldr	r3, .L845+4
 11404 376c 83FB0023 		smull	r2, r3, r3, r0
 11405 3770 C417     		asrs	r4, r0, #31
 11406              	.LVL1650:
 11407 3772 C4EBA314 		rsb	r4, r4, r3, asr #6
 11408 3776 24B2     		sxth	r4, r4
 11409 3778 FEF75DB9 		b	.L372
 11410              	.L846:
 11411              		.align	2
 11412              	.L845:
 11413 377c 00000000 		.word	.LANCHOR2
 11414 3780 67666666 		.word	1717986919
 11415              	.LVL1651:
 11416              	.L708:
 11417              	.LBE1113:
 11418              	.LBE1112:
 11419              	.LBB1114:
 11420              	.LBB857:
 11421 3784 2046     		mov	r0, r4
 11422 3786 FFF7FEFF 		bl	lv_disp_get_dpi
 11423              	.LVL1652:
 11424 378a 0001     		lsls	r0, r0, #4
 11425 378c 5030     		adds	r0, r0, #80
 11426 378e 8E4B     		ldr	r3, .L847
 11427 3790 83FB0023 		smull	r2, r3, r3, r0
 11428 3794 C417     		asrs	r4, r0, #31
 11429              	.LVL1653:
 11430 3796 C4EBA314 		rsb	r4, r4, r3, asr #6
 11431 379a 24B2     		sxth	r4, r4
 11432 379c FEF74BB9 		b	.L372
 11433              	.LVL1654:
 11434              	.L709:
 11435              	.LBE857:
 11436              	.LBE1114:
 11437              	.LBB1115:
 11438              	.LBB866:
 11439 37a0 2846     		mov	r0, r5
 11440 37a2 FFF7FEFF 		bl	lv_disp_get_dpi
ARM GAS  /tmp/cc6wDDAF.s 			page 264


 11441              	.LVL1655:
 11442 37a6 5030     		adds	r0, r0, #80
 11443 37a8 874B     		ldr	r3, .L847
 11444 37aa 83FB0023 		smull	r2, r3, r3, r0
 11445 37ae C117     		asrs	r1, r0, #31
 11446 37b0 C1EBA311 		rsb	r1, r1, r3, asr #6
 11447 37b4 09B2     		sxth	r1, r1
 11448 37b6 FEF776B9 		b	.L376
 11449              	.LVL1656:
 11450              	.L710:
 11451              	.LBE866:
 11452              	.LBE1115:
 624:Drivers/lvgl/lvgl/src/extra/themes/default/lv_theme_default.c ****     lv_style_set_pad_column(&styles->list_btn, PAD_SMALL);
 11453              		.loc 1 624 0 is_stmt 1 discriminator 1
 11454 37ba 844B     		ldr	r3, .L847+4
 11455 37bc DC68     		ldr	r4, [r3, #12]
 11456              	.LVL1657:
 11457              	.LBB1116:
 11458              	.LBB1117:
 11459              		.loc 3 257 0 discriminator 1
 11460 37be 2046     		mov	r0, r4
 11461 37c0 FFF7FEFF 		bl	lv_disp_get_dpi
 11462              	.LVL1658:
 11463 37c4 C0EBC000 		rsb	r0, r0, r0, lsl #3
 11464 37c8 4000     		lsls	r0, r0, #1
 11465 37ca 5030     		adds	r0, r0, #80
 11466 37cc B0F5A07F 		cmp	r0, #320
 11467 37d0 02DA     		bge	.L801
 11468              		.loc 3 257 0 is_stmt 0
 11469 37d2 0124     		movs	r4, #1
 11470              	.LVL1659:
 11471 37d4 FEF791B9 		b	.L379
 11472              	.LVL1660:
 11473              	.L801:
 11474 37d8 2046     		mov	r0, r4
 11475 37da FFF7FEFF 		bl	lv_disp_get_dpi
 11476              	.LVL1661:
 11477 37de C0EBC000 		rsb	r0, r0, r0, lsl #3
 11478 37e2 4000     		lsls	r0, r0, #1
 11479 37e4 5030     		adds	r0, r0, #80
 11480 37e6 784B     		ldr	r3, .L847
 11481 37e8 83FB0023 		smull	r2, r3, r3, r0
 11482 37ec C417     		asrs	r4, r0, #31
 11483              	.LVL1662:
 11484 37ee C4EBA314 		rsb	r4, r4, r3, asr #6
 11485 37f2 24B2     		sxth	r4, r4
 11486 37f4 FEF781B9 		b	.L379
 11487              	.LVL1663:
 11488              	.L711:
 11489              	.LBE1117:
 11490              	.LBE1116:
 624:Drivers/lvgl/lvgl/src/extra/themes/default/lv_theme_default.c ****     lv_style_set_pad_column(&styles->list_btn, PAD_SMALL);
 11491              		.loc 1 624 0 is_stmt 1 discriminator 4
 11492 37f8 744B     		ldr	r3, .L847+4
 11493 37fa DC68     		ldr	r4, [r3, #12]
 11494              	.LVL1664:
 11495              	.LBB1118:
ARM GAS  /tmp/cc6wDDAF.s 			page 265


 11496              	.LBB1119:
 11497              		.loc 3 257 0 discriminator 4
 11498 37fc 2046     		mov	r0, r4
 11499 37fe FFF7FEFF 		bl	lv_disp_get_dpi
 11500              	.LVL1665:
 11501 3802 00EB4000 		add	r0, r0, r0, lsl #1
 11502 3806 8000     		lsls	r0, r0, #2
 11503 3808 5030     		adds	r0, r0, #80
 11504 380a B0F5A07F 		cmp	r0, #320
 11505 380e 02DA     		bge	.L802
 11506              		.loc 3 257 0 is_stmt 0
 11507 3810 0124     		movs	r4, #1
 11508              	.LVL1666:
 11509 3812 FEF772B9 		b	.L379
 11510              	.LVL1667:
 11511              	.L802:
 11512 3816 2046     		mov	r0, r4
 11513 3818 FFF7FEFF 		bl	lv_disp_get_dpi
 11514              	.LVL1668:
 11515 381c 00EB4000 		add	r0, r0, r0, lsl #1
 11516 3820 8000     		lsls	r0, r0, #2
 11517 3822 5030     		adds	r0, r0, #80
 11518 3824 684B     		ldr	r3, .L847
 11519 3826 83FB0023 		smull	r2, r3, r3, r0
 11520 382a C417     		asrs	r4, r0, #31
 11521              	.LVL1669:
 11522 382c C4EBA314 		rsb	r4, r4, r3, asr #6
 11523 3830 24B2     		sxth	r4, r4
 11524 3832 FEF762B9 		b	.L379
 11525              	.LVL1670:
 11526              	.L712:
 11527              	.LBE1119:
 11528              	.LBE1118:
 11529              	.LBB1120:
 11530              	.LBB869:
 11531 3836 2046     		mov	r0, r4
 11532 3838 FFF7FEFF 		bl	lv_disp_get_dpi
 11533              	.LVL1671:
 11534 383c 00EB8000 		add	r0, r0, r0, lsl #2
 11535 3840 4000     		lsls	r0, r0, #1
 11536 3842 5030     		adds	r0, r0, #80
 11537 3844 604B     		ldr	r3, .L847
 11538 3846 83FB0023 		smull	r2, r3, r3, r0
 11539 384a C417     		asrs	r4, r0, #31
 11540              	.LVL1672:
 11541 384c C4EBA314 		rsb	r4, r4, r3, asr #6
 11542 3850 24B2     		sxth	r4, r4
 11543 3852 FEF752B9 		b	.L379
 11544              	.LVL1673:
 11545              	.L713:
 11546              	.LBE869:
 11547              	.LBE1120:
 625:Drivers/lvgl/lvgl/src/extra/themes/default/lv_theme_default.c **** 
 11548              		.loc 1 625 0 is_stmt 1 discriminator 1
 11549 3856 5D4B     		ldr	r3, .L847+4
 11550 3858 DD68     		ldr	r5, [r3, #12]
 11551              	.LVL1674:
ARM GAS  /tmp/cc6wDDAF.s 			page 266


 11552              	.LBB1121:
 11553              	.LBB1122:
 11554              		.loc 3 257 0 discriminator 1
 11555 385a 2846     		mov	r0, r5
 11556 385c FFF7FEFF 		bl	lv_disp_get_dpi
 11557              	.LVL1675:
 11558 3860 C0EBC000 		rsb	r0, r0, r0, lsl #3
 11559 3864 4000     		lsls	r0, r0, #1
 11560 3866 5030     		adds	r0, r0, #80
 11561 3868 B0F5A07F 		cmp	r0, #320
 11562 386c 02DA     		bge	.L803
 11563              		.loc 3 257 0 is_stmt 0
 11564 386e 0121     		movs	r1, #1
 11565              	.LVL1676:
 11566 3870 FEF76DB9 		b	.L385
 11567              	.LVL1677:
 11568              	.L803:
 11569 3874 2846     		mov	r0, r5
 11570 3876 FFF7FEFF 		bl	lv_disp_get_dpi
 11571              	.LVL1678:
 11572 387a C0EBC000 		rsb	r0, r0, r0, lsl #3
 11573 387e 4000     		lsls	r0, r0, #1
 11574 3880 5030     		adds	r0, r0, #80
 11575 3882 514B     		ldr	r3, .L847
 11576 3884 83FB0023 		smull	r2, r3, r3, r0
 11577 3888 C117     		asrs	r1, r0, #31
 11578 388a C1EBA311 		rsb	r1, r1, r3, asr #6
 11579 388e 09B2     		sxth	r1, r1
 11580 3890 FEF75DB9 		b	.L385
 11581              	.LVL1679:
 11582              	.L714:
 11583              	.LBE1122:
 11584              	.LBE1121:
 625:Drivers/lvgl/lvgl/src/extra/themes/default/lv_theme_default.c **** 
 11585              		.loc 1 625 0 is_stmt 1 discriminator 4
 11586 3894 4D4B     		ldr	r3, .L847+4
 11587 3896 DD68     		ldr	r5, [r3, #12]
 11588              	.LVL1680:
 11589              	.LBB1123:
 11590              	.LBB1124:
 11591              		.loc 3 257 0 discriminator 4
 11592 3898 2846     		mov	r0, r5
 11593 389a FFF7FEFF 		bl	lv_disp_get_dpi
 11594              	.LVL1681:
 11595 389e 00EB4000 		add	r0, r0, r0, lsl #1
 11596 38a2 8000     		lsls	r0, r0, #2
 11597 38a4 5030     		adds	r0, r0, #80
 11598 38a6 B0F5A07F 		cmp	r0, #320
 11599 38aa 02DA     		bge	.L804
 11600              		.loc 3 257 0 is_stmt 0
 11601 38ac 0121     		movs	r1, #1
 11602              	.LVL1682:
 11603 38ae FEF74EB9 		b	.L385
 11604              	.LVL1683:
 11605              	.L804:
 11606 38b2 2846     		mov	r0, r5
 11607 38b4 FFF7FEFF 		bl	lv_disp_get_dpi
ARM GAS  /tmp/cc6wDDAF.s 			page 267


 11608              	.LVL1684:
 11609 38b8 00EB4000 		add	r0, r0, r0, lsl #1
 11610 38bc 8000     		lsls	r0, r0, #2
 11611 38be 5030     		adds	r0, r0, #80
 11612 38c0 414B     		ldr	r3, .L847
 11613 38c2 83FB0023 		smull	r2, r3, r3, r0
 11614 38c6 C117     		asrs	r1, r0, #31
 11615 38c8 C1EBA311 		rsb	r1, r1, r3, asr #6
 11616 38cc 09B2     		sxth	r1, r1
 11617 38ce FEF73EB9 		b	.L385
 11618              	.LVL1685:
 11619              	.L715:
 11620              	.LBE1124:
 11621              	.LBE1123:
 11622              	.LBB1125:
 11623              	.LBB874:
 11624 38d2 2846     		mov	r0, r5
 11625 38d4 FFF7FEFF 		bl	lv_disp_get_dpi
 11626              	.LVL1686:
 11627 38d8 00EB8000 		add	r0, r0, r0, lsl #2
 11628 38dc 4000     		lsls	r0, r0, #1
 11629 38de 5030     		adds	r0, r0, #80
 11630 38e0 394B     		ldr	r3, .L847
 11631 38e2 83FB0023 		smull	r2, r3, r3, r0
 11632 38e6 C117     		asrs	r1, r0, #31
 11633 38e8 C1EBA311 		rsb	r1, r1, r3, asr #6
 11634 38ec 09B2     		sxth	r1, r1
 11635 38ee FEF72EB9 		b	.L385
 11636              	.LVL1687:
 11637              	.L716:
 11638              	.LBE874:
 11639              	.LBE1125:
 628:Drivers/lvgl/lvgl/src/extra/themes/default/lv_theme_default.c **** #endif
 11640              		.loc 1 628 0 is_stmt 1 discriminator 1
 11641 38f2 364B     		ldr	r3, .L847+4
 11642 38f4 DD68     		ldr	r5, [r3, #12]
 11643              	.LVL1688:
 11644              	.LBB1126:
 11645              	.LBB1127:
 11646              		.loc 3 257 0 discriminator 1
 11647 38f6 2846     		mov	r0, r5
 11648 38f8 FFF7FEFF 		bl	lv_disp_get_dpi
 11649              	.LVL1689:
 11650 38fc 00EB4000 		add	r0, r0, r0, lsl #1
 11651 3900 C000     		lsls	r0, r0, #3
 11652 3902 5030     		adds	r0, r0, #80
 11653 3904 B0F5A07F 		cmp	r0, #320
 11654 3908 02DA     		bge	.L805
 11655              		.loc 3 257 0 is_stmt 0
 11656 390a 0121     		movs	r1, #1
 11657              	.LVL1690:
 11658 390c FEF73FB9 		b	.L391
 11659              	.LVL1691:
 11660              	.L805:
 11661 3910 2846     		mov	r0, r5
 11662 3912 FFF7FEFF 		bl	lv_disp_get_dpi
 11663              	.LVL1692:
ARM GAS  /tmp/cc6wDDAF.s 			page 268


 11664 3916 00EB4000 		add	r0, r0, r0, lsl #1
 11665 391a C000     		lsls	r0, r0, #3
 11666 391c 5030     		adds	r0, r0, #80
 11667 391e 2A4B     		ldr	r3, .L847
 11668 3920 83FB0023 		smull	r2, r3, r3, r0
 11669 3924 C117     		asrs	r1, r0, #31
 11670 3926 C1EBA311 		rsb	r1, r1, r3, asr #6
 11671 392a 09B2     		sxth	r1, r1
 11672 392c FEF72FB9 		b	.L391
 11673              	.LVL1693:
 11674              	.L717:
 11675              	.LBE1127:
 11676              	.LBE1126:
 628:Drivers/lvgl/lvgl/src/extra/themes/default/lv_theme_default.c **** #endif
 11677              		.loc 1 628 0 is_stmt 1 discriminator 4
 11678 3930 264B     		ldr	r3, .L847+4
 11679 3932 DD68     		ldr	r5, [r3, #12]
 11680              	.LVL1694:
 11681              	.LBB1128:
 11682              	.LBB1129:
 11683              		.loc 3 257 0 discriminator 4
 11684 3934 2846     		mov	r0, r5
 11685 3936 FFF7FEFF 		bl	lv_disp_get_dpi
 11686              	.LVL1695:
 11687 393a 00EB8000 		add	r0, r0, r0, lsl #2
 11688 393e 8000     		lsls	r0, r0, #2
 11689 3940 5030     		adds	r0, r0, #80
 11690 3942 B0F5A07F 		cmp	r0, #320
 11691 3946 02DA     		bge	.L806
 11692              		.loc 3 257 0 is_stmt 0
 11693 3948 0121     		movs	r1, #1
 11694              	.LVL1696:
 11695 394a FEF720B9 		b	.L391
 11696              	.LVL1697:
 11697              	.L806:
 11698 394e 2846     		mov	r0, r5
 11699 3950 FFF7FEFF 		bl	lv_disp_get_dpi
 11700              	.LVL1698:
 11701 3954 00EB8000 		add	r0, r0, r0, lsl #2
 11702 3958 8000     		lsls	r0, r0, #2
 11703 395a 5030     		adds	r0, r0, #80
 11704 395c 1A4B     		ldr	r3, .L847
 11705 395e 83FB0023 		smull	r2, r3, r3, r0
 11706 3962 C117     		asrs	r1, r0, #31
 11707 3964 C1EBA311 		rsb	r1, r1, r3, asr #6
 11708 3968 09B2     		sxth	r1, r1
 11709 396a FEF710B9 		b	.L391
 11710              	.LVL1699:
 11711              	.L718:
 11712              	.LBE1129:
 11713              	.LBE1128:
 11714              	.LBB1130:
 11715              	.LBB877:
 11716 396e 2846     		mov	r0, r5
 11717 3970 FFF7FEFF 		bl	lv_disp_get_dpi
 11718              	.LVL1700:
 11719 3974 0001     		lsls	r0, r0, #4
ARM GAS  /tmp/cc6wDDAF.s 			page 269


 11720 3976 5030     		adds	r0, r0, #80
 11721 3978 134B     		ldr	r3, .L847
 11722 397a 83FB0023 		smull	r2, r3, r3, r0
 11723 397e C117     		asrs	r1, r0, #31
 11724 3980 C1EBA311 		rsb	r1, r1, r3, asr #6
 11725 3984 09B2     		sxth	r1, r1
 11726 3986 FEF702B9 		b	.L391
 11727              	.LVL1701:
 11728              	.L719:
 11729              	.LBE877:
 11730              	.LBE1130:
 11731              	.LBB1131:
 11732              	.LBB880:
 11733 398a 2846     		mov	r0, r5
 11734 398c FFF7FEFF 		bl	lv_disp_get_dpi
 11735              	.LVL1702:
 11736 3990 C0EB0010 		rsb	r0, r0, r0, lsl #4
 11737 3994 5030     		adds	r0, r0, #80
 11738 3996 0C4B     		ldr	r3, .L847
 11739 3998 83FB0023 		smull	r2, r3, r3, r0
 11740 399c C117     		asrs	r1, r0, #31
 11741 399e C1EBA311 		rsb	r1, r1, r3, asr #6
 11742 39a2 09B2     		sxth	r1, r1
 11743 39a4 FEF732B9 		b	.L395
 11744              	.LVL1703:
 11745              	.L720:
 11746              	.LBE880:
 11747              	.LBE1131:
 11748              	.LBB1132:
 11749              	.LBB883:
 11750 39a8 2846     		mov	r0, r5
 11751 39aa FFF7FEFF 		bl	lv_disp_get_dpi
 11752              	.LVL1704:
 11753 39ae 00EB8000 		add	r0, r0, r0, lsl #2
 11754 39b2 5030     		adds	r0, r0, #80
 11755 39b4 044B     		ldr	r3, .L847
 11756 39b6 83FB0023 		smull	r2, r3, r3, r0
 11757 39ba C117     		asrs	r1, r0, #31
 11758 39bc C1EBA311 		rsb	r1, r1, r3, asr #6
 11759 39c0 09B2     		sxth	r1, r1
 11760 39c2 FEF73EB9 		b	.L396
 11761              	.L848:
 11762 39c6 00BF     		.align	2
 11763              	.L847:
 11764 39c8 67666666 		.word	1717986919
 11765 39cc 00000000 		.word	.LANCHOR2
 11766              	.LBE883:
 11767              	.LBE1132:
 11768              		.cfi_endproc
 11769              	.LFE204:
 11771              		.section	.text.lv_theme_default_is_inited,"ax",%progbits
 11772              		.align	1
 11773              		.global	lv_theme_default_is_inited
 11774              		.syntax unified
 11775              		.thumb
 11776              		.thumb_func
 11777              		.fpu fpv5-d16
ARM GAS  /tmp/cc6wDDAF.s 			page 270


 11779              	lv_theme_default_is_inited:
 11780              	.LFB207:
 693:Drivers/lvgl/lvgl/src/extra/themes/default/lv_theme_default.c ****     return  LV_GC_ROOT(_lv_theme_default_styles) == NULL ? false : true;
 11781              		.loc 1 693 0 is_stmt 1
 11782              		.cfi_startproc
 11783              		@ args = 0, pretend = 0, frame = 0
 11784              		@ frame_needed = 0, uses_anonymous_args = 0
 11785              		@ link register save eliminated.
 694:Drivers/lvgl/lvgl/src/extra/themes/default/lv_theme_default.c **** }
 11786              		.loc 1 694 0
 11787 0000 024B     		ldr	r3, .L850
 11788 0002 1868     		ldr	r0, [r3]
 695:Drivers/lvgl/lvgl/src/extra/themes/default/lv_theme_default.c **** 
 11789              		.loc 1 695 0
 11790 0004 0030     		adds	r0, r0, #0
 11791 0006 18BF     		it	ne
 11792 0008 0120     		movne	r0, #1
 11793 000a 7047     		bx	lr
 11794              	.L851:
 11795              		.align	2
 11796              	.L850:
 11797 000c 00000000 		.word	_lv_theme_default_styles
 11798              		.cfi_endproc
 11799              	.LFE207:
 11801              		.section	.text.lv_theme_default_init,"ax",%progbits
 11802              		.align	1
 11803              		.global	lv_theme_default_init
 11804              		.syntax unified
 11805              		.thumb
 11806              		.thumb_func
 11807              		.fpu fpv5-d16
 11809              	lv_theme_default_init:
 11810              	.LFB205:
 650:Drivers/lvgl/lvgl/src/extra/themes/default/lv_theme_default.c **** 
 11811              		.loc 1 650 0
 11812              		.cfi_startproc
 11813              		@ args = 4, pretend = 0, frame = 0
 11814              		@ frame_needed = 0, uses_anonymous_args = 0
 11815              	.LVL1705:
 11816 0000 2DE9F041 		push	{r4, r5, r6, r7, r8, lr}
 11817              	.LCFI8:
 11818              		.cfi_def_cfa_offset 24
 11819              		.cfi_offset 4, -24
 11820              		.cfi_offset 5, -20
 11821              		.cfi_offset 6, -16
 11822              		.cfi_offset 7, -12
 11823              		.cfi_offset 8, -8
 11824              		.cfi_offset 14, -4
 11825 0004 0546     		mov	r5, r0
 11826 0006 8846     		mov	r8, r1	@ movhi
 11827 0008 1746     		mov	r7, r2	@ movhi
 11828 000a 1E46     		mov	r6, r3
 11829 000c 069C     		ldr	r4, [sp, #24]
 655:Drivers/lvgl/lvgl/src/extra/themes/default/lv_theme_default.c ****         inited = false;
 11830              		.loc 1 655 0
 11831 000e FFF7FEFF 		bl	lv_theme_default_is_inited
 11832              	.LVL1706:
ARM GAS  /tmp/cc6wDDAF.s 			page 271


 11833 0012 30B3     		cbz	r0, .L860
 11834              	.L853:
 661:Drivers/lvgl/lvgl/src/extra/themes/default/lv_theme_default.c ****     else if(LV_HOR_RES < 720) disp_size = DISP_MEDIUM;
 11835              		.loc 1 661 0
 11836 0014 FFF7FEFF 		bl	lv_disp_get_default
 11837              	.LVL1707:
 11838 0018 FFF7FEFF 		bl	lv_disp_get_hor_res
 11839              	.LVL1708:
 11840 001c B0F5A07F 		cmp	r0, #320
 11841 0020 2BDC     		bgt	.L854
 661:Drivers/lvgl/lvgl/src/extra/themes/default/lv_theme_default.c ****     else if(LV_HOR_RES < 720) disp_size = DISP_MEDIUM;
 11842              		.loc 1 661 0 is_stmt 0 discriminator 1
 11843 0022 1D4B     		ldr	r3, .L861
 11844 0024 0322     		movs	r2, #3
 11845 0026 1A70     		strb	r2, [r3]
 11846              	.L855:
 665:Drivers/lvgl/lvgl/src/extra/themes/default/lv_theme_default.c ****     theme.color_primary = color_primary;
 11847              		.loc 1 665 0 is_stmt 1
 11848 0028 1C4B     		ldr	r3, .L861+4
 11849 002a DD60     		str	r5, [r3, #12]
 11850              	.LVL1709:
 666:Drivers/lvgl/lvgl/src/extra/themes/default/lv_theme_default.c ****     theme.color_secondary = color_secondary;
 11851              		.loc 1 666 0
 11852 002c A3F81080 		strh	r8, [r3, #16]	@ movhi
 11853              	.LVL1710:
 667:Drivers/lvgl/lvgl/src/extra/themes/default/lv_theme_default.c ****     theme.font_small = font;
 11854              		.loc 1 667 0
 11855 0030 5F82     		strh	r7, [r3, #18]	@ movhi
 668:Drivers/lvgl/lvgl/src/extra/themes/default/lv_theme_default.c ****     theme.font_normal = font;
 11856              		.loc 1 668 0
 11857 0032 5C61     		str	r4, [r3, #20]
 669:Drivers/lvgl/lvgl/src/extra/themes/default/lv_theme_default.c ****     theme.font_large = font;
 11858              		.loc 1 669 0
 11859 0034 9C61     		str	r4, [r3, #24]
 670:Drivers/lvgl/lvgl/src/extra/themes/default/lv_theme_default.c ****     theme.apply_cb = theme_apply;
 11860              		.loc 1 670 0
 11861 0036 DC61     		str	r4, [r3, #28]
 671:Drivers/lvgl/lvgl/src/extra/themes/default/lv_theme_default.c ****     theme.flags = dark ? MODE_DARK : 0;
 11862              		.loc 1 671 0
 11863 0038 194A     		ldr	r2, .L861+8
 11864 003a 1A60     		str	r2, [r3]
 672:Drivers/lvgl/lvgl/src/extra/themes/default/lv_theme_default.c **** 
 11865              		.loc 1 672 0
 11866 003c 1E62     		str	r6, [r3, #32]
 674:Drivers/lvgl/lvgl/src/extra/themes/default/lv_theme_default.c **** 
 11867              		.loc 1 674 0
 11868 003e FFF7FEFF 		bl	style_init
 11869              	.LVL1711:
 676:Drivers/lvgl/lvgl/src/extra/themes/default/lv_theme_default.c **** 
 11870              		.loc 1 676 0
 11871 0042 2DB1     		cbz	r5, .L857
 676:Drivers/lvgl/lvgl/src/extra/themes/default/lv_theme_default.c **** 
 11872              		.loc 1 676 0 is_stmt 0 discriminator 2
 11873 0044 2846     		mov	r0, r5
 11874 0046 FFF7FEFF 		bl	lv_disp_get_theme
 11875              	.LVL1712:
 11876 004a 144B     		ldr	r3, .L861+4
ARM GAS  /tmp/cc6wDDAF.s 			page 272


 11877 004c 8342     		cmp	r3, r0
 11878 004e 02D1     		bne	.L858
 11879              	.L857:
 676:Drivers/lvgl/lvgl/src/extra/themes/default/lv_theme_default.c **** 
 11880              		.loc 1 676 0 discriminator 3
 11881 0050 0020     		movs	r0, #0
 11882 0052 FFF7FEFF 		bl	lv_obj_report_style_change
 11883              	.LVL1713:
 11884              	.L858:
 678:Drivers/lvgl/lvgl/src/extra/themes/default/lv_theme_default.c **** 
 11885              		.loc 1 678 0 is_stmt 1
 11886 0056 134B     		ldr	r3, .L861+12
 11887 0058 0122     		movs	r2, #1
 11888 005a 1A70     		strb	r2, [r3]
 681:Drivers/lvgl/lvgl/src/extra/themes/default/lv_theme_default.c **** 
 11889              		.loc 1 681 0
 11890 005c 0F48     		ldr	r0, .L861+4
 11891 005e BDE8F081 		pop	{r4, r5, r6, r7, r8, pc}
 11892              	.LVL1714:
 11893              	.L860:
 656:Drivers/lvgl/lvgl/src/extra/themes/default/lv_theme_default.c ****         LV_GC_ROOT(_lv_theme_default_styles) = lv_mem_alloc(sizeof(my_theme_styles_t));
 11894              		.loc 1 656 0
 11895 0062 104B     		ldr	r3, .L861+12
 11896 0064 0022     		movs	r2, #0
 11897 0066 1A70     		strb	r2, [r3]
 657:Drivers/lvgl/lvgl/src/extra/themes/default/lv_theme_default.c ****         styles = (my_theme_styles_t *)LV_GC_ROOT(_lv_theme_default_styles);
 11898              		.loc 1 657 0
 11899 0068 4FF41270 		mov	r0, #584
 11900 006c FFF7FEFF 		bl	lv_mem_alloc
 11901              	.LVL1715:
 11902 0070 0D4B     		ldr	r3, .L861+16
 11903 0072 1860     		str	r0, [r3]
 658:Drivers/lvgl/lvgl/src/extra/themes/default/lv_theme_default.c ****     }
 11904              		.loc 1 658 0
 11905 0074 0D4B     		ldr	r3, .L861+20
 11906 0076 1860     		str	r0, [r3]
 11907 0078 CCE7     		b	.L853
 11908              	.L854:
 662:Drivers/lvgl/lvgl/src/extra/themes/default/lv_theme_default.c ****     else disp_size = DISP_LARGE;
 11909              		.loc 1 662 0
 11910 007a FFF7FEFF 		bl	lv_disp_get_default
 11911              	.LVL1716:
 11912 007e FFF7FEFF 		bl	lv_disp_get_hor_res
 11913              	.LVL1717:
 11914 0082 B0F5347F 		cmp	r0, #720
 11915 0086 03DA     		bge	.L856
 662:Drivers/lvgl/lvgl/src/extra/themes/default/lv_theme_default.c ****     else disp_size = DISP_LARGE;
 11916              		.loc 1 662 0 is_stmt 0 discriminator 1
 11917 0088 034B     		ldr	r3, .L861
 11918 008a 0222     		movs	r2, #2
 11919 008c 1A70     		strb	r2, [r3]
 11920 008e CBE7     		b	.L855
 11921              	.L856:
 663:Drivers/lvgl/lvgl/src/extra/themes/default/lv_theme_default.c **** 
 11922              		.loc 1 663 0 is_stmt 1
 11923 0090 014B     		ldr	r3, .L861
 11924 0092 0122     		movs	r2, #1
ARM GAS  /tmp/cc6wDDAF.s 			page 273


 11925 0094 1A70     		strb	r2, [r3]
 11926 0096 C7E7     		b	.L855
 11927              	.L862:
 11928              		.align	2
 11929              	.L861:
 11930 0098 00000000 		.word	.LANCHOR1
 11931 009c 00000000 		.word	.LANCHOR2
 11932 00a0 00000000 		.word	theme_apply
 11933 00a4 00000000 		.word	.LANCHOR3
 11934 00a8 00000000 		.word	_lv_theme_default_styles
 11935 00ac 00000000 		.word	.LANCHOR0
 11936              		.cfi_endproc
 11937              	.LFE205:
 11939              		.section	.text.lv_theme_default_get,"ax",%progbits
 11940              		.align	1
 11941              		.global	lv_theme_default_get
 11942              		.syntax unified
 11943              		.thumb
 11944              		.thumb_func
 11945              		.fpu fpv5-d16
 11947              	lv_theme_default_get:
 11948              	.LFB206:
 684:Drivers/lvgl/lvgl/src/extra/themes/default/lv_theme_default.c ****     if(!lv_theme_default_is_inited()) {
 11949              		.loc 1 684 0
 11950              		.cfi_startproc
 11951              		@ args = 0, pretend = 0, frame = 0
 11952              		@ frame_needed = 0, uses_anonymous_args = 0
 11953 0000 08B5     		push	{r3, lr}
 11954              	.LCFI9:
 11955              		.cfi_def_cfa_offset 8
 11956              		.cfi_offset 3, -8
 11957              		.cfi_offset 14, -4
 685:Drivers/lvgl/lvgl/src/extra/themes/default/lv_theme_default.c ****         return NULL;
 11958              		.loc 1 685 0
 11959 0002 FFF7FEFF 		bl	lv_theme_default_is_inited
 11960              	.LVL1718:
 11961 0006 00B1     		cbz	r0, .L863
 689:Drivers/lvgl/lvgl/src/extra/themes/default/lv_theme_default.c **** }
 11962              		.loc 1 689 0
 11963 0008 0048     		ldr	r0, .L867
 11964              	.L863:
 690:Drivers/lvgl/lvgl/src/extra/themes/default/lv_theme_default.c **** 
 11965              		.loc 1 690 0
 11966 000a 08BD     		pop	{r3, pc}
 11967              	.L868:
 11968              		.align	2
 11969              	.L867:
 11970 000c 00000000 		.word	.LANCHOR2
 11971              		.cfi_endproc
 11972              	.LFE206:
 11974              		.section	.bss.color_card,"aw",%nobits
 11975              		.align	2
 11976              		.set	.LANCHOR6,. + 0
 11979              	color_card:
 11980 0000 0000     		.space	2
 11981              		.section	.bss.color_grey,"aw",%nobits
 11982              		.align	2
ARM GAS  /tmp/cc6wDDAF.s 			page 274


 11983              		.set	.LANCHOR7,. + 0
 11986              	color_grey:
 11987 0000 0000     		.space	2
 11988              		.section	.bss.color_scr,"aw",%nobits
 11989              		.align	2
 11990              		.set	.LANCHOR4,. + 0
 11993              	color_scr:
 11994 0000 0000     		.space	2
 11995              		.section	.bss.color_text,"aw",%nobits
 11996              		.align	2
 11997              		.set	.LANCHOR5,. + 0
 12000              	color_text:
 12001 0000 0000     		.space	2
 12002              		.section	.bss.dark_filter.12640,"aw",%nobits
 12003              		.align	2
 12004              		.set	.LANCHOR11,. + 0
 12007              	dark_filter.12640:
 12008 0000 00000000 		.space	8
 12008      00000000 
 12009              		.section	.bss.disp_size,"aw",%nobits
 12010              		.set	.LANCHOR1,. + 0
 12013              	disp_size:
 12014 0000 00       		.space	1
 12015              		.section	.bss.grey_filter.12641,"aw",%nobits
 12016              		.align	2
 12017              		.set	.LANCHOR12,. + 0
 12020              	grey_filter.12641:
 12021 0000 00000000 		.space	8
 12021      00000000 
 12022              		.section	.bss.inited,"aw",%nobits
 12023              		.set	.LANCHOR3,. + 0
 12026              	inited:
 12027 0000 00       		.space	1
 12028              		.section	.bss.styles,"aw",%nobits
 12029              		.align	2
 12030              		.set	.LANCHOR0,. + 0
 12033              	styles:
 12034 0000 00000000 		.space	4
 12035              		.section	.bss.theme,"aw",%nobits
 12036              		.align	2
 12037              		.set	.LANCHOR2,. + 0
 12040              	theme:
 12041 0000 00000000 		.space	36
 12041      00000000 
 12041      00000000 
 12041      00000000 
 12041      00000000 
 12042              		.section	.bss.trans_delayed.12637,"aw",%nobits
 12043              		.align	2
 12044              		.set	.LANCHOR9,. + 0
 12047              	trans_delayed.12637:
 12048 0000 00000000 		.space	20
 12048      00000000 
 12048      00000000 
 12048      00000000 
 12048      00000000 
 12049              		.section	.bss.trans_normal.12638,"aw",%nobits
ARM GAS  /tmp/cc6wDDAF.s 			page 275


 12050              		.align	2
 12051              		.set	.LANCHOR10,. + 0
 12054              	trans_normal.12638:
 12055 0000 00000000 		.space	20
 12055      00000000 
 12055      00000000 
 12055      00000000 
 12055      00000000 
 12056              		.section	.rodata.style_init.str1.4,"aMS",%progbits,1
 12057              		.align	2
 12058              	.LC0:
 12059 0000 EF808C00 		.ascii	"\357\200\214\000"
 12060              		.section	.rodata.trans_props.12636,"a",%progbits
 12061              		.align	2
 12062              		.set	.LANCHOR8,. + 0
 12065              	trans_props.12636:
 12066 0000 2100     		.short	33
 12067 0002 2000     		.short	32
 12068 0004 6800     		.short	104
 12069 0006 6900     		.short	105
 12070 0008 6B00     		.short	107
 12071 000a 6A00     		.short	106
 12072 000c 6C00     		.short	108
 12073 000e 6D00     		.short	109
 12074 0010 6200     		.short	98
 12075 0012 6100     		.short	97
 12076 0014 0000     		.short	0
 12077              		.text
 12078              	.Letext0:
 12079              		.file 5 "/opt/gcc-arm-none-eabi-7-2017-q4-major/arm-none-eabi/include/machine/_default_types.h"
 12080              		.file 6 "/opt/gcc-arm-none-eabi-7-2017-q4-major/arm-none-eabi/include/sys/_stdint.h"
 12081              		.file 7 "Drivers/lvgl/lvgl/src/extra/themes/default/../../../../src/misc/lv_types.h"
 12082              		.file 8 "Drivers/lvgl/lvgl/src/extra/themes/default/../../../../src/misc/lv_timer.h"
 12083              		.file 9 "/opt/gcc-arm-none-eabi-7-2017-q4-major/lib/gcc/arm-none-eabi/7.2.1/include/stddef.h"
 12084              		.file 10 "/opt/gcc-arm-none-eabi-7-2017-q4-major/arm-none-eabi/include/sys/lock.h"
 12085              		.file 11 "/opt/gcc-arm-none-eabi-7-2017-q4-major/arm-none-eabi/include/sys/_types.h"
 12086              		.file 12 "/opt/gcc-arm-none-eabi-7-2017-q4-major/arm-none-eabi/include/sys/reent.h"
 12087              		.file 13 "Drivers/lvgl/lvgl/src/extra/themes/default/../../../../src/misc/lv_mem.h"
 12088              		.file 14 "Drivers/lvgl/lvgl/src/extra/themes/default/../../../../src/misc/lv_anim.h"
 12089              		.file 15 "Drivers/lvgl/lvgl/src/extra/themes/default/../../../../src/hal/../draw/../misc/../font/.
 12090              		.file 16 "Drivers/lvgl/lvgl/src/extra/themes/default/../../../../src/hal/../draw/../misc/../font/l
 12091              		.file 17 "Drivers/lvgl/lvgl/src/extra/themes/default/../../../../src/hal/../draw/../misc/lv_txt.h"
 12092              		.file 18 "Drivers/lvgl/lvgl/src/extra/themes/default/../../../../src/hal/../draw/../misc/lv_bidi.h
 12093              		.file 19 "Drivers/lvgl/lvgl/src/extra/themes/default/../../../../src/hal/../draw/lv_img_buf.h"
 12094              		.file 20 "Drivers/lvgl/lvgl/src/extra/themes/default/../../../../src/hal/../draw/lv_img_decoder.h"
 12095              		.file 21 "Drivers/lvgl/lvgl/src/extra/themes/default/../../../../src/hal/../draw/lv_img_cache.h"
 12096              		.file 22 "Drivers/lvgl/lvgl/src/extra/themes/default/../../../../src/hal/../draw/sw/../../core/lv_
 12097              		.file 23 "Drivers/lvgl/lvgl/src/extra/themes/default/../../../../src/core/lv_obj.h"
 12098              		.file 24 "Drivers/lvgl/lvgl/src/extra/themes/default/../../../../src/hal/../draw/lv_draw_rect.h"
 12099              		.file 25 "Drivers/lvgl/lvgl/src/extra/themes/default/../../../../src/hal/../draw/lv_draw_label.h"
 12100              		.file 26 "Drivers/lvgl/lvgl/src/extra/themes/default/../../../../src/hal/../draw/lv_draw_img.h"
 12101              		.file 27 "Drivers/lvgl/lvgl/src/extra/themes/default/../../../../src/hal/../draw/lv_draw_line.h"
 12102              		.file 28 "Drivers/lvgl/lvgl/src/extra/themes/default/../../../../src/hal/../draw/lv_draw_arc.h"
 12103              		.file 29 "Drivers/lvgl/lvgl/src/extra/themes/default/../../../../src/hal/../draw/lv_draw_mask.h"
 12104              		.file 30 "Drivers/lvgl/lvgl/src/extra/themes/default/../../../../src/hal/../draw/lv_draw_layer.h"
 12105              		.file 31 "Drivers/lvgl/lvgl/src/extra/themes/default/../../../../src/hal/../draw/lv_draw.h"
 12106              		.file 32 "Drivers/lvgl/lvgl/src/extra/themes/default/../../../../src/hal/../misc/lv_ll.h"
ARM GAS  /tmp/cc6wDDAF.s 			page 276


 12107              		.file 33 "Drivers/lvgl/lvgl/src/extra/themes/default/../../../../src/hal/lv_hal_disp.h"
 12108              		.file 34 "Drivers/lvgl/lvgl/src/extra/themes/default/../../../../src/core/lv_theme.h"
 12109              		.file 35 "Drivers/lvgl/lvgl/src/extra/themes/default/../../../../src/core/lv_group.h"
 12110              		.file 36 "Drivers/lvgl/lvgl/src/extra/themes/default/../../../../src/core/lv_obj_scroll.h"
 12111              		.file 37 "Drivers/lvgl/lvgl/src/extra/themes/default/../../../../src/core/lv_obj_style.h"
 12112              		.file 38 "Drivers/lvgl/lvgl/src/extra/themes/default/../../../../src/core/lv_obj_class.h"
 12113              		.file 39 "Drivers/lvgl/lvgl/src/extra/themes/default/../../../../src/core/lv_event.h"
 12114              		.file 40 "Drivers/lvgl/lvgl/src/extra/themes/default/../../../../src/widgets/lv_arc.h"
 12115              		.file 41 "Drivers/lvgl/lvgl/src/extra/themes/default/../../../../src/widgets/lv_btn.h"
 12116              		.file 42 "Drivers/lvgl/lvgl/src/extra/themes/default/../../../../src/widgets/lv_img.h"
 12117              		.file 43 "Drivers/lvgl/lvgl/src/extra/themes/default/../../../../src/widgets/lv_label.h"
 12118              		.file 44 "Drivers/lvgl/lvgl/src/extra/themes/default/../../../../src/widgets/lv_line.h"
 12119              		.file 45 "Drivers/lvgl/lvgl/src/extra/themes/default/../../../../src/widgets/lv_table.h"
 12120              		.file 46 "Drivers/lvgl/lvgl/src/extra/themes/default/../../../../src/widgets/lv_checkbox.h"
 12121              		.file 47 "Drivers/lvgl/lvgl/src/extra/themes/default/../../../../src/widgets/lv_bar.h"
 12122              		.file 48 "Drivers/lvgl/lvgl/src/extra/themes/default/../../../../src/widgets/lv_slider.h"
 12123              		.file 49 "Drivers/lvgl/lvgl/src/extra/themes/default/../../../../src/widgets/lv_btnmatrix.h"
 12124              		.file 50 "Drivers/lvgl/lvgl/src/extra/themes/default/../../../../src/widgets/lv_dropdown.h"
 12125              		.file 51 "Drivers/lvgl/lvgl/src/extra/themes/default/../../../../src/widgets/lv_roller.h"
 12126              		.file 52 "Drivers/lvgl/lvgl/src/extra/themes/default/../../../../src/widgets/lv_textarea.h"
 12127              		.file 53 "Drivers/lvgl/lvgl/src/extra/themes/default/../../../../src/widgets/lv_canvas.h"
 12128              		.file 54 "Drivers/lvgl/lvgl/src/extra/themes/default/../../../../src/widgets/lv_switch.h"
 12129              		.file 55 "Drivers/lvgl/lvgl/src/extra/themes/default/../../../../src/extra/layouts/flex/lv_flex.h"
 12130              		.file 56 "Drivers/lvgl/lvgl/src/extra/themes/default/../../../../src/extra/layouts/grid/lv_grid.h"
 12131              		.file 57 "Drivers/lvgl/lvgl/src/extra/themes/default/../../../../src/extra/widgets/animimg/lv_anim
 12132              		.file 58 "Drivers/lvgl/lvgl/src/extra/themes/default/../../../../src/extra/widgets/calendar/lv_cal
 12133              		.file 59 "Drivers/lvgl/lvgl/src/extra/themes/default/../../../../src/extra/widgets/calendar/lv_cal
 12134              		.file 60 "Drivers/lvgl/lvgl/src/extra/themes/default/../../../../src/extra/widgets/calendar/lv_cal
 12135              		.file 61 "Drivers/lvgl/lvgl/src/extra/themes/default/../../../../src/extra/widgets/chart/lv_chart.
 12136              		.file 62 "Drivers/lvgl/lvgl/src/extra/themes/default/../../../../src/extra/widgets/keyboard/lv_key
 12137              		.file 63 "Drivers/lvgl/lvgl/src/extra/themes/default/../../../../src/extra/widgets/list/lv_list.h"
 12138              		.file 64 "Drivers/lvgl/lvgl/src/extra/themes/default/../../../../src/extra/widgets/menu/lv_menu.h"
 12139              		.file 65 "Drivers/lvgl/lvgl/src/extra/themes/default/../../../../src/extra/widgets/msgbox/lv_msgbo
 12140              		.file 66 "Drivers/lvgl/lvgl/src/extra/themes/default/../../../../src/extra/widgets/meter/lv_meter.
 12141              		.file 67 "Drivers/lvgl/lvgl/src/extra/themes/default/../../../../src/extra/widgets/spinbox/lv_spin
 12142              		.file 68 "Drivers/lvgl/lvgl/src/extra/themes/default/../../../../src/extra/widgets/spinner/lv_spin
 12143              		.file 69 "Drivers/lvgl/lvgl/src/extra/themes/default/../../../../src/extra/widgets/tabview/lv_tabv
 12144              		.file 70 "Drivers/lvgl/lvgl/src/extra/themes/default/../../../../src/extra/widgets/tileview/lv_til
 12145              		.file 71 "Drivers/lvgl/lvgl/src/extra/themes/default/../../../../src/extra/widgets/win/lv_win.h"
 12146              		.file 72 "Drivers/lvgl/lvgl/src/extra/themes/default/../../../../src/extra/widgets/colorwheel/lv_c
 12147              		.file 73 "Drivers/lvgl/lvgl/src/extra/themes/default/../../../../src/extra/widgets/led/lv_led.h"
 12148              		.file 74 "Drivers/lvgl/lvgl/src/extra/themes/default/../../../../src/extra/widgets/imgbtn/lv_imgbt
 12149              		.file 75 "Drivers/lvgl/lvgl/src/extra/themes/default/../../../../src/extra/widgets/span/lv_span.h"
 12150              		.file 76 "Drivers/lvgl/lvgl/src/extra/themes/default/../../../misc/lv_gc.h"
 12151              		.file 77 "Drivers/lvgl/lvgl/src/extra/themes/default/../../../../src/core/lv_obj_tree.h"
 12152              		.file 78 "Drivers/lvgl/lvgl/src/extra/themes/default/../../../../src/hal/../draw/../misc/lv_style_
ARM GAS  /tmp/cc6wDDAF.s 			page 277


DEFINED SYMBOLS
                            *ABS*:0000000000000000 lv_theme_default.c
     /tmp/cc6wDDAF.s:17     .text.theme_apply:0000000000000000 $t
     /tmp/cc6wDDAF.s:23     .text.theme_apply:0000000000000000 theme_apply
     /tmp/cc6wDDAF.s:467    .text.theme_apply:00000000000002d0 $d
     /tmp/cc6wDDAF.s:485    .text.theme_apply:0000000000000310 $t
     /tmp/cc6wDDAF.s:901    .text.theme_apply:00000000000005f4 $d
     /tmp/cc6wDDAF.s:917    .text.theme_apply:000000000000062c $t
     /tmp/cc6wDDAF.s:1335   .text.theme_apply:0000000000000930 $d
     /tmp/cc6wDDAF.s:1349   .text.theme_apply:0000000000000960 $t
     /tmp/cc6wDDAF.s:1783   .text.theme_apply:0000000000000c7c $d
     /tmp/cc6wDDAF.s:1803   .text.theme_apply:0000000000000cc4 $t
     /tmp/cc6wDDAF.s:2204   .text.theme_apply:0000000000000f9c $d
     /tmp/cc6wDDAF.s:2223   .text.theme_apply:0000000000000fe0 $t
     /tmp/cc6wDDAF.s:2339   .text.theme_apply:00000000000010b4 $d
     /tmp/cc6wDDAF.s:2350   .text.grey_filter_cb:0000000000000000 $t
     /tmp/cc6wDDAF.s:2356   .text.grey_filter_cb:0000000000000000 grey_filter_cb
     /tmp/cc6wDDAF.s:2459   .text.grey_filter_cb:0000000000000070 $d
     /tmp/cc6wDDAF.s:2467   .text.dark_color_filter_cb:0000000000000000 $t
     /tmp/cc6wDDAF.s:2473   .text.dark_color_filter_cb:0000000000000000 dark_color_filter_cb
     /tmp/cc6wDDAF.s:2498   .text.style_init_reset:0000000000000000 $t
     /tmp/cc6wDDAF.s:2504   .text.style_init_reset:0000000000000000 style_init_reset
     /tmp/cc6wDDAF.s:2535   .text.style_init_reset:0000000000000014 $d
     /tmp/cc6wDDAF.s:2540   .text.style_init:0000000000000000 $t
     /tmp/cc6wDDAF.s:2546   .text.style_init:0000000000000000 style_init
     /tmp/cc6wDDAF.s:3075   .text.style_init:000000000000032c $d
     /tmp/cc6wDDAF.s:3088   .text.style_init:0000000000000358 $t
     /tmp/cc6wDDAF.s:3648   .text.style_init:0000000000000694 $d
     /tmp/cc6wDDAF.s:3659   .text.style_init:00000000000006b8 $t
     /tmp/cc6wDDAF.s:4211   .text.style_init:00000000000009f8 $d
     /tmp/cc6wDDAF.s:4218   .text.style_init:0000000000000a10 $t
     /tmp/cc6wDDAF.s:4788   .text.style_init:0000000000000dac $d
     /tmp/cc6wDDAF.s:4796   .text.style_init:0000000000000dc8 $t
     /tmp/cc6wDDAF.s:5363   .text.style_init:0000000000001138 $d
     /tmp/cc6wDDAF.s:5369   .text.style_init:000000000000114c $t
     /tmp/cc6wDDAF.s:5971   .text.style_init:00000000000014dc $d
     /tmp/cc6wDDAF.s:5981   .text.style_init:00000000000014ec $t
     /tmp/cc6wDDAF.s:6503   .text.style_init:0000000000001838 $d
     /tmp/cc6wDDAF.s:6510   .text.style_init:0000000000001850 $t
     /tmp/cc6wDDAF.s:7069   .text.style_init:0000000000001bc0 $d
     /tmp/cc6wDDAF.s:7074   .text.style_init:0000000000001bd0 $t
     /tmp/cc6wDDAF.s:7617   .text.style_init:0000000000001f58 $d
     /tmp/cc6wDDAF.s:7629   .text.style_init:0000000000001f74 $t
     /tmp/cc6wDDAF.s:8145   .text.style_init:00000000000022d8 $d
     /tmp/cc6wDDAF.s:8153   .text.style_init:00000000000022e4 $t
     /tmp/cc6wDDAF.s:8674   .text.style_init:0000000000002640 $d
     /tmp/cc6wDDAF.s:8678   .text.style_init:0000000000002648 $t
     /tmp/cc6wDDAF.s:9212   .text.style_init:00000000000029b4 $d
     /tmp/cc6wDDAF.s:9219   .text.style_init:00000000000029bc $t
     /tmp/cc6wDDAF.s:9759   .text.style_init:0000000000002d30 $d
     /tmp/cc6wDDAF.s:9767   .text.style_init:0000000000002d38 $t
     /tmp/cc6wDDAF.s:10321  .text.style_init:00000000000030a8 $d
     /tmp/cc6wDDAF.s:10325  .text.style_init:00000000000030b0 $t
     /tmp/cc6wDDAF.s:10862  .text.style_init:0000000000003410 $d
     /tmp/cc6wDDAF.s:10869  .text.style_init:0000000000003418 $t
     /tmp/cc6wDDAF.s:11413  .text.style_init:000000000000377c $d
     /tmp/cc6wDDAF.s:11421  .text.style_init:0000000000003784 $t
ARM GAS  /tmp/cc6wDDAF.s 			page 278


     /tmp/cc6wDDAF.s:11764  .text.style_init:00000000000039c8 $d
     /tmp/cc6wDDAF.s:11772  .text.lv_theme_default_is_inited:0000000000000000 $t
     /tmp/cc6wDDAF.s:11779  .text.lv_theme_default_is_inited:0000000000000000 lv_theme_default_is_inited
     /tmp/cc6wDDAF.s:11797  .text.lv_theme_default_is_inited:000000000000000c $d
     /tmp/cc6wDDAF.s:11802  .text.lv_theme_default_init:0000000000000000 $t
     /tmp/cc6wDDAF.s:11809  .text.lv_theme_default_init:0000000000000000 lv_theme_default_init
     /tmp/cc6wDDAF.s:11930  .text.lv_theme_default_init:0000000000000098 $d
     /tmp/cc6wDDAF.s:11940  .text.lv_theme_default_get:0000000000000000 $t
     /tmp/cc6wDDAF.s:11947  .text.lv_theme_default_get:0000000000000000 lv_theme_default_get
     /tmp/cc6wDDAF.s:11970  .text.lv_theme_default_get:000000000000000c $d
     /tmp/cc6wDDAF.s:11975  .bss.color_card:0000000000000000 $d
     /tmp/cc6wDDAF.s:11979  .bss.color_card:0000000000000000 color_card
     /tmp/cc6wDDAF.s:11982  .bss.color_grey:0000000000000000 $d
     /tmp/cc6wDDAF.s:11986  .bss.color_grey:0000000000000000 color_grey
     /tmp/cc6wDDAF.s:11989  .bss.color_scr:0000000000000000 $d
     /tmp/cc6wDDAF.s:11993  .bss.color_scr:0000000000000000 color_scr
     /tmp/cc6wDDAF.s:11996  .bss.color_text:0000000000000000 $d
     /tmp/cc6wDDAF.s:12000  .bss.color_text:0000000000000000 color_text
     /tmp/cc6wDDAF.s:12003  .bss.dark_filter.12640:0000000000000000 $d
     /tmp/cc6wDDAF.s:12007  .bss.dark_filter.12640:0000000000000000 dark_filter.12640
     /tmp/cc6wDDAF.s:12013  .bss.disp_size:0000000000000000 disp_size
     /tmp/cc6wDDAF.s:12014  .bss.disp_size:0000000000000000 $d
     /tmp/cc6wDDAF.s:12016  .bss.grey_filter.12641:0000000000000000 $d
     /tmp/cc6wDDAF.s:12020  .bss.grey_filter.12641:0000000000000000 grey_filter.12641
     /tmp/cc6wDDAF.s:12026  .bss.inited:0000000000000000 inited
     /tmp/cc6wDDAF.s:12027  .bss.inited:0000000000000000 $d
     /tmp/cc6wDDAF.s:12029  .bss.styles:0000000000000000 $d
     /tmp/cc6wDDAF.s:12033  .bss.styles:0000000000000000 styles
     /tmp/cc6wDDAF.s:12036  .bss.theme:0000000000000000 $d
     /tmp/cc6wDDAF.s:12040  .bss.theme:0000000000000000 theme
     /tmp/cc6wDDAF.s:12043  .bss.trans_delayed.12637:0000000000000000 $d
     /tmp/cc6wDDAF.s:12047  .bss.trans_delayed.12637:0000000000000000 trans_delayed.12637
     /tmp/cc6wDDAF.s:12050  .bss.trans_normal.12638:0000000000000000 $d
     /tmp/cc6wDDAF.s:12054  .bss.trans_normal.12638:0000000000000000 trans_normal.12638
     /tmp/cc6wDDAF.s:12057  .rodata.style_init.str1.4:0000000000000000 $d
     /tmp/cc6wDDAF.s:12061  .rodata.trans_props.12636:0000000000000000 $d
     /tmp/cc6wDDAF.s:12065  .rodata.trans_props.12636:0000000000000000 trans_props.12636

UNDEFINED SYMBOLS
lv_obj_get_parent
lv_obj_check_type
lv_obj_get_index
lv_obj_add_style
lv_obj_class
lv_tabview_class
lv_win_class
lv_calendar_class
lv_btn_class
lv_menu_sidebar_header_cont_class
lv_menu_main_header_cont_class
lv_line_class
lv_btnmatrix_class
lv_msgbox_class
lv_bar_class
lv_slider_class
lv_table_class
lv_checkbox_class
ARM GAS  /tmp/cc6wDDAF.s 			page 279


lv_switch_class
lv_chart_class
lv_roller_class
lv_dropdown_class
lv_dropdownlist_class
lv_arc_class
lv_spinner_class
lv_meter_class
lv_textarea_class
lv_calendar_header_arrow_class
lv_calendar_header_dropdown_class
lv_keyboard_class
lv_list_class
lv_list_text_class
lv_list_btn_class
lv_menu_class
lv_menu_sidebar_cont_class
lv_menu_main_cont_class
lv_menu_cont_class
lv_menu_page_class
lv_menu_section_class
lv_menu_separator_class
lv_msgbox_backdrop_class
lv_spinbox_class
lv_tileview_class
lv_tileview_tile_class
lv_colorwheel_class
lv_led_class
lv_palette_lighten
lv_palette_darken
lv_color_darken
lv_style_init
lv_style_reset
lv_style_transition_dsc_init
lv_style_set_transition
lv_style_set_bg_color
lv_style_set_radius
lv_disp_get_dpi
lv_style_set_pad_left
lv_style_set_pad_right
lv_style_set_pad_top
lv_style_set_pad_bottom
lv_style_set_width
lv_style_set_bg_opa
lv_style_set_text_color
lv_style_set_pad_row
lv_style_set_pad_column
lv_style_set_border_color
lv_style_set_border_width
lv_style_set_border_post
lv_anim_path_linear
lv_palette_main
lv_style_set_line_color
lv_style_set_line_width
lv_style_set_outline_color
lv_style_set_outline_width
lv_style_set_outline_pad
ARM GAS  /tmp/cc6wDDAF.s 			page 280


lv_style_set_outline_opa
lv_style_set_color_filter_dsc
lv_style_set_color_filter_opa
lv_style_set_clip_corner
lv_style_set_text_line_space
lv_style_set_text_align
lv_style_set_transform_width
lv_style_set_transform_height
lv_style_set_anim_time
lv_style_set_arc_color
lv_style_set_arc_width
lv_style_set_arc_rounded
lv_style_set_max_height
lv_style_set_bg_img_src
lv_style_set_text_font
lv_style_set_height
lv_style_set_border_side
lv_style_set_border_opa
lv_style_set_shadow_opa
lv_style_set_max_width
lv_style_set_shadow_width
lv_style_set_bg_grad_color
lv_style_set_shadow_color
lv_style_set_shadow_spread
lv_style_set_shadow_ofs_y
_lv_theme_default_styles
lv_disp_get_default
lv_disp_get_hor_res
lv_disp_get_theme
lv_obj_report_style_change
lv_mem_alloc
