ARM GAS  /tmp/ccHfA6hY.s 			page 1


   1              		.cpu cortex-m7
   2              		.eabi_attribute 28, 1
   3              		.eabi_attribute 20, 1
   4              		.eabi_attribute 21, 1
   5              		.eabi_attribute 23, 3
   6              		.eabi_attribute 24, 1
   7              		.eabi_attribute 25, 1
   8              		.eabi_attribute 26, 1
   9              		.eabi_attribute 30, 1
  10              		.eabi_attribute 34, 1
  11              		.eabi_attribute 18, 4
  12              		.file	"lv_theme_basic.c"
  13              		.text
  14              	.Ltext0:
  15              		.cfi_sections	.debug_frame
  16              		.section	.text.theme_apply,"ax",%progbits
  17              		.align	1
  18              		.syntax unified
  19              		.thumb
  20              		.thumb_func
  21              		.fpu fpv5-d16
  23              	theme_apply:
  24              	.LFB205:
  25              		.file 1 "Drivers/lvgl/lvgl/src/extra/themes/basic/lv_theme_basic.c"
   1:Drivers/lvgl/lvgl/src/extra/themes/basic/lv_theme_basic.c **** /**
   2:Drivers/lvgl/lvgl/src/extra/themes/basic/lv_theme_basic.c ****  * @file lv_theme_basic.c
   3:Drivers/lvgl/lvgl/src/extra/themes/basic/lv_theme_basic.c ****  *
   4:Drivers/lvgl/lvgl/src/extra/themes/basic/lv_theme_basic.c ****  */
   5:Drivers/lvgl/lvgl/src/extra/themes/basic/lv_theme_basic.c **** 
   6:Drivers/lvgl/lvgl/src/extra/themes/basic/lv_theme_basic.c **** /*********************
   7:Drivers/lvgl/lvgl/src/extra/themes/basic/lv_theme_basic.c ****  *      INCLUDES
   8:Drivers/lvgl/lvgl/src/extra/themes/basic/lv_theme_basic.c ****  *********************/
   9:Drivers/lvgl/lvgl/src/extra/themes/basic/lv_theme_basic.c **** #include "../../../lvgl.h" /*To see all the widgets*/
  10:Drivers/lvgl/lvgl/src/extra/themes/basic/lv_theme_basic.c **** 
  11:Drivers/lvgl/lvgl/src/extra/themes/basic/lv_theme_basic.c **** #if LV_USE_THEME_BASIC
  12:Drivers/lvgl/lvgl/src/extra/themes/basic/lv_theme_basic.c **** 
  13:Drivers/lvgl/lvgl/src/extra/themes/basic/lv_theme_basic.c **** #include "lv_theme_basic.h"
  14:Drivers/lvgl/lvgl/src/extra/themes/basic/lv_theme_basic.c **** #include "../../../misc/lv_gc.h"
  15:Drivers/lvgl/lvgl/src/extra/themes/basic/lv_theme_basic.c **** 
  16:Drivers/lvgl/lvgl/src/extra/themes/basic/lv_theme_basic.c **** /*********************
  17:Drivers/lvgl/lvgl/src/extra/themes/basic/lv_theme_basic.c ****  *      DEFINES
  18:Drivers/lvgl/lvgl/src/extra/themes/basic/lv_theme_basic.c ****  *********************/
  19:Drivers/lvgl/lvgl/src/extra/themes/basic/lv_theme_basic.c **** #define COLOR_SCR     lv_palette_lighten(LV_PALETTE_GREY, 4)
  20:Drivers/lvgl/lvgl/src/extra/themes/basic/lv_theme_basic.c **** #define COLOR_WHITE   lv_color_white()
  21:Drivers/lvgl/lvgl/src/extra/themes/basic/lv_theme_basic.c **** #define COLOR_LIGHT   lv_palette_lighten(LV_PALETTE_GREY, 2)
  22:Drivers/lvgl/lvgl/src/extra/themes/basic/lv_theme_basic.c **** #define COLOR_DARK    lv_palette_main(LV_PALETTE_GREY)
  23:Drivers/lvgl/lvgl/src/extra/themes/basic/lv_theme_basic.c **** #define COLOR_DIM     lv_palette_darken(LV_PALETTE_GREY, 2)
  24:Drivers/lvgl/lvgl/src/extra/themes/basic/lv_theme_basic.c **** #define SCROLLBAR_WIDTH     2
  25:Drivers/lvgl/lvgl/src/extra/themes/basic/lv_theme_basic.c **** 
  26:Drivers/lvgl/lvgl/src/extra/themes/basic/lv_theme_basic.c **** /**********************
  27:Drivers/lvgl/lvgl/src/extra/themes/basic/lv_theme_basic.c ****  *      TYPEDEFS
  28:Drivers/lvgl/lvgl/src/extra/themes/basic/lv_theme_basic.c ****  **********************/
  29:Drivers/lvgl/lvgl/src/extra/themes/basic/lv_theme_basic.c **** typedef struct {
  30:Drivers/lvgl/lvgl/src/extra/themes/basic/lv_theme_basic.c ****     lv_style_t scr;
  31:Drivers/lvgl/lvgl/src/extra/themes/basic/lv_theme_basic.c ****     lv_style_t transp;
  32:Drivers/lvgl/lvgl/src/extra/themes/basic/lv_theme_basic.c ****     lv_style_t white;
  33:Drivers/lvgl/lvgl/src/extra/themes/basic/lv_theme_basic.c ****     lv_style_t light;
ARM GAS  /tmp/ccHfA6hY.s 			page 2


  34:Drivers/lvgl/lvgl/src/extra/themes/basic/lv_theme_basic.c ****     lv_style_t dark;
  35:Drivers/lvgl/lvgl/src/extra/themes/basic/lv_theme_basic.c ****     lv_style_t dim;
  36:Drivers/lvgl/lvgl/src/extra/themes/basic/lv_theme_basic.c ****     lv_style_t scrollbar;
  37:Drivers/lvgl/lvgl/src/extra/themes/basic/lv_theme_basic.c **** #if LV_USE_ARC || LV_USE_COLORWHEEL
  38:Drivers/lvgl/lvgl/src/extra/themes/basic/lv_theme_basic.c ****     lv_style_t arc_line;
  39:Drivers/lvgl/lvgl/src/extra/themes/basic/lv_theme_basic.c ****     lv_style_t arc_knob;
  40:Drivers/lvgl/lvgl/src/extra/themes/basic/lv_theme_basic.c **** #endif
  41:Drivers/lvgl/lvgl/src/extra/themes/basic/lv_theme_basic.c **** #if LV_USE_TEXTAREA
  42:Drivers/lvgl/lvgl/src/extra/themes/basic/lv_theme_basic.c ****     lv_style_t ta_cursor;
  43:Drivers/lvgl/lvgl/src/extra/themes/basic/lv_theme_basic.c **** #endif
  44:Drivers/lvgl/lvgl/src/extra/themes/basic/lv_theme_basic.c **** } my_theme_styles_t;
  45:Drivers/lvgl/lvgl/src/extra/themes/basic/lv_theme_basic.c **** 
  46:Drivers/lvgl/lvgl/src/extra/themes/basic/lv_theme_basic.c **** 
  47:Drivers/lvgl/lvgl/src/extra/themes/basic/lv_theme_basic.c **** /**********************
  48:Drivers/lvgl/lvgl/src/extra/themes/basic/lv_theme_basic.c ****  *  STATIC PROTOTYPES
  49:Drivers/lvgl/lvgl/src/extra/themes/basic/lv_theme_basic.c ****  **********************/
  50:Drivers/lvgl/lvgl/src/extra/themes/basic/lv_theme_basic.c **** static void style_init_reset(lv_style_t * style);
  51:Drivers/lvgl/lvgl/src/extra/themes/basic/lv_theme_basic.c **** static void theme_apply(lv_theme_t * th, lv_obj_t * obj);
  52:Drivers/lvgl/lvgl/src/extra/themes/basic/lv_theme_basic.c **** 
  53:Drivers/lvgl/lvgl/src/extra/themes/basic/lv_theme_basic.c **** /**********************
  54:Drivers/lvgl/lvgl/src/extra/themes/basic/lv_theme_basic.c ****  *  STATIC VARIABLES
  55:Drivers/lvgl/lvgl/src/extra/themes/basic/lv_theme_basic.c ****  **********************/
  56:Drivers/lvgl/lvgl/src/extra/themes/basic/lv_theme_basic.c **** static my_theme_styles_t * styles;
  57:Drivers/lvgl/lvgl/src/extra/themes/basic/lv_theme_basic.c **** static lv_theme_t theme;
  58:Drivers/lvgl/lvgl/src/extra/themes/basic/lv_theme_basic.c **** static bool inited;
  59:Drivers/lvgl/lvgl/src/extra/themes/basic/lv_theme_basic.c **** 
  60:Drivers/lvgl/lvgl/src/extra/themes/basic/lv_theme_basic.c **** /**********************
  61:Drivers/lvgl/lvgl/src/extra/themes/basic/lv_theme_basic.c ****  *      MACROS
  62:Drivers/lvgl/lvgl/src/extra/themes/basic/lv_theme_basic.c ****  **********************/
  63:Drivers/lvgl/lvgl/src/extra/themes/basic/lv_theme_basic.c **** 
  64:Drivers/lvgl/lvgl/src/extra/themes/basic/lv_theme_basic.c **** /**********************
  65:Drivers/lvgl/lvgl/src/extra/themes/basic/lv_theme_basic.c ****  *   STATIC FUNCTIONS
  66:Drivers/lvgl/lvgl/src/extra/themes/basic/lv_theme_basic.c ****  **********************/
  67:Drivers/lvgl/lvgl/src/extra/themes/basic/lv_theme_basic.c **** 
  68:Drivers/lvgl/lvgl/src/extra/themes/basic/lv_theme_basic.c **** static void style_init(void)
  69:Drivers/lvgl/lvgl/src/extra/themes/basic/lv_theme_basic.c **** {
  70:Drivers/lvgl/lvgl/src/extra/themes/basic/lv_theme_basic.c ****     style_init_reset(&styles->scrollbar);
  71:Drivers/lvgl/lvgl/src/extra/themes/basic/lv_theme_basic.c ****     lv_style_set_bg_opa(&styles->scrollbar, LV_OPA_COVER);
  72:Drivers/lvgl/lvgl/src/extra/themes/basic/lv_theme_basic.c ****     lv_style_set_bg_color(&styles->scrollbar, COLOR_DARK);
  73:Drivers/lvgl/lvgl/src/extra/themes/basic/lv_theme_basic.c ****     lv_style_set_width(&styles->scrollbar,  SCROLLBAR_WIDTH);
  74:Drivers/lvgl/lvgl/src/extra/themes/basic/lv_theme_basic.c **** 
  75:Drivers/lvgl/lvgl/src/extra/themes/basic/lv_theme_basic.c ****     style_init_reset(&styles->scr);
  76:Drivers/lvgl/lvgl/src/extra/themes/basic/lv_theme_basic.c ****     lv_style_set_bg_opa(&styles->scr, LV_OPA_COVER);
  77:Drivers/lvgl/lvgl/src/extra/themes/basic/lv_theme_basic.c ****     lv_style_set_bg_color(&styles->scr, COLOR_SCR);
  78:Drivers/lvgl/lvgl/src/extra/themes/basic/lv_theme_basic.c ****     lv_style_set_text_color(&styles->scr, COLOR_DIM);
  79:Drivers/lvgl/lvgl/src/extra/themes/basic/lv_theme_basic.c **** 
  80:Drivers/lvgl/lvgl/src/extra/themes/basic/lv_theme_basic.c **** 
  81:Drivers/lvgl/lvgl/src/extra/themes/basic/lv_theme_basic.c ****     style_init_reset(&styles->transp);
  82:Drivers/lvgl/lvgl/src/extra/themes/basic/lv_theme_basic.c ****     lv_style_set_bg_opa(&styles->transp, LV_OPA_TRANSP);
  83:Drivers/lvgl/lvgl/src/extra/themes/basic/lv_theme_basic.c **** 
  84:Drivers/lvgl/lvgl/src/extra/themes/basic/lv_theme_basic.c ****     style_init_reset(&styles->white);
  85:Drivers/lvgl/lvgl/src/extra/themes/basic/lv_theme_basic.c ****     lv_style_set_bg_opa(&styles->white, LV_OPA_COVER);
  86:Drivers/lvgl/lvgl/src/extra/themes/basic/lv_theme_basic.c ****     lv_style_set_bg_color(&styles->white, COLOR_WHITE);
  87:Drivers/lvgl/lvgl/src/extra/themes/basic/lv_theme_basic.c ****     lv_style_set_line_width(&styles->white, 1);
  88:Drivers/lvgl/lvgl/src/extra/themes/basic/lv_theme_basic.c ****     lv_style_set_line_color(&styles->white, COLOR_WHITE);
  89:Drivers/lvgl/lvgl/src/extra/themes/basic/lv_theme_basic.c ****     lv_style_set_arc_width(&styles->white, 2);
  90:Drivers/lvgl/lvgl/src/extra/themes/basic/lv_theme_basic.c ****     lv_style_set_arc_color(&styles->white, COLOR_WHITE);
ARM GAS  /tmp/ccHfA6hY.s 			page 3


  91:Drivers/lvgl/lvgl/src/extra/themes/basic/lv_theme_basic.c **** 
  92:Drivers/lvgl/lvgl/src/extra/themes/basic/lv_theme_basic.c ****     style_init_reset(&styles->light);
  93:Drivers/lvgl/lvgl/src/extra/themes/basic/lv_theme_basic.c ****     lv_style_set_bg_opa(&styles->light, LV_OPA_COVER);
  94:Drivers/lvgl/lvgl/src/extra/themes/basic/lv_theme_basic.c ****     lv_style_set_bg_color(&styles->light, COLOR_LIGHT);
  95:Drivers/lvgl/lvgl/src/extra/themes/basic/lv_theme_basic.c ****     lv_style_set_line_width(&styles->light, 1);
  96:Drivers/lvgl/lvgl/src/extra/themes/basic/lv_theme_basic.c ****     lv_style_set_line_color(&styles->light, COLOR_LIGHT);
  97:Drivers/lvgl/lvgl/src/extra/themes/basic/lv_theme_basic.c ****     lv_style_set_arc_width(&styles->light, 2);
  98:Drivers/lvgl/lvgl/src/extra/themes/basic/lv_theme_basic.c ****     lv_style_set_arc_color(&styles->light, COLOR_LIGHT);
  99:Drivers/lvgl/lvgl/src/extra/themes/basic/lv_theme_basic.c **** 
 100:Drivers/lvgl/lvgl/src/extra/themes/basic/lv_theme_basic.c ****     style_init_reset(&styles->dark);
 101:Drivers/lvgl/lvgl/src/extra/themes/basic/lv_theme_basic.c ****     lv_style_set_bg_opa(&styles->dark, LV_OPA_COVER);
 102:Drivers/lvgl/lvgl/src/extra/themes/basic/lv_theme_basic.c ****     lv_style_set_bg_color(&styles->dark, COLOR_DARK);
 103:Drivers/lvgl/lvgl/src/extra/themes/basic/lv_theme_basic.c ****     lv_style_set_line_width(&styles->dark, 1);
 104:Drivers/lvgl/lvgl/src/extra/themes/basic/lv_theme_basic.c ****     lv_style_set_line_color(&styles->dark, COLOR_DARK);
 105:Drivers/lvgl/lvgl/src/extra/themes/basic/lv_theme_basic.c ****     lv_style_set_arc_width(&styles->dark, 2);
 106:Drivers/lvgl/lvgl/src/extra/themes/basic/lv_theme_basic.c ****     lv_style_set_arc_color(&styles->dark, COLOR_DARK);
 107:Drivers/lvgl/lvgl/src/extra/themes/basic/lv_theme_basic.c **** 
 108:Drivers/lvgl/lvgl/src/extra/themes/basic/lv_theme_basic.c ****     style_init_reset(&styles->dim);
 109:Drivers/lvgl/lvgl/src/extra/themes/basic/lv_theme_basic.c ****     lv_style_set_bg_opa(&styles->dim, LV_OPA_COVER);
 110:Drivers/lvgl/lvgl/src/extra/themes/basic/lv_theme_basic.c ****     lv_style_set_bg_color(&styles->dim, COLOR_DIM);
 111:Drivers/lvgl/lvgl/src/extra/themes/basic/lv_theme_basic.c ****     lv_style_set_line_width(&styles->dim, 1);
 112:Drivers/lvgl/lvgl/src/extra/themes/basic/lv_theme_basic.c ****     lv_style_set_line_color(&styles->dim, COLOR_DIM);
 113:Drivers/lvgl/lvgl/src/extra/themes/basic/lv_theme_basic.c ****     lv_style_set_arc_width(&styles->dim, 2);
 114:Drivers/lvgl/lvgl/src/extra/themes/basic/lv_theme_basic.c ****     lv_style_set_arc_color(&styles->dim, COLOR_DIM);
 115:Drivers/lvgl/lvgl/src/extra/themes/basic/lv_theme_basic.c **** 
 116:Drivers/lvgl/lvgl/src/extra/themes/basic/lv_theme_basic.c **** #if LV_USE_ARC || LV_USE_COLORWHEEL
 117:Drivers/lvgl/lvgl/src/extra/themes/basic/lv_theme_basic.c ****     style_init_reset(&styles->arc_line);
 118:Drivers/lvgl/lvgl/src/extra/themes/basic/lv_theme_basic.c ****     lv_style_set_arc_width(&styles->arc_line, 6);
 119:Drivers/lvgl/lvgl/src/extra/themes/basic/lv_theme_basic.c ****     style_init_reset(&styles->arc_knob);
 120:Drivers/lvgl/lvgl/src/extra/themes/basic/lv_theme_basic.c ****     lv_style_set_pad_all(&styles->arc_knob, 5);
 121:Drivers/lvgl/lvgl/src/extra/themes/basic/lv_theme_basic.c **** #endif
 122:Drivers/lvgl/lvgl/src/extra/themes/basic/lv_theme_basic.c **** 
 123:Drivers/lvgl/lvgl/src/extra/themes/basic/lv_theme_basic.c **** #if LV_USE_TEXTAREA
 124:Drivers/lvgl/lvgl/src/extra/themes/basic/lv_theme_basic.c ****     style_init_reset(&styles->ta_cursor);
 125:Drivers/lvgl/lvgl/src/extra/themes/basic/lv_theme_basic.c ****     lv_style_set_border_side(&styles->ta_cursor, LV_BORDER_SIDE_LEFT);
 126:Drivers/lvgl/lvgl/src/extra/themes/basic/lv_theme_basic.c ****     lv_style_set_border_color(&styles->ta_cursor, COLOR_DIM);
 127:Drivers/lvgl/lvgl/src/extra/themes/basic/lv_theme_basic.c ****     lv_style_set_border_width(&styles->ta_cursor, 2);
 128:Drivers/lvgl/lvgl/src/extra/themes/basic/lv_theme_basic.c ****     lv_style_set_bg_opa(&styles->ta_cursor, LV_OPA_TRANSP);
 129:Drivers/lvgl/lvgl/src/extra/themes/basic/lv_theme_basic.c ****     lv_style_set_anim_time(&styles->ta_cursor, 500);
 130:Drivers/lvgl/lvgl/src/extra/themes/basic/lv_theme_basic.c **** #endif
 131:Drivers/lvgl/lvgl/src/extra/themes/basic/lv_theme_basic.c **** }
 132:Drivers/lvgl/lvgl/src/extra/themes/basic/lv_theme_basic.c **** 
 133:Drivers/lvgl/lvgl/src/extra/themes/basic/lv_theme_basic.c **** 
 134:Drivers/lvgl/lvgl/src/extra/themes/basic/lv_theme_basic.c **** /**********************
 135:Drivers/lvgl/lvgl/src/extra/themes/basic/lv_theme_basic.c ****  *   GLOBAL FUNCTIONS
 136:Drivers/lvgl/lvgl/src/extra/themes/basic/lv_theme_basic.c ****  **********************/
 137:Drivers/lvgl/lvgl/src/extra/themes/basic/lv_theme_basic.c **** 
 138:Drivers/lvgl/lvgl/src/extra/themes/basic/lv_theme_basic.c **** bool lv_theme_basic_is_inited(void)
 139:Drivers/lvgl/lvgl/src/extra/themes/basic/lv_theme_basic.c **** {
 140:Drivers/lvgl/lvgl/src/extra/themes/basic/lv_theme_basic.c ****     return  LV_GC_ROOT(_lv_theme_basic_styles) == NULL ? false : true;
 141:Drivers/lvgl/lvgl/src/extra/themes/basic/lv_theme_basic.c **** }
 142:Drivers/lvgl/lvgl/src/extra/themes/basic/lv_theme_basic.c **** 
 143:Drivers/lvgl/lvgl/src/extra/themes/basic/lv_theme_basic.c **** lv_theme_t * lv_theme_basic_init(lv_disp_t * disp)
 144:Drivers/lvgl/lvgl/src/extra/themes/basic/lv_theme_basic.c **** {
 145:Drivers/lvgl/lvgl/src/extra/themes/basic/lv_theme_basic.c **** 
 146:Drivers/lvgl/lvgl/src/extra/themes/basic/lv_theme_basic.c ****     /*This trick is required only to avoid the garbage collection of
 147:Drivers/lvgl/lvgl/src/extra/themes/basic/lv_theme_basic.c ****      *styles' data if LVGL is used in a binding (e.g. Micropython)
ARM GAS  /tmp/ccHfA6hY.s 			page 4


 148:Drivers/lvgl/lvgl/src/extra/themes/basic/lv_theme_basic.c ****      *In a general case styles could be in simple `static lv_style_t my_style...` variables*/
 149:Drivers/lvgl/lvgl/src/extra/themes/basic/lv_theme_basic.c ****     if(!lv_theme_basic_is_inited()) {
 150:Drivers/lvgl/lvgl/src/extra/themes/basic/lv_theme_basic.c ****         inited = false;
 151:Drivers/lvgl/lvgl/src/extra/themes/basic/lv_theme_basic.c ****         LV_GC_ROOT(_lv_theme_basic_styles) = lv_mem_alloc(sizeof(my_theme_styles_t));
 152:Drivers/lvgl/lvgl/src/extra/themes/basic/lv_theme_basic.c ****         styles = (my_theme_styles_t *)LV_GC_ROOT(_lv_theme_basic_styles);
 153:Drivers/lvgl/lvgl/src/extra/themes/basic/lv_theme_basic.c ****     }
 154:Drivers/lvgl/lvgl/src/extra/themes/basic/lv_theme_basic.c **** 
 155:Drivers/lvgl/lvgl/src/extra/themes/basic/lv_theme_basic.c ****     theme.disp = disp;
 156:Drivers/lvgl/lvgl/src/extra/themes/basic/lv_theme_basic.c ****     theme.font_small = LV_FONT_DEFAULT;
 157:Drivers/lvgl/lvgl/src/extra/themes/basic/lv_theme_basic.c ****     theme.font_normal = LV_FONT_DEFAULT;
 158:Drivers/lvgl/lvgl/src/extra/themes/basic/lv_theme_basic.c ****     theme.font_large = LV_FONT_DEFAULT;
 159:Drivers/lvgl/lvgl/src/extra/themes/basic/lv_theme_basic.c ****     theme.apply_cb = theme_apply;
 160:Drivers/lvgl/lvgl/src/extra/themes/basic/lv_theme_basic.c **** 
 161:Drivers/lvgl/lvgl/src/extra/themes/basic/lv_theme_basic.c ****     style_init();
 162:Drivers/lvgl/lvgl/src/extra/themes/basic/lv_theme_basic.c **** 
 163:Drivers/lvgl/lvgl/src/extra/themes/basic/lv_theme_basic.c ****     if(disp == NULL || lv_disp_get_theme(disp) == &theme) {
 164:Drivers/lvgl/lvgl/src/extra/themes/basic/lv_theme_basic.c ****         lv_obj_report_style_change(NULL);
 165:Drivers/lvgl/lvgl/src/extra/themes/basic/lv_theme_basic.c ****     }
 166:Drivers/lvgl/lvgl/src/extra/themes/basic/lv_theme_basic.c **** 
 167:Drivers/lvgl/lvgl/src/extra/themes/basic/lv_theme_basic.c ****     inited = true;
 168:Drivers/lvgl/lvgl/src/extra/themes/basic/lv_theme_basic.c **** 
 169:Drivers/lvgl/lvgl/src/extra/themes/basic/lv_theme_basic.c ****     return (lv_theme_t *)&theme;
 170:Drivers/lvgl/lvgl/src/extra/themes/basic/lv_theme_basic.c **** }
 171:Drivers/lvgl/lvgl/src/extra/themes/basic/lv_theme_basic.c **** 
 172:Drivers/lvgl/lvgl/src/extra/themes/basic/lv_theme_basic.c **** 
 173:Drivers/lvgl/lvgl/src/extra/themes/basic/lv_theme_basic.c **** static void theme_apply(lv_theme_t * th, lv_obj_t * obj)
 174:Drivers/lvgl/lvgl/src/extra/themes/basic/lv_theme_basic.c **** {
  26              		.loc 1 174 0
  27              		.cfi_startproc
  28              		@ args = 0, pretend = 0, frame = 0
  29              		@ frame_needed = 0, uses_anonymous_args = 0
  30              	.LVL0:
  31 0000 38B5     		push	{r3, r4, r5, lr}
  32              	.LCFI0:
  33              		.cfi_def_cfa_offset 16
  34              		.cfi_offset 3, -16
  35              		.cfi_offset 4, -12
  36              		.cfi_offset 5, -8
  37              		.cfi_offset 14, -4
  38 0002 0C46     		mov	r4, r1
 175:Drivers/lvgl/lvgl/src/extra/themes/basic/lv_theme_basic.c ****     LV_UNUSED(th);
 176:Drivers/lvgl/lvgl/src/extra/themes/basic/lv_theme_basic.c **** 
 177:Drivers/lvgl/lvgl/src/extra/themes/basic/lv_theme_basic.c ****     if(lv_obj_get_parent(obj) == NULL) {
  39              		.loc 1 177 0
  40 0004 0846     		mov	r0, r1
  41              	.LVL1:
  42 0006 FFF7FEFF 		bl	lv_obj_get_parent
  43              	.LVL2:
  44 000a A0B3     		cbz	r0, .L37
 178:Drivers/lvgl/lvgl/src/extra/themes/basic/lv_theme_basic.c ****         lv_obj_add_style(obj, &styles->scr, 0);
 179:Drivers/lvgl/lvgl/src/extra/themes/basic/lv_theme_basic.c ****         lv_obj_add_style(obj, &styles->scrollbar, LV_PART_SCROLLBAR);
 180:Drivers/lvgl/lvgl/src/extra/themes/basic/lv_theme_basic.c ****         return;
 181:Drivers/lvgl/lvgl/src/extra/themes/basic/lv_theme_basic.c ****     }
 182:Drivers/lvgl/lvgl/src/extra/themes/basic/lv_theme_basic.c **** 
 183:Drivers/lvgl/lvgl/src/extra/themes/basic/lv_theme_basic.c ****     if(lv_obj_check_type(obj, &lv_obj_class)) {
  45              		.loc 1 183 0
  46 000c BF49     		ldr	r1, .L55
ARM GAS  /tmp/ccHfA6hY.s 			page 5


  47 000e 2046     		mov	r0, r4
  48 0010 FFF7FEFF 		bl	lv_obj_check_type
  49              	.LVL3:
  50 0014 0028     		cmp	r0, #0
  51 0016 70D0     		beq	.L4
  52              	.LBB16:
 184:Drivers/lvgl/lvgl/src/extra/themes/basic/lv_theme_basic.c **** #if LV_USE_TABVIEW
 185:Drivers/lvgl/lvgl/src/extra/themes/basic/lv_theme_basic.c ****         lv_obj_t * parent = lv_obj_get_parent(obj);
  53              		.loc 1 185 0
  54 0018 2046     		mov	r0, r4
  55 001a FFF7FEFF 		bl	lv_obj_get_parent
  56              	.LVL4:
  57 001e 0546     		mov	r5, r0
  58              	.LVL5:
 186:Drivers/lvgl/lvgl/src/extra/themes/basic/lv_theme_basic.c ****         /*Tabview content area*/
 187:Drivers/lvgl/lvgl/src/extra/themes/basic/lv_theme_basic.c ****         if(lv_obj_check_type(parent, &lv_tabview_class)) {
  59              		.loc 1 187 0
  60 0020 BB49     		ldr	r1, .L55+4
  61 0022 FFF7FEFF 		bl	lv_obj_check_type
  62              	.LVL6:
  63 0026 A0BB     		cbnz	r0, .L38
 188:Drivers/lvgl/lvgl/src/extra/themes/basic/lv_theme_basic.c ****             lv_obj_add_style(obj, &styles->scr, 0);
 189:Drivers/lvgl/lvgl/src/extra/themes/basic/lv_theme_basic.c ****             return;
 190:Drivers/lvgl/lvgl/src/extra/themes/basic/lv_theme_basic.c ****         }
 191:Drivers/lvgl/lvgl/src/extra/themes/basic/lv_theme_basic.c ****         /*Tabview pages*/
 192:Drivers/lvgl/lvgl/src/extra/themes/basic/lv_theme_basic.c ****         else if(lv_obj_check_type(lv_obj_get_parent(parent), &lv_tabview_class)) {
  64              		.loc 1 192 0
  65 0028 2846     		mov	r0, r5
  66 002a FFF7FEFF 		bl	lv_obj_get_parent
  67              	.LVL7:
  68 002e B849     		ldr	r1, .L55+4
  69 0030 FFF7FEFF 		bl	lv_obj_check_type
  70              	.LVL8:
  71 0034 A0BB     		cbnz	r0, .L39
 193:Drivers/lvgl/lvgl/src/extra/themes/basic/lv_theme_basic.c ****             lv_obj_add_style(obj, &styles->scr, 0);
 194:Drivers/lvgl/lvgl/src/extra/themes/basic/lv_theme_basic.c ****             lv_obj_add_style(obj, &styles->scrollbar, LV_PART_SCROLLBAR);
 195:Drivers/lvgl/lvgl/src/extra/themes/basic/lv_theme_basic.c ****             return;
 196:Drivers/lvgl/lvgl/src/extra/themes/basic/lv_theme_basic.c ****         }
 197:Drivers/lvgl/lvgl/src/extra/themes/basic/lv_theme_basic.c **** #endif
 198:Drivers/lvgl/lvgl/src/extra/themes/basic/lv_theme_basic.c **** 
 199:Drivers/lvgl/lvgl/src/extra/themes/basic/lv_theme_basic.c **** #if LV_USE_WIN
 200:Drivers/lvgl/lvgl/src/extra/themes/basic/lv_theme_basic.c ****         /*Header*/
 201:Drivers/lvgl/lvgl/src/extra/themes/basic/lv_theme_basic.c ****         if(lv_obj_get_index(obj) == 0 && lv_obj_check_type(lv_obj_get_parent(obj), &lv_win_class)) 
  72              		.loc 1 201 0
  73 0036 2046     		mov	r0, r4
  74 0038 FFF7FEFF 		bl	lv_obj_get_index
  75              	.LVL9:
  76 003c 38B9     		cbnz	r0, .L7
  77              		.loc 1 201 0 is_stmt 0 discriminator 1
  78 003e 2046     		mov	r0, r4
  79 0040 FFF7FEFF 		bl	lv_obj_get_parent
  80              	.LVL10:
  81 0044 B349     		ldr	r1, .L55+8
  82 0046 FFF7FEFF 		bl	lv_obj_check_type
  83              	.LVL11:
  84 004a 0028     		cmp	r0, #0
  85 004c 36D1     		bne	.L40
ARM GAS  /tmp/ccHfA6hY.s 			page 6


  86              	.L7:
 202:Drivers/lvgl/lvgl/src/extra/themes/basic/lv_theme_basic.c ****             lv_obj_add_style(obj, &styles->light, 0);
 203:Drivers/lvgl/lvgl/src/extra/themes/basic/lv_theme_basic.c ****             return;
 204:Drivers/lvgl/lvgl/src/extra/themes/basic/lv_theme_basic.c ****         }
 205:Drivers/lvgl/lvgl/src/extra/themes/basic/lv_theme_basic.c ****         /*Content*/
 206:Drivers/lvgl/lvgl/src/extra/themes/basic/lv_theme_basic.c ****         else if(lv_obj_get_index(obj) == 1 && lv_obj_check_type(lv_obj_get_parent(obj), &lv_win_cla
  87              		.loc 1 206 0 is_stmt 1
  88 004e 2046     		mov	r0, r4
  89 0050 FFF7FEFF 		bl	lv_obj_get_index
  90              	.LVL12:
  91 0054 0128     		cmp	r0, #1
  92 0056 39D0     		beq	.L41
  93              	.L8:
 207:Drivers/lvgl/lvgl/src/extra/themes/basic/lv_theme_basic.c ****             lv_obj_add_style(obj, &styles->light, 0);
 208:Drivers/lvgl/lvgl/src/extra/themes/basic/lv_theme_basic.c ****             lv_obj_add_style(obj, &styles->scrollbar, LV_PART_SCROLLBAR);
 209:Drivers/lvgl/lvgl/src/extra/themes/basic/lv_theme_basic.c ****             return;
 210:Drivers/lvgl/lvgl/src/extra/themes/basic/lv_theme_basic.c ****         }
 211:Drivers/lvgl/lvgl/src/extra/themes/basic/lv_theme_basic.c **** #endif
 212:Drivers/lvgl/lvgl/src/extra/themes/basic/lv_theme_basic.c ****         lv_obj_add_style(obj, &styles->white, 0);
  94              		.loc 1 212 0
  95 0058 AF4D     		ldr	r5, .L55+12
  96              	.LVL13:
  97 005a 2968     		ldr	r1, [r5]
  98 005c 0022     		movs	r2, #0
  99 005e 1031     		adds	r1, r1, #16
 100 0060 2046     		mov	r0, r4
 101 0062 FFF7FEFF 		bl	lv_obj_add_style
 102              	.LVL14:
 213:Drivers/lvgl/lvgl/src/extra/themes/basic/lv_theme_basic.c ****         lv_obj_add_style(obj, &styles->scrollbar, LV_PART_SCROLLBAR);
 103              		.loc 1 213 0
 104 0066 2968     		ldr	r1, [r5]
 105 0068 4FF48032 		mov	r2, #65536
 106 006c 3031     		adds	r1, r1, #48
 107 006e 2046     		mov	r0, r4
 108 0070 FFF7FEFF 		bl	lv_obj_add_style
 109              	.LVL15:
 110              	.LBE16:
 111 0074 0CE0     		b	.L1
 112              	.L37:
 178:Drivers/lvgl/lvgl/src/extra/themes/basic/lv_theme_basic.c ****         lv_obj_add_style(obj, &styles->scrollbar, LV_PART_SCROLLBAR);
 113              		.loc 1 178 0
 114 0076 A84D     		ldr	r5, .L55+12
 115 0078 0022     		movs	r2, #0
 116 007a 2968     		ldr	r1, [r5]
 117 007c 2046     		mov	r0, r4
 118 007e FFF7FEFF 		bl	lv_obj_add_style
 119              	.LVL16:
 179:Drivers/lvgl/lvgl/src/extra/themes/basic/lv_theme_basic.c ****         return;
 120              		.loc 1 179 0
 121 0082 2968     		ldr	r1, [r5]
 122 0084 4FF48032 		mov	r2, #65536
 123 0088 3031     		adds	r1, r1, #48
 124 008a 2046     		mov	r0, r4
 125 008c FFF7FEFF 		bl	lv_obj_add_style
 126              	.LVL17:
 127              	.L1:
 214:Drivers/lvgl/lvgl/src/extra/themes/basic/lv_theme_basic.c ****     }
ARM GAS  /tmp/ccHfA6hY.s 			page 7


 215:Drivers/lvgl/lvgl/src/extra/themes/basic/lv_theme_basic.c **** #if LV_USE_BTN
 216:Drivers/lvgl/lvgl/src/extra/themes/basic/lv_theme_basic.c ****     else if(lv_obj_check_type(obj, &lv_btn_class)) {
 217:Drivers/lvgl/lvgl/src/extra/themes/basic/lv_theme_basic.c ****         lv_obj_add_style(obj, &styles->dark, 0);
 218:Drivers/lvgl/lvgl/src/extra/themes/basic/lv_theme_basic.c ****     }
 219:Drivers/lvgl/lvgl/src/extra/themes/basic/lv_theme_basic.c **** #endif
 220:Drivers/lvgl/lvgl/src/extra/themes/basic/lv_theme_basic.c **** 
 221:Drivers/lvgl/lvgl/src/extra/themes/basic/lv_theme_basic.c **** #if LV_USE_BTNMATRIX
 222:Drivers/lvgl/lvgl/src/extra/themes/basic/lv_theme_basic.c ****     else if(lv_obj_check_type(obj, &lv_btnmatrix_class)) {
 223:Drivers/lvgl/lvgl/src/extra/themes/basic/lv_theme_basic.c **** #if LV_USE_MSGBOX
 224:Drivers/lvgl/lvgl/src/extra/themes/basic/lv_theme_basic.c ****         if(lv_obj_check_type(lv_obj_get_parent(obj), &lv_msgbox_class)) {
 225:Drivers/lvgl/lvgl/src/extra/themes/basic/lv_theme_basic.c ****             lv_obj_add_style(obj, &styles->light, LV_PART_ITEMS);
 226:Drivers/lvgl/lvgl/src/extra/themes/basic/lv_theme_basic.c ****             return;
 227:Drivers/lvgl/lvgl/src/extra/themes/basic/lv_theme_basic.c ****         }
 228:Drivers/lvgl/lvgl/src/extra/themes/basic/lv_theme_basic.c **** #endif
 229:Drivers/lvgl/lvgl/src/extra/themes/basic/lv_theme_basic.c **** #if LV_USE_TABVIEW
 230:Drivers/lvgl/lvgl/src/extra/themes/basic/lv_theme_basic.c ****         if(lv_obj_check_type(lv_obj_get_parent(obj), &lv_tabview_class)) {
 231:Drivers/lvgl/lvgl/src/extra/themes/basic/lv_theme_basic.c ****             lv_obj_add_style(obj, &styles->light, LV_PART_ITEMS);
 232:Drivers/lvgl/lvgl/src/extra/themes/basic/lv_theme_basic.c ****             return;
 233:Drivers/lvgl/lvgl/src/extra/themes/basic/lv_theme_basic.c ****         }
 234:Drivers/lvgl/lvgl/src/extra/themes/basic/lv_theme_basic.c **** #endif
 235:Drivers/lvgl/lvgl/src/extra/themes/basic/lv_theme_basic.c ****         lv_obj_add_style(obj, &styles->white, 0);
 236:Drivers/lvgl/lvgl/src/extra/themes/basic/lv_theme_basic.c ****         lv_obj_add_style(obj, &styles->light, LV_PART_ITEMS);
 237:Drivers/lvgl/lvgl/src/extra/themes/basic/lv_theme_basic.c ****     }
 238:Drivers/lvgl/lvgl/src/extra/themes/basic/lv_theme_basic.c **** #endif
 239:Drivers/lvgl/lvgl/src/extra/themes/basic/lv_theme_basic.c **** 
 240:Drivers/lvgl/lvgl/src/extra/themes/basic/lv_theme_basic.c **** #if LV_USE_BAR
 241:Drivers/lvgl/lvgl/src/extra/themes/basic/lv_theme_basic.c ****     else if(lv_obj_check_type(obj, &lv_bar_class)) {
 242:Drivers/lvgl/lvgl/src/extra/themes/basic/lv_theme_basic.c ****         lv_obj_add_style(obj, &styles->light, 0);
 243:Drivers/lvgl/lvgl/src/extra/themes/basic/lv_theme_basic.c ****         lv_obj_add_style(obj, &styles->dark, LV_PART_INDICATOR);
 244:Drivers/lvgl/lvgl/src/extra/themes/basic/lv_theme_basic.c ****     }
 245:Drivers/lvgl/lvgl/src/extra/themes/basic/lv_theme_basic.c **** #endif
 246:Drivers/lvgl/lvgl/src/extra/themes/basic/lv_theme_basic.c **** 
 247:Drivers/lvgl/lvgl/src/extra/themes/basic/lv_theme_basic.c **** #if LV_USE_SLIDER
 248:Drivers/lvgl/lvgl/src/extra/themes/basic/lv_theme_basic.c ****     else if(lv_obj_check_type(obj, &lv_slider_class)) {
 249:Drivers/lvgl/lvgl/src/extra/themes/basic/lv_theme_basic.c ****         lv_obj_add_style(obj, &styles->light, 0);
 250:Drivers/lvgl/lvgl/src/extra/themes/basic/lv_theme_basic.c ****         lv_obj_add_style(obj, &styles->dark, LV_PART_INDICATOR);
 251:Drivers/lvgl/lvgl/src/extra/themes/basic/lv_theme_basic.c ****         lv_obj_add_style(obj, &styles->dim, LV_PART_KNOB);
 252:Drivers/lvgl/lvgl/src/extra/themes/basic/lv_theme_basic.c ****     }
 253:Drivers/lvgl/lvgl/src/extra/themes/basic/lv_theme_basic.c **** #endif
 254:Drivers/lvgl/lvgl/src/extra/themes/basic/lv_theme_basic.c **** 
 255:Drivers/lvgl/lvgl/src/extra/themes/basic/lv_theme_basic.c **** #if LV_USE_TABLE
 256:Drivers/lvgl/lvgl/src/extra/themes/basic/lv_theme_basic.c ****     else if(lv_obj_check_type(obj, &lv_table_class)) {
 257:Drivers/lvgl/lvgl/src/extra/themes/basic/lv_theme_basic.c ****         lv_obj_add_style(obj, &styles->scrollbar, LV_PART_SCROLLBAR);
 258:Drivers/lvgl/lvgl/src/extra/themes/basic/lv_theme_basic.c ****         lv_obj_add_style(obj, &styles->light, LV_PART_ITEMS);
 259:Drivers/lvgl/lvgl/src/extra/themes/basic/lv_theme_basic.c ****     }
 260:Drivers/lvgl/lvgl/src/extra/themes/basic/lv_theme_basic.c **** #endif
 261:Drivers/lvgl/lvgl/src/extra/themes/basic/lv_theme_basic.c **** 
 262:Drivers/lvgl/lvgl/src/extra/themes/basic/lv_theme_basic.c **** #if LV_USE_CHECKBOX
 263:Drivers/lvgl/lvgl/src/extra/themes/basic/lv_theme_basic.c ****     else if(lv_obj_check_type(obj, &lv_checkbox_class)) {
 264:Drivers/lvgl/lvgl/src/extra/themes/basic/lv_theme_basic.c ****         lv_obj_add_style(obj, &styles->light, LV_PART_INDICATOR);
 265:Drivers/lvgl/lvgl/src/extra/themes/basic/lv_theme_basic.c ****         lv_obj_add_style(obj, &styles->dark, LV_PART_INDICATOR | LV_STATE_CHECKED);
 266:Drivers/lvgl/lvgl/src/extra/themes/basic/lv_theme_basic.c ****     }
 267:Drivers/lvgl/lvgl/src/extra/themes/basic/lv_theme_basic.c **** #endif
 268:Drivers/lvgl/lvgl/src/extra/themes/basic/lv_theme_basic.c **** 
 269:Drivers/lvgl/lvgl/src/extra/themes/basic/lv_theme_basic.c **** #if LV_USE_SWITCH
 270:Drivers/lvgl/lvgl/src/extra/themes/basic/lv_theme_basic.c ****     else if(lv_obj_check_type(obj, &lv_switch_class)) {
 271:Drivers/lvgl/lvgl/src/extra/themes/basic/lv_theme_basic.c ****         lv_obj_add_style(obj, &styles->light, 0);
ARM GAS  /tmp/ccHfA6hY.s 			page 8


 272:Drivers/lvgl/lvgl/src/extra/themes/basic/lv_theme_basic.c ****         lv_obj_add_style(obj, &styles->dim, LV_PART_KNOB);
 273:Drivers/lvgl/lvgl/src/extra/themes/basic/lv_theme_basic.c ****     }
 274:Drivers/lvgl/lvgl/src/extra/themes/basic/lv_theme_basic.c **** #endif
 275:Drivers/lvgl/lvgl/src/extra/themes/basic/lv_theme_basic.c **** 
 276:Drivers/lvgl/lvgl/src/extra/themes/basic/lv_theme_basic.c **** #if LV_USE_CHART
 277:Drivers/lvgl/lvgl/src/extra/themes/basic/lv_theme_basic.c ****     else if(lv_obj_check_type(obj, &lv_chart_class)) {
 278:Drivers/lvgl/lvgl/src/extra/themes/basic/lv_theme_basic.c ****         lv_obj_add_style(obj, &styles->white, 0);
 279:Drivers/lvgl/lvgl/src/extra/themes/basic/lv_theme_basic.c ****         lv_obj_add_style(obj, &styles->scrollbar, LV_PART_SCROLLBAR);
 280:Drivers/lvgl/lvgl/src/extra/themes/basic/lv_theme_basic.c ****         lv_obj_add_style(obj, &styles->light, LV_PART_ITEMS);
 281:Drivers/lvgl/lvgl/src/extra/themes/basic/lv_theme_basic.c ****         lv_obj_add_style(obj, &styles->dark, LV_PART_TICKS);
 282:Drivers/lvgl/lvgl/src/extra/themes/basic/lv_theme_basic.c ****         lv_obj_add_style(obj, &styles->dark, LV_PART_CURSOR);
 283:Drivers/lvgl/lvgl/src/extra/themes/basic/lv_theme_basic.c ****     }
 284:Drivers/lvgl/lvgl/src/extra/themes/basic/lv_theme_basic.c **** #endif
 285:Drivers/lvgl/lvgl/src/extra/themes/basic/lv_theme_basic.c **** 
 286:Drivers/lvgl/lvgl/src/extra/themes/basic/lv_theme_basic.c **** #if LV_USE_ROLLER
 287:Drivers/lvgl/lvgl/src/extra/themes/basic/lv_theme_basic.c ****     else if(lv_obj_check_type(obj, &lv_roller_class)) {
 288:Drivers/lvgl/lvgl/src/extra/themes/basic/lv_theme_basic.c ****         lv_obj_add_style(obj, &styles->light, 0);
 289:Drivers/lvgl/lvgl/src/extra/themes/basic/lv_theme_basic.c ****         lv_obj_add_style(obj, &styles->dark, LV_PART_SELECTED);
 290:Drivers/lvgl/lvgl/src/extra/themes/basic/lv_theme_basic.c ****     }
 291:Drivers/lvgl/lvgl/src/extra/themes/basic/lv_theme_basic.c **** #endif
 292:Drivers/lvgl/lvgl/src/extra/themes/basic/lv_theme_basic.c **** 
 293:Drivers/lvgl/lvgl/src/extra/themes/basic/lv_theme_basic.c **** #if LV_USE_DROPDOWN
 294:Drivers/lvgl/lvgl/src/extra/themes/basic/lv_theme_basic.c ****     else if(lv_obj_check_type(obj, &lv_dropdown_class)) {
 295:Drivers/lvgl/lvgl/src/extra/themes/basic/lv_theme_basic.c ****         lv_obj_add_style(obj, &styles->white, 0);
 296:Drivers/lvgl/lvgl/src/extra/themes/basic/lv_theme_basic.c ****     }
 297:Drivers/lvgl/lvgl/src/extra/themes/basic/lv_theme_basic.c ****     else if(lv_obj_check_type(obj, &lv_dropdownlist_class)) {
 298:Drivers/lvgl/lvgl/src/extra/themes/basic/lv_theme_basic.c ****         lv_obj_add_style(obj, &styles->white, 0);
 299:Drivers/lvgl/lvgl/src/extra/themes/basic/lv_theme_basic.c ****         lv_obj_add_style(obj, &styles->scrollbar, LV_PART_SCROLLBAR);
 300:Drivers/lvgl/lvgl/src/extra/themes/basic/lv_theme_basic.c ****         lv_obj_add_style(obj, &styles->light, LV_PART_SELECTED);
 301:Drivers/lvgl/lvgl/src/extra/themes/basic/lv_theme_basic.c ****         lv_obj_add_style(obj, &styles->dark, LV_PART_SELECTED | LV_STATE_CHECKED);
 302:Drivers/lvgl/lvgl/src/extra/themes/basic/lv_theme_basic.c ****     }
 303:Drivers/lvgl/lvgl/src/extra/themes/basic/lv_theme_basic.c **** #endif
 304:Drivers/lvgl/lvgl/src/extra/themes/basic/lv_theme_basic.c **** 
 305:Drivers/lvgl/lvgl/src/extra/themes/basic/lv_theme_basic.c **** #if LV_USE_ARC
 306:Drivers/lvgl/lvgl/src/extra/themes/basic/lv_theme_basic.c ****     else if(lv_obj_check_type(obj, &lv_arc_class)) {
 307:Drivers/lvgl/lvgl/src/extra/themes/basic/lv_theme_basic.c ****         lv_obj_add_style(obj, &styles->light, 0);
 308:Drivers/lvgl/lvgl/src/extra/themes/basic/lv_theme_basic.c ****         lv_obj_add_style(obj, &styles->transp, 0);
 309:Drivers/lvgl/lvgl/src/extra/themes/basic/lv_theme_basic.c ****         lv_obj_add_style(obj, &styles->arc_line, 0);
 310:Drivers/lvgl/lvgl/src/extra/themes/basic/lv_theme_basic.c ****         lv_obj_add_style(obj, &styles->dark, LV_PART_INDICATOR);
 311:Drivers/lvgl/lvgl/src/extra/themes/basic/lv_theme_basic.c ****         lv_obj_add_style(obj, &styles->arc_line, LV_PART_INDICATOR);
 312:Drivers/lvgl/lvgl/src/extra/themes/basic/lv_theme_basic.c ****         lv_obj_add_style(obj, &styles->dim, LV_PART_KNOB);
 313:Drivers/lvgl/lvgl/src/extra/themes/basic/lv_theme_basic.c ****         lv_obj_add_style(obj, &styles->arc_knob, LV_PART_KNOB);
 314:Drivers/lvgl/lvgl/src/extra/themes/basic/lv_theme_basic.c ****     }
 315:Drivers/lvgl/lvgl/src/extra/themes/basic/lv_theme_basic.c **** #endif
 316:Drivers/lvgl/lvgl/src/extra/themes/basic/lv_theme_basic.c **** 
 317:Drivers/lvgl/lvgl/src/extra/themes/basic/lv_theme_basic.c **** #if LV_USE_SPINNER
 318:Drivers/lvgl/lvgl/src/extra/themes/basic/lv_theme_basic.c ****     else if(lv_obj_check_type(obj, &lv_spinner_class)) {
 319:Drivers/lvgl/lvgl/src/extra/themes/basic/lv_theme_basic.c ****         lv_obj_add_style(obj, &styles->light, 0);
 320:Drivers/lvgl/lvgl/src/extra/themes/basic/lv_theme_basic.c ****         lv_obj_add_style(obj, &styles->transp, 0);
 321:Drivers/lvgl/lvgl/src/extra/themes/basic/lv_theme_basic.c ****         lv_obj_add_style(obj, &styles->arc_line, 0);
 322:Drivers/lvgl/lvgl/src/extra/themes/basic/lv_theme_basic.c ****         lv_obj_add_style(obj, &styles->dark, LV_PART_INDICATOR);
 323:Drivers/lvgl/lvgl/src/extra/themes/basic/lv_theme_basic.c ****         lv_obj_add_style(obj, &styles->arc_line, LV_PART_INDICATOR);
 324:Drivers/lvgl/lvgl/src/extra/themes/basic/lv_theme_basic.c ****     }
 325:Drivers/lvgl/lvgl/src/extra/themes/basic/lv_theme_basic.c **** #endif
 326:Drivers/lvgl/lvgl/src/extra/themes/basic/lv_theme_basic.c **** 
 327:Drivers/lvgl/lvgl/src/extra/themes/basic/lv_theme_basic.c **** #if LV_USE_COLORWHEEL
 328:Drivers/lvgl/lvgl/src/extra/themes/basic/lv_theme_basic.c ****     else if(lv_obj_check_type(obj, &lv_colorwheel_class)) {
ARM GAS  /tmp/ccHfA6hY.s 			page 9


 329:Drivers/lvgl/lvgl/src/extra/themes/basic/lv_theme_basic.c ****         lv_obj_add_style(obj, &styles->light, 0);
 330:Drivers/lvgl/lvgl/src/extra/themes/basic/lv_theme_basic.c ****         lv_obj_add_style(obj, &styles->transp, 0);
 331:Drivers/lvgl/lvgl/src/extra/themes/basic/lv_theme_basic.c ****         lv_obj_add_style(obj, &styles->arc_line, 0);
 332:Drivers/lvgl/lvgl/src/extra/themes/basic/lv_theme_basic.c ****         lv_obj_add_style(obj, &styles->dim, LV_PART_KNOB);
 333:Drivers/lvgl/lvgl/src/extra/themes/basic/lv_theme_basic.c ****         lv_obj_add_style(obj, &styles->arc_knob, LV_PART_KNOB);
 334:Drivers/lvgl/lvgl/src/extra/themes/basic/lv_theme_basic.c ****     }
 335:Drivers/lvgl/lvgl/src/extra/themes/basic/lv_theme_basic.c **** #endif
 336:Drivers/lvgl/lvgl/src/extra/themes/basic/lv_theme_basic.c **** 
 337:Drivers/lvgl/lvgl/src/extra/themes/basic/lv_theme_basic.c **** #if LV_USE_METER
 338:Drivers/lvgl/lvgl/src/extra/themes/basic/lv_theme_basic.c ****     else if(lv_obj_check_type(obj, &lv_meter_class)) {
 339:Drivers/lvgl/lvgl/src/extra/themes/basic/lv_theme_basic.c ****         lv_obj_add_style(obj, &styles->light, 0);
 340:Drivers/lvgl/lvgl/src/extra/themes/basic/lv_theme_basic.c ****     }
 341:Drivers/lvgl/lvgl/src/extra/themes/basic/lv_theme_basic.c **** #endif
 342:Drivers/lvgl/lvgl/src/extra/themes/basic/lv_theme_basic.c **** 
 343:Drivers/lvgl/lvgl/src/extra/themes/basic/lv_theme_basic.c **** #if LV_USE_TEXTAREA
 344:Drivers/lvgl/lvgl/src/extra/themes/basic/lv_theme_basic.c ****     else if(lv_obj_check_type(obj, &lv_textarea_class)) {
 345:Drivers/lvgl/lvgl/src/extra/themes/basic/lv_theme_basic.c ****         lv_obj_add_style(obj, &styles->white, 0);
 346:Drivers/lvgl/lvgl/src/extra/themes/basic/lv_theme_basic.c ****         lv_obj_add_style(obj, &styles->scrollbar, LV_PART_SCROLLBAR);
 347:Drivers/lvgl/lvgl/src/extra/themes/basic/lv_theme_basic.c ****         lv_obj_add_style(obj, &styles->ta_cursor, LV_PART_CURSOR | LV_STATE_FOCUSED);
 348:Drivers/lvgl/lvgl/src/extra/themes/basic/lv_theme_basic.c ****     }
 349:Drivers/lvgl/lvgl/src/extra/themes/basic/lv_theme_basic.c **** #endif
 350:Drivers/lvgl/lvgl/src/extra/themes/basic/lv_theme_basic.c **** 
 351:Drivers/lvgl/lvgl/src/extra/themes/basic/lv_theme_basic.c **** #if LV_USE_CALENDAR
 352:Drivers/lvgl/lvgl/src/extra/themes/basic/lv_theme_basic.c ****     else if(lv_obj_check_type(obj, &lv_calendar_class)) {
 353:Drivers/lvgl/lvgl/src/extra/themes/basic/lv_theme_basic.c ****         lv_obj_add_style(obj, &styles->light, 0);
 354:Drivers/lvgl/lvgl/src/extra/themes/basic/lv_theme_basic.c ****     }
 355:Drivers/lvgl/lvgl/src/extra/themes/basic/lv_theme_basic.c **** #endif
 356:Drivers/lvgl/lvgl/src/extra/themes/basic/lv_theme_basic.c **** 
 357:Drivers/lvgl/lvgl/src/extra/themes/basic/lv_theme_basic.c **** #if LV_USE_KEYBOARD
 358:Drivers/lvgl/lvgl/src/extra/themes/basic/lv_theme_basic.c ****     else if(lv_obj_check_type(obj, &lv_keyboard_class)) {
 359:Drivers/lvgl/lvgl/src/extra/themes/basic/lv_theme_basic.c ****         lv_obj_add_style(obj, &styles->scr, 0);
 360:Drivers/lvgl/lvgl/src/extra/themes/basic/lv_theme_basic.c ****         lv_obj_add_style(obj, &styles->white, LV_PART_ITEMS);
 361:Drivers/lvgl/lvgl/src/extra/themes/basic/lv_theme_basic.c ****         lv_obj_add_style(obj, &styles->light, LV_PART_ITEMS | LV_STATE_CHECKED);
 362:Drivers/lvgl/lvgl/src/extra/themes/basic/lv_theme_basic.c ****     }
 363:Drivers/lvgl/lvgl/src/extra/themes/basic/lv_theme_basic.c **** #endif
 364:Drivers/lvgl/lvgl/src/extra/themes/basic/lv_theme_basic.c **** #if LV_USE_LIST
 365:Drivers/lvgl/lvgl/src/extra/themes/basic/lv_theme_basic.c ****     else if(lv_obj_check_type(obj, &lv_list_class)) {
 366:Drivers/lvgl/lvgl/src/extra/themes/basic/lv_theme_basic.c ****         lv_obj_add_style(obj, &styles->light, 0);
 367:Drivers/lvgl/lvgl/src/extra/themes/basic/lv_theme_basic.c ****         lv_obj_add_style(obj, &styles->scrollbar, LV_PART_SCROLLBAR);
 368:Drivers/lvgl/lvgl/src/extra/themes/basic/lv_theme_basic.c ****         return;
 369:Drivers/lvgl/lvgl/src/extra/themes/basic/lv_theme_basic.c ****     }
 370:Drivers/lvgl/lvgl/src/extra/themes/basic/lv_theme_basic.c ****     else if(lv_obj_check_type(obj, &lv_list_text_class)) {
 371:Drivers/lvgl/lvgl/src/extra/themes/basic/lv_theme_basic.c **** 
 372:Drivers/lvgl/lvgl/src/extra/themes/basic/lv_theme_basic.c ****     }
 373:Drivers/lvgl/lvgl/src/extra/themes/basic/lv_theme_basic.c ****     else if(lv_obj_check_type(obj, &lv_list_btn_class)) {
 374:Drivers/lvgl/lvgl/src/extra/themes/basic/lv_theme_basic.c ****         lv_obj_add_style(obj, &styles->dark, 0);
 375:Drivers/lvgl/lvgl/src/extra/themes/basic/lv_theme_basic.c **** 
 376:Drivers/lvgl/lvgl/src/extra/themes/basic/lv_theme_basic.c ****     }
 377:Drivers/lvgl/lvgl/src/extra/themes/basic/lv_theme_basic.c **** #endif
 378:Drivers/lvgl/lvgl/src/extra/themes/basic/lv_theme_basic.c **** #if LV_USE_MSGBOX
 379:Drivers/lvgl/lvgl/src/extra/themes/basic/lv_theme_basic.c ****     else if(lv_obj_check_type(obj, &lv_msgbox_class)) {
 380:Drivers/lvgl/lvgl/src/extra/themes/basic/lv_theme_basic.c ****         lv_obj_add_style(obj, &styles->light, 0);
 381:Drivers/lvgl/lvgl/src/extra/themes/basic/lv_theme_basic.c ****         return;
 382:Drivers/lvgl/lvgl/src/extra/themes/basic/lv_theme_basic.c ****     }
 383:Drivers/lvgl/lvgl/src/extra/themes/basic/lv_theme_basic.c **** #endif
 384:Drivers/lvgl/lvgl/src/extra/themes/basic/lv_theme_basic.c **** #if LV_USE_SPINBOX
 385:Drivers/lvgl/lvgl/src/extra/themes/basic/lv_theme_basic.c ****     else if(lv_obj_check_type(obj, &lv_spinbox_class)) {
ARM GAS  /tmp/ccHfA6hY.s 			page 10


 386:Drivers/lvgl/lvgl/src/extra/themes/basic/lv_theme_basic.c ****         lv_obj_add_style(obj, &styles->light, 0);
 387:Drivers/lvgl/lvgl/src/extra/themes/basic/lv_theme_basic.c ****         lv_obj_add_style(obj, &styles->dark, LV_PART_CURSOR);
 388:Drivers/lvgl/lvgl/src/extra/themes/basic/lv_theme_basic.c ****     }
 389:Drivers/lvgl/lvgl/src/extra/themes/basic/lv_theme_basic.c **** #endif
 390:Drivers/lvgl/lvgl/src/extra/themes/basic/lv_theme_basic.c **** #if LV_USE_TILEVIEW
 391:Drivers/lvgl/lvgl/src/extra/themes/basic/lv_theme_basic.c ****     else if(lv_obj_check_type(obj, &lv_tileview_class)) {
 392:Drivers/lvgl/lvgl/src/extra/themes/basic/lv_theme_basic.c ****         lv_obj_add_style(obj, &styles->scr, 0);
 393:Drivers/lvgl/lvgl/src/extra/themes/basic/lv_theme_basic.c ****         lv_obj_add_style(obj, &styles->scrollbar, LV_PART_SCROLLBAR);
 394:Drivers/lvgl/lvgl/src/extra/themes/basic/lv_theme_basic.c ****     }
 395:Drivers/lvgl/lvgl/src/extra/themes/basic/lv_theme_basic.c ****     else if(lv_obj_check_type(obj, &lv_tileview_tile_class)) {
 396:Drivers/lvgl/lvgl/src/extra/themes/basic/lv_theme_basic.c ****         lv_obj_add_style(obj, &styles->scrollbar, LV_PART_SCROLLBAR);
 397:Drivers/lvgl/lvgl/src/extra/themes/basic/lv_theme_basic.c ****     }
 398:Drivers/lvgl/lvgl/src/extra/themes/basic/lv_theme_basic.c **** #endif
 399:Drivers/lvgl/lvgl/src/extra/themes/basic/lv_theme_basic.c **** 
 400:Drivers/lvgl/lvgl/src/extra/themes/basic/lv_theme_basic.c **** #if LV_USE_COLORWHEEL
 401:Drivers/lvgl/lvgl/src/extra/themes/basic/lv_theme_basic.c ****     else if(lv_obj_check_type(obj, &lv_colorwheel_class)) {
 402:Drivers/lvgl/lvgl/src/extra/themes/basic/lv_theme_basic.c ****         lv_obj_add_style(obj, &styles->light, 0);
 403:Drivers/lvgl/lvgl/src/extra/themes/basic/lv_theme_basic.c ****         lv_obj_add_style(obj, &styles->light, LV_PART_KNOB);
 404:Drivers/lvgl/lvgl/src/extra/themes/basic/lv_theme_basic.c ****     }
 405:Drivers/lvgl/lvgl/src/extra/themes/basic/lv_theme_basic.c **** #endif
 406:Drivers/lvgl/lvgl/src/extra/themes/basic/lv_theme_basic.c **** 
 407:Drivers/lvgl/lvgl/src/extra/themes/basic/lv_theme_basic.c **** #if LV_USE_LED
 408:Drivers/lvgl/lvgl/src/extra/themes/basic/lv_theme_basic.c ****     else if(lv_obj_check_type(obj, &lv_led_class)) {
 409:Drivers/lvgl/lvgl/src/extra/themes/basic/lv_theme_basic.c ****         lv_obj_add_style(obj, &styles->light, 0);
 410:Drivers/lvgl/lvgl/src/extra/themes/basic/lv_theme_basic.c ****     }
 411:Drivers/lvgl/lvgl/src/extra/themes/basic/lv_theme_basic.c **** #endif
 412:Drivers/lvgl/lvgl/src/extra/themes/basic/lv_theme_basic.c **** }
 128              		.loc 1 412 0
 129 0090 38BD     		pop	{r3, r4, r5, pc}
 130              	.LVL18:
 131              	.L38:
 132              	.LBB17:
 188:Drivers/lvgl/lvgl/src/extra/themes/basic/lv_theme_basic.c ****             return;
 133              		.loc 1 188 0
 134 0092 0022     		movs	r2, #0
 135 0094 A04B     		ldr	r3, .L55+12
 136 0096 1968     		ldr	r1, [r3]
 137 0098 2046     		mov	r0, r4
 138 009a FFF7FEFF 		bl	lv_obj_add_style
 139              	.LVL19:
 189:Drivers/lvgl/lvgl/src/extra/themes/basic/lv_theme_basic.c ****         }
 140              		.loc 1 189 0
 141 009e F7E7     		b	.L1
 142              	.L39:
 193:Drivers/lvgl/lvgl/src/extra/themes/basic/lv_theme_basic.c ****             lv_obj_add_style(obj, &styles->scrollbar, LV_PART_SCROLLBAR);
 143              		.loc 1 193 0
 144 00a0 9D4D     		ldr	r5, .L55+12
 145              	.LVL20:
 146 00a2 0022     		movs	r2, #0
 147 00a4 2968     		ldr	r1, [r5]
 148 00a6 2046     		mov	r0, r4
 149 00a8 FFF7FEFF 		bl	lv_obj_add_style
 150              	.LVL21:
 194:Drivers/lvgl/lvgl/src/extra/themes/basic/lv_theme_basic.c ****             return;
 151              		.loc 1 194 0
 152 00ac 2968     		ldr	r1, [r5]
 153 00ae 4FF48032 		mov	r2, #65536
ARM GAS  /tmp/ccHfA6hY.s 			page 11


 154 00b2 3031     		adds	r1, r1, #48
 155 00b4 2046     		mov	r0, r4
 156 00b6 FFF7FEFF 		bl	lv_obj_add_style
 157              	.LVL22:
 195:Drivers/lvgl/lvgl/src/extra/themes/basic/lv_theme_basic.c ****         }
 158              		.loc 1 195 0
 159 00ba E9E7     		b	.L1
 160              	.LVL23:
 161              	.L40:
 202:Drivers/lvgl/lvgl/src/extra/themes/basic/lv_theme_basic.c ****             return;
 162              		.loc 1 202 0
 163 00bc 964B     		ldr	r3, .L55+12
 164 00be 1968     		ldr	r1, [r3]
 165 00c0 0022     		movs	r2, #0
 166 00c2 1831     		adds	r1, r1, #24
 167 00c4 2046     		mov	r0, r4
 168 00c6 FFF7FEFF 		bl	lv_obj_add_style
 169              	.LVL24:
 203:Drivers/lvgl/lvgl/src/extra/themes/basic/lv_theme_basic.c ****         }
 170              		.loc 1 203 0
 171 00ca E1E7     		b	.L1
 172              	.L41:
 206:Drivers/lvgl/lvgl/src/extra/themes/basic/lv_theme_basic.c ****             lv_obj_add_style(obj, &styles->light, 0);
 173              		.loc 1 206 0 discriminator 1
 174 00cc 2046     		mov	r0, r4
 175 00ce FFF7FEFF 		bl	lv_obj_get_parent
 176              	.LVL25:
 177 00d2 9049     		ldr	r1, .L55+8
 178 00d4 FFF7FEFF 		bl	lv_obj_check_type
 179              	.LVL26:
 180 00d8 0028     		cmp	r0, #0
 181 00da BDD0     		beq	.L8
 207:Drivers/lvgl/lvgl/src/extra/themes/basic/lv_theme_basic.c ****             lv_obj_add_style(obj, &styles->scrollbar, LV_PART_SCROLLBAR);
 182              		.loc 1 207 0
 183 00dc 8E4D     		ldr	r5, .L55+12
 184              	.LVL27:
 185 00de 2968     		ldr	r1, [r5]
 186 00e0 0022     		movs	r2, #0
 187 00e2 1831     		adds	r1, r1, #24
 188 00e4 2046     		mov	r0, r4
 189 00e6 FFF7FEFF 		bl	lv_obj_add_style
 190              	.LVL28:
 208:Drivers/lvgl/lvgl/src/extra/themes/basic/lv_theme_basic.c ****             return;
 191              		.loc 1 208 0
 192 00ea 2968     		ldr	r1, [r5]
 193 00ec 4FF48032 		mov	r2, #65536
 194 00f0 3031     		adds	r1, r1, #48
 195 00f2 2046     		mov	r0, r4
 196 00f4 FFF7FEFF 		bl	lv_obj_add_style
 197              	.LVL29:
 209:Drivers/lvgl/lvgl/src/extra/themes/basic/lv_theme_basic.c ****         }
 198              		.loc 1 209 0
 199 00f8 CAE7     		b	.L1
 200              	.L4:
 201              	.LBE17:
 216:Drivers/lvgl/lvgl/src/extra/themes/basic/lv_theme_basic.c ****         lv_obj_add_style(obj, &styles->dark, 0);
 202              		.loc 1 216 0
ARM GAS  /tmp/ccHfA6hY.s 			page 12


 203 00fa 8849     		ldr	r1, .L55+16
 204 00fc 2046     		mov	r0, r4
 205 00fe FFF7FEFF 		bl	lv_obj_check_type
 206              	.LVL30:
 207 0102 E0B9     		cbnz	r0, .L42
 222:Drivers/lvgl/lvgl/src/extra/themes/basic/lv_theme_basic.c **** #if LV_USE_MSGBOX
 208              		.loc 1 222 0
 209 0104 8649     		ldr	r1, .L55+20
 210 0106 2046     		mov	r0, r4
 211 0108 FFF7FEFF 		bl	lv_obj_check_type
 212              	.LVL31:
 213 010c 0028     		cmp	r0, #0
 214 010e 36D0     		beq	.L10
 224:Drivers/lvgl/lvgl/src/extra/themes/basic/lv_theme_basic.c ****             lv_obj_add_style(obj, &styles->light, LV_PART_ITEMS);
 215              		.loc 1 224 0
 216 0110 2046     		mov	r0, r4
 217 0112 FFF7FEFF 		bl	lv_obj_get_parent
 218              	.LVL32:
 219 0116 8349     		ldr	r1, .L55+24
 220 0118 FFF7FEFF 		bl	lv_obj_check_type
 221              	.LVL33:
 222 011c B8B9     		cbnz	r0, .L43
 230:Drivers/lvgl/lvgl/src/extra/themes/basic/lv_theme_basic.c ****             lv_obj_add_style(obj, &styles->light, LV_PART_ITEMS);
 223              		.loc 1 230 0
 224 011e 2046     		mov	r0, r4
 225 0120 FFF7FEFF 		bl	lv_obj_get_parent
 226              	.LVL34:
 227 0124 7A49     		ldr	r1, .L55+4
 228 0126 FFF7FEFF 		bl	lv_obj_check_type
 229              	.LVL35:
 230 012a C8B1     		cbz	r0, .L12
 231:Drivers/lvgl/lvgl/src/extra/themes/basic/lv_theme_basic.c ****             return;
 231              		.loc 1 231 0
 232 012c 7A4B     		ldr	r3, .L55+12
 233 012e 1968     		ldr	r1, [r3]
 234 0130 4FF4A022 		mov	r2, #327680
 235 0134 1831     		adds	r1, r1, #24
 236 0136 2046     		mov	r0, r4
 237 0138 FFF7FEFF 		bl	lv_obj_add_style
 238              	.LVL36:
 232:Drivers/lvgl/lvgl/src/extra/themes/basic/lv_theme_basic.c ****         }
 239              		.loc 1 232 0
 240 013c A8E7     		b	.L1
 241              	.L42:
 217:Drivers/lvgl/lvgl/src/extra/themes/basic/lv_theme_basic.c ****     }
 242              		.loc 1 217 0
 243 013e 764B     		ldr	r3, .L55+12
 244 0140 1968     		ldr	r1, [r3]
 245 0142 0022     		movs	r2, #0
 246 0144 2031     		adds	r1, r1, #32
 247 0146 2046     		mov	r0, r4
 248 0148 FFF7FEFF 		bl	lv_obj_add_style
 249              	.LVL37:
 250 014c A0E7     		b	.L1
 251              	.L43:
 225:Drivers/lvgl/lvgl/src/extra/themes/basic/lv_theme_basic.c ****             return;
 252              		.loc 1 225 0
ARM GAS  /tmp/ccHfA6hY.s 			page 13


 253 014e 724B     		ldr	r3, .L55+12
 254 0150 1968     		ldr	r1, [r3]
 255 0152 4FF4A022 		mov	r2, #327680
 256 0156 1831     		adds	r1, r1, #24
 257 0158 2046     		mov	r0, r4
 258 015a FFF7FEFF 		bl	lv_obj_add_style
 259              	.LVL38:
 226:Drivers/lvgl/lvgl/src/extra/themes/basic/lv_theme_basic.c ****         }
 260              		.loc 1 226 0
 261 015e 97E7     		b	.L1
 262              	.L12:
 235:Drivers/lvgl/lvgl/src/extra/themes/basic/lv_theme_basic.c ****         lv_obj_add_style(obj, &styles->light, LV_PART_ITEMS);
 263              		.loc 1 235 0
 264 0160 6D4D     		ldr	r5, .L55+12
 265 0162 2968     		ldr	r1, [r5]
 266 0164 0022     		movs	r2, #0
 267 0166 1031     		adds	r1, r1, #16
 268 0168 2046     		mov	r0, r4
 269 016a FFF7FEFF 		bl	lv_obj_add_style
 270              	.LVL39:
 236:Drivers/lvgl/lvgl/src/extra/themes/basic/lv_theme_basic.c ****     }
 271              		.loc 1 236 0
 272 016e 2968     		ldr	r1, [r5]
 273 0170 4FF4A022 		mov	r2, #327680
 274 0174 1831     		adds	r1, r1, #24
 275 0176 2046     		mov	r0, r4
 276 0178 FFF7FEFF 		bl	lv_obj_add_style
 277              	.LVL40:
 278 017c 88E7     		b	.L1
 279              	.L10:
 241:Drivers/lvgl/lvgl/src/extra/themes/basic/lv_theme_basic.c ****         lv_obj_add_style(obj, &styles->light, 0);
 280              		.loc 1 241 0
 281 017e 6A49     		ldr	r1, .L55+28
 282 0180 2046     		mov	r0, r4
 283 0182 FFF7FEFF 		bl	lv_obj_check_type
 284              	.LVL41:
 285 0186 0028     		cmp	r0, #0
 286 0188 6DD1     		bne	.L44
 248:Drivers/lvgl/lvgl/src/extra/themes/basic/lv_theme_basic.c ****         lv_obj_add_style(obj, &styles->light, 0);
 287              		.loc 1 248 0
 288 018a 6849     		ldr	r1, .L55+32
 289 018c 2046     		mov	r0, r4
 290 018e FFF7FEFF 		bl	lv_obj_check_type
 291              	.LVL42:
 292 0192 0028     		cmp	r0, #0
 293 0194 76D1     		bne	.L45
 256:Drivers/lvgl/lvgl/src/extra/themes/basic/lv_theme_basic.c ****         lv_obj_add_style(obj, &styles->scrollbar, LV_PART_SCROLLBAR);
 294              		.loc 1 256 0
 295 0196 6649     		ldr	r1, .L55+36
 296 0198 2046     		mov	r0, r4
 297 019a FFF7FEFF 		bl	lv_obj_check_type
 298              	.LVL43:
 299 019e 0028     		cmp	r0, #0
 300 01a0 40F08680 		bne	.L46
 263:Drivers/lvgl/lvgl/src/extra/themes/basic/lv_theme_basic.c ****         lv_obj_add_style(obj, &styles->light, LV_PART_INDICATOR);
 301              		.loc 1 263 0
 302 01a4 6349     		ldr	r1, .L55+40
ARM GAS  /tmp/ccHfA6hY.s 			page 14


 303 01a6 2046     		mov	r0, r4
 304 01a8 FFF7FEFF 		bl	lv_obj_check_type
 305              	.LVL44:
 306 01ac 0028     		cmp	r0, #0
 307 01ae 40F08F80 		bne	.L47
 270:Drivers/lvgl/lvgl/src/extra/themes/basic/lv_theme_basic.c ****         lv_obj_add_style(obj, &styles->light, 0);
 308              		.loc 1 270 0
 309 01b2 6149     		ldr	r1, .L55+44
 310 01b4 2046     		mov	r0, r4
 311 01b6 FFF7FEFF 		bl	lv_obj_check_type
 312              	.LVL45:
 313 01ba 0028     		cmp	r0, #0
 314 01bc 40F09780 		bne	.L48
 277:Drivers/lvgl/lvgl/src/extra/themes/basic/lv_theme_basic.c ****         lv_obj_add_style(obj, &styles->white, 0);
 315              		.loc 1 277 0
 316 01c0 5E49     		ldr	r1, .L55+48
 317 01c2 2046     		mov	r0, r4
 318 01c4 FFF7FEFF 		bl	lv_obj_check_type
 319              	.LVL46:
 320 01c8 0028     		cmp	r0, #0
 321 01ca 40F0C380 		bne	.L49
 287:Drivers/lvgl/lvgl/src/extra/themes/basic/lv_theme_basic.c ****         lv_obj_add_style(obj, &styles->light, 0);
 322              		.loc 1 287 0
 323 01ce 5C49     		ldr	r1, .L55+52
 324 01d0 2046     		mov	r0, r4
 325 01d2 FFF7FEFF 		bl	lv_obj_check_type
 326              	.LVL47:
 327 01d6 0028     		cmp	r0, #0
 328 01d8 40F0E080 		bne	.L50
 294:Drivers/lvgl/lvgl/src/extra/themes/basic/lv_theme_basic.c ****         lv_obj_add_style(obj, &styles->white, 0);
 329              		.loc 1 294 0
 330 01dc 5949     		ldr	r1, .L55+56
 331 01de 2046     		mov	r0, r4
 332 01e0 FFF7FEFF 		bl	lv_obj_check_type
 333              	.LVL48:
 334 01e4 0028     		cmp	r0, #0
 335 01e6 40F0E880 		bne	.L51
 297:Drivers/lvgl/lvgl/src/extra/themes/basic/lv_theme_basic.c ****         lv_obj_add_style(obj, &styles->white, 0);
 336              		.loc 1 297 0
 337 01ea 5749     		ldr	r1, .L55+60
 338 01ec 2046     		mov	r0, r4
 339 01ee FFF7FEFF 		bl	lv_obj_check_type
 340              	.LVL49:
 341 01f2 0028     		cmp	r0, #0
 342 01f4 40F0E980 		bne	.L52
 306:Drivers/lvgl/lvgl/src/extra/themes/basic/lv_theme_basic.c ****         lv_obj_add_style(obj, &styles->light, 0);
 343              		.loc 1 306 0
 344 01f8 5449     		ldr	r1, .L55+64
 345 01fa 2046     		mov	r0, r4
 346 01fc FFF7FEFF 		bl	lv_obj_check_type
 347              	.LVL50:
 348 0200 0028     		cmp	r0, #0
 349 0202 00F0FE80 		beq	.L22
 307:Drivers/lvgl/lvgl/src/extra/themes/basic/lv_theme_basic.c ****         lv_obj_add_style(obj, &styles->transp, 0);
 350              		.loc 1 307 0
 351 0206 444D     		ldr	r5, .L55+12
 352 0208 2968     		ldr	r1, [r5]
ARM GAS  /tmp/ccHfA6hY.s 			page 15


 353 020a 0022     		movs	r2, #0
 354 020c 1831     		adds	r1, r1, #24
 355 020e 2046     		mov	r0, r4
 356 0210 FFF7FEFF 		bl	lv_obj_add_style
 357              	.LVL51:
 308:Drivers/lvgl/lvgl/src/extra/themes/basic/lv_theme_basic.c ****         lv_obj_add_style(obj, &styles->arc_line, 0);
 358              		.loc 1 308 0
 359 0214 2968     		ldr	r1, [r5]
 360 0216 0022     		movs	r2, #0
 361 0218 0831     		adds	r1, r1, #8
 362 021a 2046     		mov	r0, r4
 363 021c FFF7FEFF 		bl	lv_obj_add_style
 364              	.LVL52:
 309:Drivers/lvgl/lvgl/src/extra/themes/basic/lv_theme_basic.c ****         lv_obj_add_style(obj, &styles->dark, LV_PART_INDICATOR);
 365              		.loc 1 309 0
 366 0220 2968     		ldr	r1, [r5]
 367 0222 0022     		movs	r2, #0
 368 0224 3831     		adds	r1, r1, #56
 369 0226 2046     		mov	r0, r4
 370 0228 FFF7FEFF 		bl	lv_obj_add_style
 371              	.LVL53:
 310:Drivers/lvgl/lvgl/src/extra/themes/basic/lv_theme_basic.c ****         lv_obj_add_style(obj, &styles->arc_line, LV_PART_INDICATOR);
 372              		.loc 1 310 0
 373 022c 2968     		ldr	r1, [r5]
 374 022e 4FF40032 		mov	r2, #131072
 375 0232 2031     		adds	r1, r1, #32
 376 0234 2046     		mov	r0, r4
 377 0236 FFF7FEFF 		bl	lv_obj_add_style
 378              	.LVL54:
 311:Drivers/lvgl/lvgl/src/extra/themes/basic/lv_theme_basic.c ****         lv_obj_add_style(obj, &styles->dim, LV_PART_KNOB);
 379              		.loc 1 311 0
 380 023a 2968     		ldr	r1, [r5]
 381 023c 4FF40032 		mov	r2, #131072
 382 0240 3831     		adds	r1, r1, #56
 383 0242 2046     		mov	r0, r4
 384 0244 FFF7FEFF 		bl	lv_obj_add_style
 385              	.LVL55:
 312:Drivers/lvgl/lvgl/src/extra/themes/basic/lv_theme_basic.c ****         lv_obj_add_style(obj, &styles->arc_knob, LV_PART_KNOB);
 386              		.loc 1 312 0
 387 0248 2968     		ldr	r1, [r5]
 388 024a 4FF44032 		mov	r2, #196608
 389 024e 2831     		adds	r1, r1, #40
 390 0250 2046     		mov	r0, r4
 391 0252 FFF7FEFF 		bl	lv_obj_add_style
 392              	.LVL56:
 313:Drivers/lvgl/lvgl/src/extra/themes/basic/lv_theme_basic.c ****     }
 393              		.loc 1 313 0
 394 0256 2968     		ldr	r1, [r5]
 395 0258 4FF44032 		mov	r2, #196608
 396 025c 4031     		adds	r1, r1, #64
 397 025e 2046     		mov	r0, r4
 398 0260 FFF7FEFF 		bl	lv_obj_add_style
 399              	.LVL57:
 400 0264 14E7     		b	.L1
 401              	.L44:
 242:Drivers/lvgl/lvgl/src/extra/themes/basic/lv_theme_basic.c ****         lv_obj_add_style(obj, &styles->dark, LV_PART_INDICATOR);
 402              		.loc 1 242 0
ARM GAS  /tmp/ccHfA6hY.s 			page 16


 403 0266 2C4D     		ldr	r5, .L55+12
 404 0268 2968     		ldr	r1, [r5]
 405 026a 0022     		movs	r2, #0
 406 026c 1831     		adds	r1, r1, #24
 407 026e 2046     		mov	r0, r4
 408 0270 FFF7FEFF 		bl	lv_obj_add_style
 409              	.LVL58:
 243:Drivers/lvgl/lvgl/src/extra/themes/basic/lv_theme_basic.c ****     }
 410              		.loc 1 243 0
 411 0274 2968     		ldr	r1, [r5]
 412 0276 4FF40032 		mov	r2, #131072
 413 027a 2031     		adds	r1, r1, #32
 414 027c 2046     		mov	r0, r4
 415 027e FFF7FEFF 		bl	lv_obj_add_style
 416              	.LVL59:
 417 0282 05E7     		b	.L1
 418              	.L45:
 249:Drivers/lvgl/lvgl/src/extra/themes/basic/lv_theme_basic.c ****         lv_obj_add_style(obj, &styles->dark, LV_PART_INDICATOR);
 419              		.loc 1 249 0
 420 0284 244D     		ldr	r5, .L55+12
 421 0286 2968     		ldr	r1, [r5]
 422 0288 0022     		movs	r2, #0
 423 028a 1831     		adds	r1, r1, #24
 424 028c 2046     		mov	r0, r4
 425 028e FFF7FEFF 		bl	lv_obj_add_style
 426              	.LVL60:
 250:Drivers/lvgl/lvgl/src/extra/themes/basic/lv_theme_basic.c ****         lv_obj_add_style(obj, &styles->dim, LV_PART_KNOB);
 427              		.loc 1 250 0
 428 0292 2968     		ldr	r1, [r5]
 429 0294 4FF40032 		mov	r2, #131072
 430 0298 2031     		adds	r1, r1, #32
 431 029a 2046     		mov	r0, r4
 432 029c FFF7FEFF 		bl	lv_obj_add_style
 433              	.LVL61:
 251:Drivers/lvgl/lvgl/src/extra/themes/basic/lv_theme_basic.c ****     }
 434              		.loc 1 251 0
 435 02a0 2968     		ldr	r1, [r5]
 436 02a2 4FF44032 		mov	r2, #196608
 437 02a6 2831     		adds	r1, r1, #40
 438 02a8 2046     		mov	r0, r4
 439 02aa FFF7FEFF 		bl	lv_obj_add_style
 440              	.LVL62:
 441 02ae EFE6     		b	.L1
 442              	.L46:
 257:Drivers/lvgl/lvgl/src/extra/themes/basic/lv_theme_basic.c ****         lv_obj_add_style(obj, &styles->light, LV_PART_ITEMS);
 443              		.loc 1 257 0
 444 02b0 194D     		ldr	r5, .L55+12
 445 02b2 2968     		ldr	r1, [r5]
 446 02b4 4FF48032 		mov	r2, #65536
 447 02b8 3031     		adds	r1, r1, #48
 448 02ba 2046     		mov	r0, r4
 449 02bc FFF7FEFF 		bl	lv_obj_add_style
 450              	.LVL63:
 258:Drivers/lvgl/lvgl/src/extra/themes/basic/lv_theme_basic.c ****     }
 451              		.loc 1 258 0
 452 02c0 2968     		ldr	r1, [r5]
 453 02c2 4FF4A022 		mov	r2, #327680
ARM GAS  /tmp/ccHfA6hY.s 			page 17


 454 02c6 1831     		adds	r1, r1, #24
 455 02c8 2046     		mov	r0, r4
 456 02ca FFF7FEFF 		bl	lv_obj_add_style
 457              	.LVL64:
 458 02ce DFE6     		b	.L1
 459              	.L47:
 264:Drivers/lvgl/lvgl/src/extra/themes/basic/lv_theme_basic.c ****         lv_obj_add_style(obj, &styles->dark, LV_PART_INDICATOR | LV_STATE_CHECKED);
 460              		.loc 1 264 0
 461 02d0 114D     		ldr	r5, .L55+12
 462 02d2 2968     		ldr	r1, [r5]
 463 02d4 4FF40032 		mov	r2, #131072
 464 02d8 1831     		adds	r1, r1, #24
 465 02da 2046     		mov	r0, r4
 466 02dc FFF7FEFF 		bl	lv_obj_add_style
 467              	.LVL65:
 265:Drivers/lvgl/lvgl/src/extra/themes/basic/lv_theme_basic.c ****     }
 468              		.loc 1 265 0
 469 02e0 2968     		ldr	r1, [r5]
 470 02e2 1B4A     		ldr	r2, .L55+68
 471 02e4 2031     		adds	r1, r1, #32
 472 02e6 2046     		mov	r0, r4
 473 02e8 FFF7FEFF 		bl	lv_obj_add_style
 474              	.LVL66:
 475 02ec D0E6     		b	.L1
 476              	.L48:
 271:Drivers/lvgl/lvgl/src/extra/themes/basic/lv_theme_basic.c ****         lv_obj_add_style(obj, &styles->dim, LV_PART_KNOB);
 477              		.loc 1 271 0
 478 02ee 0A4D     		ldr	r5, .L55+12
 479 02f0 2968     		ldr	r1, [r5]
 480 02f2 0022     		movs	r2, #0
 481 02f4 1831     		adds	r1, r1, #24
 482 02f6 2046     		mov	r0, r4
 483 02f8 FFF7FEFF 		bl	lv_obj_add_style
 484              	.LVL67:
 272:Drivers/lvgl/lvgl/src/extra/themes/basic/lv_theme_basic.c ****     }
 485              		.loc 1 272 0
 486 02fc 2968     		ldr	r1, [r5]
 487 02fe 4FF44032 		mov	r2, #196608
 488 0302 2831     		adds	r1, r1, #40
 489 0304 2046     		mov	r0, r4
 490 0306 FFF7FEFF 		bl	lv_obj_add_style
 491              	.LVL68:
 492 030a C1E6     		b	.L1
 493              	.L56:
 494              		.align	2
 495              	.L55:
 496 030c 00000000 		.word	lv_obj_class
 497 0310 00000000 		.word	lv_tabview_class
 498 0314 00000000 		.word	lv_win_class
 499 0318 00000000 		.word	.LANCHOR0
 500 031c 00000000 		.word	lv_btn_class
 501 0320 00000000 		.word	lv_btnmatrix_class
 502 0324 00000000 		.word	lv_msgbox_class
 503 0328 00000000 		.word	lv_bar_class
 504 032c 00000000 		.word	lv_slider_class
 505 0330 00000000 		.word	lv_table_class
 506 0334 00000000 		.word	lv_checkbox_class
ARM GAS  /tmp/ccHfA6hY.s 			page 18


 507 0338 00000000 		.word	lv_switch_class
 508 033c 00000000 		.word	lv_chart_class
 509 0340 00000000 		.word	lv_roller_class
 510 0344 00000000 		.word	lv_dropdown_class
 511 0348 00000000 		.word	lv_dropdownlist_class
 512 034c 00000000 		.word	lv_arc_class
 513 0350 01000200 		.word	131073
 514              	.L49:
 278:Drivers/lvgl/lvgl/src/extra/themes/basic/lv_theme_basic.c ****         lv_obj_add_style(obj, &styles->scrollbar, LV_PART_SCROLLBAR);
 515              		.loc 1 278 0
 516 0354 B84D     		ldr	r5, .L57
 517 0356 2968     		ldr	r1, [r5]
 518 0358 0022     		movs	r2, #0
 519 035a 1031     		adds	r1, r1, #16
 520 035c 2046     		mov	r0, r4
 521 035e FFF7FEFF 		bl	lv_obj_add_style
 522              	.LVL69:
 279:Drivers/lvgl/lvgl/src/extra/themes/basic/lv_theme_basic.c ****         lv_obj_add_style(obj, &styles->light, LV_PART_ITEMS);
 523              		.loc 1 279 0
 524 0362 2968     		ldr	r1, [r5]
 525 0364 4FF48032 		mov	r2, #65536
 526 0368 3031     		adds	r1, r1, #48
 527 036a 2046     		mov	r0, r4
 528 036c FFF7FEFF 		bl	lv_obj_add_style
 529              	.LVL70:
 280:Drivers/lvgl/lvgl/src/extra/themes/basic/lv_theme_basic.c ****         lv_obj_add_style(obj, &styles->dark, LV_PART_TICKS);
 530              		.loc 1 280 0
 531 0370 2968     		ldr	r1, [r5]
 532 0372 4FF4A022 		mov	r2, #327680
 533 0376 1831     		adds	r1, r1, #24
 534 0378 2046     		mov	r0, r4
 535 037a FFF7FEFF 		bl	lv_obj_add_style
 536              	.LVL71:
 281:Drivers/lvgl/lvgl/src/extra/themes/basic/lv_theme_basic.c ****         lv_obj_add_style(obj, &styles->dark, LV_PART_CURSOR);
 537              		.loc 1 281 0
 538 037e 2968     		ldr	r1, [r5]
 539 0380 4FF4C022 		mov	r2, #393216
 540 0384 2031     		adds	r1, r1, #32
 541 0386 2046     		mov	r0, r4
 542 0388 FFF7FEFF 		bl	lv_obj_add_style
 543              	.LVL72:
 282:Drivers/lvgl/lvgl/src/extra/themes/basic/lv_theme_basic.c ****     }
 544              		.loc 1 282 0
 545 038c 2968     		ldr	r1, [r5]
 546 038e 4FF4E022 		mov	r2, #458752
 547 0392 2031     		adds	r1, r1, #32
 548 0394 2046     		mov	r0, r4
 549 0396 FFF7FEFF 		bl	lv_obj_add_style
 550              	.LVL73:
 551 039a 79E6     		b	.L1
 552              	.L50:
 288:Drivers/lvgl/lvgl/src/extra/themes/basic/lv_theme_basic.c ****         lv_obj_add_style(obj, &styles->dark, LV_PART_SELECTED);
 553              		.loc 1 288 0
 554 039c A64D     		ldr	r5, .L57
 555 039e 2968     		ldr	r1, [r5]
 556 03a0 0022     		movs	r2, #0
 557 03a2 1831     		adds	r1, r1, #24
ARM GAS  /tmp/ccHfA6hY.s 			page 19


 558 03a4 2046     		mov	r0, r4
 559 03a6 FFF7FEFF 		bl	lv_obj_add_style
 560              	.LVL74:
 289:Drivers/lvgl/lvgl/src/extra/themes/basic/lv_theme_basic.c ****     }
 561              		.loc 1 289 0
 562 03aa 2968     		ldr	r1, [r5]
 563 03ac 4FF48022 		mov	r2, #262144
 564 03b0 2031     		adds	r1, r1, #32
 565 03b2 2046     		mov	r0, r4
 566 03b4 FFF7FEFF 		bl	lv_obj_add_style
 567              	.LVL75:
 568 03b8 6AE6     		b	.L1
 569              	.L51:
 295:Drivers/lvgl/lvgl/src/extra/themes/basic/lv_theme_basic.c ****     }
 570              		.loc 1 295 0
 571 03ba 9F4B     		ldr	r3, .L57
 572 03bc 1968     		ldr	r1, [r3]
 573 03be 0022     		movs	r2, #0
 574 03c0 1031     		adds	r1, r1, #16
 575 03c2 2046     		mov	r0, r4
 576 03c4 FFF7FEFF 		bl	lv_obj_add_style
 577              	.LVL76:
 578 03c8 62E6     		b	.L1
 579              	.L52:
 298:Drivers/lvgl/lvgl/src/extra/themes/basic/lv_theme_basic.c ****         lv_obj_add_style(obj, &styles->scrollbar, LV_PART_SCROLLBAR);
 580              		.loc 1 298 0
 581 03ca 9B4D     		ldr	r5, .L57
 582 03cc 2968     		ldr	r1, [r5]
 583 03ce 0022     		movs	r2, #0
 584 03d0 1031     		adds	r1, r1, #16
 585 03d2 2046     		mov	r0, r4
 586 03d4 FFF7FEFF 		bl	lv_obj_add_style
 587              	.LVL77:
 299:Drivers/lvgl/lvgl/src/extra/themes/basic/lv_theme_basic.c ****         lv_obj_add_style(obj, &styles->light, LV_PART_SELECTED);
 588              		.loc 1 299 0
 589 03d8 2968     		ldr	r1, [r5]
 590 03da 4FF48032 		mov	r2, #65536
 591 03de 3031     		adds	r1, r1, #48
 592 03e0 2046     		mov	r0, r4
 593 03e2 FFF7FEFF 		bl	lv_obj_add_style
 594              	.LVL78:
 300:Drivers/lvgl/lvgl/src/extra/themes/basic/lv_theme_basic.c ****         lv_obj_add_style(obj, &styles->dark, LV_PART_SELECTED | LV_STATE_CHECKED);
 595              		.loc 1 300 0
 596 03e6 2968     		ldr	r1, [r5]
 597 03e8 4FF48022 		mov	r2, #262144
 598 03ec 1831     		adds	r1, r1, #24
 599 03ee 2046     		mov	r0, r4
 600 03f0 FFF7FEFF 		bl	lv_obj_add_style
 601              	.LVL79:
 301:Drivers/lvgl/lvgl/src/extra/themes/basic/lv_theme_basic.c ****     }
 602              		.loc 1 301 0
 603 03f4 2968     		ldr	r1, [r5]
 604 03f6 914A     		ldr	r2, .L57+4
 605 03f8 2031     		adds	r1, r1, #32
 606 03fa 2046     		mov	r0, r4
 607 03fc FFF7FEFF 		bl	lv_obj_add_style
 608              	.LVL80:
ARM GAS  /tmp/ccHfA6hY.s 			page 20


 609 0400 46E6     		b	.L1
 610              	.L22:
 318:Drivers/lvgl/lvgl/src/extra/themes/basic/lv_theme_basic.c ****         lv_obj_add_style(obj, &styles->light, 0);
 611              		.loc 1 318 0
 612 0402 8F49     		ldr	r1, .L57+8
 613 0404 2046     		mov	r0, r4
 614 0406 FFF7FEFF 		bl	lv_obj_check_type
 615              	.LVL81:
 616 040a 08B3     		cbz	r0, .L23
 319:Drivers/lvgl/lvgl/src/extra/themes/basic/lv_theme_basic.c ****         lv_obj_add_style(obj, &styles->transp, 0);
 617              		.loc 1 319 0
 618 040c 8A4D     		ldr	r5, .L57
 619 040e 2968     		ldr	r1, [r5]
 620 0410 0022     		movs	r2, #0
 621 0412 1831     		adds	r1, r1, #24
 622 0414 2046     		mov	r0, r4
 623 0416 FFF7FEFF 		bl	lv_obj_add_style
 624              	.LVL82:
 320:Drivers/lvgl/lvgl/src/extra/themes/basic/lv_theme_basic.c ****         lv_obj_add_style(obj, &styles->arc_line, 0);
 625              		.loc 1 320 0
 626 041a 2968     		ldr	r1, [r5]
 627 041c 0022     		movs	r2, #0
 628 041e 0831     		adds	r1, r1, #8
 629 0420 2046     		mov	r0, r4
 630 0422 FFF7FEFF 		bl	lv_obj_add_style
 631              	.LVL83:
 321:Drivers/lvgl/lvgl/src/extra/themes/basic/lv_theme_basic.c ****         lv_obj_add_style(obj, &styles->dark, LV_PART_INDICATOR);
 632              		.loc 1 321 0
 633 0426 2968     		ldr	r1, [r5]
 634 0428 0022     		movs	r2, #0
 635 042a 3831     		adds	r1, r1, #56
 636 042c 2046     		mov	r0, r4
 637 042e FFF7FEFF 		bl	lv_obj_add_style
 638              	.LVL84:
 322:Drivers/lvgl/lvgl/src/extra/themes/basic/lv_theme_basic.c ****         lv_obj_add_style(obj, &styles->arc_line, LV_PART_INDICATOR);
 639              		.loc 1 322 0
 640 0432 2968     		ldr	r1, [r5]
 641 0434 4FF40032 		mov	r2, #131072
 642 0438 2031     		adds	r1, r1, #32
 643 043a 2046     		mov	r0, r4
 644 043c FFF7FEFF 		bl	lv_obj_add_style
 645              	.LVL85:
 323:Drivers/lvgl/lvgl/src/extra/themes/basic/lv_theme_basic.c ****     }
 646              		.loc 1 323 0
 647 0440 2968     		ldr	r1, [r5]
 648 0442 4FF40032 		mov	r2, #131072
 649 0446 3831     		adds	r1, r1, #56
 650 0448 2046     		mov	r0, r4
 651 044a FFF7FEFF 		bl	lv_obj_add_style
 652              	.LVL86:
 653 044e 1FE6     		b	.L1
 654              	.L23:
 328:Drivers/lvgl/lvgl/src/extra/themes/basic/lv_theme_basic.c ****         lv_obj_add_style(obj, &styles->light, 0);
 655              		.loc 1 328 0
 656 0450 7C49     		ldr	r1, .L57+12
 657 0452 2046     		mov	r0, r4
 658 0454 FFF7FEFF 		bl	lv_obj_check_type
ARM GAS  /tmp/ccHfA6hY.s 			page 21


 659              	.LVL87:
 660 0458 00BB     		cbnz	r0, .L53
 338:Drivers/lvgl/lvgl/src/extra/themes/basic/lv_theme_basic.c ****         lv_obj_add_style(obj, &styles->light, 0);
 661              		.loc 1 338 0
 662 045a 7B49     		ldr	r1, .L57+16
 663 045c 2046     		mov	r0, r4
 664 045e FFF7FEFF 		bl	lv_obj_check_type
 665              	.LVL88:
 666 0462 0028     		cmp	r0, #0
 667 0464 3CD1     		bne	.L54
 344:Drivers/lvgl/lvgl/src/extra/themes/basic/lv_theme_basic.c ****         lv_obj_add_style(obj, &styles->white, 0);
 668              		.loc 1 344 0
 669 0466 7949     		ldr	r1, .L57+20
 670 0468 2046     		mov	r0, r4
 671 046a FFF7FEFF 		bl	lv_obj_check_type
 672              	.LVL89:
 673 046e 0028     		cmp	r0, #0
 674 0470 3ED0     		beq	.L26
 345:Drivers/lvgl/lvgl/src/extra/themes/basic/lv_theme_basic.c ****         lv_obj_add_style(obj, &styles->scrollbar, LV_PART_SCROLLBAR);
 675              		.loc 1 345 0
 676 0472 714D     		ldr	r5, .L57
 677 0474 2968     		ldr	r1, [r5]
 678 0476 0022     		movs	r2, #0
 679 0478 1031     		adds	r1, r1, #16
 680 047a 2046     		mov	r0, r4
 681 047c FFF7FEFF 		bl	lv_obj_add_style
 682              	.LVL90:
 346:Drivers/lvgl/lvgl/src/extra/themes/basic/lv_theme_basic.c ****         lv_obj_add_style(obj, &styles->ta_cursor, LV_PART_CURSOR | LV_STATE_FOCUSED);
 683              		.loc 1 346 0
 684 0480 2968     		ldr	r1, [r5]
 685 0482 4FF48032 		mov	r2, #65536
 686 0486 3031     		adds	r1, r1, #48
 687 0488 2046     		mov	r0, r4
 688 048a FFF7FEFF 		bl	lv_obj_add_style
 689              	.LVL91:
 347:Drivers/lvgl/lvgl/src/extra/themes/basic/lv_theme_basic.c ****     }
 690              		.loc 1 347 0
 691 048e 2968     		ldr	r1, [r5]
 692 0490 6F4A     		ldr	r2, .L57+24
 693 0492 4831     		adds	r1, r1, #72
 694 0494 2046     		mov	r0, r4
 695 0496 FFF7FEFF 		bl	lv_obj_add_style
 696              	.LVL92:
 697 049a F9E5     		b	.L1
 698              	.L53:
 329:Drivers/lvgl/lvgl/src/extra/themes/basic/lv_theme_basic.c ****         lv_obj_add_style(obj, &styles->transp, 0);
 699              		.loc 1 329 0
 700 049c 664D     		ldr	r5, .L57
 701 049e 2968     		ldr	r1, [r5]
 702 04a0 0022     		movs	r2, #0
 703 04a2 1831     		adds	r1, r1, #24
 704 04a4 2046     		mov	r0, r4
 705 04a6 FFF7FEFF 		bl	lv_obj_add_style
 706              	.LVL93:
 330:Drivers/lvgl/lvgl/src/extra/themes/basic/lv_theme_basic.c ****         lv_obj_add_style(obj, &styles->arc_line, 0);
 707              		.loc 1 330 0
 708 04aa 2968     		ldr	r1, [r5]
ARM GAS  /tmp/ccHfA6hY.s 			page 22


 709 04ac 0022     		movs	r2, #0
 710 04ae 0831     		adds	r1, r1, #8
 711 04b0 2046     		mov	r0, r4
 712 04b2 FFF7FEFF 		bl	lv_obj_add_style
 713              	.LVL94:
 331:Drivers/lvgl/lvgl/src/extra/themes/basic/lv_theme_basic.c ****         lv_obj_add_style(obj, &styles->dim, LV_PART_KNOB);
 714              		.loc 1 331 0
 715 04b6 2968     		ldr	r1, [r5]
 716 04b8 0022     		movs	r2, #0
 717 04ba 3831     		adds	r1, r1, #56
 718 04bc 2046     		mov	r0, r4
 719 04be FFF7FEFF 		bl	lv_obj_add_style
 720              	.LVL95:
 332:Drivers/lvgl/lvgl/src/extra/themes/basic/lv_theme_basic.c ****         lv_obj_add_style(obj, &styles->arc_knob, LV_PART_KNOB);
 721              		.loc 1 332 0
 722 04c2 2968     		ldr	r1, [r5]
 723 04c4 4FF44032 		mov	r2, #196608
 724 04c8 2831     		adds	r1, r1, #40
 725 04ca 2046     		mov	r0, r4
 726 04cc FFF7FEFF 		bl	lv_obj_add_style
 727              	.LVL96:
 333:Drivers/lvgl/lvgl/src/extra/themes/basic/lv_theme_basic.c ****     }
 728              		.loc 1 333 0
 729 04d0 2968     		ldr	r1, [r5]
 730 04d2 4FF44032 		mov	r2, #196608
 731 04d6 4031     		adds	r1, r1, #64
 732 04d8 2046     		mov	r0, r4
 733 04da FFF7FEFF 		bl	lv_obj_add_style
 734              	.LVL97:
 735 04de D7E5     		b	.L1
 736              	.L54:
 339:Drivers/lvgl/lvgl/src/extra/themes/basic/lv_theme_basic.c ****     }
 737              		.loc 1 339 0
 738 04e0 554B     		ldr	r3, .L57
 739 04e2 1968     		ldr	r1, [r3]
 740 04e4 0022     		movs	r2, #0
 741 04e6 1831     		adds	r1, r1, #24
 742 04e8 2046     		mov	r0, r4
 743 04ea FFF7FEFF 		bl	lv_obj_add_style
 744              	.LVL98:
 745 04ee CFE5     		b	.L1
 746              	.L26:
 352:Drivers/lvgl/lvgl/src/extra/themes/basic/lv_theme_basic.c ****         lv_obj_add_style(obj, &styles->light, 0);
 747              		.loc 1 352 0
 748 04f0 5849     		ldr	r1, .L57+28
 749 04f2 2046     		mov	r0, r4
 750 04f4 FFF7FEFF 		bl	lv_obj_check_type
 751              	.LVL99:
 752 04f8 38B1     		cbz	r0, .L27
 353:Drivers/lvgl/lvgl/src/extra/themes/basic/lv_theme_basic.c ****     }
 753              		.loc 1 353 0
 754 04fa 4F4B     		ldr	r3, .L57
 755 04fc 1968     		ldr	r1, [r3]
 756 04fe 0022     		movs	r2, #0
 757 0500 1831     		adds	r1, r1, #24
 758 0502 2046     		mov	r0, r4
 759 0504 FFF7FEFF 		bl	lv_obj_add_style
ARM GAS  /tmp/ccHfA6hY.s 			page 23


 760              	.LVL100:
 761 0508 C2E5     		b	.L1
 762              	.L27:
 358:Drivers/lvgl/lvgl/src/extra/themes/basic/lv_theme_basic.c ****         lv_obj_add_style(obj, &styles->scr, 0);
 763              		.loc 1 358 0
 764 050a 5349     		ldr	r1, .L57+32
 765 050c 2046     		mov	r0, r4
 766 050e FFF7FEFF 		bl	lv_obj_check_type
 767              	.LVL101:
 768 0512 98B1     		cbz	r0, .L28
 359:Drivers/lvgl/lvgl/src/extra/themes/basic/lv_theme_basic.c ****         lv_obj_add_style(obj, &styles->white, LV_PART_ITEMS);
 769              		.loc 1 359 0
 770 0514 484D     		ldr	r5, .L57
 771 0516 0022     		movs	r2, #0
 772 0518 2968     		ldr	r1, [r5]
 773 051a 2046     		mov	r0, r4
 774 051c FFF7FEFF 		bl	lv_obj_add_style
 775              	.LVL102:
 360:Drivers/lvgl/lvgl/src/extra/themes/basic/lv_theme_basic.c ****         lv_obj_add_style(obj, &styles->light, LV_PART_ITEMS | LV_STATE_CHECKED);
 776              		.loc 1 360 0
 777 0520 2968     		ldr	r1, [r5]
 778 0522 4FF4A022 		mov	r2, #327680
 779 0526 1031     		adds	r1, r1, #16
 780 0528 2046     		mov	r0, r4
 781 052a FFF7FEFF 		bl	lv_obj_add_style
 782              	.LVL103:
 361:Drivers/lvgl/lvgl/src/extra/themes/basic/lv_theme_basic.c ****     }
 783              		.loc 1 361 0
 784 052e 2968     		ldr	r1, [r5]
 785 0530 4A4A     		ldr	r2, .L57+36
 786 0532 1831     		adds	r1, r1, #24
 787 0534 2046     		mov	r0, r4
 788 0536 FFF7FEFF 		bl	lv_obj_add_style
 789              	.LVL104:
 790 053a A9E5     		b	.L1
 791              	.L28:
 365:Drivers/lvgl/lvgl/src/extra/themes/basic/lv_theme_basic.c ****         lv_obj_add_style(obj, &styles->light, 0);
 792              		.loc 1 365 0
 793 053c 4849     		ldr	r1, .L57+40
 794 053e 2046     		mov	r0, r4
 795 0540 FFF7FEFF 		bl	lv_obj_check_type
 796              	.LVL105:
 797 0544 70B1     		cbz	r0, .L29
 366:Drivers/lvgl/lvgl/src/extra/themes/basic/lv_theme_basic.c ****         lv_obj_add_style(obj, &styles->scrollbar, LV_PART_SCROLLBAR);
 798              		.loc 1 366 0
 799 0546 3C4D     		ldr	r5, .L57
 800 0548 2968     		ldr	r1, [r5]
 801 054a 0022     		movs	r2, #0
 802 054c 1831     		adds	r1, r1, #24
 803 054e 2046     		mov	r0, r4
 804 0550 FFF7FEFF 		bl	lv_obj_add_style
 805              	.LVL106:
 367:Drivers/lvgl/lvgl/src/extra/themes/basic/lv_theme_basic.c ****         return;
 806              		.loc 1 367 0
 807 0554 2968     		ldr	r1, [r5]
 808 0556 4FF48032 		mov	r2, #65536
 809 055a 3031     		adds	r1, r1, #48
ARM GAS  /tmp/ccHfA6hY.s 			page 24


 810 055c 2046     		mov	r0, r4
 811 055e FFF7FEFF 		bl	lv_obj_add_style
 812              	.LVL107:
 368:Drivers/lvgl/lvgl/src/extra/themes/basic/lv_theme_basic.c ****     }
 813              		.loc 1 368 0
 814 0562 95E5     		b	.L1
 815              	.L29:
 370:Drivers/lvgl/lvgl/src/extra/themes/basic/lv_theme_basic.c **** 
 816              		.loc 1 370 0
 817 0564 3F49     		ldr	r1, .L57+44
 818 0566 2046     		mov	r0, r4
 819 0568 FFF7FEFF 		bl	lv_obj_check_type
 820              	.LVL108:
 821 056c 0028     		cmp	r0, #0
 822 056e 7FF48FAD 		bne	.L1
 373:Drivers/lvgl/lvgl/src/extra/themes/basic/lv_theme_basic.c ****         lv_obj_add_style(obj, &styles->dark, 0);
 823              		.loc 1 373 0
 824 0572 3D49     		ldr	r1, .L57+48
 825 0574 2046     		mov	r0, r4
 826 0576 FFF7FEFF 		bl	lv_obj_check_type
 827              	.LVL109:
 828 057a 38B1     		cbz	r0, .L30
 374:Drivers/lvgl/lvgl/src/extra/themes/basic/lv_theme_basic.c **** 
 829              		.loc 1 374 0
 830 057c 2E4B     		ldr	r3, .L57
 831 057e 1968     		ldr	r1, [r3]
 832 0580 0022     		movs	r2, #0
 833 0582 2031     		adds	r1, r1, #32
 834 0584 2046     		mov	r0, r4
 835 0586 FFF7FEFF 		bl	lv_obj_add_style
 836              	.LVL110:
 837 058a 81E5     		b	.L1
 838              	.L30:
 379:Drivers/lvgl/lvgl/src/extra/themes/basic/lv_theme_basic.c ****         lv_obj_add_style(obj, &styles->light, 0);
 839              		.loc 1 379 0
 840 058c 3749     		ldr	r1, .L57+52
 841 058e 2046     		mov	r0, r4
 842 0590 FFF7FEFF 		bl	lv_obj_check_type
 843              	.LVL111:
 844 0594 38B1     		cbz	r0, .L31
 380:Drivers/lvgl/lvgl/src/extra/themes/basic/lv_theme_basic.c ****         return;
 845              		.loc 1 380 0
 846 0596 284B     		ldr	r3, .L57
 847 0598 1968     		ldr	r1, [r3]
 848 059a 0022     		movs	r2, #0
 849 059c 1831     		adds	r1, r1, #24
 850 059e 2046     		mov	r0, r4
 851 05a0 FFF7FEFF 		bl	lv_obj_add_style
 852              	.LVL112:
 381:Drivers/lvgl/lvgl/src/extra/themes/basic/lv_theme_basic.c ****     }
 853              		.loc 1 381 0
 854 05a4 74E5     		b	.L1
 855              	.L31:
 385:Drivers/lvgl/lvgl/src/extra/themes/basic/lv_theme_basic.c ****         lv_obj_add_style(obj, &styles->light, 0);
 856              		.loc 1 385 0
 857 05a6 3249     		ldr	r1, .L57+56
 858 05a8 2046     		mov	r0, r4
ARM GAS  /tmp/ccHfA6hY.s 			page 25


 859 05aa FFF7FEFF 		bl	lv_obj_check_type
 860              	.LVL113:
 861 05ae 70B1     		cbz	r0, .L32
 386:Drivers/lvgl/lvgl/src/extra/themes/basic/lv_theme_basic.c ****         lv_obj_add_style(obj, &styles->dark, LV_PART_CURSOR);
 862              		.loc 1 386 0
 863 05b0 214D     		ldr	r5, .L57
 864 05b2 2968     		ldr	r1, [r5]
 865 05b4 0022     		movs	r2, #0
 866 05b6 1831     		adds	r1, r1, #24
 867 05b8 2046     		mov	r0, r4
 868 05ba FFF7FEFF 		bl	lv_obj_add_style
 869              	.LVL114:
 387:Drivers/lvgl/lvgl/src/extra/themes/basic/lv_theme_basic.c ****     }
 870              		.loc 1 387 0
 871 05be 2968     		ldr	r1, [r5]
 872 05c0 4FF4E022 		mov	r2, #458752
 873 05c4 2031     		adds	r1, r1, #32
 874 05c6 2046     		mov	r0, r4
 875 05c8 FFF7FEFF 		bl	lv_obj_add_style
 876              	.LVL115:
 877 05cc 60E5     		b	.L1
 878              	.L32:
 391:Drivers/lvgl/lvgl/src/extra/themes/basic/lv_theme_basic.c ****         lv_obj_add_style(obj, &styles->scr, 0);
 879              		.loc 1 391 0
 880 05ce 2949     		ldr	r1, .L57+60
 881 05d0 2046     		mov	r0, r4
 882 05d2 FFF7FEFF 		bl	lv_obj_check_type
 883              	.LVL116:
 884 05d6 68B1     		cbz	r0, .L33
 392:Drivers/lvgl/lvgl/src/extra/themes/basic/lv_theme_basic.c ****         lv_obj_add_style(obj, &styles->scrollbar, LV_PART_SCROLLBAR);
 885              		.loc 1 392 0
 886 05d8 174D     		ldr	r5, .L57
 887 05da 0022     		movs	r2, #0
 888 05dc 2968     		ldr	r1, [r5]
 889 05de 2046     		mov	r0, r4
 890 05e0 FFF7FEFF 		bl	lv_obj_add_style
 891              	.LVL117:
 393:Drivers/lvgl/lvgl/src/extra/themes/basic/lv_theme_basic.c ****     }
 892              		.loc 1 393 0
 893 05e4 2968     		ldr	r1, [r5]
 894 05e6 4FF48032 		mov	r2, #65536
 895 05ea 3031     		adds	r1, r1, #48
 896 05ec 2046     		mov	r0, r4
 897 05ee FFF7FEFF 		bl	lv_obj_add_style
 898              	.LVL118:
 899 05f2 4DE5     		b	.L1
 900              	.L33:
 395:Drivers/lvgl/lvgl/src/extra/themes/basic/lv_theme_basic.c ****         lv_obj_add_style(obj, &styles->scrollbar, LV_PART_SCROLLBAR);
 901              		.loc 1 395 0
 902 05f4 2049     		ldr	r1, .L57+64
 903 05f6 2046     		mov	r0, r4
 904 05f8 FFF7FEFF 		bl	lv_obj_check_type
 905              	.LVL119:
 906 05fc 40B1     		cbz	r0, .L34
 396:Drivers/lvgl/lvgl/src/extra/themes/basic/lv_theme_basic.c ****     }
 907              		.loc 1 396 0
 908 05fe 0E4B     		ldr	r3, .L57
ARM GAS  /tmp/ccHfA6hY.s 			page 26


 909 0600 1968     		ldr	r1, [r3]
 910 0602 4FF48032 		mov	r2, #65536
 911 0606 3031     		adds	r1, r1, #48
 912 0608 2046     		mov	r0, r4
 913 060a FFF7FEFF 		bl	lv_obj_add_style
 914              	.LVL120:
 915 060e 3FE5     		b	.L1
 916              	.L34:
 401:Drivers/lvgl/lvgl/src/extra/themes/basic/lv_theme_basic.c ****         lv_obj_add_style(obj, &styles->light, 0);
 917              		.loc 1 401 0
 918 0610 0C49     		ldr	r1, .L57+12
 919 0612 2046     		mov	r0, r4
 920 0614 FFF7FEFF 		bl	lv_obj_check_type
 921              	.LVL121:
 922 0618 80B3     		cbz	r0, .L35
 402:Drivers/lvgl/lvgl/src/extra/themes/basic/lv_theme_basic.c ****         lv_obj_add_style(obj, &styles->light, LV_PART_KNOB);
 923              		.loc 1 402 0
 924 061a 074D     		ldr	r5, .L57
 925 061c 2968     		ldr	r1, [r5]
 926 061e 0022     		movs	r2, #0
 927 0620 1831     		adds	r1, r1, #24
 928 0622 2046     		mov	r0, r4
 929 0624 FFF7FEFF 		bl	lv_obj_add_style
 930              	.LVL122:
 403:Drivers/lvgl/lvgl/src/extra/themes/basic/lv_theme_basic.c ****     }
 931              		.loc 1 403 0
 932 0628 2968     		ldr	r1, [r5]
 933 062a 4FF44032 		mov	r2, #196608
 934 062e 1831     		adds	r1, r1, #24
 935 0630 2046     		mov	r0, r4
 936 0632 FFF7FEFF 		bl	lv_obj_add_style
 937              	.LVL123:
 938 0636 2BE5     		b	.L1
 939              	.L58:
 940              		.align	2
 941              	.L57:
 942 0638 00000000 		.word	.LANCHOR0
 943 063c 01000400 		.word	262145
 944 0640 00000000 		.word	lv_spinner_class
 945 0644 00000000 		.word	lv_colorwheel_class
 946 0648 00000000 		.word	lv_meter_class
 947 064c 00000000 		.word	lv_textarea_class
 948 0650 02000700 		.word	458754
 949 0654 00000000 		.word	lv_calendar_class
 950 0658 00000000 		.word	lv_keyboard_class
 951 065c 01000500 		.word	327681
 952 0660 00000000 		.word	lv_list_class
 953 0664 00000000 		.word	lv_list_text_class
 954 0668 00000000 		.word	lv_list_btn_class
 955 066c 00000000 		.word	lv_msgbox_class
 956 0670 00000000 		.word	lv_spinbox_class
 957 0674 00000000 		.word	lv_tileview_class
 958 0678 00000000 		.word	lv_tileview_tile_class
 959              	.L35:
 408:Drivers/lvgl/lvgl/src/extra/themes/basic/lv_theme_basic.c ****         lv_obj_add_style(obj, &styles->light, 0);
 960              		.loc 1 408 0
 961 067c 0749     		ldr	r1, .L59
ARM GAS  /tmp/ccHfA6hY.s 			page 27


 962 067e 2046     		mov	r0, r4
 963 0680 FFF7FEFF 		bl	lv_obj_check_type
 964              	.LVL124:
 965 0684 0028     		cmp	r0, #0
 966 0686 3FF403AD 		beq	.L1
 409:Drivers/lvgl/lvgl/src/extra/themes/basic/lv_theme_basic.c ****     }
 967              		.loc 1 409 0
 968 068a 054B     		ldr	r3, .L59+4
 969 068c 1968     		ldr	r1, [r3]
 970 068e 0022     		movs	r2, #0
 971 0690 1831     		adds	r1, r1, #24
 972 0692 2046     		mov	r0, r4
 973 0694 FFF7FEFF 		bl	lv_obj_add_style
 974              	.LVL125:
 975 0698 FAE4     		b	.L1
 976              	.L60:
 977 069a 00BF     		.align	2
 978              	.L59:
 979 069c 00000000 		.word	lv_led_class
 980 06a0 00000000 		.word	.LANCHOR0
 981              		.cfi_endproc
 982              	.LFE205:
 984              		.section	.text.style_init_reset,"ax",%progbits
 985              		.align	1
 986              		.syntax unified
 987              		.thumb
 988              		.thumb_func
 989              		.fpu fpv5-d16
 991              	style_init_reset:
 992              	.LFB206:
 413:Drivers/lvgl/lvgl/src/extra/themes/basic/lv_theme_basic.c **** 
 414:Drivers/lvgl/lvgl/src/extra/themes/basic/lv_theme_basic.c **** /**********************
 415:Drivers/lvgl/lvgl/src/extra/themes/basic/lv_theme_basic.c ****  *   STATIC FUNCTIONS
 416:Drivers/lvgl/lvgl/src/extra/themes/basic/lv_theme_basic.c ****  **********************/
 417:Drivers/lvgl/lvgl/src/extra/themes/basic/lv_theme_basic.c **** 
 418:Drivers/lvgl/lvgl/src/extra/themes/basic/lv_theme_basic.c **** static void style_init_reset(lv_style_t * style)
 419:Drivers/lvgl/lvgl/src/extra/themes/basic/lv_theme_basic.c **** {
 993              		.loc 1 419 0
 994              		.cfi_startproc
 995              		@ args = 0, pretend = 0, frame = 0
 996              		@ frame_needed = 0, uses_anonymous_args = 0
 997              	.LVL126:
 998 0000 08B5     		push	{r3, lr}
 999              	.LCFI1:
 1000              		.cfi_def_cfa_offset 8
 1001              		.cfi_offset 3, -8
 1002              		.cfi_offset 14, -4
 420:Drivers/lvgl/lvgl/src/extra/themes/basic/lv_theme_basic.c ****     if(inited) {
 1003              		.loc 1 420 0
 1004 0002 044B     		ldr	r3, .L66
 1005 0004 1B78     		ldrb	r3, [r3]	@ zero_extendqisi2
 1006 0006 13B9     		cbnz	r3, .L65
 421:Drivers/lvgl/lvgl/src/extra/themes/basic/lv_theme_basic.c ****         lv_style_reset(style);
 422:Drivers/lvgl/lvgl/src/extra/themes/basic/lv_theme_basic.c ****     }
 423:Drivers/lvgl/lvgl/src/extra/themes/basic/lv_theme_basic.c ****     else {
 424:Drivers/lvgl/lvgl/src/extra/themes/basic/lv_theme_basic.c ****         lv_style_init(style);
 1007              		.loc 1 424 0
ARM GAS  /tmp/ccHfA6hY.s 			page 28


 1008 0008 FFF7FEFF 		bl	lv_style_init
 1009              	.LVL127:
 1010              	.L61:
 425:Drivers/lvgl/lvgl/src/extra/themes/basic/lv_theme_basic.c ****     }
 426:Drivers/lvgl/lvgl/src/extra/themes/basic/lv_theme_basic.c **** }
 1011              		.loc 1 426 0
 1012 000c 08BD     		pop	{r3, pc}
 1013              	.LVL128:
 1014              	.L65:
 421:Drivers/lvgl/lvgl/src/extra/themes/basic/lv_theme_basic.c ****         lv_style_reset(style);
 1015              		.loc 1 421 0
 1016 000e FFF7FEFF 		bl	lv_style_reset
 1017              	.LVL129:
 1018 0012 FBE7     		b	.L61
 1019              	.L67:
 1020              		.align	2
 1021              	.L66:
 1022 0014 00000000 		.word	.LANCHOR1
 1023              		.cfi_endproc
 1024              	.LFE206:
 1026              		.section	.text.style_init,"ax",%progbits
 1027              		.align	1
 1028              		.syntax unified
 1029              		.thumb
 1030              		.thumb_func
 1031              		.fpu fpv5-d16
 1033              	style_init:
 1034              	.LFB202:
  69:Drivers/lvgl/lvgl/src/extra/themes/basic/lv_theme_basic.c ****     style_init_reset(&styles->scrollbar);
 1035              		.loc 1 69 0
 1036              		.cfi_startproc
 1037              		@ args = 0, pretend = 0, frame = 0
 1038              		@ frame_needed = 0, uses_anonymous_args = 0
 1039 0000 38B5     		push	{r3, r4, r5, lr}
 1040              	.LCFI2:
 1041              		.cfi_def_cfa_offset 16
 1042              		.cfi_offset 3, -16
 1043              		.cfi_offset 4, -12
 1044              		.cfi_offset 5, -8
 1045              		.cfi_offset 14, -4
  70:Drivers/lvgl/lvgl/src/extra/themes/basic/lv_theme_basic.c ****     lv_style_set_bg_opa(&styles->scrollbar, LV_OPA_COVER);
 1046              		.loc 1 70 0
 1047 0002 994C     		ldr	r4, .L70
 1048 0004 2068     		ldr	r0, [r4]
 1049 0006 3030     		adds	r0, r0, #48
 1050 0008 FFF7FEFF 		bl	style_init_reset
 1051              	.LVL130:
  71:Drivers/lvgl/lvgl/src/extra/themes/basic/lv_theme_basic.c ****     lv_style_set_bg_color(&styles->scrollbar, COLOR_DARK);
 1052              		.loc 1 71 0
 1053 000c 2068     		ldr	r0, [r4]
 1054 000e FF21     		movs	r1, #255
 1055 0010 3030     		adds	r0, r0, #48
 1056 0012 FFF7FEFF 		bl	lv_style_set_bg_opa
 1057              	.LVL131:
  72:Drivers/lvgl/lvgl/src/extra/themes/basic/lv_theme_basic.c ****     lv_style_set_width(&styles->scrollbar,  SCROLLBAR_WIDTH);
 1058              		.loc 1 72 0
 1059 0016 2568     		ldr	r5, [r4]
ARM GAS  /tmp/ccHfA6hY.s 			page 29


 1060 0018 1220     		movs	r0, #18
 1061 001a FFF7FEFF 		bl	lv_palette_main
 1062              	.LVL132:
 1063 001e 0146     		mov	r1, r0	@ movhi
 1064 0020 05F13000 		add	r0, r5, #48
 1065 0024 FFF7FEFF 		bl	lv_style_set_bg_color
 1066              	.LVL133:
  73:Drivers/lvgl/lvgl/src/extra/themes/basic/lv_theme_basic.c **** 
 1067              		.loc 1 73 0
 1068 0028 2068     		ldr	r0, [r4]
 1069 002a 0221     		movs	r1, #2
 1070 002c 3030     		adds	r0, r0, #48
 1071 002e FFF7FEFF 		bl	lv_style_set_width
 1072              	.LVL134:
  75:Drivers/lvgl/lvgl/src/extra/themes/basic/lv_theme_basic.c ****     lv_style_set_bg_opa(&styles->scr, LV_OPA_COVER);
 1073              		.loc 1 75 0
 1074 0032 2068     		ldr	r0, [r4]
 1075 0034 FFF7FEFF 		bl	style_init_reset
 1076              	.LVL135:
  76:Drivers/lvgl/lvgl/src/extra/themes/basic/lv_theme_basic.c ****     lv_style_set_bg_color(&styles->scr, COLOR_SCR);
 1077              		.loc 1 76 0
 1078 0038 FF21     		movs	r1, #255
 1079 003a 2068     		ldr	r0, [r4]
 1080 003c FFF7FEFF 		bl	lv_style_set_bg_opa
 1081              	.LVL136:
  77:Drivers/lvgl/lvgl/src/extra/themes/basic/lv_theme_basic.c ****     lv_style_set_text_color(&styles->scr, COLOR_DIM);
 1082              		.loc 1 77 0
 1083 0040 2568     		ldr	r5, [r4]
 1084 0042 0421     		movs	r1, #4
 1085 0044 1220     		movs	r0, #18
 1086 0046 FFF7FEFF 		bl	lv_palette_lighten
 1087              	.LVL137:
 1088 004a 0146     		mov	r1, r0	@ movhi
 1089 004c 2846     		mov	r0, r5
 1090 004e FFF7FEFF 		bl	lv_style_set_bg_color
 1091              	.LVL138:
  78:Drivers/lvgl/lvgl/src/extra/themes/basic/lv_theme_basic.c **** 
 1092              		.loc 1 78 0
 1093 0052 2568     		ldr	r5, [r4]
 1094 0054 0221     		movs	r1, #2
 1095 0056 1220     		movs	r0, #18
 1096 0058 FFF7FEFF 		bl	lv_palette_darken
 1097              	.LVL139:
 1098 005c 0146     		mov	r1, r0	@ movhi
 1099 005e 2846     		mov	r0, r5
 1100 0060 FFF7FEFF 		bl	lv_style_set_text_color
 1101              	.LVL140:
  81:Drivers/lvgl/lvgl/src/extra/themes/basic/lv_theme_basic.c ****     lv_style_set_bg_opa(&styles->transp, LV_OPA_TRANSP);
 1102              		.loc 1 81 0
 1103 0064 2068     		ldr	r0, [r4]
 1104 0066 0830     		adds	r0, r0, #8
 1105 0068 FFF7FEFF 		bl	style_init_reset
 1106              	.LVL141:
  82:Drivers/lvgl/lvgl/src/extra/themes/basic/lv_theme_basic.c **** 
 1107              		.loc 1 82 0
 1108 006c 2068     		ldr	r0, [r4]
 1109 006e 0021     		movs	r1, #0
ARM GAS  /tmp/ccHfA6hY.s 			page 30


 1110 0070 0830     		adds	r0, r0, #8
 1111 0072 FFF7FEFF 		bl	lv_style_set_bg_opa
 1112              	.LVL142:
  84:Drivers/lvgl/lvgl/src/extra/themes/basic/lv_theme_basic.c ****     lv_style_set_bg_opa(&styles->white, LV_OPA_COVER);
 1113              		.loc 1 84 0
 1114 0076 2068     		ldr	r0, [r4]
 1115 0078 1030     		adds	r0, r0, #16
 1116 007a FFF7FEFF 		bl	style_init_reset
 1117              	.LVL143:
  85:Drivers/lvgl/lvgl/src/extra/themes/basic/lv_theme_basic.c ****     lv_style_set_bg_color(&styles->white, COLOR_WHITE);
 1118              		.loc 1 85 0
 1119 007e 2068     		ldr	r0, [r4]
 1120 0080 FF21     		movs	r1, #255
 1121 0082 1030     		adds	r0, r0, #16
 1122 0084 FFF7FEFF 		bl	lv_style_set_bg_opa
 1123              	.LVL144:
  86:Drivers/lvgl/lvgl/src/extra/themes/basic/lv_theme_basic.c ****     lv_style_set_line_width(&styles->white, 1);
 1124              		.loc 1 86 0
 1125 0088 2068     		ldr	r0, [r4]
 1126 008a 4FF0FF31 		mov	r1, #-1	@ movhi
 1127 008e 1030     		adds	r0, r0, #16
 1128 0090 FFF7FEFF 		bl	lv_style_set_bg_color
 1129              	.LVL145:
  87:Drivers/lvgl/lvgl/src/extra/themes/basic/lv_theme_basic.c ****     lv_style_set_line_color(&styles->white, COLOR_WHITE);
 1130              		.loc 1 87 0
 1131 0094 2068     		ldr	r0, [r4]
 1132 0096 0121     		movs	r1, #1
 1133 0098 1030     		adds	r0, r0, #16
 1134 009a FFF7FEFF 		bl	lv_style_set_line_width
 1135              	.LVL146:
  88:Drivers/lvgl/lvgl/src/extra/themes/basic/lv_theme_basic.c ****     lv_style_set_arc_width(&styles->white, 2);
 1136              		.loc 1 88 0
 1137 009e 2068     		ldr	r0, [r4]
 1138 00a0 4FF0FF31 		mov	r1, #-1	@ movhi
 1139 00a4 1030     		adds	r0, r0, #16
 1140 00a6 FFF7FEFF 		bl	lv_style_set_line_color
 1141              	.LVL147:
  89:Drivers/lvgl/lvgl/src/extra/themes/basic/lv_theme_basic.c ****     lv_style_set_arc_color(&styles->white, COLOR_WHITE);
 1142              		.loc 1 89 0
 1143 00aa 2068     		ldr	r0, [r4]
 1144 00ac 0221     		movs	r1, #2
 1145 00ae 1030     		adds	r0, r0, #16
 1146 00b0 FFF7FEFF 		bl	lv_style_set_arc_width
 1147              	.LVL148:
  90:Drivers/lvgl/lvgl/src/extra/themes/basic/lv_theme_basic.c **** 
 1148              		.loc 1 90 0
 1149 00b4 2068     		ldr	r0, [r4]
 1150 00b6 4FF0FF31 		mov	r1, #-1	@ movhi
 1151 00ba 1030     		adds	r0, r0, #16
 1152 00bc FFF7FEFF 		bl	lv_style_set_arc_color
 1153              	.LVL149:
  92:Drivers/lvgl/lvgl/src/extra/themes/basic/lv_theme_basic.c ****     lv_style_set_bg_opa(&styles->light, LV_OPA_COVER);
 1154              		.loc 1 92 0
 1155 00c0 2068     		ldr	r0, [r4]
 1156 00c2 1830     		adds	r0, r0, #24
 1157 00c4 FFF7FEFF 		bl	style_init_reset
 1158              	.LVL150:
ARM GAS  /tmp/ccHfA6hY.s 			page 31


  93:Drivers/lvgl/lvgl/src/extra/themes/basic/lv_theme_basic.c ****     lv_style_set_bg_color(&styles->light, COLOR_LIGHT);
 1159              		.loc 1 93 0
 1160 00c8 2068     		ldr	r0, [r4]
 1161 00ca FF21     		movs	r1, #255
 1162 00cc 1830     		adds	r0, r0, #24
 1163 00ce FFF7FEFF 		bl	lv_style_set_bg_opa
 1164              	.LVL151:
  94:Drivers/lvgl/lvgl/src/extra/themes/basic/lv_theme_basic.c ****     lv_style_set_line_width(&styles->light, 1);
 1165              		.loc 1 94 0
 1166 00d2 2568     		ldr	r5, [r4]
 1167 00d4 0221     		movs	r1, #2
 1168 00d6 1220     		movs	r0, #18
 1169 00d8 FFF7FEFF 		bl	lv_palette_lighten
 1170              	.LVL152:
 1171 00dc 0146     		mov	r1, r0	@ movhi
 1172 00de 05F11800 		add	r0, r5, #24
 1173 00e2 FFF7FEFF 		bl	lv_style_set_bg_color
 1174              	.LVL153:
  95:Drivers/lvgl/lvgl/src/extra/themes/basic/lv_theme_basic.c ****     lv_style_set_line_color(&styles->light, COLOR_LIGHT);
 1175              		.loc 1 95 0
 1176 00e6 2068     		ldr	r0, [r4]
 1177 00e8 0121     		movs	r1, #1
 1178 00ea 1830     		adds	r0, r0, #24
 1179 00ec FFF7FEFF 		bl	lv_style_set_line_width
 1180              	.LVL154:
  96:Drivers/lvgl/lvgl/src/extra/themes/basic/lv_theme_basic.c ****     lv_style_set_arc_width(&styles->light, 2);
 1181              		.loc 1 96 0
 1182 00f0 2568     		ldr	r5, [r4]
 1183 00f2 0221     		movs	r1, #2
 1184 00f4 1220     		movs	r0, #18
 1185 00f6 FFF7FEFF 		bl	lv_palette_lighten
 1186              	.LVL155:
 1187 00fa 0146     		mov	r1, r0	@ movhi
 1188 00fc 05F11800 		add	r0, r5, #24
 1189 0100 FFF7FEFF 		bl	lv_style_set_line_color
 1190              	.LVL156:
  97:Drivers/lvgl/lvgl/src/extra/themes/basic/lv_theme_basic.c ****     lv_style_set_arc_color(&styles->light, COLOR_LIGHT);
 1191              		.loc 1 97 0
 1192 0104 2068     		ldr	r0, [r4]
 1193 0106 0221     		movs	r1, #2
 1194 0108 1830     		adds	r0, r0, #24
 1195 010a FFF7FEFF 		bl	lv_style_set_arc_width
 1196              	.LVL157:
  98:Drivers/lvgl/lvgl/src/extra/themes/basic/lv_theme_basic.c **** 
 1197              		.loc 1 98 0
 1198 010e 2568     		ldr	r5, [r4]
 1199 0110 0221     		movs	r1, #2
 1200 0112 1220     		movs	r0, #18
 1201 0114 FFF7FEFF 		bl	lv_palette_lighten
 1202              	.LVL158:
 1203 0118 0146     		mov	r1, r0	@ movhi
 1204 011a 05F11800 		add	r0, r5, #24
 1205 011e FFF7FEFF 		bl	lv_style_set_arc_color
 1206              	.LVL159:
 100:Drivers/lvgl/lvgl/src/extra/themes/basic/lv_theme_basic.c ****     lv_style_set_bg_opa(&styles->dark, LV_OPA_COVER);
 1207              		.loc 1 100 0
 1208 0122 2068     		ldr	r0, [r4]
ARM GAS  /tmp/ccHfA6hY.s 			page 32


 1209 0124 2030     		adds	r0, r0, #32
 1210 0126 FFF7FEFF 		bl	style_init_reset
 1211              	.LVL160:
 101:Drivers/lvgl/lvgl/src/extra/themes/basic/lv_theme_basic.c ****     lv_style_set_bg_color(&styles->dark, COLOR_DARK);
 1212              		.loc 1 101 0
 1213 012a 2068     		ldr	r0, [r4]
 1214 012c FF21     		movs	r1, #255
 1215 012e 2030     		adds	r0, r0, #32
 1216 0130 FFF7FEFF 		bl	lv_style_set_bg_opa
 1217              	.LVL161:
 102:Drivers/lvgl/lvgl/src/extra/themes/basic/lv_theme_basic.c ****     lv_style_set_line_width(&styles->dark, 1);
 1218              		.loc 1 102 0
 1219 0134 2568     		ldr	r5, [r4]
 1220 0136 1220     		movs	r0, #18
 1221 0138 FFF7FEFF 		bl	lv_palette_main
 1222              	.LVL162:
 1223 013c 0146     		mov	r1, r0	@ movhi
 1224 013e 05F12000 		add	r0, r5, #32
 1225 0142 FFF7FEFF 		bl	lv_style_set_bg_color
 1226              	.LVL163:
 103:Drivers/lvgl/lvgl/src/extra/themes/basic/lv_theme_basic.c ****     lv_style_set_line_color(&styles->dark, COLOR_DARK);
 1227              		.loc 1 103 0
 1228 0146 2068     		ldr	r0, [r4]
 1229 0148 0121     		movs	r1, #1
 1230 014a 2030     		adds	r0, r0, #32
 1231 014c FFF7FEFF 		bl	lv_style_set_line_width
 1232              	.LVL164:
 104:Drivers/lvgl/lvgl/src/extra/themes/basic/lv_theme_basic.c ****     lv_style_set_arc_width(&styles->dark, 2);
 1233              		.loc 1 104 0
 1234 0150 2568     		ldr	r5, [r4]
 1235 0152 1220     		movs	r0, #18
 1236 0154 FFF7FEFF 		bl	lv_palette_main
 1237              	.LVL165:
 1238 0158 0146     		mov	r1, r0	@ movhi
 1239 015a 05F12000 		add	r0, r5, #32
 1240 015e FFF7FEFF 		bl	lv_style_set_line_color
 1241              	.LVL166:
 105:Drivers/lvgl/lvgl/src/extra/themes/basic/lv_theme_basic.c ****     lv_style_set_arc_color(&styles->dark, COLOR_DARK);
 1242              		.loc 1 105 0
 1243 0162 2068     		ldr	r0, [r4]
 1244 0164 0221     		movs	r1, #2
 1245 0166 2030     		adds	r0, r0, #32
 1246 0168 FFF7FEFF 		bl	lv_style_set_arc_width
 1247              	.LVL167:
 106:Drivers/lvgl/lvgl/src/extra/themes/basic/lv_theme_basic.c **** 
 1248              		.loc 1 106 0
 1249 016c 2568     		ldr	r5, [r4]
 1250 016e 1220     		movs	r0, #18
 1251 0170 FFF7FEFF 		bl	lv_palette_main
 1252              	.LVL168:
 1253 0174 0146     		mov	r1, r0	@ movhi
 1254 0176 05F12000 		add	r0, r5, #32
 1255 017a FFF7FEFF 		bl	lv_style_set_arc_color
 1256              	.LVL169:
 108:Drivers/lvgl/lvgl/src/extra/themes/basic/lv_theme_basic.c ****     lv_style_set_bg_opa(&styles->dim, LV_OPA_COVER);
 1257              		.loc 1 108 0
 1258 017e 2068     		ldr	r0, [r4]
ARM GAS  /tmp/ccHfA6hY.s 			page 33


 1259 0180 2830     		adds	r0, r0, #40
 1260 0182 FFF7FEFF 		bl	style_init_reset
 1261              	.LVL170:
 109:Drivers/lvgl/lvgl/src/extra/themes/basic/lv_theme_basic.c ****     lv_style_set_bg_color(&styles->dim, COLOR_DIM);
 1262              		.loc 1 109 0
 1263 0186 2068     		ldr	r0, [r4]
 1264 0188 FF21     		movs	r1, #255
 1265 018a 2830     		adds	r0, r0, #40
 1266 018c FFF7FEFF 		bl	lv_style_set_bg_opa
 1267              	.LVL171:
 110:Drivers/lvgl/lvgl/src/extra/themes/basic/lv_theme_basic.c ****     lv_style_set_line_width(&styles->dim, 1);
 1268              		.loc 1 110 0
 1269 0190 2568     		ldr	r5, [r4]
 1270 0192 0221     		movs	r1, #2
 1271 0194 1220     		movs	r0, #18
 1272 0196 FFF7FEFF 		bl	lv_palette_darken
 1273              	.LVL172:
 1274 019a 0146     		mov	r1, r0	@ movhi
 1275 019c 05F12800 		add	r0, r5, #40
 1276 01a0 FFF7FEFF 		bl	lv_style_set_bg_color
 1277              	.LVL173:
 111:Drivers/lvgl/lvgl/src/extra/themes/basic/lv_theme_basic.c ****     lv_style_set_line_color(&styles->dim, COLOR_DIM);
 1278              		.loc 1 111 0
 1279 01a4 2068     		ldr	r0, [r4]
 1280 01a6 0121     		movs	r1, #1
 1281 01a8 2830     		adds	r0, r0, #40
 1282 01aa FFF7FEFF 		bl	lv_style_set_line_width
 1283              	.LVL174:
 112:Drivers/lvgl/lvgl/src/extra/themes/basic/lv_theme_basic.c ****     lv_style_set_arc_width(&styles->dim, 2);
 1284              		.loc 1 112 0
 1285 01ae 2568     		ldr	r5, [r4]
 1286 01b0 0221     		movs	r1, #2
 1287 01b2 1220     		movs	r0, #18
 1288 01b4 FFF7FEFF 		bl	lv_palette_darken
 1289              	.LVL175:
 1290 01b8 0146     		mov	r1, r0	@ movhi
 1291 01ba 05F12800 		add	r0, r5, #40
 1292 01be FFF7FEFF 		bl	lv_style_set_line_color
 1293              	.LVL176:
 113:Drivers/lvgl/lvgl/src/extra/themes/basic/lv_theme_basic.c ****     lv_style_set_arc_color(&styles->dim, COLOR_DIM);
 1294              		.loc 1 113 0
 1295 01c2 2068     		ldr	r0, [r4]
 1296 01c4 0221     		movs	r1, #2
 1297 01c6 2830     		adds	r0, r0, #40
 1298 01c8 FFF7FEFF 		bl	lv_style_set_arc_width
 1299              	.LVL177:
 114:Drivers/lvgl/lvgl/src/extra/themes/basic/lv_theme_basic.c **** 
 1300              		.loc 1 114 0
 1301 01cc 2568     		ldr	r5, [r4]
 1302 01ce 0221     		movs	r1, #2
 1303 01d0 1220     		movs	r0, #18
 1304 01d2 FFF7FEFF 		bl	lv_palette_darken
 1305              	.LVL178:
 1306 01d6 0146     		mov	r1, r0	@ movhi
 1307 01d8 05F12800 		add	r0, r5, #40
 1308 01dc FFF7FEFF 		bl	lv_style_set_arc_color
 1309              	.LVL179:
ARM GAS  /tmp/ccHfA6hY.s 			page 34


 117:Drivers/lvgl/lvgl/src/extra/themes/basic/lv_theme_basic.c ****     lv_style_set_arc_width(&styles->arc_line, 6);
 1310              		.loc 1 117 0
 1311 01e0 2068     		ldr	r0, [r4]
 1312 01e2 3830     		adds	r0, r0, #56
 1313 01e4 FFF7FEFF 		bl	style_init_reset
 1314              	.LVL180:
 118:Drivers/lvgl/lvgl/src/extra/themes/basic/lv_theme_basic.c ****     style_init_reset(&styles->arc_knob);
 1315              		.loc 1 118 0
 1316 01e8 2068     		ldr	r0, [r4]
 1317 01ea 0621     		movs	r1, #6
 1318 01ec 3830     		adds	r0, r0, #56
 1319 01ee FFF7FEFF 		bl	lv_style_set_arc_width
 1320              	.LVL181:
 119:Drivers/lvgl/lvgl/src/extra/themes/basic/lv_theme_basic.c ****     lv_style_set_pad_all(&styles->arc_knob, 5);
 1321              		.loc 1 119 0
 1322 01f2 2068     		ldr	r0, [r4]
 1323 01f4 4030     		adds	r0, r0, #64
 1324 01f6 FFF7FEFF 		bl	style_init_reset
 1325              	.LVL182:
 120:Drivers/lvgl/lvgl/src/extra/themes/basic/lv_theme_basic.c **** #endif
 1326              		.loc 1 120 0
 1327 01fa 2568     		ldr	r5, [r4]
 1328 01fc 4035     		adds	r5, r5, #64
 1329              	.LVL183:
 1330              	.LBB29:
 1331              	.LBB30:
 1332              		.file 2 "Drivers/lvgl/lvgl/src/extra/themes/basic/../../../../src/hal/../draw/../misc/lv_style.h"
   1:Drivers/lvgl/lvgl/src/extra/themes/basic/../../../../src/hal/../draw/../misc/lv_style.h **** /**
   2:Drivers/lvgl/lvgl/src/extra/themes/basic/../../../../src/hal/../draw/../misc/lv_style.h ****  * @file lv_style.h
   3:Drivers/lvgl/lvgl/src/extra/themes/basic/../../../../src/hal/../draw/../misc/lv_style.h ****  *
   4:Drivers/lvgl/lvgl/src/extra/themes/basic/../../../../src/hal/../draw/../misc/lv_style.h ****  */
   5:Drivers/lvgl/lvgl/src/extra/themes/basic/../../../../src/hal/../draw/../misc/lv_style.h **** 
   6:Drivers/lvgl/lvgl/src/extra/themes/basic/../../../../src/hal/../draw/../misc/lv_style.h **** #ifndef LV_STYLE_H
   7:Drivers/lvgl/lvgl/src/extra/themes/basic/../../../../src/hal/../draw/../misc/lv_style.h **** #define LV_STYLE_H
   8:Drivers/lvgl/lvgl/src/extra/themes/basic/../../../../src/hal/../draw/../misc/lv_style.h **** 
   9:Drivers/lvgl/lvgl/src/extra/themes/basic/../../../../src/hal/../draw/../misc/lv_style.h **** #ifdef __cplusplus
  10:Drivers/lvgl/lvgl/src/extra/themes/basic/../../../../src/hal/../draw/../misc/lv_style.h **** extern "C" {
  11:Drivers/lvgl/lvgl/src/extra/themes/basic/../../../../src/hal/../draw/../misc/lv_style.h **** #endif
  12:Drivers/lvgl/lvgl/src/extra/themes/basic/../../../../src/hal/../draw/../misc/lv_style.h **** 
  13:Drivers/lvgl/lvgl/src/extra/themes/basic/../../../../src/hal/../draw/../misc/lv_style.h **** /*********************
  14:Drivers/lvgl/lvgl/src/extra/themes/basic/../../../../src/hal/../draw/../misc/lv_style.h ****  *      INCLUDES
  15:Drivers/lvgl/lvgl/src/extra/themes/basic/../../../../src/hal/../draw/../misc/lv_style.h ****  *********************/
  16:Drivers/lvgl/lvgl/src/extra/themes/basic/../../../../src/hal/../draw/../misc/lv_style.h **** #include <stdbool.h>
  17:Drivers/lvgl/lvgl/src/extra/themes/basic/../../../../src/hal/../draw/../misc/lv_style.h **** #include <stdint.h>
  18:Drivers/lvgl/lvgl/src/extra/themes/basic/../../../../src/hal/../draw/../misc/lv_style.h **** #include "../font/lv_font.h"
  19:Drivers/lvgl/lvgl/src/extra/themes/basic/../../../../src/hal/../draw/../misc/lv_style.h **** #include "lv_color.h"
  20:Drivers/lvgl/lvgl/src/extra/themes/basic/../../../../src/hal/../draw/../misc/lv_style.h **** #include "lv_area.h"
  21:Drivers/lvgl/lvgl/src/extra/themes/basic/../../../../src/hal/../draw/../misc/lv_style.h **** #include "lv_anim.h"
  22:Drivers/lvgl/lvgl/src/extra/themes/basic/../../../../src/hal/../draw/../misc/lv_style.h **** #include "lv_txt.h"
  23:Drivers/lvgl/lvgl/src/extra/themes/basic/../../../../src/hal/../draw/../misc/lv_style.h **** #include "lv_types.h"
  24:Drivers/lvgl/lvgl/src/extra/themes/basic/../../../../src/hal/../draw/../misc/lv_style.h **** #include "lv_assert.h"
  25:Drivers/lvgl/lvgl/src/extra/themes/basic/../../../../src/hal/../draw/../misc/lv_style.h **** #include "lv_bidi.h"
  26:Drivers/lvgl/lvgl/src/extra/themes/basic/../../../../src/hal/../draw/../misc/lv_style.h **** 
  27:Drivers/lvgl/lvgl/src/extra/themes/basic/../../../../src/hal/../draw/../misc/lv_style.h **** /*********************
  28:Drivers/lvgl/lvgl/src/extra/themes/basic/../../../../src/hal/../draw/../misc/lv_style.h ****  *      DEFINES
  29:Drivers/lvgl/lvgl/src/extra/themes/basic/../../../../src/hal/../draw/../misc/lv_style.h ****  *********************/
  30:Drivers/lvgl/lvgl/src/extra/themes/basic/../../../../src/hal/../draw/../misc/lv_style.h **** 
ARM GAS  /tmp/ccHfA6hY.s 			page 35


  31:Drivers/lvgl/lvgl/src/extra/themes/basic/../../../../src/hal/../draw/../misc/lv_style.h **** #define LV_STYLE_SENTINEL_VALUE     0xAABBCCDD
  32:Drivers/lvgl/lvgl/src/extra/themes/basic/../../../../src/hal/../draw/../misc/lv_style.h **** 
  33:Drivers/lvgl/lvgl/src/extra/themes/basic/../../../../src/hal/../draw/../misc/lv_style.h **** /**
  34:Drivers/lvgl/lvgl/src/extra/themes/basic/../../../../src/hal/../draw/../misc/lv_style.h ****  * Flags for style behavior
  35:Drivers/lvgl/lvgl/src/extra/themes/basic/../../../../src/hal/../draw/../misc/lv_style.h ****  *
  36:Drivers/lvgl/lvgl/src/extra/themes/basic/../../../../src/hal/../draw/../misc/lv_style.h ****  * The rest of the flags will have _FLAG added to their name in v9.
  37:Drivers/lvgl/lvgl/src/extra/themes/basic/../../../../src/hal/../draw/../misc/lv_style.h ****  */
  38:Drivers/lvgl/lvgl/src/extra/themes/basic/../../../../src/hal/../draw/../misc/lv_style.h **** #define LV_STYLE_PROP_FLAG_NONE             (0)
  39:Drivers/lvgl/lvgl/src/extra/themes/basic/../../../../src/hal/../draw/../misc/lv_style.h **** #define LV_STYLE_PROP_INHERIT               (1 << 0)  /*Inherited*/
  40:Drivers/lvgl/lvgl/src/extra/themes/basic/../../../../src/hal/../draw/../misc/lv_style.h **** #define LV_STYLE_PROP_EXT_DRAW              (1 << 1)  /*Requires ext. draw size update when changed
  41:Drivers/lvgl/lvgl/src/extra/themes/basic/../../../../src/hal/../draw/../misc/lv_style.h **** #define LV_STYLE_PROP_LAYOUT_REFR           (1 << 2)  /*Requires layout update when changed*/
  42:Drivers/lvgl/lvgl/src/extra/themes/basic/../../../../src/hal/../draw/../misc/lv_style.h **** #define LV_STYLE_PROP_PARENT_LAYOUT_REFR    (1 << 3)  /*Requires layout update on parent when chang
  43:Drivers/lvgl/lvgl/src/extra/themes/basic/../../../../src/hal/../draw/../misc/lv_style.h **** #define LV_STYLE_PROP_LAYER_REFR            (1 << 4)  /*Affects layer handling*/
  44:Drivers/lvgl/lvgl/src/extra/themes/basic/../../../../src/hal/../draw/../misc/lv_style.h **** #define LV_STYLE_PROP_ALL                   (0x1F)     /*Indicating all flags*/
  45:Drivers/lvgl/lvgl/src/extra/themes/basic/../../../../src/hal/../draw/../misc/lv_style.h **** 
  46:Drivers/lvgl/lvgl/src/extra/themes/basic/../../../../src/hal/../draw/../misc/lv_style.h **** /**
  47:Drivers/lvgl/lvgl/src/extra/themes/basic/../../../../src/hal/../draw/../misc/lv_style.h ****  * Other constants
  48:Drivers/lvgl/lvgl/src/extra/themes/basic/../../../../src/hal/../draw/../misc/lv_style.h ****  */
  49:Drivers/lvgl/lvgl/src/extra/themes/basic/../../../../src/hal/../draw/../misc/lv_style.h **** #define LV_IMG_ZOOM_NONE            256        /*Value for not zooming the image*/
  50:Drivers/lvgl/lvgl/src/extra/themes/basic/../../../../src/hal/../draw/../misc/lv_style.h **** LV_EXPORT_CONST_INT(LV_IMG_ZOOM_NONE);
  51:Drivers/lvgl/lvgl/src/extra/themes/basic/../../../../src/hal/../draw/../misc/lv_style.h **** 
  52:Drivers/lvgl/lvgl/src/extra/themes/basic/../../../../src/hal/../draw/../misc/lv_style.h **** // *INDENT-OFF*
  53:Drivers/lvgl/lvgl/src/extra/themes/basic/../../../../src/hal/../draw/../misc/lv_style.h **** #if LV_USE_ASSERT_STYLE
  54:Drivers/lvgl/lvgl/src/extra/themes/basic/../../../../src/hal/../draw/../misc/lv_style.h **** #define LV_STYLE_CONST_INIT(var_name, prop_array)                       \
  55:Drivers/lvgl/lvgl/src/extra/themes/basic/../../../../src/hal/../draw/../misc/lv_style.h ****     const lv_style_t var_name = {                                       \
  56:Drivers/lvgl/lvgl/src/extra/themes/basic/../../../../src/hal/../draw/../misc/lv_style.h ****         .sentinel = LV_STYLE_SENTINEL_VALUE,                            \
  57:Drivers/lvgl/lvgl/src/extra/themes/basic/../../../../src/hal/../draw/../misc/lv_style.h ****         .v_p = { .const_props = prop_array },                           \
  58:Drivers/lvgl/lvgl/src/extra/themes/basic/../../../../src/hal/../draw/../misc/lv_style.h ****         .has_group = 0xFF,                                              \
  59:Drivers/lvgl/lvgl/src/extra/themes/basic/../../../../src/hal/../draw/../misc/lv_style.h ****         .prop1 = LV_STYLE_PROP_ANY,                                     \
  60:Drivers/lvgl/lvgl/src/extra/themes/basic/../../../../src/hal/../draw/../misc/lv_style.h ****         .prop_cnt = (sizeof(prop_array) / sizeof((prop_array)[0])),     \
  61:Drivers/lvgl/lvgl/src/extra/themes/basic/../../../../src/hal/../draw/../misc/lv_style.h ****     }
  62:Drivers/lvgl/lvgl/src/extra/themes/basic/../../../../src/hal/../draw/../misc/lv_style.h **** #else
  63:Drivers/lvgl/lvgl/src/extra/themes/basic/../../../../src/hal/../draw/../misc/lv_style.h **** #define LV_STYLE_CONST_INIT(var_name, prop_array)                       \
  64:Drivers/lvgl/lvgl/src/extra/themes/basic/../../../../src/hal/../draw/../misc/lv_style.h ****     const lv_style_t var_name = {                                       \
  65:Drivers/lvgl/lvgl/src/extra/themes/basic/../../../../src/hal/../draw/../misc/lv_style.h ****         .v_p = { .const_props = prop_array },                           \
  66:Drivers/lvgl/lvgl/src/extra/themes/basic/../../../../src/hal/../draw/../misc/lv_style.h ****         .has_group = 0xFF,                                              \
  67:Drivers/lvgl/lvgl/src/extra/themes/basic/../../../../src/hal/../draw/../misc/lv_style.h ****         .prop1 = LV_STYLE_PROP_ANY,                                     \
  68:Drivers/lvgl/lvgl/src/extra/themes/basic/../../../../src/hal/../draw/../misc/lv_style.h ****         .prop_cnt = (sizeof(prop_array) / sizeof((prop_array)[0])),     \
  69:Drivers/lvgl/lvgl/src/extra/themes/basic/../../../../src/hal/../draw/../misc/lv_style.h ****     }
  70:Drivers/lvgl/lvgl/src/extra/themes/basic/../../../../src/hal/../draw/../misc/lv_style.h **** #endif
  71:Drivers/lvgl/lvgl/src/extra/themes/basic/../../../../src/hal/../draw/../misc/lv_style.h **** // *INDENT-ON*
  72:Drivers/lvgl/lvgl/src/extra/themes/basic/../../../../src/hal/../draw/../misc/lv_style.h **** 
  73:Drivers/lvgl/lvgl/src/extra/themes/basic/../../../../src/hal/../draw/../misc/lv_style.h **** #define LV_STYLE_PROP_META_INHERIT 0x8000
  74:Drivers/lvgl/lvgl/src/extra/themes/basic/../../../../src/hal/../draw/../misc/lv_style.h **** #define LV_STYLE_PROP_META_INITIAL 0x4000
  75:Drivers/lvgl/lvgl/src/extra/themes/basic/../../../../src/hal/../draw/../misc/lv_style.h **** #define LV_STYLE_PROP_META_MASK (LV_STYLE_PROP_META_INHERIT | LV_STYLE_PROP_META_INITIAL)
  76:Drivers/lvgl/lvgl/src/extra/themes/basic/../../../../src/hal/../draw/../misc/lv_style.h **** 
  77:Drivers/lvgl/lvgl/src/extra/themes/basic/../../../../src/hal/../draw/../misc/lv_style.h **** #define LV_STYLE_PROP_ID_MASK(prop) ((lv_style_prop_t)((prop) & ~LV_STYLE_PROP_META_MASK))
  78:Drivers/lvgl/lvgl/src/extra/themes/basic/../../../../src/hal/../draw/../misc/lv_style.h **** 
  79:Drivers/lvgl/lvgl/src/extra/themes/basic/../../../../src/hal/../draw/../misc/lv_style.h **** /**********************
  80:Drivers/lvgl/lvgl/src/extra/themes/basic/../../../../src/hal/../draw/../misc/lv_style.h ****  *      TYPEDEFS
  81:Drivers/lvgl/lvgl/src/extra/themes/basic/../../../../src/hal/../draw/../misc/lv_style.h ****  **********************/
  82:Drivers/lvgl/lvgl/src/extra/themes/basic/../../../../src/hal/../draw/../misc/lv_style.h **** 
  83:Drivers/lvgl/lvgl/src/extra/themes/basic/../../../../src/hal/../draw/../misc/lv_style.h **** /**
  84:Drivers/lvgl/lvgl/src/extra/themes/basic/../../../../src/hal/../draw/../misc/lv_style.h ****  * Possible options how to blend opaque drawings
  85:Drivers/lvgl/lvgl/src/extra/themes/basic/../../../../src/hal/../draw/../misc/lv_style.h ****  */
  86:Drivers/lvgl/lvgl/src/extra/themes/basic/../../../../src/hal/../draw/../misc/lv_style.h **** enum {
  87:Drivers/lvgl/lvgl/src/extra/themes/basic/../../../../src/hal/../draw/../misc/lv_style.h ****     LV_BLEND_MODE_NORMAL,     /**< Simply mix according to the opacity value*/
ARM GAS  /tmp/ccHfA6hY.s 			page 36


  88:Drivers/lvgl/lvgl/src/extra/themes/basic/../../../../src/hal/../draw/../misc/lv_style.h ****     LV_BLEND_MODE_ADDITIVE,   /**< Add the respective color channels*/
  89:Drivers/lvgl/lvgl/src/extra/themes/basic/../../../../src/hal/../draw/../misc/lv_style.h ****     LV_BLEND_MODE_SUBTRACTIVE,/**< Subtract the foreground from the background*/
  90:Drivers/lvgl/lvgl/src/extra/themes/basic/../../../../src/hal/../draw/../misc/lv_style.h ****     LV_BLEND_MODE_MULTIPLY,   /**< Multiply the foreground and background*/
  91:Drivers/lvgl/lvgl/src/extra/themes/basic/../../../../src/hal/../draw/../misc/lv_style.h ****     LV_BLEND_MODE_REPLACE,    /**< Replace background with foreground in the area*/
  92:Drivers/lvgl/lvgl/src/extra/themes/basic/../../../../src/hal/../draw/../misc/lv_style.h **** };
  93:Drivers/lvgl/lvgl/src/extra/themes/basic/../../../../src/hal/../draw/../misc/lv_style.h **** 
  94:Drivers/lvgl/lvgl/src/extra/themes/basic/../../../../src/hal/../draw/../misc/lv_style.h **** typedef uint8_t lv_blend_mode_t;
  95:Drivers/lvgl/lvgl/src/extra/themes/basic/../../../../src/hal/../draw/../misc/lv_style.h **** 
  96:Drivers/lvgl/lvgl/src/extra/themes/basic/../../../../src/hal/../draw/../misc/lv_style.h **** /**
  97:Drivers/lvgl/lvgl/src/extra/themes/basic/../../../../src/hal/../draw/../misc/lv_style.h ****  * Some options to apply decorations on texts.
  98:Drivers/lvgl/lvgl/src/extra/themes/basic/../../../../src/hal/../draw/../misc/lv_style.h ****  * 'OR'ed values can be used.
  99:Drivers/lvgl/lvgl/src/extra/themes/basic/../../../../src/hal/../draw/../misc/lv_style.h ****  */
 100:Drivers/lvgl/lvgl/src/extra/themes/basic/../../../../src/hal/../draw/../misc/lv_style.h **** enum {
 101:Drivers/lvgl/lvgl/src/extra/themes/basic/../../../../src/hal/../draw/../misc/lv_style.h ****     LV_TEXT_DECOR_NONE          = 0x00,
 102:Drivers/lvgl/lvgl/src/extra/themes/basic/../../../../src/hal/../draw/../misc/lv_style.h ****     LV_TEXT_DECOR_UNDERLINE     = 0x01,
 103:Drivers/lvgl/lvgl/src/extra/themes/basic/../../../../src/hal/../draw/../misc/lv_style.h ****     LV_TEXT_DECOR_STRIKETHROUGH = 0x02,
 104:Drivers/lvgl/lvgl/src/extra/themes/basic/../../../../src/hal/../draw/../misc/lv_style.h **** };
 105:Drivers/lvgl/lvgl/src/extra/themes/basic/../../../../src/hal/../draw/../misc/lv_style.h **** 
 106:Drivers/lvgl/lvgl/src/extra/themes/basic/../../../../src/hal/../draw/../misc/lv_style.h **** typedef uint8_t lv_text_decor_t;
 107:Drivers/lvgl/lvgl/src/extra/themes/basic/../../../../src/hal/../draw/../misc/lv_style.h **** 
 108:Drivers/lvgl/lvgl/src/extra/themes/basic/../../../../src/hal/../draw/../misc/lv_style.h **** /**
 109:Drivers/lvgl/lvgl/src/extra/themes/basic/../../../../src/hal/../draw/../misc/lv_style.h ****  * Selects on which sides border should be drawn
 110:Drivers/lvgl/lvgl/src/extra/themes/basic/../../../../src/hal/../draw/../misc/lv_style.h ****  * 'OR'ed values can be used.
 111:Drivers/lvgl/lvgl/src/extra/themes/basic/../../../../src/hal/../draw/../misc/lv_style.h ****  */
 112:Drivers/lvgl/lvgl/src/extra/themes/basic/../../../../src/hal/../draw/../misc/lv_style.h **** enum {
 113:Drivers/lvgl/lvgl/src/extra/themes/basic/../../../../src/hal/../draw/../misc/lv_style.h ****     LV_BORDER_SIDE_NONE     = 0x00,
 114:Drivers/lvgl/lvgl/src/extra/themes/basic/../../../../src/hal/../draw/../misc/lv_style.h ****     LV_BORDER_SIDE_BOTTOM   = 0x01,
 115:Drivers/lvgl/lvgl/src/extra/themes/basic/../../../../src/hal/../draw/../misc/lv_style.h ****     LV_BORDER_SIDE_TOP      = 0x02,
 116:Drivers/lvgl/lvgl/src/extra/themes/basic/../../../../src/hal/../draw/../misc/lv_style.h ****     LV_BORDER_SIDE_LEFT     = 0x04,
 117:Drivers/lvgl/lvgl/src/extra/themes/basic/../../../../src/hal/../draw/../misc/lv_style.h ****     LV_BORDER_SIDE_RIGHT    = 0x08,
 118:Drivers/lvgl/lvgl/src/extra/themes/basic/../../../../src/hal/../draw/../misc/lv_style.h ****     LV_BORDER_SIDE_FULL     = 0x0F,
 119:Drivers/lvgl/lvgl/src/extra/themes/basic/../../../../src/hal/../draw/../misc/lv_style.h ****     LV_BORDER_SIDE_INTERNAL = 0x10, /**< FOR matrix-like objects (e.g. Button matrix)*/
 120:Drivers/lvgl/lvgl/src/extra/themes/basic/../../../../src/hal/../draw/../misc/lv_style.h **** };
 121:Drivers/lvgl/lvgl/src/extra/themes/basic/../../../../src/hal/../draw/../misc/lv_style.h **** typedef uint8_t lv_border_side_t;
 122:Drivers/lvgl/lvgl/src/extra/themes/basic/../../../../src/hal/../draw/../misc/lv_style.h **** 
 123:Drivers/lvgl/lvgl/src/extra/themes/basic/../../../../src/hal/../draw/../misc/lv_style.h **** /**
 124:Drivers/lvgl/lvgl/src/extra/themes/basic/../../../../src/hal/../draw/../misc/lv_style.h ****  * The direction of the gradient.
 125:Drivers/lvgl/lvgl/src/extra/themes/basic/../../../../src/hal/../draw/../misc/lv_style.h ****  */
 126:Drivers/lvgl/lvgl/src/extra/themes/basic/../../../../src/hal/../draw/../misc/lv_style.h **** enum {
 127:Drivers/lvgl/lvgl/src/extra/themes/basic/../../../../src/hal/../draw/../misc/lv_style.h ****     LV_GRAD_DIR_NONE, /**< No gradient (the `grad_color` property is ignored)*/
 128:Drivers/lvgl/lvgl/src/extra/themes/basic/../../../../src/hal/../draw/../misc/lv_style.h ****     LV_GRAD_DIR_VER,  /**< Vertical (top to bottom) gradient*/
 129:Drivers/lvgl/lvgl/src/extra/themes/basic/../../../../src/hal/../draw/../misc/lv_style.h ****     LV_GRAD_DIR_HOR,  /**< Horizontal (left to right) gradient*/
 130:Drivers/lvgl/lvgl/src/extra/themes/basic/../../../../src/hal/../draw/../misc/lv_style.h **** };
 131:Drivers/lvgl/lvgl/src/extra/themes/basic/../../../../src/hal/../draw/../misc/lv_style.h **** 
 132:Drivers/lvgl/lvgl/src/extra/themes/basic/../../../../src/hal/../draw/../misc/lv_style.h **** typedef uint8_t lv_grad_dir_t;
 133:Drivers/lvgl/lvgl/src/extra/themes/basic/../../../../src/hal/../draw/../misc/lv_style.h **** 
 134:Drivers/lvgl/lvgl/src/extra/themes/basic/../../../../src/hal/../draw/../misc/lv_style.h **** /**
 135:Drivers/lvgl/lvgl/src/extra/themes/basic/../../../../src/hal/../draw/../misc/lv_style.h ****  * The dithering algorithm for the gradient
 136:Drivers/lvgl/lvgl/src/extra/themes/basic/../../../../src/hal/../draw/../misc/lv_style.h ****  * Depends on LV_DITHER_GRADIENT
 137:Drivers/lvgl/lvgl/src/extra/themes/basic/../../../../src/hal/../draw/../misc/lv_style.h ****  */
 138:Drivers/lvgl/lvgl/src/extra/themes/basic/../../../../src/hal/../draw/../misc/lv_style.h **** enum {
 139:Drivers/lvgl/lvgl/src/extra/themes/basic/../../../../src/hal/../draw/../misc/lv_style.h ****     LV_DITHER_NONE,     /**< No dithering, colors are just quantized to the output resolution*/
 140:Drivers/lvgl/lvgl/src/extra/themes/basic/../../../../src/hal/../draw/../misc/lv_style.h ****     LV_DITHER_ORDERED,  /**< Ordered dithering. Faster to compute and use less memory but lower qua
 141:Drivers/lvgl/lvgl/src/extra/themes/basic/../../../../src/hal/../draw/../misc/lv_style.h ****     LV_DITHER_ERR_DIFF, /**< Error diffusion mode. Slower to compute and use more memory but give h
 142:Drivers/lvgl/lvgl/src/extra/themes/basic/../../../../src/hal/../draw/../misc/lv_style.h **** };
 143:Drivers/lvgl/lvgl/src/extra/themes/basic/../../../../src/hal/../draw/../misc/lv_style.h **** 
 144:Drivers/lvgl/lvgl/src/extra/themes/basic/../../../../src/hal/../draw/../misc/lv_style.h **** typedef uint8_t lv_dither_mode_t;
ARM GAS  /tmp/ccHfA6hY.s 			page 37


 145:Drivers/lvgl/lvgl/src/extra/themes/basic/../../../../src/hal/../draw/../misc/lv_style.h **** 
 146:Drivers/lvgl/lvgl/src/extra/themes/basic/../../../../src/hal/../draw/../misc/lv_style.h **** /** A gradient stop definition.
 147:Drivers/lvgl/lvgl/src/extra/themes/basic/../../../../src/hal/../draw/../misc/lv_style.h ****  *  This matches a color and a position in a virtual 0-255 scale.
 148:Drivers/lvgl/lvgl/src/extra/themes/basic/../../../../src/hal/../draw/../misc/lv_style.h ****  */
 149:Drivers/lvgl/lvgl/src/extra/themes/basic/../../../../src/hal/../draw/../misc/lv_style.h **** typedef struct {
 150:Drivers/lvgl/lvgl/src/extra/themes/basic/../../../../src/hal/../draw/../misc/lv_style.h ****     lv_color_t color;   /**< The stop color */
 151:Drivers/lvgl/lvgl/src/extra/themes/basic/../../../../src/hal/../draw/../misc/lv_style.h ****     uint8_t    frac;    /**< The stop position in 1/255 unit */
 152:Drivers/lvgl/lvgl/src/extra/themes/basic/../../../../src/hal/../draw/../misc/lv_style.h **** } lv_gradient_stop_t;
 153:Drivers/lvgl/lvgl/src/extra/themes/basic/../../../../src/hal/../draw/../misc/lv_style.h **** 
 154:Drivers/lvgl/lvgl/src/extra/themes/basic/../../../../src/hal/../draw/../misc/lv_style.h **** /** A descriptor of a gradient. */
 155:Drivers/lvgl/lvgl/src/extra/themes/basic/../../../../src/hal/../draw/../misc/lv_style.h **** typedef struct {
 156:Drivers/lvgl/lvgl/src/extra/themes/basic/../../../../src/hal/../draw/../misc/lv_style.h ****     lv_gradient_stop_t   stops[LV_GRADIENT_MAX_STOPS]; /**< A gradient stop array */
 157:Drivers/lvgl/lvgl/src/extra/themes/basic/../../../../src/hal/../draw/../misc/lv_style.h ****     uint8_t              stops_count;                  /**< The number of used stops in the array *
 158:Drivers/lvgl/lvgl/src/extra/themes/basic/../../../../src/hal/../draw/../misc/lv_style.h ****     lv_grad_dir_t        dir : 3;                      /**< The gradient direction.
 159:Drivers/lvgl/lvgl/src/extra/themes/basic/../../../../src/hal/../draw/../misc/lv_style.h ****                                                         * Any of LV_GRAD_DIR_HOR, LV_GRAD_DIR_VER, 
 160:Drivers/lvgl/lvgl/src/extra/themes/basic/../../../../src/hal/../draw/../misc/lv_style.h ****     lv_dither_mode_t     dither : 3;                   /**< Whether to dither the gradient or not.
 161:Drivers/lvgl/lvgl/src/extra/themes/basic/../../../../src/hal/../draw/../misc/lv_style.h ****                                                         * Any of LV_DITHER_NONE, LV_DITHER_ORDERED,
 162:Drivers/lvgl/lvgl/src/extra/themes/basic/../../../../src/hal/../draw/../misc/lv_style.h **** } lv_grad_dsc_t;
 163:Drivers/lvgl/lvgl/src/extra/themes/basic/../../../../src/hal/../draw/../misc/lv_style.h **** 
 164:Drivers/lvgl/lvgl/src/extra/themes/basic/../../../../src/hal/../draw/../misc/lv_style.h **** /**
 165:Drivers/lvgl/lvgl/src/extra/themes/basic/../../../../src/hal/../draw/../misc/lv_style.h ****  * A common type to handle all the property types in the same way.
 166:Drivers/lvgl/lvgl/src/extra/themes/basic/../../../../src/hal/../draw/../misc/lv_style.h ****  */
 167:Drivers/lvgl/lvgl/src/extra/themes/basic/../../../../src/hal/../draw/../misc/lv_style.h **** typedef union {
 168:Drivers/lvgl/lvgl/src/extra/themes/basic/../../../../src/hal/../draw/../misc/lv_style.h ****     int32_t num;         /**< Number integer number (opacity, enums, booleans or "normal" numbers)*
 169:Drivers/lvgl/lvgl/src/extra/themes/basic/../../../../src/hal/../draw/../misc/lv_style.h ****     const void * ptr;    /**< Constant pointers  (font, cone text, etc)*/
 170:Drivers/lvgl/lvgl/src/extra/themes/basic/../../../../src/hal/../draw/../misc/lv_style.h ****     lv_color_t color;    /**< Colors*/
 171:Drivers/lvgl/lvgl/src/extra/themes/basic/../../../../src/hal/../draw/../misc/lv_style.h **** } lv_style_value_t;
 172:Drivers/lvgl/lvgl/src/extra/themes/basic/../../../../src/hal/../draw/../misc/lv_style.h **** 
 173:Drivers/lvgl/lvgl/src/extra/themes/basic/../../../../src/hal/../draw/../misc/lv_style.h **** /**
 174:Drivers/lvgl/lvgl/src/extra/themes/basic/../../../../src/hal/../draw/../misc/lv_style.h ****  * Enumeration of all built in style properties
 175:Drivers/lvgl/lvgl/src/extra/themes/basic/../../../../src/hal/../draw/../misc/lv_style.h ****  *
 176:Drivers/lvgl/lvgl/src/extra/themes/basic/../../../../src/hal/../draw/../misc/lv_style.h ****  * Props are split into groups of 16. When adding a new prop to a group, ensure it does not overflo
 177:Drivers/lvgl/lvgl/src/extra/themes/basic/../../../../src/hal/../draw/../misc/lv_style.h ****  */
 178:Drivers/lvgl/lvgl/src/extra/themes/basic/../../../../src/hal/../draw/../misc/lv_style.h **** typedef enum {
 179:Drivers/lvgl/lvgl/src/extra/themes/basic/../../../../src/hal/../draw/../misc/lv_style.h ****     LV_STYLE_PROP_INV               = 0,
 180:Drivers/lvgl/lvgl/src/extra/themes/basic/../../../../src/hal/../draw/../misc/lv_style.h **** 
 181:Drivers/lvgl/lvgl/src/extra/themes/basic/../../../../src/hal/../draw/../misc/lv_style.h ****     /*Group 0*/
 182:Drivers/lvgl/lvgl/src/extra/themes/basic/../../../../src/hal/../draw/../misc/lv_style.h ****     LV_STYLE_WIDTH                  = 1,
 183:Drivers/lvgl/lvgl/src/extra/themes/basic/../../../../src/hal/../draw/../misc/lv_style.h ****     LV_STYLE_MIN_WIDTH              = 2,
 184:Drivers/lvgl/lvgl/src/extra/themes/basic/../../../../src/hal/../draw/../misc/lv_style.h ****     LV_STYLE_MAX_WIDTH              = 3,
 185:Drivers/lvgl/lvgl/src/extra/themes/basic/../../../../src/hal/../draw/../misc/lv_style.h ****     LV_STYLE_HEIGHT                 = 4,
 186:Drivers/lvgl/lvgl/src/extra/themes/basic/../../../../src/hal/../draw/../misc/lv_style.h ****     LV_STYLE_MIN_HEIGHT             = 5,
 187:Drivers/lvgl/lvgl/src/extra/themes/basic/../../../../src/hal/../draw/../misc/lv_style.h ****     LV_STYLE_MAX_HEIGHT             = 6,
 188:Drivers/lvgl/lvgl/src/extra/themes/basic/../../../../src/hal/../draw/../misc/lv_style.h ****     LV_STYLE_X                      = 7,
 189:Drivers/lvgl/lvgl/src/extra/themes/basic/../../../../src/hal/../draw/../misc/lv_style.h ****     LV_STYLE_Y                      = 8,
 190:Drivers/lvgl/lvgl/src/extra/themes/basic/../../../../src/hal/../draw/../misc/lv_style.h ****     LV_STYLE_ALIGN                  = 9,
 191:Drivers/lvgl/lvgl/src/extra/themes/basic/../../../../src/hal/../draw/../misc/lv_style.h ****     LV_STYLE_LAYOUT                 = 10,
 192:Drivers/lvgl/lvgl/src/extra/themes/basic/../../../../src/hal/../draw/../misc/lv_style.h ****     LV_STYLE_RADIUS                 = 11,
 193:Drivers/lvgl/lvgl/src/extra/themes/basic/../../../../src/hal/../draw/../misc/lv_style.h **** 
 194:Drivers/lvgl/lvgl/src/extra/themes/basic/../../../../src/hal/../draw/../misc/lv_style.h ****     /*Group 1*/
 195:Drivers/lvgl/lvgl/src/extra/themes/basic/../../../../src/hal/../draw/../misc/lv_style.h ****     LV_STYLE_PAD_TOP                = 16,
 196:Drivers/lvgl/lvgl/src/extra/themes/basic/../../../../src/hal/../draw/../misc/lv_style.h ****     LV_STYLE_PAD_BOTTOM             = 17,
 197:Drivers/lvgl/lvgl/src/extra/themes/basic/../../../../src/hal/../draw/../misc/lv_style.h ****     LV_STYLE_PAD_LEFT               = 18,
 198:Drivers/lvgl/lvgl/src/extra/themes/basic/../../../../src/hal/../draw/../misc/lv_style.h ****     LV_STYLE_PAD_RIGHT              = 19,
 199:Drivers/lvgl/lvgl/src/extra/themes/basic/../../../../src/hal/../draw/../misc/lv_style.h ****     LV_STYLE_PAD_ROW                = 20,
 200:Drivers/lvgl/lvgl/src/extra/themes/basic/../../../../src/hal/../draw/../misc/lv_style.h ****     LV_STYLE_PAD_COLUMN             = 21,
 201:Drivers/lvgl/lvgl/src/extra/themes/basic/../../../../src/hal/../draw/../misc/lv_style.h ****     LV_STYLE_BASE_DIR               = 22,
ARM GAS  /tmp/ccHfA6hY.s 			page 38


 202:Drivers/lvgl/lvgl/src/extra/themes/basic/../../../../src/hal/../draw/../misc/lv_style.h ****     LV_STYLE_CLIP_CORNER            = 23,
 203:Drivers/lvgl/lvgl/src/extra/themes/basic/../../../../src/hal/../draw/../misc/lv_style.h **** 
 204:Drivers/lvgl/lvgl/src/extra/themes/basic/../../../../src/hal/../draw/../misc/lv_style.h ****     /*Group 2*/
 205:Drivers/lvgl/lvgl/src/extra/themes/basic/../../../../src/hal/../draw/../misc/lv_style.h ****     LV_STYLE_BG_COLOR               = 32,
 206:Drivers/lvgl/lvgl/src/extra/themes/basic/../../../../src/hal/../draw/../misc/lv_style.h ****     LV_STYLE_BG_OPA                 = 33,
 207:Drivers/lvgl/lvgl/src/extra/themes/basic/../../../../src/hal/../draw/../misc/lv_style.h ****     LV_STYLE_BG_GRAD_COLOR          = 34,
 208:Drivers/lvgl/lvgl/src/extra/themes/basic/../../../../src/hal/../draw/../misc/lv_style.h ****     LV_STYLE_BG_GRAD_DIR            = 35,
 209:Drivers/lvgl/lvgl/src/extra/themes/basic/../../../../src/hal/../draw/../misc/lv_style.h ****     LV_STYLE_BG_MAIN_STOP           = 36,
 210:Drivers/lvgl/lvgl/src/extra/themes/basic/../../../../src/hal/../draw/../misc/lv_style.h ****     LV_STYLE_BG_GRAD_STOP           = 37,
 211:Drivers/lvgl/lvgl/src/extra/themes/basic/../../../../src/hal/../draw/../misc/lv_style.h ****     LV_STYLE_BG_GRAD                = 38,
 212:Drivers/lvgl/lvgl/src/extra/themes/basic/../../../../src/hal/../draw/../misc/lv_style.h ****     LV_STYLE_BG_DITHER_MODE         = 39,
 213:Drivers/lvgl/lvgl/src/extra/themes/basic/../../../../src/hal/../draw/../misc/lv_style.h ****     LV_STYLE_BG_IMG_SRC             = 40,
 214:Drivers/lvgl/lvgl/src/extra/themes/basic/../../../../src/hal/../draw/../misc/lv_style.h ****     LV_STYLE_BG_IMG_OPA             = 41,
 215:Drivers/lvgl/lvgl/src/extra/themes/basic/../../../../src/hal/../draw/../misc/lv_style.h ****     LV_STYLE_BG_IMG_RECOLOR         = 42,
 216:Drivers/lvgl/lvgl/src/extra/themes/basic/../../../../src/hal/../draw/../misc/lv_style.h ****     LV_STYLE_BG_IMG_RECOLOR_OPA     = 43,
 217:Drivers/lvgl/lvgl/src/extra/themes/basic/../../../../src/hal/../draw/../misc/lv_style.h ****     LV_STYLE_BG_IMG_TILED           = 44,
 218:Drivers/lvgl/lvgl/src/extra/themes/basic/../../../../src/hal/../draw/../misc/lv_style.h **** 
 219:Drivers/lvgl/lvgl/src/extra/themes/basic/../../../../src/hal/../draw/../misc/lv_style.h ****     /*Group 3*/
 220:Drivers/lvgl/lvgl/src/extra/themes/basic/../../../../src/hal/../draw/../misc/lv_style.h ****     LV_STYLE_BORDER_COLOR           = 48,
 221:Drivers/lvgl/lvgl/src/extra/themes/basic/../../../../src/hal/../draw/../misc/lv_style.h ****     LV_STYLE_BORDER_OPA             = 49,
 222:Drivers/lvgl/lvgl/src/extra/themes/basic/../../../../src/hal/../draw/../misc/lv_style.h ****     LV_STYLE_BORDER_WIDTH           = 50,
 223:Drivers/lvgl/lvgl/src/extra/themes/basic/../../../../src/hal/../draw/../misc/lv_style.h ****     LV_STYLE_BORDER_SIDE            = 51,
 224:Drivers/lvgl/lvgl/src/extra/themes/basic/../../../../src/hal/../draw/../misc/lv_style.h ****     LV_STYLE_BORDER_POST            = 52,
 225:Drivers/lvgl/lvgl/src/extra/themes/basic/../../../../src/hal/../draw/../misc/lv_style.h ****     LV_STYLE_OUTLINE_WIDTH          = 53,
 226:Drivers/lvgl/lvgl/src/extra/themes/basic/../../../../src/hal/../draw/../misc/lv_style.h ****     LV_STYLE_OUTLINE_COLOR          = 54,
 227:Drivers/lvgl/lvgl/src/extra/themes/basic/../../../../src/hal/../draw/../misc/lv_style.h ****     LV_STYLE_OUTLINE_OPA            = 55,
 228:Drivers/lvgl/lvgl/src/extra/themes/basic/../../../../src/hal/../draw/../misc/lv_style.h ****     LV_STYLE_OUTLINE_PAD            = 56,
 229:Drivers/lvgl/lvgl/src/extra/themes/basic/../../../../src/hal/../draw/../misc/lv_style.h **** 
 230:Drivers/lvgl/lvgl/src/extra/themes/basic/../../../../src/hal/../draw/../misc/lv_style.h ****     /*Group 4*/
 231:Drivers/lvgl/lvgl/src/extra/themes/basic/../../../../src/hal/../draw/../misc/lv_style.h ****     LV_STYLE_SHADOW_WIDTH           = 64,
 232:Drivers/lvgl/lvgl/src/extra/themes/basic/../../../../src/hal/../draw/../misc/lv_style.h ****     LV_STYLE_SHADOW_OFS_X           = 65,
 233:Drivers/lvgl/lvgl/src/extra/themes/basic/../../../../src/hal/../draw/../misc/lv_style.h ****     LV_STYLE_SHADOW_OFS_Y           = 66,
 234:Drivers/lvgl/lvgl/src/extra/themes/basic/../../../../src/hal/../draw/../misc/lv_style.h ****     LV_STYLE_SHADOW_SPREAD          = 67,
 235:Drivers/lvgl/lvgl/src/extra/themes/basic/../../../../src/hal/../draw/../misc/lv_style.h ****     LV_STYLE_SHADOW_COLOR           = 68,
 236:Drivers/lvgl/lvgl/src/extra/themes/basic/../../../../src/hal/../draw/../misc/lv_style.h ****     LV_STYLE_SHADOW_OPA             = 69,
 237:Drivers/lvgl/lvgl/src/extra/themes/basic/../../../../src/hal/../draw/../misc/lv_style.h ****     LV_STYLE_IMG_OPA                = 70,
 238:Drivers/lvgl/lvgl/src/extra/themes/basic/../../../../src/hal/../draw/../misc/lv_style.h ****     LV_STYLE_IMG_RECOLOR            = 71,
 239:Drivers/lvgl/lvgl/src/extra/themes/basic/../../../../src/hal/../draw/../misc/lv_style.h ****     LV_STYLE_IMG_RECOLOR_OPA        = 72,
 240:Drivers/lvgl/lvgl/src/extra/themes/basic/../../../../src/hal/../draw/../misc/lv_style.h ****     LV_STYLE_LINE_WIDTH             = 73,
 241:Drivers/lvgl/lvgl/src/extra/themes/basic/../../../../src/hal/../draw/../misc/lv_style.h ****     LV_STYLE_LINE_DASH_WIDTH        = 74,
 242:Drivers/lvgl/lvgl/src/extra/themes/basic/../../../../src/hal/../draw/../misc/lv_style.h ****     LV_STYLE_LINE_DASH_GAP          = 75,
 243:Drivers/lvgl/lvgl/src/extra/themes/basic/../../../../src/hal/../draw/../misc/lv_style.h ****     LV_STYLE_LINE_ROUNDED           = 76,
 244:Drivers/lvgl/lvgl/src/extra/themes/basic/../../../../src/hal/../draw/../misc/lv_style.h ****     LV_STYLE_LINE_COLOR             = 77,
 245:Drivers/lvgl/lvgl/src/extra/themes/basic/../../../../src/hal/../draw/../misc/lv_style.h ****     LV_STYLE_LINE_OPA               = 78,
 246:Drivers/lvgl/lvgl/src/extra/themes/basic/../../../../src/hal/../draw/../misc/lv_style.h **** 
 247:Drivers/lvgl/lvgl/src/extra/themes/basic/../../../../src/hal/../draw/../misc/lv_style.h ****     /*Group 5*/
 248:Drivers/lvgl/lvgl/src/extra/themes/basic/../../../../src/hal/../draw/../misc/lv_style.h ****     LV_STYLE_ARC_WIDTH              = 80,
 249:Drivers/lvgl/lvgl/src/extra/themes/basic/../../../../src/hal/../draw/../misc/lv_style.h ****     LV_STYLE_ARC_ROUNDED            = 81,
 250:Drivers/lvgl/lvgl/src/extra/themes/basic/../../../../src/hal/../draw/../misc/lv_style.h ****     LV_STYLE_ARC_COLOR              = 82,
 251:Drivers/lvgl/lvgl/src/extra/themes/basic/../../../../src/hal/../draw/../misc/lv_style.h ****     LV_STYLE_ARC_OPA                = 83,
 252:Drivers/lvgl/lvgl/src/extra/themes/basic/../../../../src/hal/../draw/../misc/lv_style.h ****     LV_STYLE_ARC_IMG_SRC            = 84,
 253:Drivers/lvgl/lvgl/src/extra/themes/basic/../../../../src/hal/../draw/../misc/lv_style.h ****     LV_STYLE_TEXT_COLOR             = 85,
 254:Drivers/lvgl/lvgl/src/extra/themes/basic/../../../../src/hal/../draw/../misc/lv_style.h ****     LV_STYLE_TEXT_OPA               = 86,
 255:Drivers/lvgl/lvgl/src/extra/themes/basic/../../../../src/hal/../draw/../misc/lv_style.h ****     LV_STYLE_TEXT_FONT              = 87,
 256:Drivers/lvgl/lvgl/src/extra/themes/basic/../../../../src/hal/../draw/../misc/lv_style.h ****     LV_STYLE_TEXT_LETTER_SPACE      = 88,
 257:Drivers/lvgl/lvgl/src/extra/themes/basic/../../../../src/hal/../draw/../misc/lv_style.h ****     LV_STYLE_TEXT_LINE_SPACE        = 89,
 258:Drivers/lvgl/lvgl/src/extra/themes/basic/../../../../src/hal/../draw/../misc/lv_style.h ****     LV_STYLE_TEXT_DECOR             = 90,
ARM GAS  /tmp/ccHfA6hY.s 			page 39


 259:Drivers/lvgl/lvgl/src/extra/themes/basic/../../../../src/hal/../draw/../misc/lv_style.h ****     LV_STYLE_TEXT_ALIGN             = 91,
 260:Drivers/lvgl/lvgl/src/extra/themes/basic/../../../../src/hal/../draw/../misc/lv_style.h **** 
 261:Drivers/lvgl/lvgl/src/extra/themes/basic/../../../../src/hal/../draw/../misc/lv_style.h ****     /*Group 6*/
 262:Drivers/lvgl/lvgl/src/extra/themes/basic/../../../../src/hal/../draw/../misc/lv_style.h ****     LV_STYLE_OPA                    = 96,
 263:Drivers/lvgl/lvgl/src/extra/themes/basic/../../../../src/hal/../draw/../misc/lv_style.h ****     LV_STYLE_COLOR_FILTER_DSC       = 97,
 264:Drivers/lvgl/lvgl/src/extra/themes/basic/../../../../src/hal/../draw/../misc/lv_style.h ****     LV_STYLE_COLOR_FILTER_OPA       = 98,
 265:Drivers/lvgl/lvgl/src/extra/themes/basic/../../../../src/hal/../draw/../misc/lv_style.h ****     LV_STYLE_ANIM                   = 99,
 266:Drivers/lvgl/lvgl/src/extra/themes/basic/../../../../src/hal/../draw/../misc/lv_style.h ****     LV_STYLE_ANIM_TIME              = 100,
 267:Drivers/lvgl/lvgl/src/extra/themes/basic/../../../../src/hal/../draw/../misc/lv_style.h ****     LV_STYLE_ANIM_SPEED             = 101,
 268:Drivers/lvgl/lvgl/src/extra/themes/basic/../../../../src/hal/../draw/../misc/lv_style.h ****     LV_STYLE_TRANSITION             = 102,
 269:Drivers/lvgl/lvgl/src/extra/themes/basic/../../../../src/hal/../draw/../misc/lv_style.h ****     LV_STYLE_BLEND_MODE             = 103,
 270:Drivers/lvgl/lvgl/src/extra/themes/basic/../../../../src/hal/../draw/../misc/lv_style.h ****     LV_STYLE_TRANSFORM_WIDTH        = 104,
 271:Drivers/lvgl/lvgl/src/extra/themes/basic/../../../../src/hal/../draw/../misc/lv_style.h ****     LV_STYLE_TRANSFORM_HEIGHT       = 105,
 272:Drivers/lvgl/lvgl/src/extra/themes/basic/../../../../src/hal/../draw/../misc/lv_style.h ****     LV_STYLE_TRANSLATE_X            = 106,
 273:Drivers/lvgl/lvgl/src/extra/themes/basic/../../../../src/hal/../draw/../misc/lv_style.h ****     LV_STYLE_TRANSLATE_Y            = 107,
 274:Drivers/lvgl/lvgl/src/extra/themes/basic/../../../../src/hal/../draw/../misc/lv_style.h ****     LV_STYLE_TRANSFORM_ZOOM         = 108,
 275:Drivers/lvgl/lvgl/src/extra/themes/basic/../../../../src/hal/../draw/../misc/lv_style.h ****     LV_STYLE_TRANSFORM_ANGLE        = 109,
 276:Drivers/lvgl/lvgl/src/extra/themes/basic/../../../../src/hal/../draw/../misc/lv_style.h ****     LV_STYLE_TRANSFORM_PIVOT_X      = 110,
 277:Drivers/lvgl/lvgl/src/extra/themes/basic/../../../../src/hal/../draw/../misc/lv_style.h ****     LV_STYLE_TRANSFORM_PIVOT_Y      = 111,
 278:Drivers/lvgl/lvgl/src/extra/themes/basic/../../../../src/hal/../draw/../misc/lv_style.h **** 
 279:Drivers/lvgl/lvgl/src/extra/themes/basic/../../../../src/hal/../draw/../misc/lv_style.h ****     _LV_STYLE_LAST_BUILT_IN_PROP     = 111,
 280:Drivers/lvgl/lvgl/src/extra/themes/basic/../../../../src/hal/../draw/../misc/lv_style.h ****     _LV_STYLE_NUM_BUILT_IN_PROPS     = _LV_STYLE_LAST_BUILT_IN_PROP + 1,
 281:Drivers/lvgl/lvgl/src/extra/themes/basic/../../../../src/hal/../draw/../misc/lv_style.h **** 
 282:Drivers/lvgl/lvgl/src/extra/themes/basic/../../../../src/hal/../draw/../misc/lv_style.h ****     LV_STYLE_PROP_ANY                = 0xFFFF,
 283:Drivers/lvgl/lvgl/src/extra/themes/basic/../../../../src/hal/../draw/../misc/lv_style.h ****     _LV_STYLE_PROP_CONST             = 0xFFFF /* magic value for const styles */
 284:Drivers/lvgl/lvgl/src/extra/themes/basic/../../../../src/hal/../draw/../misc/lv_style.h **** } lv_style_prop_t;
 285:Drivers/lvgl/lvgl/src/extra/themes/basic/../../../../src/hal/../draw/../misc/lv_style.h **** 
 286:Drivers/lvgl/lvgl/src/extra/themes/basic/../../../../src/hal/../draw/../misc/lv_style.h **** enum {
 287:Drivers/lvgl/lvgl/src/extra/themes/basic/../../../../src/hal/../draw/../misc/lv_style.h ****     LV_STYLE_RES_NOT_FOUND,
 288:Drivers/lvgl/lvgl/src/extra/themes/basic/../../../../src/hal/../draw/../misc/lv_style.h ****     LV_STYLE_RES_FOUND,
 289:Drivers/lvgl/lvgl/src/extra/themes/basic/../../../../src/hal/../draw/../misc/lv_style.h ****     LV_STYLE_RES_INHERIT
 290:Drivers/lvgl/lvgl/src/extra/themes/basic/../../../../src/hal/../draw/../misc/lv_style.h **** };
 291:Drivers/lvgl/lvgl/src/extra/themes/basic/../../../../src/hal/../draw/../misc/lv_style.h **** 
 292:Drivers/lvgl/lvgl/src/extra/themes/basic/../../../../src/hal/../draw/../misc/lv_style.h **** typedef uint8_t lv_style_res_t;
 293:Drivers/lvgl/lvgl/src/extra/themes/basic/../../../../src/hal/../draw/../misc/lv_style.h **** 
 294:Drivers/lvgl/lvgl/src/extra/themes/basic/../../../../src/hal/../draw/../misc/lv_style.h **** /**
 295:Drivers/lvgl/lvgl/src/extra/themes/basic/../../../../src/hal/../draw/../misc/lv_style.h ****  * Descriptor for style transitions
 296:Drivers/lvgl/lvgl/src/extra/themes/basic/../../../../src/hal/../draw/../misc/lv_style.h ****  */
 297:Drivers/lvgl/lvgl/src/extra/themes/basic/../../../../src/hal/../draw/../misc/lv_style.h **** typedef struct {
 298:Drivers/lvgl/lvgl/src/extra/themes/basic/../../../../src/hal/../draw/../misc/lv_style.h ****     const lv_style_prop_t * props; /**< An array with the properties to animate.*/
 299:Drivers/lvgl/lvgl/src/extra/themes/basic/../../../../src/hal/../draw/../misc/lv_style.h **** #if LV_USE_USER_DATA
 300:Drivers/lvgl/lvgl/src/extra/themes/basic/../../../../src/hal/../draw/../misc/lv_style.h ****     void * user_data;              /**< A custom user data that will be passed to the animation's u
 301:Drivers/lvgl/lvgl/src/extra/themes/basic/../../../../src/hal/../draw/../misc/lv_style.h **** #endif
 302:Drivers/lvgl/lvgl/src/extra/themes/basic/../../../../src/hal/../draw/../misc/lv_style.h ****     lv_anim_path_cb_t path_xcb;     /**< A path for the animation.*/
 303:Drivers/lvgl/lvgl/src/extra/themes/basic/../../../../src/hal/../draw/../misc/lv_style.h ****     uint32_t time;                 /**< Duration of the transition in [ms]*/
 304:Drivers/lvgl/lvgl/src/extra/themes/basic/../../../../src/hal/../draw/../misc/lv_style.h ****     uint32_t delay;                /**< Delay before the transition in [ms]*/
 305:Drivers/lvgl/lvgl/src/extra/themes/basic/../../../../src/hal/../draw/../misc/lv_style.h **** } lv_style_transition_dsc_t;
 306:Drivers/lvgl/lvgl/src/extra/themes/basic/../../../../src/hal/../draw/../misc/lv_style.h **** 
 307:Drivers/lvgl/lvgl/src/extra/themes/basic/../../../../src/hal/../draw/../misc/lv_style.h **** /**
 308:Drivers/lvgl/lvgl/src/extra/themes/basic/../../../../src/hal/../draw/../misc/lv_style.h ****  * Descriptor of a constant style property.
 309:Drivers/lvgl/lvgl/src/extra/themes/basic/../../../../src/hal/../draw/../misc/lv_style.h ****  */
 310:Drivers/lvgl/lvgl/src/extra/themes/basic/../../../../src/hal/../draw/../misc/lv_style.h **** typedef struct {
 311:Drivers/lvgl/lvgl/src/extra/themes/basic/../../../../src/hal/../draw/../misc/lv_style.h ****     lv_style_prop_t prop;
 312:Drivers/lvgl/lvgl/src/extra/themes/basic/../../../../src/hal/../draw/../misc/lv_style.h ****     lv_style_value_t value;
 313:Drivers/lvgl/lvgl/src/extra/themes/basic/../../../../src/hal/../draw/../misc/lv_style.h **** } lv_style_const_prop_t;
 314:Drivers/lvgl/lvgl/src/extra/themes/basic/../../../../src/hal/../draw/../misc/lv_style.h **** 
 315:Drivers/lvgl/lvgl/src/extra/themes/basic/../../../../src/hal/../draw/../misc/lv_style.h **** /**
ARM GAS  /tmp/ccHfA6hY.s 			page 40


 316:Drivers/lvgl/lvgl/src/extra/themes/basic/../../../../src/hal/../draw/../misc/lv_style.h ****  * Descriptor of a style (a collection of properties and values).
 317:Drivers/lvgl/lvgl/src/extra/themes/basic/../../../../src/hal/../draw/../misc/lv_style.h ****  */
 318:Drivers/lvgl/lvgl/src/extra/themes/basic/../../../../src/hal/../draw/../misc/lv_style.h **** typedef struct {
 319:Drivers/lvgl/lvgl/src/extra/themes/basic/../../../../src/hal/../draw/../misc/lv_style.h **** 
 320:Drivers/lvgl/lvgl/src/extra/themes/basic/../../../../src/hal/../draw/../misc/lv_style.h **** #if LV_USE_ASSERT_STYLE
 321:Drivers/lvgl/lvgl/src/extra/themes/basic/../../../../src/hal/../draw/../misc/lv_style.h ****     uint32_t sentinel;
 322:Drivers/lvgl/lvgl/src/extra/themes/basic/../../../../src/hal/../draw/../misc/lv_style.h **** #endif
 323:Drivers/lvgl/lvgl/src/extra/themes/basic/../../../../src/hal/../draw/../misc/lv_style.h **** 
 324:Drivers/lvgl/lvgl/src/extra/themes/basic/../../../../src/hal/../draw/../misc/lv_style.h ****     /*If there is only one property store it directly.
 325:Drivers/lvgl/lvgl/src/extra/themes/basic/../../../../src/hal/../draw/../misc/lv_style.h ****      *For more properties allocate an array*/
 326:Drivers/lvgl/lvgl/src/extra/themes/basic/../../../../src/hal/../draw/../misc/lv_style.h ****     union {
 327:Drivers/lvgl/lvgl/src/extra/themes/basic/../../../../src/hal/../draw/../misc/lv_style.h ****         lv_style_value_t value1;
 328:Drivers/lvgl/lvgl/src/extra/themes/basic/../../../../src/hal/../draw/../misc/lv_style.h ****         uint8_t * values_and_props;
 329:Drivers/lvgl/lvgl/src/extra/themes/basic/../../../../src/hal/../draw/../misc/lv_style.h ****         const lv_style_const_prop_t * const_props;
 330:Drivers/lvgl/lvgl/src/extra/themes/basic/../../../../src/hal/../draw/../misc/lv_style.h ****     } v_p;
 331:Drivers/lvgl/lvgl/src/extra/themes/basic/../../../../src/hal/../draw/../misc/lv_style.h **** 
 332:Drivers/lvgl/lvgl/src/extra/themes/basic/../../../../src/hal/../draw/../misc/lv_style.h ****     uint16_t prop1;
 333:Drivers/lvgl/lvgl/src/extra/themes/basic/../../../../src/hal/../draw/../misc/lv_style.h ****     uint8_t has_group;
 334:Drivers/lvgl/lvgl/src/extra/themes/basic/../../../../src/hal/../draw/../misc/lv_style.h ****     uint8_t prop_cnt;
 335:Drivers/lvgl/lvgl/src/extra/themes/basic/../../../../src/hal/../draw/../misc/lv_style.h **** } lv_style_t;
 336:Drivers/lvgl/lvgl/src/extra/themes/basic/../../../../src/hal/../draw/../misc/lv_style.h **** 
 337:Drivers/lvgl/lvgl/src/extra/themes/basic/../../../../src/hal/../draw/../misc/lv_style.h **** /**********************
 338:Drivers/lvgl/lvgl/src/extra/themes/basic/../../../../src/hal/../draw/../misc/lv_style.h ****  * GLOBAL PROTOTYPES
 339:Drivers/lvgl/lvgl/src/extra/themes/basic/../../../../src/hal/../draw/../misc/lv_style.h ****  **********************/
 340:Drivers/lvgl/lvgl/src/extra/themes/basic/../../../../src/hal/../draw/../misc/lv_style.h **** 
 341:Drivers/lvgl/lvgl/src/extra/themes/basic/../../../../src/hal/../draw/../misc/lv_style.h **** 
 342:Drivers/lvgl/lvgl/src/extra/themes/basic/../../../../src/hal/../draw/../misc/lv_style.h **** /**
 343:Drivers/lvgl/lvgl/src/extra/themes/basic/../../../../src/hal/../draw/../misc/lv_style.h ****  * Initialize a style
 344:Drivers/lvgl/lvgl/src/extra/themes/basic/../../../../src/hal/../draw/../misc/lv_style.h ****  * @param style pointer to a style to initialize
 345:Drivers/lvgl/lvgl/src/extra/themes/basic/../../../../src/hal/../draw/../misc/lv_style.h ****  * @note Do not call `lv_style_init` on styles that already have some properties
 346:Drivers/lvgl/lvgl/src/extra/themes/basic/../../../../src/hal/../draw/../misc/lv_style.h ****  *       because this function won't free the used memory, just sets a default state for the style.
 347:Drivers/lvgl/lvgl/src/extra/themes/basic/../../../../src/hal/../draw/../misc/lv_style.h ****  *       In other words be sure to initialize styles only once!
 348:Drivers/lvgl/lvgl/src/extra/themes/basic/../../../../src/hal/../draw/../misc/lv_style.h ****  */
 349:Drivers/lvgl/lvgl/src/extra/themes/basic/../../../../src/hal/../draw/../misc/lv_style.h **** void lv_style_init(lv_style_t * style);
 350:Drivers/lvgl/lvgl/src/extra/themes/basic/../../../../src/hal/../draw/../misc/lv_style.h **** 
 351:Drivers/lvgl/lvgl/src/extra/themes/basic/../../../../src/hal/../draw/../misc/lv_style.h **** /**
 352:Drivers/lvgl/lvgl/src/extra/themes/basic/../../../../src/hal/../draw/../misc/lv_style.h ****  * Clear all properties from a style and free all allocated memories.
 353:Drivers/lvgl/lvgl/src/extra/themes/basic/../../../../src/hal/../draw/../misc/lv_style.h ****  * @param style pointer to a style
 354:Drivers/lvgl/lvgl/src/extra/themes/basic/../../../../src/hal/../draw/../misc/lv_style.h ****  */
 355:Drivers/lvgl/lvgl/src/extra/themes/basic/../../../../src/hal/../draw/../misc/lv_style.h **** void lv_style_reset(lv_style_t * style);
 356:Drivers/lvgl/lvgl/src/extra/themes/basic/../../../../src/hal/../draw/../misc/lv_style.h **** 
 357:Drivers/lvgl/lvgl/src/extra/themes/basic/../../../../src/hal/../draw/../misc/lv_style.h **** /**
 358:Drivers/lvgl/lvgl/src/extra/themes/basic/../../../../src/hal/../draw/../misc/lv_style.h ****  * Register a new style property for custom usage
 359:Drivers/lvgl/lvgl/src/extra/themes/basic/../../../../src/hal/../draw/../misc/lv_style.h ****  * @return a new property ID, or LV_STYLE_PROP_INV if there are no more available.
 360:Drivers/lvgl/lvgl/src/extra/themes/basic/../../../../src/hal/../draw/../misc/lv_style.h ****  * @example
 361:Drivers/lvgl/lvgl/src/extra/themes/basic/../../../../src/hal/../draw/../misc/lv_style.h ****  * lv_style_prop_t MY_PROP;
 362:Drivers/lvgl/lvgl/src/extra/themes/basic/../../../../src/hal/../draw/../misc/lv_style.h ****  * static inline void lv_style_set_my_prop(lv_style_t * style, lv_color_t value) {
 363:Drivers/lvgl/lvgl/src/extra/themes/basic/../../../../src/hal/../draw/../misc/lv_style.h ****  * lv_style_value_t v = {.color = value}; lv_style_set_prop(style, MY_PROP, v); }
 364:Drivers/lvgl/lvgl/src/extra/themes/basic/../../../../src/hal/../draw/../misc/lv_style.h ****  *
 365:Drivers/lvgl/lvgl/src/extra/themes/basic/../../../../src/hal/../draw/../misc/lv_style.h ****  * ...
 366:Drivers/lvgl/lvgl/src/extra/themes/basic/../../../../src/hal/../draw/../misc/lv_style.h ****  * MY_PROP = lv_style_register_prop();
 367:Drivers/lvgl/lvgl/src/extra/themes/basic/../../../../src/hal/../draw/../misc/lv_style.h ****  * ...
 368:Drivers/lvgl/lvgl/src/extra/themes/basic/../../../../src/hal/../draw/../misc/lv_style.h ****  * lv_style_set_my_prop(&style1, lv_palette_main(LV_PALETTE_RED));
 369:Drivers/lvgl/lvgl/src/extra/themes/basic/../../../../src/hal/../draw/../misc/lv_style.h ****  */
 370:Drivers/lvgl/lvgl/src/extra/themes/basic/../../../../src/hal/../draw/../misc/lv_style.h **** lv_style_prop_t lv_style_register_prop(uint8_t flag);
 371:Drivers/lvgl/lvgl/src/extra/themes/basic/../../../../src/hal/../draw/../misc/lv_style.h **** 
 372:Drivers/lvgl/lvgl/src/extra/themes/basic/../../../../src/hal/../draw/../misc/lv_style.h **** /**
ARM GAS  /tmp/ccHfA6hY.s 			page 41


 373:Drivers/lvgl/lvgl/src/extra/themes/basic/../../../../src/hal/../draw/../misc/lv_style.h ****  * Get the number of custom properties that have been registered thus far.
 374:Drivers/lvgl/lvgl/src/extra/themes/basic/../../../../src/hal/../draw/../misc/lv_style.h ****  */
 375:Drivers/lvgl/lvgl/src/extra/themes/basic/../../../../src/hal/../draw/../misc/lv_style.h **** lv_style_prop_t lv_style_get_num_custom_props(void);
 376:Drivers/lvgl/lvgl/src/extra/themes/basic/../../../../src/hal/../draw/../misc/lv_style.h **** 
 377:Drivers/lvgl/lvgl/src/extra/themes/basic/../../../../src/hal/../draw/../misc/lv_style.h **** /**
 378:Drivers/lvgl/lvgl/src/extra/themes/basic/../../../../src/hal/../draw/../misc/lv_style.h ****  * Remove a property from a style
 379:Drivers/lvgl/lvgl/src/extra/themes/basic/../../../../src/hal/../draw/../misc/lv_style.h ****  * @param style pointer to a style
 380:Drivers/lvgl/lvgl/src/extra/themes/basic/../../../../src/hal/../draw/../misc/lv_style.h ****  * @param prop  a style property ORed with a state.
 381:Drivers/lvgl/lvgl/src/extra/themes/basic/../../../../src/hal/../draw/../misc/lv_style.h ****  * @return true: the property was found and removed; false: the property wasn't found
 382:Drivers/lvgl/lvgl/src/extra/themes/basic/../../../../src/hal/../draw/../misc/lv_style.h ****  */
 383:Drivers/lvgl/lvgl/src/extra/themes/basic/../../../../src/hal/../draw/../misc/lv_style.h **** bool lv_style_remove_prop(lv_style_t * style, lv_style_prop_t prop);
 384:Drivers/lvgl/lvgl/src/extra/themes/basic/../../../../src/hal/../draw/../misc/lv_style.h **** 
 385:Drivers/lvgl/lvgl/src/extra/themes/basic/../../../../src/hal/../draw/../misc/lv_style.h **** /**
 386:Drivers/lvgl/lvgl/src/extra/themes/basic/../../../../src/hal/../draw/../misc/lv_style.h ****  * Set the value of property in a style.
 387:Drivers/lvgl/lvgl/src/extra/themes/basic/../../../../src/hal/../draw/../misc/lv_style.h ****  * This function shouldn't be used directly by the user.
 388:Drivers/lvgl/lvgl/src/extra/themes/basic/../../../../src/hal/../draw/../misc/lv_style.h ****  * Instead use `lv_style_set_<prop_name>()`. E.g. `lv_style_set_bg_color()`
 389:Drivers/lvgl/lvgl/src/extra/themes/basic/../../../../src/hal/../draw/../misc/lv_style.h ****  * @param style pointer to style
 390:Drivers/lvgl/lvgl/src/extra/themes/basic/../../../../src/hal/../draw/../misc/lv_style.h ****  * @param prop the ID of a property (e.g. `LV_STYLE_BG_COLOR`)
 391:Drivers/lvgl/lvgl/src/extra/themes/basic/../../../../src/hal/../draw/../misc/lv_style.h ****  * @param value `lv_style_value_t` variable in which a field is set according to the type of `prop`
 392:Drivers/lvgl/lvgl/src/extra/themes/basic/../../../../src/hal/../draw/../misc/lv_style.h ****  */
 393:Drivers/lvgl/lvgl/src/extra/themes/basic/../../../../src/hal/../draw/../misc/lv_style.h **** void lv_style_set_prop(lv_style_t * style, lv_style_prop_t prop, lv_style_value_t value);
 394:Drivers/lvgl/lvgl/src/extra/themes/basic/../../../../src/hal/../draw/../misc/lv_style.h **** 
 395:Drivers/lvgl/lvgl/src/extra/themes/basic/../../../../src/hal/../draw/../misc/lv_style.h **** /**
 396:Drivers/lvgl/lvgl/src/extra/themes/basic/../../../../src/hal/../draw/../misc/lv_style.h ****  * Set a special meta state for a property in a style.
 397:Drivers/lvgl/lvgl/src/extra/themes/basic/../../../../src/hal/../draw/../misc/lv_style.h ****  * This function shouldn't be used directly by the user.
 398:Drivers/lvgl/lvgl/src/extra/themes/basic/../../../../src/hal/../draw/../misc/lv_style.h ****  * @param style pointer to style
 399:Drivers/lvgl/lvgl/src/extra/themes/basic/../../../../src/hal/../draw/../misc/lv_style.h ****  * @param prop the ID of a property (e.g. `LV_STYLE_BG_COLOR`)
 400:Drivers/lvgl/lvgl/src/extra/themes/basic/../../../../src/hal/../draw/../misc/lv_style.h ****  * @param meta the meta value to attach to the property in the style
 401:Drivers/lvgl/lvgl/src/extra/themes/basic/../../../../src/hal/../draw/../misc/lv_style.h ****  */
 402:Drivers/lvgl/lvgl/src/extra/themes/basic/../../../../src/hal/../draw/../misc/lv_style.h **** void lv_style_set_prop_meta(lv_style_t * style, lv_style_prop_t prop, uint16_t meta);
 403:Drivers/lvgl/lvgl/src/extra/themes/basic/../../../../src/hal/../draw/../misc/lv_style.h **** 
 404:Drivers/lvgl/lvgl/src/extra/themes/basic/../../../../src/hal/../draw/../misc/lv_style.h **** /**
 405:Drivers/lvgl/lvgl/src/extra/themes/basic/../../../../src/hal/../draw/../misc/lv_style.h ****  * Get the value of a property
 406:Drivers/lvgl/lvgl/src/extra/themes/basic/../../../../src/hal/../draw/../misc/lv_style.h ****  * @param style pointer to a style
 407:Drivers/lvgl/lvgl/src/extra/themes/basic/../../../../src/hal/../draw/../misc/lv_style.h ****  * @param prop  the ID of a property
 408:Drivers/lvgl/lvgl/src/extra/themes/basic/../../../../src/hal/../draw/../misc/lv_style.h ****  * @param value pointer to a `lv_style_value_t` variable to store the value
 409:Drivers/lvgl/lvgl/src/extra/themes/basic/../../../../src/hal/../draw/../misc/lv_style.h ****  * @return LV_RES_INV: the property wasn't found in the style (`value` is unchanged)
 410:Drivers/lvgl/lvgl/src/extra/themes/basic/../../../../src/hal/../draw/../misc/lv_style.h ****  *         LV_RES_OK: the property was fond, and `value` is set accordingly
 411:Drivers/lvgl/lvgl/src/extra/themes/basic/../../../../src/hal/../draw/../misc/lv_style.h ****  * @note For performance reasons there are no sanity check on `style`
 412:Drivers/lvgl/lvgl/src/extra/themes/basic/../../../../src/hal/../draw/../misc/lv_style.h ****  */
 413:Drivers/lvgl/lvgl/src/extra/themes/basic/../../../../src/hal/../draw/../misc/lv_style.h **** lv_style_res_t lv_style_get_prop(const lv_style_t * style, lv_style_prop_t prop, lv_style_value_t *
 414:Drivers/lvgl/lvgl/src/extra/themes/basic/../../../../src/hal/../draw/../misc/lv_style.h **** 
 415:Drivers/lvgl/lvgl/src/extra/themes/basic/../../../../src/hal/../draw/../misc/lv_style.h **** /**
 416:Drivers/lvgl/lvgl/src/extra/themes/basic/../../../../src/hal/../draw/../misc/lv_style.h ****  * Initialize a transition descriptor.
 417:Drivers/lvgl/lvgl/src/extra/themes/basic/../../../../src/hal/../draw/../misc/lv_style.h ****  * @param tr        pointer to a transition descriptor to initialize
 418:Drivers/lvgl/lvgl/src/extra/themes/basic/../../../../src/hal/../draw/../misc/lv_style.h ****  * @param props     an array with the properties to transition. The last element must be zero.
 419:Drivers/lvgl/lvgl/src/extra/themes/basic/../../../../src/hal/../draw/../misc/lv_style.h ****  * @param path_cb   an animation path (ease) callback. If `NULL` liner path will be used.
 420:Drivers/lvgl/lvgl/src/extra/themes/basic/../../../../src/hal/../draw/../misc/lv_style.h ****  * @param time      duration of the transition in [ms]
 421:Drivers/lvgl/lvgl/src/extra/themes/basic/../../../../src/hal/../draw/../misc/lv_style.h ****  * @param delay     delay before the transition in [ms]
 422:Drivers/lvgl/lvgl/src/extra/themes/basic/../../../../src/hal/../draw/../misc/lv_style.h ****  * @param user_data any custom data that will be saved in the transition animation and will be avai
 423:Drivers/lvgl/lvgl/src/extra/themes/basic/../../../../src/hal/../draw/../misc/lv_style.h ****  * @example
 424:Drivers/lvgl/lvgl/src/extra/themes/basic/../../../../src/hal/../draw/../misc/lv_style.h ****  * const static lv_style_prop_t trans_props[] = { LV_STYLE_BG_OPA, LV_STYLE_BG_COLOR, 0 };
 425:Drivers/lvgl/lvgl/src/extra/themes/basic/../../../../src/hal/../draw/../misc/lv_style.h ****  *  static lv_style_transition_dsc_t trans1;
 426:Drivers/lvgl/lvgl/src/extra/themes/basic/../../../../src/hal/../draw/../misc/lv_style.h ****  *  lv_style_transition_dsc_init(&trans1, trans_props, NULL, 300, 0, NULL);
 427:Drivers/lvgl/lvgl/src/extra/themes/basic/../../../../src/hal/../draw/../misc/lv_style.h ****  */
 428:Drivers/lvgl/lvgl/src/extra/themes/basic/../../../../src/hal/../draw/../misc/lv_style.h **** void lv_style_transition_dsc_init(lv_style_transition_dsc_t * tr, const lv_style_prop_t props[],
 429:Drivers/lvgl/lvgl/src/extra/themes/basic/../../../../src/hal/../draw/../misc/lv_style.h ****                                   lv_anim_path_cb_t path_cb, uint32_t time, uint32_t delay, void * 
ARM GAS  /tmp/ccHfA6hY.s 			page 42


 430:Drivers/lvgl/lvgl/src/extra/themes/basic/../../../../src/hal/../draw/../misc/lv_style.h **** 
 431:Drivers/lvgl/lvgl/src/extra/themes/basic/../../../../src/hal/../draw/../misc/lv_style.h **** /**
 432:Drivers/lvgl/lvgl/src/extra/themes/basic/../../../../src/hal/../draw/../misc/lv_style.h ****  * Get the default value of a property
 433:Drivers/lvgl/lvgl/src/extra/themes/basic/../../../../src/hal/../draw/../misc/lv_style.h ****  * @param prop the ID of a property
 434:Drivers/lvgl/lvgl/src/extra/themes/basic/../../../../src/hal/../draw/../misc/lv_style.h ****  * @return the default value
 435:Drivers/lvgl/lvgl/src/extra/themes/basic/../../../../src/hal/../draw/../misc/lv_style.h ****  */
 436:Drivers/lvgl/lvgl/src/extra/themes/basic/../../../../src/hal/../draw/../misc/lv_style.h **** lv_style_value_t lv_style_prop_get_default(lv_style_prop_t prop);
 437:Drivers/lvgl/lvgl/src/extra/themes/basic/../../../../src/hal/../draw/../misc/lv_style.h **** 
 438:Drivers/lvgl/lvgl/src/extra/themes/basic/../../../../src/hal/../draw/../misc/lv_style.h **** /**
 439:Drivers/lvgl/lvgl/src/extra/themes/basic/../../../../src/hal/../draw/../misc/lv_style.h ****  * Get the value of a property
 440:Drivers/lvgl/lvgl/src/extra/themes/basic/../../../../src/hal/../draw/../misc/lv_style.h ****  * @param style pointer to a style
 441:Drivers/lvgl/lvgl/src/extra/themes/basic/../../../../src/hal/../draw/../misc/lv_style.h ****  * @param prop  the ID of a property
 442:Drivers/lvgl/lvgl/src/extra/themes/basic/../../../../src/hal/../draw/../misc/lv_style.h ****  * @param value pointer to a `lv_style_value_t` variable to store the value
 443:Drivers/lvgl/lvgl/src/extra/themes/basic/../../../../src/hal/../draw/../misc/lv_style.h ****  * @return LV_RES_INV: the property wasn't found in the style (`value` is unchanged)
 444:Drivers/lvgl/lvgl/src/extra/themes/basic/../../../../src/hal/../draw/../misc/lv_style.h ****  *         LV_RES_OK: the property was fond, and `value` is set accordingly
 445:Drivers/lvgl/lvgl/src/extra/themes/basic/../../../../src/hal/../draw/../misc/lv_style.h ****  * @note For performance reasons there are no sanity check on `style`
 446:Drivers/lvgl/lvgl/src/extra/themes/basic/../../../../src/hal/../draw/../misc/lv_style.h ****  * @note This function is the same as ::lv_style_get_prop but inlined. Use it only on performance c
 447:Drivers/lvgl/lvgl/src/extra/themes/basic/../../../../src/hal/../draw/../misc/lv_style.h ****  */
 448:Drivers/lvgl/lvgl/src/extra/themes/basic/../../../../src/hal/../draw/../misc/lv_style.h **** static inline lv_style_res_t lv_style_get_prop_inlined(const lv_style_t * style, lv_style_prop_t pr
 449:Drivers/lvgl/lvgl/src/extra/themes/basic/../../../../src/hal/../draw/../misc/lv_style.h ****                                                        lv_style_value_t * value)
 450:Drivers/lvgl/lvgl/src/extra/themes/basic/../../../../src/hal/../draw/../misc/lv_style.h **** {
 451:Drivers/lvgl/lvgl/src/extra/themes/basic/../../../../src/hal/../draw/../misc/lv_style.h ****     if(style->prop1 == LV_STYLE_PROP_ANY) {
 452:Drivers/lvgl/lvgl/src/extra/themes/basic/../../../../src/hal/../draw/../misc/lv_style.h ****         const lv_style_const_prop_t * const_prop;
 453:Drivers/lvgl/lvgl/src/extra/themes/basic/../../../../src/hal/../draw/../misc/lv_style.h ****         uint32_t i;
 454:Drivers/lvgl/lvgl/src/extra/themes/basic/../../../../src/hal/../draw/../misc/lv_style.h ****         for(i = 0; i < style->prop_cnt; i++) {
 455:Drivers/lvgl/lvgl/src/extra/themes/basic/../../../../src/hal/../draw/../misc/lv_style.h ****             const_prop = style->v_p.const_props + i;
 456:Drivers/lvgl/lvgl/src/extra/themes/basic/../../../../src/hal/../draw/../misc/lv_style.h ****             lv_style_prop_t prop_id = LV_STYLE_PROP_ID_MASK(const_prop->prop);
 457:Drivers/lvgl/lvgl/src/extra/themes/basic/../../../../src/hal/../draw/../misc/lv_style.h ****             if(prop_id == prop) {
 458:Drivers/lvgl/lvgl/src/extra/themes/basic/../../../../src/hal/../draw/../misc/lv_style.h ****                 if(const_prop->prop & LV_STYLE_PROP_META_INHERIT)
 459:Drivers/lvgl/lvgl/src/extra/themes/basic/../../../../src/hal/../draw/../misc/lv_style.h ****                     return LV_STYLE_RES_INHERIT;
 460:Drivers/lvgl/lvgl/src/extra/themes/basic/../../../../src/hal/../draw/../misc/lv_style.h ****                 *value = (const_prop->prop & LV_STYLE_PROP_META_INITIAL) ? lv_style_prop_get_defaul
 461:Drivers/lvgl/lvgl/src/extra/themes/basic/../../../../src/hal/../draw/../misc/lv_style.h ****                 return LV_STYLE_RES_FOUND;
 462:Drivers/lvgl/lvgl/src/extra/themes/basic/../../../../src/hal/../draw/../misc/lv_style.h ****             }
 463:Drivers/lvgl/lvgl/src/extra/themes/basic/../../../../src/hal/../draw/../misc/lv_style.h ****         }
 464:Drivers/lvgl/lvgl/src/extra/themes/basic/../../../../src/hal/../draw/../misc/lv_style.h ****         return LV_STYLE_RES_NOT_FOUND;
 465:Drivers/lvgl/lvgl/src/extra/themes/basic/../../../../src/hal/../draw/../misc/lv_style.h ****     }
 466:Drivers/lvgl/lvgl/src/extra/themes/basic/../../../../src/hal/../draw/../misc/lv_style.h **** 
 467:Drivers/lvgl/lvgl/src/extra/themes/basic/../../../../src/hal/../draw/../misc/lv_style.h ****     if(style->prop_cnt == 0) return LV_STYLE_RES_NOT_FOUND;
 468:Drivers/lvgl/lvgl/src/extra/themes/basic/../../../../src/hal/../draw/../misc/lv_style.h **** 
 469:Drivers/lvgl/lvgl/src/extra/themes/basic/../../../../src/hal/../draw/../misc/lv_style.h ****     if(style->prop_cnt > 1) {
 470:Drivers/lvgl/lvgl/src/extra/themes/basic/../../../../src/hal/../draw/../misc/lv_style.h ****         uint8_t * tmp = style->v_p.values_and_props + style->prop_cnt * sizeof(lv_style_value_t);
 471:Drivers/lvgl/lvgl/src/extra/themes/basic/../../../../src/hal/../draw/../misc/lv_style.h ****         uint16_t * props = (uint16_t *)tmp;
 472:Drivers/lvgl/lvgl/src/extra/themes/basic/../../../../src/hal/../draw/../misc/lv_style.h ****         uint32_t i;
 473:Drivers/lvgl/lvgl/src/extra/themes/basic/../../../../src/hal/../draw/../misc/lv_style.h ****         for(i = 0; i < style->prop_cnt; i++) {
 474:Drivers/lvgl/lvgl/src/extra/themes/basic/../../../../src/hal/../draw/../misc/lv_style.h ****             lv_style_prop_t prop_id = LV_STYLE_PROP_ID_MASK(props[i]);
 475:Drivers/lvgl/lvgl/src/extra/themes/basic/../../../../src/hal/../draw/../misc/lv_style.h ****             if(prop_id == prop) {
 476:Drivers/lvgl/lvgl/src/extra/themes/basic/../../../../src/hal/../draw/../misc/lv_style.h ****                 if(props[i] & LV_STYLE_PROP_META_INHERIT)
 477:Drivers/lvgl/lvgl/src/extra/themes/basic/../../../../src/hal/../draw/../misc/lv_style.h ****                     return LV_STYLE_RES_INHERIT;
 478:Drivers/lvgl/lvgl/src/extra/themes/basic/../../../../src/hal/../draw/../misc/lv_style.h ****                 if(props[i] & LV_STYLE_PROP_META_INITIAL)
 479:Drivers/lvgl/lvgl/src/extra/themes/basic/../../../../src/hal/../draw/../misc/lv_style.h ****                     *value = lv_style_prop_get_default(prop_id);
 480:Drivers/lvgl/lvgl/src/extra/themes/basic/../../../../src/hal/../draw/../misc/lv_style.h ****                 else {
 481:Drivers/lvgl/lvgl/src/extra/themes/basic/../../../../src/hal/../draw/../misc/lv_style.h ****                     lv_style_value_t * values = (lv_style_value_t *)style->v_p.values_and_props;
 482:Drivers/lvgl/lvgl/src/extra/themes/basic/../../../../src/hal/../draw/../misc/lv_style.h ****                     *value = values[i];
 483:Drivers/lvgl/lvgl/src/extra/themes/basic/../../../../src/hal/../draw/../misc/lv_style.h ****                 }
 484:Drivers/lvgl/lvgl/src/extra/themes/basic/../../../../src/hal/../draw/../misc/lv_style.h ****                 return LV_STYLE_RES_FOUND;
 485:Drivers/lvgl/lvgl/src/extra/themes/basic/../../../../src/hal/../draw/../misc/lv_style.h ****             }
 486:Drivers/lvgl/lvgl/src/extra/themes/basic/../../../../src/hal/../draw/../misc/lv_style.h ****         }
ARM GAS  /tmp/ccHfA6hY.s 			page 43


 487:Drivers/lvgl/lvgl/src/extra/themes/basic/../../../../src/hal/../draw/../misc/lv_style.h ****     }
 488:Drivers/lvgl/lvgl/src/extra/themes/basic/../../../../src/hal/../draw/../misc/lv_style.h ****     else if(LV_STYLE_PROP_ID_MASK(style->prop1) == prop) {
 489:Drivers/lvgl/lvgl/src/extra/themes/basic/../../../../src/hal/../draw/../misc/lv_style.h ****         if(style->prop1 & LV_STYLE_PROP_META_INHERIT)
 490:Drivers/lvgl/lvgl/src/extra/themes/basic/../../../../src/hal/../draw/../misc/lv_style.h ****             return LV_STYLE_RES_INHERIT;
 491:Drivers/lvgl/lvgl/src/extra/themes/basic/../../../../src/hal/../draw/../misc/lv_style.h ****         *value = (style->prop1 & LV_STYLE_PROP_META_INITIAL) ? lv_style_prop_get_default(LV_STYLE_P
 492:Drivers/lvgl/lvgl/src/extra/themes/basic/../../../../src/hal/../draw/../misc/lv_style.h ****                                                                                              style-
 493:Drivers/lvgl/lvgl/src/extra/themes/basic/../../../../src/hal/../draw/../misc/lv_style.h ****         return LV_STYLE_RES_FOUND;
 494:Drivers/lvgl/lvgl/src/extra/themes/basic/../../../../src/hal/../draw/../misc/lv_style.h ****     }
 495:Drivers/lvgl/lvgl/src/extra/themes/basic/../../../../src/hal/../draw/../misc/lv_style.h ****     return LV_STYLE_RES_NOT_FOUND;
 496:Drivers/lvgl/lvgl/src/extra/themes/basic/../../../../src/hal/../draw/../misc/lv_style.h **** }
 497:Drivers/lvgl/lvgl/src/extra/themes/basic/../../../../src/hal/../draw/../misc/lv_style.h **** 
 498:Drivers/lvgl/lvgl/src/extra/themes/basic/../../../../src/hal/../draw/../misc/lv_style.h **** /**
 499:Drivers/lvgl/lvgl/src/extra/themes/basic/../../../../src/hal/../draw/../misc/lv_style.h ****  * Checks if a style is empty (has no properties)
 500:Drivers/lvgl/lvgl/src/extra/themes/basic/../../../../src/hal/../draw/../misc/lv_style.h ****  * @param style pointer to a style
 501:Drivers/lvgl/lvgl/src/extra/themes/basic/../../../../src/hal/../draw/../misc/lv_style.h ****  * @return true if the style is empty
 502:Drivers/lvgl/lvgl/src/extra/themes/basic/../../../../src/hal/../draw/../misc/lv_style.h ****  */
 503:Drivers/lvgl/lvgl/src/extra/themes/basic/../../../../src/hal/../draw/../misc/lv_style.h **** bool lv_style_is_empty(const lv_style_t * style);
 504:Drivers/lvgl/lvgl/src/extra/themes/basic/../../../../src/hal/../draw/../misc/lv_style.h **** 
 505:Drivers/lvgl/lvgl/src/extra/themes/basic/../../../../src/hal/../draw/../misc/lv_style.h **** /**
 506:Drivers/lvgl/lvgl/src/extra/themes/basic/../../../../src/hal/../draw/../misc/lv_style.h ****  * Tell the group of a property. If the a property from a group is set in a style the (1 << group) 
 507:Drivers/lvgl/lvgl/src/extra/themes/basic/../../../../src/hal/../draw/../misc/lv_style.h ****  * It allows early skipping the style if the property is not exists in the style at all.
 508:Drivers/lvgl/lvgl/src/extra/themes/basic/../../../../src/hal/../draw/../misc/lv_style.h ****  * @param prop a style property
 509:Drivers/lvgl/lvgl/src/extra/themes/basic/../../../../src/hal/../draw/../misc/lv_style.h ****  * @return the group [0..7] 7 means all the custom properties with index > 112
 510:Drivers/lvgl/lvgl/src/extra/themes/basic/../../../../src/hal/../draw/../misc/lv_style.h ****  */
 511:Drivers/lvgl/lvgl/src/extra/themes/basic/../../../../src/hal/../draw/../misc/lv_style.h **** uint8_t _lv_style_get_prop_group(lv_style_prop_t prop);
 512:Drivers/lvgl/lvgl/src/extra/themes/basic/../../../../src/hal/../draw/../misc/lv_style.h **** 
 513:Drivers/lvgl/lvgl/src/extra/themes/basic/../../../../src/hal/../draw/../misc/lv_style.h **** /**
 514:Drivers/lvgl/lvgl/src/extra/themes/basic/../../../../src/hal/../draw/../misc/lv_style.h ****  * Get the flags of a built-in or custom property.
 515:Drivers/lvgl/lvgl/src/extra/themes/basic/../../../../src/hal/../draw/../misc/lv_style.h ****  *
 516:Drivers/lvgl/lvgl/src/extra/themes/basic/../../../../src/hal/../draw/../misc/lv_style.h ****  * @param prop a style property
 517:Drivers/lvgl/lvgl/src/extra/themes/basic/../../../../src/hal/../draw/../misc/lv_style.h ****  * @return the flags of the property
 518:Drivers/lvgl/lvgl/src/extra/themes/basic/../../../../src/hal/../draw/../misc/lv_style.h ****  */
 519:Drivers/lvgl/lvgl/src/extra/themes/basic/../../../../src/hal/../draw/../misc/lv_style.h **** uint8_t _lv_style_prop_lookup_flags(lv_style_prop_t prop);
 520:Drivers/lvgl/lvgl/src/extra/themes/basic/../../../../src/hal/../draw/../misc/lv_style.h **** 
 521:Drivers/lvgl/lvgl/src/extra/themes/basic/../../../../src/hal/../draw/../misc/lv_style.h **** #include "lv_style_gen.h"
 522:Drivers/lvgl/lvgl/src/extra/themes/basic/../../../../src/hal/../draw/../misc/lv_style.h **** 
 523:Drivers/lvgl/lvgl/src/extra/themes/basic/../../../../src/hal/../draw/../misc/lv_style.h **** static inline void lv_style_set_size(lv_style_t * style, lv_coord_t value)
 524:Drivers/lvgl/lvgl/src/extra/themes/basic/../../../../src/hal/../draw/../misc/lv_style.h **** {
 525:Drivers/lvgl/lvgl/src/extra/themes/basic/../../../../src/hal/../draw/../misc/lv_style.h ****     lv_style_set_width(style, value);
 526:Drivers/lvgl/lvgl/src/extra/themes/basic/../../../../src/hal/../draw/../misc/lv_style.h ****     lv_style_set_height(style, value);
 527:Drivers/lvgl/lvgl/src/extra/themes/basic/../../../../src/hal/../draw/../misc/lv_style.h **** }
 528:Drivers/lvgl/lvgl/src/extra/themes/basic/../../../../src/hal/../draw/../misc/lv_style.h **** 
 529:Drivers/lvgl/lvgl/src/extra/themes/basic/../../../../src/hal/../draw/../misc/lv_style.h **** static inline void lv_style_set_pad_all(lv_style_t * style, lv_coord_t value)
 530:Drivers/lvgl/lvgl/src/extra/themes/basic/../../../../src/hal/../draw/../misc/lv_style.h **** {
 531:Drivers/lvgl/lvgl/src/extra/themes/basic/../../../../src/hal/../draw/../misc/lv_style.h ****     lv_style_set_pad_left(style, value);
 1333              		.loc 2 531 0
 1334 01fe 0521     		movs	r1, #5
 1335 0200 2846     		mov	r0, r5
 1336 0202 FFF7FEFF 		bl	lv_style_set_pad_left
 1337              	.LVL184:
 532:Drivers/lvgl/lvgl/src/extra/themes/basic/../../../../src/hal/../draw/../misc/lv_style.h ****     lv_style_set_pad_right(style, value);
 1338              		.loc 2 532 0
 1339 0206 0521     		movs	r1, #5
 1340 0208 2846     		mov	r0, r5
 1341 020a FFF7FEFF 		bl	lv_style_set_pad_right
 1342              	.LVL185:
 533:Drivers/lvgl/lvgl/src/extra/themes/basic/../../../../src/hal/../draw/../misc/lv_style.h ****     lv_style_set_pad_top(style, value);
ARM GAS  /tmp/ccHfA6hY.s 			page 44


 1343              		.loc 2 533 0
 1344 020e 0521     		movs	r1, #5
 1345 0210 2846     		mov	r0, r5
 1346 0212 FFF7FEFF 		bl	lv_style_set_pad_top
 1347              	.LVL186:
 534:Drivers/lvgl/lvgl/src/extra/themes/basic/../../../../src/hal/../draw/../misc/lv_style.h ****     lv_style_set_pad_bottom(style, value);
 1348              		.loc 2 534 0
 1349 0216 0521     		movs	r1, #5
 1350 0218 2846     		mov	r0, r5
 1351 021a FFF7FEFF 		bl	lv_style_set_pad_bottom
 1352              	.LVL187:
 1353              	.LBE30:
 1354              	.LBE29:
 124:Drivers/lvgl/lvgl/src/extra/themes/basic/lv_theme_basic.c ****     lv_style_set_border_side(&styles->ta_cursor, LV_BORDER_SIDE_LEFT);
 1355              		.loc 1 124 0
 1356 021e 2068     		ldr	r0, [r4]
 1357 0220 4830     		adds	r0, r0, #72
 1358 0222 FFF7FEFF 		bl	style_init_reset
 1359              	.LVL188:
 125:Drivers/lvgl/lvgl/src/extra/themes/basic/lv_theme_basic.c ****     lv_style_set_border_color(&styles->ta_cursor, COLOR_DIM);
 1360              		.loc 1 125 0
 1361 0226 2068     		ldr	r0, [r4]
 1362 0228 0421     		movs	r1, #4
 1363 022a 4830     		adds	r0, r0, #72
 1364 022c FFF7FEFF 		bl	lv_style_set_border_side
 1365              	.LVL189:
 126:Drivers/lvgl/lvgl/src/extra/themes/basic/lv_theme_basic.c ****     lv_style_set_border_width(&styles->ta_cursor, 2);
 1366              		.loc 1 126 0
 1367 0230 2568     		ldr	r5, [r4]
 1368 0232 0221     		movs	r1, #2
 1369 0234 1220     		movs	r0, #18
 1370 0236 FFF7FEFF 		bl	lv_palette_darken
 1371              	.LVL190:
 1372 023a 0146     		mov	r1, r0	@ movhi
 1373 023c 05F14800 		add	r0, r5, #72
 1374 0240 FFF7FEFF 		bl	lv_style_set_border_color
 1375              	.LVL191:
 127:Drivers/lvgl/lvgl/src/extra/themes/basic/lv_theme_basic.c ****     lv_style_set_bg_opa(&styles->ta_cursor, LV_OPA_TRANSP);
 1376              		.loc 1 127 0
 1377 0244 2068     		ldr	r0, [r4]
 1378 0246 0221     		movs	r1, #2
 1379 0248 4830     		adds	r0, r0, #72
 1380 024a FFF7FEFF 		bl	lv_style_set_border_width
 1381              	.LVL192:
 128:Drivers/lvgl/lvgl/src/extra/themes/basic/lv_theme_basic.c ****     lv_style_set_anim_time(&styles->ta_cursor, 500);
 1382              		.loc 1 128 0
 1383 024e 2068     		ldr	r0, [r4]
 1384 0250 0021     		movs	r1, #0
 1385 0252 4830     		adds	r0, r0, #72
 1386 0254 FFF7FEFF 		bl	lv_style_set_bg_opa
 1387              	.LVL193:
 129:Drivers/lvgl/lvgl/src/extra/themes/basic/lv_theme_basic.c **** #endif
 1388              		.loc 1 129 0
 1389 0258 2068     		ldr	r0, [r4]
 1390 025a 4FF4FA71 		mov	r1, #500
 1391 025e 4830     		adds	r0, r0, #72
 1392 0260 FFF7FEFF 		bl	lv_style_set_anim_time
ARM GAS  /tmp/ccHfA6hY.s 			page 45


 1393              	.LVL194:
 131:Drivers/lvgl/lvgl/src/extra/themes/basic/lv_theme_basic.c **** 
 1394              		.loc 1 131 0
 1395 0264 38BD     		pop	{r3, r4, r5, pc}
 1396              	.L71:
 1397 0266 00BF     		.align	2
 1398              	.L70:
 1399 0268 00000000 		.word	.LANCHOR0
 1400              		.cfi_endproc
 1401              	.LFE202:
 1403              		.section	.text.lv_theme_basic_is_inited,"ax",%progbits
 1404              		.align	1
 1405              		.global	lv_theme_basic_is_inited
 1406              		.syntax unified
 1407              		.thumb
 1408              		.thumb_func
 1409              		.fpu fpv5-d16
 1411              	lv_theme_basic_is_inited:
 1412              	.LFB203:
 139:Drivers/lvgl/lvgl/src/extra/themes/basic/lv_theme_basic.c ****     return  LV_GC_ROOT(_lv_theme_basic_styles) == NULL ? false : true;
 1413              		.loc 1 139 0
 1414              		.cfi_startproc
 1415              		@ args = 0, pretend = 0, frame = 0
 1416              		@ frame_needed = 0, uses_anonymous_args = 0
 1417              		@ link register save eliminated.
 140:Drivers/lvgl/lvgl/src/extra/themes/basic/lv_theme_basic.c **** }
 1418              		.loc 1 140 0
 1419 0000 024B     		ldr	r3, .L73
 1420 0002 1868     		ldr	r0, [r3]
 141:Drivers/lvgl/lvgl/src/extra/themes/basic/lv_theme_basic.c **** 
 1421              		.loc 1 141 0
 1422 0004 0030     		adds	r0, r0, #0
 1423 0006 18BF     		it	ne
 1424 0008 0120     		movne	r0, #1
 1425 000a 7047     		bx	lr
 1426              	.L74:
 1427              		.align	2
 1428              	.L73:
 1429 000c 00000000 		.word	_lv_theme_basic_styles
 1430              		.cfi_endproc
 1431              	.LFE203:
 1433              		.section	.text.lv_theme_basic_init,"ax",%progbits
 1434              		.align	1
 1435              		.global	lv_theme_basic_init
 1436              		.syntax unified
 1437              		.thumb
 1438              		.thumb_func
 1439              		.fpu fpv5-d16
 1441              	lv_theme_basic_init:
 1442              	.LFB204:
 144:Drivers/lvgl/lvgl/src/extra/themes/basic/lv_theme_basic.c **** 
 1443              		.loc 1 144 0
 1444              		.cfi_startproc
 1445              		@ args = 0, pretend = 0, frame = 0
 1446              		@ frame_needed = 0, uses_anonymous_args = 0
 1447              	.LVL195:
 1448 0000 10B5     		push	{r4, lr}
ARM GAS  /tmp/ccHfA6hY.s 			page 46


 1449              	.LCFI3:
 1450              		.cfi_def_cfa_offset 8
 1451              		.cfi_offset 4, -8
 1452              		.cfi_offset 14, -4
 1453 0002 0446     		mov	r4, r0
 149:Drivers/lvgl/lvgl/src/extra/themes/basic/lv_theme_basic.c ****         inited = false;
 1454              		.loc 1 149 0
 1455 0004 FFF7FEFF 		bl	lv_theme_basic_is_inited
 1456              	.LVL196:
 1457 0008 C0B1     		cbz	r0, .L80
 1458              	.L76:
 155:Drivers/lvgl/lvgl/src/extra/themes/basic/lv_theme_basic.c ****     theme.font_small = LV_FONT_DEFAULT;
 1459              		.loc 1 155 0
 1460 000a 124B     		ldr	r3, .L81
 1461 000c DC60     		str	r4, [r3, #12]
 156:Drivers/lvgl/lvgl/src/extra/themes/basic/lv_theme_basic.c ****     theme.font_normal = LV_FONT_DEFAULT;
 1462              		.loc 1 156 0
 1463 000e 124A     		ldr	r2, .L81+4
 1464 0010 5A61     		str	r2, [r3, #20]
 157:Drivers/lvgl/lvgl/src/extra/themes/basic/lv_theme_basic.c ****     theme.font_large = LV_FONT_DEFAULT;
 1465              		.loc 1 157 0
 1466 0012 9A61     		str	r2, [r3, #24]
 158:Drivers/lvgl/lvgl/src/extra/themes/basic/lv_theme_basic.c ****     theme.apply_cb = theme_apply;
 1467              		.loc 1 158 0
 1468 0014 DA61     		str	r2, [r3, #28]
 159:Drivers/lvgl/lvgl/src/extra/themes/basic/lv_theme_basic.c **** 
 1469              		.loc 1 159 0
 1470 0016 114A     		ldr	r2, .L81+8
 1471 0018 1A60     		str	r2, [r3]
 161:Drivers/lvgl/lvgl/src/extra/themes/basic/lv_theme_basic.c **** 
 1472              		.loc 1 161 0
 1473 001a FFF7FEFF 		bl	style_init
 1474              	.LVL197:
 163:Drivers/lvgl/lvgl/src/extra/themes/basic/lv_theme_basic.c ****         lv_obj_report_style_change(NULL);
 1475              		.loc 1 163 0
 1476 001e 2CB1     		cbz	r4, .L77
 163:Drivers/lvgl/lvgl/src/extra/themes/basic/lv_theme_basic.c ****         lv_obj_report_style_change(NULL);
 1477              		.loc 1 163 0 is_stmt 0 discriminator 1
 1478 0020 2046     		mov	r0, r4
 1479 0022 FFF7FEFF 		bl	lv_disp_get_theme
 1480              	.LVL198:
 1481 0026 0B4B     		ldr	r3, .L81
 1482 0028 8342     		cmp	r3, r0
 1483 002a 02D1     		bne	.L78
 1484              	.L77:
 164:Drivers/lvgl/lvgl/src/extra/themes/basic/lv_theme_basic.c ****     }
 1485              		.loc 1 164 0 is_stmt 1
 1486 002c 0020     		movs	r0, #0
 1487 002e FFF7FEFF 		bl	lv_obj_report_style_change
 1488              	.LVL199:
 1489              	.L78:
 167:Drivers/lvgl/lvgl/src/extra/themes/basic/lv_theme_basic.c **** 
 1490              		.loc 1 167 0
 1491 0032 0B4B     		ldr	r3, .L81+12
 1492 0034 0122     		movs	r2, #1
 1493 0036 1A70     		strb	r2, [r3]
 170:Drivers/lvgl/lvgl/src/extra/themes/basic/lv_theme_basic.c **** 
ARM GAS  /tmp/ccHfA6hY.s 			page 47


 1494              		.loc 1 170 0
 1495 0038 0648     		ldr	r0, .L81
 1496 003a 10BD     		pop	{r4, pc}
 1497              	.LVL200:
 1498              	.L80:
 150:Drivers/lvgl/lvgl/src/extra/themes/basic/lv_theme_basic.c ****         LV_GC_ROOT(_lv_theme_basic_styles) = lv_mem_alloc(sizeof(my_theme_styles_t));
 1499              		.loc 1 150 0
 1500 003c 084B     		ldr	r3, .L81+12
 1501 003e 0022     		movs	r2, #0
 1502 0040 1A70     		strb	r2, [r3]
 151:Drivers/lvgl/lvgl/src/extra/themes/basic/lv_theme_basic.c ****         styles = (my_theme_styles_t *)LV_GC_ROOT(_lv_theme_basic_styles);
 1503              		.loc 1 151 0
 1504 0042 5020     		movs	r0, #80
 1505 0044 FFF7FEFF 		bl	lv_mem_alloc
 1506              	.LVL201:
 1507 0048 064B     		ldr	r3, .L81+16
 1508 004a 1860     		str	r0, [r3]
 152:Drivers/lvgl/lvgl/src/extra/themes/basic/lv_theme_basic.c ****     }
 1509              		.loc 1 152 0
 1510 004c 064B     		ldr	r3, .L81+20
 1511 004e 1860     		str	r0, [r3]
 1512 0050 DBE7     		b	.L76
 1513              	.L82:
 1514 0052 00BF     		.align	2
 1515              	.L81:
 1516 0054 00000000 		.word	.LANCHOR2
 1517 0058 00000000 		.word	lv_font_montserrat_14
 1518 005c 00000000 		.word	theme_apply
 1519 0060 00000000 		.word	.LANCHOR1
 1520 0064 00000000 		.word	_lv_theme_basic_styles
 1521 0068 00000000 		.word	.LANCHOR0
 1522              		.cfi_endproc
 1523              	.LFE204:
 1525              		.section	.bss.inited,"aw",%nobits
 1526              		.set	.LANCHOR1,. + 0
 1529              	inited:
 1530 0000 00       		.space	1
 1531              		.section	.bss.styles,"aw",%nobits
 1532              		.align	2
 1533              		.set	.LANCHOR0,. + 0
 1536              	styles:
 1537 0000 00000000 		.space	4
 1538              		.section	.bss.theme,"aw",%nobits
 1539              		.align	2
 1540              		.set	.LANCHOR2,. + 0
 1543              	theme:
 1544 0000 00000000 		.space	36
 1544      00000000 
 1544      00000000 
 1544      00000000 
 1544      00000000 
 1545              		.text
 1546              	.Letext0:
 1547              		.file 3 "/opt/gcc-arm-none-eabi-7-2017-q4-major/arm-none-eabi/include/machine/_default_types.h"
 1548              		.file 4 "/opt/gcc-arm-none-eabi-7-2017-q4-major/arm-none-eabi/include/sys/_stdint.h"
 1549              		.file 5 "Drivers/lvgl/lvgl/src/extra/themes/basic/../../../../src/misc/lv_types.h"
 1550              		.file 6 "Drivers/lvgl/lvgl/src/extra/themes/basic/../../../../src/misc/lv_timer.h"
ARM GAS  /tmp/ccHfA6hY.s 			page 48


 1551              		.file 7 "/opt/gcc-arm-none-eabi-7-2017-q4-major/lib/gcc/arm-none-eabi/7.2.1/include/stddef.h"
 1552              		.file 8 "/opt/gcc-arm-none-eabi-7-2017-q4-major/arm-none-eabi/include/sys/lock.h"
 1553              		.file 9 "/opt/gcc-arm-none-eabi-7-2017-q4-major/arm-none-eabi/include/sys/_types.h"
 1554              		.file 10 "/opt/gcc-arm-none-eabi-7-2017-q4-major/arm-none-eabi/include/sys/reent.h"
 1555              		.file 11 "Drivers/lvgl/lvgl/src/extra/themes/basic/../../../../src/misc/lv_mem.h"
 1556              		.file 12 "Drivers/lvgl/lvgl/src/extra/themes/basic/../../../../src/hal/../draw/../misc/../font/../
 1557              		.file 13 "Drivers/lvgl/lvgl/src/extra/themes/basic/../../../../src/hal/../draw/../misc/../font/lv_
 1558              		.file 14 "Drivers/lvgl/lvgl/src/extra/themes/basic/../../../../src/hal/../draw/../misc/lv_color.h"
 1559              		.file 15 "Drivers/lvgl/lvgl/src/extra/themes/basic/../../../../src/hal/../draw/../misc/lv_txt.h"
 1560              		.file 16 "Drivers/lvgl/lvgl/src/extra/themes/basic/../../../../src/hal/../draw/../misc/lv_bidi.h"
 1561              		.file 17 "Drivers/lvgl/lvgl/src/extra/themes/basic/../../../../src/hal/../draw/lv_img_buf.h"
 1562              		.file 18 "Drivers/lvgl/lvgl/src/extra/themes/basic/../../../../src/hal/../draw/lv_img_decoder.h"
 1563              		.file 19 "Drivers/lvgl/lvgl/src/extra/themes/basic/../../../../src/hal/../draw/lv_img_cache.h"
 1564              		.file 20 "Drivers/lvgl/lvgl/src/extra/themes/basic/../../../../src/hal/../draw/sw/../../core/lv_ob
 1565              		.file 21 "Drivers/lvgl/lvgl/src/extra/themes/basic/../../../../src/core/lv_obj.h"
 1566              		.file 22 "Drivers/lvgl/lvgl/src/extra/themes/basic/../../../../src/hal/../draw/lv_draw_rect.h"
 1567              		.file 23 "Drivers/lvgl/lvgl/src/extra/themes/basic/../../../../src/hal/../draw/lv_draw_label.h"
 1568              		.file 24 "Drivers/lvgl/lvgl/src/extra/themes/basic/../../../../src/hal/../draw/lv_draw_img.h"
 1569              		.file 25 "Drivers/lvgl/lvgl/src/extra/themes/basic/../../../../src/hal/../draw/lv_draw_line.h"
 1570              		.file 26 "Drivers/lvgl/lvgl/src/extra/themes/basic/../../../../src/hal/../draw/lv_draw_arc.h"
 1571              		.file 27 "Drivers/lvgl/lvgl/src/extra/themes/basic/../../../../src/hal/../draw/lv_draw_mask.h"
 1572              		.file 28 "Drivers/lvgl/lvgl/src/extra/themes/basic/../../../../src/hal/../draw/lv_draw_layer.h"
 1573              		.file 29 "Drivers/lvgl/lvgl/src/extra/themes/basic/../../../../src/hal/../draw/lv_draw.h"
 1574              		.file 30 "Drivers/lvgl/lvgl/src/extra/themes/basic/../../../../src/hal/../misc/lv_ll.h"
 1575              		.file 31 "Drivers/lvgl/lvgl/src/extra/themes/basic/../../../../src/hal/lv_hal_disp.h"
 1576              		.file 32 "Drivers/lvgl/lvgl/src/extra/themes/basic/../../../../src/core/lv_theme.h"
 1577              		.file 33 "Drivers/lvgl/lvgl/src/extra/themes/basic/../../../../src/core/lv_group.h"
 1578              		.file 34 "Drivers/lvgl/lvgl/src/extra/themes/basic/../../../../src/core/lv_obj_scroll.h"
 1579              		.file 35 "Drivers/lvgl/lvgl/src/extra/themes/basic/../../../../src/core/lv_obj_style.h"
 1580              		.file 36 "Drivers/lvgl/lvgl/src/extra/themes/basic/../../../../src/core/lv_obj_class.h"
 1581              		.file 37 "Drivers/lvgl/lvgl/src/extra/themes/basic/../../../../src/core/lv_event.h"
 1582              		.file 38 "Drivers/lvgl/lvgl/src/extra/themes/basic/../../../../src/widgets/lv_arc.h"
 1583              		.file 39 "Drivers/lvgl/lvgl/src/extra/themes/basic/../../../../src/widgets/lv_btn.h"
 1584              		.file 40 "Drivers/lvgl/lvgl/src/extra/themes/basic/../../../../src/widgets/lv_img.h"
 1585              		.file 41 "Drivers/lvgl/lvgl/src/extra/themes/basic/../../../../src/widgets/lv_label.h"
 1586              		.file 42 "Drivers/lvgl/lvgl/src/extra/themes/basic/../../../../src/widgets/lv_line.h"
 1587              		.file 43 "Drivers/lvgl/lvgl/src/extra/themes/basic/../../../../src/widgets/lv_table.h"
 1588              		.file 44 "Drivers/lvgl/lvgl/src/extra/themes/basic/../../../../src/widgets/lv_checkbox.h"
 1589              		.file 45 "Drivers/lvgl/lvgl/src/extra/themes/basic/../../../../src/widgets/lv_bar.h"
 1590              		.file 46 "Drivers/lvgl/lvgl/src/extra/themes/basic/../../../../src/widgets/lv_slider.h"
 1591              		.file 47 "Drivers/lvgl/lvgl/src/extra/themes/basic/../../../../src/widgets/lv_btnmatrix.h"
 1592              		.file 48 "Drivers/lvgl/lvgl/src/extra/themes/basic/../../../../src/widgets/lv_dropdown.h"
 1593              		.file 49 "Drivers/lvgl/lvgl/src/extra/themes/basic/../../../../src/widgets/lv_roller.h"
 1594              		.file 50 "Drivers/lvgl/lvgl/src/extra/themes/basic/../../../../src/widgets/lv_textarea.h"
 1595              		.file 51 "Drivers/lvgl/lvgl/src/extra/themes/basic/../../../../src/widgets/lv_canvas.h"
 1596              		.file 52 "Drivers/lvgl/lvgl/src/extra/themes/basic/../../../../src/widgets/lv_switch.h"
 1597              		.file 53 "Drivers/lvgl/lvgl/src/extra/themes/basic/../../../../src/extra/layouts/flex/lv_flex.h"
 1598              		.file 54 "Drivers/lvgl/lvgl/src/extra/themes/basic/../../../../src/extra/layouts/grid/lv_grid.h"
 1599              		.file 55 "Drivers/lvgl/lvgl/src/extra/themes/basic/../../../../src/extra/widgets/animimg/lv_animim
 1600              		.file 56 "Drivers/lvgl/lvgl/src/extra/themes/basic/../../../../src/extra/widgets/calendar/lv_calen
 1601              		.file 57 "Drivers/lvgl/lvgl/src/extra/themes/basic/../../../../src/extra/widgets/calendar/lv_calen
 1602              		.file 58 "Drivers/lvgl/lvgl/src/extra/themes/basic/../../../../src/extra/widgets/calendar/lv_calen
 1603              		.file 59 "Drivers/lvgl/lvgl/src/extra/themes/basic/../../../../src/extra/widgets/chart/lv_chart.h"
 1604              		.file 60 "Drivers/lvgl/lvgl/src/extra/themes/basic/../../../../src/extra/widgets/keyboard/lv_keybo
 1605              		.file 61 "Drivers/lvgl/lvgl/src/extra/themes/basic/../../../../src/extra/widgets/list/lv_list.h"
 1606              		.file 62 "Drivers/lvgl/lvgl/src/extra/themes/basic/../../../../src/extra/widgets/menu/lv_menu.h"
 1607              		.file 63 "Drivers/lvgl/lvgl/src/extra/themes/basic/../../../../src/extra/widgets/msgbox/lv_msgbox.
ARM GAS  /tmp/ccHfA6hY.s 			page 49


 1608              		.file 64 "Drivers/lvgl/lvgl/src/extra/themes/basic/../../../../src/extra/widgets/meter/lv_meter.h"
 1609              		.file 65 "Drivers/lvgl/lvgl/src/extra/themes/basic/../../../../src/extra/widgets/spinbox/lv_spinbo
 1610              		.file 66 "Drivers/lvgl/lvgl/src/extra/themes/basic/../../../../src/extra/widgets/spinner/lv_spinne
 1611              		.file 67 "Drivers/lvgl/lvgl/src/extra/themes/basic/../../../../src/extra/widgets/tabview/lv_tabvie
 1612              		.file 68 "Drivers/lvgl/lvgl/src/extra/themes/basic/../../../../src/extra/widgets/tileview/lv_tilev
 1613              		.file 69 "Drivers/lvgl/lvgl/src/extra/themes/basic/../../../../src/extra/widgets/win/lv_win.h"
 1614              		.file 70 "Drivers/lvgl/lvgl/src/extra/themes/basic/../../../../src/extra/widgets/colorwheel/lv_col
 1615              		.file 71 "Drivers/lvgl/lvgl/src/extra/themes/basic/../../../../src/extra/widgets/led/lv_led.h"
 1616              		.file 72 "Drivers/lvgl/lvgl/src/extra/themes/basic/../../../../src/extra/widgets/imgbtn/lv_imgbtn.
 1617              		.file 73 "Drivers/lvgl/lvgl/src/extra/themes/basic/../../../../src/extra/widgets/span/lv_span.h"
 1618              		.file 74 "Drivers/lvgl/lvgl/src/extra/themes/basic/../../../misc/lv_gc.h"
 1619              		.file 75 "Drivers/lvgl/lvgl/src/extra/themes/basic/../../../../src/core/lv_obj_tree.h"
 1620              		.file 76 "Drivers/lvgl/lvgl/src/extra/themes/basic/../../../../src/core/lv_disp.h"
 1621              		.file 77 "Drivers/lvgl/lvgl/src/extra/themes/basic/../../../../src/hal/../draw/../misc/lv_style_ge
ARM GAS  /tmp/ccHfA6hY.s 			page 50

