ARM GAS  /tmp/cc6wDDAF.s 			page 1


   1              		.cpu cortex-m7
   2              		.eabi_attribute 28, 1
   3              		.eabi_attribute 20, 1
   4              		.eabi_attribute 21, 1
   5              		.eabi_attribute 23, 3
   6              		.eabi_attribute 24, 1
   7              		.eabi_attribute 25, 1
   8              		.eabi_attribute 26, 1
   9              		.eabi_attribute 30, 1
  10              		.eabi_attribute 34, 1
  11              		.eabi_attribute 18, 4
  12              		.file	"lv_theme_default.c"
  13              		.text
  14              	.Ltext0:
  15              		.cfi_sections	.debug_frame
  16              		.section	.text.theme_apply,"ax",%progbits
  17              		.align	1
  18              		.syntax unified
  19              		.thumb
  20              		.thumb_func
  21              		.fpu fpv5-d16
  23              	theme_apply:
  24              	.LFB208:
  25              		.file 1 "Drivers/lvgl/lvgl/src/extra/themes/default/lv_theme_default.c"
   1:Drivers/lvgl/lvgl/src/extra/themes/default/lv_theme_default.c **** /**
   2:Drivers/lvgl/lvgl/src/extra/themes/default/lv_theme_default.c ****  * @file lv_theme_default.c
   3:Drivers/lvgl/lvgl/src/extra/themes/default/lv_theme_default.c ****  *
   4:Drivers/lvgl/lvgl/src/extra/themes/default/lv_theme_default.c ****  */
   5:Drivers/lvgl/lvgl/src/extra/themes/default/lv_theme_default.c **** 
   6:Drivers/lvgl/lvgl/src/extra/themes/default/lv_theme_default.c **** /*********************
   7:Drivers/lvgl/lvgl/src/extra/themes/default/lv_theme_default.c ****  *      INCLUDES
   8:Drivers/lvgl/lvgl/src/extra/themes/default/lv_theme_default.c ****  *********************/
   9:Drivers/lvgl/lvgl/src/extra/themes/default/lv_theme_default.c **** #include "../../../lvgl.h" /*To see all the widgets*/
  10:Drivers/lvgl/lvgl/src/extra/themes/default/lv_theme_default.c **** 
  11:Drivers/lvgl/lvgl/src/extra/themes/default/lv_theme_default.c **** #if LV_USE_THEME_DEFAULT
  12:Drivers/lvgl/lvgl/src/extra/themes/default/lv_theme_default.c **** 
  13:Drivers/lvgl/lvgl/src/extra/themes/default/lv_theme_default.c **** #include "lv_theme_default.h"
  14:Drivers/lvgl/lvgl/src/extra/themes/default/lv_theme_default.c **** #include "../../../misc/lv_gc.h"
  15:Drivers/lvgl/lvgl/src/extra/themes/default/lv_theme_default.c **** 
  16:Drivers/lvgl/lvgl/src/extra/themes/default/lv_theme_default.c **** /*********************
  17:Drivers/lvgl/lvgl/src/extra/themes/default/lv_theme_default.c ****  *      DEFINES
  18:Drivers/lvgl/lvgl/src/extra/themes/default/lv_theme_default.c ****  *********************/
  19:Drivers/lvgl/lvgl/src/extra/themes/default/lv_theme_default.c **** #define MODE_DARK 1
  20:Drivers/lvgl/lvgl/src/extra/themes/default/lv_theme_default.c **** #define RADIUS_DEFAULT (disp_size == DISP_LARGE ? lv_disp_dpx(theme.disp, 12) : lv_disp_dpx(theme.d
  21:Drivers/lvgl/lvgl/src/extra/themes/default/lv_theme_default.c **** 
  22:Drivers/lvgl/lvgl/src/extra/themes/default/lv_theme_default.c **** /*SCREEN*/
  23:Drivers/lvgl/lvgl/src/extra/themes/default/lv_theme_default.c **** #define LIGHT_COLOR_SCR        lv_palette_lighten(LV_PALETTE_GREY, 4)
  24:Drivers/lvgl/lvgl/src/extra/themes/default/lv_theme_default.c **** #define LIGHT_COLOR_CARD       lv_color_white()
  25:Drivers/lvgl/lvgl/src/extra/themes/default/lv_theme_default.c **** #define LIGHT_COLOR_TEXT       lv_palette_darken(LV_PALETTE_GREY, 4)
  26:Drivers/lvgl/lvgl/src/extra/themes/default/lv_theme_default.c **** #define LIGHT_COLOR_GREY       lv_palette_lighten(LV_PALETTE_GREY, 2)
  27:Drivers/lvgl/lvgl/src/extra/themes/default/lv_theme_default.c **** #define DARK_COLOR_SCR         lv_color_hex(0x15171A)
  28:Drivers/lvgl/lvgl/src/extra/themes/default/lv_theme_default.c **** #define DARK_COLOR_CARD        lv_color_hex(0x282b30)
  29:Drivers/lvgl/lvgl/src/extra/themes/default/lv_theme_default.c **** #define DARK_COLOR_TEXT        lv_palette_lighten(LV_PALETTE_GREY, 5)
  30:Drivers/lvgl/lvgl/src/extra/themes/default/lv_theme_default.c **** #define DARK_COLOR_GREY        lv_color_hex(0x2f3237)
  31:Drivers/lvgl/lvgl/src/extra/themes/default/lv_theme_default.c **** 
  32:Drivers/lvgl/lvgl/src/extra/themes/default/lv_theme_default.c **** #define TRANSITION_TIME         LV_THEME_DEFAULT_TRANSITION_TIME
  33:Drivers/lvgl/lvgl/src/extra/themes/default/lv_theme_default.c **** #define BORDER_WIDTH            lv_disp_dpx(theme.disp, 2)
ARM GAS  /tmp/cc6wDDAF.s 			page 2


  34:Drivers/lvgl/lvgl/src/extra/themes/default/lv_theme_default.c **** #define OUTLINE_WIDTH           lv_disp_dpx(theme.disp, 3)
  35:Drivers/lvgl/lvgl/src/extra/themes/default/lv_theme_default.c **** 
  36:Drivers/lvgl/lvgl/src/extra/themes/default/lv_theme_default.c **** #define PAD_DEF     (disp_size == DISP_LARGE ? lv_disp_dpx(theme.disp, 24) : disp_size == DISP_MEDI
  37:Drivers/lvgl/lvgl/src/extra/themes/default/lv_theme_default.c **** #define PAD_SMALL   (disp_size == DISP_LARGE ? lv_disp_dpx(theme.disp, 14) : disp_size == DISP_MEDI
  38:Drivers/lvgl/lvgl/src/extra/themes/default/lv_theme_default.c **** #define PAD_TINY   (disp_size == DISP_LARGE ? lv_disp_dpx(theme.disp, 8) : disp_size == DISP_MEDIUM
  39:Drivers/lvgl/lvgl/src/extra/themes/default/lv_theme_default.c **** 
  40:Drivers/lvgl/lvgl/src/extra/themes/default/lv_theme_default.c **** /**********************
  41:Drivers/lvgl/lvgl/src/extra/themes/default/lv_theme_default.c ****  *      TYPEDEFS
  42:Drivers/lvgl/lvgl/src/extra/themes/default/lv_theme_default.c ****  **********************/
  43:Drivers/lvgl/lvgl/src/extra/themes/default/lv_theme_default.c **** typedef struct {
  44:Drivers/lvgl/lvgl/src/extra/themes/default/lv_theme_default.c ****     lv_style_t scr;
  45:Drivers/lvgl/lvgl/src/extra/themes/default/lv_theme_default.c ****     lv_style_t scrollbar;
  46:Drivers/lvgl/lvgl/src/extra/themes/default/lv_theme_default.c ****     lv_style_t scrollbar_scrolled;
  47:Drivers/lvgl/lvgl/src/extra/themes/default/lv_theme_default.c ****     lv_style_t card;
  48:Drivers/lvgl/lvgl/src/extra/themes/default/lv_theme_default.c ****     lv_style_t btn;
  49:Drivers/lvgl/lvgl/src/extra/themes/default/lv_theme_default.c **** 
  50:Drivers/lvgl/lvgl/src/extra/themes/default/lv_theme_default.c ****     /*Utility*/
  51:Drivers/lvgl/lvgl/src/extra/themes/default/lv_theme_default.c ****     lv_style_t bg_color_primary;
  52:Drivers/lvgl/lvgl/src/extra/themes/default/lv_theme_default.c ****     lv_style_t bg_color_primary_muted;
  53:Drivers/lvgl/lvgl/src/extra/themes/default/lv_theme_default.c ****     lv_style_t bg_color_secondary;
  54:Drivers/lvgl/lvgl/src/extra/themes/default/lv_theme_default.c ****     lv_style_t bg_color_secondary_muted;
  55:Drivers/lvgl/lvgl/src/extra/themes/default/lv_theme_default.c ****     lv_style_t bg_color_grey;
  56:Drivers/lvgl/lvgl/src/extra/themes/default/lv_theme_default.c ****     lv_style_t bg_color_white;
  57:Drivers/lvgl/lvgl/src/extra/themes/default/lv_theme_default.c ****     lv_style_t pressed;
  58:Drivers/lvgl/lvgl/src/extra/themes/default/lv_theme_default.c ****     lv_style_t disabled;
  59:Drivers/lvgl/lvgl/src/extra/themes/default/lv_theme_default.c ****     lv_style_t pad_zero;
  60:Drivers/lvgl/lvgl/src/extra/themes/default/lv_theme_default.c ****     lv_style_t pad_tiny;
  61:Drivers/lvgl/lvgl/src/extra/themes/default/lv_theme_default.c ****     lv_style_t pad_small;
  62:Drivers/lvgl/lvgl/src/extra/themes/default/lv_theme_default.c ****     lv_style_t pad_normal;
  63:Drivers/lvgl/lvgl/src/extra/themes/default/lv_theme_default.c ****     lv_style_t pad_gap;
  64:Drivers/lvgl/lvgl/src/extra/themes/default/lv_theme_default.c ****     lv_style_t line_space_large;
  65:Drivers/lvgl/lvgl/src/extra/themes/default/lv_theme_default.c ****     lv_style_t text_align_center;
  66:Drivers/lvgl/lvgl/src/extra/themes/default/lv_theme_default.c ****     lv_style_t outline_primary;
  67:Drivers/lvgl/lvgl/src/extra/themes/default/lv_theme_default.c ****     lv_style_t outline_secondary;
  68:Drivers/lvgl/lvgl/src/extra/themes/default/lv_theme_default.c ****     lv_style_t circle;
  69:Drivers/lvgl/lvgl/src/extra/themes/default/lv_theme_default.c ****     lv_style_t no_radius;
  70:Drivers/lvgl/lvgl/src/extra/themes/default/lv_theme_default.c ****     lv_style_t clip_corner;
  71:Drivers/lvgl/lvgl/src/extra/themes/default/lv_theme_default.c **** #if LV_THEME_DEFAULT_GROW
  72:Drivers/lvgl/lvgl/src/extra/themes/default/lv_theme_default.c ****     lv_style_t grow;
  73:Drivers/lvgl/lvgl/src/extra/themes/default/lv_theme_default.c **** #endif
  74:Drivers/lvgl/lvgl/src/extra/themes/default/lv_theme_default.c ****     lv_style_t transition_delayed;
  75:Drivers/lvgl/lvgl/src/extra/themes/default/lv_theme_default.c ****     lv_style_t transition_normal;
  76:Drivers/lvgl/lvgl/src/extra/themes/default/lv_theme_default.c ****     lv_style_t anim;
  77:Drivers/lvgl/lvgl/src/extra/themes/default/lv_theme_default.c ****     lv_style_t anim_fast;
  78:Drivers/lvgl/lvgl/src/extra/themes/default/lv_theme_default.c **** 
  79:Drivers/lvgl/lvgl/src/extra/themes/default/lv_theme_default.c ****     /*Parts*/
  80:Drivers/lvgl/lvgl/src/extra/themes/default/lv_theme_default.c ****     lv_style_t knob;
  81:Drivers/lvgl/lvgl/src/extra/themes/default/lv_theme_default.c ****     lv_style_t indic;
  82:Drivers/lvgl/lvgl/src/extra/themes/default/lv_theme_default.c **** 
  83:Drivers/lvgl/lvgl/src/extra/themes/default/lv_theme_default.c **** #if LV_USE_ARC
  84:Drivers/lvgl/lvgl/src/extra/themes/default/lv_theme_default.c ****     lv_style_t arc_indic;
  85:Drivers/lvgl/lvgl/src/extra/themes/default/lv_theme_default.c ****     lv_style_t arc_indic_primary;
  86:Drivers/lvgl/lvgl/src/extra/themes/default/lv_theme_default.c **** #endif
  87:Drivers/lvgl/lvgl/src/extra/themes/default/lv_theme_default.c **** 
  88:Drivers/lvgl/lvgl/src/extra/themes/default/lv_theme_default.c **** #if LV_USE_CHART
  89:Drivers/lvgl/lvgl/src/extra/themes/default/lv_theme_default.c ****     lv_style_t chart_series, chart_indic, chart_ticks, chart_bg;
  90:Drivers/lvgl/lvgl/src/extra/themes/default/lv_theme_default.c **** #endif
ARM GAS  /tmp/cc6wDDAF.s 			page 3


  91:Drivers/lvgl/lvgl/src/extra/themes/default/lv_theme_default.c **** 
  92:Drivers/lvgl/lvgl/src/extra/themes/default/lv_theme_default.c **** #if LV_USE_DROPDOWN
  93:Drivers/lvgl/lvgl/src/extra/themes/default/lv_theme_default.c ****     lv_style_t dropdown_list;
  94:Drivers/lvgl/lvgl/src/extra/themes/default/lv_theme_default.c **** #endif
  95:Drivers/lvgl/lvgl/src/extra/themes/default/lv_theme_default.c **** 
  96:Drivers/lvgl/lvgl/src/extra/themes/default/lv_theme_default.c **** #if LV_USE_CHECKBOX
  97:Drivers/lvgl/lvgl/src/extra/themes/default/lv_theme_default.c ****     lv_style_t cb_marker, cb_marker_checked;
  98:Drivers/lvgl/lvgl/src/extra/themes/default/lv_theme_default.c **** #endif
  99:Drivers/lvgl/lvgl/src/extra/themes/default/lv_theme_default.c **** 
 100:Drivers/lvgl/lvgl/src/extra/themes/default/lv_theme_default.c **** #if LV_USE_SWITCH
 101:Drivers/lvgl/lvgl/src/extra/themes/default/lv_theme_default.c ****     lv_style_t switch_knob;
 102:Drivers/lvgl/lvgl/src/extra/themes/default/lv_theme_default.c **** #endif
 103:Drivers/lvgl/lvgl/src/extra/themes/default/lv_theme_default.c **** 
 104:Drivers/lvgl/lvgl/src/extra/themes/default/lv_theme_default.c **** #if LV_USE_LINE
 105:Drivers/lvgl/lvgl/src/extra/themes/default/lv_theme_default.c ****     lv_style_t line;
 106:Drivers/lvgl/lvgl/src/extra/themes/default/lv_theme_default.c **** #endif
 107:Drivers/lvgl/lvgl/src/extra/themes/default/lv_theme_default.c **** 
 108:Drivers/lvgl/lvgl/src/extra/themes/default/lv_theme_default.c **** #if LV_USE_TABLE
 109:Drivers/lvgl/lvgl/src/extra/themes/default/lv_theme_default.c ****     lv_style_t table_cell;
 110:Drivers/lvgl/lvgl/src/extra/themes/default/lv_theme_default.c **** #endif
 111:Drivers/lvgl/lvgl/src/extra/themes/default/lv_theme_default.c **** 
 112:Drivers/lvgl/lvgl/src/extra/themes/default/lv_theme_default.c **** #if LV_USE_METER
 113:Drivers/lvgl/lvgl/src/extra/themes/default/lv_theme_default.c ****     lv_style_t meter_marker, meter_indic;
 114:Drivers/lvgl/lvgl/src/extra/themes/default/lv_theme_default.c **** #endif
 115:Drivers/lvgl/lvgl/src/extra/themes/default/lv_theme_default.c **** 
 116:Drivers/lvgl/lvgl/src/extra/themes/default/lv_theme_default.c **** #if LV_USE_TEXTAREA
 117:Drivers/lvgl/lvgl/src/extra/themes/default/lv_theme_default.c ****     lv_style_t ta_cursor, ta_placeholder;
 118:Drivers/lvgl/lvgl/src/extra/themes/default/lv_theme_default.c **** #endif
 119:Drivers/lvgl/lvgl/src/extra/themes/default/lv_theme_default.c **** 
 120:Drivers/lvgl/lvgl/src/extra/themes/default/lv_theme_default.c **** #if LV_USE_CALENDAR
 121:Drivers/lvgl/lvgl/src/extra/themes/default/lv_theme_default.c ****     lv_style_t calendar_btnm_bg, calendar_btnm_day, calendar_header;
 122:Drivers/lvgl/lvgl/src/extra/themes/default/lv_theme_default.c **** #endif
 123:Drivers/lvgl/lvgl/src/extra/themes/default/lv_theme_default.c **** 
 124:Drivers/lvgl/lvgl/src/extra/themes/default/lv_theme_default.c **** #if LV_USE_COLORWHEEL
 125:Drivers/lvgl/lvgl/src/extra/themes/default/lv_theme_default.c ****     lv_style_t colorwheel_main;
 126:Drivers/lvgl/lvgl/src/extra/themes/default/lv_theme_default.c **** #endif
 127:Drivers/lvgl/lvgl/src/extra/themes/default/lv_theme_default.c **** 
 128:Drivers/lvgl/lvgl/src/extra/themes/default/lv_theme_default.c **** #if LV_USE_MENU
 129:Drivers/lvgl/lvgl/src/extra/themes/default/lv_theme_default.c ****     lv_style_t menu_bg, menu_cont, menu_sidebar_cont, menu_main_cont, menu_page, menu_header_cont, 
 130:Drivers/lvgl/lvgl/src/extra/themes/default/lv_theme_default.c ****                menu_section, menu_pressed, menu_separator;
 131:Drivers/lvgl/lvgl/src/extra/themes/default/lv_theme_default.c **** #endif
 132:Drivers/lvgl/lvgl/src/extra/themes/default/lv_theme_default.c **** 
 133:Drivers/lvgl/lvgl/src/extra/themes/default/lv_theme_default.c **** #if LV_USE_MSGBOX
 134:Drivers/lvgl/lvgl/src/extra/themes/default/lv_theme_default.c ****     lv_style_t msgbox_bg, msgbox_btn_bg, msgbox_backdrop_bg;
 135:Drivers/lvgl/lvgl/src/extra/themes/default/lv_theme_default.c **** #endif
 136:Drivers/lvgl/lvgl/src/extra/themes/default/lv_theme_default.c **** 
 137:Drivers/lvgl/lvgl/src/extra/themes/default/lv_theme_default.c **** #if LV_USE_KEYBOARD
 138:Drivers/lvgl/lvgl/src/extra/themes/default/lv_theme_default.c ****     lv_style_t keyboard_btn_bg;
 139:Drivers/lvgl/lvgl/src/extra/themes/default/lv_theme_default.c **** #endif
 140:Drivers/lvgl/lvgl/src/extra/themes/default/lv_theme_default.c **** 
 141:Drivers/lvgl/lvgl/src/extra/themes/default/lv_theme_default.c **** #if LV_USE_LIST
 142:Drivers/lvgl/lvgl/src/extra/themes/default/lv_theme_default.c ****     lv_style_t list_bg, list_btn, list_item_grow, list_label;
 143:Drivers/lvgl/lvgl/src/extra/themes/default/lv_theme_default.c **** #endif
 144:Drivers/lvgl/lvgl/src/extra/themes/default/lv_theme_default.c **** 
 145:Drivers/lvgl/lvgl/src/extra/themes/default/lv_theme_default.c **** #if LV_USE_TABVIEW
 146:Drivers/lvgl/lvgl/src/extra/themes/default/lv_theme_default.c ****     lv_style_t tab_bg_focus, tab_btn;
 147:Drivers/lvgl/lvgl/src/extra/themes/default/lv_theme_default.c **** #endif
ARM GAS  /tmp/cc6wDDAF.s 			page 4


 148:Drivers/lvgl/lvgl/src/extra/themes/default/lv_theme_default.c **** #if LV_USE_LED
 149:Drivers/lvgl/lvgl/src/extra/themes/default/lv_theme_default.c ****     lv_style_t led;
 150:Drivers/lvgl/lvgl/src/extra/themes/default/lv_theme_default.c **** #endif
 151:Drivers/lvgl/lvgl/src/extra/themes/default/lv_theme_default.c **** } my_theme_styles_t;
 152:Drivers/lvgl/lvgl/src/extra/themes/default/lv_theme_default.c **** 
 153:Drivers/lvgl/lvgl/src/extra/themes/default/lv_theme_default.c **** typedef struct {
 154:Drivers/lvgl/lvgl/src/extra/themes/default/lv_theme_default.c ****     lv_theme_t base;
 155:Drivers/lvgl/lvgl/src/extra/themes/default/lv_theme_default.c ****     uint8_t light : 1;
 156:Drivers/lvgl/lvgl/src/extra/themes/default/lv_theme_default.c **** } my_theme_t;
 157:Drivers/lvgl/lvgl/src/extra/themes/default/lv_theme_default.c **** 
 158:Drivers/lvgl/lvgl/src/extra/themes/default/lv_theme_default.c **** typedef enum {
 159:Drivers/lvgl/lvgl/src/extra/themes/default/lv_theme_default.c ****     DISP_SMALL = 3,
 160:Drivers/lvgl/lvgl/src/extra/themes/default/lv_theme_default.c ****     DISP_MEDIUM = 2,
 161:Drivers/lvgl/lvgl/src/extra/themes/default/lv_theme_default.c ****     DISP_LARGE = 1,
 162:Drivers/lvgl/lvgl/src/extra/themes/default/lv_theme_default.c **** } disp_size_t;
 163:Drivers/lvgl/lvgl/src/extra/themes/default/lv_theme_default.c **** 
 164:Drivers/lvgl/lvgl/src/extra/themes/default/lv_theme_default.c **** /**********************
 165:Drivers/lvgl/lvgl/src/extra/themes/default/lv_theme_default.c ****  *  STATIC PROTOTYPES
 166:Drivers/lvgl/lvgl/src/extra/themes/default/lv_theme_default.c ****  **********************/
 167:Drivers/lvgl/lvgl/src/extra/themes/default/lv_theme_default.c **** static void theme_apply(lv_theme_t * th, lv_obj_t * obj);
 168:Drivers/lvgl/lvgl/src/extra/themes/default/lv_theme_default.c **** static void style_init_reset(lv_style_t * style);
 169:Drivers/lvgl/lvgl/src/extra/themes/default/lv_theme_default.c **** 
 170:Drivers/lvgl/lvgl/src/extra/themes/default/lv_theme_default.c **** /**********************
 171:Drivers/lvgl/lvgl/src/extra/themes/default/lv_theme_default.c ****  *  STATIC VARIABLES
 172:Drivers/lvgl/lvgl/src/extra/themes/default/lv_theme_default.c ****  **********************/
 173:Drivers/lvgl/lvgl/src/extra/themes/default/lv_theme_default.c **** static my_theme_styles_t * styles;
 174:Drivers/lvgl/lvgl/src/extra/themes/default/lv_theme_default.c **** static lv_theme_t theme;
 175:Drivers/lvgl/lvgl/src/extra/themes/default/lv_theme_default.c **** static disp_size_t disp_size;
 176:Drivers/lvgl/lvgl/src/extra/themes/default/lv_theme_default.c **** static lv_color_t color_scr;
 177:Drivers/lvgl/lvgl/src/extra/themes/default/lv_theme_default.c **** static lv_color_t color_text;
 178:Drivers/lvgl/lvgl/src/extra/themes/default/lv_theme_default.c **** static lv_color_t color_card;
 179:Drivers/lvgl/lvgl/src/extra/themes/default/lv_theme_default.c **** static lv_color_t color_grey;
 180:Drivers/lvgl/lvgl/src/extra/themes/default/lv_theme_default.c **** static bool inited = false;
 181:Drivers/lvgl/lvgl/src/extra/themes/default/lv_theme_default.c **** 
 182:Drivers/lvgl/lvgl/src/extra/themes/default/lv_theme_default.c **** 
 183:Drivers/lvgl/lvgl/src/extra/themes/default/lv_theme_default.c **** /**********************
 184:Drivers/lvgl/lvgl/src/extra/themes/default/lv_theme_default.c ****  *      MACROS
 185:Drivers/lvgl/lvgl/src/extra/themes/default/lv_theme_default.c ****  **********************/
 186:Drivers/lvgl/lvgl/src/extra/themes/default/lv_theme_default.c **** 
 187:Drivers/lvgl/lvgl/src/extra/themes/default/lv_theme_default.c **** /**********************
 188:Drivers/lvgl/lvgl/src/extra/themes/default/lv_theme_default.c ****  *   STATIC FUNCTIONS
 189:Drivers/lvgl/lvgl/src/extra/themes/default/lv_theme_default.c ****  **********************/
 190:Drivers/lvgl/lvgl/src/extra/themes/default/lv_theme_default.c **** 
 191:Drivers/lvgl/lvgl/src/extra/themes/default/lv_theme_default.c **** 
 192:Drivers/lvgl/lvgl/src/extra/themes/default/lv_theme_default.c **** static lv_color_t dark_color_filter_cb(const lv_color_filter_dsc_t * f, lv_color_t c, lv_opa_t opa)
 193:Drivers/lvgl/lvgl/src/extra/themes/default/lv_theme_default.c **** {
 194:Drivers/lvgl/lvgl/src/extra/themes/default/lv_theme_default.c ****     LV_UNUSED(f);
 195:Drivers/lvgl/lvgl/src/extra/themes/default/lv_theme_default.c ****     return lv_color_darken(c, opa);
 196:Drivers/lvgl/lvgl/src/extra/themes/default/lv_theme_default.c **** }
 197:Drivers/lvgl/lvgl/src/extra/themes/default/lv_theme_default.c **** 
 198:Drivers/lvgl/lvgl/src/extra/themes/default/lv_theme_default.c **** static lv_color_t grey_filter_cb(const lv_color_filter_dsc_t * f, lv_color_t color, lv_opa_t opa)
 199:Drivers/lvgl/lvgl/src/extra/themes/default/lv_theme_default.c **** {
 200:Drivers/lvgl/lvgl/src/extra/themes/default/lv_theme_default.c ****     LV_UNUSED(f);
 201:Drivers/lvgl/lvgl/src/extra/themes/default/lv_theme_default.c ****     if(theme.flags & MODE_DARK) return lv_color_mix(lv_palette_darken(LV_PALETTE_GREY, 2), color, o
 202:Drivers/lvgl/lvgl/src/extra/themes/default/lv_theme_default.c ****     else return lv_color_mix(lv_palette_lighten(LV_PALETTE_GREY, 2), color, opa);
 203:Drivers/lvgl/lvgl/src/extra/themes/default/lv_theme_default.c **** }
 204:Drivers/lvgl/lvgl/src/extra/themes/default/lv_theme_default.c **** 
ARM GAS  /tmp/cc6wDDAF.s 			page 5


 205:Drivers/lvgl/lvgl/src/extra/themes/default/lv_theme_default.c **** static void style_init(void)
 206:Drivers/lvgl/lvgl/src/extra/themes/default/lv_theme_default.c **** {
 207:Drivers/lvgl/lvgl/src/extra/themes/default/lv_theme_default.c ****     static const lv_style_prop_t trans_props[] = {
 208:Drivers/lvgl/lvgl/src/extra/themes/default/lv_theme_default.c ****         LV_STYLE_BG_OPA, LV_STYLE_BG_COLOR,
 209:Drivers/lvgl/lvgl/src/extra/themes/default/lv_theme_default.c ****         LV_STYLE_TRANSFORM_WIDTH, LV_STYLE_TRANSFORM_HEIGHT,
 210:Drivers/lvgl/lvgl/src/extra/themes/default/lv_theme_default.c ****         LV_STYLE_TRANSLATE_Y, LV_STYLE_TRANSLATE_X,
 211:Drivers/lvgl/lvgl/src/extra/themes/default/lv_theme_default.c ****         LV_STYLE_TRANSFORM_ZOOM, LV_STYLE_TRANSFORM_ANGLE,
 212:Drivers/lvgl/lvgl/src/extra/themes/default/lv_theme_default.c ****         LV_STYLE_COLOR_FILTER_OPA, LV_STYLE_COLOR_FILTER_DSC,
 213:Drivers/lvgl/lvgl/src/extra/themes/default/lv_theme_default.c ****         0
 214:Drivers/lvgl/lvgl/src/extra/themes/default/lv_theme_default.c ****     };
 215:Drivers/lvgl/lvgl/src/extra/themes/default/lv_theme_default.c **** 
 216:Drivers/lvgl/lvgl/src/extra/themes/default/lv_theme_default.c ****     color_scr = theme.flags & MODE_DARK ? DARK_COLOR_SCR : LIGHT_COLOR_SCR;
 217:Drivers/lvgl/lvgl/src/extra/themes/default/lv_theme_default.c ****     color_text = theme.flags & MODE_DARK ? DARK_COLOR_TEXT : LIGHT_COLOR_TEXT;
 218:Drivers/lvgl/lvgl/src/extra/themes/default/lv_theme_default.c ****     color_card = theme.flags & MODE_DARK ? DARK_COLOR_CARD : LIGHT_COLOR_CARD;
 219:Drivers/lvgl/lvgl/src/extra/themes/default/lv_theme_default.c ****     color_grey = theme.flags & MODE_DARK ? DARK_COLOR_GREY : LIGHT_COLOR_GREY;
 220:Drivers/lvgl/lvgl/src/extra/themes/default/lv_theme_default.c **** 
 221:Drivers/lvgl/lvgl/src/extra/themes/default/lv_theme_default.c ****     style_init_reset(&styles->transition_delayed);
 222:Drivers/lvgl/lvgl/src/extra/themes/default/lv_theme_default.c ****     style_init_reset(&styles->transition_normal);
 223:Drivers/lvgl/lvgl/src/extra/themes/default/lv_theme_default.c **** #if TRANSITION_TIME
 224:Drivers/lvgl/lvgl/src/extra/themes/default/lv_theme_default.c ****     static lv_style_transition_dsc_t trans_delayed;
 225:Drivers/lvgl/lvgl/src/extra/themes/default/lv_theme_default.c ****     lv_style_transition_dsc_init(&trans_delayed, trans_props, lv_anim_path_linear, TRANSITION_TIME,
 226:Drivers/lvgl/lvgl/src/extra/themes/default/lv_theme_default.c **** 
 227:Drivers/lvgl/lvgl/src/extra/themes/default/lv_theme_default.c ****     static lv_style_transition_dsc_t trans_normal;
 228:Drivers/lvgl/lvgl/src/extra/themes/default/lv_theme_default.c ****     lv_style_transition_dsc_init(&trans_normal, trans_props, lv_anim_path_linear, TRANSITION_TIME, 
 229:Drivers/lvgl/lvgl/src/extra/themes/default/lv_theme_default.c **** 
 230:Drivers/lvgl/lvgl/src/extra/themes/default/lv_theme_default.c ****     lv_style_set_transition(&styles->transition_delayed, &trans_delayed); /*Go back to default stat
 231:Drivers/lvgl/lvgl/src/extra/themes/default/lv_theme_default.c **** 
 232:Drivers/lvgl/lvgl/src/extra/themes/default/lv_theme_default.c ****     lv_style_set_transition(&styles->transition_normal, &trans_normal); /*Go back to default state 
 233:Drivers/lvgl/lvgl/src/extra/themes/default/lv_theme_default.c **** #endif
 234:Drivers/lvgl/lvgl/src/extra/themes/default/lv_theme_default.c **** 
 235:Drivers/lvgl/lvgl/src/extra/themes/default/lv_theme_default.c ****     style_init_reset(&styles->scrollbar);
 236:Drivers/lvgl/lvgl/src/extra/themes/default/lv_theme_default.c ****     lv_color_t sb_color = (theme.flags & MODE_DARK) ? lv_palette_darken(LV_PALETTE_GREY,
 237:Drivers/lvgl/lvgl/src/extra/themes/default/lv_theme_default.c ****                                                                         2) : lv_palette_main(LV_PAL
 238:Drivers/lvgl/lvgl/src/extra/themes/default/lv_theme_default.c ****     lv_style_set_bg_color(&styles->scrollbar, sb_color);
 239:Drivers/lvgl/lvgl/src/extra/themes/default/lv_theme_default.c **** 
 240:Drivers/lvgl/lvgl/src/extra/themes/default/lv_theme_default.c ****     lv_style_set_radius(&styles->scrollbar, LV_RADIUS_CIRCLE);
 241:Drivers/lvgl/lvgl/src/extra/themes/default/lv_theme_default.c ****     lv_style_set_pad_all(&styles->scrollbar, lv_disp_dpx(theme.disp, 7));
 242:Drivers/lvgl/lvgl/src/extra/themes/default/lv_theme_default.c ****     lv_style_set_width(&styles->scrollbar,  lv_disp_dpx(theme.disp, 5));
 243:Drivers/lvgl/lvgl/src/extra/themes/default/lv_theme_default.c ****     lv_style_set_bg_opa(&styles->scrollbar,  LV_OPA_40);
 244:Drivers/lvgl/lvgl/src/extra/themes/default/lv_theme_default.c **** #if TRANSITION_TIME
 245:Drivers/lvgl/lvgl/src/extra/themes/default/lv_theme_default.c ****     lv_style_set_transition(&styles->scrollbar, &trans_normal);
 246:Drivers/lvgl/lvgl/src/extra/themes/default/lv_theme_default.c **** #endif
 247:Drivers/lvgl/lvgl/src/extra/themes/default/lv_theme_default.c **** 
 248:Drivers/lvgl/lvgl/src/extra/themes/default/lv_theme_default.c ****     style_init_reset(&styles->scrollbar_scrolled);
 249:Drivers/lvgl/lvgl/src/extra/themes/default/lv_theme_default.c ****     lv_style_set_bg_opa(&styles->scrollbar_scrolled,  LV_OPA_COVER);
 250:Drivers/lvgl/lvgl/src/extra/themes/default/lv_theme_default.c **** 
 251:Drivers/lvgl/lvgl/src/extra/themes/default/lv_theme_default.c ****     style_init_reset(&styles->scr);
 252:Drivers/lvgl/lvgl/src/extra/themes/default/lv_theme_default.c ****     lv_style_set_bg_opa(&styles->scr, LV_OPA_COVER);
 253:Drivers/lvgl/lvgl/src/extra/themes/default/lv_theme_default.c ****     lv_style_set_bg_color(&styles->scr, color_scr);
 254:Drivers/lvgl/lvgl/src/extra/themes/default/lv_theme_default.c ****     lv_style_set_text_color(&styles->scr, color_text);
 255:Drivers/lvgl/lvgl/src/extra/themes/default/lv_theme_default.c ****     lv_style_set_pad_row(&styles->scr, PAD_SMALL);
 256:Drivers/lvgl/lvgl/src/extra/themes/default/lv_theme_default.c ****     lv_style_set_pad_column(&styles->scr, PAD_SMALL);
 257:Drivers/lvgl/lvgl/src/extra/themes/default/lv_theme_default.c **** 
 258:Drivers/lvgl/lvgl/src/extra/themes/default/lv_theme_default.c ****     style_init_reset(&styles->card);
 259:Drivers/lvgl/lvgl/src/extra/themes/default/lv_theme_default.c ****     lv_style_set_radius(&styles->card, RADIUS_DEFAULT);
 260:Drivers/lvgl/lvgl/src/extra/themes/default/lv_theme_default.c ****     lv_style_set_bg_opa(&styles->card, LV_OPA_COVER);
 261:Drivers/lvgl/lvgl/src/extra/themes/default/lv_theme_default.c ****     lv_style_set_bg_color(&styles->card, color_card);
ARM GAS  /tmp/cc6wDDAF.s 			page 6


 262:Drivers/lvgl/lvgl/src/extra/themes/default/lv_theme_default.c ****     lv_style_set_border_color(&styles->card, color_grey);
 263:Drivers/lvgl/lvgl/src/extra/themes/default/lv_theme_default.c ****     lv_style_set_border_width(&styles->card, BORDER_WIDTH);
 264:Drivers/lvgl/lvgl/src/extra/themes/default/lv_theme_default.c ****     lv_style_set_border_post(&styles->card, true);
 265:Drivers/lvgl/lvgl/src/extra/themes/default/lv_theme_default.c ****     lv_style_set_text_color(&styles->card, color_text);
 266:Drivers/lvgl/lvgl/src/extra/themes/default/lv_theme_default.c ****     lv_style_set_pad_all(&styles->card, PAD_DEF);
 267:Drivers/lvgl/lvgl/src/extra/themes/default/lv_theme_default.c ****     lv_style_set_pad_row(&styles->card, PAD_SMALL);
 268:Drivers/lvgl/lvgl/src/extra/themes/default/lv_theme_default.c ****     lv_style_set_pad_column(&styles->card, PAD_SMALL);
 269:Drivers/lvgl/lvgl/src/extra/themes/default/lv_theme_default.c ****     lv_style_set_line_color(&styles->card, lv_palette_main(LV_PALETTE_GREY));
 270:Drivers/lvgl/lvgl/src/extra/themes/default/lv_theme_default.c ****     lv_style_set_line_width(&styles->card, lv_disp_dpx(theme.disp, 1));
 271:Drivers/lvgl/lvgl/src/extra/themes/default/lv_theme_default.c **** 
 272:Drivers/lvgl/lvgl/src/extra/themes/default/lv_theme_default.c ****     style_init_reset(&styles->outline_primary);
 273:Drivers/lvgl/lvgl/src/extra/themes/default/lv_theme_default.c ****     lv_style_set_outline_color(&styles->outline_primary, theme.color_primary);
 274:Drivers/lvgl/lvgl/src/extra/themes/default/lv_theme_default.c ****     lv_style_set_outline_width(&styles->outline_primary, OUTLINE_WIDTH);
 275:Drivers/lvgl/lvgl/src/extra/themes/default/lv_theme_default.c ****     lv_style_set_outline_pad(&styles->outline_primary, OUTLINE_WIDTH);
 276:Drivers/lvgl/lvgl/src/extra/themes/default/lv_theme_default.c ****     lv_style_set_outline_opa(&styles->outline_primary, LV_OPA_50);
 277:Drivers/lvgl/lvgl/src/extra/themes/default/lv_theme_default.c **** 
 278:Drivers/lvgl/lvgl/src/extra/themes/default/lv_theme_default.c ****     style_init_reset(&styles->outline_secondary);
 279:Drivers/lvgl/lvgl/src/extra/themes/default/lv_theme_default.c ****     lv_style_set_outline_color(&styles->outline_secondary, theme.color_secondary);
 280:Drivers/lvgl/lvgl/src/extra/themes/default/lv_theme_default.c ****     lv_style_set_outline_width(&styles->outline_secondary, OUTLINE_WIDTH);
 281:Drivers/lvgl/lvgl/src/extra/themes/default/lv_theme_default.c ****     lv_style_set_outline_opa(&styles->outline_secondary, LV_OPA_50);
 282:Drivers/lvgl/lvgl/src/extra/themes/default/lv_theme_default.c **** 
 283:Drivers/lvgl/lvgl/src/extra/themes/default/lv_theme_default.c ****     style_init_reset(&styles->btn);
 284:Drivers/lvgl/lvgl/src/extra/themes/default/lv_theme_default.c ****     lv_style_set_radius(&styles->btn, (disp_size == DISP_LARGE ? lv_disp_dpx(theme.disp,
 285:Drivers/lvgl/lvgl/src/extra/themes/default/lv_theme_default.c ****                                                                              16) : disp_size == DIS
 286:Drivers/lvgl/lvgl/src/extra/themes/default/lv_theme_default.c ****     lv_style_set_bg_opa(&styles->btn, LV_OPA_COVER);
 287:Drivers/lvgl/lvgl/src/extra/themes/default/lv_theme_default.c ****     lv_style_set_bg_color(&styles->btn, color_grey);
 288:Drivers/lvgl/lvgl/src/extra/themes/default/lv_theme_default.c ****     if(!(theme.flags & MODE_DARK)) {
 289:Drivers/lvgl/lvgl/src/extra/themes/default/lv_theme_default.c ****         lv_style_set_shadow_color(&styles->btn, lv_palette_main(LV_PALETTE_GREY));
 290:Drivers/lvgl/lvgl/src/extra/themes/default/lv_theme_default.c ****         lv_style_set_shadow_width(&styles->btn, LV_DPX(3));
 291:Drivers/lvgl/lvgl/src/extra/themes/default/lv_theme_default.c ****         lv_style_set_shadow_opa(&styles->btn, LV_OPA_50);
 292:Drivers/lvgl/lvgl/src/extra/themes/default/lv_theme_default.c ****         lv_style_set_shadow_ofs_y(&styles->btn, lv_disp_dpx(theme.disp, LV_DPX(4)));
 293:Drivers/lvgl/lvgl/src/extra/themes/default/lv_theme_default.c ****     }
 294:Drivers/lvgl/lvgl/src/extra/themes/default/lv_theme_default.c ****     lv_style_set_text_color(&styles->btn, color_text);
 295:Drivers/lvgl/lvgl/src/extra/themes/default/lv_theme_default.c ****     lv_style_set_pad_hor(&styles->btn, PAD_DEF);
 296:Drivers/lvgl/lvgl/src/extra/themes/default/lv_theme_default.c ****     lv_style_set_pad_ver(&styles->btn, PAD_SMALL);
 297:Drivers/lvgl/lvgl/src/extra/themes/default/lv_theme_default.c ****     lv_style_set_pad_column(&styles->btn, lv_disp_dpx(theme.disp, 5));
 298:Drivers/lvgl/lvgl/src/extra/themes/default/lv_theme_default.c ****     lv_style_set_pad_row(&styles->btn, lv_disp_dpx(theme.disp, 5));
 299:Drivers/lvgl/lvgl/src/extra/themes/default/lv_theme_default.c **** 
 300:Drivers/lvgl/lvgl/src/extra/themes/default/lv_theme_default.c ****     static lv_color_filter_dsc_t dark_filter;
 301:Drivers/lvgl/lvgl/src/extra/themes/default/lv_theme_default.c ****     lv_color_filter_dsc_init(&dark_filter, dark_color_filter_cb);
 302:Drivers/lvgl/lvgl/src/extra/themes/default/lv_theme_default.c **** 
 303:Drivers/lvgl/lvgl/src/extra/themes/default/lv_theme_default.c ****     static lv_color_filter_dsc_t grey_filter;
 304:Drivers/lvgl/lvgl/src/extra/themes/default/lv_theme_default.c ****     lv_color_filter_dsc_init(&grey_filter, grey_filter_cb);
 305:Drivers/lvgl/lvgl/src/extra/themes/default/lv_theme_default.c **** 
 306:Drivers/lvgl/lvgl/src/extra/themes/default/lv_theme_default.c ****     style_init_reset(&styles->pressed);
 307:Drivers/lvgl/lvgl/src/extra/themes/default/lv_theme_default.c ****     lv_style_set_color_filter_dsc(&styles->pressed, &dark_filter);
 308:Drivers/lvgl/lvgl/src/extra/themes/default/lv_theme_default.c ****     lv_style_set_color_filter_opa(&styles->pressed, 35);
 309:Drivers/lvgl/lvgl/src/extra/themes/default/lv_theme_default.c **** 
 310:Drivers/lvgl/lvgl/src/extra/themes/default/lv_theme_default.c ****     style_init_reset(&styles->disabled);
 311:Drivers/lvgl/lvgl/src/extra/themes/default/lv_theme_default.c ****     lv_style_set_color_filter_dsc(&styles->disabled, &grey_filter);
 312:Drivers/lvgl/lvgl/src/extra/themes/default/lv_theme_default.c ****     lv_style_set_color_filter_opa(&styles->disabled, LV_OPA_50);
 313:Drivers/lvgl/lvgl/src/extra/themes/default/lv_theme_default.c **** 
 314:Drivers/lvgl/lvgl/src/extra/themes/default/lv_theme_default.c ****     style_init_reset(&styles->clip_corner);
 315:Drivers/lvgl/lvgl/src/extra/themes/default/lv_theme_default.c ****     lv_style_set_clip_corner(&styles->clip_corner, true);
 316:Drivers/lvgl/lvgl/src/extra/themes/default/lv_theme_default.c ****     lv_style_set_border_post(&styles->clip_corner, true);
 317:Drivers/lvgl/lvgl/src/extra/themes/default/lv_theme_default.c **** 
 318:Drivers/lvgl/lvgl/src/extra/themes/default/lv_theme_default.c ****     style_init_reset(&styles->pad_normal);
ARM GAS  /tmp/cc6wDDAF.s 			page 7


 319:Drivers/lvgl/lvgl/src/extra/themes/default/lv_theme_default.c ****     lv_style_set_pad_all(&styles->pad_normal, PAD_DEF);
 320:Drivers/lvgl/lvgl/src/extra/themes/default/lv_theme_default.c ****     lv_style_set_pad_row(&styles->pad_normal, PAD_DEF);
 321:Drivers/lvgl/lvgl/src/extra/themes/default/lv_theme_default.c ****     lv_style_set_pad_column(&styles->pad_normal, PAD_DEF);
 322:Drivers/lvgl/lvgl/src/extra/themes/default/lv_theme_default.c **** 
 323:Drivers/lvgl/lvgl/src/extra/themes/default/lv_theme_default.c ****     style_init_reset(&styles->pad_small);
 324:Drivers/lvgl/lvgl/src/extra/themes/default/lv_theme_default.c ****     lv_style_set_pad_all(&styles->pad_small, PAD_SMALL);
 325:Drivers/lvgl/lvgl/src/extra/themes/default/lv_theme_default.c ****     lv_style_set_pad_gap(&styles->pad_small, PAD_SMALL);
 326:Drivers/lvgl/lvgl/src/extra/themes/default/lv_theme_default.c **** 
 327:Drivers/lvgl/lvgl/src/extra/themes/default/lv_theme_default.c ****     style_init_reset(&styles->pad_gap);
 328:Drivers/lvgl/lvgl/src/extra/themes/default/lv_theme_default.c ****     lv_style_set_pad_row(&styles->pad_gap, lv_disp_dpx(theme.disp, 10));
 329:Drivers/lvgl/lvgl/src/extra/themes/default/lv_theme_default.c ****     lv_style_set_pad_column(&styles->pad_gap, lv_disp_dpx(theme.disp, 10));
 330:Drivers/lvgl/lvgl/src/extra/themes/default/lv_theme_default.c **** 
 331:Drivers/lvgl/lvgl/src/extra/themes/default/lv_theme_default.c ****     style_init_reset(&styles->line_space_large);
 332:Drivers/lvgl/lvgl/src/extra/themes/default/lv_theme_default.c ****     lv_style_set_text_line_space(&styles->line_space_large, lv_disp_dpx(theme.disp, 20));
 333:Drivers/lvgl/lvgl/src/extra/themes/default/lv_theme_default.c **** 
 334:Drivers/lvgl/lvgl/src/extra/themes/default/lv_theme_default.c ****     style_init_reset(&styles->text_align_center);
 335:Drivers/lvgl/lvgl/src/extra/themes/default/lv_theme_default.c ****     lv_style_set_text_align(&styles->text_align_center, LV_TEXT_ALIGN_CENTER);
 336:Drivers/lvgl/lvgl/src/extra/themes/default/lv_theme_default.c **** 
 337:Drivers/lvgl/lvgl/src/extra/themes/default/lv_theme_default.c ****     style_init_reset(&styles->pad_zero);
 338:Drivers/lvgl/lvgl/src/extra/themes/default/lv_theme_default.c ****     lv_style_set_pad_all(&styles->pad_zero, 0);
 339:Drivers/lvgl/lvgl/src/extra/themes/default/lv_theme_default.c ****     lv_style_set_pad_row(&styles->pad_zero, 0);
 340:Drivers/lvgl/lvgl/src/extra/themes/default/lv_theme_default.c ****     lv_style_set_pad_column(&styles->pad_zero, 0);
 341:Drivers/lvgl/lvgl/src/extra/themes/default/lv_theme_default.c **** 
 342:Drivers/lvgl/lvgl/src/extra/themes/default/lv_theme_default.c ****     style_init_reset(&styles->pad_tiny);
 343:Drivers/lvgl/lvgl/src/extra/themes/default/lv_theme_default.c ****     lv_style_set_pad_all(&styles->pad_tiny, PAD_TINY);
 344:Drivers/lvgl/lvgl/src/extra/themes/default/lv_theme_default.c ****     lv_style_set_pad_row(&styles->pad_tiny, PAD_TINY);
 345:Drivers/lvgl/lvgl/src/extra/themes/default/lv_theme_default.c ****     lv_style_set_pad_column(&styles->pad_tiny, PAD_TINY);
 346:Drivers/lvgl/lvgl/src/extra/themes/default/lv_theme_default.c **** 
 347:Drivers/lvgl/lvgl/src/extra/themes/default/lv_theme_default.c ****     style_init_reset(&styles->bg_color_primary);
 348:Drivers/lvgl/lvgl/src/extra/themes/default/lv_theme_default.c ****     lv_style_set_bg_color(&styles->bg_color_primary, theme.color_primary);
 349:Drivers/lvgl/lvgl/src/extra/themes/default/lv_theme_default.c ****     lv_style_set_text_color(&styles->bg_color_primary, lv_color_white());
 350:Drivers/lvgl/lvgl/src/extra/themes/default/lv_theme_default.c ****     lv_style_set_bg_opa(&styles->bg_color_primary, LV_OPA_COVER);
 351:Drivers/lvgl/lvgl/src/extra/themes/default/lv_theme_default.c **** 
 352:Drivers/lvgl/lvgl/src/extra/themes/default/lv_theme_default.c ****     style_init_reset(&styles->bg_color_primary_muted);
 353:Drivers/lvgl/lvgl/src/extra/themes/default/lv_theme_default.c ****     lv_style_set_bg_color(&styles->bg_color_primary_muted, theme.color_primary);
 354:Drivers/lvgl/lvgl/src/extra/themes/default/lv_theme_default.c ****     lv_style_set_text_color(&styles->bg_color_primary_muted, theme.color_primary);
 355:Drivers/lvgl/lvgl/src/extra/themes/default/lv_theme_default.c ****     lv_style_set_bg_opa(&styles->bg_color_primary_muted, LV_OPA_20);
 356:Drivers/lvgl/lvgl/src/extra/themes/default/lv_theme_default.c **** 
 357:Drivers/lvgl/lvgl/src/extra/themes/default/lv_theme_default.c ****     style_init_reset(&styles->bg_color_secondary);
 358:Drivers/lvgl/lvgl/src/extra/themes/default/lv_theme_default.c ****     lv_style_set_bg_color(&styles->bg_color_secondary, theme.color_secondary);
 359:Drivers/lvgl/lvgl/src/extra/themes/default/lv_theme_default.c ****     lv_style_set_text_color(&styles->bg_color_secondary, lv_color_white());
 360:Drivers/lvgl/lvgl/src/extra/themes/default/lv_theme_default.c ****     lv_style_set_bg_opa(&styles->bg_color_secondary, LV_OPA_COVER);
 361:Drivers/lvgl/lvgl/src/extra/themes/default/lv_theme_default.c **** 
 362:Drivers/lvgl/lvgl/src/extra/themes/default/lv_theme_default.c ****     style_init_reset(&styles->bg_color_secondary_muted);
 363:Drivers/lvgl/lvgl/src/extra/themes/default/lv_theme_default.c ****     lv_style_set_bg_color(&styles->bg_color_secondary_muted, theme.color_secondary);
 364:Drivers/lvgl/lvgl/src/extra/themes/default/lv_theme_default.c ****     lv_style_set_text_color(&styles->bg_color_secondary_muted, theme.color_secondary);
 365:Drivers/lvgl/lvgl/src/extra/themes/default/lv_theme_default.c ****     lv_style_set_bg_opa(&styles->bg_color_secondary_muted, LV_OPA_20);
 366:Drivers/lvgl/lvgl/src/extra/themes/default/lv_theme_default.c **** 
 367:Drivers/lvgl/lvgl/src/extra/themes/default/lv_theme_default.c ****     style_init_reset(&styles->bg_color_grey);
 368:Drivers/lvgl/lvgl/src/extra/themes/default/lv_theme_default.c ****     lv_style_set_bg_color(&styles->bg_color_grey, color_grey);
 369:Drivers/lvgl/lvgl/src/extra/themes/default/lv_theme_default.c ****     lv_style_set_bg_opa(&styles->bg_color_grey, LV_OPA_COVER);
 370:Drivers/lvgl/lvgl/src/extra/themes/default/lv_theme_default.c ****     lv_style_set_text_color(&styles->bg_color_grey, color_text);
 371:Drivers/lvgl/lvgl/src/extra/themes/default/lv_theme_default.c **** 
 372:Drivers/lvgl/lvgl/src/extra/themes/default/lv_theme_default.c ****     style_init_reset(&styles->bg_color_white);
 373:Drivers/lvgl/lvgl/src/extra/themes/default/lv_theme_default.c ****     lv_style_set_bg_color(&styles->bg_color_white, color_card);
 374:Drivers/lvgl/lvgl/src/extra/themes/default/lv_theme_default.c ****     lv_style_set_bg_opa(&styles->bg_color_white, LV_OPA_COVER);
 375:Drivers/lvgl/lvgl/src/extra/themes/default/lv_theme_default.c ****     lv_style_set_text_color(&styles->bg_color_white, color_text);
ARM GAS  /tmp/cc6wDDAF.s 			page 8


 376:Drivers/lvgl/lvgl/src/extra/themes/default/lv_theme_default.c **** 
 377:Drivers/lvgl/lvgl/src/extra/themes/default/lv_theme_default.c ****     style_init_reset(&styles->circle);
 378:Drivers/lvgl/lvgl/src/extra/themes/default/lv_theme_default.c ****     lv_style_set_radius(&styles->circle, LV_RADIUS_CIRCLE);
 379:Drivers/lvgl/lvgl/src/extra/themes/default/lv_theme_default.c **** 
 380:Drivers/lvgl/lvgl/src/extra/themes/default/lv_theme_default.c ****     style_init_reset(&styles->no_radius);
 381:Drivers/lvgl/lvgl/src/extra/themes/default/lv_theme_default.c ****     lv_style_set_radius(&styles->no_radius, 0);
 382:Drivers/lvgl/lvgl/src/extra/themes/default/lv_theme_default.c **** 
 383:Drivers/lvgl/lvgl/src/extra/themes/default/lv_theme_default.c **** #if LV_THEME_DEFAULT_GROW
 384:Drivers/lvgl/lvgl/src/extra/themes/default/lv_theme_default.c ****     style_init_reset(&styles->grow);
 385:Drivers/lvgl/lvgl/src/extra/themes/default/lv_theme_default.c ****     lv_style_set_transform_width(&styles->grow, lv_disp_dpx(theme.disp, 3));
 386:Drivers/lvgl/lvgl/src/extra/themes/default/lv_theme_default.c ****     lv_style_set_transform_height(&styles->grow, lv_disp_dpx(theme.disp, 3));
 387:Drivers/lvgl/lvgl/src/extra/themes/default/lv_theme_default.c **** #endif
 388:Drivers/lvgl/lvgl/src/extra/themes/default/lv_theme_default.c **** 
 389:Drivers/lvgl/lvgl/src/extra/themes/default/lv_theme_default.c ****     style_init_reset(&styles->knob);
 390:Drivers/lvgl/lvgl/src/extra/themes/default/lv_theme_default.c ****     lv_style_set_bg_color(&styles->knob, theme.color_primary);
 391:Drivers/lvgl/lvgl/src/extra/themes/default/lv_theme_default.c ****     lv_style_set_bg_opa(&styles->knob, LV_OPA_COVER);
 392:Drivers/lvgl/lvgl/src/extra/themes/default/lv_theme_default.c ****     lv_style_set_pad_all(&styles->knob, lv_disp_dpx(theme.disp, 6));
 393:Drivers/lvgl/lvgl/src/extra/themes/default/lv_theme_default.c ****     lv_style_set_radius(&styles->knob, LV_RADIUS_CIRCLE);
 394:Drivers/lvgl/lvgl/src/extra/themes/default/lv_theme_default.c **** 
 395:Drivers/lvgl/lvgl/src/extra/themes/default/lv_theme_default.c ****     style_init_reset(&styles->anim);
 396:Drivers/lvgl/lvgl/src/extra/themes/default/lv_theme_default.c ****     lv_style_set_anim_time(&styles->anim, 200);
 397:Drivers/lvgl/lvgl/src/extra/themes/default/lv_theme_default.c **** 
 398:Drivers/lvgl/lvgl/src/extra/themes/default/lv_theme_default.c ****     style_init_reset(&styles->anim_fast);
 399:Drivers/lvgl/lvgl/src/extra/themes/default/lv_theme_default.c ****     lv_style_set_anim_time(&styles->anim_fast, 120);
 400:Drivers/lvgl/lvgl/src/extra/themes/default/lv_theme_default.c **** 
 401:Drivers/lvgl/lvgl/src/extra/themes/default/lv_theme_default.c **** #if LV_USE_ARC
 402:Drivers/lvgl/lvgl/src/extra/themes/default/lv_theme_default.c ****     style_init_reset(&styles->arc_indic);
 403:Drivers/lvgl/lvgl/src/extra/themes/default/lv_theme_default.c ****     lv_style_set_arc_color(&styles->arc_indic, color_grey);
 404:Drivers/lvgl/lvgl/src/extra/themes/default/lv_theme_default.c ****     lv_style_set_arc_width(&styles->arc_indic, lv_disp_dpx(theme.disp, 15));
 405:Drivers/lvgl/lvgl/src/extra/themes/default/lv_theme_default.c ****     lv_style_set_arc_rounded(&styles->arc_indic, true);
 406:Drivers/lvgl/lvgl/src/extra/themes/default/lv_theme_default.c **** 
 407:Drivers/lvgl/lvgl/src/extra/themes/default/lv_theme_default.c ****     style_init_reset(&styles->arc_indic_primary);
 408:Drivers/lvgl/lvgl/src/extra/themes/default/lv_theme_default.c ****     lv_style_set_arc_color(&styles->arc_indic_primary, theme.color_primary);
 409:Drivers/lvgl/lvgl/src/extra/themes/default/lv_theme_default.c **** #endif
 410:Drivers/lvgl/lvgl/src/extra/themes/default/lv_theme_default.c **** 
 411:Drivers/lvgl/lvgl/src/extra/themes/default/lv_theme_default.c **** #if LV_USE_DROPDOWN
 412:Drivers/lvgl/lvgl/src/extra/themes/default/lv_theme_default.c ****     style_init_reset(&styles->dropdown_list);
 413:Drivers/lvgl/lvgl/src/extra/themes/default/lv_theme_default.c ****     lv_style_set_max_height(&styles->dropdown_list, LV_DPI_DEF * 2);
 414:Drivers/lvgl/lvgl/src/extra/themes/default/lv_theme_default.c **** #endif
 415:Drivers/lvgl/lvgl/src/extra/themes/default/lv_theme_default.c **** #if LV_USE_CHECKBOX
 416:Drivers/lvgl/lvgl/src/extra/themes/default/lv_theme_default.c ****     style_init_reset(&styles->cb_marker);
 417:Drivers/lvgl/lvgl/src/extra/themes/default/lv_theme_default.c ****     lv_style_set_pad_all(&styles->cb_marker, lv_disp_dpx(theme.disp, 3));
 418:Drivers/lvgl/lvgl/src/extra/themes/default/lv_theme_default.c ****     lv_style_set_border_width(&styles->cb_marker, BORDER_WIDTH);
 419:Drivers/lvgl/lvgl/src/extra/themes/default/lv_theme_default.c ****     lv_style_set_border_color(&styles->cb_marker, theme.color_primary);
 420:Drivers/lvgl/lvgl/src/extra/themes/default/lv_theme_default.c ****     lv_style_set_bg_color(&styles->cb_marker, color_card);
 421:Drivers/lvgl/lvgl/src/extra/themes/default/lv_theme_default.c ****     lv_style_set_bg_opa(&styles->cb_marker, LV_OPA_COVER);
 422:Drivers/lvgl/lvgl/src/extra/themes/default/lv_theme_default.c ****     lv_style_set_radius(&styles->cb_marker, RADIUS_DEFAULT / 2);
 423:Drivers/lvgl/lvgl/src/extra/themes/default/lv_theme_default.c **** 
 424:Drivers/lvgl/lvgl/src/extra/themes/default/lv_theme_default.c ****     style_init_reset(&styles->cb_marker_checked);
 425:Drivers/lvgl/lvgl/src/extra/themes/default/lv_theme_default.c ****     lv_style_set_bg_img_src(&styles->cb_marker_checked, LV_SYMBOL_OK);
 426:Drivers/lvgl/lvgl/src/extra/themes/default/lv_theme_default.c ****     lv_style_set_text_color(&styles->cb_marker_checked, lv_color_white());
 427:Drivers/lvgl/lvgl/src/extra/themes/default/lv_theme_default.c ****     lv_style_set_text_font(&styles->cb_marker_checked, theme.font_small);
 428:Drivers/lvgl/lvgl/src/extra/themes/default/lv_theme_default.c **** #endif
 429:Drivers/lvgl/lvgl/src/extra/themes/default/lv_theme_default.c **** 
 430:Drivers/lvgl/lvgl/src/extra/themes/default/lv_theme_default.c **** #if LV_USE_SWITCH
 431:Drivers/lvgl/lvgl/src/extra/themes/default/lv_theme_default.c ****     style_init_reset(&styles->switch_knob);
 432:Drivers/lvgl/lvgl/src/extra/themes/default/lv_theme_default.c ****     lv_style_set_pad_all(&styles->switch_knob, - lv_disp_dpx(theme.disp, 4));
ARM GAS  /tmp/cc6wDDAF.s 			page 9


 433:Drivers/lvgl/lvgl/src/extra/themes/default/lv_theme_default.c ****     lv_style_set_bg_color(&styles->switch_knob, lv_color_white());
 434:Drivers/lvgl/lvgl/src/extra/themes/default/lv_theme_default.c **** #endif
 435:Drivers/lvgl/lvgl/src/extra/themes/default/lv_theme_default.c **** 
 436:Drivers/lvgl/lvgl/src/extra/themes/default/lv_theme_default.c **** #if LV_USE_LINE
 437:Drivers/lvgl/lvgl/src/extra/themes/default/lv_theme_default.c ****     style_init_reset(&styles->line);
 438:Drivers/lvgl/lvgl/src/extra/themes/default/lv_theme_default.c ****     lv_style_set_line_width(&styles->line, 1);
 439:Drivers/lvgl/lvgl/src/extra/themes/default/lv_theme_default.c ****     lv_style_set_line_color(&styles->line, color_text);
 440:Drivers/lvgl/lvgl/src/extra/themes/default/lv_theme_default.c **** #endif
 441:Drivers/lvgl/lvgl/src/extra/themes/default/lv_theme_default.c **** 
 442:Drivers/lvgl/lvgl/src/extra/themes/default/lv_theme_default.c **** #if LV_USE_CHART
 443:Drivers/lvgl/lvgl/src/extra/themes/default/lv_theme_default.c ****     style_init_reset(&styles->chart_bg);
 444:Drivers/lvgl/lvgl/src/extra/themes/default/lv_theme_default.c ****     lv_style_set_border_post(&styles->chart_bg, false);
 445:Drivers/lvgl/lvgl/src/extra/themes/default/lv_theme_default.c ****     lv_style_set_pad_column(&styles->chart_bg, lv_disp_dpx(theme.disp, 10));
 446:Drivers/lvgl/lvgl/src/extra/themes/default/lv_theme_default.c ****     lv_style_set_line_color(&styles->chart_bg, color_grey);
 447:Drivers/lvgl/lvgl/src/extra/themes/default/lv_theme_default.c **** 
 448:Drivers/lvgl/lvgl/src/extra/themes/default/lv_theme_default.c ****     style_init_reset(&styles->chart_series);
 449:Drivers/lvgl/lvgl/src/extra/themes/default/lv_theme_default.c ****     lv_style_set_line_width(&styles->chart_series, lv_disp_dpx(theme.disp, 3));
 450:Drivers/lvgl/lvgl/src/extra/themes/default/lv_theme_default.c ****     lv_style_set_radius(&styles->chart_series, lv_disp_dpx(theme.disp, 3));
 451:Drivers/lvgl/lvgl/src/extra/themes/default/lv_theme_default.c ****     lv_style_set_size(&styles->chart_series, lv_disp_dpx(theme.disp, 8));
 452:Drivers/lvgl/lvgl/src/extra/themes/default/lv_theme_default.c ****     lv_style_set_pad_column(&styles->chart_series, lv_disp_dpx(theme.disp, 2));
 453:Drivers/lvgl/lvgl/src/extra/themes/default/lv_theme_default.c **** 
 454:Drivers/lvgl/lvgl/src/extra/themes/default/lv_theme_default.c ****     style_init_reset(&styles->chart_indic);
 455:Drivers/lvgl/lvgl/src/extra/themes/default/lv_theme_default.c ****     lv_style_set_radius(&styles->chart_indic, LV_RADIUS_CIRCLE);
 456:Drivers/lvgl/lvgl/src/extra/themes/default/lv_theme_default.c ****     lv_style_set_size(&styles->chart_indic, lv_disp_dpx(theme.disp, 8));
 457:Drivers/lvgl/lvgl/src/extra/themes/default/lv_theme_default.c ****     lv_style_set_bg_color(&styles->chart_indic, theme.color_primary);
 458:Drivers/lvgl/lvgl/src/extra/themes/default/lv_theme_default.c ****     lv_style_set_bg_opa(&styles->chart_indic, LV_OPA_COVER);
 459:Drivers/lvgl/lvgl/src/extra/themes/default/lv_theme_default.c **** 
 460:Drivers/lvgl/lvgl/src/extra/themes/default/lv_theme_default.c ****     style_init_reset(&styles->chart_ticks);
 461:Drivers/lvgl/lvgl/src/extra/themes/default/lv_theme_default.c ****     lv_style_set_line_width(&styles->chart_ticks, lv_disp_dpx(theme.disp, 1));
 462:Drivers/lvgl/lvgl/src/extra/themes/default/lv_theme_default.c ****     lv_style_set_line_color(&styles->chart_ticks, color_text);
 463:Drivers/lvgl/lvgl/src/extra/themes/default/lv_theme_default.c ****     lv_style_set_pad_all(&styles->chart_ticks, lv_disp_dpx(theme.disp, 2));
 464:Drivers/lvgl/lvgl/src/extra/themes/default/lv_theme_default.c ****     lv_style_set_text_color(&styles->chart_ticks, lv_palette_main(LV_PALETTE_GREY));
 465:Drivers/lvgl/lvgl/src/extra/themes/default/lv_theme_default.c **** #endif
 466:Drivers/lvgl/lvgl/src/extra/themes/default/lv_theme_default.c **** 
 467:Drivers/lvgl/lvgl/src/extra/themes/default/lv_theme_default.c **** #if LV_USE_MENU
 468:Drivers/lvgl/lvgl/src/extra/themes/default/lv_theme_default.c ****     style_init_reset(&styles->menu_bg);
 469:Drivers/lvgl/lvgl/src/extra/themes/default/lv_theme_default.c ****     lv_style_set_pad_all(&styles->menu_bg, 0);
 470:Drivers/lvgl/lvgl/src/extra/themes/default/lv_theme_default.c ****     lv_style_set_pad_gap(&styles->menu_bg, 0);
 471:Drivers/lvgl/lvgl/src/extra/themes/default/lv_theme_default.c ****     lv_style_set_radius(&styles->menu_bg, 0);
 472:Drivers/lvgl/lvgl/src/extra/themes/default/lv_theme_default.c ****     lv_style_set_clip_corner(&styles->menu_bg, true);
 473:Drivers/lvgl/lvgl/src/extra/themes/default/lv_theme_default.c ****     lv_style_set_border_side(&styles->menu_bg, LV_BORDER_SIDE_NONE);
 474:Drivers/lvgl/lvgl/src/extra/themes/default/lv_theme_default.c **** 
 475:Drivers/lvgl/lvgl/src/extra/themes/default/lv_theme_default.c ****     style_init_reset(&styles->menu_section);
 476:Drivers/lvgl/lvgl/src/extra/themes/default/lv_theme_default.c ****     lv_style_set_radius(&styles->menu_section, RADIUS_DEFAULT);
 477:Drivers/lvgl/lvgl/src/extra/themes/default/lv_theme_default.c ****     lv_style_set_clip_corner(&styles->menu_section, true);
 478:Drivers/lvgl/lvgl/src/extra/themes/default/lv_theme_default.c ****     lv_style_set_bg_opa(&styles->menu_section, LV_OPA_COVER);
 479:Drivers/lvgl/lvgl/src/extra/themes/default/lv_theme_default.c ****     lv_style_set_bg_color(&styles->menu_section, color_card);
 480:Drivers/lvgl/lvgl/src/extra/themes/default/lv_theme_default.c ****     lv_style_set_text_color(&styles->menu_section, color_text);
 481:Drivers/lvgl/lvgl/src/extra/themes/default/lv_theme_default.c **** 
 482:Drivers/lvgl/lvgl/src/extra/themes/default/lv_theme_default.c ****     style_init_reset(&styles->menu_cont);
 483:Drivers/lvgl/lvgl/src/extra/themes/default/lv_theme_default.c ****     lv_style_set_pad_hor(&styles->menu_cont, PAD_SMALL);
 484:Drivers/lvgl/lvgl/src/extra/themes/default/lv_theme_default.c ****     lv_style_set_pad_ver(&styles->menu_cont, PAD_SMALL);
 485:Drivers/lvgl/lvgl/src/extra/themes/default/lv_theme_default.c ****     lv_style_set_pad_gap(&styles->menu_cont, PAD_SMALL);
 486:Drivers/lvgl/lvgl/src/extra/themes/default/lv_theme_default.c ****     lv_style_set_border_width(&styles->menu_cont, lv_disp_dpx(theme.disp, 1));
 487:Drivers/lvgl/lvgl/src/extra/themes/default/lv_theme_default.c ****     lv_style_set_border_opa(&styles->menu_cont, LV_OPA_10);
 488:Drivers/lvgl/lvgl/src/extra/themes/default/lv_theme_default.c ****     lv_style_set_border_color(&styles->menu_cont, color_text);
 489:Drivers/lvgl/lvgl/src/extra/themes/default/lv_theme_default.c ****     lv_style_set_border_side(&styles->menu_cont, LV_BORDER_SIDE_NONE);
ARM GAS  /tmp/cc6wDDAF.s 			page 10


 490:Drivers/lvgl/lvgl/src/extra/themes/default/lv_theme_default.c **** 
 491:Drivers/lvgl/lvgl/src/extra/themes/default/lv_theme_default.c ****     style_init_reset(&styles->menu_sidebar_cont);
 492:Drivers/lvgl/lvgl/src/extra/themes/default/lv_theme_default.c ****     lv_style_set_pad_all(&styles->menu_sidebar_cont, 0);
 493:Drivers/lvgl/lvgl/src/extra/themes/default/lv_theme_default.c ****     lv_style_set_pad_gap(&styles->menu_sidebar_cont, 0);
 494:Drivers/lvgl/lvgl/src/extra/themes/default/lv_theme_default.c ****     lv_style_set_border_width(&styles->menu_sidebar_cont, lv_disp_dpx(theme.disp, 1));
 495:Drivers/lvgl/lvgl/src/extra/themes/default/lv_theme_default.c ****     lv_style_set_border_opa(&styles->menu_sidebar_cont, LV_OPA_10);
 496:Drivers/lvgl/lvgl/src/extra/themes/default/lv_theme_default.c ****     lv_style_set_border_color(&styles->menu_sidebar_cont, color_text);
 497:Drivers/lvgl/lvgl/src/extra/themes/default/lv_theme_default.c ****     lv_style_set_border_side(&styles->menu_sidebar_cont, LV_BORDER_SIDE_RIGHT);
 498:Drivers/lvgl/lvgl/src/extra/themes/default/lv_theme_default.c **** 
 499:Drivers/lvgl/lvgl/src/extra/themes/default/lv_theme_default.c ****     style_init_reset(&styles->menu_main_cont);
 500:Drivers/lvgl/lvgl/src/extra/themes/default/lv_theme_default.c ****     lv_style_set_pad_all(&styles->menu_main_cont, 0);
 501:Drivers/lvgl/lvgl/src/extra/themes/default/lv_theme_default.c ****     lv_style_set_pad_gap(&styles->menu_main_cont, 0);
 502:Drivers/lvgl/lvgl/src/extra/themes/default/lv_theme_default.c **** 
 503:Drivers/lvgl/lvgl/src/extra/themes/default/lv_theme_default.c ****     style_init_reset(&styles->menu_header_cont);
 504:Drivers/lvgl/lvgl/src/extra/themes/default/lv_theme_default.c ****     lv_style_set_pad_hor(&styles->menu_header_cont, PAD_SMALL);
 505:Drivers/lvgl/lvgl/src/extra/themes/default/lv_theme_default.c ****     lv_style_set_pad_ver(&styles->menu_header_cont, PAD_TINY);
 506:Drivers/lvgl/lvgl/src/extra/themes/default/lv_theme_default.c ****     lv_style_set_pad_gap(&styles->menu_header_cont, PAD_SMALL);
 507:Drivers/lvgl/lvgl/src/extra/themes/default/lv_theme_default.c **** 
 508:Drivers/lvgl/lvgl/src/extra/themes/default/lv_theme_default.c ****     style_init_reset(&styles->menu_header_btn);
 509:Drivers/lvgl/lvgl/src/extra/themes/default/lv_theme_default.c ****     lv_style_set_pad_hor(&styles->menu_header_btn, PAD_TINY);
 510:Drivers/lvgl/lvgl/src/extra/themes/default/lv_theme_default.c ****     lv_style_set_pad_ver(&styles->menu_header_btn, PAD_TINY);
 511:Drivers/lvgl/lvgl/src/extra/themes/default/lv_theme_default.c ****     lv_style_set_shadow_opa(&styles->menu_header_btn, LV_OPA_TRANSP);
 512:Drivers/lvgl/lvgl/src/extra/themes/default/lv_theme_default.c ****     lv_style_set_bg_opa(&styles->menu_header_btn, LV_OPA_TRANSP);
 513:Drivers/lvgl/lvgl/src/extra/themes/default/lv_theme_default.c ****     lv_style_set_text_color(&styles->menu_header_btn, color_text);
 514:Drivers/lvgl/lvgl/src/extra/themes/default/lv_theme_default.c **** 
 515:Drivers/lvgl/lvgl/src/extra/themes/default/lv_theme_default.c ****     style_init_reset(&styles->menu_page);
 516:Drivers/lvgl/lvgl/src/extra/themes/default/lv_theme_default.c ****     lv_style_set_pad_hor(&styles->menu_page, 0);
 517:Drivers/lvgl/lvgl/src/extra/themes/default/lv_theme_default.c ****     lv_style_set_pad_gap(&styles->menu_page, 0);
 518:Drivers/lvgl/lvgl/src/extra/themes/default/lv_theme_default.c **** 
 519:Drivers/lvgl/lvgl/src/extra/themes/default/lv_theme_default.c ****     style_init_reset(&styles->menu_pressed);
 520:Drivers/lvgl/lvgl/src/extra/themes/default/lv_theme_default.c ****     lv_style_set_bg_opa(&styles->menu_pressed, LV_OPA_20);
 521:Drivers/lvgl/lvgl/src/extra/themes/default/lv_theme_default.c ****     lv_style_set_bg_color(&styles->menu_pressed, lv_palette_main(LV_PALETTE_GREY));
 522:Drivers/lvgl/lvgl/src/extra/themes/default/lv_theme_default.c **** 
 523:Drivers/lvgl/lvgl/src/extra/themes/default/lv_theme_default.c ****     style_init_reset(&styles->menu_separator);
 524:Drivers/lvgl/lvgl/src/extra/themes/default/lv_theme_default.c ****     lv_style_set_bg_opa(&styles->menu_separator, LV_OPA_TRANSP);
 525:Drivers/lvgl/lvgl/src/extra/themes/default/lv_theme_default.c ****     lv_style_set_pad_ver(&styles->menu_separator, PAD_TINY);
 526:Drivers/lvgl/lvgl/src/extra/themes/default/lv_theme_default.c **** #endif
 527:Drivers/lvgl/lvgl/src/extra/themes/default/lv_theme_default.c **** 
 528:Drivers/lvgl/lvgl/src/extra/themes/default/lv_theme_default.c **** #if LV_USE_METER
 529:Drivers/lvgl/lvgl/src/extra/themes/default/lv_theme_default.c ****     style_init_reset(&styles->meter_marker);
 530:Drivers/lvgl/lvgl/src/extra/themes/default/lv_theme_default.c ****     lv_style_set_line_width(&styles->meter_marker, lv_disp_dpx(theme.disp, 5));
 531:Drivers/lvgl/lvgl/src/extra/themes/default/lv_theme_default.c ****     lv_style_set_line_color(&styles->meter_marker, color_text);
 532:Drivers/lvgl/lvgl/src/extra/themes/default/lv_theme_default.c ****     lv_style_set_size(&styles->meter_marker, lv_disp_dpx(theme.disp, 20));
 533:Drivers/lvgl/lvgl/src/extra/themes/default/lv_theme_default.c ****     lv_style_set_pad_left(&styles->meter_marker, lv_disp_dpx(theme.disp, 15));
 534:Drivers/lvgl/lvgl/src/extra/themes/default/lv_theme_default.c **** 
 535:Drivers/lvgl/lvgl/src/extra/themes/default/lv_theme_default.c ****     style_init_reset(&styles->meter_indic);
 536:Drivers/lvgl/lvgl/src/extra/themes/default/lv_theme_default.c ****     lv_style_set_radius(&styles->meter_indic, LV_RADIUS_CIRCLE);
 537:Drivers/lvgl/lvgl/src/extra/themes/default/lv_theme_default.c ****     lv_style_set_bg_color(&styles->meter_indic, color_text);
 538:Drivers/lvgl/lvgl/src/extra/themes/default/lv_theme_default.c ****     lv_style_set_bg_opa(&styles->meter_indic, LV_OPA_COVER);
 539:Drivers/lvgl/lvgl/src/extra/themes/default/lv_theme_default.c ****     lv_style_set_size(&styles->meter_indic, lv_disp_dpx(theme.disp, 15));
 540:Drivers/lvgl/lvgl/src/extra/themes/default/lv_theme_default.c **** #endif
 541:Drivers/lvgl/lvgl/src/extra/themes/default/lv_theme_default.c **** 
 542:Drivers/lvgl/lvgl/src/extra/themes/default/lv_theme_default.c **** #if LV_USE_TABLE
 543:Drivers/lvgl/lvgl/src/extra/themes/default/lv_theme_default.c ****     style_init_reset(&styles->table_cell);
 544:Drivers/lvgl/lvgl/src/extra/themes/default/lv_theme_default.c ****     lv_style_set_border_width(&styles->table_cell, lv_disp_dpx(theme.disp, 1));
 545:Drivers/lvgl/lvgl/src/extra/themes/default/lv_theme_default.c ****     lv_style_set_border_color(&styles->table_cell, color_grey);
 546:Drivers/lvgl/lvgl/src/extra/themes/default/lv_theme_default.c ****     lv_style_set_border_side(&styles->table_cell, LV_BORDER_SIDE_TOP | LV_BORDER_SIDE_BOTTOM);
ARM GAS  /tmp/cc6wDDAF.s 			page 11


 547:Drivers/lvgl/lvgl/src/extra/themes/default/lv_theme_default.c **** #endif
 548:Drivers/lvgl/lvgl/src/extra/themes/default/lv_theme_default.c **** 
 549:Drivers/lvgl/lvgl/src/extra/themes/default/lv_theme_default.c **** #if LV_USE_TEXTAREA
 550:Drivers/lvgl/lvgl/src/extra/themes/default/lv_theme_default.c ****     style_init_reset(&styles->ta_cursor);
 551:Drivers/lvgl/lvgl/src/extra/themes/default/lv_theme_default.c ****     lv_style_set_border_color(&styles->ta_cursor, color_text);
 552:Drivers/lvgl/lvgl/src/extra/themes/default/lv_theme_default.c ****     lv_style_set_border_width(&styles->ta_cursor, lv_disp_dpx(theme.disp, 2));
 553:Drivers/lvgl/lvgl/src/extra/themes/default/lv_theme_default.c ****     lv_style_set_pad_left(&styles->ta_cursor, - lv_disp_dpx(theme.disp, 1));
 554:Drivers/lvgl/lvgl/src/extra/themes/default/lv_theme_default.c ****     lv_style_set_border_side(&styles->ta_cursor, LV_BORDER_SIDE_LEFT);
 555:Drivers/lvgl/lvgl/src/extra/themes/default/lv_theme_default.c ****     lv_style_set_anim_time(&styles->ta_cursor, 400);
 556:Drivers/lvgl/lvgl/src/extra/themes/default/lv_theme_default.c **** 
 557:Drivers/lvgl/lvgl/src/extra/themes/default/lv_theme_default.c ****     style_init_reset(&styles->ta_placeholder);
 558:Drivers/lvgl/lvgl/src/extra/themes/default/lv_theme_default.c ****     lv_style_set_text_color(&styles->ta_placeholder, (theme.flags & MODE_DARK) ? lv_palette_darken(
 559:Drivers/lvgl/lvgl/src/extra/themes/default/lv_theme_default.c ****                                                                                                    
 560:Drivers/lvgl/lvgl/src/extra/themes/default/lv_theme_default.c **** #endif
 561:Drivers/lvgl/lvgl/src/extra/themes/default/lv_theme_default.c **** 
 562:Drivers/lvgl/lvgl/src/extra/themes/default/lv_theme_default.c **** #if LV_USE_CALENDAR
 563:Drivers/lvgl/lvgl/src/extra/themes/default/lv_theme_default.c ****     style_init_reset(&styles->calendar_btnm_bg);
 564:Drivers/lvgl/lvgl/src/extra/themes/default/lv_theme_default.c ****     lv_style_set_pad_all(&styles->calendar_btnm_bg, PAD_SMALL);
 565:Drivers/lvgl/lvgl/src/extra/themes/default/lv_theme_default.c ****     lv_style_set_pad_gap(&styles->calendar_btnm_bg, PAD_SMALL / 2);
 566:Drivers/lvgl/lvgl/src/extra/themes/default/lv_theme_default.c **** 
 567:Drivers/lvgl/lvgl/src/extra/themes/default/lv_theme_default.c ****     style_init_reset(&styles->calendar_btnm_day);
 568:Drivers/lvgl/lvgl/src/extra/themes/default/lv_theme_default.c ****     lv_style_set_border_width(&styles->calendar_btnm_day, lv_disp_dpx(theme.disp, 1));
 569:Drivers/lvgl/lvgl/src/extra/themes/default/lv_theme_default.c ****     lv_style_set_border_color(&styles->calendar_btnm_day, color_grey);
 570:Drivers/lvgl/lvgl/src/extra/themes/default/lv_theme_default.c ****     lv_style_set_bg_color(&styles->calendar_btnm_day, color_card);
 571:Drivers/lvgl/lvgl/src/extra/themes/default/lv_theme_default.c ****     lv_style_set_bg_opa(&styles->calendar_btnm_day, LV_OPA_20);
 572:Drivers/lvgl/lvgl/src/extra/themes/default/lv_theme_default.c **** 
 573:Drivers/lvgl/lvgl/src/extra/themes/default/lv_theme_default.c ****     style_init_reset(&styles->calendar_header);
 574:Drivers/lvgl/lvgl/src/extra/themes/default/lv_theme_default.c ****     lv_style_set_pad_hor(&styles->calendar_header, PAD_SMALL);
 575:Drivers/lvgl/lvgl/src/extra/themes/default/lv_theme_default.c ****     lv_style_set_pad_top(&styles->calendar_header, PAD_SMALL);
 576:Drivers/lvgl/lvgl/src/extra/themes/default/lv_theme_default.c ****     lv_style_set_pad_bottom(&styles->calendar_header, PAD_TINY);
 577:Drivers/lvgl/lvgl/src/extra/themes/default/lv_theme_default.c ****     lv_style_set_pad_gap(&styles->calendar_header, PAD_SMALL);
 578:Drivers/lvgl/lvgl/src/extra/themes/default/lv_theme_default.c **** #endif
 579:Drivers/lvgl/lvgl/src/extra/themes/default/lv_theme_default.c **** 
 580:Drivers/lvgl/lvgl/src/extra/themes/default/lv_theme_default.c **** #if LV_USE_COLORWHEEL
 581:Drivers/lvgl/lvgl/src/extra/themes/default/lv_theme_default.c ****     style_init_reset(&styles->colorwheel_main);
 582:Drivers/lvgl/lvgl/src/extra/themes/default/lv_theme_default.c ****     lv_style_set_arc_width(&styles->colorwheel_main, lv_disp_dpx(theme.disp, 10));
 583:Drivers/lvgl/lvgl/src/extra/themes/default/lv_theme_default.c **** #endif
 584:Drivers/lvgl/lvgl/src/extra/themes/default/lv_theme_default.c **** 
 585:Drivers/lvgl/lvgl/src/extra/themes/default/lv_theme_default.c **** #if LV_USE_MSGBOX
 586:Drivers/lvgl/lvgl/src/extra/themes/default/lv_theme_default.c ****     /*To add space for for the button shadow*/
 587:Drivers/lvgl/lvgl/src/extra/themes/default/lv_theme_default.c ****     style_init_reset(&styles->msgbox_btn_bg);
 588:Drivers/lvgl/lvgl/src/extra/themes/default/lv_theme_default.c ****     lv_style_set_pad_all(&styles->msgbox_btn_bg, lv_disp_dpx(theme.disp, 4));
 589:Drivers/lvgl/lvgl/src/extra/themes/default/lv_theme_default.c **** 
 590:Drivers/lvgl/lvgl/src/extra/themes/default/lv_theme_default.c ****     style_init_reset(&styles->msgbox_bg);
 591:Drivers/lvgl/lvgl/src/extra/themes/default/lv_theme_default.c ****     lv_style_set_max_width(&styles->msgbox_bg, lv_pct(100));
 592:Drivers/lvgl/lvgl/src/extra/themes/default/lv_theme_default.c **** 
 593:Drivers/lvgl/lvgl/src/extra/themes/default/lv_theme_default.c ****     style_init_reset(&styles->msgbox_backdrop_bg);
 594:Drivers/lvgl/lvgl/src/extra/themes/default/lv_theme_default.c ****     lv_style_set_bg_color(&styles->msgbox_backdrop_bg, lv_palette_main(LV_PALETTE_GREY));
 595:Drivers/lvgl/lvgl/src/extra/themes/default/lv_theme_default.c ****     lv_style_set_bg_opa(&styles->msgbox_backdrop_bg, LV_OPA_50);
 596:Drivers/lvgl/lvgl/src/extra/themes/default/lv_theme_default.c **** #endif
 597:Drivers/lvgl/lvgl/src/extra/themes/default/lv_theme_default.c **** #if LV_USE_KEYBOARD
 598:Drivers/lvgl/lvgl/src/extra/themes/default/lv_theme_default.c ****     style_init_reset(&styles->keyboard_btn_bg);
 599:Drivers/lvgl/lvgl/src/extra/themes/default/lv_theme_default.c ****     lv_style_set_shadow_width(&styles->keyboard_btn_bg, 0);
 600:Drivers/lvgl/lvgl/src/extra/themes/default/lv_theme_default.c ****     lv_style_set_radius(&styles->keyboard_btn_bg, disp_size == DISP_SMALL ? RADIUS_DEFAULT / 2 : RA
 601:Drivers/lvgl/lvgl/src/extra/themes/default/lv_theme_default.c **** #endif
 602:Drivers/lvgl/lvgl/src/extra/themes/default/lv_theme_default.c **** 
 603:Drivers/lvgl/lvgl/src/extra/themes/default/lv_theme_default.c **** #if LV_USE_TABVIEW
ARM GAS  /tmp/cc6wDDAF.s 			page 12


 604:Drivers/lvgl/lvgl/src/extra/themes/default/lv_theme_default.c ****     style_init_reset(&styles->tab_btn);
 605:Drivers/lvgl/lvgl/src/extra/themes/default/lv_theme_default.c ****     lv_style_set_border_color(&styles->tab_btn, theme.color_primary);
 606:Drivers/lvgl/lvgl/src/extra/themes/default/lv_theme_default.c ****     lv_style_set_border_width(&styles->tab_btn, BORDER_WIDTH * 2);
 607:Drivers/lvgl/lvgl/src/extra/themes/default/lv_theme_default.c ****     lv_style_set_border_side(&styles->tab_btn, LV_BORDER_SIDE_BOTTOM);
 608:Drivers/lvgl/lvgl/src/extra/themes/default/lv_theme_default.c **** 
 609:Drivers/lvgl/lvgl/src/extra/themes/default/lv_theme_default.c ****     style_init_reset(&styles->tab_bg_focus);
 610:Drivers/lvgl/lvgl/src/extra/themes/default/lv_theme_default.c ****     lv_style_set_outline_pad(&styles->tab_bg_focus, -BORDER_WIDTH);
 611:Drivers/lvgl/lvgl/src/extra/themes/default/lv_theme_default.c **** #endif
 612:Drivers/lvgl/lvgl/src/extra/themes/default/lv_theme_default.c **** 
 613:Drivers/lvgl/lvgl/src/extra/themes/default/lv_theme_default.c **** #if LV_USE_LIST
 614:Drivers/lvgl/lvgl/src/extra/themes/default/lv_theme_default.c ****     style_init_reset(&styles->list_bg);
 615:Drivers/lvgl/lvgl/src/extra/themes/default/lv_theme_default.c ****     lv_style_set_pad_hor(&styles->list_bg, PAD_DEF);
 616:Drivers/lvgl/lvgl/src/extra/themes/default/lv_theme_default.c ****     lv_style_set_pad_ver(&styles->list_bg, 0);
 617:Drivers/lvgl/lvgl/src/extra/themes/default/lv_theme_default.c ****     lv_style_set_pad_gap(&styles->list_bg, 0);
 618:Drivers/lvgl/lvgl/src/extra/themes/default/lv_theme_default.c ****     lv_style_set_clip_corner(&styles->list_bg, true);
 619:Drivers/lvgl/lvgl/src/extra/themes/default/lv_theme_default.c **** 
 620:Drivers/lvgl/lvgl/src/extra/themes/default/lv_theme_default.c ****     style_init_reset(&styles->list_btn);
 621:Drivers/lvgl/lvgl/src/extra/themes/default/lv_theme_default.c ****     lv_style_set_border_width(&styles->list_btn, lv_disp_dpx(theme.disp, 1));
 622:Drivers/lvgl/lvgl/src/extra/themes/default/lv_theme_default.c ****     lv_style_set_border_color(&styles->list_btn, color_grey);
 623:Drivers/lvgl/lvgl/src/extra/themes/default/lv_theme_default.c ****     lv_style_set_border_side(&styles->list_btn, LV_BORDER_SIDE_BOTTOM);
 624:Drivers/lvgl/lvgl/src/extra/themes/default/lv_theme_default.c ****     lv_style_set_pad_all(&styles->list_btn, PAD_SMALL);
 625:Drivers/lvgl/lvgl/src/extra/themes/default/lv_theme_default.c ****     lv_style_set_pad_column(&styles->list_btn, PAD_SMALL);
 626:Drivers/lvgl/lvgl/src/extra/themes/default/lv_theme_default.c **** 
 627:Drivers/lvgl/lvgl/src/extra/themes/default/lv_theme_default.c ****     style_init_reset(&styles->list_item_grow);
 628:Drivers/lvgl/lvgl/src/extra/themes/default/lv_theme_default.c ****     lv_style_set_transform_width(&styles->list_item_grow, PAD_DEF);
 629:Drivers/lvgl/lvgl/src/extra/themes/default/lv_theme_default.c **** #endif
 630:Drivers/lvgl/lvgl/src/extra/themes/default/lv_theme_default.c **** 
 631:Drivers/lvgl/lvgl/src/extra/themes/default/lv_theme_default.c **** 
 632:Drivers/lvgl/lvgl/src/extra/themes/default/lv_theme_default.c **** #if LV_USE_LED
 633:Drivers/lvgl/lvgl/src/extra/themes/default/lv_theme_default.c ****     style_init_reset(&styles->led);
 634:Drivers/lvgl/lvgl/src/extra/themes/default/lv_theme_default.c ****     lv_style_set_bg_opa(&styles->led, LV_OPA_COVER);
 635:Drivers/lvgl/lvgl/src/extra/themes/default/lv_theme_default.c ****     lv_style_set_bg_color(&styles->led, lv_color_white());
 636:Drivers/lvgl/lvgl/src/extra/themes/default/lv_theme_default.c ****     lv_style_set_bg_grad_color(&styles->led, lv_palette_main(LV_PALETTE_GREY));
 637:Drivers/lvgl/lvgl/src/extra/themes/default/lv_theme_default.c ****     lv_style_set_radius(&styles->led, LV_RADIUS_CIRCLE);
 638:Drivers/lvgl/lvgl/src/extra/themes/default/lv_theme_default.c ****     lv_style_set_shadow_width(&styles->led, lv_disp_dpx(theme.disp, 15));
 639:Drivers/lvgl/lvgl/src/extra/themes/default/lv_theme_default.c ****     lv_style_set_shadow_color(&styles->led, lv_color_white());
 640:Drivers/lvgl/lvgl/src/extra/themes/default/lv_theme_default.c ****     lv_style_set_shadow_spread(&styles->led, lv_disp_dpx(theme.disp, 5));
 641:Drivers/lvgl/lvgl/src/extra/themes/default/lv_theme_default.c **** #endif
 642:Drivers/lvgl/lvgl/src/extra/themes/default/lv_theme_default.c **** }
 643:Drivers/lvgl/lvgl/src/extra/themes/default/lv_theme_default.c **** 
 644:Drivers/lvgl/lvgl/src/extra/themes/default/lv_theme_default.c **** /**********************
 645:Drivers/lvgl/lvgl/src/extra/themes/default/lv_theme_default.c ****  *   GLOBAL FUNCTIONS
 646:Drivers/lvgl/lvgl/src/extra/themes/default/lv_theme_default.c ****  **********************/
 647:Drivers/lvgl/lvgl/src/extra/themes/default/lv_theme_default.c **** 
 648:Drivers/lvgl/lvgl/src/extra/themes/default/lv_theme_default.c **** lv_theme_t * lv_theme_default_init(lv_disp_t * disp, lv_color_t color_primary, lv_color_t color_sec
 649:Drivers/lvgl/lvgl/src/extra/themes/default/lv_theme_default.c ****                                    const lv_font_t * font)
 650:Drivers/lvgl/lvgl/src/extra/themes/default/lv_theme_default.c **** {
 651:Drivers/lvgl/lvgl/src/extra/themes/default/lv_theme_default.c **** 
 652:Drivers/lvgl/lvgl/src/extra/themes/default/lv_theme_default.c ****     /*This trick is required only to avoid the garbage collection of
 653:Drivers/lvgl/lvgl/src/extra/themes/default/lv_theme_default.c ****      *styles' data if LVGL is used in a binding (e.g. Micropython)
 654:Drivers/lvgl/lvgl/src/extra/themes/default/lv_theme_default.c ****      *In a general case styles could be in simple `static lv_style_t my_style...` variables*/
 655:Drivers/lvgl/lvgl/src/extra/themes/default/lv_theme_default.c ****     if(!lv_theme_default_is_inited()) {
 656:Drivers/lvgl/lvgl/src/extra/themes/default/lv_theme_default.c ****         inited = false;
 657:Drivers/lvgl/lvgl/src/extra/themes/default/lv_theme_default.c ****         LV_GC_ROOT(_lv_theme_default_styles) = lv_mem_alloc(sizeof(my_theme_styles_t));
 658:Drivers/lvgl/lvgl/src/extra/themes/default/lv_theme_default.c ****         styles = (my_theme_styles_t *)LV_GC_ROOT(_lv_theme_default_styles);
 659:Drivers/lvgl/lvgl/src/extra/themes/default/lv_theme_default.c ****     }
 660:Drivers/lvgl/lvgl/src/extra/themes/default/lv_theme_default.c **** 
ARM GAS  /tmp/cc6wDDAF.s 			page 13


 661:Drivers/lvgl/lvgl/src/extra/themes/default/lv_theme_default.c ****     if(LV_HOR_RES <= 320) disp_size = DISP_SMALL;
 662:Drivers/lvgl/lvgl/src/extra/themes/default/lv_theme_default.c ****     else if(LV_HOR_RES < 720) disp_size = DISP_MEDIUM;
 663:Drivers/lvgl/lvgl/src/extra/themes/default/lv_theme_default.c ****     else disp_size = DISP_LARGE;
 664:Drivers/lvgl/lvgl/src/extra/themes/default/lv_theme_default.c **** 
 665:Drivers/lvgl/lvgl/src/extra/themes/default/lv_theme_default.c ****     theme.disp = disp;
 666:Drivers/lvgl/lvgl/src/extra/themes/default/lv_theme_default.c ****     theme.color_primary = color_primary;
 667:Drivers/lvgl/lvgl/src/extra/themes/default/lv_theme_default.c ****     theme.color_secondary = color_secondary;
 668:Drivers/lvgl/lvgl/src/extra/themes/default/lv_theme_default.c ****     theme.font_small = font;
 669:Drivers/lvgl/lvgl/src/extra/themes/default/lv_theme_default.c ****     theme.font_normal = font;
 670:Drivers/lvgl/lvgl/src/extra/themes/default/lv_theme_default.c ****     theme.font_large = font;
 671:Drivers/lvgl/lvgl/src/extra/themes/default/lv_theme_default.c ****     theme.apply_cb = theme_apply;
 672:Drivers/lvgl/lvgl/src/extra/themes/default/lv_theme_default.c ****     theme.flags = dark ? MODE_DARK : 0;
 673:Drivers/lvgl/lvgl/src/extra/themes/default/lv_theme_default.c **** 
 674:Drivers/lvgl/lvgl/src/extra/themes/default/lv_theme_default.c ****     style_init();
 675:Drivers/lvgl/lvgl/src/extra/themes/default/lv_theme_default.c **** 
 676:Drivers/lvgl/lvgl/src/extra/themes/default/lv_theme_default.c ****     if(disp == NULL || lv_disp_get_theme(disp) == &theme) lv_obj_report_style_change(NULL);
 677:Drivers/lvgl/lvgl/src/extra/themes/default/lv_theme_default.c **** 
 678:Drivers/lvgl/lvgl/src/extra/themes/default/lv_theme_default.c ****     inited = true;
 679:Drivers/lvgl/lvgl/src/extra/themes/default/lv_theme_default.c **** 
 680:Drivers/lvgl/lvgl/src/extra/themes/default/lv_theme_default.c ****     return (lv_theme_t *)&theme;
 681:Drivers/lvgl/lvgl/src/extra/themes/default/lv_theme_default.c **** }
 682:Drivers/lvgl/lvgl/src/extra/themes/default/lv_theme_default.c **** 
 683:Drivers/lvgl/lvgl/src/extra/themes/default/lv_theme_default.c **** lv_theme_t * lv_theme_default_get(void)
 684:Drivers/lvgl/lvgl/src/extra/themes/default/lv_theme_default.c **** {
 685:Drivers/lvgl/lvgl/src/extra/themes/default/lv_theme_default.c ****     if(!lv_theme_default_is_inited()) {
 686:Drivers/lvgl/lvgl/src/extra/themes/default/lv_theme_default.c ****         return NULL;
 687:Drivers/lvgl/lvgl/src/extra/themes/default/lv_theme_default.c ****     }
 688:Drivers/lvgl/lvgl/src/extra/themes/default/lv_theme_default.c **** 
 689:Drivers/lvgl/lvgl/src/extra/themes/default/lv_theme_default.c ****     return (lv_theme_t *)&theme;
 690:Drivers/lvgl/lvgl/src/extra/themes/default/lv_theme_default.c **** }
 691:Drivers/lvgl/lvgl/src/extra/themes/default/lv_theme_default.c **** 
 692:Drivers/lvgl/lvgl/src/extra/themes/default/lv_theme_default.c **** bool lv_theme_default_is_inited(void)
 693:Drivers/lvgl/lvgl/src/extra/themes/default/lv_theme_default.c **** {
 694:Drivers/lvgl/lvgl/src/extra/themes/default/lv_theme_default.c ****     return  LV_GC_ROOT(_lv_theme_default_styles) == NULL ? false : true;
 695:Drivers/lvgl/lvgl/src/extra/themes/default/lv_theme_default.c **** }
 696:Drivers/lvgl/lvgl/src/extra/themes/default/lv_theme_default.c **** 
 697:Drivers/lvgl/lvgl/src/extra/themes/default/lv_theme_default.c **** 
 698:Drivers/lvgl/lvgl/src/extra/themes/default/lv_theme_default.c **** static void theme_apply(lv_theme_t * th, lv_obj_t * obj)
 699:Drivers/lvgl/lvgl/src/extra/themes/default/lv_theme_default.c **** {
  26              		.loc 1 699 0
  27              		.cfi_startproc
  28              		@ args = 0, pretend = 0, frame = 0
  29              		@ frame_needed = 0, uses_anonymous_args = 0
  30              	.LVL0:
  31 0000 70B5     		push	{r4, r5, r6, lr}
  32              	.LCFI0:
  33              		.cfi_def_cfa_offset 16
  34              		.cfi_offset 4, -16
  35              		.cfi_offset 5, -12
  36              		.cfi_offset 6, -8
  37              		.cfi_offset 14, -4
  38 0002 0C46     		mov	r4, r1
 700:Drivers/lvgl/lvgl/src/extra/themes/default/lv_theme_default.c ****     LV_UNUSED(th);
 701:Drivers/lvgl/lvgl/src/extra/themes/default/lv_theme_default.c **** 
 702:Drivers/lvgl/lvgl/src/extra/themes/default/lv_theme_default.c ****     if(lv_obj_get_parent(obj) == NULL) {
  39              		.loc 1 702 0
  40 0004 0846     		mov	r0, r1
ARM GAS  /tmp/cc6wDDAF.s 			page 14


  41              	.LVL1:
  42 0006 FFF7FEFF 		bl	lv_obj_get_parent
  43              	.LVL2:
  44 000a 0028     		cmp	r0, #0
  45 000c 44D0     		beq	.L55
 703:Drivers/lvgl/lvgl/src/extra/themes/default/lv_theme_default.c ****         lv_obj_add_style(obj, &styles->scr, 0);
 704:Drivers/lvgl/lvgl/src/extra/themes/default/lv_theme_default.c ****         lv_obj_add_style(obj, &styles->scrollbar, LV_PART_SCROLLBAR);
 705:Drivers/lvgl/lvgl/src/extra/themes/default/lv_theme_default.c ****         lv_obj_add_style(obj, &styles->scrollbar_scrolled, LV_PART_SCROLLBAR | LV_STATE_SCROLLED);
 706:Drivers/lvgl/lvgl/src/extra/themes/default/lv_theme_default.c ****         return;
 707:Drivers/lvgl/lvgl/src/extra/themes/default/lv_theme_default.c ****     }
 708:Drivers/lvgl/lvgl/src/extra/themes/default/lv_theme_default.c **** 
 709:Drivers/lvgl/lvgl/src/extra/themes/default/lv_theme_default.c ****     if(lv_obj_check_type(obj, &lv_obj_class)) {
  46              		.loc 1 709 0
  47 000e B049     		ldr	r1, .L71
  48 0010 2046     		mov	r0, r4
  49 0012 FFF7FEFF 		bl	lv_obj_check_type
  50              	.LVL3:
  51 0016 0028     		cmp	r0, #0
  52 0018 00F09780 		beq	.L4
  53              	.LBB102:
 710:Drivers/lvgl/lvgl/src/extra/themes/default/lv_theme_default.c **** #if LV_USE_TABVIEW
 711:Drivers/lvgl/lvgl/src/extra/themes/default/lv_theme_default.c ****         lv_obj_t * parent = lv_obj_get_parent(obj);
  54              		.loc 1 711 0
  55 001c 2046     		mov	r0, r4
  56 001e FFF7FEFF 		bl	lv_obj_get_parent
  57              	.LVL4:
  58 0022 0546     		mov	r5, r0
  59              	.LVL5:
 712:Drivers/lvgl/lvgl/src/extra/themes/default/lv_theme_default.c ****         /*Tabview content area*/
 713:Drivers/lvgl/lvgl/src/extra/themes/default/lv_theme_default.c ****         if(lv_obj_check_type(parent, &lv_tabview_class)) {
  60              		.loc 1 713 0
  61 0024 AB49     		ldr	r1, .L71+4
  62 0026 FFF7FEFF 		bl	lv_obj_check_type
  63              	.LVL6:
  64 002a 0028     		cmp	r0, #0
  65 002c 47D1     		bne	.L1
 714:Drivers/lvgl/lvgl/src/extra/themes/default/lv_theme_default.c ****             return;
 715:Drivers/lvgl/lvgl/src/extra/themes/default/lv_theme_default.c ****         }
 716:Drivers/lvgl/lvgl/src/extra/themes/default/lv_theme_default.c ****         /*Tabview pages*/
 717:Drivers/lvgl/lvgl/src/extra/themes/default/lv_theme_default.c ****         else if(lv_obj_check_type(lv_obj_get_parent(parent), &lv_tabview_class)) {
  66              		.loc 1 717 0
  67 002e 2846     		mov	r0, r5
  68 0030 FFF7FEFF 		bl	lv_obj_get_parent
  69              	.LVL7:
  70 0034 A749     		ldr	r1, .L71+4
  71 0036 FFF7FEFF 		bl	lv_obj_check_type
  72              	.LVL8:
  73 003a 0028     		cmp	r0, #0
  74 003c 40D1     		bne	.L56
 718:Drivers/lvgl/lvgl/src/extra/themes/default/lv_theme_default.c ****             lv_obj_add_style(obj, &styles->pad_normal, 0);
 719:Drivers/lvgl/lvgl/src/extra/themes/default/lv_theme_default.c ****             lv_obj_add_style(obj, &styles->scrollbar, LV_PART_SCROLLBAR);
 720:Drivers/lvgl/lvgl/src/extra/themes/default/lv_theme_default.c ****             lv_obj_add_style(obj, &styles->scrollbar_scrolled, LV_PART_SCROLLBAR | LV_STATE_SCROLLE
 721:Drivers/lvgl/lvgl/src/extra/themes/default/lv_theme_default.c ****             return;
 722:Drivers/lvgl/lvgl/src/extra/themes/default/lv_theme_default.c ****         }
 723:Drivers/lvgl/lvgl/src/extra/themes/default/lv_theme_default.c **** #endif
 724:Drivers/lvgl/lvgl/src/extra/themes/default/lv_theme_default.c **** 
 725:Drivers/lvgl/lvgl/src/extra/themes/default/lv_theme_default.c **** #if LV_USE_WIN
ARM GAS  /tmp/cc6wDDAF.s 			page 15


 726:Drivers/lvgl/lvgl/src/extra/themes/default/lv_theme_default.c ****         /*Header*/
 727:Drivers/lvgl/lvgl/src/extra/themes/default/lv_theme_default.c ****         if(lv_obj_get_index(obj) == 0 && lv_obj_check_type(lv_obj_get_parent(obj), &lv_win_class)) 
  75              		.loc 1 727 0
  76 003e 2046     		mov	r0, r4
  77 0040 FFF7FEFF 		bl	lv_obj_get_index
  78              	.LVL9:
  79 0044 38B9     		cbnz	r0, .L6
  80              		.loc 1 727 0 is_stmt 0 discriminator 1
  81 0046 2046     		mov	r0, r4
  82 0048 FFF7FEFF 		bl	lv_obj_get_parent
  83              	.LVL10:
  84 004c A249     		ldr	r1, .L71+8
  85 004e FFF7FEFF 		bl	lv_obj_check_type
  86              	.LVL11:
  87 0052 0028     		cmp	r0, #0
  88 0054 49D1     		bne	.L57
  89              	.L6:
 728:Drivers/lvgl/lvgl/src/extra/themes/default/lv_theme_default.c ****             lv_obj_add_style(obj, &styles->bg_color_grey, 0);
 729:Drivers/lvgl/lvgl/src/extra/themes/default/lv_theme_default.c ****             lv_obj_add_style(obj, &styles->pad_tiny, 0);
 730:Drivers/lvgl/lvgl/src/extra/themes/default/lv_theme_default.c ****             return;
 731:Drivers/lvgl/lvgl/src/extra/themes/default/lv_theme_default.c ****         }
 732:Drivers/lvgl/lvgl/src/extra/themes/default/lv_theme_default.c ****         /*Content*/
 733:Drivers/lvgl/lvgl/src/extra/themes/default/lv_theme_default.c ****         else if(lv_obj_get_index(obj) == 1 && lv_obj_check_type(lv_obj_get_parent(obj), &lv_win_cla
  90              		.loc 1 733 0 is_stmt 1
  91 0056 2046     		mov	r0, r4
  92 0058 FFF7FEFF 		bl	lv_obj_get_index
  93              	.LVL12:
  94 005c 0128     		cmp	r0, #1
  95 005e 52D0     		beq	.L58
  96              	.L7:
 734:Drivers/lvgl/lvgl/src/extra/themes/default/lv_theme_default.c ****             lv_obj_add_style(obj, &styles->scr, 0);
 735:Drivers/lvgl/lvgl/src/extra/themes/default/lv_theme_default.c ****             lv_obj_add_style(obj, &styles->pad_normal, 0);
 736:Drivers/lvgl/lvgl/src/extra/themes/default/lv_theme_default.c ****             lv_obj_add_style(obj, &styles->scrollbar, LV_PART_SCROLLBAR);
 737:Drivers/lvgl/lvgl/src/extra/themes/default/lv_theme_default.c ****             lv_obj_add_style(obj, &styles->scrollbar_scrolled, LV_PART_SCROLLBAR | LV_STATE_SCROLLE
 738:Drivers/lvgl/lvgl/src/extra/themes/default/lv_theme_default.c ****             return;
 739:Drivers/lvgl/lvgl/src/extra/themes/default/lv_theme_default.c ****         }
 740:Drivers/lvgl/lvgl/src/extra/themes/default/lv_theme_default.c **** #endif
 741:Drivers/lvgl/lvgl/src/extra/themes/default/lv_theme_default.c **** 
 742:Drivers/lvgl/lvgl/src/extra/themes/default/lv_theme_default.c **** 
 743:Drivers/lvgl/lvgl/src/extra/themes/default/lv_theme_default.c **** #if LV_USE_CALENDAR
 744:Drivers/lvgl/lvgl/src/extra/themes/default/lv_theme_default.c ****         if(lv_obj_check_type(lv_obj_get_parent(obj), &lv_calendar_class)) {
  97              		.loc 1 744 0
  98 0060 2046     		mov	r0, r4
  99 0062 FFF7FEFF 		bl	lv_obj_get_parent
 100              	.LVL13:
 101 0066 9D49     		ldr	r1, .L71+12
 102 0068 FFF7FEFF 		bl	lv_obj_check_type
 103              	.LVL14:
 104 006c 38BB     		cbnz	r0, .L1
 745:Drivers/lvgl/lvgl/src/extra/themes/default/lv_theme_default.c ****             /*No style*/
 746:Drivers/lvgl/lvgl/src/extra/themes/default/lv_theme_default.c ****             return;
 747:Drivers/lvgl/lvgl/src/extra/themes/default/lv_theme_default.c ****         }
 748:Drivers/lvgl/lvgl/src/extra/themes/default/lv_theme_default.c **** #endif
 749:Drivers/lvgl/lvgl/src/extra/themes/default/lv_theme_default.c **** 
 750:Drivers/lvgl/lvgl/src/extra/themes/default/lv_theme_default.c ****         lv_obj_add_style(obj, &styles->card, 0);
 105              		.loc 1 750 0
 106 006e 9C4D     		ldr	r5, .L71+16
ARM GAS  /tmp/cc6wDDAF.s 			page 16


 107              	.LVL15:
 108 0070 2968     		ldr	r1, [r5]
 109 0072 0022     		movs	r2, #0
 110 0074 1831     		adds	r1, r1, #24
 111 0076 2046     		mov	r0, r4
 112 0078 FFF7FEFF 		bl	lv_obj_add_style
 113              	.LVL16:
 751:Drivers/lvgl/lvgl/src/extra/themes/default/lv_theme_default.c ****         lv_obj_add_style(obj, &styles->scrollbar, LV_PART_SCROLLBAR);
 114              		.loc 1 751 0
 115 007c 2968     		ldr	r1, [r5]
 116 007e 4FF48032 		mov	r2, #65536
 117 0082 0831     		adds	r1, r1, #8
 118 0084 2046     		mov	r0, r4
 119 0086 FFF7FEFF 		bl	lv_obj_add_style
 120              	.LVL17:
 752:Drivers/lvgl/lvgl/src/extra/themes/default/lv_theme_default.c ****         lv_obj_add_style(obj, &styles->scrollbar_scrolled, LV_PART_SCROLLBAR | LV_STATE_SCROLLED);
 121              		.loc 1 752 0
 122 008a 2968     		ldr	r1, [r5]
 123 008c 954A     		ldr	r2, .L71+20
 124 008e 1031     		adds	r1, r1, #16
 125 0090 2046     		mov	r0, r4
 126 0092 FFF7FEFF 		bl	lv_obj_add_style
 127              	.LVL18:
 128              	.LBE102:
 129 0096 12E0     		b	.L1
 130              	.L55:
 703:Drivers/lvgl/lvgl/src/extra/themes/default/lv_theme_default.c ****         lv_obj_add_style(obj, &styles->scrollbar, LV_PART_SCROLLBAR);
 131              		.loc 1 703 0
 132 0098 914D     		ldr	r5, .L71+16
 133 009a 0022     		movs	r2, #0
 134 009c 2968     		ldr	r1, [r5]
 135 009e 2046     		mov	r0, r4
 136 00a0 FFF7FEFF 		bl	lv_obj_add_style
 137              	.LVL19:
 704:Drivers/lvgl/lvgl/src/extra/themes/default/lv_theme_default.c ****         lv_obj_add_style(obj, &styles->scrollbar_scrolled, LV_PART_SCROLLBAR | LV_STATE_SCROLLED);
 138              		.loc 1 704 0
 139 00a4 2968     		ldr	r1, [r5]
 140 00a6 4FF48032 		mov	r2, #65536
 141 00aa 0831     		adds	r1, r1, #8
 142 00ac 2046     		mov	r0, r4
 143 00ae FFF7FEFF 		bl	lv_obj_add_style
 144              	.LVL20:
 705:Drivers/lvgl/lvgl/src/extra/themes/default/lv_theme_default.c ****         return;
 145              		.loc 1 705 0
 146 00b2 2968     		ldr	r1, [r5]
 147 00b4 8B4A     		ldr	r2, .L71+20
 148 00b6 1031     		adds	r1, r1, #16
 149 00b8 2046     		mov	r0, r4
 150 00ba FFF7FEFF 		bl	lv_obj_add_style
 151              	.LVL21:
 152              	.L1:
 753:Drivers/lvgl/lvgl/src/extra/themes/default/lv_theme_default.c ****     }
 754:Drivers/lvgl/lvgl/src/extra/themes/default/lv_theme_default.c **** #if LV_USE_BTN
 755:Drivers/lvgl/lvgl/src/extra/themes/default/lv_theme_default.c ****     else if(lv_obj_check_type(obj, &lv_btn_class)) {
 756:Drivers/lvgl/lvgl/src/extra/themes/default/lv_theme_default.c ****         lv_obj_add_style(obj, &styles->btn, 0);
 757:Drivers/lvgl/lvgl/src/extra/themes/default/lv_theme_default.c ****         lv_obj_add_style(obj, &styles->bg_color_primary, 0);
 758:Drivers/lvgl/lvgl/src/extra/themes/default/lv_theme_default.c ****         lv_obj_add_style(obj, &styles->transition_delayed, 0);
ARM GAS  /tmp/cc6wDDAF.s 			page 17


 759:Drivers/lvgl/lvgl/src/extra/themes/default/lv_theme_default.c ****         lv_obj_add_style(obj, &styles->pressed, LV_STATE_PRESSED);
 760:Drivers/lvgl/lvgl/src/extra/themes/default/lv_theme_default.c ****         lv_obj_add_style(obj, &styles->transition_normal, LV_STATE_PRESSED);
 761:Drivers/lvgl/lvgl/src/extra/themes/default/lv_theme_default.c ****         lv_obj_add_style(obj, &styles->outline_primary, LV_STATE_FOCUS_KEY);
 762:Drivers/lvgl/lvgl/src/extra/themes/default/lv_theme_default.c **** #if LV_THEME_DEFAULT_GROW
 763:Drivers/lvgl/lvgl/src/extra/themes/default/lv_theme_default.c ****         lv_obj_add_style(obj, &styles->grow, LV_STATE_PRESSED);
 764:Drivers/lvgl/lvgl/src/extra/themes/default/lv_theme_default.c **** #endif
 765:Drivers/lvgl/lvgl/src/extra/themes/default/lv_theme_default.c ****         lv_obj_add_style(obj, &styles->bg_color_secondary, LV_STATE_CHECKED);
 766:Drivers/lvgl/lvgl/src/extra/themes/default/lv_theme_default.c ****         lv_obj_add_style(obj, &styles->disabled, LV_STATE_DISABLED);
 767:Drivers/lvgl/lvgl/src/extra/themes/default/lv_theme_default.c **** 
 768:Drivers/lvgl/lvgl/src/extra/themes/default/lv_theme_default.c **** #if LV_USE_MENU
 769:Drivers/lvgl/lvgl/src/extra/themes/default/lv_theme_default.c ****         if(lv_obj_check_type(lv_obj_get_parent(obj), &lv_menu_sidebar_header_cont_class) ||
 770:Drivers/lvgl/lvgl/src/extra/themes/default/lv_theme_default.c ****            lv_obj_check_type(lv_obj_get_parent(obj), &lv_menu_main_header_cont_class)) {
 771:Drivers/lvgl/lvgl/src/extra/themes/default/lv_theme_default.c ****             lv_obj_add_style(obj, &styles->menu_header_btn, 0);
 772:Drivers/lvgl/lvgl/src/extra/themes/default/lv_theme_default.c ****             lv_obj_add_style(obj, &styles->menu_pressed, LV_STATE_PRESSED);
 773:Drivers/lvgl/lvgl/src/extra/themes/default/lv_theme_default.c ****         }
 774:Drivers/lvgl/lvgl/src/extra/themes/default/lv_theme_default.c **** #endif
 775:Drivers/lvgl/lvgl/src/extra/themes/default/lv_theme_default.c ****     }
 776:Drivers/lvgl/lvgl/src/extra/themes/default/lv_theme_default.c **** #endif
 777:Drivers/lvgl/lvgl/src/extra/themes/default/lv_theme_default.c **** 
 778:Drivers/lvgl/lvgl/src/extra/themes/default/lv_theme_default.c **** #if LV_USE_LINE
 779:Drivers/lvgl/lvgl/src/extra/themes/default/lv_theme_default.c ****     else if(lv_obj_check_type(obj, &lv_line_class)) {
 780:Drivers/lvgl/lvgl/src/extra/themes/default/lv_theme_default.c ****         lv_obj_add_style(obj, &styles->line, 0);
 781:Drivers/lvgl/lvgl/src/extra/themes/default/lv_theme_default.c ****     }
 782:Drivers/lvgl/lvgl/src/extra/themes/default/lv_theme_default.c **** #endif
 783:Drivers/lvgl/lvgl/src/extra/themes/default/lv_theme_default.c **** 
 784:Drivers/lvgl/lvgl/src/extra/themes/default/lv_theme_default.c **** #if LV_USE_BTNMATRIX
 785:Drivers/lvgl/lvgl/src/extra/themes/default/lv_theme_default.c ****     else if(lv_obj_check_type(obj, &lv_btnmatrix_class)) {
 786:Drivers/lvgl/lvgl/src/extra/themes/default/lv_theme_default.c **** #if LV_USE_MSGBOX
 787:Drivers/lvgl/lvgl/src/extra/themes/default/lv_theme_default.c ****         if(lv_obj_check_type(lv_obj_get_parent(obj), &lv_msgbox_class)) {
 788:Drivers/lvgl/lvgl/src/extra/themes/default/lv_theme_default.c ****             lv_obj_add_style(obj, &styles->msgbox_btn_bg, 0);
 789:Drivers/lvgl/lvgl/src/extra/themes/default/lv_theme_default.c ****             lv_obj_add_style(obj, &styles->pad_gap, 0);
 790:Drivers/lvgl/lvgl/src/extra/themes/default/lv_theme_default.c ****             lv_obj_add_style(obj, &styles->btn, LV_PART_ITEMS);
 791:Drivers/lvgl/lvgl/src/extra/themes/default/lv_theme_default.c ****             lv_obj_add_style(obj, &styles->pressed, LV_PART_ITEMS | LV_STATE_PRESSED);
 792:Drivers/lvgl/lvgl/src/extra/themes/default/lv_theme_default.c ****             lv_obj_add_style(obj, &styles->disabled, LV_PART_ITEMS | LV_STATE_DISABLED);
 793:Drivers/lvgl/lvgl/src/extra/themes/default/lv_theme_default.c ****             lv_obj_add_style(obj, &styles->bg_color_primary, LV_PART_ITEMS | LV_STATE_CHECKED);
 794:Drivers/lvgl/lvgl/src/extra/themes/default/lv_theme_default.c ****             lv_obj_add_style(obj, &styles->bg_color_primary_muted, LV_PART_ITEMS | LV_STATE_FOCUS_K
 795:Drivers/lvgl/lvgl/src/extra/themes/default/lv_theme_default.c ****             lv_obj_add_style(obj, &styles->bg_color_secondary_muted, LV_PART_ITEMS | LV_STATE_EDITE
 796:Drivers/lvgl/lvgl/src/extra/themes/default/lv_theme_default.c ****             return;
 797:Drivers/lvgl/lvgl/src/extra/themes/default/lv_theme_default.c ****         }
 798:Drivers/lvgl/lvgl/src/extra/themes/default/lv_theme_default.c **** #endif
 799:Drivers/lvgl/lvgl/src/extra/themes/default/lv_theme_default.c **** #if LV_USE_TABVIEW
 800:Drivers/lvgl/lvgl/src/extra/themes/default/lv_theme_default.c ****         if(lv_obj_check_type(lv_obj_get_parent(obj), &lv_tabview_class)) {
 801:Drivers/lvgl/lvgl/src/extra/themes/default/lv_theme_default.c ****             lv_obj_add_style(obj, &styles->bg_color_white, 0);
 802:Drivers/lvgl/lvgl/src/extra/themes/default/lv_theme_default.c ****             lv_obj_add_style(obj, &styles->outline_primary, LV_STATE_FOCUS_KEY);
 803:Drivers/lvgl/lvgl/src/extra/themes/default/lv_theme_default.c ****             lv_obj_add_style(obj, &styles->tab_bg_focus, LV_STATE_FOCUS_KEY);
 804:Drivers/lvgl/lvgl/src/extra/themes/default/lv_theme_default.c ****             lv_obj_add_style(obj, &styles->pressed, LV_PART_ITEMS | LV_STATE_PRESSED);
 805:Drivers/lvgl/lvgl/src/extra/themes/default/lv_theme_default.c ****             lv_obj_add_style(obj, &styles->bg_color_primary_muted, LV_PART_ITEMS | LV_STATE_CHECKED
 806:Drivers/lvgl/lvgl/src/extra/themes/default/lv_theme_default.c ****             lv_obj_add_style(obj, &styles->tab_btn, LV_PART_ITEMS | LV_STATE_CHECKED);
 807:Drivers/lvgl/lvgl/src/extra/themes/default/lv_theme_default.c ****             lv_obj_add_style(obj, &styles->outline_primary, LV_PART_ITEMS | LV_STATE_FOCUS_KEY);
 808:Drivers/lvgl/lvgl/src/extra/themes/default/lv_theme_default.c ****             lv_obj_add_style(obj, &styles->outline_secondary, LV_PART_ITEMS | LV_STATE_EDITED);
 809:Drivers/lvgl/lvgl/src/extra/themes/default/lv_theme_default.c ****             lv_obj_add_style(obj, &styles->tab_bg_focus, LV_PART_ITEMS | LV_STATE_FOCUS_KEY);
 810:Drivers/lvgl/lvgl/src/extra/themes/default/lv_theme_default.c ****             return;
 811:Drivers/lvgl/lvgl/src/extra/themes/default/lv_theme_default.c ****         }
 812:Drivers/lvgl/lvgl/src/extra/themes/default/lv_theme_default.c **** #endif
 813:Drivers/lvgl/lvgl/src/extra/themes/default/lv_theme_default.c **** 
 814:Drivers/lvgl/lvgl/src/extra/themes/default/lv_theme_default.c **** #if LV_USE_CALENDAR
 815:Drivers/lvgl/lvgl/src/extra/themes/default/lv_theme_default.c ****         if(lv_obj_check_type(lv_obj_get_parent(obj), &lv_calendar_class)) {
ARM GAS  /tmp/cc6wDDAF.s 			page 18


 816:Drivers/lvgl/lvgl/src/extra/themes/default/lv_theme_default.c ****             lv_obj_add_style(obj, &styles->calendar_btnm_bg, 0);
 817:Drivers/lvgl/lvgl/src/extra/themes/default/lv_theme_default.c ****             lv_obj_add_style(obj, &styles->outline_primary, LV_STATE_FOCUS_KEY);
 818:Drivers/lvgl/lvgl/src/extra/themes/default/lv_theme_default.c ****             lv_obj_add_style(obj, &styles->outline_secondary, LV_STATE_EDITED);
 819:Drivers/lvgl/lvgl/src/extra/themes/default/lv_theme_default.c ****             lv_obj_add_style(obj, &styles->calendar_btnm_day, LV_PART_ITEMS);
 820:Drivers/lvgl/lvgl/src/extra/themes/default/lv_theme_default.c ****             lv_obj_add_style(obj, &styles->pressed, LV_PART_ITEMS | LV_STATE_PRESSED);
 821:Drivers/lvgl/lvgl/src/extra/themes/default/lv_theme_default.c ****             lv_obj_add_style(obj, &styles->disabled, LV_PART_ITEMS | LV_STATE_DISABLED);
 822:Drivers/lvgl/lvgl/src/extra/themes/default/lv_theme_default.c ****             lv_obj_add_style(obj, &styles->outline_primary, LV_PART_ITEMS | LV_STATE_FOCUS_KEY);
 823:Drivers/lvgl/lvgl/src/extra/themes/default/lv_theme_default.c ****             lv_obj_add_style(obj, &styles->outline_secondary, LV_PART_ITEMS | LV_STATE_EDITED);
 824:Drivers/lvgl/lvgl/src/extra/themes/default/lv_theme_default.c ****             return;
 825:Drivers/lvgl/lvgl/src/extra/themes/default/lv_theme_default.c ****         }
 826:Drivers/lvgl/lvgl/src/extra/themes/default/lv_theme_default.c **** #endif
 827:Drivers/lvgl/lvgl/src/extra/themes/default/lv_theme_default.c ****         lv_obj_add_style(obj, &styles->card, 0);
 828:Drivers/lvgl/lvgl/src/extra/themes/default/lv_theme_default.c ****         lv_obj_add_style(obj, &styles->outline_primary, LV_STATE_FOCUS_KEY);
 829:Drivers/lvgl/lvgl/src/extra/themes/default/lv_theme_default.c ****         lv_obj_add_style(obj, &styles->outline_secondary, LV_STATE_EDITED);
 830:Drivers/lvgl/lvgl/src/extra/themes/default/lv_theme_default.c ****         lv_obj_add_style(obj, &styles->btn, LV_PART_ITEMS);
 831:Drivers/lvgl/lvgl/src/extra/themes/default/lv_theme_default.c ****         lv_obj_add_style(obj, &styles->disabled, LV_PART_ITEMS | LV_STATE_DISABLED);
 832:Drivers/lvgl/lvgl/src/extra/themes/default/lv_theme_default.c ****         lv_obj_add_style(obj, &styles->pressed, LV_PART_ITEMS | LV_STATE_PRESSED);
 833:Drivers/lvgl/lvgl/src/extra/themes/default/lv_theme_default.c ****         lv_obj_add_style(obj, &styles->bg_color_primary, LV_PART_ITEMS | LV_STATE_CHECKED);
 834:Drivers/lvgl/lvgl/src/extra/themes/default/lv_theme_default.c ****         lv_obj_add_style(obj, &styles->outline_primary, LV_PART_ITEMS | LV_STATE_FOCUS_KEY);
 835:Drivers/lvgl/lvgl/src/extra/themes/default/lv_theme_default.c ****         lv_obj_add_style(obj, &styles->outline_secondary, LV_PART_ITEMS | LV_STATE_EDITED);
 836:Drivers/lvgl/lvgl/src/extra/themes/default/lv_theme_default.c ****     }
 837:Drivers/lvgl/lvgl/src/extra/themes/default/lv_theme_default.c **** #endif
 838:Drivers/lvgl/lvgl/src/extra/themes/default/lv_theme_default.c **** 
 839:Drivers/lvgl/lvgl/src/extra/themes/default/lv_theme_default.c **** #if LV_USE_BAR
 840:Drivers/lvgl/lvgl/src/extra/themes/default/lv_theme_default.c ****     else if(lv_obj_check_type(obj, &lv_bar_class)) {
 841:Drivers/lvgl/lvgl/src/extra/themes/default/lv_theme_default.c ****         lv_obj_add_style(obj, &styles->bg_color_primary_muted, 0);
 842:Drivers/lvgl/lvgl/src/extra/themes/default/lv_theme_default.c ****         lv_obj_add_style(obj, &styles->circle, 0);
 843:Drivers/lvgl/lvgl/src/extra/themes/default/lv_theme_default.c ****         lv_obj_add_style(obj, &styles->outline_primary, LV_STATE_FOCUS_KEY);
 844:Drivers/lvgl/lvgl/src/extra/themes/default/lv_theme_default.c ****         lv_obj_add_style(obj, &styles->outline_secondary, LV_STATE_EDITED);
 845:Drivers/lvgl/lvgl/src/extra/themes/default/lv_theme_default.c ****         lv_obj_add_style(obj, &styles->bg_color_primary, LV_PART_INDICATOR);
 846:Drivers/lvgl/lvgl/src/extra/themes/default/lv_theme_default.c ****         lv_obj_add_style(obj, &styles->circle, LV_PART_INDICATOR);
 847:Drivers/lvgl/lvgl/src/extra/themes/default/lv_theme_default.c ****     }
 848:Drivers/lvgl/lvgl/src/extra/themes/default/lv_theme_default.c **** #endif
 849:Drivers/lvgl/lvgl/src/extra/themes/default/lv_theme_default.c **** 
 850:Drivers/lvgl/lvgl/src/extra/themes/default/lv_theme_default.c **** #if LV_USE_SLIDER
 851:Drivers/lvgl/lvgl/src/extra/themes/default/lv_theme_default.c ****     else if(lv_obj_check_type(obj, &lv_slider_class)) {
 852:Drivers/lvgl/lvgl/src/extra/themes/default/lv_theme_default.c ****         lv_obj_add_style(obj, &styles->bg_color_primary_muted, 0);
 853:Drivers/lvgl/lvgl/src/extra/themes/default/lv_theme_default.c ****         lv_obj_add_style(obj, &styles->circle, 0);
 854:Drivers/lvgl/lvgl/src/extra/themes/default/lv_theme_default.c ****         lv_obj_add_style(obj, &styles->outline_primary, LV_STATE_FOCUS_KEY);
 855:Drivers/lvgl/lvgl/src/extra/themes/default/lv_theme_default.c ****         lv_obj_add_style(obj, &styles->outline_secondary, LV_STATE_EDITED);
 856:Drivers/lvgl/lvgl/src/extra/themes/default/lv_theme_default.c ****         lv_obj_add_style(obj, &styles->bg_color_primary, LV_PART_INDICATOR);
 857:Drivers/lvgl/lvgl/src/extra/themes/default/lv_theme_default.c ****         lv_obj_add_style(obj, &styles->circle, LV_PART_INDICATOR);
 858:Drivers/lvgl/lvgl/src/extra/themes/default/lv_theme_default.c ****         lv_obj_add_style(obj, &styles->knob, LV_PART_KNOB);
 859:Drivers/lvgl/lvgl/src/extra/themes/default/lv_theme_default.c **** #if LV_THEME_DEFAULT_GROW
 860:Drivers/lvgl/lvgl/src/extra/themes/default/lv_theme_default.c ****         lv_obj_add_style(obj, &styles->grow, LV_PART_KNOB | LV_STATE_PRESSED);
 861:Drivers/lvgl/lvgl/src/extra/themes/default/lv_theme_default.c **** #endif
 862:Drivers/lvgl/lvgl/src/extra/themes/default/lv_theme_default.c ****         lv_obj_add_style(obj, &styles->transition_delayed, LV_PART_KNOB);
 863:Drivers/lvgl/lvgl/src/extra/themes/default/lv_theme_default.c ****         lv_obj_add_style(obj, &styles->transition_normal, LV_PART_KNOB | LV_STATE_PRESSED);
 864:Drivers/lvgl/lvgl/src/extra/themes/default/lv_theme_default.c ****     }
 865:Drivers/lvgl/lvgl/src/extra/themes/default/lv_theme_default.c **** #endif
 866:Drivers/lvgl/lvgl/src/extra/themes/default/lv_theme_default.c **** 
 867:Drivers/lvgl/lvgl/src/extra/themes/default/lv_theme_default.c **** #if LV_USE_TABLE
 868:Drivers/lvgl/lvgl/src/extra/themes/default/lv_theme_default.c ****     else if(lv_obj_check_type(obj, &lv_table_class)) {
 869:Drivers/lvgl/lvgl/src/extra/themes/default/lv_theme_default.c ****         lv_obj_add_style(obj, &styles->card, 0);
 870:Drivers/lvgl/lvgl/src/extra/themes/default/lv_theme_default.c ****         lv_obj_add_style(obj, &styles->pad_zero, 0);
 871:Drivers/lvgl/lvgl/src/extra/themes/default/lv_theme_default.c ****         lv_obj_add_style(obj, &styles->no_radius, 0);
 872:Drivers/lvgl/lvgl/src/extra/themes/default/lv_theme_default.c ****         lv_obj_add_style(obj, &styles->outline_primary, LV_STATE_FOCUS_KEY);
ARM GAS  /tmp/cc6wDDAF.s 			page 19


 873:Drivers/lvgl/lvgl/src/extra/themes/default/lv_theme_default.c ****         lv_obj_add_style(obj, &styles->outline_secondary, LV_STATE_EDITED);
 874:Drivers/lvgl/lvgl/src/extra/themes/default/lv_theme_default.c ****         lv_obj_add_style(obj, &styles->scrollbar, LV_PART_SCROLLBAR);
 875:Drivers/lvgl/lvgl/src/extra/themes/default/lv_theme_default.c ****         lv_obj_add_style(obj, &styles->scrollbar_scrolled, LV_PART_SCROLLBAR | LV_STATE_SCROLLED);
 876:Drivers/lvgl/lvgl/src/extra/themes/default/lv_theme_default.c ****         lv_obj_add_style(obj, &styles->bg_color_white, LV_PART_ITEMS);
 877:Drivers/lvgl/lvgl/src/extra/themes/default/lv_theme_default.c ****         lv_obj_add_style(obj, &styles->table_cell, LV_PART_ITEMS);
 878:Drivers/lvgl/lvgl/src/extra/themes/default/lv_theme_default.c ****         lv_obj_add_style(obj, &styles->pad_normal, LV_PART_ITEMS);
 879:Drivers/lvgl/lvgl/src/extra/themes/default/lv_theme_default.c ****         lv_obj_add_style(obj, &styles->pressed, LV_PART_ITEMS | LV_STATE_PRESSED);
 880:Drivers/lvgl/lvgl/src/extra/themes/default/lv_theme_default.c ****         lv_obj_add_style(obj, &styles->bg_color_primary, LV_PART_ITEMS | LV_STATE_FOCUS_KEY);
 881:Drivers/lvgl/lvgl/src/extra/themes/default/lv_theme_default.c ****         lv_obj_add_style(obj, &styles->bg_color_secondary, LV_PART_ITEMS | LV_STATE_EDITED);
 882:Drivers/lvgl/lvgl/src/extra/themes/default/lv_theme_default.c ****     }
 883:Drivers/lvgl/lvgl/src/extra/themes/default/lv_theme_default.c **** #endif
 884:Drivers/lvgl/lvgl/src/extra/themes/default/lv_theme_default.c **** 
 885:Drivers/lvgl/lvgl/src/extra/themes/default/lv_theme_default.c **** #if LV_USE_CHECKBOX
 886:Drivers/lvgl/lvgl/src/extra/themes/default/lv_theme_default.c ****     else if(lv_obj_check_type(obj, &lv_checkbox_class)) {
 887:Drivers/lvgl/lvgl/src/extra/themes/default/lv_theme_default.c ****         lv_obj_add_style(obj, &styles->pad_gap, 0);
 888:Drivers/lvgl/lvgl/src/extra/themes/default/lv_theme_default.c ****         lv_obj_add_style(obj, &styles->outline_primary, LV_STATE_FOCUS_KEY);
 889:Drivers/lvgl/lvgl/src/extra/themes/default/lv_theme_default.c ****         lv_obj_add_style(obj, &styles->disabled, LV_PART_INDICATOR | LV_STATE_DISABLED);
 890:Drivers/lvgl/lvgl/src/extra/themes/default/lv_theme_default.c ****         lv_obj_add_style(obj, &styles->cb_marker, LV_PART_INDICATOR);
 891:Drivers/lvgl/lvgl/src/extra/themes/default/lv_theme_default.c ****         lv_obj_add_style(obj, &styles->bg_color_primary, LV_PART_INDICATOR | LV_STATE_CHECKED);
 892:Drivers/lvgl/lvgl/src/extra/themes/default/lv_theme_default.c ****         lv_obj_add_style(obj, &styles->cb_marker_checked, LV_PART_INDICATOR | LV_STATE_CHECKED);
 893:Drivers/lvgl/lvgl/src/extra/themes/default/lv_theme_default.c ****         lv_obj_add_style(obj, &styles->pressed, LV_PART_INDICATOR | LV_STATE_PRESSED);
 894:Drivers/lvgl/lvgl/src/extra/themes/default/lv_theme_default.c **** #if LV_THEME_DEFAULT_GROW
 895:Drivers/lvgl/lvgl/src/extra/themes/default/lv_theme_default.c ****         lv_obj_add_style(obj, &styles->grow, LV_PART_INDICATOR | LV_STATE_PRESSED);
 896:Drivers/lvgl/lvgl/src/extra/themes/default/lv_theme_default.c **** #endif
 897:Drivers/lvgl/lvgl/src/extra/themes/default/lv_theme_default.c ****         lv_obj_add_style(obj, &styles->transition_normal, LV_PART_INDICATOR | LV_STATE_PRESSED);
 898:Drivers/lvgl/lvgl/src/extra/themes/default/lv_theme_default.c ****         lv_obj_add_style(obj, &styles->transition_delayed, LV_PART_INDICATOR);
 899:Drivers/lvgl/lvgl/src/extra/themes/default/lv_theme_default.c ****     }
 900:Drivers/lvgl/lvgl/src/extra/themes/default/lv_theme_default.c **** #endif
 901:Drivers/lvgl/lvgl/src/extra/themes/default/lv_theme_default.c **** 
 902:Drivers/lvgl/lvgl/src/extra/themes/default/lv_theme_default.c **** #if LV_USE_SWITCH
 903:Drivers/lvgl/lvgl/src/extra/themes/default/lv_theme_default.c ****     else if(lv_obj_check_type(obj, &lv_switch_class)) {
 904:Drivers/lvgl/lvgl/src/extra/themes/default/lv_theme_default.c ****         lv_obj_add_style(obj, &styles->bg_color_grey, 0);
 905:Drivers/lvgl/lvgl/src/extra/themes/default/lv_theme_default.c ****         lv_obj_add_style(obj, &styles->circle, 0);
 906:Drivers/lvgl/lvgl/src/extra/themes/default/lv_theme_default.c ****         lv_obj_add_style(obj, &styles->anim_fast, 0);
 907:Drivers/lvgl/lvgl/src/extra/themes/default/lv_theme_default.c ****         lv_obj_add_style(obj, &styles->disabled, LV_STATE_DISABLED);
 908:Drivers/lvgl/lvgl/src/extra/themes/default/lv_theme_default.c ****         lv_obj_add_style(obj, &styles->outline_primary, LV_STATE_FOCUS_KEY);
 909:Drivers/lvgl/lvgl/src/extra/themes/default/lv_theme_default.c ****         lv_obj_add_style(obj, &styles->bg_color_primary, LV_PART_INDICATOR | LV_STATE_CHECKED);
 910:Drivers/lvgl/lvgl/src/extra/themes/default/lv_theme_default.c ****         lv_obj_add_style(obj, &styles->circle, LV_PART_INDICATOR);
 911:Drivers/lvgl/lvgl/src/extra/themes/default/lv_theme_default.c ****         lv_obj_add_style(obj, &styles->disabled, LV_PART_INDICATOR | LV_STATE_DISABLED);
 912:Drivers/lvgl/lvgl/src/extra/themes/default/lv_theme_default.c ****         lv_obj_add_style(obj, &styles->knob, LV_PART_KNOB);
 913:Drivers/lvgl/lvgl/src/extra/themes/default/lv_theme_default.c ****         lv_obj_add_style(obj, &styles->bg_color_white, LV_PART_KNOB);
 914:Drivers/lvgl/lvgl/src/extra/themes/default/lv_theme_default.c ****         lv_obj_add_style(obj, &styles->switch_knob, LV_PART_KNOB);
 915:Drivers/lvgl/lvgl/src/extra/themes/default/lv_theme_default.c ****         lv_obj_add_style(obj, &styles->disabled, LV_PART_KNOB | LV_STATE_DISABLED);
 916:Drivers/lvgl/lvgl/src/extra/themes/default/lv_theme_default.c **** 
 917:Drivers/lvgl/lvgl/src/extra/themes/default/lv_theme_default.c ****         lv_obj_add_style(obj, &styles->transition_normal, LV_PART_INDICATOR | LV_STATE_CHECKED);
 918:Drivers/lvgl/lvgl/src/extra/themes/default/lv_theme_default.c ****         lv_obj_add_style(obj, &styles->transition_normal, LV_PART_INDICATOR);
 919:Drivers/lvgl/lvgl/src/extra/themes/default/lv_theme_default.c ****     }
 920:Drivers/lvgl/lvgl/src/extra/themes/default/lv_theme_default.c **** #endif
 921:Drivers/lvgl/lvgl/src/extra/themes/default/lv_theme_default.c **** 
 922:Drivers/lvgl/lvgl/src/extra/themes/default/lv_theme_default.c **** #if LV_USE_CHART
 923:Drivers/lvgl/lvgl/src/extra/themes/default/lv_theme_default.c ****     else if(lv_obj_check_type(obj, &lv_chart_class)) {
 924:Drivers/lvgl/lvgl/src/extra/themes/default/lv_theme_default.c ****         lv_obj_add_style(obj, &styles->card, 0);
 925:Drivers/lvgl/lvgl/src/extra/themes/default/lv_theme_default.c ****         lv_obj_add_style(obj, &styles->pad_small, 0);
 926:Drivers/lvgl/lvgl/src/extra/themes/default/lv_theme_default.c ****         lv_obj_add_style(obj, &styles->chart_bg, 0);
 927:Drivers/lvgl/lvgl/src/extra/themes/default/lv_theme_default.c ****         lv_obj_add_style(obj, &styles->scrollbar, LV_PART_SCROLLBAR);
 928:Drivers/lvgl/lvgl/src/extra/themes/default/lv_theme_default.c ****         lv_obj_add_style(obj, &styles->scrollbar_scrolled, LV_PART_SCROLLBAR | LV_STATE_SCROLLED);
 929:Drivers/lvgl/lvgl/src/extra/themes/default/lv_theme_default.c ****         lv_obj_add_style(obj, &styles->chart_series, LV_PART_ITEMS);
ARM GAS  /tmp/cc6wDDAF.s 			page 20


 930:Drivers/lvgl/lvgl/src/extra/themes/default/lv_theme_default.c ****         lv_obj_add_style(obj, &styles->chart_indic, LV_PART_INDICATOR);
 931:Drivers/lvgl/lvgl/src/extra/themes/default/lv_theme_default.c ****         lv_obj_add_style(obj, &styles->chart_ticks, LV_PART_TICKS);
 932:Drivers/lvgl/lvgl/src/extra/themes/default/lv_theme_default.c ****         lv_obj_add_style(obj, &styles->chart_series, LV_PART_CURSOR);
 933:Drivers/lvgl/lvgl/src/extra/themes/default/lv_theme_default.c ****     }
 934:Drivers/lvgl/lvgl/src/extra/themes/default/lv_theme_default.c **** #endif
 935:Drivers/lvgl/lvgl/src/extra/themes/default/lv_theme_default.c **** 
 936:Drivers/lvgl/lvgl/src/extra/themes/default/lv_theme_default.c **** #if LV_USE_ROLLER
 937:Drivers/lvgl/lvgl/src/extra/themes/default/lv_theme_default.c ****     else if(lv_obj_check_type(obj, &lv_roller_class)) {
 938:Drivers/lvgl/lvgl/src/extra/themes/default/lv_theme_default.c ****         lv_obj_add_style(obj, &styles->card, 0);
 939:Drivers/lvgl/lvgl/src/extra/themes/default/lv_theme_default.c ****         lv_obj_add_style(obj, &styles->anim, 0);
 940:Drivers/lvgl/lvgl/src/extra/themes/default/lv_theme_default.c ****         lv_obj_add_style(obj, &styles->line_space_large, 0);
 941:Drivers/lvgl/lvgl/src/extra/themes/default/lv_theme_default.c ****         lv_obj_add_style(obj, &styles->text_align_center, 0);
 942:Drivers/lvgl/lvgl/src/extra/themes/default/lv_theme_default.c ****         lv_obj_add_style(obj, &styles->outline_primary, LV_STATE_FOCUS_KEY);
 943:Drivers/lvgl/lvgl/src/extra/themes/default/lv_theme_default.c ****         lv_obj_add_style(obj, &styles->outline_secondary, LV_STATE_EDITED);
 944:Drivers/lvgl/lvgl/src/extra/themes/default/lv_theme_default.c ****         lv_obj_add_style(obj, &styles->bg_color_primary, LV_PART_SELECTED);
 945:Drivers/lvgl/lvgl/src/extra/themes/default/lv_theme_default.c ****     }
 946:Drivers/lvgl/lvgl/src/extra/themes/default/lv_theme_default.c **** #endif
 947:Drivers/lvgl/lvgl/src/extra/themes/default/lv_theme_default.c **** 
 948:Drivers/lvgl/lvgl/src/extra/themes/default/lv_theme_default.c **** #if LV_USE_DROPDOWN
 949:Drivers/lvgl/lvgl/src/extra/themes/default/lv_theme_default.c ****     else if(lv_obj_check_type(obj, &lv_dropdown_class)) {
 950:Drivers/lvgl/lvgl/src/extra/themes/default/lv_theme_default.c ****         lv_obj_add_style(obj, &styles->card, 0);
 951:Drivers/lvgl/lvgl/src/extra/themes/default/lv_theme_default.c ****         lv_obj_add_style(obj, &styles->pad_small, 0);
 952:Drivers/lvgl/lvgl/src/extra/themes/default/lv_theme_default.c ****         lv_obj_add_style(obj, &styles->transition_delayed, 0);
 953:Drivers/lvgl/lvgl/src/extra/themes/default/lv_theme_default.c ****         lv_obj_add_style(obj, &styles->transition_normal, LV_STATE_PRESSED);
 954:Drivers/lvgl/lvgl/src/extra/themes/default/lv_theme_default.c ****         lv_obj_add_style(obj, &styles->pressed, LV_STATE_PRESSED);
 955:Drivers/lvgl/lvgl/src/extra/themes/default/lv_theme_default.c ****         lv_obj_add_style(obj, &styles->outline_primary, LV_STATE_FOCUS_KEY);
 956:Drivers/lvgl/lvgl/src/extra/themes/default/lv_theme_default.c ****         lv_obj_add_style(obj, &styles->outline_secondary, LV_STATE_EDITED);
 957:Drivers/lvgl/lvgl/src/extra/themes/default/lv_theme_default.c ****         lv_obj_add_style(obj, &styles->transition_normal, LV_PART_INDICATOR);
 958:Drivers/lvgl/lvgl/src/extra/themes/default/lv_theme_default.c ****     }
 959:Drivers/lvgl/lvgl/src/extra/themes/default/lv_theme_default.c ****     else if(lv_obj_check_type(obj, &lv_dropdownlist_class)) {
 960:Drivers/lvgl/lvgl/src/extra/themes/default/lv_theme_default.c ****         lv_obj_add_style(obj, &styles->card, 0);
 961:Drivers/lvgl/lvgl/src/extra/themes/default/lv_theme_default.c ****         lv_obj_add_style(obj, &styles->clip_corner, 0);
 962:Drivers/lvgl/lvgl/src/extra/themes/default/lv_theme_default.c ****         lv_obj_add_style(obj, &styles->line_space_large, 0);
 963:Drivers/lvgl/lvgl/src/extra/themes/default/lv_theme_default.c ****         lv_obj_add_style(obj, &styles->dropdown_list, 0);
 964:Drivers/lvgl/lvgl/src/extra/themes/default/lv_theme_default.c ****         lv_obj_add_style(obj, &styles->scrollbar, LV_PART_SCROLLBAR);
 965:Drivers/lvgl/lvgl/src/extra/themes/default/lv_theme_default.c ****         lv_obj_add_style(obj, &styles->scrollbar_scrolled, LV_PART_SCROLLBAR | LV_STATE_SCROLLED);
 966:Drivers/lvgl/lvgl/src/extra/themes/default/lv_theme_default.c ****         lv_obj_add_style(obj, &styles->bg_color_white, LV_PART_SELECTED);
 967:Drivers/lvgl/lvgl/src/extra/themes/default/lv_theme_default.c ****         lv_obj_add_style(obj, &styles->bg_color_primary, LV_PART_SELECTED | LV_STATE_CHECKED);
 968:Drivers/lvgl/lvgl/src/extra/themes/default/lv_theme_default.c ****         lv_obj_add_style(obj, &styles->pressed, LV_PART_SELECTED | LV_STATE_PRESSED);
 969:Drivers/lvgl/lvgl/src/extra/themes/default/lv_theme_default.c ****     }
 970:Drivers/lvgl/lvgl/src/extra/themes/default/lv_theme_default.c **** #endif
 971:Drivers/lvgl/lvgl/src/extra/themes/default/lv_theme_default.c **** 
 972:Drivers/lvgl/lvgl/src/extra/themes/default/lv_theme_default.c **** #if LV_USE_ARC
 973:Drivers/lvgl/lvgl/src/extra/themes/default/lv_theme_default.c ****     else if(lv_obj_check_type(obj, &lv_arc_class)) {
 974:Drivers/lvgl/lvgl/src/extra/themes/default/lv_theme_default.c ****         lv_obj_add_style(obj, &styles->arc_indic, 0);
 975:Drivers/lvgl/lvgl/src/extra/themes/default/lv_theme_default.c ****         lv_obj_add_style(obj, &styles->arc_indic, LV_PART_INDICATOR);
 976:Drivers/lvgl/lvgl/src/extra/themes/default/lv_theme_default.c ****         lv_obj_add_style(obj, &styles->arc_indic_primary, LV_PART_INDICATOR);
 977:Drivers/lvgl/lvgl/src/extra/themes/default/lv_theme_default.c ****         lv_obj_add_style(obj, &styles->knob, LV_PART_KNOB);
 978:Drivers/lvgl/lvgl/src/extra/themes/default/lv_theme_default.c ****     }
 979:Drivers/lvgl/lvgl/src/extra/themes/default/lv_theme_default.c **** #endif
 980:Drivers/lvgl/lvgl/src/extra/themes/default/lv_theme_default.c **** 
 981:Drivers/lvgl/lvgl/src/extra/themes/default/lv_theme_default.c **** 
 982:Drivers/lvgl/lvgl/src/extra/themes/default/lv_theme_default.c **** #if LV_USE_SPINNER
 983:Drivers/lvgl/lvgl/src/extra/themes/default/lv_theme_default.c ****     else if(lv_obj_check_type(obj, &lv_spinner_class)) {
 984:Drivers/lvgl/lvgl/src/extra/themes/default/lv_theme_default.c ****         lv_obj_add_style(obj, &styles->arc_indic, 0);
 985:Drivers/lvgl/lvgl/src/extra/themes/default/lv_theme_default.c ****         lv_obj_add_style(obj, &styles->arc_indic, LV_PART_INDICATOR);
 986:Drivers/lvgl/lvgl/src/extra/themes/default/lv_theme_default.c ****         lv_obj_add_style(obj, &styles->arc_indic_primary, LV_PART_INDICATOR);
ARM GAS  /tmp/cc6wDDAF.s 			page 21


 987:Drivers/lvgl/lvgl/src/extra/themes/default/lv_theme_default.c ****     }
 988:Drivers/lvgl/lvgl/src/extra/themes/default/lv_theme_default.c **** #endif
 989:Drivers/lvgl/lvgl/src/extra/themes/default/lv_theme_default.c **** 
 990:Drivers/lvgl/lvgl/src/extra/themes/default/lv_theme_default.c **** #if LV_USE_METER
 991:Drivers/lvgl/lvgl/src/extra/themes/default/lv_theme_default.c ****     else if(lv_obj_check_type(obj, &lv_meter_class)) {
 992:Drivers/lvgl/lvgl/src/extra/themes/default/lv_theme_default.c ****         lv_obj_add_style(obj, &styles->card, 0);
 993:Drivers/lvgl/lvgl/src/extra/themes/default/lv_theme_default.c ****         lv_obj_add_style(obj, &styles->circle, 0);
 994:Drivers/lvgl/lvgl/src/extra/themes/default/lv_theme_default.c ****         lv_obj_add_style(obj, &styles->meter_indic, LV_PART_INDICATOR);
 995:Drivers/lvgl/lvgl/src/extra/themes/default/lv_theme_default.c ****     }
 996:Drivers/lvgl/lvgl/src/extra/themes/default/lv_theme_default.c **** #endif
 997:Drivers/lvgl/lvgl/src/extra/themes/default/lv_theme_default.c **** 
 998:Drivers/lvgl/lvgl/src/extra/themes/default/lv_theme_default.c **** #if LV_USE_TEXTAREA
 999:Drivers/lvgl/lvgl/src/extra/themes/default/lv_theme_default.c ****     else if(lv_obj_check_type(obj, &lv_textarea_class)) {
1000:Drivers/lvgl/lvgl/src/extra/themes/default/lv_theme_default.c ****         lv_obj_add_style(obj, &styles->card, 0);
1001:Drivers/lvgl/lvgl/src/extra/themes/default/lv_theme_default.c ****         lv_obj_add_style(obj, &styles->pad_small, 0);
1002:Drivers/lvgl/lvgl/src/extra/themes/default/lv_theme_default.c ****         lv_obj_add_style(obj, &styles->disabled, LV_STATE_DISABLED);
1003:Drivers/lvgl/lvgl/src/extra/themes/default/lv_theme_default.c ****         lv_obj_add_style(obj, &styles->outline_primary, LV_STATE_FOCUS_KEY);
1004:Drivers/lvgl/lvgl/src/extra/themes/default/lv_theme_default.c ****         lv_obj_add_style(obj, &styles->outline_secondary, LV_STATE_EDITED);
1005:Drivers/lvgl/lvgl/src/extra/themes/default/lv_theme_default.c ****         lv_obj_add_style(obj, &styles->scrollbar, LV_PART_SCROLLBAR);
1006:Drivers/lvgl/lvgl/src/extra/themes/default/lv_theme_default.c ****         lv_obj_add_style(obj, &styles->scrollbar_scrolled, LV_PART_SCROLLBAR | LV_STATE_SCROLLED);
1007:Drivers/lvgl/lvgl/src/extra/themes/default/lv_theme_default.c ****         lv_obj_add_style(obj, &styles->ta_cursor, LV_PART_CURSOR | LV_STATE_FOCUSED);
1008:Drivers/lvgl/lvgl/src/extra/themes/default/lv_theme_default.c ****         lv_obj_add_style(obj, &styles->ta_placeholder, LV_PART_TEXTAREA_PLACEHOLDER);
1009:Drivers/lvgl/lvgl/src/extra/themes/default/lv_theme_default.c ****     }
1010:Drivers/lvgl/lvgl/src/extra/themes/default/lv_theme_default.c **** #endif
1011:Drivers/lvgl/lvgl/src/extra/themes/default/lv_theme_default.c **** 
1012:Drivers/lvgl/lvgl/src/extra/themes/default/lv_theme_default.c **** #if LV_USE_CALENDAR
1013:Drivers/lvgl/lvgl/src/extra/themes/default/lv_theme_default.c ****     else if(lv_obj_check_type(obj, &lv_calendar_class)) {
1014:Drivers/lvgl/lvgl/src/extra/themes/default/lv_theme_default.c ****         lv_obj_add_style(obj, &styles->card, 0);
1015:Drivers/lvgl/lvgl/src/extra/themes/default/lv_theme_default.c ****         lv_obj_add_style(obj, &styles->pad_zero, 0);
1016:Drivers/lvgl/lvgl/src/extra/themes/default/lv_theme_default.c ****     }
1017:Drivers/lvgl/lvgl/src/extra/themes/default/lv_theme_default.c **** #endif
1018:Drivers/lvgl/lvgl/src/extra/themes/default/lv_theme_default.c **** 
1019:Drivers/lvgl/lvgl/src/extra/themes/default/lv_theme_default.c **** #if LV_USE_CALENDAR_HEADER_ARROW
1020:Drivers/lvgl/lvgl/src/extra/themes/default/lv_theme_default.c ****     else if(lv_obj_check_type(obj, &lv_calendar_header_arrow_class)) {
1021:Drivers/lvgl/lvgl/src/extra/themes/default/lv_theme_default.c ****         lv_obj_add_style(obj, &styles->calendar_header, 0);
1022:Drivers/lvgl/lvgl/src/extra/themes/default/lv_theme_default.c ****     }
1023:Drivers/lvgl/lvgl/src/extra/themes/default/lv_theme_default.c **** #endif
1024:Drivers/lvgl/lvgl/src/extra/themes/default/lv_theme_default.c **** 
1025:Drivers/lvgl/lvgl/src/extra/themes/default/lv_theme_default.c **** #if LV_USE_CALENDAR_HEADER_DROPDOWN
1026:Drivers/lvgl/lvgl/src/extra/themes/default/lv_theme_default.c ****     else if(lv_obj_check_type(obj, &lv_calendar_header_dropdown_class)) {
1027:Drivers/lvgl/lvgl/src/extra/themes/default/lv_theme_default.c ****         lv_obj_add_style(obj, &styles->calendar_header, 0);
1028:Drivers/lvgl/lvgl/src/extra/themes/default/lv_theme_default.c ****     }
1029:Drivers/lvgl/lvgl/src/extra/themes/default/lv_theme_default.c **** #endif
1030:Drivers/lvgl/lvgl/src/extra/themes/default/lv_theme_default.c **** 
1031:Drivers/lvgl/lvgl/src/extra/themes/default/lv_theme_default.c **** #if LV_USE_KEYBOARD
1032:Drivers/lvgl/lvgl/src/extra/themes/default/lv_theme_default.c ****     else if(lv_obj_check_type(obj, &lv_keyboard_class)) {
1033:Drivers/lvgl/lvgl/src/extra/themes/default/lv_theme_default.c ****         lv_obj_add_style(obj, &styles->scr, 0);
1034:Drivers/lvgl/lvgl/src/extra/themes/default/lv_theme_default.c ****         lv_obj_add_style(obj, disp_size == DISP_LARGE ? &styles->pad_small : &styles->pad_tiny, 0);
1035:Drivers/lvgl/lvgl/src/extra/themes/default/lv_theme_default.c ****         lv_obj_add_style(obj, &styles->outline_primary, LV_STATE_FOCUS_KEY);
1036:Drivers/lvgl/lvgl/src/extra/themes/default/lv_theme_default.c ****         lv_obj_add_style(obj, &styles->outline_secondary, LV_STATE_EDITED);
1037:Drivers/lvgl/lvgl/src/extra/themes/default/lv_theme_default.c ****         lv_obj_add_style(obj, &styles->btn, LV_PART_ITEMS);
1038:Drivers/lvgl/lvgl/src/extra/themes/default/lv_theme_default.c ****         lv_obj_add_style(obj, &styles->disabled, LV_PART_ITEMS | LV_STATE_DISABLED);
1039:Drivers/lvgl/lvgl/src/extra/themes/default/lv_theme_default.c ****         lv_obj_add_style(obj, &styles->bg_color_white, LV_PART_ITEMS);
1040:Drivers/lvgl/lvgl/src/extra/themes/default/lv_theme_default.c ****         lv_obj_add_style(obj, &styles->keyboard_btn_bg, LV_PART_ITEMS);
1041:Drivers/lvgl/lvgl/src/extra/themes/default/lv_theme_default.c ****         lv_obj_add_style(obj, &styles->pressed, LV_PART_ITEMS | LV_STATE_PRESSED);
1042:Drivers/lvgl/lvgl/src/extra/themes/default/lv_theme_default.c ****         lv_obj_add_style(obj, &styles->bg_color_grey, LV_PART_ITEMS | LV_STATE_CHECKED);
1043:Drivers/lvgl/lvgl/src/extra/themes/default/lv_theme_default.c ****         lv_obj_add_style(obj, &styles->bg_color_primary_muted, LV_PART_ITEMS | LV_STATE_FOCUS_KEY);
ARM GAS  /tmp/cc6wDDAF.s 			page 22


1044:Drivers/lvgl/lvgl/src/extra/themes/default/lv_theme_default.c ****         lv_obj_add_style(obj, &styles->bg_color_secondary_muted, LV_PART_ITEMS | LV_STATE_EDITED);
1045:Drivers/lvgl/lvgl/src/extra/themes/default/lv_theme_default.c ****     }
1046:Drivers/lvgl/lvgl/src/extra/themes/default/lv_theme_default.c **** #endif
1047:Drivers/lvgl/lvgl/src/extra/themes/default/lv_theme_default.c **** #if LV_USE_LIST
1048:Drivers/lvgl/lvgl/src/extra/themes/default/lv_theme_default.c ****     else if(lv_obj_check_type(obj, &lv_list_class)) {
1049:Drivers/lvgl/lvgl/src/extra/themes/default/lv_theme_default.c ****         lv_obj_add_style(obj, &styles->card, 0);
1050:Drivers/lvgl/lvgl/src/extra/themes/default/lv_theme_default.c ****         lv_obj_add_style(obj, &styles->list_bg, 0);
1051:Drivers/lvgl/lvgl/src/extra/themes/default/lv_theme_default.c ****         lv_obj_add_style(obj, &styles->scrollbar, LV_PART_SCROLLBAR);
1052:Drivers/lvgl/lvgl/src/extra/themes/default/lv_theme_default.c ****         lv_obj_add_style(obj, &styles->scrollbar_scrolled, LV_PART_SCROLLBAR | LV_STATE_SCROLLED);
1053:Drivers/lvgl/lvgl/src/extra/themes/default/lv_theme_default.c ****         return;
1054:Drivers/lvgl/lvgl/src/extra/themes/default/lv_theme_default.c ****     }
1055:Drivers/lvgl/lvgl/src/extra/themes/default/lv_theme_default.c ****     else if(lv_obj_check_type(obj, &lv_list_text_class)) {
1056:Drivers/lvgl/lvgl/src/extra/themes/default/lv_theme_default.c ****         lv_obj_add_style(obj, &styles->bg_color_grey, 0);
1057:Drivers/lvgl/lvgl/src/extra/themes/default/lv_theme_default.c ****         lv_obj_add_style(obj, &styles->list_item_grow, 0);
1058:Drivers/lvgl/lvgl/src/extra/themes/default/lv_theme_default.c ****     }
1059:Drivers/lvgl/lvgl/src/extra/themes/default/lv_theme_default.c ****     else if(lv_obj_check_type(obj, &lv_list_btn_class)) {
1060:Drivers/lvgl/lvgl/src/extra/themes/default/lv_theme_default.c ****         lv_obj_add_style(obj, &styles->bg_color_white, 0);
1061:Drivers/lvgl/lvgl/src/extra/themes/default/lv_theme_default.c ****         lv_obj_add_style(obj, &styles->list_btn, 0);
1062:Drivers/lvgl/lvgl/src/extra/themes/default/lv_theme_default.c ****         lv_obj_add_style(obj, &styles->bg_color_primary, LV_STATE_FOCUS_KEY);
1063:Drivers/lvgl/lvgl/src/extra/themes/default/lv_theme_default.c ****         lv_obj_add_style(obj, &styles->list_item_grow, LV_STATE_FOCUS_KEY);
1064:Drivers/lvgl/lvgl/src/extra/themes/default/lv_theme_default.c ****         lv_obj_add_style(obj, &styles->list_item_grow, LV_STATE_PRESSED);
1065:Drivers/lvgl/lvgl/src/extra/themes/default/lv_theme_default.c ****         lv_obj_add_style(obj, &styles->pressed, LV_STATE_PRESSED);
1066:Drivers/lvgl/lvgl/src/extra/themes/default/lv_theme_default.c **** 
1067:Drivers/lvgl/lvgl/src/extra/themes/default/lv_theme_default.c ****     }
1068:Drivers/lvgl/lvgl/src/extra/themes/default/lv_theme_default.c **** #endif
1069:Drivers/lvgl/lvgl/src/extra/themes/default/lv_theme_default.c **** #if LV_USE_MENU
1070:Drivers/lvgl/lvgl/src/extra/themes/default/lv_theme_default.c ****     else if(lv_obj_check_type(obj, &lv_menu_class)) {
1071:Drivers/lvgl/lvgl/src/extra/themes/default/lv_theme_default.c ****         lv_obj_add_style(obj, &styles->card, 0);
1072:Drivers/lvgl/lvgl/src/extra/themes/default/lv_theme_default.c ****         lv_obj_add_style(obj, &styles->menu_bg, 0);
1073:Drivers/lvgl/lvgl/src/extra/themes/default/lv_theme_default.c ****     }
1074:Drivers/lvgl/lvgl/src/extra/themes/default/lv_theme_default.c ****     else if(lv_obj_check_type(obj, &lv_menu_sidebar_cont_class)) {
1075:Drivers/lvgl/lvgl/src/extra/themes/default/lv_theme_default.c ****         lv_obj_add_style(obj, &styles->menu_sidebar_cont, 0);
1076:Drivers/lvgl/lvgl/src/extra/themes/default/lv_theme_default.c ****         lv_obj_add_style(obj, &styles->scrollbar, LV_PART_SCROLLBAR);
1077:Drivers/lvgl/lvgl/src/extra/themes/default/lv_theme_default.c ****         lv_obj_add_style(obj, &styles->scrollbar_scrolled, LV_PART_SCROLLBAR | LV_STATE_SCROLLED);
1078:Drivers/lvgl/lvgl/src/extra/themes/default/lv_theme_default.c ****     }
1079:Drivers/lvgl/lvgl/src/extra/themes/default/lv_theme_default.c ****     else if(lv_obj_check_type(obj, &lv_menu_main_cont_class)) {
1080:Drivers/lvgl/lvgl/src/extra/themes/default/lv_theme_default.c ****         lv_obj_add_style(obj, &styles->menu_main_cont, 0);
1081:Drivers/lvgl/lvgl/src/extra/themes/default/lv_theme_default.c ****         lv_obj_add_style(obj, &styles->scrollbar, LV_PART_SCROLLBAR);
1082:Drivers/lvgl/lvgl/src/extra/themes/default/lv_theme_default.c ****         lv_obj_add_style(obj, &styles->scrollbar_scrolled, LV_PART_SCROLLBAR | LV_STATE_SCROLLED);
1083:Drivers/lvgl/lvgl/src/extra/themes/default/lv_theme_default.c ****     }
1084:Drivers/lvgl/lvgl/src/extra/themes/default/lv_theme_default.c ****     else if(lv_obj_check_type(obj, &lv_menu_cont_class)) {
1085:Drivers/lvgl/lvgl/src/extra/themes/default/lv_theme_default.c ****         lv_obj_add_style(obj, &styles->menu_cont, 0);
1086:Drivers/lvgl/lvgl/src/extra/themes/default/lv_theme_default.c ****         lv_obj_add_style(obj, &styles->menu_pressed, LV_STATE_PRESSED);
1087:Drivers/lvgl/lvgl/src/extra/themes/default/lv_theme_default.c ****         lv_obj_add_style(obj, &styles->bg_color_primary_muted, LV_STATE_PRESSED | LV_STATE_CHECKED)
1088:Drivers/lvgl/lvgl/src/extra/themes/default/lv_theme_default.c ****         lv_obj_add_style(obj, &styles->bg_color_primary_muted, LV_STATE_CHECKED);
1089:Drivers/lvgl/lvgl/src/extra/themes/default/lv_theme_default.c ****         lv_obj_add_style(obj, &styles->bg_color_primary, LV_STATE_FOCUS_KEY);
1090:Drivers/lvgl/lvgl/src/extra/themes/default/lv_theme_default.c ****     }
1091:Drivers/lvgl/lvgl/src/extra/themes/default/lv_theme_default.c ****     else if(lv_obj_check_type(obj, &lv_menu_sidebar_header_cont_class) ||
1092:Drivers/lvgl/lvgl/src/extra/themes/default/lv_theme_default.c ****             lv_obj_check_type(obj, &lv_menu_main_header_cont_class)) {
1093:Drivers/lvgl/lvgl/src/extra/themes/default/lv_theme_default.c ****         lv_obj_add_style(obj, &styles->menu_header_cont, 0);
1094:Drivers/lvgl/lvgl/src/extra/themes/default/lv_theme_default.c ****     }
1095:Drivers/lvgl/lvgl/src/extra/themes/default/lv_theme_default.c ****     else if(lv_obj_check_type(obj, &lv_menu_page_class)) {
1096:Drivers/lvgl/lvgl/src/extra/themes/default/lv_theme_default.c ****         lv_obj_add_style(obj, &styles->menu_page, 0);
1097:Drivers/lvgl/lvgl/src/extra/themes/default/lv_theme_default.c ****         lv_obj_add_style(obj, &styles->scrollbar, LV_PART_SCROLLBAR);
1098:Drivers/lvgl/lvgl/src/extra/themes/default/lv_theme_default.c ****         lv_obj_add_style(obj, &styles->scrollbar_scrolled, LV_PART_SCROLLBAR | LV_STATE_SCROLLED);
1099:Drivers/lvgl/lvgl/src/extra/themes/default/lv_theme_default.c ****     }
1100:Drivers/lvgl/lvgl/src/extra/themes/default/lv_theme_default.c ****     else if(lv_obj_check_type(obj, &lv_menu_section_class)) {
ARM GAS  /tmp/cc6wDDAF.s 			page 23


1101:Drivers/lvgl/lvgl/src/extra/themes/default/lv_theme_default.c ****         lv_obj_add_style(obj, &styles->menu_section, 0);
1102:Drivers/lvgl/lvgl/src/extra/themes/default/lv_theme_default.c ****     }
1103:Drivers/lvgl/lvgl/src/extra/themes/default/lv_theme_default.c ****     else if(lv_obj_check_type(obj, &lv_menu_separator_class)) {
1104:Drivers/lvgl/lvgl/src/extra/themes/default/lv_theme_default.c ****         lv_obj_add_style(obj, &styles->menu_separator, 0);
1105:Drivers/lvgl/lvgl/src/extra/themes/default/lv_theme_default.c ****     }
1106:Drivers/lvgl/lvgl/src/extra/themes/default/lv_theme_default.c **** #endif
1107:Drivers/lvgl/lvgl/src/extra/themes/default/lv_theme_default.c **** #if LV_USE_MSGBOX
1108:Drivers/lvgl/lvgl/src/extra/themes/default/lv_theme_default.c ****     else if(lv_obj_check_type(obj, &lv_msgbox_class)) {
1109:Drivers/lvgl/lvgl/src/extra/themes/default/lv_theme_default.c ****         lv_obj_add_style(obj, &styles->card, 0);
1110:Drivers/lvgl/lvgl/src/extra/themes/default/lv_theme_default.c ****         lv_obj_add_style(obj, &styles->msgbox_bg, 0);
1111:Drivers/lvgl/lvgl/src/extra/themes/default/lv_theme_default.c ****         return;
1112:Drivers/lvgl/lvgl/src/extra/themes/default/lv_theme_default.c ****     }
1113:Drivers/lvgl/lvgl/src/extra/themes/default/lv_theme_default.c ****     else if(lv_obj_check_type(obj, &lv_msgbox_backdrop_class)) {
1114:Drivers/lvgl/lvgl/src/extra/themes/default/lv_theme_default.c ****         lv_obj_add_style(obj, &styles->msgbox_backdrop_bg, 0);
1115:Drivers/lvgl/lvgl/src/extra/themes/default/lv_theme_default.c ****     }
1116:Drivers/lvgl/lvgl/src/extra/themes/default/lv_theme_default.c **** #endif
1117:Drivers/lvgl/lvgl/src/extra/themes/default/lv_theme_default.c **** #if LV_USE_SPINBOX
1118:Drivers/lvgl/lvgl/src/extra/themes/default/lv_theme_default.c ****     else if(lv_obj_check_type(obj, &lv_spinbox_class)) {
1119:Drivers/lvgl/lvgl/src/extra/themes/default/lv_theme_default.c ****         lv_obj_add_style(obj, &styles->card, 0);
1120:Drivers/lvgl/lvgl/src/extra/themes/default/lv_theme_default.c ****         lv_obj_add_style(obj, &styles->pad_small, 0);
1121:Drivers/lvgl/lvgl/src/extra/themes/default/lv_theme_default.c ****         lv_obj_add_style(obj, &styles->outline_primary, LV_STATE_FOCUS_KEY);
1122:Drivers/lvgl/lvgl/src/extra/themes/default/lv_theme_default.c ****         lv_obj_add_style(obj, &styles->outline_secondary, LV_STATE_EDITED);
1123:Drivers/lvgl/lvgl/src/extra/themes/default/lv_theme_default.c ****         lv_obj_add_style(obj, &styles->bg_color_primary, LV_PART_CURSOR);
1124:Drivers/lvgl/lvgl/src/extra/themes/default/lv_theme_default.c ****     }
1125:Drivers/lvgl/lvgl/src/extra/themes/default/lv_theme_default.c **** #endif
1126:Drivers/lvgl/lvgl/src/extra/themes/default/lv_theme_default.c **** #if LV_USE_TILEVIEW
1127:Drivers/lvgl/lvgl/src/extra/themes/default/lv_theme_default.c ****     else if(lv_obj_check_type(obj, &lv_tileview_class)) {
1128:Drivers/lvgl/lvgl/src/extra/themes/default/lv_theme_default.c ****         lv_obj_add_style(obj, &styles->scr, 0);
1129:Drivers/lvgl/lvgl/src/extra/themes/default/lv_theme_default.c ****         lv_obj_add_style(obj, &styles->scrollbar, LV_PART_SCROLLBAR);
1130:Drivers/lvgl/lvgl/src/extra/themes/default/lv_theme_default.c ****         lv_obj_add_style(obj, &styles->scrollbar_scrolled, LV_PART_SCROLLBAR | LV_STATE_SCROLLED);
1131:Drivers/lvgl/lvgl/src/extra/themes/default/lv_theme_default.c ****     }
1132:Drivers/lvgl/lvgl/src/extra/themes/default/lv_theme_default.c ****     else if(lv_obj_check_type(obj, &lv_tileview_tile_class)) {
1133:Drivers/lvgl/lvgl/src/extra/themes/default/lv_theme_default.c ****         lv_obj_add_style(obj, &styles->scrollbar, LV_PART_SCROLLBAR);
1134:Drivers/lvgl/lvgl/src/extra/themes/default/lv_theme_default.c ****         lv_obj_add_style(obj, &styles->scrollbar_scrolled, LV_PART_SCROLLBAR | LV_STATE_SCROLLED);
1135:Drivers/lvgl/lvgl/src/extra/themes/default/lv_theme_default.c ****     }
1136:Drivers/lvgl/lvgl/src/extra/themes/default/lv_theme_default.c **** #endif
1137:Drivers/lvgl/lvgl/src/extra/themes/default/lv_theme_default.c **** 
1138:Drivers/lvgl/lvgl/src/extra/themes/default/lv_theme_default.c **** #if LV_USE_TABVIEW
1139:Drivers/lvgl/lvgl/src/extra/themes/default/lv_theme_default.c ****     else if(lv_obj_check_type(obj, &lv_tabview_class)) {
1140:Drivers/lvgl/lvgl/src/extra/themes/default/lv_theme_default.c ****         lv_obj_add_style(obj, &styles->scr, 0);
1141:Drivers/lvgl/lvgl/src/extra/themes/default/lv_theme_default.c ****         lv_obj_add_style(obj, &styles->pad_zero, 0);
1142:Drivers/lvgl/lvgl/src/extra/themes/default/lv_theme_default.c ****     }
1143:Drivers/lvgl/lvgl/src/extra/themes/default/lv_theme_default.c **** #endif
1144:Drivers/lvgl/lvgl/src/extra/themes/default/lv_theme_default.c **** 
1145:Drivers/lvgl/lvgl/src/extra/themes/default/lv_theme_default.c **** #if LV_USE_WIN
1146:Drivers/lvgl/lvgl/src/extra/themes/default/lv_theme_default.c ****     else if(lv_obj_check_type(obj, &lv_win_class)) {
1147:Drivers/lvgl/lvgl/src/extra/themes/default/lv_theme_default.c ****         lv_obj_add_style(obj, &styles->clip_corner, 0);
1148:Drivers/lvgl/lvgl/src/extra/themes/default/lv_theme_default.c ****     }
1149:Drivers/lvgl/lvgl/src/extra/themes/default/lv_theme_default.c **** #endif
1150:Drivers/lvgl/lvgl/src/extra/themes/default/lv_theme_default.c **** 
1151:Drivers/lvgl/lvgl/src/extra/themes/default/lv_theme_default.c **** #if LV_USE_COLORWHEEL
1152:Drivers/lvgl/lvgl/src/extra/themes/default/lv_theme_default.c ****     else if(lv_obj_check_type(obj, &lv_colorwheel_class)) {
1153:Drivers/lvgl/lvgl/src/extra/themes/default/lv_theme_default.c ****         lv_obj_add_style(obj, &styles->colorwheel_main, 0);
1154:Drivers/lvgl/lvgl/src/extra/themes/default/lv_theme_default.c ****         lv_obj_add_style(obj, &styles->pad_normal, 0);
1155:Drivers/lvgl/lvgl/src/extra/themes/default/lv_theme_default.c ****         lv_obj_add_style(obj, &styles->bg_color_white, LV_PART_KNOB);
1156:Drivers/lvgl/lvgl/src/extra/themes/default/lv_theme_default.c ****         lv_obj_add_style(obj, &styles->pad_normal, LV_PART_KNOB);
1157:Drivers/lvgl/lvgl/src/extra/themes/default/lv_theme_default.c ****     }
ARM GAS  /tmp/cc6wDDAF.s 			page 24


1158:Drivers/lvgl/lvgl/src/extra/themes/default/lv_theme_default.c **** #endif
1159:Drivers/lvgl/lvgl/src/extra/themes/default/lv_theme_default.c **** 
1160:Drivers/lvgl/lvgl/src/extra/themes/default/lv_theme_default.c **** #if LV_USE_LED
1161:Drivers/lvgl/lvgl/src/extra/themes/default/lv_theme_default.c ****     else if(lv_obj_check_type(obj, &lv_led_class)) {
1162:Drivers/lvgl/lvgl/src/extra/themes/default/lv_theme_default.c ****         lv_obj_add_style(obj, &styles->led, 0);
1163:Drivers/lvgl/lvgl/src/extra/themes/default/lv_theme_default.c ****     }
1164:Drivers/lvgl/lvgl/src/extra/themes/default/lv_theme_default.c **** #endif
1165:Drivers/lvgl/lvgl/src/extra/themes/default/lv_theme_default.c **** }
 153              		.loc 1 1165 0
 154 00be 70BD     		pop	{r4, r5, r6, pc}
 155              	.LVL22:
 156              	.L56:
 157              	.LBB103:
 718:Drivers/lvgl/lvgl/src/extra/themes/default/lv_theme_default.c ****             lv_obj_add_style(obj, &styles->scrollbar, LV_PART_SCROLLBAR);
 158              		.loc 1 718 0
 159 00c0 874D     		ldr	r5, .L71+16
 160              	.LVL23:
 161 00c2 2968     		ldr	r1, [r5]
 162 00c4 0022     		movs	r2, #0
 163 00c6 8031     		adds	r1, r1, #128
 164 00c8 2046     		mov	r0, r4
 165 00ca FFF7FEFF 		bl	lv_obj_add_style
 166              	.LVL24:
 719:Drivers/lvgl/lvgl/src/extra/themes/default/lv_theme_default.c ****             lv_obj_add_style(obj, &styles->scrollbar_scrolled, LV_PART_SCROLLBAR | LV_STATE_SCROLLE
 167              		.loc 1 719 0
 168 00ce 2968     		ldr	r1, [r5]
 169 00d0 4FF48032 		mov	r2, #65536
 170 00d4 0831     		adds	r1, r1, #8
 171 00d6 2046     		mov	r0, r4
 172 00d8 FFF7FEFF 		bl	lv_obj_add_style
 173              	.LVL25:
 720:Drivers/lvgl/lvgl/src/extra/themes/default/lv_theme_default.c ****             return;
 174              		.loc 1 720 0
 175 00dc 2968     		ldr	r1, [r5]
 176 00de 814A     		ldr	r2, .L71+20
 177 00e0 1031     		adds	r1, r1, #16
 178 00e2 2046     		mov	r0, r4
 179 00e4 FFF7FEFF 		bl	lv_obj_add_style
 180              	.LVL26:
 721:Drivers/lvgl/lvgl/src/extra/themes/default/lv_theme_default.c ****         }
 181              		.loc 1 721 0
 182 00e8 E9E7     		b	.L1
 183              	.LVL27:
 184              	.L57:
 728:Drivers/lvgl/lvgl/src/extra/themes/default/lv_theme_default.c ****             lv_obj_add_style(obj, &styles->pad_tiny, 0);
 185              		.loc 1 728 0
 186 00ea 7D4D     		ldr	r5, .L71+16
 187              	.LVL28:
 188 00ec 2968     		ldr	r1, [r5]
 189 00ee 0022     		movs	r2, #0
 190 00f0 4831     		adds	r1, r1, #72
 191 00f2 2046     		mov	r0, r4
 192 00f4 FFF7FEFF 		bl	lv_obj_add_style
 193              	.LVL29:
 729:Drivers/lvgl/lvgl/src/extra/themes/default/lv_theme_default.c ****             return;
 194              		.loc 1 729 0
 195 00f8 2968     		ldr	r1, [r5]
ARM GAS  /tmp/cc6wDDAF.s 			page 25


 196 00fa 0022     		movs	r2, #0
 197 00fc 7031     		adds	r1, r1, #112
 198 00fe 2046     		mov	r0, r4
 199 0100 FFF7FEFF 		bl	lv_obj_add_style
 200              	.LVL30:
 730:Drivers/lvgl/lvgl/src/extra/themes/default/lv_theme_default.c ****         }
 201              		.loc 1 730 0
 202 0104 DBE7     		b	.L1
 203              	.LVL31:
 204              	.L58:
 733:Drivers/lvgl/lvgl/src/extra/themes/default/lv_theme_default.c ****             lv_obj_add_style(obj, &styles->scr, 0);
 205              		.loc 1 733 0 discriminator 1
 206 0106 2046     		mov	r0, r4
 207 0108 FFF7FEFF 		bl	lv_obj_get_parent
 208              	.LVL32:
 209 010c 7249     		ldr	r1, .L71+8
 210 010e FFF7FEFF 		bl	lv_obj_check_type
 211              	.LVL33:
 212 0112 0028     		cmp	r0, #0
 213 0114 A4D0     		beq	.L7
 734:Drivers/lvgl/lvgl/src/extra/themes/default/lv_theme_default.c ****             lv_obj_add_style(obj, &styles->pad_normal, 0);
 214              		.loc 1 734 0
 215 0116 724D     		ldr	r5, .L71+16
 216              	.LVL34:
 217 0118 0022     		movs	r2, #0
 218 011a 2968     		ldr	r1, [r5]
 219 011c 2046     		mov	r0, r4
 220 011e FFF7FEFF 		bl	lv_obj_add_style
 221              	.LVL35:
 735:Drivers/lvgl/lvgl/src/extra/themes/default/lv_theme_default.c ****             lv_obj_add_style(obj, &styles->scrollbar, LV_PART_SCROLLBAR);
 222              		.loc 1 735 0
 223 0122 2968     		ldr	r1, [r5]
 224 0124 0022     		movs	r2, #0
 225 0126 8031     		adds	r1, r1, #128
 226 0128 2046     		mov	r0, r4
 227 012a FFF7FEFF 		bl	lv_obj_add_style
 228              	.LVL36:
 736:Drivers/lvgl/lvgl/src/extra/themes/default/lv_theme_default.c ****             lv_obj_add_style(obj, &styles->scrollbar_scrolled, LV_PART_SCROLLBAR | LV_STATE_SCROLLE
 229              		.loc 1 736 0
 230 012e 2968     		ldr	r1, [r5]
 231 0130 4FF48032 		mov	r2, #65536
 232 0134 0831     		adds	r1, r1, #8
 233 0136 2046     		mov	r0, r4
 234 0138 FFF7FEFF 		bl	lv_obj_add_style
 235              	.LVL37:
 737:Drivers/lvgl/lvgl/src/extra/themes/default/lv_theme_default.c ****             return;
 236              		.loc 1 737 0
 237 013c 2968     		ldr	r1, [r5]
 238 013e 694A     		ldr	r2, .L71+20
 239 0140 1031     		adds	r1, r1, #16
 240 0142 2046     		mov	r0, r4
 241 0144 FFF7FEFF 		bl	lv_obj_add_style
 242              	.LVL38:
 738:Drivers/lvgl/lvgl/src/extra/themes/default/lv_theme_default.c ****         }
 243              		.loc 1 738 0
 244 0148 B9E7     		b	.L1
 245              	.L4:
ARM GAS  /tmp/cc6wDDAF.s 			page 26


 246              	.LBE103:
 755:Drivers/lvgl/lvgl/src/extra/themes/default/lv_theme_default.c ****         lv_obj_add_style(obj, &styles->btn, 0);
 247              		.loc 1 755 0
 248 014a 6749     		ldr	r1, .L71+24
 249 014c 2046     		mov	r0, r4
 250 014e FFF7FEFF 		bl	lv_obj_check_type
 251              	.LVL39:
 252 0152 0028     		cmp	r0, #0
 253 0154 56D0     		beq	.L8
 756:Drivers/lvgl/lvgl/src/extra/themes/default/lv_theme_default.c ****         lv_obj_add_style(obj, &styles->bg_color_primary, 0);
 254              		.loc 1 756 0
 255 0156 624D     		ldr	r5, .L71+16
 256 0158 2968     		ldr	r1, [r5]
 257 015a 0022     		movs	r2, #0
 258 015c 2031     		adds	r1, r1, #32
 259 015e 2046     		mov	r0, r4
 260 0160 FFF7FEFF 		bl	lv_obj_add_style
 261              	.LVL40:
 757:Drivers/lvgl/lvgl/src/extra/themes/default/lv_theme_default.c ****         lv_obj_add_style(obj, &styles->transition_delayed, 0);
 262              		.loc 1 757 0
 263 0164 2968     		ldr	r1, [r5]
 264 0166 0022     		movs	r2, #0
 265 0168 2831     		adds	r1, r1, #40
 266 016a 2046     		mov	r0, r4
 267 016c FFF7FEFF 		bl	lv_obj_add_style
 268              	.LVL41:
 758:Drivers/lvgl/lvgl/src/extra/themes/default/lv_theme_default.c ****         lv_obj_add_style(obj, &styles->pressed, LV_STATE_PRESSED);
 269              		.loc 1 758 0
 270 0170 2968     		ldr	r1, [r5]
 271 0172 0022     		movs	r2, #0
 272 0174 D031     		adds	r1, r1, #208
 273 0176 2046     		mov	r0, r4
 274 0178 FFF7FEFF 		bl	lv_obj_add_style
 275              	.LVL42:
 759:Drivers/lvgl/lvgl/src/extra/themes/default/lv_theme_default.c ****         lv_obj_add_style(obj, &styles->transition_normal, LV_STATE_PRESSED);
 276              		.loc 1 759 0
 277 017c 2968     		ldr	r1, [r5]
 278 017e 2022     		movs	r2, #32
 279 0180 5831     		adds	r1, r1, #88
 280 0182 2046     		mov	r0, r4
 281 0184 FFF7FEFF 		bl	lv_obj_add_style
 282              	.LVL43:
 760:Drivers/lvgl/lvgl/src/extra/themes/default/lv_theme_default.c ****         lv_obj_add_style(obj, &styles->outline_primary, LV_STATE_FOCUS_KEY);
 283              		.loc 1 760 0
 284 0188 2968     		ldr	r1, [r5]
 285 018a 2022     		movs	r2, #32
 286 018c D831     		adds	r1, r1, #216
 287 018e 2046     		mov	r0, r4
 288 0190 FFF7FEFF 		bl	lv_obj_add_style
 289              	.LVL44:
 761:Drivers/lvgl/lvgl/src/extra/themes/default/lv_theme_default.c **** #if LV_THEME_DEFAULT_GROW
 290              		.loc 1 761 0
 291 0194 2968     		ldr	r1, [r5]
 292 0196 0422     		movs	r2, #4
 293 0198 A031     		adds	r1, r1, #160
 294 019a 2046     		mov	r0, r4
 295 019c FFF7FEFF 		bl	lv_obj_add_style
ARM GAS  /tmp/cc6wDDAF.s 			page 27


 296              	.LVL45:
 763:Drivers/lvgl/lvgl/src/extra/themes/default/lv_theme_default.c **** #endif
 297              		.loc 1 763 0
 298 01a0 2968     		ldr	r1, [r5]
 299 01a2 2022     		movs	r2, #32
 300 01a4 C831     		adds	r1, r1, #200
 301 01a6 2046     		mov	r0, r4
 302 01a8 FFF7FEFF 		bl	lv_obj_add_style
 303              	.LVL46:
 765:Drivers/lvgl/lvgl/src/extra/themes/default/lv_theme_default.c ****         lv_obj_add_style(obj, &styles->disabled, LV_STATE_DISABLED);
 304              		.loc 1 765 0
 305 01ac 2968     		ldr	r1, [r5]
 306 01ae 0122     		movs	r2, #1
 307 01b0 3831     		adds	r1, r1, #56
 308 01b2 2046     		mov	r0, r4
 309 01b4 FFF7FEFF 		bl	lv_obj_add_style
 310              	.LVL47:
 766:Drivers/lvgl/lvgl/src/extra/themes/default/lv_theme_default.c **** 
 311              		.loc 1 766 0
 312 01b8 2968     		ldr	r1, [r5]
 313 01ba 8022     		movs	r2, #128
 314 01bc 6031     		adds	r1, r1, #96
 315 01be 2046     		mov	r0, r4
 316 01c0 FFF7FEFF 		bl	lv_obj_add_style
 317              	.LVL48:
 769:Drivers/lvgl/lvgl/src/extra/themes/default/lv_theme_default.c ****            lv_obj_check_type(lv_obj_get_parent(obj), &lv_menu_main_header_cont_class)) {
 318              		.loc 1 769 0
 319 01c4 2046     		mov	r0, r4
 320 01c6 FFF7FEFF 		bl	lv_obj_get_parent
 321              	.LVL49:
 322 01ca 4849     		ldr	r1, .L71+28
 323 01cc FFF7FEFF 		bl	lv_obj_check_type
 324              	.LVL50:
 325 01d0 40B9     		cbnz	r0, .L9
 770:Drivers/lvgl/lvgl/src/extra/themes/default/lv_theme_default.c ****             lv_obj_add_style(obj, &styles->menu_header_btn, 0);
 326              		.loc 1 770 0 discriminator 1
 327 01d2 2046     		mov	r0, r4
 328 01d4 FFF7FEFF 		bl	lv_obj_get_parent
 329              	.LVL51:
 330 01d8 4549     		ldr	r1, .L71+32
 331 01da FFF7FEFF 		bl	lv_obj_check_type
 332              	.LVL52:
 769:Drivers/lvgl/lvgl/src/extra/themes/default/lv_theme_default.c ****            lv_obj_check_type(lv_obj_get_parent(obj), &lv_menu_main_header_cont_class)) {
 333              		.loc 1 769 0 discriminator 1
 334 01de 0028     		cmp	r0, #0
 335 01e0 3FF46DAF 		beq	.L1
 336              	.L9:
 771:Drivers/lvgl/lvgl/src/extra/themes/default/lv_theme_default.c ****             lv_obj_add_style(obj, &styles->menu_pressed, LV_STATE_PRESSED);
 337              		.loc 1 771 0
 338 01e4 3E4D     		ldr	r5, .L71+16
 339 01e6 2968     		ldr	r1, [r5]
 340 01e8 0022     		movs	r2, #0
 341 01ea 01F5E871 		add	r1, r1, #464
 342 01ee 2046     		mov	r0, r4
 343 01f0 FFF7FEFF 		bl	lv_obj_add_style
 344              	.LVL53:
 772:Drivers/lvgl/lvgl/src/extra/themes/default/lv_theme_default.c ****         }
ARM GAS  /tmp/cc6wDDAF.s 			page 28


 345              		.loc 1 772 0
 346 01f4 2968     		ldr	r1, [r5]
 347 01f6 2022     		movs	r2, #32
 348 01f8 01F5F071 		add	r1, r1, #480
 349 01fc 2046     		mov	r0, r4
 350 01fe FFF7FEFF 		bl	lv_obj_add_style
 351              	.LVL54:
 352 0202 5CE7     		b	.L1
 353              	.L8:
 779:Drivers/lvgl/lvgl/src/extra/themes/default/lv_theme_default.c ****         lv_obj_add_style(obj, &styles->line, 0);
 354              		.loc 1 779 0
 355 0204 3B49     		ldr	r1, .L71+36
 356 0206 2046     		mov	r0, r4
 357 0208 FFF7FEFF 		bl	lv_obj_check_type
 358              	.LVL55:
 359 020c 0028     		cmp	r0, #0
 360 020e 55D1     		bne	.L59
 785:Drivers/lvgl/lvgl/src/extra/themes/default/lv_theme_default.c **** #if LV_USE_MSGBOX
 361              		.loc 1 785 0
 362 0210 3949     		ldr	r1, .L71+40
 363 0212 2046     		mov	r0, r4
 364 0214 FFF7FEFF 		bl	lv_obj_check_type
 365              	.LVL56:
 366 0218 0028     		cmp	r0, #0
 367 021a 00F02381 		beq	.L11
 787:Drivers/lvgl/lvgl/src/extra/themes/default/lv_theme_default.c ****             lv_obj_add_style(obj, &styles->msgbox_btn_bg, 0);
 368              		.loc 1 787 0
 369 021e 2046     		mov	r0, r4
 370 0220 FFF7FEFF 		bl	lv_obj_get_parent
 371              	.LVL57:
 372 0224 3549     		ldr	r1, .L71+44
 373 0226 FFF7FEFF 		bl	lv_obj_check_type
 374              	.LVL58:
 375 022a 0028     		cmp	r0, #0
 376 022c 70D1     		bne	.L60
 800:Drivers/lvgl/lvgl/src/extra/themes/default/lv_theme_default.c ****             lv_obj_add_style(obj, &styles->bg_color_white, 0);
 377              		.loc 1 800 0
 378 022e 2046     		mov	r0, r4
 379 0230 FFF7FEFF 		bl	lv_obj_get_parent
 380              	.LVL59:
 381 0234 2749     		ldr	r1, .L71+4
 382 0236 FFF7FEFF 		bl	lv_obj_check_type
 383              	.LVL60:
 384 023a 0028     		cmp	r0, #0
 385 023c 40F09C80 		bne	.L61
 815:Drivers/lvgl/lvgl/src/extra/themes/default/lv_theme_default.c ****             lv_obj_add_style(obj, &styles->calendar_btnm_bg, 0);
 386              		.loc 1 815 0
 387 0240 2046     		mov	r0, r4
 388 0242 FFF7FEFF 		bl	lv_obj_get_parent
 389              	.LVL61:
 390 0246 2549     		ldr	r1, .L71+12
 391 0248 FFF7FEFF 		bl	lv_obj_check_type
 392              	.LVL62:
 393 024c 0028     		cmp	r0, #0
 394 024e 00F0D080 		beq	.L14
 816:Drivers/lvgl/lvgl/src/extra/themes/default/lv_theme_default.c ****             lv_obj_add_style(obj, &styles->outline_primary, LV_STATE_FOCUS_KEY);
 395              		.loc 1 816 0
ARM GAS  /tmp/cc6wDDAF.s 			page 29


 396 0252 234D     		ldr	r5, .L71+16
 397 0254 2968     		ldr	r1, [r5]
 398 0256 0022     		movs	r2, #0
 399 0258 01F5C071 		add	r1, r1, #384
 400 025c 2046     		mov	r0, r4
 401 025e FFF7FEFF 		bl	lv_obj_add_style
 402              	.LVL63:
 817:Drivers/lvgl/lvgl/src/extra/themes/default/lv_theme_default.c ****             lv_obj_add_style(obj, &styles->outline_secondary, LV_STATE_EDITED);
 403              		.loc 1 817 0
 404 0262 2968     		ldr	r1, [r5]
 405 0264 0422     		movs	r2, #4
 406 0266 A031     		adds	r1, r1, #160
 407 0268 2046     		mov	r0, r4
 408 026a FFF7FEFF 		bl	lv_obj_add_style
 409              	.LVL64:
 818:Drivers/lvgl/lvgl/src/extra/themes/default/lv_theme_default.c ****             lv_obj_add_style(obj, &styles->calendar_btnm_day, LV_PART_ITEMS);
 410              		.loc 1 818 0
 411 026e 2968     		ldr	r1, [r5]
 412 0270 0822     		movs	r2, #8
 413 0272 A831     		adds	r1, r1, #168
 414 0274 2046     		mov	r0, r4
 415 0276 FFF7FEFF 		bl	lv_obj_add_style
 416              	.LVL65:
 819:Drivers/lvgl/lvgl/src/extra/themes/default/lv_theme_default.c ****             lv_obj_add_style(obj, &styles->pressed, LV_PART_ITEMS | LV_STATE_PRESSED);
 417              		.loc 1 819 0
 418 027a 2968     		ldr	r1, [r5]
 419 027c 4FF4A022 		mov	r2, #327680
 420 0280 01F5C471 		add	r1, r1, #392
 421 0284 2046     		mov	r0, r4
 422 0286 FFF7FEFF 		bl	lv_obj_add_style
 423              	.LVL66:
 820:Drivers/lvgl/lvgl/src/extra/themes/default/lv_theme_default.c ****             lv_obj_add_style(obj, &styles->disabled, LV_PART_ITEMS | LV_STATE_DISABLED);
 424              		.loc 1 820 0
 425 028a 2968     		ldr	r1, [r5]
 426 028c 1C4A     		ldr	r2, .L71+48
 427 028e 5831     		adds	r1, r1, #88
 428 0290 2046     		mov	r0, r4
 429 0292 FFF7FEFF 		bl	lv_obj_add_style
 430              	.LVL67:
 821:Drivers/lvgl/lvgl/src/extra/themes/default/lv_theme_default.c ****             lv_obj_add_style(obj, &styles->outline_primary, LV_PART_ITEMS | LV_STATE_FOCUS_KEY);
 431              		.loc 1 821 0
 432 0296 2968     		ldr	r1, [r5]
 433 0298 1A4A     		ldr	r2, .L71+52
 434 029a 6031     		adds	r1, r1, #96
 435 029c 2046     		mov	r0, r4
 436 029e FFF7FEFF 		bl	lv_obj_add_style
 437              	.LVL68:
 822:Drivers/lvgl/lvgl/src/extra/themes/default/lv_theme_default.c ****             lv_obj_add_style(obj, &styles->outline_secondary, LV_PART_ITEMS | LV_STATE_EDITED);
 438              		.loc 1 822 0
 439 02a2 2968     		ldr	r1, [r5]
 440 02a4 184A     		ldr	r2, .L71+56
 441 02a6 A031     		adds	r1, r1, #160
 442 02a8 2046     		mov	r0, r4
 443 02aa FFF7FEFF 		bl	lv_obj_add_style
 444              	.LVL69:
 823:Drivers/lvgl/lvgl/src/extra/themes/default/lv_theme_default.c ****             return;
 445              		.loc 1 823 0
ARM GAS  /tmp/cc6wDDAF.s 			page 30


 446 02ae 2968     		ldr	r1, [r5]
 447 02b0 164A     		ldr	r2, .L71+60
 448 02b2 A831     		adds	r1, r1, #168
 449 02b4 2046     		mov	r0, r4
 450 02b6 FFF7FEFF 		bl	lv_obj_add_style
 451              	.LVL70:
 824:Drivers/lvgl/lvgl/src/extra/themes/default/lv_theme_default.c ****         }
 452              		.loc 1 824 0
 453 02ba 00E7     		b	.L1
 454              	.L59:
 780:Drivers/lvgl/lvgl/src/extra/themes/default/lv_theme_default.c ****     }
 455              		.loc 1 780 0
 456 02bc 084B     		ldr	r3, .L71+16
 457 02be 1968     		ldr	r1, [r3]
 458 02c0 0022     		movs	r2, #0
 459 02c2 01F5A871 		add	r1, r1, #336
 460 02c6 2046     		mov	r0, r4
 461 02c8 FFF7FEFF 		bl	lv_obj_add_style
 462              	.LVL71:
 463 02cc F7E6     		b	.L1
 464              	.L72:
 465 02ce 00BF     		.align	2
 466              	.L71:
 467 02d0 00000000 		.word	lv_obj_class
 468 02d4 00000000 		.word	lv_tabview_class
 469 02d8 00000000 		.word	lv_win_class
 470 02dc 00000000 		.word	lv_calendar_class
 471 02e0 00000000 		.word	.LANCHOR0
 472 02e4 40000100 		.word	65600
 473 02e8 00000000 		.word	lv_btn_class
 474 02ec 00000000 		.word	lv_menu_sidebar_header_cont_class
 475 02f0 00000000 		.word	lv_menu_main_header_cont_class
 476 02f4 00000000 		.word	lv_line_class
 477 02f8 00000000 		.word	lv_btnmatrix_class
 478 02fc 00000000 		.word	lv_msgbox_class
 479 0300 20000500 		.word	327712
 480 0304 80000500 		.word	327808
 481 0308 04000500 		.word	327684
 482 030c 08000500 		.word	327688
 483              	.L60:
 788:Drivers/lvgl/lvgl/src/extra/themes/default/lv_theme_default.c ****             lv_obj_add_style(obj, &styles->pad_gap, 0);
 484              		.loc 1 788 0
 485 0310 B84D     		ldr	r5, .L73
 486 0312 2968     		ldr	r1, [r5]
 487 0314 0022     		movs	r2, #0
 488 0316 01F5FC71 		add	r1, r1, #504
 489 031a 2046     		mov	r0, r4
 490 031c FFF7FEFF 		bl	lv_obj_add_style
 491              	.LVL72:
 789:Drivers/lvgl/lvgl/src/extra/themes/default/lv_theme_default.c ****             lv_obj_add_style(obj, &styles->btn, LV_PART_ITEMS);
 492              		.loc 1 789 0
 493 0320 2968     		ldr	r1, [r5]
 494 0322 0022     		movs	r2, #0
 495 0324 8831     		adds	r1, r1, #136
 496 0326 2046     		mov	r0, r4
 497 0328 FFF7FEFF 		bl	lv_obj_add_style
 498              	.LVL73:
ARM GAS  /tmp/cc6wDDAF.s 			page 31


 790:Drivers/lvgl/lvgl/src/extra/themes/default/lv_theme_default.c ****             lv_obj_add_style(obj, &styles->pressed, LV_PART_ITEMS | LV_STATE_PRESSED);
 499              		.loc 1 790 0
 500 032c 2968     		ldr	r1, [r5]
 501 032e 4FF4A022 		mov	r2, #327680
 502 0332 2031     		adds	r1, r1, #32
 503 0334 2046     		mov	r0, r4
 504 0336 FFF7FEFF 		bl	lv_obj_add_style
 505              	.LVL74:
 791:Drivers/lvgl/lvgl/src/extra/themes/default/lv_theme_default.c ****             lv_obj_add_style(obj, &styles->disabled, LV_PART_ITEMS | LV_STATE_DISABLED);
 506              		.loc 1 791 0
 507 033a 2968     		ldr	r1, [r5]
 508 033c AE4A     		ldr	r2, .L73+4
 509 033e 5831     		adds	r1, r1, #88
 510 0340 2046     		mov	r0, r4
 511 0342 FFF7FEFF 		bl	lv_obj_add_style
 512              	.LVL75:
 792:Drivers/lvgl/lvgl/src/extra/themes/default/lv_theme_default.c ****             lv_obj_add_style(obj, &styles->bg_color_primary, LV_PART_ITEMS | LV_STATE_CHECKED);
 513              		.loc 1 792 0
 514 0346 2968     		ldr	r1, [r5]
 515 0348 AC4A     		ldr	r2, .L73+8
 516 034a 6031     		adds	r1, r1, #96
 517 034c 2046     		mov	r0, r4
 518 034e FFF7FEFF 		bl	lv_obj_add_style
 519              	.LVL76:
 793:Drivers/lvgl/lvgl/src/extra/themes/default/lv_theme_default.c ****             lv_obj_add_style(obj, &styles->bg_color_primary_muted, LV_PART_ITEMS | LV_STATE_FOCUS_K
 520              		.loc 1 793 0
 521 0352 2968     		ldr	r1, [r5]
 522 0354 AA4A     		ldr	r2, .L73+12
 523 0356 2831     		adds	r1, r1, #40
 524 0358 2046     		mov	r0, r4
 525 035a FFF7FEFF 		bl	lv_obj_add_style
 526              	.LVL77:
 794:Drivers/lvgl/lvgl/src/extra/themes/default/lv_theme_default.c ****             lv_obj_add_style(obj, &styles->bg_color_secondary_muted, LV_PART_ITEMS | LV_STATE_EDITE
 527              		.loc 1 794 0
 528 035e 2968     		ldr	r1, [r5]
 529 0360 A84A     		ldr	r2, .L73+16
 530 0362 3031     		adds	r1, r1, #48
 531 0364 2046     		mov	r0, r4
 532 0366 FFF7FEFF 		bl	lv_obj_add_style
 533              	.LVL78:
 795:Drivers/lvgl/lvgl/src/extra/themes/default/lv_theme_default.c ****             return;
 534              		.loc 1 795 0
 535 036a 2968     		ldr	r1, [r5]
 536 036c A64A     		ldr	r2, .L73+20
 537 036e 4031     		adds	r1, r1, #64
 538 0370 2046     		mov	r0, r4
 539 0372 FFF7FEFF 		bl	lv_obj_add_style
 540              	.LVL79:
 796:Drivers/lvgl/lvgl/src/extra/themes/default/lv_theme_default.c ****         }
 541              		.loc 1 796 0
 542 0376 A2E6     		b	.L1
 543              	.L61:
 801:Drivers/lvgl/lvgl/src/extra/themes/default/lv_theme_default.c ****             lv_obj_add_style(obj, &styles->outline_primary, LV_STATE_FOCUS_KEY);
 544              		.loc 1 801 0
 545 0378 9E4D     		ldr	r5, .L73
 546 037a 2968     		ldr	r1, [r5]
 547 037c 0022     		movs	r2, #0
ARM GAS  /tmp/cc6wDDAF.s 			page 32


 548 037e 5031     		adds	r1, r1, #80
 549 0380 2046     		mov	r0, r4
 550 0382 FFF7FEFF 		bl	lv_obj_add_style
 551              	.LVL80:
 802:Drivers/lvgl/lvgl/src/extra/themes/default/lv_theme_default.c ****             lv_obj_add_style(obj, &styles->tab_bg_focus, LV_STATE_FOCUS_KEY);
 552              		.loc 1 802 0
 553 0386 2968     		ldr	r1, [r5]
 554 0388 0422     		movs	r2, #4
 555 038a A031     		adds	r1, r1, #160
 556 038c 2046     		mov	r0, r4
 557 038e FFF7FEFF 		bl	lv_obj_add_style
 558              	.LVL81:
 803:Drivers/lvgl/lvgl/src/extra/themes/default/lv_theme_default.c ****             lv_obj_add_style(obj, &styles->pressed, LV_PART_ITEMS | LV_STATE_PRESSED);
 559              		.loc 1 803 0
 560 0392 2968     		ldr	r1, [r5]
 561 0394 0422     		movs	r2, #4
 562 0396 01F50C71 		add	r1, r1, #560
 563 039a 2046     		mov	r0, r4
 564 039c FFF7FEFF 		bl	lv_obj_add_style
 565              	.LVL82:
 804:Drivers/lvgl/lvgl/src/extra/themes/default/lv_theme_default.c ****             lv_obj_add_style(obj, &styles->bg_color_primary_muted, LV_PART_ITEMS | LV_STATE_CHECKED
 566              		.loc 1 804 0
 567 03a0 2968     		ldr	r1, [r5]
 568 03a2 954A     		ldr	r2, .L73+4
 569 03a4 5831     		adds	r1, r1, #88
 570 03a6 2046     		mov	r0, r4
 571 03a8 FFF7FEFF 		bl	lv_obj_add_style
 572              	.LVL83:
 805:Drivers/lvgl/lvgl/src/extra/themes/default/lv_theme_default.c ****             lv_obj_add_style(obj, &styles->tab_btn, LV_PART_ITEMS | LV_STATE_CHECKED);
 573              		.loc 1 805 0
 574 03ac 2968     		ldr	r1, [r5]
 575 03ae 944E     		ldr	r6, .L73+12
 576 03b0 3246     		mov	r2, r6
 577 03b2 3031     		adds	r1, r1, #48
 578 03b4 2046     		mov	r0, r4
 579 03b6 FFF7FEFF 		bl	lv_obj_add_style
 580              	.LVL84:
 806:Drivers/lvgl/lvgl/src/extra/themes/default/lv_theme_default.c ****             lv_obj_add_style(obj, &styles->outline_primary, LV_PART_ITEMS | LV_STATE_FOCUS_KEY);
 581              		.loc 1 806 0
 582 03ba 2968     		ldr	r1, [r5]
 583 03bc 3246     		mov	r2, r6
 584 03be 01F50E71 		add	r1, r1, #568
 585 03c2 2046     		mov	r0, r4
 586 03c4 FFF7FEFF 		bl	lv_obj_add_style
 587              	.LVL85:
 807:Drivers/lvgl/lvgl/src/extra/themes/default/lv_theme_default.c ****             lv_obj_add_style(obj, &styles->outline_secondary, LV_PART_ITEMS | LV_STATE_EDITED);
 588              		.loc 1 807 0
 589 03c8 2968     		ldr	r1, [r5]
 590 03ca 0336     		adds	r6, r6, #3
 591 03cc 3246     		mov	r2, r6
 592 03ce A031     		adds	r1, r1, #160
 593 03d0 2046     		mov	r0, r4
 594 03d2 FFF7FEFF 		bl	lv_obj_add_style
 595              	.LVL86:
 808:Drivers/lvgl/lvgl/src/extra/themes/default/lv_theme_default.c ****             lv_obj_add_style(obj, &styles->tab_bg_focus, LV_PART_ITEMS | LV_STATE_FOCUS_KEY);
 596              		.loc 1 808 0
 597 03d6 2968     		ldr	r1, [r5]
ARM GAS  /tmp/cc6wDDAF.s 			page 33


 598 03d8 8B4A     		ldr	r2, .L73+20
 599 03da A831     		adds	r1, r1, #168
 600 03dc 2046     		mov	r0, r4
 601 03de FFF7FEFF 		bl	lv_obj_add_style
 602              	.LVL87:
 809:Drivers/lvgl/lvgl/src/extra/themes/default/lv_theme_default.c ****             return;
 603              		.loc 1 809 0
 604 03e2 2968     		ldr	r1, [r5]
 605 03e4 3246     		mov	r2, r6
 606 03e6 01F50C71 		add	r1, r1, #560
 607 03ea 2046     		mov	r0, r4
 608 03ec FFF7FEFF 		bl	lv_obj_add_style
 609              	.LVL88:
 810:Drivers/lvgl/lvgl/src/extra/themes/default/lv_theme_default.c ****         }
 610              		.loc 1 810 0
 611 03f0 65E6     		b	.L1
 612              	.L14:
 827:Drivers/lvgl/lvgl/src/extra/themes/default/lv_theme_default.c ****         lv_obj_add_style(obj, &styles->outline_primary, LV_STATE_FOCUS_KEY);
 613              		.loc 1 827 0
 614 03f2 804D     		ldr	r5, .L73
 615 03f4 2968     		ldr	r1, [r5]
 616 03f6 0022     		movs	r2, #0
 617 03f8 1831     		adds	r1, r1, #24
 618 03fa 2046     		mov	r0, r4
 619 03fc FFF7FEFF 		bl	lv_obj_add_style
 620              	.LVL89:
 828:Drivers/lvgl/lvgl/src/extra/themes/default/lv_theme_default.c ****         lv_obj_add_style(obj, &styles->outline_secondary, LV_STATE_EDITED);
 621              		.loc 1 828 0
 622 0400 2968     		ldr	r1, [r5]
 623 0402 0422     		movs	r2, #4
 624 0404 A031     		adds	r1, r1, #160
 625 0406 2046     		mov	r0, r4
 626 0408 FFF7FEFF 		bl	lv_obj_add_style
 627              	.LVL90:
 829:Drivers/lvgl/lvgl/src/extra/themes/default/lv_theme_default.c ****         lv_obj_add_style(obj, &styles->btn, LV_PART_ITEMS);
 628              		.loc 1 829 0
 629 040c 2968     		ldr	r1, [r5]
 630 040e 0822     		movs	r2, #8
 631 0410 A831     		adds	r1, r1, #168
 632 0412 2046     		mov	r0, r4
 633 0414 FFF7FEFF 		bl	lv_obj_add_style
 634              	.LVL91:
 830:Drivers/lvgl/lvgl/src/extra/themes/default/lv_theme_default.c ****         lv_obj_add_style(obj, &styles->disabled, LV_PART_ITEMS | LV_STATE_DISABLED);
 635              		.loc 1 830 0
 636 0418 2968     		ldr	r1, [r5]
 637 041a 4FF4A022 		mov	r2, #327680
 638 041e 2031     		adds	r1, r1, #32
 639 0420 2046     		mov	r0, r4
 640 0422 FFF7FEFF 		bl	lv_obj_add_style
 641              	.LVL92:
 831:Drivers/lvgl/lvgl/src/extra/themes/default/lv_theme_default.c ****         lv_obj_add_style(obj, &styles->pressed, LV_PART_ITEMS | LV_STATE_PRESSED);
 642              		.loc 1 831 0
 643 0426 2968     		ldr	r1, [r5]
 644 0428 744A     		ldr	r2, .L73+8
 645 042a 6031     		adds	r1, r1, #96
 646 042c 2046     		mov	r0, r4
 647 042e FFF7FEFF 		bl	lv_obj_add_style
ARM GAS  /tmp/cc6wDDAF.s 			page 34


 648              	.LVL93:
 832:Drivers/lvgl/lvgl/src/extra/themes/default/lv_theme_default.c ****         lv_obj_add_style(obj, &styles->bg_color_primary, LV_PART_ITEMS | LV_STATE_CHECKED);
 649              		.loc 1 832 0
 650 0432 2968     		ldr	r1, [r5]
 651 0434 704A     		ldr	r2, .L73+4
 652 0436 5831     		adds	r1, r1, #88
 653 0438 2046     		mov	r0, r4
 654 043a FFF7FEFF 		bl	lv_obj_add_style
 655              	.LVL94:
 833:Drivers/lvgl/lvgl/src/extra/themes/default/lv_theme_default.c ****         lv_obj_add_style(obj, &styles->outline_primary, LV_PART_ITEMS | LV_STATE_FOCUS_KEY);
 656              		.loc 1 833 0
 657 043e 2968     		ldr	r1, [r5]
 658 0440 6F4A     		ldr	r2, .L73+12
 659 0442 2831     		adds	r1, r1, #40
 660 0444 2046     		mov	r0, r4
 661 0446 FFF7FEFF 		bl	lv_obj_add_style
 662              	.LVL95:
 834:Drivers/lvgl/lvgl/src/extra/themes/default/lv_theme_default.c ****         lv_obj_add_style(obj, &styles->outline_secondary, LV_PART_ITEMS | LV_STATE_EDITED);
 663              		.loc 1 834 0
 664 044a 2968     		ldr	r1, [r5]
 665 044c 6D4A     		ldr	r2, .L73+16
 666 044e A031     		adds	r1, r1, #160
 667 0450 2046     		mov	r0, r4
 668 0452 FFF7FEFF 		bl	lv_obj_add_style
 669              	.LVL96:
 835:Drivers/lvgl/lvgl/src/extra/themes/default/lv_theme_default.c ****     }
 670              		.loc 1 835 0
 671 0456 2968     		ldr	r1, [r5]
 672 0458 6B4A     		ldr	r2, .L73+20
 673 045a A831     		adds	r1, r1, #168
 674 045c 2046     		mov	r0, r4
 675 045e FFF7FEFF 		bl	lv_obj_add_style
 676              	.LVL97:
 677 0462 2CE6     		b	.L1
 678              	.L11:
 840:Drivers/lvgl/lvgl/src/extra/themes/default/lv_theme_default.c ****         lv_obj_add_style(obj, &styles->bg_color_primary_muted, 0);
 679              		.loc 1 840 0
 680 0464 6949     		ldr	r1, .L73+24
 681 0466 2046     		mov	r0, r4
 682 0468 FFF7FEFF 		bl	lv_obj_check_type
 683              	.LVL98:
 684 046c 0028     		cmp	r0, #0
 685 046e 55D1     		bne	.L62
 851:Drivers/lvgl/lvgl/src/extra/themes/default/lv_theme_default.c ****         lv_obj_add_style(obj, &styles->bg_color_primary_muted, 0);
 686              		.loc 1 851 0
 687 0470 6749     		ldr	r1, .L73+28
 688 0472 2046     		mov	r0, r4
 689 0474 FFF7FEFF 		bl	lv_obj_check_type
 690              	.LVL99:
 691 0478 0028     		cmp	r0, #0
 692 047a 77D1     		bne	.L63
 868:Drivers/lvgl/lvgl/src/extra/themes/default/lv_theme_default.c ****         lv_obj_add_style(obj, &styles->card, 0);
 693              		.loc 1 868 0
 694 047c 6549     		ldr	r1, .L73+32
 695 047e 2046     		mov	r0, r4
 696 0480 FFF7FEFF 		bl	lv_obj_check_type
 697              	.LVL100:
ARM GAS  /tmp/cc6wDDAF.s 			page 35


 698 0484 0028     		cmp	r0, #0
 699 0486 40F0D180 		bne	.L64
 886:Drivers/lvgl/lvgl/src/extra/themes/default/lv_theme_default.c ****         lv_obj_add_style(obj, &styles->pad_gap, 0);
 700              		.loc 1 886 0
 701 048a 6349     		ldr	r1, .L73+36
 702 048c 2046     		mov	r0, r4
 703 048e FFF7FEFF 		bl	lv_obj_check_type
 704              	.LVL101:
 705 0492 0028     		cmp	r0, #0
 706 0494 40F01F81 		bne	.L65
 903:Drivers/lvgl/lvgl/src/extra/themes/default/lv_theme_default.c ****         lv_obj_add_style(obj, &styles->bg_color_grey, 0);
 707              		.loc 1 903 0
 708 0498 6049     		ldr	r1, .L73+40
 709 049a 2046     		mov	r0, r4
 710 049c FFF7FEFF 		bl	lv_obj_check_type
 711              	.LVL102:
 712 04a0 0028     		cmp	r0, #0
 713 04a2 40F05C81 		bne	.L66
 923:Drivers/lvgl/lvgl/src/extra/themes/default/lv_theme_default.c ****         lv_obj_add_style(obj, &styles->card, 0);
 714              		.loc 1 923 0
 715 04a6 5E49     		ldr	r1, .L73+44
 716 04a8 2046     		mov	r0, r4
 717 04aa FFF7FEFF 		bl	lv_obj_check_type
 718              	.LVL103:
 719 04ae 0028     		cmp	r0, #0
 720 04b0 40F0B281 		bne	.L67
 937:Drivers/lvgl/lvgl/src/extra/themes/default/lv_theme_default.c ****         lv_obj_add_style(obj, &styles->card, 0);
 721              		.loc 1 937 0
 722 04b4 5B49     		ldr	r1, .L73+48
 723 04b6 2046     		mov	r0, r4
 724 04b8 FFF7FEFF 		bl	lv_obj_check_type
 725              	.LVL104:
 726 04bc 0028     		cmp	r0, #0
 727 04be 00F0ED81 		beq	.L21
 938:Drivers/lvgl/lvgl/src/extra/themes/default/lv_theme_default.c ****         lv_obj_add_style(obj, &styles->anim, 0);
 728              		.loc 1 938 0
 729 04c2 4C4D     		ldr	r5, .L73
 730 04c4 2968     		ldr	r1, [r5]
 731 04c6 0022     		movs	r2, #0
 732 04c8 1831     		adds	r1, r1, #24
 733 04ca 2046     		mov	r0, r4
 734 04cc FFF7FEFF 		bl	lv_obj_add_style
 735              	.LVL105:
 939:Drivers/lvgl/lvgl/src/extra/themes/default/lv_theme_default.c ****         lv_obj_add_style(obj, &styles->line_space_large, 0);
 736              		.loc 1 939 0
 737 04d0 2968     		ldr	r1, [r5]
 738 04d2 0022     		movs	r2, #0
 739 04d4 E031     		adds	r1, r1, #224
 740 04d6 2046     		mov	r0, r4
 741 04d8 FFF7FEFF 		bl	lv_obj_add_style
 742              	.LVL106:
 940:Drivers/lvgl/lvgl/src/extra/themes/default/lv_theme_default.c ****         lv_obj_add_style(obj, &styles->text_align_center, 0);
 743              		.loc 1 940 0
 744 04dc 2968     		ldr	r1, [r5]
 745 04de 0022     		movs	r2, #0
 746 04e0 9031     		adds	r1, r1, #144
 747 04e2 2046     		mov	r0, r4
ARM GAS  /tmp/cc6wDDAF.s 			page 36


 748 04e4 FFF7FEFF 		bl	lv_obj_add_style
 749              	.LVL107:
 941:Drivers/lvgl/lvgl/src/extra/themes/default/lv_theme_default.c ****         lv_obj_add_style(obj, &styles->outline_primary, LV_STATE_FOCUS_KEY);
 750              		.loc 1 941 0
 751 04e8 2968     		ldr	r1, [r5]
 752 04ea 0022     		movs	r2, #0
 753 04ec 9831     		adds	r1, r1, #152
 754 04ee 2046     		mov	r0, r4
 755 04f0 FFF7FEFF 		bl	lv_obj_add_style
 756              	.LVL108:
 942:Drivers/lvgl/lvgl/src/extra/themes/default/lv_theme_default.c ****         lv_obj_add_style(obj, &styles->outline_secondary, LV_STATE_EDITED);
 757              		.loc 1 942 0
 758 04f4 2968     		ldr	r1, [r5]
 759 04f6 0422     		movs	r2, #4
 760 04f8 A031     		adds	r1, r1, #160
 761 04fa 2046     		mov	r0, r4
 762 04fc FFF7FEFF 		bl	lv_obj_add_style
 763              	.LVL109:
 943:Drivers/lvgl/lvgl/src/extra/themes/default/lv_theme_default.c ****         lv_obj_add_style(obj, &styles->bg_color_primary, LV_PART_SELECTED);
 764              		.loc 1 943 0
 765 0500 2968     		ldr	r1, [r5]
 766 0502 0822     		movs	r2, #8
 767 0504 A831     		adds	r1, r1, #168
 768 0506 2046     		mov	r0, r4
 769 0508 FFF7FEFF 		bl	lv_obj_add_style
 770              	.LVL110:
 944:Drivers/lvgl/lvgl/src/extra/themes/default/lv_theme_default.c ****     }
 771              		.loc 1 944 0
 772 050c 2968     		ldr	r1, [r5]
 773 050e 4FF48022 		mov	r2, #262144
 774 0512 2831     		adds	r1, r1, #40
 775 0514 2046     		mov	r0, r4
 776 0516 FFF7FEFF 		bl	lv_obj_add_style
 777              	.LVL111:
 778 051a D0E5     		b	.L1
 779              	.L62:
 841:Drivers/lvgl/lvgl/src/extra/themes/default/lv_theme_default.c ****         lv_obj_add_style(obj, &styles->circle, 0);
 780              		.loc 1 841 0
 781 051c 354D     		ldr	r5, .L73
 782 051e 2968     		ldr	r1, [r5]
 783 0520 0022     		movs	r2, #0
 784 0522 3031     		adds	r1, r1, #48
 785 0524 2046     		mov	r0, r4
 786 0526 FFF7FEFF 		bl	lv_obj_add_style
 787              	.LVL112:
 842:Drivers/lvgl/lvgl/src/extra/themes/default/lv_theme_default.c ****         lv_obj_add_style(obj, &styles->outline_primary, LV_STATE_FOCUS_KEY);
 788              		.loc 1 842 0
 789 052a 2968     		ldr	r1, [r5]
 790 052c 0022     		movs	r2, #0
 791 052e B031     		adds	r1, r1, #176
 792 0530 2046     		mov	r0, r4
 793 0532 FFF7FEFF 		bl	lv_obj_add_style
 794              	.LVL113:
 843:Drivers/lvgl/lvgl/src/extra/themes/default/lv_theme_default.c ****         lv_obj_add_style(obj, &styles->outline_secondary, LV_STATE_EDITED);
 795              		.loc 1 843 0
 796 0536 2968     		ldr	r1, [r5]
 797 0538 0422     		movs	r2, #4
ARM GAS  /tmp/cc6wDDAF.s 			page 37


 798 053a A031     		adds	r1, r1, #160
 799 053c 2046     		mov	r0, r4
 800 053e FFF7FEFF 		bl	lv_obj_add_style
 801              	.LVL114:
 844:Drivers/lvgl/lvgl/src/extra/themes/default/lv_theme_default.c ****         lv_obj_add_style(obj, &styles->bg_color_primary, LV_PART_INDICATOR);
 802              		.loc 1 844 0
 803 0542 2968     		ldr	r1, [r5]
 804 0544 0822     		movs	r2, #8
 805 0546 A831     		adds	r1, r1, #168
 806 0548 2046     		mov	r0, r4
 807 054a FFF7FEFF 		bl	lv_obj_add_style
 808              	.LVL115:
 845:Drivers/lvgl/lvgl/src/extra/themes/default/lv_theme_default.c ****         lv_obj_add_style(obj, &styles->circle, LV_PART_INDICATOR);
 809              		.loc 1 845 0
 810 054e 2968     		ldr	r1, [r5]
 811 0550 4FF40032 		mov	r2, #131072
 812 0554 2831     		adds	r1, r1, #40
 813 0556 2046     		mov	r0, r4
 814 0558 FFF7FEFF 		bl	lv_obj_add_style
 815              	.LVL116:
 846:Drivers/lvgl/lvgl/src/extra/themes/default/lv_theme_default.c ****     }
 816              		.loc 1 846 0
 817 055c 2968     		ldr	r1, [r5]
 818 055e 4FF40032 		mov	r2, #131072
 819 0562 B031     		adds	r1, r1, #176
 820 0564 2046     		mov	r0, r4
 821 0566 FFF7FEFF 		bl	lv_obj_add_style
 822              	.LVL117:
 823 056a A8E5     		b	.L1
 824              	.L63:
 852:Drivers/lvgl/lvgl/src/extra/themes/default/lv_theme_default.c ****         lv_obj_add_style(obj, &styles->circle, 0);
 825              		.loc 1 852 0
 826 056c 214D     		ldr	r5, .L73
 827 056e 2968     		ldr	r1, [r5]
 828 0570 0022     		movs	r2, #0
 829 0572 3031     		adds	r1, r1, #48
 830 0574 2046     		mov	r0, r4
 831 0576 FFF7FEFF 		bl	lv_obj_add_style
 832              	.LVL118:
 853:Drivers/lvgl/lvgl/src/extra/themes/default/lv_theme_default.c ****         lv_obj_add_style(obj, &styles->outline_primary, LV_STATE_FOCUS_KEY);
 833              		.loc 1 853 0
 834 057a 2968     		ldr	r1, [r5]
 835 057c 0022     		movs	r2, #0
 836 057e B031     		adds	r1, r1, #176
 837 0580 2046     		mov	r0, r4
 838 0582 FFF7FEFF 		bl	lv_obj_add_style
 839              	.LVL119:
 854:Drivers/lvgl/lvgl/src/extra/themes/default/lv_theme_default.c ****         lv_obj_add_style(obj, &styles->outline_secondary, LV_STATE_EDITED);
 840              		.loc 1 854 0
 841 0586 2968     		ldr	r1, [r5]
 842 0588 0422     		movs	r2, #4
 843 058a A031     		adds	r1, r1, #160
 844 058c 2046     		mov	r0, r4
 845 058e FFF7FEFF 		bl	lv_obj_add_style
 846              	.LVL120:
 855:Drivers/lvgl/lvgl/src/extra/themes/default/lv_theme_default.c ****         lv_obj_add_style(obj, &styles->bg_color_primary, LV_PART_INDICATOR);
 847              		.loc 1 855 0
ARM GAS  /tmp/cc6wDDAF.s 			page 38


 848 0592 2968     		ldr	r1, [r5]
 849 0594 0822     		movs	r2, #8
 850 0596 A831     		adds	r1, r1, #168
 851 0598 2046     		mov	r0, r4
 852 059a FFF7FEFF 		bl	lv_obj_add_style
 853              	.LVL121:
 856:Drivers/lvgl/lvgl/src/extra/themes/default/lv_theme_default.c ****         lv_obj_add_style(obj, &styles->circle, LV_PART_INDICATOR);
 854              		.loc 1 856 0
 855 059e 2968     		ldr	r1, [r5]
 856 05a0 4FF40032 		mov	r2, #131072
 857 05a4 2831     		adds	r1, r1, #40
 858 05a6 2046     		mov	r0, r4
 859 05a8 FFF7FEFF 		bl	lv_obj_add_style
 860              	.LVL122:
 857:Drivers/lvgl/lvgl/src/extra/themes/default/lv_theme_default.c ****         lv_obj_add_style(obj, &styles->knob, LV_PART_KNOB);
 861              		.loc 1 857 0
 862 05ac 2968     		ldr	r1, [r5]
 863 05ae 4FF40032 		mov	r2, #131072
 864 05b2 B031     		adds	r1, r1, #176
 865 05b4 2046     		mov	r0, r4
 866 05b6 FFF7FEFF 		bl	lv_obj_add_style
 867              	.LVL123:
 858:Drivers/lvgl/lvgl/src/extra/themes/default/lv_theme_default.c **** #if LV_THEME_DEFAULT_GROW
 868              		.loc 1 858 0
 869 05ba 2968     		ldr	r1, [r5]
 870 05bc 4FF44032 		mov	r2, #196608
 871 05c0 F031     		adds	r1, r1, #240
 872 05c2 2046     		mov	r0, r4
 873 05c4 FFF7FEFF 		bl	lv_obj_add_style
 874              	.LVL124:
 860:Drivers/lvgl/lvgl/src/extra/themes/default/lv_theme_default.c **** #endif
 875              		.loc 1 860 0
 876 05c8 2968     		ldr	r1, [r5]
 877 05ca 174E     		ldr	r6, .L73+52
 878 05cc 3246     		mov	r2, r6
 879 05ce C831     		adds	r1, r1, #200
 880 05d0 2046     		mov	r0, r4
 881 05d2 FFF7FEFF 		bl	lv_obj_add_style
 882              	.LVL125:
 862:Drivers/lvgl/lvgl/src/extra/themes/default/lv_theme_default.c ****         lv_obj_add_style(obj, &styles->transition_normal, LV_PART_KNOB | LV_STATE_PRESSED);
 883              		.loc 1 862 0
 884 05d6 2968     		ldr	r1, [r5]
 885 05d8 4FF44032 		mov	r2, #196608
 886 05dc D031     		adds	r1, r1, #208
 887 05de 2046     		mov	r0, r4
 888 05e0 FFF7FEFF 		bl	lv_obj_add_style
 889              	.LVL126:
 863:Drivers/lvgl/lvgl/src/extra/themes/default/lv_theme_default.c ****     }
 890              		.loc 1 863 0
 891 05e4 2968     		ldr	r1, [r5]
 892 05e6 3246     		mov	r2, r6
 893 05e8 D831     		adds	r1, r1, #216
 894 05ea 2046     		mov	r0, r4
 895 05ec FFF7FEFF 		bl	lv_obj_add_style
 896              	.LVL127:
 897 05f0 65E5     		b	.L1
 898              	.L74:
ARM GAS  /tmp/cc6wDDAF.s 			page 39


 899 05f2 00BF     		.align	2
 900              	.L73:
 901 05f4 00000000 		.word	.LANCHOR0
 902 05f8 20000500 		.word	327712
 903 05fc 80000500 		.word	327808
 904 0600 01000500 		.word	327681
 905 0604 04000500 		.word	327684
 906 0608 08000500 		.word	327688
 907 060c 00000000 		.word	lv_bar_class
 908 0610 00000000 		.word	lv_slider_class
 909 0614 00000000 		.word	lv_table_class
 910 0618 00000000 		.word	lv_checkbox_class
 911 061c 00000000 		.word	lv_switch_class
 912 0620 00000000 		.word	lv_chart_class
 913 0624 00000000 		.word	lv_roller_class
 914 0628 20000300 		.word	196640
 915              	.L64:
 869:Drivers/lvgl/lvgl/src/extra/themes/default/lv_theme_default.c ****         lv_obj_add_style(obj, &styles->pad_zero, 0);
 916              		.loc 1 869 0
 917 062c C04D     		ldr	r5, .L75
 918 062e 2968     		ldr	r1, [r5]
 919 0630 0022     		movs	r2, #0
 920 0632 1831     		adds	r1, r1, #24
 921 0634 2046     		mov	r0, r4
 922 0636 FFF7FEFF 		bl	lv_obj_add_style
 923              	.LVL128:
 870:Drivers/lvgl/lvgl/src/extra/themes/default/lv_theme_default.c ****         lv_obj_add_style(obj, &styles->no_radius, 0);
 924              		.loc 1 870 0
 925 063a 2968     		ldr	r1, [r5]
 926 063c 0022     		movs	r2, #0
 927 063e 6831     		adds	r1, r1, #104
 928 0640 2046     		mov	r0, r4
 929 0642 FFF7FEFF 		bl	lv_obj_add_style
 930              	.LVL129:
 871:Drivers/lvgl/lvgl/src/extra/themes/default/lv_theme_default.c ****         lv_obj_add_style(obj, &styles->outline_primary, LV_STATE_FOCUS_KEY);
 931              		.loc 1 871 0
 932 0646 2968     		ldr	r1, [r5]
 933 0648 0022     		movs	r2, #0
 934 064a B831     		adds	r1, r1, #184
 935 064c 2046     		mov	r0, r4
 936 064e FFF7FEFF 		bl	lv_obj_add_style
 937              	.LVL130:
 872:Drivers/lvgl/lvgl/src/extra/themes/default/lv_theme_default.c ****         lv_obj_add_style(obj, &styles->outline_secondary, LV_STATE_EDITED);
 938              		.loc 1 872 0
 939 0652 2968     		ldr	r1, [r5]
 940 0654 0422     		movs	r2, #4
 941 0656 A031     		adds	r1, r1, #160
 942 0658 2046     		mov	r0, r4
 943 065a FFF7FEFF 		bl	lv_obj_add_style
 944              	.LVL131:
 873:Drivers/lvgl/lvgl/src/extra/themes/default/lv_theme_default.c ****         lv_obj_add_style(obj, &styles->scrollbar, LV_PART_SCROLLBAR);
 945              		.loc 1 873 0
 946 065e 2968     		ldr	r1, [r5]
 947 0660 0822     		movs	r2, #8
 948 0662 A831     		adds	r1, r1, #168
 949 0664 2046     		mov	r0, r4
 950 0666 FFF7FEFF 		bl	lv_obj_add_style
ARM GAS  /tmp/cc6wDDAF.s 			page 40


 951              	.LVL132:
 874:Drivers/lvgl/lvgl/src/extra/themes/default/lv_theme_default.c ****         lv_obj_add_style(obj, &styles->scrollbar_scrolled, LV_PART_SCROLLBAR | LV_STATE_SCROLLED);
 952              		.loc 1 874 0
 953 066a 2968     		ldr	r1, [r5]
 954 066c 4FF48032 		mov	r2, #65536
 955 0670 0831     		adds	r1, r1, #8
 956 0672 2046     		mov	r0, r4
 957 0674 FFF7FEFF 		bl	lv_obj_add_style
 958              	.LVL133:
 875:Drivers/lvgl/lvgl/src/extra/themes/default/lv_theme_default.c ****         lv_obj_add_style(obj, &styles->bg_color_white, LV_PART_ITEMS);
 959              		.loc 1 875 0
 960 0678 2968     		ldr	r1, [r5]
 961 067a AE4A     		ldr	r2, .L75+4
 962 067c 1031     		adds	r1, r1, #16
 963 067e 2046     		mov	r0, r4
 964 0680 FFF7FEFF 		bl	lv_obj_add_style
 965              	.LVL134:
 876:Drivers/lvgl/lvgl/src/extra/themes/default/lv_theme_default.c ****         lv_obj_add_style(obj, &styles->table_cell, LV_PART_ITEMS);
 966              		.loc 1 876 0
 967 0684 2968     		ldr	r1, [r5]
 968 0686 4FF4A022 		mov	r2, #327680
 969 068a 5031     		adds	r1, r1, #80
 970 068c 2046     		mov	r0, r4
 971 068e FFF7FEFF 		bl	lv_obj_add_style
 972              	.LVL135:
 877:Drivers/lvgl/lvgl/src/extra/themes/default/lv_theme_default.c ****         lv_obj_add_style(obj, &styles->pad_normal, LV_PART_ITEMS);
 973              		.loc 1 877 0
 974 0692 2968     		ldr	r1, [r5]
 975 0694 4FF4A022 		mov	r2, #327680
 976 0698 01F5AC71 		add	r1, r1, #344
 977 069c 2046     		mov	r0, r4
 978 069e FFF7FEFF 		bl	lv_obj_add_style
 979              	.LVL136:
 878:Drivers/lvgl/lvgl/src/extra/themes/default/lv_theme_default.c ****         lv_obj_add_style(obj, &styles->pressed, LV_PART_ITEMS | LV_STATE_PRESSED);
 980              		.loc 1 878 0
 981 06a2 2968     		ldr	r1, [r5]
 982 06a4 4FF4A022 		mov	r2, #327680
 983 06a8 8031     		adds	r1, r1, #128
 984 06aa 2046     		mov	r0, r4
 985 06ac FFF7FEFF 		bl	lv_obj_add_style
 986              	.LVL137:
 879:Drivers/lvgl/lvgl/src/extra/themes/default/lv_theme_default.c ****         lv_obj_add_style(obj, &styles->bg_color_primary, LV_PART_ITEMS | LV_STATE_FOCUS_KEY);
 987              		.loc 1 879 0
 988 06b0 2968     		ldr	r1, [r5]
 989 06b2 A14A     		ldr	r2, .L75+8
 990 06b4 5831     		adds	r1, r1, #88
 991 06b6 2046     		mov	r0, r4
 992 06b8 FFF7FEFF 		bl	lv_obj_add_style
 993              	.LVL138:
 880:Drivers/lvgl/lvgl/src/extra/themes/default/lv_theme_default.c ****         lv_obj_add_style(obj, &styles->bg_color_secondary, LV_PART_ITEMS | LV_STATE_EDITED);
 994              		.loc 1 880 0
 995 06bc 2968     		ldr	r1, [r5]
 996 06be 9F4A     		ldr	r2, .L75+12
 997 06c0 2831     		adds	r1, r1, #40
 998 06c2 2046     		mov	r0, r4
 999 06c4 FFF7FEFF 		bl	lv_obj_add_style
 1000              	.LVL139:
ARM GAS  /tmp/cc6wDDAF.s 			page 41


 881:Drivers/lvgl/lvgl/src/extra/themes/default/lv_theme_default.c ****     }
 1001              		.loc 1 881 0
 1002 06c8 2968     		ldr	r1, [r5]
 1003 06ca 9D4A     		ldr	r2, .L75+16
 1004 06cc 3831     		adds	r1, r1, #56
 1005 06ce 2046     		mov	r0, r4
 1006 06d0 FFF7FEFF 		bl	lv_obj_add_style
 1007              	.LVL140:
 1008 06d4 F3E4     		b	.L1
 1009              	.L65:
 887:Drivers/lvgl/lvgl/src/extra/themes/default/lv_theme_default.c ****         lv_obj_add_style(obj, &styles->outline_primary, LV_STATE_FOCUS_KEY);
 1010              		.loc 1 887 0
 1011 06d6 964D     		ldr	r5, .L75
 1012 06d8 2968     		ldr	r1, [r5]
 1013 06da 0022     		movs	r2, #0
 1014 06dc 8831     		adds	r1, r1, #136
 1015 06de 2046     		mov	r0, r4
 1016 06e0 FFF7FEFF 		bl	lv_obj_add_style
 1017              	.LVL141:
 888:Drivers/lvgl/lvgl/src/extra/themes/default/lv_theme_default.c ****         lv_obj_add_style(obj, &styles->disabled, LV_PART_INDICATOR | LV_STATE_DISABLED);
 1018              		.loc 1 888 0
 1019 06e4 2968     		ldr	r1, [r5]
 1020 06e6 0422     		movs	r2, #4
 1021 06e8 A031     		adds	r1, r1, #160
 1022 06ea 2046     		mov	r0, r4
 1023 06ec FFF7FEFF 		bl	lv_obj_add_style
 1024              	.LVL142:
 889:Drivers/lvgl/lvgl/src/extra/themes/default/lv_theme_default.c ****         lv_obj_add_style(obj, &styles->cb_marker, LV_PART_INDICATOR);
 1025              		.loc 1 889 0
 1026 06f0 2968     		ldr	r1, [r5]
 1027 06f2 944A     		ldr	r2, .L75+20
 1028 06f4 6031     		adds	r1, r1, #96
 1029 06f6 2046     		mov	r0, r4
 1030 06f8 FFF7FEFF 		bl	lv_obj_add_style
 1031              	.LVL143:
 890:Drivers/lvgl/lvgl/src/extra/themes/default/lv_theme_default.c ****         lv_obj_add_style(obj, &styles->bg_color_primary, LV_PART_INDICATOR | LV_STATE_CHECKED);
 1032              		.loc 1 890 0
 1033 06fc 2968     		ldr	r1, [r5]
 1034 06fe 4FF40032 		mov	r2, #131072
 1035 0702 01F59C71 		add	r1, r1, #312
 1036 0706 2046     		mov	r0, r4
 1037 0708 FFF7FEFF 		bl	lv_obj_add_style
 1038              	.LVL144:
 891:Drivers/lvgl/lvgl/src/extra/themes/default/lv_theme_default.c ****         lv_obj_add_style(obj, &styles->cb_marker_checked, LV_PART_INDICATOR | LV_STATE_CHECKED);
 1039              		.loc 1 891 0
 1040 070c 2968     		ldr	r1, [r5]
 1041 070e 8E4E     		ldr	r6, .L75+24
 1042 0710 3246     		mov	r2, r6
 1043 0712 2831     		adds	r1, r1, #40
 1044 0714 2046     		mov	r0, r4
 1045 0716 FFF7FEFF 		bl	lv_obj_add_style
 1046              	.LVL145:
 892:Drivers/lvgl/lvgl/src/extra/themes/default/lv_theme_default.c ****         lv_obj_add_style(obj, &styles->pressed, LV_PART_INDICATOR | LV_STATE_PRESSED);
 1047              		.loc 1 892 0
 1048 071a 2968     		ldr	r1, [r5]
 1049 071c 3246     		mov	r2, r6
 1050 071e 01F5A071 		add	r1, r1, #320
ARM GAS  /tmp/cc6wDDAF.s 			page 42


 1051 0722 2046     		mov	r0, r4
 1052 0724 FFF7FEFF 		bl	lv_obj_add_style
 1053              	.LVL146:
 893:Drivers/lvgl/lvgl/src/extra/themes/default/lv_theme_default.c **** #if LV_THEME_DEFAULT_GROW
 1054              		.loc 1 893 0
 1055 0728 2968     		ldr	r1, [r5]
 1056 072a 1F36     		adds	r6, r6, #31
 1057 072c 3246     		mov	r2, r6
 1058 072e 5831     		adds	r1, r1, #88
 1059 0730 2046     		mov	r0, r4
 1060 0732 FFF7FEFF 		bl	lv_obj_add_style
 1061              	.LVL147:
 895:Drivers/lvgl/lvgl/src/extra/themes/default/lv_theme_default.c **** #endif
 1062              		.loc 1 895 0
 1063 0736 2968     		ldr	r1, [r5]
 1064 0738 3246     		mov	r2, r6
 1065 073a C831     		adds	r1, r1, #200
 1066 073c 2046     		mov	r0, r4
 1067 073e FFF7FEFF 		bl	lv_obj_add_style
 1068              	.LVL148:
 897:Drivers/lvgl/lvgl/src/extra/themes/default/lv_theme_default.c ****         lv_obj_add_style(obj, &styles->transition_delayed, LV_PART_INDICATOR);
 1069              		.loc 1 897 0
 1070 0742 2968     		ldr	r1, [r5]
 1071 0744 3246     		mov	r2, r6
 1072 0746 D831     		adds	r1, r1, #216
 1073 0748 2046     		mov	r0, r4
 1074 074a FFF7FEFF 		bl	lv_obj_add_style
 1075              	.LVL149:
 898:Drivers/lvgl/lvgl/src/extra/themes/default/lv_theme_default.c ****     }
 1076              		.loc 1 898 0
 1077 074e 2968     		ldr	r1, [r5]
 1078 0750 4FF40032 		mov	r2, #131072
 1079 0754 D031     		adds	r1, r1, #208
 1080 0756 2046     		mov	r0, r4
 1081 0758 FFF7FEFF 		bl	lv_obj_add_style
 1082              	.LVL150:
 1083 075c AFE4     		b	.L1
 1084              	.L66:
 904:Drivers/lvgl/lvgl/src/extra/themes/default/lv_theme_default.c ****         lv_obj_add_style(obj, &styles->circle, 0);
 1085              		.loc 1 904 0
 1086 075e 744D     		ldr	r5, .L75
 1087 0760 2968     		ldr	r1, [r5]
 1088 0762 0022     		movs	r2, #0
 1089 0764 4831     		adds	r1, r1, #72
 1090 0766 2046     		mov	r0, r4
 1091 0768 FFF7FEFF 		bl	lv_obj_add_style
 1092              	.LVL151:
 905:Drivers/lvgl/lvgl/src/extra/themes/default/lv_theme_default.c ****         lv_obj_add_style(obj, &styles->anim_fast, 0);
 1093              		.loc 1 905 0
 1094 076c 2968     		ldr	r1, [r5]
 1095 076e 0022     		movs	r2, #0
 1096 0770 B031     		adds	r1, r1, #176
 1097 0772 2046     		mov	r0, r4
 1098 0774 FFF7FEFF 		bl	lv_obj_add_style
 1099              	.LVL152:
 906:Drivers/lvgl/lvgl/src/extra/themes/default/lv_theme_default.c ****         lv_obj_add_style(obj, &styles->disabled, LV_STATE_DISABLED);
 1100              		.loc 1 906 0
ARM GAS  /tmp/cc6wDDAF.s 			page 43


 1101 0778 2968     		ldr	r1, [r5]
 1102 077a 0022     		movs	r2, #0
 1103 077c E831     		adds	r1, r1, #232
 1104 077e 2046     		mov	r0, r4
 1105 0780 FFF7FEFF 		bl	lv_obj_add_style
 1106              	.LVL153:
 907:Drivers/lvgl/lvgl/src/extra/themes/default/lv_theme_default.c ****         lv_obj_add_style(obj, &styles->outline_primary, LV_STATE_FOCUS_KEY);
 1107              		.loc 1 907 0
 1108 0784 2968     		ldr	r1, [r5]
 1109 0786 8022     		movs	r2, #128
 1110 0788 6031     		adds	r1, r1, #96
 1111 078a 2046     		mov	r0, r4
 1112 078c FFF7FEFF 		bl	lv_obj_add_style
 1113              	.LVL154:
 908:Drivers/lvgl/lvgl/src/extra/themes/default/lv_theme_default.c ****         lv_obj_add_style(obj, &styles->bg_color_primary, LV_PART_INDICATOR | LV_STATE_CHECKED);
 1114              		.loc 1 908 0
 1115 0790 2968     		ldr	r1, [r5]
 1116 0792 0422     		movs	r2, #4
 1117 0794 A031     		adds	r1, r1, #160
 1118 0796 2046     		mov	r0, r4
 1119 0798 FFF7FEFF 		bl	lv_obj_add_style
 1120              	.LVL155:
 909:Drivers/lvgl/lvgl/src/extra/themes/default/lv_theme_default.c ****         lv_obj_add_style(obj, &styles->circle, LV_PART_INDICATOR);
 1121              		.loc 1 909 0
 1122 079c 2968     		ldr	r1, [r5]
 1123 079e 6A4E     		ldr	r6, .L75+24
 1124 07a0 3246     		mov	r2, r6
 1125 07a2 2831     		adds	r1, r1, #40
 1126 07a4 2046     		mov	r0, r4
 1127 07a6 FFF7FEFF 		bl	lv_obj_add_style
 1128              	.LVL156:
 910:Drivers/lvgl/lvgl/src/extra/themes/default/lv_theme_default.c ****         lv_obj_add_style(obj, &styles->disabled, LV_PART_INDICATOR | LV_STATE_DISABLED);
 1129              		.loc 1 910 0
 1130 07aa 2968     		ldr	r1, [r5]
 1131 07ac 4FF40032 		mov	r2, #131072
 1132 07b0 B031     		adds	r1, r1, #176
 1133 07b2 2046     		mov	r0, r4
 1134 07b4 FFF7FEFF 		bl	lv_obj_add_style
 1135              	.LVL157:
 911:Drivers/lvgl/lvgl/src/extra/themes/default/lv_theme_default.c ****         lv_obj_add_style(obj, &styles->knob, LV_PART_KNOB);
 1136              		.loc 1 911 0
 1137 07b8 2968     		ldr	r1, [r5]
 1138 07ba 624A     		ldr	r2, .L75+20
 1139 07bc 6031     		adds	r1, r1, #96
 1140 07be 2046     		mov	r0, r4
 1141 07c0 FFF7FEFF 		bl	lv_obj_add_style
 1142              	.LVL158:
 912:Drivers/lvgl/lvgl/src/extra/themes/default/lv_theme_default.c ****         lv_obj_add_style(obj, &styles->bg_color_white, LV_PART_KNOB);
 1143              		.loc 1 912 0
 1144 07c4 2968     		ldr	r1, [r5]
 1145 07c6 4FF44032 		mov	r2, #196608
 1146 07ca F031     		adds	r1, r1, #240
 1147 07cc 2046     		mov	r0, r4
 1148 07ce FFF7FEFF 		bl	lv_obj_add_style
 1149              	.LVL159:
 913:Drivers/lvgl/lvgl/src/extra/themes/default/lv_theme_default.c ****         lv_obj_add_style(obj, &styles->switch_knob, LV_PART_KNOB);
 1150              		.loc 1 913 0
ARM GAS  /tmp/cc6wDDAF.s 			page 44


 1151 07d2 2968     		ldr	r1, [r5]
 1152 07d4 4FF44032 		mov	r2, #196608
 1153 07d8 5031     		adds	r1, r1, #80
 1154 07da 2046     		mov	r0, r4
 1155 07dc FFF7FEFF 		bl	lv_obj_add_style
 1156              	.LVL160:
 914:Drivers/lvgl/lvgl/src/extra/themes/default/lv_theme_default.c ****         lv_obj_add_style(obj, &styles->disabled, LV_PART_KNOB | LV_STATE_DISABLED);
 1157              		.loc 1 914 0
 1158 07e0 2968     		ldr	r1, [r5]
 1159 07e2 4FF44032 		mov	r2, #196608
 1160 07e6 01F5A471 		add	r1, r1, #328
 1161 07ea 2046     		mov	r0, r4
 1162 07ec FFF7FEFF 		bl	lv_obj_add_style
 1163              	.LVL161:
 915:Drivers/lvgl/lvgl/src/extra/themes/default/lv_theme_default.c **** 
 1164              		.loc 1 915 0
 1165 07f0 2968     		ldr	r1, [r5]
 1166 07f2 564A     		ldr	r2, .L75+28
 1167 07f4 6031     		adds	r1, r1, #96
 1168 07f6 2046     		mov	r0, r4
 1169 07f8 FFF7FEFF 		bl	lv_obj_add_style
 1170              	.LVL162:
 917:Drivers/lvgl/lvgl/src/extra/themes/default/lv_theme_default.c ****         lv_obj_add_style(obj, &styles->transition_normal, LV_PART_INDICATOR);
 1171              		.loc 1 917 0
 1172 07fc 2968     		ldr	r1, [r5]
 1173 07fe 3246     		mov	r2, r6
 1174 0800 D831     		adds	r1, r1, #216
 1175 0802 2046     		mov	r0, r4
 1176 0804 FFF7FEFF 		bl	lv_obj_add_style
 1177              	.LVL163:
 918:Drivers/lvgl/lvgl/src/extra/themes/default/lv_theme_default.c ****     }
 1178              		.loc 1 918 0
 1179 0808 2968     		ldr	r1, [r5]
 1180 080a 4FF40032 		mov	r2, #131072
 1181 080e D831     		adds	r1, r1, #216
 1182 0810 2046     		mov	r0, r4
 1183 0812 FFF7FEFF 		bl	lv_obj_add_style
 1184              	.LVL164:
 1185 0816 52E4     		b	.L1
 1186              	.L67:
 924:Drivers/lvgl/lvgl/src/extra/themes/default/lv_theme_default.c ****         lv_obj_add_style(obj, &styles->pad_small, 0);
 1187              		.loc 1 924 0
 1188 0818 454D     		ldr	r5, .L75
 1189 081a 2968     		ldr	r1, [r5]
 1190 081c 0022     		movs	r2, #0
 1191 081e 1831     		adds	r1, r1, #24
 1192 0820 2046     		mov	r0, r4
 1193 0822 FFF7FEFF 		bl	lv_obj_add_style
 1194              	.LVL165:
 925:Drivers/lvgl/lvgl/src/extra/themes/default/lv_theme_default.c ****         lv_obj_add_style(obj, &styles->chart_bg, 0);
 1195              		.loc 1 925 0
 1196 0826 2968     		ldr	r1, [r5]
 1197 0828 0022     		movs	r2, #0
 1198 082a 7831     		adds	r1, r1, #120
 1199 082c 2046     		mov	r0, r4
 1200 082e FFF7FEFF 		bl	lv_obj_add_style
 1201              	.LVL166:
ARM GAS  /tmp/cc6wDDAF.s 			page 45


 926:Drivers/lvgl/lvgl/src/extra/themes/default/lv_theme_default.c ****         lv_obj_add_style(obj, &styles->scrollbar, LV_PART_SCROLLBAR);
 1202              		.loc 1 926 0
 1203 0832 2968     		ldr	r1, [r5]
 1204 0834 0022     		movs	r2, #0
 1205 0836 01F59471 		add	r1, r1, #296
 1206 083a 2046     		mov	r0, r4
 1207 083c FFF7FEFF 		bl	lv_obj_add_style
 1208              	.LVL167:
 927:Drivers/lvgl/lvgl/src/extra/themes/default/lv_theme_default.c ****         lv_obj_add_style(obj, &styles->scrollbar_scrolled, LV_PART_SCROLLBAR | LV_STATE_SCROLLED);
 1209              		.loc 1 927 0
 1210 0840 2968     		ldr	r1, [r5]
 1211 0842 4FF48032 		mov	r2, #65536
 1212 0846 0831     		adds	r1, r1, #8
 1213 0848 2046     		mov	r0, r4
 1214 084a FFF7FEFF 		bl	lv_obj_add_style
 1215              	.LVL168:
 928:Drivers/lvgl/lvgl/src/extra/themes/default/lv_theme_default.c ****         lv_obj_add_style(obj, &styles->chart_series, LV_PART_ITEMS);
 1216              		.loc 1 928 0
 1217 084e 2968     		ldr	r1, [r5]
 1218 0850 384A     		ldr	r2, .L75+4
 1219 0852 1031     		adds	r1, r1, #16
 1220 0854 2046     		mov	r0, r4
 1221 0856 FFF7FEFF 		bl	lv_obj_add_style
 1222              	.LVL169:
 929:Drivers/lvgl/lvgl/src/extra/themes/default/lv_theme_default.c ****         lv_obj_add_style(obj, &styles->chart_indic, LV_PART_INDICATOR);
 1223              		.loc 1 929 0
 1224 085a 2968     		ldr	r1, [r5]
 1225 085c 4FF4A022 		mov	r2, #327680
 1226 0860 01F58871 		add	r1, r1, #272
 1227 0864 2046     		mov	r0, r4
 1228 0866 FFF7FEFF 		bl	lv_obj_add_style
 1229              	.LVL170:
 930:Drivers/lvgl/lvgl/src/extra/themes/default/lv_theme_default.c ****         lv_obj_add_style(obj, &styles->chart_ticks, LV_PART_TICKS);
 1230              		.loc 1 930 0
 1231 086a 2968     		ldr	r1, [r5]
 1232 086c 4FF40032 		mov	r2, #131072
 1233 0870 01F58C71 		add	r1, r1, #280
 1234 0874 2046     		mov	r0, r4
 1235 0876 FFF7FEFF 		bl	lv_obj_add_style
 1236              	.LVL171:
 931:Drivers/lvgl/lvgl/src/extra/themes/default/lv_theme_default.c ****         lv_obj_add_style(obj, &styles->chart_series, LV_PART_CURSOR);
 1237              		.loc 1 931 0
 1238 087a 2968     		ldr	r1, [r5]
 1239 087c 4FF4C022 		mov	r2, #393216
 1240 0880 01F59071 		add	r1, r1, #288
 1241 0884 2046     		mov	r0, r4
 1242 0886 FFF7FEFF 		bl	lv_obj_add_style
 1243              	.LVL172:
 932:Drivers/lvgl/lvgl/src/extra/themes/default/lv_theme_default.c ****     }
 1244              		.loc 1 932 0
 1245 088a 2968     		ldr	r1, [r5]
 1246 088c 4FF4E022 		mov	r2, #458752
 1247 0890 01F58871 		add	r1, r1, #272
 1248 0894 2046     		mov	r0, r4
 1249 0896 FFF7FEFF 		bl	lv_obj_add_style
 1250              	.LVL173:
 1251 089a 10E4     		b	.L1
ARM GAS  /tmp/cc6wDDAF.s 			page 46


 1252              	.L21:
 949:Drivers/lvgl/lvgl/src/extra/themes/default/lv_theme_default.c ****         lv_obj_add_style(obj, &styles->card, 0);
 1253              		.loc 1 949 0
 1254 089c 2C49     		ldr	r1, .L75+32
 1255 089e 2046     		mov	r0, r4
 1256 08a0 FFF7FEFF 		bl	lv_obj_check_type
 1257              	.LVL174:
 1258 08a4 0028     		cmp	r0, #0
 1259 08a6 5BD1     		bne	.L68
 959:Drivers/lvgl/lvgl/src/extra/themes/default/lv_theme_default.c ****         lv_obj_add_style(obj, &styles->card, 0);
 1260              		.loc 1 959 0
 1261 08a8 2A49     		ldr	r1, .L75+36
 1262 08aa 2046     		mov	r0, r4
 1263 08ac FFF7FEFF 		bl	lv_obj_check_type
 1264              	.LVL175:
 1265 08b0 0028     		cmp	r0, #0
 1266 08b2 00F08980 		beq	.L23
 960:Drivers/lvgl/lvgl/src/extra/themes/default/lv_theme_default.c ****         lv_obj_add_style(obj, &styles->clip_corner, 0);
 1267              		.loc 1 960 0
 1268 08b6 1E4D     		ldr	r5, .L75
 1269 08b8 2968     		ldr	r1, [r5]
 1270 08ba 0022     		movs	r2, #0
 1271 08bc 1831     		adds	r1, r1, #24
 1272 08be 2046     		mov	r0, r4
 1273 08c0 FFF7FEFF 		bl	lv_obj_add_style
 1274              	.LVL176:
 961:Drivers/lvgl/lvgl/src/extra/themes/default/lv_theme_default.c ****         lv_obj_add_style(obj, &styles->line_space_large, 0);
 1275              		.loc 1 961 0
 1276 08c4 2968     		ldr	r1, [r5]
 1277 08c6 0022     		movs	r2, #0
 1278 08c8 C031     		adds	r1, r1, #192
 1279 08ca 2046     		mov	r0, r4
 1280 08cc FFF7FEFF 		bl	lv_obj_add_style
 1281              	.LVL177:
 962:Drivers/lvgl/lvgl/src/extra/themes/default/lv_theme_default.c ****         lv_obj_add_style(obj, &styles->dropdown_list, 0);
 1282              		.loc 1 962 0
 1283 08d0 2968     		ldr	r1, [r5]
 1284 08d2 0022     		movs	r2, #0
 1285 08d4 9031     		adds	r1, r1, #144
 1286 08d6 2046     		mov	r0, r4
 1287 08d8 FFF7FEFF 		bl	lv_obj_add_style
 1288              	.LVL178:
 963:Drivers/lvgl/lvgl/src/extra/themes/default/lv_theme_default.c ****         lv_obj_add_style(obj, &styles->scrollbar, LV_PART_SCROLLBAR);
 1289              		.loc 1 963 0
 1290 08dc 2968     		ldr	r1, [r5]
 1291 08de 0022     		movs	r2, #0
 1292 08e0 01F59871 		add	r1, r1, #304
 1293 08e4 2046     		mov	r0, r4
 1294 08e6 FFF7FEFF 		bl	lv_obj_add_style
 1295              	.LVL179:
 964:Drivers/lvgl/lvgl/src/extra/themes/default/lv_theme_default.c ****         lv_obj_add_style(obj, &styles->scrollbar_scrolled, LV_PART_SCROLLBAR | LV_STATE_SCROLLED);
 1296              		.loc 1 964 0
 1297 08ea 2968     		ldr	r1, [r5]
 1298 08ec 4FF48032 		mov	r2, #65536
 1299 08f0 0831     		adds	r1, r1, #8
 1300 08f2 2046     		mov	r0, r4
 1301 08f4 FFF7FEFF 		bl	lv_obj_add_style
ARM GAS  /tmp/cc6wDDAF.s 			page 47


 1302              	.LVL180:
 965:Drivers/lvgl/lvgl/src/extra/themes/default/lv_theme_default.c ****         lv_obj_add_style(obj, &styles->bg_color_white, LV_PART_SELECTED);
 1303              		.loc 1 965 0
 1304 08f8 2968     		ldr	r1, [r5]
 1305 08fa 0E4A     		ldr	r2, .L75+4
 1306 08fc 1031     		adds	r1, r1, #16
 1307 08fe 2046     		mov	r0, r4
 1308 0900 FFF7FEFF 		bl	lv_obj_add_style
 1309              	.LVL181:
 966:Drivers/lvgl/lvgl/src/extra/themes/default/lv_theme_default.c ****         lv_obj_add_style(obj, &styles->bg_color_primary, LV_PART_SELECTED | LV_STATE_CHECKED);
 1310              		.loc 1 966 0
 1311 0904 2968     		ldr	r1, [r5]
 1312 0906 4FF48022 		mov	r2, #262144
 1313 090a 5031     		adds	r1, r1, #80
 1314 090c 2046     		mov	r0, r4
 1315 090e FFF7FEFF 		bl	lv_obj_add_style
 1316              	.LVL182:
 967:Drivers/lvgl/lvgl/src/extra/themes/default/lv_theme_default.c ****         lv_obj_add_style(obj, &styles->pressed, LV_PART_SELECTED | LV_STATE_PRESSED);
 1317              		.loc 1 967 0
 1318 0912 2968     		ldr	r1, [r5]
 1319 0914 104A     		ldr	r2, .L75+40
 1320 0916 2831     		adds	r1, r1, #40
 1321 0918 2046     		mov	r0, r4
 1322 091a FFF7FEFF 		bl	lv_obj_add_style
 1323              	.LVL183:
 968:Drivers/lvgl/lvgl/src/extra/themes/default/lv_theme_default.c ****     }
 1324              		.loc 1 968 0
 1325 091e 2968     		ldr	r1, [r5]
 1326 0920 0E4A     		ldr	r2, .L75+44
 1327 0922 5831     		adds	r1, r1, #88
 1328 0924 2046     		mov	r0, r4
 1329 0926 FFF7FEFF 		bl	lv_obj_add_style
 1330              	.LVL184:
 1331 092a FFF7C8BB 		b	.L1
 1332              	.L76:
 1333 092e 00BF     		.align	2
 1334              	.L75:
 1335 0930 00000000 		.word	.LANCHOR0
 1336 0934 40000100 		.word	65600
 1337 0938 20000500 		.word	327712
 1338 093c 04000500 		.word	327684
 1339 0940 08000500 		.word	327688
 1340 0944 80000200 		.word	131200
 1341 0948 01000200 		.word	131073
 1342 094c 80000300 		.word	196736
 1343 0950 00000000 		.word	lv_dropdown_class
 1344 0954 00000000 		.word	lv_dropdownlist_class
 1345 0958 01000400 		.word	262145
 1346 095c 20000400 		.word	262176
 1347              	.L68:
 950:Drivers/lvgl/lvgl/src/extra/themes/default/lv_theme_default.c ****         lv_obj_add_style(obj, &styles->pad_small, 0);
 1348              		.loc 1 950 0
 1349 0960 C64D     		ldr	r5, .L77
 1350 0962 2968     		ldr	r1, [r5]
 1351 0964 0022     		movs	r2, #0
 1352 0966 1831     		adds	r1, r1, #24
 1353 0968 2046     		mov	r0, r4
ARM GAS  /tmp/cc6wDDAF.s 			page 48


 1354 096a FFF7FEFF 		bl	lv_obj_add_style
 1355              	.LVL185:
 951:Drivers/lvgl/lvgl/src/extra/themes/default/lv_theme_default.c ****         lv_obj_add_style(obj, &styles->transition_delayed, 0);
 1356              		.loc 1 951 0
 1357 096e 2968     		ldr	r1, [r5]
 1358 0970 0022     		movs	r2, #0
 1359 0972 7831     		adds	r1, r1, #120
 1360 0974 2046     		mov	r0, r4
 1361 0976 FFF7FEFF 		bl	lv_obj_add_style
 1362              	.LVL186:
 952:Drivers/lvgl/lvgl/src/extra/themes/default/lv_theme_default.c ****         lv_obj_add_style(obj, &styles->transition_normal, LV_STATE_PRESSED);
 1363              		.loc 1 952 0
 1364 097a 2968     		ldr	r1, [r5]
 1365 097c 0022     		movs	r2, #0
 1366 097e D031     		adds	r1, r1, #208
 1367 0980 2046     		mov	r0, r4
 1368 0982 FFF7FEFF 		bl	lv_obj_add_style
 1369              	.LVL187:
 953:Drivers/lvgl/lvgl/src/extra/themes/default/lv_theme_default.c ****         lv_obj_add_style(obj, &styles->pressed, LV_STATE_PRESSED);
 1370              		.loc 1 953 0
 1371 0986 2968     		ldr	r1, [r5]
 1372 0988 2022     		movs	r2, #32
 1373 098a D831     		adds	r1, r1, #216
 1374 098c 2046     		mov	r0, r4
 1375 098e FFF7FEFF 		bl	lv_obj_add_style
 1376              	.LVL188:
 954:Drivers/lvgl/lvgl/src/extra/themes/default/lv_theme_default.c ****         lv_obj_add_style(obj, &styles->outline_primary, LV_STATE_FOCUS_KEY);
 1377              		.loc 1 954 0
 1378 0992 2968     		ldr	r1, [r5]
 1379 0994 2022     		movs	r2, #32
 1380 0996 5831     		adds	r1, r1, #88
 1381 0998 2046     		mov	r0, r4
 1382 099a FFF7FEFF 		bl	lv_obj_add_style
 1383              	.LVL189:
 955:Drivers/lvgl/lvgl/src/extra/themes/default/lv_theme_default.c ****         lv_obj_add_style(obj, &styles->outline_secondary, LV_STATE_EDITED);
 1384              		.loc 1 955 0
 1385 099e 2968     		ldr	r1, [r5]
 1386 09a0 0422     		movs	r2, #4
 1387 09a2 A031     		adds	r1, r1, #160
 1388 09a4 2046     		mov	r0, r4
 1389 09a6 FFF7FEFF 		bl	lv_obj_add_style
 1390              	.LVL190:
 956:Drivers/lvgl/lvgl/src/extra/themes/default/lv_theme_default.c ****         lv_obj_add_style(obj, &styles->transition_normal, LV_PART_INDICATOR);
 1391              		.loc 1 956 0
 1392 09aa 2968     		ldr	r1, [r5]
 1393 09ac 0822     		movs	r2, #8
 1394 09ae A831     		adds	r1, r1, #168
 1395 09b0 2046     		mov	r0, r4
 1396 09b2 FFF7FEFF 		bl	lv_obj_add_style
 1397              	.LVL191:
 957:Drivers/lvgl/lvgl/src/extra/themes/default/lv_theme_default.c ****     }
 1398              		.loc 1 957 0
 1399 09b6 2968     		ldr	r1, [r5]
 1400 09b8 4FF40032 		mov	r2, #131072
 1401 09bc D831     		adds	r1, r1, #216
 1402 09be 2046     		mov	r0, r4
 1403 09c0 FFF7FEFF 		bl	lv_obj_add_style
ARM GAS  /tmp/cc6wDDAF.s 			page 49


 1404              	.LVL192:
 1405 09c4 FFF77BBB 		b	.L1
 1406              	.L23:
 973:Drivers/lvgl/lvgl/src/extra/themes/default/lv_theme_default.c ****         lv_obj_add_style(obj, &styles->arc_indic, 0);
 1407              		.loc 1 973 0
 1408 09c8 AD49     		ldr	r1, .L77+4
 1409 09ca 2046     		mov	r0, r4
 1410 09cc FFF7FEFF 		bl	lv_obj_check_type
 1411              	.LVL193:
 1412 09d0 00B3     		cbz	r0, .L24
 974:Drivers/lvgl/lvgl/src/extra/themes/default/lv_theme_default.c ****         lv_obj_add_style(obj, &styles->arc_indic, LV_PART_INDICATOR);
 1413              		.loc 1 974 0
 1414 09d2 AA4D     		ldr	r5, .L77
 1415 09d4 2968     		ldr	r1, [r5]
 1416 09d6 0022     		movs	r2, #0
 1417 09d8 01F58071 		add	r1, r1, #256
 1418 09dc 2046     		mov	r0, r4
 1419 09de FFF7FEFF 		bl	lv_obj_add_style
 1420              	.LVL194:
 975:Drivers/lvgl/lvgl/src/extra/themes/default/lv_theme_default.c ****         lv_obj_add_style(obj, &styles->arc_indic_primary, LV_PART_INDICATOR);
 1421              		.loc 1 975 0
 1422 09e2 2968     		ldr	r1, [r5]
 1423 09e4 4FF40032 		mov	r2, #131072
 1424 09e8 01F58071 		add	r1, r1, #256
 1425 09ec 2046     		mov	r0, r4
 1426 09ee FFF7FEFF 		bl	lv_obj_add_style
 1427              	.LVL195:
 976:Drivers/lvgl/lvgl/src/extra/themes/default/lv_theme_default.c ****         lv_obj_add_style(obj, &styles->knob, LV_PART_KNOB);
 1428              		.loc 1 976 0
 1429 09f2 2968     		ldr	r1, [r5]
 1430 09f4 4FF40032 		mov	r2, #131072
 1431 09f8 01F58471 		add	r1, r1, #264
 1432 09fc 2046     		mov	r0, r4
 1433 09fe FFF7FEFF 		bl	lv_obj_add_style
 1434              	.LVL196:
 977:Drivers/lvgl/lvgl/src/extra/themes/default/lv_theme_default.c ****     }
 1435              		.loc 1 977 0
 1436 0a02 2968     		ldr	r1, [r5]
 1437 0a04 4FF44032 		mov	r2, #196608
 1438 0a08 F031     		adds	r1, r1, #240
 1439 0a0a 2046     		mov	r0, r4
 1440 0a0c FFF7FEFF 		bl	lv_obj_add_style
 1441              	.LVL197:
 1442 0a10 FFF755BB 		b	.L1
 1443              	.L24:
 983:Drivers/lvgl/lvgl/src/extra/themes/default/lv_theme_default.c ****         lv_obj_add_style(obj, &styles->arc_indic, 0);
 1444              		.loc 1 983 0
 1445 0a14 9B49     		ldr	r1, .L77+8
 1446 0a16 2046     		mov	r0, r4
 1447 0a18 FFF7FEFF 		bl	lv_obj_check_type
 1448              	.LVL198:
 1449 0a1c 0028     		cmp	r0, #0
 1450 0a1e 48D1     		bne	.L69
 991:Drivers/lvgl/lvgl/src/extra/themes/default/lv_theme_default.c ****         lv_obj_add_style(obj, &styles->card, 0);
 1451              		.loc 1 991 0
 1452 0a20 9949     		ldr	r1, .L77+12
 1453 0a22 2046     		mov	r0, r4
ARM GAS  /tmp/cc6wDDAF.s 			page 50


 1454 0a24 FFF7FEFF 		bl	lv_obj_check_type
 1455              	.LVL199:
 1456 0a28 0028     		cmp	r0, #0
 1457 0a2a 5CD1     		bne	.L70
 999:Drivers/lvgl/lvgl/src/extra/themes/default/lv_theme_default.c ****         lv_obj_add_style(obj, &styles->card, 0);
 1458              		.loc 1 999 0
 1459 0a2c 9749     		ldr	r1, .L77+16
 1460 0a2e 2046     		mov	r0, r4
 1461 0a30 FFF7FEFF 		bl	lv_obj_check_type
 1462              	.LVL200:
 1463 0a34 0028     		cmp	r0, #0
 1464 0a36 6DD0     		beq	.L27
1000:Drivers/lvgl/lvgl/src/extra/themes/default/lv_theme_default.c ****         lv_obj_add_style(obj, &styles->pad_small, 0);
 1465              		.loc 1 1000 0
 1466 0a38 904D     		ldr	r5, .L77
 1467 0a3a 2968     		ldr	r1, [r5]
 1468 0a3c 0022     		movs	r2, #0
 1469 0a3e 1831     		adds	r1, r1, #24
 1470 0a40 2046     		mov	r0, r4
 1471 0a42 FFF7FEFF 		bl	lv_obj_add_style
 1472              	.LVL201:
1001:Drivers/lvgl/lvgl/src/extra/themes/default/lv_theme_default.c ****         lv_obj_add_style(obj, &styles->disabled, LV_STATE_DISABLED);
 1473              		.loc 1 1001 0
 1474 0a46 2968     		ldr	r1, [r5]
 1475 0a48 0022     		movs	r2, #0
 1476 0a4a 7831     		adds	r1, r1, #120
 1477 0a4c 2046     		mov	r0, r4
 1478 0a4e FFF7FEFF 		bl	lv_obj_add_style
 1479              	.LVL202:
1002:Drivers/lvgl/lvgl/src/extra/themes/default/lv_theme_default.c ****         lv_obj_add_style(obj, &styles->outline_primary, LV_STATE_FOCUS_KEY);
 1480              		.loc 1 1002 0
 1481 0a52 2968     		ldr	r1, [r5]
 1482 0a54 8022     		movs	r2, #128
 1483 0a56 6031     		adds	r1, r1, #96
 1484 0a58 2046     		mov	r0, r4
 1485 0a5a FFF7FEFF 		bl	lv_obj_add_style
 1486              	.LVL203:
1003:Drivers/lvgl/lvgl/src/extra/themes/default/lv_theme_default.c ****         lv_obj_add_style(obj, &styles->outline_secondary, LV_STATE_EDITED);
 1487              		.loc 1 1003 0
 1488 0a5e 2968     		ldr	r1, [r5]
 1489 0a60 0422     		movs	r2, #4
 1490 0a62 A031     		adds	r1, r1, #160
 1491 0a64 2046     		mov	r0, r4
 1492 0a66 FFF7FEFF 		bl	lv_obj_add_style
 1493              	.LVL204:
1004:Drivers/lvgl/lvgl/src/extra/themes/default/lv_theme_default.c ****         lv_obj_add_style(obj, &styles->scrollbar, LV_PART_SCROLLBAR);
 1494              		.loc 1 1004 0
 1495 0a6a 2968     		ldr	r1, [r5]
 1496 0a6c 0822     		movs	r2, #8
 1497 0a6e A831     		adds	r1, r1, #168
 1498 0a70 2046     		mov	r0, r4
 1499 0a72 FFF7FEFF 		bl	lv_obj_add_style
 1500              	.LVL205:
1005:Drivers/lvgl/lvgl/src/extra/themes/default/lv_theme_default.c ****         lv_obj_add_style(obj, &styles->scrollbar_scrolled, LV_PART_SCROLLBAR | LV_STATE_SCROLLED);
 1501              		.loc 1 1005 0
 1502 0a76 2968     		ldr	r1, [r5]
 1503 0a78 4FF48032 		mov	r2, #65536
ARM GAS  /tmp/cc6wDDAF.s 			page 51


 1504 0a7c 0831     		adds	r1, r1, #8
 1505 0a7e 2046     		mov	r0, r4
 1506 0a80 FFF7FEFF 		bl	lv_obj_add_style
 1507              	.LVL206:
1006:Drivers/lvgl/lvgl/src/extra/themes/default/lv_theme_default.c ****         lv_obj_add_style(obj, &styles->ta_cursor, LV_PART_CURSOR | LV_STATE_FOCUSED);
 1508              		.loc 1 1006 0
 1509 0a84 2968     		ldr	r1, [r5]
 1510 0a86 824A     		ldr	r2, .L77+20
 1511 0a88 1031     		adds	r1, r1, #16
 1512 0a8a 2046     		mov	r0, r4
 1513 0a8c FFF7FEFF 		bl	lv_obj_add_style
 1514              	.LVL207:
1007:Drivers/lvgl/lvgl/src/extra/themes/default/lv_theme_default.c ****         lv_obj_add_style(obj, &styles->ta_placeholder, LV_PART_TEXTAREA_PLACEHOLDER);
 1515              		.loc 1 1007 0
 1516 0a90 2968     		ldr	r1, [r5]
 1517 0a92 804A     		ldr	r2, .L77+24
 1518 0a94 01F5B871 		add	r1, r1, #368
 1519 0a98 2046     		mov	r0, r4
 1520 0a9a FFF7FEFF 		bl	lv_obj_add_style
 1521              	.LVL208:
1008:Drivers/lvgl/lvgl/src/extra/themes/default/lv_theme_default.c ****     }
 1522              		.loc 1 1008 0
 1523 0a9e 2968     		ldr	r1, [r5]
 1524 0aa0 4FF40022 		mov	r2, #524288
 1525 0aa4 01F5BC71 		add	r1, r1, #376
 1526 0aa8 2046     		mov	r0, r4
 1527 0aaa FFF7FEFF 		bl	lv_obj_add_style
 1528              	.LVL209:
 1529 0aae FFF706BB 		b	.L1
 1530              	.L69:
 984:Drivers/lvgl/lvgl/src/extra/themes/default/lv_theme_default.c ****         lv_obj_add_style(obj, &styles->arc_indic, LV_PART_INDICATOR);
 1531              		.loc 1 984 0
 1532 0ab2 724D     		ldr	r5, .L77
 1533 0ab4 2968     		ldr	r1, [r5]
 1534 0ab6 0022     		movs	r2, #0
 1535 0ab8 01F58071 		add	r1, r1, #256
 1536 0abc 2046     		mov	r0, r4
 1537 0abe FFF7FEFF 		bl	lv_obj_add_style
 1538              	.LVL210:
 985:Drivers/lvgl/lvgl/src/extra/themes/default/lv_theme_default.c ****         lv_obj_add_style(obj, &styles->arc_indic_primary, LV_PART_INDICATOR);
 1539              		.loc 1 985 0
 1540 0ac2 2968     		ldr	r1, [r5]
 1541 0ac4 4FF40032 		mov	r2, #131072
 1542 0ac8 01F58071 		add	r1, r1, #256
 1543 0acc 2046     		mov	r0, r4
 1544 0ace FFF7FEFF 		bl	lv_obj_add_style
 1545              	.LVL211:
 986:Drivers/lvgl/lvgl/src/extra/themes/default/lv_theme_default.c ****     }
 1546              		.loc 1 986 0
 1547 0ad2 2968     		ldr	r1, [r5]
 1548 0ad4 4FF40032 		mov	r2, #131072
 1549 0ad8 01F58471 		add	r1, r1, #264
 1550 0adc 2046     		mov	r0, r4
 1551 0ade FFF7FEFF 		bl	lv_obj_add_style
 1552              	.LVL212:
 1553 0ae2 FFF7ECBA 		b	.L1
 1554              	.L70:
ARM GAS  /tmp/cc6wDDAF.s 			page 52


 992:Drivers/lvgl/lvgl/src/extra/themes/default/lv_theme_default.c ****         lv_obj_add_style(obj, &styles->circle, 0);
 1555              		.loc 1 992 0
 1556 0ae6 654D     		ldr	r5, .L77
 1557 0ae8 2968     		ldr	r1, [r5]
 1558 0aea 0022     		movs	r2, #0
 1559 0aec 1831     		adds	r1, r1, #24
 1560 0aee 2046     		mov	r0, r4
 1561 0af0 FFF7FEFF 		bl	lv_obj_add_style
 1562              	.LVL213:
 993:Drivers/lvgl/lvgl/src/extra/themes/default/lv_theme_default.c ****         lv_obj_add_style(obj, &styles->meter_indic, LV_PART_INDICATOR);
 1563              		.loc 1 993 0
 1564 0af4 2968     		ldr	r1, [r5]
 1565 0af6 0022     		movs	r2, #0
 1566 0af8 B031     		adds	r1, r1, #176
 1567 0afa 2046     		mov	r0, r4
 1568 0afc FFF7FEFF 		bl	lv_obj_add_style
 1569              	.LVL214:
 994:Drivers/lvgl/lvgl/src/extra/themes/default/lv_theme_default.c ****     }
 1570              		.loc 1 994 0
 1571 0b00 2968     		ldr	r1, [r5]
 1572 0b02 4FF40032 		mov	r2, #131072
 1573 0b06 01F5B471 		add	r1, r1, #360
 1574 0b0a 2046     		mov	r0, r4
 1575 0b0c FFF7FEFF 		bl	lv_obj_add_style
 1576              	.LVL215:
 1577 0b10 FFF7D5BA 		b	.L1
 1578              	.L27:
1013:Drivers/lvgl/lvgl/src/extra/themes/default/lv_theme_default.c ****         lv_obj_add_style(obj, &styles->card, 0);
 1579              		.loc 1 1013 0
 1580 0b14 6049     		ldr	r1, .L77+28
 1581 0b16 2046     		mov	r0, r4
 1582 0b18 FFF7FEFF 		bl	lv_obj_check_type
 1583              	.LVL216:
 1584 0b1c 70B1     		cbz	r0, .L28
1014:Drivers/lvgl/lvgl/src/extra/themes/default/lv_theme_default.c ****         lv_obj_add_style(obj, &styles->pad_zero, 0);
 1585              		.loc 1 1014 0
 1586 0b1e 574D     		ldr	r5, .L77
 1587 0b20 2968     		ldr	r1, [r5]
 1588 0b22 0022     		movs	r2, #0
 1589 0b24 1831     		adds	r1, r1, #24
 1590 0b26 2046     		mov	r0, r4
 1591 0b28 FFF7FEFF 		bl	lv_obj_add_style
 1592              	.LVL217:
1015:Drivers/lvgl/lvgl/src/extra/themes/default/lv_theme_default.c ****     }
 1593              		.loc 1 1015 0
 1594 0b2c 2968     		ldr	r1, [r5]
 1595 0b2e 0022     		movs	r2, #0
 1596 0b30 6831     		adds	r1, r1, #104
 1597 0b32 2046     		mov	r0, r4
 1598 0b34 FFF7FEFF 		bl	lv_obj_add_style
 1599              	.LVL218:
 1600 0b38 FFF7C1BA 		b	.L1
 1601              	.L28:
1020:Drivers/lvgl/lvgl/src/extra/themes/default/lv_theme_default.c ****         lv_obj_add_style(obj, &styles->calendar_header, 0);
 1602              		.loc 1 1020 0
 1603 0b3c 5749     		ldr	r1, .L77+32
 1604 0b3e 2046     		mov	r0, r4
ARM GAS  /tmp/cc6wDDAF.s 			page 53


 1605 0b40 FFF7FEFF 		bl	lv_obj_check_type
 1606              	.LVL219:
 1607 0b44 48B1     		cbz	r0, .L29
1021:Drivers/lvgl/lvgl/src/extra/themes/default/lv_theme_default.c ****     }
 1608              		.loc 1 1021 0
 1609 0b46 4D4B     		ldr	r3, .L77
 1610 0b48 1968     		ldr	r1, [r3]
 1611 0b4a 0022     		movs	r2, #0
 1612 0b4c 01F5C871 		add	r1, r1, #400
 1613 0b50 2046     		mov	r0, r4
 1614 0b52 FFF7FEFF 		bl	lv_obj_add_style
 1615              	.LVL220:
 1616 0b56 FFF7B2BA 		b	.L1
 1617              	.L29:
1026:Drivers/lvgl/lvgl/src/extra/themes/default/lv_theme_default.c ****         lv_obj_add_style(obj, &styles->calendar_header, 0);
 1618              		.loc 1 1026 0
 1619 0b5a 5149     		ldr	r1, .L77+36
 1620 0b5c 2046     		mov	r0, r4
 1621 0b5e FFF7FEFF 		bl	lv_obj_check_type
 1622              	.LVL221:
 1623 0b62 48B1     		cbz	r0, .L30
1027:Drivers/lvgl/lvgl/src/extra/themes/default/lv_theme_default.c ****     }
 1624              		.loc 1 1027 0
 1625 0b64 454B     		ldr	r3, .L77
 1626 0b66 1968     		ldr	r1, [r3]
 1627 0b68 0022     		movs	r2, #0
 1628 0b6a 01F5C871 		add	r1, r1, #400
 1629 0b6e 2046     		mov	r0, r4
 1630 0b70 FFF7FEFF 		bl	lv_obj_add_style
 1631              	.LVL222:
 1632 0b74 FFF7A3BA 		b	.L1
 1633              	.L30:
1032:Drivers/lvgl/lvgl/src/extra/themes/default/lv_theme_default.c ****         lv_obj_add_style(obj, &styles->scr, 0);
 1634              		.loc 1 1032 0
 1635 0b78 4A49     		ldr	r1, .L77+40
 1636 0b7a 2046     		mov	r0, r4
 1637 0b7c FFF7FEFF 		bl	lv_obj_check_type
 1638              	.LVL223:
 1639 0b80 0028     		cmp	r0, #0
 1640 0b82 57D0     		beq	.L31
1033:Drivers/lvgl/lvgl/src/extra/themes/default/lv_theme_default.c ****         lv_obj_add_style(obj, disp_size == DISP_LARGE ? &styles->pad_small : &styles->pad_tiny, 0);
 1641              		.loc 1 1033 0
 1642 0b84 0022     		movs	r2, #0
 1643 0b86 3D4B     		ldr	r3, .L77
 1644 0b88 1968     		ldr	r1, [r3]
 1645 0b8a 2046     		mov	r0, r4
 1646 0b8c FFF7FEFF 		bl	lv_obj_add_style
 1647              	.LVL224:
1034:Drivers/lvgl/lvgl/src/extra/themes/default/lv_theme_default.c ****         lv_obj_add_style(obj, &styles->outline_primary, LV_STATE_FOCUS_KEY);
 1648              		.loc 1 1034 0
 1649 0b90 454B     		ldr	r3, .L77+44
 1650 0b92 1B78     		ldrb	r3, [r3]	@ zero_extendqisi2
 1651 0b94 012B     		cmp	r3, #1
 1652 0b96 49D1     		bne	.L32
1034:Drivers/lvgl/lvgl/src/extra/themes/default/lv_theme_default.c ****         lv_obj_add_style(obj, &styles->outline_primary, LV_STATE_FOCUS_KEY);
 1653              		.loc 1 1034 0 is_stmt 0 discriminator 1
 1654 0b98 384B     		ldr	r3, .L77
ARM GAS  /tmp/cc6wDDAF.s 			page 54


 1655 0b9a 1968     		ldr	r1, [r3]
 1656 0b9c 7831     		adds	r1, r1, #120
 1657              	.L33:
1034:Drivers/lvgl/lvgl/src/extra/themes/default/lv_theme_default.c ****         lv_obj_add_style(obj, &styles->outline_primary, LV_STATE_FOCUS_KEY);
 1658              		.loc 1 1034 0 discriminator 4
 1659 0b9e 0022     		movs	r2, #0
 1660 0ba0 2046     		mov	r0, r4
 1661 0ba2 FFF7FEFF 		bl	lv_obj_add_style
 1662              	.LVL225:
1035:Drivers/lvgl/lvgl/src/extra/themes/default/lv_theme_default.c ****         lv_obj_add_style(obj, &styles->outline_secondary, LV_STATE_EDITED);
 1663              		.loc 1 1035 0 is_stmt 1 discriminator 4
 1664 0ba6 354D     		ldr	r5, .L77
 1665 0ba8 2968     		ldr	r1, [r5]
 1666 0baa 0422     		movs	r2, #4
 1667 0bac A031     		adds	r1, r1, #160
 1668 0bae 2046     		mov	r0, r4
 1669 0bb0 FFF7FEFF 		bl	lv_obj_add_style
 1670              	.LVL226:
1036:Drivers/lvgl/lvgl/src/extra/themes/default/lv_theme_default.c ****         lv_obj_add_style(obj, &styles->btn, LV_PART_ITEMS);
 1671              		.loc 1 1036 0 discriminator 4
 1672 0bb4 2968     		ldr	r1, [r5]
 1673 0bb6 0822     		movs	r2, #8
 1674 0bb8 A831     		adds	r1, r1, #168
 1675 0bba 2046     		mov	r0, r4
 1676 0bbc FFF7FEFF 		bl	lv_obj_add_style
 1677              	.LVL227:
1037:Drivers/lvgl/lvgl/src/extra/themes/default/lv_theme_default.c ****         lv_obj_add_style(obj, &styles->disabled, LV_PART_ITEMS | LV_STATE_DISABLED);
 1678              		.loc 1 1037 0 discriminator 4
 1679 0bc0 2968     		ldr	r1, [r5]
 1680 0bc2 4FF4A022 		mov	r2, #327680
 1681 0bc6 2031     		adds	r1, r1, #32
 1682 0bc8 2046     		mov	r0, r4
 1683 0bca FFF7FEFF 		bl	lv_obj_add_style
 1684              	.LVL228:
1038:Drivers/lvgl/lvgl/src/extra/themes/default/lv_theme_default.c ****         lv_obj_add_style(obj, &styles->bg_color_white, LV_PART_ITEMS);
 1685              		.loc 1 1038 0 discriminator 4
 1686 0bce 2968     		ldr	r1, [r5]
 1687 0bd0 364A     		ldr	r2, .L77+48
 1688 0bd2 6031     		adds	r1, r1, #96
 1689 0bd4 2046     		mov	r0, r4
 1690 0bd6 FFF7FEFF 		bl	lv_obj_add_style
 1691              	.LVL229:
1039:Drivers/lvgl/lvgl/src/extra/themes/default/lv_theme_default.c ****         lv_obj_add_style(obj, &styles->keyboard_btn_bg, LV_PART_ITEMS);
 1692              		.loc 1 1039 0 discriminator 4
 1693 0bda 2968     		ldr	r1, [r5]
 1694 0bdc 4FF4A022 		mov	r2, #327680
 1695 0be0 5031     		adds	r1, r1, #80
 1696 0be2 2046     		mov	r0, r4
 1697 0be4 FFF7FEFF 		bl	lv_obj_add_style
 1698              	.LVL230:
1040:Drivers/lvgl/lvgl/src/extra/themes/default/lv_theme_default.c ****         lv_obj_add_style(obj, &styles->pressed, LV_PART_ITEMS | LV_STATE_PRESSED);
 1699              		.loc 1 1040 0 discriminator 4
 1700 0be8 2968     		ldr	r1, [r5]
 1701 0bea 4FF4A022 		mov	r2, #327680
 1702 0bee 01F50271 		add	r1, r1, #520
 1703 0bf2 2046     		mov	r0, r4
 1704 0bf4 FFF7FEFF 		bl	lv_obj_add_style
ARM GAS  /tmp/cc6wDDAF.s 			page 55


 1705              	.LVL231:
1041:Drivers/lvgl/lvgl/src/extra/themes/default/lv_theme_default.c ****         lv_obj_add_style(obj, &styles->bg_color_grey, LV_PART_ITEMS | LV_STATE_CHECKED);
 1706              		.loc 1 1041 0 discriminator 4
 1707 0bf8 2968     		ldr	r1, [r5]
 1708 0bfa 2D4A     		ldr	r2, .L77+52
 1709 0bfc 5831     		adds	r1, r1, #88
 1710 0bfe 2046     		mov	r0, r4
 1711 0c00 FFF7FEFF 		bl	lv_obj_add_style
 1712              	.LVL232:
1042:Drivers/lvgl/lvgl/src/extra/themes/default/lv_theme_default.c ****         lv_obj_add_style(obj, &styles->bg_color_primary_muted, LV_PART_ITEMS | LV_STATE_FOCUS_KEY);
 1713              		.loc 1 1042 0 discriminator 4
 1714 0c04 2968     		ldr	r1, [r5]
 1715 0c06 2B4A     		ldr	r2, .L77+56
 1716 0c08 4831     		adds	r1, r1, #72
 1717 0c0a 2046     		mov	r0, r4
 1718 0c0c FFF7FEFF 		bl	lv_obj_add_style
 1719              	.LVL233:
1043:Drivers/lvgl/lvgl/src/extra/themes/default/lv_theme_default.c ****         lv_obj_add_style(obj, &styles->bg_color_secondary_muted, LV_PART_ITEMS | LV_STATE_EDITED);
 1720              		.loc 1 1043 0 discriminator 4
 1721 0c10 2968     		ldr	r1, [r5]
 1722 0c12 294A     		ldr	r2, .L77+60
 1723 0c14 3031     		adds	r1, r1, #48
 1724 0c16 2046     		mov	r0, r4
 1725 0c18 FFF7FEFF 		bl	lv_obj_add_style
 1726              	.LVL234:
1044:Drivers/lvgl/lvgl/src/extra/themes/default/lv_theme_default.c ****     }
 1727              		.loc 1 1044 0 discriminator 4
 1728 0c1c 2968     		ldr	r1, [r5]
 1729 0c1e 274A     		ldr	r2, .L77+64
 1730 0c20 4031     		adds	r1, r1, #64
 1731 0c22 2046     		mov	r0, r4
 1732 0c24 FFF7FEFF 		bl	lv_obj_add_style
 1733              	.LVL235:
 1734 0c28 FFF749BA 		b	.L1
 1735              	.L32:
1034:Drivers/lvgl/lvgl/src/extra/themes/default/lv_theme_default.c ****         lv_obj_add_style(obj, &styles->outline_primary, LV_STATE_FOCUS_KEY);
 1736              		.loc 1 1034 0 discriminator 2
 1737 0c2c 134B     		ldr	r3, .L77
 1738 0c2e 1968     		ldr	r1, [r3]
 1739 0c30 7031     		adds	r1, r1, #112
 1740 0c32 B4E7     		b	.L33
 1741              	.L31:
1048:Drivers/lvgl/lvgl/src/extra/themes/default/lv_theme_default.c ****         lv_obj_add_style(obj, &styles->card, 0);
 1742              		.loc 1 1048 0
 1743 0c34 2249     		ldr	r1, .L77+68
 1744 0c36 2046     		mov	r0, r4
 1745 0c38 FFF7FEFF 		bl	lv_obj_check_type
 1746              	.LVL236:
 1747 0c3c 0028     		cmp	r0, #0
 1748 0c3e 41D0     		beq	.L34
1049:Drivers/lvgl/lvgl/src/extra/themes/default/lv_theme_default.c ****         lv_obj_add_style(obj, &styles->list_bg, 0);
 1749              		.loc 1 1049 0
 1750 0c40 0E4D     		ldr	r5, .L77
 1751 0c42 2968     		ldr	r1, [r5]
 1752 0c44 0022     		movs	r2, #0
 1753 0c46 1831     		adds	r1, r1, #24
 1754 0c48 2046     		mov	r0, r4
ARM GAS  /tmp/cc6wDDAF.s 			page 56


 1755 0c4a FFF7FEFF 		bl	lv_obj_add_style
 1756              	.LVL237:
1050:Drivers/lvgl/lvgl/src/extra/themes/default/lv_theme_default.c ****         lv_obj_add_style(obj, &styles->scrollbar, LV_PART_SCROLLBAR);
 1757              		.loc 1 1050 0
 1758 0c4e 2968     		ldr	r1, [r5]
 1759 0c50 0022     		movs	r2, #0
 1760 0c52 01F50471 		add	r1, r1, #528
 1761 0c56 2046     		mov	r0, r4
 1762 0c58 FFF7FEFF 		bl	lv_obj_add_style
 1763              	.LVL238:
1051:Drivers/lvgl/lvgl/src/extra/themes/default/lv_theme_default.c ****         lv_obj_add_style(obj, &styles->scrollbar_scrolled, LV_PART_SCROLLBAR | LV_STATE_SCROLLED);
 1764              		.loc 1 1051 0
 1765 0c5c 2968     		ldr	r1, [r5]
 1766 0c5e 4FF48032 		mov	r2, #65536
 1767 0c62 0831     		adds	r1, r1, #8
 1768 0c64 2046     		mov	r0, r4
 1769 0c66 FFF7FEFF 		bl	lv_obj_add_style
 1770              	.LVL239:
1052:Drivers/lvgl/lvgl/src/extra/themes/default/lv_theme_default.c ****         return;
 1771              		.loc 1 1052 0
 1772 0c6a 2968     		ldr	r1, [r5]
 1773 0c6c 084A     		ldr	r2, .L77+20
 1774 0c6e 1031     		adds	r1, r1, #16
 1775 0c70 2046     		mov	r0, r4
 1776 0c72 FFF7FEFF 		bl	lv_obj_add_style
 1777              	.LVL240:
1053:Drivers/lvgl/lvgl/src/extra/themes/default/lv_theme_default.c ****     }
 1778              		.loc 1 1053 0
 1779 0c76 FFF722BA 		b	.L1
 1780              	.L78:
 1781 0c7a 00BF     		.align	2
 1782              	.L77:
 1783 0c7c 00000000 		.word	.LANCHOR0
 1784 0c80 00000000 		.word	lv_arc_class
 1785 0c84 00000000 		.word	lv_spinner_class
 1786 0c88 00000000 		.word	lv_meter_class
 1787 0c8c 00000000 		.word	lv_textarea_class
 1788 0c90 40000100 		.word	65600
 1789 0c94 02000700 		.word	458754
 1790 0c98 00000000 		.word	lv_calendar_class
 1791 0c9c 00000000 		.word	lv_calendar_header_arrow_class
 1792 0ca0 00000000 		.word	lv_calendar_header_dropdown_class
 1793 0ca4 00000000 		.word	lv_keyboard_class
 1794 0ca8 00000000 		.word	.LANCHOR1
 1795 0cac 80000500 		.word	327808
 1796 0cb0 20000500 		.word	327712
 1797 0cb4 01000500 		.word	327681
 1798 0cb8 04000500 		.word	327684
 1799 0cbc 08000500 		.word	327688
 1800 0cc0 00000000 		.word	lv_list_class
 1801              	.L34:
1055:Drivers/lvgl/lvgl/src/extra/themes/default/lv_theme_default.c ****         lv_obj_add_style(obj, &styles->bg_color_grey, 0);
 1802              		.loc 1 1055 0
 1803 0cc4 B549     		ldr	r1, .L79
 1804 0cc6 2046     		mov	r0, r4
 1805 0cc8 FFF7FEFF 		bl	lv_obj_check_type
 1806              	.LVL241:
ARM GAS  /tmp/cc6wDDAF.s 			page 57


 1807 0ccc 78B1     		cbz	r0, .L35
1056:Drivers/lvgl/lvgl/src/extra/themes/default/lv_theme_default.c ****         lv_obj_add_style(obj, &styles->list_item_grow, 0);
 1808              		.loc 1 1056 0
 1809 0cce B44D     		ldr	r5, .L79+4
 1810 0cd0 2968     		ldr	r1, [r5]
 1811 0cd2 0022     		movs	r2, #0
 1812 0cd4 4831     		adds	r1, r1, #72
 1813 0cd6 2046     		mov	r0, r4
 1814 0cd8 FFF7FEFF 		bl	lv_obj_add_style
 1815              	.LVL242:
1057:Drivers/lvgl/lvgl/src/extra/themes/default/lv_theme_default.c ****     }
 1816              		.loc 1 1057 0
 1817 0cdc 2968     		ldr	r1, [r5]
 1818 0cde 0022     		movs	r2, #0
 1819 0ce0 01F50871 		add	r1, r1, #544
 1820 0ce4 2046     		mov	r0, r4
 1821 0ce6 FFF7FEFF 		bl	lv_obj_add_style
 1822              	.LVL243:
 1823 0cea FFF7E8B9 		b	.L1
 1824              	.L35:
1059:Drivers/lvgl/lvgl/src/extra/themes/default/lv_theme_default.c ****         lv_obj_add_style(obj, &styles->bg_color_white, 0);
 1825              		.loc 1 1059 0
 1826 0cee AD49     		ldr	r1, .L79+8
 1827 0cf0 2046     		mov	r0, r4
 1828 0cf2 FFF7FEFF 		bl	lv_obj_check_type
 1829              	.LVL244:
 1830 0cf6 48B3     		cbz	r0, .L36
1060:Drivers/lvgl/lvgl/src/extra/themes/default/lv_theme_default.c ****         lv_obj_add_style(obj, &styles->list_btn, 0);
 1831              		.loc 1 1060 0
 1832 0cf8 A94D     		ldr	r5, .L79+4
 1833 0cfa 2968     		ldr	r1, [r5]
 1834 0cfc 0022     		movs	r2, #0
 1835 0cfe 5031     		adds	r1, r1, #80
 1836 0d00 2046     		mov	r0, r4
 1837 0d02 FFF7FEFF 		bl	lv_obj_add_style
 1838              	.LVL245:
1061:Drivers/lvgl/lvgl/src/extra/themes/default/lv_theme_default.c ****         lv_obj_add_style(obj, &styles->bg_color_primary, LV_STATE_FOCUS_KEY);
 1839              		.loc 1 1061 0
 1840 0d06 2968     		ldr	r1, [r5]
 1841 0d08 0022     		movs	r2, #0
 1842 0d0a 01F50671 		add	r1, r1, #536
 1843 0d0e 2046     		mov	r0, r4
 1844 0d10 FFF7FEFF 		bl	lv_obj_add_style
 1845              	.LVL246:
1062:Drivers/lvgl/lvgl/src/extra/themes/default/lv_theme_default.c ****         lv_obj_add_style(obj, &styles->list_item_grow, LV_STATE_FOCUS_KEY);
 1846              		.loc 1 1062 0
 1847 0d14 2968     		ldr	r1, [r5]
 1848 0d16 0422     		movs	r2, #4
 1849 0d18 2831     		adds	r1, r1, #40
 1850 0d1a 2046     		mov	r0, r4
 1851 0d1c FFF7FEFF 		bl	lv_obj_add_style
 1852              	.LVL247:
1063:Drivers/lvgl/lvgl/src/extra/themes/default/lv_theme_default.c ****         lv_obj_add_style(obj, &styles->list_item_grow, LV_STATE_PRESSED);
 1853              		.loc 1 1063 0
 1854 0d20 2968     		ldr	r1, [r5]
 1855 0d22 0422     		movs	r2, #4
 1856 0d24 01F50871 		add	r1, r1, #544
ARM GAS  /tmp/cc6wDDAF.s 			page 58


 1857 0d28 2046     		mov	r0, r4
 1858 0d2a FFF7FEFF 		bl	lv_obj_add_style
 1859              	.LVL248:
1064:Drivers/lvgl/lvgl/src/extra/themes/default/lv_theme_default.c ****         lv_obj_add_style(obj, &styles->pressed, LV_STATE_PRESSED);
 1860              		.loc 1 1064 0
 1861 0d2e 2968     		ldr	r1, [r5]
 1862 0d30 2022     		movs	r2, #32
 1863 0d32 01F50871 		add	r1, r1, #544
 1864 0d36 2046     		mov	r0, r4
 1865 0d38 FFF7FEFF 		bl	lv_obj_add_style
 1866              	.LVL249:
1065:Drivers/lvgl/lvgl/src/extra/themes/default/lv_theme_default.c **** 
 1867              		.loc 1 1065 0
 1868 0d3c 2968     		ldr	r1, [r5]
 1869 0d3e 2022     		movs	r2, #32
 1870 0d40 5831     		adds	r1, r1, #88
 1871 0d42 2046     		mov	r0, r4
 1872 0d44 FFF7FEFF 		bl	lv_obj_add_style
 1873              	.LVL250:
 1874 0d48 FFF7B9B9 		b	.L1
 1875              	.L36:
1070:Drivers/lvgl/lvgl/src/extra/themes/default/lv_theme_default.c ****         lv_obj_add_style(obj, &styles->card, 0);
 1876              		.loc 1 1070 0
 1877 0d4c 9649     		ldr	r1, .L79+12
 1878 0d4e 2046     		mov	r0, r4
 1879 0d50 FFF7FEFF 		bl	lv_obj_check_type
 1880              	.LVL251:
 1881 0d54 78B1     		cbz	r0, .L37
1071:Drivers/lvgl/lvgl/src/extra/themes/default/lv_theme_default.c ****         lv_obj_add_style(obj, &styles->menu_bg, 0);
 1882              		.loc 1 1071 0
 1883 0d56 924D     		ldr	r5, .L79+4
 1884 0d58 2968     		ldr	r1, [r5]
 1885 0d5a 0022     		movs	r2, #0
 1886 0d5c 1831     		adds	r1, r1, #24
 1887 0d5e 2046     		mov	r0, r4
 1888 0d60 FFF7FEFF 		bl	lv_obj_add_style
 1889              	.LVL252:
1072:Drivers/lvgl/lvgl/src/extra/themes/default/lv_theme_default.c ****     }
 1890              		.loc 1 1072 0
 1891 0d64 2968     		ldr	r1, [r5]
 1892 0d66 0022     		movs	r2, #0
 1893 0d68 01F5D071 		add	r1, r1, #416
 1894 0d6c 2046     		mov	r0, r4
 1895 0d6e FFF7FEFF 		bl	lv_obj_add_style
 1896              	.LVL253:
 1897 0d72 FFF7A4B9 		b	.L1
 1898              	.L37:
1074:Drivers/lvgl/lvgl/src/extra/themes/default/lv_theme_default.c ****         lv_obj_add_style(obj, &styles->menu_sidebar_cont, 0);
 1899              		.loc 1 1074 0
 1900 0d76 8D49     		ldr	r1, .L79+16
 1901 0d78 2046     		mov	r0, r4
 1902 0d7a FFF7FEFF 		bl	lv_obj_check_type
 1903              	.LVL254:
 1904 0d7e B0B1     		cbz	r0, .L38
1075:Drivers/lvgl/lvgl/src/extra/themes/default/lv_theme_default.c ****         lv_obj_add_style(obj, &styles->scrollbar, LV_PART_SCROLLBAR);
 1905              		.loc 1 1075 0
 1906 0d80 874D     		ldr	r5, .L79+4
ARM GAS  /tmp/cc6wDDAF.s 			page 59


 1907 0d82 2968     		ldr	r1, [r5]
 1908 0d84 0022     		movs	r2, #0
 1909 0d86 01F5D871 		add	r1, r1, #432
 1910 0d8a 2046     		mov	r0, r4
 1911 0d8c FFF7FEFF 		bl	lv_obj_add_style
 1912              	.LVL255:
1076:Drivers/lvgl/lvgl/src/extra/themes/default/lv_theme_default.c ****         lv_obj_add_style(obj, &styles->scrollbar_scrolled, LV_PART_SCROLLBAR | LV_STATE_SCROLLED);
 1913              		.loc 1 1076 0
 1914 0d90 2968     		ldr	r1, [r5]
 1915 0d92 4FF48032 		mov	r2, #65536
 1916 0d96 0831     		adds	r1, r1, #8
 1917 0d98 2046     		mov	r0, r4
 1918 0d9a FFF7FEFF 		bl	lv_obj_add_style
 1919              	.LVL256:
1077:Drivers/lvgl/lvgl/src/extra/themes/default/lv_theme_default.c ****     }
 1920              		.loc 1 1077 0
 1921 0d9e 2968     		ldr	r1, [r5]
 1922 0da0 834A     		ldr	r2, .L79+20
 1923 0da2 1031     		adds	r1, r1, #16
 1924 0da4 2046     		mov	r0, r4
 1925 0da6 FFF7FEFF 		bl	lv_obj_add_style
 1926              	.LVL257:
 1927 0daa FFF788B9 		b	.L1
 1928              	.L38:
1079:Drivers/lvgl/lvgl/src/extra/themes/default/lv_theme_default.c ****         lv_obj_add_style(obj, &styles->menu_main_cont, 0);
 1929              		.loc 1 1079 0
 1930 0dae 8149     		ldr	r1, .L79+24
 1931 0db0 2046     		mov	r0, r4
 1932 0db2 FFF7FEFF 		bl	lv_obj_check_type
 1933              	.LVL258:
 1934 0db6 B0B1     		cbz	r0, .L39
1080:Drivers/lvgl/lvgl/src/extra/themes/default/lv_theme_default.c ****         lv_obj_add_style(obj, &styles->scrollbar, LV_PART_SCROLLBAR);
 1935              		.loc 1 1080 0
 1936 0db8 794D     		ldr	r5, .L79+4
 1937 0dba 2968     		ldr	r1, [r5]
 1938 0dbc 0022     		movs	r2, #0
 1939 0dbe 01F5DC71 		add	r1, r1, #440
 1940 0dc2 2046     		mov	r0, r4
 1941 0dc4 FFF7FEFF 		bl	lv_obj_add_style
 1942              	.LVL259:
1081:Drivers/lvgl/lvgl/src/extra/themes/default/lv_theme_default.c ****         lv_obj_add_style(obj, &styles->scrollbar_scrolled, LV_PART_SCROLLBAR | LV_STATE_SCROLLED);
 1943              		.loc 1 1081 0
 1944 0dc8 2968     		ldr	r1, [r5]
 1945 0dca 4FF48032 		mov	r2, #65536
 1946 0dce 0831     		adds	r1, r1, #8
 1947 0dd0 2046     		mov	r0, r4
 1948 0dd2 FFF7FEFF 		bl	lv_obj_add_style
 1949              	.LVL260:
1082:Drivers/lvgl/lvgl/src/extra/themes/default/lv_theme_default.c ****     }
 1950              		.loc 1 1082 0
 1951 0dd6 2968     		ldr	r1, [r5]
 1952 0dd8 754A     		ldr	r2, .L79+20
 1953 0dda 1031     		adds	r1, r1, #16
 1954 0ddc 2046     		mov	r0, r4
 1955 0dde FFF7FEFF 		bl	lv_obj_add_style
 1956              	.LVL261:
 1957 0de2 FFF76CB9 		b	.L1
ARM GAS  /tmp/cc6wDDAF.s 			page 60


 1958              	.L39:
1084:Drivers/lvgl/lvgl/src/extra/themes/default/lv_theme_default.c ****         lv_obj_add_style(obj, &styles->menu_cont, 0);
 1959              		.loc 1 1084 0
 1960 0de6 7449     		ldr	r1, .L79+28
 1961 0de8 2046     		mov	r0, r4
 1962 0dea FFF7FEFF 		bl	lv_obj_check_type
 1963              	.LVL262:
 1964 0dee 10B3     		cbz	r0, .L40
1085:Drivers/lvgl/lvgl/src/extra/themes/default/lv_theme_default.c ****         lv_obj_add_style(obj, &styles->menu_pressed, LV_STATE_PRESSED);
 1965              		.loc 1 1085 0
 1966 0df0 6B4D     		ldr	r5, .L79+4
 1967 0df2 2968     		ldr	r1, [r5]
 1968 0df4 0022     		movs	r2, #0
 1969 0df6 01F5D471 		add	r1, r1, #424
 1970 0dfa 2046     		mov	r0, r4
 1971 0dfc FFF7FEFF 		bl	lv_obj_add_style
 1972              	.LVL263:
1086:Drivers/lvgl/lvgl/src/extra/themes/default/lv_theme_default.c ****         lv_obj_add_style(obj, &styles->bg_color_primary_muted, LV_STATE_PRESSED | LV_STATE_CHECKED)
 1973              		.loc 1 1086 0
 1974 0e00 2968     		ldr	r1, [r5]
 1975 0e02 2022     		movs	r2, #32
 1976 0e04 01F5F071 		add	r1, r1, #480
 1977 0e08 2046     		mov	r0, r4
 1978 0e0a FFF7FEFF 		bl	lv_obj_add_style
 1979              	.LVL264:
1087:Drivers/lvgl/lvgl/src/extra/themes/default/lv_theme_default.c ****         lv_obj_add_style(obj, &styles->bg_color_primary_muted, LV_STATE_CHECKED);
 1980              		.loc 1 1087 0
 1981 0e0e 2968     		ldr	r1, [r5]
 1982 0e10 2122     		movs	r2, #33
 1983 0e12 3031     		adds	r1, r1, #48
 1984 0e14 2046     		mov	r0, r4
 1985 0e16 FFF7FEFF 		bl	lv_obj_add_style
 1986              	.LVL265:
1088:Drivers/lvgl/lvgl/src/extra/themes/default/lv_theme_default.c ****         lv_obj_add_style(obj, &styles->bg_color_primary, LV_STATE_FOCUS_KEY);
 1987              		.loc 1 1088 0
 1988 0e1a 2968     		ldr	r1, [r5]
 1989 0e1c 0122     		movs	r2, #1
 1990 0e1e 3031     		adds	r1, r1, #48
 1991 0e20 2046     		mov	r0, r4
 1992 0e22 FFF7FEFF 		bl	lv_obj_add_style
 1993              	.LVL266:
1089:Drivers/lvgl/lvgl/src/extra/themes/default/lv_theme_default.c ****     }
 1994              		.loc 1 1089 0
 1995 0e26 2968     		ldr	r1, [r5]
 1996 0e28 0422     		movs	r2, #4
 1997 0e2a 2831     		adds	r1, r1, #40
 1998 0e2c 2046     		mov	r0, r4
 1999 0e2e FFF7FEFF 		bl	lv_obj_add_style
 2000              	.LVL267:
 2001 0e32 FFF744B9 		b	.L1
 2002              	.L40:
1091:Drivers/lvgl/lvgl/src/extra/themes/default/lv_theme_default.c ****             lv_obj_check_type(obj, &lv_menu_main_header_cont_class)) {
 2003              		.loc 1 1091 0
 2004 0e36 6149     		ldr	r1, .L79+32
 2005 0e38 2046     		mov	r0, r4
 2006 0e3a FFF7FEFF 		bl	lv_obj_check_type
 2007              	.LVL268:
ARM GAS  /tmp/cc6wDDAF.s 			page 61


 2008 0e3e 20B9     		cbnz	r0, .L41
1092:Drivers/lvgl/lvgl/src/extra/themes/default/lv_theme_default.c ****         lv_obj_add_style(obj, &styles->menu_header_cont, 0);
 2009              		.loc 1 1092 0 discriminator 1
 2010 0e40 5F49     		ldr	r1, .L79+36
 2011 0e42 2046     		mov	r0, r4
 2012 0e44 FFF7FEFF 		bl	lv_obj_check_type
 2013              	.LVL269:
1091:Drivers/lvgl/lvgl/src/extra/themes/default/lv_theme_default.c ****             lv_obj_check_type(obj, &lv_menu_main_header_cont_class)) {
 2014              		.loc 1 1091 0 discriminator 1
 2015 0e48 48B1     		cbz	r0, .L42
 2016              	.L41:
1093:Drivers/lvgl/lvgl/src/extra/themes/default/lv_theme_default.c ****     }
 2017              		.loc 1 1093 0
 2018 0e4a 554B     		ldr	r3, .L79+4
 2019 0e4c 1968     		ldr	r1, [r3]
 2020 0e4e 0022     		movs	r2, #0
 2021 0e50 01F5E471 		add	r1, r1, #456
 2022 0e54 2046     		mov	r0, r4
 2023 0e56 FFF7FEFF 		bl	lv_obj_add_style
 2024              	.LVL270:
 2025 0e5a FFF730B9 		b	.L1
 2026              	.L42:
1095:Drivers/lvgl/lvgl/src/extra/themes/default/lv_theme_default.c ****         lv_obj_add_style(obj, &styles->menu_page, 0);
 2027              		.loc 1 1095 0
 2028 0e5e 5949     		ldr	r1, .L79+40
 2029 0e60 2046     		mov	r0, r4
 2030 0e62 FFF7FEFF 		bl	lv_obj_check_type
 2031              	.LVL271:
 2032 0e66 B0B1     		cbz	r0, .L43
1096:Drivers/lvgl/lvgl/src/extra/themes/default/lv_theme_default.c ****         lv_obj_add_style(obj, &styles->scrollbar, LV_PART_SCROLLBAR);
 2033              		.loc 1 1096 0
 2034 0e68 4D4D     		ldr	r5, .L79+4
 2035 0e6a 2968     		ldr	r1, [r5]
 2036 0e6c 0022     		movs	r2, #0
 2037 0e6e 01F5E071 		add	r1, r1, #448
 2038 0e72 2046     		mov	r0, r4
 2039 0e74 FFF7FEFF 		bl	lv_obj_add_style
 2040              	.LVL272:
1097:Drivers/lvgl/lvgl/src/extra/themes/default/lv_theme_default.c ****         lv_obj_add_style(obj, &styles->scrollbar_scrolled, LV_PART_SCROLLBAR | LV_STATE_SCROLLED);
 2041              		.loc 1 1097 0
 2042 0e78 2968     		ldr	r1, [r5]
 2043 0e7a 4FF48032 		mov	r2, #65536
 2044 0e7e 0831     		adds	r1, r1, #8
 2045 0e80 2046     		mov	r0, r4
 2046 0e82 FFF7FEFF 		bl	lv_obj_add_style
 2047              	.LVL273:
1098:Drivers/lvgl/lvgl/src/extra/themes/default/lv_theme_default.c ****     }
 2048              		.loc 1 1098 0
 2049 0e86 2968     		ldr	r1, [r5]
 2050 0e88 494A     		ldr	r2, .L79+20
 2051 0e8a 1031     		adds	r1, r1, #16
 2052 0e8c 2046     		mov	r0, r4
 2053 0e8e FFF7FEFF 		bl	lv_obj_add_style
 2054              	.LVL274:
 2055 0e92 FFF714B9 		b	.L1
 2056              	.L43:
1100:Drivers/lvgl/lvgl/src/extra/themes/default/lv_theme_default.c ****         lv_obj_add_style(obj, &styles->menu_section, 0);
ARM GAS  /tmp/cc6wDDAF.s 			page 62


 2057              		.loc 1 1100 0
 2058 0e96 4C49     		ldr	r1, .L79+44
 2059 0e98 2046     		mov	r0, r4
 2060 0e9a FFF7FEFF 		bl	lv_obj_check_type
 2061              	.LVL275:
 2062 0e9e 48B1     		cbz	r0, .L44
1101:Drivers/lvgl/lvgl/src/extra/themes/default/lv_theme_default.c ****     }
 2063              		.loc 1 1101 0
 2064 0ea0 3F4B     		ldr	r3, .L79+4
 2065 0ea2 1968     		ldr	r1, [r3]
 2066 0ea4 0022     		movs	r2, #0
 2067 0ea6 01F5EC71 		add	r1, r1, #472
 2068 0eaa 2046     		mov	r0, r4
 2069 0eac FFF7FEFF 		bl	lv_obj_add_style
 2070              	.LVL276:
 2071 0eb0 FFF705B9 		b	.L1
 2072              	.L44:
1103:Drivers/lvgl/lvgl/src/extra/themes/default/lv_theme_default.c ****         lv_obj_add_style(obj, &styles->menu_separator, 0);
 2073              		.loc 1 1103 0
 2074 0eb4 4549     		ldr	r1, .L79+48
 2075 0eb6 2046     		mov	r0, r4
 2076 0eb8 FFF7FEFF 		bl	lv_obj_check_type
 2077              	.LVL277:
 2078 0ebc 48B1     		cbz	r0, .L45
1104:Drivers/lvgl/lvgl/src/extra/themes/default/lv_theme_default.c ****     }
 2079              		.loc 1 1104 0
 2080 0ebe 384B     		ldr	r3, .L79+4
 2081 0ec0 1968     		ldr	r1, [r3]
 2082 0ec2 0022     		movs	r2, #0
 2083 0ec4 01F5F471 		add	r1, r1, #488
 2084 0ec8 2046     		mov	r0, r4
 2085 0eca FFF7FEFF 		bl	lv_obj_add_style
 2086              	.LVL278:
 2087 0ece FFF7F6B8 		b	.L1
 2088              	.L45:
1108:Drivers/lvgl/lvgl/src/extra/themes/default/lv_theme_default.c ****         lv_obj_add_style(obj, &styles->card, 0);
 2089              		.loc 1 1108 0
 2090 0ed2 3F49     		ldr	r1, .L79+52
 2091 0ed4 2046     		mov	r0, r4
 2092 0ed6 FFF7FEFF 		bl	lv_obj_check_type
 2093              	.LVL279:
 2094 0eda 78B1     		cbz	r0, .L46
1109:Drivers/lvgl/lvgl/src/extra/themes/default/lv_theme_default.c ****         lv_obj_add_style(obj, &styles->msgbox_bg, 0);
 2095              		.loc 1 1109 0
 2096 0edc 304D     		ldr	r5, .L79+4
 2097 0ede 2968     		ldr	r1, [r5]
 2098 0ee0 0022     		movs	r2, #0
 2099 0ee2 1831     		adds	r1, r1, #24
 2100 0ee4 2046     		mov	r0, r4
 2101 0ee6 FFF7FEFF 		bl	lv_obj_add_style
 2102              	.LVL280:
1110:Drivers/lvgl/lvgl/src/extra/themes/default/lv_theme_default.c ****         return;
 2103              		.loc 1 1110 0
 2104 0eea 2968     		ldr	r1, [r5]
 2105 0eec 0022     		movs	r2, #0
 2106 0eee 01F5F871 		add	r1, r1, #496
 2107 0ef2 2046     		mov	r0, r4
ARM GAS  /tmp/cc6wDDAF.s 			page 63


 2108 0ef4 FFF7FEFF 		bl	lv_obj_add_style
 2109              	.LVL281:
1111:Drivers/lvgl/lvgl/src/extra/themes/default/lv_theme_default.c ****     }
 2110              		.loc 1 1111 0
 2111 0ef8 FFF7E1B8 		b	.L1
 2112              	.L46:
1113:Drivers/lvgl/lvgl/src/extra/themes/default/lv_theme_default.c ****         lv_obj_add_style(obj, &styles->msgbox_backdrop_bg, 0);
 2113              		.loc 1 1113 0
 2114 0efc 3549     		ldr	r1, .L79+56
 2115 0efe 2046     		mov	r0, r4
 2116 0f00 FFF7FEFF 		bl	lv_obj_check_type
 2117              	.LVL282:
 2118 0f04 48B1     		cbz	r0, .L47
1114:Drivers/lvgl/lvgl/src/extra/themes/default/lv_theme_default.c ****     }
 2119              		.loc 1 1114 0
 2120 0f06 264B     		ldr	r3, .L79+4
 2121 0f08 1968     		ldr	r1, [r3]
 2122 0f0a 0022     		movs	r2, #0
 2123 0f0c 01F50071 		add	r1, r1, #512
 2124 0f10 2046     		mov	r0, r4
 2125 0f12 FFF7FEFF 		bl	lv_obj_add_style
 2126              	.LVL283:
 2127 0f16 FFF7D2B8 		b	.L1
 2128              	.L47:
1118:Drivers/lvgl/lvgl/src/extra/themes/default/lv_theme_default.c ****         lv_obj_add_style(obj, &styles->card, 0);
 2129              		.loc 1 1118 0
 2130 0f1a 2F49     		ldr	r1, .L79+60
 2131 0f1c 2046     		mov	r0, r4
 2132 0f1e FFF7FEFF 		bl	lv_obj_check_type
 2133              	.LVL284:
 2134 0f22 08B3     		cbz	r0, .L48
1119:Drivers/lvgl/lvgl/src/extra/themes/default/lv_theme_default.c ****         lv_obj_add_style(obj, &styles->pad_small, 0);
 2135              		.loc 1 1119 0
 2136 0f24 1E4D     		ldr	r5, .L79+4
 2137 0f26 2968     		ldr	r1, [r5]
 2138 0f28 0022     		movs	r2, #0
 2139 0f2a 1831     		adds	r1, r1, #24
 2140 0f2c 2046     		mov	r0, r4
 2141 0f2e FFF7FEFF 		bl	lv_obj_add_style
 2142              	.LVL285:
1120:Drivers/lvgl/lvgl/src/extra/themes/default/lv_theme_default.c ****         lv_obj_add_style(obj, &styles->outline_primary, LV_STATE_FOCUS_KEY);
 2143              		.loc 1 1120 0
 2144 0f32 2968     		ldr	r1, [r5]
 2145 0f34 0022     		movs	r2, #0
 2146 0f36 7831     		adds	r1, r1, #120
 2147 0f38 2046     		mov	r0, r4
 2148 0f3a FFF7FEFF 		bl	lv_obj_add_style
 2149              	.LVL286:
1121:Drivers/lvgl/lvgl/src/extra/themes/default/lv_theme_default.c ****         lv_obj_add_style(obj, &styles->outline_secondary, LV_STATE_EDITED);
 2150              		.loc 1 1121 0
 2151 0f3e 2968     		ldr	r1, [r5]
 2152 0f40 0422     		movs	r2, #4
 2153 0f42 A031     		adds	r1, r1, #160
 2154 0f44 2046     		mov	r0, r4
 2155 0f46 FFF7FEFF 		bl	lv_obj_add_style
 2156              	.LVL287:
1122:Drivers/lvgl/lvgl/src/extra/themes/default/lv_theme_default.c ****         lv_obj_add_style(obj, &styles->bg_color_primary, LV_PART_CURSOR);
ARM GAS  /tmp/cc6wDDAF.s 			page 64


 2157              		.loc 1 1122 0
 2158 0f4a 2968     		ldr	r1, [r5]
 2159 0f4c 0822     		movs	r2, #8
 2160 0f4e A831     		adds	r1, r1, #168
 2161 0f50 2046     		mov	r0, r4
 2162 0f52 FFF7FEFF 		bl	lv_obj_add_style
 2163              	.LVL288:
1123:Drivers/lvgl/lvgl/src/extra/themes/default/lv_theme_default.c ****     }
 2164              		.loc 1 1123 0
 2165 0f56 2968     		ldr	r1, [r5]
 2166 0f58 4FF4E022 		mov	r2, #458752
 2167 0f5c 2831     		adds	r1, r1, #40
 2168 0f5e 2046     		mov	r0, r4
 2169 0f60 FFF7FEFF 		bl	lv_obj_add_style
 2170              	.LVL289:
 2171 0f64 FFF7ABB8 		b	.L1
 2172              	.L48:
1127:Drivers/lvgl/lvgl/src/extra/themes/default/lv_theme_default.c ****         lv_obj_add_style(obj, &styles->scr, 0);
 2173              		.loc 1 1127 0
 2174 0f68 1C49     		ldr	r1, .L79+64
 2175 0f6a 2046     		mov	r0, r4
 2176 0f6c FFF7FEFF 		bl	lv_obj_check_type
 2177              	.LVL290:
 2178 0f70 B0B3     		cbz	r0, .L49
1128:Drivers/lvgl/lvgl/src/extra/themes/default/lv_theme_default.c ****         lv_obj_add_style(obj, &styles->scrollbar, LV_PART_SCROLLBAR);
 2179              		.loc 1 1128 0
 2180 0f72 0B4D     		ldr	r5, .L79+4
 2181 0f74 0022     		movs	r2, #0
 2182 0f76 2968     		ldr	r1, [r5]
 2183 0f78 2046     		mov	r0, r4
 2184 0f7a FFF7FEFF 		bl	lv_obj_add_style
 2185              	.LVL291:
1129:Drivers/lvgl/lvgl/src/extra/themes/default/lv_theme_default.c ****         lv_obj_add_style(obj, &styles->scrollbar_scrolled, LV_PART_SCROLLBAR | LV_STATE_SCROLLED);
 2186              		.loc 1 1129 0
 2187 0f7e 2968     		ldr	r1, [r5]
 2188 0f80 4FF48032 		mov	r2, #65536
 2189 0f84 0831     		adds	r1, r1, #8
 2190 0f86 2046     		mov	r0, r4
 2191 0f88 FFF7FEFF 		bl	lv_obj_add_style
 2192              	.LVL292:
1130:Drivers/lvgl/lvgl/src/extra/themes/default/lv_theme_default.c ****     }
 2193              		.loc 1 1130 0
 2194 0f8c 2968     		ldr	r1, [r5]
 2195 0f8e 084A     		ldr	r2, .L79+20
 2196 0f90 1031     		adds	r1, r1, #16
 2197 0f92 2046     		mov	r0, r4
 2198 0f94 FFF7FEFF 		bl	lv_obj_add_style
 2199              	.LVL293:
 2200 0f98 FFF791B8 		b	.L1
 2201              	.L80:
 2202              		.align	2
 2203              	.L79:
 2204 0f9c 00000000 		.word	lv_list_text_class
 2205 0fa0 00000000 		.word	.LANCHOR0
 2206 0fa4 00000000 		.word	lv_list_btn_class
 2207 0fa8 00000000 		.word	lv_menu_class
 2208 0fac 00000000 		.word	lv_menu_sidebar_cont_class
ARM GAS  /tmp/cc6wDDAF.s 			page 65


 2209 0fb0 40000100 		.word	65600
 2210 0fb4 00000000 		.word	lv_menu_main_cont_class
 2211 0fb8 00000000 		.word	lv_menu_cont_class
 2212 0fbc 00000000 		.word	lv_menu_sidebar_header_cont_class
 2213 0fc0 00000000 		.word	lv_menu_main_header_cont_class
 2214 0fc4 00000000 		.word	lv_menu_page_class
 2215 0fc8 00000000 		.word	lv_menu_section_class
 2216 0fcc 00000000 		.word	lv_menu_separator_class
 2217 0fd0 00000000 		.word	lv_msgbox_class
 2218 0fd4 00000000 		.word	lv_msgbox_backdrop_class
 2219 0fd8 00000000 		.word	lv_spinbox_class
 2220 0fdc 00000000 		.word	lv_tileview_class
 2221              	.L49:
1132:Drivers/lvgl/lvgl/src/extra/themes/default/lv_theme_default.c ****         lv_obj_add_style(obj, &styles->scrollbar, LV_PART_SCROLLBAR);
 2222              		.loc 1 1132 0
 2223 0fe0 3449     		ldr	r1, .L81
 2224 0fe2 2046     		mov	r0, r4
 2225 0fe4 FFF7FEFF 		bl	lv_obj_check_type
 2226              	.LVL294:
 2227 0fe8 78B1     		cbz	r0, .L50
1133:Drivers/lvgl/lvgl/src/extra/themes/default/lv_theme_default.c ****         lv_obj_add_style(obj, &styles->scrollbar_scrolled, LV_PART_SCROLLBAR | LV_STATE_SCROLLED);
 2228              		.loc 1 1133 0
 2229 0fea 334D     		ldr	r5, .L81+4
 2230 0fec 2968     		ldr	r1, [r5]
 2231 0fee 4FF48032 		mov	r2, #65536
 2232 0ff2 0831     		adds	r1, r1, #8
 2233 0ff4 2046     		mov	r0, r4
 2234 0ff6 FFF7FEFF 		bl	lv_obj_add_style
 2235              	.LVL295:
1134:Drivers/lvgl/lvgl/src/extra/themes/default/lv_theme_default.c ****     }
 2236              		.loc 1 1134 0
 2237 0ffa 2968     		ldr	r1, [r5]
 2238 0ffc 2F4A     		ldr	r2, .L81+8
 2239 0ffe 1031     		adds	r1, r1, #16
 2240 1000 2046     		mov	r0, r4
 2241 1002 FFF7FEFF 		bl	lv_obj_add_style
 2242              	.LVL296:
 2243 1006 FFF75AB8 		b	.L1
 2244              	.L50:
1139:Drivers/lvgl/lvgl/src/extra/themes/default/lv_theme_default.c ****         lv_obj_add_style(obj, &styles->scr, 0);
